   1              		.file	"libnero.c"
   2              		.section	.rodata.str1.8,"aMS",@progbits,1
   3              		.align 8
   4              	.LC0:
   5 0000 73657445 		.string	"setEndpointSize(): Failed to get config descriptor: %s (%d)"
   5      6E64706F 
   5      696E7453 
   5      697A6528 
   5      293A2046 
   6 003c 00000000 		.align 8
   7              	.LC1:
   8 0040 73657445 		.string	"setEndpointSize(): EP2OUT not found or not configured as a bulk endpoint!"
   8      6E64706F 
   8      696E7453 
   8      697A6528 
   8      293A2045 
   9 008a 00000000 		.align 8
   9      0000
  10              	.LC2:
  11 0090 73657445 		.string	"setEndpointSize(): EP4IN not found or not configured as a bulk endpoint!"
  11      6E64706F 
  11      696E7453 
  11      697A6528 
  11      293A2045 
  12 00d9 00000000 		.align 8
  12      000000
  13              	.LC3:
  14 00e0 73657445 		.string	"setEndpointSize(): EP2OUT's wMaxPacketSize differs from that of EP4IN"
  14      6E64706F 
  14      696E7453 
  14      697A6528 
  14      293A2045 
  15              		.section	.text.unlikely,"ax",@progbits
  16              	.LCOLDB4:
  17              		.text
  18              	.LHOTB4:
  19              		.p2align 4,,15
  21              	setEndpointSize:
  22              	.LFB43:
  23              		.cfi_startproc
  24 0000 4155     		pushq	%r13
  25              		.cfi_def_cfa_offset 16
  26              		.cfi_offset 13, -16
  27 0002 4154     		pushq	%r12
  28              		.cfi_def_cfa_offset 24
  29              		.cfi_offset 12, -24
  30 0004 4531C0   		xorl	%r8d, %r8d
  31 0007 55       		pushq	%rbp
  32              		.cfi_def_cfa_offset 32
  33              		.cfi_offset 6, -32
  34 0008 53       		pushq	%rbx
  35              		.cfi_def_cfa_offset 40
  36              		.cfi_offset 3, -40
  37 0009 4889FD   		movq	%rdi, %rbp
  38 000c B9000200 		movl	$512, %ecx
  38      00
  39 0011 BA060000 		movl	$6, %edx
  39      00
  40 0016 4889F3   		movq	%rsi, %rbx
  41 0019 4881EC18 		subq	$1048, %rsp
  41      040000
  42              		.cfi_def_cfa_offset 1088
  43 0020 BE800000 		movl	$128, %esi
  43      00
  44 0025 64488B04 		movq	%fs:40, %rax
  44      25280000 
  44      00
  45 002e 48898424 		movq	%rax, 1032(%rsp)
  45      08040000 
  46 0036 31C0     		xorl	%eax, %eax
  47 0038 31C0     		xorl	%eax, %eax
  48 003a 4989E4   		movq	%rsp, %r12
  49 003d 66894708 		movw	%ax, 8(%rdi)
  50 0041 488B3F   		movq	(%rdi), %rdi
  51 0044 4D89E1   		movq	%r12, %r9
  52 0047 68881300 		pushq	$5000
  52      00
  53              		.cfi_def_cfa_offset 1096
  54 004c 68000400 		pushq	$1024
  54      00
  55              		.cfi_def_cfa_offset 1104
  56 0051 E8000000 		call	usb_control_msg@PLT
  56      00
  57 0056 85C0     		testl	%eax, %eax
  58 0058 4189C5   		movl	%eax, %r13d
  59 005b 5A       		popq	%rdx
  60              		.cfi_def_cfa_offset 1096
  61 005c 59       		popq	%rcx
  62              		.cfi_def_cfa_offset 1088
  63 005d 0F88ED00 		js	.L21
  63      0000
  64 0063 0F849700 		je	.L4
  64      0000
  65 0069 0FB60424 		movzbl	(%rsp), %eax
  66 006d 4D8D0C04 		leaq	(%r12,%rax), %r9
  67 0071 410FB649 		movzbl	4(%r9), %ecx
  67      04
  68 0076 410FB601 		movzbl	(%r9), %eax
  69 007a 4C01C8   		addq	%r9, %rax
  70 007d 84C9     		testb	%cl, %cl
  71 007f 8D51FF   		leal	-1(%rcx), %edx
  72 0082 747C     		je	.L4
  73 0084 31FF     		xorl	%edi, %edi
  74 0086 31F6     		xorl	%esi, %esi
  75 0088 EB14     		jmp	.L7
  76 008a 660F1F44 		.p2align 4,,10
  76      0000
  77              		.p2align 3
  78              	.L5:
  79 0090 0FB608   		movzbl	(%rax), %ecx
  80 0093 83EA01   		subl	$1, %edx
  81 0096 4801C8   		addq	%rcx, %rax
  82 0099 80FAFF   		cmpb	$-1, %dl
  83 009c 7432     		je	.L22
  84              	.L7:
  85 009e 80780302 		cmpb	$2, 3(%rax)
  86 00a2 75EC     		jne	.L5
  87 00a4 0FB64802 		movzbl	2(%rax), %ecx
  88 00a8 80F902   		cmpb	$2, %cl
  89 00ab 0F848F00 		je	.L23
  89      0000
  90 00b1 80F984   		cmpb	$-124, %cl
  91 00b4 75DA     		jne	.L5
  92 00b6 0FB608   		movzbl	(%rax), %ecx
  93 00b9 83EA01   		subl	$1, %edx
  94 00bc 0FB77804 		movzwl	4(%rax), %edi
  95 00c0 4801C8   		addq	%rcx, %rax
  96 00c3 80FAFF   		cmpb	$-1, %dl
  97 00c6 75D6     		jne	.L7
  98 00c8 0F1F8400 		.p2align 4,,10
  98      00000000 
  99              		.p2align 3
 100              	.L22:
 101 00d0 6685F6   		testw	%si, %si
 102 00d3 742B     		je	.L4
 103 00d5 6685FF   		testw	%di, %di
 104 00d8 0F84A200 		je	.L24
 104      0000
 105 00de 6639F7   		cmpw	%si, %di
 106 00e1 0F849100 		je	.L10
 106      0000
 107 00e7 488D3500 		leaq	.LC3(%rip), %rsi
 107      000000
 108 00ee 31C0     		xorl	%eax, %eax
 109 00f0 4889DF   		movq	%rbx, %rdi
 110 00f3 E8000000 		call	errRender@PLT
 110      00
 111 00f8 B8030000 		movl	$3, %eax
 111      00
 112 00fd EB17     		jmp	.L3
 113 00ff 90       		.p2align 4,,10
 114              		.p2align 3
 115              	.L4:
 116 0100 488D3500 		leaq	.LC1(%rip), %rsi
 116      000000
 117 0107 31C0     		xorl	%eax, %eax
 118 0109 4889DF   		movq	%rbx, %rdi
 119 010c E8000000 		call	errRender@PLT
 119      00
 120 0111 B8030000 		movl	$3, %eax
 120      00
 121              	.L3:
 122 0116 488B9C24 		movq	1032(%rsp), %rbx
 122      08040000 
 123 011e 6448331C 		xorq	%fs:40, %rbx
 123      25280000 
 123      00
 124 0127 7572     		jne	.L25
 125 0129 4881C418 		addq	$1048, %rsp
 125      040000
 126              		.cfi_remember_state
 127              		.cfi_def_cfa_offset 40
 128 0130 5B       		popq	%rbx
 129              		.cfi_def_cfa_offset 32
 130 0131 5D       		popq	%rbp
 131              		.cfi_def_cfa_offset 24
 132 0132 415C     		popq	%r12
 133              		.cfi_def_cfa_offset 16
 134 0134 415D     		popq	%r13
 135              		.cfi_def_cfa_offset 8
 136 0136 C3       		ret
 137 0137 660F1F84 		.p2align 4,,10
 137      00000000 
 137      00
 138              		.p2align 3
 139              	.L23:
 140              		.cfi_restore_state
 141 0140 0FB77004 		movzwl	4(%rax), %esi
 142 0144 E947FFFF 		jmp	.L5
 142      FF
 143 0149 0F1F8000 		.p2align 4,,10
 143      000000
 144              		.p2align 3
 145              	.L21:
 146 0150 E8000000 		call	usb_strerror@PLT
 146      00
 147 0155 488D3500 		leaq	.LC0(%rip), %rsi
 147      000000
 148 015c 4889C2   		movq	%rax, %rdx
 149 015f 4489E9   		movl	%r13d, %ecx
 150 0162 31C0     		xorl	%eax, %eax
 151 0164 4889DF   		movq	%rbx, %rdi
 152 0167 E8000000 		call	errRender@PLT
 152      00
 153 016c B8030000 		movl	$3, %eax
 153      00
 154 0171 EBA3     		jmp	.L3
 155              		.p2align 4,,10
 156 0173 0F1F4400 		.p2align 3
 156      00
 157              	.L10:
 158 0178 66897D08 		movw	%di, 8(%rbp)
 159 017c 31C0     		xorl	%eax, %eax
 160 017e EB96     		jmp	.L3
 161              		.p2align 4,,10
 162              		.p2align 3
 163              	.L24:
 164 0180 488D3500 		leaq	.LC2(%rip), %rsi
 164      000000
 165 0187 31C0     		xorl	%eax, %eax
 166 0189 4889DF   		movq	%rbx, %rdi
 167 018c E8000000 		call	errRender@PLT
 167      00
 168 0191 B8030000 		movl	$3, %eax
 168      00
 169 0196 E97BFFFF 		jmp	.L3
 169      FF
 170              	.L25:
 171 019b E8000000 		call	__stack_chk_fail@PLT
 171      00
 172              		.cfi_endproc
 173              	.LFE43:
 175              		.section	.text.unlikely
 176              	.LCOLDE4:
 177              		.text
 178              	.LHOTE4:
 179              		.section	.rodata.str1.1,"aMS",@progbits,1
 180              	.LC5:
 181 0000 6E65726F 		.string	"neroInitialise()"
 181      496E6974 
 181      69616C69 
 181      73652829 
 181      00
 182              	.LC6:
 183 0011 656E6162 		.string	"enable"
 183      6C6500
 184              		.section	.rodata.str1.8
 185 0126 0000     		.align 8
 186              	.LC7:
 187 0128 7365744A 		.string	"setJtagMode(): Unable to %s JTAG mode: %s (%d)"
 187      7461674D 
 187      6F646528 
 187      293A2055 
 187      6E61626C 
 188              		.section	.text.unlikely
 189              	.LCOLDB8:
 190              		.text
 191              	.LHOTB8:
 192              		.p2align 4,,15
 193              		.globl	neroInitialise
 195              	neroInitialise:
 196              	.LFB35:
 197              		.cfi_startproc
 198 01a0 4154     		pushq	%r12
 199              		.cfi_def_cfa_offset 16
 200              		.cfi_offset 12, -16
 201 01a2 55       		pushq	%rbp
 202              		.cfi_def_cfa_offset 24
 203              		.cfi_offset 6, -24
 204 01a3 4889D5   		movq	%rdx, %rbp
 205 01a6 53       		pushq	%rbx
 206              		.cfi_def_cfa_offset 32
 207              		.cfi_offset 3, -32
 208 01a7 4889F3   		movq	%rsi, %rbx
 209 01aa 48893E   		movq	%rdi, (%rsi)
 210 01ad 4889D6   		movq	%rdx, %rsi
 211 01b0 4889DF   		movq	%rbx, %rdi
 212 01b3 E848FEFF 		call	setEndpointSize
 212      FF
 213 01b8 85C0     		testl	%eax, %eax
 214 01ba 742C     		je	.L27
 215 01bc 488D3500 		leaq	.LC5(%rip), %rsi
 215      000000
 216 01c3 4889EF   		movq	%rbp, %rdi
 217 01c6 E8000000 		call	errPrefix@PLT
 217      00
 218 01cb B8030000 		movl	$3, %eax
 218      00
 219              	.L28:
 220 01d0 31D2     		xorl	%edx, %edx
 221 01d2 48C70300 		movq	$0, (%rbx)
 221      000000
 222 01d9 66895308 		movw	%dx, 8(%rbx)
 223              	.L29:
 224 01dd 5B       		popq	%rbx
 225              		.cfi_remember_state
 226              		.cfi_def_cfa_offset 24
 227 01de 5D       		popq	%rbp
 228              		.cfi_def_cfa_offset 16
 229 01df 415C     		popq	%r12
 230              		.cfi_def_cfa_offset 8
 231 01e1 C3       		ret
 232              		.p2align 4,,10
 233 01e2 660F1F44 		.p2align 3
 233      0000
 234              	.L27:
 235              		.cfi_restore_state
 236 01e8 488B3B   		movq	(%rbx), %rdi
 237 01eb 68881300 		pushq	$5000
 237      00
 238              		.cfi_def_cfa_offset 40
 239 01f0 4531C9   		xorl	%r9d, %r9d
 240 01f3 6A00     		pushq	$0
 241              		.cfi_def_cfa_offset 48
 242 01f5 B9020000 		movl	$2, %ecx
 242      00
 243 01fa BE400000 		movl	$64, %esi
 243      00
 244 01ff 41B80200 		movl	$2, %r8d
 244      0000
 245 0205 BA800000 		movl	$128, %edx
 245      00
 246 020a E8000000 		call	usb_control_msg@PLT
 246      00
 247 020f 4189C4   		movl	%eax, %r12d
 248 0212 31C0     		xorl	%eax, %eax
 249 0214 4585E4   		testl	%r12d, %r12d
 250 0217 59       		popq	%rcx
 251              		.cfi_def_cfa_offset 40
 252 0218 5E       		popq	%rsi
 253              		.cfi_def_cfa_offset 32
 254 0219 79C2     		jns	.L29
 255 021b E8000000 		call	usb_strerror@PLT
 255      00
 256 0220 488D1500 		leaq	.LC6(%rip), %rdx
 256      000000
 257 0227 488D3500 		leaq	.LC7(%rip), %rsi
 257      000000
 258 022e 4889C1   		movq	%rax, %rcx
 259 0231 4589E0   		movl	%r12d, %r8d
 260 0234 31C0     		xorl	%eax, %eax
 261 0236 4889EF   		movq	%rbp, %rdi
 262 0239 E8000000 		call	errRender@PLT
 262      00
 263 023e 488D3500 		leaq	.LC5(%rip), %rsi
 263      000000
 264 0245 4889EF   		movq	%rbp, %rdi
 265 0248 E8000000 		call	errPrefix@PLT
 265      00
 266 024d B8090000 		movl	$9, %eax
 266      00
 267 0252 E979FFFF 		jmp	.L28
 267      FF
 268              		.cfi_endproc
 269              	.LFE35:
 271              		.section	.text.unlikely
 272              	.LCOLDE8:
 273              		.text
 274              	.LHOTE8:
 275              		.section	.rodata.str1.1
 276              	.LC9:
 277 0018 64697361 		.string	"disable"
 277      626C6500 
 278              	.LC10:
 279 0020 6E65726F 		.string	"neroClose()"
 279      436C6F73 
 279      65282900 
 280              		.section	.text.unlikely
 281              	.LCOLDB11:
 282              		.text
 283              	.LHOTB11:
 284 0257 660F1F84 		.p2align 4,,15
 284      00000000 
 284      00
 285              		.globl	neroClose
 287              	neroClose:
 288              	.LFB36:
 289              		.cfi_startproc
 290 0260 4154     		pushq	%r12
 291              		.cfi_def_cfa_offset 16
 292              		.cfi_offset 12, -16
 293 0262 55       		pushq	%rbp
 294              		.cfi_def_cfa_offset 24
 295              		.cfi_offset 6, -24
 296 0263 53       		pushq	%rbx
 297              		.cfi_def_cfa_offset 32
 298              		.cfi_offset 3, -32
 299 0264 4889FB   		movq	%rdi, %rbx
 300 0267 488B3F   		movq	(%rdi), %rdi
 301 026a 4885FF   		testq	%rdi, %rdi
 302 026d 742C     		je	.L35
 303 026f 68881300 		pushq	$5000
 303      00
 304              		.cfi_def_cfa_offset 40
 305 0274 6A00     		pushq	$0
 306              		.cfi_def_cfa_offset 48
 307 0276 31C9     		xorl	%ecx, %ecx
 308 0278 4531C9   		xorl	%r9d, %r9d
 309 027b 4989F4   		movq	%rsi, %r12
 310 027e 41B80200 		movl	$2, %r8d
 310      0000
 311 0284 BE400000 		movl	$64, %esi
 311      00
 312 0289 BA800000 		movl	$128, %edx
 312      00
 313 028e E8000000 		call	usb_control_msg@PLT
 313      00
 314 0293 85C0     		testl	%eax, %eax
 315 0295 89C5     		movl	%eax, %ebp
 316 0297 59       		popq	%rcx
 317              		.cfi_def_cfa_offset 40
 318 0298 5E       		popq	%rsi
 319              		.cfi_def_cfa_offset 32
 320 0299 7815     		js	.L37
 321              	.L35:
 322 029b 31C0     		xorl	%eax, %eax
 323              	.L34:
 324 029d 31D2     		xorl	%edx, %edx
 325 029f 48C70300 		movq	$0, (%rbx)
 325      000000
 326 02a6 66895308 		movw	%dx, 8(%rbx)
 327 02aa 5B       		popq	%rbx
 328              		.cfi_remember_state
 329              		.cfi_def_cfa_offset 24
 330 02ab 5D       		popq	%rbp
 331              		.cfi_def_cfa_offset 16
 332 02ac 415C     		popq	%r12
 333              		.cfi_def_cfa_offset 8
 334 02ae C3       		ret
 335 02af 90       		.p2align 4,,10
 336              		.p2align 3
 337              	.L37:
 338              		.cfi_restore_state
 339 02b0 E8000000 		call	usb_strerror@PLT
 339      00
 340 02b5 488D1500 		leaq	.LC9(%rip), %rdx
 340      000000
 341 02bc 488D3500 		leaq	.LC7(%rip), %rsi
 341      000000
 342 02c3 4889C1   		movq	%rax, %rcx
 343 02c6 4189E8   		movl	%ebp, %r8d
 344 02c9 31C0     		xorl	%eax, %eax
 345 02cb 4C89E7   		movq	%r12, %rdi
 346 02ce E8000000 		call	errRender@PLT
 346      00
 347 02d3 488D3500 		leaq	.LC10(%rip), %rsi
 347      000000
 348 02da 4C89E7   		movq	%r12, %rdi
 349 02dd E8000000 		call	errPrefix@PLT
 349      00
 350 02e2 B8090000 		movl	$9, %eax
 350      00
 351 02e7 EBB4     		jmp	.L34
 352              		.cfi_endproc
 353              	.LFE36:
 355              		.section	.text.unlikely
 356              	.LCOLDE11:
 357              		.text
 358              	.LHOTE11:
 359              		.section	.rodata.str1.1
 360              	.LC12:
 361 002c 62656769 		.string	"beginShift(): %s (%d)"
 361      6E536869 
 361      66742829 
 361      3A202573 
 361      20282564 
 362              	.LC13:
 363 0042 6E65726F 		.string	"neroShift()"
 363      53686966 
 363      74282900 
 364              	.LC14:
 365 004e 646F5365 		.string	"doSend(): %s (%d)"
 365      6E642829 
 365      3A202573 
 365      20282564 
 365      2900
 366              	.LC15:
 367 0060 646F5265 		.string	"doReceive(): %s (%d)"
 367      63656976 
 367      6528293A 
 367      20257320 
 367      28256429 
 368              		.section	.text.unlikely
 369              	.LCOLDB16:
 370              		.text
 371              	.LHOTB16:
 372 02e9 0F1F8000 		.p2align 4,,15
 372      000000
 373              		.globl	neroShift
 375              	neroShift:
 376              	.LFB37:
 377              		.cfi_startproc
 378 02f0 4157     		pushq	%r15
 379              		.cfi_def_cfa_offset 16
 380              		.cfi_offset 15, -16
 381 02f2 4156     		pushq	%r14
 382              		.cfi_def_cfa_offset 24
 383              		.cfi_offset 14, -24
 384 02f4 4D89CF   		movq	%r9, %r15
 385 02f7 4155     		pushq	%r13
 386              		.cfi_def_cfa_offset 32
 387              		.cfi_offset 13, -32
 388 02f9 4154     		pushq	%r12
 389              		.cfi_def_cfa_offset 40
 390              		.cfi_offset 12, -40
 391 02fb 4989CE   		movq	%rcx, %r14
 392 02fe 55       		pushq	%rbp
 393              		.cfi_def_cfa_offset 48
 394              		.cfi_offset 6, -48
 395 02ff 53       		pushq	%rbx
 396              		.cfi_def_cfa_offset 56
 397              		.cfi_offset 3, -56
 398 0300 4989FC   		movq	%rdi, %r12
 399 0303 89F3     		movl	%esi, %ebx
 400 0305 4889D5   		movq	%rdx, %rbp
 401 0308 4883EC28 		subq	$40, %rsp
 402              		.cfi_def_cfa_offset 96
 403 030c 64488B04 		movq	%fs:40, %rax
 403      25280000 
 403      00
 404 0315 48894424 		movq	%rax, 24(%rsp)
 404      18
 405 031a 31C0     		xorl	%eax, %eax
 406 031c 4885D2   		testq	%rdx, %rdx
 407 031f 0F84C302 		je	.L62
 407      0000
 408 0325 4883FAFF 		cmpq	$-1, %rdx
 409 0329 410F95C2 		setne	%r10b
 410 032d 450FB6EA 		movzbl	%r10b, %r13d
 411 0331 410FB6F2 		movzbl	%r10b, %esi
 412 0335 410FB6C2 		movzbl	%r10b, %eax
 413 0339 410FB6CA 		movzbl	%r10b, %ecx
 414 033d 410FB6D2 		movzbl	%r10b, %edx
 415 0341 4183C501 		addl	$1, %r13d
 416 0345 4D85F6   		testq	%r14, %r14
 417 0348 8D34B506 		leal	6(,%rsi,4), %esi
 417      000000
 418 034f 8D048505 		leal	5(,%rax,4), %eax
 418      000000
 419 0356 8D0C8D07 		leal	7(,%rcx,4), %ecx
 419      000000
 420 035d 8D149504 		leal	4(,%rdx,4), %edx
 420      000000
 421 0364 0F849E02 		je	.L80
 421      0000
 422              	.L40:
 423 036a 4584C0   		testb	%r8b, %r8b
 424 036d 895C2414 		movl	%ebx, 20(%rsp)
 425 0371 C6442408 		movb	$1, 8(%rsp)
 425      01
 426 0376 0F44C8   		cmove	%eax, %ecx
 427              	.L47:
 428 0379 68881300 		pushq	$5000
 428      00
 429              		.cfi_def_cfa_offset 104
 430 037e 6A04     		pushq	$4
 431              		.cfi_def_cfa_offset 112
 432 0380 4531C0   		xorl	%r8d, %r8d
 433 0383 498B3C24 		movq	(%r12), %rdi
 434 0387 BA810000 		movl	$129, %edx
 434      00
 435 038c BE400000 		movl	$64, %esi
 435      00
 436 0391 4C8D4C24 		leaq	36(%rsp), %r9
 436      24
 437 0396 E8000000 		call	usb_control_msg@PLT
 437      00
 438 039b 89C1     		movl	%eax, %ecx
 439 039d 85C9     		testl	%ecx, %ecx
 440 039f 58       		popq	%rax
 441              		.cfi_def_cfa_offset 104
 442 03a0 5A       		popq	%rdx
 443              		.cfi_def_cfa_offset 96
 444 03a1 0F88E900 		js	.L81
 444      0000
 445 03a7 31C0     		xorl	%eax, %eax
 446 03a9 F6C307   		testb	$7, %bl
 447 03ac 0F95C0   		setne	%al
 448 03af C1EB03   		shrl	$3, %ebx
 449 03b2 01C3     		addl	%eax, %ebx
 450 03b4 7426     		je	.L48
 451 03b6 807C2408 		cmpb	$0, 8(%rsp)
 451      00
 452 03bb 0F850F01 		jne	.L82
 452      0000
 453 03c1 4183FD02 		cmpl	$2, %r13d
 454 03c5 7441     		je	.L59
 455 03c7 410FB74C 		movzwl	8(%r12), %ecx
 455      2408
 456 03cd 89CA     		movl	%ecx, %edx
 457 03cf 90       		.p2align 4,,10
 458              		.p2align 3
 459              	.L56:
 460 03d0 39CB     		cmpl	%ecx, %ebx
 461 03d2 0FB7C3   		movzwl	%bx, %eax
 462 03d5 0F43C2   		cmovnb	%edx, %eax
 463 03d8 29C3     		subl	%eax, %ebx
 464 03da 75F4     		jne	.L56
 465              	.L48:
 466 03dc 31C0     		xorl	%eax, %eax
 467              	.L43:
 468 03de 488B7C24 		movq	24(%rsp), %rdi
 468      18
 469 03e3 6448333C 		xorq	%fs:40, %rdi
 469      25280000 
 469      00
 470 03ec 0F853702 		jne	.L83
 470      0000
 471 03f2 4883C428 		addq	$40, %rsp
 472              		.cfi_remember_state
 473              		.cfi_def_cfa_offset 56
 474 03f6 5B       		popq	%rbx
 475              		.cfi_def_cfa_offset 48
 476 03f7 5D       		popq	%rbp
 477              		.cfi_def_cfa_offset 40
 478 03f8 415C     		popq	%r12
 479              		.cfi_def_cfa_offset 32
 480 03fa 415D     		popq	%r13
 481              		.cfi_def_cfa_offset 24
 482 03fc 415E     		popq	%r14
 483              		.cfi_def_cfa_offset 16
 484 03fe 415F     		popq	%r15
 485              		.cfi_def_cfa_offset 8
 486 0400 C3       		ret
 487              		.p2align 4,,10
 488 0401 0F1F8000 		.p2align 3
 488      000000
 489              	.L59:
 490              		.cfi_restore_state
 491 0408 450FB76C 		movzwl	8(%r12), %r13d
 491      2408
 492 040e 4139DD   		cmpl	%ebx, %r13d
 493 0411 4D89EE   		movq	%r13, %r14
 494 0414 7607     		jbe	.L57
 495 0416 440FB7EB 		movzwl	%bx, %r13d
 496 041a 4D89EE   		movq	%r13, %r14
 497              	.L57:
 498 041d 498B3C24 		movq	(%r12), %rdi
 499 0421 4489E9   		movl	%r13d, %ecx
 500 0424 41B88813 		movl	$5000, %r8d
 500      0000
 501 042a 4889EA   		movq	%rbp, %rdx
 502 042d BE020000 		movl	$2, %esi
 502      00
 503 0432 E8000000 		call	usb_bulk_write@PLT
 503      00
 504 0437 85C0     		testl	%eax, %eax
 505 0439 89C1     		movl	%eax, %ecx
 506 043b 7813     		js	.L58
 507 043d 4C01F5   		addq	%r14, %rbp
 508 0440 4429EB   		subl	%r13d, %ebx
 509 0443 75C3     		jne	.L59
 510 0445 EB95     		jmp	.L48
 511 0447 660F1F84 		.p2align 4,,10
 511      00000000 
 511      00
 512              		.p2align 3
 513              	.L58:
 514 0450 894C2408 		movl	%ecx, 8(%rsp)
 515 0454 E8000000 		call	usb_strerror@PLT
 515      00
 516 0459 8B4C2408 		movl	8(%rsp), %ecx
 517 045d 488D3500 		leaq	.LC14(%rip), %rsi
 517      000000
 518 0464 4889C2   		movq	%rax, %rdx
 519 0467 4C89FF   		movq	%r15, %rdi
 520 046a 31C0     		xorl	%eax, %eax
 521 046c E8000000 		call	errRender@PLT
 521      00
 522 0471 488D3500 		leaq	.LC13(%rip), %rsi
 522      000000
 523 0478 4C89FF   		movq	%r15, %rdi
 524 047b E8000000 		call	errPrefix@PLT
 524      00
 525 0480 B8070000 		movl	$7, %eax
 525      00
 526 0485 E954FFFF 		jmp	.L43
 526      FF
 527 048a 660F1F44 		.p2align 4,,10
 527      0000
 528              		.p2align 3
 529              	.L81:
 530 0490 894C2408 		movl	%ecx, 8(%rsp)
 531 0494 E8000000 		call	usb_strerror@PLT
 531      00
 532 0499 8B4C2408 		movl	8(%rsp), %ecx
 533 049d 488D3500 		leaq	.LC12(%rip), %rsi
 533      000000
 534 04a4 4889C2   		movq	%rax, %rdx
 535 04a7 4C89FF   		movq	%r15, %rdi
 536 04aa 31C0     		xorl	%eax, %eax
 537 04ac E8000000 		call	errRender@PLT
 537      00
 538 04b1 488D3500 		leaq	.LC13(%rip), %rsi
 538      000000
 539 04b8 4C89FF   		movq	%r15, %rdi
 540 04bb E8000000 		call	errPrefix@PLT
 540      00
 541 04c0 B8060000 		movl	$6, %eax
 541      00
 542 04c5 E914FFFF 		jmp	.L43
 542      FF
 543 04ca 660F1F44 		.p2align 4,,10
 543      0000
 544              		.p2align 3
 545              	.L82:
 546 04d0 4183FD02 		cmpl	$2, %r13d
 547 04d4 745D     		je	.L60
 548 04d6 662E0F1F 		.p2align 4,,10
 548      84000000 
 548      0000
 549              		.p2align 3
 550              	.L53:
 551 04e0 410FB76C 		movzwl	8(%r12), %ebp
 551      2408
 552 04e6 39EB     		cmpl	%ebp, %ebx
 553 04e8 4989ED   		movq	%rbp, %r13
 554 04eb 7306     		jnb	.L51
 555 04ed 0FB7EB   		movzwl	%bx, %ebp
 556 04f0 4989ED   		movq	%rbp, %r13
 557              	.L51:
 558 04f3 498B3C24 		movq	(%r12), %rdi
 559 04f7 89E9     		movl	%ebp, %ecx
 560 04f9 41B88813 		movl	$5000, %r8d
 560      0000
 561 04ff 4C89F2   		movq	%r14, %rdx
 562 0502 BE840000 		movl	$132, %esi
 562      00
 563 0507 E8000000 		call	usb_bulk_read@PLT
 563      00
 564 050c 85C0     		testl	%eax, %eax
 565 050e 89C1     		movl	%eax, %ecx
 566 0510 0F889200 		js	.L52
 566      0000
 567 0516 4D01EE   		addq	%r13, %r14
 568 0519 29EB     		subl	%ebp, %ebx
 569 051b 75C3     		jne	.L53
 570 051d E9BAFEFF 		jmp	.L48
 570      FF
 571              	.L84:
 572 0522 4C8B4C24 		movq	8(%rsp), %r9
 572      08
 573 0527 4D01CE   		addq	%r9, %r14
 574 052a 4429EB   		subl	%r13d, %ebx
 575 052d 0F84A9FE 		je	.L48
 575      FFFF
 576              	.L60:
 577 0533 450FB76C 		movzwl	8(%r12), %r13d
 577      2408
 578 0539 4439EB   		cmpl	%r13d, %ebx
 579 053c 4589E9   		movl	%r13d, %r9d
 580 053f 7307     		jnb	.L44
 581 0541 440FB7EB 		movzwl	%bx, %r13d
 582 0545 4589E9   		movl	%r13d, %r9d
 583              	.L44:
 584 0548 498B3C24 		movq	(%r12), %rdi
 585 054c 4489E9   		movl	%r13d, %ecx
 586 054f 41B88813 		movl	$5000, %r8d
 586      0000
 587 0555 4889EA   		movq	%rbp, %rdx
 588 0558 BE020000 		movl	$2, %esi
 588      00
 589 055d 44894C24 		movl	%r9d, 8(%rsp)
 589      08
 590 0562 E8000000 		call	usb_bulk_write@PLT
 590      00
 591 0567 85C0     		testl	%eax, %eax
 592 0569 89C1     		movl	%eax, %ecx
 593 056b 448B4C24 		movl	8(%rsp), %r9d
 593      08
 594 0570 0F88DAFE 		js	.L58
 594      FFFF
 595 0576 498B3C24 		movq	(%r12), %rdi
 596 057a 450FB7C9 		movzwl	%r9w, %r9d
 597 057e 4489E9   		movl	%r13d, %ecx
 598 0581 41B88813 		movl	$5000, %r8d
 598      0000
 599 0587 4C89F2   		movq	%r14, %rdx
 600 058a BE840000 		movl	$132, %esi
 600      00
 601 058f 4C01CD   		addq	%r9, %rbp
 602 0592 4C894C24 		movq	%r9, 8(%rsp)
 602      08
 603 0597 E8000000 		call	usb_bulk_read@PLT
 603      00
 604 059c 85C0     		testl	%eax, %eax
 605 059e 89C1     		movl	%eax, %ecx
 606 05a0 7980     		jns	.L84
 607              		.p2align 4,,10
 608 05a2 660F1F44 		.p2align 3
 608      0000
 609              	.L52:
 610 05a8 894C2408 		movl	%ecx, 8(%rsp)
 611 05ac E8000000 		call	usb_strerror@PLT
 611      00
 612 05b1 8B4C2408 		movl	8(%rsp), %ecx
 613 05b5 488D3500 		leaq	.LC15(%rip), %rsi
 613      000000
 614 05bc 4889C2   		movq	%rax, %rdx
 615 05bf 4C89FF   		movq	%r15, %rdi
 616 05c2 31C0     		xorl	%eax, %eax
 617 05c4 E8000000 		call	errRender@PLT
 617      00
 618 05c9 488D3500 		leaq	.LC13(%rip), %rsi
 618      000000
 619 05d0 4C89FF   		movq	%r15, %rdi
 620 05d3 E8000000 		call	errPrefix@PLT
 620      00
 621 05d8 B8080000 		movl	$8, %eax
 621      00
 622 05dd E9FCFDFF 		jmp	.L43
 622      FF
 623              		.p2align 4,,10
 624 05e2 660F1F44 		.p2align 3
 624      0000
 625              	.L62:
 626 05e8 31D2     		xorl	%edx, %edx
 627 05ea 4531ED   		xorl	%r13d, %r13d
 628 05ed 4D85F6   		testq	%r14, %r14
 629 05f0 BE020000 		movl	$2, %esi
 629      00
 630 05f5 B8010000 		movl	$1, %eax
 630      00
 631 05fa B9030000 		movl	$3, %ecx
 631      00
 632 05ff 0F8565FD 		jne	.L40
 632      FFFF
 633              		.p2align 4,,10
 634 0605 0F1F00   		.p2align 3
 635              	.L80:
 636 0608 4584C0   		testb	%r8b, %r8b
 637 060b 895C2414 		movl	%ebx, 20(%rsp)
 638 060f 750C     		jne	.L64
 639 0611 89D1     		movl	%edx, %ecx
 640 0613 C6442408 		movb	$0, 8(%rsp)
 640      00
 641 0618 E95CFDFF 		jmp	.L47
 641      FF
 642              	.L64:
 643 061d 89F1     		movl	%esi, %ecx
 644 061f C6442408 		movb	$0, 8(%rsp)
 644      00
 645 0624 E950FDFF 		jmp	.L47
 645      FF
 646              	.L83:
 647 0629 E8000000 		call	__stack_chk_fail@PLT
 647      00
 648              		.cfi_endproc
 649              	.LFE37:
 651              		.section	.text.unlikely
 652              	.LCOLDE16:
 653              		.text
 654              	.LHOTE16:
 655              		.section	.rodata.str1.1
 656              	.LC17:
 657 0075 6E65726F 		.string	"neroClockFSM(): %s (%d)"
 657      436C6F63 
 657      6B46534D 
 657      28293A20 
 657      25732028 
 658              		.section	.text.unlikely
 659              	.LCOLDB18:
 660              		.text
 661              	.LHOTB18:
 662 062e 6690     		.p2align 4,,15
 663              		.globl	neroClockFSM
 665              	neroClockFSM:
 666              	.LFB38:
 667              		.cfi_startproc
 668 0630 55       		pushq	%rbp
 669              		.cfi_def_cfa_offset 16
 670              		.cfi_offset 6, -16
 671 0631 53       		pushq	%rbx
 672              		.cfi_def_cfa_offset 24
 673              		.cfi_offset 3, -24
 674 0632 4531C0   		xorl	%r8d, %r8d
 675 0635 4889CD   		movq	%rcx, %rbp
 676 0638 0FB6CA   		movzbl	%dl, %ecx
 677 063b BA820000 		movl	$130, %edx
 677      00
 678 0640 4883EC18 		subq	$24, %rsp
 679              		.cfi_def_cfa_offset 48
 680 0644 488B3F   		movq	(%rdi), %rdi
 681 0647 64488B04 		movq	%fs:40, %rax
 681      25280000 
 681      00
 682 0650 48894424 		movq	%rax, 8(%rsp)
 682      08
 683 0655 31C0     		xorl	%eax, %eax
 684 0657 89742404 		movl	%esi, 4(%rsp)
 685 065b 68881300 		pushq	$5000
 685      00
 686              		.cfi_def_cfa_offset 56
 687 0660 BE400000 		movl	$64, %esi
 687      00
 688 0665 6A04     		pushq	$4
 689              		.cfi_def_cfa_offset 64
 690 0667 4C8D4C24 		leaq	20(%rsp), %r9
 690      14
 691 066c E8000000 		call	usb_control_msg@PLT
 691      00
 692 0671 89C3     		movl	%eax, %ebx
 693 0673 58       		popq	%rax
 694              		.cfi_def_cfa_offset 56
 695 0674 31C0     		xorl	%eax, %eax
 696 0676 85DB     		testl	%ebx, %ebx
 697 0678 5A       		popq	%rdx
 698              		.cfi_def_cfa_offset 48
 699 0679 781D     		js	.L90
 700              	.L86:
 701 067b 488B5C24 		movq	8(%rsp), %rbx
 701      08
 702 0680 6448331C 		xorq	%fs:40, %rbx
 702      25280000 
 702      00
 703 0689 752F     		jne	.L91
 704 068b 4883C418 		addq	$24, %rsp
 705              		.cfi_remember_state
 706              		.cfi_def_cfa_offset 24
 707 068f 5B       		popq	%rbx
 708              		.cfi_def_cfa_offset 16
 709 0690 5D       		popq	%rbp
 710              		.cfi_def_cfa_offset 8
 711 0691 C3       		ret
 712              		.p2align 4,,10
 713 0692 660F1F44 		.p2align 3
 713      0000
 714              	.L90:
 715              		.cfi_restore_state
 716 0698 E8000000 		call	usb_strerror@PLT
 716      00
 717 069d 488D3500 		leaq	.LC17(%rip), %rsi
 717      000000
 718 06a4 4889C2   		movq	%rax, %rdx
 719 06a7 89D9     		movl	%ebx, %ecx
 720 06a9 31C0     		xorl	%eax, %eax
 721 06ab 4889EF   		movq	%rbp, %rdi
 722 06ae E8000000 		call	errRender@PLT
 722      00
 723 06b3 B8040000 		movl	$4, %eax
 723      00
 724 06b8 EBC1     		jmp	.L86
 725              	.L91:
 726 06ba E8000000 		call	__stack_chk_fail@PLT
 726      00
 727              		.cfi_endproc
 728              	.LFE38:
 730              		.section	.text.unlikely
 731              	.LCOLDE18:
 732              		.text
 733              	.LHOTE18:
 734              		.section	.rodata.str1.1
 735              	.LC19:
 736 008d 6E65726F 		.string	"neroClocks(): %s (%d)"
 736      436C6F63 
 736      6B732829 
 736      3A202573 
 736      20282564 
 737              		.section	.text.unlikely
 738              	.LCOLDB20:
 739              		.text
 740              	.LHOTB20:
 741 06bf 90       		.p2align 4,,15
 742              		.globl	neroClocks
 744              	neroClocks:
 745              	.LFB39:
 746              		.cfi_startproc
 747 06c0 55       		pushq	%rbp
 748              		.cfi_def_cfa_offset 16
 749              		.cfi_offset 6, -16
 750 06c1 53       		pushq	%rbx
 751              		.cfi_def_cfa_offset 24
 752              		.cfi_offset 3, -24
 753 06c2 0FB7CE   		movzwl	%si, %ecx
 754 06c5 C1EE10   		shrl	$16, %esi
 755 06c8 4531C9   		xorl	%r9d, %r9d
 756 06cb 4889D5   		movq	%rdx, %rbp
 757 06ce 4883EC08 		subq	$8, %rsp
 758              		.cfi_def_cfa_offset 32
 759 06d2 488B3F   		movq	(%rdi), %rdi
 760 06d5 4189F0   		movl	%esi, %r8d
 761 06d8 68881300 		pushq	$5000
 761      00
 762              		.cfi_def_cfa_offset 40
 763 06dd 6A00     		pushq	$0
 764              		.cfi_def_cfa_offset 48
 765 06df BA830000 		movl	$131, %edx
 765      00
 766 06e4 BE400000 		movl	$64, %esi
 766      00
 767 06e9 E8000000 		call	usb_control_msg@PLT
 767      00
 768 06ee 89C3     		movl	%eax, %ebx
 769 06f0 58       		popq	%rax
 770              		.cfi_def_cfa_offset 40
 771 06f1 31C0     		xorl	%eax, %eax
 772 06f3 85DB     		testl	%ebx, %ebx
 773 06f5 5A       		popq	%rdx
 774              		.cfi_def_cfa_offset 32
 775 06f6 7808     		js	.L96
 776 06f8 4883C408 		addq	$8, %rsp
 777              		.cfi_remember_state
 778              		.cfi_def_cfa_offset 24
 779 06fc 5B       		popq	%rbx
 780              		.cfi_def_cfa_offset 16
 781 06fd 5D       		popq	%rbp
 782              		.cfi_def_cfa_offset 8
 783 06fe C3       		ret
 784 06ff 90       		.p2align 4,,10
 785              		.p2align 3
 786              	.L96:
 787              		.cfi_restore_state
 788 0700 E8000000 		call	usb_strerror@PLT
 788      00
 789 0705 488D3500 		leaq	.LC19(%rip), %rsi
 789      000000
 790 070c 89D9     		movl	%ebx, %ecx
 791 070e 4889C2   		movq	%rax, %rdx
 792 0711 4889EF   		movq	%rbp, %rdi
 793 0714 31C0     		xorl	%eax, %eax
 794 0716 E8000000 		call	errRender@PLT
 794      00
 795 071b 4883C408 		addq	$8, %rsp
 796              		.cfi_def_cfa_offset 24
 797 071f B8050000 		movl	$5, %eax
 797      00
 798 0724 5B       		popq	%rbx
 799              		.cfi_def_cfa_offset 16
 800 0725 5D       		popq	%rbp
 801              		.cfi_def_cfa_offset 8
 802 0726 C3       		ret
 803              		.cfi_endproc
 804              	.LFE39:
 806              		.section	.text.unlikely
 807              	.LCOLDE20:
 808              		.text
 809              	.LHOTE20:
 810              		.ident	"GCC: (Ubuntu 4.9.2-10ubuntu13) 4.9.2"
 811              		.section	.note.GNU-stack,"",@progbits