   1              		.file	"MemoryOutStream.cpp"
   2              		.section	.text.unlikely,"ax",@progbits
   3              		.align 2
   4              	.LCOLDB0:
   5              		.text
   6              	.LHOTB0:
   7              		.align 2
   8              		.p2align 4,,15
  10              	_ZNSs4_Rep10_M_disposeERKSaIcE.part.4:
  11              	.LFB1183:
  12              		.cfi_startproc
  13 0000 48833D00 		cmpq	$0, _ZL28__gthrw___pthread_key_createPjPFvPvE@GOTPCREL(%rip)
  13      00000000 
  14 0008 7416     		je	.L2
  15 000a B8FFFFFF 		movl	$-1, %eax
  15      FF
  16 000f F00FC147 		lock xaddl	%eax, 16(%rdi)
  16      10
  17 0014 85C0     		testl	%eax, %eax
  18 0016 7E15     		jle	.L6
  19              	.L1:
  20 0018 F3C3     		rep ret
  21 001a 660F1F44 		.p2align 4,,10
  21      0000
  22              		.p2align 3
  23              	.L2:
  24 0020 8B4710   		movl	16(%rdi), %eax
  25 0023 8D50FF   		leal	-1(%rax), %edx
  26 0026 85C0     		testl	%eax, %eax
  27 0028 895710   		movl	%edx, 16(%rdi)
  28 002b 7FEB     		jg	.L1
  29              	.L6:
  30 002d E9000000 		jmp	_ZNSs4_Rep10_M_destroyERKSaIcE@PLT
  30      00
  31              		.cfi_endproc
  32              	.LFE1183:
  34              		.section	.text.unlikely
  35              	.LCOLDE0:
  36              		.text
  37              	.LHOTE0:
  38              		.section	.rodata.str1.8,"aMS",@progbits,1
  39              		.align 8
  40              	.LC1:
  41 0000 62617369 		.string	"basic_string::_S_construct null not valid"
  41      635F7374 
  41      72696E67 
  41      3A3A5F53 
  41      5F636F6E 
  42              		.section	.text.unlikely
  43              		.align 2
  44              	.LCOLDB2:
  45              		.text
  46              	.LHOTB2:
  47              		.align 2
  48 0032 0F1F4000 		.p2align 4,,15
  48      662E0F1F 
  48      84000000 
  48      0000
  49              		.globl	_ZNK8UnitTest15MemoryOutStream7GetTextEv
  51              	_ZNK8UnitTest15MemoryOutStream7GetTextEv:
  52              	.LFB1080:
  53              		.cfi_startproc
  54              		.cfi_personality 0x9b,DW.ref.__gxx_personality_v0
  55              		.cfi_lsda 0x1b,.LLSDA1080
  56 0040 4156     		pushq	%r14
  57              		.cfi_def_cfa_offset 16
  58              		.cfi_offset 14, -16
  59 0042 4155     		pushq	%r13
  60              		.cfi_def_cfa_offset 24
  61              		.cfi_offset 13, -24
  62 0044 4154     		pushq	%r12
  63              		.cfi_def_cfa_offset 32
  64              		.cfi_offset 12, -32
  65 0046 55       		pushq	%rbp
  66              		.cfi_def_cfa_offset 40
  67              		.cfi_offset 6, -40
  68 0047 53       		pushq	%rbx
  69              		.cfi_def_cfa_offset 48
  70              		.cfi_offset 3, -48
  71 0048 4889FB   		movq	%rdi, %rbx
  72 004b 4883EC30 		subq	$48, %rsp
  73              		.cfi_def_cfa_offset 96
  74 004f 488B2D00 		movq	_ZNSs4_Rep20_S_empty_rep_storageE@GOTPCREL(%rip), %rbp
  74      000000
  75 0056 488B5730 		movq	48(%rdi), %rdx
  76 005a 64488B04 		movq	%fs:40, %rax
  76      25280000 
  76      00
  77 0063 48894424 		movq	%rax, 40(%rsp)
  77      28
  78 0068 31C0     		xorl	%eax, %eax
  79 006a 488D4518 		leaq	24(%rbp), %rax
  80 006e 4885D2   		testq	%rdx, %rdx
  81 0071 48894424 		movq	%rax, 16(%rsp)
  81      10
  82 0076 0F84F401 		je	.L8
  82      0000
  83 007c 488B7F20 		movq	32(%rdi), %rdi
  84 0080 4C8B6328 		movq	40(%rbx), %r12
  85 0084 4839FA   		cmpq	%rdi, %rdx
  86 0087 761F     		jbe	.L9
  87 0089 4C39E2   		cmpq	%r12, %rdx
  88 008c 0F84CE01 		je	.L48
  88      0000
  89 0092 4D85E4   		testq	%r12, %r12
  90 0095 7530     		jne	.L80
  91 0097 488D3D00 		leaq	.LC1(%rip), %rdi
  91      000000
  92              	.LEHB0:
  93 009e E8000000 		call	_ZSt19__throw_logic_errorPKc@PLT
  93      00
  94              		.p2align 4,,10
  95 00a3 0F1F4400 		.p2align 3
  95      00
  96              	.L9:
  97 00a8 4C39E7   		cmpq	%r12, %rdi
  98 00ab 0F84A701 		je	.L49
  98      0000
  99 00b1 4D85E4   		testq	%r12, %r12
 100 00b4 756A     		jne	.L24
 101 00b6 4885FF   		testq	%rdi, %rdi
 102 00b9 7465     		je	.L24
 103 00bb 488D3D00 		leaq	.LC1(%rip), %rdi
 103      000000
 104 00c2 E8000000 		call	_ZSt19__throw_logic_errorPKc@PLT
 104      00
 105              	.L80:
 106 00c7 4C29E2   		subq	%r12, %rdx
 107 00ca 31F6     		xorl	%esi, %esi
 108 00cc 4989D5   		movq	%rdx, %r13
 109 00cf 488D5424 		leaq	15(%rsp), %rdx
 109      0F
 110 00d4 4C89EF   		movq	%r13, %rdi
 111 00d7 E8000000 		call	_ZNSs4_Rep9_S_createEmmRKSaIcE@PLT
 111      00
 112              	.LEHE0:
 113 00dc 4983FD01 		cmpq	$1, %r13
 114 00e0 4989C6   		movq	%rax, %r14
 115 00e3 488D4818 		leaq	24(%rax), %rcx
 116 00e7 0F84EB00 		je	.L81
 116      0000
 117 00ed 4889CF   		movq	%rcx, %rdi
 118 00f0 4C89EA   		movq	%r13, %rdx
 119 00f3 4C89E6   		movq	%r12, %rsi
 120 00f6 E8000000 		call	memcpy@PLT
 120      00
 121 00fb 4889C1   		movq	%rax, %rcx
 122              	.L14:
 123 00fe 4939EE   		cmpq	%rbp, %r14
 124 0101 0F85D901 		jne	.L82
 124      0000
 125              	.L10:
 126 0107 4C8D6424 		leaq	16(%rsp), %r12
 126      10
 127 010c 488D7424 		leaq	32(%rsp), %rsi
 127      20
 128 0111 48894C24 		movq	%rcx, 32(%rsp)
 128      20
 129 0116 4C89E7   		movq	%r12, %rdi
 130              	.LEHB1:
 131 0119 E8000000 		call	_ZNSs6assignERKSs@PLT
 131      00
 132              	.LEHE1:
 133 011e EB54     		jmp	.L75
 134              	.L24:
 135 0120 488D5424 		leaq	15(%rsp), %rdx
 135      0F
 136 0125 4C29E7   		subq	%r12, %rdi
 137 0128 31F6     		xorl	%esi, %esi
 138 012a 4989FD   		movq	%rdi, %r13
 139              	.LEHB2:
 140 012d E8000000 		call	_ZNSs4_Rep9_S_createEmmRKSaIcE@PLT
 140      00
 141              	.LEHE2:
 142 0132 4983FD01 		cmpq	$1, %r13
 143 0136 4989C6   		movq	%rax, %r14
 144 0139 488D4818 		leaq	24(%rax), %rcx
 145 013d 0F848500 		je	.L83
 145      0000
 146 0143 4889CF   		movq	%rcx, %rdi
 147 0146 4C89EA   		movq	%r13, %rdx
 148 0149 4C89E6   		movq	%r12, %rsi
 149 014c E8000000 		call	memcpy@PLT
 149      00
 150 0151 4889C1   		movq	%rax, %rcx
 151              	.L26:
 152 0154 4939EE   		cmpq	%rbp, %r14
 153 0157 0F856301 		jne	.L84
 153      0000
 154              	.L21:
 155 015d 4C8D6424 		leaq	16(%rsp), %r12
 155      10
 156 0162 488D7424 		leaq	32(%rsp), %rsi
 156      20
 157 0167 48894C24 		movq	%rcx, 32(%rsp)
 157      20
 158 016c 4C89E7   		movq	%r12, %rdi
 159              	.LEHB3:
 160 016f E8000000 		call	_ZNSs6assignERKSs@PLT
 160      00
 161              	.LEHE3:
 162              	.L75:
 163 0174 488B4424 		movq	32(%rsp), %rax
 163      20
 164 0179 488D78E8 		leaq	-24(%rax), %rdi
 165 017d 4839EF   		cmpq	%rbp, %rdi
 166 0180 0F859A00 		jne	.L85
 166      0000
 167              	.L20:
 168 0186 488D7B58 		leaq	88(%rbx), %rdi
 169 018a 4C89E6   		movq	%r12, %rsi
 170              	.LEHB4:
 171 018d E8000000 		call	_ZNSs6assignERKSs@PLT
 171      00
 172              	.LEHE4:
 173 0192 488B4424 		movq	16(%rsp), %rax
 173      10
 174 0197 488D78E8 		leaq	-24(%rax), %rdi
 175 019b 4839EF   		cmpq	%rbp, %rdi
 176 019e 7550     		jne	.L86
 177              	.L39:
 178 01a0 488B4C24 		movq	40(%rsp), %rcx
 178      28
 179 01a5 6448330C 		xorq	%fs:40, %rcx
 179      25280000 
 179      00
 180 01ae 488B4358 		movq	88(%rbx), %rax
 181 01b2 0F855801 		jne	.L87
 181      0000
 182 01b8 4883C430 		addq	$48, %rsp
 183              		.cfi_remember_state
 184              		.cfi_def_cfa_offset 48
 185 01bc 5B       		popq	%rbx
 186              		.cfi_def_cfa_offset 40
 187 01bd 5D       		popq	%rbp
 188              		.cfi_def_cfa_offset 32
 189 01be 415C     		popq	%r12
 190              		.cfi_def_cfa_offset 24
 191 01c0 415D     		popq	%r13
 192              		.cfi_def_cfa_offset 16
 193 01c2 415E     		popq	%r14
 194              		.cfi_def_cfa_offset 8
 195 01c4 C3       		ret
 196              		.p2align 4,,10
 197 01c5 0F1F00   		.p2align 3
 198              	.L83:
 199              		.cfi_restore_state
 200 01c8 410FB604 		movzbl	(%r12), %eax
 200      24
 201 01cd 41884618 		movb	%al, 24(%r14)
 202 01d1 EB81     		jmp	.L26
 203              		.p2align 4,,10
 204 01d3 0F1F4400 		.p2align 3
 204      00
 205              	.L81:
 206 01d8 410FB604 		movzbl	(%r12), %eax
 206      24
 207 01dd 41884618 		movb	%al, 24(%r14)
 208 01e1 E918FFFF 		jmp	.L14
 208      FF
 209 01e6 662E0F1F 		.p2align 4,,10
 209      84000000 
 209      0000
 210              		.p2align 3
 211              	.L86:
 212 01f0 48833D00 		cmpq	$0, _ZL28__gthrw___pthread_key_createPjPFvPvE@GOTPCREL(%rip)
 212      00000000 
 213 01f8 0F84B200 		je	.L40
 213      0000
 214 01fe BAFFFFFF 		movl	$-1, %edx
 214      FF
 215 0203 F00FC150 		lock xaddl	%edx, -8(%rax)
 215      F8
 216 0208 89D0     		movl	%edx, %eax
 217              	.L41:
 218 020a 85C0     		testl	%eax, %eax
 219 020c 7F92     		jg	.L39
 220 020e 488D7424 		leaq	32(%rsp), %rsi
 220      20
 221 0213 E8000000 		call	_ZNSs4_Rep10_M_destroyERKSaIcE@PLT
 221      00
 222 0218 EB86     		jmp	.L39
 223 021a 660F1F44 		.p2align 4,,10
 223      0000
 224              		.p2align 3
 225              	.L85:
 226 0220 48833D00 		cmpq	$0, _ZL28__gthrw___pthread_key_createPjPFvPvE@GOTPCREL(%rip)
 226      00000000 
 227 0228 0F84D200 		je	.L29
 227      0000
 228 022e BAFFFFFF 		movl	$-1, %edx
 228      FF
 229 0233 F00FC150 		lock xaddl	%edx, -8(%rax)
 229      F8
 230 0238 89D0     		movl	%edx, %eax
 231              	.L30:
 232 023a 85C0     		testl	%eax, %eax
 233 023c 0F8F44FF 		jg	.L20
 233      FFFF
 234 0242 488D7424 		leaq	14(%rsp), %rsi
 234      0E
 235 0247 E8000000 		call	_ZNSs4_Rep10_M_destroyERKSaIcE@PLT
 235      00
 236 024c E935FFFF 		jmp	.L20
 236      FF
 237              		.p2align 4,,10
 238 0251 0F1F8000 		.p2align 3
 238      000000
 239              	.L49:
 240 0258 4889C1   		movq	%rax, %rcx
 241 025b E9FDFEFF 		jmp	.L21
 241      FF
 242              		.p2align 4,,10
 243              		.p2align 3
 244              	.L48:
 245 0260 4889C1   		movq	%rax, %rcx
 246 0263 E99FFEFF 		jmp	.L10
 246      FF
 247 0268 0F1F8400 		.p2align 4,,10
 247      00000000 
 248              		.p2align 3
 249              	.L8:
 250 0270 4C8D6424 		leaq	16(%rsp), %r12
 250      10
 251 0275 488D7750 		leaq	80(%rdi), %rsi
 252 0279 4C89E7   		movq	%r12, %rdi
 253              	.LEHB5:
 254 027c E8000000 		call	_ZNSs6assignERKSs@PLT
 254      00
 255              	.LEHE5:
 256 0281 E900FFFF 		jmp	.L20
 256      FF
 257              	.L51:
 258              	.L73:
 259 0286 4889C3   		movq	%rax, %rbx
 260              	.L70:
 261 0289 488B4424 		movq	16(%rsp), %rax
 261      10
 262 028e 488D78E8 		leaq	-24(%rax), %rdi
 263 0292 4839EF   		cmpq	%rbp, %rdi
 264 0295 740A     		je	.L44
 265 0297 488D7424 		leaq	32(%rsp), %rsi
 265      20
 266 029c E85FFDFF 		call	_ZNSs4_Rep10_M_disposeERKSaIcE.part.4
 266      FF
 267              	.L44:
 268 02a1 4889DF   		movq	%rbx, %rdi
 269              	.LEHB6:
 270 02a4 E8000000 		call	_Unwind_Resume@PLT
 270      00
 271              	.LEHE6:
 272 02a9 0F1F8000 		.p2align 4,,10
 272      000000
 273              		.p2align 3
 274              	.L40:
 275 02b0 8B50F8   		movl	-8(%rax), %edx
 276 02b3 8D4AFF   		leal	-1(%rdx), %ecx
 277 02b6 8948F8   		movl	%ecx, -8(%rax)
 278 02b9 89D0     		movl	%edx, %eax
 279 02bb E94AFFFF 		jmp	.L41
 279      FF
 280              		.p2align 4,,10
 281              		.p2align 3
 282              	.L84:
 283 02c0 41C74610 		movl	$0, 16(%r14)
 283      00000000 
 284 02c8 4D892E   		movq	%r13, (%r14)
 285 02cb 43C6442E 		movb	$0, 24(%r14,%r13)
 285      1800
 286 02d1 E987FEFF 		jmp	.L21
 286      FF
 287 02d6 662E0F1F 		.p2align 4,,10
 287      84000000 
 287      0000
 288              		.p2align 3
 289              	.L82:
 290 02e0 41C74610 		movl	$0, 16(%r14)
 290      00000000 
 291 02e8 4D892E   		movq	%r13, (%r14)
 292 02eb 43C6442E 		movb	$0, 24(%r14,%r13)
 292      1800
 293 02f1 E911FEFF 		jmp	.L10
 293      FF
 294 02f6 662E0F1F 		.p2align 4,,10
 294      84000000 
 294      0000
 295              		.p2align 3
 296              	.L29:
 297 0300 8B50F8   		movl	-8(%rax), %edx
 298 0303 8D4AFF   		leal	-1(%rdx), %ecx
 299 0306 8948F8   		movl	%ecx, -8(%rax)
 300 0309 89D0     		movl	%edx, %eax
 301 030b E92AFFFF 		jmp	.L30
 301      FF
 302              	.L87:
 303 0310 E8000000 		call	__stack_chk_fail@PLT
 303      00
 304              	.L50:
 305 0315 E96CFFFF 		jmp	.L73
 305      FF
 306              	.L53:
 307              	.L66:
 308 031a 4889C3   		movq	%rax, %rbx
 309 031d 488B4424 		movq	32(%rsp), %rax
 309      20
 310 0322 488D78E8 		leaq	-24(%rax), %rdi
 311 0326 4839EF   		cmpq	%rbp, %rdi
 312 0329 0F845AFF 		je	.L70
 312      FFFF
 313 032f 488D7424 		leaq	14(%rsp), %rsi
 313      0E
 314 0334 E8C7FCFF 		call	_ZNSs4_Rep10_M_disposeERKSaIcE.part.4
 314      FF
 315 0339 E94BFFFF 		jmp	.L70
 315      FF
 316              	.L52:
 317 033e EBDA     		jmp	.L66
 318              		.cfi_endproc
 319              	.LFE1080:
 320              		.globl	__gxx_personality_v0
 321              		.section	.gcc_except_table,"a",@progbits
 322              	.LLSDA1080:
 323 0000 FF       		.byte	0xff
 324 0001 FF       		.byte	0xff
 325 0002 01       		.byte	0x1
 326 0003 28       		.uleb128 .LLSDACSE1080-.LLSDACSB1080
 327              	.LLSDACSB1080:
 328 0004 5E       		.uleb128 .LEHB0-.LFB1080
 329 0005 3E       		.uleb128 .LEHE0-.LEHB0
 330 0006 C604     		.uleb128 .L51-.LFB1080
 331 0008 00       		.uleb128 0
 332 0009 D901     		.uleb128 .LEHB1-.LFB1080
 333 000b 05       		.uleb128 .LEHE1-.LEHB1
 334 000c DA05     		.uleb128 .L53-.LFB1080
 335 000e 00       		.uleb128 0
 336 000f ED01     		.uleb128 .LEHB2-.LFB1080
 337 0011 05       		.uleb128 .LEHE2-.LEHB2
 338 0012 C604     		.uleb128 .L51-.LFB1080
 339 0014 00       		.uleb128 0
 340 0015 AF02     		.uleb128 .LEHB3-.LFB1080
 341 0017 05       		.uleb128 .LEHE3-.LEHB3
 342 0018 FE05     		.uleb128 .L52-.LFB1080
 343 001a 00       		.uleb128 0
 344 001b CD02     		.uleb128 .LEHB4-.LFB1080
 345 001d 05       		.uleb128 .LEHE4-.LEHB4
 346 001e D505     		.uleb128 .L50-.LFB1080
 347 0020 00       		.uleb128 0
 348 0021 BC04     		.uleb128 .LEHB5-.LFB1080
 349 0023 05       		.uleb128 .LEHE5-.LEHB5
 350 0024 C604     		.uleb128 .L51-.LFB1080
 351 0026 00       		.uleb128 0
 352 0027 E404     		.uleb128 .LEHB6-.LFB1080
 353 0029 05       		.uleb128 .LEHE6-.LEHB6
 354 002a 00       		.uleb128 0
 355 002b 00       		.uleb128 0
 356              	.LLSDACSE1080:
 357              		.text
 359              		.section	.text.unlikely
 360              	.LCOLDE2:
 361              		.text
 362              	.LHOTE2:
 363              		.weakref	_ZL28__gthrw___pthread_key_createPjPFvPvE,__pthread_key_create
 364              		.hidden	DW.ref.__gxx_personality_v0
 365              		.weak	DW.ref.__gxx_personality_v0
 366              		.section	.data.DW.ref.__gxx_personality_v0,"awG",@progbits,DW.ref.__gxx_personality_v0,comdat
 367              		.align 8
 370              	DW.ref.__gxx_personality_v0:
 371 0000 00000000 		.quad	__gxx_personality_v0
 371      00000000 
 372              		.ident	"GCC: (Ubuntu 4.9.2-10ubuntu13) 4.9.2"
 373              		.section	.note.GNU-stack,"",@progbits