   1              		.file	"TestRunner.cpp"
   2              		.section	.text.unlikely._ZN8UnitTest15MemoryOutStreamD1Ev,"axG",@progbits,_ZN8UnitTest15MemoryOutS
   3              		.align 2
   4              	.LCOLDB0:
   5              		.section	.text._ZN8UnitTest15MemoryOutStreamD1Ev,"axG",@progbits,_ZN8UnitTest15MemoryOutStreamD1Ev
   6              	.LHOTB0:
   7              		.align 2
   8              		.p2align 4,,15
   9              		.weak	_ZN8UnitTest15MemoryOutStreamD1Ev
  11              	_ZN8UnitTest15MemoryOutStreamD1Ev:
  12              	.LFB1202:
  13              		.cfi_startproc
  14 0000 55       		pushq	%rbp
  15              		.cfi_def_cfa_offset 16
  16              		.cfi_offset 6, -16
  17 0001 53       		pushq	%rbx
  18              		.cfi_def_cfa_offset 24
  19              		.cfi_offset 3, -24
  20 0002 4889FB   		movq	%rdi, %rbx
  21 0005 4883EC18 		subq	$24, %rsp
  22              		.cfi_def_cfa_offset 48
  23 0009 488B2D00 		movq	_ZNSs4_Rep20_S_empty_rep_storageE@GOTPCREL(%rip), %rbp
  23      000000
  24 0010 64488B04 		movq	%fs:40, %rax
  24      25280000 
  24      00
  25 0019 48894424 		movq	%rax, 8(%rsp)
  25      08
  26 001e 31C0     		xorl	%eax, %eax
  27 0020 488B0500 		movq	_ZTVN8UnitTest15MemoryOutStreamE@GOTPCREL(%rip), %rax
  27      000000
  28 0027 488D5018 		leaq	24(%rax), %rdx
  29 002b 4883C040 		addq	$64, %rax
  30 002f 48894760 		movq	%rax, 96(%rdi)
  31 0033 488B4758 		movq	88(%rdi), %rax
  32 0037 488917   		movq	%rdx, (%rdi)
  33 003a 488D78E8 		leaq	-24(%rax), %rdi
  34 003e 4839EF   		cmpq	%rbp, %rdi
  35 0041 757D     		jne	.L15
  36              	.L3:
  37 0043 488D0500 		leaq	24+_ZTCN8UnitTest15MemoryOutStreamE0_St19basic_ostringstreamIcSt11char_traitsIcESaIcEE(%rip),
  37      000000
  38 004a 488903   		movq	%rax, (%rbx)
  39 004d 488D0500 		leaq	64+_ZTCN8UnitTest15MemoryOutStreamE0_St19basic_ostringstreamIcSt11char_traitsIcESaIcEE(%rip),
  39      000000
  40 0054 48894360 		movq	%rax, 96(%rbx)
  41 0058 488B0500 		movq	_ZTVSt15basic_stringbufIcSt11char_traitsIcESaIcEE@GOTPCREL(%rip), %rax
  41      000000
  42 005f 4883C010 		addq	$16, %rax
  43 0063 48894308 		movq	%rax, 8(%rbx)
  44 0067 488B4350 		movq	80(%rbx), %rax
  45 006b 488D78E8 		leaq	-24(%rax), %rdi
  46 006f 4839EF   		cmpq	%rbp, %rdi
  47 0072 757C     		jne	.L16
  48              	.L8:
  49 0074 488B0500 		movq	_ZTVSt15basic_streambufIcSt11char_traitsIcEE@GOTPCREL(%rip), %rax
  49      000000
  50 007b 488D7B40 		leaq	64(%rbx), %rdi
  51 007f 4883C010 		addq	$16, %rax
  52 0083 48894308 		movq	%rax, 8(%rbx)
  53 0087 E8000000 		call	_ZNSt6localeD1Ev@PLT
  53      00
  54 008c 488B0500 		movq	_ZTVSt9basic_iosIcSt11char_traitsIcEE@GOTPCREL(%rip), %rax
  54      000000
  55 0093 488D7B60 		leaq	96(%rbx), %rdi
  56 0097 4883C010 		addq	$16, %rax
  57 009b 48894360 		movq	%rax, 96(%rbx)
  58 009f E8000000 		call	_ZNSt8ios_baseD2Ev@PLT
  58      00
  59 00a4 488B4424 		movq	8(%rsp), %rax
  59      08
  60 00a9 64483304 		xorq	%fs:40, %rax
  60      25280000 
  60      00
  61 00b2 0F858500 		jne	.L17
  61      0000
  62 00b8 4883C418 		addq	$24, %rsp
  63              		.cfi_remember_state
  64              		.cfi_def_cfa_offset 24
  65 00bc 5B       		popq	%rbx
  66              		.cfi_def_cfa_offset 16
  67 00bd 5D       		popq	%rbp
  68              		.cfi_def_cfa_offset 8
  69 00be C3       		ret
  70 00bf 90       		.p2align 4,,10
  71              		.p2align 3
  72              	.L15:
  73              		.cfi_restore_state
  74 00c0 48833D00 		cmpq	$0, _ZL28__gthrw___pthread_key_createPjPFvPvE@GOTPCREL(%rip)
  74      00000000 
  75 00c8 7466     		je	.L4
  76 00ca BAFFFFFF 		movl	$-1, %edx
  76      FF
  77 00cf F00FC150 		lock xaddl	%edx, -8(%rax)
  77      F8
  78 00d4 89D0     		movl	%edx, %eax
  79              	.L5:
  80 00d6 85C0     		testl	%eax, %eax
  81 00d8 0F8F65FF 		jg	.L3
  81      FFFF
  82 00de 488D7424 		leaq	7(%rsp), %rsi
  82      07
  83 00e3 E8000000 		call	_ZNSs4_Rep10_M_destroyERKSaIcE@PLT
  83      00
  84 00e8 E956FFFF 		jmp	.L3
  84      FF
  85 00ed 0F1F00   		.p2align 4,,10
  86              		.p2align 3
  87              	.L16:
  88 00f0 48833D00 		cmpq	$0, _ZL28__gthrw___pthread_key_createPjPFvPvE@GOTPCREL(%rip)
  88      00000000 
  89 00f8 7426     		je	.L9
  90 00fa BAFFFFFF 		movl	$-1, %edx
  90      FF
  91 00ff F00FC150 		lock xaddl	%edx, -8(%rax)
  91      F8
  92 0104 89D0     		movl	%edx, %eax
  93              	.L10:
  94 0106 85C0     		testl	%eax, %eax
  95 0108 0F8F66FF 		jg	.L8
  95      FFFF
  96 010e 488D7424 		leaq	7(%rsp), %rsi
  96      07
  97 0113 E8000000 		call	_ZNSs4_Rep10_M_destroyERKSaIcE@PLT
  97      00
  98 0118 E957FFFF 		jmp	.L8
  98      FF
  99 011d 0F1F00   		.p2align 4,,10
 100              		.p2align 3
 101              	.L9:
 102 0120 8B50F8   		movl	-8(%rax), %edx
 103 0123 8D4AFF   		leal	-1(%rdx), %ecx
 104 0126 8948F8   		movl	%ecx, -8(%rax)
 105 0129 89D0     		movl	%edx, %eax
 106 012b EBD9     		jmp	.L10
 107 012d 0F1F00   		.p2align 4,,10
 108              		.p2align 3
 109              	.L4:
 110 0130 8B50F8   		movl	-8(%rax), %edx
 111 0133 8D4AFF   		leal	-1(%rdx), %ecx
 112 0136 8948F8   		movl	%ecx, -8(%rax)
 113 0139 89D0     		movl	%edx, %eax
 114 013b EB99     		jmp	.L5
 115              	.L17:
 116 013d E8000000 		call	__stack_chk_fail@PLT
 116      00
 117              		.cfi_endproc
 118              	.LFE1202:
 120              		.section	.text.unlikely._ZN8UnitTest15MemoryOutStreamD1Ev,"axG",@progbits,_ZN8UnitTest15MemoryOutS
 121              	.LCOLDE0:
 122              		.section	.text._ZN8UnitTest15MemoryOutStreamD1Ev,"axG",@progbits,_ZN8UnitTest15MemoryOutStreamD1Ev
 123              	.LHOTE0:
 124              		.set	.LTHUNK0,_ZN8UnitTest15MemoryOutStreamD1Ev
 125              	.LCOLDB1:
 126              	.LHOTB1:
 127 0142 0F1F4000 		.p2align 4,,15
 127      662E0F1F 
 127      84000000 
 127      0000
 128              		.weak	_ZTv0_n24_N8UnitTest15MemoryOutStreamD1Ev
 130              	_ZTv0_n24_N8UnitTest15MemoryOutStreamD1Ev:
 131              	.LFB1219:
 132              		.cfi_startproc
 133 0150 4C8B17   		movq	(%rdi), %r10
 134 0153 49037AE8 		addq	-24(%r10), %rdi
 135 0157 E9A4FEFF 		jmp	.LTHUNK0
 135      FF
 136              		.cfi_endproc
 137              	.LFE1219:
 139              	.LCOLDE1:
 140              	.LHOTE1:
 141              		.section	.text.unlikely._ZN8UnitTest15MemoryOutStreamD0Ev,"axG",@progbits,_ZN8UnitTest15MemoryOutS
 142              		.align 2
 143              	.LCOLDB2:
 144              		.section	.text._ZN8UnitTest15MemoryOutStreamD0Ev,"axG",@progbits,_ZN8UnitTest15MemoryOutStreamD0Ev
 145              	.LHOTB2:
 146              		.align 2
 147              		.p2align 4,,15
 148              		.weak	_ZN8UnitTest15MemoryOutStreamD0Ev
 150              	_ZN8UnitTest15MemoryOutStreamD0Ev:
 151              	.LFB1203:
 152              		.cfi_startproc
 153 0000 55       		pushq	%rbp
 154              		.cfi_def_cfa_offset 16
 155              		.cfi_offset 6, -16
 156 0001 53       		pushq	%rbx
 157              		.cfi_def_cfa_offset 24
 158              		.cfi_offset 3, -24
 159 0002 4889FB   		movq	%rdi, %rbx
 160 0005 4883EC18 		subq	$24, %rsp
 161              		.cfi_def_cfa_offset 48
 162 0009 488B2D00 		movq	_ZNSs4_Rep20_S_empty_rep_storageE@GOTPCREL(%rip), %rbp
 162      000000
 163 0010 64488B04 		movq	%fs:40, %rax
 163      25280000 
 163      00
 164 0019 48894424 		movq	%rax, 8(%rsp)
 164      08
 165 001e 31C0     		xorl	%eax, %eax
 166 0020 488B0500 		movq	_ZTVN8UnitTest15MemoryOutStreamE@GOTPCREL(%rip), %rax
 166      000000
 167 0027 488D5018 		leaq	24(%rax), %rdx
 168 002b 4883C040 		addq	$64, %rax
 169 002f 48894760 		movq	%rax, 96(%rdi)
 170 0033 488B4758 		movq	88(%rdi), %rax
 171 0037 488917   		movq	%rdx, (%rdi)
 172 003a 488D78E8 		leaq	-24(%rax), %rdi
 173 003e 4839EF   		cmpq	%rbp, %rdi
 174 0041 0F858900 		jne	.L31
 174      0000
 175              	.L20:
 176 0047 488D0500 		leaq	24+_ZTCN8UnitTest15MemoryOutStreamE0_St19basic_ostringstreamIcSt11char_traitsIcESaIcEE(%rip),
 176      000000
 177 004e 488903   		movq	%rax, (%rbx)
 178 0051 488D0500 		leaq	64+_ZTCN8UnitTest15MemoryOutStreamE0_St19basic_ostringstreamIcSt11char_traitsIcESaIcEE(%rip),
 178      000000
 179 0058 48894360 		movq	%rax, 96(%rbx)
 180 005c 488B0500 		movq	_ZTVSt15basic_stringbufIcSt11char_traitsIcESaIcEE@GOTPCREL(%rip), %rax
 180      000000
 181 0063 4883C010 		addq	$16, %rax
 182 0067 48894308 		movq	%rax, 8(%rbx)
 183 006b 488B4350 		movq	80(%rbx), %rax
 184 006f 488D78E8 		leaq	-24(%rax), %rdi
 185 0073 4839EF   		cmpq	%rbp, %rdi
 186 0076 0F858400 		jne	.L32
 186      0000
 187              	.L25:
 188 007c 488B0500 		movq	_ZTVSt15basic_streambufIcSt11char_traitsIcEE@GOTPCREL(%rip), %rax
 188      000000
 189 0083 488D7B40 		leaq	64(%rbx), %rdi
 190 0087 4883C010 		addq	$16, %rax
 191 008b 48894308 		movq	%rax, 8(%rbx)
 192 008f E8000000 		call	_ZNSt6localeD1Ev@PLT
 192      00
 193 0094 488B0500 		movq	_ZTVSt9basic_iosIcSt11char_traitsIcEE@GOTPCREL(%rip), %rax
 193      000000
 194 009b 488D7B60 		leaq	96(%rbx), %rdi
 195 009f 4883C010 		addq	$16, %rax
 196 00a3 48894360 		movq	%rax, 96(%rbx)
 197 00a7 E8000000 		call	_ZNSt8ios_baseD2Ev@PLT
 197      00
 198 00ac 4889DF   		movq	%rbx, %rdi
 199 00af E8000000 		call	_ZdlPv@PLT
 199      00
 200 00b4 488B4424 		movq	8(%rsp), %rax
 200      08
 201 00b9 64483304 		xorq	%fs:40, %rax
 201      25280000 
 201      00
 202 00c2 0F858500 		jne	.L33
 202      0000
 203 00c8 4883C418 		addq	$24, %rsp
 204              		.cfi_remember_state
 205              		.cfi_def_cfa_offset 24
 206 00cc 5B       		popq	%rbx
 207              		.cfi_def_cfa_offset 16
 208 00cd 5D       		popq	%rbp
 209              		.cfi_def_cfa_offset 8
 210 00ce C3       		ret
 211 00cf 90       		.p2align 4,,10
 212              		.p2align 3
 213              	.L31:
 214              		.cfi_restore_state
 215 00d0 48833D00 		cmpq	$0, _ZL28__gthrw___pthread_key_createPjPFvPvE@GOTPCREL(%rip)
 215      00000000 
 216 00d8 7466     		je	.L21
 217 00da BAFFFFFF 		movl	$-1, %edx
 217      FF
 218 00df F00FC150 		lock xaddl	%edx, -8(%rax)
 218      F8
 219 00e4 89D0     		movl	%edx, %eax
 220              	.L22:
 221 00e6 85C0     		testl	%eax, %eax
 222 00e8 0F8F59FF 		jg	.L20
 222      FFFF
 223 00ee 488D7424 		leaq	7(%rsp), %rsi
 223      07
 224 00f3 E8000000 		call	_ZNSs4_Rep10_M_destroyERKSaIcE@PLT
 224      00
 225 00f8 E94AFFFF 		jmp	.L20
 225      FF
 226 00fd 0F1F00   		.p2align 4,,10
 227              		.p2align 3
 228              	.L32:
 229 0100 48833D00 		cmpq	$0, _ZL28__gthrw___pthread_key_createPjPFvPvE@GOTPCREL(%rip)
 229      00000000 
 230 0108 7426     		je	.L26
 231 010a BAFFFFFF 		movl	$-1, %edx
 231      FF
 232 010f F00FC150 		lock xaddl	%edx, -8(%rax)
 232      F8
 233 0114 89D0     		movl	%edx, %eax
 234              	.L27:
 235 0116 85C0     		testl	%eax, %eax
 236 0118 0F8F5EFF 		jg	.L25
 236      FFFF
 237 011e 488D7424 		leaq	7(%rsp), %rsi
 237      07
 238 0123 E8000000 		call	_ZNSs4_Rep10_M_destroyERKSaIcE@PLT
 238      00
 239 0128 E94FFFFF 		jmp	.L25
 239      FF
 240 012d 0F1F00   		.p2align 4,,10
 241              		.p2align 3
 242              	.L26:
 243 0130 8B50F8   		movl	-8(%rax), %edx
 244 0133 8D4AFF   		leal	-1(%rdx), %ecx
 245 0136 8948F8   		movl	%ecx, -8(%rax)
 246 0139 89D0     		movl	%edx, %eax
 247 013b EBD9     		jmp	.L27
 248 013d 0F1F00   		.p2align 4,,10
 249              		.p2align 3
 250              	.L21:
 251 0140 8B50F8   		movl	-8(%rax), %edx
 252 0143 8D4AFF   		leal	-1(%rdx), %ecx
 253 0146 8948F8   		movl	%ecx, -8(%rax)
 254 0149 89D0     		movl	%edx, %eax
 255 014b EB99     		jmp	.L22
 256              	.L33:
 257 014d E8000000 		call	__stack_chk_fail@PLT
 257      00
 258              		.cfi_endproc
 259              	.LFE1203:
 261              		.section	.text.unlikely._ZN8UnitTest15MemoryOutStreamD0Ev,"axG",@progbits,_ZN8UnitTest15MemoryOutS
 262              	.LCOLDE2:
 263              		.section	.text._ZN8UnitTest15MemoryOutStreamD0Ev,"axG",@progbits,_ZN8UnitTest15MemoryOutStreamD0Ev
 264              	.LHOTE2:
 265              		.set	.LTHUNK1,_ZN8UnitTest15MemoryOutStreamD0Ev
 266              	.LCOLDB3:
 267              	.LHOTB3:
 268 0152 0F1F4000 		.p2align 4,,15
 268      662E0F1F 
 268      84000000 
 268      0000
 269              		.weak	_ZTv0_n24_N8UnitTest15MemoryOutStreamD0Ev
 271              	_ZTv0_n24_N8UnitTest15MemoryOutStreamD0Ev:
 272              	.LFB1220:
 273              		.cfi_startproc
 274 0160 4C8B17   		movq	(%rdi), %r10
 275 0163 49037AE8 		addq	-24(%r10), %rdi
 276 0167 E994FEFF 		jmp	.LTHUNK1
 276      FF
 277              		.cfi_endproc
 278              	.LFE1220:
 280              	.LCOLDE3:
 281              	.LHOTE3:
 282              		.section	.text.unlikely,"ax",@progbits
 283              		.align 2
 284              	.LCOLDB4:
 285              		.text
 286              	.LHOTB4:
 287              		.align 2
 288              		.p2align 4,,15
 289              		.globl	_ZN8UnitTest10TestRunnerC2ERNS_12TestReporterE
 291              	_ZN8UnitTest10TestRunnerC2ERNS_12TestReporterE:
 292              	.LFB1116:
 293              		.cfi_startproc
 294              		.cfi_personality 0x9b,DW.ref.__gxx_personality_v0
 295              		.cfi_lsda 0x1b,.LLSDA1116
 296 0000 4154     		pushq	%r12
 297              		.cfi_def_cfa_offset 16
 298              		.cfi_offset 12, -16
 299 0002 55       		pushq	%rbp
 300              		.cfi_def_cfa_offset 24
 301              		.cfi_offset 6, -24
 302 0003 4889FD   		movq	%rdi, %rbp
 303 0006 53       		pushq	%rbx
 304              		.cfi_def_cfa_offset 32
 305              		.cfi_offset 3, -32
 306 0007 4989F4   		movq	%rsi, %r12
 307 000a 48897500 		movq	%rsi, 0(%rbp)
 308 000e BF180000 		movl	$24, %edi
 308      00
 309              	.LEHB0:
 310 0013 E8000000 		call	_Znwm@PLT
 310      00
 311              	.LEHE0:
 312 0018 4C89E6   		movq	%r12, %rsi
 313 001b 4889C7   		movq	%rax, %rdi
 314 001e 4889C3   		movq	%rax, %rbx
 315              	.LEHB1:
 316 0021 E8000000 		call	_ZN8UnitTest11TestResultsC1EPNS_12TestReporterE@PLT
 316      00
 317              	.LEHE1:
 318 0026 48895D08 		movq	%rbx, 8(%rbp)
 319 002a BF100000 		movl	$16, %edi
 319      00
 320              	.LEHB2:
 321 002f E8000000 		call	_Znwm@PLT
 321      00
 322              	.LEHE2:
 323 0034 4889C7   		movq	%rax, %rdi
 324 0037 4889C3   		movq	%rax, %rbx
 325              	.LEHB3:
 326 003a E8000000 		call	_ZN8UnitTest5TimerC1Ev@PLT
 326      00
 327              	.LEHE3:
 328 003f 48895D10 		movq	%rbx, 16(%rbp)
 329 0043 4889DF   		movq	%rbx, %rdi
 330 0046 5B       		popq	%rbx
 331              		.cfi_remember_state
 332              		.cfi_def_cfa_offset 24
 333 0047 5D       		popq	%rbp
 334              		.cfi_def_cfa_offset 16
 335 0048 415C     		popq	%r12
 336              		.cfi_def_cfa_offset 8
 337              	.LEHB4:
 338 004a E9000000 		jmp	_ZN8UnitTest5Timer5StartEv@PLT
 338      00
 339              	.L37:
 340              		.cfi_restore_state
 341              	.L40:
 342 004f 4889C5   		movq	%rax, %rbp
 343 0052 4889DF   		movq	%rbx, %rdi
 344 0055 E8000000 		call	_ZdlPv@PLT
 344      00
 345 005a 4889EF   		movq	%rbp, %rdi
 346 005d E8000000 		call	_Unwind_Resume@PLT
 346      00
 347              	.LEHE4:
 348              	.L38:
 349 0062 EBEB     		jmp	.L40
 350              		.cfi_endproc
 351              	.LFE1116:
 352              		.globl	__gxx_personality_v0
 353              		.section	.gcc_except_table,"a",@progbits
 354              	.LLSDA1116:
 355 0000 FF       		.byte	0xff
 356 0001 FF       		.byte	0xff
 357 0002 01       		.byte	0x1
 358 0003 14       		.uleb128 .LLSDACSE1116-.LLSDACSB1116
 359              	.LLSDACSB1116:
 360 0004 13       		.uleb128 .LEHB0-.LFB1116
 361 0005 05       		.uleb128 .LEHE0-.LEHB0
 362 0006 00       		.uleb128 0
 363 0007 00       		.uleb128 0
 364 0008 21       		.uleb128 .LEHB1-.LFB1116
 365 0009 05       		.uleb128 .LEHE1-.LEHB1
 366 000a 4F       		.uleb128 .L37-.LFB1116
 367 000b 00       		.uleb128 0
 368 000c 2F       		.uleb128 .LEHB2-.LFB1116
 369 000d 05       		.uleb128 .LEHE2-.LEHB2
 370 000e 00       		.uleb128 0
 371 000f 00       		.uleb128 0
 372 0010 3A       		.uleb128 .LEHB3-.LFB1116
 373 0011 05       		.uleb128 .LEHE3-.LEHB3
 374 0012 62       		.uleb128 .L38-.LFB1116
 375 0013 00       		.uleb128 0
 376 0014 4A       		.uleb128 .LEHB4-.LFB1116
 377 0015 18       		.uleb128 .LEHE4-.LEHB4
 378 0016 00       		.uleb128 0
 379 0017 00       		.uleb128 0
 380              	.LLSDACSE1116:
 381              		.text
 383              		.section	.text.unlikely
 384              	.LCOLDE4:
 385              		.text
 386              	.LHOTE4:
 387              		.globl	_ZN8UnitTest10TestRunnerC1ERNS_12TestReporterE
 388              		.set	_ZN8UnitTest10TestRunnerC1ERNS_12TestReporterE,_ZN8UnitTest10TestRunnerC2ERNS_12TestReporterE
 389              		.section	.text.unlikely
 390              		.align 2
 391              	.LCOLDB5:
 392              		.text
 393              	.LHOTB5:
 394              		.align 2
 395 0064 6690662E 		.p2align 4,,15
 395      0F1F8400 
 395      00000000 
 396              		.globl	_ZN8UnitTest10TestRunnerD2Ev
 398              	_ZN8UnitTest10TestRunnerD2Ev:
 399              	.LFB1119:
 400              		.cfi_startproc
 401 0070 53       		pushq	%rbx
 402              		.cfi_def_cfa_offset 16
 403              		.cfi_offset 3, -16
 404 0071 4889FB   		movq	%rdi, %rbx
 405 0074 488B7F08 		movq	8(%rdi), %rdi
 406 0078 E8000000 		call	_ZdlPv@PLT
 406      00
 407 007d 488B7B10 		movq	16(%rbx), %rdi
 408 0081 5B       		popq	%rbx
 409              		.cfi_def_cfa_offset 8
 410 0082 E9000000 		jmp	_ZdlPv@PLT
 410      00
 411              		.cfi_endproc
 412              	.LFE1119:
 414              		.section	.text.unlikely
 415              	.LCOLDE5:
 416              		.text
 417              	.LHOTE5:
 418              		.globl	_ZN8UnitTest10TestRunnerD1Ev
 419              		.set	_ZN8UnitTest10TestRunnerD1Ev,_ZN8UnitTest10TestRunnerD2Ev
 420              		.section	.text.unlikely
 421              		.align 2
 422              	.LCOLDB7:
 423              		.text
 424              	.LHOTB7:
 425 0087 90       		.align 2
 426 0088 0F1F8400 		.p2align 4,,15
 426      00000000 
 427              		.globl	_ZNK8UnitTest10TestRunner6FinishEv
 429              	_ZNK8UnitTest10TestRunner6FinishEv:
 430              	.LFB1121:
 431              		.cfi_startproc
 432 0090 4156     		pushq	%r14
 433              		.cfi_def_cfa_offset 16
 434              		.cfi_offset 14, -16
 435 0092 4155     		pushq	%r13
 436              		.cfi_def_cfa_offset 24
 437              		.cfi_offset 13, -24
 438 0094 4154     		pushq	%r12
 439              		.cfi_def_cfa_offset 32
 440              		.cfi_offset 12, -32
 441 0096 55       		pushq	%rbp
 442              		.cfi_def_cfa_offset 40
 443              		.cfi_offset 6, -40
 444 0097 53       		pushq	%rbx
 445              		.cfi_def_cfa_offset 48
 446              		.cfi_offset 3, -48
 447 0098 4889FB   		movq	%rdi, %rbx
 448 009b 488B7F10 		movq	16(%rdi), %rdi
 449 009f E8000000 		call	_ZNK8UnitTest5Timer11GetTimeInMsEv@PLT
 449      00
 450 00a4 89C5     		movl	%eax, %ebp
 451 00a6 488B03   		movq	(%rbx), %rax
 452 00a9 488B7B08 		movq	8(%rbx), %rdi
 453 00ad 488B00   		movq	(%rax), %rax
 454 00b0 4C8B6028 		movq	40(%rax), %r12
 455 00b4 E8000000 		call	_ZNK8UnitTest11TestResults15GetFailureCountEv@PLT
 455      00
 456 00b9 488B7B08 		movq	8(%rbx), %rdi
 457 00bd 4189C6   		movl	%eax, %r14d
 458 00c0 E8000000 		call	_ZNK8UnitTest11TestResults18GetFailedTestCountEv@PLT
 458      00
 459 00c5 488B7B08 		movq	8(%rbx), %rdi
 460 00c9 4189C5   		movl	%eax, %r13d
 461 00cc E8000000 		call	_ZNK8UnitTest11TestResults17GetTotalTestCountEv@PLT
 461      00
 462 00d1 660FEFC0 		pxor	%xmm0, %xmm0
 463 00d5 488B3B   		movq	(%rbx), %rdi
 464 00d8 4489F1   		movl	%r14d, %ecx
 465 00db 4489EA   		movl	%r13d, %edx
 466 00de 89C6     		movl	%eax, %esi
 467 00e0 F30F2AC5 		cvtsi2ss	%ebp, %xmm0
 468 00e4 F30F5E05 		divss	.LC6(%rip), %xmm0
 468      00000000 
 469 00ec 41FFD4   		call	*%r12
 470 00ef 488B7B08 		movq	8(%rbx), %rdi
 471 00f3 5B       		popq	%rbx
 472              		.cfi_def_cfa_offset 40
 473 00f4 5D       		popq	%rbp
 474              		.cfi_def_cfa_offset 32
 475 00f5 415C     		popq	%r12
 476              		.cfi_def_cfa_offset 24
 477 00f7 415D     		popq	%r13
 478              		.cfi_def_cfa_offset 16
 479 00f9 415E     		popq	%r14
 480              		.cfi_def_cfa_offset 8
 481 00fb E9000000 		jmp	_ZNK8UnitTest11TestResults15GetFailureCountEv@PLT
 481      00
 482              		.cfi_endproc
 483              	.LFE1121:
 485              		.section	.text.unlikely
 486              	.LCOLDE7:
 487              		.text
 488              	.LHOTE7:
 489              		.section	.text.unlikely
 490              		.align 2
 491              	.LCOLDB8:
 492              		.text
 493              	.LHOTB8:
 494              		.align 2
 495              		.p2align 4,,15
 496              		.globl	_ZNK8UnitTest10TestRunner13IsTestInSuiteEPKNS_4TestEPKc
 498              	_ZNK8UnitTest10TestRunner13IsTestInSuiteEPKNS_4TestEPKc:
 499              	.LFB1122:
 500              		.cfi_startproc
 501 0100 4885D2   		testq	%rdx, %rdx
 502 0103 741B     		je	.L47
 503 0105 4883EC08 		subq	$8, %rsp
 504              		.cfi_def_cfa_offset 16
 505 0109 488B7E08 		movq	8(%rsi), %rdi
 506 010d 4889D6   		movq	%rdx, %rsi
 507 0110 E8000000 		call	strcmp@PLT
 507      00
 508 0115 85C0     		testl	%eax, %eax
 509 0117 0F94C0   		sete	%al
 510 011a 4883C408 		addq	$8, %rsp
 511              		.cfi_def_cfa_offset 8
 512 011e C3       		ret
 513 011f 90       		.p2align 4,,10
 514              		.p2align 3
 515              	.L47:
 516 0120 B8010000 		movl	$1, %eax
 516      00
 517 0125 C3       		ret
 518              		.cfi_endproc
 519              	.LFE1122:
 521              		.section	.text.unlikely
 522              	.LCOLDE8:
 523              		.text
 524              	.LHOTE8:
 525              		.section	.rodata.str1.8,"aMS",@progbits,1
 526              		.align 8
 527              	.LC9:
 528 0000 476C6F62 		.string	"Global time constraint failed. Expected under "
 528      616C2074 
 528      696D6520 
 528      636F6E73 
 528      74726169 
 529              		.section	.rodata.str1.1,"aMS",@progbits,1
 530              	.LC10:
 531 0000 6D732062 		.string	"ms but took "
 531      75742074 
 531      6F6F6B20 
 531      00
 532              	.LC11:
 533 000d 6D732E00 		.string	"ms."
 534              		.section	.text.unlikely
 535              		.align 2
 536              	.LCOLDB12:
 537              		.text
 538              	.LHOTB12:
 539              		.align 2
 540 0126 662E0F1F 		.p2align 4,,15
 540      84000000 
 540      0000
 541              		.globl	_ZNK8UnitTest10TestRunner7RunTestEPNS_11TestResultsEPNS_4TestEi
 543              	_ZNK8UnitTest10TestRunner7RunTestEPNS_11TestResultsEPNS_4TestEi:
 544              	.LFB1123:
 545              		.cfi_startproc
 546              		.cfi_personality 0x9b,DW.ref.__gxx_personality_v0
 547              		.cfi_lsda 0x1b,.LLSDA1123
 548 0130 4157     		pushq	%r15
 549              		.cfi_def_cfa_offset 16
 550              		.cfi_offset 15, -16
 551 0132 4156     		pushq	%r14
 552              		.cfi_def_cfa_offset 24
 553              		.cfi_offset 14, -24
 554 0134 4189CE   		movl	%ecx, %r14d
 555 0137 4155     		pushq	%r13
 556              		.cfi_def_cfa_offset 32
 557              		.cfi_offset 13, -32
 558 0139 4154     		pushq	%r12
 559              		.cfi_def_cfa_offset 40
 560              		.cfi_offset 12, -40
 561 013b 4989D4   		movq	%rdx, %r12
 562 013e 55       		pushq	%rbp
 563              		.cfi_def_cfa_offset 48
 564              		.cfi_offset 6, -48
 565 013f 53       		pushq	%rbx
 566              		.cfi_def_cfa_offset 56
 567              		.cfi_offset 3, -56
 568 0140 4889F5   		movq	%rsi, %rbp
 569 0143 4D8D6C24 		leaq	8(%r12), %r13
 569      08
 570 0148 4881EC98 		subq	$408, %rsp
 570      010000
 571              		.cfi_def_cfa_offset 464
 572 014f 488D5C24 		leaq	16(%rsp), %rbx
 572      10
 573 0154 64488B04 		movq	%fs:40, %rax
 573      25280000 
 573      00
 574 015d 48898424 		movq	%rax, 392(%rsp)
 574      88010000 
 575 0165 31C0     		xorl	%eax, %eax
 576              	.LEHB5:
 577 0167 E8000000 		call	_ZN8UnitTest11CurrentTest7ResultsEv@PLT
 577      00
 578 016c 4889DF   		movq	%rbx, %rdi
 579 016f 488928   		movq	%rbp, (%rax)
 580 0172 E8000000 		call	_ZN8UnitTest5TimerC1Ev@PLT
 580      00
 581 0177 4889DF   		movq	%rbx, %rdi
 582 017a E8000000 		call	_ZN8UnitTest5Timer5StartEv@PLT
 582      00
 583 017f 4C89EE   		movq	%r13, %rsi
 584 0182 4889EF   		movq	%rbp, %rdi
 585 0185 E8000000 		call	_ZN8UnitTest11TestResults11OnTestStartERKNS_11TestDetailsE@PLT
 585      00
 586 018a 4C89E7   		movq	%r12, %rdi
 587 018d E8000000 		call	_ZN8UnitTest4Test3RunEv@PLT
 587      00
 588 0192 4889DF   		movq	%rbx, %rdi
 589 0195 E8000000 		call	_ZNK8UnitTest5Timer11GetTimeInMsEv@PLT
 589      00
 590 019a 4439F0   		cmpl	%r14d, %eax
 591 019d 89C3     		movl	%eax, %ebx
 592 019f 7E0D     		jle	.L51
 593 01a1 4585F6   		testl	%r14d, %r14d
 594 01a4 7E08     		jle	.L51
 595 01a6 41807C24 		cmpb	$0, 48(%r12)
 595      3000
 596 01ac 744A     		je	.L89
 597              	.L51:
 598 01ae 660FEFC0 		pxor	%xmm0, %xmm0
 599 01b2 4C89EE   		movq	%r13, %rsi
 600 01b5 4889EF   		movq	%rbp, %rdi
 601 01b8 F30F2AC3 		cvtsi2ss	%ebx, %xmm0
 602 01bc F30F5E05 		divss	.LC6(%rip), %xmm0
 602      00000000 
 603 01c4 E8000000 		call	_ZN8UnitTest11TestResults12OnTestFinishERKNS_11TestDetailsEf@PLT
 603      00
 604              	.LEHE5:
 605 01c9 488B8424 		movq	392(%rsp), %rax
 605      88010000 
 606 01d1 64483304 		xorq	%fs:40, %rax
 606      25280000 
 606      00
 607 01da 0F85F702 		jne	.L90
 607      0000
 608 01e0 4881C498 		addq	$408, %rsp
 608      010000
 609              		.cfi_remember_state
 610              		.cfi_def_cfa_offset 56
 611 01e7 5B       		popq	%rbx
 612              		.cfi_def_cfa_offset 48
 613 01e8 5D       		popq	%rbp
 614              		.cfi_def_cfa_offset 40
 615 01e9 415C     		popq	%r12
 616              		.cfi_def_cfa_offset 32
 617 01eb 415D     		popq	%r13
 618              		.cfi_def_cfa_offset 24
 619 01ed 415E     		popq	%r14
 620              		.cfi_def_cfa_offset 16
 621 01ef 415F     		popq	%r15
 622              		.cfi_def_cfa_offset 8
 623 01f1 C3       		ret
 624              		.p2align 4,,10
 625 01f2 660F1F44 		.p2align 3
 625      0000
 626              	.L89:
 627              		.cfi_restore_state
 628 01f8 4C8D6424 		leaq	32(%rsp), %r12
 628      20
 629 01fd 4D8D7C24 		leaq	96(%r12), %r15
 629      60
 630 0202 4C89FF   		movq	%r15, %rdi
 631 0205 E8000000 		call	_ZNSt8ios_baseC2Ev@PLT
 631      00
 632 020a 488D0500 		leaq	24+_ZTCN8UnitTest15MemoryOutStreamE0_So(%rip), %rax
 632      000000
 633 0211 31F6     		xorl	%esi, %esi
 634 0213 4C89FF   		movq	%r15, %rdi
 635 0216 48C78424 		movq	$0, 344(%rsp)
 635      58010000 
 635      00000000 
 636 0222 C6842460 		movb	$0, 352(%rsp)
 636      01000000 
 637 022a 48894424 		movq	%rax, 32(%rsp)
 637      20
 638 022f 488D0500 		leaq	64+_ZTCN8UnitTest15MemoryOutStreamE0_So(%rip), %rax
 638      000000
 639 0236 C6842461 		movb	$0, 353(%rsp)
 639      01000000 
 640 023e 48C78424 		movq	$0, 360(%rsp)
 640      68010000 
 640      00000000 
 641 024a 48C78424 		movq	$0, 368(%rsp)
 641      70010000 
 641      00000000 
 642 0256 48C78424 		movq	$0, 376(%rsp)
 642      78010000 
 642      00000000 
 643 0262 48C78424 		movq	$0, 384(%rsp)
 643      80010000 
 643      00000000 
 644 026e 48898424 		movq	%rax, 128(%rsp)
 644      80000000 
 645              	.LEHB6:
 646 0276 E8000000 		call	_ZNSt9basic_iosIcSt11char_traitsIcEE4initEPSt15basic_streambufIcS1_E@PLT
 646      00
 647              	.LEHE6:
 648 027b 488D0500 		leaq	24+_ZTCN8UnitTest15MemoryOutStreamE0_St19basic_ostringstreamIcSt11char_traitsIcESaIcEE(%rip),
 648      000000
 649 0282 498D7C24 		leaq	64(%r12), %rdi
 649      40
 650 0287 48C74424 		movq	$0, 48(%rsp)
 650      30000000 
 650      00
 651 0290 48C74424 		movq	$0, 56(%rsp)
 651      38000000 
 651      00
 652 0299 48C74424 		movq	$0, 64(%rsp)
 652      40000000 
 652      00
 653 02a2 48894424 		movq	%rax, 32(%rsp)
 653      20
 654 02a7 488D0500 		leaq	64+_ZTCN8UnitTest15MemoryOutStreamE0_St19basic_ostringstreamIcSt11char_traitsIcESaIcEE(%rip),
 654      000000
 655 02ae 48C74424 		movq	$0, 72(%rsp)
 655      48000000 
 655      00
 656 02b7 48C74424 		movq	$0, 80(%rsp)
 656      50000000 
 656      00
 657 02c0 48C74424 		movq	$0, 88(%rsp)
 657      58000000 
 657      00
 658 02c9 48898424 		movq	%rax, 128(%rsp)
 658      80000000 
 659 02d1 488B0500 		movq	_ZTVSt15basic_streambufIcSt11char_traitsIcEE@GOTPCREL(%rip), %rax
 659      000000
 660 02d8 4883C010 		addq	$16, %rax
 661 02dc 48894424 		movq	%rax, 40(%rsp)
 661      28
 662 02e1 E8000000 		call	_ZNSt6localeC1Ev@PLT
 662      00
 663 02e6 488B0500 		movq	_ZTVSt15basic_stringbufIcSt11char_traitsIcESaIcEE@GOTPCREL(%rip), %rax
 663      000000
 664 02ed 4C89E7   		movq	%r12, %rdi
 665 02f0 498D7424 		leaq	8(%r12), %rsi
 665      08
 666 02f5 C7442468 		movl	$16, 104(%rsp)
 666      10000000 
 667 02fd 4883C010 		addq	$16, %rax
 668 0301 48894424 		movq	%rax, 40(%rsp)
 668      28
 669 0306 488B0500 		movq	_ZNSs4_Rep20_S_empty_rep_storageE@GOTPCREL(%rip), %rax
 669      000000
 670 030d 4883C018 		addq	$24, %rax
 671 0311 48894424 		movq	%rax, 112(%rsp)
 671      70
 672 0316 488B4424 		movq	32(%rsp), %rax
 672      20
 673 031b 480378E8 		addq	-24(%rax), %rdi
 674              	.LEHB7:
 675 031f E8000000 		call	_ZNSt9basic_iosIcSt11char_traitsIcEE4initEPSt15basic_streambufIcS1_E@PLT
 675      00
 676              	.LEHE7:
 677 0324 4C8B3D00 		movq	_ZTVN8UnitTest15MemoryOutStreamE@GOTPCREL(%rip), %r15
 677      000000
 678 032b 488D3500 		leaq	.LC9(%rip), %rsi
 678      000000
 679 0332 BA2E0000 		movl	$46, %edx
 679      00
 680 0337 4C89E7   		movq	%r12, %rdi
 681 033a 498D4718 		leaq	24(%r15), %rax
 682 033e 48894424 		movq	%rax, 32(%rsp)
 682      20
 683 0343 498D4740 		leaq	64(%r15), %rax
 684 0347 48898424 		movq	%rax, 128(%rsp)
 684      80000000 
 685 034f 488B0500 		movq	_ZNSs4_Rep20_S_empty_rep_storageE@GOTPCREL(%rip), %rax
 685      000000
 686 0356 4883C018 		addq	$24, %rax
 687 035a 48894424 		movq	%rax, 120(%rsp)
 687      78
 688              	.LEHB8:
 689 035f E8000000 		call	_ZSt16__ostream_insertIcSt11char_traitsIcEERSt13basic_ostreamIT_T0_ES6_PKS3_l@PLT
 689      00
 690 0364 4489F6   		movl	%r14d, %esi
 691 0367 4C89E7   		movq	%r12, %rdi
 692 036a E8000000 		call	_ZNSolsEi@PLT
 692      00
 693 036f 488D3500 		leaq	.LC10(%rip), %rsi
 693      000000
 694 0376 BA0C0000 		movl	$12, %edx
 694      00
 695 037b 4889C7   		movq	%rax, %rdi
 696 037e 4989C6   		movq	%rax, %r14
 697 0381 E8000000 		call	_ZSt16__ostream_insertIcSt11char_traitsIcEERSt13basic_ostreamIT_T0_ES6_PKS3_l@PLT
 697      00
 698 0386 89DE     		movl	%ebx, %esi
 699 0388 4C89F7   		movq	%r14, %rdi
 700 038b E8000000 		call	_ZNSolsEi@PLT
 700      00
 701 0390 488D3500 		leaq	.LC11(%rip), %rsi
 701      000000
 702 0397 BA030000 		movl	$3, %edx
 702      00
 703 039c 4889C7   		movq	%rax, %rdi
 704 039f E8000000 		call	_ZSt16__ostream_insertIcSt11char_traitsIcEERSt13basic_ostreamIT_T0_ES6_PKS3_l@PLT
 704      00
 705 03a4 4C89E7   		movq	%r12, %rdi
 706 03a7 E8000000 		call	_ZNK8UnitTest15MemoryOutStream7GetTextEv@PLT
 706      00
 707 03ac 4889C2   		movq	%rax, %rdx
 708 03af 4C89EE   		movq	%r13, %rsi
 709 03b2 4889EF   		movq	%rbp, %rdi
 710 03b5 E8000000 		call	_ZN8UnitTest11TestResults13OnTestFailureERKNS_11TestDetailsEPKc@PLT
 710      00
 711              	.LEHE8:
 712 03ba 498D4718 		leaq	24(%r15), %rax
 713 03be 48894424 		movq	%rax, 32(%rsp)
 713      20
 714 03c3 498D4740 		leaq	64(%r15), %rax
 715 03c7 48898424 		movq	%rax, 128(%rsp)
 715      80000000 
 716 03cf 488B4424 		movq	120(%rsp), %rax
 716      78
 717 03d4 488D78E8 		leaq	-24(%rax), %rdi
 718 03d8 483B3D00 		cmpq	_ZNSs4_Rep20_S_empty_rep_storageE@GOTPCREL(%rip), %rdi
 718      000000
 719 03df 757F     		jne	.L91
 720              	.L62:
 721 03e1 488D0500 		leaq	24+_ZTCN8UnitTest15MemoryOutStreamE0_St19basic_ostringstreamIcSt11char_traitsIcESaIcEE(%rip),
 721      000000
 722 03e8 48894424 		movq	%rax, 32(%rsp)
 722      20
 723 03ed 488D0500 		leaq	64+_ZTCN8UnitTest15MemoryOutStreamE0_St19basic_ostringstreamIcSt11char_traitsIcESaIcEE(%rip),
 723      000000
 724 03f4 48898424 		movq	%rax, 128(%rsp)
 724      80000000 
 725 03fc 488B0500 		movq	_ZTVSt15basic_stringbufIcSt11char_traitsIcESaIcEE@GOTPCREL(%rip), %rax
 725      000000
 726 0403 4883C010 		addq	$16, %rax
 727 0407 48894424 		movq	%rax, 40(%rsp)
 727      28
 728 040c 488B4424 		movq	112(%rsp), %rax
 728      70
 729 0411 488D78E8 		leaq	-24(%rax), %rdi
 730 0415 483B3D00 		cmpq	_ZNSs4_Rep20_S_empty_rep_storageE@GOTPCREL(%rip), %rdi
 730      000000
 731 041c 7572     		jne	.L92
 732              	.L67:
 733 041e 488B0500 		movq	_ZTVSt15basic_streambufIcSt11char_traitsIcEE@GOTPCREL(%rip), %rax
 733      000000
 734 0425 498D7C24 		leaq	64(%r12), %rdi
 734      40
 735 042a 4883C010 		addq	$16, %rax
 736 042e 48894424 		movq	%rax, 40(%rsp)
 736      28
 737 0433 E8000000 		call	_ZNSt6localeD1Ev@PLT
 737      00
 738 0438 488B0500 		movq	_ZTVSt9basic_iosIcSt11char_traitsIcEE@GOTPCREL(%rip), %rax
 738      000000
 739 043f 498D7C24 		leaq	96(%r12), %rdi
 739      60
 740 0444 4883C010 		addq	$16, %rax
 741 0448 48898424 		movq	%rax, 128(%rsp)
 741      80000000 
 742              	.LEHB9:
 743 0450 E8000000 		call	_ZNSt8ios_baseD2Ev@PLT
 743      00
 744              	.LEHE9:
 745 0455 E954FDFF 		jmp	.L51
 745      FF
 746 045a 660F1F44 		.p2align 4,,10
 746      0000
 747              		.p2align 3
 748              	.L91:
 749 0460 48833D00 		cmpq	$0, _ZL28__gthrw___pthread_key_createPjPFvPvE@GOTPCREL(%rip)
 749      00000000 
 750 0468 7453     		je	.L63
 751 046a BAFFFFFF 		movl	$-1, %edx
 751      FF
 752 046f F00FC150 		lock xaddl	%edx, -8(%rax)
 752      F8
 753 0474 89D0     		movl	%edx, %eax
 754              	.L64:
 755 0476 85C0     		testl	%eax, %eax
 756 0478 0F8F63FF 		jg	.L62
 756      FFFF
 757 047e 488D7424 		leaq	15(%rsp), %rsi
 757      0F
 758 0483 E8000000 		call	_ZNSs4_Rep10_M_destroyERKSaIcE@PLT
 758      00
 759 0488 E954FFFF 		jmp	.L62
 759      FF
 760 048d 0F1F00   		.p2align 4,,10
 761              		.p2align 3
 762              	.L92:
 763 0490 48833D00 		cmpq	$0, _ZL28__gthrw___pthread_key_createPjPFvPvE@GOTPCREL(%rip)
 763      00000000 
 764 0498 7430     		je	.L68
 765 049a BAFFFFFF 		movl	$-1, %edx
 765      FF
 766 049f F00FC150 		lock xaddl	%edx, -8(%rax)
 766      F8
 767 04a4 89D0     		movl	%edx, %eax
 768              	.L69:
 769 04a6 85C0     		testl	%eax, %eax
 770 04a8 0F8F70FF 		jg	.L67
 770      FFFF
 771 04ae 488D7424 		leaq	15(%rsp), %rsi
 771      0F
 772 04b3 E8000000 		call	_ZNSs4_Rep10_M_destroyERKSaIcE@PLT
 772      00
 773 04b8 E961FFFF 		jmp	.L67
 773      FF
 774              	.L63:
 775 04bd 8B50F8   		movl	-8(%rax), %edx
 776 04c0 8D4AFF   		leal	-1(%rdx), %ecx
 777 04c3 8948F8   		movl	%ecx, -8(%rax)
 778 04c6 89D0     		movl	%edx, %eax
 779 04c8 EBAC     		jmp	.L64
 780              	.L68:
 781 04ca 8B50F8   		movl	-8(%rax), %edx
 782 04cd 8D4AFF   		leal	-1(%rdx), %ecx
 783 04d0 8948F8   		movl	%ecx, -8(%rax)
 784 04d3 89D0     		movl	%edx, %eax
 785 04d5 EBCF     		jmp	.L69
 786              	.L90:
 787 04d7 E8000000 		call	__stack_chk_fail@PLT
 787      00
 788              	.L74:
 789 04dc 4889C3   		movq	%rax, %rbx
 790              	.L59:
 791 04df 488B0500 		movq	_ZTVSt9basic_iosIcSt11char_traitsIcEE@GOTPCREL(%rip), %rax
 791      000000
 792 04e6 498D7C24 		leaq	96(%r12), %rdi
 792      60
 793 04eb 4883C010 		addq	$16, %rax
 794 04ef 48898424 		movq	%rax, 128(%rsp)
 794      80000000 
 795 04f7 E8000000 		call	_ZNSt8ios_baseD2Ev@PLT
 795      00
 796 04fc 4889DF   		movq	%rbx, %rdi
 797              	.LEHB10:
 798 04ff E8000000 		call	_Unwind_Resume@PLT
 798      00
 799              	.LEHE10:
 800              	.L75:
 801 0504 4889C3   		movq	%rax, %rbx
 802 0507 488B0500 		movq	_ZTVSt15basic_stringbufIcSt11char_traitsIcESaIcEE@GOTPCREL(%rip), %rax
 802      000000
 803 050e 4883C010 		addq	$16, %rax
 804 0512 48894424 		movq	%rax, 40(%rsp)
 804      28
 805 0517 488B4424 		movq	112(%rsp), %rax
 805      70
 806 051c 488D78E8 		leaq	-24(%rax), %rdi
 807 0520 483B3D00 		cmpq	_ZNSs4_Rep20_S_empty_rep_storageE@GOTPCREL(%rip), %rdi
 807      000000
 808 0527 752F     		jne	.L93
 809              	.L55:
 810 0529 488B0500 		movq	_ZTVSt15basic_streambufIcSt11char_traitsIcEE@GOTPCREL(%rip), %rax
 810      000000
 811 0530 498D7C24 		leaq	64(%r12), %rdi
 811      40
 812 0535 4883C010 		addq	$16, %rax
 813 0539 48894424 		movq	%rax, 40(%rsp)
 813      28
 814 053e E8000000 		call	_ZNSt6localeD1Ev@PLT
 814      00
 815 0543 EB9A     		jmp	.L59
 816              	.L73:
 817 0545 4889C3   		movq	%rax, %rbx
 818 0548 4C89E7   		movq	%r12, %rdi
 819 054b E8000000 		call	_ZN8UnitTest15MemoryOutStreamD1Ev@PLT
 819      00
 820 0550 4889DF   		movq	%rbx, %rdi
 821              	.LEHB11:
 822 0553 E8000000 		call	_Unwind_Resume@PLT
 822      00
 823              	.LEHE11:
 824              	.L93:
 825 0558 48833D00 		cmpq	$0, _ZL28__gthrw___pthread_key_createPjPFvPvE@GOTPCREL(%rip)
 825      00000000 
 826 0560 488D4F10 		leaq	16(%rdi), %rcx
 827 0564 7417     		je	.L56
 828 0566 83CAFF   		orl	$-1, %edx
 829 0569 F00FC111 		lock xaddl	%edx, (%rcx)
 830              	.L57:
 831 056d 85D2     		testl	%edx, %edx
 832 056f 7FB8     		jg	.L55
 833 0571 488D7424 		leaq	15(%rsp), %rsi
 833      0F
 834 0576 E8000000 		call	_ZNSs4_Rep10_M_destroyERKSaIcE@PLT
 834      00
 835 057b EBAC     		jmp	.L55
 836              	.L56:
 837 057d 8B50F8   		movl	-8(%rax), %edx
 838 0580 8D4AFF   		leal	-1(%rdx), %ecx
 839 0583 8948F8   		movl	%ecx, -8(%rax)
 840 0586 EBE5     		jmp	.L57
 841              		.cfi_endproc
 842              	.LFE1123:
 843              		.section	.gcc_except_table
 844              	.LLSDA1123:
 845 0018 FF       		.byte	0xff
 846 0019 FF       		.byte	0xff
 847 001a 01       		.byte	0x1
 848 001b 25       		.uleb128 .LLSDACSE1123-.LLSDACSB1123
 849              	.LLSDACSB1123:
 850 001c 37       		.uleb128 .LEHB5-.LFB1123
 851 001d 62       		.uleb128 .LEHE5-.LEHB5
 852 001e 00       		.uleb128 0
 853 001f 00       		.uleb128 0
 854 0020 C602     		.uleb128 .LEHB6-.LFB1123
 855 0022 05       		.uleb128 .LEHE6-.LEHB6
 856 0023 AC07     		.uleb128 .L74-.LFB1123
 857 0025 00       		.uleb128 0
 858 0026 EF03     		.uleb128 .LEHB7-.LFB1123
 859 0028 05       		.uleb128 .LEHE7-.LEHB7
 860 0029 D407     		.uleb128 .L75-.LFB1123
 861 002b 00       		.uleb128 0
 862 002c AF04     		.uleb128 .LEHB8-.LFB1123
 863 002e 5B       		.uleb128 .LEHE8-.LEHB8
 864 002f 9508     		.uleb128 .L73-.LFB1123
 865 0031 00       		.uleb128 0
 866 0032 A006     		.uleb128 .LEHB9-.LFB1123
 867 0034 05       		.uleb128 .LEHE9-.LEHB9
 868 0035 00       		.uleb128 0
 869 0036 00       		.uleb128 0
 870 0037 CF07     		.uleb128 .LEHB10-.LFB1123
 871 0039 05       		.uleb128 .LEHE10-.LEHB10
 872 003a 00       		.uleb128 0
 873 003b 00       		.uleb128 0
 874 003c A308     		.uleb128 .LEHB11-.LFB1123
 875 003e 05       		.uleb128 .LEHE11-.LEHB11
 876 003f 00       		.uleb128 0
 877 0040 00       		.uleb128 0
 878              	.LLSDACSE1123:
 879              		.text
 881              		.section	.text.unlikely
 882              	.LCOLDE12:
 883              		.text
 884              	.LHOTE12:
 885              		.section	.text.unlikely
 886              	.LCOLDB13:
 887              		.text
 888              	.LHOTB13:
 889 0588 0F1F8400 		.p2align 4,,15
 889      00000000 
 890              		.globl	_ZN8UnitTest11RunAllTestsEv
 892              	_ZN8UnitTest11RunAllTestsEv:
 893              	.LFB1108:
 894              		.cfi_startproc
 895              		.cfi_personality 0x9b,DW.ref.__gxx_personality_v0
 896              		.cfi_lsda 0x1b,.LLSDA1108
 897 0590 4155     		pushq	%r13
 898              		.cfi_def_cfa_offset 16
 899              		.cfi_offset 13, -16
 900 0592 4154     		pushq	%r12
 901              		.cfi_def_cfa_offset 24
 902              		.cfi_offset 12, -24
 903 0594 55       		pushq	%rbp
 904              		.cfi_def_cfa_offset 32
 905              		.cfi_offset 6, -32
 906 0595 53       		pushq	%rbx
 907              		.cfi_def_cfa_offset 40
 908              		.cfi_offset 3, -40
 909 0596 4883EC38 		subq	$56, %rsp
 910              		.cfi_def_cfa_offset 96
 911 059a 4C8B2D00 		movq	_ZTVN8UnitTest18TestReporterStdoutE@GOTPCREL(%rip), %r13
 911      000000
 912 05a1 488D6C24 		leaq	16(%rsp), %rbp
 912      10
 913 05a6 4889E6   		movq	%rsp, %rsi
 914 05a9 4989E4   		movq	%rsp, %r12
 915 05ac 64488B04 		movq	%fs:40, %rax
 915      25280000 
 915      00
 916 05b5 48894424 		movq	%rax, 40(%rsp)
 916      28
 917 05ba 31C0     		xorl	%eax, %eax
 918 05bc 498D4510 		leaq	16(%r13), %rax
 919 05c0 4889EF   		movq	%rbp, %rdi
 920 05c3 48890424 		movq	%rax, (%rsp)
 921              	.LEHB12:
 922 05c7 E8000000 		call	_ZN8UnitTest10TestRunnerC1ERNS_12TestReporterE@PLT
 922      00
 923              	.LEHE12:
 924              	.LEHB13:
 925 05cc E8000000 		call	_ZN8UnitTest4Test11GetTestListEv@PLT
 925      00
 926 05d1 4889C7   		movq	%rax, %rdi
 927 05d4 E8000000 		call	_ZNK8UnitTest8TestList7GetHeadEv@PLT
 927      00
 928 05d9 4885C0   		testq	%rax, %rax
 929 05dc 4889C3   		movq	%rax, %rbx
 930 05df 7433     		je	.L99
 931              		.p2align 4,,10
 932 05e1 0F1F8000 		.p2align 3
 932      000000
 933              	.L106:
 934 05e8 31D2     		xorl	%edx, %edx
 935 05ea 4889DE   		movq	%rbx, %rsi
 936 05ed 4889EF   		movq	%rbp, %rdi
 937 05f0 E8000000 		call	_ZNK8UnitTest10TestRunner13IsTestInSuiteEPKNS_4TestEPKc@PLT
 937      00
 938 05f5 84C0     		testb	%al, %al
 939 05f7 7412     		je	.L102
 940 05f9 488B7424 		movq	24(%rsp), %rsi
 940      18
 941 05fe 31C9     		xorl	%ecx, %ecx
 942 0600 4889DA   		movq	%rbx, %rdx
 943 0603 4889EF   		movq	%rbp, %rdi
 944 0606 E8000000 		call	_ZNK8UnitTest10TestRunner7RunTestEPNS_11TestResultsEPNS_4TestEi@PLT
 944      00
 945              	.L102:
 946 060b 488B5B28 		movq	40(%rbx), %rbx
 947 060f 4885DB   		testq	%rbx, %rbx
 948 0612 75D4     		jne	.L106
 949              	.L99:
 950 0614 4889EF   		movq	%rbp, %rdi
 951 0617 E8000000 		call	_ZNK8UnitTest10TestRunner6FinishEv@PLT
 951      00
 952              	.LEHE13:
 953 061c 4889EF   		movq	%rbp, %rdi
 954 061f 89C3     		movl	%eax, %ebx
 955              	.LEHB14:
 956 0621 E8000000 		call	_ZN8UnitTest10TestRunnerD1Ev@PLT
 956      00
 957              	.LEHE14:
 958 0626 498D4510 		leaq	16(%r13), %rax
 959 062a 4C89E7   		movq	%r12, %rdi
 960 062d 48890424 		movq	%rax, (%rsp)
 961              	.LEHB15:
 962 0631 E8000000 		call	_ZN8UnitTest12TestReporterD2Ev@PLT
 962      00
 963              	.LEHE15:
 964 0636 488B4C24 		movq	40(%rsp), %rcx
 964      28
 965 063b 6448330C 		xorq	%fs:40, %rcx
 965      25280000 
 965      00
 966 0644 89D8     		movl	%ebx, %eax
 967 0646 7526     		jne	.L113
 968 0648 4883C438 		addq	$56, %rsp
 969              		.cfi_remember_state
 970              		.cfi_def_cfa_offset 40
 971 064c 5B       		popq	%rbx
 972              		.cfi_def_cfa_offset 32
 973 064d 5D       		popq	%rbp
 974              		.cfi_def_cfa_offset 24
 975 064e 415C     		popq	%r12
 976              		.cfi_def_cfa_offset 16
 977 0650 415D     		popq	%r13
 978              		.cfi_def_cfa_offset 8
 979 0652 C3       		ret
 980              	.L104:
 981              		.cfi_restore_state
 982 0653 4889C3   		movq	%rax, %rbx
 983              	.L101:
 984 0656 498D4510 		leaq	16(%r13), %rax
 985 065a 4C89E7   		movq	%r12, %rdi
 986 065d 48890424 		movq	%rax, (%rsp)
 987 0661 E8000000 		call	_ZN8UnitTest12TestReporterD2Ev@PLT
 987      00
 988 0666 4889DF   		movq	%rbx, %rdi
 989              	.LEHB16:
 990 0669 E8000000 		call	_Unwind_Resume@PLT
 990      00
 991              	.LEHE16:
 992              	.L113:
 993 066e E8000000 		call	__stack_chk_fail@PLT
 993      00
 994              	.L105:
 995 0673 4889EF   		movq	%rbp, %rdi
 996 0676 4889C3   		movq	%rax, %rbx
 997 0679 E8000000 		call	_ZN8UnitTest10TestRunnerD1Ev@PLT
 997      00
 998 067e EBD6     		jmp	.L101
 999              		.cfi_endproc
 1000              	.LFE1108:
 1001              		.section	.gcc_except_table
 1002              	.LLSDA1108:
 1003 0041 FF       		.byte	0xff
 1004 0042 FF       		.byte	0xff
 1005 0043 01       		.byte	0x1
 1006 0044 1A       		.uleb128 .LLSDACSE1108-.LLSDACSB1108
 1007              	.LLSDACSB1108:
 1008 0045 37       		.uleb128 .LEHB12-.LFB1108
 1009 0046 05       		.uleb128 .LEHE12-.LEHB12
 1010 0047 C301     		.uleb128 .L104-.LFB1108
 1011 0049 00       		.uleb128 0
 1012 004a 3C       		.uleb128 .LEHB13-.LFB1108
 1013 004b 50       		.uleb128 .LEHE13-.LEHB13
 1014 004c E301     		.uleb128 .L105-.LFB1108
 1015 004e 00       		.uleb128 0
 1016 004f 9101     		.uleb128 .LEHB14-.LFB1108
 1017 0051 05       		.uleb128 .LEHE14-.LEHB14
 1018 0052 C301     		.uleb128 .L104-.LFB1108
 1019 0054 00       		.uleb128 0
 1020 0055 A101     		.uleb128 .LEHB15-.LFB1108
 1021 0057 05       		.uleb128 .LEHE15-.LEHB15
 1022 0058 00       		.uleb128 0
 1023 0059 00       		.uleb128 0
 1024 005a D901     		.uleb128 .LEHB16-.LFB1108
 1025 005c 05       		.uleb128 .LEHE16-.LEHB16
 1026 005d 00       		.uleb128 0
 1027 005e 00       		.uleb128 0
 1028              	.LLSDACSE1108:
 1029              		.text
 1031              		.section	.text.unlikely
 1032              	.LCOLDE13:
 1033              		.text
 1034              	.LHOTE13:
 1035              		.weak	_ZTIN8UnitTest15MemoryOutStreamE
 1036              		.section	.data.rel.ro._ZTIN8UnitTest15MemoryOutStreamE,"awG",@progbits,_ZTIN8UnitTest15MemoryOutSt
 1037              		.align 16
 1040              	_ZTIN8UnitTest15MemoryOutStreamE:
 1041 0000 00000000 		.quad	_ZTVN10__cxxabiv120__si_class_type_infoE+16
 1041      00000000 
 1042 0008 00000000 		.quad	_ZTSN8UnitTest15MemoryOutStreamE
 1042      00000000 
 1043 0010 00000000 		.quad	_ZTISt19basic_ostringstreamIcSt11char_traitsIcESaIcEE
 1043      00000000 
 1044              		.weak	_ZTSN8UnitTest15MemoryOutStreamE
 1045              		.section	.rodata._ZTSN8UnitTest15MemoryOutStreamE,"aG",@progbits,_ZTSN8UnitTest15MemoryOutStreamE,
 1046              		.align 16
 1049              	_ZTSN8UnitTest15MemoryOutStreamE:
 1050 0000 4E38556E 		.string	"N8UnitTest15MemoryOutStreamE"
 1050      69745465 
 1050      73743135 
 1050      4D656D6F 
 1050      72794F75 
 1051              		.hidden	_ZTCN8UnitTest15MemoryOutStreamE0_So
 1052              		.weak	_ZTCN8UnitTest15MemoryOutStreamE0_So
 1053              		.section	.data.rel.ro._ZTCN8UnitTest15MemoryOutStreamE0_So,"awG",@progbits,_ZTVN8UnitTest15MemoryO
 1054              		.align 64
 1057              	_ZTCN8UnitTest15MemoryOutStreamE0_So:
 1058 0000 60000000 		.quad	96
 1058      00000000 
 1059 0008 00000000 		.quad	0
 1059      00000000 
 1060 0010 00000000 		.quad	_ZTISo
 1060      00000000 
 1061 0018 00000000 		.quad	0
 1061      00000000 
 1062 0020 00000000 		.quad	0
 1062      00000000 
 1063 0028 A0FFFFFF 		.quad	-96
 1063      FFFFFFFF 
 1064 0030 A0FFFFFF 		.quad	-96
 1064      FFFFFFFF 
 1065 0038 00000000 		.quad	_ZTISo
 1065      00000000 
 1066 0040 00000000 		.quad	0
 1066      00000000 
 1067 0048 00000000 		.quad	0
 1067      00000000 
 1068              		.hidden	_ZTCN8UnitTest15MemoryOutStreamE0_St19basic_ostringstreamIcSt11char_traitsIcESaIcEE
 1069              		.weak	_ZTCN8UnitTest15MemoryOutStreamE0_St19basic_ostringstreamIcSt11char_traitsIcESaIcEE
 1070              		.section	.data.rel.ro._ZTCN8UnitTest15MemoryOutStreamE0_St19basic_ostringstreamIcSt11char_traitsIc
 1071              		.align 64
 1074              	_ZTCN8UnitTest15MemoryOutStreamE0_St19basic_ostringstreamIcSt11char_traitsIcESaIcEE:
 1075 0000 60000000 		.quad	96
 1075      00000000 
 1076 0008 00000000 		.quad	0
 1076      00000000 
 1077 0010 00000000 		.quad	_ZTISt19basic_ostringstreamIcSt11char_traitsIcESaIcEE
 1077      00000000 
 1078 0018 00000000 		.quad	0
 1078      00000000 
 1079 0020 00000000 		.quad	0
 1079      00000000 
 1080 0028 A0FFFFFF 		.quad	-96
 1080      FFFFFFFF 
 1081 0030 A0FFFFFF 		.quad	-96
 1081      FFFFFFFF 
 1082 0038 00000000 		.quad	_ZTISt19basic_ostringstreamIcSt11char_traitsIcESaIcEE
 1082      00000000 
 1083 0040 00000000 		.quad	0
 1083      00000000 
 1084 0048 00000000 		.quad	0
 1084      00000000 
 1085              		.weak	_ZTTN8UnitTest15MemoryOutStreamE
 1086              		.section	.data.rel.ro._ZTTN8UnitTest15MemoryOutStreamE,"awG",@progbits,_ZTVN8UnitTest15MemoryOutSt
 1087              		.align 32
 1090              	_ZTTN8UnitTest15MemoryOutStreamE:
 1091 0000 00000000 		.quad	_ZTVN8UnitTest15MemoryOutStreamE+24
 1091      00000000 
 1092 0008 00000000 		.quad	_ZTCN8UnitTest15MemoryOutStreamE0_St19basic_ostringstreamIcSt11char_traitsIcESaIcEE+24
 1092      00000000 
 1093 0010 00000000 		.quad	_ZTCN8UnitTest15MemoryOutStreamE0_So+24
 1093      00000000 
 1094 0018 00000000 		.quad	_ZTCN8UnitTest15MemoryOutStreamE0_So+64
 1094      00000000 
 1095 0020 00000000 		.quad	_ZTCN8UnitTest15MemoryOutStreamE0_St19basic_ostringstreamIcSt11char_traitsIcESaIcEE+64
 1095      00000000 
 1096 0028 00000000 		.quad	_ZTVN8UnitTest15MemoryOutStreamE+64
 1096      00000000 
 1097              		.weak	_ZTVN8UnitTest15MemoryOutStreamE
 1098              		.section	.data.rel.ro._ZTVN8UnitTest15MemoryOutStreamE,"awG",@progbits,_ZTVN8UnitTest15MemoryOutSt
 1099              		.align 64
 1102              	_ZTVN8UnitTest15MemoryOutStreamE:
 1103 0000 60000000 		.quad	96
 1103      00000000 
 1104 0008 00000000 		.quad	0
 1104      00000000 
 1105 0010 00000000 		.quad	_ZTIN8UnitTest15MemoryOutStreamE
 1105      00000000 
 1106 0018 00000000 		.quad	_ZN8UnitTest15MemoryOutStreamD1Ev
 1106      00000000 
 1107 0020 00000000 		.quad	_ZN8UnitTest15MemoryOutStreamD0Ev
 1107      00000000 
 1108 0028 A0FFFFFF 		.quad	-96
 1108      FFFFFFFF 
 1109 0030 A0FFFFFF 		.quad	-96
 1109      FFFFFFFF 
 1110 0038 00000000 		.quad	_ZTIN8UnitTest15MemoryOutStreamE
 1110      00000000 
 1111 0040 00000000 		.quad	_ZTv0_n24_N8UnitTest15MemoryOutStreamD1Ev
 1111      00000000 
 1112 0048 00000000 		.quad	_ZTv0_n24_N8UnitTest15MemoryOutStreamD0Ev
 1112      00000000 
 1113              		.weakref	_ZL28__gthrw___pthread_key_createPjPFvPvE,__pthread_key_create
 1114              		.section	.rodata.cst4,"aM",@progbits,4
 1115              		.align 4
 1116              	.LC6:
 1117 0000 00007A44 		.long	1148846080
 1118              		.hidden	DW.ref.__gxx_personality_v0
 1119              		.weak	DW.ref.__gxx_personality_v0
 1120              		.section	.data.DW.ref.__gxx_personality_v0,"awG",@progbits,DW.ref.__gxx_personality_v0,comdat
 1121              		.align 8
 1124              	DW.ref.__gxx_personality_v0:
 1125 0000 00000000 		.quad	__gxx_personality_v0
 1125      00000000 
 1126              		.ident	"GCC: (Ubuntu 4.9.2-10ubuntu13) 4.9.2"
 1127              		.section	.note.GNU-stack,"",@progbits