   1              		.file	"Test.cpp"
   2              		.section	.text.unlikely,"ax",@progbits
   3              		.align 2
   4              	.LCOLDB0:
   5              		.text
   6              	.LHOTB0:
   7              		.align 2
   8              		.p2align 4,,15
   9              		.globl	_ZN8UnitTest4TestD2Ev
  11              	_ZN8UnitTest4TestD2Ev:
  12              	.LFB1089:
  13              		.cfi_startproc
  14 0000 F3C3     		rep ret
  15              		.cfi_endproc
  16              	.LFE1089:
  18              		.section	.text.unlikely
  19              	.LCOLDE0:
  20              		.text
  21              	.LHOTE0:
  22              		.globl	_ZN8UnitTest4TestD1Ev
  23              		.set	_ZN8UnitTest4TestD1Ev,_ZN8UnitTest4TestD2Ev
  24              		.section	.text.unlikely
  25              		.align 2
  26              	.LCOLDB1:
  27              		.text
  28              	.LHOTB1:
  29              		.align 2
  30 0002 0F1F4000 		.p2align 4,,15
  30      662E0F1F 
  30      84000000 
  30      0000
  31              		.globl	_ZNK8UnitTest4Test7RunImplEv
  33              	_ZNK8UnitTest4Test7RunImplEv:
  34              	.LFB1093:
  35              		.cfi_startproc
  36 0010 F3C3     		rep ret
  37              		.cfi_endproc
  38              	.LFE1093:
  40              		.section	.text.unlikely
  41              	.LCOLDE1:
  42              		.text
  43              	.LHOTE1:
  44              		.set	_ZNK8UnitTest4Test7RunImplEv.localalias.7,_ZNK8UnitTest4Test7RunImplEv
  45              		.section	.text.unlikely
  46              		.align 2
  47              	.LCOLDB2:
  48              		.text
  49              	.LHOTB2:
  50              		.align 2
  51 0012 0F1F4000 		.p2align 4,,15
  51      662E0F1F 
  51      84000000 
  51      0000
  52              		.globl	_ZN8UnitTest4TestD0Ev
  54              	_ZN8UnitTest4TestD0Ev:
  55              	.LFB1091:
  56              		.cfi_startproc
  57 0020 53       		pushq	%rbx
  58              		.cfi_def_cfa_offset 16
  59              		.cfi_offset 3, -16
  60 0021 4889FB   		movq	%rdi, %rbx
  61 0024 E8000000 		call	_ZN8UnitTest4TestD1Ev@PLT
  61      00
  62 0029 4889DF   		movq	%rbx, %rdi
  63 002c 5B       		popq	%rbx
  64              		.cfi_def_cfa_offset 8
  65 002d E9000000 		jmp	_ZdlPv@PLT
  65      00
  66              		.cfi_endproc
  67              	.LFE1091:
  69              		.section	.text.unlikely
  70              	.LCOLDE2:
  71              		.text
  72              	.LHOTE2:
  73              		.section	.text.unlikely._ZN8UnitTest15MemoryOutStreamD1Ev,"axG",@progbits,_ZN8UnitTest15MemoryOutS
  74              		.align 2
  75              	.LCOLDB3:
  76              		.section	.text._ZN8UnitTest15MemoryOutStreamD1Ev,"axG",@progbits,_ZN8UnitTest15MemoryOutStreamD1Ev
  77              	.LHOTB3:
  78              		.align 2
  79              		.p2align 4,,15
  80              		.weak	_ZN8UnitTest15MemoryOutStreamD1Ev
  82              	_ZN8UnitTest15MemoryOutStreamD1Ev:
  83              	.LFB1124:
  84              		.cfi_startproc
  85 0000 55       		pushq	%rbp
  86              		.cfi_def_cfa_offset 16
  87              		.cfi_offset 6, -16
  88 0001 53       		pushq	%rbx
  89              		.cfi_def_cfa_offset 24
  90              		.cfi_offset 3, -24
  91 0002 4889FB   		movq	%rdi, %rbx
  92 0005 4883EC18 		subq	$24, %rsp
  93              		.cfi_def_cfa_offset 48
  94 0009 488B2D00 		movq	_ZNSs4_Rep20_S_empty_rep_storageE@GOTPCREL(%rip), %rbp
  94      000000
  95 0010 64488B04 		movq	%fs:40, %rax
  95      25280000 
  95      00
  96 0019 48894424 		movq	%rax, 8(%rsp)
  96      08
  97 001e 31C0     		xorl	%eax, %eax
  98 0020 488B0500 		movq	_ZTVN8UnitTest15MemoryOutStreamE@GOTPCREL(%rip), %rax
  98      000000
  99 0027 488D5018 		leaq	24(%rax), %rdx
 100 002b 4883C040 		addq	$64, %rax
 101 002f 48894760 		movq	%rax, 96(%rdi)
 102 0033 488B4758 		movq	88(%rdi), %rax
 103 0037 488917   		movq	%rdx, (%rdi)
 104 003a 488D78E8 		leaq	-24(%rax), %rdi
 105 003e 4839EF   		cmpq	%rbp, %rdi
 106 0041 757D     		jne	.L19
 107              	.L7:
 108 0043 488D0500 		leaq	24+_ZTCN8UnitTest15MemoryOutStreamE0_St19basic_ostringstreamIcSt11char_traitsIcESaIcEE(%rip),
 108      000000
 109 004a 488903   		movq	%rax, (%rbx)
 110 004d 488D0500 		leaq	64+_ZTCN8UnitTest15MemoryOutStreamE0_St19basic_ostringstreamIcSt11char_traitsIcESaIcEE(%rip),
 110      000000
 111 0054 48894360 		movq	%rax, 96(%rbx)
 112 0058 488B0500 		movq	_ZTVSt15basic_stringbufIcSt11char_traitsIcESaIcEE@GOTPCREL(%rip), %rax
 112      000000
 113 005f 4883C010 		addq	$16, %rax
 114 0063 48894308 		movq	%rax, 8(%rbx)
 115 0067 488B4350 		movq	80(%rbx), %rax
 116 006b 488D78E8 		leaq	-24(%rax), %rdi
 117 006f 4839EF   		cmpq	%rbp, %rdi
 118 0072 757C     		jne	.L20
 119              	.L12:
 120 0074 488B0500 		movq	_ZTVSt15basic_streambufIcSt11char_traitsIcEE@GOTPCREL(%rip), %rax
 120      000000
 121 007b 488D7B40 		leaq	64(%rbx), %rdi
 122 007f 4883C010 		addq	$16, %rax
 123 0083 48894308 		movq	%rax, 8(%rbx)
 124 0087 E8000000 		call	_ZNSt6localeD1Ev@PLT
 124      00
 125 008c 488B0500 		movq	_ZTVSt9basic_iosIcSt11char_traitsIcEE@GOTPCREL(%rip), %rax
 125      000000
 126 0093 488D7B60 		leaq	96(%rbx), %rdi
 127 0097 4883C010 		addq	$16, %rax
 128 009b 48894360 		movq	%rax, 96(%rbx)
 129 009f E8000000 		call	_ZNSt8ios_baseD2Ev@PLT
 129      00
 130 00a4 488B4424 		movq	8(%rsp), %rax
 130      08
 131 00a9 64483304 		xorq	%fs:40, %rax
 131      25280000 
 131      00
 132 00b2 0F858500 		jne	.L21
 132      0000
 133 00b8 4883C418 		addq	$24, %rsp
 134              		.cfi_remember_state
 135              		.cfi_def_cfa_offset 24
 136 00bc 5B       		popq	%rbx
 137              		.cfi_def_cfa_offset 16
 138 00bd 5D       		popq	%rbp
 139              		.cfi_def_cfa_offset 8
 140 00be C3       		ret
 141 00bf 90       		.p2align 4,,10
 142              		.p2align 3
 143              	.L19:
 144              		.cfi_restore_state
 145 00c0 48833D00 		cmpq	$0, _ZL28__gthrw___pthread_key_createPjPFvPvE@GOTPCREL(%rip)
 145      00000000 
 146 00c8 7466     		je	.L8
 147 00ca BAFFFFFF 		movl	$-1, %edx
 147      FF
 148 00cf F00FC150 		lock xaddl	%edx, -8(%rax)
 148      F8
 149 00d4 89D0     		movl	%edx, %eax
 150              	.L9:
 151 00d6 85C0     		testl	%eax, %eax
 152 00d8 0F8F65FF 		jg	.L7
 152      FFFF
 153 00de 488D7424 		leaq	7(%rsp), %rsi
 153      07
 154 00e3 E8000000 		call	_ZNSs4_Rep10_M_destroyERKSaIcE@PLT
 154      00
 155 00e8 E956FFFF 		jmp	.L7
 155      FF
 156 00ed 0F1F00   		.p2align 4,,10
 157              		.p2align 3
 158              	.L20:
 159 00f0 48833D00 		cmpq	$0, _ZL28__gthrw___pthread_key_createPjPFvPvE@GOTPCREL(%rip)
 159      00000000 
 160 00f8 7426     		je	.L13
 161 00fa BAFFFFFF 		movl	$-1, %edx
 161      FF
 162 00ff F00FC150 		lock xaddl	%edx, -8(%rax)
 162      F8
 163 0104 89D0     		movl	%edx, %eax
 164              	.L14:
 165 0106 85C0     		testl	%eax, %eax
 166 0108 0F8F66FF 		jg	.L12
 166      FFFF
 167 010e 488D7424 		leaq	7(%rsp), %rsi
 167      07
 168 0113 E8000000 		call	_ZNSs4_Rep10_M_destroyERKSaIcE@PLT
 168      00
 169 0118 E957FFFF 		jmp	.L12
 169      FF
 170 011d 0F1F00   		.p2align 4,,10
 171              		.p2align 3
 172              	.L13:
 173 0120 8B50F8   		movl	-8(%rax), %edx
 174 0123 8D4AFF   		leal	-1(%rdx), %ecx
 175 0126 8948F8   		movl	%ecx, -8(%rax)
 176 0129 89D0     		movl	%edx, %eax
 177 012b EBD9     		jmp	.L14
 178 012d 0F1F00   		.p2align 4,,10
 179              		.p2align 3
 180              	.L8:
 181 0130 8B50F8   		movl	-8(%rax), %edx
 182 0133 8D4AFF   		leal	-1(%rdx), %ecx
 183 0136 8948F8   		movl	%ecx, -8(%rax)
 184 0139 89D0     		movl	%edx, %eax
 185 013b EB99     		jmp	.L9
 186              	.L21:
 187 013d E8000000 		call	__stack_chk_fail@PLT
 187      00
 188              		.cfi_endproc
 189              	.LFE1124:
 191              		.section	.text.unlikely._ZN8UnitTest15MemoryOutStreamD1Ev,"axG",@progbits,_ZN8UnitTest15MemoryOutS
 192              	.LCOLDE3:
 193              		.section	.text._ZN8UnitTest15MemoryOutStreamD1Ev,"axG",@progbits,_ZN8UnitTest15MemoryOutStreamD1Ev
 194              	.LHOTE3:
 195              		.set	.LTHUNK0,_ZN8UnitTest15MemoryOutStreamD1Ev
 196              	.LCOLDB4:
 197              	.LHOTB4:
 198 0142 0F1F4000 		.p2align 4,,15
 198      662E0F1F 
 198      84000000 
 198      0000
 199              		.weak	_ZTv0_n24_N8UnitTest15MemoryOutStreamD1Ev
 201              	_ZTv0_n24_N8UnitTest15MemoryOutStreamD1Ev:
 202              	.LFB1183:
 203              		.cfi_startproc
 204 0150 4C8B17   		movq	(%rdi), %r10
 205 0153 49037AE8 		addq	-24(%r10), %rdi
 206 0157 E9A4FEFF 		jmp	.LTHUNK0
 206      FF
 207              		.cfi_endproc
 208              	.LFE1183:
 210              	.LCOLDE4:
 211              	.LHOTE4:
 212              		.section	.text.unlikely._ZN8UnitTest15MemoryOutStreamD0Ev,"axG",@progbits,_ZN8UnitTest15MemoryOutS
 213              		.align 2
 214              	.LCOLDB5:
 215              		.section	.text._ZN8UnitTest15MemoryOutStreamD0Ev,"axG",@progbits,_ZN8UnitTest15MemoryOutStreamD0Ev
 216              	.LHOTB5:
 217              		.align 2
 218              		.p2align 4,,15
 219              		.weak	_ZN8UnitTest15MemoryOutStreamD0Ev
 221              	_ZN8UnitTest15MemoryOutStreamD0Ev:
 222              	.LFB1125:
 223              		.cfi_startproc
 224 0000 55       		pushq	%rbp
 225              		.cfi_def_cfa_offset 16
 226              		.cfi_offset 6, -16
 227 0001 53       		pushq	%rbx
 228              		.cfi_def_cfa_offset 24
 229              		.cfi_offset 3, -24
 230 0002 4889FB   		movq	%rdi, %rbx
 231 0005 4883EC18 		subq	$24, %rsp
 232              		.cfi_def_cfa_offset 48
 233 0009 488B2D00 		movq	_ZNSs4_Rep20_S_empty_rep_storageE@GOTPCREL(%rip), %rbp
 233      000000
 234 0010 64488B04 		movq	%fs:40, %rax
 234      25280000 
 234      00
 235 0019 48894424 		movq	%rax, 8(%rsp)
 235      08
 236 001e 31C0     		xorl	%eax, %eax
 237 0020 488B0500 		movq	_ZTVN8UnitTest15MemoryOutStreamE@GOTPCREL(%rip), %rax
 237      000000
 238 0027 488D5018 		leaq	24(%rax), %rdx
 239 002b 4883C040 		addq	$64, %rax
 240 002f 48894760 		movq	%rax, 96(%rdi)
 241 0033 488B4758 		movq	88(%rdi), %rax
 242 0037 488917   		movq	%rdx, (%rdi)
 243 003a 488D78E8 		leaq	-24(%rax), %rdi
 244 003e 4839EF   		cmpq	%rbp, %rdi
 245 0041 0F858900 		jne	.L35
 245      0000
 246              	.L24:
 247 0047 488D0500 		leaq	24+_ZTCN8UnitTest15MemoryOutStreamE0_St19basic_ostringstreamIcSt11char_traitsIcESaIcEE(%rip),
 247      000000
 248 004e 488903   		movq	%rax, (%rbx)
 249 0051 488D0500 		leaq	64+_ZTCN8UnitTest15MemoryOutStreamE0_St19basic_ostringstreamIcSt11char_traitsIcESaIcEE(%rip),
 249      000000
 250 0058 48894360 		movq	%rax, 96(%rbx)
 251 005c 488B0500 		movq	_ZTVSt15basic_stringbufIcSt11char_traitsIcESaIcEE@GOTPCREL(%rip), %rax
 251      000000
 252 0063 4883C010 		addq	$16, %rax
 253 0067 48894308 		movq	%rax, 8(%rbx)
 254 006b 488B4350 		movq	80(%rbx), %rax
 255 006f 488D78E8 		leaq	-24(%rax), %rdi
 256 0073 4839EF   		cmpq	%rbp, %rdi
 257 0076 0F858400 		jne	.L36
 257      0000
 258              	.L29:
 259 007c 488B0500 		movq	_ZTVSt15basic_streambufIcSt11char_traitsIcEE@GOTPCREL(%rip), %rax
 259      000000
 260 0083 488D7B40 		leaq	64(%rbx), %rdi
 261 0087 4883C010 		addq	$16, %rax
 262 008b 48894308 		movq	%rax, 8(%rbx)
 263 008f E8000000 		call	_ZNSt6localeD1Ev@PLT
 263      00
 264 0094 488B0500 		movq	_ZTVSt9basic_iosIcSt11char_traitsIcEE@GOTPCREL(%rip), %rax
 264      000000
 265 009b 488D7B60 		leaq	96(%rbx), %rdi
 266 009f 4883C010 		addq	$16, %rax
 267 00a3 48894360 		movq	%rax, 96(%rbx)
 268 00a7 E8000000 		call	_ZNSt8ios_baseD2Ev@PLT
 268      00
 269 00ac 4889DF   		movq	%rbx, %rdi
 270 00af E8000000 		call	_ZdlPv@PLT
 270      00
 271 00b4 488B4424 		movq	8(%rsp), %rax
 271      08
 272 00b9 64483304 		xorq	%fs:40, %rax
 272      25280000 
 272      00
 273 00c2 0F858500 		jne	.L37
 273      0000
 274 00c8 4883C418 		addq	$24, %rsp
 275              		.cfi_remember_state
 276              		.cfi_def_cfa_offset 24
 277 00cc 5B       		popq	%rbx
 278              		.cfi_def_cfa_offset 16
 279 00cd 5D       		popq	%rbp
 280              		.cfi_def_cfa_offset 8
 281 00ce C3       		ret
 282 00cf 90       		.p2align 4,,10
 283              		.p2align 3
 284              	.L35:
 285              		.cfi_restore_state
 286 00d0 48833D00 		cmpq	$0, _ZL28__gthrw___pthread_key_createPjPFvPvE@GOTPCREL(%rip)
 286      00000000 
 287 00d8 7466     		je	.L25
 288 00da BAFFFFFF 		movl	$-1, %edx
 288      FF
 289 00df F00FC150 		lock xaddl	%edx, -8(%rax)
 289      F8
 290 00e4 89D0     		movl	%edx, %eax
 291              	.L26:
 292 00e6 85C0     		testl	%eax, %eax
 293 00e8 0F8F59FF 		jg	.L24
 293      FFFF
 294 00ee 488D7424 		leaq	7(%rsp), %rsi
 294      07
 295 00f3 E8000000 		call	_ZNSs4_Rep10_M_destroyERKSaIcE@PLT
 295      00
 296 00f8 E94AFFFF 		jmp	.L24
 296      FF
 297 00fd 0F1F00   		.p2align 4,,10
 298              		.p2align 3
 299              	.L36:
 300 0100 48833D00 		cmpq	$0, _ZL28__gthrw___pthread_key_createPjPFvPvE@GOTPCREL(%rip)
 300      00000000 
 301 0108 7426     		je	.L30
 302 010a BAFFFFFF 		movl	$-1, %edx
 302      FF
 303 010f F00FC150 		lock xaddl	%edx, -8(%rax)
 303      F8
 304 0114 89D0     		movl	%edx, %eax
 305              	.L31:
 306 0116 85C0     		testl	%eax, %eax
 307 0118 0F8F5EFF 		jg	.L29
 307      FFFF
 308 011e 488D7424 		leaq	7(%rsp), %rsi
 308      07
 309 0123 E8000000 		call	_ZNSs4_Rep10_M_destroyERKSaIcE@PLT
 309      00
 310 0128 E94FFFFF 		jmp	.L29
 310      FF
 311 012d 0F1F00   		.p2align 4,,10
 312              		.p2align 3
 313              	.L30:
 314 0130 8B50F8   		movl	-8(%rax), %edx
 315 0133 8D4AFF   		leal	-1(%rdx), %ecx
 316 0136 8948F8   		movl	%ecx, -8(%rax)
 317 0139 89D0     		movl	%edx, %eax
 318 013b EBD9     		jmp	.L31
 319 013d 0F1F00   		.p2align 4,,10
 320              		.p2align 3
 321              	.L25:
 322 0140 8B50F8   		movl	-8(%rax), %edx
 323 0143 8D4AFF   		leal	-1(%rdx), %ecx
 324 0146 8948F8   		movl	%ecx, -8(%rax)
 325 0149 89D0     		movl	%edx, %eax
 326 014b EB99     		jmp	.L26
 327              	.L37:
 328 014d E8000000 		call	__stack_chk_fail@PLT
 328      00
 329              		.cfi_endproc
 330              	.LFE1125:
 332              		.section	.text.unlikely._ZN8UnitTest15MemoryOutStreamD0Ev,"axG",@progbits,_ZN8UnitTest15MemoryOutS
 333              	.LCOLDE5:
 334              		.section	.text._ZN8UnitTest15MemoryOutStreamD0Ev,"axG",@progbits,_ZN8UnitTest15MemoryOutStreamD0Ev
 335              	.LHOTE5:
 336              		.set	.LTHUNK1,_ZN8UnitTest15MemoryOutStreamD0Ev
 337              	.LCOLDB6:
 338              	.LHOTB6:
 339 0152 0F1F4000 		.p2align 4,,15
 339      662E0F1F 
 339      84000000 
 339      0000
 340              		.weak	_ZTv0_n24_N8UnitTest15MemoryOutStreamD0Ev
 342              	_ZTv0_n24_N8UnitTest15MemoryOutStreamD0Ev:
 343              	.LFB1184:
 344              		.cfi_startproc
 345 0160 4C8B17   		movq	(%rdi), %r10
 346 0163 49037AE8 		addq	-24(%r10), %rdi
 347 0167 E994FEFF 		jmp	.LTHUNK1
 347      FF
 348              		.cfi_endproc
 349              	.LFE1184:
 351              	.LCOLDE6:
 352              	.LHOTE6:
 353              		.section	.text.unlikely
 354              		.align 2
 355              	.LCOLDB7:
 356              		.text
 357              	.LHOTB7:
 358              		.align 2
 359 0032 0F1F4000 		.p2align 4,,15
 359      662E0F1F 
 359      84000000 
 359      0000
 360              		.globl	_ZN8UnitTest4Test11GetTestListEv
 362              	_ZN8UnitTest4Test11GetTestListEv:
 363              	.LFB1084:
 364              		.cfi_startproc
 365              		.cfi_personality 0x9b,DW.ref.__gxx_personality_v0
 366              		.cfi_lsda 0x1b,.LLSDA1084
 367 0040 803D0000 		cmpb	$0, _ZGVZN8UnitTest4Test11GetTestListEvE6s_list(%rip)
 367      000000
 368 0047 740F     		je	.L50
 369 0049 488D0500 		leaq	_ZZN8UnitTest4Test11GetTestListEvE6s_list(%rip), %rax
 369      000000
 370 0050 C3       		ret
 371              		.p2align 4,,10
 372 0051 0F1F8000 		.p2align 3
 372      000000
 373              	.L50:
 374 0058 53       		pushq	%rbx
 375              		.cfi_def_cfa_offset 16
 376              		.cfi_offset 3, -16
 377 0059 488D3D00 		leaq	_ZGVZN8UnitTest4Test11GetTestListEvE6s_list(%rip), %rdi
 377      000000
 378 0060 E8000000 		call	__cxa_guard_acquire@PLT
 378      00
 379 0065 85C0     		testl	%eax, %eax
 380 0067 750F     		jne	.L51
 381 0069 488D0500 		leaq	_ZZN8UnitTest4Test11GetTestListEvE6s_list(%rip), %rax
 381      000000
 382 0070 5B       		popq	%rbx
 383              		.cfi_remember_state
 384              		.cfi_restore 3
 385              		.cfi_def_cfa_offset 8
 386 0071 C3       		ret
 387              		.p2align 4,,10
 388 0072 660F1F44 		.p2align 3
 388      0000
 389              	.L51:
 390              		.cfi_restore_state
 391 0078 488D3D00 		leaq	_ZZN8UnitTest4Test11GetTestListEvE6s_list(%rip), %rdi
 391      000000
 392              	.LEHB0:
 393 007f E8000000 		call	_ZN8UnitTest8TestListC1Ev@PLT
 393      00
 394              	.LEHE0:
 395 0084 488D3D00 		leaq	_ZGVZN8UnitTest4Test11GetTestListEvE6s_list(%rip), %rdi
 395      000000
 396 008b E8000000 		call	__cxa_guard_release@PLT
 396      00
 397 0090 488D0500 		leaq	_ZZN8UnitTest4Test11GetTestListEvE6s_list(%rip), %rax
 397      000000
 398 0097 5B       		popq	%rbx
 399              		.cfi_remember_state
 400              		.cfi_restore 3
 401              		.cfi_def_cfa_offset 8
 402 0098 C3       		ret
 403              	.L43:
 404              		.cfi_restore_state
 405 0099 488D3D00 		leaq	_ZGVZN8UnitTest4Test11GetTestListEvE6s_list(%rip), %rdi
 405      000000
 406 00a0 4889C3   		movq	%rax, %rbx
 407 00a3 E8000000 		call	__cxa_guard_abort@PLT
 407      00
 408 00a8 4889DF   		movq	%rbx, %rdi
 409              	.LEHB1:
 410 00ab E8000000 		call	_Unwind_Resume@PLT
 410      00
 411              	.LEHE1:
 412              		.cfi_endproc
 413              	.LFE1084:
 414              		.globl	__gxx_personality_v0
 415              		.section	.gcc_except_table,"a",@progbits
 416              	.LLSDA1084:
 417 0000 FF       		.byte	0xff
 418 0001 FF       		.byte	0xff
 419 0002 01       		.byte	0x1
 420 0003 08       		.uleb128 .LLSDACSE1084-.LLSDACSB1084
 421              	.LLSDACSB1084:
 422 0004 3F       		.uleb128 .LEHB0-.LFB1084
 423 0005 05       		.uleb128 .LEHE0-.LEHB0
 424 0006 59       		.uleb128 .L43-.LFB1084
 425 0007 00       		.uleb128 0
 426 0008 6B       		.uleb128 .LEHB1-.LFB1084
 427 0009 05       		.uleb128 .LEHE1-.LEHB1
 428 000a 00       		.uleb128 0
 429 000b 00       		.uleb128 0
 430              	.LLSDACSE1084:
 431              		.text
 433              		.section	.text.unlikely
 434              	.LCOLDE7:
 435              		.text
 436              	.LHOTE7:
 437              		.section	.text.unlikely
 438              		.align 2
 439              	.LCOLDB8:
 440              		.text
 441              	.LHOTB8:
 442              		.align 2
 443              		.p2align 4,,15
 444              		.globl	_ZN8UnitTest4TestC2EPKcS2_S2_i
 446              	_ZN8UnitTest4TestC2EPKcS2_S2_i:
 447              	.LFB1086:
 448              		.cfi_startproc
 449 00b0 488B0500 		movq	_ZTVN8UnitTest4TestE@GOTPCREL(%rip), %rax
 449      000000
 450 00b7 53       		pushq	%rbx
 451              		.cfi_def_cfa_offset 16
 452              		.cfi_offset 3, -16
 453 00b8 4889FB   		movq	%rdi, %rbx
 454 00bb 488D7F08 		leaq	8(%rdi), %rdi
 455 00bf 4883C010 		addq	$16, %rax
 456 00c3 488947F8 		movq	%rax, -8(%rdi)
 457 00c7 E8000000 		call	_ZN8UnitTest11TestDetailsC1EPKcS2_S2_i@PLT
 457      00
 458 00cc 48C74328 		movq	$0, 40(%rbx)
 458      00000000 
 459 00d4 C6433000 		movb	$0, 48(%rbx)
 460 00d8 5B       		popq	%rbx
 461              		.cfi_def_cfa_offset 8
 462 00d9 C3       		ret
 463              		.cfi_endproc
 464              	.LFE1086:
 466              		.section	.text.unlikely
 467              	.LCOLDE8:
 468              		.text
 469              	.LHOTE8:
 470              		.globl	_ZN8UnitTest4TestC1EPKcS2_S2_i
 471              		.set	_ZN8UnitTest4TestC1EPKcS2_S2_i,_ZN8UnitTest4TestC2EPKcS2_S2_i
 472              		.section	.rodata.str1.1,"aMS",@progbits,1
 473              	.LC9:
 474 0000 556E6861 		.string	"Unhandled system exception"
 474      6E646C65 
 474      64207379 
 474      7374656D 
 474      20657863 
 475              	.LC10:
 476 001b 556E6861 		.string	"Unhandled exception: "
 476      6E646C65 
 476      64206578 
 476      63657074 
 476      696F6E3A 
 477              	.LC11:
 478 0031 556E6861 		.string	"Unhandled exception: Crash!"
 478      6E646C65 
 478      64206578 
 478      63657074 
 478      696F6E3A 
 479              		.section	.text.unlikely._ZN8UnitTest11ExecuteTestINS_4TestEEEvRT_RKNS_11TestDetailsE,"axG",@progbi
 480              	.LCOLDB12:
 481              		.section	.text._ZN8UnitTest11ExecuteTestINS_4TestEEEvRT_RKNS_11TestDetailsE,"axG",@progbits,_ZN8Un
 482              	.LHOTB12:
 483              		.p2align 4,,15
 484              		.weak	_ZN8UnitTest11ExecuteTestINS_4TestEEEvRT_RKNS_11TestDetailsE
 486              	_ZN8UnitTest11ExecuteTestINS_4TestEEEvRT_RKNS_11TestDetailsE:
 487              	.LFB1121:
 488              		.cfi_startproc
 489              		.cfi_personality 0x9b,DW.ref.__gxx_personality_v0
 490              		.cfi_lsda 0x1b,.LLSDA1121
 491 0000 4154     		pushq	%r12
 492              		.cfi_def_cfa_offset 16
 493              		.cfi_offset 12, -16
 494 0002 55       		pushq	%rbp
 495              		.cfi_def_cfa_offset 24
 496              		.cfi_offset 6, -24
 497 0003 53       		pushq	%rbx
 498              		.cfi_def_cfa_offset 32
 499              		.cfi_offset 3, -32
 500 0004 4889F3   		movq	%rsi, %rbx
 501 0007 4881EC20 		subq	$1568, %rsp
 501      060000
 502              		.cfi_def_cfa_offset 1600
 503 000e 48893C24 		movq	%rdi, (%rsp)
 504 0012 48897424 		movq	%rsi, 8(%rsp)
 504      08
 505 0017 64488B04 		movq	%fs:40, %rax
 505      25280000 
 505      00
 506 0020 48898424 		movq	%rax, 1560(%rsp)
 506      18060000 
 507 0028 31C0     		xorl	%eax, %eax
 508              	.LEHB2:
 509 002a E8000000 		call	_ZN8UnitTest11CurrentTest7DetailsEv@PLT
 509      00
 510              	.LEHE2:
 511 002f 488DBC24 		leaq	432(%rsp), %rdi
 511      B0010000 
 512 0037 488918   		movq	%rbx, (%rax)
 513              	.LEHB3:
 514 003a E8000000 		call	_ZN8UnitTest16SignalTranslatorC1Ev@PLT
 514      00
 515              	.LEHE3:
 516 003f 488B0500 		movq	_ZN8UnitTest16SignalTranslator12s_jumpTargetE@GOTPCREL(%rip), %rax
 516      000000
 517 0046 BE010000 		movl	$1, %esi
 517      00
 518 004b 488B38   		movq	(%rax), %rdi
 519 004e E8000000 		call	__sigsetjmp@PLT
 519      00
 520 0053 85C0     		testl	%eax, %eax
 521 0055 7429     		je	.L89
 522 0057 BF080000 		movl	$8, %edi
 522      00
 523 005c E8000000 		call	__cxa_allocate_exception@PLT
 523      00
 524 0061 488D1500 		leaq	.LC9(%rip), %rdx
 524      000000
 525 0068 488B3500 		movq	_ZTIPKc@GOTPCREL(%rip), %rsi
 525      000000
 526 006f 4889C7   		movq	%rax, %rdi
 527 0072 488910   		movq	%rdx, (%rax)
 528 0075 31D2     		xorl	%edx, %edx
 529              	.LEHB4:
 530 0077 E8000000 		call	__cxa_throw@PLT
 530      00
 531              	.LEHE4:
 532 007c 0F1F4000 		.p2align 4,,10
 533              		.p2align 3
 534              	.L89:
 535 0080 488B0424 		movq	(%rsp), %rax
 536 0084 488D1500 		leaq	_ZNK8UnitTest4Test7RunImplEv.localalias.7(%rip), %rdx
 536      000000
 537 008b 488B00   		movq	(%rax), %rax
 538 008e 488B4010 		movq	16(%rax), %rax
 539 0092 4839D0   		cmpq	%rdx, %rax
 540 0095 7531     		jne	.L57
 541              	.L59:
 542 0097 488DBC24 		leaq	432(%rsp), %rdi
 542      B0010000 
 543              	.LEHB5:
 544 009f E8000000 		call	_ZN8UnitTest16SignalTranslatorD1Ev@PLT
 544      00
 545              	.LEHE5:
 546              	.L54:
 547 00a4 488B8424 		movq	1560(%rsp), %rax
 547      18060000 
 548 00ac 64483304 		xorq	%fs:40, %rax
 548      25280000 
 548      00
 549 00b5 7521     		jne	.L99
 550 00b7 4881C420 		addq	$1568, %rsp
 550      060000
 551              		.cfi_remember_state
 552              		.cfi_def_cfa_offset 32
 553 00be 5B       		popq	%rbx
 554              		.cfi_def_cfa_offset 24
 555 00bf 5D       		popq	%rbp
 556              		.cfi_def_cfa_offset 16
 557 00c0 415C     		popq	%r12
 558              		.cfi_def_cfa_offset 8
 559 00c2 C3       		ret
 560              		.p2align 4,,10
 561 00c3 0F1F4400 		.p2align 3
 561      00
 562              	.L57:
 563              		.cfi_restore_state
 564 00c8 488B3C24 		movq	(%rsp), %rdi
 565              	.LEHB6:
 566 00cc FFD0     		call	*%rax
 567              	.LEHE6:
 568 00ce EBC7     		jmp	.L59
 569              	.L82:
 570 00d0 4889C3   		movq	%rax, %rbx
 571 00d3 4889D5   		movq	%rdx, %rbp
 572 00d6 EB0A     		jmp	.L60
 573              	.L99:
 574 00d8 E8000000 		call	__stack_chk_fail@PLT
 574      00
 575              	.L81:
 576 00dd 4889C7   		movq	%rax, %rdi
 577 00e0 EB13     		jmp	.L61
 578              	.L60:
 579 00e2 488DBC24 		leaq	432(%rsp), %rdi
 579      B0010000 
 580 00ea E8000000 		call	_ZN8UnitTest16SignalTranslatorD1Ev@PLT
 580      00
 581 00ef 4889DF   		movq	%rbx, %rdi
 582 00f2 4889EA   		movq	%rbp, %rdx
 583              	.L61:
 584 00f5 4883FA01 		cmpq	$1, %rdx
 585 00f9 0F84D701 		je	.L63
 585      0000
 586 00ff 4883FA02 		cmpq	$2, %rdx
 587 0103 0F85BC02 		jne	.L100
 587      0000
 588 0109 488D9C24 		leaq	160(%rsp), %rbx
 588      A0000000 
 589 0111 E8000000 		call	__cxa_begin_catch@PLT
 589      00
 590 0116 4889DF   		movq	%rbx, %rdi
 591 0119 4889C5   		movq	%rax, %rbp
 592 011c E8000000 		call	_ZNSt8ios_baseC2Ev@PLT
 592      00
 593 0121 488D0500 		leaq	24+_ZTCN8UnitTest15MemoryOutStreamE0_So(%rip), %rax
 593      000000
 594 0128 31F6     		xorl	%esi, %esi
 595 012a 4889DF   		movq	%rbx, %rdi
 596 012d 48C78424 		movq	$0, 376(%rsp)
 596      78010000 
 596      00000000 
 597 0139 C6842480 		movb	$0, 384(%rsp)
 597      01000000 
 598 0141 48894424 		movq	%rax, 64(%rsp)
 598      40
 599 0146 488D0500 		leaq	64+_ZTCN8UnitTest15MemoryOutStreamE0_So(%rip), %rax
 599      000000
 600 014d C6842481 		movb	$0, 385(%rsp)
 600      01000000 
 601 0155 48C78424 		movq	$0, 392(%rsp)
 601      88010000 
 601      00000000 
 602 0161 48C78424 		movq	$0, 400(%rsp)
 602      90010000 
 602      00000000 
 603 016d 48C78424 		movq	$0, 408(%rsp)
 603      98010000 
 603      00000000 
 604 0179 48C78424 		movq	$0, 416(%rsp)
 604      A0010000 
 604      00000000 
 605 0185 48898424 		movq	%rax, 160(%rsp)
 605      A0000000 
 606              	.LEHB7:
 607 018d E8000000 		call	_ZNSt9basic_iosIcSt11char_traitsIcEE4initEPSt15basic_streambufIcS1_E@PLT
 607      00
 608              	.LEHE7:
 609 0192 488D0500 		leaq	24+_ZTCN8UnitTest15MemoryOutStreamE0_St19basic_ostringstreamIcSt11char_traitsIcESaIcEE(%rip),
 609      000000
 610 0199 488DBC24 		leaq	128(%rsp), %rdi
 610      80000000 
 611 01a1 48C74424 		movq	$0, 80(%rsp)
 611      50000000 
 611      00
 612 01aa 48C74424 		movq	$0, 88(%rsp)
 612      58000000 
 612      00
 613 01b3 48C74424 		movq	$0, 96(%rsp)
 613      60000000 
 613      00
 614 01bc 488D5C24 		leaq	64(%rsp), %rbx
 614      40
 615 01c1 48894424 		movq	%rax, 64(%rsp)
 615      40
 616 01c6 488D0500 		leaq	64+_ZTCN8UnitTest15MemoryOutStreamE0_St19basic_ostringstreamIcSt11char_traitsIcESaIcEE(%rip),
 616      000000
 617 01cd 48C74424 		movq	$0, 104(%rsp)
 617      68000000 
 617      00
 618 01d6 48C74424 		movq	$0, 112(%rsp)
 618      70000000 
 618      00
 619 01df 48C74424 		movq	$0, 120(%rsp)
 619      78000000 
 619      00
 620 01e8 48898424 		movq	%rax, 160(%rsp)
 620      A0000000 
 621 01f0 488B0500 		movq	_ZTVSt15basic_streambufIcSt11char_traitsIcEE@GOTPCREL(%rip), %rax
 621      000000
 622 01f7 4883C010 		addq	$16, %rax
 623 01fb 48894424 		movq	%rax, 72(%rsp)
 623      48
 624 0200 E8000000 		call	_ZNSt6localeC1Ev@PLT
 624      00
 625 0205 488B0500 		movq	_ZTVSt15basic_stringbufIcSt11char_traitsIcESaIcEE@GOTPCREL(%rip), %rax
 625      000000
 626 020c 488D7308 		leaq	8(%rbx), %rsi
 627 0210 C7842488 		movl	$16, 136(%rsp)
 627      00000010 
 627      000000
 628 021b 4883C010 		addq	$16, %rax
 629 021f 48894424 		movq	%rax, 72(%rsp)
 629      48
 630 0224 488B0500 		movq	_ZNSs4_Rep20_S_empty_rep_storageE@GOTPCREL(%rip), %rax
 630      000000
 631 022b 4883C018 		addq	$24, %rax
 632 022f 48898424 		movq	%rax, 144(%rsp)
 632      90000000 
 633 0237 488B4424 		movq	64(%rsp), %rax
 633      40
 634 023c 480358E8 		addq	-24(%rax), %rbx
 635 0240 4889DF   		movq	%rbx, %rdi
 636              	.LEHB8:
 637 0243 E8000000 		call	_ZNSt9basic_iosIcSt11char_traitsIcEE4initEPSt15basic_streambufIcS1_E@PLT
 637      00
 638              	.LEHE8:
 639 0248 488B0500 		movq	_ZTVN8UnitTest15MemoryOutStreamE@GOTPCREL(%rip), %rax
 639      000000
 640 024f 4889EF   		movq	%rbp, %rdi
 641 0252 488D5018 		leaq	24(%rax), %rdx
 642 0256 4883C040 		addq	$64, %rax
 643 025a 48898424 		movq	%rax, 160(%rsp)
 643      A0000000 
 644 0262 488B0500 		movq	_ZNSs4_Rep20_S_empty_rep_storageE@GOTPCREL(%rip), %rax
 644      000000
 645 0269 48895424 		movq	%rdx, 64(%rsp)
 645      40
 646 026e 4883C018 		addq	$24, %rax
 647 0272 48898424 		movq	%rax, 152(%rsp)
 647      98000000 
 648 027a 488B4500 		movq	0(%rbp), %rax
 649 027e FF5010   		call	*16(%rax)
 650 0281 488D7C24 		leaq	64(%rsp), %rdi
 650      40
 651 0286 488D3500 		leaq	.LC10(%rip), %rsi
 651      000000
 652 028d 4889C3   		movq	%rax, %rbx
 653              	.LEHB9:
 654 0290 E8000000 		call	_ZStlsISt11char_traitsIcEERSt13basic_ostreamIcT_ES5_PKc@PLT
 654      00
 655 0295 4889C7   		movq	%rax, %rdi
 656 0298 4889DE   		movq	%rbx, %rsi
 657 029b E8000000 		call	_ZStlsISt11char_traitsIcEERSt13basic_ostreamIcT_ES5_PKc@PLT
 657      00
 658 02a0 488D7C24 		leaq	64(%rsp), %rdi
 658      40
 659 02a5 E8000000 		call	_ZNK8UnitTest15MemoryOutStream7GetTextEv@PLT
 659      00
 660 02aa 4889C3   		movq	%rax, %rbx
 661 02ad E8000000 		call	_ZN8UnitTest11CurrentTest7ResultsEv@PLT
 661      00
 662 02b2 488B7424 		movq	8(%rsp), %rsi
 662      08
 663 02b7 488B38   		movq	(%rax), %rdi
 664 02ba 4889DA   		movq	%rbx, %rdx
 665 02bd E8000000 		call	_ZN8UnitTest11TestResults13OnTestFailureERKNS_11TestDetailsEPKc@PLT
 665      00
 666              	.LEHE9:
 667 02c2 488D7C24 		leaq	64(%rsp), %rdi
 667      40
 668              	.LEHB10:
 669 02c7 E8000000 		call	_ZN8UnitTest15MemoryOutStreamD1Ev@PLT
 669      00
 670              	.LEHE10:
 671              	.L94:
 672 02cc E8000000 		call	__cxa_end_catch@PLT
 672      00
 673 02d1 E9CEFDFF 		jmp	.L54
 673      FF
 674              	.L63:
 675 02d6 E8000000 		call	__cxa_begin_catch@PLT
 675      00
 676 02db 4889C3   		movq	%rax, %rbx
 677 02de 488B00   		movq	(%rax), %rax
 678 02e1 4889DF   		movq	%rbx, %rdi
 679 02e4 FF5010   		call	*16(%rax)
 680 02e7 4889DF   		movq	%rbx, %rdi
 681 02ea 4889C5   		movq	%rax, %rbp
 682              	.LEHB11:
 683 02ed E8000000 		call	_ZNK8UnitTest15AssertException10LineNumberEv@PLT
 683      00
 684 02f2 4889DF   		movq	%rbx, %rdi
 685 02f5 4189C4   		movl	%eax, %r12d
 686 02f8 E8000000 		call	_ZNK8UnitTest15AssertException8FilenameEv@PLT
 686      00
 687 02fd 4889C1   		movq	%rax, %rcx
 688 0300 488B4424 		movq	8(%rsp), %rax
 688      08
 689 0305 488D7C24 		leaq	32(%rsp), %rdi
 689      20
 690 030a 4589E0   		movl	%r12d, %r8d
 691 030d 488B7008 		movq	8(%rax), %rsi
 692 0311 488B10   		movq	(%rax), %rdx
 693 0314 E8000000 		call	_ZN8UnitTest11TestDetailsC1EPKcS2_S2_i@PLT
 693      00
 694 0319 E8000000 		call	_ZN8UnitTest11CurrentTest7ResultsEv@PLT
 694      00
 695 031e 488B38   		movq	(%rax), %rdi
 696 0321 488D7424 		leaq	32(%rsp), %rsi
 696      20
 697 0326 4889EA   		movq	%rbp, %rdx
 698 0329 E8000000 		call	_ZN8UnitTest11TestResults13OnTestFailureERKNS_11TestDetailsEPKc@PLT
 698      00
 699              	.LEHE11:
 700 032e EB9C     		jmp	.L94
 701              	.L84:
 702              	.L95:
 703 0330 4889C3   		movq	%rax, %rbx
 704 0333 EB68     		jmp	.L67
 705              	.L83:
 706 0335 EBF9     		jmp	.L95
 707              	.L71:
 708 0337 488B0500 		movq	_ZTVSt15basic_stringbufIcSt11char_traitsIcESaIcEE@GOTPCREL(%rip), %rax
 708      000000
 709 033e 488B9424 		movq	144(%rsp), %rdx
 709      90000000 
 710 0346 4883C010 		addq	$16, %rax
 711 034a 488D7AE8 		leaq	-24(%rdx), %rdi
 712 034e 483B3D00 		cmpq	_ZNSs4_Rep20_S_empty_rep_storageE@GOTPCREL(%rip), %rdi
 712      000000
 713 0355 48894424 		movq	%rax, 72(%rsp)
 713      48
 714 035a 0F858D00 		jne	.L72
 714      0000
 715              	.L76:
 716 0360 488B0500 		movq	_ZTVSt15basic_streambufIcSt11char_traitsIcEE@GOTPCREL(%rip), %rax
 716      000000
 717 0367 488DBC24 		leaq	128(%rsp), %rdi
 717      80000000 
 718 036f 4883C010 		addq	$16, %rax
 719 0373 48894424 		movq	%rax, 72(%rsp)
 719      48
 720 0378 E8000000 		call	_ZNSt6localeD1Ev@PLT
 720      00
 721              	.L77:
 722 037d 488B1500 		movq	_ZTVSt9basic_iosIcSt11char_traitsIcEE@GOTPCREL(%rip), %rdx
 722      000000
 723 0384 488DBC24 		leaq	160(%rsp), %rdi
 723      A0000000 
 724 038c 4883C210 		addq	$16, %rdx
 725 0390 48899424 		movq	%rdx, 160(%rsp)
 725      A0000000 
 726 0398 E8000000 		call	_ZNSt8ios_baseD2Ev@PLT
 726      00
 727              	.L67:
 728 039d E8000000 		call	__cxa_end_catch@PLT
 728      00
 729 03a2 4889DF   		movq	%rbx, %rdi
 730              	.LEHB12:
 731 03a5 E8000000 		call	_Unwind_Resume@PLT
 731      00
 732              	.LEHE12:
 733              	.L85:
 734 03aa 4889C3   		movq	%rax, %rbx
 735 03ad EB05     		jmp	.L66
 736              	.L88:
 737 03af 4889C3   		movq	%rax, %rbx
 738 03b2 EB83     		jmp	.L71
 739              	.L66:
 740 03b4 488D7C24 		leaq	64(%rsp), %rdi
 740      40
 741 03b9 E8000000 		call	_ZN8UnitTest15MemoryOutStreamD1Ev@PLT
 741      00
 742 03be EBDD     		jmp	.L67
 743              	.L87:
 744 03c0 4889C3   		movq	%rax, %rbx
 745 03c3 EBB8     		jmp	.L77
 746              	.L100:
 747 03c5 E8000000 		call	__cxa_begin_catch@PLT
 747      00
 748              	.LEHB13:
 749 03ca E8000000 		call	_ZN8UnitTest11CurrentTest7ResultsEv@PLT
 749      00
 750 03cf 488B7424 		movq	8(%rsp), %rsi
 750      08
 751 03d4 488B38   		movq	(%rax), %rdi
 752 03d7 488D1500 		leaq	.LC11(%rip), %rdx
 752      000000
 753 03de E8000000 		call	_ZN8UnitTest11TestResults13OnTestFailureERKNS_11TestDetailsEPKc@PLT
 753      00
 754              	.LEHE13:
 755              	.LEHB14:
 756 03e3 E8000000 		call	__cxa_end_catch@PLT
 756      00
 757              	.LEHE14:
 758 03e8 E9B7FCFF 		jmp	.L54
 758      FF
 759              	.L72:
 760 03ed 48833D00 		cmpq	$0, _ZL28__gthrw___pthread_key_createPjPFvPvE@GOTPCREL(%rip)
 760      00000000 
 761 03f5 488D4F10 		leaq	16(%rdi), %rcx
 762 03f9 7423     		je	.L74
 763 03fb 83C8FF   		orl	$-1, %eax
 764 03fe F00FC101 		lock xaddl	%eax, (%rcx)
 765              	.L75:
 766 0402 85C0     		testl	%eax, %eax
 767 0404 0F8F56FF 		jg	.L76
 767      FFFF
 768 040a 488D7424 		leaq	31(%rsp), %rsi
 768      1F
 769 040f E8000000 		call	_ZNSs4_Rep10_M_destroyERKSaIcE@PLT
 769      00
 770 0414 E947FFFF 		jmp	.L76
 770      FF
 771              	.L86:
 772 0419 4889C3   		movq	%rax, %rbx
 773 041c EB0B     		jmp	.L68
 774              	.L74:
 775 041e 8B42F8   		movl	-8(%rdx), %eax
 776 0421 8D48FF   		leal	-1(%rax), %ecx
 777 0424 894AF8   		movl	%ecx, -8(%rdx)
 778 0427 EBD9     		jmp	.L75
 779              	.L68:
 780 0429 E8000000 		call	__cxa_end_catch@PLT
 780      00
 781 042e 4889DF   		movq	%rbx, %rdi
 782              	.LEHB15:
 783 0431 E8000000 		call	_Unwind_Resume@PLT
 783      00
 784              	.LEHE15:
 785              		.cfi_endproc
 786              	.LFE1121:
 787              		.section	.gcc_except_table
 788              		.align 4
 789              	.LLSDA1121:
 790 000c FF       		.byte	0xff
 791 000d 9B       		.byte	0x9b
 792 000e 65       		.uleb128 .LLSDATT1121-.LLSDATTD1121
 793              	.LLSDATTD1121:
 794 000f 01       		.byte	0x1
 795 0010 4D       		.uleb128 .LLSDACSE1121-.LLSDACSB1121
 796              	.LLSDACSB1121:
 797 0011 2A       		.uleb128 .LEHB2-.LFB1121
 798 0012 05       		.uleb128 .LEHE2-.LEHB2
 799 0013 00       		.uleb128 0
 800 0014 00       		.uleb128 0
 801 0015 3A       		.uleb128 .LEHB3-.LFB1121
 802 0016 05       		.uleb128 .LEHE3-.LEHB3
 803 0017 DD01     		.uleb128 .L81-.LFB1121
 804 0019 05       		.uleb128 0x5
 805 001a 77       		.uleb128 .LEHB4-.LFB1121
 806 001b 05       		.uleb128 .LEHE4-.LEHB4
 807 001c D001     		.uleb128 .L82-.LFB1121
 808 001e 07       		.uleb128 0x7
 809 001f 9F01     		.uleb128 .LEHB5-.LFB1121
 810 0021 05       		.uleb128 .LEHE5-.LEHB5
 811 0022 DD01     		.uleb128 .L81-.LFB1121
 812 0024 05       		.uleb128 0x5
 813 0025 CC01     		.uleb128 .LEHB6-.LFB1121
 814 0027 02       		.uleb128 .LEHE6-.LEHB6
 815 0028 D001     		.uleb128 .L82-.LFB1121
 816 002a 07       		.uleb128 0x7
 817 002b 8D03     		.uleb128 .LEHB7-.LFB1121
 818 002d 05       		.uleb128 .LEHE7-.LEHB7
 819 002e C007     		.uleb128 .L87-.LFB1121
 820 0030 00       		.uleb128 0
 821 0031 C304     		.uleb128 .LEHB8-.LFB1121
 822 0033 05       		.uleb128 .LEHE8-.LEHB8
 823 0034 AF07     		.uleb128 .L88-.LFB1121
 824 0036 00       		.uleb128 0
 825 0037 9005     		.uleb128 .LEHB9-.LFB1121
 826 0039 32       		.uleb128 .LEHE9-.LEHB9
 827 003a AA07     		.uleb128 .L85-.LFB1121
 828 003c 00       		.uleb128 0
 829 003d C705     		.uleb128 .LEHB10-.LFB1121
 830 003f 05       		.uleb128 .LEHE10-.LEHB10
 831 0040 B006     		.uleb128 .L84-.LFB1121
 832 0042 00       		.uleb128 0
 833 0043 ED05     		.uleb128 .LEHB11-.LFB1121
 834 0045 41       		.uleb128 .LEHE11-.LEHB11
 835 0046 B506     		.uleb128 .L83-.LFB1121
 836 0048 00       		.uleb128 0
 837 0049 A507     		.uleb128 .LEHB12-.LFB1121
 838 004b 05       		.uleb128 .LEHE12-.LEHB12
 839 004c 00       		.uleb128 0
 840 004d 00       		.uleb128 0
 841 004e CA07     		.uleb128 .LEHB13-.LFB1121
 842 0050 19       		.uleb128 .LEHE13-.LEHB13
 843 0051 9908     		.uleb128 .L86-.LFB1121
 844 0053 00       		.uleb128 0
 845 0054 E307     		.uleb128 .LEHB14-.LFB1121
 846 0056 05       		.uleb128 .LEHE14-.LEHB14
 847 0057 00       		.uleb128 0
 848 0058 00       		.uleb128 0
 849 0059 B108     		.uleb128 .LEHB15-.LFB1121
 850 005b 05       		.uleb128 .LEHE15-.LEHB15
 851 005c 00       		.uleb128 0
 852 005d 00       		.uleb128 0
 853              	.LLSDACSE1121:
 854 005e 03       		.byte	0x3
 855 005f 00       		.byte	0
 856 0060 02       		.byte	0x2
 857 0061 7D       		.byte	0x7d
 858 0062 01       		.byte	0x1
 859 0063 7D       		.byte	0x7d
 860 0064 00       		.byte	0
 861 0065 7D       		.byte	0x7d
 862 0066 0000     		.align 4
 863 0068 00000000 		.long	0
 864              	
 865 006c 00000000 		.long	DW.ref._ZTISt9exception-.
 866 0070 00000000 		.long	DW.ref._ZTIN8UnitTest15AssertExceptionE-.
 867              	.LLSDATT1121:
 868              		.section	.text._ZN8UnitTest11ExecuteTestINS_4TestEEEvRT_RKNS_11TestDetailsE,"axG",@progbits,_ZN8Un
 870              		.section	.text.unlikely._ZN8UnitTest11ExecuteTestINS_4TestEEEvRT_RKNS_11TestDetailsE,"axG",@progbi
 871              	.LCOLDE12:
 872              		.section	.text._ZN8UnitTest11ExecuteTestINS_4TestEEEvRT_RKNS_11TestDetailsE,"axG",@progbits,_ZN8Un
 873              	.LHOTE12:
 874              		.section	.text.unlikely
 875              		.align 2
 876              	.LCOLDB13:
 877              		.text
 878              	.LHOTB13:
 879              		.align 2
 880 00da 660F1F44 		.p2align 4,,15
 880      0000
 881              		.globl	_ZN8UnitTest4Test3RunEv
 883              	_ZN8UnitTest4Test3RunEv:
 884              	.LFB1092:
 885              		.cfi_startproc
 886 00e0 488D7708 		leaq	8(%rdi), %rsi
 887 00e4 E9000000 		jmp	_ZN8UnitTest11ExecuteTestINS_4TestEEEvRT_RKNS_11TestDetailsE@PLT
 887      00
 888              		.cfi_endproc
 889              	.LFE1092:
 891              		.section	.text.unlikely
 892              	.LCOLDE13:
 893              		.text
 894              	.LHOTE13:
 895              		.local	_ZZN8UnitTest4Test11GetTestListEvE6s_list
 896              		.comm	_ZZN8UnitTest4Test11GetTestListEvE6s_list,16,16
 897              		.weak	_ZTSN8UnitTest4TestE
 898              		.section	.rodata._ZTSN8UnitTest4TestE,"aG",@progbits,_ZTSN8UnitTest4TestE,comdat
 899              		.align 16
 902              	_ZTSN8UnitTest4TestE:
 903 0000 4E38556E 		.string	"N8UnitTest4TestE"
 903      69745465 
 903      73743454 
 903      65737445 
 903      00
 904              		.weak	_ZTIN8UnitTest4TestE
 905              		.section	.data.rel.ro._ZTIN8UnitTest4TestE,"awG",@progbits,_ZTIN8UnitTest4TestE,comdat
 906              		.align 16
 909              	_ZTIN8UnitTest4TestE:
 910 0000 00000000 		.quad	_ZTVN10__cxxabiv117__class_type_infoE+16
 910      00000000 
 911 0008 00000000 		.quad	_ZTSN8UnitTest4TestE
 911      00000000 
 912              		.weak	_ZTIN8UnitTest15MemoryOutStreamE
 913              		.section	.data.rel.ro._ZTIN8UnitTest15MemoryOutStreamE,"awG",@progbits,_ZTIN8UnitTest15MemoryOutSt
 914              		.align 16
 917              	_ZTIN8UnitTest15MemoryOutStreamE:
 918 0000 00000000 		.quad	_ZTVN10__cxxabiv120__si_class_type_infoE+16
 918      00000000 
 919 0008 00000000 		.quad	_ZTSN8UnitTest15MemoryOutStreamE
 919      00000000 
 920 0010 00000000 		.quad	_ZTISt19basic_ostringstreamIcSt11char_traitsIcESaIcEE
 920      00000000 
 921              		.weak	_ZTSN8UnitTest15MemoryOutStreamE
 922              		.section	.rodata._ZTSN8UnitTest15MemoryOutStreamE,"aG",@progbits,_ZTSN8UnitTest15MemoryOutStreamE,
 923              		.align 16
 926              	_ZTSN8UnitTest15MemoryOutStreamE:
 927 0000 4E38556E 		.string	"N8UnitTest15MemoryOutStreamE"
 927      69745465 
 927      73743135 
 927      4D656D6F 
 927      72794F75 
 928              		.hidden	_ZTCN8UnitTest15MemoryOutStreamE0_So
 929              		.weak	_ZTCN8UnitTest15MemoryOutStreamE0_So
 930              		.section	.data.rel.ro._ZTCN8UnitTest15MemoryOutStreamE0_So,"awG",@progbits,_ZTVN8UnitTest15MemoryO
 931              		.align 64
 934              	_ZTCN8UnitTest15MemoryOutStreamE0_So:
 935 0000 60000000 		.quad	96
 935      00000000 
 936 0008 00000000 		.quad	0
 936      00000000 
 937 0010 00000000 		.quad	_ZTISo
 937      00000000 
 938 0018 00000000 		.quad	0
 938      00000000 
 939 0020 00000000 		.quad	0
 939      00000000 
 940 0028 A0FFFFFF 		.quad	-96
 940      FFFFFFFF 
 941 0030 A0FFFFFF 		.quad	-96
 941      FFFFFFFF 
 942 0038 00000000 		.quad	_ZTISo
 942      00000000 
 943 0040 00000000 		.quad	0
 943      00000000 
 944 0048 00000000 		.quad	0
 944      00000000 
 945              		.hidden	_ZTCN8UnitTest15MemoryOutStreamE0_St19basic_ostringstreamIcSt11char_traitsIcESaIcEE
 946              		.weak	_ZTCN8UnitTest15MemoryOutStreamE0_St19basic_ostringstreamIcSt11char_traitsIcESaIcEE
 947              		.section	.data.rel.ro._ZTCN8UnitTest15MemoryOutStreamE0_St19basic_ostringstreamIcSt11char_traitsIc
 948              		.align 64
 951              	_ZTCN8UnitTest15MemoryOutStreamE0_St19basic_ostringstreamIcSt11char_traitsIcESaIcEE:
 952 0000 60000000 		.quad	96
 952      00000000 
 953 0008 00000000 		.quad	0
 953      00000000 
 954 0010 00000000 		.quad	_ZTISt19basic_ostringstreamIcSt11char_traitsIcESaIcEE
 954      00000000 
 955 0018 00000000 		.quad	0
 955      00000000 
 956 0020 00000000 		.quad	0
 956      00000000 
 957 0028 A0FFFFFF 		.quad	-96
 957      FFFFFFFF 
 958 0030 A0FFFFFF 		.quad	-96
 958      FFFFFFFF 
 959 0038 00000000 		.quad	_ZTISt19basic_ostringstreamIcSt11char_traitsIcESaIcEE
 959      00000000 
 960 0040 00000000 		.quad	0
 960      00000000 
 961 0048 00000000 		.quad	0
 961      00000000 
 962              		.weak	_ZTTN8UnitTest15MemoryOutStreamE
 963              		.section	.data.rel.ro._ZTTN8UnitTest15MemoryOutStreamE,"awG",@progbits,_ZTVN8UnitTest15MemoryOutSt
 964              		.align 32
 967              	_ZTTN8UnitTest15MemoryOutStreamE:
 968 0000 00000000 		.quad	_ZTVN8UnitTest15MemoryOutStreamE+24
 968      00000000 
 969 0008 00000000 		.quad	_ZTCN8UnitTest15MemoryOutStreamE0_St19basic_ostringstreamIcSt11char_traitsIcESaIcEE+24
 969      00000000 
 970 0010 00000000 		.quad	_ZTCN8UnitTest15MemoryOutStreamE0_So+24
 970      00000000 
 971 0018 00000000 		.quad	_ZTCN8UnitTest15MemoryOutStreamE0_So+64
 971      00000000 
 972 0020 00000000 		.quad	_ZTCN8UnitTest15MemoryOutStreamE0_St19basic_ostringstreamIcSt11char_traitsIcESaIcEE+64
 972      00000000 
 973 0028 00000000 		.quad	_ZTVN8UnitTest15MemoryOutStreamE+64
 973      00000000 
 974              		.weak	_ZTVN8UnitTest15MemoryOutStreamE
 975              		.section	.data.rel.ro._ZTVN8UnitTest15MemoryOutStreamE,"awG",@progbits,_ZTVN8UnitTest15MemoryOutSt
 976              		.align 64
 979              	_ZTVN8UnitTest15MemoryOutStreamE:
 980 0000 60000000 		.quad	96
 980      00000000 
 981 0008 00000000 		.quad	0
 981      00000000 
 982 0010 00000000 		.quad	_ZTIN8UnitTest15MemoryOutStreamE
 982      00000000 
 983 0018 00000000 		.quad	_ZN8UnitTest15MemoryOutStreamD1Ev
 983      00000000 
 984 0020 00000000 		.quad	_ZN8UnitTest15MemoryOutStreamD0Ev
 984      00000000 
 985 0028 A0FFFFFF 		.quad	-96
 985      FFFFFFFF 
 986 0030 A0FFFFFF 		.quad	-96
 986      FFFFFFFF 
 987 0038 00000000 		.quad	_ZTIN8UnitTest15MemoryOutStreamE
 987      00000000 
 988 0040 00000000 		.quad	_ZTv0_n24_N8UnitTest15MemoryOutStreamD1Ev
 988      00000000 
 989 0048 00000000 		.quad	_ZTv0_n24_N8UnitTest15MemoryOutStreamD0Ev
 989      00000000 
 990              		.weak	_ZTVN8UnitTest4TestE
 991              		.section	.data.rel.ro._ZTVN8UnitTest4TestE,"awG",@progbits,_ZTVN8UnitTest4TestE,comdat
 992              		.align 32
 995              	_ZTVN8UnitTest4TestE:
 996 0000 00000000 		.quad	0
 996      00000000 
 997 0008 00000000 		.quad	_ZTIN8UnitTest4TestE
 997      00000000 
 998 0010 00000000 		.quad	_ZN8UnitTest4TestD1Ev
 998      00000000 
 999 0018 00000000 		.quad	_ZN8UnitTest4TestD0Ev
 999      00000000 
 1000 0020 00000000 		.quad	_ZNK8UnitTest4Test7RunImplEv
 1000      00000000 
 1001              		.local	_ZGVZN8UnitTest4Test11GetTestListEvE6s_list
 1002              		.comm	_ZGVZN8UnitTest4Test11GetTestListEvE6s_list,8,8
 1003              		.weakref	_ZL28__gthrw___pthread_key_createPjPFvPvE,__pthread_key_create
 1004              		.hidden	DW.ref._ZTIN8UnitTest15AssertExceptionE
 1005              		.weak	DW.ref._ZTIN8UnitTest15AssertExceptionE
 1006              		.section	.data.DW.ref._ZTIN8UnitTest15AssertExceptionE,"awG",@progbits,DW.ref._ZTIN8UnitTest15Asse
 1007              		.align 8
 1010              	DW.ref._ZTIN8UnitTest15AssertExceptionE:
 1011 0000 00000000 		.quad	_ZTIN8UnitTest15AssertExceptionE
 1011      00000000 
 1012              		.hidden	DW.ref._ZTISt9exception
 1013              		.weak	DW.ref._ZTISt9exception
 1014              		.section	.data.DW.ref._ZTISt9exception,"awG",@progbits,DW.ref._ZTISt9exception,comdat
 1015              		.align 8
 1018              	DW.ref._ZTISt9exception:
 1019 0000 00000000 		.quad	_ZTISt9exception
 1019      00000000 
 1020              		.hidden	DW.ref.__gxx_personality_v0
 1021              		.weak	DW.ref.__gxx_personality_v0
 1022              		.section	.data.DW.ref.__gxx_personality_v0,"awG",@progbits,DW.ref.__gxx_personality_v0,comdat
 1023              		.align 8
 1026              	DW.ref.__gxx_personality_v0:
 1027 0000 00000000 		.quad	__gxx_personality_v0
 1027      00000000 
 1028              		.ident	"GCC: (Ubuntu 4.9.2-10ubuntu13) 4.9.2"
 1029              		.section	.note.GNU-stack,"",@progbits