   1              		.file	"TestRunner.cpp"
   2              		.text
   3              	.Ltext0:
   4              		.section	.text._ZNK8UnitTest4TrueclEPKNS_4TestE,"axG",@progbits,_ZNK8UnitTest4TrueclEPKNS_4TestE,c
   5              		.align 2
   6              		.weak	_ZNK8UnitTest4TrueclEPKNS_4TestE
   8              	_ZNK8UnitTest4TrueclEPKNS_4TestE:
   9              	.LFB0:
  10              		.file 1 "TestRunner.h"
   1:TestRunner.h  **** #ifndef UNITTEST_TESTRUNNER_H
   2:TestRunner.h  **** #define UNITTEST_TESTRUNNER_H
   3:TestRunner.h  **** 
   4:TestRunner.h  **** #include "Test.h"
   5:TestRunner.h  **** #include "TestList.h"
   6:TestRunner.h  **** #include "CurrentTest.h"
   7:TestRunner.h  **** 
   8:TestRunner.h  **** namespace UnitTest {
   9:TestRunner.h  **** 
  10:TestRunner.h  **** class TestReporter;
  11:TestRunner.h  **** class TestResults;
  12:TestRunner.h  **** class Timer;
  13:TestRunner.h  **** 
  14:TestRunner.h  **** int RunAllTests();
  15:TestRunner.h  **** 
  16:TestRunner.h  **** struct True
  17:TestRunner.h  **** {
  18:TestRunner.h  **** 	bool operator()(const Test* const) const
  11              		.loc 1 18 0
  12              		.cfi_startproc
  13 0000 55       		pushq	%rbp
  14              		.cfi_def_cfa_offset 16
  15              		.cfi_offset 6, -16
  16 0001 4889E5   		movq	%rsp, %rbp
  17              		.cfi_def_cfa_register 6
  18 0004 48897DF8 		movq	%rdi, -8(%rbp)
  19 0008 488975F0 		movq	%rsi, -16(%rbp)
  19:TestRunner.h  **** 	{
  20:TestRunner.h  **** 		return true;	
  20              		.loc 1 20 0
  21 000c B8010000 		movl	$1, %eax
  21      00
  21:TestRunner.h  **** 	}
  22              		.loc 1 21 0
  23 0011 5D       		popq	%rbp
  24              		.cfi_def_cfa 7, 8
  25 0012 C3       		ret
  26              		.cfi_endproc
  27              	.LFE0:
  29              		.section	.text._ZN8UnitTest15MemoryOutStreamC1Ev,"axG",@progbits,_ZN8UnitTest15MemoryOutStreamC1Ev
  30              		.align 2
  31              		.weak	_ZN8UnitTest15MemoryOutStreamC1Ev
  33              	_ZN8UnitTest15MemoryOutStreamC1Ev:
  34              	.LFB1054:
  35              		.file 2 "MemoryOutStream.h"
   1:MemoryOutStream.h **** #ifndef UNITTEST_MEMORYOUTSTREAM_H
   2:MemoryOutStream.h **** #define UNITTEST_MEMORYOUTSTREAM_H
   3:MemoryOutStream.h **** 
   4:MemoryOutStream.h **** #include "Config.h"
   5:MemoryOutStream.h **** 
   6:MemoryOutStream.h **** #ifndef UNITTEST_USE_CUSTOM_STREAMS
   7:MemoryOutStream.h **** 
   8:MemoryOutStream.h **** #include <sstream>
   9:MemoryOutStream.h **** 
  10:MemoryOutStream.h **** namespace UnitTest
  11:MemoryOutStream.h **** {
  12:MemoryOutStream.h **** 
  13:MemoryOutStream.h **** class MemoryOutStream : public std::ostringstream
  14:MemoryOutStream.h **** {
  15:MemoryOutStream.h **** public:
  16:MemoryOutStream.h ****     MemoryOutStream() {}
  36              		.loc 2 16 0
  37              		.cfi_startproc
  38              		.cfi_personality 0x9b,DW.ref.__gxx_personality_v0
  39              		.cfi_lsda 0x1b,.LLSDA1054
  40 0000 55       		pushq	%rbp
  41              		.cfi_def_cfa_offset 16
  42              		.cfi_offset 6, -16
  43 0001 4889E5   		movq	%rsp, %rbp
  44              		.cfi_def_cfa_register 6
  45 0004 53       		pushq	%rbx
  46 0005 4883EC18 		subq	$24, %rsp
  47              		.cfi_offset 3, -24
  48 0009 48897DE8 		movq	%rdi, -24(%rbp)
  49              	.LBB2:
  50              		.loc 2 16 0
  51 000d 488B45E8 		movq	-24(%rbp), %rax
  52 0011 4883C060 		addq	$96, %rax
  53 0015 4889C7   		movq	%rax, %rdi
  54              	.LEHB0:
  55 0018 E8000000 		call	_ZNSt9basic_iosIcSt11char_traitsIcEEC2Ev@PLT
  55      00
  56              	.LEHE0:
  57 001d 488B0500 		movq	_ZTTN8UnitTest15MemoryOutStreamE@GOTPCREL(%rip), %rax
  57      000000
  58 0024 488D4808 		leaq	8(%rax), %rcx
  59 0028 488B45E8 		movq	-24(%rbp), %rax
  60 002c BA100000 		movl	$16, %edx
  60      00
  61 0031 4889CE   		movq	%rcx, %rsi
  62 0034 4889C7   		movq	%rax, %rdi
  63              	.LEHB1:
  64 0037 E8000000 		call	_ZNSt19basic_ostringstreamIcSt11char_traitsIcESaIcEEC2ESt13_Ios_Openmode@PLT
  64      00
  65              	.LEHE1:
  66              		.loc 2 16 0 is_stmt 0 discriminator 9
  67 003c 488B0500 		movq	_ZTVN8UnitTest15MemoryOutStreamE@GOTPCREL(%rip), %rax
  67      000000
  68 0043 488D5018 		leaq	24(%rax), %rdx
  69 0047 488B45E8 		movq	-24(%rbp), %rax
  70 004b 488910   		movq	%rdx, (%rax)
  71 004e BA600000 		movl	$96, %edx
  71      00
  72 0053 488B45E8 		movq	-24(%rbp), %rax
  73 0057 4801C2   		addq	%rax, %rdx
  74 005a 488B0500 		movq	_ZTVN8UnitTest15MemoryOutStreamE@GOTPCREL(%rip), %rax
  74      000000
  75 0061 488D4040 		leaq	64(%rax), %rax
  76 0065 488902   		movq	%rax, (%rdx)
  77 0068 488B45E8 		movq	-24(%rbp), %rax
  78 006c 4883C058 		addq	$88, %rax
  79 0070 4889C7   		movq	%rax, %rdi
  80              	.LEHB2:
  81 0073 E8000000 		call	_ZNSsC1Ev@PLT
  81      00
  82              	.LEHE2:
  83              	.LBE2:
  84              		.loc 2 16 0
  85 0078 EB3D     		jmp	.L8
  86              	.L6:
  87 007a 4889C3   		movq	%rax, %rbx
  88              	.LBB3:
  89 007d 488B0500 		movq	_ZTTN8UnitTest15MemoryOutStreamE@GOTPCREL(%rip), %rax
  89      000000
  90 0084 488D5008 		leaq	8(%rax), %rdx
  91 0088 488B45E8 		movq	-24(%rbp), %rax
  92 008c 4889D6   		movq	%rdx, %rsi
  93 008f 4889C7   		movq	%rax, %rdi
  94 0092 E8000000 		call	_ZNSt19basic_ostringstreamIcSt11char_traitsIcESaIcEED2Ev@PLT
  94      00
  95 0097 EB03     		jmp	.L5
  96              	.L7:
  97 0099 4889C3   		movq	%rax, %rbx
  98              	.L5:
  99              		.loc 2 16 0 discriminator 28
 100 009c 488B45E8 		movq	-24(%rbp), %rax
 101 00a0 4883C060 		addq	$96, %rax
 102 00a4 4889C7   		movq	%rax, %rdi
 103 00a7 E8000000 		call	_ZNSt9basic_iosIcSt11char_traitsIcEED2Ev@PLT
 103      00
 104 00ac 4889D8   		movq	%rbx, %rax
 105 00af 4889C7   		movq	%rax, %rdi
 106              	.LEHB3:
 107 00b2 E8000000 		call	_Unwind_Resume@PLT
 107      00
 108              	.LEHE3:
 109              	.L8:
 110              	.LBE3:
 111              		.loc 2 16 0
 112 00b7 4883C418 		addq	$24, %rsp
 113 00bb 5B       		popq	%rbx
 114 00bc 5D       		popq	%rbp
 115              		.cfi_def_cfa 7, 8
 116 00bd C3       		ret
 117              		.cfi_endproc
 118              	.LFE1054:
 119              		.globl	__gxx_personality_v0
 120              		.section	.gcc_except_table._ZN8UnitTest15MemoryOutStreamC1Ev,"aG",@progbits,_ZN8UnitTest15MemoryOu
 121              	.LLSDA1054:
 122 0000 FF       		.byte	0xff
 123 0001 FF       		.byte	0xff
 124 0002 01       		.byte	0x1
 125 0003 12       		.uleb128 .LLSDACSE1054-.LLSDACSB1054
 126              	.LLSDACSB1054:
 127 0004 18       		.uleb128 .LEHB0-.LFB1054
 128 0005 05       		.uleb128 .LEHE0-.LEHB0
 129 0006 00       		.uleb128 0
 130 0007 00       		.uleb128 0
 131 0008 37       		.uleb128 .LEHB1-.LFB1054
 132 0009 05       		.uleb128 .LEHE1-.LEHB1
 133 000a 9901     		.uleb128 .L7-.LFB1054
 134 000c 00       		.uleb128 0
 135 000d 73       		.uleb128 .LEHB2-.LFB1054
 136 000e 05       		.uleb128 .LEHE2-.LEHB2
 137 000f 7A       		.uleb128 .L6-.LFB1054
 138 0010 00       		.uleb128 0
 139 0011 B201     		.uleb128 .LEHB3-.LFB1054
 140 0013 05       		.uleb128 .LEHE3-.LEHB3
 141 0014 00       		.uleb128 0
 142 0015 00       		.uleb128 0
 143              	.LLSDACSE1054:
 144              		.section	.text._ZN8UnitTest15MemoryOutStreamC1Ev,"axG",@progbits,_ZN8UnitTest15MemoryOutStreamC1Ev
 146              		.section	.text._ZN8UnitTest12TestReporterC2Ev,"axG",@progbits,_ZN8UnitTest12TestReporterC5Ev,comda
 147              		.align 2
 148              		.weak	_ZN8UnitTest12TestReporterC2Ev
 150              	_ZN8UnitTest12TestReporterC2Ev:
 151              	.LFB1058:
 152              		.file 3 "TestReporter.h"
   1:TestReporter.h **** #ifndef UNITTEST_TESTREPORTER_H
   2:TestReporter.h **** #define UNITTEST_TESTREPORTER_H
   3:TestReporter.h **** 
   4:TestReporter.h **** namespace UnitTest {
   5:TestReporter.h **** 
   6:TestReporter.h **** class TestDetails;
   7:TestReporter.h **** 
   8:TestReporter.h **** class TestReporter
 153              		.loc 3 8 0 is_stmt 1
 154              		.cfi_startproc
 155 0000 55       		pushq	%rbp
 156              		.cfi_def_cfa_offset 16
 157              		.cfi_offset 6, -16
 158 0001 4889E5   		movq	%rsp, %rbp
 159              		.cfi_def_cfa_register 6
 160 0004 48897DF8 		movq	%rdi, -8(%rbp)
 161              	.LBB4:
 162              		.loc 3 8 0
 163 0008 488B45F8 		movq	-8(%rbp), %rax
 164 000c 488B1500 		movq	_ZTVN8UnitTest12TestReporterE@GOTPCREL(%rip), %rdx
 164      000000
 165 0013 488D5210 		leaq	16(%rdx), %rdx
 166 0017 488910   		movq	%rdx, (%rax)
 167              	.LBE4:
 168 001a 5D       		popq	%rbp
 169              		.cfi_def_cfa 7, 8
 170 001b C3       		ret
 171              		.cfi_endproc
 172              	.LFE1058:
 174              		.weak	_ZN8UnitTest12TestReporterC1Ev
 175              		.set	_ZN8UnitTest12TestReporterC1Ev,_ZN8UnitTest12TestReporterC2Ev
 176              		.section	.text._ZN8UnitTest18TestReporterStdoutC2Ev,"axG",@progbits,_ZN8UnitTest18TestReporterStdo
 177              		.align 2
 178              		.weak	_ZN8UnitTest18TestReporterStdoutC2Ev
 180              	_ZN8UnitTest18TestReporterStdoutC2Ev:
 181              	.LFB1060:
 182              		.file 4 "TestReporterStdout.h"
   1:TestReporterStdout.h **** #ifndef UNITTEST_TESTREPORTERSTDOUT_H
   2:TestReporterStdout.h **** #define UNITTEST_TESTREPORTERSTDOUT_H
   3:TestReporterStdout.h **** 
   4:TestReporterStdout.h **** #include "TestReporter.h"
   5:TestReporterStdout.h **** 
   6:TestReporterStdout.h **** namespace UnitTest {
   7:TestReporterStdout.h **** 
   8:TestReporterStdout.h **** class TestReporterStdout : public TestReporter
 183              		.loc 4 8 0
 184              		.cfi_startproc
 185 0000 55       		pushq	%rbp
 186              		.cfi_def_cfa_offset 16
 187              		.cfi_offset 6, -16
 188 0001 4889E5   		movq	%rsp, %rbp
 189              		.cfi_def_cfa_register 6
 190 0004 4883EC10 		subq	$16, %rsp
 191 0008 48897DF8 		movq	%rdi, -8(%rbp)
 192              	.LBB5:
 193              		.loc 4 8 0
 194 000c 488B45F8 		movq	-8(%rbp), %rax
 195 0010 4889C7   		movq	%rax, %rdi
 196 0013 E8000000 		call	_ZN8UnitTest12TestReporterC2Ev@PLT
 196      00
 197 0018 488B45F8 		movq	-8(%rbp), %rax
 198 001c 488B1500 		movq	_ZTVN8UnitTest18TestReporterStdoutE@GOTPCREL(%rip), %rdx
 198      000000
 199 0023 488D5210 		leaq	16(%rdx), %rdx
 200 0027 488910   		movq	%rdx, (%rax)
 201              	.LBE5:
 202 002a C9       		leave
 203              		.cfi_def_cfa 7, 8
 204 002b C3       		ret
 205              		.cfi_endproc
 206              	.LFE1060:
 208              		.weak	_ZN8UnitTest18TestReporterStdoutC1Ev
 209              		.set	_ZN8UnitTest18TestReporterStdoutC1Ev,_ZN8UnitTest18TestReporterStdoutC2Ev
 210              		.text
 211              		.globl	_ZN8UnitTest11RunAllTestsEv
 213              	_ZN8UnitTest11RunAllTestsEv:
 214              	.LFB1055:
 215              		.file 5 "TestRunner.cpp"
   1:TestRunner.cpp **** #include "TestRunner.h"
   2:TestRunner.cpp **** #include "TestResults.h"
   3:TestRunner.cpp **** #include "TestReporter.h"
   4:TestRunner.cpp **** #include "TestReporterStdout.h"
   5:TestRunner.cpp **** #include "TimeHelpers.h"
   6:TestRunner.cpp **** #include "MemoryOutStream.h"
   7:TestRunner.cpp **** 
   8:TestRunner.cpp **** #include <cstring>
   9:TestRunner.cpp **** 
  10:TestRunner.cpp **** 
  11:TestRunner.cpp **** namespace UnitTest {
  12:TestRunner.cpp **** 
  13:TestRunner.cpp **** int RunAllTests()
  14:TestRunner.cpp **** {
 216              		.loc 5 14 0
 217              		.cfi_startproc
 218              		.cfi_personality 0x9b,DW.ref.__gxx_personality_v0
 219              		.cfi_lsda 0x1b,.LLSDA1055
 220 0000 55       		pushq	%rbp
 221              		.cfi_def_cfa_offset 16
 222              		.cfi_offset 6, -16
 223 0001 4889E5   		movq	%rsp, %rbp
 224              		.cfi_def_cfa_register 6
 225 0004 53       		pushq	%rbx
 226 0005 4883EC48 		subq	$72, %rsp
 227              		.cfi_offset 3, -24
 228              		.loc 5 14 0
 229 0009 64488B04 		movq	%fs:40, %rax
 229      25280000 
 229      00
 230 0012 488945E8 		movq	%rax, -24(%rbp)
 231 0016 31C0     		xorl	%eax, %eax
 232              	.LBB6:
  15:TestRunner.cpp **** 	TestReporterStdout reporter;
 233              		.loc 5 15 0
 234 0018 488D45C0 		leaq	-64(%rbp), %rax
 235 001c 4889C7   		movq	%rax, %rdi
 236 001f E8000000 		call	_ZN8UnitTest18TestReporterStdoutC1Ev@PLT
 236      00
  16:TestRunner.cpp **** 	TestRunner runner(reporter);
 237              		.loc 5 16 0
 238 0024 488D55C0 		leaq	-64(%rbp), %rdx
 239 0028 488D45D0 		leaq	-48(%rbp), %rax
 240 002c 4889D6   		movq	%rdx, %rsi
 241 002f 4889C7   		movq	%rax, %rdi
 242              	.LEHB4:
 243 0032 E8000000 		call	_ZN8UnitTest10TestRunnerC1ERNS_12TestReporterE@PLT
 243      00
 244              	.LEHE4:
 245              	.LEHB5:
  17:TestRunner.cpp **** 	return runner.RunTestsIf(Test::GetTestList(), NULL, True(), 0);
 246              		.loc 5 17 0
 247 0037 E8000000 		call	_ZN8UnitTest4Test11GetTestListEv@PLT
 247      00
 248 003c 4889C6   		movq	%rax, %rsi
 249 003f 488D55BF 		leaq	-65(%rbp), %rdx
 250 0043 488D45D0 		leaq	-48(%rbp), %rax
 251 0047 41B80000 		movl	$0, %r8d
 251      0000
 252 004d 4889D1   		movq	%rdx, %rcx
 253 0050 BA000000 		movl	$0, %edx
 253      00
 254 0055 4889C7   		movq	%rax, %rdi
 255 0058 E8000000 		call	_ZNK8UnitTest10TestRunner10RunTestsIfINS_4TrueEEEiRKNS_8TestListEPKcRKT_i@PLT
 255      00
 256              	.LEHE5:
 257              		.loc 5 17 0 is_stmt 0 discriminator 2
 258 005d 89C3     		movl	%eax, %ebx
  16:TestRunner.cpp **** 	TestRunner runner(reporter);
 259              		.loc 5 16 0 is_stmt 1 discriminator 2
 260 005f 488D45D0 		leaq	-48(%rbp), %rax
 261 0063 4889C7   		movq	%rax, %rdi
 262              	.LEHB6:
 263 0066 E8000000 		call	_ZN8UnitTest10TestRunnerD1Ev@PLT
 263      00
 264              	.LEHE6:
 265              		.loc 5 17 0
 266 006b 488D45C0 		leaq	-64(%rbp), %rax
 267 006f 4889C7   		movq	%rax, %rdi
 268              	.LEHB7:
 269 0072 E8000000 		call	_ZN8UnitTest18TestReporterStdoutD1Ev@PLT
 269      00
 270              	.LEHE7:
 271 0077 89D8     		movl	%ebx, %eax
 272              	.LBE6:
  18:TestRunner.cpp **** }
 273              		.loc 5 18 0
 274 0079 488B4DE8 		movq	-24(%rbp), %rcx
 275 007d 6448330C 		xorq	%fs:40, %rcx
 275      25280000 
 275      00
 276 0086 7432     		je	.L15
 277 0088 EB2B     		jmp	.L18
 278              	.L17:
 279 008a 4889C3   		movq	%rax, %rbx
 280              	.LBB7:
  16:TestRunner.cpp **** 	TestRunner runner(reporter);
 281              		.loc 5 16 0
 282 008d 488D45D0 		leaq	-48(%rbp), %rax
 283 0091 4889C7   		movq	%rax, %rdi
 284 0094 E8000000 		call	_ZN8UnitTest10TestRunnerD1Ev@PLT
 284      00
 285 0099 EB03     		jmp	.L14
 286              	.L16:
 287 009b 4889C3   		movq	%rax, %rbx
 288              	.L14:
  17:TestRunner.cpp **** 	return runner.RunTestsIf(Test::GetTestList(), NULL, True(), 0);
 289              		.loc 5 17 0
 290 009e 488D45C0 		leaq	-64(%rbp), %rax
 291 00a2 4889C7   		movq	%rax, %rdi
 292 00a5 E8000000 		call	_ZN8UnitTest18TestReporterStdoutD1Ev@PLT
 292      00
 293 00aa 4889D8   		movq	%rbx, %rax
 294 00ad 4889C7   		movq	%rax, %rdi
 295              	.LEHB8:
 296 00b0 E8000000 		call	_Unwind_Resume@PLT
 296      00
 297              	.LEHE8:
 298              	.L18:
 299              	.LBE7:
 300              		.loc 5 18 0
 301 00b5 E8000000 		call	__stack_chk_fail@PLT
 301      00
 302              	.L15:
 303 00ba 4883C448 		addq	$72, %rsp
 304 00be 5B       		popq	%rbx
 305 00bf 5D       		popq	%rbp
 306              		.cfi_def_cfa 7, 8
 307 00c0 C3       		ret
 308              		.cfi_endproc
 309              	.LFE1055:
 310              		.section	.gcc_except_table,"a",@progbits
 311              	.LLSDA1055:
 312 0000 FF       		.byte	0xff
 313 0001 FF       		.byte	0xff
 314 0002 01       		.byte	0x1
 315 0003 18       		.uleb128 .LLSDACSE1055-.LLSDACSB1055
 316              	.LLSDACSB1055:
 317 0004 32       		.uleb128 .LEHB4-.LFB1055
 318 0005 05       		.uleb128 .LEHE4-.LEHB4
 319 0006 9B01     		.uleb128 .L16-.LFB1055
 320 0008 00       		.uleb128 0
 321 0009 37       		.uleb128 .LEHB5-.LFB1055
 322 000a 26       		.uleb128 .LEHE5-.LEHB5
 323 000b 8A01     		.uleb128 .L17-.LFB1055
 324 000d 00       		.uleb128 0
 325 000e 66       		.uleb128 .LEHB6-.LFB1055
 326 000f 05       		.uleb128 .LEHE6-.LEHB6
 327 0010 9B01     		.uleb128 .L16-.LFB1055
 328 0012 00       		.uleb128 0
 329 0013 72       		.uleb128 .LEHB7-.LFB1055
 330 0014 05       		.uleb128 .LEHE7-.LEHB7
 331 0015 00       		.uleb128 0
 332 0016 00       		.uleb128 0
 333 0017 B001     		.uleb128 .LEHB8-.LFB1055
 334 0019 05       		.uleb128 .LEHE8-.LEHB8
 335 001a 00       		.uleb128 0
 336 001b 00       		.uleb128 0
 337              	.LLSDACSE1055:
 338              		.text
 340 00c1 90       		.align 2
 341              		.globl	_ZN8UnitTest10TestRunnerC2ERNS_12TestReporterE
 343              	_ZN8UnitTest10TestRunnerC2ERNS_12TestReporterE:
 344              	.LFB1063:
  19:TestRunner.cpp **** 
  20:TestRunner.cpp **** 
  21:TestRunner.cpp **** TestRunner::TestRunner(TestReporter& reporter)
 345              		.loc 5 21 0
 346              		.cfi_startproc
 347              		.cfi_personality 0x9b,DW.ref.__gxx_personality_v0
 348              		.cfi_lsda 0x1b,.LLSDA1063
 349 00c2 55       		pushq	%rbp
 350              		.cfi_def_cfa_offset 16
 351              		.cfi_offset 6, -16
 352 00c3 4889E5   		movq	%rsp, %rbp
 353              		.cfi_def_cfa_register 6
 354 00c6 4154     		pushq	%r12
 355 00c8 53       		pushq	%rbx
 356 00c9 4883EC10 		subq	$16, %rsp
 357              		.cfi_offset 12, -24
 358              		.cfi_offset 3, -32
 359 00cd 48897DE8 		movq	%rdi, -24(%rbp)
 360 00d1 488975E0 		movq	%rsi, -32(%rbp)
 361              	.LBB8:
  22:TestRunner.cpp **** 	: m_reporter(&reporter)
  23:TestRunner.cpp **** 	, m_result(new TestResults(&reporter))
  24:TestRunner.cpp **** 	, m_timer(new Timer)
 362              		.loc 5 24 0
 363 00d5 488B45E8 		movq	-24(%rbp), %rax
 364 00d9 488B55E0 		movq	-32(%rbp), %rdx
 365 00dd 488910   		movq	%rdx, (%rax)
 366 00e0 BF180000 		movl	$24, %edi
 366      00
 367              	.LEHB9:
 368 00e5 E8000000 		call	_Znwm@PLT
 368      00
 369              	.LEHE9:
 370 00ea 4889C3   		movq	%rax, %rbx
  23:TestRunner.cpp **** 	, m_timer(new Timer)
 371              		.loc 5 23 0
 372 00ed 488B45E0 		movq	-32(%rbp), %rax
 373 00f1 4889C6   		movq	%rax, %rsi
 374 00f4 4889DF   		movq	%rbx, %rdi
 375              	.LEHB10:
 376 00f7 E8000000 		call	_ZN8UnitTest11TestResultsC1EPNS_12TestReporterE@PLT
 376      00
 377              	.LEHE10:
 378              		.loc 5 24 0
 379 00fc 488B45E8 		movq	-24(%rbp), %rax
 380 0100 48895808 		movq	%rbx, 8(%rax)
 381 0104 BF100000 		movl	$16, %edi
 381      00
 382              	.LEHB11:
 383 0109 E8000000 		call	_Znwm@PLT
 383      00
 384              	.LEHE11:
 385 010e 4889C3   		movq	%rax, %rbx
 386 0111 4889DF   		movq	%rbx, %rdi
 387              	.LEHB12:
 388 0114 E8000000 		call	_ZN8UnitTest5TimerC1Ev@PLT
 388      00
 389              	.LEHE12:
 390              		.loc 5 24 0 is_stmt 0 discriminator 2
 391 0119 488B45E8 		movq	-24(%rbp), %rax
 392 011d 48895810 		movq	%rbx, 16(%rax)
  25:TestRunner.cpp **** {
  26:TestRunner.cpp **** 	m_timer->Start();
 393              		.loc 5 26 0 is_stmt 1 discriminator 2
 394 0121 488B45E8 		movq	-24(%rbp), %rax
 395 0125 488B4010 		movq	16(%rax), %rax
 396 0129 4889C7   		movq	%rax, %rdi
 397              	.LEHB13:
 398 012c E8000000 		call	_ZN8UnitTest5Timer5StartEv@PLT
 398      00
 399 0131 EB2C     		jmp	.L24
 400              	.L22:
 401 0133 4989C4   		movq	%rax, %r12
  23:TestRunner.cpp **** 	, m_timer(new Timer)
 402              		.loc 5 23 0
 403 0136 4889DF   		movq	%rbx, %rdi
 404 0139 E8000000 		call	_ZdlPv@PLT
 404      00
 405 013e 4C89E0   		movq	%r12, %rax
 406 0141 4889C7   		movq	%rax, %rdi
 407 0144 E8000000 		call	_Unwind_Resume@PLT
 407      00
 408              	.L23:
 409 0149 4989C4   		movq	%rax, %r12
  24:TestRunner.cpp **** {
 410              		.loc 5 24 0
 411 014c 4889DF   		movq	%rbx, %rdi
 412 014f E8000000 		call	_ZdlPv@PLT
 412      00
 413 0154 4C89E0   		movq	%r12, %rax
 414 0157 4889C7   		movq	%rax, %rdi
 415 015a E8000000 		call	_Unwind_Resume@PLT
 415      00
 416              	.LEHE13:
 417              	.L24:
 418              	.LBE8:
  27:TestRunner.cpp **** }
 419              		.loc 5 27 0
 420 015f 4883C410 		addq	$16, %rsp
 421 0163 5B       		popq	%rbx
 422 0164 415C     		popq	%r12
 423 0166 5D       		popq	%rbp
 424              		.cfi_def_cfa 7, 8
 425 0167 C3       		ret
 426              		.cfi_endproc
 427              	.LFE1063:
 428              		.section	.gcc_except_table
 429              	.LLSDA1063:
 430 001c FF       		.byte	0xff
 431 001d FF       		.byte	0xff
 432 001e 01       		.byte	0x1
 433 001f 15       		.uleb128 .LLSDACSE1063-.LLSDACSB1063
 434              	.LLSDACSB1063:
 435 0020 23       		.uleb128 .LEHB9-.LFB1063
 436 0021 05       		.uleb128 .LEHE9-.LEHB9
 437 0022 00       		.uleb128 0
 438 0023 00       		.uleb128 0
 439 0024 35       		.uleb128 .LEHB10-.LFB1063
 440 0025 05       		.uleb128 .LEHE10-.LEHB10
 441 0026 71       		.uleb128 .L22-.LFB1063
 442 0027 00       		.uleb128 0
 443 0028 47       		.uleb128 .LEHB11-.LFB1063
 444 0029 05       		.uleb128 .LEHE11-.LEHB11
 445 002a 00       		.uleb128 0
 446 002b 00       		.uleb128 0
 447 002c 52       		.uleb128 .LEHB12-.LFB1063
 448 002d 05       		.uleb128 .LEHE12-.LEHB12
 449 002e 8701     		.uleb128 .L23-.LFB1063
 450 0030 00       		.uleb128 0
 451 0031 6A       		.uleb128 .LEHB13-.LFB1063
 452 0032 33       		.uleb128 .LEHE13-.LEHB13
 453 0033 00       		.uleb128 0
 454 0034 00       		.uleb128 0
 455              	.LLSDACSE1063:
 456              		.text
 458              		.globl	_ZN8UnitTest10TestRunnerC1ERNS_12TestReporterE
 459              		.set	_ZN8UnitTest10TestRunnerC1ERNS_12TestReporterE,_ZN8UnitTest10TestRunnerC2ERNS_12TestReporterE
 460              		.align 2
 461              		.globl	_ZN8UnitTest10TestRunnerD2Ev
 463              	_ZN8UnitTest10TestRunnerD2Ev:
 464              	.LFB1066:
  28:TestRunner.cpp **** 
  29:TestRunner.cpp **** TestRunner::~TestRunner()
 465              		.loc 5 29 0
 466              		.cfi_startproc
 467 0168 55       		pushq	%rbp
 468              		.cfi_def_cfa_offset 16
 469              		.cfi_offset 6, -16
 470 0169 4889E5   		movq	%rsp, %rbp
 471              		.cfi_def_cfa_register 6
 472 016c 4883EC10 		subq	$16, %rsp
 473 0170 48897DF8 		movq	%rdi, -8(%rbp)
 474              	.LBB9:
  30:TestRunner.cpp **** {
  31:TestRunner.cpp **** 	delete m_result;
 475              		.loc 5 31 0
 476 0174 488B45F8 		movq	-8(%rbp), %rax
 477 0178 488B4008 		movq	8(%rax), %rax
 478 017c 4889C7   		movq	%rax, %rdi
 479 017f E8000000 		call	_ZdlPv@PLT
 479      00
  32:TestRunner.cpp **** 	delete m_timer;
 480              		.loc 5 32 0
 481 0184 488B45F8 		movq	-8(%rbp), %rax
 482 0188 488B4010 		movq	16(%rax), %rax
 483 018c 4889C7   		movq	%rax, %rdi
 484 018f E8000000 		call	_ZdlPv@PLT
 484      00
 485              	.LBE9:
  33:TestRunner.cpp **** }
 486              		.loc 5 33 0
 487 0194 C9       		leave
 488              		.cfi_def_cfa 7, 8
 489 0195 C3       		ret
 490              		.cfi_endproc
 491              	.LFE1066:
 493              		.globl	_ZN8UnitTest10TestRunnerD1Ev
 494              		.set	_ZN8UnitTest10TestRunnerD1Ev,_ZN8UnitTest10TestRunnerD2Ev
 495              		.align 2
 496              		.globl	_ZNK8UnitTest10TestRunner6FinishEv
 498              	_ZNK8UnitTest10TestRunner6FinishEv:
 499              	.LFB1068:
  34:TestRunner.cpp **** 
  35:TestRunner.cpp **** int TestRunner::Finish() const
  36:TestRunner.cpp **** {
 500              		.loc 5 36 0
 501              		.cfi_startproc
 502 0196 55       		pushq	%rbp
 503              		.cfi_def_cfa_offset 16
 504              		.cfi_offset 6, -16
 505 0197 4889E5   		movq	%rsp, %rbp
 506              		.cfi_def_cfa_register 6
 507 019a 4155     		pushq	%r13
 508 019c 4154     		pushq	%r12
 509 019e 53       		pushq	%rbx
 510 019f 4883EC28 		subq	$40, %rsp
 511              		.cfi_offset 13, -24
 512              		.cfi_offset 12, -32
 513              		.cfi_offset 3, -40
 514 01a3 48897DC8 		movq	%rdi, -56(%rbp)
 515              	.LBB10:
  37:TestRunner.cpp ****     float const secondsElapsed = m_timer->GetTimeInMs() / 1000.0f;
 516              		.loc 5 37 0
 517 01a7 488B45C8 		movq	-56(%rbp), %rax
 518 01ab 488B4010 		movq	16(%rax), %rax
 519 01af 4889C7   		movq	%rax, %rdi
 520 01b2 E8000000 		call	_ZNK8UnitTest5Timer11GetTimeInMsEv@PLT
 520      00
 521 01b7 660FEFC0 		pxor	%xmm0, %xmm0
 522 01bb F30F2AC0 		cvtsi2ss	%eax, %xmm0
 523 01bf F30F100D 		movss	.LC0(%rip), %xmm1
 523      00000000 
 524 01c7 F30F5EC1 		divss	%xmm1, %xmm0
 525 01cb 660F7EC0 		movd	%xmm0, %eax
 526 01cf 8945DC   		movl	%eax, -36(%rbp)
  38:TestRunner.cpp ****     m_reporter->ReportSummary(m_result->GetTotalTestCount(), 
  39:TestRunner.cpp **** 							  m_result->GetFailedTestCount(), 
  40:TestRunner.cpp **** 							  m_result->GetFailureCount(), 
  41:TestRunner.cpp **** 							  secondsElapsed);
 527              		.loc 5 41 0
 528 01d2 488B45C8 		movq	-56(%rbp), %rax
 529 01d6 488B00   		movq	(%rax), %rax
 530 01d9 488B00   		movq	(%rax), %rax
 531 01dc 4883C028 		addq	$40, %rax
 532 01e0 488B18   		movq	(%rax), %rbx
 533 01e3 488B45C8 		movq	-56(%rbp), %rax
 534 01e7 488B4008 		movq	8(%rax), %rax
 535 01eb 4889C7   		movq	%rax, %rdi
 536 01ee E8000000 		call	_ZNK8UnitTest11TestResults15GetFailureCountEv@PLT
 536      00
 537 01f3 4189C5   		movl	%eax, %r13d
 538 01f6 488B45C8 		movq	-56(%rbp), %rax
 539 01fa 488B4008 		movq	8(%rax), %rax
 540 01fe 4889C7   		movq	%rax, %rdi
 541 0201 E8000000 		call	_ZNK8UnitTest11TestResults18GetFailedTestCountEv@PLT
 541      00
 542 0206 4189C4   		movl	%eax, %r12d
 543 0209 488B45C8 		movq	-56(%rbp), %rax
 544 020d 488B4008 		movq	8(%rax), %rax
 545 0211 4889C7   		movq	%rax, %rdi
 546 0214 E8000000 		call	_ZNK8UnitTest11TestResults17GetTotalTestCountEv@PLT
 546      00
 547 0219 89C6     		movl	%eax, %esi
 548 021b 488B45C8 		movq	-56(%rbp), %rax
 549 021f 488B00   		movq	(%rax), %rax
 550 0222 8B55DC   		movl	-36(%rbp), %edx
 551 0225 8955C4   		movl	%edx, -60(%rbp)
 552 0228 F30F1045 		movss	-60(%rbp), %xmm0
 552      C4
 553 022d 4489E9   		movl	%r13d, %ecx
 554 0230 4489E2   		movl	%r12d, %edx
 555 0233 4889C7   		movq	%rax, %rdi
 556 0236 FFD3     		call	*%rbx
  42:TestRunner.cpp ****     
  43:TestRunner.cpp **** 	return m_result->GetFailureCount();
 557              		.loc 5 43 0
 558 0238 488B45C8 		movq	-56(%rbp), %rax
 559 023c 488B4008 		movq	8(%rax), %rax
 560 0240 4889C7   		movq	%rax, %rdi
 561 0243 E8000000 		call	_ZNK8UnitTest11TestResults15GetFailureCountEv@PLT
 561      00
 562              	.LBE10:
  44:TestRunner.cpp **** }
 563              		.loc 5 44 0
 564 0248 4883C428 		addq	$40, %rsp
 565 024c 5B       		popq	%rbx
 566 024d 415C     		popq	%r12
 567 024f 415D     		popq	%r13
 568 0251 5D       		popq	%rbp
 569              		.cfi_def_cfa 7, 8
 570 0252 C3       		ret
 571              		.cfi_endproc
 572              	.LFE1068:
 574 0253 90       		.align 2
 575              		.globl	_ZNK8UnitTest10TestRunner13IsTestInSuiteEPKNS_4TestEPKc
 577              	_ZNK8UnitTest10TestRunner13IsTestInSuiteEPKNS_4TestEPKc:
 578              	.LFB1069:
  45:TestRunner.cpp **** 
  46:TestRunner.cpp **** bool TestRunner::IsTestInSuite(const Test* const curTest, char const* suiteName) const
  47:TestRunner.cpp **** {
 579              		.loc 5 47 0
 580              		.cfi_startproc
 581 0254 55       		pushq	%rbp
 582              		.cfi_def_cfa_offset 16
 583              		.cfi_offset 6, -16
 584 0255 4889E5   		movq	%rsp, %rbp
 585              		.cfi_def_cfa_register 6
 586 0258 4883EC20 		subq	$32, %rsp
 587 025c 48897DF8 		movq	%rdi, -8(%rbp)
 588 0260 488975F0 		movq	%rsi, -16(%rbp)
 589 0264 488955E8 		movq	%rdx, -24(%rbp)
 590              	.LBB11:
  48:TestRunner.cpp **** 	using namespace std;
  49:TestRunner.cpp **** 	return (suiteName == NULL) || !strcmp(curTest->m_details.suiteName, suiteName);
 591              		.loc 5 49 0
 592 0268 48837DE8 		cmpq	$0, -24(%rbp)
 592      00
 593 026d 741B     		je	.L30
 594              		.loc 5 49 0 is_stmt 0 discriminator 2
 595 026f 488B45F0 		movq	-16(%rbp), %rax
 596 0273 488B4008 		movq	8(%rax), %rax
 597 0277 488B55E8 		movq	-24(%rbp), %rdx
 598 027b 4889D6   		movq	%rdx, %rsi
 599 027e 4889C7   		movq	%rax, %rdi
 600 0281 E8000000 		call	strcmp@PLT
 600      00
 601 0286 85C0     		testl	%eax, %eax
 602 0288 7507     		jne	.L31
 603              	.L30:
 604              		.loc 5 49 0 discriminator 3
 605 028a B8010000 		movl	$1, %eax
 605      00
 606 028f EB05     		jmp	.L32
 607              	.L31:
 608              		.loc 5 49 0 discriminator 4
 609 0291 B8000000 		movl	$0, %eax
 609      00
 610              	.L32:
 611              	.LBE11:
  50:TestRunner.cpp **** }
 612              		.loc 5 50 0 is_stmt 1 discriminator 6
 613 0296 C9       		leave
 614              		.cfi_def_cfa 7, 8
 615 0297 C3       		ret
 616              		.cfi_endproc
 617              	.LFE1069:
 619              		.section	.rodata
 620              		.align 8
 621              	.LC1:
 622 0000 476C6F62 		.string	"Global time constraint failed. Expected under "
 622      616C2074 
 622      696D6520 
 622      636F6E73 
 622      74726169 
 623              	.LC2:
 624 002f 6D732062 		.string	"ms but took "
 624      75742074 
 624      6F6F6B20 
 624      00
 625              	.LC3:
 626 003c 6D732E00 		.string	"ms."
 627              		.text
 628              		.align 2
 629              		.globl	_ZNK8UnitTest10TestRunner7RunTestEPNS_11TestResultsEPNS_4TestEi
 631              	_ZNK8UnitTest10TestRunner7RunTestEPNS_11TestResultsEPNS_4TestEi:
 632              	.LFB1070:
  51:TestRunner.cpp **** 
  52:TestRunner.cpp **** void TestRunner::RunTest(TestResults* const result, Test* const curTest, int const maxTestTimeInMs)
  53:TestRunner.cpp **** {
 633              		.loc 5 53 0
 634              		.cfi_startproc
 635              		.cfi_personality 0x9b,DW.ref.__gxx_personality_v0
 636              		.cfi_lsda 0x1b,.LLSDA1070
 637 0298 55       		pushq	%rbp
 638              		.cfi_def_cfa_offset 16
 639              		.cfi_offset 6, -16
 640 0299 4889E5   		movq	%rsp, %rbp
 641              		.cfi_def_cfa_register 6
 642 029c 53       		pushq	%rbx
 643 029d 4881ECB8 		subq	$440, %rsp
 643      010000
 644              		.cfi_offset 3, -24
 645 02a4 4889BD58 		movq	%rdi, -424(%rbp)
 645      FEFFFF
 646 02ab 4889B550 		movq	%rsi, -432(%rbp)
 646      FEFFFF
 647 02b2 48899548 		movq	%rdx, -440(%rbp)
 647      FEFFFF
 648 02b9 898D44FE 		movl	%ecx, -444(%rbp)
 648      FFFF
 649              		.loc 5 53 0
 650 02bf 64488B04 		movq	%fs:40, %rax
 650      25280000 
 650      00
 651 02c8 488945E8 		movq	%rax, -24(%rbp)
 652 02cc 31C0     		xorl	%eax, %eax
 653              	.LEHB14:
 654              	.LBB12:
  54:TestRunner.cpp **** 	CurrentTest::Results() = result;
 655              		.loc 5 54 0
 656 02ce E8000000 		call	_ZN8UnitTest11CurrentTest7ResultsEv@PLT
 656      00
 657 02d3 4889C2   		movq	%rax, %rdx
 658 02d6 488B8550 		movq	-432(%rbp), %rax
 658      FEFFFF
 659 02dd 488902   		movq	%rax, (%rdx)
  55:TestRunner.cpp **** 
  56:TestRunner.cpp **** 	Timer testTimer;
 660              		.loc 5 56 0
 661 02e0 488D8570 		leaq	-400(%rbp), %rax
 661      FEFFFF
 662 02e7 4889C7   		movq	%rax, %rdi
 663 02ea E8000000 		call	_ZN8UnitTest5TimerC1Ev@PLT
 663      00
  57:TestRunner.cpp **** 	testTimer.Start();
 664              		.loc 5 57 0
 665 02ef 488D8570 		leaq	-400(%rbp), %rax
 665      FEFFFF
 666 02f6 4889C7   		movq	%rax, %rdi
 667 02f9 E8000000 		call	_ZN8UnitTest5Timer5StartEv@PLT
 667      00
  58:TestRunner.cpp **** 
  59:TestRunner.cpp **** 	result->OnTestStart(curTest->m_details);
 668              		.loc 5 59 0
 669 02fe 488B8548 		movq	-440(%rbp), %rax
 669      FEFFFF
 670 0305 488D5008 		leaq	8(%rax), %rdx
 671 0309 488B8550 		movq	-432(%rbp), %rax
 671      FEFFFF
 672 0310 4889D6   		movq	%rdx, %rsi
 673 0313 4889C7   		movq	%rax, %rdi
 674 0316 E8000000 		call	_ZN8UnitTest11TestResults11OnTestStartERKNS_11TestDetailsE@PLT
 674      00
  60:TestRunner.cpp **** 
  61:TestRunner.cpp **** 	curTest->Run();
 675              		.loc 5 61 0
 676 031b 488B8548 		movq	-440(%rbp), %rax
 676      FEFFFF
 677 0322 4889C7   		movq	%rax, %rdi
 678 0325 E8000000 		call	_ZN8UnitTest4Test3RunEv@PLT
 678      00
  62:TestRunner.cpp **** 
  63:TestRunner.cpp **** 	int const testTimeInMs = testTimer.GetTimeInMs();
 679              		.loc 5 63 0
 680 032a 488D8570 		leaq	-400(%rbp), %rax
 680      FEFFFF
 681 0331 4889C7   		movq	%rax, %rdi
 682 0334 E8000000 		call	_ZNK8UnitTest5Timer11GetTimeInMsEv@PLT
 682      00
 683 0339 89856CFE 		movl	%eax, -404(%rbp)
 683      FFFF
 684              	.LBB13:
  64:TestRunner.cpp **** 	if (maxTestTimeInMs > 0 && testTimeInMs > maxTestTimeInMs && !curTest->m_timeConstraintExempt)
 685              		.loc 5 64 0
 686 033f 83BD44FE 		cmpl	$0, -444(%rbp)
 686      FFFF00
 687 0346 0F8ECF00 		jle	.L35
 687      0000
 688              		.loc 5 64 0 is_stmt 0 discriminator 1
 689 034c 8B856CFE 		movl	-404(%rbp), %eax
 689      FFFF
 690 0352 3B8544FE 		cmpl	-444(%rbp), %eax
 690      FFFF
 691 0358 0F8EBD00 		jle	.L35
 691      0000
 692              		.loc 5 64 0 discriminator 2
 693 035e 488B8548 		movq	-440(%rbp), %rax
 693      FEFFFF
 694 0365 0FB64030 		movzbl	48(%rax), %eax
 695 0369 83F001   		xorl	$1, %eax
 696 036c 84C0     		testb	%al, %al
 697 036e 0F84A700 		je	.L35
 697      0000
 698              	.LBB14:
  65:TestRunner.cpp **** 	{
  66:TestRunner.cpp **** 	    MemoryOutStream stream;
 699              		.loc 5 66 0 is_stmt 1
 700 0374 488D8580 		leaq	-384(%rbp), %rax
 700      FEFFFF
 701 037b 4889C7   		movq	%rax, %rdi
 702 037e E8000000 		call	_ZN8UnitTest15MemoryOutStreamC1Ev@PLT
 702      00
 703              	.LEHE14:
  67:TestRunner.cpp **** 	    stream << "Global time constraint failed. Expected under " << maxTestTimeInMs <<
 704              		.loc 5 67 0
 705 0383 488D8580 		leaq	-384(%rbp), %rax
 705      FEFFFF
 706 038a 488D3500 		leaq	.LC1(%rip), %rsi
 706      000000
 707 0391 4889C7   		movq	%rax, %rdi
 708              	.LEHB15:
 709 0394 E8000000 		call	_ZStlsISt11char_traitsIcEERSt13basic_ostreamIcT_ES5_PKc@PLT
 709      00
 710 0399 4889C2   		movq	%rax, %rdx
 711 039c 8B8544FE 		movl	-444(%rbp), %eax
 711      FFFF
 712 03a2 89C6     		movl	%eax, %esi
 713 03a4 4889D7   		movq	%rdx, %rdi
 714 03a7 E8000000 		call	_ZNSolsEi@PLT
 714      00
  68:TestRunner.cpp **** 	            "ms but took " << testTimeInMs << "ms.";
 715              		.loc 5 68 0 discriminator 1
 716 03ac 488D3500 		leaq	.LC2(%rip), %rsi
 716      000000
 717 03b3 4889C7   		movq	%rax, %rdi
 718 03b6 E8000000 		call	_ZStlsISt11char_traitsIcEERSt13basic_ostreamIcT_ES5_PKc@PLT
 718      00
 719              		.loc 5 68 0 is_stmt 0 discriminator 2
 720 03bb 4889C2   		movq	%rax, %rdx
 721 03be 8B856CFE 		movl	-404(%rbp), %eax
 721      FFFF
 722 03c4 89C6     		movl	%eax, %esi
 723 03c6 4889D7   		movq	%rdx, %rdi
 724 03c9 E8000000 		call	_ZNSolsEi@PLT
 724      00
 725              		.loc 5 68 0 discriminator 1
 726 03ce 488D3500 		leaq	.LC3(%rip), %rsi
 726      000000
 727 03d5 4889C7   		movq	%rax, %rdi
 728 03d8 E8000000 		call	_ZStlsISt11char_traitsIcEERSt13basic_ostreamIcT_ES5_PKc@PLT
 728      00
  69:TestRunner.cpp **** 
  70:TestRunner.cpp **** 	    result->OnTestFailure(curTest->m_details, stream.GetText());
 729              		.loc 5 70 0 is_stmt 1
 730 03dd 488D8580 		leaq	-384(%rbp), %rax
 730      FEFFFF
 731 03e4 4889C7   		movq	%rax, %rdi
 732 03e7 E8000000 		call	_ZNK8UnitTest15MemoryOutStream7GetTextEv@PLT
 732      00
 733 03ec 4889C2   		movq	%rax, %rdx
 734 03ef 488B8548 		movq	-440(%rbp), %rax
 734      FEFFFF
 735 03f6 488D4808 		leaq	8(%rax), %rcx
 736 03fa 488B8550 		movq	-432(%rbp), %rax
 736      FEFFFF
 737 0401 4889CE   		movq	%rcx, %rsi
 738 0404 4889C7   		movq	%rax, %rdi
 739 0407 E8000000 		call	_ZN8UnitTest11TestResults13OnTestFailureERKNS_11TestDetailsEPKc@PLT
 739      00
 740              	.LEHE15:
 741              		.loc 5 70 0 is_stmt 0 discriminator 4
 742 040c 488D8580 		leaq	-384(%rbp), %rax
 742      FEFFFF
 743 0413 4889C7   		movq	%rax, %rdi
 744              	.LEHB16:
 745 0416 E8000000 		call	_ZN8UnitTest15MemoryOutStreamD1Ev@PLT
 745      00
 746              	.L35:
 747              	.LBE14:
 748              	.LBE13:
  71:TestRunner.cpp **** 	}
  72:TestRunner.cpp **** 
  73:TestRunner.cpp **** 	result->OnTestFinish(curTest->m_details, testTimeInMs/1000.0f);
 749              		.loc 5 73 0 is_stmt 1
 750 041b 660FEFC0 		pxor	%xmm0, %xmm0
 751 041f F30F2A85 		cvtsi2ss	-404(%rbp), %xmm0
 751      6CFEFFFF 
 752 0427 F30F100D 		movss	.LC0(%rip), %xmm1
 752      00000000 
 753 042f F30F5EC1 		divss	%xmm1, %xmm0
 754 0433 488B8548 		movq	-440(%rbp), %rax
 754      FEFFFF
 755 043a 488D5008 		leaq	8(%rax), %rdx
 756 043e 488B8550 		movq	-432(%rbp), %rax
 756      FEFFFF
 757 0445 4889D6   		movq	%rdx, %rsi
 758 0448 4889C7   		movq	%rax, %rdi
 759 044b E8000000 		call	_ZN8UnitTest11TestResults12OnTestFinishERKNS_11TestDetailsEf@PLT
 759      00
 760              	.LEHE16:
 761              	.LBE12:
  74:TestRunner.cpp **** }
 762              		.loc 5 74 0
 763 0450 488B45E8 		movq	-24(%rbp), %rax
 764 0454 64483304 		xorq	%fs:40, %rax
 764      25280000 
 764      00
 765 045d 7424     		je	.L37
 766 045f EB1D     		jmp	.L39
 767              	.L38:
 768 0461 4889C3   		movq	%rax, %rbx
 769              	.LBB17:
 770              	.LBB16:
 771              	.LBB15:
  70:TestRunner.cpp **** 	}
 772              		.loc 5 70 0
 773 0464 488D8580 		leaq	-384(%rbp), %rax
 773      FEFFFF
 774 046b 4889C7   		movq	%rax, %rdi
 775 046e E8000000 		call	_ZN8UnitTest15MemoryOutStreamD1Ev@PLT
 775      00
 776 0473 4889D8   		movq	%rbx, %rax
 777 0476 4889C7   		movq	%rax, %rdi
 778              	.LEHB17:
 779 0479 E8000000 		call	_Unwind_Resume@PLT
 779      00
 780              	.LEHE17:
 781              	.L39:
 782              	.LBE15:
 783              	.LBE16:
 784              	.LBE17:
 785              		.loc 5 74 0
 786 047e E8000000 		call	__stack_chk_fail@PLT
 786      00
 787              	.L37:
 788 0483 4881C4B8 		addq	$440, %rsp
 788      010000
 789 048a 5B       		popq	%rbx
 790 048b 5D       		popq	%rbp
 791              		.cfi_def_cfa 7, 8
 792 048c C3       		ret
 793              		.cfi_endproc
 794              	.LFE1070:
 795              		.section	.gcc_except_table
 796              	.LLSDA1070:
 797 0035 FF       		.byte	0xff
 798 0036 FF       		.byte	0xff
 799 0037 01       		.byte	0x1
 800 0038 15       		.uleb128 .LLSDACSE1070-.LLSDACSB1070
 801              	.LLSDACSB1070:
 802 0039 36       		.uleb128 .LEHB14-.LFB1070
 803 003a B501     		.uleb128 .LEHE14-.LEHB14
 804 003c 00       		.uleb128 0
 805 003d 00       		.uleb128 0
 806 003e FC01     		.uleb128 .LEHB15-.LFB1070
 807 0040 78       		.uleb128 .LEHE15-.LEHB15
 808 0041 C903     		.uleb128 .L38-.LFB1070
 809 0043 00       		.uleb128 0
 810 0044 FE02     		.uleb128 .LEHB16-.LFB1070
 811 0046 3A       		.uleb128 .LEHE16-.LEHB16
 812 0047 00       		.uleb128 0
 813 0048 00       		.uleb128 0
 814 0049 E103     		.uleb128 .LEHB17-.LFB1070
 815 004b 05       		.uleb128 .LEHE17-.LEHB17
 816 004c 00       		.uleb128 0
 817 004d 00       		.uleb128 0
 818              	.LLSDACSE1070:
 819              		.text
 821              		.section	.text._ZNK8UnitTest10TestRunner10RunTestsIfINS_4TrueEEEiRKNS_8TestListEPKcRKT_i,"axG",@pr
 822              		.align 2
 823              		.weak	_ZNK8UnitTest10TestRunner10RunTestsIfINS_4TrueEEEiRKNS_8TestListEPKcRKT_i
 825              	_ZNK8UnitTest10TestRunner10RunTestsIfINS_4TrueEEEiRKNS_8TestListEPKcRKT_i:
 826              	.LFB1098:
  22:TestRunner.h  **** };
  23:TestRunner.h  **** 
  24:TestRunner.h  **** class TestRunner
  25:TestRunner.h  **** {
  26:TestRunner.h  **** public:
  27:TestRunner.h  **** 	explicit TestRunner(TestReporter& reporter);
  28:TestRunner.h  **** 	~TestRunner();
  29:TestRunner.h  **** 
  30:TestRunner.h  **** 	template <class Predicate>
  31:TestRunner.h  **** 	int RunTestsIf(TestList const& list, char const* suiteName, 
 827              		.loc 1 31 0
 828              		.cfi_startproc
 829 0000 55       		pushq	%rbp
 830              		.cfi_def_cfa_offset 16
 831              		.cfi_offset 6, -16
 832 0001 4889E5   		movq	%rsp, %rbp
 833              		.cfi_def_cfa_register 6
 834 0004 4883EC40 		subq	$64, %rsp
 835 0008 48897DE8 		movq	%rdi, -24(%rbp)
 836 000c 488975E0 		movq	%rsi, -32(%rbp)
 837 0010 488955D8 		movq	%rdx, -40(%rbp)
 838 0014 48894DD0 		movq	%rcx, -48(%rbp)
 839 0018 448945CC 		movl	%r8d, -52(%rbp)
 840              	.LBB18:
  32:TestRunner.h  **** 				   const Predicate& predicate, int maxTestTimeInMs) const
  33:TestRunner.h  **** 	{
  34:TestRunner.h  **** 	    Test* curTest = list.GetHead();
 841              		.loc 1 34 0
 842 001c 488B45E0 		movq	-32(%rbp), %rax
 843 0020 4889C7   		movq	%rax, %rdi
 844 0023 E8000000 		call	_ZNK8UnitTest8TestList7GetHeadEv@PLT
 844      00
 845 0028 488945F8 		movq	%rax, -8(%rbp)
  35:TestRunner.h  **** 
  36:TestRunner.h  **** 	    while (curTest != 0)
 846              		.loc 1 36 0
 847 002c EB69     		jmp	.L41
 848              	.L45:
  37:TestRunner.h  **** 	    {
  38:TestRunner.h  **** 		    if (IsTestInSuite(curTest,suiteName) && predicate(curTest))
 849              		.loc 1 38 0
 850 002e 488B55D8 		movq	-40(%rbp), %rdx
 851 0032 488B4DF8 		movq	-8(%rbp), %rcx
 852 0036 488B45E8 		movq	-24(%rbp), %rax
 853 003a 4889CE   		movq	%rcx, %rsi
 854 003d 4889C7   		movq	%rax, %rdi
 855 0040 E8000000 		call	_ZNK8UnitTest10TestRunner13IsTestInSuiteEPKNS_4TestEPKc@PLT
 855      00
 856 0045 84C0     		testb	%al, %al
 857 0047 741E     		je	.L42
 858              		.loc 1 38 0 is_stmt 0 discriminator 1
 859 0049 488B55F8 		movq	-8(%rbp), %rdx
 860 004d 488B45D0 		movq	-48(%rbp), %rax
 861 0051 4889D6   		movq	%rdx, %rsi
 862 0054 4889C7   		movq	%rax, %rdi
 863 0057 E8000000 		call	_ZNK8UnitTest4TrueclEPKNS_4TestE@PLT
 863      00
 864 005c 84C0     		testb	%al, %al
 865 005e 7407     		je	.L42
 866              		.loc 1 38 0 discriminator 3
 867 0060 B8010000 		movl	$1, %eax
 867      00
 868 0065 EB05     		jmp	.L43
 869              	.L42:
 870              		.loc 1 38 0 discriminator 4
 871 0067 B8000000 		movl	$0, %eax
 871      00
 872              	.L43:
 873              		.loc 1 38 0 discriminator 6
 874 006c 84C0     		testb	%al, %al
 875 006e 741B     		je	.L44
  39:TestRunner.h  **** 			{
  40:TestRunner.h  **** 				RunTest(m_result, curTest, maxTestTimeInMs);
 876              		.loc 1 40 0 is_stmt 1
 877 0070 488B45E8 		movq	-24(%rbp), %rax
 878 0074 488B7008 		movq	8(%rax), %rsi
 879 0078 8B4DCC   		movl	-52(%rbp), %ecx
 880 007b 488B55F8 		movq	-8(%rbp), %rdx
 881 007f 488B45E8 		movq	-24(%rbp), %rax
 882 0083 4889C7   		movq	%rax, %rdi
 883 0086 E8000000 		call	_ZNK8UnitTest10TestRunner7RunTestEPNS_11TestResultsEPNS_4TestEi@PLT
 883      00
 884              	.L44:
  41:TestRunner.h  **** 			}
  42:TestRunner.h  **** 
  43:TestRunner.h  **** 			curTest = curTest->next;
 885              		.loc 1 43 0
 886 008b 488B45F8 		movq	-8(%rbp), %rax
 887 008f 488B4028 		movq	40(%rax), %rax
 888 0093 488945F8 		movq	%rax, -8(%rbp)
 889              	.L41:
  36:TestRunner.h  **** 	    {
 890              		.loc 1 36 0
 891 0097 48837DF8 		cmpq	$0, -8(%rbp)
 891      00
 892 009c 7590     		jne	.L45
  44:TestRunner.h  **** 	    }
  45:TestRunner.h  **** 
  46:TestRunner.h  **** 	    return Finish();
 893              		.loc 1 46 0
 894 009e 488B45E8 		movq	-24(%rbp), %rax
 895 00a2 4889C7   		movq	%rax, %rdi
 896 00a5 E8000000 		call	_ZNK8UnitTest10TestRunner6FinishEv@PLT
 896      00
 897              	.LBE18:
  47:TestRunner.h  **** 	}	
 898              		.loc 1 47 0
 899 00aa C9       		leave
 900              		.cfi_def_cfa 7, 8
 901 00ab C3       		ret
 902              		.cfi_endproc
 903              	.LFE1098:
 905              		.weak	_ZTVN8UnitTest15MemoryOutStreamE
 906              		.section	.data.rel.ro._ZTVN8UnitTest15MemoryOutStreamE,"awG",@progbits,_ZTVN8UnitTest15MemoryOutSt
 907              		.align 64
 910              	_ZTVN8UnitTest15MemoryOutStreamE:
 911 0000 60000000 		.quad	96
 911      00000000 
 912 0008 00000000 		.quad	0
 912      00000000 
 913 0010 00000000 		.quad	_ZTIN8UnitTest15MemoryOutStreamE
 913      00000000 
 914 0018 00000000 		.quad	_ZN8UnitTest15MemoryOutStreamD1Ev
 914      00000000 
 915 0020 00000000 		.quad	_ZN8UnitTest15MemoryOutStreamD0Ev
 915      00000000 
 916 0028 A0FFFFFF 		.quad	-96
 916      FFFFFFFF 
 917 0030 A0FFFFFF 		.quad	-96
 917      FFFFFFFF 
 918 0038 00000000 		.quad	_ZTIN8UnitTest15MemoryOutStreamE
 918      00000000 
 919 0040 00000000 		.quad	_ZTv0_n24_N8UnitTest15MemoryOutStreamD1Ev
 919      00000000 
 920 0048 00000000 		.quad	_ZTv0_n24_N8UnitTest15MemoryOutStreamD0Ev
 920      00000000 
 921              		.section	.text._ZN8UnitTest15MemoryOutStreamD1Ev,"axG",@progbits,_ZN8UnitTest15MemoryOutStreamD1Ev
 922              		.align 2
 923              		.weak	_ZN8UnitTest15MemoryOutStreamD1Ev
 925              	_ZN8UnitTest15MemoryOutStreamD1Ev:
 926              	.LFB1149:
  13:MemoryOutStream.h **** {
 927              		.loc 2 13 0
 928              		.cfi_startproc
 929              		.cfi_personality 0x9b,DW.ref.__gxx_personality_v0
 930              		.cfi_lsda 0x1b,.LLSDA1149
 931 0000 55       		pushq	%rbp
 932              		.cfi_def_cfa_offset 16
 933              		.cfi_offset 6, -16
 934 0001 4889E5   		movq	%rsp, %rbp
 935              		.cfi_def_cfa_register 6
 936 0004 53       		pushq	%rbx
 937 0005 4883EC18 		subq	$24, %rsp
 938              		.cfi_offset 3, -24
 939 0009 48897DE8 		movq	%rdi, -24(%rbp)
 940              	.LBB19:
  13:MemoryOutStream.h **** {
 941              		.loc 2 13 0
 942 000d 488B0500 		movq	_ZTVN8UnitTest15MemoryOutStreamE@GOTPCREL(%rip), %rax
 942      000000
 943 0014 488D5018 		leaq	24(%rax), %rdx
 944 0018 488B45E8 		movq	-24(%rbp), %rax
 945 001c 488910   		movq	%rdx, (%rax)
 946 001f BA600000 		movl	$96, %edx
 946      00
 947 0024 488B45E8 		movq	-24(%rbp), %rax
 948 0028 4801C2   		addq	%rax, %rdx
 949 002b 488B0500 		movq	_ZTVN8UnitTest15MemoryOutStreamE@GOTPCREL(%rip), %rax
 949      000000
 950 0032 488D4040 		leaq	64(%rax), %rax
 951 0036 488902   		movq	%rax, (%rdx)
 952 0039 488B45E8 		movq	-24(%rbp), %rax
 953 003d 4883C058 		addq	$88, %rax
 954 0041 4889C7   		movq	%rax, %rdi
 955              	.LEHB18:
 956 0044 E8000000 		call	_ZNSsD1Ev@PLT
 956      00
 957              	.LEHE18:
  13:MemoryOutStream.h **** {
 958              		.loc 2 13 0 is_stmt 0 discriminator 14
 959 0049 488B0500 		movq	_ZTTN8UnitTest15MemoryOutStreamE@GOTPCREL(%rip), %rax
 959      000000
 960 0050 488D5008 		leaq	8(%rax), %rdx
 961 0054 488B45E8 		movq	-24(%rbp), %rax
 962 0058 4889D6   		movq	%rdx, %rsi
 963 005b 4889C7   		movq	%rax, %rdi
 964              	.LEHB19:
 965 005e E8000000 		call	_ZNSt19basic_ostringstreamIcSt11char_traitsIcESaIcEED2Ev@PLT
 965      00
 966              	.LEHE19:
  13:MemoryOutStream.h **** {
 967              		.loc 2 13 0 discriminator 20
 968 0063 B8020000 		movl	$2, %eax
 968      00
 969 0068 85C0     		testl	%eax, %eax
 970 006a 7410     		je	.L49
  13:MemoryOutStream.h **** {
 971              		.loc 2 13 0 discriminator 21
 972 006c 488B45E8 		movq	-24(%rbp), %rax
 973 0070 4883C060 		addq	$96, %rax
 974 0074 4889C7   		movq	%rax, %rdi
 975              	.LEHB20:
 976 0077 E8000000 		call	_ZNSt9basic_iosIcSt11char_traitsIcEED2Ev@PLT
 976      00
 977              	.LEHE20:
 978              	.L49:
 979              	.LBE19:
  13:MemoryOutStream.h **** {
 980              		.loc 2 13 0 discriminator 24
 981 007c B8000000 		movl	$0, %eax
 981      00
 982 0081 85C0     		testl	%eax, %eax
 983 0083 7454     		je	.L56
  13:MemoryOutStream.h **** {
 984              		.loc 2 13 0 discriminator 25
 985 0085 488B45E8 		movq	-24(%rbp), %rax
 986 0089 4889C7   		movq	%rax, %rdi
 987 008c E8000000 		call	_ZdlPv@PLT
 987      00
 988 0091 EB46     		jmp	.L56
 989              	.L54:
 990 0093 4889C3   		movq	%rax, %rbx
 991              	.LBB20:
  13:MemoryOutStream.h **** {
 992              		.loc 2 13 0
 993 0096 488B0500 		movq	_ZTTN8UnitTest15MemoryOutStreamE@GOTPCREL(%rip), %rax
 993      000000
 994 009d 488D5008 		leaq	8(%rax), %rdx
 995 00a1 488B45E8 		movq	-24(%rbp), %rax
 996 00a5 4889D6   		movq	%rdx, %rsi
 997 00a8 4889C7   		movq	%rax, %rdi
 998 00ab E8000000 		call	_ZNSt19basic_ostringstreamIcSt11char_traitsIcESaIcEED2Ev@PLT
 998      00
 999 00b0 EB03     		jmp	.L52
 1000              	.L55:
 1001 00b2 4889C3   		movq	%rax, %rbx
 1002              	.L52:
  13:MemoryOutStream.h **** {
 1003              		.loc 2 13 0 discriminator 19
 1004 00b5 B8020000 		movl	$2, %eax
 1004      00
 1005 00ba 85C0     		testl	%eax, %eax
 1006 00bc 7410     		je	.L53
  13:MemoryOutStream.h **** {
 1007              		.loc 2 13 0 discriminator 32
 1008 00be 488B45E8 		movq	-24(%rbp), %rax
 1009 00c2 4883C060 		addq	$96, %rax
 1010 00c6 4889C7   		movq	%rax, %rdi
 1011 00c9 E8000000 		call	_ZNSt9basic_iosIcSt11char_traitsIcEED2Ev@PLT
 1011      00
 1012              	.L53:
 1013 00ce 4889D8   		movq	%rbx, %rax
 1014 00d1 4889C7   		movq	%rax, %rdi
 1015              	.LEHB21:
 1016 00d4 E8000000 		call	_Unwind_Resume@PLT
 1016      00
 1017              	.LEHE21:
 1018              	.L56:
 1019              	.LBE20:
  13:MemoryOutStream.h **** {
 1020              		.loc 2 13 0
 1021 00d9 4883C418 		addq	$24, %rsp
 1022 00dd 5B       		popq	%rbx
 1023 00de 5D       		popq	%rbp
 1024              		.cfi_def_cfa 7, 8
 1025 00df C3       		ret
 1026              		.cfi_endproc
 1027              	.LFE1149:
 1028              		.section	.gcc_except_table
 1029              	.LLSDA1149:
 1030 004e FF       		.byte	0xff
 1031 004f FF       		.byte	0xff
 1032 0050 01       		.byte	0x1
 1033 0051 13       		.uleb128 .LLSDACSE1149-.LLSDACSB1149
 1034              	.LLSDACSB1149:
 1035 0052 44       		.uleb128 .LEHB18-.LFB1149
 1036 0053 05       		.uleb128 .LEHE18-.LEHB18
 1037 0054 9301     		.uleb128 .L54-.LFB1149
 1038 0056 00       		.uleb128 0
 1039 0057 5E       		.uleb128 .LEHB19-.LFB1149
 1040 0058 05       		.uleb128 .LEHE19-.LEHB19
 1041 0059 B201     		.uleb128 .L55-.LFB1149
 1042 005b 00       		.uleb128 0
 1043 005c 77       		.uleb128 .LEHB20-.LFB1149
 1044 005d 05       		.uleb128 .LEHE20-.LEHB20
 1045 005e 00       		.uleb128 0
 1046 005f 00       		.uleb128 0
 1047 0060 D401     		.uleb128 .LEHB21-.LFB1149
 1048 0062 05       		.uleb128 .LEHE21-.LEHB21
 1049 0063 00       		.uleb128 0
 1050 0064 00       		.uleb128 0
 1051              	.LLSDACSE1149:
 1052              		.section	.text._ZN8UnitTest15MemoryOutStreamD1Ev,"axG",@progbits,_ZN8UnitTest15MemoryOutStreamD1Ev
 1054              		.set	.LTHUNK0,_ZN8UnitTest15MemoryOutStreamD1Ev
 1055              		.weak	_ZTv0_n24_N8UnitTest15MemoryOutStreamD1Ev
 1057              	_ZTv0_n24_N8UnitTest15MemoryOutStreamD1Ev:
 1058              	.LFB1155:
  13:MemoryOutStream.h **** {
 1059              		.loc 2 13 0 is_stmt 1
 1060              		.cfi_startproc
 1061 00e0 4C8B17   		movq	(%rdi), %r10
 1062 00e3 49037AE8 		addq	-24(%r10), %rdi
 1063 00e7 E914FFFF 		jmp	.LTHUNK0
 1063      FF
 1064              		.cfi_endproc
 1065              	.LFE1155:
 1067              		.section	.text._ZN8UnitTest15MemoryOutStreamD0Ev,"axG",@progbits,_ZN8UnitTest15MemoryOutStreamD0Ev
 1068              		.align 2
 1069              		.weak	_ZN8UnitTest15MemoryOutStreamD0Ev
 1071              	_ZN8UnitTest15MemoryOutStreamD0Ev:
 1072              	.LFB1150:
  13:MemoryOutStream.h **** {
 1073              		.loc 2 13 0
 1074              		.cfi_startproc
 1075 0000 55       		pushq	%rbp
 1076              		.cfi_def_cfa_offset 16
 1077              		.cfi_offset 6, -16
 1078 0001 4889E5   		movq	%rsp, %rbp
 1079              		.cfi_def_cfa_register 6
 1080 0004 4883EC10 		subq	$16, %rsp
 1081 0008 48897DF8 		movq	%rdi, -8(%rbp)
  13:MemoryOutStream.h **** {
 1082              		.loc 2 13 0
 1083 000c 488B45F8 		movq	-8(%rbp), %rax
 1084 0010 4889C7   		movq	%rax, %rdi
 1085 0013 E8000000 		call	_ZN8UnitTest15MemoryOutStreamD1Ev@PLT
 1085      00
 1086 0018 488B45F8 		movq	-8(%rbp), %rax
 1087 001c 4889C7   		movq	%rax, %rdi
 1088 001f E8000000 		call	_ZdlPv@PLT
 1088      00
 1089 0024 C9       		leave
 1090              		.cfi_def_cfa 7, 8
 1091 0025 C3       		ret
 1092              		.cfi_endproc
 1093              	.LFE1150:
 1095              		.set	.LTHUNK1,_ZN8UnitTest15MemoryOutStreamD0Ev
 1096              		.weak	_ZTv0_n24_N8UnitTest15MemoryOutStreamD0Ev
 1098              	_ZTv0_n24_N8UnitTest15MemoryOutStreamD0Ev:
 1099              	.LFB1156:
  13:MemoryOutStream.h **** {
 1100              		.loc 2 13 0
 1101              		.cfi_startproc
 1102 0026 4C8B17   		movq	(%rdi), %r10
 1103 0029 49037AE8 		addq	-24(%r10), %rdi
 1104 002d EBD1     		jmp	.LTHUNK1
 1105              		.cfi_endproc
 1106              	.LFE1156:
 1108              		.weak	_ZTTN8UnitTest15MemoryOutStreamE
 1109              		.section	.data.rel.ro._ZTTN8UnitTest15MemoryOutStreamE,"awG",@progbits,_ZTVN8UnitTest15MemoryOutSt
 1110              		.align 32
 1113              	_ZTTN8UnitTest15MemoryOutStreamE:
 1114 0000 00000000 		.quad	_ZTVN8UnitTest15MemoryOutStreamE+24
 1114      00000000 
 1115 0008 00000000 		.quad	_ZTCN8UnitTest15MemoryOutStreamE0_St19basic_ostringstreamIcSt11char_traitsIcESaIcEE+24
 1115      00000000 
 1116 0010 00000000 		.quad	_ZTCN8UnitTest15MemoryOutStreamE0_So+24
 1116      00000000 
 1117 0018 00000000 		.quad	_ZTCN8UnitTest15MemoryOutStreamE0_So+64
 1117      00000000 
 1118 0020 00000000 		.quad	_ZTCN8UnitTest15MemoryOutStreamE0_St19basic_ostringstreamIcSt11char_traitsIcESaIcEE+64
 1118      00000000 
 1119 0028 00000000 		.quad	_ZTVN8UnitTest15MemoryOutStreamE+64
 1119      00000000 
 1120              		.hidden	_ZTCN8UnitTest15MemoryOutStreamE0_St19basic_ostringstreamIcSt11char_traitsIcESaIcEE
 1121              		.weak	_ZTCN8UnitTest15MemoryOutStreamE0_St19basic_ostringstreamIcSt11char_traitsIcESaIcEE
 1122              		.section	.data.rel.ro._ZTCN8UnitTest15MemoryOutStreamE0_St19basic_ostringstreamIcSt11char_traitsIc
 1123              		.align 64
 1126              	_ZTCN8UnitTest15MemoryOutStreamE0_St19basic_ostringstreamIcSt11char_traitsIcESaIcEE:
 1127 0000 60000000 		.quad	96
 1127      00000000 
 1128 0008 00000000 		.quad	0
 1128      00000000 
 1129 0010 00000000 		.quad	_ZTISt19basic_ostringstreamIcSt11char_traitsIcESaIcEE
 1129      00000000 
 1130 0018 00000000 		.quad	0
 1130      00000000 
 1131 0020 00000000 		.quad	0
 1131      00000000 
 1132 0028 A0FFFFFF 		.quad	-96
 1132      FFFFFFFF 
 1133 0030 A0FFFFFF 		.quad	-96
 1133      FFFFFFFF 
 1134 0038 00000000 		.quad	_ZTISt19basic_ostringstreamIcSt11char_traitsIcESaIcEE
 1134      00000000 
 1135 0040 00000000 		.quad	0
 1135      00000000 
 1136 0048 00000000 		.quad	0
 1136      00000000 
 1137              		.hidden	_ZTCN8UnitTest15MemoryOutStreamE0_So
 1138              		.weak	_ZTCN8UnitTest15MemoryOutStreamE0_So
 1139              		.section	.data.rel.ro._ZTCN8UnitTest15MemoryOutStreamE0_So,"awG",@progbits,_ZTVN8UnitTest15MemoryO
 1140              		.align 64
 1143              	_ZTCN8UnitTest15MemoryOutStreamE0_So:
 1144 0000 60000000 		.quad	96
 1144      00000000 
 1145 0008 00000000 		.quad	0
 1145      00000000 
 1146 0010 00000000 		.quad	_ZTISo
 1146      00000000 
 1147 0018 00000000 		.quad	0
 1147      00000000 
 1148 0020 00000000 		.quad	0
 1148      00000000 
 1149 0028 A0FFFFFF 		.quad	-96
 1149      FFFFFFFF 
 1150 0030 A0FFFFFF 		.quad	-96
 1150      FFFFFFFF 
 1151 0038 00000000 		.quad	_ZTISo
 1151      00000000 
 1152 0040 00000000 		.quad	0
 1152      00000000 
 1153 0048 00000000 		.quad	0
 1153      00000000 
 1154              		.weak	_ZTSN8UnitTest15MemoryOutStreamE
 1155              		.section	.rodata._ZTSN8UnitTest15MemoryOutStreamE,"aG",@progbits,_ZTSN8UnitTest15MemoryOutStreamE,
 1156              		.align 16
 1159              	_ZTSN8UnitTest15MemoryOutStreamE:
 1160 0000 4E38556E 		.string	"N8UnitTest15MemoryOutStreamE"
 1160      69745465 
 1160      73743135 
 1160      4D656D6F 
 1160      72794F75 
 1161              		.weak	_ZTIN8UnitTest15MemoryOutStreamE
 1162              		.section	.data.rel.ro._ZTIN8UnitTest15MemoryOutStreamE,"awG",@progbits,_ZTIN8UnitTest15MemoryOutSt
 1163              		.align 16
 1166              	_ZTIN8UnitTest15MemoryOutStreamE:
 1167 0000 00000000 		.quad	_ZTVN10__cxxabiv120__si_class_type_infoE+16
 1167      00000000 
 1168 0008 00000000 		.quad	_ZTSN8UnitTest15MemoryOutStreamE
 1168      00000000 
 1169 0010 00000000 		.quad	_ZTISt19basic_ostringstreamIcSt11char_traitsIcESaIcEE
 1169      00000000 
 1170              		.section	.text._ZN8UnitTest18TestReporterStdoutD2Ev,"axG",@progbits,_ZN8UnitTest18TestReporterStdo
 1171              		.align 2
 1172              		.weak	_ZN8UnitTest18TestReporterStdoutD2Ev
 1174              	_ZN8UnitTest18TestReporterStdoutD2Ev:
 1175              	.LFB1152:
 1176              		.loc 4 8 0
 1177              		.cfi_startproc
 1178 0000 55       		pushq	%rbp
 1179              		.cfi_def_cfa_offset 16
 1180              		.cfi_offset 6, -16
 1181 0001 4889E5   		movq	%rsp, %rbp
 1182              		.cfi_def_cfa_register 6
 1183 0004 4883EC10 		subq	$16, %rsp
 1184 0008 48897DF8 		movq	%rdi, -8(%rbp)
 1185              	.LBB21:
 1186              		.loc 4 8 0
 1187 000c 488B45F8 		movq	-8(%rbp), %rax
 1188 0010 488B1500 		movq	_ZTVN8UnitTest18TestReporterStdoutE@GOTPCREL(%rip), %rdx
 1188      000000
 1189 0017 488D5210 		leaq	16(%rdx), %rdx
 1190 001b 488910   		movq	%rdx, (%rax)
 1191 001e 488B45F8 		movq	-8(%rbp), %rax
 1192 0022 4889C7   		movq	%rax, %rdi
 1193 0025 E8000000 		call	_ZN8UnitTest12TestReporterD2Ev@PLT
 1193      00
 1194              	.LBE21:
 1195 002a B8000000 		movl	$0, %eax
 1195      00
 1196 002f 85C0     		testl	%eax, %eax
 1197 0031 740C     		je	.L59
 1198              		.loc 4 8 0 is_stmt 0 discriminator 4
 1199 0033 488B45F8 		movq	-8(%rbp), %rax
 1200 0037 4889C7   		movq	%rax, %rdi
 1201 003a E8000000 		call	_ZdlPv@PLT
 1201      00
 1202              	.L59:
 1203              		.loc 4 8 0
 1204 003f C9       		leave
 1205              		.cfi_def_cfa 7, 8
 1206 0040 C3       		ret
 1207              		.cfi_endproc
 1208              	.LFE1152:
 1210              		.weak	_ZN8UnitTest18TestReporterStdoutD1Ev
 1211              		.set	_ZN8UnitTest18TestReporterStdoutD1Ev,_ZN8UnitTest18TestReporterStdoutD2Ev
 1212              		.section	.text._ZN8UnitTest18TestReporterStdoutD0Ev,"axG",@progbits,_ZN8UnitTest18TestReporterStdo
 1213              		.align 2
 1214              		.weak	_ZN8UnitTest18TestReporterStdoutD0Ev
 1216              	_ZN8UnitTest18TestReporterStdoutD0Ev:
 1217              	.LFB1154:
 1218              		.loc 4 8 0 is_stmt 1
 1219              		.cfi_startproc
 1220 0000 55       		pushq	%rbp
 1221              		.cfi_def_cfa_offset 16
 1222              		.cfi_offset 6, -16
 1223 0001 4889E5   		movq	%rsp, %rbp
 1224              		.cfi_def_cfa_register 6
 1225 0004 4883EC10 		subq	$16, %rsp
 1226 0008 48897DF8 		movq	%rdi, -8(%rbp)
 1227              		.loc 4 8 0
 1228 000c 488B45F8 		movq	-8(%rbp), %rax
 1229 0010 4889C7   		movq	%rax, %rdi
 1230 0013 E8000000 		call	_ZN8UnitTest18TestReporterStdoutD1Ev@PLT
 1230      00
 1231 0018 488B45F8 		movq	-8(%rbp), %rax
 1232 001c 4889C7   		movq	%rax, %rdi
 1233 001f E8000000 		call	_ZdlPv@PLT
 1233      00
 1234 0024 C9       		leave
 1235              		.cfi_def_cfa 7, 8
 1236 0025 C3       		ret
 1237              		.cfi_endproc
 1238              	.LFE1154:
 1240              		.section	.data.rel.ro,"aw",@progbits
 1241              		.align 8
 1244              	_ZZL18__gthread_active_pvE20__gthread_active_ptr:
 1245 0000 00000000 		.quad	_ZL28__gthrw___pthread_key_createPjPFvPvE
 1245      00000000 
 1246              		.weakref	_ZL28__gthrw___pthread_key_createPjPFvPvE,__pthread_key_create
 1247              		.section	.rodata
 1248              		.align 4
 1249              	.LC0:
 1250 0040 00007A44 		.long	1148846080
 1251              		.text
 1252              	.Letext0:
 1253              		.file 6 "TestDetails.h"
 1254              		.file 7 "TestList.h"
 1255              		.file 8 "TestResults.h"
 1256              		.file 9 "PosixUtils/TimeHelpers.h"
 1257              		.file 10 "/usr/include/x86_64-linux-gnu/bits/types.h"
 1258              		.file 11 "/usr/include/x86_64-linux-gnu/bits/time.h"
 1259              		.file 12 "/usr/include/stdio.h"
 1260              		.file 13 "<built-in>"
 1261              		.file 14 "/usr/lib/gcc/x86_64-linux-gnu/4.9/include/stddef.h"
 1262              		.file 15 "/usr/include/wchar.h"
 1263              		.file 16 "/usr/include/c++/4.9/cwchar"
 1264              		.file 17 "/usr/include/c++/4.9/bits/char_traits.h"
 1265              		.file 18 "/usr/include/x86_64-linux-gnu/c++/4.9/bits/c++config.h"
 1266              		.file 19 "/usr/include/c++/4.9/clocale"
 1267              		.file 20 "/usr/include/c++/4.9/bits/allocator.h"
 1268              		.file 21 "/usr/include/c++/4.9/bits/basic_string.h"
 1269              		.file 22 "/usr/include/c++/4.9/bits/basic_string.tcc"
 1270              		.file 23 "/usr/include/c++/4.9/bits/stringfwd.h"
 1271              		.file 24 "/usr/include/c++/4.9/cwctype"
 1272              		.file 25 "/usr/include/c++/4.9/cstring"
 1273              		.file 26 "/usr/include/time.h"
 1274              		.file 27 "/usr/include/c++/4.9/debug/debug.h"
 1275              		.file 28 "/usr/include/c++/4.9/bits/predefined_ops.h"
 1276              		.file 29 "/usr/include/c++/4.9/ext/new_allocator.h"
 1277              		.file 30 "/usr/include/c++/4.9/ext/numeric_traits.h"
 1278              		.file 31 "/usr/include/locale.h"
 1279              		.file 32 "/usr/include/x86_64-linux-gnu/c++/4.9/bits/atomic_word.h"
 1280              		.file 33 "/usr/include/wctype.h"
 1281              		.file 34 "/usr/include/string.h"
 10143              		.align 8
 10146              	DW.ref.__gxx_personality_v0:
 10147 0000 00000000 		.quad	__gxx_personality_v0
 10147      00000000 
 10148              		.ident	"GCC: (Ubuntu 4.9.2-10ubuntu13) 4.9.2"
 10149              		.section	.note.GNU-stack,"",@progbits
DEFINED SYMBOLS
                            *ABS*:0000000000000000 TestRunner.cpp
     /tmp/ccbUw2Sc.s:8      .text._ZNK8UnitTest4TrueclEPKNS_4TestE:0000000000000000 _ZNK8UnitTest4TrueclEPKNS_4TestE
     /tmp/ccbUw2Sc.s:33     .text._ZN8UnitTest15MemoryOutStreamC1Ev:0000000000000000 _ZN8UnitTest15MemoryOutStreamC1Ev
     /tmp/ccbUw2Sc.s:10146  .data.DW.ref.__gxx_personality_v0:0000000000000000 DW.ref.__gxx_personality_v0
     /tmp/ccbUw2Sc.s:1113   .data.rel.ro._ZTTN8UnitTest15MemoryOutStreamE:0000000000000000 _ZTTN8UnitTest15MemoryOutStreamE
     /tmp/ccbUw2Sc.s:910    .data.rel.ro._ZTVN8UnitTest15MemoryOutStreamE:0000000000000000 _ZTVN8UnitTest15MemoryOutStreamE
     /tmp/ccbUw2Sc.s:150    .text._ZN8UnitTest12TestReporterC2Ev:0000000000000000 _ZN8UnitTest12TestReporterC2Ev
     /tmp/ccbUw2Sc.s:150    .text._ZN8UnitTest12TestReporterC2Ev:0000000000000000 _ZN8UnitTest12TestReporterC1Ev
     /tmp/ccbUw2Sc.s:180    .text._ZN8UnitTest18TestReporterStdoutC2Ev:0000000000000000 _ZN8UnitTest18TestReporterStdoutC2Ev
     /tmp/ccbUw2Sc.s:180    .text._ZN8UnitTest18TestReporterStdoutC2Ev:0000000000000000 _ZN8UnitTest18TestReporterStdoutC1Ev
     /tmp/ccbUw2Sc.s:213    .text:0000000000000000 _ZN8UnitTest11RunAllTestsEv
     /tmp/ccbUw2Sc.s:343    .text:00000000000000c2 _ZN8UnitTest10TestRunnerC1ERNS_12TestReporterE
     /tmp/ccbUw2Sc.s:825    .text._ZNK8UnitTest10TestRunner10RunTestsIfINS_4TrueEEEiRKNS_8TestListEPKcRKT_i:0000000000000000 _ZNK8UnitTest10TestRunner10RunTestsIfINS_4TrueEEEiRKNS_8TestListEPKcRKT_i
     /tmp/ccbUw2Sc.s:463    .text:0000000000000168 _ZN8UnitTest10TestRunnerD1Ev
     /tmp/ccbUw2Sc.s:1174   .text._ZN8UnitTest18TestReporterStdoutD2Ev:0000000000000000 _ZN8UnitTest18TestReporterStdoutD1Ev
     /tmp/ccbUw2Sc.s:343    .text:00000000000000c2 _ZN8UnitTest10TestRunnerC2ERNS_12TestReporterE
     /tmp/ccbUw2Sc.s:463    .text:0000000000000168 _ZN8UnitTest10TestRunnerD2Ev
     /tmp/ccbUw2Sc.s:498    .text:0000000000000196 _ZNK8UnitTest10TestRunner6FinishEv
     /tmp/ccbUw2Sc.s:577    .text:0000000000000254 _ZNK8UnitTest10TestRunner13IsTestInSuiteEPKNS_4TestEPKc
     /tmp/ccbUw2Sc.s:631    .text:0000000000000298 _ZNK8UnitTest10TestRunner7RunTestEPNS_11TestResultsEPNS_4TestEi
     /tmp/ccbUw2Sc.s:925    .text._ZN8UnitTest15MemoryOutStreamD1Ev:0000000000000000 _ZN8UnitTest15MemoryOutStreamD1Ev
     /tmp/ccbUw2Sc.s:1166   .data.rel.ro._ZTIN8UnitTest15MemoryOutStreamE:0000000000000000 _ZTIN8UnitTest15MemoryOutStreamE
     /tmp/ccbUw2Sc.s:1071   .text._ZN8UnitTest15MemoryOutStreamD0Ev:0000000000000000 _ZN8UnitTest15MemoryOutStreamD0Ev
     /tmp/ccbUw2Sc.s:1057   .text._ZN8UnitTest15MemoryOutStreamD1Ev:00000000000000e0 _ZTv0_n24_N8UnitTest15MemoryOutStreamD1Ev
     /tmp/ccbUw2Sc.s:1098   .text._ZN8UnitTest15MemoryOutStreamD0Ev:0000000000000026 _ZTv0_n24_N8UnitTest15MemoryOutStreamD0Ev
     /tmp/ccbUw2Sc.s:1126   .data.rel.ro._ZTCN8UnitTest15MemoryOutStreamE0_St19basic_ostringstreamIcSt11char_traitsIcESaIcEE:0000000000000000 _ZTCN8UnitTest15MemoryOutStreamE0_St19basic_ostringstreamIcSt11char_traitsIcESaIcEE
     /tmp/ccbUw2Sc.s:1143   .data.rel.ro._ZTCN8UnitTest15MemoryOutStreamE0_So:0000000000000000 _ZTCN8UnitTest15MemoryOutStreamE0_So
     /tmp/ccbUw2Sc.s:1159   .rodata._ZTSN8UnitTest15MemoryOutStreamE:0000000000000000 _ZTSN8UnitTest15MemoryOutStreamE
     /tmp/ccbUw2Sc.s:1174   .text._ZN8UnitTest18TestReporterStdoutD2Ev:0000000000000000 _ZN8UnitTest18TestReporterStdoutD2Ev
     /tmp/ccbUw2Sc.s:1216   .text._ZN8UnitTest18TestReporterStdoutD0Ev:0000000000000000 _ZN8UnitTest18TestReporterStdoutD0Ev
     /tmp/ccbUw2Sc.s:1244   .data.rel.ro:0000000000000000 _ZZL18__gthread_active_pvE20__gthread_active_ptr
                           .group:0000000000000000 _ZN8UnitTest12TestReporterC5Ev
                           .group:0000000000000000 _ZN8UnitTest18TestReporterStdoutC5Ev
                           .group:0000000000000000 _ZN8UnitTest18TestReporterStdoutD5Ev

UNDEFINED SYMBOLS
_GLOBAL_OFFSET_TABLE_
_ZNSt9basic_iosIcSt11char_traitsIcEEC2Ev
_ZNSt19basic_ostringstreamIcSt11char_traitsIcESaIcEEC2ESt13_Ios_Openmode
_ZNSsC1Ev
_ZNSt19basic_ostringstreamIcSt11char_traitsIcESaIcEED2Ev
_ZNSt9basic_iosIcSt11char_traitsIcEED2Ev
_Unwind_Resume
__gxx_personality_v0
_ZTVN8UnitTest12TestReporterE
_ZTVN8UnitTest18TestReporterStdoutE
_ZN8UnitTest4Test11GetTestListEv
__stack_chk_fail
_Znwm
_ZN8UnitTest11TestResultsC1EPNS_12TestReporterE
_ZN8UnitTest5TimerC1Ev
_ZN8UnitTest5Timer5StartEv
_ZdlPv
_ZNK8UnitTest5Timer11GetTimeInMsEv
_ZNK8UnitTest11TestResults15GetFailureCountEv
_ZNK8UnitTest11TestResults18GetFailedTestCountEv
_ZNK8UnitTest11TestResults17GetTotalTestCountEv
strcmp
_ZN8UnitTest11CurrentTest7ResultsEv
_ZN8UnitTest11TestResults11OnTestStartERKNS_11TestDetailsE
_ZN8UnitTest4Test3RunEv
_ZStlsISt11char_traitsIcEERSt13basic_ostreamIcT_ES5_PKc
_ZNSolsEi
_ZNK8UnitTest15MemoryOutStream7GetTextEv
_ZN8UnitTest11TestResults13OnTestFailureERKNS_11TestDetailsEPKc
_ZN8UnitTest11TestResults12OnTestFinishERKNS_11TestDetailsEf
_ZNK8UnitTest8TestList7GetHeadEv
_ZNSsD1Ev
_ZTISt19basic_ostringstreamIcSt11char_traitsIcESaIcEE
_ZTISo
_ZTVN10__cxxabiv120__si_class_type_infoE
_ZN8UnitTest12TestReporterD2Ev
__pthread_key_create
