   1              		.file	"Test.cpp"
   2              		.text
   3              	.Ltext0:
   4              		.section	.text._ZN8UnitTest15MemoryOutStreamC1Ev,"axG",@progbits,_ZN8UnitTest15MemoryOutStreamC1Ev
   5              		.align 2
   6              		.weak	_ZN8UnitTest15MemoryOutStreamC1Ev
   8              	_ZN8UnitTest15MemoryOutStreamC1Ev:
   9              	.LFB1052:
  10              		.file 1 "MemoryOutStream.h"
   1:MemoryOutStream.h **** #ifndef UNITTEST_MEMORYOUTSTREAM_H
   2:MemoryOutStream.h **** #define UNITTEST_MEMORYOUTSTREAM_H
   3:MemoryOutStream.h **** 
   4:MemoryOutStream.h **** #include "Config.h"
   5:MemoryOutStream.h **** 
   6:MemoryOutStream.h **** #ifndef UNITTEST_USE_CUSTOM_STREAMS
   7:MemoryOutStream.h **** 
   8:MemoryOutStream.h **** #include <sstream>
   9:MemoryOutStream.h **** 
  10:MemoryOutStream.h **** namespace UnitTest
  11:MemoryOutStream.h **** {
  12:MemoryOutStream.h **** 
  13:MemoryOutStream.h **** class MemoryOutStream : public std::ostringstream
  14:MemoryOutStream.h **** {
  15:MemoryOutStream.h **** public:
  16:MemoryOutStream.h ****     MemoryOutStream() {}
  11              		.loc 1 16 0
  12              		.cfi_startproc
  13              		.cfi_personality 0x9b,DW.ref.__gxx_personality_v0
  14              		.cfi_lsda 0x1b,.LLSDA1052
  15 0000 55       		pushq	%rbp
  16              		.cfi_def_cfa_offset 16
  17              		.cfi_offset 6, -16
  18 0001 4889E5   		movq	%rsp, %rbp
  19              		.cfi_def_cfa_register 6
  20 0004 53       		pushq	%rbx
  21 0005 4883EC18 		subq	$24, %rsp
  22              		.cfi_offset 3, -24
  23 0009 48897DE8 		movq	%rdi, -24(%rbp)
  24              	.LBB2:
  25              		.loc 1 16 0
  26 000d 488B45E8 		movq	-24(%rbp), %rax
  27 0011 4883C060 		addq	$96, %rax
  28 0015 4889C7   		movq	%rax, %rdi
  29              	.LEHB0:
  30 0018 E8000000 		call	_ZNSt9basic_iosIcSt11char_traitsIcEEC2Ev@PLT
  30      00
  31              	.LEHE0:
  32 001d 488B0500 		movq	_ZTTN8UnitTest15MemoryOutStreamE@GOTPCREL(%rip), %rax
  32      000000
  33 0024 488D4808 		leaq	8(%rax), %rcx
  34 0028 488B45E8 		movq	-24(%rbp), %rax
  35 002c BA100000 		movl	$16, %edx
  35      00
  36 0031 4889CE   		movq	%rcx, %rsi
  37 0034 4889C7   		movq	%rax, %rdi
  38              	.LEHB1:
  39 0037 E8000000 		call	_ZNSt19basic_ostringstreamIcSt11char_traitsIcESaIcEEC2ESt13_Ios_Openmode@PLT
  39      00
  40              	.LEHE1:
  41              		.loc 1 16 0 is_stmt 0 discriminator 9
  42 003c 488B0500 		movq	_ZTVN8UnitTest15MemoryOutStreamE@GOTPCREL(%rip), %rax
  42      000000
  43 0043 488D5018 		leaq	24(%rax), %rdx
  44 0047 488B45E8 		movq	-24(%rbp), %rax
  45 004b 488910   		movq	%rdx, (%rax)
  46 004e BA600000 		movl	$96, %edx
  46      00
  47 0053 488B45E8 		movq	-24(%rbp), %rax
  48 0057 4801C2   		addq	%rax, %rdx
  49 005a 488B0500 		movq	_ZTVN8UnitTest15MemoryOutStreamE@GOTPCREL(%rip), %rax
  49      000000
  50 0061 488D4040 		leaq	64(%rax), %rax
  51 0065 488902   		movq	%rax, (%rdx)
  52 0068 488B45E8 		movq	-24(%rbp), %rax
  53 006c 4883C058 		addq	$88, %rax
  54 0070 4889C7   		movq	%rax, %rdi
  55              	.LEHB2:
  56 0073 E8000000 		call	_ZNSsC1Ev@PLT
  56      00
  57              	.LEHE2:
  58              	.LBE2:
  59              		.loc 1 16 0
  60 0078 EB3D     		jmp	.L6
  61              	.L4:
  62 007a 4889C3   		movq	%rax, %rbx
  63              	.LBB3:
  64 007d 488B0500 		movq	_ZTTN8UnitTest15MemoryOutStreamE@GOTPCREL(%rip), %rax
  64      000000
  65 0084 488D5008 		leaq	8(%rax), %rdx
  66 0088 488B45E8 		movq	-24(%rbp), %rax
  67 008c 4889D6   		movq	%rdx, %rsi
  68 008f 4889C7   		movq	%rax, %rdi
  69 0092 E8000000 		call	_ZNSt19basic_ostringstreamIcSt11char_traitsIcESaIcEED2Ev@PLT
  69      00
  70 0097 EB03     		jmp	.L3
  71              	.L5:
  72 0099 4889C3   		movq	%rax, %rbx
  73              	.L3:
  74              		.loc 1 16 0 discriminator 28
  75 009c 488B45E8 		movq	-24(%rbp), %rax
  76 00a0 4883C060 		addq	$96, %rax
  77 00a4 4889C7   		movq	%rax, %rdi
  78 00a7 E8000000 		call	_ZNSt9basic_iosIcSt11char_traitsIcEED2Ev@PLT
  78      00
  79 00ac 4889D8   		movq	%rbx, %rax
  80 00af 4889C7   		movq	%rax, %rdi
  81              	.LEHB3:
  82 00b2 E8000000 		call	_Unwind_Resume@PLT
  82      00
  83              	.LEHE3:
  84              	.L6:
  85              	.LBE3:
  86              		.loc 1 16 0
  87 00b7 4883C418 		addq	$24, %rsp
  88 00bb 5B       		popq	%rbx
  89 00bc 5D       		popq	%rbp
  90              		.cfi_def_cfa 7, 8
  91 00bd C3       		ret
  92              		.cfi_endproc
  93              	.LFE1052:
  94              		.globl	__gxx_personality_v0
  95              		.section	.gcc_except_table._ZN8UnitTest15MemoryOutStreamC1Ev,"aG",@progbits,_ZN8UnitTest15MemoryOu
  96              	.LLSDA1052:
  97 0000 FF       		.byte	0xff
  98 0001 FF       		.byte	0xff
  99 0002 01       		.byte	0x1
 100 0003 12       		.uleb128 .LLSDACSE1052-.LLSDACSB1052
 101              	.LLSDACSB1052:
 102 0004 18       		.uleb128 .LEHB0-.LFB1052
 103 0005 05       		.uleb128 .LEHE0-.LEHB0
 104 0006 00       		.uleb128 0
 105 0007 00       		.uleb128 0
 106 0008 37       		.uleb128 .LEHB1-.LFB1052
 107 0009 05       		.uleb128 .LEHE1-.LEHB1
 108 000a 9901     		.uleb128 .L5-.LFB1052
 109 000c 00       		.uleb128 0
 110 000d 73       		.uleb128 .LEHB2-.LFB1052
 111 000e 05       		.uleb128 .LEHE2-.LEHB2
 112 000f 7A       		.uleb128 .L4-.LFB1052
 113 0010 00       		.uleb128 0
 114 0011 B201     		.uleb128 .LEHB3-.LFB1052
 115 0013 05       		.uleb128 .LEHE3-.LEHB3
 116 0014 00       		.uleb128 0
 117 0015 00       		.uleb128 0
 118              	.LLSDACSE1052:
 119              		.section	.text._ZN8UnitTest15MemoryOutStreamC1Ev,"axG",@progbits,_ZN8UnitTest15MemoryOutStreamC1Ev
 121              		.local	_ZGVZN8UnitTest4Test11GetTestListEvE6s_list
 122              		.comm	_ZGVZN8UnitTest4Test11GetTestListEvE6s_list,8,8
 123              		.text
 124              		.align 2
 125              		.globl	_ZN8UnitTest4Test11GetTestListEv
 127              	_ZN8UnitTest4Test11GetTestListEv:
 128              	.LFB1054:
 129              		.file 2 "Test.cpp"
   1:Test.cpp      **** #include "Config.h"
   2:Test.cpp      **** #include "Test.h"
   3:Test.cpp      **** #include "TestList.h"
   4:Test.cpp      **** #include "TestResults.h"
   5:Test.cpp      **** #include "AssertException.h"
   6:Test.cpp      **** #include "MemoryOutStream.h"
   7:Test.cpp      **** #include "ExecuteTest.h"
   8:Test.cpp      **** 
   9:Test.cpp      **** #ifdef UNITTEST_POSIX
  10:Test.cpp      ****     #include "PosixUtils/SignalTranslator.h"
  11:Test.cpp      **** #endif
  12:Test.cpp      **** 
  13:Test.cpp      **** namespace UnitTest {
  14:Test.cpp      **** 
  15:Test.cpp      **** TestList& Test::GetTestList()
  16:Test.cpp      **** {
 130              		.loc 2 16 0 is_stmt 1
 131              		.cfi_startproc
 132              		.cfi_personality 0x9b,DW.ref.__gxx_personality_v0
 133              		.cfi_lsda 0x1b,.LLSDA1054
 134 0000 55       		pushq	%rbp
 135              		.cfi_def_cfa_offset 16
 136              		.cfi_offset 6, -16
 137 0001 4889E5   		movq	%rsp, %rbp
 138              		.cfi_def_cfa_register 6
 139 0004 4154     		pushq	%r12
 140 0006 53       		pushq	%rbx
 141              		.cfi_offset 12, -24
 142              		.cfi_offset 3, -32
 143              	.LBB4:
  17:Test.cpp      ****     static TestList s_list;
 144              		.loc 2 17 0
 145 0007 488D0500 		leaq	_ZGVZN8UnitTest4Test11GetTestListEvE6s_list(%rip), %rax
 145      000000
 146 000e 0FB600   		movzbl	(%rax), %eax
 147 0011 84C0     		testb	%al, %al
 148 0013 7533     		jne	.L8
 149              		.loc 2 17 0 is_stmt 0 discriminator 1
 150 0015 488D3D00 		leaq	_ZGVZN8UnitTest4Test11GetTestListEvE6s_list(%rip), %rdi
 150      000000
 151 001c E8000000 		call	__cxa_guard_acquire@PLT
 151      00
 152 0021 85C0     		testl	%eax, %eax
 153 0023 0F95C0   		setne	%al
 154 0026 84C0     		testb	%al, %al
 155 0028 741E     		je	.L8
 156              		.loc 2 17 0 discriminator 2
 157 002a 41BC0000 		movl	$0, %r12d
 157      0000
 158 0030 488D3D00 		leaq	_ZZN8UnitTest4Test11GetTestListEvE6s_list(%rip), %rdi
 158      000000
 159              	.LEHB4:
 160 0037 E8000000 		call	_ZN8UnitTest8TestListC1Ev@PLT
 160      00
 161              	.LEHE4:
 162              		.loc 2 17 0 discriminator 4
 163 003c 488D3D00 		leaq	_ZGVZN8UnitTest4Test11GetTestListEvE6s_list(%rip), %rdi
 163      000000
 164 0043 E8000000 		call	__cxa_guard_release@PLT
 164      00
 165              	.L8:
  18:Test.cpp      ****     return s_list;
 166              		.loc 2 18 0 is_stmt 1
 167 0048 488D0500 		leaq	_ZZN8UnitTest4Test11GetTestListEvE6s_list(%rip), %rax
 167      000000
 168 004f EB1F     		jmp	.L13
 169              	.L12:
 170 0051 4889C3   		movq	%rax, %rbx
  17:Test.cpp      ****     static TestList s_list;
 171              		.loc 2 17 0
 172 0054 4584E4   		testb	%r12b, %r12b
 173 0057 750C     		jne	.L11
  17:Test.cpp      ****     static TestList s_list;
 174              		.loc 2 17 0 is_stmt 0 discriminator 5
 175 0059 488D3D00 		leaq	_ZGVZN8UnitTest4Test11GetTestListEvE6s_list(%rip), %rdi
 175      000000
 176 0060 E8000000 		call	__cxa_guard_abort@PLT
 176      00
 177              	.L11:
 178 0065 4889D8   		movq	%rbx, %rax
 179 0068 4889C7   		movq	%rax, %rdi
 180              	.LEHB5:
 181 006b E8000000 		call	_Unwind_Resume@PLT
 181      00
 182              	.LEHE5:
 183              	.L13:
 184              	.LBE4:
  19:Test.cpp      **** }
 185              		.loc 2 19 0 is_stmt 1
 186 0070 5B       		popq	%rbx
 187 0071 415C     		popq	%r12
 188 0073 5D       		popq	%rbp
 189              		.cfi_def_cfa 7, 8
 190 0074 C3       		ret
 191              		.cfi_endproc
 192              	.LFE1054:
 193              		.section	.gcc_except_table,"a",@progbits
 194              	.LLSDA1054:
 195 0000 FF       		.byte	0xff
 196 0001 FF       		.byte	0xff
 197 0002 01       		.byte	0x1
 198 0003 08       		.uleb128 .LLSDACSE1054-.LLSDACSB1054
 199              	.LLSDACSB1054:
 200 0004 37       		.uleb128 .LEHB4-.LFB1054
 201 0005 05       		.uleb128 .LEHE4-.LEHB4
 202 0006 51       		.uleb128 .L12-.LFB1054
 203 0007 00       		.uleb128 0
 204 0008 6B       		.uleb128 .LEHB5-.LFB1054
 205 0009 05       		.uleb128 .LEHE5-.LEHB5
 206 000a 00       		.uleb128 0
 207 000b 00       		.uleb128 0
 208              	.LLSDACSE1054:
 209              		.text
 211 0075 90       		.align 2
 212              		.globl	_ZN8UnitTest4TestC2EPKcS2_S2_i
 214              	_ZN8UnitTest4TestC2EPKcS2_S2_i:
 215              	.LFB1056:
  20:Test.cpp      **** 
  21:Test.cpp      **** Test::Test(char const* testName, char const* suiteName, char const* filename, int lineNumber)
 216              		.loc 2 21 0
 217              		.cfi_startproc
 218 0076 55       		pushq	%rbp
 219              		.cfi_def_cfa_offset 16
 220              		.cfi_offset 6, -16
 221 0077 4889E5   		movq	%rsp, %rbp
 222              		.cfi_def_cfa_register 6
 223 007a 4883EC30 		subq	$48, %rsp
 224 007e 48897DF8 		movq	%rdi, -8(%rbp)
 225 0082 488975F0 		movq	%rsi, -16(%rbp)
 226 0086 488955E8 		movq	%rdx, -24(%rbp)
 227 008a 48894DE0 		movq	%rcx, -32(%rbp)
 228 008e 448945DC 		movl	%r8d, -36(%rbp)
 229              	.LBB5:
  22:Test.cpp      ****     : m_details(testName, suiteName, filename, lineNumber)
  23:Test.cpp      ****     , next(0)
  24:Test.cpp      ****     , m_timeConstraintExempt(false)
 230              		.loc 2 24 0
 231 0092 488B45F8 		movq	-8(%rbp), %rax
 232 0096 488B1500 		movq	_ZTVN8UnitTest4TestE@GOTPCREL(%rip), %rdx
 232      000000
 233 009d 488D5210 		leaq	16(%rdx), %rdx
 234 00a1 488910   		movq	%rdx, (%rax)
 235 00a4 488B45F8 		movq	-8(%rbp), %rax
 236 00a8 488D7808 		leaq	8(%rax), %rdi
 237 00ac 8B75DC   		movl	-36(%rbp), %esi
 238 00af 488B4DE0 		movq	-32(%rbp), %rcx
 239 00b3 488B55E8 		movq	-24(%rbp), %rdx
 240 00b7 488B45F0 		movq	-16(%rbp), %rax
 241 00bb 4189F0   		movl	%esi, %r8d
 242 00be 4889C6   		movq	%rax, %rsi
 243 00c1 E8000000 		call	_ZN8UnitTest11TestDetailsC1EPKcS2_S2_i@PLT
 243      00
 244 00c6 488B45F8 		movq	-8(%rbp), %rax
 245 00ca 48C74028 		movq	$0, 40(%rax)
 245      00000000 
 246 00d2 488B45F8 		movq	-8(%rbp), %rax
 247 00d6 C6403000 		movb	$0, 48(%rax)
 248              	.LBE5:
  25:Test.cpp      **** {
  26:Test.cpp      **** }
 249              		.loc 2 26 0
 250 00da C9       		leave
 251              		.cfi_def_cfa 7, 8
 252 00db C3       		ret
 253              		.cfi_endproc
 254              	.LFE1056:
 256              		.globl	_ZN8UnitTest4TestC1EPKcS2_S2_i
 257              		.set	_ZN8UnitTest4TestC1EPKcS2_S2_i,_ZN8UnitTest4TestC2EPKcS2_S2_i
 258              		.align 2
 259              		.globl	_ZN8UnitTest4TestD2Ev
 261              	_ZN8UnitTest4TestD2Ev:
 262              	.LFB1059:
  27:Test.cpp      **** 
  28:Test.cpp      **** Test::~Test()
 263              		.loc 2 28 0
 264              		.cfi_startproc
 265 00dc 55       		pushq	%rbp
 266              		.cfi_def_cfa_offset 16
 267              		.cfi_offset 6, -16
 268 00dd 4889E5   		movq	%rsp, %rbp
 269              		.cfi_def_cfa_register 6
 270 00e0 4883EC10 		subq	$16, %rsp
 271 00e4 48897DF8 		movq	%rdi, -8(%rbp)
 272              	.LBB6:
 273              		.loc 2 28 0
 274 00e8 488B45F8 		movq	-8(%rbp), %rax
 275 00ec 488B1500 		movq	_ZTVN8UnitTest4TestE@GOTPCREL(%rip), %rdx
 275      000000
 276 00f3 488D5210 		leaq	16(%rdx), %rdx
 277 00f7 488910   		movq	%rdx, (%rax)
 278              	.LBE6:
  29:Test.cpp      **** {
  30:Test.cpp      **** }
 279              		.loc 2 30 0
 280 00fa B8000000 		movl	$0, %eax
 280      00
 281 00ff 85C0     		testl	%eax, %eax
 282 0101 740C     		je	.L15
 283              		.loc 2 30 0 is_stmt 0 discriminator 2
 284 0103 488B45F8 		movq	-8(%rbp), %rax
 285 0107 4889C7   		movq	%rax, %rdi
 286 010a E8000000 		call	_ZdlPv@PLT
 286      00
 287              	.L15:
 288              		.loc 2 30 0
 289 010f C9       		leave
 290              		.cfi_def_cfa 7, 8
 291 0110 C3       		ret
 292              		.cfi_endproc
 293              	.LFE1059:
 295              		.globl	_ZN8UnitTest4TestD1Ev
 296              		.set	_ZN8UnitTest4TestD1Ev,_ZN8UnitTest4TestD2Ev
 297 0111 90       		.align 2
 298              		.globl	_ZN8UnitTest4TestD0Ev
 300              	_ZN8UnitTest4TestD0Ev:
 301              	.LFB1061:
  28:Test.cpp      **** {
 302              		.loc 2 28 0 is_stmt 1
 303              		.cfi_startproc
 304 0112 55       		pushq	%rbp
 305              		.cfi_def_cfa_offset 16
 306              		.cfi_offset 6, -16
 307 0113 4889E5   		movq	%rsp, %rbp
 308              		.cfi_def_cfa_register 6
 309 0116 4883EC10 		subq	$16, %rsp
 310 011a 48897DF8 		movq	%rdi, -8(%rbp)
 311              		.loc 2 30 0
 312 011e 488B45F8 		movq	-8(%rbp), %rax
 313 0122 4889C7   		movq	%rax, %rdi
 314 0125 E8000000 		call	_ZN8UnitTest4TestD1Ev@PLT
 314      00
 315 012a 488B45F8 		movq	-8(%rbp), %rax
 316 012e 4889C7   		movq	%rax, %rdi
 317 0131 E8000000 		call	_ZdlPv@PLT
 317      00
 318 0136 C9       		leave
 319              		.cfi_def_cfa 7, 8
 320 0137 C3       		ret
 321              		.cfi_endproc
 322              	.LFE1061:
 324              		.align 2
 325              		.globl	_ZN8UnitTest4Test3RunEv
 327              	_ZN8UnitTest4Test3RunEv:
 328              	.LFB1062:
  31:Test.cpp      **** 
  32:Test.cpp      **** void Test::Run()
  33:Test.cpp      **** {
 329              		.loc 2 33 0
 330              		.cfi_startproc
 331 0138 55       		pushq	%rbp
 332              		.cfi_def_cfa_offset 16
 333              		.cfi_offset 6, -16
 334 0139 4889E5   		movq	%rsp, %rbp
 335              		.cfi_def_cfa_register 6
 336 013c 4883EC10 		subq	$16, %rsp
 337 0140 48897DF8 		movq	%rdi, -8(%rbp)
  34:Test.cpp      **** 	ExecuteTest(*this, m_details);
 338              		.loc 2 34 0
 339 0144 488B45F8 		movq	-8(%rbp), %rax
 340 0148 488D5008 		leaq	8(%rax), %rdx
 341 014c 488B45F8 		movq	-8(%rbp), %rax
 342 0150 4889D6   		movq	%rdx, %rsi
 343 0153 4889C7   		movq	%rax, %rdi
 344 0156 E8000000 		call	_ZN8UnitTest11ExecuteTestINS_4TestEEEvRT_RKNS_11TestDetailsE@PLT
 344      00
  35:Test.cpp      **** }
 345              		.loc 2 35 0
 346 015b C9       		leave
 347              		.cfi_def_cfa 7, 8
 348 015c C3       		ret
 349              		.cfi_endproc
 350              	.LFE1062:
 352 015d 90       		.align 2
 353              		.globl	_ZNK8UnitTest4Test7RunImplEv
 355              	_ZNK8UnitTest4Test7RunImplEv:
 356              	.LFB1063:
  36:Test.cpp      **** 
  37:Test.cpp      **** void Test::RunImpl() const
  38:Test.cpp      **** {
 357              		.loc 2 38 0
 358              		.cfi_startproc
 359 015e 55       		pushq	%rbp
 360              		.cfi_def_cfa_offset 16
 361              		.cfi_offset 6, -16
 362 015f 4889E5   		movq	%rsp, %rbp
 363              		.cfi_def_cfa_register 6
 364 0162 48897DF8 		movq	%rdi, -8(%rbp)
  39:Test.cpp      **** }
 365              		.loc 2 39 0
 366 0166 5D       		popq	%rbp
 367              		.cfi_def_cfa 7, 8
 368 0167 C3       		ret
 369              		.cfi_endproc
 370              	.LFE1063:
 372              		.section	.text._ZN8UnitTest15MemoryOutStreamD1Ev,"axG",@progbits,_ZN8UnitTest15MemoryOutStreamD1Ev
 373              		.align 2
 374              		.weak	_ZN8UnitTest15MemoryOutStreamD1Ev
 376              	_ZN8UnitTest15MemoryOutStreamD1Ev:
 377              	.LFB1094:
  13:MemoryOutStream.h **** {
 378              		.loc 1 13 0
 379              		.cfi_startproc
 380              		.cfi_personality 0x9b,DW.ref.__gxx_personality_v0
 381              		.cfi_lsda 0x1b,.LLSDA1094
 382 0000 55       		pushq	%rbp
 383              		.cfi_def_cfa_offset 16
 384              		.cfi_offset 6, -16
 385 0001 4889E5   		movq	%rsp, %rbp
 386              		.cfi_def_cfa_register 6
 387 0004 53       		pushq	%rbx
 388 0005 4883EC18 		subq	$24, %rsp
 389              		.cfi_offset 3, -24
 390 0009 48897DE8 		movq	%rdi, -24(%rbp)
 391              	.LBB7:
  13:MemoryOutStream.h **** {
 392              		.loc 1 13 0
 393 000d 488B0500 		movq	_ZTVN8UnitTest15MemoryOutStreamE@GOTPCREL(%rip), %rax
 393      000000
 394 0014 488D5018 		leaq	24(%rax), %rdx
 395 0018 488B45E8 		movq	-24(%rbp), %rax
 396 001c 488910   		movq	%rdx, (%rax)
 397 001f BA600000 		movl	$96, %edx
 397      00
 398 0024 488B45E8 		movq	-24(%rbp), %rax
 399 0028 4801C2   		addq	%rax, %rdx
 400 002b 488B0500 		movq	_ZTVN8UnitTest15MemoryOutStreamE@GOTPCREL(%rip), %rax
 400      000000
 401 0032 488D4040 		leaq	64(%rax), %rax
 402 0036 488902   		movq	%rax, (%rdx)
 403 0039 488B45E8 		movq	-24(%rbp), %rax
 404 003d 4883C058 		addq	$88, %rax
 405 0041 4889C7   		movq	%rax, %rdi
 406              	.LEHB6:
 407 0044 E8000000 		call	_ZNSsD1Ev@PLT
 407      00
 408              	.LEHE6:
  13:MemoryOutStream.h **** {
 409              		.loc 1 13 0 is_stmt 0 discriminator 14
 410 0049 488B0500 		movq	_ZTTN8UnitTest15MemoryOutStreamE@GOTPCREL(%rip), %rax
 410      000000
 411 0050 488D5008 		leaq	8(%rax), %rdx
 412 0054 488B45E8 		movq	-24(%rbp), %rax
 413 0058 4889D6   		movq	%rdx, %rsi
 414 005b 4889C7   		movq	%rax, %rdi
 415              	.LEHB7:
 416 005e E8000000 		call	_ZNSt19basic_ostringstreamIcSt11char_traitsIcESaIcEED2Ev@PLT
 416      00
 417              	.LEHE7:
  13:MemoryOutStream.h **** {
 418              		.loc 1 13 0 discriminator 20
 419 0063 B8020000 		movl	$2, %eax
 419      00
 420 0068 85C0     		testl	%eax, %eax
 421 006a 7410     		je	.L24
  13:MemoryOutStream.h **** {
 422              		.loc 1 13 0 discriminator 21
 423 006c 488B45E8 		movq	-24(%rbp), %rax
 424 0070 4883C060 		addq	$96, %rax
 425 0074 4889C7   		movq	%rax, %rdi
 426              	.LEHB8:
 427 0077 E8000000 		call	_ZNSt9basic_iosIcSt11char_traitsIcEED2Ev@PLT
 427      00
 428              	.LEHE8:
 429              	.L24:
 430              	.LBE7:
  13:MemoryOutStream.h **** {
 431              		.loc 1 13 0 discriminator 24
 432 007c B8000000 		movl	$0, %eax
 432      00
 433 0081 85C0     		testl	%eax, %eax
 434 0083 7454     		je	.L31
  13:MemoryOutStream.h **** {
 435              		.loc 1 13 0 discriminator 25
 436 0085 488B45E8 		movq	-24(%rbp), %rax
 437 0089 4889C7   		movq	%rax, %rdi
 438 008c E8000000 		call	_ZdlPv@PLT
 438      00
 439 0091 EB46     		jmp	.L31
 440              	.L29:
 441 0093 4889C3   		movq	%rax, %rbx
 442              	.LBB8:
  13:MemoryOutStream.h **** {
 443              		.loc 1 13 0
 444 0096 488B0500 		movq	_ZTTN8UnitTest15MemoryOutStreamE@GOTPCREL(%rip), %rax
 444      000000
 445 009d 488D5008 		leaq	8(%rax), %rdx
 446 00a1 488B45E8 		movq	-24(%rbp), %rax
 447 00a5 4889D6   		movq	%rdx, %rsi
 448 00a8 4889C7   		movq	%rax, %rdi
 449 00ab E8000000 		call	_ZNSt19basic_ostringstreamIcSt11char_traitsIcESaIcEED2Ev@PLT
 449      00
 450 00b0 EB03     		jmp	.L27
 451              	.L30:
 452 00b2 4889C3   		movq	%rax, %rbx
 453              	.L27:
  13:MemoryOutStream.h **** {
 454              		.loc 1 13 0 discriminator 19
 455 00b5 B8020000 		movl	$2, %eax
 455      00
 456 00ba 85C0     		testl	%eax, %eax
 457 00bc 7410     		je	.L28
  13:MemoryOutStream.h **** {
 458              		.loc 1 13 0 discriminator 32
 459 00be 488B45E8 		movq	-24(%rbp), %rax
 460 00c2 4883C060 		addq	$96, %rax
 461 00c6 4889C7   		movq	%rax, %rdi
 462 00c9 E8000000 		call	_ZNSt9basic_iosIcSt11char_traitsIcEED2Ev@PLT
 462      00
 463              	.L28:
 464 00ce 4889D8   		movq	%rbx, %rax
 465 00d1 4889C7   		movq	%rax, %rdi
 466              	.LEHB9:
 467 00d4 E8000000 		call	_Unwind_Resume@PLT
 467      00
 468              	.LEHE9:
 469              	.L31:
 470              	.LBE8:
  13:MemoryOutStream.h **** {
 471              		.loc 1 13 0
 472 00d9 4883C418 		addq	$24, %rsp
 473 00dd 5B       		popq	%rbx
 474 00de 5D       		popq	%rbp
 475              		.cfi_def_cfa 7, 8
 476 00df C3       		ret
 477              		.cfi_endproc
 478              	.LFE1094:
 479              		.section	.gcc_except_table
 480              	.LLSDA1094:
 481 000c FF       		.byte	0xff
 482 000d FF       		.byte	0xff
 483 000e 01       		.byte	0x1
 484 000f 13       		.uleb128 .LLSDACSE1094-.LLSDACSB1094
 485              	.LLSDACSB1094:
 486 0010 44       		.uleb128 .LEHB6-.LFB1094
 487 0011 05       		.uleb128 .LEHE6-.LEHB6
 488 0012 9301     		.uleb128 .L29-.LFB1094
 489 0014 00       		.uleb128 0
 490 0015 5E       		.uleb128 .LEHB7-.LFB1094
 491 0016 05       		.uleb128 .LEHE7-.LEHB7
 492 0017 B201     		.uleb128 .L30-.LFB1094
 493 0019 00       		.uleb128 0
 494 001a 77       		.uleb128 .LEHB8-.LFB1094
 495 001b 05       		.uleb128 .LEHE8-.LEHB8
 496 001c 00       		.uleb128 0
 497 001d 00       		.uleb128 0
 498 001e D401     		.uleb128 .LEHB9-.LFB1094
 499 0020 05       		.uleb128 .LEHE9-.LEHB9
 500 0021 00       		.uleb128 0
 501 0022 00       		.uleb128 0
 502              	.LLSDACSE1094:
 503              		.section	.text._ZN8UnitTest15MemoryOutStreamD1Ev,"axG",@progbits,_ZN8UnitTest15MemoryOutStreamD1Ev
 505              		.set	.LTHUNK0,_ZN8UnitTest15MemoryOutStreamD1Ev
 506              		.weak	_ZTv0_n24_N8UnitTest15MemoryOutStreamD1Ev
 508              	_ZTv0_n24_N8UnitTest15MemoryOutStreamD1Ev:
 509              	.LFB1144:
  13:MemoryOutStream.h **** {
 510              		.loc 1 13 0 is_stmt 1
 511              		.cfi_startproc
 512 00e0 4C8B17   		movq	(%rdi), %r10
 513 00e3 49037AE8 		addq	-24(%r10), %rdi
 514 00e7 E914FFFF 		jmp	.LTHUNK0
 514      FF
 515              		.cfi_endproc
 516              	.LFE1144:
 518              		.section	.text._ZN8UnitTest15MemoryOutStreamD0Ev,"axG",@progbits,_ZN8UnitTest15MemoryOutStreamD0Ev
 519              		.align 2
 520              		.weak	_ZN8UnitTest15MemoryOutStreamD0Ev
 522              	_ZN8UnitTest15MemoryOutStreamD0Ev:
 523              	.LFB1095:
  13:MemoryOutStream.h **** {
 524              		.loc 1 13 0
 525              		.cfi_startproc
 526 0000 55       		pushq	%rbp
 527              		.cfi_def_cfa_offset 16
 528              		.cfi_offset 6, -16
 529 0001 4889E5   		movq	%rsp, %rbp
 530              		.cfi_def_cfa_register 6
 531 0004 4883EC10 		subq	$16, %rsp
 532 0008 48897DF8 		movq	%rdi, -8(%rbp)
  13:MemoryOutStream.h **** {
 533              		.loc 1 13 0
 534 000c 488B45F8 		movq	-8(%rbp), %rax
 535 0010 4889C7   		movq	%rax, %rdi
 536 0013 E8000000 		call	_ZN8UnitTest15MemoryOutStreamD1Ev@PLT
 536      00
 537 0018 488B45F8 		movq	-8(%rbp), %rax
 538 001c 4889C7   		movq	%rax, %rdi
 539 001f E8000000 		call	_ZdlPv@PLT
 539      00
 540 0024 C9       		leave
 541              		.cfi_def_cfa 7, 8
 542 0025 C3       		ret
 543              		.cfi_endproc
 544              	.LFE1095:
 546              		.set	.LTHUNK1,_ZN8UnitTest15MemoryOutStreamD0Ev
 547              		.weak	_ZTv0_n24_N8UnitTest15MemoryOutStreamD0Ev
 549              	_ZTv0_n24_N8UnitTest15MemoryOutStreamD0Ev:
 550              	.LFB1145:
  13:MemoryOutStream.h **** {
 551              		.loc 1 13 0
 552              		.cfi_startproc
 553 0026 4C8B17   		movq	(%rdi), %r10
 554 0029 49037AE8 		addq	-24(%r10), %rdi
 555 002d EBD1     		jmp	.LTHUNK1
 556              		.cfi_endproc
 557              	.LFE1145:
 559              		.section	.rodata
 560              	.LC0:
 561 0000 556E6861 		.string	"Unhandled system exception"
 561      6E646C65 
 561      64207379 
 561      7374656D 
 561      20657863 
 562              	.LC1:
 563 001b 556E6861 		.string	"Unhandled exception: "
 563      6E646C65 
 563      64206578 
 563      63657074 
 563      696F6E3A 
 564              	.LC2:
 565 0031 556E6861 		.string	"Unhandled exception: Crash!"
 565      6E646C65 
 565      64206578 
 565      63657074 
 565      696F6E3A 
 566              		.section	.text._ZN8UnitTest11ExecuteTestINS_4TestEEEvRT_RKNS_11TestDetailsE,"axG",@progbits,_ZN8Un
 567              		.weak	_ZN8UnitTest11ExecuteTestINS_4TestEEEvRT_RKNS_11TestDetailsE
 569              	_ZN8UnitTest11ExecuteTestINS_4TestEEEvRT_RKNS_11TestDetailsE:
 570              	.LFB1091:
 571              		.file 3 "ExecuteTest.h"
   1:ExecuteTest.h **** #ifndef UNITTEST_EXECUTE_TEST_H
   2:ExecuteTest.h **** #define UNITTEST_EXECUTE_TEST_H
   3:ExecuteTest.h **** 
   4:ExecuteTest.h **** #include "TestDetails.h"
   5:ExecuteTest.h **** #include "MemoryOutStream.h"
   6:ExecuteTest.h **** #include "AssertException.h"
   7:ExecuteTest.h **** #include "CurrentTest.h"
   8:ExecuteTest.h **** 
   9:ExecuteTest.h **** #ifdef UNITTEST_POSIX
  10:ExecuteTest.h **** 	#include "PosixUtils/SignalTranslator.h"
  11:ExecuteTest.h **** #endif
  12:ExecuteTest.h **** 
  13:ExecuteTest.h **** namespace UnitTest {
  14:ExecuteTest.h **** 
  15:ExecuteTest.h **** template< typename T >
  16:ExecuteTest.h **** void ExecuteTest(T& testObject, TestDetails const& details)
 572              		.loc 3 16 0
 573              		.cfi_startproc
 574              		.cfi_personality 0x9b,DW.ref.__gxx_personality_v0
 575              		.cfi_lsda 0x1b,.LLSDA1091
 576 0000 55       		pushq	%rbp
 577              		.cfi_def_cfa_offset 16
 578              		.cfi_offset 6, -16
 579 0001 4889E5   		movq	%rsp, %rbp
 580              		.cfi_def_cfa_register 6
 581 0004 4154     		pushq	%r12
 582 0006 53       		pushq	%rbx
 583 0007 4881EC20 		subq	$1568, %rsp
 583      060000
 584              		.cfi_offset 12, -24
 585              		.cfi_offset 3, -32
 586 000e 4889BDD8 		movq	%rdi, -1576(%rbp)
 586      F9FFFF
 587 0015 4889B5D0 		movq	%rsi, -1584(%rbp)
 587      F9FFFF
 588              		.loc 3 16 0
 589 001c 64488B04 		movq	%fs:40, %rax
 589      25280000 
 589      00
 590 0025 488945E8 		movq	%rax, -24(%rbp)
 591 0029 31C0     		xorl	%eax, %eax
 592              	.LEHB10:
 593              	.LBB9:
  17:ExecuteTest.h **** {
  18:ExecuteTest.h **** 	CurrentTest::Details() = &details;
 594              		.loc 3 18 0
 595 002b E8000000 		call	_ZN8UnitTest11CurrentTest7DetailsEv@PLT
 595      00
 596              	.LEHE10:
 597 0030 4889C2   		movq	%rax, %rdx
 598 0033 488B85D0 		movq	-1584(%rbp), %rax
 598      F9FFFF
 599 003a 488902   		movq	%rax, (%rdx)
 600              	.LBB10:
  19:ExecuteTest.h **** 
  20:ExecuteTest.h **** 	try
  21:ExecuteTest.h **** 	{
  22:ExecuteTest.h **** #ifdef UNITTEST_POSIX
  23:ExecuteTest.h **** 		UNITTEST_THROW_SIGNALS
 601              		.loc 3 23 0
 602 003d 488D8580 		leaq	-1152(%rbp), %rax
 602      FBFFFF
 603 0044 4889C7   		movq	%rax, %rdi
 604              	.LEHB11:
 605 0047 E8000000 		call	_ZN8UnitTest16SignalTranslatorC1Ev@PLT
 605      00
 606              	.LEHE11:
 607              		.loc 3 23 0 is_stmt 0 discriminator 1
 608 004c 488B0500 		movq	_ZN8UnitTest16SignalTranslator12s_jumpTargetE@GOTPCREL(%rip), %rax
 608      000000
 609 0053 488B00   		movq	(%rax), %rax
 610 0056 BE010000 		movl	$1, %esi
 610      00
 611 005b 4889C7   		movq	%rax, %rdi
 612 005e E8000000 		call	__sigsetjmp@PLT
 612      00
 613 0063 85C0     		testl	%eax, %eax
 614 0065 0F95C0   		setne	%al
 615 0068 84C0     		testb	%al, %al
 616 006a 742B     		je	.L54
 617              		.loc 3 23 0 discriminator 3
 618 006c BF080000 		movl	$8, %edi
 618      00
 619 0071 E8000000 		call	__cxa_allocate_exception@PLT
 619      00
 620 0076 488D1500 		leaq	.LC0(%rip), %rdx
 620      000000
 621 007d 488910   		movq	%rdx, (%rax)
 622 0080 BA000000 		movl	$0, %edx
 622      00
 623 0085 488B0D00 		movq	_ZTIPKc@GOTPCREL(%rip), %rcx
 623      000000
 624 008c 4889CE   		movq	%rcx, %rsi
 625 008f 4889C7   		movq	%rax, %rdi
 626              	.LEHB12:
 627 0092 E8000000 		call	__cxa_throw@PLT
 627      00
 628              	.L54:
  24:ExecuteTest.h **** #endif
  25:ExecuteTest.h **** 		testObject.RunImpl();
 629              		.loc 3 25 0 is_stmt 1
 630 0097 488B85D8 		movq	-1576(%rbp), %rax
 630      F9FFFF
 631 009e 488B00   		movq	(%rax), %rax
 632 00a1 4883C010 		addq	$16, %rax
 633 00a5 488B00   		movq	(%rax), %rax
 634 00a8 488B95D8 		movq	-1576(%rbp), %rdx
 634      F9FFFF
 635 00af 4889D7   		movq	%rdx, %rdi
 636 00b2 FFD0     		call	*%rax
 637              	.LEHE12:
 638              		.loc 3 25 0 is_stmt 0 discriminator 2
 639 00b4 488D8580 		leaq	-1152(%rbp), %rax
 639      FBFFFF
 640 00bb 4889C7   		movq	%rax, %rdi
 641              	.LEHB13:
 642 00be E8000000 		call	_ZN8UnitTest16SignalTranslatorD1Ev@PLT
 642      00
 643              	.LEHE13:
 644              	.LBE10:
 645              	.LBE9:
  26:ExecuteTest.h **** 	}
  27:ExecuteTest.h **** 	catch (AssertException const& e)
  28:ExecuteTest.h **** 	{
  29:ExecuteTest.h **** 		CurrentTest::Results()->OnTestFailure(
  30:ExecuteTest.h **** 			TestDetails(details.testName, details.suiteName, e.Filename(), e.LineNumber()), e.what());
  31:ExecuteTest.h **** 	}
  32:ExecuteTest.h **** 	catch (std::exception const& e)
  33:ExecuteTest.h **** 	{
  34:ExecuteTest.h **** 		MemoryOutStream stream;
  35:ExecuteTest.h **** 		stream << "Unhandled exception: " << e.what();
  36:ExecuteTest.h **** 		CurrentTest::Results()->OnTestFailure(details, stream.GetText());
  37:ExecuteTest.h **** 	}
  38:ExecuteTest.h **** 	catch (...)
  39:ExecuteTest.h **** 	{
  40:ExecuteTest.h **** 		CurrentTest::Results()->OnTestFailure(details, "Unhandled exception: Crash!");
  41:ExecuteTest.h **** 	}
  42:ExecuteTest.h **** }
 646              		.loc 3 42 0 is_stmt 1
 647 00c3 E9F20100 		jmp	.L56
 647      00
 648              	.L49:
 649 00c8 4989C4   		movq	%rax, %r12
 650 00cb 4889D3   		movq	%rdx, %rbx
 651              	.LBB18:
 652              	.LBB11:
  25:ExecuteTest.h **** 	}
 653              		.loc 3 25 0
 654 00ce 488D8580 		leaq	-1152(%rbp), %rax
 654      FBFFFF
 655 00d5 4889C7   		movq	%rax, %rdi
 656 00d8 E8000000 		call	_ZN8UnitTest16SignalTranslatorD1Ev@PLT
 656      00
 657 00dd 4C89E0   		movq	%r12, %rax
 658 00e0 4889DA   		movq	%rbx, %rdx
 659 00e3 EB00     		jmp	.L38
 660              	.L48:
 661              	.L38:
 662 00e5 4883FA01 		cmpq	$1, %rdx
 663 00e9 745C     		je	.L40
 664 00eb 4883FA02 		cmpq	$2, %rdx
 665 00ef 0F84F300 		je	.L41
 665      0000
 666 00f5 E9920100 		jmp	.L55
 666      00
 667              	.L50:
 668 00fa 4889C3   		movq	%rax, %rbx
 669              	.LBE11:
 670              	.LBB12:
  27:ExecuteTest.h **** 	{
 671              		.loc 3 27 0
 672 00fd E8000000 		call	__cxa_end_catch@PLT
 672      00
 673 0102 4889D8   		movq	%rbx, %rax
 674 0105 4889C7   		movq	%rax, %rdi
 675              	.LEHB14:
 676 0108 E8000000 		call	_Unwind_Resume@PLT
 676      00
 677              	.LEHE14:
 678              	.L51:
 679 010d 4889C3   		movq	%rax, %rbx
 680              	.LBE12:
 681              	.LBB13:
 682              	.LBB14:
  36:ExecuteTest.h **** 	}
 683              		.loc 3 36 0
 684 0110 488D8510 		leaq	-1520(%rbp), %rax
 684      FAFFFF
 685 0117 4889C7   		movq	%rax, %rdi
 686 011a E8000000 		call	_ZN8UnitTest15MemoryOutStreamD1Ev@PLT
 686      00
 687 011f EB03     		jmp	.L44
 688              	.L52:
 689 0121 4889C3   		movq	%rax, %rbx
 690              	.L44:
 691              	.LBE14:
  32:ExecuteTest.h **** 	{
 692              		.loc 3 32 0
 693 0124 E8000000 		call	__cxa_end_catch@PLT
 693      00
 694 0129 4889D8   		movq	%rbx, %rax
 695 012c 4889C7   		movq	%rax, %rdi
 696              	.LEHB15:
 697 012f E8000000 		call	_Unwind_Resume@PLT
 697      00
 698              	.LEHE15:
 699              	.L53:
 700 0134 4889C3   		movq	%rax, %rbx
 701              	.LBE13:
  38:ExecuteTest.h **** 	{
 702              		.loc 3 38 0
 703 0137 E8000000 		call	__cxa_end_catch@PLT
 703      00
 704 013c 4889D8   		movq	%rbx, %rax
 705 013f 4889C7   		movq	%rax, %rdi
 706              	.LEHB16:
 707 0142 E8000000 		call	_Unwind_Resume@PLT
 707      00
 708              	.LEHE16:
 709              	.L40:
 710              	.LBB16:
  27:ExecuteTest.h **** 	{
 711              		.loc 3 27 0
 712 0147 4889C7   		movq	%rax, %rdi
 713 014a E8000000 		call	__cxa_begin_catch@PLT
 713      00
 714 014f 488985E0 		movq	%rax, -1568(%rbp)
 714      F9FFFF
  30:ExecuteTest.h **** 	}
 715              		.loc 3 30 0
 716 0156 488B85E0 		movq	-1568(%rbp), %rax
 716      F9FFFF
 717 015d 488B00   		movq	(%rax), %rax
 718 0160 4883C010 		addq	$16, %rax
 719 0164 488B00   		movq	(%rax), %rax
 720 0167 488B95E0 		movq	-1568(%rbp), %rdx
 720      F9FFFF
 721 016e 4889D7   		movq	%rdx, %rdi
 722 0171 FFD0     		call	*%rax
 723 0173 4889C3   		movq	%rax, %rbx
 724 0176 488B85E0 		movq	-1568(%rbp), %rax
 724      F9FFFF
 725 017d 4889C7   		movq	%rax, %rdi
 726              	.LEHB17:
 727 0180 E8000000 		call	_ZNK8UnitTest15AssertException10LineNumberEv@PLT
 727      00
  30:ExecuteTest.h **** 	}
 728              		.loc 3 30 0 is_stmt 0 discriminator 1
 729 0185 4189C4   		movl	%eax, %r12d
 730 0188 488B85E0 		movq	-1568(%rbp), %rax
 730      F9FFFF
 731 018f 4889C7   		movq	%rax, %rdi
 732 0192 E8000000 		call	_ZNK8UnitTest15AssertException8FilenameEv@PLT
 732      00
  30:ExecuteTest.h **** 	}
 733              		.loc 3 30 0 discriminator 2
 734 0197 4889C1   		movq	%rax, %rcx
 735 019a 488B85D0 		movq	-1584(%rbp), %rax
 735      F9FFFF
 736 01a1 488B10   		movq	(%rax), %rdx
 737 01a4 488B85D0 		movq	-1584(%rbp), %rax
 737      F9FFFF
 738 01ab 488B7008 		movq	8(%rax), %rsi
 739 01af 488D85F0 		leaq	-1552(%rbp), %rax
 739      F9FFFF
 740 01b6 4589E0   		movl	%r12d, %r8d
 741 01b9 4889C7   		movq	%rax, %rdi
 742 01bc E8000000 		call	_ZN8UnitTest11TestDetailsC1EPKcS2_S2_i@PLT
 742      00
  29:ExecuteTest.h **** 			TestDetails(details.testName, details.suiteName, e.Filename(), e.LineNumber()), e.what());
 743              		.loc 3 29 0 is_stmt 1
 744 01c1 E8000000 		call	_ZN8UnitTest11CurrentTest7ResultsEv@PLT
 744      00
  30:ExecuteTest.h **** 	}
 745              		.loc 3 30 0
 746 01c6 488B00   		movq	(%rax), %rax
  29:ExecuteTest.h **** 			TestDetails(details.testName, details.suiteName, e.Filename(), e.LineNumber()), e.what());
 747              		.loc 3 29 0
 748 01c9 488D8DF0 		leaq	-1552(%rbp), %rcx
 748      F9FFFF
 749 01d0 4889DA   		movq	%rbx, %rdx
 750 01d3 4889CE   		movq	%rcx, %rsi
 751 01d6 4889C7   		movq	%rax, %rdi
 752 01d9 E8000000 		call	_ZN8UnitTest11TestResults13OnTestFailureERKNS_11TestDetailsEPKc@PLT
 752      00
 753              	.LEHE17:
  27:ExecuteTest.h **** 	{
 754              		.loc 3 27 0
 755 01de E8000000 		call	__cxa_end_catch@PLT
 755      00
 756              	.LBE16:
 757              	.LBE18:
 758              		.loc 3 42 0
 759 01e3 E9D20000 		jmp	.L56
 759      00
 760              	.L41:
 761              	.LBB19:
 762              	.LBB17:
  32:ExecuteTest.h **** 	{
 763              		.loc 3 32 0
 764 01e8 4889C7   		movq	%rax, %rdi
 765 01eb E8000000 		call	__cxa_begin_catch@PLT
 765      00
 766 01f0 488985E8 		movq	%rax, -1560(%rbp)
 766      F9FFFF
 767              	.LBB15:
  34:ExecuteTest.h **** 		stream << "Unhandled exception: " << e.what();
 768              		.loc 3 34 0
 769 01f7 488D8510 		leaq	-1520(%rbp), %rax
 769      FAFFFF
 770 01fe 4889C7   		movq	%rax, %rdi
 771              	.LEHB18:
 772 0201 E8000000 		call	_ZN8UnitTest15MemoryOutStreamC1Ev@PLT
 772      00
 773              	.LEHE18:
  35:ExecuteTest.h **** 		CurrentTest::Results()->OnTestFailure(details, stream.GetText());
 774              		.loc 3 35 0
 775 0206 488B85E8 		movq	-1560(%rbp), %rax
 775      F9FFFF
 776 020d 488B00   		movq	(%rax), %rax
 777 0210 4883C010 		addq	$16, %rax
 778 0214 488B00   		movq	(%rax), %rax
 779 0217 488B95E8 		movq	-1560(%rbp), %rdx
 779      F9FFFF
 780 021e 4889D7   		movq	%rdx, %rdi
 781 0221 FFD0     		call	*%rax
 782 0223 4889C3   		movq	%rax, %rbx
 783 0226 488D8510 		leaq	-1520(%rbp), %rax
 783      FAFFFF
 784 022d 488D3500 		leaq	.LC1(%rip), %rsi
 784      000000
 785 0234 4889C7   		movq	%rax, %rdi
 786              	.LEHB19:
 787 0237 E8000000 		call	_ZStlsISt11char_traitsIcEERSt13basic_ostreamIcT_ES5_PKc@PLT
 787      00
  35:ExecuteTest.h **** 		CurrentTest::Results()->OnTestFailure(details, stream.GetText());
 788              		.loc 3 35 0 is_stmt 0 discriminator 1
 789 023c 4889DE   		movq	%rbx, %rsi
 790 023f 4889C7   		movq	%rax, %rdi
 791 0242 E8000000 		call	_ZStlsISt11char_traitsIcEERSt13basic_ostreamIcT_ES5_PKc@PLT
 791      00
  36:ExecuteTest.h **** 	}
 792              		.loc 3 36 0 is_stmt 1
 793 0247 488D8510 		leaq	-1520(%rbp), %rax
 793      FAFFFF
 794 024e 4889C7   		movq	%rax, %rdi
 795 0251 E8000000 		call	_ZNK8UnitTest15MemoryOutStream7GetTextEv@PLT
 795      00
 796 0256 4889C3   		movq	%rax, %rbx
 797 0259 E8000000 		call	_ZN8UnitTest11CurrentTest7ResultsEv@PLT
 797      00
  36:ExecuteTest.h **** 	}
 798              		.loc 3 36 0 is_stmt 0 discriminator 2
 799 025e 488B00   		movq	(%rax), %rax
 800 0261 488B8DD0 		movq	-1584(%rbp), %rcx
 800      F9FFFF
 801 0268 4889DA   		movq	%rbx, %rdx
 802 026b 4889CE   		movq	%rcx, %rsi
 803 026e 4889C7   		movq	%rax, %rdi
 804 0271 E8000000 		call	_ZN8UnitTest11TestResults13OnTestFailureERKNS_11TestDetailsEPKc@PLT
 804      00
 805              	.LEHE19:
  36:ExecuteTest.h **** 	}
 806              		.loc 3 36 0 discriminator 6
 807 0276 488D8510 		leaq	-1520(%rbp), %rax
 807      FAFFFF
 808 027d 4889C7   		movq	%rax, %rdi
 809              	.LEHB20:
 810 0280 E8000000 		call	_ZN8UnitTest15MemoryOutStreamD1Ev@PLT
 810      00
 811              	.LEHE20:
 812              	.LBE15:
  32:ExecuteTest.h **** 	{
 813              		.loc 3 32 0 is_stmt 1
 814 0285 E8000000 		call	__cxa_end_catch@PLT
 814      00
 815              	.LBE17:
 816              	.LBE19:
 817              		.loc 3 42 0
 818 028a EB2E     		jmp	.L56
 819              	.L55:
 820              	.LBB20:
  38:ExecuteTest.h **** 	{
 821              		.loc 3 38 0
 822 028c 4889C7   		movq	%rax, %rdi
 823 028f E8000000 		call	__cxa_begin_catch@PLT
 823      00
 824              	.LEHB21:
  40:ExecuteTest.h **** 	}
 825              		.loc 3 40 0
 826 0294 E8000000 		call	_ZN8UnitTest11CurrentTest7ResultsEv@PLT
 826      00
 827 0299 488B00   		movq	(%rax), %rax
 828 029c 488B8DD0 		movq	-1584(%rbp), %rcx
 828      F9FFFF
 829 02a3 488D1500 		leaq	.LC2(%rip), %rdx
 829      000000
 830 02aa 4889CE   		movq	%rcx, %rsi
 831 02ad 4889C7   		movq	%rax, %rdi
 832 02b0 E8000000 		call	_ZN8UnitTest11TestResults13OnTestFailureERKNS_11TestDetailsEPKc@PLT
 832      00
 833              	.LEHE21:
 834              	.LEHB22:
  38:ExecuteTest.h **** 	{
 835              		.loc 3 38 0
 836 02b5 E8000000 		call	__cxa_end_catch@PLT
 836      00
 837              	.LEHE22:
 838              	.L56:
 839              	.LBE20:
 840              		.loc 3 42 0
 841 02ba 90       		nop
 842 02bb 488B45E8 		movq	-24(%rbp), %rax
 843 02bf 64483304 		xorq	%fs:40, %rax
 843      25280000 
 843      00
 844 02c8 7405     		je	.L47
 845 02ca E8000000 		call	__stack_chk_fail@PLT
 845      00
 846              	.L47:
 847 02cf 4881C420 		addq	$1568, %rsp
 847      060000
 848 02d6 5B       		popq	%rbx
 849 02d7 415C     		popq	%r12
 850 02d9 5D       		popq	%rbp
 851              		.cfi_def_cfa 7, 8
 852 02da C3       		ret
 853              		.cfi_endproc
 854              	.LFE1091:
 855              		.section	.gcc_except_table
 856 0023 00       		.align 4
 857              	.LLSDA1091:
 858 0024 FF       		.byte	0xff
 859 0025 9B       		.byte	0x9b
 860 0026 5D       		.uleb128 .LLSDATT1091-.LLSDATTD1091
 861              	.LLSDATTD1091:
 862 0027 01       		.byte	0x1
 863 0028 47       		.uleb128 .LLSDACSE1091-.LLSDACSB1091
 864              	.LLSDACSB1091:
 865 0029 2B       		.uleb128 .LEHB10-.LFB1091
 866 002a 05       		.uleb128 .LEHE10-.LEHB10
 867 002b 00       		.uleb128 0
 868 002c 00       		.uleb128 0
 869 002d 47       		.uleb128 .LEHB11-.LFB1091
 870 002e 05       		.uleb128 .LEHE11-.LEHB11
 871 002f E501     		.uleb128 .L48-.LFB1091
 872 0031 05       		.uleb128 0x5
 873 0032 9201     		.uleb128 .LEHB12-.LFB1091
 874 0034 22       		.uleb128 .LEHE12-.LEHB12
 875 0035 C801     		.uleb128 .L49-.LFB1091
 876 0037 07       		.uleb128 0x7
 877 0038 BE01     		.uleb128 .LEHB13-.LFB1091
 878 003a 05       		.uleb128 .LEHE13-.LEHB13
 879 003b E501     		.uleb128 .L48-.LFB1091
 880 003d 05       		.uleb128 0x5
 881 003e 8802     		.uleb128 .LEHB14-.LFB1091
 882 0040 05       		.uleb128 .LEHE14-.LEHB14
 883 0041 00       		.uleb128 0
 884 0042 00       		.uleb128 0
 885 0043 AF02     		.uleb128 .LEHB15-.LFB1091
 886 0045 05       		.uleb128 .LEHE15-.LEHB15
 887 0046 00       		.uleb128 0
 888 0047 00       		.uleb128 0
 889 0048 C202     		.uleb128 .LEHB16-.LFB1091
 890 004a 05       		.uleb128 .LEHE16-.LEHB16
 891 004b 00       		.uleb128 0
 892 004c 00       		.uleb128 0
 893 004d 8003     		.uleb128 .LEHB17-.LFB1091
 894 004f 5E       		.uleb128 .LEHE17-.LEHB17
 895 0050 FA01     		.uleb128 .L50-.LFB1091
 896 0052 00       		.uleb128 0
 897 0053 8104     		.uleb128 .LEHB18-.LFB1091
 898 0055 05       		.uleb128 .LEHE18-.LEHB18
 899 0056 A102     		.uleb128 .L52-.LFB1091
 900 0058 00       		.uleb128 0
 901 0059 B704     		.uleb128 .LEHB19-.LFB1091
 902 005b 3F       		.uleb128 .LEHE19-.LEHB19
 903 005c 8D02     		.uleb128 .L51-.LFB1091
 904 005e 00       		.uleb128 0
 905 005f 8005     		.uleb128 .LEHB20-.LFB1091
 906 0061 05       		.uleb128 .LEHE20-.LEHB20
 907 0062 A102     		.uleb128 .L52-.LFB1091
 908 0064 00       		.uleb128 0
 909 0065 9405     		.uleb128 .LEHB21-.LFB1091
 910 0067 21       		.uleb128 .LEHE21-.LEHB21
 911 0068 B402     		.uleb128 .L53-.LFB1091
 912 006a 00       		.uleb128 0
 913 006b B505     		.uleb128 .LEHB22-.LFB1091
 914 006d 05       		.uleb128 .LEHE22-.LEHB22
 915 006e 00       		.uleb128 0
 916 006f 00       		.uleb128 0
 917              	.LLSDACSE1091:
 918 0070 03       		.byte	0x3
 919 0071 00       		.byte	0
 920 0072 02       		.byte	0x2
 921 0073 7D       		.byte	0x7d
 922 0074 01       		.byte	0x1
 923 0075 7D       		.byte	0x7d
 924 0076 00       		.byte	0
 925 0077 7D       		.byte	0x7d
 926              		.align 4
 927 0078 00000000 		.long	0
 928              	
 929 007c 00000000 		.long	DW.ref._ZTISt9exception-.
 930 0080 00000000 		.long	DW.ref._ZTIN8UnitTest15AssertExceptionE-.
 931              	.LLSDATT1091:
 932              		.section	.text._ZN8UnitTest11ExecuteTestINS_4TestEEEvRT_RKNS_11TestDetailsE,"axG",@progbits,_ZN8Un
 934              		.weak	_ZTVN8UnitTest4TestE
 935              		.section	.data.rel.ro._ZTVN8UnitTest4TestE,"awG",@progbits,_ZTVN8UnitTest4TestE,comdat
 936              		.align 32
 939              	_ZTVN8UnitTest4TestE:
 940 0000 00000000 		.quad	0
 940      00000000 
 941 0008 00000000 		.quad	_ZTIN8UnitTest4TestE
 941      00000000 
 942 0010 00000000 		.quad	_ZN8UnitTest4TestD1Ev
 942      00000000 
 943 0018 00000000 		.quad	_ZN8UnitTest4TestD0Ev
 943      00000000 
 944 0020 00000000 		.quad	_ZNK8UnitTest4Test7RunImplEv
 944      00000000 
 945              		.weak	_ZTVN8UnitTest15MemoryOutStreamE
 946              		.section	.data.rel.ro._ZTVN8UnitTest15MemoryOutStreamE,"awG",@progbits,_ZTVN8UnitTest15MemoryOutSt
 947              		.align 64
 950              	_ZTVN8UnitTest15MemoryOutStreamE:
 951 0000 60000000 		.quad	96
 951      00000000 
 952 0008 00000000 		.quad	0
 952      00000000 
 953 0010 00000000 		.quad	_ZTIN8UnitTest15MemoryOutStreamE
 953      00000000 
 954 0018 00000000 		.quad	_ZN8UnitTest15MemoryOutStreamD1Ev
 954      00000000 
 955 0020 00000000 		.quad	_ZN8UnitTest15MemoryOutStreamD0Ev
 955      00000000 
 956 0028 A0FFFFFF 		.quad	-96
 956      FFFFFFFF 
 957 0030 A0FFFFFF 		.quad	-96
 957      FFFFFFFF 
 958 0038 00000000 		.quad	_ZTIN8UnitTest15MemoryOutStreamE
 958      00000000 
 959 0040 00000000 		.quad	_ZTv0_n24_N8UnitTest15MemoryOutStreamD1Ev
 959      00000000 
 960 0048 00000000 		.quad	_ZTv0_n24_N8UnitTest15MemoryOutStreamD0Ev
 960      00000000 
 961              		.weak	_ZTTN8UnitTest15MemoryOutStreamE
 962              		.section	.data.rel.ro._ZTTN8UnitTest15MemoryOutStreamE,"awG",@progbits,_ZTVN8UnitTest15MemoryOutSt
 963              		.align 32
 966              	_ZTTN8UnitTest15MemoryOutStreamE:
 967 0000 00000000 		.quad	_ZTVN8UnitTest15MemoryOutStreamE+24
 967      00000000 
 968 0008 00000000 		.quad	_ZTCN8UnitTest15MemoryOutStreamE0_St19basic_ostringstreamIcSt11char_traitsIcESaIcEE+24
 968      00000000 
 969 0010 00000000 		.quad	_ZTCN8UnitTest15MemoryOutStreamE0_So+24
 969      00000000 
 970 0018 00000000 		.quad	_ZTCN8UnitTest15MemoryOutStreamE0_So+64
 970      00000000 
 971 0020 00000000 		.quad	_ZTCN8UnitTest15MemoryOutStreamE0_St19basic_ostringstreamIcSt11char_traitsIcESaIcEE+64
 971      00000000 
 972 0028 00000000 		.quad	_ZTVN8UnitTest15MemoryOutStreamE+64
 972      00000000 
 973              		.hidden	_ZTCN8UnitTest15MemoryOutStreamE0_St19basic_ostringstreamIcSt11char_traitsIcESaIcEE
 974              		.weak	_ZTCN8UnitTest15MemoryOutStreamE0_St19basic_ostringstreamIcSt11char_traitsIcESaIcEE
 975              		.section	.data.rel.ro._ZTCN8UnitTest15MemoryOutStreamE0_St19basic_ostringstreamIcSt11char_traitsIc
 976              		.align 64
 979              	_ZTCN8UnitTest15MemoryOutStreamE0_St19basic_ostringstreamIcSt11char_traitsIcESaIcEE:
 980 0000 60000000 		.quad	96
 980      00000000 
 981 0008 00000000 		.quad	0
 981      00000000 
 982 0010 00000000 		.quad	_ZTISt19basic_ostringstreamIcSt11char_traitsIcESaIcEE
 982      00000000 
 983 0018 00000000 		.quad	0
 983      00000000 
 984 0020 00000000 		.quad	0
 984      00000000 
 985 0028 A0FFFFFF 		.quad	-96
 985      FFFFFFFF 
 986 0030 A0FFFFFF 		.quad	-96
 986      FFFFFFFF 
 987 0038 00000000 		.quad	_ZTISt19basic_ostringstreamIcSt11char_traitsIcESaIcEE
 987      00000000 
 988 0040 00000000 		.quad	0
 988      00000000 
 989 0048 00000000 		.quad	0
 989      00000000 
 990              		.hidden	_ZTCN8UnitTest15MemoryOutStreamE0_So
 991              		.weak	_ZTCN8UnitTest15MemoryOutStreamE0_So
 992              		.section	.data.rel.ro._ZTCN8UnitTest15MemoryOutStreamE0_So,"awG",@progbits,_ZTVN8UnitTest15MemoryO
 993              		.align 64
 996              	_ZTCN8UnitTest15MemoryOutStreamE0_So:
 997 0000 60000000 		.quad	96
 997      00000000 
 998 0008 00000000 		.quad	0
 998      00000000 
 999 0010 00000000 		.quad	_ZTISo
 999      00000000 
 1000 0018 00000000 		.quad	0
 1000      00000000 
 1001 0020 00000000 		.quad	0
 1001      00000000 
 1002 0028 A0FFFFFF 		.quad	-96
 1002      FFFFFFFF 
 1003 0030 A0FFFFFF 		.quad	-96
 1003      FFFFFFFF 
 1004 0038 00000000 		.quad	_ZTISo
 1004      00000000 
 1005 0040 00000000 		.quad	0
 1005      00000000 
 1006 0048 00000000 		.quad	0
 1006      00000000 
 1007              		.weak	_ZTSN8UnitTest15MemoryOutStreamE
 1008              		.section	.rodata._ZTSN8UnitTest15MemoryOutStreamE,"aG",@progbits,_ZTSN8UnitTest15MemoryOutStreamE,
 1009              		.align 16
 1012              	_ZTSN8UnitTest15MemoryOutStreamE:
 1013 0000 4E38556E 		.string	"N8UnitTest15MemoryOutStreamE"
 1013      69745465 
 1013      73743135 
 1013      4D656D6F 
 1013      72794F75 
 1014              		.weak	_ZTIN8UnitTest15MemoryOutStreamE
 1015              		.section	.data.rel.ro._ZTIN8UnitTest15MemoryOutStreamE,"awG",@progbits,_ZTIN8UnitTest15MemoryOutSt
 1016              		.align 16
 1019              	_ZTIN8UnitTest15MemoryOutStreamE:
 1020 0000 00000000 		.quad	_ZTVN10__cxxabiv120__si_class_type_infoE+16
 1020      00000000 
 1021 0008 00000000 		.quad	_ZTSN8UnitTest15MemoryOutStreamE
 1021      00000000 
 1022 0010 00000000 		.quad	_ZTISt19basic_ostringstreamIcSt11char_traitsIcESaIcEE
 1022      00000000 
 1023              		.weak	_ZTIN8UnitTest4TestE
 1024              		.section	.data.rel.ro._ZTIN8UnitTest4TestE,"awG",@progbits,_ZTIN8UnitTest4TestE,comdat
 1025              		.align 16
 1028              	_ZTIN8UnitTest4TestE:
 1029 0000 00000000 		.quad	_ZTVN10__cxxabiv117__class_type_infoE+16
 1029      00000000 
 1030 0008 00000000 		.quad	_ZTSN8UnitTest4TestE
 1030      00000000 
 1031              		.weak	_ZTSN8UnitTest4TestE
 1032              		.section	.rodata._ZTSN8UnitTest4TestE,"aG",@progbits,_ZTSN8UnitTest4TestE,comdat
 1033              		.align 16
 1036              	_ZTSN8UnitTest4TestE:
 1037 0000 4E38556E 		.string	"N8UnitTest4TestE"
 1037      69745465 
 1037      73743454 
 1037      65737445 
 1037      00
 1038              		.local	_ZZN8UnitTest4Test11GetTestListEvE6s_list
 1039              		.comm	_ZZN8UnitTest4Test11GetTestListEvE6s_list,16,16
 1040              		.section	.data.rel.ro,"aw",@progbits
 1041              		.align 8
 1044              	_ZZL18__gthread_active_pvE20__gthread_active_ptr:
 1045 0000 00000000 		.quad	_ZL28__gthrw___pthread_key_createPjPFvPvE
 1045      00000000 
 1046              		.weakref	_ZL28__gthrw___pthread_key_createPjPFvPvE,__pthread_key_create
 1047              		.text
 1048              	.Letext0:
 1049              		.file 4 "TestDetails.h"
 1050              		.file 5 "TestList.h"
 1051              		.file 6 "Test.h"
 1052              		.file 7 "PosixUtils/SignalTranslator.h"
 1053              		.file 8 "<built-in>"
 1054              		.file 9 "/usr/include/stdio.h"
 1055              		.file 10 "/usr/lib/gcc/x86_64-linux-gnu/4.9/include/stddef.h"
 1056              		.file 11 "/usr/include/wchar.h"
 1057              		.file 12 "/usr/include/c++/4.9/cwchar"
 1058              		.file 13 "/usr/include/c++/4.9/bits/char_traits.h"
 1059              		.file 14 "/usr/include/x86_64-linux-gnu/c++/4.9/bits/c++config.h"
 1060              		.file 15 "/usr/include/c++/4.9/clocale"
 1061              		.file 16 "/usr/include/c++/4.9/bits/allocator.h"
 1062              		.file 17 "/usr/include/c++/4.9/bits/basic_string.h"
 1063              		.file 18 "/usr/include/c++/4.9/bits/basic_string.tcc"
 1064              		.file 19 "/usr/include/c++/4.9/bits/stringfwd.h"
 1065              		.file 20 "/usr/include/c++/4.9/cwctype"
 1066              		.file 21 "/usr/include/time.h"
 1067              		.file 22 "/usr/include/c++/4.9/exception"
 1068              		.file 23 "/usr/include/c++/4.9/debug/debug.h"
 1069              		.file 24 "/usr/include/c++/4.9/bits/predefined_ops.h"
 1070              		.file 25 "/usr/include/c++/4.9/ext/new_allocator.h"
 1071              		.file 26 "/usr/include/c++/4.9/ext/numeric_traits.h"
 1072              		.file 27 "/usr/include/locale.h"
 1073              		.file 28 "/usr/include/x86_64-linux-gnu/bits/types.h"
 1074              		.file 29 "/usr/include/x86_64-linux-gnu/bits/setjmp.h"
 1075              		.file 30 "/usr/include/x86_64-linux-gnu/c++/4.9/bits/atomic_word.h"
 1076              		.file 31 "/usr/include/wctype.h"
 1077              		.file 32 "/usr/include/x86_64-linux-gnu/bits/sigset.h"
 1078              		.file 33 "/usr/include/setjmp.h"
 1079              		.file 34 "/usr/include/x86_64-linux-gnu/bits/siginfo.h"
 1080              		.file 35 "/usr/include/signal.h"
 1081              		.file 36 "/usr/include/x86_64-linux-gnu/bits/sigaction.h"
 10024              		.align 8
 10027              	DW.ref._ZTIN8UnitTest15AssertExceptionE:
 10028 0000 00000000 		.quad	_ZTIN8UnitTest15AssertExceptionE
 10028      00000000 
 10029              		.hidden	DW.ref._ZTISt9exception
 10030              		.weak	DW.ref._ZTISt9exception
 10031              		.section	.data.DW.ref._ZTISt9exception,"awG",@progbits,DW.ref._ZTISt9exception,comdat
 10032              		.align 8
 10035              	DW.ref._ZTISt9exception:
 10036 0000 00000000 		.quad	_ZTISt9exception
 10036      00000000 
 10037              		.hidden	DW.ref.__gxx_personality_v0
 10038              		.weak	DW.ref.__gxx_personality_v0
 10039              		.section	.data.DW.ref.__gxx_personality_v0,"awG",@progbits,DW.ref.__gxx_personality_v0,comdat
 10040              		.align 8
 10043              	DW.ref.__gxx_personality_v0:
 10044 0000 00000000 		.quad	__gxx_personality_v0
 10044      00000000 
 10045              		.ident	"GCC: (Ubuntu 4.9.2-10ubuntu13) 4.9.2"
 10046              		.section	.note.GNU-stack,"",@progbits