   1              		.file	"eeprom.c"
   2              		.section	.rodata.str1.8,"aMS",@progbits,1
   3              		.align 8
   4              	.LC0:
   5 0000 66783257 		.string	"fx2WriteEEPROM(): This firmware does not seem to support EEPROM operations - try loading 
   5      72697465 
   5      45455052 
   5      4F4D2829 
   5      3A205468 
   6              		.section	.text.unlikely,"ax",@progbits
   7              	.LCOLDB1:
   8              		.text
   9              	.LHOTB1:
  10              		.p2align 4,,15
  11              		.globl	fx2WriteEEPROM
  13              	fx2WriteEEPROM:
  14              	.LFB35:
  15              		.cfi_startproc
  16 0000 4157     		pushq	%r15
  17              		.cfi_def_cfa_offset 16
  18              		.cfi_offset 15, -16
  19 0002 4156     		pushq	%r14
  20              		.cfi_def_cfa_offset 24
  21              		.cfi_offset 14, -24
  22 0004 4989F7   		movq	%rsi, %r15
  23 0007 4155     		pushq	%r13
  24              		.cfi_def_cfa_offset 32
  25              		.cfi_offset 13, -32
  26 0009 4154     		pushq	%r12
  27              		.cfi_def_cfa_offset 40
  28              		.cfi_offset 12, -40
  29 000b 4989FD   		movq	%rdi, %r13
  30 000e 55       		pushq	%rbp
  31              		.cfi_def_cfa_offset 48
  32              		.cfi_offset 6, -48
  33 000f 53       		pushq	%rbx
  34              		.cfi_def_cfa_offset 56
  35              		.cfi_offset 3, -56
  36 0010 4989F6   		movq	%rsi, %r14
  37 0013 4189D4   		movl	%edx, %r12d
  38 0016 89D3     		movl	%edx, %ebx
  39 0018 4883EC18 		subq	$24, %rsp
  40              		.cfi_def_cfa_offset 80
  41 001c 81FA0010 		cmpl	$4096, %edx
  41      0000
  42 0022 48890C24 		movq	%rcx, (%rsp)
  43 0026 7F23     		jg	.L5
  44 0028 E9F70000 		jmp	.L6
  44      00
  45 002d 0F1F00   		.p2align 4,,10
  46              		.p2align 3
  47              	.L3:
  48 0030 4981C700 		addq	$4096, %r15
  48      100000
  49 0037 81EB0010 		subl	$4096, %ebx
  49      0000
  50 003d 4489F9   		movl	%r15d, %ecx
  51 0040 4429F1   		subl	%r14d, %ecx
  52 0043 81FB0010 		cmpl	$4096, %ebx
  52      0000
  53 0049 7675     		jbe	.L11
  54              	.L5:
  55 004b 4489E5   		movl	%r12d, %ebp
  56 004e 68881300 		pushq	$5000
  56      00
  57              		.cfi_def_cfa_offset 88
  58 0053 68001000 		pushq	$4096
  58      00
  59              		.cfi_def_cfa_offset 96
  60 0058 29DD     		subl	%ebx, %ebp
  61 005a 4531C0   		xorl	%r8d, %r8d
  62 005d BE400000 		movl	$64, %esi
  62      00
  63 0062 0FB7ED   		movzwl	%bp, %ebp
  64 0065 4D89F9   		movq	%r15, %r9
  65 0068 BAA20000 		movl	$162, %edx
  65      00
  66 006d 89E9     		movl	%ebp, %ecx
  67 006f 4C89EF   		movq	%r13, %rdi
  68 0072 E8000000 		call	usb_control_msg@PLT
  68      00
  69 0077 3D001000 		cmpl	$4096, %eax
  69      00
  70 007c 59       		popq	%rcx
  71              		.cfi_def_cfa_offset 88
  72 007d 5E       		popq	%rsi
  73              		.cfi_def_cfa_offset 80
  74 007e 74B0     		je	.L3
  75 0080 8944240C 		movl	%eax, 12(%rsp)
  76 0084 E8000000 		call	usb_strerror@PLT
  76      00
  77 0089 448B4424 		movl	12(%rsp), %r8d
  77      0C
  78 008e 488B3C24 		movq	(%rsp), %rdi
  79 0092 488D3500 		leaq	.LC0(%rip), %rsi
  79      000000
  80 0099 4989C1   		movq	%rax, %r9
  81 009c 89E9     		movl	%ebp, %ecx
  82 009e 31C0     		xorl	%eax, %eax
  83 00a0 BA001000 		movl	$4096, %edx
  83      00
  84 00a5 E8000000 		call	errRender@PLT
  84      00
  85 00aa B8010000 		movl	$1, %eax
  85      00
  86              	.L4:
  87 00af 4883C418 		addq	$24, %rsp
  88              		.cfi_remember_state
  89              		.cfi_def_cfa_offset 56
  90 00b3 5B       		popq	%rbx
  91              		.cfi_def_cfa_offset 48
  92 00b4 5D       		popq	%rbp
  93              		.cfi_def_cfa_offset 40
  94 00b5 415C     		popq	%r12
  95              		.cfi_def_cfa_offset 32
  96 00b7 415D     		popq	%r13
  97              		.cfi_def_cfa_offset 24
  98 00b9 415E     		popq	%r14
  99              		.cfi_def_cfa_offset 16
 100 00bb 415F     		popq	%r15
 101              		.cfi_def_cfa_offset 8
 102 00bd C3       		ret
 103 00be 6690     		.p2align 4,,10
 104              		.p2align 3
 105              	.L11:
 106              		.cfi_restore_state
 107 00c0 0FB7E9   		movzwl	%cx, %ebp
 108              	.L2:
 109 00c3 68881300 		pushq	$5000
 109      00
 110              		.cfi_def_cfa_offset 88
 111 00c8 53       		pushq	%rbx
 112              		.cfi_def_cfa_offset 96
 113 00c9 4531C0   		xorl	%r8d, %r8d
 114 00cc BAA20000 		movl	$162, %edx
 114      00
 115 00d1 4D89F9   		movq	%r15, %r9
 116 00d4 89E9     		movl	%ebp, %ecx
 117 00d6 BE400000 		movl	$64, %esi
 117      00
 118 00db 4C89EF   		movq	%r13, %rdi
 119 00de E8000000 		call	usb_control_msg@PLT
 119      00
 120 00e3 4189C4   		movl	%eax, %r12d
 121 00e6 58       		popq	%rax
 122              		.cfi_def_cfa_offset 88
 123 00e7 31C0     		xorl	%eax, %eax
 124 00e9 4139DC   		cmpl	%ebx, %r12d
 125 00ec 5A       		popq	%rdx
 126              		.cfi_def_cfa_offset 80
 127 00ed 74C0     		je	.L4
 128 00ef E8000000 		call	usb_strerror@PLT
 128      00
 129 00f4 488B3C24 		movq	(%rsp), %rdi
 130 00f8 488D3500 		leaq	.LC0(%rip), %rsi
 130      000000
 131 00ff 4989C1   		movq	%rax, %r9
 132 0102 4589E0   		movl	%r12d, %r8d
 133 0105 89E9     		movl	%ebp, %ecx
 134 0107 89DA     		movl	%ebx, %edx
 135 0109 31C0     		xorl	%eax, %eax
 136 010b E8000000 		call	errRender@PLT
 136      00
 137 0110 4883C418 		addq	$24, %rsp
 138              		.cfi_remember_state
 139              		.cfi_def_cfa_offset 56
 140 0114 B8010000 		movl	$1, %eax
 140      00
 141 0119 5B       		popq	%rbx
 142              		.cfi_def_cfa_offset 48
 143 011a 5D       		popq	%rbp
 144              		.cfi_def_cfa_offset 40
 145 011b 415C     		popq	%r12
 146              		.cfi_def_cfa_offset 32
 147 011d 415D     		popq	%r13
 148              		.cfi_def_cfa_offset 24
 149 011f 415E     		popq	%r14
 150              		.cfi_def_cfa_offset 16
 151 0121 415F     		popq	%r15
 152              		.cfi_def_cfa_offset 8
 153 0123 C3       		ret
 154              	.L6:
 155              		.cfi_restore_state
 156 0124 31ED     		xorl	%ebp, %ebp
 157 0126 EB9B     		jmp	.L2
 158              		.cfi_endproc
 159              	.LFE35:
 161              		.section	.text.unlikely
 162              	.LCOLDE1:
 163              		.text
 164              	.LHOTE1:
 165              		.section	.rodata.str1.1,"aMS",@progbits,1
 166              	.LC2:
 167 0000 66783252 		.string	"fx2ReadEEPROM()"
 167      65616445 
 167      4550524F 
 167      4D282900 
 168              		.section	.rodata.str1.8
 169 00cd 000000   		.align 8
 170              	.LC3:
 171 00d0 66783252 		.string	"fx2ReadEEPROM(): This firmware does not seem to support EEPROM operations - try loading a
 171      65616445 
 171      4550524F 
 171      4D28293A 
 171      20546869 
 172              		.section	.text.unlikely
 173              	.LCOLDB4:
 174              		.text
 175              	.LHOTB4:
 176 0128 0F1F8400 		.p2align 4,,15
 176      00000000 
 177              		.globl	fx2ReadEEPROM
 179              	fx2ReadEEPROM:
 180              	.LFB36:
 181              		.cfi_startproc
 182 0130 4157     		pushq	%r15
 183              		.cfi_def_cfa_offset 16
 184              		.cfi_offset 15, -16
 185 0132 4156     		pushq	%r14
 186              		.cfi_def_cfa_offset 24
 187              		.cfi_offset 14, -24
 188 0134 4989FE   		movq	%rdi, %r14
 189 0137 4155     		pushq	%r13
 190              		.cfi_def_cfa_offset 32
 191              		.cfi_offset 13, -32
 192 0139 4154     		pushq	%r12
 193              		.cfi_def_cfa_offset 40
 194              		.cfi_offset 12, -40
 195 013b 4189F5   		movl	%esi, %r13d
 196 013e 55       		pushq	%rbp
 197              		.cfi_def_cfa_offset 48
 198              		.cfi_offset 6, -48
 199 013f 53       		pushq	%rbx
 200              		.cfi_def_cfa_offset 56
 201              		.cfi_offset 3, -56
 202 0140 4889D3   		movq	%rdx, %rbx
 203 0143 4889DF   		movq	%rbx, %rdi
 204 0146 89F2     		movl	%esi, %edx
 205 0148 31F6     		xorl	%esi, %esi
 206 014a 4883EC18 		subq	$24, %rsp
 207              		.cfi_def_cfa_offset 80
 208 014e 4989CF   		movq	%rcx, %r15
 209 0151 E8000000 		call	bufAppendConst@PLT
 209      00
 210 0156 85C0     		testl	%eax, %eax
 211 0158 0F851201 		jne	.L22
 211      0000
 212 015e 4181FD00 		cmpl	$4096, %r13d
 212      100000
 213 0165 4C8B23   		movq	(%rbx), %r12
 214 0168 4489EB   		movl	%r13d, %ebx
 215 016b 7725     		ja	.L17
 216 016d E9210100 		jmp	.L18
 216      00
 217              		.p2align 4,,10
 218 0172 660F1F44 		.p2align 3
 218      0000
 219              	.L16:
 220 0178 81EB0010 		subl	$4096, %ebx
 220      0000
 221 017e 4489E9   		movl	%r13d, %ecx
 222 0181 4981C400 		addq	$4096, %r12
 222      100000
 223 0188 29D9     		subl	%ebx, %ecx
 224 018a 81FB0010 		cmpl	$4096, %ebx
 224      0000
 225 0190 7676     		jbe	.L23
 226              	.L17:
 227 0192 4489ED   		movl	%r13d, %ebp
 228 0195 68881300 		pushq	$5000
 228      00
 229              		.cfi_def_cfa_offset 88
 230 019a 68001000 		pushq	$4096
 230      00
 231              		.cfi_def_cfa_offset 96
 232 019f 29DD     		subl	%ebx, %ebp
 233 01a1 4531C0   		xorl	%r8d, %r8d
 234 01a4 BEC00000 		movl	$192, %esi
 234      00
 235 01a9 0FB7ED   		movzwl	%bp, %ebp
 236 01ac 4D89E1   		movq	%r12, %r9
 237 01af BAA20000 		movl	$162, %edx
 237      00
 238 01b4 89E9     		movl	%ebp, %ecx
 239 01b6 4C89F7   		movq	%r14, %rdi
 240 01b9 E8000000 		call	usb_control_msg@PLT
 240      00
 241 01be 3D001000 		cmpl	$4096, %eax
 241      00
 242 01c3 59       		popq	%rcx
 243              		.cfi_def_cfa_offset 88
 244 01c4 5E       		popq	%rsi
 245              		.cfi_def_cfa_offset 80
 246 01c5 74B1     		je	.L16
 247 01c7 8944240C 		movl	%eax, 12(%rsp)
 248 01cb E8000000 		call	usb_strerror@PLT
 248      00
 249 01d0 448B4424 		movl	12(%rsp), %r8d
 249      0C
 250 01d5 488D3500 		leaq	.LC3(%rip), %rsi
 250      000000
 251 01dc 4989C1   		movq	%rax, %r9
 252 01df 89E9     		movl	%ebp, %ecx
 253 01e1 31C0     		xorl	%eax, %eax
 254 01e3 BA001000 		movl	$4096, %edx
 254      00
 255 01e8 4C89FF   		movq	%r15, %rdi
 256 01eb E8000000 		call	errRender@PLT
 256      00
 257 01f0 B8010000 		movl	$1, %eax
 257      00
 258              	.L14:
 259 01f5 4883C418 		addq	$24, %rsp
 260              		.cfi_remember_state
 261              		.cfi_def_cfa_offset 56
 262 01f9 5B       		popq	%rbx
 263              		.cfi_def_cfa_offset 48
 264 01fa 5D       		popq	%rbp
 265              		.cfi_def_cfa_offset 40
 266 01fb 415C     		popq	%r12
 267              		.cfi_def_cfa_offset 32
 268 01fd 415D     		popq	%r13
 269              		.cfi_def_cfa_offset 24
 270 01ff 415E     		popq	%r14
 271              		.cfi_def_cfa_offset 16
 272 0201 415F     		popq	%r15
 273              		.cfi_def_cfa_offset 8
 274 0203 C3       		ret
 275              		.p2align 4,,10
 276 0204 0F1F4000 		.p2align 3
 277              	.L23:
 278              		.cfi_restore_state
 279 0208 0FB7E9   		movzwl	%cx, %ebp
 280              	.L15:
 281 020b 68881300 		pushq	$5000
 281      00
 282              		.cfi_def_cfa_offset 88
 283 0210 53       		pushq	%rbx
 284              		.cfi_def_cfa_offset 96
 285 0211 4D89E1   		movq	%r12, %r9
 286 0214 4531C0   		xorl	%r8d, %r8d
 287 0217 BAA20000 		movl	$162, %edx
 287      00
 288 021c 89E9     		movl	%ebp, %ecx
 289 021e BEC00000 		movl	$192, %esi
 289      00
 290 0223 4C89F7   		movq	%r14, %rdi
 291 0226 E8000000 		call	usb_control_msg@PLT
 291      00
 292 022b 4189C4   		movl	%eax, %r12d
 293 022e 58       		popq	%rax
 294              		.cfi_def_cfa_offset 88
 295 022f 31C0     		xorl	%eax, %eax
 296 0231 4439E3   		cmpl	%r12d, %ebx
 297 0234 5A       		popq	%rdx
 298              		.cfi_def_cfa_offset 80
 299 0235 74BE     		je	.L14
 300 0237 E8000000 		call	usb_strerror@PLT
 300      00
 301 023c 488D3500 		leaq	.LC3(%rip), %rsi
 301      000000
 302 0243 4989C1   		movq	%rax, %r9
 303 0246 4589E0   		movl	%r12d, %r8d
 304 0249 89E9     		movl	%ebp, %ecx
 305 024b 89DA     		movl	%ebx, %edx
 306 024d 4C89FF   		movq	%r15, %rdi
 307 0250 31C0     		xorl	%eax, %eax
 308 0252 E8000000 		call	errRender@PLT
 308      00
 309 0257 4883C418 		addq	$24, %rsp
 310              		.cfi_remember_state
 311              		.cfi_def_cfa_offset 56
 312 025b B8010000 		movl	$1, %eax
 312      00
 313 0260 5B       		popq	%rbx
 314              		.cfi_def_cfa_offset 48
 315 0261 5D       		popq	%rbp
 316              		.cfi_def_cfa_offset 40
 317 0262 415C     		popq	%r12
 318              		.cfi_def_cfa_offset 32
 319 0264 415D     		popq	%r13
 320              		.cfi_def_cfa_offset 24
 321 0266 415E     		popq	%r14
 322              		.cfi_def_cfa_offset 16
 323 0268 415F     		popq	%r15
 324              		.cfi_def_cfa_offset 8
 325 026a C3       		ret
 326 026b 0F1F4400 		.p2align 4,,10
 326      00
 327              		.p2align 3
 328              	.L22:
 329              		.cfi_restore_state
 330 0270 488D3500 		leaq	.LC2(%rip), %rsi
 330      000000
 331 0277 4C89FF   		movq	%r15, %rdi
 332 027a E8000000 		call	errPrefix@PLT
 332      00
 333 027f 4883C418 		addq	$24, %rsp
 334              		.cfi_remember_state
 335              		.cfi_def_cfa_offset 56
 336 0283 B8020000 		movl	$2, %eax
 336      00
 337 0288 5B       		popq	%rbx
 338              		.cfi_def_cfa_offset 48
 339 0289 5D       		popq	%rbp
 340              		.cfi_def_cfa_offset 40
 341 028a 415C     		popq	%r12
 342              		.cfi_def_cfa_offset 32
 343 028c 415D     		popq	%r13
 344              		.cfi_def_cfa_offset 24
 345 028e 415E     		popq	%r14
 346              		.cfi_def_cfa_offset 16
 347 0290 415F     		popq	%r15
 348              		.cfi_def_cfa_offset 8
 349 0292 C3       		ret
 350              	.L18:
 351              		.cfi_restore_state
 352 0293 31ED     		xorl	%ebp, %ebp
 353 0295 E971FFFF 		jmp	.L15
 353      FF
 354              		.cfi_endproc
 355              	.LFE36:
 357              		.section	.text.unlikely
 358              	.LCOLDE4:
 359              		.text
 360              	.LHOTE4:
 361              		.ident	"GCC: (Ubuntu 4.9.2-10ubuntu13) 4.9.2"
 362              		.section	.note.GNU-stack,"",@progbits