   1              		.file	"TestTestMacros.cpp"
   2              		.section	.text.unlikely._ZN17RecordingReporter13ReportSummaryEiiif,"axG",@progbits,_ZN17RecordingR
   3              		.align 2
   4              	.LCOLDB0:
   5              		.section	.text._ZN17RecordingReporter13ReportSummaryEiiif,"axG",@progbits,_ZN17RecordingReporter13
   6              	.LHOTB0:
   7              		.align 2
   8              		.p2align 4,,15
   9              		.weak	_ZN17RecordingReporter13ReportSummaryEiiif
  11              	_ZN17RecordingReporter13ReportSummaryEiiif:
  12              	.LFB1130:
  13              		.cfi_startproc
  14 0000 89B71C08 		movl	%esi, 2076(%rdi)
  14      0000
  15 0006 89972008 		movl	%edx, 2080(%rdi)
  15      0000
  16 000c F30F1187 		movss	%xmm0, 2088(%rdi)
  16      28080000 
  17 0014 898F2408 		movl	%ecx, 2084(%rdi)
  17      0000
  18 001a C3       		ret
  19              		.cfi_endproc
  20              	.LFE1130:
  22              		.section	.text.unlikely._ZN17RecordingReporter13ReportSummaryEiiif,"axG",@progbits,_ZN17RecordingR
  23              	.LCOLDE0:
  24              		.section	.text._ZN17RecordingReporter13ReportSummaryEiiif,"axG",@progbits,_ZN17RecordingReporter13
  25              	.LHOTE0:
  26              		.section	.text.unlikely,"ax",@progbits
  27              		.align 2
  28              	.LCOLDB1:
  29              		.text
  30              	.LHOTB1:
  31              		.align 2
  32              		.p2align 4,,15
  34              	_ZNK12_GLOBAL__N_113TestDummyTest7RunImplEv:
  35              	.LFB1143:
  36              		.cfi_startproc
  37 0000 F3C3     		rep ret
  38              		.cfi_endproc
  39              	.LFE1143:
  41              		.section	.text.unlikely
  42              	.LCOLDE1:
  43              		.text
  44              	.LHOTE1:
  45              		.section	.text.unlikely
  46              		.align 2
  47              	.LCOLDB2:
  48              		.text
  49              	.LHOTB2:
  50              		.align 2
  51 0002 0F1F4000 		.p2align 4,,15
  51      662E0F1F 
  51      84000000 
  51      0000
  53              	_ZNK12_GLOBAL__N_115SuiteTestSuite144TestSimilarlyNamedTestsInDifferentSuitesWork7RunImplEv:
  54              	.LFB1167:
  55              		.cfi_startproc
  56 0010 F3C3     		rep ret
  57              		.cfi_endproc
  58              	.LFE1167:
  60              		.section	.text.unlikely
  61              	.LCOLDE2:
  62              		.text
  63              	.LHOTE2:
  64              		.section	.text.unlikely
  65              		.align 2
  66              	.LCOLDB3:
  67              		.text
  68              	.LHOTB3:
  69              		.align 2
  70 0012 0F1F4000 		.p2align 4,,15
  70      662E0F1F 
  70      84000000 
  70      0000
  72              	_ZNK12_GLOBAL__N_115SuiteTestSuite244TestSimilarlyNamedTestsInDifferentSuitesWork7RunImplEv:
  73              	.LFB1183:
  74              		.cfi_startproc
  75 0020 F3C3     		rep ret
  76              		.cfi_endproc
  77              	.LFE1183:
  79              		.section	.text.unlikely
  80              	.LCOLDE3:
  81              		.text
  82              	.LHOTE3:
  83              		.section	.text.unlikely
  84              		.align 2
  85              	.LCOLDB4:
  86              		.text
  87              	.LHOTB4:
  88              		.align 2
  89 0022 0F1F4000 		.p2align 4,,15
  89      662E0F1F 
  89      84000000 
  89      0000
  91              	_ZNK12_GLOBAL__N_120TestMacroTestHelper17RunImplEv:
  92              	.LFB1195:
  93              		.cfi_startproc
  94 0030 F3C3     		rep ret
  95              		.cfi_endproc
  96              	.LFE1195:
  98              		.section	.text.unlikely
  99              	.LCOLDE4:
 100              		.text
 101              	.LHOTE4:
 102              		.section	.text.unlikely
 103              		.align 2
 104              	.LCOLDB5:
 105              		.text
 106              	.LHOTB5:
 107              		.align 2
 108 0032 0F1F4000 		.p2align 4,,15
 108      662E0F1F 
 108      84000000 
 108      0000
 109              		.globl	_ZNK18SuiteSameTestSuite14TestDummyTest17RunImplEv
 111              	_ZNK18SuiteSameTestSuite14TestDummyTest17RunImplEv:
 112              	.LFB1267:
 113              		.cfi_startproc
 114 0040 F3C3     		rep ret
 115              		.cfi_endproc
 116              	.LFE1267:
 118              		.section	.text.unlikely
 119              	.LCOLDE5:
 120              		.text
 121              	.LHOTE5:
 122              		.section	.rodata.str1.8,"aMS",@progbits,1
 123              		.align 8
 124              	.LC6:
 125 0000 43757272 		.string	"CurrentTestDetailsContainCurrentTestInfo"
 125      656E7454 
 125      65737444 
 125      65746169 
 125      6C73436F 
 126 0029 00000000 		.align 8
 126      000000
 127              	.LC7:
 128 0030 556E6861 		.string	"Unhandled exception in CHECK_EQUAL(STRINGIFY(CUR_TEST_NAME), details->testName)"
 128      6E646C65 
 128      64206578 
 128      63657074 
 128      696F6E20 
 129              		.section	.text.unlikely
 130              		.align 2
 131              	.LCOLDB8:
 132              		.text
 133              	.LHOTB8:
 134              		.align 2
 135 0042 0F1F4000 		.p2align 4,,15
 135      662E0F1F 
 135      84000000 
 135      0000
 136              		.globl	_ZNK44TestCurrentTestDetailsContainCurrentTestInfo7RunImplEv
 138              	_ZNK44TestCurrentTestDetailsContainCurrentTestInfo7RunImplEv:
 139              	.LFB1271:
 140              		.cfi_startproc
 141              		.cfi_personality 0x3,__gxx_personality_v0
 142              		.cfi_lsda 0x3,.LLSDA1271
 143 0050 55       		pushq	%rbp
 144              		.cfi_def_cfa_offset 16
 145              		.cfi_offset 6, -16
 146 0051 53       		pushq	%rbx
 147              		.cfi_def_cfa_offset 24
 148              		.cfi_offset 3, -24
 149 0052 4883EC38 		subq	$56, %rsp
 150              		.cfi_def_cfa_offset 80
 151 0056 64488B04 		movq	%fs:40, %rax
 151      25280000 
 151      00
 152 005f 48894424 		movq	%rax, 40(%rsp)
 152      28
 153 0064 31C0     		xorl	%eax, %eax
 154              	.LEHB0:
 155 0066 E8000000 		call	_ZN8UnitTest11CurrentTest7DetailsEv
 155      00
 156              	.LEHE0:
 157 006b 488B28   		movq	(%rax), %rbp
 158              	.LEHB1:
 159 006e E8000000 		call	_ZN8UnitTest11CurrentTest7DetailsEv
 159      00
 160 0073 488B30   		movq	(%rax), %rsi
 161 0076 BACF0000 		movl	$207, %edx
 161      00
 162 007b 4889E7   		movq	%rsp, %rdi
 163 007e E8000000 		call	_ZN8UnitTest11TestDetailsC1ERKS0_i
 163      00
 164 0083 488B6D08 		movq	8(%rbp), %rbp
 165 0087 E8000000 		call	_ZN8UnitTest11CurrentTest7ResultsEv
 165      00
 166 008c 488B38   		movq	(%rax), %rdi
 167 008f 4889E1   		movq	%rsp, %rcx
 168 0092 4889EA   		movq	%rbp, %rdx
 169 0095 BE000000 		movl	$.LC6, %esi
 169      00
 170 009a E8000000 		call	_ZN8UnitTest10CheckEqualERNS_11TestResultsEPKcS3_RKNS_11TestDetailsE
 170      00
 171              	.LEHE1:
 172              	.L7:
 173 009f 488B4424 		movq	40(%rsp), %rax
 173      28
 174 00a4 64483304 		xorq	%fs:40, %rax
 174      25280000 
 174      00
 175 00ad 7507     		jne	.L16
 176 00af 4883C438 		addq	$56, %rsp
 177              		.cfi_remember_state
 178              		.cfi_def_cfa_offset 24
 179 00b3 5B       		popq	%rbx
 180              		.cfi_def_cfa_offset 16
 181 00b4 5D       		popq	%rbp
 182              		.cfi_def_cfa_offset 8
 183 00b5 C3       		ret
 184              	.L16:
 185              		.cfi_restore_state
 186 00b6 E8000000 		call	__stack_chk_fail
 186      00
 187              	.L12:
 188 00bb 4889C7   		movq	%rax, %rdi
 189 00be E8000000 		call	__cxa_begin_catch
 189      00
 190              	.LEHB2:
 191 00c3 E8000000 		call	_ZN8UnitTest11CurrentTest7DetailsEv
 191      00
 192 00c8 488B30   		movq	(%rax), %rsi
 193 00cb BACF0000 		movl	$207, %edx
 193      00
 194 00d0 4889E7   		movq	%rsp, %rdi
 195 00d3 E8000000 		call	_ZN8UnitTest11TestDetailsC1ERKS0_i
 195      00
 196 00d8 E8000000 		call	_ZN8UnitTest11CurrentTest7ResultsEv
 196      00
 197 00dd 488B38   		movq	(%rax), %rdi
 198 00e0 BA000000 		movl	$.LC7, %edx
 198      00
 199 00e5 4889E6   		movq	%rsp, %rsi
 200 00e8 E8000000 		call	_ZN8UnitTest11TestResults13OnTestFailureERKNS_11TestDetailsEPKc
 200      00
 201              	.LEHE2:
 202              	.LEHB3:
 203 00ed E8000000 		call	__cxa_end_catch
 203      00
 204              	.LEHE3:
 205 00f2 EBAB     		jmp	.L7
 206              	.L13:
 207 00f4 4889C3   		movq	%rax, %rbx
 208 00f7 E8000000 		call	__cxa_end_catch
 208      00
 209 00fc 4889DF   		movq	%rbx, %rdi
 210              	.LEHB4:
 211 00ff E8000000 		call	_Unwind_Resume
 211      00
 212              	.LEHE4:
 213              		.cfi_endproc
 214              	.LFE1271:
 215              		.globl	__gxx_personality_v0
 216              		.section	.gcc_except_table,"a",@progbits
 217              		.align 4
 218              	.LLSDA1271:
 219 0000 FF       		.byte	0xff
 220 0001 03       		.byte	0x3
 221 0002 21       		.uleb128 .LLSDATT1271-.LLSDATTD1271
 222              	.LLSDATTD1271:
 223 0003 01       		.byte	0x1
 224 0004 17       		.uleb128 .LLSDACSE1271-.LLSDACSB1271
 225              	.LLSDACSB1271:
 226 0005 16       		.uleb128 .LEHB0-.LFB1271
 227 0006 05       		.uleb128 .LEHE0-.LEHB0
 228 0007 00       		.uleb128 0
 229 0008 00       		.uleb128 0
 230 0009 1E       		.uleb128 .LEHB1-.LFB1271
 231 000a 31       		.uleb128 .LEHE1-.LEHB1
 232 000b 6B       		.uleb128 .L12-.LFB1271
 233 000c 01       		.uleb128 0x1
 234 000d 73       		.uleb128 .LEHB2-.LFB1271
 235 000e 2A       		.uleb128 .LEHE2-.LEHB2
 236 000f A401     		.uleb128 .L13-.LFB1271
 237 0011 00       		.uleb128 0
 238 0012 9D01     		.uleb128 .LEHB3-.LFB1271
 239 0014 05       		.uleb128 .LEHE3-.LEHB3
 240 0015 00       		.uleb128 0
 241 0016 00       		.uleb128 0
 242 0017 AF01     		.uleb128 .LEHB4-.LFB1271
 243 0019 05       		.uleb128 .LEHE4-.LEHB4
 244 001a 00       		.uleb128 0
 245 001b 00       		.uleb128 0
 246              	.LLSDACSE1271:
 247 001c 01       		.byte	0x1
 248 001d 00       		.byte	0
 249 001e 0000     		.align 4
 250 0020 00000000 		.long	0
 251              	
 252              	.LLSDATT1271:
 253              		.text
 255              		.section	.text.unlikely
 256              	.LCOLDE8:
 257              		.text
 258              	.LHOTE8:
 259              		.section	.text.unlikely._ZN44TestCurrentTestDetailsContainCurrentTestInfoD2Ev,"axG",@progbits,_ZN4
 260              		.align 2
 261              	.LCOLDB9:
 262              		.section	.text._ZN44TestCurrentTestDetailsContainCurrentTestInfoD2Ev,"axG",@progbits,_ZN44TestCurr
 263              	.LHOTB9:
 264              		.align 2
 265              		.p2align 4,,15
 266              		.weak	_ZN44TestCurrentTestDetailsContainCurrentTestInfoD2Ev
 268              	_ZN44TestCurrentTestDetailsContainCurrentTestInfoD2Ev:
 269              	.LFB1358:
 270              		.cfi_startproc
 271 0000 48C70700 		movq	$_ZTV44TestCurrentTestDetailsContainCurrentTestInfo+16, (%rdi)
 271      000000
 272 0007 E9000000 		jmp	_ZN8UnitTest4TestD2Ev
 272      00
 273              		.cfi_endproc
 274              	.LFE1358:
 276              		.section	.text.unlikely._ZN44TestCurrentTestDetailsContainCurrentTestInfoD2Ev,"axG",@progbits,_ZN4
 277              	.LCOLDE9:
 278              		.section	.text._ZN44TestCurrentTestDetailsContainCurrentTestInfoD2Ev,"axG",@progbits,_ZN44TestCurr
 279              	.LHOTE9:
 280              		.weak	_ZN44TestCurrentTestDetailsContainCurrentTestInfoD1Ev
 281              		.set	_ZN44TestCurrentTestDetailsContainCurrentTestInfoD1Ev,_ZN44TestCurrentTestDetailsContainCurre
 282              		.section	.text.unlikely._ZN44TestCurrentTestDetailsContainCurrentTestInfoD0Ev,"axG",@progbits,_ZN4
 283              		.align 2
 284              	.LCOLDB10:
 285              		.section	.text._ZN44TestCurrentTestDetailsContainCurrentTestInfoD0Ev,"axG",@progbits,_ZN44TestCurr
 286              	.LHOTB10:
 287              		.align 2
 288              		.p2align 4,,15
 289              		.weak	_ZN44TestCurrentTestDetailsContainCurrentTestInfoD0Ev
 291              	_ZN44TestCurrentTestDetailsContainCurrentTestInfoD0Ev:
 292              	.LFB1360:
 293              		.cfi_startproc
 294 0000 53       		pushq	%rbx
 295              		.cfi_def_cfa_offset 16
 296              		.cfi_offset 3, -16
 297 0001 4889FB   		movq	%rdi, %rbx
 298 0004 48C70700 		movq	$_ZTV44TestCurrentTestDetailsContainCurrentTestInfo+16, (%rdi)
 298      000000
 299 000b E8000000 		call	_ZN8UnitTest4TestD2Ev
 299      00
 300 0010 4889DF   		movq	%rbx, %rdi
 301 0013 5B       		popq	%rbx
 302              		.cfi_def_cfa_offset 8
 303 0014 E9000000 		jmp	_ZdlPv
 303      00
 304              		.cfi_endproc
 305              	.LFE1360:
 307              		.section	.text.unlikely._ZN44TestCurrentTestDetailsContainCurrentTestInfoD0Ev,"axG",@progbits,_ZN4
 308              	.LCOLDE10:
 309              		.section	.text._ZN44TestCurrentTestDetailsContainCurrentTestInfoD0Ev,"axG",@progbits,_ZN44TestCurr
 310              	.LHOTE10:
 311              		.section	.text.unlikely._ZN18SuiteSameTestSuite14TestDummyTest1D2Ev,"axG",@progbits,_ZN18SuiteSame
 312              		.align 2
 313              	.LCOLDB11:
 314              		.section	.text._ZN18SuiteSameTestSuite14TestDummyTest1D2Ev,"axG",@progbits,_ZN18SuiteSameTestSuite
 315              	.LHOTB11:
 316              		.align 2
 317              		.p2align 4,,15
 318              		.weak	_ZN18SuiteSameTestSuite14TestDummyTest1D2Ev
 320              	_ZN18SuiteSameTestSuite14TestDummyTest1D2Ev:
 321              	.LFB1362:
 322              		.cfi_startproc
 323 0000 48C70700 		movq	$_ZTVN18SuiteSameTestSuite14TestDummyTest1E+16, (%rdi)
 323      000000
 324 0007 E9000000 		jmp	_ZN8UnitTest4TestD2Ev
 324      00
 325              		.cfi_endproc
 326              	.LFE1362:
 328              		.section	.text.unlikely._ZN18SuiteSameTestSuite14TestDummyTest1D2Ev,"axG",@progbits,_ZN18SuiteSame
 329              	.LCOLDE11:
 330              		.section	.text._ZN18SuiteSameTestSuite14TestDummyTest1D2Ev,"axG",@progbits,_ZN18SuiteSameTestSuite
 331              	.LHOTE11:
 332              		.weak	_ZN18SuiteSameTestSuite14TestDummyTest1D1Ev
 333              		.set	_ZN18SuiteSameTestSuite14TestDummyTest1D1Ev,_ZN18SuiteSameTestSuite14TestDummyTest1D2Ev
 334              		.section	.text.unlikely._ZN18SuiteSameTestSuite14TestDummyTest1D0Ev,"axG",@progbits,_ZN18SuiteSame
 335              		.align 2
 336              	.LCOLDB12:
 337              		.section	.text._ZN18SuiteSameTestSuite14TestDummyTest1D0Ev,"axG",@progbits,_ZN18SuiteSameTestSuite
 338              	.LHOTB12:
 339              		.align 2
 340              		.p2align 4,,15
 341              		.weak	_ZN18SuiteSameTestSuite14TestDummyTest1D0Ev
 343              	_ZN18SuiteSameTestSuite14TestDummyTest1D0Ev:
 344              	.LFB1364:
 345              		.cfi_startproc
 346 0000 53       		pushq	%rbx
 347              		.cfi_def_cfa_offset 16
 348              		.cfi_offset 3, -16
 349 0001 4889FB   		movq	%rdi, %rbx
 350 0004 48C70700 		movq	$_ZTVN18SuiteSameTestSuite14TestDummyTest1E+16, (%rdi)
 350      000000
 351 000b E8000000 		call	_ZN8UnitTest4TestD2Ev
 351      00
 352 0010 4889DF   		movq	%rbx, %rdi
 353 0013 5B       		popq	%rbx
 354              		.cfi_def_cfa_offset 8
 355 0014 E9000000 		jmp	_ZdlPv
 355      00
 356              		.cfi_endproc
 357              	.LFE1364:
 359              		.section	.text.unlikely._ZN18SuiteSameTestSuite14TestDummyTest1D0Ev,"axG",@progbits,_ZN18SuiteSame
 360              	.LCOLDE12:
 361              		.section	.text._ZN18SuiteSameTestSuite14TestDummyTest1D0Ev,"axG",@progbits,_ZN18SuiteSameTestSuite
 362              	.LHOTE12:
 363              		.section	.text.unlikely
 364              		.align 2
 365              	.LCOLDB13:
 366              		.text
 367              	.LHOTB13:
 368              		.align 2
 369 0104 6690662E 		.p2align 4,,15
 369      0F1F8400 
 369      00000000 
 371              	_ZN12_GLOBAL__N_147TestCorrectlyReportsFixturesWithCtorsThatAssertD2Ev:
 372              	.LFB1366:
 373              		.cfi_startproc
 374 0110 48C70700 		movq	$_ZTVN12_GLOBAL__N_147TestCorrectlyReportsFixturesWithCtorsThatAssertE+16, (%rdi)
 374      000000
 375 0117 E9000000 		jmp	_ZN8UnitTest4TestD2Ev
 375      00
 376              		.cfi_endproc
 377              	.LFE1366:
 379              		.section	.text.unlikely
 380              	.LCOLDE13:
 381              		.text
 382              	.LHOTE13:
 383              		.set	_ZN12_GLOBAL__N_147TestCorrectlyReportsFixturesWithCtorsThatAssertD1Ev,_ZN12_GLOBAL__N_147Tes
 384              		.section	.text.unlikely
 385              		.align 2
 386              	.LCOLDB14:
 387              		.text
 388              	.LHOTB14:
 389              		.align 2
 390 011c 0F1F4000 		.p2align 4,,15
 392              	_ZN12_GLOBAL__N_147TestCorrectlyReportsFixturesWithCtorsThatAssertD0Ev:
 393              	.LFB1368:
 394              		.cfi_startproc
 395 0120 53       		pushq	%rbx
 396              		.cfi_def_cfa_offset 16
 397              		.cfi_offset 3, -16
 398 0121 4889FB   		movq	%rdi, %rbx
 399 0124 48C70700 		movq	$_ZTVN12_GLOBAL__N_147TestCorrectlyReportsFixturesWithCtorsThatAssertE+16, (%rdi)
 399      000000
 400 012b E8000000 		call	_ZN8UnitTest4TestD2Ev
 400      00
 401 0130 4889DF   		movq	%rbx, %rdi
 402 0133 5B       		popq	%rbx
 403              		.cfi_def_cfa_offset 8
 404 0134 E9000000 		jmp	_ZdlPv
 404      00
 405              		.cfi_endproc
 406              	.LFE1368:
 408              		.section	.text.unlikely
 409              	.LCOLDE14:
 410              		.text
 411              	.LHOTE14:
 412              		.section	.text.unlikely
 413              		.align 2
 414              	.LCOLDB15:
 415              		.text
 416              	.LHOTB15:
 417 0139 90       		.align 2
 418 013a 660F1F44 		.p2align 4,,15
 418      0000
 420              	_ZN12_GLOBAL__N_157TestFixtureCtorAssertsCorrectlyReportsAssertFailureInCtorD2Ev:
 421              	.LFB1370:
 422              		.cfi_startproc
 423 0140 48C70700 		movq	$_ZTVN12_GLOBAL__N_157TestFixtureCtorAssertsCorrectlyReportsAssertFailureInCtorE+16, (%rdi)
 423      000000
 424 0147 E9000000 		jmp	_ZN8UnitTest4TestD2Ev
 424      00
 425              		.cfi_endproc
 426              	.LFE1370:
 428              		.section	.text.unlikely
 429              	.LCOLDE15:
 430              		.text
 431              	.LHOTE15:
 432              		.set	_ZN12_GLOBAL__N_157TestFixtureCtorAssertsCorrectlyReportsAssertFailureInCtorD1Ev,_ZN12_GLOBAL
 433              		.section	.text.unlikely
 434              		.align 2
 435              	.LCOLDB16:
 436              		.text
 437              	.LHOTB16:
 438              		.align 2
 439 014c 0F1F4000 		.p2align 4,,15
 441              	_ZN12_GLOBAL__N_157TestFixtureCtorAssertsCorrectlyReportsAssertFailureInCtorD0Ev:
 442              	.LFB1372:
 443              		.cfi_startproc
 444 0150 53       		pushq	%rbx
 445              		.cfi_def_cfa_offset 16
 446              		.cfi_offset 3, -16
 447 0151 4889FB   		movq	%rdi, %rbx
 448 0154 48C70700 		movq	$_ZTVN12_GLOBAL__N_157TestFixtureCtorAssertsCorrectlyReportsAssertFailureInCtorE+16, (%rdi)
 448      000000
 449 015b E8000000 		call	_ZN8UnitTest4TestD2Ev
 449      00
 450 0160 4889DF   		movq	%rbx, %rdi
 451 0163 5B       		popq	%rbx
 452              		.cfi_def_cfa_offset 8
 453 0164 E9000000 		jmp	_ZdlPv
 453      00
 454              		.cfi_endproc
 455              	.LFE1372:
 457              		.section	.text.unlikely
 458              	.LCOLDE16:
 459              		.text
 460              	.LHOTE16:
 461              		.section	.text.unlikely
 462              		.align 2
 463              	.LCOLDB17:
 464              		.text
 465              	.LHOTB17:
 466 0169 90       		.align 2
 467 016a 660F1F44 		.p2align 4,,15
 467      0000
 469              	_ZN12_GLOBAL__N_140TestFixturesWithThrowingDtorsAreFailuresD2Ev:
 470              	.LFB1374:
 471              		.cfi_startproc
 472 0170 48C70700 		movq	$_ZTVN12_GLOBAL__N_140TestFixturesWithThrowingDtorsAreFailuresE+16, (%rdi)
 472      000000
 473 0177 E9000000 		jmp	_ZN8UnitTest4TestD2Ev
 473      00
 474              		.cfi_endproc
 475              	.LFE1374:
 477              		.section	.text.unlikely
 478              	.LCOLDE17:
 479              		.text
 480              	.LHOTE17:
 481              		.set	_ZN12_GLOBAL__N_140TestFixturesWithThrowingDtorsAreFailuresD1Ev,_ZN12_GLOBAL__N_140TestFixtur
 482              		.section	.text.unlikely
 483              		.align 2
 484              	.LCOLDB18:
 485              		.text
 486              	.LHOTB18:
 487              		.align 2
 488 017c 0F1F4000 		.p2align 4,,15
 490              	_ZN12_GLOBAL__N_140TestFixturesWithThrowingDtorsAreFailuresD0Ev:
 491              	.LFB1376:
 492              		.cfi_startproc
 493 0180 53       		pushq	%rbx
 494              		.cfi_def_cfa_offset 16
 495              		.cfi_offset 3, -16
 496 0181 4889FB   		movq	%rdi, %rbx
 497 0184 48C70700 		movq	$_ZTVN12_GLOBAL__N_140TestFixturesWithThrowingDtorsAreFailuresE+16, (%rdi)
 497      000000
 498 018b E8000000 		call	_ZN8UnitTest4TestD2Ev
 498      00
 499 0190 4889DF   		movq	%rbx, %rdi
 500 0193 5B       		popq	%rbx
 501              		.cfi_def_cfa_offset 8
 502 0194 E9000000 		jmp	_ZdlPv
 502      00
 503              		.cfi_endproc
 504              	.LFE1376:
 506              		.section	.text.unlikely
 507              	.LCOLDE18:
 508              		.text
 509              	.LHOTE18:
 510              		.section	.text.unlikely
 511              		.align 2
 512              	.LCOLDB19:
 513              		.text
 514              	.LHOTB19:
 515 0199 90       		.align 2
 516 019a 660F1F44 		.p2align 4,,15
 516      0000
 518              	_ZN12_GLOBAL__N_146TestFixtureDtorThrowsFixtureDtorThrowsTestNameD2Ev:
 519              	.LFB1378:
 520              		.cfi_startproc
 521 01a0 48C70700 		movq	$_ZTVN12_GLOBAL__N_146TestFixtureDtorThrowsFixtureDtorThrowsTestNameE+16, (%rdi)
 521      000000
 522 01a7 E9000000 		jmp	_ZN8UnitTest4TestD2Ev
 522      00
 523              		.cfi_endproc
 524              	.LFE1378:
 526              		.section	.text.unlikely
 527              	.LCOLDE19:
 528              		.text
 529              	.LHOTE19:
 530              		.set	_ZN12_GLOBAL__N_146TestFixtureDtorThrowsFixtureDtorThrowsTestNameD1Ev,_ZN12_GLOBAL__N_146Test
 531              		.section	.text.unlikely
 532              		.align 2
 533              	.LCOLDB20:
 534              		.text
 535              	.LHOTB20:
 536              		.align 2
 537 01ac 0F1F4000 		.p2align 4,,15
 539              	_ZN12_GLOBAL__N_146TestFixtureDtorThrowsFixtureDtorThrowsTestNameD0Ev:
 540              	.LFB1380:
 541              		.cfi_startproc
 542 01b0 53       		pushq	%rbx
 543              		.cfi_def_cfa_offset 16
 544              		.cfi_offset 3, -16
 545 01b1 4889FB   		movq	%rdi, %rbx
 546 01b4 48C70700 		movq	$_ZTVN12_GLOBAL__N_146TestFixtureDtorThrowsFixtureDtorThrowsTestNameE+16, (%rdi)
 546      000000
 547 01bb E8000000 		call	_ZN8UnitTest4TestD2Ev
 547      00
 548 01c0 4889DF   		movq	%rbx, %rdi
 549 01c3 5B       		popq	%rbx
 550              		.cfi_def_cfa_offset 8
 551 01c4 E9000000 		jmp	_ZdlPv
 551      00
 552              		.cfi_endproc
 553              	.LFE1380:
 555              		.section	.text.unlikely
 556              	.LCOLDE20:
 557              		.text
 558              	.LHOTE20:
 559              		.section	.text.unlikely
 560              		.align 2
 561              	.LCOLDB21:
 562              		.text
 563              	.LHOTB21:
 564 01c9 90       		.align 2
 565 01ca 660F1F44 		.p2align 4,,15
 565      0000
 567              	_ZN12_GLOBAL__N_140TestFixturesWithThrowingCtorsAreFailuresD2Ev:
 568              	.LFB1382:
 569              		.cfi_startproc
 570 01d0 48C70700 		movq	$_ZTVN12_GLOBAL__N_140TestFixturesWithThrowingCtorsAreFailuresE+16, (%rdi)
 570      000000
 571 01d7 E9000000 		jmp	_ZN8UnitTest4TestD2Ev
 571      00
 572              		.cfi_endproc
 573              	.LFE1382:
 575              		.section	.text.unlikely
 576              	.LCOLDE21:
 577              		.text
 578              	.LHOTE21:
 579              		.set	_ZN12_GLOBAL__N_140TestFixturesWithThrowingCtorsAreFailuresD1Ev,_ZN12_GLOBAL__N_140TestFixtur
 580              		.section	.text.unlikely
 581              		.align 2
 582              	.LCOLDB22:
 583              		.text
 584              	.LHOTB22:
 585              		.align 2
 586 01dc 0F1F4000 		.p2align 4,,15
 588              	_ZN12_GLOBAL__N_140TestFixturesWithThrowingCtorsAreFailuresD0Ev:
 589              	.LFB1384:
 590              		.cfi_startproc
 591 01e0 53       		pushq	%rbx
 592              		.cfi_def_cfa_offset 16
 593              		.cfi_offset 3, -16
 594 01e1 4889FB   		movq	%rdi, %rbx
 595 01e4 48C70700 		movq	$_ZTVN12_GLOBAL__N_140TestFixturesWithThrowingCtorsAreFailuresE+16, (%rdi)
 595      000000
 596 01eb E8000000 		call	_ZN8UnitTest4TestD2Ev
 596      00
 597 01f0 4889DF   		movq	%rbx, %rdi
 598 01f3 5B       		popq	%rbx
 599              		.cfi_def_cfa_offset 8
 600 01f4 E9000000 		jmp	_ZdlPv
 600      00
 601              		.cfi_endproc
 602              	.LFE1384:
 604              		.section	.text.unlikely
 605              	.LCOLDE22:
 606              		.text
 607              	.LHOTE22:
 608              		.section	.text.unlikely
 609              		.align 2
 610              	.LCOLDB23:
 611              		.text
 612              	.LHOTB23:
 613 01f9 90       		.align 2
 614 01fa 660F1F44 		.p2align 4,,15
 614      0000
 616              	_ZN12_GLOBAL__N_146TestFixtureCtorThrowsFixtureCtorThrowsTestNameD2Ev:
 617              	.LFB1386:
 618              		.cfi_startproc
 619 0200 48C70700 		movq	$_ZTVN12_GLOBAL__N_146TestFixtureCtorThrowsFixtureCtorThrowsTestNameE+16, (%rdi)
 619      000000
 620 0207 E9000000 		jmp	_ZN8UnitTest4TestD2Ev
 620      00
 621              		.cfi_endproc
 622              	.LFE1386:
 624              		.section	.text.unlikely
 625              	.LCOLDE23:
 626              		.text
 627              	.LHOTE23:
 628              		.set	_ZN12_GLOBAL__N_146TestFixtureCtorThrowsFixtureCtorThrowsTestNameD1Ev,_ZN12_GLOBAL__N_146Test
 629              		.section	.text.unlikely
 630              		.align 2
 631              	.LCOLDB24:
 632              		.text
 633              	.LHOTB24:
 634              		.align 2
 635 020c 0F1F4000 		.p2align 4,,15
 637              	_ZN12_GLOBAL__N_146TestFixtureCtorThrowsFixtureCtorThrowsTestNameD0Ev:
 638              	.LFB1388:
 639              		.cfi_startproc
 640 0210 53       		pushq	%rbx
 641              		.cfi_def_cfa_offset 16
 642              		.cfi_offset 3, -16
 643 0211 4889FB   		movq	%rdi, %rbx
 644 0214 48C70700 		movq	$_ZTVN12_GLOBAL__N_146TestFixtureCtorThrowsFixtureCtorThrowsTestNameE+16, (%rdi)
 644      000000
 645 021b E8000000 		call	_ZN8UnitTest4TestD2Ev
 645      00
 646 0220 4889DF   		movq	%rbx, %rdi
 647 0223 5B       		popq	%rbx
 648              		.cfi_def_cfa_offset 8
 649 0224 E9000000 		jmp	_ZdlPv
 649      00
 650              		.cfi_endproc
 651              	.LFE1388:
 653              		.section	.text.unlikely
 654              	.LCOLDE24:
 655              		.text
 656              	.LHOTE24:
 657              		.section	.text.unlikely
 658              		.align 2
 659              	.LCOLDB25:
 660              		.text
 661              	.LHOTB25:
 662 0229 90       		.align 2
 663 022a 660F1F44 		.p2align 4,,15
 663      0000
 665              	_ZN12_GLOBAL__N_153TestTestAddedWithTEST_FIXTURE_EXMacroGetsDefaultSuiteD2Ev:
 666              	.LFB1390:
 667              		.cfi_startproc
 668 0230 48C70700 		movq	$_ZTVN12_GLOBAL__N_153TestTestAddedWithTEST_FIXTURE_EXMacroGetsDefaultSuiteE+16, (%rdi)
 668      000000
 669 0237 E9000000 		jmp	_ZN8UnitTest4TestD2Ev
 669      00
 670              		.cfi_endproc
 671              	.LFE1390:
 673              		.section	.text.unlikely
 674              	.LCOLDE25:
 675              		.text
 676              	.LHOTE25:
 677              		.set	_ZN12_GLOBAL__N_153TestTestAddedWithTEST_FIXTURE_EXMacroGetsDefaultSuiteD1Ev,_ZN12_GLOBAL__N_
 678              		.section	.text.unlikely
 679              		.align 2
 680              	.LCOLDB26:
 681              		.text
 682              	.LHOTB26:
 683              		.align 2
 684 023c 0F1F4000 		.p2align 4,,15
 686              	_ZN12_GLOBAL__N_153TestTestAddedWithTEST_FIXTURE_EXMacroGetsDefaultSuiteD0Ev:
 687              	.LFB1392:
 688              		.cfi_startproc
 689 0240 53       		pushq	%rbx
 690              		.cfi_def_cfa_offset 16
 691              		.cfi_offset 3, -16
 692 0241 4889FB   		movq	%rdi, %rbx
 693 0244 48C70700 		movq	$_ZTVN12_GLOBAL__N_153TestTestAddedWithTEST_FIXTURE_EXMacroGetsDefaultSuiteE+16, (%rdi)
 693      000000
 694 024b E8000000 		call	_ZN8UnitTest4TestD2Ev
 694      00
 695 0250 4889DF   		movq	%rbx, %rdi
 696 0253 5B       		popq	%rbx
 697              		.cfi_def_cfa_offset 8
 698 0254 E9000000 		jmp	_ZdlPv
 698      00
 699              		.cfi_endproc
 700              	.LFE1392:
 702              		.section	.text.unlikely
 703              	.LCOLDE26:
 704              		.text
 705              	.LHOTE26:
 706              		.section	.text.unlikely
 707              		.align 2
 708              	.LCOLDB27:
 709              		.text
 710              	.LHOTB27:
 711 0259 90       		.align 2
 712 025a 660F1F44 		.p2align 4,,15
 712      0000
 714              	_ZN12_GLOBAL__N_132TestDummyFixtureMacroTestHelper2D2Ev:
 715              	.LFB1394:
 716              		.cfi_startproc
 717 0260 48C70700 		movq	$_ZTVN12_GLOBAL__N_132TestDummyFixtureMacroTestHelper2E+16, (%rdi)
 717      000000
 718 0267 E9000000 		jmp	_ZN8UnitTest4TestD2Ev
 718      00
 719              		.cfi_endproc
 720              	.LFE1394:
 722              		.section	.text.unlikely
 723              	.LCOLDE27:
 724              		.text
 725              	.LHOTE27:
 726              		.set	_ZN12_GLOBAL__N_132TestDummyFixtureMacroTestHelper2D1Ev,_ZN12_GLOBAL__N_132TestDummyFixtureMa
 727              		.section	.text.unlikely
 728              		.align 2
 729              	.LCOLDB28:
 730              		.text
 731              	.LHOTB28:
 732              		.align 2
 733 026c 0F1F4000 		.p2align 4,,15
 735              	_ZN12_GLOBAL__N_132TestDummyFixtureMacroTestHelper2D0Ev:
 736              	.LFB1396:
 737              		.cfi_startproc
 738 0270 53       		pushq	%rbx
 739              		.cfi_def_cfa_offset 16
 740              		.cfi_offset 3, -16
 741 0271 4889FB   		movq	%rdi, %rbx
 742 0274 48C70700 		movq	$_ZTVN12_GLOBAL__N_132TestDummyFixtureMacroTestHelper2E+16, (%rdi)
 742      000000
 743 027b E8000000 		call	_ZN8UnitTest4TestD2Ev
 743      00
 744 0280 4889DF   		movq	%rbx, %rdi
 745 0283 5B       		popq	%rbx
 746              		.cfi_def_cfa_offset 8
 747 0284 E9000000 		jmp	_ZdlPv
 747      00
 748              		.cfi_endproc
 749              	.LFE1396:
 751              		.section	.text.unlikely
 752              	.LCOLDE28:
 753              		.text
 754              	.LHOTE28:
 755              		.section	.text.unlikely
 756              		.align 2
 757              	.LCOLDB29:
 758              		.text
 759              	.LHOTB29:
 760 0289 90       		.align 2
 761 028a 660F1F44 		.p2align 4,,15
 761      0000
 763              	_ZN12_GLOBAL__N_145TestTestAddedWithTEST_EXMacroGetsDefaultSuiteD2Ev:
 764              	.LFB1398:
 765              		.cfi_startproc
 766 0290 48C70700 		movq	$_ZTVN12_GLOBAL__N_145TestTestAddedWithTEST_EXMacroGetsDefaultSuiteE+16, (%rdi)
 766      000000
 767 0297 E9000000 		jmp	_ZN8UnitTest4TestD2Ev
 767      00
 768              		.cfi_endproc
 769              	.LFE1398:
 771              		.section	.text.unlikely
 772              	.LCOLDE29:
 773              		.text
 774              	.LHOTE29:
 775              		.set	_ZN12_GLOBAL__N_145TestTestAddedWithTEST_EXMacroGetsDefaultSuiteD1Ev,_ZN12_GLOBAL__N_145TestT
 776              		.section	.text.unlikely
 777              		.align 2
 778              	.LCOLDB30:
 779              		.text
 780              	.LHOTB30:
 781              		.align 2
 782 029c 0F1F4000 		.p2align 4,,15
 784              	_ZN12_GLOBAL__N_145TestTestAddedWithTEST_EXMacroGetsDefaultSuiteD0Ev:
 785              	.LFB1400:
 786              		.cfi_startproc
 787 02a0 53       		pushq	%rbx
 788              		.cfi_def_cfa_offset 16
 789              		.cfi_offset 3, -16
 790 02a1 4889FB   		movq	%rdi, %rbx
 791 02a4 48C70700 		movq	$_ZTVN12_GLOBAL__N_145TestTestAddedWithTEST_EXMacroGetsDefaultSuiteE+16, (%rdi)
 791      000000
 792 02ab E8000000 		call	_ZN8UnitTest4TestD2Ev
 792      00
 793 02b0 4889DF   		movq	%rbx, %rdi
 794 02b3 5B       		popq	%rbx
 795              		.cfi_def_cfa_offset 8
 796 02b4 E9000000 		jmp	_ZdlPv
 796      00
 797              		.cfi_endproc
 798              	.LFE1400:
 800              		.section	.text.unlikely
 801              	.LCOLDE30:
 802              		.text
 803              	.LHOTE30:
 804              		.section	.text.unlikely
 805              		.align 2
 806              	.LCOLDB31:
 807              		.text
 808              	.LHOTB31:
 809 02b9 90       		.align 2
 810 02ba 660F1F44 		.p2align 4,,15
 810      0000
 812              	_ZN12_GLOBAL__N_120TestMacroTestHelper1D2Ev:
 813              	.LFB1402:
 814              		.cfi_startproc
 815 02c0 48C70700 		movq	$_ZTVN12_GLOBAL__N_120TestMacroTestHelper1E+16, (%rdi)
 815      000000
 816 02c7 E9000000 		jmp	_ZN8UnitTest4TestD2Ev
 816      00
 817              		.cfi_endproc
 818              	.LFE1402:
 820              		.section	.text.unlikely
 821              	.LCOLDE31:
 822              		.text
 823              	.LHOTE31:
 824              		.set	_ZN12_GLOBAL__N_120TestMacroTestHelper1D1Ev,_ZN12_GLOBAL__N_120TestMacroTestHelper1D2Ev
 825              		.section	.text.unlikely
 826              		.align 2
 827              	.LCOLDB32:
 828              		.text
 829              	.LHOTB32:
 830              		.align 2
 831 02cc 0F1F4000 		.p2align 4,,15
 833              	_ZN12_GLOBAL__N_120TestMacroTestHelper1D0Ev:
 834              	.LFB1404:
 835              		.cfi_startproc
 836 02d0 53       		pushq	%rbx
 837              		.cfi_def_cfa_offset 16
 838              		.cfi_offset 3, -16
 839 02d1 4889FB   		movq	%rdi, %rbx
 840 02d4 48C70700 		movq	$_ZTVN12_GLOBAL__N_120TestMacroTestHelper1E+16, (%rdi)
 840      000000
 841 02db E8000000 		call	_ZN8UnitTest4TestD2Ev
 841      00
 842 02e0 4889DF   		movq	%rbx, %rdi
 843 02e3 5B       		popq	%rbx
 844              		.cfi_def_cfa_offset 8
 845 02e4 E9000000 		jmp	_ZdlPv
 845      00
 846              		.cfi_endproc
 847              	.LFE1404:
 849              		.section	.text.unlikely
 850              	.LCOLDE32:
 851              		.text
 852              	.LHOTE32:
 853              		.section	.text.unlikely
 854              		.align 2
 855              	.LCOLDB33:
 856              		.text
 857              	.LHOTB33:
 858 02e9 90       		.align 2
 859 02ea 660F1F44 		.p2align 4,,15
 859      0000
 861              	_ZN12_GLOBAL__N_115SuiteTestSuite263TestDummyFixtureSimilarlyNamedFixtureTestsInDifferentSuitesWork
 862              	.LFB1406:
 863              		.cfi_startproc
 864 02f0 48C70700 		movq	$_ZTVN12_GLOBAL__N_115SuiteTestSuite263TestDummyFixtureSimilarlyNamedFixtureTestsInDifferentS
 864      000000
 865 02f7 E9000000 		jmp	_ZN8UnitTest4TestD2Ev
 865      00
 866              		.cfi_endproc
 867              	.LFE1406:
 869              		.section	.text.unlikely
 870              	.LCOLDE33:
 871              		.text
 872              	.LHOTE33:
 873              		.set	_ZN12_GLOBAL__N_115SuiteTestSuite263TestDummyFixtureSimilarlyNamedFixtureTestsInDifferentSuit
 874              		.section	.text.unlikely
 875              		.align 2
 876              	.LCOLDB34:
 877              		.text
 878              	.LHOTB34:
 879              		.align 2
 880 02fc 0F1F4000 		.p2align 4,,15
 882              	_ZN12_GLOBAL__N_115SuiteTestSuite263TestDummyFixtureSimilarlyNamedFixtureTestsInDifferentSuitesWork
 883              	.LFB1408:
 884              		.cfi_startproc
 885 0300 53       		pushq	%rbx
 886              		.cfi_def_cfa_offset 16
 887              		.cfi_offset 3, -16
 888 0301 4889FB   		movq	%rdi, %rbx
 889 0304 48C70700 		movq	$_ZTVN12_GLOBAL__N_115SuiteTestSuite263TestDummyFixtureSimilarlyNamedFixtureTestsInDifferentS
 889      000000
 890 030b E8000000 		call	_ZN8UnitTest4TestD2Ev
 890      00
 891 0310 4889DF   		movq	%rbx, %rdi
 892 0313 5B       		popq	%rbx
 893              		.cfi_def_cfa_offset 8
 894 0314 E9000000 		jmp	_ZdlPv
 894      00
 895              		.cfi_endproc
 896              	.LFE1408:
 898              		.section	.text.unlikely
 899              	.LCOLDE34:
 900              		.text
 901              	.LHOTE34:
 902              		.section	.text.unlikely
 903              		.align 2
 904              	.LCOLDB35:
 905              		.text
 906              	.LHOTB35:
 907 0319 90       		.align 2
 908 031a 660F1F44 		.p2align 4,,15
 908      0000
 910              	_ZN12_GLOBAL__N_115SuiteTestSuite244TestSimilarlyNamedTestsInDifferentSuitesWorkD2Ev:
 911              	.LFB1410:
 912              		.cfi_startproc
 913 0320 48C70700 		movq	$_ZTVN12_GLOBAL__N_115SuiteTestSuite244TestSimilarlyNamedTestsInDifferentSuitesWorkE+16, (%rd
 913      000000
 914 0327 E9000000 		jmp	_ZN8UnitTest4TestD2Ev
 914      00
 915              		.cfi_endproc
 916              	.LFE1410:
 918              		.section	.text.unlikely
 919              	.LCOLDE35:
 920              		.text
 921              	.LHOTE35:
 922              		.set	_ZN12_GLOBAL__N_115SuiteTestSuite244TestSimilarlyNamedTestsInDifferentSuitesWorkD1Ev,_ZN12_GL
 923              		.section	.text.unlikely
 924              		.align 2
 925              	.LCOLDB36:
 926              		.text
 927              	.LHOTB36:
 928              		.align 2
 929 032c 0F1F4000 		.p2align 4,,15
 931              	_ZN12_GLOBAL__N_115SuiteTestSuite244TestSimilarlyNamedTestsInDifferentSuitesWorkD0Ev:
 932              	.LFB1412:
 933              		.cfi_startproc
 934 0330 53       		pushq	%rbx
 935              		.cfi_def_cfa_offset 16
 936              		.cfi_offset 3, -16
 937 0331 4889FB   		movq	%rdi, %rbx
 938 0334 48C70700 		movq	$_ZTVN12_GLOBAL__N_115SuiteTestSuite244TestSimilarlyNamedTestsInDifferentSuitesWorkE+16, (%rd
 938      000000
 939 033b E8000000 		call	_ZN8UnitTest4TestD2Ev
 939      00
 940 0340 4889DF   		movq	%rbx, %rdi
 941 0343 5B       		popq	%rbx
 942              		.cfi_def_cfa_offset 8
 943 0344 E9000000 		jmp	_ZdlPv
 943      00
 944              		.cfi_endproc
 945              	.LFE1412:
 947              		.section	.text.unlikely
 948              	.LCOLDE36:
 949              		.text
 950              	.LHOTE36:
 951              		.section	.text.unlikely
 952              		.align 2
 953              	.LCOLDB37:
 954              		.text
 955              	.LHOTB37:
 956 0349 90       		.align 2
 957 034a 660F1F44 		.p2align 4,,15
 957      0000
 959              	_ZN12_GLOBAL__N_115SuiteTestSuite163TestDummyFixtureSimilarlyNamedFixtureTestsInDifferentSuitesWork
 960              	.LFB1414:
 961              		.cfi_startproc
 962 0350 48C70700 		movq	$_ZTVN12_GLOBAL__N_115SuiteTestSuite163TestDummyFixtureSimilarlyNamedFixtureTestsInDifferentS
 962      000000
 963 0357 E9000000 		jmp	_ZN8UnitTest4TestD2Ev
 963      00
 964              		.cfi_endproc
 965              	.LFE1414:
 967              		.section	.text.unlikely
 968              	.LCOLDE37:
 969              		.text
 970              	.LHOTE37:
 971              		.set	_ZN12_GLOBAL__N_115SuiteTestSuite163TestDummyFixtureSimilarlyNamedFixtureTestsInDifferentSuit
 972              		.section	.text.unlikely
 973              		.align 2
 974              	.LCOLDB38:
 975              		.text
 976              	.LHOTB38:
 977              		.align 2
 978 035c 0F1F4000 		.p2align 4,,15
 980              	_ZN12_GLOBAL__N_115SuiteTestSuite163TestDummyFixtureSimilarlyNamedFixtureTestsInDifferentSuitesWork
 981              	.LFB1416:
 982              		.cfi_startproc
 983 0360 53       		pushq	%rbx
 984              		.cfi_def_cfa_offset 16
 985              		.cfi_offset 3, -16
 986 0361 4889FB   		movq	%rdi, %rbx
 987 0364 48C70700 		movq	$_ZTVN12_GLOBAL__N_115SuiteTestSuite163TestDummyFixtureSimilarlyNamedFixtureTestsInDifferentS
 987      000000
 988 036b E8000000 		call	_ZN8UnitTest4TestD2Ev
 988      00
 989 0370 4889DF   		movq	%rbx, %rdi
 990 0373 5B       		popq	%rbx
 991              		.cfi_def_cfa_offset 8
 992 0374 E9000000 		jmp	_ZdlPv
 992      00
 993              		.cfi_endproc
 994              	.LFE1416:
 996              		.section	.text.unlikely
 997              	.LCOLDE38:
 998              		.text
 999              	.LHOTE38:
 1000              		.section	.text.unlikely
 1001              		.align 2
 1002              	.LCOLDB39:
 1003              		.text
 1004              	.LHOTB39:
 1005 0379 90       		.align 2
 1006 037a 660F1F44 		.p2align 4,,15
 1006      0000
 1008              	_ZN12_GLOBAL__N_115SuiteTestSuite144TestSimilarlyNamedTestsInDifferentSuitesWorkD2Ev:
 1009              	.LFB1418:
 1010              		.cfi_startproc
 1011 0380 48C70700 		movq	$_ZTVN12_GLOBAL__N_115SuiteTestSuite144TestSimilarlyNamedTestsInDifferentSuitesWorkE+16, (%rd
 1011      000000
 1012 0387 E9000000 		jmp	_ZN8UnitTest4TestD2Ev
 1012      00
 1013              		.cfi_endproc
 1014              	.LFE1418:
 1016              		.section	.text.unlikely
 1017              	.LCOLDE39:
 1018              		.text
 1019              	.LHOTE39:
 1020              		.set	_ZN12_GLOBAL__N_115SuiteTestSuite144TestSimilarlyNamedTestsInDifferentSuitesWorkD1Ev,_ZN12_GL
 1021              		.section	.text.unlikely
 1022              		.align 2
 1023              	.LCOLDB40:
 1024              		.text
 1025              	.LHOTB40:
 1026              		.align 2
 1027 038c 0F1F4000 		.p2align 4,,15
 1029              	_ZN12_GLOBAL__N_115SuiteTestSuite144TestSimilarlyNamedTestsInDifferentSuitesWorkD0Ev:
 1030              	.LFB1420:
 1031              		.cfi_startproc
 1032 0390 53       		pushq	%rbx
 1033              		.cfi_def_cfa_offset 16
 1034              		.cfi_offset 3, -16
 1035 0391 4889FB   		movq	%rdi, %rbx
 1036 0394 48C70700 		movq	$_ZTVN12_GLOBAL__N_115SuiteTestSuite144TestSimilarlyNamedTestsInDifferentSuitesWorkE+16, (%rd
 1036      000000
 1037 039b E8000000 		call	_ZN8UnitTest4TestD2Ev
 1037      00
 1038 03a0 4889DF   		movq	%rbx, %rdi
 1039 03a3 5B       		popq	%rbx
 1040              		.cfi_def_cfa_offset 8
 1041 03a4 E9000000 		jmp	_ZdlPv
 1041      00
 1042              		.cfi_endproc
 1043              	.LFE1420:
 1045              		.section	.text.unlikely
 1046              	.LCOLDE40:
 1047              		.text
 1048              	.LHOTE40:
 1049              		.section	.text.unlikely
 1050              		.align 2
 1051              	.LCOLDB41:
 1052              		.text
 1053              	.LHOTB41:
 1054 03a9 90       		.align 2
 1055 03aa 660F1F44 		.p2align 4,,15
 1055      0000
 1057              	_ZN12_GLOBAL__N_157TestExceptionsInFixtureAreReportedAsHappeningInTheFixtureD2Ev:
 1058              	.LFB1422:
 1059              		.cfi_startproc
 1060 03b0 48C70700 		movq	$_ZTVN12_GLOBAL__N_157TestExceptionsInFixtureAreReportedAsHappeningInTheFixtureE+16, (%rdi)
 1060      000000
 1061 03b7 E9000000 		jmp	_ZN8UnitTest4TestD2Ev
 1061      00
 1062              		.cfi_endproc
 1063              	.LFE1422:
 1065              		.section	.text.unlikely
 1066              	.LCOLDE41:
 1067              		.text
 1068              	.LHOTE41:
 1069              		.set	_ZN12_GLOBAL__N_157TestExceptionsInFixtureAreReportedAsHappeningInTheFixtureD1Ev,_ZN12_GLOBAL
 1070              		.section	.text.unlikely
 1071              		.align 2
 1072              	.LCOLDB42:
 1073              		.text
 1074              	.LHOTB42:
 1075              		.align 2
 1076 03bc 0F1F4000 		.p2align 4,,15
 1078              	_ZN12_GLOBAL__N_157TestExceptionsInFixtureAreReportedAsHappeningInTheFixtureD0Ev:
 1079              	.LFB1424:
 1080              		.cfi_startproc
 1081 03c0 53       		pushq	%rbx
 1082              		.cfi_def_cfa_offset 16
 1083              		.cfi_offset 3, -16
 1084 03c1 4889FB   		movq	%rdi, %rbx
 1085 03c4 48C70700 		movq	$_ZTVN12_GLOBAL__N_157TestExceptionsInFixtureAreReportedAsHappeningInTheFixtureE+16, (%rdi)
 1085      000000
 1086 03cb E8000000 		call	_ZN8UnitTest4TestD2Ev
 1086      00
 1087 03d0 4889DF   		movq	%rbx, %rdi
 1088 03d3 5B       		popq	%rbx
 1089              		.cfi_def_cfa_offset 8
 1090 03d4 E9000000 		jmp	_ZdlPv
 1090      00
 1091              		.cfi_endproc
 1092              	.LFE1424:
 1094              		.section	.text.unlikely
 1095              	.LCOLDE42:
 1096              		.text
 1097              	.LHOTE42:
 1098              		.section	.text.unlikely
 1099              		.align 2
 1100              	.LCOLDB43:
 1101              		.text
 1102              	.LHOTB43:
 1103 03d9 90       		.align 2
 1104 03da 660F1F44 		.p2align 4,,15
 1104      0000
 1106              	_ZN12_GLOBAL__N_132TestThrowingThingieDummyTestNameD2Ev:
 1107              	.LFB1426:
 1108              		.cfi_startproc
 1109 03e0 48C70700 		movq	$_ZTVN12_GLOBAL__N_132TestThrowingThingieDummyTestNameE+16, (%rdi)
 1109      000000
 1110 03e7 E9000000 		jmp	_ZN8UnitTest4TestD2Ev
 1110      00
 1111              		.cfi_endproc
 1112              	.LFE1426:
 1114              		.section	.text.unlikely
 1115              	.LCOLDE43:
 1116              		.text
 1117              	.LHOTE43:
 1118              		.set	_ZN12_GLOBAL__N_132TestThrowingThingieDummyTestNameD1Ev,_ZN12_GLOBAL__N_132TestThrowingThingi
 1119              		.section	.text.unlikely
 1120              		.align 2
 1121              	.LCOLDB44:
 1122              		.text
 1123              	.LHOTB44:
 1124              		.align 2
 1125 03ec 0F1F4000 		.p2align 4,,15
 1127              	_ZN12_GLOBAL__N_132TestThrowingThingieDummyTestNameD0Ev:
 1128              	.LFB1428:
 1129              		.cfi_startproc
 1130 03f0 53       		pushq	%rbx
 1131              		.cfi_def_cfa_offset 16
 1132              		.cfi_offset 3, -16
 1133 03f1 4889FB   		movq	%rdi, %rbx
 1134 03f4 48C70700 		movq	$_ZTVN12_GLOBAL__N_132TestThrowingThingieDummyTestNameE+16, (%rdi)
 1134      000000
 1135 03fb E8000000 		call	_ZN8UnitTest4TestD2Ev
 1135      00
 1136 0400 4889DF   		movq	%rbx, %rdi
 1137 0403 5B       		popq	%rbx
 1138              		.cfi_def_cfa_offset 8
 1139 0404 E9000000 		jmp	_ZdlPv
 1139      00
 1140              		.cfi_endproc
 1141              	.LFE1428:
 1143              		.section	.text.unlikely
 1144              	.LCOLDE44:
 1145              		.text
 1146              	.LHOTE44:
 1147              		.section	.text.unlikely
 1148              		.align 2
 1149              	.LCOLDB45:
 1150              		.text
 1151              	.LHOTB45:
 1152 0409 90       		.align 2
 1153 040a 660F1F44 		.p2align 4,,15
 1153      0000
 1155              	_ZN12_GLOBAL__N_138TestTestsAreAddedToTheListThroughMacroD2Ev:
 1156              	.LFB1430:
 1157              		.cfi_startproc
 1158 0410 48C70700 		movq	$_ZTVN12_GLOBAL__N_138TestTestsAreAddedToTheListThroughMacroE+16, (%rdi)
 1158      000000
 1159 0417 E9000000 		jmp	_ZN8UnitTest4TestD2Ev
 1159      00
 1160              		.cfi_endproc
 1161              	.LFE1430:
 1163              		.section	.text.unlikely
 1164              	.LCOLDE45:
 1165              		.text
 1166              	.LHOTE45:
 1167              		.set	_ZN12_GLOBAL__N_138TestTestsAreAddedToTheListThroughMacroD1Ev,_ZN12_GLOBAL__N_138TestTestsAre
 1168              		.section	.text.unlikely
 1169              		.align 2
 1170              	.LCOLDB46:
 1171              		.text
 1172              	.LHOTB46:
 1173              		.align 2
 1174 041c 0F1F4000 		.p2align 4,,15
 1176              	_ZN12_GLOBAL__N_138TestTestsAreAddedToTheListThroughMacroD0Ev:
 1177              	.LFB1432:
 1178              		.cfi_startproc
 1179 0420 53       		pushq	%rbx
 1180              		.cfi_def_cfa_offset 16
 1181              		.cfi_offset 3, -16
 1182 0421 4889FB   		movq	%rdi, %rbx
 1183 0424 48C70700 		movq	$_ZTVN12_GLOBAL__N_138TestTestsAreAddedToTheListThroughMacroE+16, (%rdi)
 1183      000000
 1184 042b E8000000 		call	_ZN8UnitTest4TestD2Ev
 1184      00
 1185 0430 4889DF   		movq	%rbx, %rdi
 1186 0433 5B       		popq	%rbx
 1187              		.cfi_def_cfa_offset 8
 1188 0434 E9000000 		jmp	_ZdlPv
 1188      00
 1189              		.cfi_endproc
 1190              	.LFE1432:
 1192              		.section	.text.unlikely
 1193              	.LCOLDE46:
 1194              		.text
 1195              	.LHOTE46:
 1196              		.section	.text.unlikely
 1197              		.align 2
 1198              	.LCOLDB47:
 1199              		.text
 1200              	.LHOTB47:
 1201 0439 90       		.align 2
 1202 043a 660F1F44 		.p2align 4,,15
 1202      0000
 1204              	_ZN12_GLOBAL__N_113TestDummyTestD2Ev:
 1205              	.LFB1434:
 1206              		.cfi_startproc
 1207 0440 48C70700 		movq	$_ZTVN12_GLOBAL__N_113TestDummyTestE+16, (%rdi)
 1207      000000
 1208 0447 E9000000 		jmp	_ZN8UnitTest4TestD2Ev
 1208      00
 1209              		.cfi_endproc
 1210              	.LFE1434:
 1212              		.section	.text.unlikely
 1213              	.LCOLDE47:
 1214              		.text
 1215              	.LHOTE47:
 1216              		.set	_ZN12_GLOBAL__N_113TestDummyTestD1Ev,_ZN12_GLOBAL__N_113TestDummyTestD2Ev
 1217              		.section	.text.unlikely
 1218              		.align 2
 1219              	.LCOLDB48:
 1220              		.text
 1221              	.LHOTB48:
 1222              		.align 2
 1223 044c 0F1F4000 		.p2align 4,,15
 1225              	_ZN12_GLOBAL__N_113TestDummyTestD0Ev:
 1226              	.LFB1436:
 1227              		.cfi_startproc
 1228 0450 53       		pushq	%rbx
 1229              		.cfi_def_cfa_offset 16
 1230              		.cfi_offset 3, -16
 1231 0451 4889FB   		movq	%rdi, %rbx
 1232 0454 48C70700 		movq	$_ZTVN12_GLOBAL__N_113TestDummyTestE+16, (%rdi)
 1232      000000
 1233 045b E8000000 		call	_ZN8UnitTest4TestD2Ev
 1233      00
 1234 0460 4889DF   		movq	%rbx, %rdi
 1235 0463 5B       		popq	%rbx
 1236              		.cfi_def_cfa_offset 8
 1237 0464 E9000000 		jmp	_ZdlPv
 1237      00
 1238              		.cfi_endproc
 1239              	.LFE1436:
 1241              		.section	.text.unlikely
 1242              	.LCOLDE48:
 1243              		.text
 1244              	.LHOTE48:
 1245              		.section	.rodata.str1.8
 1246              		.align 8
 1247              	.LC49:
 1248 0080 6D616372 		.string	"macroTestList2.GetHead() != NULL"
 1248      6F546573 
 1248      744C6973 
 1248      74322E47 
 1248      65744865 
 1249              		.section	.rodata.str1.1,"aMS",@progbits,1
 1250              	.LC50:
 1251 0000 4D616372 		.string	"MacroTestHelper2"
 1251      6F546573 
 1251      7448656C 
 1251      70657232 
 1251      00
 1252              	.LC51:
 1253 0011 44656661 		.string	"DefaultSuite"
 1253      756C7453 
 1253      75697465 
 1253      00
 1254              		.section	.rodata.str1.8
 1255 00a1 00000000 		.align 8
 1255      000000
 1256              	.LC52:
 1257 00a8 556E6861 		.string	"Unhandled exception in CHECK(macroTestList2.GetHead() != NULL)"
 1257      6E646C65 
 1257      64206578 
 1257      63657074 
 1257      696F6E20 
 1258 00e7 00       		.align 8
 1259              	.LC53:
 1260 00e8 556E6861 		.string	"Unhandled exception in CHECK_EQUAL(\"MacroTestHelper2\", macroTestList2.GetHead()->m_deta
 1260      6E646C65 
 1260      64206578 
 1260      63657074 
 1260      696F6E20 
 1261 014d 000000   		.align 8
 1262              	.LC54:
 1263 0150 556E6861 		.string	"Unhandled exception in CHECK_EQUAL(\"DefaultSuite\", macroTestList2.GetHead()->m_details.
 1263      6E646C65 
 1263      64206578 
 1263      63657074 
 1263      696F6E20 
 1264              		.section	.text.unlikely
 1265              		.align 2
 1266              	.LCOLDB55:
 1267              		.text
 1268              	.LHOTB55:
 1269 0469 90       		.align 2
 1270 046a 660F1F44 		.p2align 4,,15
 1270      0000
 1272              	_ZNK12_GLOBAL__N_153TestTestAddedWithTEST_FIXTURE_EXMacroGetsDefaultSuite7RunImplEv:
 1273              	.LFB1211:
 1274              		.cfi_startproc
 1275              		.cfi_personality 0x3,__gxx_personality_v0
 1276              		.cfi_lsda 0x3,.LLSDA1211
 1277 0470 55       		pushq	%rbp
 1278              		.cfi_def_cfa_offset 16
 1279              		.cfi_offset 6, -16
 1280 0471 53       		pushq	%rbx
 1281              		.cfi_def_cfa_offset 24
 1282              		.cfi_offset 3, -24
 1283 0472 BF000000 		movl	$_ZN12_GLOBAL__N_114macroTestList2E, %edi
 1283      00
 1284 0477 4883EC38 		subq	$56, %rsp
 1285              		.cfi_def_cfa_offset 80
 1286 047b 64488B04 		movq	%fs:40, %rax
 1286      25280000 
 1286      00
 1287 0484 48894424 		movq	%rax, 40(%rsp)
 1287      28
 1288 0489 31C0     		xorl	%eax, %eax
 1289              	.LEHB5:
 1290 048b E8000000 		call	_ZNK8UnitTest8TestList7GetHeadEv
 1290      00
 1291              	.LEHE5:
 1292 0490 4885C0   		testq	%rax, %rax
 1293 0493 0F849700 		je	.L95
 1293      0000
 1294              	.L78:
 1295              	.LEHB6:
 1296 0499 E8000000 		call	_ZN8UnitTest11CurrentTest7DetailsEv
 1296      00
 1297 049e 488B30   		movq	(%rax), %rsi
 1298 04a1 BA670000 		movl	$103, %edx
 1298      00
 1299 04a6 4889E7   		movq	%rsp, %rdi
 1300 04a9 4889E3   		movq	%rsp, %rbx
 1301 04ac E8000000 		call	_ZN8UnitTest11TestDetailsC1ERKS0_i
 1301      00
 1302 04b1 BF000000 		movl	$_ZN12_GLOBAL__N_114macroTestList2E, %edi
 1302      00
 1303 04b6 E8000000 		call	_ZNK8UnitTest8TestList7GetHeadEv
 1303      00
 1304 04bb 488B6810 		movq	16(%rax), %rbp
 1305 04bf E8000000 		call	_ZN8UnitTest11CurrentTest7ResultsEv
 1305      00
 1306 04c4 488B38   		movq	(%rax), %rdi
 1307 04c7 4889E1   		movq	%rsp, %rcx
 1308 04ca 4889EA   		movq	%rbp, %rdx
 1309 04cd BE000000 		movl	$.LC50, %esi
 1309      00
 1310 04d2 E8000000 		call	_ZN8UnitTest10CheckEqualERNS_11TestResultsEPKcS3_RKNS_11TestDetailsE
 1310      00
 1311              	.LEHE6:
 1312              	.L83:
 1313              	.LEHB7:
 1314 04d7 E8000000 		call	_ZN8UnitTest11CurrentTest7DetailsEv
 1314      00
 1315 04dc 488B30   		movq	(%rax), %rsi
 1316 04df BA680000 		movl	$104, %edx
 1316      00
 1317 04e4 4889DF   		movq	%rbx, %rdi
 1318 04e7 E8000000 		call	_ZN8UnitTest11TestDetailsC1ERKS0_i
 1318      00
 1319 04ec BF000000 		movl	$_ZN12_GLOBAL__N_114macroTestList2E, %edi
 1319      00
 1320 04f1 E8000000 		call	_ZNK8UnitTest8TestList7GetHeadEv
 1320      00
 1321 04f6 488B6808 		movq	8(%rax), %rbp
 1322 04fa E8000000 		call	_ZN8UnitTest11CurrentTest7ResultsEv
 1322      00
 1323 04ff 488B38   		movq	(%rax), %rdi
 1324 0502 4889D9   		movq	%rbx, %rcx
 1325 0505 4889EA   		movq	%rbp, %rdx
 1326 0508 BE000000 		movl	$.LC51, %esi
 1326      00
 1327 050d E8000000 		call	_ZN8UnitTest10CheckEqualERNS_11TestResultsEPKcS3_RKNS_11TestDetailsE
 1327      00
 1328              	.LEHE7:
 1329              	.L77:
 1330 0512 488B4424 		movq	40(%rsp), %rax
 1330      28
 1331 0517 64483304 		xorq	%fs:40, %rax
 1331      25280000 
 1331      00
 1332 0520 753D     		jne	.L96
 1333 0522 4883C438 		addq	$56, %rsp
 1334              		.cfi_remember_state
 1335              		.cfi_def_cfa_offset 24
 1336 0526 5B       		popq	%rbx
 1337              		.cfi_def_cfa_offset 16
 1338 0527 5D       		popq	%rbp
 1339              		.cfi_def_cfa_offset 8
 1340 0528 C3       		ret
 1341 0529 0F1F8000 		.p2align 4,,10
 1341      000000
 1342              		.p2align 3
 1343              	.L95:
 1344              		.cfi_restore_state
 1345              	.LEHB8:
 1346 0530 E8000000 		call	_ZN8UnitTest11CurrentTest7DetailsEv
 1346      00
 1347 0535 488B30   		movq	(%rax), %rsi
 1348 0538 BA660000 		movl	$102, %edx
 1348      00
 1349 053d 4889E7   		movq	%rsp, %rdi
 1350 0540 E8000000 		call	_ZN8UnitTest11TestDetailsC1ERKS0_i
 1350      00
 1351 0545 E8000000 		call	_ZN8UnitTest11CurrentTest7ResultsEv
 1351      00
 1352 054a 488B38   		movq	(%rax), %rdi
 1353 054d BA000000 		movl	$.LC49, %edx
 1353      00
 1354 0552 4889E6   		movq	%rsp, %rsi
 1355 0555 E8000000 		call	_ZN8UnitTest11TestResults13OnTestFailureERKNS_11TestDetailsEPKc
 1355      00
 1356              	.LEHE8:
 1357 055a E93AFFFF 		jmp	.L78
 1357      FF
 1358              	.L96:
 1359 055f E8000000 		call	__stack_chk_fail
 1359      00
 1360              	.L92:
 1361 0564 4889C7   		movq	%rax, %rdi
 1362 0567 E8000000 		call	__cxa_begin_catch
 1362      00
 1363              	.LEHB9:
 1364 056c E8000000 		call	_ZN8UnitTest11CurrentTest7DetailsEv
 1364      00
 1365 0571 488B30   		movq	(%rax), %rsi
 1366 0574 BA680000 		movl	$104, %edx
 1366      00
 1367 0579 4889DF   		movq	%rbx, %rdi
 1368 057c E8000000 		call	_ZN8UnitTest11TestDetailsC1ERKS0_i
 1368      00
 1369 0581 E8000000 		call	_ZN8UnitTest11CurrentTest7ResultsEv
 1369      00
 1370 0586 488B38   		movq	(%rax), %rdi
 1371 0589 BA000000 		movl	$.LC54, %edx
 1371      00
 1372 058e 4889DE   		movq	%rbx, %rsi
 1373 0591 E8000000 		call	_ZN8UnitTest11TestResults13OnTestFailureERKNS_11TestDetailsEPKc
 1373      00
 1374              	.LEHE9:
 1375              	.LEHB10:
 1376 0596 E8000000 		call	__cxa_end_catch
 1376      00
 1377              	.LEHE10:
 1378 059b E972FFFF 		jmp	.L77
 1378      FF
 1379              	.L90:
 1380 05a0 4889C7   		movq	%rax, %rdi
 1381 05a3 E8000000 		call	__cxa_begin_catch
 1381      00
 1382              	.LEHB11:
 1383 05a8 E8000000 		call	_ZN8UnitTest11CurrentTest7DetailsEv
 1383      00
 1384 05ad 488B30   		movq	(%rax), %rsi
 1385 05b0 BA670000 		movl	$103, %edx
 1385      00
 1386 05b5 4889E7   		movq	%rsp, %rdi
 1387 05b8 4889E3   		movq	%rsp, %rbx
 1388 05bb E8000000 		call	_ZN8UnitTest11TestDetailsC1ERKS0_i
 1388      00
 1389 05c0 E8000000 		call	_ZN8UnitTest11CurrentTest7ResultsEv
 1389      00
 1390 05c5 488B38   		movq	(%rax), %rdi
 1391 05c8 BA000000 		movl	$.LC53, %edx
 1391      00
 1392 05cd 4889E6   		movq	%rsp, %rsi
 1393 05d0 E8000000 		call	_ZN8UnitTest11TestResults13OnTestFailureERKNS_11TestDetailsEPKc
 1393      00
 1394              	.LEHE11:
 1395              	.LEHB12:
 1396 05d5 E8000000 		call	__cxa_end_catch
 1396      00
 1397              	.LEHE12:
 1398 05da E9F8FEFF 		jmp	.L83
 1398      FF
 1399              	.L88:
 1400 05df 4889C7   		movq	%rax, %rdi
 1401 05e2 E8000000 		call	__cxa_begin_catch
 1401      00
 1402              	.LEHB13:
 1403 05e7 E8000000 		call	_ZN8UnitTest11CurrentTest7DetailsEv
 1403      00
 1404 05ec 488B30   		movq	(%rax), %rsi
 1405 05ef BA660000 		movl	$102, %edx
 1405      00
 1406 05f4 4889E7   		movq	%rsp, %rdi
 1407 05f7 E8000000 		call	_ZN8UnitTest11TestDetailsC1ERKS0_i
 1407      00
 1408 05fc E8000000 		call	_ZN8UnitTest11CurrentTest7ResultsEv
 1408      00
 1409 0601 488B38   		movq	(%rax), %rdi
 1410 0604 BA000000 		movl	$.LC52, %edx
 1410      00
 1411 0609 4889E6   		movq	%rsp, %rsi
 1412 060c E8000000 		call	_ZN8UnitTest11TestResults13OnTestFailureERKNS_11TestDetailsEPKc
 1412      00
 1413              	.LEHE13:
 1414              	.LEHB14:
 1415 0611 E8000000 		call	__cxa_end_catch
 1415      00
 1416              	.LEHE14:
 1417 0616 E97EFEFF 		jmp	.L78
 1417      FF
 1418              	.L93:
 1419 061b 4889C3   		movq	%rax, %rbx
 1420 061e E8000000 		call	__cxa_end_catch
 1420      00
 1421 0623 4889DF   		movq	%rbx, %rdi
 1422              	.LEHB15:
 1423 0626 E8000000 		call	_Unwind_Resume
 1423      00
 1424              	.LEHE15:
 1425              	.L91:
 1426 062b 4889C3   		movq	%rax, %rbx
 1427 062e E8000000 		call	__cxa_end_catch
 1427      00
 1428 0633 4889DF   		movq	%rbx, %rdi
 1429              	.LEHB16:
 1430 0636 E8000000 		call	_Unwind_Resume
 1430      00
 1431              	.LEHE16:
 1432              	.L89:
 1433 063b 4889C3   		movq	%rax, %rbx
 1434 063e E8000000 		call	__cxa_end_catch
 1434      00
 1435 0643 4889DF   		movq	%rbx, %rdi
 1436              	.LEHB17:
 1437 0646 E8000000 		call	_Unwind_Resume
 1437      00
 1438              	.LEHE17:
 1439              		.cfi_endproc
 1440              	.LFE1211:
 1441              		.section	.gcc_except_table
 1442              		.align 4
 1443              	.LLSDA1211:
 1444 0024 FF       		.byte	0xff
 1445 0025 03       		.byte	0x3
 1446 0026 4D       		.uleb128 .LLSDATT1211-.LLSDATTD1211
 1447              	.LLSDATTD1211:
 1448 0027 01       		.byte	0x1
 1449 0028 45       		.uleb128 .LLSDACSE1211-.LLSDACSB1211
 1450              	.LLSDACSB1211:
 1451 0029 1B       		.uleb128 .LEHB5-.LFB1211
 1452 002a 05       		.uleb128 .LEHE5-.LEHB5
 1453 002b EF02     		.uleb128 .L88-.LFB1211
 1454 002d 01       		.uleb128 0x1
 1455 002e 29       		.uleb128 .LEHB6-.LFB1211
 1456 002f 3E       		.uleb128 .LEHE6-.LEHB6
 1457 0030 B002     		.uleb128 .L90-.LFB1211
 1458 0032 01       		.uleb128 0x1
 1459 0033 67       		.uleb128 .LEHB7-.LFB1211
 1460 0034 3B       		.uleb128 .LEHE7-.LEHB7
 1461 0035 F401     		.uleb128 .L92-.LFB1211
 1462 0037 01       		.uleb128 0x1
 1463 0038 C001     		.uleb128 .LEHB8-.LFB1211
 1464 003a 2A       		.uleb128 .LEHE8-.LEHB8
 1465 003b EF02     		.uleb128 .L88-.LFB1211
 1466 003d 01       		.uleb128 0x1
 1467 003e FC01     		.uleb128 .LEHB9-.LFB1211
 1468 0040 2A       		.uleb128 .LEHE9-.LEHB9
 1469 0041 AB03     		.uleb128 .L93-.LFB1211
 1470 0043 00       		.uleb128 0
 1471 0044 A602     		.uleb128 .LEHB10-.LFB1211
 1472 0046 05       		.uleb128 .LEHE10-.LEHB10
 1473 0047 00       		.uleb128 0
 1474 0048 00       		.uleb128 0
 1475 0049 B802     		.uleb128 .LEHB11-.LFB1211
 1476 004b 2D       		.uleb128 .LEHE11-.LEHB11
 1477 004c BB03     		.uleb128 .L91-.LFB1211
 1478 004e 00       		.uleb128 0
 1479 004f E502     		.uleb128 .LEHB12-.LFB1211
 1480 0051 05       		.uleb128 .LEHE12-.LEHB12
 1481 0052 00       		.uleb128 0
 1482 0053 00       		.uleb128 0
 1483 0054 F702     		.uleb128 .LEHB13-.LFB1211
 1484 0056 2A       		.uleb128 .LEHE13-.LEHB13
 1485 0057 CB03     		.uleb128 .L89-.LFB1211
 1486 0059 00       		.uleb128 0
 1487 005a A103     		.uleb128 .LEHB14-.LFB1211
 1488 005c 05       		.uleb128 .LEHE14-.LEHB14
 1489 005d 00       		.uleb128 0
 1490 005e 00       		.uleb128 0
 1491 005f B603     		.uleb128 .LEHB15-.LFB1211
 1492 0061 05       		.uleb128 .LEHE15-.LEHB15
 1493 0062 00       		.uleb128 0
 1494 0063 00       		.uleb128 0
 1495 0064 C603     		.uleb128 .LEHB16-.LFB1211
 1496 0066 05       		.uleb128 .LEHE16-.LEHB16
 1497 0067 00       		.uleb128 0
 1498 0068 00       		.uleb128 0
 1499 0069 D603     		.uleb128 .LEHB17-.LFB1211
 1500 006b 05       		.uleb128 .LEHE17-.LEHB17
 1501 006c 00       		.uleb128 0
 1502 006d 00       		.uleb128 0
 1503              	.LLSDACSE1211:
 1504 006e 01       		.byte	0x1
 1505 006f 00       		.byte	0
 1506              		.align 4
 1507 0070 00000000 		.long	0
 1508              	
 1509              	.LLSDATT1211:
 1510              		.text
 1512              		.section	.text.unlikely
 1513              	.LCOLDE55:
 1514              		.text
 1515              	.LHOTE55:
 1516              		.section	.rodata.str1.8
 1517 01b2 00000000 		.align 8
 1517      0000
 1518              	.LC56:
 1519 01b8 6D616372 		.string	"macroTestList1.GetHead() != NULL"
 1519      6F546573 
 1519      744C6973 
 1519      74312E47 
 1519      65744865 
 1520              		.section	.rodata.str1.1
 1521              	.LC57:
 1522 001e 4D616372 		.string	"MacroTestHelper1"
 1522      6F546573 
 1522      7448656C 
 1522      70657231 
 1522      00
 1523              		.section	.rodata.str1.8
 1524 01d9 00000000 		.align 8
 1524      000000
 1525              	.LC58:
 1526 01e0 556E6861 		.string	"Unhandled exception in CHECK(macroTestList1.GetHead() != NULL)"
 1526      6E646C65 
 1526      64206578 
 1526      63657074 
 1526      696F6E20 
 1527 021f 00       		.align 8
 1528              	.LC59:
 1529 0220 556E6861 		.string	"Unhandled exception in CHECK_EQUAL(\"MacroTestHelper1\", macroTestList1.GetHead()->m_deta
 1529      6E646C65 
 1529      64206578 
 1529      63657074 
 1529      696F6E20 
 1530 0285 000000   		.align 8
 1531              	.LC60:
 1532 0288 556E6861 		.string	"Unhandled exception in CHECK_EQUAL(\"DefaultSuite\", macroTestList1.GetHead()->m_details.
 1532      6E646C65 
 1532      64206578 
 1532      63657074 
 1532      696F6E20 
 1533              		.section	.text.unlikely
 1534              		.align 2
 1535              	.LCOLDB61:
 1536              		.text
 1537              	.LHOTB61:
 1538 064b 90       		.align 2
 1539 064c 0F1F4000 		.p2align 4,,15
 1541              	_ZNK12_GLOBAL__N_145TestTestAddedWithTEST_EXMacroGetsDefaultSuite7RunImplEv:
 1542              	.LFB1199:
 1543              		.cfi_startproc
 1544              		.cfi_personality 0x3,__gxx_personality_v0
 1545              		.cfi_lsda 0x3,.LLSDA1199
 1546 0650 55       		pushq	%rbp
 1547              		.cfi_def_cfa_offset 16
 1548              		.cfi_offset 6, -16
 1549 0651 53       		pushq	%rbx
 1550              		.cfi_def_cfa_offset 24
 1551              		.cfi_offset 3, -24
 1552 0652 BF000000 		movl	$_ZN12_GLOBAL__N_114macroTestList1E, %edi
 1552      00
 1553 0657 4883EC38 		subq	$56, %rsp
 1554              		.cfi_def_cfa_offset 80
 1555 065b 64488B04 		movq	%fs:40, %rax
 1555      25280000 
 1555      00
 1556 0664 48894424 		movq	%rax, 40(%rsp)
 1556      28
 1557 0669 31C0     		xorl	%eax, %eax
 1558              	.LEHB18:
 1559 066b E8000000 		call	_ZNK8UnitTest8TestList7GetHeadEv
 1559      00
 1560              	.LEHE18:
 1561 0670 4885C0   		testq	%rax, %rax
 1562 0673 0F849700 		je	.L115
 1562      0000
 1563              	.L98:
 1564              	.LEHB19:
 1565 0679 E8000000 		call	_ZN8UnitTest11CurrentTest7DetailsEv
 1565      00
 1566 067e 488B30   		movq	(%rax), %rsi
 1567 0681 BA5B0000 		movl	$91, %edx
 1567      00
 1568 0686 4889E7   		movq	%rsp, %rdi
 1569 0689 4889E3   		movq	%rsp, %rbx
 1570 068c E8000000 		call	_ZN8UnitTest11TestDetailsC1ERKS0_i
 1570      00
 1571 0691 BF000000 		movl	$_ZN12_GLOBAL__N_114macroTestList1E, %edi
 1571      00
 1572 0696 E8000000 		call	_ZNK8UnitTest8TestList7GetHeadEv
 1572      00
 1573 069b 488B6810 		movq	16(%rax), %rbp
 1574 069f E8000000 		call	_ZN8UnitTest11CurrentTest7ResultsEv
 1574      00
 1575 06a4 488B38   		movq	(%rax), %rdi
 1576 06a7 4889E1   		movq	%rsp, %rcx
 1577 06aa 4889EA   		movq	%rbp, %rdx
 1578 06ad BE000000 		movl	$.LC57, %esi
 1578      00
 1579 06b2 E8000000 		call	_ZN8UnitTest10CheckEqualERNS_11TestResultsEPKcS3_RKNS_11TestDetailsE
 1579      00
 1580              	.LEHE19:
 1581              	.L103:
 1582              	.LEHB20:
 1583 06b7 E8000000 		call	_ZN8UnitTest11CurrentTest7DetailsEv
 1583      00
 1584 06bc 488B30   		movq	(%rax), %rsi
 1585 06bf BA5C0000 		movl	$92, %edx
 1585      00
 1586 06c4 4889DF   		movq	%rbx, %rdi
 1587 06c7 E8000000 		call	_ZN8UnitTest11TestDetailsC1ERKS0_i
 1587      00
 1588 06cc BF000000 		movl	$_ZN12_GLOBAL__N_114macroTestList1E, %edi
 1588      00
 1589 06d1 E8000000 		call	_ZNK8UnitTest8TestList7GetHeadEv
 1589      00
 1590 06d6 488B6808 		movq	8(%rax), %rbp
 1591 06da E8000000 		call	_ZN8UnitTest11CurrentTest7ResultsEv
 1591      00
 1592 06df 488B38   		movq	(%rax), %rdi
 1593 06e2 4889D9   		movq	%rbx, %rcx
 1594 06e5 4889EA   		movq	%rbp, %rdx
 1595 06e8 BE000000 		movl	$.LC51, %esi
 1595      00
 1596 06ed E8000000 		call	_ZN8UnitTest10CheckEqualERNS_11TestResultsEPKcS3_RKNS_11TestDetailsE
 1596      00
 1597              	.LEHE20:
 1598              	.L97:
 1599 06f2 488B4424 		movq	40(%rsp), %rax
 1599      28
 1600 06f7 64483304 		xorq	%fs:40, %rax
 1600      25280000 
 1600      00
 1601 0700 753D     		jne	.L116
 1602 0702 4883C438 		addq	$56, %rsp
 1603              		.cfi_remember_state
 1604              		.cfi_def_cfa_offset 24
 1605 0706 5B       		popq	%rbx
 1606              		.cfi_def_cfa_offset 16
 1607 0707 5D       		popq	%rbp
 1608              		.cfi_def_cfa_offset 8
 1609 0708 C3       		ret
 1610 0709 0F1F8000 		.p2align 4,,10
 1610      000000
 1611              		.p2align 3
 1612              	.L115:
 1613              		.cfi_restore_state
 1614              	.LEHB21:
 1615 0710 E8000000 		call	_ZN8UnitTest11CurrentTest7DetailsEv
 1615      00
 1616 0715 488B30   		movq	(%rax), %rsi
 1617 0718 BA5A0000 		movl	$90, %edx
 1617      00
 1618 071d 4889E7   		movq	%rsp, %rdi
 1619 0720 E8000000 		call	_ZN8UnitTest11TestDetailsC1ERKS0_i
 1619      00
 1620 0725 E8000000 		call	_ZN8UnitTest11CurrentTest7ResultsEv
 1620      00
 1621 072a 488B38   		movq	(%rax), %rdi
 1622 072d BA000000 		movl	$.LC56, %edx
 1622      00
 1623 0732 4889E6   		movq	%rsp, %rsi
 1624 0735 E8000000 		call	_ZN8UnitTest11TestResults13OnTestFailureERKNS_11TestDetailsEPKc
 1624      00
 1625              	.LEHE21:
 1626 073a E93AFFFF 		jmp	.L98
 1626      FF
 1627              	.L116:
 1628 073f E8000000 		call	__stack_chk_fail
 1628      00
 1629              	.L112:
 1630 0744 4889C7   		movq	%rax, %rdi
 1631 0747 E8000000 		call	__cxa_begin_catch
 1631      00
 1632              	.LEHB22:
 1633 074c E8000000 		call	_ZN8UnitTest11CurrentTest7DetailsEv
 1633      00
 1634 0751 488B30   		movq	(%rax), %rsi
 1635 0754 BA5C0000 		movl	$92, %edx
 1635      00
 1636 0759 4889DF   		movq	%rbx, %rdi
 1637 075c E8000000 		call	_ZN8UnitTest11TestDetailsC1ERKS0_i
 1637      00
 1638 0761 E8000000 		call	_ZN8UnitTest11CurrentTest7ResultsEv
 1638      00
 1639 0766 488B38   		movq	(%rax), %rdi
 1640 0769 BA000000 		movl	$.LC60, %edx
 1640      00
 1641 076e 4889DE   		movq	%rbx, %rsi
 1642 0771 E8000000 		call	_ZN8UnitTest11TestResults13OnTestFailureERKNS_11TestDetailsEPKc
 1642      00
 1643              	.LEHE22:
 1644              	.LEHB23:
 1645 0776 E8000000 		call	__cxa_end_catch
 1645      00
 1646              	.LEHE23:
 1647 077b E972FFFF 		jmp	.L97
 1647      FF
 1648              	.L110:
 1649 0780 4889C7   		movq	%rax, %rdi
 1650 0783 E8000000 		call	__cxa_begin_catch
 1650      00
 1651              	.LEHB24:
 1652 0788 E8000000 		call	_ZN8UnitTest11CurrentTest7DetailsEv
 1652      00
 1653 078d 488B30   		movq	(%rax), %rsi
 1654 0790 BA5B0000 		movl	$91, %edx
 1654      00
 1655 0795 4889E7   		movq	%rsp, %rdi
 1656 0798 4889E3   		movq	%rsp, %rbx
 1657 079b E8000000 		call	_ZN8UnitTest11TestDetailsC1ERKS0_i
 1657      00
 1658 07a0 E8000000 		call	_ZN8UnitTest11CurrentTest7ResultsEv
 1658      00
 1659 07a5 488B38   		movq	(%rax), %rdi
 1660 07a8 BA000000 		movl	$.LC59, %edx
 1660      00
 1661 07ad 4889E6   		movq	%rsp, %rsi
 1662 07b0 E8000000 		call	_ZN8UnitTest11TestResults13OnTestFailureERKNS_11TestDetailsEPKc
 1662      00
 1663              	.LEHE24:
 1664              	.LEHB25:
 1665 07b5 E8000000 		call	__cxa_end_catch
 1665      00
 1666              	.LEHE25:
 1667 07ba E9F8FEFF 		jmp	.L103
 1667      FF
 1668              	.L108:
 1669 07bf 4889C7   		movq	%rax, %rdi
 1670 07c2 E8000000 		call	__cxa_begin_catch
 1670      00
 1671              	.LEHB26:
 1672 07c7 E8000000 		call	_ZN8UnitTest11CurrentTest7DetailsEv
 1672      00
 1673 07cc 488B30   		movq	(%rax), %rsi
 1674 07cf BA5A0000 		movl	$90, %edx
 1674      00
 1675 07d4 4889E7   		movq	%rsp, %rdi
 1676 07d7 E8000000 		call	_ZN8UnitTest11TestDetailsC1ERKS0_i
 1676      00
 1677 07dc E8000000 		call	_ZN8UnitTest11CurrentTest7ResultsEv
 1677      00
 1678 07e1 488B38   		movq	(%rax), %rdi
 1679 07e4 BA000000 		movl	$.LC58, %edx
 1679      00
 1680 07e9 4889E6   		movq	%rsp, %rsi
 1681 07ec E8000000 		call	_ZN8UnitTest11TestResults13OnTestFailureERKNS_11TestDetailsEPKc
 1681      00
 1682              	.LEHE26:
 1683              	.LEHB27:
 1684 07f1 E8000000 		call	__cxa_end_catch
 1684      00
 1685              	.LEHE27:
 1686 07f6 E97EFEFF 		jmp	.L98
 1686      FF
 1687              	.L113:
 1688 07fb 4889C3   		movq	%rax, %rbx
 1689 07fe E8000000 		call	__cxa_end_catch
 1689      00
 1690 0803 4889DF   		movq	%rbx, %rdi
 1691              	.LEHB28:
 1692 0806 E8000000 		call	_Unwind_Resume
 1692      00
 1693              	.LEHE28:
 1694              	.L111:
 1695 080b 4889C3   		movq	%rax, %rbx
 1696 080e E8000000 		call	__cxa_end_catch
 1696      00
 1697 0813 4889DF   		movq	%rbx, %rdi
 1698              	.LEHB29:
 1699 0816 E8000000 		call	_Unwind_Resume
 1699      00
 1700              	.LEHE29:
 1701              	.L109:
 1702 081b 4889C3   		movq	%rax, %rbx
 1703 081e E8000000 		call	__cxa_end_catch
 1703      00
 1704 0823 4889DF   		movq	%rbx, %rdi
 1705              	.LEHB30:
 1706 0826 E8000000 		call	_Unwind_Resume
 1706      00
 1707              	.LEHE30:
 1708              		.cfi_endproc
 1709              	.LFE1199:
 1710              		.section	.gcc_except_table
 1711              		.align 4
 1712              	.LLSDA1199:
 1713 0074 FF       		.byte	0xff
 1714 0075 03       		.byte	0x3
 1715 0076 4D       		.uleb128 .LLSDATT1199-.LLSDATTD1199
 1716              	.LLSDATTD1199:
 1717 0077 01       		.byte	0x1
 1718 0078 45       		.uleb128 .LLSDACSE1199-.LLSDACSB1199
 1719              	.LLSDACSB1199:
 1720 0079 1B       		.uleb128 .LEHB18-.LFB1199
 1721 007a 05       		.uleb128 .LEHE18-.LEHB18
 1722 007b EF02     		.uleb128 .L108-.LFB1199
 1723 007d 01       		.uleb128 0x1
 1724 007e 29       		.uleb128 .LEHB19-.LFB1199
 1725 007f 3E       		.uleb128 .LEHE19-.LEHB19
 1726 0080 B002     		.uleb128 .L110-.LFB1199
 1727 0082 01       		.uleb128 0x1
 1728 0083 67       		.uleb128 .LEHB20-.LFB1199
 1729 0084 3B       		.uleb128 .LEHE20-.LEHB20
 1730 0085 F401     		.uleb128 .L112-.LFB1199
 1731 0087 01       		.uleb128 0x1
 1732 0088 C001     		.uleb128 .LEHB21-.LFB1199
 1733 008a 2A       		.uleb128 .LEHE21-.LEHB21
 1734 008b EF02     		.uleb128 .L108-.LFB1199
 1735 008d 01       		.uleb128 0x1
 1736 008e FC01     		.uleb128 .LEHB22-.LFB1199
 1737 0090 2A       		.uleb128 .LEHE22-.LEHB22
 1738 0091 AB03     		.uleb128 .L113-.LFB1199
 1739 0093 00       		.uleb128 0
 1740 0094 A602     		.uleb128 .LEHB23-.LFB1199
 1741 0096 05       		.uleb128 .LEHE23-.LEHB23
 1742 0097 00       		.uleb128 0
 1743 0098 00       		.uleb128 0
 1744 0099 B802     		.uleb128 .LEHB24-.LFB1199
 1745 009b 2D       		.uleb128 .LEHE24-.LEHB24
 1746 009c BB03     		.uleb128 .L111-.LFB1199
 1747 009e 00       		.uleb128 0
 1748 009f E502     		.uleb128 .LEHB25-.LFB1199
 1749 00a1 05       		.uleb128 .LEHE25-.LEHB25
 1750 00a2 00       		.uleb128 0
 1751 00a3 00       		.uleb128 0
 1752 00a4 F702     		.uleb128 .LEHB26-.LFB1199
 1753 00a6 2A       		.uleb128 .LEHE26-.LEHB26
 1754 00a7 CB03     		.uleb128 .L109-.LFB1199
 1755 00a9 00       		.uleb128 0
 1756 00aa A103     		.uleb128 .LEHB27-.LFB1199
 1757 00ac 05       		.uleb128 .LEHE27-.LEHB27
 1758 00ad 00       		.uleb128 0
 1759 00ae 00       		.uleb128 0
 1760 00af B603     		.uleb128 .LEHB28-.LFB1199
 1761 00b1 05       		.uleb128 .LEHE28-.LEHB28
 1762 00b2 00       		.uleb128 0
 1763 00b3 00       		.uleb128 0
 1764 00b4 C603     		.uleb128 .LEHB29-.LFB1199
 1765 00b6 05       		.uleb128 .LEHE29-.LEHB29
 1766 00b7 00       		.uleb128 0
 1767 00b8 00       		.uleb128 0
 1768 00b9 D603     		.uleb128 .LEHB30-.LFB1199
 1769 00bb 05       		.uleb128 .LEHE30-.LEHB30
 1770 00bc 00       		.uleb128 0
 1771 00bd 00       		.uleb128 0
 1772              	.LLSDACSE1199:
 1773 00be 01       		.byte	0x1
 1774 00bf 00       		.byte	0
 1775              		.align 4
 1776 00c0 00000000 		.long	0
 1777              	
 1778              	.LLSDATT1199:
 1779              		.text
 1781              		.section	.text.unlikely
 1782              	.LCOLDE61:
 1783              		.text
 1784              	.LHOTE61:
 1785              		.section	.rodata.str1.1
 1786              	.LC62:
 1787 002f 6C697374 		.string	"list1.GetHead() != 0"
 1787      312E4765 
 1787      74486561 
 1787      64282920 
 1787      213D2030 
 1788              	.LC63:
 1789 0044 6C697374 		.string	"list1.GetHead()->next == 0"
 1789      312E4765 
 1789      74486561 
 1789      6428292D 
 1789      3E6E6578 
 1790              		.section	.rodata.str1.8
 1791 02ea 00000000 		.align 8
 1791      0000
 1792              	.LC64:
 1793 02f0 556E6861 		.string	"Unhandled exception in CHECK(list1.GetHead() != 0)"
 1793      6E646C65 
 1793      64206578 
 1793      63657074 
 1793      696F6E20 
 1794 0323 00000000 		.align 8
 1794      00
 1795              	.LC65:
 1796 0328 556E6861 		.string	"Unhandled exception in CHECK(list1.GetHead()->next == 0)"
 1796      6E646C65 
 1796      64206578 
 1796      63657074 
 1796      696F6E20 
 1797              		.section	.text.unlikely
 1798              		.align 2
 1799              	.LCOLDB66:
 1800              		.text
 1801              	.LHOTB66:
 1802 082b 90       		.align 2
 1803 082c 0F1F4000 		.p2align 4,,15
 1805              	_ZNK12_GLOBAL__N_138TestTestsAreAddedToTheListThroughMacro7RunImplEv:
 1806              	.LFB1147:
 1807              		.cfi_startproc
 1808              		.cfi_personality 0x3,__gxx_personality_v0
 1809              		.cfi_lsda 0x3,.LLSDA1147
 1810 0830 53       		pushq	%rbx
 1811              		.cfi_def_cfa_offset 16
 1812              		.cfi_offset 3, -16
 1813 0831 BF000000 		movl	$_ZN12_GLOBAL__N_15list1E, %edi
 1813      00
 1814 0836 4883EC30 		subq	$48, %rsp
 1815              		.cfi_def_cfa_offset 64
 1816 083a 64488B04 		movq	%fs:40, %rax
 1816      25280000 
 1816      00
 1817 0843 48894424 		movq	%rax, 40(%rsp)
 1817      28
 1818 0848 31C0     		xorl	%eax, %eax
 1819              	.LEHB31:
 1820 084a E8000000 		call	_ZNK8UnitTest8TestList7GetHeadEv
 1820      00
 1821              	.LEHE31:
 1822 084f 4885C0   		testq	%rax, %rax
 1823 0852 7454     		je	.L130
 1824              	.L118:
 1825 0854 BF000000 		movl	$_ZN12_GLOBAL__N_15list1E, %edi
 1825      00
 1826              	.LEHB32:
 1827 0859 E8000000 		call	_ZNK8UnitTest8TestList7GetHeadEv
 1827      00
 1828 085e 48837828 		cmpq	$0, 40(%rax)
 1828      00
 1829 0863 742A     		je	.L117
 1830 0865 E8000000 		call	_ZN8UnitTest11CurrentTest7DetailsEv
 1830      00
 1831 086a 488B30   		movq	(%rax), %rsi
 1832 086d BA160000 		movl	$22, %edx
 1832      00
 1833 0872 4889E7   		movq	%rsp, %rdi
 1834 0875 E8000000 		call	_ZN8UnitTest11TestDetailsC1ERKS0_i
 1834      00
 1835 087a E8000000 		call	_ZN8UnitTest11CurrentTest7ResultsEv
 1835      00
 1836 087f 488B38   		movq	(%rax), %rdi
 1837 0882 BA000000 		movl	$.LC63, %edx
 1837      00
 1838 0887 4889E6   		movq	%rsp, %rsi
 1839 088a E8000000 		call	_ZN8UnitTest11TestResults13OnTestFailureERKNS_11TestDetailsEPKc
 1839      00
 1840              	.LEHE32:
 1841              	.L117:
 1842 088f 488B4424 		movq	40(%rsp), %rax
 1842      28
 1843 0894 64483304 		xorq	%fs:40, %rax
 1843      25280000 
 1843      00
 1844 089d 7535     		jne	.L131
 1845 089f 4883C430 		addq	$48, %rsp
 1846              		.cfi_remember_state
 1847              		.cfi_def_cfa_offset 16
 1848 08a3 5B       		popq	%rbx
 1849              		.cfi_def_cfa_offset 8
 1850 08a4 C3       		ret
 1851              		.p2align 4,,10
 1852 08a5 0F1F00   		.p2align 3
 1853              	.L130:
 1854              		.cfi_restore_state
 1855              	.LEHB33:
 1856 08a8 E8000000 		call	_ZN8UnitTest11CurrentTest7DetailsEv
 1856      00
 1857 08ad 488B30   		movq	(%rax), %rsi
 1858 08b0 BA150000 		movl	$21, %edx
 1858      00
 1859 08b5 4889E7   		movq	%rsp, %rdi
 1860 08b8 E8000000 		call	_ZN8UnitTest11TestDetailsC1ERKS0_i
 1860      00
 1861 08bd E8000000 		call	_ZN8UnitTest11CurrentTest7ResultsEv
 1861      00
 1862 08c2 488B38   		movq	(%rax), %rdi
 1863 08c5 BA000000 		movl	$.LC62, %edx
 1863      00
 1864 08ca 4889E6   		movq	%rsp, %rsi
 1865 08cd E8000000 		call	_ZN8UnitTest11TestResults13OnTestFailureERKNS_11TestDetailsEPKc
 1865      00
 1866              	.LEHE33:
 1867 08d2 EB80     		jmp	.L118
 1868              	.L131:
 1869 08d4 E8000000 		call	__stack_chk_fail
 1869      00
 1870              	.L125:
 1871 08d9 4889C7   		movq	%rax, %rdi
 1872 08dc E8000000 		call	__cxa_begin_catch
 1872      00
 1873              	.LEHB34:
 1874 08e1 E8000000 		call	_ZN8UnitTest11CurrentTest7DetailsEv
 1874      00
 1875 08e6 488B30   		movq	(%rax), %rsi
 1876 08e9 BA150000 		movl	$21, %edx
 1876      00
 1877 08ee 4889E7   		movq	%rsp, %rdi
 1878 08f1 E8000000 		call	_ZN8UnitTest11TestDetailsC1ERKS0_i
 1878      00
 1879 08f6 E8000000 		call	_ZN8UnitTest11CurrentTest7ResultsEv
 1879      00
 1880 08fb 488B38   		movq	(%rax), %rdi
 1881 08fe BA000000 		movl	$.LC64, %edx
 1881      00
 1882 0903 4889E6   		movq	%rsp, %rsi
 1883 0906 E8000000 		call	_ZN8UnitTest11TestResults13OnTestFailureERKNS_11TestDetailsEPKc
 1883      00
 1884              	.LEHE34:
 1885              	.LEHB35:
 1886 090b E8000000 		call	__cxa_end_catch
 1886      00
 1887              	.LEHE35:
 1888 0910 E93FFFFF 		jmp	.L118
 1888      FF
 1889              	.L127:
 1890 0915 4889C7   		movq	%rax, %rdi
 1891 0918 E8000000 		call	__cxa_begin_catch
 1891      00
 1892              	.LEHB36:
 1893 091d E8000000 		call	_ZN8UnitTest11CurrentTest7DetailsEv
 1893      00
 1894 0922 488B30   		movq	(%rax), %rsi
 1895 0925 BA160000 		movl	$22, %edx
 1895      00
 1896 092a 4889E7   		movq	%rsp, %rdi
 1897 092d E8000000 		call	_ZN8UnitTest11TestDetailsC1ERKS0_i
 1897      00
 1898 0932 E8000000 		call	_ZN8UnitTest11CurrentTest7ResultsEv
 1898      00
 1899 0937 488B38   		movq	(%rax), %rdi
 1900 093a BA000000 		movl	$.LC65, %edx
 1900      00
 1901 093f 4889E6   		movq	%rsp, %rsi
 1902 0942 E8000000 		call	_ZN8UnitTest11TestResults13OnTestFailureERKNS_11TestDetailsEPKc
 1902      00
 1903              	.LEHE36:
 1904              	.LEHB37:
 1905 0947 E8000000 		call	__cxa_end_catch
 1905      00
 1906              	.LEHE37:
 1907 094c E93EFFFF 		jmp	.L117
 1907      FF
 1908              	.L126:
 1909 0951 4889C3   		movq	%rax, %rbx
 1910 0954 E8000000 		call	__cxa_end_catch
 1910      00
 1911 0959 4889DF   		movq	%rbx, %rdi
 1912              	.LEHB38:
 1913 095c E8000000 		call	_Unwind_Resume
 1913      00
 1914              	.LEHE38:
 1915              	.L128:
 1916 0961 4889C3   		movq	%rax, %rbx
 1917 0964 E8000000 		call	__cxa_end_catch
 1917      00
 1918 0969 4889DF   		movq	%rbx, %rdi
 1919              	.LEHB39:
 1920 096c E8000000 		call	_Unwind_Resume
 1920      00
 1921              	.LEHE39:
 1922              		.cfi_endproc
 1923              	.LFE1147:
 1924              		.section	.gcc_except_table
 1925              		.align 4
 1926              	.LLSDA1147:
 1927 00c4 FF       		.byte	0xff
 1928 00c5 03       		.byte	0x3
 1929 00c6 39       		.uleb128 .LLSDATT1147-.LLSDATTD1147
 1930              	.LLSDATTD1147:
 1931 00c7 01       		.byte	0x1
 1932 00c8 2F       		.uleb128 .LLSDACSE1147-.LLSDACSB1147
 1933              	.LLSDACSB1147:
 1934 00c9 1A       		.uleb128 .LEHB31-.LFB1147
 1935 00ca 05       		.uleb128 .LEHE31-.LEHB31
 1936 00cb A901     		.uleb128 .L125-.LFB1147
 1937 00cd 01       		.uleb128 0x1
 1938 00ce 29       		.uleb128 .LEHB32-.LFB1147
 1939 00cf 36       		.uleb128 .LEHE32-.LEHB32
 1940 00d0 E501     		.uleb128 .L127-.LFB1147
 1941 00d2 01       		.uleb128 0x1
 1942 00d3 78       		.uleb128 .LEHB33-.LFB1147
 1943 00d4 2A       		.uleb128 .LEHE33-.LEHB33
 1944 00d5 A901     		.uleb128 .L125-.LFB1147
 1945 00d7 01       		.uleb128 0x1
 1946 00d8 B101     		.uleb128 .LEHB34-.LFB1147
 1947 00da 2A       		.uleb128 .LEHE34-.LEHB34
 1948 00db A102     		.uleb128 .L126-.LFB1147
 1949 00dd 00       		.uleb128 0
 1950 00de DB01     		.uleb128 .LEHB35-.LFB1147
 1951 00e0 05       		.uleb128 .LEHE35-.LEHB35
 1952 00e1 00       		.uleb128 0
 1953 00e2 00       		.uleb128 0
 1954 00e3 ED01     		.uleb128 .LEHB36-.LFB1147
 1955 00e5 2A       		.uleb128 .LEHE36-.LEHB36
 1956 00e6 B102     		.uleb128 .L128-.LFB1147
 1957 00e8 00       		.uleb128 0
 1958 00e9 9702     		.uleb128 .LEHB37-.LFB1147
 1959 00eb 05       		.uleb128 .LEHE37-.LEHB37
 1960 00ec 00       		.uleb128 0
 1961 00ed 00       		.uleb128 0
 1962 00ee AC02     		.uleb128 .LEHB38-.LFB1147
 1963 00f0 05       		.uleb128 .LEHE38-.LEHB38
 1964 00f1 00       		.uleb128 0
 1965 00f2 00       		.uleb128 0
 1966 00f3 BC02     		.uleb128 .LEHB39-.LFB1147
 1967 00f5 05       		.uleb128 .LEHE39-.LEHB39
 1968 00f6 00       		.uleb128 0
 1969 00f7 00       		.uleb128 0
 1970              	.LLSDACSE1147:
 1971 00f8 01       		.byte	0x1
 1972 00f9 00       		.byte	0
 1973 00fa 0000     		.align 4
 1974 00fc 00000000 		.long	0
 1975              	
 1976              	.LLSDATT1147:
 1977              		.text
 1979              		.section	.text.unlikely
 1980              	.LCOLDE66:
 1981              		.text
 1982              	.LHOTE66:
 1983              		.section	.text.unlikely._ZN17RecordingReporter15ReportTestStartERKN8UnitTest11TestDetailsE,"axG",@
 1984              		.align 2
 1985              	.LCOLDB67:
 1986              		.section	.text._ZN17RecordingReporter15ReportTestStartERKN8UnitTest11TestDetailsE,"axG",@progbits,
 1987              	.LHOTB67:
 1988              		.align 2
 1989              		.p2align 4,,15
 1990              		.weak	_ZN17RecordingReporter15ReportTestStartERKN8UnitTest11TestDetailsE
 1992              	_ZN17RecordingReporter15ReportTestStartERKN8UnitTest11TestDetailsE:
 1993              	.LFB1127:
 1994              		.cfi_startproc
 1995 0000 55       		pushq	%rbp
 1996              		.cfi_def_cfa_offset 16
 1997              		.cfi_offset 6, -16
 1998 0001 53       		pushq	%rbx
 1999              		.cfi_def_cfa_offset 24
 2000              		.cfi_offset 3, -24
 2001 0002 4889F5   		movq	%rsi, %rbp
 2002 0005 4889FB   		movq	%rdi, %rbx
 2003 0008 BA000100 		movl	$256, %edx
 2003      00
 2004 000d 4883EC08 		subq	$8, %rsp
 2005              		.cfi_def_cfa_offset 32
 2006 0011 83470801 		addl	$1, 8(%rdi)
 2007 0015 488B36   		movq	(%rsi), %rsi
 2008 0018 488D7F0C 		leaq	12(%rdi), %rdi
 2009 001c E8000000 		call	__strcpy_chk
 2009      00
 2010 0021 488B7508 		movq	8(%rbp), %rsi
 2011 0025 4883C408 		addq	$8, %rsp
 2012              		.cfi_def_cfa_offset 24
 2013 0029 488DBB0C 		leaq	268(%rbx), %rdi
 2013      010000
 2014 0030 5B       		popq	%rbx
 2015              		.cfi_def_cfa_offset 16
 2016 0031 5D       		popq	%rbp
 2017              		.cfi_def_cfa_offset 8
 2018 0032 BA000100 		movl	$256, %edx
 2018      00
 2019 0037 E9000000 		jmp	__strcpy_chk
 2019      00
 2020              		.cfi_endproc
 2021              	.LFE1127:
 2023              		.section	.text.unlikely._ZN17RecordingReporter15ReportTestStartERKN8UnitTest11TestDetailsE,"axG",@
 2024              	.LCOLDE67:
 2025              		.section	.text._ZN17RecordingReporter15ReportTestStartERKN8UnitTest11TestDetailsE,"axG",@progbits,
 2026              	.LHOTE67:
 2027              		.section	.text.unlikely._ZN17RecordingReporter13ReportFailureERKN8UnitTest11TestDetailsEPKc,"axG",
 2028              		.align 2
 2029              	.LCOLDB68:
 2030              		.section	.text._ZN17RecordingReporter13ReportFailureERKN8UnitTest11TestDetailsEPKc,"axG",@progbits
 2031              	.LHOTB68:
 2032              		.align 2
 2033              		.p2align 4,,15
 2034              		.weak	_ZN17RecordingReporter13ReportFailureERKN8UnitTest11TestDetailsEPKc
 2036              	_ZN17RecordingReporter13ReportFailureERKN8UnitTest11TestDetailsEPKc:
 2037              	.LFB1128:
 2038              		.cfi_startproc
 2039 0000 4154     		pushq	%r12
 2040              		.cfi_def_cfa_offset 16
 2041              		.cfi_offset 12, -16
 2042 0002 55       		pushq	%rbp
 2043              		.cfi_def_cfa_offset 24
 2044              		.cfi_offset 6, -24
 2045 0003 4889F5   		movq	%rsi, %rbp
 2046 0006 53       		pushq	%rbx
 2047              		.cfi_def_cfa_offset 32
 2048              		.cfi_offset 3, -32
 2049 0007 83870C02 		addl	$1, 524(%rdi)
 2049      000001
 2050 000e 4889FB   		movq	%rdi, %rbx
 2051 0011 488B7610 		movq	16(%rsi), %rsi
 2052 0015 488DBF10 		leaq	528(%rdi), %rdi
 2052      020000
 2053 001c 4989D4   		movq	%rdx, %r12
 2054 001f BA000100 		movl	$256, %edx
 2054      00
 2055 0024 E8000000 		call	__strcpy_chk
 2055      00
 2056 0029 8B4518   		movl	24(%rbp), %eax
 2057 002c 488B7500 		movq	0(%rbp), %rsi
 2058 0030 488DBB14 		leaq	788(%rbx), %rdi
 2058      030000
 2059 0037 BA000100 		movl	$256, %edx
 2059      00
 2060 003c 89831003 		movl	%eax, 784(%rbx)
 2060      0000
 2061 0042 E8000000 		call	__strcpy_chk
 2061      00
 2062 0047 488B7508 		movq	8(%rbp), %rsi
 2063 004b 488DBB14 		leaq	1044(%rbx), %rdi
 2063      040000
 2064 0052 BA000100 		movl	$256, %edx
 2064      00
 2065 0057 E8000000 		call	__strcpy_chk
 2065      00
 2066 005c 488DBB14 		leaq	1300(%rbx), %rdi
 2066      050000
 2067 0063 4C89E6   		movq	%r12, %rsi
 2068 0066 BA000100 		movl	$256, %edx
 2068      00
 2069 006b 5B       		popq	%rbx
 2070              		.cfi_def_cfa_offset 24
 2071 006c 5D       		popq	%rbp
 2072              		.cfi_def_cfa_offset 16
 2073 006d 415C     		popq	%r12
 2074              		.cfi_def_cfa_offset 8
 2075 006f E9000000 		jmp	__strcpy_chk
 2075      00
 2076              		.cfi_endproc
 2077              	.LFE1128:
 2079              		.section	.text.unlikely._ZN17RecordingReporter13ReportFailureERKN8UnitTest11TestDetailsEPKc,"axG",
 2080              	.LCOLDE68:
 2081              		.section	.text._ZN17RecordingReporter13ReportFailureERKN8UnitTest11TestDetailsEPKc,"axG",@progbits
 2082              	.LHOTE68:
 2083              		.section	.text.unlikely._ZN17RecordingReporter16ReportTestFinishERKN8UnitTest11TestDetailsEf,"axG"
 2084              		.align 2
 2085              	.LCOLDB69:
 2086              		.section	.text._ZN17RecordingReporter16ReportTestFinishERKN8UnitTest11TestDetailsEf,"axG",@progbit
 2087              	.LHOTB69:
 2088              		.align 2
 2089              		.p2align 4,,15
 2090              		.weak	_ZN17RecordingReporter16ReportTestFinishERKN8UnitTest11TestDetailsEf
 2092              	_ZN17RecordingReporter16ReportTestFinishERKN8UnitTest11TestDetailsEf:
 2093              	.LFB1129:
 2094              		.cfi_startproc
 2095 0000 55       		pushq	%rbp
 2096              		.cfi_def_cfa_offset 16
 2097              		.cfi_offset 6, -16
 2098 0001 53       		pushq	%rbx
 2099              		.cfi_def_cfa_offset 24
 2100              		.cfi_offset 3, -24
 2101 0002 4889F5   		movq	%rsi, %rbp
 2102 0005 4889FB   		movq	%rdi, %rbx
 2103 0008 BA000100 		movl	$256, %edx
 2103      00
 2104 000d 4883EC18 		subq	$24, %rsp
 2105              		.cfi_def_cfa_offset 48
 2106 0011 83871406 		addl	$1, 1556(%rdi)
 2106      000001
 2107 0018 488B36   		movq	(%rsi), %rsi
 2108 001b 488DBF18 		leaq	1560(%rdi), %rdi
 2108      060000
 2109 0022 F30F1144 		movss	%xmm0, 12(%rsp)
 2109      240C
 2110 0028 E8000000 		call	__strcpy_chk
 2110      00
 2111 002d 488B7508 		movq	8(%rbp), %rsi
 2112 0031 488DBB18 		leaq	1816(%rbx), %rdi
 2112      070000
 2113 0038 BA000100 		movl	$256, %edx
 2113      00
 2114 003d E8000000 		call	__strcpy_chk
 2114      00
 2115 0042 F30F1044 		movss	12(%rsp), %xmm0
 2115      240C
 2116 0048 F30F1183 		movss	%xmm0, 2072(%rbx)
 2116      18080000 
 2117 0050 4883C418 		addq	$24, %rsp
 2118              		.cfi_def_cfa_offset 24
 2119 0054 5B       		popq	%rbx
 2120              		.cfi_def_cfa_offset 16
 2121 0055 5D       		popq	%rbp
 2122              		.cfi_def_cfa_offset 8
 2123 0056 C3       		ret
 2124              		.cfi_endproc
 2125              	.LFE1129:
 2127              		.section	.text.unlikely._ZN17RecordingReporter16ReportTestFinishERKN8UnitTest11TestDetailsEf,"axG"
 2128              	.LCOLDE69:
 2129              		.section	.text._ZN17RecordingReporter16ReportTestFinishERKN8UnitTest11TestDetailsEf,"axG",@progbit
 2130              	.LHOTE69:
 2131              		.section	.text.unlikely._ZN17RecordingReporterD2Ev,"axG",@progbits,_ZN17RecordingReporterD5Ev,comd
 2132              		.align 2
 2133              	.LCOLDB70:
 2134              		.section	.text._ZN17RecordingReporterD2Ev,"axG",@progbits,_ZN17RecordingReporterD5Ev,comdat
 2135              	.LHOTB70:
 2136              		.align 2
 2137              		.p2align 4,,15
 2138              		.weak	_ZN17RecordingReporterD2Ev
 2140              	_ZN17RecordingReporterD2Ev:
 2141              	.LFB1438:
 2142              		.cfi_startproc
 2143 0000 48C70700 		movq	$_ZTV17RecordingReporter+16, (%rdi)
 2143      000000
 2144 0007 E9000000 		jmp	_ZN8UnitTest12TestReporterD2Ev
 2144      00
 2145              		.cfi_endproc
 2146              	.LFE1438:
 2148              		.section	.text.unlikely._ZN17RecordingReporterD2Ev,"axG",@progbits,_ZN17RecordingReporterD5Ev,comd
 2149              	.LCOLDE70:
 2150              		.section	.text._ZN17RecordingReporterD2Ev,"axG",@progbits,_ZN17RecordingReporterD5Ev,comdat
 2151              	.LHOTE70:
 2152              		.weak	_ZN17RecordingReporterD1Ev
 2153              		.set	_ZN17RecordingReporterD1Ev,_ZN17RecordingReporterD2Ev
 2154              		.section	.text.unlikely._ZN17RecordingReporterD0Ev,"axG",@progbits,_ZN17RecordingReporterD5Ev,comd
 2155              		.align 2
 2156              	.LCOLDB71:
 2157              		.section	.text._ZN17RecordingReporterD0Ev,"axG",@progbits,_ZN17RecordingReporterD5Ev,comdat
 2158              	.LHOTB71:
 2159              		.align 2
 2160              		.p2align 4,,15
 2161              		.weak	_ZN17RecordingReporterD0Ev
 2163              	_ZN17RecordingReporterD0Ev:
 2164              	.LFB1440:
 2165              		.cfi_startproc
 2166 0000 53       		pushq	%rbx
 2167              		.cfi_def_cfa_offset 16
 2168              		.cfi_offset 3, -16
 2169 0001 4889FB   		movq	%rdi, %rbx
 2170 0004 48C70700 		movq	$_ZTV17RecordingReporter+16, (%rdi)
 2170      000000
 2171 000b E8000000 		call	_ZN8UnitTest12TestReporterD2Ev
 2171      00
 2172 0010 4889DF   		movq	%rbx, %rdi
 2173 0013 5B       		popq	%rbx
 2174              		.cfi_def_cfa_offset 8
 2175 0014 E9000000 		jmp	_ZdlPv
 2175      00
 2176              		.cfi_endproc
 2177              	.LFE1440:
 2179              		.section	.text.unlikely._ZN17RecordingReporterD0Ev,"axG",@progbits,_ZN17RecordingReporterD5Ev,comd
 2180              	.LCOLDE71:
 2181              		.section	.text._ZN17RecordingReporterD0Ev,"axG",@progbits,_ZN17RecordingReporterD5Ev,comdat
 2182              	.LHOTE71:
 2183              		.section	.rodata.str1.1
 2184              	.LC72:
 2185 005f 65786365 		.string	"exception"
 2185      7074696F 
 2185      6E00
 2186              		.section	.text.unlikely
 2187              		.align 2
 2188              	.LCOLDB73:
 2189              		.text
 2190              	.LHOTB73:
 2191 0971 90       		.align 2
 2192 0972 0F1F4000 		.p2align 4,,15
 2192      662E0F1F 
 2192      84000000 
 2192      0000
 2194              	_ZN12_GLOBAL__N_117FixtureDtorThrowsD2Ev:
 2195              	.LFB1228:
 2196              		.cfi_startproc
 2197 0980 BF080000 		movl	$8, %edi
 2197      00
 2198 0985 4883EC08 		subq	$8, %rsp
 2199              		.cfi_def_cfa_offset 16
 2200 0989 E8000000 		call	__cxa_allocate_exception
 2200      00
 2201 098e 31D2     		xorl	%edx, %edx
 2202 0990 48C70000 		movq	$.LC72, (%rax)
 2202      000000
 2203 0997 BE000000 		movl	$_ZTIPKc, %esi
 2203      00
 2204 099c 4889C7   		movq	%rax, %rdi
 2205 099f E8000000 		call	__cxa_throw
 2205      00
 2206              		.cfi_endproc
 2207              	.LFE1228:
 2209              		.section	.text.unlikely
 2210              	.LCOLDE73:
 2211              		.text
 2212              	.LHOTE73:
 2213              		.section	.text.unlikely._ZN8UnitTest15MemoryOutStreamD1Ev,"axG",@progbits,_ZN8UnitTest15MemoryOutS
 2214              		.align 2
 2215              	.LCOLDB74:
 2216              		.section	.text._ZN8UnitTest15MemoryOutStreamD1Ev,"axG",@progbits,_ZN8UnitTest15MemoryOutStreamD1Ev
 2217              	.LHOTB74:
 2218              		.align 2
 2219              		.p2align 4,,15
 2220              		.weak	_ZN8UnitTest15MemoryOutStreamD1Ev
 2222              	_ZN8UnitTest15MemoryOutStreamD1Ev:
 2223              	.LFB1443:
 2224              		.cfi_startproc
 2225 0000 53       		pushq	%rbx
 2226              		.cfi_def_cfa_offset 16
 2227              		.cfi_offset 3, -16
 2228 0001 4889FB   		movq	%rdi, %rbx
 2229 0004 4883EC10 		subq	$16, %rsp
 2230              		.cfi_def_cfa_offset 32
 2231 0008 48C70700 		movq	$_ZTVN8UnitTest15MemoryOutStreamE+24, (%rdi)
 2231      000000
 2232 000f 48C74760 		movq	$_ZTVN8UnitTest15MemoryOutStreamE+64, 96(%rdi)
 2232      00000000 
 2233 0017 64488B04 		movq	%fs:40, %rax
 2233      25280000 
 2233      00
 2234 0020 48894424 		movq	%rax, 8(%rsp)
 2234      08
 2235 0025 31C0     		xorl	%eax, %eax
 2236 0027 488B4758 		movq	88(%rdi), %rax
 2237 002b 488D78E8 		leaq	-24(%rax), %rdi
 2238 002f 4881FF00 		cmpq	$_ZNSs4_Rep20_S_empty_rep_storageE, %rdi
 2238      000000
 2239 0036 7568     		jne	.L156
 2240              	.L145:
 2241 0038 488B4350 		movq	80(%rbx), %rax
 2242 003c 48C70300 		movq	$_ZTCN8UnitTest15MemoryOutStreamE0_St19basic_ostringstreamIcSt11char_traitsIcESaIcEE+24, (%rb
 2242      000000
 2243 0043 48C74360 		movq	$_ZTCN8UnitTest15MemoryOutStreamE0_St19basic_ostringstreamIcSt11char_traitsIcESaIcEE+64, 96(%
 2243      00000000 
 2244 004b 48C74308 		movq	$_ZTVSt15basic_stringbufIcSt11char_traitsIcESaIcEE+16, 8(%rbx)
 2244      00000000 
 2245 0053 488D78E8 		leaq	-24(%rax), %rdi
 2246 0057 4881FF00 		cmpq	$_ZNSs4_Rep20_S_empty_rep_storageE, %rdi
 2246      000000
 2247 005e 7570     		jne	.L157
 2248              	.L150:
 2249 0060 488D7B40 		leaq	64(%rbx), %rdi
 2250 0064 48C74308 		movq	$_ZTVSt15basic_streambufIcSt11char_traitsIcEE+16, 8(%rbx)
 2250      00000000 
 2251 006c E8000000 		call	_ZNSt6localeD1Ev
 2251      00
 2252 0071 488D7B60 		leaq	96(%rbx), %rdi
 2253 0075 48C74360 		movq	$_ZTVSt9basic_iosIcSt11char_traitsIcEE+16, 96(%rbx)
 2253      00000000 
 2254 007d E8000000 		call	_ZNSt8ios_baseD2Ev
 2254      00
 2255 0082 488B4424 		movq	8(%rsp), %rax
 2255      08
 2256 0087 64483304 		xorq	%fs:40, %rax
 2256      25280000 
 2256      00
 2257 0090 0F858700 		jne	.L158
 2257      0000
 2258 0096 4883C410 		addq	$16, %rsp
 2259              		.cfi_remember_state
 2260              		.cfi_def_cfa_offset 16
 2261 009a 5B       		popq	%rbx
 2262              		.cfi_def_cfa_offset 8
 2263 009b C3       		ret
 2264 009c 0F1F4000 		.p2align 4,,10
 2265              		.p2align 3
 2266              	.L156:
 2267              		.cfi_restore_state
 2268 00a0 BA000000 		movl	$_ZL28__gthrw___pthread_key_createPjPFvPvE, %edx
 2268      00
 2269 00a5 4885D2   		testq	%rdx, %rdx
 2270 00a8 7466     		je	.L146
 2271 00aa BAFFFFFF 		movl	$-1, %edx
 2271      FF
 2272 00af F00FC150 		lock xaddl	%edx, -8(%rax)
 2272      F8
 2273 00b4 89D0     		movl	%edx, %eax
 2274              	.L147:
 2275 00b6 85C0     		testl	%eax, %eax
 2276 00b8 0F8F7AFF 		jg	.L145
 2276      FFFF
 2277 00be 488D7424 		leaq	7(%rsp), %rsi
 2277      07
 2278 00c3 E8000000 		call	_ZNSs4_Rep10_M_destroyERKSaIcE
 2278      00
 2279 00c8 E96BFFFF 		jmp	.L145
 2279      FF
 2280 00cd 0F1F00   		.p2align 4,,10
 2281              		.p2align 3
 2282              	.L157:
 2283 00d0 BA000000 		movl	$_ZL28__gthrw___pthread_key_createPjPFvPvE, %edx
 2283      00
 2284 00d5 4885D2   		testq	%rdx, %rdx
 2285 00d8 7426     		je	.L151
 2286 00da BAFFFFFF 		movl	$-1, %edx
 2286      FF
 2287 00df F00FC150 		lock xaddl	%edx, -8(%rax)
 2287      F8
 2288 00e4 89D0     		movl	%edx, %eax
 2289              	.L152:
 2290 00e6 85C0     		testl	%eax, %eax
 2291 00e8 0F8F72FF 		jg	.L150
 2291      FFFF
 2292 00ee 488D7424 		leaq	7(%rsp), %rsi
 2292      07
 2293 00f3 E8000000 		call	_ZNSs4_Rep10_M_destroyERKSaIcE
 2293      00
 2294 00f8 E963FFFF 		jmp	.L150
 2294      FF
 2295 00fd 0F1F00   		.p2align 4,,10
 2296              		.p2align 3
 2297              	.L151:
 2298 0100 8B50F8   		movl	-8(%rax), %edx
 2299 0103 8D4AFF   		leal	-1(%rdx), %ecx
 2300 0106 8948F8   		movl	%ecx, -8(%rax)
 2301 0109 89D0     		movl	%edx, %eax
 2302 010b EBD9     		jmp	.L152
 2303 010d 0F1F00   		.p2align 4,,10
 2304              		.p2align 3
 2305              	.L146:
 2306 0110 8B50F8   		movl	-8(%rax), %edx
 2307 0113 8D4AFF   		leal	-1(%rdx), %ecx
 2308 0116 8948F8   		movl	%ecx, -8(%rax)
 2309 0119 89D0     		movl	%edx, %eax
 2310 011b EB99     		jmp	.L147
 2311              	.L158:
 2312 011d E8000000 		call	__stack_chk_fail
 2312      00
 2313              		.cfi_endproc
 2314              	.LFE1443:
 2316              		.section	.text.unlikely._ZN8UnitTest15MemoryOutStreamD1Ev,"axG",@progbits,_ZN8UnitTest15MemoryOutS
 2317              	.LCOLDE74:
 2318              		.section	.text._ZN8UnitTest15MemoryOutStreamD1Ev,"axG",@progbits,_ZN8UnitTest15MemoryOutStreamD1Ev
 2319              	.LHOTE74:
 2320              		.set	.LTHUNK0,_ZN8UnitTest15MemoryOutStreamD1Ev
 2321              	.LCOLDB75:
 2322              	.LHOTB75:
 2323 0122 0F1F4000 		.p2align 4,,15
 2323      662E0F1F 
 2323      84000000 
 2323      0000
 2324              		.weak	_ZTv0_n24_N8UnitTest15MemoryOutStreamD1Ev
 2326              	_ZTv0_n24_N8UnitTest15MemoryOutStreamD1Ev:
 2327              	.LFB1480:
 2328              		.cfi_startproc
 2329 0130 4C8B17   		movq	(%rdi), %r10
 2330 0133 49037AE8 		addq	-24(%r10), %rdi
 2331 0137 E9C4FEFF 		jmp	.LTHUNK0
 2331      FF
 2332              		.cfi_endproc
 2333              	.LFE1480:
 2335              	.LCOLDE75:
 2336              	.LHOTE75:
 2337              		.section	.text.unlikely._ZN8UnitTest15MemoryOutStreamD0Ev,"axG",@progbits,_ZN8UnitTest15MemoryOutS
 2338              		.align 2
 2339              	.LCOLDB76:
 2340              		.section	.text._ZN8UnitTest15MemoryOutStreamD0Ev,"axG",@progbits,_ZN8UnitTest15MemoryOutStreamD0Ev
 2341              	.LHOTB76:
 2342              		.align 2
 2343              		.p2align 4,,15
 2344              		.weak	_ZN8UnitTest15MemoryOutStreamD0Ev
 2346              	_ZN8UnitTest15MemoryOutStreamD0Ev:
 2347              	.LFB1444:
 2348              		.cfi_startproc
 2349 0000 53       		pushq	%rbx
 2350              		.cfi_def_cfa_offset 16
 2351              		.cfi_offset 3, -16
 2352 0001 4889FB   		movq	%rdi, %rbx
 2353 0004 4883EC10 		subq	$16, %rsp
 2354              		.cfi_def_cfa_offset 32
 2355 0008 48C70700 		movq	$_ZTVN8UnitTest15MemoryOutStreamE+24, (%rdi)
 2355      000000
 2356 000f 48C74760 		movq	$_ZTVN8UnitTest15MemoryOutStreamE+64, 96(%rdi)
 2356      00000000 
 2357 0017 64488B04 		movq	%fs:40, %rax
 2357      25280000 
 2357      00
 2358 0020 48894424 		movq	%rax, 8(%rsp)
 2358      08
 2359 0025 31C0     		xorl	%eax, %eax
 2360 0027 488B4758 		movq	88(%rdi), %rax
 2361 002b 488D78E8 		leaq	-24(%rax), %rdi
 2362 002f 4881FF00 		cmpq	$_ZNSs4_Rep20_S_empty_rep_storageE, %rdi
 2362      000000
 2363 0036 7570     		jne	.L172
 2364              	.L161:
 2365 0038 488B4350 		movq	80(%rbx), %rax
 2366 003c 48C70300 		movq	$_ZTCN8UnitTest15MemoryOutStreamE0_St19basic_ostringstreamIcSt11char_traitsIcESaIcEE+24, (%rb
 2366      000000
 2367 0043 48C74360 		movq	$_ZTCN8UnitTest15MemoryOutStreamE0_St19basic_ostringstreamIcSt11char_traitsIcESaIcEE+64, 96(%
 2367      00000000 
 2368 004b 48C74308 		movq	$_ZTVSt15basic_stringbufIcSt11char_traitsIcESaIcEE+16, 8(%rbx)
 2368      00000000 
 2369 0053 488D78E8 		leaq	-24(%rax), %rdi
 2370 0057 4881FF00 		cmpq	$_ZNSs4_Rep20_S_empty_rep_storageE, %rdi
 2370      000000
 2371 005e 7578     		jne	.L173
 2372              	.L166:
 2373 0060 488D7B40 		leaq	64(%rbx), %rdi
 2374 0064 48C74308 		movq	$_ZTVSt15basic_streambufIcSt11char_traitsIcEE+16, 8(%rbx)
 2374      00000000 
 2375 006c E8000000 		call	_ZNSt6localeD1Ev
 2375      00
 2376 0071 488D7B60 		leaq	96(%rbx), %rdi
 2377 0075 48C74360 		movq	$_ZTVSt9basic_iosIcSt11char_traitsIcEE+16, 96(%rbx)
 2377      00000000 
 2378 007d E8000000 		call	_ZNSt8ios_baseD2Ev
 2378      00
 2379 0082 4889DF   		movq	%rbx, %rdi
 2380 0085 E8000000 		call	_ZdlPv
 2380      00
 2381 008a 488B4424 		movq	8(%rsp), %rax
 2381      08
 2382 008f 64483304 		xorq	%fs:40, %rax
 2382      25280000 
 2382      00
 2383 0098 0F858700 		jne	.L174
 2383      0000
 2384 009e 4883C410 		addq	$16, %rsp
 2385              		.cfi_remember_state
 2386              		.cfi_def_cfa_offset 16
 2387 00a2 5B       		popq	%rbx
 2388              		.cfi_def_cfa_offset 8
 2389 00a3 C3       		ret
 2390              		.p2align 4,,10
 2391 00a4 0F1F4000 		.p2align 3
 2392              	.L172:
 2393              		.cfi_restore_state
 2394 00a8 BA000000 		movl	$_ZL28__gthrw___pthread_key_createPjPFvPvE, %edx
 2394      00
 2395 00ad 4885D2   		testq	%rdx, %rdx
 2396 00b0 7466     		je	.L162
 2397 00b2 BAFFFFFF 		movl	$-1, %edx
 2397      FF
 2398 00b7 F00FC150 		lock xaddl	%edx, -8(%rax)
 2398      F8
 2399 00bc 89D0     		movl	%edx, %eax
 2400              	.L163:
 2401 00be 85C0     		testl	%eax, %eax
 2402 00c0 0F8F72FF 		jg	.L161
 2402      FFFF
 2403 00c6 488D7424 		leaq	7(%rsp), %rsi
 2403      07
 2404 00cb E8000000 		call	_ZNSs4_Rep10_M_destroyERKSaIcE
 2404      00
 2405 00d0 E963FFFF 		jmp	.L161
 2405      FF
 2406              		.p2align 4,,10
 2407 00d5 0F1F00   		.p2align 3
 2408              	.L173:
 2409 00d8 BA000000 		movl	$_ZL28__gthrw___pthread_key_createPjPFvPvE, %edx
 2409      00
 2410 00dd 4885D2   		testq	%rdx, %rdx
 2411 00e0 7426     		je	.L167
 2412 00e2 BAFFFFFF 		movl	$-1, %edx
 2412      FF
 2413 00e7 F00FC150 		lock xaddl	%edx, -8(%rax)
 2413      F8
 2414 00ec 89D0     		movl	%edx, %eax
 2415              	.L168:
 2416 00ee 85C0     		testl	%eax, %eax
 2417 00f0 0F8F6AFF 		jg	.L166
 2417      FFFF
 2418 00f6 488D7424 		leaq	7(%rsp), %rsi
 2418      07
 2419 00fb E8000000 		call	_ZNSs4_Rep10_M_destroyERKSaIcE
 2419      00
 2420 0100 E95BFFFF 		jmp	.L166
 2420      FF
 2421              		.p2align 4,,10
 2422 0105 0F1F00   		.p2align 3
 2423              	.L167:
 2424 0108 8B50F8   		movl	-8(%rax), %edx
 2425 010b 8D4AFF   		leal	-1(%rdx), %ecx
 2426 010e 8948F8   		movl	%ecx, -8(%rax)
 2427 0111 89D0     		movl	%edx, %eax
 2428 0113 EBD9     		jmp	.L168
 2429              		.p2align 4,,10
 2430 0115 0F1F00   		.p2align 3
 2431              	.L162:
 2432 0118 8B50F8   		movl	-8(%rax), %edx
 2433 011b 8D4AFF   		leal	-1(%rdx), %ecx
 2434 011e 8948F8   		movl	%ecx, -8(%rax)
 2435 0121 89D0     		movl	%edx, %eax
 2436 0123 EB99     		jmp	.L163
 2437              	.L174:
 2438 0125 E8000000 		call	__stack_chk_fail
 2438      00
 2439              		.cfi_endproc
 2440              	.LFE1444:
 2442              		.section	.text.unlikely._ZN8UnitTest15MemoryOutStreamD0Ev,"axG",@progbits,_ZN8UnitTest15MemoryOutS
 2443              	.LCOLDE76:
 2444              		.section	.text._ZN8UnitTest15MemoryOutStreamD0Ev,"axG",@progbits,_ZN8UnitTest15MemoryOutStreamD0Ev
 2445              	.LHOTE76:
 2446              		.set	.LTHUNK1,_ZN8UnitTest15MemoryOutStreamD0Ev
 2447              	.LCOLDB77:
 2448              	.LHOTB77:
 2449 012a 660F1F44 		.p2align 4,,15
 2449      0000
 2450              		.weak	_ZTv0_n24_N8UnitTest15MemoryOutStreamD0Ev
 2452              	_ZTv0_n24_N8UnitTest15MemoryOutStreamD0Ev:
 2453              	.LFB1481:
 2454              		.cfi_startproc
 2455 0130 4C8B17   		movq	(%rdi), %r10
 2456 0133 49037AE8 		addq	-24(%r10), %rdi
 2457 0137 E9C4FEFF 		jmp	.LTHUNK1
 2457      FF
 2458              		.cfi_endproc
 2459              	.LFE1481:
 2461              	.LCOLDE77:
 2462              	.LHOTE77:
 2463              		.section	.text.unlikely._ZN17ScopedCurrentTestD2Ev,"axG",@progbits,_ZN17ScopedCurrentTestD5Ev,comd
 2464              		.align 2
 2465              	.LCOLDB78:
 2466              		.section	.text._ZN17ScopedCurrentTestD2Ev,"axG",@progbits,_ZN17ScopedCurrentTestD5Ev,comdat
 2467              	.LHOTB78:
 2468              		.align 2
 2469              		.p2align 4,,15
 2470              		.weak	_ZN17ScopedCurrentTestD2Ev
 2472              	_ZN17ScopedCurrentTestD2Ev:
 2473              	.LFB1138:
 2474              		.cfi_startproc
 2475 0000 53       		pushq	%rbx
 2476              		.cfi_def_cfa_offset 16
 2477              		.cfi_offset 3, -16
 2478 0001 4889FB   		movq	%rdi, %rbx
 2479 0004 E8000000 		call	_ZN8UnitTest11CurrentTest7ResultsEv
 2479      00
 2480 0009 488B13   		movq	(%rbx), %rdx
 2481 000c 488910   		movq	%rdx, (%rax)
 2482 000f E8000000 		call	_ZN8UnitTest11CurrentTest7DetailsEv
 2482      00
 2483 0014 488B5308 		movq	8(%rbx), %rdx
 2484 0018 488910   		movq	%rdx, (%rax)
 2485 001b 5B       		popq	%rbx
 2486              		.cfi_def_cfa_offset 8
 2487 001c C3       		ret
 2488              		.cfi_endproc
 2489              	.LFE1138:
 2491              		.section	.text.unlikely._ZN17ScopedCurrentTestD2Ev,"axG",@progbits,_ZN17ScopedCurrentTestD5Ev,comd
 2492              	.LCOLDE78:
 2493              		.section	.text._ZN17ScopedCurrentTestD2Ev,"axG",@progbits,_ZN17ScopedCurrentTestD5Ev,comdat
 2494              	.LHOTE78:
 2495              		.weak	_ZN17ScopedCurrentTestD1Ev
 2496              		.set	_ZN17ScopedCurrentTestD1Ev,_ZN17ScopedCurrentTestD2Ev
 2497              		.section	.rodata.str1.1
 2498              	.LC80:
 2499 0069 78636570 		.string	"xception"
 2499      74696F6E 
 2499      00
 2500              		.section	.rodata.str1.8
 2501 0361 00000000 		.align 8
 2501      000000
 2502              	.LC81:
 2503 0368 73747273 		.string	"strstr(reporter.lastFailedMessage, \"xception\")"
 2503      74722872 
 2503      65706F72 
 2503      7465722E 
 2503      6C617374 
 2504              		.section	.rodata.str1.1
 2505              	.LC82:
 2506 0072 66697874 		.string	"fixture"
 2506      75726500 
 2507              		.section	.rodata.str1.8
 2508 0397 00       		.align 8
 2509              	.LC83:
 2510 0398 73747273 		.string	"strstr(reporter.lastFailedMessage, \"fixture\")"
 2510      74722872 
 2510      65706F72 
 2510      7465722E 
 2510      6C617374 
 2511              		.section	.rodata.str1.1
 2512              	.LC84:
 2513 007a 5468726F 		.string	"ThrowingThingie"
 2513      77696E67 
 2513      5468696E 
 2513      67696500 
 2514              		.section	.rodata.str1.8
 2515 03c6 0000     		.align 8
 2516              	.LC85:
 2517 03c8 73747273 		.string	"strstr(reporter.lastFailedMessage, \"ThrowingThingie\")"
 2517      74722872 
 2517      65706F72 
 2517      7465722E 
 2517      6C617374 
 2518 03fe 0000     		.align 8
 2519              	.LC86:
 2520 0400 556E6861 		.string	"Unhandled exception in CHECK(strstr(reporter.lastFailedMessage, \"xception\"))"
 2520      6E646C65 
 2520      64206578 
 2520      63657074 
 2520      696F6E20 
 2521 044d 000000   		.align 8
 2522              	.LC87:
 2523 0450 556E6861 		.string	"Unhandled exception in CHECK(strstr(reporter.lastFailedMessage, \"fixture\"))"
 2523      6E646C65 
 2523      64206578 
 2523      63657074 
 2523      696F6E20 
 2524 049c 00000000 		.align 8
 2525              	.LC88:
 2526 04a0 556E6861 		.string	"Unhandled exception in CHECK(strstr(reporter.lastFailedMessage, \"ThrowingThingie\"))"
 2526      6E646C65 
 2526      64206578 
 2526      63657074 
 2526      696F6E20 
 2527              		.section	.text.unlikely
 2528              		.align 2
 2529              	.LCOLDB89:
 2530              		.text
 2531              	.LHOTB89:
 2532              		.align 2
 2533 09a4 6690662E 		.p2align 4,,15
 2533      0F1F8400 
 2533      00000000 
 2535              	_ZNK12_GLOBAL__N_157TestExceptionsInFixtureAreReportedAsHappeningInTheFixture7RunImplEv:
 2536              	.LFB1162:
 2537              		.cfi_startproc
 2538              		.cfi_personality 0x3,__gxx_personality_v0
 2539              		.cfi_lsda 0x3,.LLSDA1162
 2540 09b0 53       		pushq	%rbx
 2541              		.cfi_def_cfa_offset 16
 2542              		.cfi_offset 3, -16
 2543 09b1 4881EC80 		subq	$2176, %rsp
 2543      080000
 2544              		.cfi_def_cfa_offset 2192
 2545 09b8 488D7424 		leaq	64(%rsp), %rsi
 2545      40
 2546 09bd 4889E7   		movq	%rsp, %rdi
 2547 09c0 48C74424 		movq	$_ZTV17RecordingReporter+16, 64(%rsp)
 2547      40000000 
 2547      00
 2548 09c9 64488B04 		movq	%fs:40, %rax
 2548      25280000 
 2548      00
 2549 09d2 48898424 		movq	%rax, 2168(%rsp)
 2549      78080000 
 2550 09da 31C0     		xorl	%eax, %eax
 2551 09dc C7442448 		movl	$0, 72(%rsp)
 2551      00000000 
 2552 09e4 C784244C 		movl	$0, 588(%rsp)
 2552      02000000 
 2552      000000
 2553 09ef C7842450 		movl	$0, 848(%rsp)
 2553      03000000 
 2553      000000
 2554 09fa C7842454 		movl	$0, 1620(%rsp)
 2554      06000000 
 2554      000000
 2555 0a05 C7842458 		movl	$0x00000000, 2136(%rsp)
 2555      08000000 
 2555      000000
 2556 0a10 C784245C 		movl	$0, 2140(%rsp)
 2556      08000000 
 2556      000000
 2557 0a1b C7842460 		movl	$0, 2144(%rsp)
 2557      08000000 
 2557      000000
 2558 0a26 C7842464 		movl	$0, 2148(%rsp)
 2558      08000000 
 2558      000000
 2559 0a31 C7842468 		movl	$0x00000000, 2152(%rsp)
 2559      08000000 
 2559      000000
 2560 0a3c C644244C 		movb	$0, 76(%rsp)
 2560      00
 2561 0a41 C684244C 		movb	$0, 332(%rsp)
 2561      01000000 
 2562 0a49 C6842450 		movb	$0, 592(%rsp)
 2562      02000000 
 2563 0a51 C6842454 		movb	$0, 852(%rsp)
 2563      03000000 
 2564 0a59 C6842454 		movb	$0, 1108(%rsp)
 2564      04000000 
 2565 0a61 C6842454 		movb	$0, 1364(%rsp)
 2565      05000000 
 2566 0a69 C6842458 		movb	$0, 1624(%rsp)
 2566      06000000 
 2567 0a71 C6842458 		movb	$0, 1880(%rsp)
 2567      07000000 
 2568              	.LEHB40:
 2569 0a79 E8000000 		call	_ZN8UnitTest11TestResultsC1EPNS_12TestReporterE
 2569      00
 2570 0a7e E8000000 		call	_ZN8UnitTest11CurrentTest7ResultsEv
 2570      00
 2571 0a83 488B00   		movq	(%rax), %rax
 2572 0a86 48894424 		movq	%rax, 32(%rsp)
 2572      20
 2573 0a8b E8000000 		call	_ZN8UnitTest11CurrentTest7DetailsEv
 2573      00
 2574 0a90 488B00   		movq	(%rax), %rax
 2575 0a93 48894424 		movq	%rax, 40(%rsp)
 2575      28
 2576 0a98 E8000000 		call	_ZN8UnitTest11CurrentTest7ResultsEv
 2576      00
 2577              	.LEHE40:
 2578 0a9d 488920   		movq	%rsp, (%rax)
 2579 0aa0 BF000000 		movl	$_ZN12_GLOBAL__N_15list2E, %edi
 2579      00
 2580              	.LEHB41:
 2581 0aa5 E8000000 		call	_ZNK8UnitTest8TestList7GetHeadEv
 2581      00
 2582 0aaa 4889C7   		movq	%rax, %rdi
 2583 0aad E8000000 		call	_ZN8UnitTest4Test3RunEv
 2583      00
 2584              	.LEHE41:
 2585              	.LEHB42:
 2586 0ab2 E8000000 		call	_ZN8UnitTest11CurrentTest7ResultsEv
 2586      00
 2587 0ab7 488B5424 		movq	32(%rsp), %rdx
 2587      20
 2588 0abc 488910   		movq	%rdx, (%rax)
 2589 0abf E8000000 		call	_ZN8UnitTest11CurrentTest7DetailsEv
 2589      00
 2590              	.LEHE42:
 2591 0ac4 488B5424 		movq	40(%rsp), %rdx
 2591      28
 2592 0ac9 488DBC24 		leaq	1364(%rsp), %rdi
 2592      54050000 
 2593 0ad1 BE000000 		movl	$.LC80, %esi
 2593      00
 2594 0ad6 488910   		movq	%rdx, (%rax)
 2595 0ad9 E8000000 		call	strstr
 2595      00
 2596 0ade 4885C0   		testq	%rax, %rax
 2597 0ae1 0F84D900 		je	.L207
 2597      0000
 2598              	.L179:
 2599 0ae7 488DBC24 		leaq	1364(%rsp), %rdi
 2599      54050000 
 2600 0aef BE000000 		movl	$.LC82, %esi
 2600      00
 2601 0af4 E8000000 		call	strstr
 2601      00
 2602 0af9 4885C0   		testq	%rax, %rax
 2603 0afc 0F848600 		je	.L208
 2603      0000
 2604              	.L181:
 2605 0b02 488DBC24 		leaq	1364(%rsp), %rdi
 2605      54050000 
 2606 0b0a BE000000 		movl	$.LC84, %esi
 2606      00
 2607 0b0f E8000000 		call	strstr
 2607      00
 2608 0b14 4885C0   		testq	%rax, %rax
 2609 0b17 7437     		je	.L209
 2610              	.L183:
 2611 0b19 488D7C24 		leaq	64(%rsp), %rdi
 2611      40
 2612 0b1e 48C74424 		movq	$_ZTV17RecordingReporter+16, 64(%rsp)
 2612      40000000 
 2612      00
 2613              	.LEHB43:
 2614 0b27 E8000000 		call	_ZN8UnitTest12TestReporterD2Ev
 2614      00
 2615              	.LEHE43:
 2616 0b2c 488B8424 		movq	2168(%rsp), %rax
 2616      78080000 
 2617 0b34 64483304 		xorq	%fs:40, %rax
 2617      25280000 
 2617      00
 2618 0b3d 0F85B100 		jne	.L210
 2618      0000
 2619 0b43 4881C480 		addq	$2176, %rsp
 2619      080000
 2620              		.cfi_remember_state
 2621              		.cfi_def_cfa_offset 16
 2622 0b4a 5B       		popq	%rbx
 2623              		.cfi_def_cfa_offset 8
 2624 0b4b C3       		ret
 2625 0b4c 0F1F4000 		.p2align 4,,10
 2626              		.p2align 3
 2627              	.L209:
 2628              		.cfi_restore_state
 2629              	.LEHB44:
 2630 0b50 E8000000 		call	_ZN8UnitTest11CurrentTest7DetailsEv
 2630      00
 2631 0b55 488D5C24 		leaq	32(%rsp), %rbx
 2631      20
 2632 0b5a 488B30   		movq	(%rax), %rsi
 2633 0b5d BA340000 		movl	$52, %edx
 2633      00
 2634 0b62 4889DF   		movq	%rbx, %rdi
 2635 0b65 E8000000 		call	_ZN8UnitTest11TestDetailsC1ERKS0_i
 2635      00
 2636 0b6a E8000000 		call	_ZN8UnitTest11CurrentTest7ResultsEv
 2636      00
 2637 0b6f 488B38   		movq	(%rax), %rdi
 2638 0b72 BA000000 		movl	$.LC85, %edx
 2638      00
 2639 0b77 4889DE   		movq	%rbx, %rsi
 2640 0b7a E8000000 		call	_ZN8UnitTest11TestResults13OnTestFailureERKNS_11TestDetailsEPKc
 2640      00
 2641              	.LEHE44:
 2642 0b7f EB98     		jmp	.L183
 2643              		.p2align 4,,10
 2644 0b81 0F1F8000 		.p2align 3
 2644      000000
 2645              	.L208:
 2646              	.LEHB45:
 2647 0b88 E8000000 		call	_ZN8UnitTest11CurrentTest7DetailsEv
 2647      00
 2648 0b8d 488D5C24 		leaq	32(%rsp), %rbx
 2648      20
 2649 0b92 488B30   		movq	(%rax), %rsi
 2650 0b95 BA330000 		movl	$51, %edx
 2650      00
 2651 0b9a 4889DF   		movq	%rbx, %rdi
 2652 0b9d E8000000 		call	_ZN8UnitTest11TestDetailsC1ERKS0_i
 2652      00
 2653 0ba2 E8000000 		call	_ZN8UnitTest11CurrentTest7ResultsEv
 2653      00
 2654 0ba7 488B38   		movq	(%rax), %rdi
 2655 0baa BA000000 		movl	$.LC83, %edx
 2655      00
 2656 0baf 4889DE   		movq	%rbx, %rsi
 2657 0bb2 E8000000 		call	_ZN8UnitTest11TestResults13OnTestFailureERKNS_11TestDetailsEPKc
 2657      00
 2658              	.LEHE45:
 2659 0bb7 E946FFFF 		jmp	.L181
 2659      FF
 2660 0bbc 0F1F4000 		.p2align 4,,10
 2661              		.p2align 3
 2662              	.L207:
 2663              	.LEHB46:
 2664 0bc0 E8000000 		call	_ZN8UnitTest11CurrentTest7DetailsEv
 2664      00
 2665 0bc5 488D5C24 		leaq	32(%rsp), %rbx
 2665      20
 2666 0bca 488B30   		movq	(%rax), %rsi
 2667 0bcd BA320000 		movl	$50, %edx
 2667      00
 2668 0bd2 4889DF   		movq	%rbx, %rdi
 2669 0bd5 E8000000 		call	_ZN8UnitTest11TestDetailsC1ERKS0_i
 2669      00
 2670 0bda E8000000 		call	_ZN8UnitTest11CurrentTest7ResultsEv
 2670      00
 2671 0bdf 488B38   		movq	(%rax), %rdi
 2672 0be2 BA000000 		movl	$.LC81, %edx
 2672      00
 2673 0be7 4889DE   		movq	%rbx, %rsi
 2674 0bea E8000000 		call	_ZN8UnitTest11TestResults13OnTestFailureERKNS_11TestDetailsEPKc
 2674      00
 2675              	.LEHE46:
 2676 0bef E9F3FEFF 		jmp	.L179
 2676      FF
 2677              	.L210:
 2678 0bf4 E8000000 		call	__stack_chk_fail
 2678      00
 2679              	.L198:
 2680 0bf9 4889C7   		movq	%rax, %rdi
 2681 0bfc E8000000 		call	__cxa_begin_catch
 2681      00
 2682              	.LEHB47:
 2683 0c01 E8000000 		call	_ZN8UnitTest11CurrentTest7DetailsEv
 2683      00
 2684 0c06 488D5C24 		leaq	32(%rsp), %rbx
 2684      20
 2685 0c0b 488B30   		movq	(%rax), %rsi
 2686 0c0e BA320000 		movl	$50, %edx
 2686      00
 2687 0c13 4889DF   		movq	%rbx, %rdi
 2688 0c16 E8000000 		call	_ZN8UnitTest11TestDetailsC1ERKS0_i
 2688      00
 2689 0c1b E8000000 		call	_ZN8UnitTest11CurrentTest7ResultsEv
 2689      00
 2690 0c20 488B38   		movq	(%rax), %rdi
 2691 0c23 BA000000 		movl	$.LC86, %edx
 2691      00
 2692 0c28 4889DE   		movq	%rbx, %rsi
 2693 0c2b E8000000 		call	_ZN8UnitTest11TestResults13OnTestFailureERKNS_11TestDetailsEPKc
 2693      00
 2694              	.LEHE47:
 2695              	.LEHB48:
 2696 0c30 E8000000 		call	__cxa_end_catch
 2696      00
 2697              	.LEHE48:
 2698 0c35 E9ADFEFF 		jmp	.L179
 2698      FF
 2699              	.L200:
 2700 0c3a 4889C7   		movq	%rax, %rdi
 2701 0c3d E8000000 		call	__cxa_begin_catch
 2701      00
 2702              	.LEHB49:
 2703 0c42 E8000000 		call	_ZN8UnitTest11CurrentTest7DetailsEv
 2703      00
 2704 0c47 488D5C24 		leaq	32(%rsp), %rbx
 2704      20
 2705 0c4c 488B30   		movq	(%rax), %rsi
 2706 0c4f BA330000 		movl	$51, %edx
 2706      00
 2707 0c54 4889DF   		movq	%rbx, %rdi
 2708 0c57 E8000000 		call	_ZN8UnitTest11TestDetailsC1ERKS0_i
 2708      00
 2709 0c5c E8000000 		call	_ZN8UnitTest11CurrentTest7ResultsEv
 2709      00
 2710 0c61 488B38   		movq	(%rax), %rdi
 2711 0c64 BA000000 		movl	$.LC87, %edx
 2711      00
 2712 0c69 4889DE   		movq	%rbx, %rsi
 2713 0c6c E8000000 		call	_ZN8UnitTest11TestResults13OnTestFailureERKNS_11TestDetailsEPKc
 2713      00
 2714              	.LEHE49:
 2715              	.LEHB50:
 2716 0c71 E8000000 		call	__cxa_end_catch
 2716      00
 2717              	.LEHE50:
 2718 0c76 E987FEFF 		jmp	.L181
 2718      FF
 2719              	.L196:
 2720 0c7b 4889C3   		movq	%rax, %rbx
 2721              	.L185:
 2722 0c7e 488D7C24 		leaq	64(%rsp), %rdi
 2722      40
 2723 0c83 48C74424 		movq	$_ZTV17RecordingReporter+16, 64(%rsp)
 2723      40000000 
 2723      00
 2724 0c8c E8000000 		call	_ZN8UnitTest12TestReporterD2Ev
 2724      00
 2725 0c91 4889DF   		movq	%rbx, %rdi
 2726              	.LEHB51:
 2727 0c94 E8000000 		call	_Unwind_Resume
 2727      00
 2728              	.LEHE51:
 2729              	.L197:
 2730 0c99 488D7C24 		leaq	32(%rsp), %rdi
 2730      20
 2731 0c9e 4889C3   		movq	%rax, %rbx
 2732 0ca1 E8000000 		call	_ZN17ScopedCurrentTestD1Ev
 2732      00
 2733 0ca6 EBD6     		jmp	.L185
 2734              	.L199:
 2735 0ca8 4889C3   		movq	%rax, %rbx
 2736 0cab E8000000 		call	__cxa_end_catch
 2736      00
 2737 0cb0 EBCC     		jmp	.L185
 2738              	.L202:
 2739 0cb2 4889C7   		movq	%rax, %rdi
 2740 0cb5 E8000000 		call	__cxa_begin_catch
 2740      00
 2741              	.LEHB52:
 2742 0cba E8000000 		call	_ZN8UnitTest11CurrentTest7DetailsEv
 2742      00
 2743 0cbf 488D5C24 		leaq	32(%rsp), %rbx
 2743      20
 2744 0cc4 488B30   		movq	(%rax), %rsi
 2745 0cc7 BA340000 		movl	$52, %edx
 2745      00
 2746 0ccc 4889DF   		movq	%rbx, %rdi
 2747 0ccf E8000000 		call	_ZN8UnitTest11TestDetailsC1ERKS0_i
 2747      00
 2748 0cd4 E8000000 		call	_ZN8UnitTest11CurrentTest7ResultsEv
 2748      00
 2749 0cd9 488B38   		movq	(%rax), %rdi
 2750 0cdc BA000000 		movl	$.LC88, %edx
 2750      00
 2751 0ce1 4889DE   		movq	%rbx, %rsi
 2752 0ce4 E8000000 		call	_ZN8UnitTest11TestResults13OnTestFailureERKNS_11TestDetailsEPKc
 2752      00
 2753              	.LEHE52:
 2754              	.LEHB53:
 2755 0ce9 E8000000 		call	__cxa_end_catch
 2755      00
 2756              	.LEHE53:
 2757 0cee E926FEFF 		jmp	.L183
 2757      FF
 2758              	.L201:
 2759 0cf3 4889C3   		movq	%rax, %rbx
 2760 0cf6 E8000000 		call	__cxa_end_catch
 2760      00
 2761 0cfb EB81     		jmp	.L185
 2762              	.L203:
 2763 0cfd 4889C3   		movq	%rax, %rbx
 2764 0d00 E8000000 		call	__cxa_end_catch
 2764      00
 2765 0d05 E974FFFF 		jmp	.L185
 2765      FF
 2766              		.cfi_endproc
 2767              	.LFE1162:
 2768              		.section	.gcc_except_table
 2769              		.align 4
 2770              	.LLSDA1162:
 2771 0100 FF       		.byte	0xff
 2772 0101 03       		.byte	0x3
 2773 0102 5D       		.uleb128 .LLSDATT1162-.LLSDATTD1162
 2774              	.LLSDATTD1162:
 2775 0103 01       		.byte	0x1
 2776 0104 52       		.uleb128 .LLSDACSE1162-.LLSDACSB1162
 2777              	.LLSDACSB1162:
 2778 0105 C901     		.uleb128 .LEHB40-.LFB1162
 2779 0107 24       		.uleb128 .LEHE40-.LEHB40
 2780 0108 CB05     		.uleb128 .L196-.LFB1162
 2781 010a 00       		.uleb128 0
 2782 010b F501     		.uleb128 .LEHB41-.LFB1162
 2783 010d 0D       		.uleb128 .LEHE41-.LEHB41
 2784 010e E905     		.uleb128 .L197-.LFB1162
 2785 0110 00       		.uleb128 0
 2786 0111 8202     		.uleb128 .LEHB42-.LFB1162
 2787 0113 12       		.uleb128 .LEHE42-.LEHB42
 2788 0114 CB05     		.uleb128 .L196-.LFB1162
 2789 0116 00       		.uleb128 0
 2790 0117 F702     		.uleb128 .LEHB43-.LFB1162
 2791 0119 05       		.uleb128 .LEHE43-.LEHB43
 2792 011a 00       		.uleb128 0
 2793 011b 00       		.uleb128 0
 2794 011c A003     		.uleb128 .LEHB44-.LFB1162
 2795 011e 2F       		.uleb128 .LEHE44-.LEHB44
 2796 011f 8206     		.uleb128 .L202-.LFB1162
 2797 0121 01       		.uleb128 0x1
 2798 0122 D803     		.uleb128 .LEHB45-.LFB1162
 2799 0124 2F       		.uleb128 .LEHE45-.LEHB45
 2800 0125 8A05     		.uleb128 .L200-.LFB1162
 2801 0127 01       		.uleb128 0x1
 2802 0128 9004     		.uleb128 .LEHB46-.LFB1162
 2803 012a 2F       		.uleb128 .LEHE46-.LEHB46
 2804 012b C904     		.uleb128 .L198-.LFB1162
 2805 012d 01       		.uleb128 0x1
 2806 012e D104     		.uleb128 .LEHB47-.LFB1162
 2807 0130 2F       		.uleb128 .LEHE47-.LEHB47
 2808 0131 F805     		.uleb128 .L199-.LFB1162
 2809 0133 00       		.uleb128 0
 2810 0134 8005     		.uleb128 .LEHB48-.LFB1162
 2811 0136 05       		.uleb128 .LEHE48-.LEHB48
 2812 0137 CB05     		.uleb128 .L196-.LFB1162
 2813 0139 00       		.uleb128 0
 2814 013a 9205     		.uleb128 .LEHB49-.LFB1162
 2815 013c 2F       		.uleb128 .LEHE49-.LEHB49
 2816 013d C306     		.uleb128 .L201-.LFB1162
 2817 013f 00       		.uleb128 0
 2818 0140 C105     		.uleb128 .LEHB50-.LFB1162
 2819 0142 05       		.uleb128 .LEHE50-.LEHB50
 2820 0143 CB05     		.uleb128 .L196-.LFB1162
 2821 0145 00       		.uleb128 0
 2822 0146 E405     		.uleb128 .LEHB51-.LFB1162
 2823 0148 05       		.uleb128 .LEHE51-.LEHB51
 2824 0149 00       		.uleb128 0
 2825 014a 00       		.uleb128 0
 2826 014b 8A06     		.uleb128 .LEHB52-.LFB1162
 2827 014d 2F       		.uleb128 .LEHE52-.LEHB52
 2828 014e CD06     		.uleb128 .L203-.LFB1162
 2829 0150 00       		.uleb128 0
 2830 0151 B906     		.uleb128 .LEHB53-.LFB1162
 2831 0153 05       		.uleb128 .LEHE53-.LEHB53
 2832 0154 CB05     		.uleb128 .L196-.LFB1162
 2833 0156 00       		.uleb128 0
 2834              	.LLSDACSE1162:
 2835 0157 01       		.byte	0x1
 2836 0158 00       		.byte	0
 2837 0159 000000   		.align 4
 2838 015c 00000000 		.long	0
 2839              	
 2840              	.LLSDATT1162:
 2841              		.text
 2843              		.section	.text.unlikely
 2844              	.LCOLDE89:
 2845              		.text
 2846              	.LHOTE89:
 2847              		.section	.text.unlikely._ZNSt15basic_stringbufIcSt11char_traitsIcESaIcEED2Ev,"axG",@progbits,_ZNSt
 2848              		.align 2
 2849              	.LCOLDB90:
 2850              		.section	.text._ZNSt15basic_stringbufIcSt11char_traitsIcESaIcEED2Ev,"axG",@progbits,_ZNSt15basic_s
 2851              	.LHOTB90:
 2852              		.align 2
 2853              		.p2align 4,,15
 2854              		.weak	_ZNSt15basic_stringbufIcSt11char_traitsIcESaIcEED2Ev
 2856              	_ZNSt15basic_stringbufIcSt11char_traitsIcESaIcEED2Ev:
 2857              	.LFB1281:
 2858              		.cfi_startproc
 2859 0000 53       		pushq	%rbx
 2860              		.cfi_def_cfa_offset 16
 2861              		.cfi_offset 3, -16
 2862 0001 4889FB   		movq	%rdi, %rbx
 2863 0004 4883EC10 		subq	$16, %rsp
 2864              		.cfi_def_cfa_offset 32
 2865 0008 48C70700 		movq	$_ZTVSt15basic_stringbufIcSt11char_traitsIcESaIcEE+16, (%rdi)
 2865      000000
 2866 000f 64488B04 		movq	%fs:40, %rax
 2866      25280000 
 2866      00
 2867 0018 48894424 		movq	%rax, 8(%rsp)
 2867      08
 2868 001d 31C0     		xorl	%eax, %eax
 2869 001f 488B4748 		movq	72(%rdi), %rax
 2870 0023 488D78E8 		leaq	-24(%rax), %rdi
 2871 0027 4881FF00 		cmpq	$_ZNSs4_Rep20_S_empty_rep_storageE, %rdi
 2871      000000
 2872 002e 7530     		jne	.L219
 2873              	.L213:
 2874 0030 488D7B38 		leaq	56(%rbx), %rdi
 2875 0034 48C70300 		movq	$_ZTVSt15basic_streambufIcSt11char_traitsIcEE+16, (%rbx)
 2875      000000
 2876 003b E8000000 		call	_ZNSt6localeD1Ev
 2876      00
 2877 0040 488B4424 		movq	8(%rsp), %rax
 2877      08
 2878 0045 64483304 		xorq	%fs:40, %rax
 2878      25280000 
 2878      00
 2879 004e 754D     		jne	.L220
 2880 0050 4883C410 		addq	$16, %rsp
 2881              		.cfi_remember_state
 2882              		.cfi_def_cfa_offset 16
 2883 0054 5B       		popq	%rbx
 2884              		.cfi_def_cfa_offset 8
 2885 0055 C3       		ret
 2886 0056 662E0F1F 		.p2align 4,,10
 2886      84000000 
 2886      0000
 2887              		.p2align 3
 2888              	.L219:
 2889              		.cfi_restore_state
 2890 0060 BA000000 		movl	$_ZL28__gthrw___pthread_key_createPjPFvPvE, %edx
 2890      00
 2891 0065 4885D2   		testq	%rdx, %rdx
 2892 0068 7426     		je	.L214
 2893 006a BAFFFFFF 		movl	$-1, %edx
 2893      FF
 2894 006f F00FC150 		lock xaddl	%edx, -8(%rax)
 2894      F8
 2895 0074 89D0     		movl	%edx, %eax
 2896              	.L215:
 2897 0076 85C0     		testl	%eax, %eax
 2898 0078 7FB6     		jg	.L213
 2899 007a 488D7424 		leaq	7(%rsp), %rsi
 2899      07
 2900 007f E8000000 		call	_ZNSs4_Rep10_M_destroyERKSaIcE
 2900      00
 2901 0084 EBAA     		jmp	.L213
 2902 0086 662E0F1F 		.p2align 4,,10
 2902      84000000 
 2902      0000
 2903              		.p2align 3
 2904              	.L214:
 2905 0090 8B50F8   		movl	-8(%rax), %edx
 2906 0093 8D4AFF   		leal	-1(%rdx), %ecx
 2907 0096 8948F8   		movl	%ecx, -8(%rax)
 2908 0099 89D0     		movl	%edx, %eax
 2909 009b EBD9     		jmp	.L215
 2910              	.L220:
 2911 009d E8000000 		call	__stack_chk_fail
 2911      00
 2912              		.cfi_endproc
 2913              	.LFE1281:
 2915              		.section	.text.unlikely._ZNSt15basic_stringbufIcSt11char_traitsIcESaIcEED2Ev,"axG",@progbits,_ZNSt
 2916              	.LCOLDE90:
 2917              		.section	.text._ZNSt15basic_stringbufIcSt11char_traitsIcESaIcEED2Ev,"axG",@progbits,_ZNSt15basic_s
 2918              	.LHOTE90:
 2919              		.weak	_ZNSt15basic_stringbufIcSt11char_traitsIcESaIcEED1Ev
 2920              		.set	_ZNSt15basic_stringbufIcSt11char_traitsIcESaIcEED1Ev,_ZNSt15basic_stringbufIcSt11char_traitsI
 2921              		.section	.text.unlikely._ZN8UnitTest15MemoryOutStreamC1Ev,"axG",@progbits,_ZN8UnitTest15MemoryOutS
 2922              		.align 2
 2923              	.LCOLDB91:
 2924              		.section	.text._ZN8UnitTest15MemoryOutStreamC1Ev,"axG",@progbits,_ZN8UnitTest15MemoryOutStreamC1Ev
 2925              	.LHOTB91:
 2926              		.align 2
 2927              		.p2align 4,,15
 2928              		.weak	_ZN8UnitTest15MemoryOutStreamC1Ev
 2930              	_ZN8UnitTest15MemoryOutStreamC1Ev:
 2931              	.LFB1080:
 2932              		.cfi_startproc
 2933              		.cfi_personality 0x3,__gxx_personality_v0
 2934              		.cfi_lsda 0x3,.LLSDA1080
 2935 0000 4155     		pushq	%r13
 2936              		.cfi_def_cfa_offset 16
 2937              		.cfi_offset 13, -16
 2938 0002 4154     		pushq	%r12
 2939              		.cfi_def_cfa_offset 24
 2940              		.cfi_offset 12, -24
 2941 0004 55       		pushq	%rbp
 2942              		.cfi_def_cfa_offset 32
 2943              		.cfi_offset 6, -32
 2944 0005 488D6F60 		leaq	96(%rdi), %rbp
 2945 0009 53       		pushq	%rbx
 2946              		.cfi_def_cfa_offset 40
 2947              		.cfi_offset 3, -40
 2948 000a 4889FB   		movq	%rdi, %rbx
 2949 000d 4883EC08 		subq	$8, %rsp
 2950              		.cfi_def_cfa_offset 48
 2951 0011 4889EF   		movq	%rbp, %rdi
 2952 0014 E8000000 		call	_ZNSt8ios_baseC2Ev
 2952      00
 2953 0019 48C78338 		movq	$0, 312(%rbx)
 2953      01000000 
 2953      000000
 2954 0024 C6834001 		movb	$0, 320(%rbx)
 2954      000000
 2955 002b 31F6     		xorl	%esi, %esi
 2956 002d C6834101 		movb	$0, 321(%rbx)
 2956      000000
 2957 0034 48C78348 		movq	$0, 328(%rbx)
 2957      01000000 
 2957      000000
 2958 003f 4889EF   		movq	%rbp, %rdi
 2959 0042 48C78350 		movq	$0, 336(%rbx)
 2959      01000000 
 2959      000000
 2960 004d 48C78358 		movq	$0, 344(%rbx)
 2960      01000000 
 2960      000000
 2961 0058 48C78360 		movq	$0, 352(%rbx)
 2961      01000000 
 2961      000000
 2962 0063 48C70300 		movq	$_ZTCN8UnitTest15MemoryOutStreamE0_So+24, (%rbx)
 2962      000000
 2963 006a 48C74360 		movq	$_ZTCN8UnitTest15MemoryOutStreamE0_So+64, 96(%rbx)
 2963      00000000 
 2964              	.LEHB54:
 2965 0072 E8000000 		call	_ZNSt9basic_iosIcSt11char_traitsIcEE4initEPSt15basic_streambufIcS1_E
 2965      00
 2966              	.LEHE54:
 2967 0077 488D7B40 		leaq	64(%rbx), %rdi
 2968 007b 48C70300 		movq	$_ZTCN8UnitTest15MemoryOutStreamE0_St19basic_ostringstreamIcSt11char_traitsIcESaIcEE+24, (%rb
 2968      000000
 2969 0082 48C74360 		movq	$_ZTCN8UnitTest15MemoryOutStreamE0_St19basic_ostringstreamIcSt11char_traitsIcESaIcEE+64, 96(%
 2969      00000000 
 2970 008a 48C74308 		movq	$_ZTVSt15basic_streambufIcSt11char_traitsIcEE+16, 8(%rbx)
 2970      00000000 
 2971 0092 48C74310 		movq	$0, 16(%rbx)
 2971      00000000 
 2972 009a 4C8D6308 		leaq	8(%rbx), %r12
 2973 009e 48C74318 		movq	$0, 24(%rbx)
 2973      00000000 
 2974 00a6 48C74320 		movq	$0, 32(%rbx)
 2974      00000000 
 2975 00ae 48C74328 		movq	$0, 40(%rbx)
 2975      00000000 
 2976 00b6 48C74330 		movq	$0, 48(%rbx)
 2976      00000000 
 2977 00be 48C74338 		movq	$0, 56(%rbx)
 2977      00000000 
 2978 00c6 E8000000 		call	_ZNSt6localeC1Ev
 2978      00
 2979 00cb 488B03   		movq	(%rbx), %rax
 2980 00ce 4889DF   		movq	%rbx, %rdi
 2981 00d1 48C74308 		movq	$_ZTVSt15basic_stringbufIcSt11char_traitsIcESaIcEE+16, 8(%rbx)
 2981      00000000 
 2982 00d9 C7434810 		movl	$16, 72(%rbx)
 2982      000000
 2983 00e0 48C74350 		movq	$_ZNSs4_Rep20_S_empty_rep_storageE+24, 80(%rbx)
 2983      00000000 
 2984 00e8 4C89E6   		movq	%r12, %rsi
 2985 00eb 480378E8 		addq	-24(%rax), %rdi
 2986              	.LEHB55:
 2987 00ef E8000000 		call	_ZNSt9basic_iosIcSt11char_traitsIcEE4initEPSt15basic_streambufIcS1_E
 2987      00
 2988              	.LEHE55:
 2989 00f4 48C70300 		movq	$_ZTVN8UnitTest15MemoryOutStreamE+24, (%rbx)
 2989      000000
 2990 00fb 48C74360 		movq	$_ZTVN8UnitTest15MemoryOutStreamE+64, 96(%rbx)
 2990      00000000 
 2991 0103 48C74358 		movq	$_ZNSs4_Rep20_S_empty_rep_storageE+24, 88(%rbx)
 2991      00000000 
 2992 010b 4883C408 		addq	$8, %rsp
 2993              		.cfi_remember_state
 2994              		.cfi_def_cfa_offset 40
 2995 010f 5B       		popq	%rbx
 2996              		.cfi_def_cfa_offset 32
 2997 0110 5D       		popq	%rbp
 2998              		.cfi_def_cfa_offset 24
 2999 0111 415C     		popq	%r12
 3000              		.cfi_def_cfa_offset 16
 3001 0113 415D     		popq	%r13
 3002              		.cfi_def_cfa_offset 8
 3003 0115 C3       		ret
 3004              	.L225:
 3005              		.cfi_restore_state
 3006 0116 4989C4   		movq	%rax, %r12
 3007 0119 EB0E     		jmp	.L224
 3008              	.L226:
 3009 011b 4989C5   		movq	%rax, %r13
 3010              	.L223:
 3011 011e 4C89E7   		movq	%r12, %rdi
 3012 0121 4D89EC   		movq	%r13, %r12
 3013 0124 E8000000 		call	_ZNSt15basic_stringbufIcSt11char_traitsIcESaIcEED1Ev
 3013      00
 3014              	.L224:
 3015 0129 4889EF   		movq	%rbp, %rdi
 3016 012c 48C74360 		movq	$_ZTVSt9basic_iosIcSt11char_traitsIcEE+16, 96(%rbx)
 3016      00000000 
 3017 0134 E8000000 		call	_ZNSt8ios_baseD2Ev
 3017      00
 3018 0139 4C89E7   		movq	%r12, %rdi
 3019              	.LEHB56:
 3020 013c E8000000 		call	_Unwind_Resume
 3020      00
 3021              	.LEHE56:
 3022              		.cfi_endproc
 3023              	.LFE1080:
 3024              		.section	.gcc_except_table
 3025              	.LLSDA1080:
 3026 0160 FF       		.byte	0xff
 3027 0161 FF       		.byte	0xff
 3028 0162 01       		.byte	0x1
 3029 0163 10       		.uleb128 .LLSDACSE1080-.LLSDACSB1080
 3030              	.LLSDACSB1080:
 3031 0164 72       		.uleb128 .LEHB54-.LFB1080
 3032 0165 05       		.uleb128 .LEHE54-.LEHB54
 3033 0166 9602     		.uleb128 .L225-.LFB1080
 3034 0168 00       		.uleb128 0
 3035 0169 EF01     		.uleb128 .LEHB55-.LFB1080
 3036 016b 05       		.uleb128 .LEHE55-.LEHB55
 3037 016c 9B02     		.uleb128 .L226-.LFB1080
 3038 016e 00       		.uleb128 0
 3039 016f BC02     		.uleb128 .LEHB56-.LFB1080
 3040 0171 05       		.uleb128 .LEHE56-.LEHB56
 3041 0172 00       		.uleb128 0
 3042 0173 00       		.uleb128 0
 3043              	.LLSDACSE1080:
 3044              		.section	.text._ZN8UnitTest15MemoryOutStreamC1Ev,"axG",@progbits,_ZN8UnitTest15MemoryOutStreamC1Ev
 3046              		.section	.text.unlikely._ZN8UnitTest15MemoryOutStreamC1Ev,"axG",@progbits,_ZN8UnitTest15MemoryOutS
 3047              	.LCOLDE91:
 3048              		.section	.text._ZN8UnitTest15MemoryOutStreamC1Ev,"axG",@progbits,_ZN8UnitTest15MemoryOutStreamC1Ev
 3049              	.LHOTE91:
 3050              		.section	.rodata.str1.1
 3051              	.LC92:
 3052 008a 556E6861 		.string	"Unhandled system exception"
 3052      6E646C65 
 3052      64207379 
 3052      7374656D 
 3052      20657863 
 3053              	.LC93:
 3054 00a5 556E6861 		.string	"Unhandled exception: "
 3054      6E646C65 
 3054      64206578 
 3054      63657074 
 3054      696F6E3A 
 3055              	.LC94:
 3056 00bb 556E6861 		.string	"Unhandled exception: Crash!"
 3056      6E646C65 
 3056      64206578 
 3056      63657074 
 3056      696F6E3A 
 3057              		.section	.text.unlikely
 3058              	.LCOLDB95:
 3059              		.text
 3060              	.LHOTB95:
 3061 0d0a 660F1F44 		.p2align 4,,15
 3061      0000
 3063              	_ZN8UnitTest11ExecuteTestIN12_GLOBAL__N_159FixtureCtorAssertsCorrectlyReportsAssertFailureInCtorHel
 3064              	.LFB1470:
 3065              		.cfi_startproc
 3066              		.cfi_personality 0x3,__gxx_personality_v0
 3067              		.cfi_lsda 0x3,.LLSDA1470
 3068 0d10 4154     		pushq	%r12
 3069              		.cfi_def_cfa_offset 16
 3070              		.cfi_offset 12, -16
 3071 0d12 55       		pushq	%rbp
 3072              		.cfi_def_cfa_offset 24
 3073              		.cfi_offset 6, -24
 3074 0d13 53       		pushq	%rbx
 3075              		.cfi_def_cfa_offset 32
 3076              		.cfi_offset 3, -32
 3077 0d14 4889FB   		movq	%rdi, %rbx
 3078 0d17 4881EC10 		subq	$1552, %rsp
 3078      060000
 3079              		.cfi_def_cfa_offset 1584
 3080 0d1e 48897C24 		movq	%rdi, 8(%rsp)
 3080      08
 3081 0d23 64488B04 		movq	%fs:40, %rax
 3081      25280000 
 3081      00
 3082 0d2c 48898424 		movq	%rax, 1544(%rsp)
 3082      08060000 
 3083 0d34 31C0     		xorl	%eax, %eax
 3084              	.LEHB57:
 3085 0d36 E8000000 		call	_ZN8UnitTest11CurrentTest7DetailsEv
 3085      00
 3086              	.LEHE57:
 3087 0d3b 488DBC24 		leaq	416(%rsp), %rdi
 3087      A0010000 
 3088 0d43 488918   		movq	%rbx, (%rax)
 3089              	.LEHB58:
 3090 0d46 E8000000 		call	_ZN8UnitTest16SignalTranslatorC1Ev
 3090      00
 3091 0d4b 488B3D00 		movq	_ZN8UnitTest16SignalTranslator12s_jumpTargetE(%rip), %rdi
 3091      000000
 3092 0d52 BE010000 		movl	$1, %esi
 3092      00
 3093 0d57 E8000000 		call	__sigsetjmp
 3093      00
 3094 0d5c 85C0     		testl	%eax, %eax
 3095 0d5e 7530     		jne	.L258
 3096 0d60 488DBC24 		leaq	416(%rsp), %rdi
 3096      A0010000 
 3097 0d68 E8000000 		call	_ZN8UnitTest16SignalTranslatorD1Ev
 3097      00
 3098              	.LEHE58:
 3099              	.L231:
 3100 0d6d 488B8424 		movq	1544(%rsp), %rax
 3100      08060000 
 3101 0d75 64483304 		xorq	%fs:40, %rax
 3101      25280000 
 3101      00
 3102 0d7e 0F85C700 		jne	.L259
 3102      0000
 3103 0d84 4881C410 		addq	$1552, %rsp
 3103      060000
 3104              		.cfi_remember_state
 3105              		.cfi_def_cfa_offset 32
 3106 0d8b 5B       		popq	%rbx
 3107              		.cfi_def_cfa_offset 24
 3108 0d8c 5D       		popq	%rbp
 3109              		.cfi_def_cfa_offset 16
 3110 0d8d 415C     		popq	%r12
 3111              		.cfi_def_cfa_offset 8
 3112 0d8f C3       		ret
 3113              		.p2align 4,,10
 3114              		.p2align 3
 3115              	.L258:
 3116              		.cfi_restore_state
 3117 0d90 BF080000 		movl	$8, %edi
 3117      00
 3118 0d95 E8000000 		call	__cxa_allocate_exception
 3118      00
 3119 0d9a 31D2     		xorl	%edx, %edx
 3120 0d9c 48C70000 		movq	$.LC92, (%rax)
 3120      000000
 3121 0da3 BE000000 		movl	$_ZTIPKc, %esi
 3121      00
 3122 0da8 4889C7   		movq	%rax, %rdi
 3123              	.LEHB59:
 3124 0dab E8000000 		call	__cxa_throw
 3124      00
 3125              	.LEHE59:
 3126              	.L251:
 3127 0db0 488DBC24 		leaq	416(%rsp), %rdi
 3127      A0010000 
 3128 0db8 4889C5   		movq	%rax, %rbp
 3129 0dbb 4889D3   		movq	%rdx, %rbx
 3130 0dbe E8000000 		call	_ZN8UnitTest16SignalTranslatorD1Ev
 3130      00
 3131 0dc3 4889EF   		movq	%rbp, %rdi
 3132 0dc6 4889DA   		movq	%rbx, %rdx
 3133              	.L235:
 3134 0dc9 4883FA01 		cmpq	$1, %rdx
 3135 0dcd 0F84CA00 		je	.L237
 3135      0000
 3136 0dd3 4883FA02 		cmpq	$2, %rdx
 3137 0dd7 0F859A00 		jne	.L260
 3137      0000
 3138 0ddd E8000000 		call	__cxa_begin_catch
 3138      00
 3139 0de2 488D7C24 		leaq	48(%rsp), %rdi
 3139      30
 3140 0de7 4889C3   		movq	%rax, %rbx
 3141              	.LEHB60:
 3142 0dea E8000000 		call	_ZN8UnitTest15MemoryOutStreamC1Ev
 3142      00
 3143              	.LEHE60:
 3144 0def 488B03   		movq	(%rbx), %rax
 3145 0df2 4889DF   		movq	%rbx, %rdi
 3146 0df5 FF5010   		call	*16(%rax)
 3147 0df8 488D7C24 		leaq	48(%rsp), %rdi
 3147      30
 3148 0dfd BE000000 		movl	$.LC93, %esi
 3148      00
 3149 0e02 4889C3   		movq	%rax, %rbx
 3150              	.LEHB61:
 3151 0e05 E8000000 		call	_ZStlsISt11char_traitsIcEERSt13basic_ostreamIcT_ES5_PKc
 3151      00
 3152 0e0a 4889C7   		movq	%rax, %rdi
 3153 0e0d 4889DE   		movq	%rbx, %rsi
 3154 0e10 E8000000 		call	_ZStlsISt11char_traitsIcEERSt13basic_ostreamIcT_ES5_PKc
 3154      00
 3155 0e15 488D7C24 		leaq	48(%rsp), %rdi
 3155      30
 3156 0e1a E8000000 		call	_ZNK8UnitTest15MemoryOutStream7GetTextEv
 3156      00
 3157 0e1f 4889C3   		movq	%rax, %rbx
 3158 0e22 E8000000 		call	_ZN8UnitTest11CurrentTest7ResultsEv
 3158      00
 3159 0e27 488B7424 		movq	8(%rsp), %rsi
 3159      08
 3160 0e2c 488B38   		movq	(%rax), %rdi
 3161 0e2f 4889DA   		movq	%rbx, %rdx
 3162 0e32 E8000000 		call	_ZN8UnitTest11TestResults13OnTestFailureERKNS_11TestDetailsEPKc
 3162      00
 3163              	.LEHE61:
 3164 0e37 488D7C24 		leaq	48(%rsp), %rdi
 3164      30
 3165              	.LEHB62:
 3166 0e3c E8000000 		call	_ZN8UnitTest15MemoryOutStreamD1Ev
 3166      00
 3167              	.LEHE62:
 3168              	.L255:
 3169 0e41 E8000000 		call	__cxa_end_catch
 3169      00
 3170 0e46 E922FFFF 		jmp	.L231
 3170      FF
 3171              	.L259:
 3172 0e4b E8000000 		call	__stack_chk_fail
 3172      00
 3173              	.L250:
 3174 0e50 4889C7   		movq	%rax, %rdi
 3175 0e53 E971FFFF 		jmp	.L235
 3175      FF
 3176              	.L248:
 3177 0e58 488D7C24 		leaq	48(%rsp), %rdi
 3177      30
 3178 0e5d 4889C3   		movq	%rax, %rbx
 3179 0e60 E8000000 		call	_ZN8UnitTest15MemoryOutStreamD1Ev
 3179      00
 3180              	.L241:
 3181 0e65 E8000000 		call	__cxa_end_catch
 3181      00
 3182 0e6a 4889DF   		movq	%rbx, %rdi
 3183              	.LEHB63:
 3184 0e6d E8000000 		call	_Unwind_Resume
 3184      00
 3185              	.LEHE63:
 3186              	.L247:
 3187              	.L256:
 3188 0e72 4889C3   		movq	%rax, %rbx
 3189 0e75 EBEE     		jmp	.L241
 3190              	.L260:
 3191 0e77 E8000000 		call	__cxa_begin_catch
 3191      00
 3192              	.LEHB64:
 3193 0e7c E8000000 		call	_ZN8UnitTest11CurrentTest7ResultsEv
 3193      00
 3194 0e81 488B7424 		movq	8(%rsp), %rsi
 3194      08
 3195 0e86 488B38   		movq	(%rax), %rdi
 3196 0e89 BA000000 		movl	$.LC94, %edx
 3196      00
 3197 0e8e E8000000 		call	_ZN8UnitTest11TestResults13OnTestFailureERKNS_11TestDetailsEPKc
 3197      00
 3198              	.LEHE64:
 3199              	.LEHB65:
 3200 0e93 E8000000 		call	__cxa_end_catch
 3200      00
 3201              	.LEHE65:
 3202 0e98 E9D0FEFF 		jmp	.L231
 3202      FF
 3203              	.L237:
 3204 0e9d E8000000 		call	__cxa_begin_catch
 3204      00
 3205 0ea2 4889C3   		movq	%rax, %rbx
 3206 0ea5 488B00   		movq	(%rax), %rax
 3207 0ea8 4889DF   		movq	%rbx, %rdi
 3208 0eab FF5010   		call	*16(%rax)
 3209 0eae 4889DF   		movq	%rbx, %rdi
 3210 0eb1 4889C5   		movq	%rax, %rbp
 3211              	.LEHB66:
 3212 0eb4 E8000000 		call	_ZNK8UnitTest15AssertException10LineNumberEv
 3212      00
 3213 0eb9 4889DF   		movq	%rbx, %rdi
 3214 0ebc 4189C4   		movl	%eax, %r12d
 3215 0ebf E8000000 		call	_ZNK8UnitTest15AssertException8FilenameEv
 3215      00
 3216 0ec4 4889C1   		movq	%rax, %rcx
 3217 0ec7 488B4424 		movq	8(%rsp), %rax
 3217      08
 3218 0ecc 488D7C24 		leaq	16(%rsp), %rdi
 3218      10
 3219 0ed1 4589E0   		movl	%r12d, %r8d
 3220 0ed4 488B7008 		movq	8(%rax), %rsi
 3221 0ed8 488B10   		movq	(%rax), %rdx
 3222 0edb E8000000 		call	_ZN8UnitTest11TestDetailsC1EPKcS2_S2_i
 3222      00
 3223 0ee0 E8000000 		call	_ZN8UnitTest11CurrentTest7ResultsEv
 3223      00
 3224 0ee5 488B38   		movq	(%rax), %rdi
 3225 0ee8 488D7424 		leaq	16(%rsp), %rsi
 3225      10
 3226 0eed 4889EA   		movq	%rbp, %rdx
 3227 0ef0 E8000000 		call	_ZN8UnitTest11TestResults13OnTestFailureERKNS_11TestDetailsEPKc
 3227      00
 3228              	.LEHE66:
 3229 0ef5 E947FFFF 		jmp	.L255
 3229      FF
 3230              	.L246:
 3231 0efa 4889C3   		movq	%rax, %rbx
 3232 0efd E8000000 		call	__cxa_end_catch
 3232      00
 3233 0f02 4889DF   		movq	%rbx, %rdi
 3234              	.LEHB67:
 3235 0f05 E8000000 		call	_Unwind_Resume
 3235      00
 3236              	.LEHE67:
 3237              	.L249:
 3238 0f0a E963FFFF 		jmp	.L256
 3238      FF
 3239              		.cfi_endproc
 3240              	.LFE1470:
 3241              		.section	.gcc_except_table
 3242              		.align 4
 3243              	.LLSDA1470:
 3244 0174 FF       		.byte	0xff
 3245 0175 03       		.byte	0x3
 3246 0176 55       		.uleb128 .LLSDATT1470-.LLSDATTD1470
 3247              	.LLSDATTD1470:
 3248 0177 01       		.byte	0x1
 3249 0178 3C       		.uleb128 .LLSDACSE1470-.LLSDACSB1470
 3250              	.LLSDACSB1470:
 3251 0179 26       		.uleb128 .LEHB57-.LFB1470
 3252 017a 05       		.uleb128 .LEHE57-.LEHB57
 3253 017b 00       		.uleb128 0
 3254 017c 00       		.uleb128 0
 3255 017d 36       		.uleb128 .LEHB58-.LFB1470
 3256 017e 27       		.uleb128 .LEHE58-.LEHB58
 3257 017f C002     		.uleb128 .L250-.LFB1470
 3258 0181 05       		.uleb128 0x5
 3259 0182 9B01     		.uleb128 .LEHB59-.LFB1470
 3260 0184 05       		.uleb128 .LEHE59-.LEHB59
 3261 0185 A001     		.uleb128 .L251-.LFB1470
 3262 0187 07       		.uleb128 0x7
 3263 0188 DA01     		.uleb128 .LEHB60-.LFB1470
 3264 018a 05       		.uleb128 .LEHE60-.LEHB60
 3265 018b E202     		.uleb128 .L247-.LFB1470
 3266 018d 00       		.uleb128 0
 3267 018e F501     		.uleb128 .LEHB61-.LFB1470
 3268 0190 32       		.uleb128 .LEHE61-.LEHB61
 3269 0191 C802     		.uleb128 .L248-.LFB1470
 3270 0193 00       		.uleb128 0
 3271 0194 AC02     		.uleb128 .LEHB62-.LFB1470
 3272 0196 05       		.uleb128 .LEHE62-.LEHB62
 3273 0197 E202     		.uleb128 .L247-.LFB1470
 3274 0199 00       		.uleb128 0
 3275 019a DD02     		.uleb128 .LEHB63-.LFB1470
 3276 019c 05       		.uleb128 .LEHE63-.LEHB63
 3277 019d 00       		.uleb128 0
 3278 019e 00       		.uleb128 0
 3279 019f EC02     		.uleb128 .LEHB64-.LFB1470
 3280 01a1 17       		.uleb128 .LEHE64-.LEHB64
 3281 01a2 EA03     		.uleb128 .L246-.LFB1470
 3282 01a4 00       		.uleb128 0
 3283 01a5 8303     		.uleb128 .LEHB65-.LFB1470
 3284 01a7 05       		.uleb128 .LEHE65-.LEHB65
 3285 01a8 00       		.uleb128 0
 3286 01a9 00       		.uleb128 0
 3287 01aa A403     		.uleb128 .LEHB66-.LFB1470
 3288 01ac 41       		.uleb128 .LEHE66-.LEHB66
 3289 01ad FA03     		.uleb128 .L249-.LFB1470
 3290 01af 00       		.uleb128 0
 3291 01b0 F503     		.uleb128 .LEHB67-.LFB1470
 3292 01b2 05       		.uleb128 .LEHE67-.LEHB67
 3293 01b3 00       		.uleb128 0
 3294 01b4 00       		.uleb128 0
 3295              	.LLSDACSE1470:
 3296 01b5 03       		.byte	0x3
 3297 01b6 00       		.byte	0
 3298 01b7 02       		.byte	0x2
 3299 01b8 7D       		.byte	0x7d
 3300 01b9 01       		.byte	0x1
 3301 01ba 7D       		.byte	0x7d
 3302 01bb 00       		.byte	0
 3303 01bc 7D       		.byte	0x7d
 3304 01bd 000000   		.align 4
 3305 01c0 00000000 		.long	0
 3306              	
 3307 01c4 00000000 		.long	_ZTISt9exception
 3308 01c8 00000000 		.long	_ZTIN8UnitTest15AssertExceptionE
 3309              	.LLSDATT1470:
 3310              		.text
 3312              		.section	.text.unlikely
 3313              	.LCOLDE95:
 3314              		.text
 3315              	.LHOTE95:
 3316              		.section	.rodata.str1.1
 3317              	.LC96:
 3318 00d7 66696C65 		.string	"file"
 3318      00
 3319              	.LC97:
 3320 00dc 61737365 		.string	"assert failure"
 3320      72742066 
 3320      61696C75 
 3320      726500
 3321              		.section	.rodata.str1.8
 3322 04f4 00000000 		.align 8
 3323              	.LC98:
 3324 04f8 556E6861 		.string	"Unhandled exception while destroying fixture FixtureCtorAsserts"
 3324      6E646C65 
 3324      64206578 
 3324      63657074 
 3324      696F6E20 
 3325              		.align 8
 3326              	.LC99:
 3327 0538 556E6861 		.string	"Unhandled exception while constructing fixture FixtureCtorAsserts"
 3327      6E646C65 
 3327      64206578 
 3327      63657074 
 3327      696F6E20 
 3328              		.section	.text.unlikely
 3329              		.align 2
 3330              	.LCOLDB100:
 3331              		.text
 3332              	.LHOTB100:
 3333 0f0f 90       		.align 2
 3334              		.p2align 4,,15
 3336              	_ZNK12_GLOBAL__N_157TestFixtureCtorAssertsCorrectlyReportsAssertFailureInCtor7RunImplEv:
 3337              	.LFB1257:
 3338              		.cfi_startproc
 3339              		.cfi_personality 0x3,__gxx_personality_v0
 3340              		.cfi_lsda 0x3,.LLSDA1257
 3341 0f10 4155     		pushq	%r13
 3342              		.cfi_def_cfa_offset 16
 3343              		.cfi_offset 13, -16
 3344 0f12 4154     		pushq	%r12
 3345              		.cfi_def_cfa_offset 24
 3346              		.cfi_offset 12, -24
 3347 0f14 BA7B0000 		movl	$123, %edx
 3347      00
 3348 0f19 55       		pushq	%rbp
 3349              		.cfi_def_cfa_offset 32
 3350              		.cfi_offset 6, -32
 3351 0f1a 53       		pushq	%rbx
 3352              		.cfi_def_cfa_offset 40
 3353              		.cfi_offset 3, -40
 3354 0f1b 4889FD   		movq	%rdi, %rbp
 3355 0f1e 488D5F08 		leaq	8(%rdi), %rbx
 3356 0f22 BE000000 		movl	$.LC96, %esi
 3356      00
 3357 0f27 BF000000 		movl	$.LC97, %edi
 3357      00
 3358 0f2c 4881EC98 		subq	$408, %rsp
 3358      010000
 3359              		.cfi_def_cfa_offset 448
 3360 0f33 64488B04 		movq	%fs:40, %rax
 3360      25280000 
 3360      00
 3361 0f3c 48898424 		movq	%rax, 392(%rsp)
 3361      88010000 
 3362 0f44 31C0     		xorl	%eax, %eax
 3363              	.LEHB68:
 3364 0f46 E8000000 		call	_ZN8UnitTest12ReportAssertEPKcS1_i
 3364      00
 3365              	.LEHE68:
 3366 0f4b 4889DF   		movq	%rbx, %rdi
 3367              	.LEHB69:
 3368 0f4e E8BDFDFF 		call	_ZN8UnitTest11ExecuteTestIN12_GLOBAL__N_159FixtureCtorAssertsCorrectlyReportsAssertFailureInC
 3368      FF
 3369              	.LEHE69:
 3370              	.L261:
 3371 0f53 488B8424 		movq	392(%rsp), %rax
 3371      88010000 
 3372 0f5b 64483304 		xorq	%fs:40, %rax
 3372      25280000 
 3372      00
 3373 0f64 750E     		jne	.L306
 3374 0f66 4881C498 		addq	$408, %rsp
 3374      010000
 3375              		.cfi_remember_state
 3376              		.cfi_def_cfa_offset 40
 3377 0f6d 5B       		popq	%rbx
 3378              		.cfi_def_cfa_offset 32
 3379 0f6e 5D       		popq	%rbp
 3380              		.cfi_def_cfa_offset 24
 3381 0f6f 415C     		popq	%r12
 3382              		.cfi_def_cfa_offset 16
 3383 0f71 415D     		popq	%r13
 3384              		.cfi_def_cfa_offset 8
 3385 0f73 C3       		ret
 3386              	.L306:
 3387              		.cfi_restore_state
 3388 0f74 E8000000 		call	__stack_chk_fail
 3388      00
 3389              	.L277:
 3390 0f79 4883FA01 		cmpq	$1, %rdx
 3391 0f7d 4889C7   		movq	%rax, %rdi
 3392 0f80 0F840A01 		je	.L265
 3392      0000
 3393 0f86 4883FA02 		cmpq	$2, %rdx
 3394 0f8a 0F85D100 		jne	.L307
 3394      0000
 3395              	.L266:
 3396 0f90 E8000000 		call	__cxa_begin_catch
 3396      00
 3397 0f95 488D7C24 		leaq	32(%rsp), %rdi
 3397      20
 3398 0f9a 4889C5   		movq	%rax, %rbp
 3399              	.LEHB70:
 3400 0f9d E8000000 		call	_ZN8UnitTest15MemoryOutStreamC1Ev
 3400      00
 3401              	.LEHE70:
 3402 0fa2 488B4500 		movq	0(%rbp), %rax
 3403 0fa6 4889EF   		movq	%rbp, %rdi
 3404 0fa9 FF5010   		call	*16(%rax)
 3405 0fac 488D7C24 		leaq	32(%rsp), %rdi
 3405      20
 3406 0fb1 BE000000 		movl	$.LC93, %esi
 3406      00
 3407 0fb6 4889C5   		movq	%rax, %rbp
 3408              	.LEHB71:
 3409 0fb9 E8000000 		call	_ZStlsISt11char_traitsIcEERSt13basic_ostreamIcT_ES5_PKc
 3409      00
 3410 0fbe 4889C7   		movq	%rax, %rdi
 3411 0fc1 4889EE   		movq	%rbp, %rsi
 3412 0fc4 E8000000 		call	_ZStlsISt11char_traitsIcEERSt13basic_ostreamIcT_ES5_PKc
 3412      00
 3413 0fc9 488D7C24 		leaq	32(%rsp), %rdi
 3413      20
 3414 0fce E8000000 		call	_ZNK8UnitTest15MemoryOutStream7GetTextEv
 3414      00
 3415 0fd3 4889C5   		movq	%rax, %rbp
 3416 0fd6 E8000000 		call	_ZN8UnitTest11CurrentTest7ResultsEv
 3416      00
 3417 0fdb 488B38   		movq	(%rax), %rdi
 3418 0fde 4889EA   		movq	%rbp, %rdx
 3419 0fe1 4889DE   		movq	%rbx, %rsi
 3420 0fe4 E8000000 		call	_ZN8UnitTest11TestResults13OnTestFailureERKNS_11TestDetailsEPKc
 3420      00
 3421              	.LEHE71:
 3422 0fe9 488D7C24 		leaq	32(%rsp), %rdi
 3422      20
 3423              	.LEHB72:
 3424 0fee E8000000 		call	_ZN8UnitTest15MemoryOutStreamD1Ev
 3424      00
 3425              	.LEHE72:
 3426              	.L300:
 3427 0ff3 E8000000 		call	__cxa_end_catch
 3427      00
 3428 0ff8 E956FFFF 		jmp	.L261
 3428      FF
 3429              	.L282:
 3430 0ffd 4883FA01 		cmpq	$1, %rdx
 3431 1001 4889C7   		movq	%rax, %rdi
 3432 1004 0F848600 		je	.L265
 3432      0000
 3433 100a 4883FA02 		cmpq	$2, %rdx
 3434 100e 7480     		je	.L266
 3435 1010 E8000000 		call	__cxa_begin_catch
 3435      00
 3436 1015 BAA90000 		movl	$169, %edx
 3436      00
 3437 101a 4889DE   		movq	%rbx, %rsi
 3438 101d 4889E7   		movq	%rsp, %rdi
 3439 1020 4889E5   		movq	%rsp, %rbp
 3440              	.LEHB73:
 3441 1023 E8000000 		call	_ZN8UnitTest11TestDetailsC1ERKS0_i
 3441      00
 3442 1028 E8000000 		call	_ZN8UnitTest11CurrentTest7ResultsEv
 3442      00
 3443 102d 488B38   		movq	(%rax), %rdi
 3444 1030 BA000000 		movl	$.LC99, %edx
 3444      00
 3445 1035 4889EE   		movq	%rbp, %rsi
 3446 1038 E8000000 		call	_ZN8UnitTest11TestResults13OnTestFailureERKNS_11TestDetailsEPKc
 3446      00
 3447              	.LEHE73:
 3448              	.L273:
 3449              	.LEHB74:
 3450 103d E8000000 		call	__cxa_end_catch
 3450      00
 3451              	.LEHE74:
 3452 1042 E90CFFFF 		jmp	.L261
 3452      FF
 3453              	.L280:
 3454 1047 488D7C24 		leaq	32(%rsp), %rdi
 3454      20
 3455 104c 4889C3   		movq	%rax, %rbx
 3456 104f E8000000 		call	_ZN8UnitTest15MemoryOutStreamD1Ev
 3456      00
 3457              	.L271:
 3458 1054 E8000000 		call	__cxa_end_catch
 3458      00
 3459 1059 4889DF   		movq	%rbx, %rdi
 3460              	.LEHB75:
 3461 105c E8000000 		call	_Unwind_Resume
 3461      00
 3462              	.LEHE75:
 3463              	.L307:
 3464 1061 E8000000 		call	__cxa_begin_catch
 3464      00
 3465 1066 BAA90000 		movl	$169, %edx
 3465      00
 3466 106b 4889DE   		movq	%rbx, %rsi
 3467 106e 4889E7   		movq	%rsp, %rdi
 3468 1071 4889E5   		movq	%rsp, %rbp
 3469              	.LEHB76:
 3470 1074 E8000000 		call	_ZN8UnitTest11TestDetailsC1ERKS0_i
 3470      00
 3471 1079 E8000000 		call	_ZN8UnitTest11CurrentTest7ResultsEv
 3471      00
 3472 107e 488B38   		movq	(%rax), %rdi
 3473 1081 BA000000 		movl	$.LC98, %edx
 3473      00
 3474 1086 4889EE   		movq	%rbp, %rsi
 3475 1089 E8000000 		call	_ZN8UnitTest11TestResults13OnTestFailureERKNS_11TestDetailsEPKc
 3475      00
 3476              	.LEHE76:
 3477 108e EBAD     		jmp	.L273
 3478              	.L265:
 3479 1090 E8000000 		call	__cxa_begin_catch
 3479      00
 3480 1095 4889C3   		movq	%rax, %rbx
 3481 1098 488B00   		movq	(%rax), %rax
 3482 109b 4889DF   		movq	%rbx, %rdi
 3483 109e FF5010   		call	*16(%rax)
 3484 10a1 4889DF   		movq	%rbx, %rdi
 3485 10a4 4989C4   		movq	%rax, %r12
 3486              	.LEHB77:
 3487 10a7 E8000000 		call	_ZNK8UnitTest15AssertException10LineNumberEv
 3487      00
 3488 10ac 4889DF   		movq	%rbx, %rdi
 3489 10af 4189C5   		movl	%eax, %r13d
 3490 10b2 E8000000 		call	_ZNK8UnitTest15AssertException8FilenameEv
 3490      00
 3491 10b7 488B5508 		movq	8(%rbp), %rdx
 3492 10bb 488B7510 		movq	16(%rbp), %rsi
 3493 10bf 4589E8   		movl	%r13d, %r8d
 3494 10c2 4889C1   		movq	%rax, %rcx
 3495 10c5 4889E7   		movq	%rsp, %rdi
 3496 10c8 E8000000 		call	_ZN8UnitTest11TestDetailsC1EPKcS2_S2_i
 3496      00
 3497 10cd E8000000 		call	_ZN8UnitTest11CurrentTest7ResultsEv
 3497      00
 3498 10d2 488B38   		movq	(%rax), %rdi
 3499 10d5 4C89E2   		movq	%r12, %rdx
 3500 10d8 4889E6   		movq	%rsp, %rsi
 3501 10db E8000000 		call	_ZN8UnitTest11TestResults13OnTestFailureERKNS_11TestDetailsEPKc
 3501      00
 3502              	.LEHE77:
 3503 10e0 E90EFFFF 		jmp	.L300
 3503      FF
 3504              	.L279:
 3505              	.L301:
 3506 10e5 4889C3   		movq	%rax, %rbx
 3507 10e8 E967FFFF 		jmp	.L271
 3507      FF
 3508              	.L281:
 3509 10ed 4889C3   		movq	%rax, %rbx
 3510 10f0 E8000000 		call	__cxa_end_catch
 3510      00
 3511 10f5 4889DF   		movq	%rbx, %rdi
 3512              	.LEHB78:
 3513 10f8 E8000000 		call	_Unwind_Resume
 3513      00
 3514              	.LEHE78:
 3515              	.L278:
 3516 10fd EBE6     		jmp	.L301
 3517              		.cfi_endproc
 3518              	.LFE1257:
 3519              		.section	.gcc_except_table
 3520              		.align 4
 3521              	.LLSDA1257:
 3522 01cc FF       		.byte	0xff
 3523 01cd 03       		.byte	0x3
 3524 01ce 51       		.uleb128 .LLSDATT1257-.LLSDATTD1257
 3525              	.LLSDATTD1257:
 3526 01cf 01       		.byte	0x1
 3527 01d0 3C       		.uleb128 .LLSDACSE1257-.LLSDACSB1257
 3528              	.LLSDACSB1257:
 3529 01d1 36       		.uleb128 .LEHB68-.LFB1257
 3530 01d2 05       		.uleb128 .LEHE68-.LEHB68
 3531 01d3 ED01     		.uleb128 .L282-.LFB1257
 3532 01d5 05       		.uleb128 0x5
 3533 01d6 3E       		.uleb128 .LEHB69-.LFB1257
 3534 01d7 05       		.uleb128 .LEHE69-.LEHB69
 3535 01d8 69       		.uleb128 .L277-.LFB1257
 3536 01d9 05       		.uleb128 0x5
 3537 01da 8D01     		.uleb128 .LEHB70-.LFB1257
 3538 01dc 05       		.uleb128 .LEHE70-.LEHB70
 3539 01dd D503     		.uleb128 .L279-.LFB1257
 3540 01df 00       		.uleb128 0
 3541 01e0 A901     		.uleb128 .LEHB71-.LFB1257
 3542 01e2 30       		.uleb128 .LEHE71-.LEHB71
 3543 01e3 B702     		.uleb128 .L280-.LFB1257
 3544 01e5 00       		.uleb128 0
 3545 01e6 DE01     		.uleb128 .LEHB72-.LFB1257
 3546 01e8 05       		.uleb128 .LEHE72-.LEHB72
 3547 01e9 D503     		.uleb128 .L279-.LFB1257
 3548 01eb 00       		.uleb128 0
 3549 01ec 9302     		.uleb128 .LEHB73-.LFB1257
 3550 01ee 1A       		.uleb128 .LEHE73-.LEHB73
 3551 01ef DD03     		.uleb128 .L281-.LFB1257
 3552 01f1 00       		.uleb128 0
 3553 01f2 AD02     		.uleb128 .LEHB74-.LFB1257
 3554 01f4 05       		.uleb128 .LEHE74-.LEHB74
 3555 01f5 00       		.uleb128 0
 3556 01f6 00       		.uleb128 0
 3557 01f7 CC02     		.uleb128 .LEHB75-.LFB1257
 3558 01f9 05       		.uleb128 .LEHE75-.LEHB75
 3559 01fa 00       		.uleb128 0
 3560 01fb 00       		.uleb128 0
 3561 01fc E402     		.uleb128 .LEHB76-.LFB1257
 3562 01fe 1A       		.uleb128 .LEHE76-.LEHB76
 3563 01ff DD03     		.uleb128 .L281-.LFB1257
 3564 0201 00       		.uleb128 0
 3565 0202 9703     		.uleb128 .LEHB77-.LFB1257
 3566 0204 39       		.uleb128 .LEHE77-.LEHB77
 3567 0205 ED03     		.uleb128 .L278-.LFB1257
 3568 0207 00       		.uleb128 0
 3569 0208 E803     		.uleb128 .LEHB78-.LFB1257
 3570 020a 05       		.uleb128 .LEHE78-.LEHB78
 3571 020b 00       		.uleb128 0
 3572 020c 00       		.uleb128 0
 3573              	.LLSDACSE1257:
 3574 020d 03       		.byte	0x3
 3575 020e 00       		.byte	0
 3576 020f 02       		.byte	0x2
 3577 0210 7D       		.byte	0x7d
 3578 0211 01       		.byte	0x1
 3579 0212 7D       		.byte	0x7d
 3580 0213 00       		.align 4
 3581 0214 00000000 		.long	0
 3582              	
 3583 0218 00000000 		.long	_ZTISt9exception
 3584 021c 00000000 		.long	_ZTIN8UnitTest15AssertExceptionE
 3585              	.LLSDATT1257:
 3586              		.text
 3588              		.section	.text.unlikely
 3589              	.LCOLDE100:
 3590              		.text
 3591              	.LHOTE100:
 3592              		.section	.text.unlikely
 3593              	.LCOLDB101:
 3594              		.text
 3595              	.LHOTB101:
 3596 10ff 90       		.p2align 4,,15
 3598              	_ZN8UnitTest11ExecuteTestIN12_GLOBAL__N_148FixtureDtorThrowsFixtureDtorThrowsTestNameHelperEEEvRT_R
 3599              	.LFB1471:
 3600              		.cfi_startproc
 3601              		.cfi_personality 0x3,__gxx_personality_v0
 3602              		.cfi_lsda 0x3,.LLSDA1471
 3603 1100 4154     		pushq	%r12
 3604              		.cfi_def_cfa_offset 16
 3605              		.cfi_offset 12, -16
 3606 1102 55       		pushq	%rbp
 3607              		.cfi_def_cfa_offset 24
 3608              		.cfi_offset 6, -24
 3609 1103 53       		pushq	%rbx
 3610              		.cfi_def_cfa_offset 32
 3611              		.cfi_offset 3, -32
 3612 1104 4889FB   		movq	%rdi, %rbx
 3613 1107 4881EC10 		subq	$1552, %rsp
 3613      060000
 3614              		.cfi_def_cfa_offset 1584
 3615 110e 48897C24 		movq	%rdi, 8(%rsp)
 3615      08
 3616 1113 64488B04 		movq	%fs:40, %rax
 3616      25280000 
 3616      00
 3617 111c 48898424 		movq	%rax, 1544(%rsp)
 3617      08060000 
 3618 1124 31C0     		xorl	%eax, %eax
 3619              	.LEHB79:
 3620 1126 E8000000 		call	_ZN8UnitTest11CurrentTest7DetailsEv
 3620      00
 3621              	.LEHE79:
 3622 112b 488DBC24 		leaq	416(%rsp), %rdi
 3622      A0010000 
 3623 1133 488918   		movq	%rbx, (%rax)
 3624              	.LEHB80:
 3625 1136 E8000000 		call	_ZN8UnitTest16SignalTranslatorC1Ev
 3625      00
 3626 113b 488B3D00 		movq	_ZN8UnitTest16SignalTranslator12s_jumpTargetE(%rip), %rdi
 3626      000000
 3627 1142 BE010000 		movl	$1, %esi
 3627      00
 3628 1147 E8000000 		call	__sigsetjmp
 3628      00
 3629 114c 85C0     		testl	%eax, %eax
 3630 114e 7530     		jne	.L335
 3631 1150 488DBC24 		leaq	416(%rsp), %rdi
 3631      A0010000 
 3632 1158 E8000000 		call	_ZN8UnitTest16SignalTranslatorD1Ev
 3632      00
 3633              	.LEHE80:
 3634              	.L308:
 3635 115d 488B8424 		movq	1544(%rsp), %rax
 3635      08060000 
 3636 1165 64483304 		xorq	%fs:40, %rax
 3636      25280000 
 3636      00
 3637 116e 0F85C700 		jne	.L336
 3637      0000
 3638 1174 4881C410 		addq	$1552, %rsp
 3638      060000
 3639              		.cfi_remember_state
 3640              		.cfi_def_cfa_offset 32
 3641 117b 5B       		popq	%rbx
 3642              		.cfi_def_cfa_offset 24
 3643 117c 5D       		popq	%rbp
 3644              		.cfi_def_cfa_offset 16
 3645 117d 415C     		popq	%r12
 3646              		.cfi_def_cfa_offset 8
 3647 117f C3       		ret
 3648              		.p2align 4,,10
 3649              		.p2align 3
 3650              	.L335:
 3651              		.cfi_restore_state
 3652 1180 BF080000 		movl	$8, %edi
 3652      00
 3653 1185 E8000000 		call	__cxa_allocate_exception
 3653      00
 3654 118a 31D2     		xorl	%edx, %edx
 3655 118c 48C70000 		movq	$.LC92, (%rax)
 3655      000000
 3656 1193 BE000000 		movl	$_ZTIPKc, %esi
 3656      00
 3657 1198 4889C7   		movq	%rax, %rdi
 3658              	.LEHB81:
 3659 119b E8000000 		call	__cxa_throw
 3659      00
 3660              	.LEHE81:
 3661              	.L328:
 3662 11a0 488DBC24 		leaq	416(%rsp), %rdi
 3662      A0010000 
 3663 11a8 4889C5   		movq	%rax, %rbp
 3664 11ab 4889D3   		movq	%rdx, %rbx
 3665 11ae E8000000 		call	_ZN8UnitTest16SignalTranslatorD1Ev
 3665      00
 3666 11b3 4889EF   		movq	%rbp, %rdi
 3667 11b6 4889DA   		movq	%rbx, %rdx
 3668              	.L312:
 3669 11b9 4883FA01 		cmpq	$1, %rdx
 3670 11bd 0F84CA00 		je	.L314
 3670      0000
 3671 11c3 4883FA02 		cmpq	$2, %rdx
 3672 11c7 0F859A00 		jne	.L337
 3672      0000
 3673 11cd E8000000 		call	__cxa_begin_catch
 3673      00
 3674 11d2 488D7C24 		leaq	48(%rsp), %rdi
 3674      30
 3675 11d7 4889C3   		movq	%rax, %rbx
 3676              	.LEHB82:
 3677 11da E8000000 		call	_ZN8UnitTest15MemoryOutStreamC1Ev
 3677      00
 3678              	.LEHE82:
 3679 11df 488B03   		movq	(%rbx), %rax
 3680 11e2 4889DF   		movq	%rbx, %rdi
 3681 11e5 FF5010   		call	*16(%rax)
 3682 11e8 488D7C24 		leaq	48(%rsp), %rdi
 3682      30
 3683 11ed BE000000 		movl	$.LC93, %esi
 3683      00
 3684 11f2 4889C3   		movq	%rax, %rbx
 3685              	.LEHB83:
 3686 11f5 E8000000 		call	_ZStlsISt11char_traitsIcEERSt13basic_ostreamIcT_ES5_PKc
 3686      00
 3687 11fa 4889C7   		movq	%rax, %rdi
 3688 11fd 4889DE   		movq	%rbx, %rsi
 3689 1200 E8000000 		call	_ZStlsISt11char_traitsIcEERSt13basic_ostreamIcT_ES5_PKc
 3689      00
 3690 1205 488D7C24 		leaq	48(%rsp), %rdi
 3690      30
 3691 120a E8000000 		call	_ZNK8UnitTest15MemoryOutStream7GetTextEv
 3691      00
 3692 120f 4889C3   		movq	%rax, %rbx
 3693 1212 E8000000 		call	_ZN8UnitTest11CurrentTest7ResultsEv
 3693      00
 3694 1217 488B7424 		movq	8(%rsp), %rsi
 3694      08
 3695 121c 488B38   		movq	(%rax), %rdi
 3696 121f 4889DA   		movq	%rbx, %rdx
 3697 1222 E8000000 		call	_ZN8UnitTest11TestResults13OnTestFailureERKNS_11TestDetailsEPKc
 3697      00
 3698              	.LEHE83:
 3699 1227 488D7C24 		leaq	48(%rsp), %rdi
 3699      30
 3700              	.LEHB84:
 3701 122c E8000000 		call	_ZN8UnitTest15MemoryOutStreamD1Ev
 3701      00
 3702              	.LEHE84:
 3703              	.L332:
 3704 1231 E8000000 		call	__cxa_end_catch
 3704      00
 3705 1236 E922FFFF 		jmp	.L308
 3705      FF
 3706              	.L336:
 3707 123b E8000000 		call	__stack_chk_fail
 3707      00
 3708              	.L327:
 3709 1240 4889C7   		movq	%rax, %rdi
 3710 1243 E971FFFF 		jmp	.L312
 3710      FF
 3711              	.L325:
 3712 1248 488D7C24 		leaq	48(%rsp), %rdi
 3712      30
 3713 124d 4889C3   		movq	%rax, %rbx
 3714 1250 E8000000 		call	_ZN8UnitTest15MemoryOutStreamD1Ev
 3714      00
 3715              	.L318:
 3716 1255 E8000000 		call	__cxa_end_catch
 3716      00
 3717 125a 4889DF   		movq	%rbx, %rdi
 3718              	.LEHB85:
 3719 125d E8000000 		call	_Unwind_Resume
 3719      00
 3720              	.LEHE85:
 3721              	.L324:
 3722              	.L333:
 3723 1262 4889C3   		movq	%rax, %rbx
 3724 1265 EBEE     		jmp	.L318
 3725              	.L337:
 3726 1267 E8000000 		call	__cxa_begin_catch
 3726      00
 3727              	.LEHB86:
 3728 126c E8000000 		call	_ZN8UnitTest11CurrentTest7ResultsEv
 3728      00
 3729 1271 488B7424 		movq	8(%rsp), %rsi
 3729      08
 3730 1276 488B38   		movq	(%rax), %rdi
 3731 1279 BA000000 		movl	$.LC94, %edx
 3731      00
 3732 127e E8000000 		call	_ZN8UnitTest11TestResults13OnTestFailureERKNS_11TestDetailsEPKc
 3732      00
 3733              	.LEHE86:
 3734              	.LEHB87:
 3735 1283 E8000000 		call	__cxa_end_catch
 3735      00
 3736              	.LEHE87:
 3737 1288 E9D0FEFF 		jmp	.L308
 3737      FF
 3738              	.L314:
 3739 128d E8000000 		call	__cxa_begin_catch
 3739      00
 3740 1292 4889C3   		movq	%rax, %rbx
 3741 1295 488B00   		movq	(%rax), %rax
 3742 1298 4889DF   		movq	%rbx, %rdi
 3743 129b FF5010   		call	*16(%rax)
 3744 129e 4889DF   		movq	%rbx, %rdi
 3745 12a1 4889C5   		movq	%rax, %rbp
 3746              	.LEHB88:
 3747 12a4 E8000000 		call	_ZNK8UnitTest15AssertException10LineNumberEv
 3747      00
 3748 12a9 4889DF   		movq	%rbx, %rdi
 3749 12ac 4189C4   		movl	%eax, %r12d
 3750 12af E8000000 		call	_ZNK8UnitTest15AssertException8FilenameEv
 3750      00
 3751 12b4 4889C1   		movq	%rax, %rcx
 3752 12b7 488B4424 		movq	8(%rsp), %rax
 3752      08
 3753 12bc 488D7C24 		leaq	16(%rsp), %rdi
 3753      10
 3754 12c1 4589E0   		movl	%r12d, %r8d
 3755 12c4 488B7008 		movq	8(%rax), %rsi
 3756 12c8 488B10   		movq	(%rax), %rdx
 3757 12cb E8000000 		call	_ZN8UnitTest11TestDetailsC1EPKcS2_S2_i
 3757      00
 3758 12d0 E8000000 		call	_ZN8UnitTest11CurrentTest7ResultsEv
 3758      00
 3759 12d5 488B38   		movq	(%rax), %rdi
 3760 12d8 488D7424 		leaq	16(%rsp), %rsi
 3760      10
 3761 12dd 4889EA   		movq	%rbp, %rdx
 3762 12e0 E8000000 		call	_ZN8UnitTest11TestResults13OnTestFailureERKNS_11TestDetailsEPKc
 3762      00
 3763              	.LEHE88:
 3764 12e5 E947FFFF 		jmp	.L332
 3764      FF
 3765              	.L323:
 3766 12ea 4889C3   		movq	%rax, %rbx
 3767 12ed E8000000 		call	__cxa_end_catch
 3767      00
 3768 12f2 4889DF   		movq	%rbx, %rdi
 3769              	.LEHB89:
 3770 12f5 E8000000 		call	_Unwind_Resume
 3770      00
 3771              	.LEHE89:
 3772              	.L326:
 3773 12fa E963FFFF 		jmp	.L333
 3773      FF
 3774              		.cfi_endproc
 3775              	.LFE1471:
 3776              		.section	.gcc_except_table
 3777              		.align 4
 3778              	.LLSDA1471:
 3779 0220 FF       		.byte	0xff
 3780 0221 03       		.byte	0x3
 3781 0222 55       		.uleb128 .LLSDATT1471-.LLSDATTD1471
 3782              	.LLSDATTD1471:
 3783 0223 01       		.byte	0x1
 3784 0224 3C       		.uleb128 .LLSDACSE1471-.LLSDACSB1471
 3785              	.LLSDACSB1471:
 3786 0225 26       		.uleb128 .LEHB79-.LFB1471
 3787 0226 05       		.uleb128 .LEHE79-.LEHB79
 3788 0227 00       		.uleb128 0
 3789 0228 00       		.uleb128 0
 3790 0229 36       		.uleb128 .LEHB80-.LFB1471
 3791 022a 27       		.uleb128 .LEHE80-.LEHB80
 3792 022b C002     		.uleb128 .L327-.LFB1471
 3793 022d 05       		.uleb128 0x5
 3794 022e 9B01     		.uleb128 .LEHB81-.LFB1471
 3795 0230 05       		.uleb128 .LEHE81-.LEHB81
 3796 0231 A001     		.uleb128 .L328-.LFB1471
 3797 0233 07       		.uleb128 0x7
 3798 0234 DA01     		.uleb128 .LEHB82-.LFB1471
 3799 0236 05       		.uleb128 .LEHE82-.LEHB82
 3800 0237 E202     		.uleb128 .L324-.LFB1471
 3801 0239 00       		.uleb128 0
 3802 023a F501     		.uleb128 .LEHB83-.LFB1471
 3803 023c 32       		.uleb128 .LEHE83-.LEHB83
 3804 023d C802     		.uleb128 .L325-.LFB1471
 3805 023f 00       		.uleb128 0
 3806 0240 AC02     		.uleb128 .LEHB84-.LFB1471
 3807 0242 05       		.uleb128 .LEHE84-.LEHB84
 3808 0243 E202     		.uleb128 .L324-.LFB1471
 3809 0245 00       		.uleb128 0
 3810 0246 DD02     		.uleb128 .LEHB85-.LFB1471
 3811 0248 05       		.uleb128 .LEHE85-.LEHB85
 3812 0249 00       		.uleb128 0
 3813 024a 00       		.uleb128 0
 3814 024b EC02     		.uleb128 .LEHB86-.LFB1471
 3815 024d 17       		.uleb128 .LEHE86-.LEHB86
 3816 024e EA03     		.uleb128 .L323-.LFB1471
 3817 0250 00       		.uleb128 0
 3818 0251 8303     		.uleb128 .LEHB87-.LFB1471
 3819 0253 05       		.uleb128 .LEHE87-.LEHB87
 3820 0254 00       		.uleb128 0
 3821 0255 00       		.uleb128 0
 3822 0256 A403     		.uleb128 .LEHB88-.LFB1471
 3823 0258 41       		.uleb128 .LEHE88-.LEHB88
 3824 0259 FA03     		.uleb128 .L326-.LFB1471
 3825 025b 00       		.uleb128 0
 3826 025c F503     		.uleb128 .LEHB89-.LFB1471
 3827 025e 05       		.uleb128 .LEHE89-.LEHB89
 3828 025f 00       		.uleb128 0
 3829 0260 00       		.uleb128 0
 3830              	.LLSDACSE1471:
 3831 0261 03       		.byte	0x3
 3832 0262 00       		.byte	0
 3833 0263 02       		.byte	0x2
 3834 0264 7D       		.byte	0x7d
 3835 0265 01       		.byte	0x1
 3836 0266 7D       		.byte	0x7d
 3837 0267 00       		.byte	0
 3838 0268 7D       		.byte	0x7d
 3839 0269 000000   		.align 4
 3840 026c 00000000 		.long	0
 3841              	
 3842 0270 00000000 		.long	_ZTISt9exception
 3843 0274 00000000 		.long	_ZTIN8UnitTest15AssertExceptionE
 3844              	.LLSDATT1471:
 3845              		.text
 3847              		.section	.text.unlikely
 3848              	.LCOLDE101:
 3849              		.text
 3850              	.LHOTE101:
 3851              		.section	.rodata.str1.8
 3852 057a 00000000 		.align 8
 3852      0000
 3853              	.LC102:
 3854 0580 556E6861 		.string	"Unhandled exception while destroying fixture FixtureDtorThrows"
 3854      6E646C65 
 3854      64206578 
 3854      63657074 
 3854      696F6E20 
 3855              		.section	.text.unlikely
 3856              		.align 2
 3857              	.LCOLDB103:
 3858              		.text
 3859              	.LHOTB103:
 3860 12ff 90       		.align 2
 3861              		.p2align 4,,15
 3863              	_ZNK12_GLOBAL__N_146TestFixtureDtorThrowsFixtureDtorThrowsTestName7RunImplEv:
 3864              	.LFB1239:
 3865              		.cfi_startproc
 3866              		.cfi_personality 0x3,__gxx_personality_v0
 3867              		.cfi_lsda 0x3,.LLSDA1239
 3868 1300 4155     		pushq	%r13
 3869              		.cfi_def_cfa_offset 16
 3870              		.cfi_offset 13, -16
 3871 1302 4154     		pushq	%r12
 3872              		.cfi_def_cfa_offset 24
 3873              		.cfi_offset 12, -24
 3874 1304 55       		pushq	%rbp
 3875              		.cfi_def_cfa_offset 32
 3876              		.cfi_offset 6, -32
 3877 1305 53       		pushq	%rbx
 3878              		.cfi_def_cfa_offset 40
 3879              		.cfi_offset 3, -40
 3880 1306 488D5F08 		leaq	8(%rdi), %rbx
 3881 130a 4889FD   		movq	%rdi, %rbp
 3882 130d 4881EC98 		subq	$408, %rsp
 3882      010000
 3883              		.cfi_def_cfa_offset 448
 3884 1314 4889DF   		movq	%rbx, %rdi
 3885 1317 64488B04 		movq	%fs:40, %rax
 3885      25280000 
 3885      00
 3886 1320 48898424 		movq	%rax, 392(%rsp)
 3886      88010000 
 3887 1328 31C0     		xorl	%eax, %eax
 3888 132a 48891C24 		movq	%rbx, (%rsp)
 3889              	.LEHB90:
 3890 132e E8CDFDFF 		call	_ZN8UnitTest11ExecuteTestIN12_GLOBAL__N_148FixtureDtorThrowsFixtureDtorThrowsTestNameHelperEE
 3890      FF
 3891              	.LEHE90:
 3892 1333 4889E7   		movq	%rsp, %rdi
 3893              	.LEHB91:
 3894 1336 E845F6FF 		call	_ZN12_GLOBAL__N_117FixtureDtorThrowsD2Ev
 3894      FF
 3895              	.LEHE91:
 3896              	.L351:
 3897 133b 4883FA01 		cmpq	$1, %rdx
 3898 133f 4889C7   		movq	%rax, %rdi
 3899 1342 0F84F000 		je	.L346
 3899      0000
 3900 1348 4883FA02 		cmpq	$2, %rdx
 3901 134c 0F85B500 		jne	.L361
 3901      0000
 3902 1352 E8000000 		call	__cxa_begin_catch
 3902      00
 3903 1357 488D7C24 		leaq	32(%rsp), %rdi
 3903      20
 3904 135c 4889C5   		movq	%rax, %rbp
 3905              	.LEHB92:
 3906 135f E8000000 		call	_ZN8UnitTest15MemoryOutStreamC1Ev
 3906      00
 3907              	.LEHE92:
 3908 1364 488B4500 		movq	0(%rbp), %rax
 3909 1368 4889EF   		movq	%rbp, %rdi
 3910 136b FF5010   		call	*16(%rax)
 3911 136e 488D7C24 		leaq	32(%rsp), %rdi
 3911      20
 3912 1373 BE000000 		movl	$.LC93, %esi
 3912      00
 3913 1378 4889C5   		movq	%rax, %rbp
 3914              	.LEHB93:
 3915 137b E8000000 		call	_ZStlsISt11char_traitsIcEERSt13basic_ostreamIcT_ES5_PKc
 3915      00
 3916 1380 4889C7   		movq	%rax, %rdi
 3917 1383 4889EE   		movq	%rbp, %rsi
 3918 1386 E8000000 		call	_ZStlsISt11char_traitsIcEERSt13basic_ostreamIcT_ES5_PKc
 3918      00
 3919 138b 488D7C24 		leaq	32(%rsp), %rdi
 3919      20
 3920 1390 E8000000 		call	_ZNK8UnitTest15MemoryOutStream7GetTextEv
 3920      00
 3921 1395 4889C5   		movq	%rax, %rbp
 3922 1398 E8000000 		call	_ZN8UnitTest11CurrentTest7ResultsEv
 3922      00
 3923 139d 488B38   		movq	(%rax), %rdi
 3924 13a0 4889EA   		movq	%rbp, %rdx
 3925 13a3 4889DE   		movq	%rbx, %rsi
 3926 13a6 E8000000 		call	_ZN8UnitTest11TestResults13OnTestFailureERKNS_11TestDetailsEPKc
 3926      00
 3927              	.LEHE93:
 3928 13ab 488D7C24 		leaq	32(%rsp), %rdi
 3928      20
 3929              	.LEHB94:
 3930 13b0 E8000000 		call	_ZN8UnitTest15MemoryOutStreamD1Ev
 3930      00
 3931              	.LEHE94:
 3932              	.L358:
 3933 13b5 E8000000 		call	__cxa_end_catch
 3933      00
 3934              	.L338:
 3935 13ba 488B8424 		movq	392(%rsp), %rax
 3935      88010000 
 3936 13c2 64483304 		xorq	%fs:40, %rax
 3936      25280000 
 3936      00
 3937 13cb 7516     		jne	.L362
 3938 13cd 4881C498 		addq	$408, %rsp
 3938      010000
 3939              		.cfi_remember_state
 3940              		.cfi_def_cfa_offset 40
 3941 13d4 5B       		popq	%rbx
 3942              		.cfi_def_cfa_offset 32
 3943 13d5 5D       		popq	%rbp
 3944              		.cfi_def_cfa_offset 24
 3945 13d6 415C     		popq	%r12
 3946              		.cfi_def_cfa_offset 16
 3947 13d8 415D     		popq	%r13
 3948              		.cfi_def_cfa_offset 8
 3949 13da C3       		ret
 3950              	.L350:
 3951              		.cfi_restore_state
 3952 13db 4889E7   		movq	%rsp, %rdi
 3953 13de E89DF5FF 		call	_ZN12_GLOBAL__N_117FixtureDtorThrowsD2Ev
 3953      FF
 3954              	.L362:
 3955 13e3 E8000000 		call	__stack_chk_fail
 3955      00
 3956              	.L354:
 3957 13e8 488D7C24 		leaq	32(%rsp), %rdi
 3957      20
 3958 13ed 4889C3   		movq	%rax, %rbx
 3959 13f0 E8000000 		call	_ZN8UnitTest15MemoryOutStreamD1Ev
 3959      00
 3960              	.L342:
 3961 13f5 E8000000 		call	__cxa_end_catch
 3961      00
 3962 13fa 4889DF   		movq	%rbx, %rdi
 3963              	.LEHB95:
 3964 13fd E8000000 		call	_Unwind_Resume
 3964      00
 3965              	.LEHE95:
 3966              	.L353:
 3967              	.L359:
 3968 1402 4889C3   		movq	%rax, %rbx
 3969 1405 EBEE     		jmp	.L342
 3970              	.L361:
 3971 1407 E8000000 		call	__cxa_begin_catch
 3971      00
 3972 140c BA8A0000 		movl	$138, %edx
 3972      00
 3973 1411 4889DE   		movq	%rbx, %rsi
 3974 1414 4889E7   		movq	%rsp, %rdi
 3975              	.LEHB96:
 3976 1417 E8000000 		call	_ZN8UnitTest11TestDetailsC1ERKS0_i
 3976      00
 3977 141c E8000000 		call	_ZN8UnitTest11CurrentTest7ResultsEv
 3977      00
 3978 1421 488B38   		movq	(%rax), %rdi
 3979 1424 BA000000 		movl	$.LC102, %edx
 3979      00
 3980 1429 4889E6   		movq	%rsp, %rsi
 3981 142c E8000000 		call	_ZN8UnitTest11TestResults13OnTestFailureERKNS_11TestDetailsEPKc
 3981      00
 3982              	.LEHE96:
 3983              	.LEHB97:
 3984 1431 E8000000 		call	__cxa_end_catch
 3984      00
 3985              	.LEHE97:
 3986 1436 EB82     		jmp	.L338
 3987              	.L346:
 3988 1438 E8000000 		call	__cxa_begin_catch
 3988      00
 3989 143d 4889C3   		movq	%rax, %rbx
 3990 1440 488B00   		movq	(%rax), %rax
 3991 1443 4889DF   		movq	%rbx, %rdi
 3992 1446 FF5010   		call	*16(%rax)
 3993 1449 4889DF   		movq	%rbx, %rdi
 3994 144c 4989C4   		movq	%rax, %r12
 3995              	.LEHB98:
 3996 144f E8000000 		call	_ZNK8UnitTest15AssertException10LineNumberEv
 3996      00
 3997 1454 4889DF   		movq	%rbx, %rdi
 3998 1457 4189C5   		movl	%eax, %r13d
 3999 145a E8000000 		call	_ZNK8UnitTest15AssertException8FilenameEv
 3999      00
 4000 145f 488B5508 		movq	8(%rbp), %rdx
 4001 1463 488B7510 		movq	16(%rbp), %rsi
 4002 1467 4589E8   		movl	%r13d, %r8d
 4003 146a 4889C1   		movq	%rax, %rcx
 4004 146d 4889E7   		movq	%rsp, %rdi
 4005 1470 E8000000 		call	_ZN8UnitTest11TestDetailsC1EPKcS2_S2_i
 4005      00
 4006 1475 E8000000 		call	_ZN8UnitTest11CurrentTest7ResultsEv
 4006      00
 4007 147a 488B38   		movq	(%rax), %rdi
 4008 147d 4C89E2   		movq	%r12, %rdx
 4009 1480 4889E6   		movq	%rsp, %rsi
 4010 1483 E8000000 		call	_ZN8UnitTest11TestResults13OnTestFailureERKNS_11TestDetailsEPKc
 4010      00
 4011              	.LEHE98:
 4012 1488 E928FFFF 		jmp	.L358
 4012      FF
 4013              	.L355:
 4014 148d 4889C3   		movq	%rax, %rbx
 4015 1490 E8000000 		call	__cxa_end_catch
 4015      00
 4016 1495 4889DF   		movq	%rbx, %rdi
 4017              	.LEHB99:
 4018 1498 E8000000 		call	_Unwind_Resume
 4018      00
 4019              	.LEHE99:
 4020              	.L352:
 4021 149d E960FFFF 		jmp	.L359
 4021      FF
 4022              		.cfi_endproc
 4023              	.LFE1239:
 4024              		.section	.gcc_except_table
 4025              		.align 4
 4026              	.LLSDA1239:
 4027 0278 FF       		.byte	0xff
 4028 0279 03       		.byte	0x3
 4029 027a 4D       		.uleb128 .LLSDATT1239-.LLSDATTD1239
 4030              	.LLSDATTD1239:
 4031 027b 01       		.byte	0x1
 4032 027c 34       		.uleb128 .LLSDACSE1239-.LLSDACSB1239
 4033              	.LLSDACSB1239:
 4034 027d 2E       		.uleb128 .LEHB90-.LFB1239
 4035 027e 05       		.uleb128 .LEHE90-.LEHB90
 4036 027f DB01     		.uleb128 .L350-.LFB1239
 4037 0281 07       		.uleb128 0x7
 4038 0282 36       		.uleb128 .LEHB91-.LFB1239
 4039 0283 05       		.uleb128 .LEHE91-.LEHB91
 4040 0284 3B       		.uleb128 .L351-.LFB1239
 4041 0285 05       		.uleb128 0x5
 4042 0286 5F       		.uleb128 .LEHB92-.LFB1239
 4043 0287 05       		.uleb128 .LEHE92-.LEHB92
 4044 0288 8202     		.uleb128 .L353-.LFB1239
 4045 028a 00       		.uleb128 0
 4046 028b 7B       		.uleb128 .LEHB93-.LFB1239
 4047 028c 30       		.uleb128 .LEHE93-.LEHB93
 4048 028d E801     		.uleb128 .L354-.LFB1239
 4049 028f 00       		.uleb128 0
 4050 0290 B001     		.uleb128 .LEHB94-.LFB1239
 4051 0292 05       		.uleb128 .LEHE94-.LEHB94
 4052 0293 8202     		.uleb128 .L353-.LFB1239
 4053 0295 00       		.uleb128 0
 4054 0296 FD01     		.uleb128 .LEHB95-.LFB1239
 4055 0298 05       		.uleb128 .LEHE95-.LEHB95
 4056 0299 00       		.uleb128 0
 4057 029a 00       		.uleb128 0
 4058 029b 9702     		.uleb128 .LEHB96-.LFB1239
 4059 029d 1A       		.uleb128 .LEHE96-.LEHB96
 4060 029e 8D03     		.uleb128 .L355-.LFB1239
 4061 02a0 00       		.uleb128 0
 4062 02a1 B102     		.uleb128 .LEHB97-.LFB1239
 4063 02a3 05       		.uleb128 .LEHE97-.LEHB97
 4064 02a4 00       		.uleb128 0
 4065 02a5 00       		.uleb128 0
 4066 02a6 CF02     		.uleb128 .LEHB98-.LFB1239
 4067 02a8 39       		.uleb128 .LEHE98-.LEHB98
 4068 02a9 9D03     		.uleb128 .L352-.LFB1239
 4069 02ab 00       		.uleb128 0
 4070 02ac 9803     		.uleb128 .LEHB99-.LFB1239
 4071 02ae 05       		.uleb128 .LEHE99-.LEHB99
 4072 02af 00       		.uleb128 0
 4073 02b0 00       		.uleb128 0
 4074              	.LLSDACSE1239:
 4075 02b1 03       		.byte	0x3
 4076 02b2 00       		.byte	0
 4077 02b3 02       		.byte	0x2
 4078 02b4 7D       		.byte	0x7d
 4079 02b5 01       		.byte	0x1
 4080 02b6 7D       		.byte	0x7d
 4081 02b7 00       		.byte	0
 4082 02b8 7D       		.byte	0x7d
 4083 02b9 000000   		.align 4
 4084 02bc 00000000 		.long	0
 4085              	
 4086 02c0 00000000 		.long	_ZTISt9exception
 4087 02c4 00000000 		.long	_ZTIN8UnitTest15AssertExceptionE
 4088              	.LLSDATT1239:
 4089              		.text
 4091              		.section	.text.unlikely
 4092              	.LCOLDE103:
 4093              		.text
 4094              	.LHOTE103:
 4095              		.section	.rodata.str1.8
 4096 05bf 00       		.align 8
 4097              	.LC104:
 4098 05c0 556E6861 		.string	"Unhandled exception while constructing fixture FixtureCtorThrows"
 4098      6E646C65 
 4098      64206578 
 4098      63657074 
 4098      696F6E20 
 4099              		.section	.text.unlikely
 4100              		.align 2
 4101              	.LCOLDB105:
 4102              		.text
 4103              	.LHOTB105:
 4104              		.align 2
 4105 14a2 0F1F4000 		.p2align 4,,15
 4105      662E0F1F 
 4105      84000000 
 4105      0000
 4107              	_ZNK12_GLOBAL__N_146TestFixtureCtorThrowsFixtureCtorThrowsTestName7RunImplEv:
 4108              	.LFB1221:
 4109              		.cfi_startproc
 4110              		.cfi_personality 0x3,__gxx_personality_v0
 4111              		.cfi_lsda 0x3,.LLSDA1221
 4112 14b0 4155     		pushq	%r13
 4113              		.cfi_def_cfa_offset 16
 4114              		.cfi_offset 13, -16
 4115 14b2 4154     		pushq	%r12
 4116              		.cfi_def_cfa_offset 24
 4117              		.cfi_offset 12, -24
 4118 14b4 55       		pushq	%rbp
 4119              		.cfi_def_cfa_offset 32
 4120              		.cfi_offset 6, -32
 4121 14b5 53       		pushq	%rbx
 4122              		.cfi_def_cfa_offset 40
 4123              		.cfi_offset 3, -40
 4124 14b6 4889FB   		movq	%rdi, %rbx
 4125 14b9 BF080000 		movl	$8, %edi
 4125      00
 4126 14be 4881EC98 		subq	$408, %rsp
 4126      010000
 4127              		.cfi_def_cfa_offset 448
 4128 14c5 64488B04 		movq	%fs:40, %rax
 4128      25280000 
 4128      00
 4129 14ce 48898424 		movq	%rax, 392(%rsp)
 4129      88010000 
 4130 14d6 31C0     		xorl	%eax, %eax
 4131 14d8 E8000000 		call	__cxa_allocate_exception
 4131      00
 4132 14dd 31D2     		xorl	%edx, %edx
 4133 14df 48C70000 		movq	$.LC72, (%rax)
 4133      000000
 4134 14e6 BE000000 		movl	$_ZTIPKc, %esi
 4134      00
 4135 14eb 4889C7   		movq	%rax, %rdi
 4136              	.LEHB100:
 4137 14ee E8000000 		call	__cxa_throw
 4137      00
 4138              	.LEHE100:
 4139              	.L374:
 4140 14f3 4883FA01 		cmpq	$1, %rdx
 4141 14f7 4889C7   		movq	%rax, %rdi
 4142 14fa 0F849700 		je	.L370
 4142      0000
 4143 1500 4883FA02 		cmpq	$2, %rdx
 4144 1504 0F85F400 		jne	.L384
 4144      0000
 4145 150a E8000000 		call	__cxa_begin_catch
 4145      00
 4146 150f 488D7C24 		leaq	32(%rsp), %rdi
 4146      20
 4147 1514 4889C5   		movq	%rax, %rbp
 4148              	.LEHB101:
 4149 1517 E8000000 		call	_ZN8UnitTest15MemoryOutStreamC1Ev
 4149      00
 4150              	.LEHE101:
 4151 151c 488B4500 		movq	0(%rbp), %rax
 4152 1520 4889EF   		movq	%rbp, %rdi
 4153 1523 FF5010   		call	*16(%rax)
 4154 1526 488D7C24 		leaq	32(%rsp), %rdi
 4154      20
 4155 152b BE000000 		movl	$.LC93, %esi
 4155      00
 4156 1530 4889C5   		movq	%rax, %rbp
 4157              	.LEHB102:
 4158 1533 E8000000 		call	_ZStlsISt11char_traitsIcEERSt13basic_ostreamIcT_ES5_PKc
 4158      00
 4159 1538 4889C7   		movq	%rax, %rdi
 4160 153b 4889EE   		movq	%rbp, %rsi
 4161 153e E8000000 		call	_ZStlsISt11char_traitsIcEERSt13basic_ostreamIcT_ES5_PKc
 4161      00
 4162 1543 488D7C24 		leaq	32(%rsp), %rdi
 4162      20
 4163 1548 E8000000 		call	_ZNK8UnitTest15MemoryOutStream7GetTextEv
 4163      00
 4164 154d 4889C5   		movq	%rax, %rbp
 4165 1550 4883C308 		addq	$8, %rbx
 4166 1554 E8000000 		call	_ZN8UnitTest11CurrentTest7ResultsEv
 4166      00
 4167 1559 488B38   		movq	(%rax), %rdi
 4168 155c 4889EA   		movq	%rbp, %rdx
 4169 155f 4889DE   		movq	%rbx, %rsi
 4170 1562 E8000000 		call	_ZN8UnitTest11TestResults13OnTestFailureERKNS_11TestDetailsEPKc
 4170      00
 4171              	.LEHE102:
 4172 1567 488D7C24 		leaq	32(%rsp), %rdi
 4172      20
 4173              	.LEHB103:
 4174 156c E8000000 		call	_ZN8UnitTest15MemoryOutStreamD1Ev
 4174      00
 4175              	.LEHE103:
 4176              	.L381:
 4177 1571 E8000000 		call	__cxa_end_catch
 4177      00
 4178              	.L363:
 4179 1576 488B8424 		movq	392(%rsp), %rax
 4179      88010000 
 4180 157e 64483304 		xorq	%fs:40, %rax
 4180      25280000 
 4180      00
 4181 1587 7560     		jne	.L385
 4182 1589 4881C498 		addq	$408, %rsp
 4182      010000
 4183              		.cfi_remember_state
 4184              		.cfi_def_cfa_offset 40
 4185 1590 5B       		popq	%rbx
 4186              		.cfi_def_cfa_offset 32
 4187 1591 5D       		popq	%rbp
 4188              		.cfi_def_cfa_offset 24
 4189 1592 415C     		popq	%r12
 4190              		.cfi_def_cfa_offset 16
 4191 1594 415D     		popq	%r13
 4192              		.cfi_def_cfa_offset 8
 4193 1596 C3       		ret
 4194              	.L370:
 4195              		.cfi_restore_state
 4196 1597 E8000000 		call	__cxa_begin_catch
 4196      00
 4197 159c 4889C5   		movq	%rax, %rbp
 4198 159f 488B00   		movq	(%rax), %rax
 4199 15a2 4889EF   		movq	%rbp, %rdi
 4200 15a5 FF5010   		call	*16(%rax)
 4201 15a8 4889EF   		movq	%rbp, %rdi
 4202 15ab 4989C4   		movq	%rax, %r12
 4203              	.LEHB104:
 4204 15ae E8000000 		call	_ZNK8UnitTest15AssertException10LineNumberEv
 4204      00
 4205 15b3 4889EF   		movq	%rbp, %rdi
 4206 15b6 4189C5   		movl	%eax, %r13d
 4207 15b9 E8000000 		call	_ZNK8UnitTest15AssertException8FilenameEv
 4207      00
 4208 15be 488B5308 		movq	8(%rbx), %rdx
 4209 15c2 488B7310 		movq	16(%rbx), %rsi
 4210 15c6 4589E8   		movl	%r13d, %r8d
 4211 15c9 4889C1   		movq	%rax, %rcx
 4212 15cc 4889E7   		movq	%rsp, %rdi
 4213 15cf E8000000 		call	_ZN8UnitTest11TestDetailsC1EPKcS2_S2_i
 4213      00
 4214 15d4 E8000000 		call	_ZN8UnitTest11CurrentTest7ResultsEv
 4214      00
 4215 15d9 488B38   		movq	(%rax), %rdi
 4216 15dc 4C89E2   		movq	%r12, %rdx
 4217 15df 4889E6   		movq	%rsp, %rsi
 4218 15e2 E8000000 		call	_ZN8UnitTest11TestResults13OnTestFailureERKNS_11TestDetailsEPKc
 4218      00
 4219              	.LEHE104:
 4220 15e7 EB88     		jmp	.L381
 4221              	.L385:
 4222 15e9 E8000000 		call	__stack_chk_fail
 4222      00
 4223              	.L376:
 4224              	.L382:
 4225 15ee 4889C3   		movq	%rax, %rbx
 4226              	.L366:
 4227 15f1 E8000000 		call	__cxa_end_catch
 4227      00
 4228 15f6 4889DF   		movq	%rbx, %rdi
 4229              	.LEHB105:
 4230 15f9 E8000000 		call	_Unwind_Resume
 4230      00
 4231              	.LEHE105:
 4232              	.L384:
 4233 15fe E8000000 		call	__cxa_begin_catch
 4233      00
 4234 1603 488D7308 		leaq	8(%rbx), %rsi
 4235 1607 BA710000 		movl	$113, %edx
 4235      00
 4236 160c 4889E7   		movq	%rsp, %rdi
 4237              	.LEHB106:
 4238 160f E8000000 		call	_ZN8UnitTest11TestDetailsC1ERKS0_i
 4238      00
 4239 1614 E8000000 		call	_ZN8UnitTest11CurrentTest7ResultsEv
 4239      00
 4240 1619 488B38   		movq	(%rax), %rdi
 4241 161c BA000000 		movl	$.LC104, %edx
 4241      00
 4242 1621 4889E6   		movq	%rsp, %rsi
 4243 1624 E8000000 		call	_ZN8UnitTest11TestResults13OnTestFailureERKNS_11TestDetailsEPKc
 4243      00
 4244              	.LEHE106:
 4245              	.LEHB107:
 4246 1629 E8000000 		call	__cxa_end_catch
 4246      00
 4247              	.LEHE107:
 4248 162e E943FFFF 		jmp	.L363
 4248      FF
 4249              	.L377:
 4250 1633 488D7C24 		leaq	32(%rsp), %rdi
 4250      20
 4251 1638 4889C3   		movq	%rax, %rbx
 4252 163b E8000000 		call	_ZN8UnitTest15MemoryOutStreamD1Ev
 4252      00
 4253 1640 EBAF     		jmp	.L366
 4254              	.L375:
 4255 1642 EBAA     		jmp	.L382
 4256              	.L378:
 4257 1644 4889C3   		movq	%rax, %rbx
 4258 1647 E8000000 		call	__cxa_end_catch
 4258      00
 4259 164c 4889DF   		movq	%rbx, %rdi
 4260              	.LEHB108:
 4261 164f E8000000 		call	_Unwind_Resume
 4261      00
 4262              	.LEHE108:
 4263              		.cfi_endproc
 4264              	.LFE1221:
 4265              		.section	.gcc_except_table
 4266              		.align 4
 4267              	.LLSDA1221:
 4268 02c8 FF       		.byte	0xff
 4269 02c9 03       		.byte	0x3
 4270 02ca 45       		.uleb128 .LLSDATT1221-.LLSDATTD1221
 4271              	.LLSDATTD1221:
 4272 02cb 01       		.byte	0x1
 4273 02cc 30       		.uleb128 .LLSDACSE1221-.LLSDACSB1221
 4274              	.LLSDACSB1221:
 4275 02cd 3E       		.uleb128 .LEHB100-.LFB1221
 4276 02ce 05       		.uleb128 .LEHE100-.LEHB100
 4277 02cf 43       		.uleb128 .L374-.LFB1221
 4278 02d0 05       		.uleb128 0x5
 4279 02d1 67       		.uleb128 .LEHB101-.LFB1221
 4280 02d2 05       		.uleb128 .LEHE101-.LEHB101
 4281 02d3 BE02     		.uleb128 .L376-.LFB1221
 4282 02d5 00       		.uleb128 0
 4283 02d6 8301     		.uleb128 .LEHB102-.LFB1221
 4284 02d8 34       		.uleb128 .LEHE102-.LEHB102
 4285 02d9 8303     		.uleb128 .L377-.LFB1221
 4286 02db 00       		.uleb128 0
 4287 02dc BC01     		.uleb128 .LEHB103-.LFB1221
 4288 02de 05       		.uleb128 .LEHE103-.LEHB103
 4289 02df BE02     		.uleb128 .L376-.LFB1221
 4290 02e1 00       		.uleb128 0
 4291 02e2 FE01     		.uleb128 .LEHB104-.LFB1221
 4292 02e4 39       		.uleb128 .LEHE104-.LEHB104
 4293 02e5 9203     		.uleb128 .L375-.LFB1221
 4294 02e7 00       		.uleb128 0
 4295 02e8 C902     		.uleb128 .LEHB105-.LFB1221
 4296 02ea 05       		.uleb128 .LEHE105-.LEHB105
 4297 02eb 00       		.uleb128 0
 4298 02ec 00       		.uleb128 0
 4299 02ed DF02     		.uleb128 .LEHB106-.LFB1221
 4300 02ef 1A       		.uleb128 .LEHE106-.LEHB106
 4301 02f0 9403     		.uleb128 .L378-.LFB1221
 4302 02f2 00       		.uleb128 0
 4303 02f3 F902     		.uleb128 .LEHB107-.LFB1221
 4304 02f5 05       		.uleb128 .LEHE107-.LEHB107
 4305 02f6 00       		.uleb128 0
 4306 02f7 00       		.uleb128 0
 4307 02f8 9F03     		.uleb128 .LEHB108-.LFB1221
 4308 02fa 05       		.uleb128 .LEHE108-.LEHB108
 4309 02fb 00       		.uleb128 0
 4310 02fc 00       		.uleb128 0
 4311              	.LLSDACSE1221:
 4312 02fd 03       		.byte	0x3
 4313 02fe 00       		.byte	0
 4314 02ff 02       		.byte	0x2
 4315 0300 7D       		.byte	0x7d
 4316 0301 01       		.byte	0x1
 4317 0302 7D       		.byte	0x7d
 4318 0303 00       		.align 4
 4319 0304 00000000 		.long	0
 4320              	
 4321 0308 00000000 		.long	_ZTISt9exception
 4322 030c 00000000 		.long	_ZTIN8UnitTest15AssertExceptionE
 4323              	.LLSDATT1221:
 4324              		.text
 4326              		.section	.text.unlikely
 4327              	.LCOLDE105:
 4328              		.text
 4329              	.LHOTE105:
 4330              		.section	.text.unlikely
 4331              	.LCOLDB106:
 4332              		.text
 4333              	.LHOTB106:
 4334 1654 6690662E 		.p2align 4,,15
 4334      0F1F8400 
 4334      00000000 
 4336              	_ZN8UnitTest11ExecuteTestIN12_GLOBAL__N_134DummyFixtureMacroTestHelper2HelperEEEvRT_RKNS_11TestDeta
 4337              	.LFB1473:
 4338              		.cfi_startproc
 4339              		.cfi_personality 0x3,__gxx_personality_v0
 4340              		.cfi_lsda 0x3,.LLSDA1473
 4341 1660 4154     		pushq	%r12
 4342              		.cfi_def_cfa_offset 16
 4343              		.cfi_offset 12, -16
 4344 1662 55       		pushq	%rbp
 4345              		.cfi_def_cfa_offset 24
 4346              		.cfi_offset 6, -24
 4347 1663 53       		pushq	%rbx
 4348              		.cfi_def_cfa_offset 32
 4349              		.cfi_offset 3, -32
 4350 1664 4889FB   		movq	%rdi, %rbx
 4351 1667 4881EC10 		subq	$1552, %rsp
 4351      060000
 4352              		.cfi_def_cfa_offset 1584
 4353 166e 48897C24 		movq	%rdi, 8(%rsp)
 4353      08
 4354 1673 64488B04 		movq	%fs:40, %rax
 4354      25280000 
 4354      00
 4355 167c 48898424 		movq	%rax, 1544(%rsp)
 4355      08060000 
 4356 1684 31C0     		xorl	%eax, %eax
 4357              	.LEHB109:
 4358 1686 E8000000 		call	_ZN8UnitTest11CurrentTest7DetailsEv
 4358      00
 4359              	.LEHE109:
 4360 168b 488DBC24 		leaq	416(%rsp), %rdi
 4360      A0010000 
 4361 1693 488918   		movq	%rbx, (%rax)
 4362              	.LEHB110:
 4363 1696 E8000000 		call	_ZN8UnitTest16SignalTranslatorC1Ev
 4363      00
 4364 169b 488B3D00 		movq	_ZN8UnitTest16SignalTranslator12s_jumpTargetE(%rip), %rdi
 4364      000000
 4365 16a2 BE010000 		movl	$1, %esi
 4365      00
 4366 16a7 E8000000 		call	__sigsetjmp
 4366      00
 4367 16ac 85C0     		testl	%eax, %eax
 4368 16ae 7530     		jne	.L413
 4369 16b0 488DBC24 		leaq	416(%rsp), %rdi
 4369      A0010000 
 4370 16b8 E8000000 		call	_ZN8UnitTest16SignalTranslatorD1Ev
 4370      00
 4371              	.LEHE110:
 4372              	.L386:
 4373 16bd 488B8424 		movq	1544(%rsp), %rax
 4373      08060000 
 4374 16c5 64483304 		xorq	%fs:40, %rax
 4374      25280000 
 4374      00
 4375 16ce 0F85C700 		jne	.L414
 4375      0000
 4376 16d4 4881C410 		addq	$1552, %rsp
 4376      060000
 4377              		.cfi_remember_state
 4378              		.cfi_def_cfa_offset 32
 4379 16db 5B       		popq	%rbx
 4380              		.cfi_def_cfa_offset 24
 4381 16dc 5D       		popq	%rbp
 4382              		.cfi_def_cfa_offset 16
 4383 16dd 415C     		popq	%r12
 4384              		.cfi_def_cfa_offset 8
 4385 16df C3       		ret
 4386              		.p2align 4,,10
 4387              		.p2align 3
 4388              	.L413:
 4389              		.cfi_restore_state
 4390 16e0 BF080000 		movl	$8, %edi
 4390      00
 4391 16e5 E8000000 		call	__cxa_allocate_exception
 4391      00
 4392 16ea 31D2     		xorl	%edx, %edx
 4393 16ec 48C70000 		movq	$.LC92, (%rax)
 4393      000000
 4394 16f3 BE000000 		movl	$_ZTIPKc, %esi
 4394      00
 4395 16f8 4889C7   		movq	%rax, %rdi
 4396              	.LEHB111:
 4397 16fb E8000000 		call	__cxa_throw
 4397      00
 4398              	.LEHE111:
 4399              	.L406:
 4400 1700 488DBC24 		leaq	416(%rsp), %rdi
 4400      A0010000 
 4401 1708 4889C5   		movq	%rax, %rbp
 4402 170b 4889D3   		movq	%rdx, %rbx
 4403 170e E8000000 		call	_ZN8UnitTest16SignalTranslatorD1Ev
 4403      00
 4404 1713 4889EF   		movq	%rbp, %rdi
 4405 1716 4889DA   		movq	%rbx, %rdx
 4406              	.L390:
 4407 1719 4883FA01 		cmpq	$1, %rdx
 4408 171d 0F84CA00 		je	.L392
 4408      0000
 4409 1723 4883FA02 		cmpq	$2, %rdx
 4410 1727 0F859A00 		jne	.L415
 4410      0000
 4411 172d E8000000 		call	__cxa_begin_catch
 4411      00
 4412 1732 488D7C24 		leaq	48(%rsp), %rdi
 4412      30
 4413 1737 4889C3   		movq	%rax, %rbx
 4414              	.LEHB112:
 4415 173a E8000000 		call	_ZN8UnitTest15MemoryOutStreamC1Ev
 4415      00
 4416              	.LEHE112:
 4417 173f 488B03   		movq	(%rbx), %rax
 4418 1742 4889DF   		movq	%rbx, %rdi
 4419 1745 FF5010   		call	*16(%rax)
 4420 1748 488D7C24 		leaq	48(%rsp), %rdi
 4420      30
 4421 174d BE000000 		movl	$.LC93, %esi
 4421      00
 4422 1752 4889C3   		movq	%rax, %rbx
 4423              	.LEHB113:
 4424 1755 E8000000 		call	_ZStlsISt11char_traitsIcEERSt13basic_ostreamIcT_ES5_PKc
 4424      00
 4425 175a 4889C7   		movq	%rax, %rdi
 4426 175d 4889DE   		movq	%rbx, %rsi
 4427 1760 E8000000 		call	_ZStlsISt11char_traitsIcEERSt13basic_ostreamIcT_ES5_PKc
 4427      00
 4428 1765 488D7C24 		leaq	48(%rsp), %rdi
 4428      30
 4429 176a E8000000 		call	_ZNK8UnitTest15MemoryOutStream7GetTextEv
 4429      00
 4430 176f 4889C3   		movq	%rax, %rbx
 4431 1772 E8000000 		call	_ZN8UnitTest11CurrentTest7ResultsEv
 4431      00
 4432 1777 488B7424 		movq	8(%rsp), %rsi
 4432      08
 4433 177c 488B38   		movq	(%rax), %rdi
 4434 177f 4889DA   		movq	%rbx, %rdx
 4435 1782 E8000000 		call	_ZN8UnitTest11TestResults13OnTestFailureERKNS_11TestDetailsEPKc
 4435      00
 4436              	.LEHE113:
 4437 1787 488D7C24 		leaq	48(%rsp), %rdi
 4437      30
 4438              	.LEHB114:
 4439 178c E8000000 		call	_ZN8UnitTest15MemoryOutStreamD1Ev
 4439      00
 4440              	.LEHE114:
 4441              	.L410:
 4442 1791 E8000000 		call	__cxa_end_catch
 4442      00
 4443 1796 E922FFFF 		jmp	.L386
 4443      FF
 4444              	.L414:
 4445 179b E8000000 		call	__stack_chk_fail
 4445      00
 4446              	.L405:
 4447 17a0 4889C7   		movq	%rax, %rdi
 4448 17a3 E971FFFF 		jmp	.L390
 4448      FF
 4449              	.L403:
 4450 17a8 488D7C24 		leaq	48(%rsp), %rdi
 4450      30
 4451 17ad 4889C3   		movq	%rax, %rbx
 4452 17b0 E8000000 		call	_ZN8UnitTest15MemoryOutStreamD1Ev
 4452      00
 4453              	.L396:
 4454 17b5 E8000000 		call	__cxa_end_catch
 4454      00
 4455 17ba 4889DF   		movq	%rbx, %rdi
 4456              	.LEHB115:
 4457 17bd E8000000 		call	_Unwind_Resume
 4457      00
 4458              	.LEHE115:
 4459              	.L402:
 4460              	.L411:
 4461 17c2 4889C3   		movq	%rax, %rbx
 4462 17c5 EBEE     		jmp	.L396
 4463              	.L415:
 4464 17c7 E8000000 		call	__cxa_begin_catch
 4464      00
 4465              	.LEHB116:
 4466 17cc E8000000 		call	_ZN8UnitTest11CurrentTest7ResultsEv
 4466      00
 4467 17d1 488B7424 		movq	8(%rsp), %rsi
 4467      08
 4468 17d6 488B38   		movq	(%rax), %rdi
 4469 17d9 BA000000 		movl	$.LC94, %edx
 4469      00
 4470 17de E8000000 		call	_ZN8UnitTest11TestResults13OnTestFailureERKNS_11TestDetailsEPKc
 4470      00
 4471              	.LEHE116:
 4472              	.LEHB117:
 4473 17e3 E8000000 		call	__cxa_end_catch
 4473      00
 4474              	.LEHE117:
 4475 17e8 E9D0FEFF 		jmp	.L386
 4475      FF
 4476              	.L392:
 4477 17ed E8000000 		call	__cxa_begin_catch
 4477      00
 4478 17f2 4889C3   		movq	%rax, %rbx
 4479 17f5 488B00   		movq	(%rax), %rax
 4480 17f8 4889DF   		movq	%rbx, %rdi
 4481 17fb FF5010   		call	*16(%rax)
 4482 17fe 4889DF   		movq	%rbx, %rdi
 4483 1801 4889C5   		movq	%rax, %rbp
 4484              	.LEHB118:
 4485 1804 E8000000 		call	_ZNK8UnitTest15AssertException10LineNumberEv
 4485      00
 4486 1809 4889DF   		movq	%rbx, %rdi
 4487 180c 4189C4   		movl	%eax, %r12d
 4488 180f E8000000 		call	_ZNK8UnitTest15AssertException8FilenameEv
 4488      00
 4489 1814 4889C1   		movq	%rax, %rcx
 4490 1817 488B4424 		movq	8(%rsp), %rax
 4490      08
 4491 181c 488D7C24 		leaq	16(%rsp), %rdi
 4491      10
 4492 1821 4589E0   		movl	%r12d, %r8d
 4493 1824 488B7008 		movq	8(%rax), %rsi
 4494 1828 488B10   		movq	(%rax), %rdx
 4495 182b E8000000 		call	_ZN8UnitTest11TestDetailsC1EPKcS2_S2_i
 4495      00
 4496 1830 E8000000 		call	_ZN8UnitTest11CurrentTest7ResultsEv
 4496      00
 4497 1835 488B38   		movq	(%rax), %rdi
 4498 1838 488D7424 		leaq	16(%rsp), %rsi
 4498      10
 4499 183d 4889EA   		movq	%rbp, %rdx
 4500 1840 E8000000 		call	_ZN8UnitTest11TestResults13OnTestFailureERKNS_11TestDetailsEPKc
 4500      00
 4501              	.LEHE118:
 4502 1845 E947FFFF 		jmp	.L410
 4502      FF
 4503              	.L401:
 4504 184a 4889C3   		movq	%rax, %rbx
 4505 184d E8000000 		call	__cxa_end_catch
 4505      00
 4506 1852 4889DF   		movq	%rbx, %rdi
 4507              	.LEHB119:
 4508 1855 E8000000 		call	_Unwind_Resume
 4508      00
 4509              	.LEHE119:
 4510              	.L404:
 4511 185a E963FFFF 		jmp	.L411
 4511      FF
 4512              		.cfi_endproc
 4513              	.LFE1473:
 4514              		.section	.gcc_except_table
 4515              		.align 4
 4516              	.LLSDA1473:
 4517 0310 FF       		.byte	0xff
 4518 0311 03       		.byte	0x3
 4519 0312 55       		.uleb128 .LLSDATT1473-.LLSDATTD1473
 4520              	.LLSDATTD1473:
 4521 0313 01       		.byte	0x1
 4522 0314 3C       		.uleb128 .LLSDACSE1473-.LLSDACSB1473
 4523              	.LLSDACSB1473:
 4524 0315 26       		.uleb128 .LEHB109-.LFB1473
 4525 0316 05       		.uleb128 .LEHE109-.LEHB109
 4526 0317 00       		.uleb128 0
 4527 0318 00       		.uleb128 0
 4528 0319 36       		.uleb128 .LEHB110-.LFB1473
 4529 031a 27       		.uleb128 .LEHE110-.LEHB110
 4530 031b C002     		.uleb128 .L405-.LFB1473
 4531 031d 05       		.uleb128 0x5
 4532 031e 9B01     		.uleb128 .LEHB111-.LFB1473
 4533 0320 05       		.uleb128 .LEHE111-.LEHB111
 4534 0321 A001     		.uleb128 .L406-.LFB1473
 4535 0323 07       		.uleb128 0x7
 4536 0324 DA01     		.uleb128 .LEHB112-.LFB1473
 4537 0326 05       		.uleb128 .LEHE112-.LEHB112
 4538 0327 E202     		.uleb128 .L402-.LFB1473
 4539 0329 00       		.uleb128 0
 4540 032a F501     		.uleb128 .LEHB113-.LFB1473
 4541 032c 32       		.uleb128 .LEHE113-.LEHB113
 4542 032d C802     		.uleb128 .L403-.LFB1473
 4543 032f 00       		.uleb128 0
 4544 0330 AC02     		.uleb128 .LEHB114-.LFB1473
 4545 0332 05       		.uleb128 .LEHE114-.LEHB114
 4546 0333 E202     		.uleb128 .L402-.LFB1473
 4547 0335 00       		.uleb128 0
 4548 0336 DD02     		.uleb128 .LEHB115-.LFB1473
 4549 0338 05       		.uleb128 .LEHE115-.LEHB115
 4550 0339 00       		.uleb128 0
 4551 033a 00       		.uleb128 0
 4552 033b EC02     		.uleb128 .LEHB116-.LFB1473
 4553 033d 17       		.uleb128 .LEHE116-.LEHB116
 4554 033e EA03     		.uleb128 .L401-.LFB1473
 4555 0340 00       		.uleb128 0
 4556 0341 8303     		.uleb128 .LEHB117-.LFB1473
 4557 0343 05       		.uleb128 .LEHE117-.LEHB117
 4558 0344 00       		.uleb128 0
 4559 0345 00       		.uleb128 0
 4560 0346 A403     		.uleb128 .LEHB118-.LFB1473
 4561 0348 41       		.uleb128 .LEHE118-.LEHB118
 4562 0349 FA03     		.uleb128 .L404-.LFB1473
 4563 034b 00       		.uleb128 0
 4564 034c F503     		.uleb128 .LEHB119-.LFB1473
 4565 034e 05       		.uleb128 .LEHE119-.LEHB119
 4566 034f 00       		.uleb128 0
 4567 0350 00       		.uleb128 0
 4568              	.LLSDACSE1473:
 4569 0351 03       		.byte	0x3
 4570 0352 00       		.byte	0
 4571 0353 02       		.byte	0x2
 4572 0354 7D       		.byte	0x7d
 4573 0355 01       		.byte	0x1
 4574 0356 7D       		.byte	0x7d
 4575 0357 00       		.byte	0
 4576 0358 7D       		.byte	0x7d
 4577 0359 000000   		.align 4
 4578 035c 00000000 		.long	0
 4579              	
 4580 0360 00000000 		.long	_ZTISt9exception
 4581 0364 00000000 		.long	_ZTIN8UnitTest15AssertExceptionE
 4582              	.LLSDATT1473:
 4583              		.text
 4585              		.section	.text.unlikely
 4586              	.LCOLDE106:
 4587              		.text
 4588              	.LHOTE106:
 4589              		.section	.rodata.str1.8
 4590 0601 00000000 		.align 8
 4590      000000
 4591              	.LC107:
 4592 0608 556E6861 		.string	"Unhandled exception while destroying fixture DummyFixture"
 4592      6E646C65 
 4592      64206578 
 4592      63657074 
 4592      696F6E20 
 4593              		.section	.text.unlikely
 4594              		.align 2
 4595              	.LCOLDB108:
 4596              		.text
 4597              	.LHOTB108:
 4598 185f 90       		.align 2
 4599              		.p2align 4,,15
 4601              	_ZNK12_GLOBAL__N_132TestDummyFixtureMacroTestHelper27RunImplEv:
 4602              	.LFB1206:
 4603              		.cfi_startproc
 4604              		.cfi_personality 0x3,__gxx_personality_v0
 4605              		.cfi_lsda 0x3,.LLSDA1206
 4606 1860 4155     		pushq	%r13
 4607              		.cfi_def_cfa_offset 16
 4608              		.cfi_offset 13, -16
 4609 1862 4154     		pushq	%r12
 4610              		.cfi_def_cfa_offset 24
 4611              		.cfi_offset 12, -24
 4612 1864 55       		pushq	%rbp
 4613              		.cfi_def_cfa_offset 32
 4614              		.cfi_offset 6, -32
 4615 1865 53       		pushq	%rbx
 4616              		.cfi_def_cfa_offset 40
 4617              		.cfi_offset 3, -40
 4618 1866 488D5F08 		leaq	8(%rdi), %rbx
 4619 186a 4889FD   		movq	%rdi, %rbp
 4620 186d 4881EC98 		subq	$408, %rsp
 4620      010000
 4621              		.cfi_def_cfa_offset 448
 4622 1874 4889DF   		movq	%rbx, %rdi
 4623 1877 64488B04 		movq	%fs:40, %rax
 4623      25280000 
 4623      00
 4624 1880 48898424 		movq	%rax, 392(%rsp)
 4624      88010000 
 4625 1888 31C0     		xorl	%eax, %eax
 4626              	.LEHB120:
 4627 188a E8D1FDFF 		call	_ZN8UnitTest11ExecuteTestIN12_GLOBAL__N_134DummyFixtureMacroTestHelper2HelperEEEvRT_RKNS_11Te
 4627      FF
 4628              	.LEHE120:
 4629              	.L416:
 4630 188f 488B8424 		movq	392(%rsp), %rax
 4630      88010000 
 4631 1897 64483304 		xorq	%fs:40, %rax
 4631      25280000 
 4631      00
 4632 18a0 750E     		jne	.L437
 4633 18a2 4881C498 		addq	$408, %rsp
 4633      010000
 4634              		.cfi_remember_state
 4635              		.cfi_def_cfa_offset 40
 4636 18a9 5B       		popq	%rbx
 4637              		.cfi_def_cfa_offset 32
 4638 18aa 5D       		popq	%rbp
 4639              		.cfi_def_cfa_offset 24
 4640 18ab 415C     		popq	%r12
 4641              		.cfi_def_cfa_offset 16
 4642 18ad 415D     		popq	%r13
 4643              		.cfi_def_cfa_offset 8
 4644 18af C3       		ret
 4645              	.L437:
 4646              		.cfi_restore_state
 4647 18b0 E8000000 		call	__stack_chk_fail
 4647      00
 4648              	.L427:
 4649 18b5 4883FA01 		cmpq	$1, %rdx
 4650 18b9 4889C7   		movq	%rax, %rdi
 4651 18bc 7477     		je	.L423
 4652 18be 4883FA02 		cmpq	$2, %rdx
 4653 18c2 0F85E000 		jne	.L438
 4653      0000
 4654 18c8 E8000000 		call	__cxa_begin_catch
 4654      00
 4655 18cd 488D7C24 		leaq	32(%rsp), %rdi
 4655      20
 4656 18d2 4889C5   		movq	%rax, %rbp
 4657              	.LEHB121:
 4658 18d5 E8000000 		call	_ZN8UnitTest15MemoryOutStreamC1Ev
 4658      00
 4659              	.LEHE121:
 4660 18da 488B4500 		movq	0(%rbp), %rax
 4661 18de 4889EF   		movq	%rbp, %rdi
 4662 18e1 FF5010   		call	*16(%rax)
 4663 18e4 488D7C24 		leaq	32(%rsp), %rdi
 4663      20
 4664 18e9 BE000000 		movl	$.LC93, %esi
 4664      00
 4665 18ee 4889C5   		movq	%rax, %rbp
 4666              	.LEHB122:
 4667 18f1 E8000000 		call	_ZStlsISt11char_traitsIcEERSt13basic_ostreamIcT_ES5_PKc
 4667      00
 4668 18f6 4889C7   		movq	%rax, %rdi
 4669 18f9 4889EE   		movq	%rbp, %rsi
 4670 18fc E8000000 		call	_ZStlsISt11char_traitsIcEERSt13basic_ostreamIcT_ES5_PKc
 4670      00
 4671 1901 488D7C24 		leaq	32(%rsp), %rdi
 4671      20
 4672 1906 E8000000 		call	_ZNK8UnitTest15MemoryOutStream7GetTextEv
 4672      00
 4673 190b 4889C5   		movq	%rax, %rbp
 4674 190e E8000000 		call	_ZN8UnitTest11CurrentTest7ResultsEv
 4674      00
 4675 1913 488B38   		movq	(%rax), %rdi
 4676 1916 4889EA   		movq	%rbp, %rdx
 4677 1919 4889DE   		movq	%rbx, %rsi
 4678 191c E8000000 		call	_ZN8UnitTest11TestResults13OnTestFailureERKNS_11TestDetailsEPKc
 4678      00
 4679              	.LEHE122:
 4680 1921 488D7C24 		leaq	32(%rsp), %rdi
 4680      20
 4681              	.LEHB123:
 4682 1926 E8000000 		call	_ZN8UnitTest15MemoryOutStreamD1Ev
 4682      00
 4683              	.LEHE123:
 4684              	.L434:
 4685 192b E8000000 		call	__cxa_end_catch
 4685      00
 4686 1930 E95AFFFF 		jmp	.L416
 4686      FF
 4687              	.L423:
 4688 1935 E8000000 		call	__cxa_begin_catch
 4688      00
 4689 193a 4889C3   		movq	%rax, %rbx
 4690 193d 488B00   		movq	(%rax), %rax
 4691 1940 4889DF   		movq	%rbx, %rdi
 4692 1943 FF5010   		call	*16(%rax)
 4693 1946 4889DF   		movq	%rbx, %rdi
 4694 1949 4989C4   		movq	%rax, %r12
 4695              	.LEHB124:
 4696 194c E8000000 		call	_ZNK8UnitTest15AssertException10LineNumberEv
 4696      00
 4697 1951 4889DF   		movq	%rbx, %rdi
 4698 1954 4189C5   		movl	%eax, %r13d
 4699 1957 E8000000 		call	_ZNK8UnitTest15AssertException8FilenameEv
 4699      00
 4700 195c 488B5508 		movq	8(%rbp), %rdx
 4701 1960 488B7510 		movq	16(%rbp), %rsi
 4702 1964 4589E8   		movl	%r13d, %r8d
 4703 1967 4889C1   		movq	%rax, %rcx
 4704 196a 4889E7   		movq	%rsp, %rdi
 4705 196d E8000000 		call	_ZN8UnitTest11TestDetailsC1EPKcS2_S2_i
 4705      00
 4706 1972 E8000000 		call	_ZN8UnitTest11CurrentTest7ResultsEv
 4706      00
 4707 1977 488B38   		movq	(%rax), %rdi
 4708 197a 4C89E2   		movq	%r12, %rdx
 4709 197d 4889E6   		movq	%rsp, %rsi
 4710 1980 E8000000 		call	_ZN8UnitTest11TestResults13OnTestFailureERKNS_11TestDetailsEPKc
 4710      00
 4711              	.LEHE124:
 4712 1985 EBA4     		jmp	.L434
 4713              	.L430:
 4714 1987 488D7C24 		leaq	32(%rsp), %rdi
 4714      20
 4715 198c 4889C3   		movq	%rax, %rbx
 4716 198f E8000000 		call	_ZN8UnitTest15MemoryOutStreamD1Ev
 4716      00
 4717              	.L419:
 4718 1994 E8000000 		call	__cxa_end_catch
 4718      00
 4719 1999 4889DF   		movq	%rbx, %rdi
 4720              	.LEHB125:
 4721 199c E8000000 		call	_Unwind_Resume
 4721      00
 4722              	.LEHE125:
 4723              	.L428:
 4724              	.L435:
 4725 19a1 4889C3   		movq	%rax, %rbx
 4726 19a4 EBEE     		jmp	.L419
 4727              	.L429:
 4728 19a6 EBF9     		jmp	.L435
 4729              	.L438:
 4730 19a8 E8000000 		call	__cxa_begin_catch
 4730      00
 4731 19ad BA600000 		movl	$96, %edx
 4731      00
 4732 19b2 4889DE   		movq	%rbx, %rsi
 4733 19b5 4889E7   		movq	%rsp, %rdi
 4734              	.LEHB126:
 4735 19b8 E8000000 		call	_ZN8UnitTest11TestDetailsC1ERKS0_i
 4735      00
 4736 19bd E8000000 		call	_ZN8UnitTest11CurrentTest7ResultsEv
 4736      00
 4737 19c2 488B38   		movq	(%rax), %rdi
 4738 19c5 BA000000 		movl	$.LC107, %edx
 4738      00
 4739 19ca 4889E6   		movq	%rsp, %rsi
 4740 19cd E8000000 		call	_ZN8UnitTest11TestResults13OnTestFailureERKNS_11TestDetailsEPKc
 4740      00
 4741              	.LEHE126:
 4742              	.LEHB127:
 4743 19d2 E8000000 		call	__cxa_end_catch
 4743      00
 4744              	.LEHE127:
 4745 19d7 E9B3FEFF 		jmp	.L416
 4745      FF
 4746              	.L431:
 4747 19dc 4889C3   		movq	%rax, %rbx
 4748 19df E8000000 		call	__cxa_end_catch
 4748      00
 4749 19e4 4889DF   		movq	%rbx, %rdi
 4750              	.LEHB128:
 4751 19e7 E8000000 		call	_Unwind_Resume
 4751      00
 4752              	.LEHE128:
 4753              		.cfi_endproc
 4754              	.LFE1206:
 4755              		.section	.gcc_except_table
 4756              		.align 4
 4757              	.LLSDA1206:
 4758 0368 FF       		.byte	0xff
 4759 0369 03       		.byte	0x3
 4760 036a 45       		.uleb128 .LLSDATT1206-.LLSDATTD1206
 4761              	.LLSDATTD1206:
 4762 036b 01       		.byte	0x1
 4763 036c 30       		.uleb128 .LLSDACSE1206-.LLSDACSB1206
 4764              	.LLSDACSB1206:
 4765 036d 2A       		.uleb128 .LEHB120-.LFB1206
 4766 036e 05       		.uleb128 .LEHE120-.LEHB120
 4767 036f 55       		.uleb128 .L427-.LFB1206
 4768 0370 05       		.uleb128 0x5
 4769 0371 75       		.uleb128 .LEHB121-.LFB1206
 4770 0372 05       		.uleb128 .LEHE121-.LEHB121
 4771 0373 C602     		.uleb128 .L429-.LFB1206
 4772 0375 00       		.uleb128 0
 4773 0376 9101     		.uleb128 .LEHB122-.LFB1206
 4774 0378 30       		.uleb128 .LEHE122-.LEHB122
 4775 0379 A702     		.uleb128 .L430-.LFB1206
 4776 037b 00       		.uleb128 0
 4777 037c C601     		.uleb128 .LEHB123-.LFB1206
 4778 037e 05       		.uleb128 .LEHE123-.LEHB123
 4779 037f C602     		.uleb128 .L429-.LFB1206
 4780 0381 00       		.uleb128 0
 4781 0382 EC01     		.uleb128 .LEHB124-.LFB1206
 4782 0384 39       		.uleb128 .LEHE124-.LEHB124
 4783 0385 C102     		.uleb128 .L428-.LFB1206
 4784 0387 00       		.uleb128 0
 4785 0388 BC02     		.uleb128 .LEHB125-.LFB1206
 4786 038a 05       		.uleb128 .LEHE125-.LEHB125
 4787 038b 00       		.uleb128 0
 4788 038c 00       		.uleb128 0
 4789 038d D802     		.uleb128 .LEHB126-.LFB1206
 4790 038f 1A       		.uleb128 .LEHE126-.LEHB126
 4791 0390 FC02     		.uleb128 .L431-.LFB1206
 4792 0392 00       		.uleb128 0
 4793 0393 F202     		.uleb128 .LEHB127-.LFB1206
 4794 0395 05       		.uleb128 .LEHE127-.LEHB127
 4795 0396 00       		.uleb128 0
 4796 0397 00       		.uleb128 0
 4797 0398 8703     		.uleb128 .LEHB128-.LFB1206
 4798 039a 05       		.uleb128 .LEHE128-.LEHB128
 4799 039b 00       		.uleb128 0
 4800 039c 00       		.uleb128 0
 4801              	.LLSDACSE1206:
 4802 039d 03       		.byte	0x3
 4803 039e 00       		.byte	0
 4804 039f 02       		.byte	0x2
 4805 03a0 7D       		.byte	0x7d
 4806 03a1 01       		.byte	0x1
 4807 03a2 7D       		.byte	0x7d
 4808 03a3 00       		.align 4
 4809 03a4 00000000 		.long	0
 4810              	
 4811 03a8 00000000 		.long	_ZTISt9exception
 4812 03ac 00000000 		.long	_ZTIN8UnitTest15AssertExceptionE
 4813              	.LLSDATT1206:
 4814              		.text
 4816              		.section	.text.unlikely
 4817              	.LCOLDE108:
 4818              		.text
 4819              	.LHOTE108:
 4820              		.section	.text.unlikely
 4821              	.LCOLDB109:
 4822              		.text
 4823              	.LHOTB109:
 4824 19ec 0F1F4000 		.p2align 4,,15
 4826              	_ZN8UnitTest11ExecuteTestIN12_GLOBAL__N_115SuiteTestSuite265DummyFixtureSimilarlyNamedFixtureTestsI
 4827              	.LFB1474:
 4828              		.cfi_startproc
 4829              		.cfi_personality 0x3,__gxx_personality_v0
 4830              		.cfi_lsda 0x3,.LLSDA1474
 4831 19f0 4154     		pushq	%r12
 4832              		.cfi_def_cfa_offset 16
 4833              		.cfi_offset 12, -16
 4834 19f2 55       		pushq	%rbp
 4835              		.cfi_def_cfa_offset 24
 4836              		.cfi_offset 6, -24
 4837 19f3 53       		pushq	%rbx
 4838              		.cfi_def_cfa_offset 32
 4839              		.cfi_offset 3, -32
 4840 19f4 4889FB   		movq	%rdi, %rbx
 4841 19f7 4881EC10 		subq	$1552, %rsp
 4841      060000
 4842              		.cfi_def_cfa_offset 1584
 4843 19fe 48897C24 		movq	%rdi, 8(%rsp)
 4843      08
 4844 1a03 64488B04 		movq	%fs:40, %rax
 4844      25280000 
 4844      00
 4845 1a0c 48898424 		movq	%rax, 1544(%rsp)
 4845      08060000 
 4846 1a14 31C0     		xorl	%eax, %eax
 4847              	.LEHB129:
 4848 1a16 E8000000 		call	_ZN8UnitTest11CurrentTest7DetailsEv
 4848      00
 4849              	.LEHE129:
 4850 1a1b 488DBC24 		leaq	416(%rsp), %rdi
 4850      A0010000 
 4851 1a23 488918   		movq	%rbx, (%rax)
 4852              	.LEHB130:
 4853 1a26 E8000000 		call	_ZN8UnitTest16SignalTranslatorC1Ev
 4853      00
 4854 1a2b 488B3D00 		movq	_ZN8UnitTest16SignalTranslator12s_jumpTargetE(%rip), %rdi
 4854      000000
 4855 1a32 BE010000 		movl	$1, %esi
 4855      00
 4856 1a37 E8000000 		call	__sigsetjmp
 4856      00
 4857 1a3c 85C0     		testl	%eax, %eax
 4858 1a3e 7530     		jne	.L466
 4859 1a40 488DBC24 		leaq	416(%rsp), %rdi
 4859      A0010000 
 4860 1a48 E8000000 		call	_ZN8UnitTest16SignalTranslatorD1Ev
 4860      00
 4861              	.LEHE130:
 4862              	.L439:
 4863 1a4d 488B8424 		movq	1544(%rsp), %rax
 4863      08060000 
 4864 1a55 64483304 		xorq	%fs:40, %rax
 4864      25280000 
 4864      00
 4865 1a5e 0F85C700 		jne	.L467
 4865      0000
 4866 1a64 4881C410 		addq	$1552, %rsp
 4866      060000
 4867              		.cfi_remember_state
 4868              		.cfi_def_cfa_offset 32
 4869 1a6b 5B       		popq	%rbx
 4870              		.cfi_def_cfa_offset 24
 4871 1a6c 5D       		popq	%rbp
 4872              		.cfi_def_cfa_offset 16
 4873 1a6d 415C     		popq	%r12
 4874              		.cfi_def_cfa_offset 8
 4875 1a6f C3       		ret
 4876              		.p2align 4,,10
 4877              		.p2align 3
 4878              	.L466:
 4879              		.cfi_restore_state
 4880 1a70 BF080000 		movl	$8, %edi
 4880      00
 4881 1a75 E8000000 		call	__cxa_allocate_exception
 4881      00
 4882 1a7a 31D2     		xorl	%edx, %edx
 4883 1a7c 48C70000 		movq	$.LC92, (%rax)
 4883      000000
 4884 1a83 BE000000 		movl	$_ZTIPKc, %esi
 4884      00
 4885 1a88 4889C7   		movq	%rax, %rdi
 4886              	.LEHB131:
 4887 1a8b E8000000 		call	__cxa_throw
 4887      00
 4888              	.LEHE131:
 4889              	.L459:
 4890 1a90 488DBC24 		leaq	416(%rsp), %rdi
 4890      A0010000 
 4891 1a98 4889C5   		movq	%rax, %rbp
 4892 1a9b 4889D3   		movq	%rdx, %rbx
 4893 1a9e E8000000 		call	_ZN8UnitTest16SignalTranslatorD1Ev
 4893      00
 4894 1aa3 4889EF   		movq	%rbp, %rdi
 4895 1aa6 4889DA   		movq	%rbx, %rdx
 4896              	.L443:
 4897 1aa9 4883FA01 		cmpq	$1, %rdx
 4898 1aad 0F84CA00 		je	.L445
 4898      0000
 4899 1ab3 4883FA02 		cmpq	$2, %rdx
 4900 1ab7 0F859A00 		jne	.L468
 4900      0000
 4901 1abd E8000000 		call	__cxa_begin_catch
 4901      00
 4902 1ac2 488D7C24 		leaq	48(%rsp), %rdi
 4902      30
 4903 1ac7 4889C3   		movq	%rax, %rbx
 4904              	.LEHB132:
 4905 1aca E8000000 		call	_ZN8UnitTest15MemoryOutStreamC1Ev
 4905      00
 4906              	.LEHE132:
 4907 1acf 488B03   		movq	(%rbx), %rax
 4908 1ad2 4889DF   		movq	%rbx, %rdi
 4909 1ad5 FF5010   		call	*16(%rax)
 4910 1ad8 488D7C24 		leaq	48(%rsp), %rdi
 4910      30
 4911 1add BE000000 		movl	$.LC93, %esi
 4911      00
 4912 1ae2 4889C3   		movq	%rax, %rbx
 4913              	.LEHB133:
 4914 1ae5 E8000000 		call	_ZStlsISt11char_traitsIcEERSt13basic_ostreamIcT_ES5_PKc
 4914      00
 4915 1aea 4889C7   		movq	%rax, %rdi
 4916 1aed 4889DE   		movq	%rbx, %rsi
 4917 1af0 E8000000 		call	_ZStlsISt11char_traitsIcEERSt13basic_ostreamIcT_ES5_PKc
 4917      00
 4918 1af5 488D7C24 		leaq	48(%rsp), %rdi
 4918      30
 4919 1afa E8000000 		call	_ZNK8UnitTest15MemoryOutStream7GetTextEv
 4919      00
 4920 1aff 4889C3   		movq	%rax, %rbx
 4921 1b02 E8000000 		call	_ZN8UnitTest11CurrentTest7ResultsEv
 4921      00
 4922 1b07 488B7424 		movq	8(%rsp), %rsi
 4922      08
 4923 1b0c 488B38   		movq	(%rax), %rdi
 4924 1b0f 4889DA   		movq	%rbx, %rdx
 4925 1b12 E8000000 		call	_ZN8UnitTest11TestResults13OnTestFailureERKNS_11TestDetailsEPKc
 4925      00
 4926              	.LEHE133:
 4927 1b17 488D7C24 		leaq	48(%rsp), %rdi
 4927      30
 4928              	.LEHB134:
 4929 1b1c E8000000 		call	_ZN8UnitTest15MemoryOutStreamD1Ev
 4929      00
 4930              	.LEHE134:
 4931              	.L463:
 4932 1b21 E8000000 		call	__cxa_end_catch
 4932      00
 4933 1b26 E922FFFF 		jmp	.L439
 4933      FF
 4934              	.L467:
 4935 1b2b E8000000 		call	__stack_chk_fail
 4935      00
 4936              	.L458:
 4937 1b30 4889C7   		movq	%rax, %rdi
 4938 1b33 E971FFFF 		jmp	.L443
 4938      FF
 4939              	.L456:
 4940 1b38 488D7C24 		leaq	48(%rsp), %rdi
 4940      30
 4941 1b3d 4889C3   		movq	%rax, %rbx
 4942 1b40 E8000000 		call	_ZN8UnitTest15MemoryOutStreamD1Ev
 4942      00
 4943              	.L449:
 4944 1b45 E8000000 		call	__cxa_end_catch
 4944      00
 4945 1b4a 4889DF   		movq	%rbx, %rdi
 4946              	.LEHB135:
 4947 1b4d E8000000 		call	_Unwind_Resume
 4947      00
 4948              	.LEHE135:
 4949              	.L455:
 4950              	.L464:
 4951 1b52 4889C3   		movq	%rax, %rbx
 4952 1b55 EBEE     		jmp	.L449
 4953              	.L468:
 4954 1b57 E8000000 		call	__cxa_begin_catch
 4954      00
 4955              	.LEHB136:
 4956 1b5c E8000000 		call	_ZN8UnitTest11CurrentTest7ResultsEv
 4956      00
 4957 1b61 488B7424 		movq	8(%rsp), %rsi
 4957      08
 4958 1b66 488B38   		movq	(%rax), %rdi
 4959 1b69 BA000000 		movl	$.LC94, %edx
 4959      00
 4960 1b6e E8000000 		call	_ZN8UnitTest11TestResults13OnTestFailureERKNS_11TestDetailsEPKc
 4960      00
 4961              	.LEHE136:
 4962              	.LEHB137:
 4963 1b73 E8000000 		call	__cxa_end_catch
 4963      00
 4964              	.LEHE137:
 4965 1b78 E9D0FEFF 		jmp	.L439
 4965      FF
 4966              	.L445:
 4967 1b7d E8000000 		call	__cxa_begin_catch
 4967      00
 4968 1b82 4889C3   		movq	%rax, %rbx
 4969 1b85 488B00   		movq	(%rax), %rax
 4970 1b88 4889DF   		movq	%rbx, %rdi
 4971 1b8b FF5010   		call	*16(%rax)
 4972 1b8e 4889DF   		movq	%rbx, %rdi
 4973 1b91 4889C5   		movq	%rax, %rbp
 4974              	.LEHB138:
 4975 1b94 E8000000 		call	_ZNK8UnitTest15AssertException10LineNumberEv
 4975      00
 4976 1b99 4889DF   		movq	%rbx, %rdi
 4977 1b9c 4189C4   		movl	%eax, %r12d
 4978 1b9f E8000000 		call	_ZNK8UnitTest15AssertException8FilenameEv
 4978      00
 4979 1ba4 4889C1   		movq	%rax, %rcx
 4980 1ba7 488B4424 		movq	8(%rsp), %rax
 4980      08
 4981 1bac 488D7C24 		leaq	16(%rsp), %rdi
 4981      10
 4982 1bb1 4589E0   		movl	%r12d, %r8d
 4983 1bb4 488B7008 		movq	8(%rax), %rsi
 4984 1bb8 488B10   		movq	(%rax), %rdx
 4985 1bbb E8000000 		call	_ZN8UnitTest11TestDetailsC1EPKcS2_S2_i
 4985      00
 4986 1bc0 E8000000 		call	_ZN8UnitTest11CurrentTest7ResultsEv
 4986      00
 4987 1bc5 488B38   		movq	(%rax), %rdi
 4988 1bc8 488D7424 		leaq	16(%rsp), %rsi
 4988      10
 4989 1bcd 4889EA   		movq	%rbp, %rdx
 4990 1bd0 E8000000 		call	_ZN8UnitTest11TestResults13OnTestFailureERKNS_11TestDetailsEPKc
 4990      00
 4991              	.LEHE138:
 4992 1bd5 E947FFFF 		jmp	.L463
 4992      FF
 4993              	.L454:
 4994 1bda 4889C3   		movq	%rax, %rbx
 4995 1bdd E8000000 		call	__cxa_end_catch
 4995      00
 4996 1be2 4889DF   		movq	%rbx, %rdi
 4997              	.LEHB139:
 4998 1be5 E8000000 		call	_Unwind_Resume
 4998      00
 4999              	.LEHE139:
 5000              	.L457:
 5001 1bea E963FFFF 		jmp	.L464
 5001      FF
 5002              		.cfi_endproc
 5003              	.LFE1474:
 5004              		.section	.gcc_except_table
 5005              		.align 4
 5006              	.LLSDA1474:
 5007 03b0 FF       		.byte	0xff
 5008 03b1 03       		.byte	0x3
 5009 03b2 55       		.uleb128 .LLSDATT1474-.LLSDATTD1474
 5010              	.LLSDATTD1474:
 5011 03b3 01       		.byte	0x1
 5012 03b4 3C       		.uleb128 .LLSDACSE1474-.LLSDACSB1474
 5013              	.LLSDACSB1474:
 5014 03b5 26       		.uleb128 .LEHB129-.LFB1474
 5015 03b6 05       		.uleb128 .LEHE129-.LEHB129
 5016 03b7 00       		.uleb128 0
 5017 03b8 00       		.uleb128 0
 5018 03b9 36       		.uleb128 .LEHB130-.LFB1474
 5019 03ba 27       		.uleb128 .LEHE130-.LEHB130
 5020 03bb C002     		.uleb128 .L458-.LFB1474
 5021 03bd 05       		.uleb128 0x5
 5022 03be 9B01     		.uleb128 .LEHB131-.LFB1474
 5023 03c0 05       		.uleb128 .LEHE131-.LEHB131
 5024 03c1 A001     		.uleb128 .L459-.LFB1474
 5025 03c3 07       		.uleb128 0x7
 5026 03c4 DA01     		.uleb128 .LEHB132-.LFB1474
 5027 03c6 05       		.uleb128 .LEHE132-.LEHB132
 5028 03c7 E202     		.uleb128 .L455-.LFB1474
 5029 03c9 00       		.uleb128 0
 5030 03ca F501     		.uleb128 .LEHB133-.LFB1474
 5031 03cc 32       		.uleb128 .LEHE133-.LEHB133
 5032 03cd C802     		.uleb128 .L456-.LFB1474
 5033 03cf 00       		.uleb128 0
 5034 03d0 AC02     		.uleb128 .LEHB134-.LFB1474
 5035 03d2 05       		.uleb128 .LEHE134-.LEHB134
 5036 03d3 E202     		.uleb128 .L455-.LFB1474
 5037 03d5 00       		.uleb128 0
 5038 03d6 DD02     		.uleb128 .LEHB135-.LFB1474
 5039 03d8 05       		.uleb128 .LEHE135-.LEHB135
 5040 03d9 00       		.uleb128 0
 5041 03da 00       		.uleb128 0
 5042 03db EC02     		.uleb128 .LEHB136-.LFB1474
 5043 03dd 17       		.uleb128 .LEHE136-.LEHB136
 5044 03de EA03     		.uleb128 .L454-.LFB1474
 5045 03e0 00       		.uleb128 0
 5046 03e1 8303     		.uleb128 .LEHB137-.LFB1474
 5047 03e3 05       		.uleb128 .LEHE137-.LEHB137
 5048 03e4 00       		.uleb128 0
 5049 03e5 00       		.uleb128 0
 5050 03e6 A403     		.uleb128 .LEHB138-.LFB1474
 5051 03e8 41       		.uleb128 .LEHE138-.LEHB138
 5052 03e9 FA03     		.uleb128 .L457-.LFB1474
 5053 03eb 00       		.uleb128 0
 5054 03ec F503     		.uleb128 .LEHB139-.LFB1474
 5055 03ee 05       		.uleb128 .LEHE139-.LEHB139
 5056 03ef 00       		.uleb128 0
 5057 03f0 00       		.uleb128 0
 5058              	.LLSDACSE1474:
 5059 03f1 03       		.byte	0x3
 5060 03f2 00       		.byte	0
 5061 03f3 02       		.byte	0x2
 5062 03f4 7D       		.byte	0x7d
 5063 03f5 01       		.byte	0x1
 5064 03f6 7D       		.byte	0x7d
 5065 03f7 00       		.byte	0
 5066 03f8 7D       		.byte	0x7d
 5067 03f9 000000   		.align 4
 5068 03fc 00000000 		.long	0
 5069              	
 5070 0400 00000000 		.long	_ZTISt9exception
 5071 0404 00000000 		.long	_ZTIN8UnitTest15AssertExceptionE
 5072              	.LLSDATT1474:
 5073              		.text
 5075              		.section	.text.unlikely
 5076              	.LCOLDE109:
 5077              		.text
 5078              	.LHOTE109:
 5079              		.section	.text.unlikely
 5080              		.align 2
 5081              	.LCOLDB110:
 5082              		.text
 5083              	.LHOTB110:
 5084 1bef 90       		.align 2
 5085              		.p2align 4,,15
 5087              	_ZNK12_GLOBAL__N_115SuiteTestSuite263TestDummyFixtureSimilarlyNamedFixtureTestsInDifferentSuitesWor
 5088              	.LFB1190:
 5089              		.cfi_startproc
 5090              		.cfi_personality 0x3,__gxx_personality_v0
 5091              		.cfi_lsda 0x3,.LLSDA1190
 5092 1bf0 4155     		pushq	%r13
 5093              		.cfi_def_cfa_offset 16
 5094              		.cfi_offset 13, -16
 5095 1bf2 4154     		pushq	%r12
 5096              		.cfi_def_cfa_offset 24
 5097              		.cfi_offset 12, -24
 5098 1bf4 55       		pushq	%rbp
 5099              		.cfi_def_cfa_offset 32
 5100              		.cfi_offset 6, -32
 5101 1bf5 53       		pushq	%rbx
 5102              		.cfi_def_cfa_offset 40
 5103              		.cfi_offset 3, -40
 5104 1bf6 488D5F08 		leaq	8(%rdi), %rbx
 5105 1bfa 4889FD   		movq	%rdi, %rbp
 5106 1bfd 4881EC98 		subq	$408, %rsp
 5106      010000
 5107              		.cfi_def_cfa_offset 448
 5108 1c04 4889DF   		movq	%rbx, %rdi
 5109 1c07 64488B04 		movq	%fs:40, %rax
 5109      25280000 
 5109      00
 5110 1c10 48898424 		movq	%rax, 392(%rsp)
 5110      88010000 
 5111 1c18 31C0     		xorl	%eax, %eax
 5112              	.LEHB140:
 5113 1c1a E8D1FDFF 		call	_ZN8UnitTest11ExecuteTestIN12_GLOBAL__N_115SuiteTestSuite265DummyFixtureSimilarlyNamedFixture
 5113      FF
 5114              	.LEHE140:
 5115              	.L469:
 5116 1c1f 488B8424 		movq	392(%rsp), %rax
 5116      88010000 
 5117 1c27 64483304 		xorq	%fs:40, %rax
 5117      25280000 
 5117      00
 5118 1c30 750E     		jne	.L490
 5119 1c32 4881C498 		addq	$408, %rsp
 5119      010000
 5120              		.cfi_remember_state
 5121              		.cfi_def_cfa_offset 40
 5122 1c39 5B       		popq	%rbx
 5123              		.cfi_def_cfa_offset 32
 5124 1c3a 5D       		popq	%rbp
 5125              		.cfi_def_cfa_offset 24
 5126 1c3b 415C     		popq	%r12
 5127              		.cfi_def_cfa_offset 16
 5128 1c3d 415D     		popq	%r13
 5129              		.cfi_def_cfa_offset 8
 5130 1c3f C3       		ret
 5131              	.L490:
 5132              		.cfi_restore_state
 5133 1c40 E8000000 		call	__stack_chk_fail
 5133      00
 5134              	.L480:
 5135 1c45 4883FA01 		cmpq	$1, %rdx
 5136 1c49 4889C7   		movq	%rax, %rdi
 5137 1c4c 7477     		je	.L476
 5138 1c4e 4883FA02 		cmpq	$2, %rdx
 5139 1c52 0F85E000 		jne	.L491
 5139      0000
 5140 1c58 E8000000 		call	__cxa_begin_catch
 5140      00
 5141 1c5d 488D7C24 		leaq	32(%rsp), %rdi
 5141      20
 5142 1c62 4889C5   		movq	%rax, %rbp
 5143              	.LEHB141:
 5144 1c65 E8000000 		call	_ZN8UnitTest15MemoryOutStreamC1Ev
 5144      00
 5145              	.LEHE141:
 5146 1c6a 488B4500 		movq	0(%rbp), %rax
 5147 1c6e 4889EF   		movq	%rbp, %rdi
 5148 1c71 FF5010   		call	*16(%rax)
 5149 1c74 488D7C24 		leaq	32(%rsp), %rdi
 5149      20
 5150 1c79 BE000000 		movl	$.LC93, %esi
 5150      00
 5151 1c7e 4889C5   		movq	%rax, %rbp
 5152              	.LEHB142:
 5153 1c81 E8000000 		call	_ZStlsISt11char_traitsIcEERSt13basic_ostreamIcT_ES5_PKc
 5153      00
 5154 1c86 4889C7   		movq	%rax, %rdi
 5155 1c89 4889EE   		movq	%rbp, %rsi
 5156 1c8c E8000000 		call	_ZStlsISt11char_traitsIcEERSt13basic_ostreamIcT_ES5_PKc
 5156      00
 5157 1c91 488D7C24 		leaq	32(%rsp), %rdi
 5157      20
 5158 1c96 E8000000 		call	_ZNK8UnitTest15MemoryOutStream7GetTextEv
 5158      00
 5159 1c9b 4889C5   		movq	%rax, %rbp
 5160 1c9e E8000000 		call	_ZN8UnitTest11CurrentTest7ResultsEv
 5160      00
 5161 1ca3 488B38   		movq	(%rax), %rdi
 5162 1ca6 4889EA   		movq	%rbp, %rdx
 5163 1ca9 4889DE   		movq	%rbx, %rsi
 5164 1cac E8000000 		call	_ZN8UnitTest11TestResults13OnTestFailureERKNS_11TestDetailsEPKc
 5164      00
 5165              	.LEHE142:
 5166 1cb1 488D7C24 		leaq	32(%rsp), %rdi
 5166      20
 5167              	.LEHB143:
 5168 1cb6 E8000000 		call	_ZN8UnitTest15MemoryOutStreamD1Ev
 5168      00
 5169              	.LEHE143:
 5170              	.L487:
 5171 1cbb E8000000 		call	__cxa_end_catch
 5171      00
 5172 1cc0 E95AFFFF 		jmp	.L469
 5172      FF
 5173              	.L476:
 5174 1cc5 E8000000 		call	__cxa_begin_catch
 5174      00
 5175 1cca 4889C3   		movq	%rax, %rbx
 5176 1ccd 488B00   		movq	(%rax), %rax
 5177 1cd0 4889DF   		movq	%rbx, %rdi
 5178 1cd3 FF5010   		call	*16(%rax)
 5179 1cd6 4889DF   		movq	%rbx, %rdi
 5180 1cd9 4989C4   		movq	%rax, %r12
 5181              	.LEHB144:
 5182 1cdc E8000000 		call	_ZNK8UnitTest15AssertException10LineNumberEv
 5182      00
 5183 1ce1 4889DF   		movq	%rbx, %rdi
 5184 1ce4 4189C5   		movl	%eax, %r13d
 5185 1ce7 E8000000 		call	_ZNK8UnitTest15AssertException8FilenameEv
 5185      00
 5186 1cec 488B5508 		movq	8(%rbp), %rdx
 5187 1cf0 488B7510 		movq	16(%rbp), %rsi
 5188 1cf4 4589E8   		movl	%r13d, %r8d
 5189 1cf7 4889C1   		movq	%rax, %rcx
 5190 1cfa 4889E7   		movq	%rsp, %rdi
 5191 1cfd E8000000 		call	_ZN8UnitTest11TestDetailsC1EPKcS2_S2_i
 5191      00
 5192 1d02 E8000000 		call	_ZN8UnitTest11CurrentTest7ResultsEv
 5192      00
 5193 1d07 488B38   		movq	(%rax), %rdi
 5194 1d0a 4C89E2   		movq	%r12, %rdx
 5195 1d0d 4889E6   		movq	%rsp, %rsi
 5196 1d10 E8000000 		call	_ZN8UnitTest11TestResults13OnTestFailureERKNS_11TestDetailsEPKc
 5196      00
 5197              	.LEHE144:
 5198 1d15 EBA4     		jmp	.L487
 5199              	.L483:
 5200 1d17 488D7C24 		leaq	32(%rsp), %rdi
 5200      20
 5201 1d1c 4889C3   		movq	%rax, %rbx
 5202 1d1f E8000000 		call	_ZN8UnitTest15MemoryOutStreamD1Ev
 5202      00
 5203              	.L472:
 5204 1d24 E8000000 		call	__cxa_end_catch
 5204      00
 5205 1d29 4889DF   		movq	%rbx, %rdi
 5206              	.LEHB145:
 5207 1d2c E8000000 		call	_Unwind_Resume
 5207      00
 5208              	.LEHE145:
 5209              	.L481:
 5210              	.L488:
 5211 1d31 4889C3   		movq	%rax, %rbx
 5212 1d34 EBEE     		jmp	.L472
 5213              	.L482:
 5214 1d36 EBF9     		jmp	.L488
 5215              	.L491:
 5216 1d38 E8000000 		call	__cxa_begin_catch
 5216      00
 5217 1d3d BA4E0000 		movl	$78, %edx
 5217      00
 5218 1d42 4889DE   		movq	%rbx, %rsi
 5219 1d45 4889E7   		movq	%rsp, %rdi
 5220              	.LEHB146:
 5221 1d48 E8000000 		call	_ZN8UnitTest11TestDetailsC1ERKS0_i
 5221      00
 5222 1d4d E8000000 		call	_ZN8UnitTest11CurrentTest7ResultsEv
 5222      00
 5223 1d52 488B38   		movq	(%rax), %rdi
 5224 1d55 BA000000 		movl	$.LC107, %edx
 5224      00
 5225 1d5a 4889E6   		movq	%rsp, %rsi
 5226 1d5d E8000000 		call	_ZN8UnitTest11TestResults13OnTestFailureERKNS_11TestDetailsEPKc
 5226      00
 5227              	.LEHE146:
 5228              	.LEHB147:
 5229 1d62 E8000000 		call	__cxa_end_catch
 5229      00
 5230              	.LEHE147:
 5231 1d67 E9B3FEFF 		jmp	.L469
 5231      FF
 5232              	.L484:
 5233 1d6c 4889C3   		movq	%rax, %rbx
 5234 1d6f E8000000 		call	__cxa_end_catch
 5234      00
 5235 1d74 4889DF   		movq	%rbx, %rdi
 5236              	.LEHB148:
 5237 1d77 E8000000 		call	_Unwind_Resume
 5237      00
 5238              	.LEHE148:
 5239              		.cfi_endproc
 5240              	.LFE1190:
 5241              		.section	.gcc_except_table
 5242              		.align 4
 5243              	.LLSDA1190:
 5244 0408 FF       		.byte	0xff
 5245 0409 03       		.byte	0x3
 5246 040a 45       		.uleb128 .LLSDATT1190-.LLSDATTD1190
 5247              	.LLSDATTD1190:
 5248 040b 01       		.byte	0x1
 5249 040c 30       		.uleb128 .LLSDACSE1190-.LLSDACSB1190
 5250              	.LLSDACSB1190:
 5251 040d 2A       		.uleb128 .LEHB140-.LFB1190
 5252 040e 05       		.uleb128 .LEHE140-.LEHB140
 5253 040f 55       		.uleb128 .L480-.LFB1190
 5254 0410 05       		.uleb128 0x5
 5255 0411 75       		.uleb128 .LEHB141-.LFB1190
 5256 0412 05       		.uleb128 .LEHE141-.LEHB141
 5257 0413 C602     		.uleb128 .L482-.LFB1190
 5258 0415 00       		.uleb128 0
 5259 0416 9101     		.uleb128 .LEHB142-.LFB1190
 5260 0418 30       		.uleb128 .LEHE142-.LEHB142
 5261 0419 A702     		.uleb128 .L483-.LFB1190
 5262 041b 00       		.uleb128 0
 5263 041c C601     		.uleb128 .LEHB143-.LFB1190
 5264 041e 05       		.uleb128 .LEHE143-.LEHB143
 5265 041f C602     		.uleb128 .L482-.LFB1190
 5266 0421 00       		.uleb128 0
 5267 0422 EC01     		.uleb128 .LEHB144-.LFB1190
 5268 0424 39       		.uleb128 .LEHE144-.LEHB144
 5269 0425 C102     		.uleb128 .L481-.LFB1190
 5270 0427 00       		.uleb128 0
 5271 0428 BC02     		.uleb128 .LEHB145-.LFB1190
 5272 042a 05       		.uleb128 .LEHE145-.LEHB145
 5273 042b 00       		.uleb128 0
 5274 042c 00       		.uleb128 0
 5275 042d D802     		.uleb128 .LEHB146-.LFB1190
 5276 042f 1A       		.uleb128 .LEHE146-.LEHB146
 5277 0430 FC02     		.uleb128 .L484-.LFB1190
 5278 0432 00       		.uleb128 0
 5279 0433 F202     		.uleb128 .LEHB147-.LFB1190
 5280 0435 05       		.uleb128 .LEHE147-.LEHB147
 5281 0436 00       		.uleb128 0
 5282 0437 00       		.uleb128 0
 5283 0438 8703     		.uleb128 .LEHB148-.LFB1190
 5284 043a 05       		.uleb128 .LEHE148-.LEHB148
 5285 043b 00       		.uleb128 0
 5286 043c 00       		.uleb128 0
 5287              	.LLSDACSE1190:
 5288 043d 03       		.byte	0x3
 5289 043e 00       		.byte	0
 5290 043f 02       		.byte	0x2
 5291 0440 7D       		.byte	0x7d
 5292 0441 01       		.byte	0x1
 5293 0442 7D       		.byte	0x7d
 5294 0443 00       		.align 4
 5295 0444 00000000 		.long	0
 5296              	
 5297 0448 00000000 		.long	_ZTISt9exception
 5298 044c 00000000 		.long	_ZTIN8UnitTest15AssertExceptionE
 5299              	.LLSDATT1190:
 5300              		.text
 5302              		.section	.text.unlikely
 5303              	.LCOLDE110:
 5304              		.text
 5305              	.LHOTE110:
 5306              		.section	.text.unlikely
 5307              	.LCOLDB111:
 5308              		.text
 5309              	.LHOTB111:
 5310 1d7c 0F1F4000 		.p2align 4,,15
 5312              	_ZN8UnitTest11ExecuteTestIN12_GLOBAL__N_115SuiteTestSuite165DummyFixtureSimilarlyNamedFixtureTestsI
 5313              	.LFB1475:
 5314              		.cfi_startproc
 5315              		.cfi_personality 0x3,__gxx_personality_v0
 5316              		.cfi_lsda 0x3,.LLSDA1475
 5317 1d80 4154     		pushq	%r12
 5318              		.cfi_def_cfa_offset 16
 5319              		.cfi_offset 12, -16
 5320 1d82 55       		pushq	%rbp
 5321              		.cfi_def_cfa_offset 24
 5322              		.cfi_offset 6, -24
 5323 1d83 53       		pushq	%rbx
 5324              		.cfi_def_cfa_offset 32
 5325              		.cfi_offset 3, -32
 5326 1d84 4889FB   		movq	%rdi, %rbx
 5327 1d87 4881EC10 		subq	$1552, %rsp
 5327      060000
 5328              		.cfi_def_cfa_offset 1584
 5329 1d8e 48897C24 		movq	%rdi, 8(%rsp)
 5329      08
 5330 1d93 64488B04 		movq	%fs:40, %rax
 5330      25280000 
 5330      00
 5331 1d9c 48898424 		movq	%rax, 1544(%rsp)
 5331      08060000 
 5332 1da4 31C0     		xorl	%eax, %eax
 5333              	.LEHB149:
 5334 1da6 E8000000 		call	_ZN8UnitTest11CurrentTest7DetailsEv
 5334      00
 5335              	.LEHE149:
 5336 1dab 488DBC24 		leaq	416(%rsp), %rdi
 5336      A0010000 
 5337 1db3 488918   		movq	%rbx, (%rax)
 5338              	.LEHB150:
 5339 1db6 E8000000 		call	_ZN8UnitTest16SignalTranslatorC1Ev
 5339      00
 5340 1dbb 488B3D00 		movq	_ZN8UnitTest16SignalTranslator12s_jumpTargetE(%rip), %rdi
 5340      000000
 5341 1dc2 BE010000 		movl	$1, %esi
 5341      00
 5342 1dc7 E8000000 		call	__sigsetjmp
 5342      00
 5343 1dcc 85C0     		testl	%eax, %eax
 5344 1dce 7530     		jne	.L519
 5345 1dd0 488DBC24 		leaq	416(%rsp), %rdi
 5345      A0010000 
 5346 1dd8 E8000000 		call	_ZN8UnitTest16SignalTranslatorD1Ev
 5346      00
 5347              	.LEHE150:
 5348              	.L492:
 5349 1ddd 488B8424 		movq	1544(%rsp), %rax
 5349      08060000 
 5350 1de5 64483304 		xorq	%fs:40, %rax
 5350      25280000 
 5350      00
 5351 1dee 0F85C700 		jne	.L520
 5351      0000
 5352 1df4 4881C410 		addq	$1552, %rsp
 5352      060000
 5353              		.cfi_remember_state
 5354              		.cfi_def_cfa_offset 32
 5355 1dfb 5B       		popq	%rbx
 5356              		.cfi_def_cfa_offset 24
 5357 1dfc 5D       		popq	%rbp
 5358              		.cfi_def_cfa_offset 16
 5359 1dfd 415C     		popq	%r12
 5360              		.cfi_def_cfa_offset 8
 5361 1dff C3       		ret
 5362              		.p2align 4,,10
 5363              		.p2align 3
 5364              	.L519:
 5365              		.cfi_restore_state
 5366 1e00 BF080000 		movl	$8, %edi
 5366      00
 5367 1e05 E8000000 		call	__cxa_allocate_exception
 5367      00
 5368 1e0a 31D2     		xorl	%edx, %edx
 5369 1e0c 48C70000 		movq	$.LC92, (%rax)
 5369      000000
 5370 1e13 BE000000 		movl	$_ZTIPKc, %esi
 5370      00
 5371 1e18 4889C7   		movq	%rax, %rdi
 5372              	.LEHB151:
 5373 1e1b E8000000 		call	__cxa_throw
 5373      00
 5374              	.LEHE151:
 5375              	.L512:
 5376 1e20 488DBC24 		leaq	416(%rsp), %rdi
 5376      A0010000 
 5377 1e28 4889C5   		movq	%rax, %rbp
 5378 1e2b 4889D3   		movq	%rdx, %rbx
 5379 1e2e E8000000 		call	_ZN8UnitTest16SignalTranslatorD1Ev
 5379      00
 5380 1e33 4889EF   		movq	%rbp, %rdi
 5381 1e36 4889DA   		movq	%rbx, %rdx
 5382              	.L496:
 5383 1e39 4883FA01 		cmpq	$1, %rdx
 5384 1e3d 0F84CA00 		je	.L498
 5384      0000
 5385 1e43 4883FA02 		cmpq	$2, %rdx
 5386 1e47 0F859A00 		jne	.L521
 5386      0000
 5387 1e4d E8000000 		call	__cxa_begin_catch
 5387      00
 5388 1e52 488D7C24 		leaq	48(%rsp), %rdi
 5388      30
 5389 1e57 4889C3   		movq	%rax, %rbx
 5390              	.LEHB152:
 5391 1e5a E8000000 		call	_ZN8UnitTest15MemoryOutStreamC1Ev
 5391      00
 5392              	.LEHE152:
 5393 1e5f 488B03   		movq	(%rbx), %rax
 5394 1e62 4889DF   		movq	%rbx, %rdi
 5395 1e65 FF5010   		call	*16(%rax)
 5396 1e68 488D7C24 		leaq	48(%rsp), %rdi
 5396      30
 5397 1e6d BE000000 		movl	$.LC93, %esi
 5397      00
 5398 1e72 4889C3   		movq	%rax, %rbx
 5399              	.LEHB153:
 5400 1e75 E8000000 		call	_ZStlsISt11char_traitsIcEERSt13basic_ostreamIcT_ES5_PKc
 5400      00
 5401 1e7a 4889C7   		movq	%rax, %rdi
 5402 1e7d 4889DE   		movq	%rbx, %rsi
 5403 1e80 E8000000 		call	_ZStlsISt11char_traitsIcEERSt13basic_ostreamIcT_ES5_PKc
 5403      00
 5404 1e85 488D7C24 		leaq	48(%rsp), %rdi
 5404      30
 5405 1e8a E8000000 		call	_ZNK8UnitTest15MemoryOutStream7GetTextEv
 5405      00
 5406 1e8f 4889C3   		movq	%rax, %rbx
 5407 1e92 E8000000 		call	_ZN8UnitTest11CurrentTest7ResultsEv
 5407      00
 5408 1e97 488B7424 		movq	8(%rsp), %rsi
 5408      08
 5409 1e9c 488B38   		movq	(%rax), %rdi
 5410 1e9f 4889DA   		movq	%rbx, %rdx
 5411 1ea2 E8000000 		call	_ZN8UnitTest11TestResults13OnTestFailureERKNS_11TestDetailsEPKc
 5411      00
 5412              	.LEHE153:
 5413 1ea7 488D7C24 		leaq	48(%rsp), %rdi
 5413      30
 5414              	.LEHB154:
 5415 1eac E8000000 		call	_ZN8UnitTest15MemoryOutStreamD1Ev
 5415      00
 5416              	.LEHE154:
 5417              	.L516:
 5418 1eb1 E8000000 		call	__cxa_end_catch
 5418      00
 5419 1eb6 E922FFFF 		jmp	.L492
 5419      FF
 5420              	.L520:
 5421 1ebb E8000000 		call	__stack_chk_fail
 5421      00
 5422              	.L511:
 5423 1ec0 4889C7   		movq	%rax, %rdi
 5424 1ec3 E971FFFF 		jmp	.L496
 5424      FF
 5425              	.L509:
 5426 1ec8 488D7C24 		leaq	48(%rsp), %rdi
 5426      30
 5427 1ecd 4889C3   		movq	%rax, %rbx
 5428 1ed0 E8000000 		call	_ZN8UnitTest15MemoryOutStreamD1Ev
 5428      00
 5429              	.L502:
 5430 1ed5 E8000000 		call	__cxa_end_catch
 5430      00
 5431 1eda 4889DF   		movq	%rbx, %rdi
 5432              	.LEHB155:
 5433 1edd E8000000 		call	_Unwind_Resume
 5433      00
 5434              	.LEHE155:
 5435              	.L508:
 5436              	.L517:
 5437 1ee2 4889C3   		movq	%rax, %rbx
 5438 1ee5 EBEE     		jmp	.L502
 5439              	.L521:
 5440 1ee7 E8000000 		call	__cxa_begin_catch
 5440      00
 5441              	.LEHB156:
 5442 1eec E8000000 		call	_ZN8UnitTest11CurrentTest7ResultsEv
 5442      00
 5443 1ef1 488B7424 		movq	8(%rsp), %rsi
 5443      08
 5444 1ef6 488B38   		movq	(%rax), %rdi
 5445 1ef9 BA000000 		movl	$.LC94, %edx
 5445      00
 5446 1efe E8000000 		call	_ZN8UnitTest11TestResults13OnTestFailureERKNS_11TestDetailsEPKc
 5446      00
 5447              	.LEHE156:
 5448              	.LEHB157:
 5449 1f03 E8000000 		call	__cxa_end_catch
 5449      00
 5450              	.LEHE157:
 5451 1f08 E9D0FEFF 		jmp	.L492
 5451      FF
 5452              	.L498:
 5453 1f0d E8000000 		call	__cxa_begin_catch
 5453      00
 5454 1f12 4889C3   		movq	%rax, %rbx
 5455 1f15 488B00   		movq	(%rax), %rax
 5456 1f18 4889DF   		movq	%rbx, %rdi
 5457 1f1b FF5010   		call	*16(%rax)
 5458 1f1e 4889DF   		movq	%rbx, %rdi
 5459 1f21 4889C5   		movq	%rax, %rbp
 5460              	.LEHB158:
 5461 1f24 E8000000 		call	_ZNK8UnitTest15AssertException10LineNumberEv
 5461      00
 5462 1f29 4889DF   		movq	%rbx, %rdi
 5463 1f2c 4189C4   		movl	%eax, %r12d
 5464 1f2f E8000000 		call	_ZNK8UnitTest15AssertException8FilenameEv
 5464      00
 5465 1f34 4889C1   		movq	%rax, %rcx
 5466 1f37 488B4424 		movq	8(%rsp), %rax
 5466      08
 5467 1f3c 488D7C24 		leaq	16(%rsp), %rdi
 5467      10
 5468 1f41 4589E0   		movl	%r12d, %r8d
 5469 1f44 488B7008 		movq	8(%rax), %rsi
 5470 1f48 488B10   		movq	(%rax), %rdx
 5471 1f4b E8000000 		call	_ZN8UnitTest11TestDetailsC1EPKcS2_S2_i
 5471      00
 5472 1f50 E8000000 		call	_ZN8UnitTest11CurrentTest7ResultsEv
 5472      00
 5473 1f55 488B38   		movq	(%rax), %rdi
 5474 1f58 488D7424 		leaq	16(%rsp), %rsi
 5474      10
 5475 1f5d 4889EA   		movq	%rbp, %rdx
 5476 1f60 E8000000 		call	_ZN8UnitTest11TestResults13OnTestFailureERKNS_11TestDetailsEPKc
 5476      00
 5477              	.LEHE158:
 5478 1f65 E947FFFF 		jmp	.L516
 5478      FF
 5479              	.L507:
 5480 1f6a 4889C3   		movq	%rax, %rbx
 5481 1f6d E8000000 		call	__cxa_end_catch
 5481      00
 5482 1f72 4889DF   		movq	%rbx, %rdi
 5483              	.LEHB159:
 5484 1f75 E8000000 		call	_Unwind_Resume
 5484      00
 5485              	.LEHE159:
 5486              	.L510:
 5487 1f7a E963FFFF 		jmp	.L517
 5487      FF
 5488              		.cfi_endproc
 5489              	.LFE1475:
 5490              		.section	.gcc_except_table
 5491              		.align 4
 5492              	.LLSDA1475:
 5493 0450 FF       		.byte	0xff
 5494 0451 03       		.byte	0x3
 5495 0452 55       		.uleb128 .LLSDATT1475-.LLSDATTD1475
 5496              	.LLSDATTD1475:
 5497 0453 01       		.byte	0x1
 5498 0454 3C       		.uleb128 .LLSDACSE1475-.LLSDACSB1475
 5499              	.LLSDACSB1475:
 5500 0455 26       		.uleb128 .LEHB149-.LFB1475
 5501 0456 05       		.uleb128 .LEHE149-.LEHB149
 5502 0457 00       		.uleb128 0
 5503 0458 00       		.uleb128 0
 5504 0459 36       		.uleb128 .LEHB150-.LFB1475
 5505 045a 27       		.uleb128 .LEHE150-.LEHB150
 5506 045b C002     		.uleb128 .L511-.LFB1475
 5507 045d 05       		.uleb128 0x5
 5508 045e 9B01     		.uleb128 .LEHB151-.LFB1475
 5509 0460 05       		.uleb128 .LEHE151-.LEHB151
 5510 0461 A001     		.uleb128 .L512-.LFB1475
 5511 0463 07       		.uleb128 0x7
 5512 0464 DA01     		.uleb128 .LEHB152-.LFB1475
 5513 0466 05       		.uleb128 .LEHE152-.LEHB152
 5514 0467 E202     		.uleb128 .L508-.LFB1475
 5515 0469 00       		.uleb128 0
 5516 046a F501     		.uleb128 .LEHB153-.LFB1475
 5517 046c 32       		.uleb128 .LEHE153-.LEHB153
 5518 046d C802     		.uleb128 .L509-.LFB1475
 5519 046f 00       		.uleb128 0
 5520 0470 AC02     		.uleb128 .LEHB154-.LFB1475
 5521 0472 05       		.uleb128 .LEHE154-.LEHB154
 5522 0473 E202     		.uleb128 .L508-.LFB1475
 5523 0475 00       		.uleb128 0
 5524 0476 DD02     		.uleb128 .LEHB155-.LFB1475
 5525 0478 05       		.uleb128 .LEHE155-.LEHB155
 5526 0479 00       		.uleb128 0
 5527 047a 00       		.uleb128 0
 5528 047b EC02     		.uleb128 .LEHB156-.LFB1475
 5529 047d 17       		.uleb128 .LEHE156-.LEHB156
 5530 047e EA03     		.uleb128 .L507-.LFB1475
 5531 0480 00       		.uleb128 0
 5532 0481 8303     		.uleb128 .LEHB157-.LFB1475
 5533 0483 05       		.uleb128 .LEHE157-.LEHB157
 5534 0484 00       		.uleb128 0
 5535 0485 00       		.uleb128 0
 5536 0486 A403     		.uleb128 .LEHB158-.LFB1475
 5537 0488 41       		.uleb128 .LEHE158-.LEHB158
 5538 0489 FA03     		.uleb128 .L510-.LFB1475
 5539 048b 00       		.uleb128 0
 5540 048c F503     		.uleb128 .LEHB159-.LFB1475
 5541 048e 05       		.uleb128 .LEHE159-.LEHB159
 5542 048f 00       		.uleb128 0
 5543 0490 00       		.uleb128 0
 5544              	.LLSDACSE1475:
 5545 0491 03       		.byte	0x3
 5546 0492 00       		.byte	0
 5547 0493 02       		.byte	0x2
 5548 0494 7D       		.byte	0x7d
 5549 0495 01       		.byte	0x1
 5550 0496 7D       		.byte	0x7d
 5551 0497 00       		.byte	0
 5552 0498 7D       		.byte	0x7d
 5553 0499 000000   		.align 4
 5554 049c 00000000 		.long	0
 5555              	
 5556 04a0 00000000 		.long	_ZTISt9exception
 5557 04a4 00000000 		.long	_ZTIN8UnitTest15AssertExceptionE
 5558              	.LLSDATT1475:
 5559              		.text
 5561              		.section	.text.unlikely
 5562              	.LCOLDE111:
 5563              		.text
 5564              	.LHOTE111:
 5565              		.section	.text.unlikely
 5566              		.align 2
 5567              	.LCOLDB112:
 5568              		.text
 5569              	.LHOTB112:
 5570 1f7f 90       		.align 2
 5571              		.p2align 4,,15
 5573              	_ZNK12_GLOBAL__N_115SuiteTestSuite163TestDummyFixtureSimilarlyNamedFixtureTestsInDifferentSuitesWor
 5574              	.LFB1177:
 5575              		.cfi_startproc
 5576              		.cfi_personality 0x3,__gxx_personality_v0
 5577              		.cfi_lsda 0x3,.LLSDA1177
 5578 1f80 4155     		pushq	%r13
 5579              		.cfi_def_cfa_offset 16
 5580              		.cfi_offset 13, -16
 5581 1f82 4154     		pushq	%r12
 5582              		.cfi_def_cfa_offset 24
 5583              		.cfi_offset 12, -24
 5584 1f84 55       		pushq	%rbp
 5585              		.cfi_def_cfa_offset 32
 5586              		.cfi_offset 6, -32
 5587 1f85 53       		pushq	%rbx
 5588              		.cfi_def_cfa_offset 40
 5589              		.cfi_offset 3, -40
 5590 1f86 488D5F08 		leaq	8(%rdi), %rbx
 5591 1f8a 4889FD   		movq	%rdi, %rbp
 5592 1f8d 4881EC98 		subq	$408, %rsp
 5592      010000
 5593              		.cfi_def_cfa_offset 448
 5594 1f94 4889DF   		movq	%rbx, %rdi
 5595 1f97 64488B04 		movq	%fs:40, %rax
 5595      25280000 
 5595      00
