   1              		.file	"TestXmlTestReporter.cpp"
   2              		.section	.text.unlikely,"ax",@progbits
   3              		.align 2
   4              	.LCOLDB0:
   5              		.text
   6              	.LHOTB0:
   7              		.align 2
   8              		.p2align 4,,15
  10              	_ZN12_GLOBAL__N_142TestXmlTestReporterFixtureMultipleFailuresD2Ev:
  11              	.LFB1573:
  12              		.cfi_startproc
  13 0000 48C70700 		movq	$_ZTVN12_GLOBAL__N_142TestXmlTestReporterFixtureMultipleFailuresE+16, (%rdi)
  13      000000
  14 0007 E9000000 		jmp	_ZN8UnitTest4TestD2Ev
  14      00
  15              		.cfi_endproc
  16              	.LFE1573:
  18              		.section	.text.unlikely
  19              	.LCOLDE0:
  20              		.text
  21              	.LHOTE0:
  22              		.set	_ZN12_GLOBAL__N_142TestXmlTestReporterFixtureMultipleFailuresD1Ev,_ZN12_GLOBAL__N_142TestXmlT
  23              		.section	.text.unlikely
  24              		.align 2
  25              	.LCOLDB1:
  26              		.text
  27              	.LHOTB1:
  28              		.align 2
  29 000c 0F1F4000 		.p2align 4,,15
  31              	_ZN12_GLOBAL__N_149TestXmlTestReporterFixtureOneFailureAndOneSuccessD2Ev:
  32              	.LFB1577:
  33              		.cfi_startproc
  34 0010 48C70700 		movq	$_ZTVN12_GLOBAL__N_149TestXmlTestReporterFixtureOneFailureAndOneSuccessE+16, (%rdi)
  34      000000
  35 0017 E9000000 		jmp	_ZN8UnitTest4TestD2Ev
  35      00
  36              		.cfi_endproc
  37              	.LFE1577:
  39              		.section	.text.unlikely
  40              	.LCOLDE1:
  41              		.text
  42              	.LHOTE1:
  43              		.set	_ZN12_GLOBAL__N_149TestXmlTestReporterFixtureOneFailureAndOneSuccessD1Ev,_ZN12_GLOBAL__N_149T
  44              		.section	.text.unlikely
  45              		.align 2
  46              	.LCOLDB2:
  47              		.text
  48              	.LHOTB2:
  49              		.align 2
  50 001c 0F1F4000 		.p2align 4,,15
  52              	_ZN12_GLOBAL__N_152TestXmlTestReporterFixtureFailureMessageIsXMLEscapedD2Ev:
  53              	.LFB1581:
  54              		.cfi_startproc
  55 0020 48C70700 		movq	$_ZTVN12_GLOBAL__N_152TestXmlTestReporterFixtureFailureMessageIsXMLEscapedE+16, (%rdi)
  55      000000
  56 0027 E9000000 		jmp	_ZN8UnitTest4TestD2Ev
  56      00
  57              		.cfi_endproc
  58              	.LFE1581:
  60              		.section	.text.unlikely
  61              	.LCOLDE2:
  62              		.text
  63              	.LHOTE2:
  64              		.set	_ZN12_GLOBAL__N_152TestXmlTestReporterFixtureFailureMessageIsXMLEscapedD1Ev,_ZN12_GLOBAL__N_1
  65              		.section	.text.unlikely
  66              		.align 2
  67              	.LCOLDB3:
  68              		.text
  69              	.LHOTB3:
  70              		.align 2
  71 002c 0F1F4000 		.p2align 4,,15
  73              	_ZN12_GLOBAL__N_161TestXmlTestReporterFixtureSingleFailedTestReportSummaryFormatD2Ev:
  74              	.LFB1585:
  75              		.cfi_startproc
  76 0030 48C70700 		movq	$_ZTVN12_GLOBAL__N_161TestXmlTestReporterFixtureSingleFailedTestReportSummaryFormatE+16, (%rd
  76      000000
  77 0037 E9000000 		jmp	_ZN8UnitTest4TestD2Ev
  77      00
  78              		.cfi_endproc
  79              	.LFE1585:
  81              		.section	.text.unlikely
  82              	.LCOLDE3:
  83              		.text
  84              	.LHOTE3:
  85              		.set	_ZN12_GLOBAL__N_161TestXmlTestReporterFixtureSingleFailedTestReportSummaryFormatD1Ev,_ZN12_GL
  86              		.section	.text.unlikely
  87              		.align 2
  88              	.LCOLDB4:
  89              		.text
  90              	.LHOTB4:
  91              		.align 2
  92 003c 0F1F4000 		.p2align 4,,15
  94              	_ZN12_GLOBAL__N_165TestXmlTestReporterFixtureSingleSuccessfulTestReportSummaryFormatD2Ev:
  95              	.LFB1589:
  96              		.cfi_startproc
  97 0040 48C70700 		movq	$_ZTVN12_GLOBAL__N_165TestXmlTestReporterFixtureSingleSuccessfulTestReportSummaryFormatE+16, 
  97      000000
  98 0047 E9000000 		jmp	_ZN8UnitTest4TestD2Ev
  98      00
  99              		.cfi_endproc
 100              	.LFE1589:
 102              		.section	.text.unlikely
 103              	.LCOLDE4:
 104              		.text
 105              	.LHOTE4:
 106              		.set	_ZN12_GLOBAL__N_165TestXmlTestReporterFixtureSingleSuccessfulTestReportSummaryFormatD1Ev,_ZN1
 107              		.section	.text.unlikely
 108              		.align 2
 109              	.LCOLDB5:
 110              		.text
 111              	.LHOTB5:
 112              		.align 2
 113 004c 0F1F4000 		.p2align 4,,15
 115              	_ZN12_GLOBAL__N_150TestXmlTestReporterFixtureEmptyReportSummaryFormatD2Ev:
 116              	.LFB1593:
 117              		.cfi_startproc
 118 0050 48C70700 		movq	$_ZTVN12_GLOBAL__N_150TestXmlTestReporterFixtureEmptyReportSummaryFormatE+16, (%rdi)
 118      000000
 119 0057 E9000000 		jmp	_ZN8UnitTest4TestD2Ev
 119      00
 120              		.cfi_endproc
 121              	.LFE1593:
 123              		.section	.text.unlikely
 124              	.LCOLDE5:
 125              		.text
 126              	.LHOTE5:
 127              		.set	_ZN12_GLOBAL__N_150TestXmlTestReporterFixtureEmptyReportSummaryFormatD1Ev,_ZN12_GLOBAL__N_150
 128              		.section	.text.unlikely
 129              		.align 2
 130              	.LCOLDB6:
 131              		.text
 132              	.LHOTB6:
 133              		.align 2
 134 005c 0F1F4000 		.p2align 4,,15
 136              	_ZN12_GLOBAL__N_166TestXmlTestReporterFixtureOutputIsCachedUntilReportSummaryIsCalledD2Ev:
 137              	.LFB1597:
 138              		.cfi_startproc
 139 0060 48C70700 		movq	$_ZTVN12_GLOBAL__N_166TestXmlTestReporterFixtureOutputIsCachedUntilReportSummaryIsCalledE+16,
 139      000000
 140 0067 E9000000 		jmp	_ZN8UnitTest4TestD2Ev
 140      00
 141              		.cfi_endproc
 142              	.LFE1597:
 144              		.section	.text.unlikely
 145              	.LCOLDE6:
 146              		.text
 147              	.LHOTE6:
 148              		.set	_ZN12_GLOBAL__N_166TestXmlTestReporterFixtureOutputIsCachedUntilReportSummaryIsCalledD1Ev,_ZN
 149              		.section	.text.unlikely
 150              		.align 2
 151              	.LCOLDB7:
 152              		.text
 153              	.LHOTB7:
 154              		.align 2
 155 006c 0F1F4000 		.p2align 4,,15
 157              	_ZN12_GLOBAL__N_154TestXmlTestReporterFixtureMultipleCharactersAreEscapedD2Ev:
 158              	.LFB1601:
 159              		.cfi_startproc
 160 0070 48C70700 		movq	$_ZTVN12_GLOBAL__N_154TestXmlTestReporterFixtureMultipleCharactersAreEscapedE+16, (%rdi)
 160      000000
 161 0077 E9000000 		jmp	_ZN8UnitTest4TestD2Ev
 161      00
 162              		.cfi_endproc
 163              	.LFE1601:
 165              		.section	.text.unlikely
 166              	.LCOLDE7:
 167              		.text
 168              	.LHOTE7:
 169              		.set	_ZN12_GLOBAL__N_154TestXmlTestReporterFixtureMultipleCharactersAreEscapedD1Ev,_ZN12_GLOBAL__N
 170              		.section	.text.unlikely
 171              		.align 2
 172              	.LCOLDB8:
 173              		.text
 174              	.LHOTB8:
 175              		.align 2
 176 007c 0F1F4000 		.p2align 4,,15
 178              	_ZN12_GLOBAL__N_142TestXmlTestReporterFixtureMultipleFailuresD0Ev:
 179              	.LFB1575:
 180              		.cfi_startproc
 181 0080 53       		pushq	%rbx
 182              		.cfi_def_cfa_offset 16
 183              		.cfi_offset 3, -16
 184 0081 4889FB   		movq	%rdi, %rbx
 185 0084 48C70700 		movq	$_ZTVN12_GLOBAL__N_142TestXmlTestReporterFixtureMultipleFailuresE+16, (%rdi)
 185      000000
 186 008b E8000000 		call	_ZN8UnitTest4TestD2Ev
 186      00
 187 0090 4889DF   		movq	%rbx, %rdi
 188 0093 5B       		popq	%rbx
 189              		.cfi_def_cfa_offset 8
 190 0094 E9000000 		jmp	_ZdlPv
 190      00
 191              		.cfi_endproc
 192              	.LFE1575:
 194              		.section	.text.unlikely
 195              	.LCOLDE8:
 196              		.text
 197              	.LHOTE8:
 198              		.section	.text.unlikely
 199              		.align 2
 200              	.LCOLDB9:
 201              		.text
 202              	.LHOTB9:
 203 0099 90       		.align 2
 204 009a 660F1F44 		.p2align 4,,15
 204      0000
 206              	_ZN12_GLOBAL__N_149TestXmlTestReporterFixtureOneFailureAndOneSuccessD0Ev:
 207              	.LFB1579:
 208              		.cfi_startproc
 209 00a0 53       		pushq	%rbx
 210              		.cfi_def_cfa_offset 16
 211              		.cfi_offset 3, -16
 212 00a1 4889FB   		movq	%rdi, %rbx
 213 00a4 48C70700 		movq	$_ZTVN12_GLOBAL__N_149TestXmlTestReporterFixtureOneFailureAndOneSuccessE+16, (%rdi)
 213      000000
 214 00ab E8000000 		call	_ZN8UnitTest4TestD2Ev
 214      00
 215 00b0 4889DF   		movq	%rbx, %rdi
 216 00b3 5B       		popq	%rbx
 217              		.cfi_def_cfa_offset 8
 218 00b4 E9000000 		jmp	_ZdlPv
 218      00
 219              		.cfi_endproc
 220              	.LFE1579:
 222              		.section	.text.unlikely
 223              	.LCOLDE9:
 224              		.text
 225              	.LHOTE9:
 226              		.section	.text.unlikely
 227              		.align 2
 228              	.LCOLDB10:
 229              		.text
 230              	.LHOTB10:
 231 00b9 90       		.align 2
 232 00ba 660F1F44 		.p2align 4,,15
 232      0000
 234              	_ZN12_GLOBAL__N_152TestXmlTestReporterFixtureFailureMessageIsXMLEscapedD0Ev:
 235              	.LFB1583:
 236              		.cfi_startproc
 237 00c0 53       		pushq	%rbx
 238              		.cfi_def_cfa_offset 16
 239              		.cfi_offset 3, -16
 240 00c1 4889FB   		movq	%rdi, %rbx
 241 00c4 48C70700 		movq	$_ZTVN12_GLOBAL__N_152TestXmlTestReporterFixtureFailureMessageIsXMLEscapedE+16, (%rdi)
 241      000000
 242 00cb E8000000 		call	_ZN8UnitTest4TestD2Ev
 242      00
 243 00d0 4889DF   		movq	%rbx, %rdi
 244 00d3 5B       		popq	%rbx
 245              		.cfi_def_cfa_offset 8
 246 00d4 E9000000 		jmp	_ZdlPv
 246      00
 247              		.cfi_endproc
 248              	.LFE1583:
 250              		.section	.text.unlikely
 251              	.LCOLDE10:
 252              		.text
 253              	.LHOTE10:
 254              		.section	.text.unlikely
 255              		.align 2
 256              	.LCOLDB11:
 257              		.text
 258              	.LHOTB11:
 259 00d9 90       		.align 2
 260 00da 660F1F44 		.p2align 4,,15
 260      0000
 262              	_ZN12_GLOBAL__N_161TestXmlTestReporterFixtureSingleFailedTestReportSummaryFormatD0Ev:
 263              	.LFB1587:
 264              		.cfi_startproc
 265 00e0 53       		pushq	%rbx
 266              		.cfi_def_cfa_offset 16
 267              		.cfi_offset 3, -16
 268 00e1 4889FB   		movq	%rdi, %rbx
 269 00e4 48C70700 		movq	$_ZTVN12_GLOBAL__N_161TestXmlTestReporterFixtureSingleFailedTestReportSummaryFormatE+16, (%rd
 269      000000
 270 00eb E8000000 		call	_ZN8UnitTest4TestD2Ev
 270      00
 271 00f0 4889DF   		movq	%rbx, %rdi
 272 00f3 5B       		popq	%rbx
 273              		.cfi_def_cfa_offset 8
 274 00f4 E9000000 		jmp	_ZdlPv
 274      00
 275              		.cfi_endproc
 276              	.LFE1587:
 278              		.section	.text.unlikely
 279              	.LCOLDE11:
 280              		.text
 281              	.LHOTE11:
 282              		.section	.text.unlikely
 283              		.align 2
 284              	.LCOLDB12:
 285              		.text
 286              	.LHOTB12:
 287 00f9 90       		.align 2
 288 00fa 660F1F44 		.p2align 4,,15
 288      0000
 290              	_ZN12_GLOBAL__N_165TestXmlTestReporterFixtureSingleSuccessfulTestReportSummaryFormatD0Ev:
 291              	.LFB1591:
 292              		.cfi_startproc
 293 0100 53       		pushq	%rbx
 294              		.cfi_def_cfa_offset 16
 295              		.cfi_offset 3, -16
 296 0101 4889FB   		movq	%rdi, %rbx
 297 0104 48C70700 		movq	$_ZTVN12_GLOBAL__N_165TestXmlTestReporterFixtureSingleSuccessfulTestReportSummaryFormatE+16, 
 297      000000
 298 010b E8000000 		call	_ZN8UnitTest4TestD2Ev
 298      00
 299 0110 4889DF   		movq	%rbx, %rdi
 300 0113 5B       		popq	%rbx
 301              		.cfi_def_cfa_offset 8
 302 0114 E9000000 		jmp	_ZdlPv
 302      00
 303              		.cfi_endproc
 304              	.LFE1591:
 306              		.section	.text.unlikely
 307              	.LCOLDE12:
 308              		.text
 309              	.LHOTE12:
 310              		.section	.text.unlikely
 311              		.align 2
 312              	.LCOLDB13:
 313              		.text
 314              	.LHOTB13:
 315 0119 90       		.align 2
 316 011a 660F1F44 		.p2align 4,,15
 316      0000
 318              	_ZN12_GLOBAL__N_150TestXmlTestReporterFixtureEmptyReportSummaryFormatD0Ev:
 319              	.LFB1595:
 320              		.cfi_startproc
 321 0120 53       		pushq	%rbx
 322              		.cfi_def_cfa_offset 16
 323              		.cfi_offset 3, -16
 324 0121 4889FB   		movq	%rdi, %rbx
 325 0124 48C70700 		movq	$_ZTVN12_GLOBAL__N_150TestXmlTestReporterFixtureEmptyReportSummaryFormatE+16, (%rdi)
 325      000000
 326 012b E8000000 		call	_ZN8UnitTest4TestD2Ev
 326      00
 327 0130 4889DF   		movq	%rbx, %rdi
 328 0133 5B       		popq	%rbx
 329              		.cfi_def_cfa_offset 8
 330 0134 E9000000 		jmp	_ZdlPv
 330      00
 331              		.cfi_endproc
 332              	.LFE1595:
 334              		.section	.text.unlikely
 335              	.LCOLDE13:
 336              		.text
 337              	.LHOTE13:
 338              		.section	.text.unlikely
 339              		.align 2
 340              	.LCOLDB14:
 341              		.text
 342              	.LHOTB14:
 343 0139 90       		.align 2
 344 013a 660F1F44 		.p2align 4,,15
 344      0000
 346              	_ZN12_GLOBAL__N_166TestXmlTestReporterFixtureOutputIsCachedUntilReportSummaryIsCalledD0Ev:
 347              	.LFB1599:
 348              		.cfi_startproc
 349 0140 53       		pushq	%rbx
 350              		.cfi_def_cfa_offset 16
 351              		.cfi_offset 3, -16
 352 0141 4889FB   		movq	%rdi, %rbx
 353 0144 48C70700 		movq	$_ZTVN12_GLOBAL__N_166TestXmlTestReporterFixtureOutputIsCachedUntilReportSummaryIsCalledE+16,
 353      000000
 354 014b E8000000 		call	_ZN8UnitTest4TestD2Ev
 354      00
 355 0150 4889DF   		movq	%rbx, %rdi
 356 0153 5B       		popq	%rbx
 357              		.cfi_def_cfa_offset 8
 358 0154 E9000000 		jmp	_ZdlPv
 358      00
 359              		.cfi_endproc
 360              	.LFE1599:
 362              		.section	.text.unlikely
 363              	.LCOLDE14:
 364              		.text
 365              	.LHOTE14:
 366              		.section	.text.unlikely
 367              		.align 2
 368              	.LCOLDB15:
 369              		.text
 370              	.LHOTB15:
 371 0159 90       		.align 2
 372 015a 660F1F44 		.p2align 4,,15
 372      0000
 374              	_ZN12_GLOBAL__N_154TestXmlTestReporterFixtureMultipleCharactersAreEscapedD0Ev:
 375              	.LFB1603:
 376              		.cfi_startproc
 377 0160 53       		pushq	%rbx
 378              		.cfi_def_cfa_offset 16
 379              		.cfi_offset 3, -16
 380 0161 4889FB   		movq	%rdi, %rbx
 381 0164 48C70700 		movq	$_ZTVN12_GLOBAL__N_154TestXmlTestReporterFixtureMultipleCharactersAreEscapedE+16, (%rdi)
 381      000000
 382 016b E8000000 		call	_ZN8UnitTest4TestD2Ev
 382      00
 383 0170 4889DF   		movq	%rbx, %rdi
 384 0173 5B       		popq	%rbx
 385              		.cfi_def_cfa_offset 8
 386 0174 E9000000 		jmp	_ZdlPv
 386      00
 387              		.cfi_endproc
 388              	.LFE1603:
 390              		.section	.text.unlikely
 391              	.LCOLDE15:
 392              		.text
 393              	.LHOTE15:
 394              		.section	.text.unlikely
 395              		.align 2
 396              	.LCOLDB16:
 397              	.LHOTB16:
 398              		.align 2
 400              	_ZNSs4_Rep10_M_disposeERKSaIcE.part.5:
 401              	.LFB1677:
 402              		.cfi_startproc
 403 0000 B8000000 		movl	$_ZL28__gthrw___pthread_key_createPjPFvPvE, %eax
 403      00
 404 0005 4885C0   		testq	%rax, %rax
 405 0008 740A     		je	.L26
 406 000a 83C8FF   		orl	$-1, %eax
 407 000d F00FC147 		lock xaddl	%eax, 16(%rdi)
 407      10
 408 0012 EB09     		jmp	.L27
 409              	.L26:
 410 0014 8B4710   		movl	16(%rdi), %eax
 411 0017 8D50FF   		leal	-1(%rax), %edx
 412 001a 895710   		movl	%edx, 16(%rdi)
 413              	.L27:
 414 001d 85C0     		testl	%eax, %eax
 415 001f 7F05     		jg	.L25
 416 0021 E9000000 		jmp	_ZNSs4_Rep10_M_destroyERKSaIcE
 416      00
 417              	.L25:
 418 0026 C3       		ret
 419              		.cfi_endproc
 420              	.LFE1677:
 422              	.LCOLDE16:
 423              	.LHOTE16:
 424              		.section	.text.unlikely._ZN8UnitTest15MemoryOutStreamD1Ev,"axG",@progbits,_ZN8UnitTest15MemoryOutS
 425              		.align 2
 426              	.LCOLDB17:
 427              		.section	.text._ZN8UnitTest15MemoryOutStreamD1Ev,"axG",@progbits,_ZN8UnitTest15MemoryOutStreamD1Ev
 428              	.LHOTB17:
 429              		.align 2
 430              		.p2align 4,,15
 431              		.weak	_ZN8UnitTest15MemoryOutStreamD1Ev
 433              	_ZN8UnitTest15MemoryOutStreamD1Ev:
 434              	.LFB1606:
 435              		.cfi_startproc
 436 0000 53       		pushq	%rbx
 437              		.cfi_def_cfa_offset 16
 438              		.cfi_offset 3, -16
 439 0001 4889FB   		movq	%rdi, %rbx
 440 0004 4883EC10 		subq	$16, %rsp
 441              		.cfi_def_cfa_offset 32
 442 0008 48C70700 		movq	$_ZTVN8UnitTest15MemoryOutStreamE+24, (%rdi)
 442      000000
 443 000f 48C74760 		movq	$_ZTVN8UnitTest15MemoryOutStreamE+64, 96(%rdi)
 443      00000000 
 444 0017 64488B04 		movq	%fs:40, %rax
 444      25280000 
 444      00
 445 0020 48894424 		movq	%rax, 8(%rsp)
 445      08
 446 0025 31C0     		xorl	%eax, %eax
 447 0027 488B4758 		movq	88(%rdi), %rax
 448 002b 488D78E8 		leaq	-24(%rax), %rdi
 449 002f 4881FF00 		cmpq	$_ZNSs4_Rep20_S_empty_rep_storageE, %rdi
 449      000000
 450 0036 7568     		jne	.L43
 451              	.L32:
 452 0038 488B4350 		movq	80(%rbx), %rax
 453 003c 48C70300 		movq	$_ZTCN8UnitTest15MemoryOutStreamE0_St19basic_ostringstreamIcSt11char_traitsIcESaIcEE+24, (%rb
 453      000000
 454 0043 48C74360 		movq	$_ZTCN8UnitTest15MemoryOutStreamE0_St19basic_ostringstreamIcSt11char_traitsIcESaIcEE+64, 96(%
 454      00000000 
 455 004b 48C74308 		movq	$_ZTVSt15basic_stringbufIcSt11char_traitsIcESaIcEE+16, 8(%rbx)
 455      00000000 
 456 0053 488D78E8 		leaq	-24(%rax), %rdi
 457 0057 4881FF00 		cmpq	$_ZNSs4_Rep20_S_empty_rep_storageE, %rdi
 457      000000
 458 005e 7570     		jne	.L44
 459              	.L37:
 460 0060 488D7B40 		leaq	64(%rbx), %rdi
 461 0064 48C74308 		movq	$_ZTVSt15basic_streambufIcSt11char_traitsIcEE+16, 8(%rbx)
 461      00000000 
 462 006c E8000000 		call	_ZNSt6localeD1Ev
 462      00
 463 0071 488D7B60 		leaq	96(%rbx), %rdi
 464 0075 48C74360 		movq	$_ZTVSt9basic_iosIcSt11char_traitsIcEE+16, 96(%rbx)
 464      00000000 
 465 007d E8000000 		call	_ZNSt8ios_baseD2Ev
 465      00
 466 0082 488B4424 		movq	8(%rsp), %rax
 466      08
 467 0087 64483304 		xorq	%fs:40, %rax
 467      25280000 
 467      00
 468 0090 0F858700 		jne	.L45
 468      0000
 469 0096 4883C410 		addq	$16, %rsp
 470              		.cfi_remember_state
 471              		.cfi_def_cfa_offset 16
 472 009a 5B       		popq	%rbx
 473              		.cfi_def_cfa_offset 8
 474 009b C3       		ret
 475 009c 0F1F4000 		.p2align 4,,10
 476              		.p2align 3
 477              	.L43:
 478              		.cfi_restore_state
 479 00a0 BA000000 		movl	$_ZL28__gthrw___pthread_key_createPjPFvPvE, %edx
 479      00
 480 00a5 4885D2   		testq	%rdx, %rdx
 481 00a8 7466     		je	.L33
 482 00aa BAFFFFFF 		movl	$-1, %edx
 482      FF
 483 00af F00FC150 		lock xaddl	%edx, -8(%rax)
 483      F8
 484 00b4 89D0     		movl	%edx, %eax
 485              	.L34:
 486 00b6 85C0     		testl	%eax, %eax
 487 00b8 0F8F7AFF 		jg	.L32
 487      FFFF
 488 00be 488D7424 		leaq	7(%rsp), %rsi
 488      07
 489 00c3 E8000000 		call	_ZNSs4_Rep10_M_destroyERKSaIcE
 489      00
 490 00c8 E96BFFFF 		jmp	.L32
 490      FF
 491 00cd 0F1F00   		.p2align 4,,10
 492              		.p2align 3
 493              	.L44:
 494 00d0 BA000000 		movl	$_ZL28__gthrw___pthread_key_createPjPFvPvE, %edx
 494      00
 495 00d5 4885D2   		testq	%rdx, %rdx
 496 00d8 7426     		je	.L38
 497 00da BAFFFFFF 		movl	$-1, %edx
 497      FF
 498 00df F00FC150 		lock xaddl	%edx, -8(%rax)
 498      F8
 499 00e4 89D0     		movl	%edx, %eax
 500              	.L39:
 501 00e6 85C0     		testl	%eax, %eax
 502 00e8 0F8F72FF 		jg	.L37
 502      FFFF
 503 00ee 488D7424 		leaq	7(%rsp), %rsi
 503      07
 504 00f3 E8000000 		call	_ZNSs4_Rep10_M_destroyERKSaIcE
 504      00
 505 00f8 E963FFFF 		jmp	.L37
 505      FF
 506 00fd 0F1F00   		.p2align 4,,10
 507              		.p2align 3
 508              	.L38:
 509 0100 8B50F8   		movl	-8(%rax), %edx
 510 0103 8D4AFF   		leal	-1(%rdx), %ecx
 511 0106 8948F8   		movl	%ecx, -8(%rax)
 512 0109 89D0     		movl	%edx, %eax
 513 010b EBD9     		jmp	.L39
 514 010d 0F1F00   		.p2align 4,,10
 515              		.p2align 3
 516              	.L33:
 517 0110 8B50F8   		movl	-8(%rax), %edx
 518 0113 8D4AFF   		leal	-1(%rdx), %ecx
 519 0116 8948F8   		movl	%ecx, -8(%rax)
 520 0119 89D0     		movl	%edx, %eax
 521 011b EB99     		jmp	.L34
 522              	.L45:
 523 011d E8000000 		call	__stack_chk_fail
 523      00
 524              		.cfi_endproc
 525              	.LFE1606:
 527              		.section	.text.unlikely._ZN8UnitTest15MemoryOutStreamD1Ev,"axG",@progbits,_ZN8UnitTest15MemoryOutS
 528              	.LCOLDE17:
 529              		.section	.text._ZN8UnitTest15MemoryOutStreamD1Ev,"axG",@progbits,_ZN8UnitTest15MemoryOutStreamD1Ev
 530              	.LHOTE17:
 531              		.set	.LTHUNK0,_ZN8UnitTest15MemoryOutStreamD1Ev
 532              	.LCOLDB18:
 533              	.LHOTB18:
 534 0122 0F1F4000 		.p2align 4,,15
 534      662E0F1F 
 534      84000000 
 534      0000
 535              		.weak	_ZTv0_n24_N8UnitTest15MemoryOutStreamD1Ev
 537              	_ZTv0_n24_N8UnitTest15MemoryOutStreamD1Ev:
 538              	.LFB1701:
 539              		.cfi_startproc
 540 0130 4C8B17   		movq	(%rdi), %r10
 541 0133 49037AE8 		addq	-24(%r10), %rdi
 542 0137 E9C4FEFF 		jmp	.LTHUNK0
 542      FF
 543              		.cfi_endproc
 544              	.LFE1701:
 546              	.LCOLDE18:
 547              	.LHOTE18:
 548              		.section	.text.unlikely._ZN8UnitTest15MemoryOutStreamD0Ev,"axG",@progbits,_ZN8UnitTest15MemoryOutS
 549              		.align 2
 550              	.LCOLDB19:
 551              		.section	.text._ZN8UnitTest15MemoryOutStreamD0Ev,"axG",@progbits,_ZN8UnitTest15MemoryOutStreamD0Ev
 552              	.LHOTB19:
 553              		.align 2
 554              		.p2align 4,,15
 555              		.weak	_ZN8UnitTest15MemoryOutStreamD0Ev
 557              	_ZN8UnitTest15MemoryOutStreamD0Ev:
 558              	.LFB1607:
 559              		.cfi_startproc
 560 0000 53       		pushq	%rbx
 561              		.cfi_def_cfa_offset 16
 562              		.cfi_offset 3, -16
 563 0001 4889FB   		movq	%rdi, %rbx
 564 0004 4883EC10 		subq	$16, %rsp
 565              		.cfi_def_cfa_offset 32
 566 0008 48C70700 		movq	$_ZTVN8UnitTest15MemoryOutStreamE+24, (%rdi)
 566      000000
 567 000f 48C74760 		movq	$_ZTVN8UnitTest15MemoryOutStreamE+64, 96(%rdi)
 567      00000000 
 568 0017 64488B04 		movq	%fs:40, %rax
 568      25280000 
 568      00
 569 0020 48894424 		movq	%rax, 8(%rsp)
 569      08
 570 0025 31C0     		xorl	%eax, %eax
 571 0027 488B4758 		movq	88(%rdi), %rax
 572 002b 488D78E8 		leaq	-24(%rax), %rdi
 573 002f 4881FF00 		cmpq	$_ZNSs4_Rep20_S_empty_rep_storageE, %rdi
 573      000000
 574 0036 7570     		jne	.L59
 575              	.L48:
 576 0038 488B4350 		movq	80(%rbx), %rax
 577 003c 48C70300 		movq	$_ZTCN8UnitTest15MemoryOutStreamE0_St19basic_ostringstreamIcSt11char_traitsIcESaIcEE+24, (%rb
 577      000000
 578 0043 48C74360 		movq	$_ZTCN8UnitTest15MemoryOutStreamE0_St19basic_ostringstreamIcSt11char_traitsIcESaIcEE+64, 96(%
 578      00000000 
 579 004b 48C74308 		movq	$_ZTVSt15basic_stringbufIcSt11char_traitsIcESaIcEE+16, 8(%rbx)
 579      00000000 
 580 0053 488D78E8 		leaq	-24(%rax), %rdi
 581 0057 4881FF00 		cmpq	$_ZNSs4_Rep20_S_empty_rep_storageE, %rdi
 581      000000
 582 005e 7578     		jne	.L60
 583              	.L53:
 584 0060 488D7B40 		leaq	64(%rbx), %rdi
 585 0064 48C74308 		movq	$_ZTVSt15basic_streambufIcSt11char_traitsIcEE+16, 8(%rbx)
 585      00000000 
 586 006c E8000000 		call	_ZNSt6localeD1Ev
 586      00
 587 0071 488D7B60 		leaq	96(%rbx), %rdi
 588 0075 48C74360 		movq	$_ZTVSt9basic_iosIcSt11char_traitsIcEE+16, 96(%rbx)
 588      00000000 
 589 007d E8000000 		call	_ZNSt8ios_baseD2Ev
 589      00
 590 0082 4889DF   		movq	%rbx, %rdi
 591 0085 E8000000 		call	_ZdlPv
 591      00
 592 008a 488B4424 		movq	8(%rsp), %rax
 592      08
 593 008f 64483304 		xorq	%fs:40, %rax
 593      25280000 
 593      00
 594 0098 0F858700 		jne	.L61
 594      0000
 595 009e 4883C410 		addq	$16, %rsp
 596              		.cfi_remember_state
 597              		.cfi_def_cfa_offset 16
 598 00a2 5B       		popq	%rbx
 599              		.cfi_def_cfa_offset 8
 600 00a3 C3       		ret
 601              		.p2align 4,,10
 602 00a4 0F1F4000 		.p2align 3
 603              	.L59:
 604              		.cfi_restore_state
 605 00a8 BA000000 		movl	$_ZL28__gthrw___pthread_key_createPjPFvPvE, %edx
 605      00
 606 00ad 4885D2   		testq	%rdx, %rdx
 607 00b0 7466     		je	.L49
 608 00b2 BAFFFFFF 		movl	$-1, %edx
 608      FF
 609 00b7 F00FC150 		lock xaddl	%edx, -8(%rax)
 609      F8
 610 00bc 89D0     		movl	%edx, %eax
 611              	.L50:
 612 00be 85C0     		testl	%eax, %eax
 613 00c0 0F8F72FF 		jg	.L48
 613      FFFF
 614 00c6 488D7424 		leaq	7(%rsp), %rsi
 614      07
 615 00cb E8000000 		call	_ZNSs4_Rep10_M_destroyERKSaIcE
 615      00
 616 00d0 E963FFFF 		jmp	.L48
 616      FF
 617              		.p2align 4,,10
 618 00d5 0F1F00   		.p2align 3
 619              	.L60:
 620 00d8 BA000000 		movl	$_ZL28__gthrw___pthread_key_createPjPFvPvE, %edx
 620      00
 621 00dd 4885D2   		testq	%rdx, %rdx
 622 00e0 7426     		je	.L54
 623 00e2 BAFFFFFF 		movl	$-1, %edx
 623      FF
 624 00e7 F00FC150 		lock xaddl	%edx, -8(%rax)
 624      F8
 625 00ec 89D0     		movl	%edx, %eax
 626              	.L55:
 627 00ee 85C0     		testl	%eax, %eax
 628 00f0 0F8F6AFF 		jg	.L53
 628      FFFF
 629 00f6 488D7424 		leaq	7(%rsp), %rsi
 629      07
 630 00fb E8000000 		call	_ZNSs4_Rep10_M_destroyERKSaIcE
 630      00
 631 0100 E95BFFFF 		jmp	.L53
 631      FF
 632              		.p2align 4,,10
 633 0105 0F1F00   		.p2align 3
 634              	.L54:
 635 0108 8B50F8   		movl	-8(%rax), %edx
 636 010b 8D4AFF   		leal	-1(%rdx), %ecx
 637 010e 8948F8   		movl	%ecx, -8(%rax)
 638 0111 89D0     		movl	%edx, %eax
 639 0113 EBD9     		jmp	.L55
 640              		.p2align 4,,10
 641 0115 0F1F00   		.p2align 3
 642              	.L49:
 643 0118 8B50F8   		movl	-8(%rax), %edx
 644 011b 8D4AFF   		leal	-1(%rdx), %ecx
 645 011e 8948F8   		movl	%ecx, -8(%rax)
 646 0121 89D0     		movl	%edx, %eax
 647 0123 EB99     		jmp	.L50
 648              	.L61:
 649 0125 E8000000 		call	__stack_chk_fail
 649      00
 650              		.cfi_endproc
 651              	.LFE1607:
 653              		.section	.text.unlikely._ZN8UnitTest15MemoryOutStreamD0Ev,"axG",@progbits,_ZN8UnitTest15MemoryOutS
 654              	.LCOLDE19:
 655              		.section	.text._ZN8UnitTest15MemoryOutStreamD0Ev,"axG",@progbits,_ZN8UnitTest15MemoryOutStreamD0Ev
 656              	.LHOTE19:
 657              		.set	.LTHUNK1,_ZN8UnitTest15MemoryOutStreamD0Ev
 658              	.LCOLDB20:
 659              	.LHOTB20:
 660 012a 660F1F44 		.p2align 4,,15
 660      0000
 661              		.weak	_ZTv0_n24_N8UnitTest15MemoryOutStreamD0Ev
 663              	_ZTv0_n24_N8UnitTest15MemoryOutStreamD0Ev:
 664              	.LFB1702:
 665              		.cfi_startproc
 666 0130 4C8B17   		movq	(%rdi), %r10
 667 0133 49037AE8 		addq	-24(%r10), %rdi
 668 0137 E9C4FEFF 		jmp	.LTHUNK1
 668      FF
 669              		.cfi_endproc
 670              	.LFE1702:
 672              	.LCOLDE20:
 673              	.LHOTE20:
 674              		.section	.text.unlikely
 675 0027 90       		.align 2
 676              	.LCOLDB21:
 677              	.LHOTB21:
 678              		.align 2
 680              	_ZN12_GLOBAL__N_122XmlTestReporterFixtureD2Ev:
 681              	.LFB1368:
 682              		.cfi_startproc
 683              		.cfi_personality 0x3,__gxx_personality_v0
 684              		.cfi_lsda 0x3,.LLSDA1368
 685 0028 4156     		pushq	%r14
 686              		.cfi_def_cfa_offset 16
 687              		.cfi_offset 14, -16
 688 002a 4155     		pushq	%r13
 689              		.cfi_def_cfa_offset 24
 690              		.cfi_offset 13, -24
 691 002c 4154     		pushq	%r12
 692              		.cfi_def_cfa_offset 32
 693              		.cfi_offset 12, -32
 694 002e 55       		pushq	%rbp
 695              		.cfi_def_cfa_offset 40
 696              		.cfi_offset 6, -40
 697 002f 4989FC   		movq	%rdi, %r12
 698 0032 53       		pushq	%rbx
 699              		.cfi_def_cfa_offset 48
 700              		.cfi_offset 3, -48
 701 0033 4883EC10 		subq	$16, %rsp
 702              		.cfi_def_cfa_offset 64
 703 0037 4C8BAF70 		movq	368(%rdi), %r13
 703      010000
 704 003e 4C8BB768 		movq	360(%rdi), %r14
 704      010000
 705 0045 64488B04 		movq	%fs:40, %rax
 705      25280000 
 705      00
 706 004e 48894424 		movq	%rax, 8(%rsp)
 706      08
 707 0053 31C0     		xorl	%eax, %eax
 708 0055 48C78760 		movq	$_ZTVN8UnitTest20DeferredTestReporterE+16, 352(%rdi)
 708      01000000 
 708      000000
 709              	.L63:
 710 0060 4D39F5   		cmpq	%r14, %r13
 711 0063 0F842901 		je	.L107
 711      0000
 712 0069 498B6E20 		movq	32(%r14), %rbp
 713 006d 498B5E18 		movq	24(%r14), %rbx
 714              	.L64:
 715 0071 4839EB   		cmpq	%rbp, %rbx
 716 0074 7446     		je	.L108
 717 0076 488B4308 		movq	8(%rbx), %rax
 718 007a 488D78E8 		leaq	-24(%rax), %rdi
 719 007e 4881FF00 		cmpq	$_ZNSs4_Rep20_S_empty_rep_storageE, %rdi
 719      000000
 720 0085 742F     		je	.L97
 721 0087 BA000000 		movl	$_ZL28__gthrw___pthread_key_createPjPFvPvE, %edx
 721      00
 722 008c 4885D2   		testq	%rdx, %rdx
 723 008f 740C     		je	.L67
 724 0091 83CAFF   		orl	$-1, %edx
 725 0094 F00FC150 		lock xaddl	%edx, -8(%rax)
 725      F8
 726 0099 89D0     		movl	%edx, %eax
 727 009b EB0B     		jmp	.L68
 728              	.L67:
 729 009d 8B50F8   		movl	-8(%rax), %edx
 730 00a0 8D4AFF   		leal	-1(%rdx), %ecx
 731 00a3 8948F8   		movl	%ecx, -8(%rax)
 732 00a6 89D0     		movl	%edx, %eax
 733              	.L68:
 734 00a8 85C0     		testl	%eax, %eax
 735 00aa 7F0A     		jg	.L97
 736 00ac 488D7424 		leaq	7(%rsp), %rsi
 736      07
 737 00b1 E8000000 		call	_ZNSs4_Rep10_M_destroyERKSaIcE
 737      00
 738              	.L97:
 739 00b6 4883C310 		addq	$16, %rbx
 740 00ba EBB5     		jmp	.L64
 741              	.L108:
 742 00bc 498B7E18 		movq	24(%r14), %rdi
 743 00c0 4885FF   		testq	%rdi, %rdi
 744 00c3 7405     		je	.L71
 745 00c5 E8000000 		call	_ZdlPv
 745      00
 746              	.L71:
 747 00ca 498B4610 		movq	16(%r14), %rax
 748 00ce 488D78E8 		leaq	-24(%rax), %rdi
 749 00d2 4881FF00 		cmpq	$_ZNSs4_Rep20_S_empty_rep_storageE, %rdi
 749      000000
 750 00d9 742F     		je	.L73
 751 00db BA000000 		movl	$_ZL28__gthrw___pthread_key_createPjPFvPvE, %edx
 751      00
 752 00e0 4885D2   		testq	%rdx, %rdx
 753 00e3 740C     		je	.L74
 754 00e5 83CAFF   		orl	$-1, %edx
 755 00e8 F00FC150 		lock xaddl	%edx, -8(%rax)
 755      F8
 756 00ed 89D0     		movl	%edx, %eax
 757 00ef EB0B     		jmp	.L75
 758              	.L74:
 759 00f1 8B50F8   		movl	-8(%rax), %edx
 760 00f4 8D4AFF   		leal	-1(%rdx), %ecx
 761 00f7 8948F8   		movl	%ecx, -8(%rax)
 762 00fa 89D0     		movl	%edx, %eax
 763              	.L75:
 764 00fc 85C0     		testl	%eax, %eax
 765 00fe 7F0A     		jg	.L73
 766 0100 488D7424 		leaq	7(%rsp), %rsi
 766      07
 767 0105 E8000000 		call	_ZNSs4_Rep10_M_destroyERKSaIcE
 767      00
 768              	.L73:
 769 010a 498B4608 		movq	8(%r14), %rax
 770 010e 488D78E8 		leaq	-24(%rax), %rdi
 771 0112 4881FF00 		cmpq	$_ZNSs4_Rep20_S_empty_rep_storageE, %rdi
 771      000000
 772 0119 742F     		je	.L78
 773 011b BA000000 		movl	$_ZL28__gthrw___pthread_key_createPjPFvPvE, %edx
 773      00
 774 0120 4885D2   		testq	%rdx, %rdx
 775 0123 740C     		je	.L79
 776 0125 83CAFF   		orl	$-1, %edx
 777 0128 F00FC150 		lock xaddl	%edx, -8(%rax)
 777      F8
 778 012d 89D0     		movl	%edx, %eax
 779 012f EB0B     		jmp	.L80
 780              	.L79:
 781 0131 8B50F8   		movl	-8(%rax), %edx
 782 0134 8D4AFF   		leal	-1(%rdx), %ecx
 783 0137 8948F8   		movl	%ecx, -8(%rax)
 784 013a 89D0     		movl	%edx, %eax
 785              	.L80:
 786 013c 85C0     		testl	%eax, %eax
 787 013e 7F0A     		jg	.L78
 788 0140 488D7424 		leaq	7(%rsp), %rsi
 788      07
 789 0145 E8000000 		call	_ZNSs4_Rep10_M_destroyERKSaIcE
 789      00
 790              	.L78:
 791 014a 498B06   		movq	(%r14), %rax
 792 014d 488D78E8 		leaq	-24(%rax), %rdi
 793 0151 4881FF00 		cmpq	$_ZNSs4_Rep20_S_empty_rep_storageE, %rdi
 793      000000
 794 0158 742F     		je	.L98
 795 015a BA000000 		movl	$_ZL28__gthrw___pthread_key_createPjPFvPvE, %edx
 795      00
 796 015f 4885D2   		testq	%rdx, %rdx
 797 0162 740C     		je	.L84
 798 0164 83CAFF   		orl	$-1, %edx
 799 0167 F00FC150 		lock xaddl	%edx, -8(%rax)
 799      F8
 800 016c 89D0     		movl	%edx, %eax
 801 016e EB0B     		jmp	.L85
 802              	.L84:
 803 0170 8B50F8   		movl	-8(%rax), %edx
 804 0173 8D4AFF   		leal	-1(%rdx), %ecx
 805 0176 8948F8   		movl	%ecx, -8(%rax)
 806 0179 89D0     		movl	%edx, %eax
 807              	.L85:
 808 017b 85C0     		testl	%eax, %eax
 809 017d 7F0A     		jg	.L98
 810 017f 488D7424 		leaq	7(%rsp), %rsi
 810      07
 811 0184 E8000000 		call	_ZNSs4_Rep10_M_destroyERKSaIcE
 811      00
 812              	.L98:
 813 0189 4983C638 		addq	$56, %r14
 814 018d E9CEFEFF 		jmp	.L63
 814      FF
 815              	.L107:
 816 0192 498BBC24 		movq	360(%r12), %rdi
 816      68010000 
 817 019a 4885FF   		testq	%rdi, %rdi
 818 019d 7405     		je	.L88
 819 019f E8000000 		call	_ZdlPv
 819      00
 820              	.L88:
 821 01a4 498DBC24 		leaq	352(%r12), %rdi
 821      60010000 
 822              	.LEHB0:
 823 01ac E8000000 		call	_ZN8UnitTest12TestReporterD2Ev
 823      00
 824              	.LEHE0:
 825 01b1 498B4424 		movq	80(%r12), %rax
 825      50
 826 01b6 49C70424 		movq	$_ZTVSt19basic_ostringstreamIcSt11char_traitsIcESaIcEE+24, (%r12)
 826      00000000 
 827 01be 49C74424 		movq	$_ZTVSt19basic_ostringstreamIcSt11char_traitsIcESaIcEE+64, 88(%r12)
 827      58000000 
 827      00
 828 01c7 49C74424 		movq	$_ZTVSt15basic_stringbufIcSt11char_traitsIcESaIcEE+16, 8(%r12)
 828      08000000 
 828      00
 829 01d0 488D78E8 		leaq	-24(%rax), %rdi
 830 01d4 4881FF00 		cmpq	$_ZNSs4_Rep20_S_empty_rep_storageE, %rdi
 830      000000
 831 01db 742F     		je	.L90
 832 01dd BA000000 		movl	$_ZL28__gthrw___pthread_key_createPjPFvPvE, %edx
 832      00
 833 01e2 4885D2   		testq	%rdx, %rdx
 834 01e5 740C     		je	.L91
 835 01e7 83CAFF   		orl	$-1, %edx
 836 01ea F00FC150 		lock xaddl	%edx, -8(%rax)
 836      F8
 837 01ef 89D0     		movl	%edx, %eax
 838 01f1 EB0B     		jmp	.L92
 839              	.L91:
 840 01f3 8B50F8   		movl	-8(%rax), %edx
 841 01f6 8D4AFF   		leal	-1(%rdx), %ecx
 842 01f9 8948F8   		movl	%ecx, -8(%rax)
 843 01fc 89D0     		movl	%edx, %eax
 844              	.L92:
 845 01fe 85C0     		testl	%eax, %eax
 846 0200 7F0A     		jg	.L90
 847 0202 488D7424 		leaq	7(%rsp), %rsi
 847      07
 848 0207 E8000000 		call	_ZNSs4_Rep10_M_destroyERKSaIcE
 848      00
 849              	.L90:
 850 020c 498D7C24 		leaq	64(%r12), %rdi
 850      40
 851 0211 49C74424 		movq	$_ZTVSt15basic_streambufIcSt11char_traitsIcEE+16, 8(%r12)
 851      08000000 
 851      00
 852 021a E8000000 		call	_ZNSt6localeD1Ev
 852      00
 853 021f 488B0500 		movq	_ZTTSt19basic_ostringstreamIcSt11char_traitsIcESaIcEE+8(%rip), %rax
 853      000000
 854 0226 488B1500 		movq	_ZTTSt19basic_ostringstreamIcSt11char_traitsIcESaIcEE+16(%rip), %rdx
 854      000000
 855 022d 498D7C24 		leaq	88(%r12), %rdi
 855      58
 856 0232 488B40E8 		movq	-24(%rax), %rax
 857 0236 49891404 		movq	%rdx, (%r12,%rax)
 858 023a 49C74424 		movq	$_ZTVSt9basic_iosIcSt11char_traitsIcEE+16, 88(%r12)
 858      58000000 
 858      00
 859              	.LEHB1:
 860 0243 E8000000 		call	_ZNSt8ios_baseD2Ev
 860      00
 861              	.LEHE1:
 862 0248 488B4424 		movq	8(%rsp), %rax
 862      08
 863 024d 64483304 		xorq	%fs:40, %rax
 863      25280000 
 863      00
 864 0256 7418     		je	.L95
 865 0258 E8000000 		call	__stack_chk_fail
 865      00
 866              	.L96:
 867 025d 4889C3   		movq	%rax, %rbx
 868              	.L94:
 869 0260 4C89E7   		movq	%r12, %rdi
 870 0263 E8000000 		call	_ZNSt19basic_ostringstreamIcSt11char_traitsIcESaIcEED1Ev
 870      00
 871 0268 4889DF   		movq	%rbx, %rdi
 872              	.LEHB2:
 873 026b E8000000 		call	_Unwind_Resume
 873      00
 874              	.LEHE2:
 875              	.L95:
 876 0270 4883C410 		addq	$16, %rsp
 877              		.cfi_def_cfa_offset 48
 878 0274 5B       		popq	%rbx
 879              		.cfi_def_cfa_offset 40
 880 0275 5D       		popq	%rbp
 881              		.cfi_def_cfa_offset 32
 882 0276 415C     		popq	%r12
 883              		.cfi_def_cfa_offset 24
 884 0278 415D     		popq	%r13
 885              		.cfi_def_cfa_offset 16
 886 027a 415E     		popq	%r14
 887              		.cfi_def_cfa_offset 8
 888 027c C3       		ret
 889              		.cfi_endproc
 890              	.LFE1368:
 891              		.globl	__gxx_personality_v0
 892              		.section	.gcc_except_table,"a",@progbits
 893              	.LLSDA1368:
 894 0000 FF       		.byte	0xff
 895 0001 FF       		.byte	0xff
 896 0002 01       		.byte	0x1
 897 0003 10       		.uleb128 .LLSDACSE1368-.LLSDACSB1368
 898              	.LLSDACSB1368:
 899 0004 8403     		.uleb128 .LEHB0-.LFB1368
 900 0006 05       		.uleb128 .LEHE0-.LEHB0
 901 0007 B504     		.uleb128 .L96-.LFB1368
 902 0009 00       		.uleb128 0
 903 000a 9B04     		.uleb128 .LEHB1-.LFB1368
 904 000c 05       		.uleb128 .LEHE1-.LEHB1
 905 000d 00       		.uleb128 0
 906 000e 00       		.uleb128 0
 907 000f C304     		.uleb128 .LEHB2-.LFB1368
 908 0011 05       		.uleb128 .LEHE2-.LEHB2
 909 0012 00       		.uleb128 0
 910 0013 00       		.uleb128 0
 911              	.LLSDACSE1368:
 912              		.section	.text.unlikely
 914              	.LCOLDE21:
 915              	.LHOTE21:
 916              		.section	.text.unlikely._ZNSt15basic_stringbufIcSt11char_traitsIcESaIcEED2Ev,"axG",@progbits,_ZNSt
 917              		.align 2
 918              	.LCOLDB22:
 919              		.section	.text._ZNSt15basic_stringbufIcSt11char_traitsIcESaIcEED2Ev,"axG",@progbits,_ZNSt15basic_s
 920              	.LHOTB22:
 921              		.align 2
 922              		.p2align 4,,15
 923              		.weak	_ZNSt15basic_stringbufIcSt11char_traitsIcESaIcEED2Ev
 925              	_ZNSt15basic_stringbufIcSt11char_traitsIcESaIcEED2Ev:
 926              	.LFB1466:
 927              		.cfi_startproc
 928 0000 53       		pushq	%rbx
 929              		.cfi_def_cfa_offset 16
 930              		.cfi_offset 3, -16
 931 0001 4889FB   		movq	%rdi, %rbx
 932 0004 4883EC10 		subq	$16, %rsp
 933              		.cfi_def_cfa_offset 32
 934 0008 48C70700 		movq	$_ZTVSt15basic_stringbufIcSt11char_traitsIcESaIcEE+16, (%rdi)
 934      000000
 935 000f 64488B04 		movq	%fs:40, %rax
 935      25280000 
 935      00
 936 0018 48894424 		movq	%rax, 8(%rsp)
 936      08
 937 001d 31C0     		xorl	%eax, %eax
 938 001f 488B4748 		movq	72(%rdi), %rax
 939 0023 488D78E8 		leaq	-24(%rax), %rdi
 940 0027 4881FF00 		cmpq	$_ZNSs4_Rep20_S_empty_rep_storageE, %rdi
 940      000000
 941 002e 7530     		jne	.L117
 942              	.L111:
 943 0030 488D7B38 		leaq	56(%rbx), %rdi
 944 0034 48C70300 		movq	$_ZTVSt15basic_streambufIcSt11char_traitsIcEE+16, (%rbx)
 944      000000
 945 003b E8000000 		call	_ZNSt6localeD1Ev
 945      00
 946 0040 488B4424 		movq	8(%rsp), %rax
 946      08
 947 0045 64483304 		xorq	%fs:40, %rax
 947      25280000 
 947      00
 948 004e 754D     		jne	.L118
 949 0050 4883C410 		addq	$16, %rsp
 950              		.cfi_remember_state
 951              		.cfi_def_cfa_offset 16
 952 0054 5B       		popq	%rbx
 953              		.cfi_def_cfa_offset 8
 954 0055 C3       		ret
 955 0056 662E0F1F 		.p2align 4,,10
 955      84000000 
 955      0000
 956              		.p2align 3
 957              	.L117:
 958              		.cfi_restore_state
 959 0060 BA000000 		movl	$_ZL28__gthrw___pthread_key_createPjPFvPvE, %edx
 959      00
 960 0065 4885D2   		testq	%rdx, %rdx
 961 0068 7426     		je	.L112
 962 006a BAFFFFFF 		movl	$-1, %edx
 962      FF
 963 006f F00FC150 		lock xaddl	%edx, -8(%rax)
 963      F8
 964 0074 89D0     		movl	%edx, %eax
 965              	.L113:
 966 0076 85C0     		testl	%eax, %eax
 967 0078 7FB6     		jg	.L111
 968 007a 488D7424 		leaq	7(%rsp), %rsi
 968      07
 969 007f E8000000 		call	_ZNSs4_Rep10_M_destroyERKSaIcE
 969      00
 970 0084 EBAA     		jmp	.L111
 971 0086 662E0F1F 		.p2align 4,,10
 971      84000000 
 971      0000
 972              		.p2align 3
 973              	.L112:
 974 0090 8B50F8   		movl	-8(%rax), %edx
 975 0093 8D4AFF   		leal	-1(%rdx), %ecx
 976 0096 8948F8   		movl	%ecx, -8(%rax)
 977 0099 89D0     		movl	%edx, %eax
 978 009b EBD9     		jmp	.L113
 979              	.L118:
 980 009d E8000000 		call	__stack_chk_fail
 980      00
 981              		.cfi_endproc
 982              	.LFE1466:
 984              		.section	.text.unlikely._ZNSt15basic_stringbufIcSt11char_traitsIcESaIcEED2Ev,"axG",@progbits,_ZNSt
 985              	.LCOLDE22:
 986              		.section	.text._ZNSt15basic_stringbufIcSt11char_traitsIcESaIcEED2Ev,"axG",@progbits,_ZNSt15basic_s
 987              	.LHOTE22:
 988              		.weak	_ZNSt15basic_stringbufIcSt11char_traitsIcESaIcEED1Ev
 989              		.set	_ZNSt15basic_stringbufIcSt11char_traitsIcESaIcEED1Ev,_ZNSt15basic_stringbufIcSt11char_traitsI
 990              		.section	.text.unlikely._ZN8UnitTest15MemoryOutStreamC1Ev,"axG",@progbits,_ZN8UnitTest15MemoryOutS
 991              		.align 2
 992              	.LCOLDB23:
 993              		.section	.text._ZN8UnitTest15MemoryOutStreamC1Ev,"axG",@progbits,_ZN8UnitTest15MemoryOutStreamC1Ev
 994              	.LHOTB23:
 995              		.align 2
 996              		.p2align 4,,15
 997              		.weak	_ZN8UnitTest15MemoryOutStreamC1Ev
 999              	_ZN8UnitTest15MemoryOutStreamC1Ev:
 1000              	.LFB1080:
 1001              		.cfi_startproc
 1002              		.cfi_personality 0x3,__gxx_personality_v0
 1003              		.cfi_lsda 0x3,.LLSDA1080
 1004 0000 4155     		pushq	%r13
 1005              		.cfi_def_cfa_offset 16
 1006              		.cfi_offset 13, -16
 1007 0002 4154     		pushq	%r12
 1008              		.cfi_def_cfa_offset 24
 1009              		.cfi_offset 12, -24
 1010 0004 55       		pushq	%rbp
 1011              		.cfi_def_cfa_offset 32
 1012              		.cfi_offset 6, -32
 1013 0005 488D6F60 		leaq	96(%rdi), %rbp
 1014 0009 53       		pushq	%rbx
 1015              		.cfi_def_cfa_offset 40
 1016              		.cfi_offset 3, -40
 1017 000a 4889FB   		movq	%rdi, %rbx
 1018 000d 4883EC08 		subq	$8, %rsp
 1019              		.cfi_def_cfa_offset 48
 1020 0011 4889EF   		movq	%rbp, %rdi
 1021 0014 E8000000 		call	_ZNSt8ios_baseC2Ev
 1021      00
 1022 0019 48C78338 		movq	$0, 312(%rbx)
 1022      01000000 
 1022      000000
 1023 0024 C6834001 		movb	$0, 320(%rbx)
 1023      000000
 1024 002b 31F6     		xorl	%esi, %esi
 1025 002d C6834101 		movb	$0, 321(%rbx)
 1025      000000
 1026 0034 48C78348 		movq	$0, 328(%rbx)
 1026      01000000 
 1026      000000
 1027 003f 4889EF   		movq	%rbp, %rdi
 1028 0042 48C78350 		movq	$0, 336(%rbx)
 1028      01000000 
 1028      000000
 1029 004d 48C78358 		movq	$0, 344(%rbx)
 1029      01000000 
 1029      000000
 1030 0058 48C78360 		movq	$0, 352(%rbx)
 1030      01000000 
 1030      000000
 1031 0063 48C70300 		movq	$_ZTCN8UnitTest15MemoryOutStreamE0_So+24, (%rbx)
 1031      000000
 1032 006a 48C74360 		movq	$_ZTCN8UnitTest15MemoryOutStreamE0_So+64, 96(%rbx)
 1032      00000000 
 1033              	.LEHB3:
 1034 0072 E8000000 		call	_ZNSt9basic_iosIcSt11char_traitsIcEE4initEPSt15basic_streambufIcS1_E
 1034      00
 1035              	.LEHE3:
 1036 0077 488D7B40 		leaq	64(%rbx), %rdi
 1037 007b 48C70300 		movq	$_ZTCN8UnitTest15MemoryOutStreamE0_St19basic_ostringstreamIcSt11char_traitsIcESaIcEE+24, (%rb
 1037      000000
 1038 0082 48C74360 		movq	$_ZTCN8UnitTest15MemoryOutStreamE0_St19basic_ostringstreamIcSt11char_traitsIcESaIcEE+64, 96(%
 1038      00000000 
 1039 008a 48C74308 		movq	$_ZTVSt15basic_streambufIcSt11char_traitsIcEE+16, 8(%rbx)
 1039      00000000 
 1040 0092 48C74310 		movq	$0, 16(%rbx)
 1040      00000000 
 1041 009a 4C8D6308 		leaq	8(%rbx), %r12
 1042 009e 48C74318 		movq	$0, 24(%rbx)
 1042      00000000 
 1043 00a6 48C74320 		movq	$0, 32(%rbx)
 1043      00000000 
 1044 00ae 48C74328 		movq	$0, 40(%rbx)
 1044      00000000 
 1045 00b6 48C74330 		movq	$0, 48(%rbx)
 1045      00000000 
 1046 00be 48C74338 		movq	$0, 56(%rbx)
 1046      00000000 
 1047 00c6 E8000000 		call	_ZNSt6localeC1Ev
 1047      00
 1048 00cb 488B03   		movq	(%rbx), %rax
 1049 00ce 4889DF   		movq	%rbx, %rdi
 1050 00d1 48C74308 		movq	$_ZTVSt15basic_stringbufIcSt11char_traitsIcESaIcEE+16, 8(%rbx)
 1050      00000000 
 1051 00d9 C7434810 		movl	$16, 72(%rbx)
 1051      000000
 1052 00e0 48C74350 		movq	$_ZNSs4_Rep20_S_empty_rep_storageE+24, 80(%rbx)
 1052      00000000 
 1053 00e8 4C89E6   		movq	%r12, %rsi
 1054 00eb 480378E8 		addq	-24(%rax), %rdi
 1055              	.LEHB4:
 1056 00ef E8000000 		call	_ZNSt9basic_iosIcSt11char_traitsIcEE4initEPSt15basic_streambufIcS1_E
 1056      00
 1057              	.LEHE4:
 1058 00f4 48C70300 		movq	$_ZTVN8UnitTest15MemoryOutStreamE+24, (%rbx)
 1058      000000
 1059 00fb 48C74360 		movq	$_ZTVN8UnitTest15MemoryOutStreamE+64, 96(%rbx)
 1059      00000000 
 1060 0103 48C74358 		movq	$_ZNSs4_Rep20_S_empty_rep_storageE+24, 88(%rbx)
 1060      00000000 
 1061 010b 4883C408 		addq	$8, %rsp
 1062              		.cfi_remember_state
 1063              		.cfi_def_cfa_offset 40
 1064 010f 5B       		popq	%rbx
 1065              		.cfi_def_cfa_offset 32
 1066 0110 5D       		popq	%rbp
 1067              		.cfi_def_cfa_offset 24
 1068 0111 415C     		popq	%r12
 1069              		.cfi_def_cfa_offset 16
 1070 0113 415D     		popq	%r13
 1071              		.cfi_def_cfa_offset 8
 1072 0115 C3       		ret
 1073              	.L123:
 1074              		.cfi_restore_state
 1075 0116 4989C4   		movq	%rax, %r12
 1076 0119 EB0E     		jmp	.L122
 1077              	.L124:
 1078 011b 4989C5   		movq	%rax, %r13
 1079              	.L121:
 1080 011e 4C89E7   		movq	%r12, %rdi
 1081 0121 4D89EC   		movq	%r13, %r12
 1082 0124 E8000000 		call	_ZNSt15basic_stringbufIcSt11char_traitsIcESaIcEED1Ev
 1082      00
 1083              	.L122:
 1084 0129 4889EF   		movq	%rbp, %rdi
 1085 012c 48C74360 		movq	$_ZTVSt9basic_iosIcSt11char_traitsIcEE+16, 96(%rbx)
 1085      00000000 
 1086 0134 E8000000 		call	_ZNSt8ios_baseD2Ev
 1086      00
 1087 0139 4C89E7   		movq	%r12, %rdi
 1088              	.LEHB5:
 1089 013c E8000000 		call	_Unwind_Resume
 1089      00
 1090              	.LEHE5:
 1091              		.cfi_endproc
 1092              	.LFE1080:
 1093              		.section	.gcc_except_table
 1094              	.LLSDA1080:
 1095 0014 FF       		.byte	0xff
 1096 0015 FF       		.byte	0xff
 1097 0016 01       		.byte	0x1
 1098 0017 10       		.uleb128 .LLSDACSE1080-.LLSDACSB1080
 1099              	.LLSDACSB1080:
 1100 0018 72       		.uleb128 .LEHB3-.LFB1080
 1101 0019 05       		.uleb128 .LEHE3-.LEHB3
 1102 001a 9602     		.uleb128 .L123-.LFB1080
 1103 001c 00       		.uleb128 0
 1104 001d EF01     		.uleb128 .LEHB4-.LFB1080
 1105 001f 05       		.uleb128 .LEHE4-.LEHB4
 1106 0020 9B02     		.uleb128 .L124-.LFB1080
 1107 0022 00       		.uleb128 0
 1108 0023 BC02     		.uleb128 .LEHB5-.LFB1080
 1109 0025 05       		.uleb128 .LEHE5-.LEHB5
 1110 0026 00       		.uleb128 0
 1111 0027 00       		.uleb128 0
 1112              	.LLSDACSE1080:
 1113              		.section	.text._ZN8UnitTest15MemoryOutStreamC1Ev,"axG",@progbits,_ZN8UnitTest15MemoryOutStreamC1Ev
 1115              		.section	.text.unlikely._ZN8UnitTest15MemoryOutStreamC1Ev,"axG",@progbits,_ZN8UnitTest15MemoryOutS
 1116              	.LCOLDE23:
 1117              		.section	.text._ZN8UnitTest15MemoryOutStreamC1Ev,"axG",@progbits,_ZN8UnitTest15MemoryOutStreamC1Ev
 1118              	.LHOTE23:
 1119              		.section	.rodata.str1.1,"aMS",@progbits,1
 1120              	.LC24:
 1121 0000 556E6861 		.string	"Unhandled system exception"
 1121      6E646C65 
 1121      64207379 
 1121      7374656D 
 1121      20657863 
 1122              	.LC25:
 1123 001b 00       		.string	""
 1124              	.LC26:
 1125 001c 6D657373 		.string	"message"
 1125      61676500 
 1126              	.LC28:
 1127 0024 6F757470 		.string	"output.str().empty()"
 1127      75742E73 
 1127      74722829 
 1127      2E656D70 
 1127      74792829 
 1128              	.LC29:
 1129 0039 216F7574 		.string	"!output.str().empty()"
 1129      7075742E 
 1129      73747228 
 1129      292E656D 
 1129      70747928 
 1130              		.section	.rodata.str1.8,"aMS",@progbits,1
 1131              		.align 8
 1132              	.LC30:
 1133 0000 556E6861 		.string	"Unhandled exception in CHECK(output.str().empty())"
 1133      6E646C65 
 1133      64206578 
 1133      63657074 
 1133      696F6E20 
 1134 0033 00000000 		.align 8
 1134      00
 1135              	.LC31:
 1136 0038 556E6861 		.string	"Unhandled exception in CHECK(!output.str().empty())"
 1136      6E646C65 
 1136      64206578 
 1136      63657074 
 1136      696F6E20 
 1137              		.section	.rodata.str1.1
 1138              	.LC32:
 1139 004f 556E6861 		.string	"Unhandled exception: "
 1139      6E646C65 
 1139      64206578 
 1139      63657074 
 1139      696F6E3A 
 1140              	.LC33:
 1141 0065 556E6861 		.string	"Unhandled exception: Crash!"
 1141      6E646C65 
 1141      64206578 
 1141      63657074 
 1141      696F6E3A 
 1142              		.section	.rodata.str1.8
 1143 006c 00000000 		.align 8
 1144              	.LC34:
 1145 0070 62617369 		.string	"basic_string::_S_construct null not valid"
 1145      635F7374 
 1145      72696E67 
 1145      3A3A5F53 
 1145      5F636F6E 
 1146              		.section	.text.unlikely
 1147              	.LCOLDB35:
 1148              		.text
 1149              	.LHOTB35:
 1150 0179 0F1F8000 		.p2align 4,,15
 1150      000000
 1152              	_ZN8UnitTest11ExecuteTestIN12_GLOBAL__N_168XmlTestReporterFixtureOutputIsCachedUntilReportSummaryIs
 1153              	.LFB1489:
 1154              		.cfi_startproc
 1155              		.cfi_personality 0x3,__gxx_personality_v0
 1156              		.cfi_lsda 0x3,.LLSDA1489
 1157 0180 4155     		pushq	%r13
 1158              		.cfi_def_cfa_offset 16
 1159              		.cfi_offset 13, -16
 1160 0182 4154     		pushq	%r12
 1161              		.cfi_def_cfa_offset 24
 1162              		.cfi_offset 12, -24
 1163 0184 55       		pushq	%rbp
 1164              		.cfi_def_cfa_offset 32
 1165              		.cfi_offset 6, -32
 1166 0185 53       		pushq	%rbx
 1167              		.cfi_def_cfa_offset 40
 1168              		.cfi_offset 3, -40
 1169 0186 4889F3   		movq	%rsi, %rbx
 1170 0189 4881EC28 		subq	$1832, %rsp
 1170      070000
 1171              		.cfi_def_cfa_offset 1872
 1172 0190 48893C24 		movq	%rdi, (%rsp)
 1173 0194 48897424 		movq	%rsi, 8(%rsp)
 1173      08
 1174 0199 64488B04 		movq	%fs:40, %rax
 1174      25280000 
 1174      00
 1175 01a2 48898424 		movq	%rax, 1816(%rsp)
 1175      18070000 
 1176 01aa 31C0     		xorl	%eax, %eax
 1177              	.LEHB6:
 1178 01ac E8000000 		call	_ZN8UnitTest11CurrentTest7DetailsEv
 1178      00
 1179              	.LEHE6:
 1180 01b1 488DBC24 		leaq	688(%rsp), %rdi
 1180      B0020000 
 1181 01b9 488918   		movq	%rbx, (%rax)
 1182              	.LEHB7:
 1183 01bc E8000000 		call	_ZN8UnitTest16SignalTranslatorC1Ev
 1183      00
 1184              	.LEHE7:
 1185 01c1 488B3D00 		movq	_ZN8UnitTest16SignalTranslator12s_jumpTargetE(%rip), %rdi
 1185      000000
 1186 01c8 BE010000 		movl	$1, %esi
 1186      00
 1187 01cd E8000000 		call	__sigsetjmp
 1187      00
 1188 01d2 85C0     		testl	%eax, %eax
 1189 01d4 0F85A600 		jne	.L269
 1189      0000
 1190 01da B9000000 		movl	$.LC25, %ecx
 1190      00
 1191 01df 488DBC24 		leaq	160(%rsp), %rdi
 1191      A0000000 
 1192 01e7 4531C0   		xorl	%r8d, %r8d
 1193 01ea 4889CA   		movq	%rcx, %rdx
 1194 01ed 4889CE   		movq	%rcx, %rsi
 1195              	.LEHB8:
 1196 01f0 E8000000 		call	_ZN8UnitTest11TestDetailsC1EPKcS2_S2_i
 1196      00
 1197 01f5 488B2C24 		movq	(%rsp), %rbp
 1198 01f9 488DB424 		leaq	160(%rsp), %rsi
 1198      A0000000 
 1199 0201 488D9D60 		leaq	352(%rbp), %rbx
 1199      010000
 1200 0208 4889DF   		movq	%rbx, %rdi
 1201 020b E8000000 		call	_ZN8UnitTest20DeferredTestReporter15ReportTestStartERKNS_11TestDetailsE
 1201      00
 1202 0210 488DB424 		leaq	160(%rsp), %rsi
 1202      A0000000 
 1203 0218 BA000000 		movl	$.LC26, %edx
 1203      00
 1204 021d 4889DF   		movq	%rbx, %rdi
 1205 0220 E8000000 		call	_ZN8UnitTest20DeferredTestReporter13ReportFailureERKNS_11TestDetailsEPKc
 1205      00
 1206 0225 488DB424 		leaq	160(%rsp), %rsi
 1206      A0000000 
 1207 022d F30F1005 		movss	.LC27(%rip), %xmm0
 1207      00000000 
 1208 0235 4889DF   		movq	%rbx, %rdi
 1209 0238 E8000000 		call	_ZN8UnitTest20DeferredTestReporter16ReportTestFinishERKNS_11TestDetailsEf
 1209      00
 1210              	.LEHE8:
 1211 023d 488B4530 		movq	48(%rbp), %rax
 1212 0241 48C74424 		movq	$_ZNSs4_Rep20_S_empty_rep_storageE+24, 48(%rsp)
 1212      30000000 
 1212      00
 1213 024a 4885C0   		testq	%rax, %rax
 1214 024d 0F846D02 		je	.L132
 1214      0000
 1215 0253 488B7D20 		movq	32(%rbp), %rdi
 1216 0257 4839F8   		cmpq	%rdi, %rax
 1217 025a 7644     		jbe	.L133
 1218 025c 488B1424 		movq	(%rsp), %rdx
 1219 0260 4C8B6228 		movq	40(%rdx), %r12
 1220 0264 4C39E0   		cmpq	%r12, %rax
 1221 0267 0F84EB01 		je	.L229
 1221      0000
 1222 026d 4D85E4   		testq	%r12, %r12
 1223 0270 0F850304 		jne	.L270
 1223      0000
 1224 0276 BF000000 		movl	$.LC34, %edi
 1224      00
 1225              	.LEHB9:
 1226 027b E8000000 		call	_ZSt19__throw_logic_errorPKc
 1226      00
 1227              	.LEHE9:
 1228              		.p2align 4,,10
 1229              		.p2align 3
 1230              	.L269:
 1231 0280 BF080000 		movl	$8, %edi
 1231      00
 1232 0285 E8000000 		call	__cxa_allocate_exception
 1232      00
 1233 028a 31D2     		xorl	%edx, %edx
 1234 028c 48C70000 		movq	$.LC24, (%rax)
 1234      000000
 1235 0293 BE000000 		movl	$_ZTIPKc, %esi
 1235      00
 1236 0298 4889C7   		movq	%rax, %rdi
 1237              	.LEHB10:
 1238 029b E8000000 		call	__cxa_throw
 1238      00
 1239              	.LEHE10:
 1240              		.p2align 4,,10
 1241              		.p2align 3
 1242              	.L133:
 1243 02a0 488B0424 		movq	(%rsp), %rax
 1244 02a4 4C8B6028 		movq	40(%rax), %r12
 1245 02a8 4C39E7   		cmpq	%r12, %rdi
 1246 02ab 0F84E700 		je	.L230
 1246      0000
 1247 02b1 4D85E4   		testq	%r12, %r12
 1248 02b4 0F856F03 		jne	.L147
 1248      0000
 1249 02ba 4885FF   		testq	%rdi, %rdi
 1250 02bd 0F846603 		je	.L147
 1250      0000
 1251 02c3 BF000000 		movl	$.LC34, %edi
 1251      00
 1252              	.LEHB11:
 1253 02c8 E8000000 		call	_ZSt19__throw_logic_errorPKc
 1253      00
 1254              	.LEHE11:
 1255              	.L234:
 1256 02cd 4889C3   		movq	%rax, %rbx
 1257 02d0 4889D5   		movq	%rdx, %rbp
 1258              	.L212:
 1259 02d3 488DBC24 		leaq	688(%rsp), %rdi
 1259      B0020000 
 1260 02db E8000000 		call	_ZN8UnitTest16SignalTranslatorD1Ev
 1260      00
 1261 02e0 4889DF   		movq	%rbx, %rdi
 1262 02e3 4889EA   		movq	%rbp, %rdx
 1263              	.L214:
 1264 02e6 4883FA01 		cmpq	$1, %rdx
 1265 02ea 0F848708 		je	.L216
 1265      0000
 1266 02f0 4883FA02 		cmpq	$2, %rdx
 1267 02f4 0F855708 		jne	.L271
 1267      0000
 1268 02fa E8000000 		call	__cxa_begin_catch
 1268      00
 1269 02ff 488DBC24 		leaq	320(%rsp), %rdi
 1269      40010000 
 1270 0307 4889C3   		movq	%rax, %rbx
 1271              	.LEHB12:
 1272 030a E8000000 		call	_ZN8UnitTest15MemoryOutStreamC1Ev
 1272      00
 1273              	.LEHE12:
 1274 030f 488B03   		movq	(%rbx), %rax
 1275 0312 4889DF   		movq	%rbx, %rdi
 1276 0315 FF5010   		call	*16(%rax)
 1277 0318 488DBC24 		leaq	320(%rsp), %rdi
 1277      40010000 
 1278 0320 BE000000 		movl	$.LC32, %esi
 1278      00
 1279 0325 4889C3   		movq	%rax, %rbx
 1280              	.LEHB13:
 1281 0328 E8000000 		call	_ZStlsISt11char_traitsIcEERSt13basic_ostreamIcT_ES5_PKc
 1281      00
 1282 032d 4889C7   		movq	%rax, %rdi
 1283 0330 4889DE   		movq	%rbx, %rsi
 1284 0333 E8000000 		call	_ZStlsISt11char_traitsIcEERSt13basic_ostreamIcT_ES5_PKc
 1284      00
 1285 0338 488DBC24 		leaq	320(%rsp), %rdi
 1285      40010000 
 1286 0340 E8000000 		call	_ZNK8UnitTest15MemoryOutStream7GetTextEv
 1286      00
 1287 0345 4889C3   		movq	%rax, %rbx
 1288 0348 E8000000 		call	_ZN8UnitTest11CurrentTest7ResultsEv
 1288      00
 1289 034d 488B7424 		movq	8(%rsp), %rsi
 1289      08
 1290 0352 488B38   		movq	(%rax), %rdi
 1291 0355 4889DA   		movq	%rbx, %rdx
 1292 0358 E8000000 		call	_ZN8UnitTest11TestResults13OnTestFailureERKNS_11TestDetailsEPKc
 1292      00
 1293              	.LEHE13:
 1294 035d 488DBC24 		leaq	320(%rsp), %rdi
 1294      40010000 
 1295              	.LEHB14:
 1296 0365 E8000000 		call	_ZN8UnitTest15MemoryOutStreamD1Ev
 1296      00
 1297              	.LEHE14:
 1298              	.L258:
 1299 036a E8000000 		call	__cxa_end_catch
 1299      00
 1300 036f 90       		.p2align 4,,10
 1301              		.p2align 3
 1302              	.L129:
 1303 0370 488B8424 		movq	1816(%rsp), %rax
 1303      18070000 
 1304 0378 64483304 		xorq	%fs:40, %rax
 1304      25280000 
 1304      00
 1305 0381 0F85D106 		jne	.L272
 1305      0000
 1306 0387 4881C428 		addq	$1832, %rsp
 1306      070000
 1307              		.cfi_remember_state
 1308              		.cfi_def_cfa_offset 40
 1309 038e 5B       		popq	%rbx
 1310              		.cfi_def_cfa_offset 32
 1311 038f 5D       		popq	%rbp
 1312              		.cfi_def_cfa_offset 24
 1313 0390 415C     		popq	%r12
 1314              		.cfi_def_cfa_offset 16
 1315 0392 415D     		popq	%r13
 1316              		.cfi_def_cfa_offset 8
 1317 0394 C3       		ret
 1318              		.p2align 4,,10
 1319 0395 0F1F00   		.p2align 3
 1320              	.L230:
 1321              		.cfi_restore_state
 1322 0398 B9000000 		movl	$_ZNSs4_Rep20_S_empty_rep_storageE+24, %ecx
 1322      00
 1323 039d 0F1F00   		.p2align 4,,10
 1324              		.p2align 3
 1325              	.L144:
 1326 03a0 488D7424 		leaq	64(%rsp), %rsi
 1326      40
 1327 03a5 488D7C24 		leaq	48(%rsp), %rdi
 1327      30
 1328 03aa 48894C24 		movq	%rcx, 64(%rsp)
 1328      40
 1329              	.LEHB15:
 1330 03af E8000000 		call	_ZNSs6assignERKSs
 1330      00
 1331              	.LEHE15:
 1332 03b4 488B4424 		movq	64(%rsp), %rax
 1332      40
 1333 03b9 488D78E8 		leaq	-24(%rax), %rdi
 1334 03bd 4881FF00 		cmpq	$_ZNSs4_Rep20_S_empty_rep_storageE, %rdi
 1334      000000
 1335 03c4 0F85BE05 		jne	.L273
 1335      0000
 1336              	.L140:
 1337 03ca 488B4424 		movq	48(%rsp), %rax
 1337      30
 1338 03cf 488D78E8 		leaq	-24(%rax), %rdi
 1339 03d3 488B68E8 		movq	-24(%rax), %rbp
 1340 03d7 4881FF00 		cmpq	$_ZNSs4_Rep20_S_empty_rep_storageE, %rdi
 1340      000000
 1341 03de 0F85BC04 		jne	.L164
 1341      0000
 1342              	.L169:
 1343 03e4 4885ED   		testq	%rbp, %rbp
 1344 03e7 0F850302 		jne	.L274
 1344      0000
 1345              	.L170:
 1346 03ed F30F1005 		movss	.LC27(%rip), %xmm0
 1346      00000000 
 1347 03f5 B9010000 		movl	$1, %ecx
 1347      00
 1348 03fa BA010000 		movl	$1, %edx
 1348      00
 1349 03ff BE010000 		movl	$1, %esi
 1349      00
 1350 0404 4889DF   		movq	%rbx, %rdi
 1351              	.LEHB16:
 1352 0407 E8000000 		call	_ZN8UnitTest15XmlTestReporter13ReportSummaryEiiif
 1352      00
 1353              	.LEHE16:
 1354 040c 488B0C24 		movq	(%rsp), %rcx
 1355 0410 48C74424 		movq	$_ZNSs4_Rep20_S_empty_rep_storageE+24, 32(%rsp)
 1355      20000000 
 1355      00
 1356 0419 488B4130 		movq	48(%rcx), %rax
 1357 041d 4885C0   		testq	%rax, %rax
 1358 0420 0F840A05 		je	.L171
 1358      0000
 1359 0426 488B7920 		movq	32(%rcx), %rdi
 1360 042a 4839F8   		cmpq	%rdi, %rax
 1361 042d 0F868D01 		jbe	.L172
 1361      0000
 1362 0433 488B6928 		movq	40(%rcx), %rbp
 1363 0437 4839E8   		cmpq	%rbp, %rax
 1364 043a 0F84E004 		je	.L231
 1364      0000
 1365 0440 4885ED   		testq	%rbp, %rbp
 1366 0443 0F858302 		jne	.L275
 1366      0000
 1367 0449 BF000000 		movl	$.LC34, %edi
 1367      00
 1368              	.LEHB17:
 1369 044e E8000000 		call	_ZSt19__throw_logic_errorPKc
 1369      00
 1370              	.LEHE17:
 1371              		.p2align 4,,10
 1372 0453 0F1F4400 		.p2align 3
 1372      00
 1373              	.L229:
 1374 0458 B9000000 		movl	$_ZNSs4_Rep20_S_empty_rep_storageE+24, %ecx
 1374      00
 1375 045d 0F1F00   		.p2align 4,,10
 1376              		.p2align 3
 1377              	.L134:
 1378 0460 488D7424 		leaq	80(%rsp), %rsi
 1378      50
 1379 0465 488D7C24 		leaq	48(%rsp), %rdi
 1379      30
 1380 046a 48894C24 		movq	%rcx, 80(%rsp)
 1380      50
 1381              	.LEHB18:
 1382 046f E8000000 		call	_ZNSs6assignERKSs
 1382      00
 1383              	.LEHE18:
 1384 0474 488B4424 		movq	80(%rsp), %rax
 1384      50
 1385 0479 488D78E8 		leaq	-24(%rax), %rdi
 1386 047d 4881FF00 		cmpq	$_ZNSs4_Rep20_S_empty_rep_storageE, %rdi
 1386      000000
 1387 0484 0F8440FF 		je	.L140
 1387      FFFF
 1388 048a BA000000 		movl	$_ZL28__gthrw___pthread_key_createPjPFvPvE, %edx
 1388      00
 1389 048f 4885D2   		testq	%rdx, %rdx
 1390 0492 0F84B005 		je	.L141
 1390      0000
 1391 0498 BAFFFFFF 		movl	$-1, %edx
 1391      FF
 1392 049d F00FC150 		lock xaddl	%edx, -8(%rax)
 1392      F8
 1393 04a2 89D0     		movl	%edx, %eax
 1394              	.L142:
 1395 04a4 85C0     		testl	%eax, %eax
 1396 04a6 0F8F1EFF 		jg	.L140
 1396      FFFF
 1397 04ac 488D7424 		leaq	22(%rsp), %rsi
 1397      16
 1398 04b1 E8000000 		call	_ZNSs4_Rep10_M_destroyERKSaIcE
 1398      00
 1399 04b6 E90FFFFF 		jmp	.L140
 1399      FF
 1400 04bb 0F1F4400 		.p2align 4,,10
 1400      00
 1401              		.p2align 3
 1402              	.L132:
 1403 04c0 488B0424 		movq	(%rsp), %rax
 1404 04c4 488D7C24 		leaq	48(%rsp), %rdi
 1404      30
 1405 04c9 488D7050 		leaq	80(%rax), %rsi
 1406              	.LEHB19:
 1407 04cd E8000000 		call	_ZNSs6assignERKSs
 1407      00
 1408              	.LEHE19:
 1409 04d2 E9F3FEFF 		jmp	.L140
 1409      FF
 1410              	.L243:
 1411 04d7 4889C5   		movq	%rax, %rbp
 1412              	.L156:
 1413 04da 488B4424 		movq	48(%rsp), %rax
 1413      30
 1414 04df 488D78E8 		leaq	-24(%rax), %rdi
 1415 04e3 4881FF00 		cmpq	$_ZNSs4_Rep20_S_empty_rep_storageE, %rdi
 1415      000000
 1416 04ea 740A     		je	.L163
 1417 04ec 488D7424 		leaq	18(%rsp), %rsi
 1417      12
 1418 04f1 E8000000 		call	_ZNSs4_Rep10_M_disposeERKSaIcE.part.5
 1418      00
 1419              	.L163:
 1420 04f6 4889E8   		movq	%rbp, %rax
 1421              	.L162:
 1422 04f9 4889C7   		movq	%rax, %rdi
 1423 04fc E8000000 		call	__cxa_begin_catch
 1423      00
 1424              	.LEHB20:
 1425 0501 E8000000 		call	_ZN8UnitTest11CurrentTest7DetailsEv
 1425      00
 1426 0506 488B30   		movq	(%rax), %rsi
 1427 0509 488DBC24 		leaq	256(%rsp), %rdi
 1427      00010000 
 1428 0511 BA3E0000 		movl	$62, %edx
 1428      00
 1429 0516 E8000000 		call	_ZN8UnitTest11TestDetailsC1ERKS0_i
 1429      00
 1430 051b E8000000 		call	_ZN8UnitTest11CurrentTest7ResultsEv
 1430      00
 1431 0520 488B38   		movq	(%rax), %rdi
 1432 0523 488DB424 		leaq	256(%rsp), %rsi
 1432      00010000 
 1433 052b BA000000 		movl	$.LC30, %edx
 1433      00
 1434 0530 E8000000 		call	_ZN8UnitTest11TestResults13OnTestFailureERKNS_11TestDetailsEPKc
 1434      00
 1435              	.LEHE20:
 1436              	.LEHB21:
 1437 0535 E8000000 		call	__cxa_end_catch
 1437      00
 1438              	.LEHE21:
 1439 053a E9AEFEFF 		jmp	.L170
 1439      FF
 1440              	.L246:
 1441 053f 4889C3   		movq	%rax, %rbx
 1442              	.L195:
 1443 0542 488B4424 		movq	32(%rsp), %rax
 1443      20
 1444 0547 488D78E8 		leaq	-24(%rax), %rdi
 1445 054b 4881FF00 		cmpq	$_ZNSs4_Rep20_S_empty_rep_storageE, %rdi
 1445      000000
 1446 0552 740A     		je	.L202
 1447 0554 488D7424 		leaq	25(%rsp), %rsi
 1447      19
 1448 0559 E8000000 		call	_ZNSs4_Rep10_M_disposeERKSaIcE.part.5
 1448      00
 1449              	.L202:
 1450 055e 4889D8   		movq	%rbx, %rax
 1451              	.L201:
 1452 0561 4889C7   		movq	%rax, %rdi
 1453 0564 E8000000 		call	__cxa_begin_catch
 1453      00
 1454              	.LEHB22:
 1455 0569 E8000000 		call	_ZN8UnitTest11CurrentTest7DetailsEv
 1455      00
 1456 056e 488B30   		movq	(%rax), %rsi
 1457 0571 488DBC24 		leaq	192(%rsp), %rdi
 1457      C0000000 
 1458 0579 BA410000 		movl	$65, %edx
 1458      00
 1459 057e E8000000 		call	_ZN8UnitTest11TestDetailsC1ERKS0_i
 1459      00
 1460 0583 E8000000 		call	_ZN8UnitTest11CurrentTest7ResultsEv
 1460      00
 1461 0588 488B38   		movq	(%rax), %rdi
 1462 058b 488DB424 		leaq	192(%rsp), %rsi
 1462      C0000000 
 1463 0593 BA000000 		movl	$.LC31, %edx
 1463      00
 1464 0598 E8000000 		call	_ZN8UnitTest11TestResults13OnTestFailureERKNS_11TestDetailsEPKc
 1464      00
 1465              	.LEHE22:
 1466              	.LEHB23:
 1467 059d E8000000 		call	__cxa_end_catch
 1467      00
 1468              	.LEHE23:
 1469              		.p2align 4,,10
 1470 05a2 660F1F44 		.p2align 3
 1470      0000
 1471              	.L209:
 1472 05a8 488DBC24 		leaq	688(%rsp), %rdi
 1472      B0020000 
 1473              	.LEHB24:
 1474 05b0 E8000000 		call	_ZN8UnitTest16SignalTranslatorD1Ev
 1474      00
 1475              	.LEHE24:
 1476 05b5 E9B6FDFF 		jmp	.L129
 1476      FF
 1477 05ba 660F1F44 		.p2align 4,,10
 1477      0000
 1478              		.p2align 3
 1479              	.L172:
 1480 05c0 488B0424 		movq	(%rsp), %rax
 1481 05c4 488B6828 		movq	40(%rax), %rbp
 1482 05c8 4839EF   		cmpq	%rbp, %rdi
 1483 05cb 0F843F03 		je	.L232
 1483      0000
 1484 05d1 4885ED   		testq	%rbp, %rbp
 1485 05d4 0F85B401 		jne	.L186
 1485      0000
 1486 05da 4885FF   		testq	%rdi, %rdi
 1487 05dd 0F84AB01 		je	.L186
 1487      0000
 1488 05e3 BF000000 		movl	$.LC34, %edi
 1488      00
 1489              	.LEHB25:
 1490 05e8 E8000000 		call	_ZSt19__throw_logic_errorPKc
 1490      00
 1491              	.LEHE25:
 1492 05ed 0F1F00   		.p2align 4,,10
 1493              		.p2align 3
 1494              	.L274:
 1495              	.LEHB26:
 1496 05f0 E8000000 		call	_ZN8UnitTest11CurrentTest7DetailsEv
 1496      00
 1497 05f5 488B30   		movq	(%rax), %rsi
 1498 05f8 488DBC24 		leaq	288(%rsp), %rdi
 1498      20010000 
 1499 0600 BA3E0000 		movl	$62, %edx
 1499      00
 1500 0605 E8000000 		call	_ZN8UnitTest11TestDetailsC1ERKS0_i
 1500      00
 1501 060a E8000000 		call	_ZN8UnitTest11CurrentTest7ResultsEv
 1501      00
 1502 060f 488B38   		movq	(%rax), %rdi
 1503 0612 488DB424 		leaq	288(%rsp), %rsi
 1503      20010000 
 1504 061a BA000000 		movl	$.LC28, %edx
 1504      00
 1505 061f E8000000 		call	_ZN8UnitTest11TestResults13OnTestFailureERKNS_11TestDetailsEPKc
 1505      00
 1506              	.LEHE26:
 1507 0624 E9C4FDFF 		jmp	.L170
 1507      FF
 1508              	.L147:
 1509 0629 488D5424 		leaq	23(%rsp), %rdx
 1509      17
 1510 062e 4C29E7   		subq	%r12, %rdi
 1511 0631 31F6     		xorl	%esi, %esi
 1512 0633 4889FD   		movq	%rdi, %rbp
 1513              	.LEHB27:
 1514 0636 E8000000 		call	_ZNSs4_Rep9_S_createEmmRKSaIcE
 1514      00
 1515 063b 4883FD01 		cmpq	$1, %rbp
 1516 063f 4989C5   		movq	%rax, %r13
 1517 0642 488D4818 		leaq	24(%rax), %rcx
 1518 0646 0F85DC01 		jne	.L148
 1518      0000
 1519 064c 410FB604 		movzbl	(%r12), %eax
 1519      24
 1520 0651 41884518 		movb	%al, 24(%r13)
 1521              	.L149:
 1522 0655 4981FD00 		cmpq	$_ZNSs4_Rep20_S_empty_rep_storageE, %r13
 1522      000000
 1523 065c 0F843EFD 		je	.L144
 1523      FFFF
 1524 0662 41C74510 		movl	$0, 16(%r13)
 1524      00000000 
 1525 066a 49896D00 		movq	%rbp, 0(%r13)
 1526 066e 41C6442D 		movb	$0, 24(%r13,%rbp)
 1526      1800
 1527 0674 E927FDFF 		jmp	.L144
 1527      FF
 1528              	.L270:
 1529 0679 4C29E0   		subq	%r12, %rax
 1530 067c 488D5424 		leaq	24(%rsp), %rdx
 1530      18
 1531 0681 31F6     		xorl	%esi, %esi
 1532 0683 4889C7   		movq	%rax, %rdi
 1533 0686 4889C5   		movq	%rax, %rbp
 1534 0689 E8000000 		call	_ZNSs4_Rep9_S_createEmmRKSaIcE
 1534      00
 1535              	.LEHE27:
 1536 068e 4883FD01 		cmpq	$1, %rbp
 1537 0692 4989C5   		movq	%rax, %r13
 1538 0695 488D4818 		leaq	24(%rax), %rcx
 1539 0699 0F85A101 		jne	.L137
 1539      0000
 1540 069f 410FB604 		movzbl	(%r12), %eax
 1540      24
 1541 06a4 41884518 		movb	%al, 24(%r13)
 1542              	.L138:
 1543 06a8 4981FD00 		cmpq	$_ZNSs4_Rep20_S_empty_rep_storageE, %r13
 1543      000000
 1544 06af 0F84ABFD 		je	.L134
 1544      FFFF
 1545 06b5 41C74510 		movl	$0, 16(%r13)
 1545      00000000 
 1546 06bd 49896D00 		movq	%rbp, 0(%r13)
 1547 06c1 41C6442D 		movb	$0, 24(%r13,%rbp)
 1547      1800
 1548 06c7 E994FDFF 		jmp	.L134
 1548      FF
 1549              	.L275:
 1550 06cc 4829E8   		subq	%rbp, %rax
 1551 06cf 488D5424 		leaq	31(%rsp), %rdx
 1551      1F
 1552 06d4 31F6     		xorl	%esi, %esi
 1553 06d6 4889C7   		movq	%rax, %rdi
 1554 06d9 4889C3   		movq	%rax, %rbx
 1555              	.LEHB28:
 1556 06dc E8000000 		call	_ZNSs4_Rep9_S_createEmmRKSaIcE
 1556      00
 1557              	.LEHE28:
 1558 06e1 4883FB01 		cmpq	$1, %rbx
 1559 06e5 4989C4   		movq	%rax, %r12
 1560 06e8 488D4818 		leaq	24(%rax), %rcx
 1561 06ec 0F858E01 		jne	.L176
 1561      0000
 1562 06f2 0FB64500 		movzbl	0(%rbp), %eax
 1563 06f6 41884424 		movb	%al, 24(%r12)
 1563      18
 1564              	.L177:
 1565 06fb 4981FC00 		cmpq	$_ZNSs4_Rep20_S_empty_rep_storageE, %r12
 1565      000000
 1566 0702 0F85D802 		jne	.L276
 1566      0000
 1567              	.L173:
 1568 0708 488D7424 		leaq	112(%rsp), %rsi
 1568      70
 1569 070d 488D7C24 		leaq	32(%rsp), %rdi
 1569      20
 1570 0712 48894C24 		movq	%rcx, 112(%rsp)
 1570      70
 1571              	.LEHB29:
 1572 0717 E8000000 		call	_ZNSs6assignERKSs
 1572      00
 1573              	.LEHE29:
 1574 071c 488B4424 		movq	112(%rsp), %rax
 1574      70
 1575 0721 488D78E8 		leaq	-24(%rax), %rdi
 1576 0725 4881FF00 		cmpq	$_ZNSs4_Rep20_S_empty_rep_storageE, %rdi
 1576      000000
 1577 072c 0F851E02 		jne	.L277
 1577      0000
 1578              	.L179:
 1579 0732 488B4424 		movq	32(%rsp), %rax
 1579      20
 1580 0737 488D78E8 		leaq	-24(%rax), %rdi
 1581 073b 488B58E8 		movq	-24(%rax), %rbx
 1582 073f 4881FF00 		cmpq	$_ZNSs4_Rep20_S_empty_rep_storageE, %rdi
 1582      000000
 1583 0746 0F858C01 		jne	.L203
 1583      0000
 1584              	.L208:
 1585 074c 4885DB   		testq	%rbx, %rbx
 1586 074f 0F8553FE 		jne	.L209
 1586      FFFF
 1587              	.LEHB30:
 1588 0755 E8000000 		call	_ZN8UnitTest11CurrentTest7DetailsEv
 1588      00
 1589 075a 488B30   		movq	(%rax), %rsi
 1590 075d 488DBC24 		leaq	224(%rsp), %rdi
 1590      E0000000 
 1591 0765 BA410000 		movl	$65, %edx
 1591      00
 1592 076a E8000000 		call	_ZN8UnitTest11TestDetailsC1ERKS0_i
 1592      00
 1593 076f E8000000 		call	_ZN8UnitTest11CurrentTest7ResultsEv
 1593      00
 1594 0774 488B38   		movq	(%rax), %rdi
 1595 0777 488DB424 		leaq	224(%rsp), %rsi
 1595      E0000000 
 1596 077f BA000000 		movl	$.LC29, %edx
 1596      00
 1597 0784 E8000000 		call	_ZN8UnitTest11TestResults13OnTestFailureERKNS_11TestDetailsEPKc
 1597      00
 1598              	.LEHE30:
 1599 0789 E91AFEFF 		jmp	.L209
 1599      FF
 1600              	.L186:
 1601 078e 4889FB   		movq	%rdi, %rbx
 1602 0791 488D5424 		leaq	30(%rsp), %rdx
 1602      1E
 1603 0796 31F6     		xorl	%esi, %esi
 1604 0798 4829EB   		subq	%rbp, %rbx
 1605 079b 4889DF   		movq	%rbx, %rdi
 1606              	.LEHB31:
 1607 079e E8000000 		call	_ZNSs4_Rep9_S_createEmmRKSaIcE
 1607      00
 1608              	.LEHE31:
 1609 07a3 4883FB01 		cmpq	$1, %rbx
 1610 07a7 4989C4   		movq	%rax, %r12
 1611 07aa 488D4818 		leaq	24(%rax), %rcx
 1612 07ae 0F85AC00 		jne	.L187
 1612      0000
 1613 07b4 0FB64500 		movzbl	0(%rbp), %eax
 1614 07b8 41884424 		movb	%al, 24(%r12)
 1614      18
 1615              	.L188:
 1616 07bd 4981FC00 		cmpq	$_ZNSs4_Rep20_S_empty_rep_storageE, %r12
 1616      000000
 1617 07c4 0F853602 		jne	.L278
 1617      0000
 1618              	.L183:
 1619 07ca 488D7424 		leaq	96(%rsp), %rsi
 1619      60
 1620 07cf 488D7C24 		leaq	32(%rsp), %rdi
 1620      20
 1621 07d4 48894C24 		movq	%rcx, 96(%rsp)
 1621      60
 1622              	.LEHB32:
 1623 07d9 E8000000 		call	_ZNSs6assignERKSs
 1623      00
 1624              	.LEHE32:
 1625 07de 488B4424 		movq	96(%rsp), %rax
 1625      60
 1626 07e3 488D78E8 		leaq	-24(%rax), %rdi
 1627 07e7 4881FF00 		cmpq	$_ZNSs4_Rep20_S_empty_rep_storageE, %rdi
 1627      000000
 1628 07ee 0F843EFF 		je	.L179
 1628      FFFF
 1629 07f4 BA000000 		movl	$_ZL28__gthrw___pthread_key_createPjPFvPvE, %edx
 1629      00
 1630 07f9 4885D2   		testq	%rdx, %rdx
 1631 07fc 0F842602 		je	.L190
 1631      0000
 1632 0802 BAFFFFFF 		movl	$-1, %edx
 1632      FF
 1633 0807 F00FC150 		lock xaddl	%edx, -8(%rax)
 1633      F8
 1634 080c 89D0     		movl	%edx, %eax
 1635              	.L191:
 1636 080e 85C0     		testl	%eax, %eax
 1637 0810 0F8F1CFF 		jg	.L179
 1637      FFFF
 1638 0816 488D7424 		leaq	28(%rsp), %rsi
 1638      1C
 1639 081b E8000000 		call	_ZNSs4_Rep10_M_destroyERKSaIcE
 1639      00
 1640 0820 E90DFFFF 		jmp	.L179
 1640      FF
 1641              		.p2align 4,,10
 1642 0825 0F1F00   		.p2align 3
 1643              	.L148:
 1644 0828 4889CF   		movq	%rcx, %rdi
 1645 082b 4889EA   		movq	%rbp, %rdx
 1646 082e 4C89E6   		movq	%r12, %rsi
 1647 0831 E8000000 		call	memcpy
 1647      00
 1648 0836 4889C1   		movq	%rax, %rcx
 1649 0839 E917FEFF 		jmp	.L149
 1649      FF
 1650 083e 6690     		.p2align 4,,10
 1651              		.p2align 3
 1652              	.L137:
 1653 0840 4889CF   		movq	%rcx, %rdi
 1654 0843 4889EA   		movq	%rbp, %rdx
 1655 0846 4C89E6   		movq	%r12, %rsi
 1656 0849 E8000000 		call	memcpy
 1656      00
 1657 084e 4889C1   		movq	%rax, %rcx
 1658 0851 E952FEFF 		jmp	.L138
 1658      FF
 1659 0856 662E0F1F 		.p2align 4,,10
 1659      84000000 
 1659      0000
 1660              		.p2align 3
 1661              	.L187:
 1662 0860 4889CF   		movq	%rcx, %rdi
 1663 0863 4889DA   		movq	%rbx, %rdx
 1664 0866 4889EE   		movq	%rbp, %rsi
 1665 0869 E8000000 		call	memcpy
 1665      00
 1666 086e 4889C1   		movq	%rax, %rcx
 1667 0871 E947FFFF 		jmp	.L188
 1667      FF
 1668 0876 662E0F1F 		.p2align 4,,10
 1668      84000000 
 1668      0000
 1669              		.p2align 3
 1670              	.L176:
 1671 0880 4889CF   		movq	%rcx, %rdi
 1672 0883 4889DA   		movq	%rbx, %rdx
 1673 0886 4889EE   		movq	%rbp, %rsi
 1674 0889 E8000000 		call	memcpy
 1674      00
 1675 088e 4889C1   		movq	%rax, %rcx
 1676 0891 E965FEFF 		jmp	.L177
 1676      FF
 1677 0896 662E0F1F 		.p2align 4,,10
 1677      84000000 
 1677      0000
 1678              		.p2align 3
 1679              	.L164:
 1680 08a0 BA000000 		movl	$_ZL28__gthrw___pthread_key_createPjPFvPvE, %edx
 1680      00
 1681 08a5 4885D2   		testq	%rdx, %rdx
 1682 08a8 0F842201 		je	.L167
 1682      0000
 1683 08ae BAFFFFFF 		movl	$-1, %edx
 1683      FF
 1684 08b3 F00FC150 		lock xaddl	%edx, -8(%rax)
 1684      F8
 1685 08b8 89D0     		movl	%edx, %eax
 1686              	.L168:
 1687 08ba 85C0     		testl	%eax, %eax
 1688 08bc 0F8F22FB 		jg	.L169
 1688      FFFF
 1689 08c2 488D7424 		leaq	17(%rsp), %rsi
 1689      11
 1690 08c7 E8000000 		call	_ZNSs4_Rep10_M_destroyERKSaIcE
 1690      00
 1691 08cc E913FBFF 		jmp	.L169
 1691      FF
 1692              		.p2align 4,,10
 1693 08d1 0F1F8000 		.p2align 3
 1693      000000
 1694              	.L203:
 1695 08d8 BA000000 		movl	$_ZL28__gthrw___pthread_key_createPjPFvPvE, %edx
 1695      00
 1696 08dd 4885D2   		testq	%rdx, %rdx
 1697 08e0 0F84DA00 		je	.L206
 1697      0000
 1698 08e6 BAFFFFFF 		movl	$-1, %edx
 1698      FF
 1699 08eb F00FC150 		lock xaddl	%edx, -8(%rax)
 1699      F8
 1700 08f0 89D0     		movl	%edx, %eax
 1701              	.L207:
 1702 08f2 85C0     		testl	%eax, %eax
 1703 08f4 0F8F52FE 		jg	.L208
 1703      FFFF
 1704 08fa 488D7424 		leaq	16(%rsp), %rsi
 1704      10
 1705 08ff E8000000 		call	_ZNSs4_Rep10_M_destroyERKSaIcE
 1705      00
 1706 0904 E943FEFF 		jmp	.L208
 1706      FF
 1707 0909 0F1F8000 		.p2align 4,,10
 1707      000000
 1708              		.p2align 3
 1709              	.L232:
 1710 0910 B9000000 		movl	$_ZNSs4_Rep20_S_empty_rep_storageE+24, %ecx
 1710      00
 1711 0915 E9B0FEFF 		jmp	.L183
 1711      FF
 1712 091a 660F1F44 		.p2align 4,,10
 1712      0000
 1713              		.p2align 3
 1714              	.L231:
 1715 0920 B9000000 		movl	$_ZNSs4_Rep20_S_empty_rep_storageE+24, %ecx
 1715      00
 1716 0925 E9DEFDFF 		jmp	.L173
 1716      FF
 1717 092a 660F1F44 		.p2align 4,,10
 1717      0000
 1718              		.p2align 3
 1719              	.L171:
 1720 0930 4889CE   		movq	%rcx, %rsi
 1721 0933 488D7C24 		leaq	32(%rsp), %rdi
 1721      20
 1722 0938 4883C650 		addq	$80, %rsi
 1723              	.LEHB33:
 1724 093c E8000000 		call	_ZNSs6assignERKSs
 1724      00
 1725              	.LEHE33:
 1726 0941 E9ECFDFF 		jmp	.L179
 1726      FF
 1727 0946 662E0F1F 		.p2align 4,,10
 1727      84000000 
 1727      0000
 1728              		.p2align 3
 1729              	.L277:
 1730 0950 BA000000 		movl	$_ZL28__gthrw___pthread_key_createPjPFvPvE, %edx
 1730      00
 1731 0955 4885D2   		testq	%rdx, %rdx
 1732 0958 0F84DA00 		je	.L180
 1732      0000
 1733 095e BAFFFFFF 		movl	$-1, %edx
 1733      FF
 1734 0963 F00FC150 		lock xaddl	%edx, -8(%rax)
 1734      F8
 1735 0968 89D0     		movl	%edx, %eax
 1736              	.L181:
 1737 096a 85C0     		testl	%eax, %eax
 1738 096c 0F8FC0FD 		jg	.L179
 1738      FFFF
 1739 0972 488D7424 		leaq	29(%rsp), %rsi
 1739      1D
 1740 0977 E8000000 		call	_ZNSs4_Rep10_M_destroyERKSaIcE
 1740      00
 1741 097c E9B1FDFF 		jmp	.L179
 1741      FF
 1742              		.p2align 4,,10
 1743 0981 0F1F8000 		.p2align 3
 1743      000000
 1744              	.L273:
 1745 0988 BA000000 		movl	$_ZL28__gthrw___pthread_key_createPjPFvPvE, %edx
 1745      00
 1746 098d 4885D2   		testq	%rdx, %rdx
 1747 0990 0F848200 		je	.L151
 1747      0000
 1748 0996 BAFFFFFF 		movl	$-1, %edx
 1748      FF
 1749 099b F00FC150 		lock xaddl	%edx, -8(%rax)
 1749      F8
 1750 09a0 89D0     		movl	%edx, %eax
 1751              	.L152:
 1752 09a2 85C0     		testl	%eax, %eax
 1753 09a4 0F8F20FA 		jg	.L140
 1753      FFFF
 1754 09aa 488D7424 		leaq	21(%rsp), %rsi
 1754      15
 1755 09af E8000000 		call	_ZNSs4_Rep10_M_destroyERKSaIcE
 1755      00
 1756 09b4 E911FAFF 		jmp	.L140
 1756      FF
 1757 09b9 0F1F8000 		.p2align 4,,10
 1757      000000
 1758              		.p2align 3
 1759              	.L206:
 1760 09c0 8B50F8   		movl	-8(%rax), %edx
 1761 09c3 8D4AFF   		leal	-1(%rdx), %ecx
 1762 09c6 8948F8   		movl	%ecx, -8(%rax)
 1763 09c9 89D0     		movl	%edx, %eax
 1764 09cb E922FFFF 		jmp	.L207
 1764      FF
 1765              		.p2align 4,,10
 1766              		.p2align 3
 1767              	.L167:
 1768 09d0 8B50F8   		movl	-8(%rax), %edx
 1769 09d3 8D4AFF   		leal	-1(%rdx), %ecx
 1770 09d6 8948F8   		movl	%ecx, -8(%rax)
 1771 09d9 89D0     		movl	%edx, %eax
 1772 09db E9DAFEFF 		jmp	.L168
 1772      FF
 1773              		.p2align 4,,10
 1774              		.p2align 3
 1775              	.L276:
 1776 09e0 41C74424 		movl	$0, 16(%r12)
 1776      10000000 
 1776      00
 1777 09e9 49891C24 		movq	%rbx, (%r12)
 1778 09ed 41C6441C 		movb	$0, 24(%r12,%rbx)
 1778      1800
 1779 09f3 E910FDFF 		jmp	.L173
 1779      FF
 1780 09f8 0F1F8400 		.p2align 4,,10
 1780      00000000 
 1781              		.p2align 3
 1782              	.L278:
 1783 0a00 41C74424 		movl	$0, 16(%r12)
 1783      10000000 
 1783      00
 1784 0a09 49891C24 		movq	%rbx, (%r12)
 1785 0a0d 41C6441C 		movb	$0, 24(%r12,%rbx)
 1785      1800
 1786 0a13 E9B2FDFF 		jmp	.L183
 1786      FF
 1787              	.L151:
 1788 0a18 8B50F8   		movl	-8(%rax), %edx
 1789 0a1b 8D4AFF   		leal	-1(%rdx), %ecx
 1790 0a1e 8948F8   		movl	%ecx, -8(%rax)
 1791 0a21 89D0     		movl	%edx, %eax
 1792 0a23 E97AFFFF 		jmp	.L152
 1792      FF
 1793              	.L190:
 1794 0a28 8B50F8   		movl	-8(%rax), %edx
 1795 0a2b 8D4AFF   		leal	-1(%rdx), %ecx
 1796 0a2e 8948F8   		movl	%ecx, -8(%rax)
 1797 0a31 89D0     		movl	%edx, %eax
 1798 0a33 E9D6FDFF 		jmp	.L191
 1798      FF
 1799              	.L180:
 1800 0a38 8B50F8   		movl	-8(%rax), %edx
 1801 0a3b 8D4AFF   		leal	-1(%rdx), %ecx
 1802 0a3e 8948F8   		movl	%ecx, -8(%rax)
 1803 0a41 89D0     		movl	%edx, %eax
 1804 0a43 E922FFFF 		jmp	.L181
 1804      FF
 1805              	.L141:
 1806 0a48 8B50F8   		movl	-8(%rax), %edx
 1807 0a4b 8D4AFF   		leal	-1(%rdx), %ecx
 1808 0a4e 8948F8   		movl	%ecx, -8(%rax)
 1809 0a51 89D0     		movl	%edx, %eax
 1810 0a53 E94CFAFF 		jmp	.L142
 1810      FF
 1811              	.L272:
 1812 0a58 E8000000 		call	__stack_chk_fail
 1812      00
 1813              	.L233:
 1814 0a5d 4889C7   		movq	%rax, %rdi
 1815 0a60 E981F8FF 		jmp	.L214
 1815      FF
 1816              	.L239:
 1817 0a65 4889C3   		movq	%rax, %rbx
 1818 0a68 4889D5   		movq	%rdx, %rbp
 1819 0a6b E8000000 		call	__cxa_end_catch
 1819      00
 1820 0a70 E95EF8FF 		jmp	.L212
 1820      FF
 1821              	.L247:
 1822 0a75 4889C3   		movq	%rax, %rbx
 1823 0a78 488B4424 		movq	96(%rsp), %rax
 1823      60
 1824 0a7d 488D78E8 		leaq	-24(%rax), %rdi
 1825 0a81 4881FF00 		cmpq	$_ZNSs4_Rep20_S_empty_rep_storageE, %rdi
 1825      000000
 1826 0a88 0F84B4FA 		je	.L195
 1826      FFFF
 1827 0a8e 488D7424 		leaq	26(%rsp), %rsi
 1827      1A
 1828 0a93 E8000000 		call	_ZNSs4_Rep10_M_disposeERKSaIcE.part.5
 1828      00
 1829 0a98 E9A5FAFF 		jmp	.L195
 1829      FF
 1830              	.L241:
 1831 0a9d 4889C3   		movq	%rax, %rbx
 1832 0aa0 4889D5   		movq	%rdx, %rbp
 1833 0aa3 E8000000 		call	__cxa_end_catch
 1833      00
 1834 0aa8 E926F8FF 		jmp	.L212
 1834      FF
 1835              	.L242:
 1836 0aad E947FAFF 		jmp	.L162
 1836      FF
 1837              	.L248:
 1838 0ab2 4889C3   		movq	%rax, %rbx
 1839 0ab5 488B4424 		movq	112(%rsp), %rax
 1839      70
 1840 0aba 488D78E8 		leaq	-24(%rax), %rdi
 1841 0abe 4881FF00 		cmpq	$_ZNSs4_Rep20_S_empty_rep_storageE, %rdi
 1841      000000
 1842 0ac5 0F8477FA 		je	.L195
 1842      FFFF
 1843 0acb 488D7424 		leaq	27(%rsp), %rsi
 1843      1B
 1844 0ad0 E8000000 		call	_ZNSs4_Rep10_M_disposeERKSaIcE.part.5
 1844      00
 1845 0ad5 E968FAFF 		jmp	.L195
 1845      FF
 1846              	.L240:
 1847 0ada E982FAFF 		jmp	.L201
 1847      FF
 1848              	.L244:
 1849 0adf 4889C5   		movq	%rax, %rbp
 1850 0ae2 488B4424 		movq	64(%rsp), %rax
 1850      40
 1851 0ae7 488D78E8 		leaq	-24(%rax), %rdi
 1852 0aeb 4881FF00 		cmpq	$_ZNSs4_Rep20_S_empty_rep_storageE, %rdi
 1852      000000
 1853 0af2 0F84E2F9 		je	.L156
 1853      FFFF
 1854 0af8 488D7424 		leaq	19(%rsp), %rsi
 1854      13
 1855 0afd E8000000 		call	_ZNSs4_Rep10_M_disposeERKSaIcE.part.5
 1855      00
 1856 0b02 E9D3F9FF 		jmp	.L156
 1856      FF
 1857              	.L245:
 1858 0b07 4889C5   		movq	%rax, %rbp
 1859 0b0a 488B4424 		movq	80(%rsp), %rax
 1859      50
 1860 0b0f 488D78E8 		leaq	-24(%rax), %rdi
 1861 0b13 4881FF00 		cmpq	$_ZNSs4_Rep20_S_empty_rep_storageE, %rdi
 1861      000000
 1862 0b1a 0F84BAF9 		je	.L156
 1862      FFFF
 1863 0b20 488D7424 		leaq	20(%rsp), %rsi
 1863      14
 1864 0b25 E8000000 		call	_ZNSs4_Rep10_M_disposeERKSaIcE.part.5
 1864      00
 1865 0b2a E9ABF9FF 		jmp	.L156
 1865      FF
 1866              	.L237:
 1867 0b2f 488DBC24 		leaq	320(%rsp), %rdi
 1867      40010000 
 1868 0b37 4889C3   		movq	%rax, %rbx
 1869 0b3a E8000000 		call	_ZN8UnitTest15MemoryOutStreamD1Ev
 1869      00
 1870              	.L220:
 1871 0b3f E8000000 		call	__cxa_end_catch
 1871      00
 1872 0b44 4889DF   		movq	%rbx, %rdi
 1873              	.LEHB34:
 1874 0b47 E8000000 		call	_Unwind_Resume
 1874      00
 1875              	.LEHE34:
 1876              	.L236:
 1877              	.L259:
 1878 0b4c 4889C3   		movq	%rax, %rbx
 1879 0b4f EBEE     		jmp	.L220
 1880              	.L271:
 1881 0b51 E8000000 		call	__cxa_begin_catch
 1881      00
 1882              	.LEHB35:
 1883 0b56 E8000000 		call	_ZN8UnitTest11CurrentTest7ResultsEv
 1883      00
 1884 0b5b 488B7424 		movq	8(%rsp), %rsi
 1884      08
 1885 0b60 488B38   		movq	(%rax), %rdi
 1886 0b63 BA000000 		movl	$.LC33, %edx
 1886      00
 1887 0b68 E8000000 		call	_ZN8UnitTest11TestResults13OnTestFailureERKNS_11TestDetailsEPKc
 1887      00
 1888              	.LEHE35:
 1889              	.LEHB36:
 1890 0b6d E8000000 		call	__cxa_end_catch
 1890      00
 1891              	.LEHE36:
 1892 0b72 E9F9F7FF 		jmp	.L129
 1892      FF
 1893              	.L216:
 1894 0b77 E8000000 		call	__cxa_begin_catch
 1894      00
 1895 0b7c 4889C3   		movq	%rax, %rbx
 1896 0b7f 488B00   		movq	(%rax), %rax
 1897 0b82 4889DF   		movq	%rbx, %rdi
 1898 0b85 FF5010   		call	*16(%rax)
 1899 0b88 4889DF   		movq	%rbx, %rdi
 1900 0b8b 4889C5   		movq	%rax, %rbp
 1901              	.LEHB37:
 1902 0b8e E8000000 		call	_ZNK8UnitTest15AssertException10LineNumberEv
 1902      00
 1903 0b93 4889DF   		movq	%rbx, %rdi
 1904 0b96 4189C4   		movl	%eax, %r12d
 1905 0b99 E8000000 		call	_ZNK8UnitTest15AssertException8FilenameEv
 1905      00
 1906 0b9e 4889C1   		movq	%rax, %rcx
 1907 0ba1 488B4424 		movq	8(%rsp), %rax
 1907      08
 1908 0ba6 488DBC24 		leaq	128(%rsp), %rdi
 1908      80000000 
 1909 0bae 4589E0   		movl	%r12d, %r8d
 1910 0bb1 488B7008 		movq	8(%rax), %rsi
 1911 0bb5 488B10   		movq	(%rax), %rdx
 1912 0bb8 E8000000 		call	_ZN8UnitTest11TestDetailsC1EPKcS2_S2_i
 1912      00
 1913 0bbd E8000000 		call	_ZN8UnitTest11CurrentTest7ResultsEv
 1913      00
 1914 0bc2 488B38   		movq	(%rax), %rdi
 1915 0bc5 488DB424 		leaq	128(%rsp), %rsi
 1915      80000000 
 1916 0bcd 4889EA   		movq	%rbp, %rdx
 1917 0bd0 E8000000 		call	_ZN8UnitTest11TestResults13OnTestFailureERKNS_11TestDetailsEPKc
 1917      00
 1918              	.LEHE37:
 1919 0bd5 E990F7FF 		jmp	.L258
 1919      FF
 1920              	.L238:
 1921 0bda 4889C3   		movq	%rax, %rbx
 1922 0bdd E8000000 		call	__cxa_end_catch
 1922      00
 1923 0be2 4889DF   		movq	%rbx, %rdi
 1924              	.LEHB38:
 1925 0be5 E8000000 		call	_Unwind_Resume
 1925      00
 1926              	.LEHE38:
 1927              	.L235:
 1928 0bea E95DFFFF 		jmp	.L259
 1928      FF
 1929              		.cfi_endproc
 1930              	.LFE1489:
 1931              		.section	.gcc_except_table
 1932              		.align 4
 1933              	.LLSDA1489:
 1934 0028 FF       		.byte	0xff
 1935 0029 03       		.byte	0x3
 1936 002a D801     		.uleb128 .LLSDATT1489-.LLSDATTD1489
 1937              	.LLSDATTD1489:
 1938 002c 01       		.byte	0x1
 1939 002d BF01     		.uleb128 .LLSDACSE1489-.LLSDACSB1489
 1940              	.LLSDACSB1489:
 1941 002f 2C       		.uleb128 .LEHB6-.LFB1489
 1942 0030 05       		.uleb128 .LEHE6-.LEHB6
 1943 0031 00       		.uleb128 0
 1944 0032 00       		.uleb128 0
 1945 0033 3C       		.uleb128 .LEHB7-.LFB1489
 1946 0034 05       		.uleb128 .LEHE7-.LEHB7
 1947 0035 DD11     		.uleb128 .L233-.LFB1489
 1948 0037 05       		.uleb128 0x5
 1949 0038 70       		.uleb128 .LEHB8-.LFB1489
 1950 0039 4D       		.uleb128 .LEHE8-.LEHB8
 1951 003a CD02     		.uleb128 .L234-.LFB1489
 1952 003c 07       		.uleb128 0x7
 1953 003d FB01     		.uleb128 .LEHB9-.LFB1489
 1954 003f 05       		.uleb128 .LEHE9-.LEHB9
 1955 0040 D706     		.uleb128 .L243-.LFB1489
 1956 0042 01       		.uleb128 0x1
 1957 0043 9B02     		.uleb128 .LEHB10-.LFB1489
 1958 0045 05       		.uleb128 .LEHE10-.LEHB10
 1959 0046 CD02     		.uleb128 .L234-.LFB1489
 1960 0048 07       		.uleb128 0x7
 1961 0049 C802     		.uleb128 .LEHB11-.LFB1489
 1962 004b 05       		.uleb128 .LEHE11-.LEHB11
 1963 004c D706     		.uleb128 .L243-.LFB1489
 1964 004e 01       		.uleb128 0x1
 1965 004f 8A03     		.uleb128 .LEHB12-.LFB1489
 1966 0051 05       		.uleb128 .LEHE12-.LEHB12
 1967 0052 CC13     		.uleb128 .L236-.LFB1489
 1968 0054 00       		.uleb128 0
 1969 0055 A803     		.uleb128 .LEHB13-.LFB1489
 1970 0057 35       		.uleb128 .LEHE13-.LEHB13
 1971 0058 AF13     		.uleb128 .L237-.LFB1489
 1972 005a 00       		.uleb128 0
 1973 005b E503     		.uleb128 .LEHB14-.LFB1489
 1974 005d 05       		.uleb128 .LEHE14-.LEHB14
 1975 005e CC13     		.uleb128 .L236-.LFB1489
 1976 0060 00       		.uleb128 0
 1977 0061 AF04     		.uleb128 .LEHB15-.LFB1489
 1978 0063 05       		.uleb128 .LEHE15-.LEHB15
 1979 0064 DF12     		.uleb128 .L244-.LFB1489
 1980 0066 01       		.uleb128 0x1
 1981 0067 8705     		.uleb128 .LEHB16-.LFB1489
 1982 0069 05       		.uleb128 .LEHE16-.LEHB16
 1983 006a CD02     		.uleb128 .L234-.LFB1489
 1984 006c 07       		.uleb128 0x7
 1985 006d CE05     		.uleb128 .LEHB17-.LFB1489
 1986 006f 05       		.uleb128 .LEHE17-.LEHB17
 1987 0070 BF07     		.uleb128 .L246-.LFB1489
 1988 0072 01       		.uleb128 0x1
 1989 0073 EF05     		.uleb128 .LEHB18-.LFB1489
 1990 0075 05       		.uleb128 .LEHE18-.LEHB18
 1991 0076 8713     		.uleb128 .L245-.LFB1489
 1992 0078 01       		.uleb128 0x1
 1993 0079 CD06     		.uleb128 .LEHB19-.LFB1489
 1994 007b 05       		.uleb128 .LEHE19-.LEHB19
 1995 007c D706     		.uleb128 .L243-.LFB1489
 1996 007e 01       		.uleb128 0x1
 1997 007f 8107     		.uleb128 .LEHB20-.LFB1489
 1998 0081 34       		.uleb128 .LEHE20-.LEHB20
 1999 0082 9D12     		.uleb128 .L241-.LFB1489
 2000 0084 07       		.uleb128 0x7
 2001 0085 B507     		.uleb128 .LEHB21-.LFB1489
 2002 0087 05       		.uleb128 .LEHE21-.LEHB21
 2003 0088 CD02     		.uleb128 .L234-.LFB1489
 2004 008a 07       		.uleb128 0x7
 2005 008b E907     		.uleb128 .LEHB22-.LFB1489
 2006 008d 34       		.uleb128 .LEHE22-.LEHB22
 2007 008e E511     		.uleb128 .L239-.LFB1489
 2008 0090 07       		.uleb128 0x7
 2009 0091 9D08     		.uleb128 .LEHB23-.LFB1489
 2010 0093 05       		.uleb128 .LEHE23-.LEHB23
 2011 0094 CD02     		.uleb128 .L234-.LFB1489
 2012 0096 07       		.uleb128 0x7
 2013 0097 B008     		.uleb128 .LEHB24-.LFB1489
 2014 0099 05       		.uleb128 .LEHE24-.LEHB24
 2015 009a DD11     		.uleb128 .L233-.LFB1489
 2016 009c 05       		.uleb128 0x5
 2017 009d E808     		.uleb128 .LEHB25-.LFB1489
 2018 009f 05       		.uleb128 .LEHE25-.LEHB25
 2019 00a0 BF07     		.uleb128 .L246-.LFB1489
 2020 00a2 01       		.uleb128 0x1
 2021 00a3 F008     		.uleb128 .LEHB26-.LFB1489
 2022 00a5 34       		.uleb128 .LEHE26-.LEHB26
 2023 00a6 AD12     		.uleb128 .L242-.LFB1489
 2024 00a8 01       		.uleb128 0x1
 2025 00a9 B609     		.uleb128 .LEHB27-.LFB1489
 2026 00ab 58       		.uleb128 .LEHE27-.LEHB27
 2027 00ac D706     		.uleb128 .L243-.LFB1489
 2028 00ae 01       		.uleb128 0x1
 2029 00af DC0A     		.uleb128 .LEHB28-.LFB1489
 2030 00b1 05       		.uleb128 .LEHE28-.LEHB28
 2031 00b2 BF07     		.uleb128 .L246-.LFB1489
 2032 00b4 01       		.uleb128 0x1
 2033 00b5 970B     		.uleb128 .LEHB29-.LFB1489
 2034 00b7 05       		.uleb128 .LEHE29-.LEHB29
 2035 00b8 B212     		.uleb128 .L248-.LFB1489
 2036 00ba 01       		.uleb128 0x1
 2037 00bb D50B     		.uleb128 .LEHB30-.LFB1489
 2038 00bd 34       		.uleb128 .LEHE30-.LEHB30
 2039 00be DA12     		.uleb128 .L240-.LFB1489
 2040 00c0 01       		.uleb128 0x1
 2041 00c1 9E0C     		.uleb128 .LEHB31-.LFB1489
 2042 00c3 05       		.uleb128 .LEHE31-.LEHB31
 2043 00c4 BF07     		.uleb128 .L246-.LFB1489
 2044 00c6 01       		.uleb128 0x1
 2045 00c7 D90C     		.uleb128 .LEHB32-.LFB1489
 2046 00c9 05       		.uleb128 .LEHE32-.LEHB32
 2047 00ca F511     		.uleb128 .L247-.LFB1489
 2048 00cc 01       		.uleb128 0x1
 2049 00cd BC0F     		.uleb128 .LEHB33-.LFB1489
 2050 00cf 05       		.uleb128 .LEHE33-.LEHB33
 2051 00d0 BF07     		.uleb128 .L246-.LFB1489
 2052 00d2 01       		.uleb128 0x1
 2053 00d3 C713     		.uleb128 .LEHB34-.LFB1489
 2054 00d5 05       		.uleb128 .LEHE34-.LEHB34
 2055 00d6 00       		.uleb128 0
 2056 00d7 00       		.uleb128 0
 2057 00d8 D613     		.uleb128 .LEHB35-.LFB1489
 2058 00da 17       		.uleb128 .LEHE35-.LEHB35
 2059 00db DA14     		.uleb128 .L238-.LFB1489
 2060 00dd 00       		.uleb128 0
 2061 00de ED13     		.uleb128 .LEHB36-.LFB1489
 2062 00e0 05       		.uleb128 .LEHE36-.LEHB36
 2063 00e1 00       		.uleb128 0
 2064 00e2 00       		.uleb128 0
 2065 00e3 8E14     		.uleb128 .LEHB37-.LFB1489
 2066 00e5 47       		.uleb128 .LEHE37-.LEHB37
 2067 00e6 EA14     		.uleb128 .L235-.LFB1489
 2068 00e8 00       		.uleb128 0
 2069 00e9 E514     		.uleb128 .LEHB38-.LFB1489
 2070 00eb 05       		.uleb128 .LEHE38-.LEHB38
 2071 00ec 00       		.uleb128 0
 2072 00ed 00       		.uleb128 0
 2073              	.LLSDACSE1489:
 2074 00ee 03       		.byte	0x3
 2075 00ef 00       		.byte	0
 2076 00f0 02       		.byte	0x2
 2077 00f1 7D       		.byte	0x7d
 2078 00f2 01       		.byte	0x1
 2079 00f3 7D       		.byte	0x7d
 2080 00f4 00       		.byte	0
 2081 00f5 7D       		.byte	0x7d
 2082 00f6 0000     		.align 4
 2083 00f8 00000000 		.long	0
 2084              	
 2085 00fc 00000000 		.long	_ZTISt9exception
 2086 0100 00000000 		.long	_ZTIN8UnitTest15AssertExceptionE
 2087              	.LLSDATT1489:
 2088              		.text
 2090              		.section	.text.unlikely
 2091              	.LCOLDE35:
 2092              		.text
 2093              	.LHOTE35:
 2094              		.section	.rodata.str1.8
 2095 009a 00000000 		.align 8
 2095      0000
 2096              	.LC36:
 2097 00a0 556E6861 		.string	"Unhandled exception while destroying fixture XmlTestReporterFixture"
 2097      6E646C65 
 2097      64206578 
 2097      63657074 
 2097      696F6E20 
 2098 00e4 00000000 		.align 8
 2099              	.LC37:
 2100 00e8 556E6861 		.string	"Unhandled exception while constructing fixture XmlTestReporterFixture"
 2100      6E646C65 
 2100      64206578 
 2100      63657074 
 2100      696F6E20 
 2101              		.section	.text.unlikely
 2102 027d 90       		.align 2
 2103              	.LCOLDB38:
 2104              		.text
 2105              	.LHOTB38:
 2106 0bef 90       		.align 2
 2107              		.p2align 4,,15
 2109              	_ZNK12_GLOBAL__N_166TestXmlTestReporterFixtureOutputIsCachedUntilReportSummaryIsCalled7RunImplEv:
 2110              	.LFB1386:
 2111              		.cfi_startproc
 2112              		.cfi_personality 0x3,__gxx_personality_v0
 2113              		.cfi_lsda 0x3,.LLSDA1386
 2114 0bf0 4157     		pushq	%r15
 2115              		.cfi_def_cfa_offset 16
 2116              		.cfi_offset 15, -16
 2117 0bf2 4156     		pushq	%r14
 2118              		.cfi_def_cfa_offset 24
 2119              		.cfi_offset 14, -24
 2120 0bf4 4155     		pushq	%r13
 2121              		.cfi_def_cfa_offset 32
 2122              		.cfi_offset 13, -32
 2123 0bf6 4154     		pushq	%r12
 2124              		.cfi_def_cfa_offset 40
 2125              		.cfi_offset 12, -40
 2126 0bf8 4C8D6F08 		leaq	8(%rdi), %r13
 2127 0bfc 55       		pushq	%rbp
 2128              		.cfi_def_cfa_offset 48
 2129              		.cfi_offset 6, -48
 2130 0bfd 53       		pushq	%rbx
 2131              		.cfi_def_cfa_offset 56
 2132              		.cfi_offset 3, -56
 2133 0bfe 4881ECD8 		subq	$472, %rsp
 2133      010000
 2134              		.cfi_def_cfa_offset 528
 2135 0c05 48897C24 		movq	%rdi, 8(%rsp)
 2135      08
 2136 0c0a 488DBC24 		leaq	136(%rsp), %rdi
 2136      88000000 
 2137 0c12 64488B0C 		movq	%fs:40, %rcx
 2137      25280000 
 2137      00
 2138 0c1b 48898C24 		movq	%rcx, 456(%rsp)
 2138      C8010000 
 2139 0c23 31C9     		xorl	%ecx, %ecx
 2140 0c25 E8000000 		call	_ZNSt8ios_baseC2Ev
 2140      00
 2141 0c2a 4C8B2500 		movq	_ZTTSt19basic_ostringstreamIcSt11char_traitsIcESaIcEE+8(%rip), %r12
 2141      000000
 2142 0c31 C6842468 		movb	$0, 360(%rsp)
 2142      01000000 
 2143 0c39 488D7C24 		leaq	48(%rsp), %rdi
 2143      30
 2144 0c3e 488B0500 		movq	_ZTTSt19basic_ostringstreamIcSt11char_traitsIcESaIcEE+16(%rip), %rax
 2144      000000
 2145 0c45 48C78424 		movq	$_ZTVSt9basic_iosIcSt11char_traitsIcEE+16, 136(%rsp)
 2145      88000000 
 2145      00000000 
 2146 0c51 31F6     		xorl	%esi, %esi
 2147 0c53 48C78424 		movq	$0, 352(%rsp)
 2147      60010000 
 2147      00000000 
 2148 0c5f C6842469 		movb	$0, 361(%rsp)
 2148      01000000 
 2149 0c67 49037C24 		addq	-24(%r12), %rdi
 2149      E8
 2150 0c6c 48C78424 		movq	$0, 368(%rsp)
 2150      70010000 
 2150      00000000 
 2151 0c78 48C78424 		movq	$0, 376(%rsp)
 2151      78010000 
 2151      00000000 
 2152 0c84 48C78424 		movq	$0, 384(%rsp)
 2152      80010000 
 2152      00000000 
 2153 0c90 48C78424 		movq	$0, 392(%rsp)
 2153      88010000 
 2153      00000000 
 2154 0c9c 4C896424 		movq	%r12, 48(%rsp)
 2154      30
 2155 0ca1 488907   		movq	%rax, (%rdi)
 2156              	.LEHB39:
 2157 0ca4 E8000000 		call	_ZNSt9basic_iosIcSt11char_traitsIcEE4initEPSt15basic_streambufIcS1_E
 2157      00
 2158              	.LEHE39:
 2159 0ca9 488D7C24 		leaq	112(%rsp), %rdi
 2159      70
 2160 0cae 48C74424 		movq	$_ZTVSt19basic_ostringstreamIcSt11char_traitsIcESaIcEE+24, 48(%rsp)
 2160      30000000 
 2160      00
 2161 0cb7 48C78424 		movq	$_ZTVSt19basic_ostringstreamIcSt11char_traitsIcESaIcEE+64, 136(%rsp)
 2161      88000000 
 2161      00000000 
 2162 0cc3 48C74424 		movq	$_ZTVSt15basic_streambufIcSt11char_traitsIcEE+16, 56(%rsp)
 2162      38000000 
 2162      00
 2163 0ccc 48C74424 		movq	$0, 64(%rsp)
 2163      40000000 
 2163      00
 2164 0cd5 48C74424 		movq	$0, 72(%rsp)
 2164      48000000 
 2164      00
 2165 0cde 48C74424 		movq	$0, 80(%rsp)
 2165      50000000 
 2165      00
 2166 0ce7 48C74424 		movq	$0, 88(%rsp)
 2166      58000000 
 2166      00
 2167 0cf0 48C74424 		movq	$0, 96(%rsp)
 2167      60000000 
 2167      00
 2168 0cf9 48C74424 		movq	$0, 104(%rsp)
 2168      68000000 
 2168      00
 2169 0d02 E8000000 		call	_ZNSt6localeC1Ev
 2169      00
 2170 0d07 488D4424 		leaq	48(%rsp), %rax
 2170      30
 2171 0d0c 488D7424 		leaq	56(%rsp), %rsi
 2171      38
 2172 0d11 48C74424 		movq	$_ZTVSt15basic_stringbufIcSt11char_traitsIcESaIcEE+16, 56(%rsp)
 2172      38000000 
 2172      00
 2173 0d1a C7442478 		movl	$16, 120(%rsp)
 2173      10000000 
 2174 0d22 48C78424 		movq	$_ZNSs4_Rep20_S_empty_rep_storageE+24, 128(%rsp)
 2174      80000000 
 2174      00000000 
 2175 0d2e 488D7858 		leaq	88(%rax), %rdi
 2176              	.LEHB40:
 2177 0d32 E8000000 		call	_ZNSt9basic_iosIcSt11char_traitsIcEE4initEPSt15basic_streambufIcS1_E
 2177      00
 2178              	.LEHE40:
 2179 0d37 488D4424 		leaq	48(%rsp), %rax
 2179      30
 2180 0d3c 488DB860 		leaq	352(%rax), %rdi
 2180      010000
 2181 0d43 4889C6   		movq	%rax, %rsi
 2182              	.LEHB41:
 2183 0d46 E8000000 		call	_ZN8UnitTest15XmlTestReporterC1ERSo
 2183      00
 2184              	.LEHE41:
 2185 0d4b 488D7C24 		leaq	48(%rsp), %rdi
 2185      30
 2186 0d50 4C89EE   		movq	%r13, %rsi
 2187 0d53 4C89AC24 		movq	%r13, 440(%rsp)
 2187      B8010000 
 2188              	.LEHB42:
 2189 0d5b E820F4FF 		call	_ZN8UnitTest11ExecuteTestIN12_GLOBAL__N_168XmlTestReporterFixtureOutputIsCachedUntilReportSum
 2189      FF
 2190              	.LEHE42:
 2191 0d60 488BAC24 		movq	416(%rsp), %rbp
 2191      A0010000 
 2192 0d68 4C8BB424 		movq	408(%rsp), %r14
 2192      98010000 
 2193 0d70 48C78424 		movq	$_ZTVN8UnitTest20DeferredTestReporterE+16, 400(%rsp)
 2193      90010000 
 2193      00000000 
 2194 0d7c 4C39F5   		cmpq	%r14, %rbp
 2195 0d7f 0F84C700 		je	.L286
 2195      0000
 2196              		.p2align 4,,10
 2197 0d85 0F1F00   		.p2align 3
 2198              	.L315:
 2199 0d88 4D8B7E20 		movq	32(%r14), %r15
 2200 0d8c 498B5E18 		movq	24(%r14), %rbx
 2201 0d90 4939DF   		cmpq	%rbx, %r15
 2202 0d93 7457     		je	.L287
 2203 0d95 B8000000 		movl	$_ZL28__gthrw___pthread_key_createPjPFvPvE, %eax
 2203      00
 2204 0d9a 4885C0   		testq	%rax, %rax
 2205 0d9d 7512     		jne	.L351
 2206 0d9f E9990100 		jmp	.L293
 2206      00
 2207              		.p2align 4,,10
 2208 0da4 0F1F4000 		.p2align 3
 2209              	.L296:
 2210 0da8 4883C310 		addq	$16, %rbx
 2211 0dac 4939DF   		cmpq	%rbx, %r15
 2212 0daf 7437     		je	.L294
 2213              	.L351:
 2214 0db1 488B4308 		movq	8(%rbx), %rax
 2215 0db5 488D78E8 		leaq	-24(%rax), %rdi
 2216 0db9 4881FF00 		cmpq	$_ZNSs4_Rep20_S_empty_rep_storageE, %rdi
 2216      000000
 2217 0dc0 74E6     		je	.L296
 2218 0dc2 BEFFFFFF 		movl	$-1, %esi
 2218      FF
 2219 0dc7 F00FC170 		lock xaddl	%esi, -8(%rax)
 2219      F8
 2220 0dcc 85F6     		testl	%esi, %esi
 2221 0dce 7FD8     		jg	.L296
 2222 0dd0 488D7424 		leaq	16(%rsp), %rsi
 2222      10
 2223 0dd5 4883C310 		addq	$16, %rbx
 2224 0dd9 E8000000 		call	_ZNSs4_Rep10_M_destroyERKSaIcE
 2224      00
 2225 0dde 4939DF   		cmpq	%rbx, %r15
 2226 0de1 75CE     		jne	.L351
 2227              		.p2align 4,,10
 2228 0de3 0F1F4400 		.p2align 3
 2228      00
 2229              	.L294:
 2230 0de8 4D8B7E18 		movq	24(%r14), %r15
 2231              	.L287:
 2232 0dec 4D85FF   		testq	%r15, %r15
 2233 0def 7408     		je	.L299
 2234 0df1 4C89FF   		movq	%r15, %rdi
 2235 0df4 E8000000 		call	_ZdlPv
 2235      00
 2236              	.L299:
 2237 0df9 498B4610 		movq	16(%r14), %rax
 2238 0dfd 488D78E8 		leaq	-24(%rax), %rdi
 2239 0e01 4881FF00 		cmpq	$_ZNSs4_Rep20_S_empty_rep_storageE, %rdi
 2239      000000
 2240 0e08 0F85AA01 		jne	.L367
 2240      0000
 2241              	.L301:
 2242 0e0e 498B4608 		movq	8(%r14), %rax
 2243 0e12 488D78E8 		leaq	-24(%rax), %rdi
 2244 0e16 4881FF00 		cmpq	$_ZNSs4_Rep20_S_empty_rep_storageE, %rdi
 2244      000000
 2245 0e1d 0F856501 		jne	.L368
 2245      0000
 2246              	.L306:
 2247 0e23 498B06   		movq	(%r14), %rax
 2248 0e26 488D78E8 		leaq	-24(%rax), %rdi
 2249 0e2a 4881FF00 		cmpq	$_ZNSs4_Rep20_S_empty_rep_storageE, %rdi
 2249      000000
 2250 0e31 0F851901 		jne	.L369
 2250      0000
 2251              	.L311:
 2252 0e37 4983C638 		addq	$56, %r14
 2253 0e3b 4C39F5   		cmpq	%r14, %rbp
 2254 0e3e 0F8544FF 		jne	.L315
 2254      FFFF
 2255 0e44 488BAC24 		movq	408(%rsp), %rbp
 2255      98010000 
 2256              	.L286:
 2257 0e4c 4885ED   		testq	%rbp, %rbp
 2258 0e4f 7408     		je	.L316
 2259 0e51 4889EF   		movq	%rbp, %rdi
 2260 0e54 E8000000 		call	_ZdlPv
 2260      00
 2261              	.L316:
 2262 0e59 488D4424 		leaq	48(%rsp), %rax
 2262      30
 2263 0e5e 488DB860 		leaq	352(%rax), %rdi
 2263      010000
 2264              	.LEHB43:
 2265 0e65 E8000000 		call	_ZN8UnitTest12TestReporterD2Ev
 2265      00
 2266              	.LEHE43:
 2267 0e6a 488B8424 		movq	128(%rsp), %rax
 2267      80000000 
 2268 0e72 48C74424 		movq	$_ZTVSt19basic_ostringstreamIcSt11char_traitsIcESaIcEE+24, 48(%rsp)
 2268      30000000 
 2268      00
 2269 0e7b 48C78424 		movq	$_ZTVSt19basic_ostringstreamIcSt11char_traitsIcESaIcEE+64, 136(%rsp)
 2269      88000000 
 2269      00000000 
 2270 0e87 48C74424 		movq	$_ZTVSt15basic_stringbufIcSt11char_traitsIcESaIcEE+16, 56(%rsp)
 2270      38000000 
 2270      00
 2271 0e90 488D78E8 		leaq	-24(%rax), %rdi
 2272 0e94 4881FF00 		cmpq	$_ZNSs4_Rep20_S_empty_rep_storageE, %rdi
 2272      000000
 2273 0e9b 0F856E01 		jne	.L370
 2273      0000
 2274              	.L318:
 2275 0ea1 488D7C24 		leaq	112(%rsp), %rdi
 2275      70
 2276 0ea6 48C74424 		movq	$_ZTVSt15basic_streambufIcSt11char_traitsIcEE+16, 56(%rsp)
 2276      38000000 
 2276      00
 2277 0eaf E8000000 		call	_ZNSt6localeD1Ev
 2277      00
 2278 0eb4 498B4424 		movq	-24(%r12), %rax
 2278      E8
 2279 0eb9 488B0D00 		movq	_ZTTSt19basic_ostringstreamIcSt11char_traitsIcESaIcEE+16(%rip), %rcx
 2279      000000
 2280 0ec0 4C896424 		movq	%r12, 48(%rsp)
 2280      30
 2281 0ec5 48894C04 		movq	%rcx, 48(%rsp,%rax)
 2281      30
 2282 0eca 488D4424 		leaq	48(%rsp), %rax
 2282      30
 2283 0ecf 48C78424 		movq	$_ZTVSt9basic_iosIcSt11char_traitsIcEE+16, 136(%rsp)
 2283      88000000 
 2283      00000000 
 2284 0edb 488D7858 		leaq	88(%rax), %rdi
 2285              	.LEHB44:
 2286 0edf E8000000 		call	_ZNSt8ios_baseD2Ev
 2286      00
 2287              	.LEHE44:
 2288              	.L279:
 2289 0ee4 488B8424 		movq	456(%rsp), %rax
 2289      C8010000 
 2290 0eec 64483304 		xorq	%fs:40, %rax
 2290      25280000 
 2290      00
 2291 0ef5 0F85E901 		jne	.L371
 2291      0000
 2292 0efb 4881C4D8 		addq	$472, %rsp
 2292      010000
 2293              		.cfi_remember_state
 2294              		.cfi_def_cfa_offset 56
 2295 0f02 5B       		popq	%rbx
 2296              		.cfi_def_cfa_offset 48
 2297 0f03 5D       		popq	%rbp
 2298              		.cfi_def_cfa_offset 40
 2299 0f04 415C     		popq	%r12
 2300              		.cfi_def_cfa_offset 32
 2301 0f06 415D     		popq	%r13
 2302              		.cfi_def_cfa_offset 24
 2303 0f08 415E     		popq	%r14
 2304              		.cfi_def_cfa_offset 16
 2305 0f0a 415F     		popq	%r15
 2306              		.cfi_def_cfa_offset 8
 2307 0f0c C3       		ret
 2308 0f0d 0F1F00   		.p2align 4,,10
 2309              		.p2align 3
 2310              	.L372:
 2311              		.cfi_restore_state
 2312 0f10 8B70F8   		movl	-8(%rax), %esi
 2313 0f13 448D46FF 		leal	-1(%rsi), %r8d
 2314 0f17 85F6     		testl	%esi, %esi
 2315 0f19 448940F8 		movl	%r8d, -8(%rax)
 2316 0f1d 7F11     		jg	.L291
 2317 0f1f 488D7424 		leaq	16(%rsp), %rsi
 2317      10
 2318 0f24 E8000000 		call	_ZNSs4_Rep10_M_destroyERKSaIcE
 2318      00
 2319 0f29 0F1F8000 		.p2align 4,,10
 2319      000000
 2320              		.p2align 3
 2321              	.L291:
 2322 0f30 4883C310 		addq	$16, %rbx
 2323 0f34 4939DF   		cmpq	%rbx, %r15
 2324 0f37 0F84ABFE 		je	.L294
 2324      FFFF
 2325              	.L293:
 2326 0f3d 488B4308 		movq	8(%rbx), %rax
 2327 0f41 488D78E8 		leaq	-24(%rax), %rdi
 2328 0f45 4881FF00 		cmpq	$_ZNSs4_Rep20_S_empty_rep_storageE, %rdi
 2328      000000
 2329 0f4c 74E2     		je	.L291
 2330 0f4e EBC0     		jmp	.L372
 2331              		.p2align 4,,10
 2332              		.p2align 3
 2333              	.L369:
 2334 0f50 BA000000 		movl	$_ZL28__gthrw___pthread_key_createPjPFvPvE, %edx
 2334      00
 2335 0f55 4885D2   		testq	%rdx, %rdx
 2336 0f58 0F848700 		je	.L312
 2336      0000
 2337 0f5e BAFFFFFF 		movl	$-1, %edx
 2337      FF
 2338 0f63 F00FC150 		lock xaddl	%edx, -8(%rax)
 2338      F8
 2339 0f68 89D0     		movl	%edx, %eax
 2340              	.L313:
 2341 0f6a 85C0     		testl	%eax, %eax
 2342 0f6c 0F8FC5FE 		jg	.L311
 2342      FFFF
 2343 0f72 488D7424 		leaq	16(%rsp), %rsi
 2343      10
 2344 0f77 E8000000 		call	_ZNSs4_Rep10_M_destroyERKSaIcE
 2344      00
 2345 0f7c E9B6FEFF 		jmp	.L311
 2345      FF
 2346              		.p2align 4,,10
 2347 0f81 0F1F8000 		.p2align 3
 2347      000000
 2348              	.L368:
 2349 0f88 BA000000 		movl	$_ZL28__gthrw___pthread_key_createPjPFvPvE, %edx
 2349      00
 2350 0f8d 4885D2   		testq	%rdx, %rdx
 2351 0f90 7470     		je	.L307
 2352 0f92 BAFFFFFF 		movl	$-1, %edx
 2352      FF
 2353 0f97 F00FC150 		lock xaddl	%edx, -8(%rax)
 2353      F8
 2354 0f9c 89D0     		movl	%edx, %eax
 2355              	.L308:
 2356 0f9e 85C0     		testl	%eax, %eax
 2357 0fa0 0F8F7DFE 		jg	.L306
 2357      FFFF
 2358 0fa6 488D7424 		leaq	16(%rsp), %rsi
 2358      10
 2359 0fab E8000000 		call	_ZNSs4_Rep10_M_destroyERKSaIcE
 2359      00
 2360 0fb0 E96EFEFF 		jmp	.L306
 2360      FF
 2361              		.p2align 4,,10
 2362 0fb5 0F1F00   		.p2align 3
 2363              	.L367:
 2364 0fb8 BA000000 		movl	$_ZL28__gthrw___pthread_key_createPjPFvPvE, %edx
 2364      00
 2365 0fbd 4885D2   		testq	%rdx, %rdx
 2366 0fc0 7433     		je	.L302
 2367 0fc2 BAFFFFFF 		movl	$-1, %edx
 2367      FF
 2368 0fc7 F00FC150 		lock xaddl	%edx, -8(%rax)
 2368      F8
 2369 0fcc 89D0     		movl	%edx, %eax
 2370              	.L303:
 2371 0fce 85C0     		testl	%eax, %eax
 2372 0fd0 0F8F38FE 		jg	.L301
 2372      FFFF
 2373 0fd6 488D7424 		leaq	16(%rsp), %rsi
 2373      10
 2374 0fdb E8000000 		call	_ZNSs4_Rep10_M_destroyERKSaIcE
 2374      00
 2375 0fe0 E929FEFF 		jmp	.L301
 2375      FF
 2376              	.L312:
 2377 0fe5 8B50F8   		movl	-8(%rax), %edx
 2378 0fe8 8D72FF   		leal	-1(%rdx), %esi
 2379 0feb 8970F8   		movl	%esi, -8(%rax)
 2380 0fee 89D0     		movl	%edx, %eax
 2381 0ff0 E975FFFF 		jmp	.L313
 2381      FF
 2382              	.L302:
 2383 0ff5 8B50F8   		movl	-8(%rax), %edx
 2384 0ff8 8D72FF   		leal	-1(%rdx), %esi
 2385 0ffb 8970F8   		movl	%esi, -8(%rax)
 2386 0ffe 89D0     		movl	%edx, %eax
 2387 1000 EBCC     		jmp	.L303
 2388              	.L307:
 2389 1002 8B50F8   		movl	-8(%rax), %edx
 2390 1005 8D72FF   		leal	-1(%rdx), %esi
 2391 1008 8970F8   		movl	%esi, -8(%rax)
 2392 100b 89D0     		movl	%edx, %eax
 2393 100d EB8F     		jmp	.L308
 2394              	.L370:
 2395 100f BA000000 		movl	$_ZL28__gthrw___pthread_key_createPjPFvPvE, %edx
 2395      00
 2396 1014 4885D2   		testq	%rdx, %rdx
 2397 1017 7423     		je	.L319
 2398 1019 BAFFFFFF 		movl	$-1, %edx
 2398      FF
 2399 101e F00FC150 		lock xaddl	%edx, -8(%rax)
 2399      F8
 2400 1023 89D0     		movl	%edx, %eax
 2401              	.L320:
 2402 1025 85C0     		testl	%eax, %eax
 2403 1027 0F8F74FE 		jg	.L318
 2403      FFFF
 2404 102d 488D7424 		leaq	16(%rsp), %rsi
 2404      10
 2405 1032 E8000000 		call	_ZNSs4_Rep10_M_destroyERKSaIcE
 2405      00
 2406 1037 E965FEFF 		jmp	.L318
 2406      FF
 2407              	.L319:
 2408 103c 8B50F8   		movl	-8(%rax), %edx
 2409 103f 8D4AFF   		leal	-1(%rdx), %ecx
 2410 1042 8948F8   		movl	%ecx, -8(%rax)
 2411 1045 89D0     		movl	%edx, %eax
 2412 1047 EBDC     		jmp	.L320
 2413              	.L346:
 2414 1049 488D7C24 		leaq	48(%rsp), %rdi
 2414      30
 2415 104e 4889C3   		movq	%rax, %rbx
 2416 1051 4889D5   		movq	%rdx, %rbp
 2417 1054 E8000000 		call	_ZNSt19basic_ostringstreamIcSt11char_traitsIcESaIcEED1Ev
 2417      00
 2418 1059 4889DF   		movq	%rbx, %rdi
 2419 105c 4889EA   		movq	%rbp, %rdx
 2420 105f BB010000 		movl	$1, %ebx
 2420      00
 2421              	.L283:
 2422 1064 4883FA01 		cmpq	$1, %rdx
 2423 1068 0F84E800 		je	.L328
 2423      0000
 2424 106e 4883FA02 		cmpq	$2, %rdx
 2425 1072 0F859D00 		jne	.L373
 2425      0000
 2426 1078 E8000000 		call	__cxa_begin_catch
 2426      00
 2427 107d 488D7C24 		leaq	48(%rsp), %rdi
 2427      30
 2428 1082 4889C3   		movq	%rax, %rbx
 2429              	.LEHB45:
 2430 1085 E8000000 		call	_ZN8UnitTest15MemoryOutStreamC1Ev
 2430      00
 2431              	.LEHE45:
 2432 108a 488B03   		movq	(%rbx), %rax
 2433 108d 4889DF   		movq	%rbx, %rdi
 2434 1090 FF5010   		call	*16(%rax)
 2435 1093 488D7C24 		leaq	48(%rsp), %rdi
 2435      30
 2436 1098 BE000000 		movl	$.LC32, %esi
 2436      00
 2437 109d 4889C3   		movq	%rax, %rbx
 2438              	.LEHB46:
 2439 10a0 E8000000 		call	_ZStlsISt11char_traitsIcEERSt13basic_ostreamIcT_ES5_PKc
 2439      00
 2440 10a5 4889C7   		movq	%rax, %rdi
 2441 10a8 4889DE   		movq	%rbx, %rsi
 2442 10ab E8000000 		call	_ZStlsISt11char_traitsIcEERSt13basic_ostreamIcT_ES5_PKc
 2442      00
 2443 10b0 488D7C24 		leaq	48(%rsp), %rdi
 2443      30
 2444 10b5 E8000000 		call	_ZNK8UnitTest15MemoryOutStream7GetTextEv
 2444      00
 2445 10ba 4889C3   		movq	%rax, %rbx
 2446 10bd E8000000 		call	_ZN8UnitTest11CurrentTest7ResultsEv
 2446      00
 2447 10c2 488B38   		movq	(%rax), %rdi
 2448 10c5 4889DA   		movq	%rbx, %rdx
 2449 10c8 4C89EE   		movq	%r13, %rsi
 2450 10cb E8000000 		call	_ZN8UnitTest11TestResults13OnTestFailureERKNS_11TestDetailsEPKc
 2450      00
 2451              	.LEHE46:
 2452 10d0 488D7C24 		leaq	48(%rsp), %rdi
 2452      30
 2453              	.LEHB47:
 2454 10d5 E8000000 		call	_ZN8UnitTest15MemoryOutStreamD1Ev
 2454      00
 2455              	.LEHE47:
 2456              	.L361:
 2457 10da E8000000 		call	__cxa_end_catch
 2457      00
 2458 10df E900FEFF 		jmp	.L279
 2458      FF
 2459              	.L371:
 2460 10e4 E8000000 		call	__stack_chk_fail
 2460      00
 2461              	.L337:
 2462 10e9 4889C7   		movq	%rax, %rdi
 2463 10ec BB010000 		movl	$1, %ebx
 2463      00
 2464 10f1 E96EFFFF 		jmp	.L283
 2464      FF
 2465              	.L341:
 2466 10f6 488D7C24 		leaq	48(%rsp), %rdi
 2466      30
 2467 10fb 4889C3   		movq	%rax, %rbx
 2468 10fe E8000000 		call	_ZN8UnitTest15MemoryOutStreamD1Ev
 2468      00
 2469              	.L332:
 2470 1103 E8000000 		call	__cxa_end_catch
 2470      00
 2471 1108 4889DF   		movq	%rbx, %rdi
 2472              	.LEHB48:
 2473 110b E8000000 		call	_Unwind_Resume
 2473      00
 2474              	.LEHE48:
 2475              	.L340:
 2476              	.L362:
 2477 1110 4889C3   		movq	%rax, %rbx
 2478 1113 EBEE     		jmp	.L332
 2479              	.L373:
 2480 1115 E8000000 		call	__cxa_begin_catch
 2480      00
 2481 111a 84DB     		testb	%bl, %bl
 2482 111c 488D5C24 		leaq	16(%rsp), %rbx
 2482      10
 2483 1121 BA370000 		movl	$55, %edx
 2483      00
 2484 1126 4C89EE   		movq	%r13, %rsi
 2485 1129 4889DF   		movq	%rbx, %rdi
 2486 112c 0F849300 		je	.L334
 2486      0000
 2487              	.LEHB49:
 2488 1132 E8000000 		call	_ZN8UnitTest11TestDetailsC1ERKS0_i
 2488      00
 2489 1137 E8000000 		call	_ZN8UnitTest11CurrentTest7ResultsEv
 2489      00
 2490 113c 488B38   		movq	(%rax), %rdi
 2491 113f BA000000 		movl	$.LC36, %edx
 2491      00
 2492 1144 4889DE   		movq	%rbx, %rsi
 2493 1147 E8000000 		call	_ZN8UnitTest11TestResults13OnTestFailureERKNS_11TestDetailsEPKc
 2493      00
 2494              	.LEHE49:
 2495              	.L335:
 2496              	.LEHB50:
 2497 114c E8000000 		call	__cxa_end_catch
 2497      00
 2498              	.LEHE50:
 2499 1151 E98EFDFF 		jmp	.L279
 2499      FF
 2500              	.L328:
 2501 1156 E8000000 		call	__cxa_begin_catch
 2501      00
 2502 115b 4889C3   		movq	%rax, %rbx
 2503 115e 488B00   		movq	(%rax), %rax
 2504 1161 4889DF   		movq	%rbx, %rdi
 2505 1164 FF5010   		call	*16(%rax)
 2506 1167 4889DF   		movq	%rbx, %rdi
 2507 116a 4889C5   		movq	%rax, %rbp
 2508              	.LEHB51:
 2509 116d E8000000 		call	_ZNK8UnitTest15AssertException10LineNumberEv
 2509      00
 2510 1172 4889DF   		movq	%rbx, %rdi
 2511 1175 4189C4   		movl	%eax, %r12d
 2512 1178 E8000000 		call	_ZNK8UnitTest15AssertException8FilenameEv
 2512      00
 2513 117d 488B4C24 		movq	8(%rsp), %rcx
 2513      08
 2514 1182 488D5C24 		leaq	16(%rsp), %rbx
 2514      10
 2515 1187 4589E0   		movl	%r12d, %r8d
 2516 118a 4889DF   		movq	%rbx, %rdi
 2517 118d 488B5108 		movq	8(%rcx), %rdx
 2518 1191 488B7110 		movq	16(%rcx), %rsi
 2519 1195 4889C1   		movq	%rax, %rcx
 2520 1198 E8000000 		call	_ZN8UnitTest11TestDetailsC1EPKcS2_S2_i
 2520      00
 2521 119d E8000000 		call	_ZN8UnitTest11CurrentTest7ResultsEv
 2521      00
 2522 11a2 488B38   		movq	(%rax), %rdi
 2523 11a5 4889EA   		movq	%rbp, %rdx
 2524 11a8 4889DE   		movq	%rbx, %rsi
 2525 11ab E8000000 		call	_ZN8UnitTest11TestResults13OnTestFailureERKNS_11TestDetailsEPKc
 2525      00
 2526              	.LEHE51:
 2527 11b0 E925FFFF 		jmp	.L361
 2527      FF
 2528              	.L342:
 2529 11b5 4889C3   		movq	%rax, %rbx
 2530 11b8 E8000000 		call	__cxa_end_catch
 2530      00
 2531 11bd 4889DF   		movq	%rbx, %rdi
 2532              	.LEHB52:
 2533 11c0 E8000000 		call	_Unwind_Resume
 2533      00
 2534              	.LEHE52:
 2535              	.L334:
 2536              	.LEHB53:
 2537 11c5 E8000000 		call	_ZN8UnitTest11TestDetailsC1ERKS0_i
 2537      00
 2538 11ca E8000000 		call	_ZN8UnitTest11CurrentTest7ResultsEv
 2538      00
 2539 11cf 488B38   		movq	(%rax), %rdi
 2540 11d2 BA000000 		movl	$.LC37, %edx
 2540      00
 2541 11d7 4889DE   		movq	%rbx, %rsi
 2542 11da E8000000 		call	_ZN8UnitTest11TestResults13OnTestFailureERKNS_11TestDetailsEPKc
 2542      00
 2543              	.LEHE53:
 2544 11df E968FFFF 		jmp	.L335
 2544      FF
 2545              	.L339:
 2546 11e4 E927FFFF 		jmp	.L362
 2546      FF
 2547              	.L338:
 2548 11e9 488D7C24 		leaq	48(%rsp), %rdi
 2548      30
 2549 11ee 4889C3   		movq	%rax, %rbx
 2550 11f1 4889D5   		movq	%rdx, %rbp
 2551 11f4 E8000000 		call	_ZN12_GLOBAL__N_122XmlTestReporterFixtureD2Ev
 2551      00
 2552 11f9 4889DF   		movq	%rbx, %rdi
 2553 11fc 4889EA   		movq	%rbp, %rdx
 2554 11ff BB010000 		movl	$1, %ebx
 2554      00
 2555 1204 E95BFEFF 		jmp	.L283
 2555      FF
 2556              	.L343:
 2557 1209 488D7C24 		leaq	48(%rsp), %rdi
 2557      30
 2558 120e 4889C3   		movq	%rax, %rbx
 2559 1211 4889D5   		movq	%rdx, %rbp
 2560 1214 E8000000 		call	_ZNSt19basic_ostringstreamIcSt11char_traitsIcESaIcEED1Ev
 2560      00
 2561 1219 4889DF   		movq	%rbx, %rdi
 2562 121c 4889EA   		movq	%rbp, %rdx
 2563 121f 31DB     		xorl	%ebx, %ebx
 2564 1221 E93EFEFF 		jmp	.L283
 2564      FF
 2565              	.L345:
 2566 1226 488D7C24 		leaq	56(%rsp), %rdi
 2566      38
 2567 122b 4889C3   		movq	%rax, %rbx
 2568 122e 4889D5   		movq	%rdx, %rbp
 2569 1231 E8000000 		call	_ZNSt15basic_stringbufIcSt11char_traitsIcESaIcEED1Ev
 2569      00
 2570 1236 498B4424 		movq	-24(%r12), %rax
 2570      E8
 2571 123b 488B0D00 		movq	_ZTTSt19basic_ostringstreamIcSt11char_traitsIcESaIcEE+16(%rip), %rcx
 2571      000000
 2572 1242 4C896424 		movq	%r12, 48(%rsp)
 2572      30
 2573 1247 48894C04 		movq	%rcx, 48(%rsp,%rax)
 2573      30
 2574              	.L282:
 2575 124c 488DBC24 		leaq	136(%rsp), %rdi
 2575      88000000 
 2576 1254 48C78424 		movq	$_ZTVSt9basic_iosIcSt11char_traitsIcEE+16, 136(%rsp)
 2576      88000000 
 2576      00000000 
 2577 1260 E8000000 		call	_ZNSt8ios_baseD2Ev
 2577      00
 2578 1265 4889DF   		movq	%rbx, %rdi
 2579 1268 4889EA   		movq	%rbp, %rdx
 2580 126b 31DB     		xorl	%ebx, %ebx
 2581 126d E9F2FDFF 		jmp	.L283
 2581      FF
 2582              	.L344:
 2583 1272 4889C3   		movq	%rax, %rbx
 2584 1275 4889D5   		movq	%rdx, %rbp
 2585 1278 EBD2     		jmp	.L282
 2586              		.cfi_endproc
 2587              	.LFE1386:
 2588              		.section	.gcc_except_table
 2589              		.align 4
 2590              	.LLSDA1386:
 2591 0104 FF       		.byte	0xff
 2592 0105 03       		.byte	0x3
 2593 0106 6D       		.uleb128 .LLSDATT1386-.LLSDATTD1386
 2594              	.LLSDATTD1386:
 2595 0107 01       		.byte	0x1
 2596 0108 57       		.uleb128 .LLSDACSE1386-.LLSDACSB1386
 2597              	.LLSDACSB1386:
 2598 0109 B401     		.uleb128 .LEHB39-.LFB1386
 2599 010b 05       		.uleb128 .LEHE39-.LEHB39
 2600 010c 820D     		.uleb128 .L344-.LFB1386
 2601 010e 07       		.uleb128 0x7
 2602 010f C202     		.uleb128 .LEHB40-.LFB1386
 2603 0111 05       		.uleb128 .LEHE40-.LEHB40
 2604 0112 B60C     		.uleb128 .L345-.LFB1386
 2605 0114 07       		.uleb128 0x7
 2606 0115 D602     		.uleb128 .LEHB41-.LFB1386
 2607 0117 05       		.uleb128 .LEHE41-.LEHB41
 2608 0118 990C     		.uleb128 .L343-.LFB1386
 2609 011a 07       		.uleb128 0x7
 2610 011b EB02     		.uleb128 .LEHB42-.LFB1386
 2611 011d 05       		.uleb128 .LEHE42-.LEHB42
 2612 011e F90B     		.uleb128 .L338-.LFB1386
 2613 0120 07       		.uleb128 0x7
 2614 0121 F504     		.uleb128 .LEHB43-.LFB1386
 2615 0123 05       		.uleb128 .LEHE43-.LEHB43
 2616 0124 D908     		.uleb128 .L346-.LFB1386
 2617 0126 07       		.uleb128 0x7
 2618 0127 EF05     		.uleb128 .LEHB44-.LFB1386
 2619 0129 05       		.uleb128 .LEHE44-.LEHB44
 2620 012a F909     		.uleb128 .L337-.LFB1386
 2621 012c 05       		.uleb128 0x5
 2622 012d 9509     		.uleb128 .LEHB45-.LFB1386
 2623 012f 05       		.uleb128 .LEHE45-.LEHB45
 2624 0130 A00A     		.uleb128 .L340-.LFB1386
 2625 0132 00       		.uleb128 0
 2626 0133 B009     		.uleb128 .LEHB46-.LFB1386
 2627 0135 30       		.uleb128 .LEHE46-.LEHB46
 2628 0136 860A     		.uleb128 .L341-.LFB1386
 2629 0138 00       		.uleb128 0
 2630 0139 E509     		.uleb128 .LEHB47-.LFB1386
 2631 013b 05       		.uleb128 .LEHE47-.LEHB47
 2632 013c A00A     		.uleb128 .L340-.LFB1386
 2633 013e 00       		.uleb128 0
 2634 013f 9B0A     		.uleb128 .LEHB48-.LFB1386
 2635 0141 05       		.uleb128 .LEHE48-.LEHB48
 2636 0142 00       		.uleb128 0
 2637 0143 00       		.uleb128 0
 2638 0144 C20A     		.uleb128 .LEHB49-.LFB1386
 2639 0146 1A       		.uleb128 .LEHE49-.LEHB49
 2640 0147 C50B     		.uleb128 .L342-.LFB1386
 2641 0149 00       		.uleb128 0
 2642 014a DC0A     		.uleb128 .LEHB50-.LFB1386
 2643 014c 05       		.uleb128 .LEHE50-.LEHB50
 2644 014d 00       		.uleb128 0
 2645 014e 00       		.uleb128 0
 2646 014f FD0A     		.uleb128 .LEHB51-.LFB1386
 2647 0151 43       		.uleb128 .LEHE51-.LEHB51
 2648 0152 F40B     		.uleb128 .L339-.LFB1386
 2649 0154 00       		.uleb128 0
 2650 0155 D00B     		.uleb128 .LEHB52-.LFB1386
 2651 0157 05       		.uleb128 .LEHE52-.LEHB52
 2652 0158 00       		.uleb128 0
 2653 0159 00       		.uleb128 0
 2654 015a D50B     		.uleb128 .LEHB53-.LFB1386
 2655 015c 1A       		.uleb128 .LEHE53-.LEHB53
 2656 015d C50B     		.uleb128 .L342-.LFB1386
 2657 015f 00       		.uleb128 0
 2658              	.LLSDACSE1386:
 2659 0160 03       		.byte	0x3
 2660 0161 00       		.byte	0
 2661 0162 02       		.byte	0x2
 2662 0163 7D       		.byte	0x7d
 2663 0164 01       		.byte	0x1
 2664 0165 7D       		.byte	0x7d
 2665 0166 00       		.byte	0
 2666 0167 7D       		.byte	0x7d
 2667              		.align 4
 2668 0168 00000000 		.long	0
 2669              	
 2670 016c 00000000 		.long	_ZTISt9exception
 2671 0170 00000000 		.long	_ZTIN8UnitTest15AssertExceptionE
 2672              	.LLSDATT1386:
 2673              		.text
 2675              		.section	.text.unlikely
 2676              	.LCOLDE38:
 2677              		.text
 2678              	.LHOTE38:
 2679              		.section	.text.unlikely._ZNSt15basic_stringbufIcSt11char_traitsIcESaIcEED0Ev,"axG",@progbits,_ZNSt
 2680              		.align 2
 2681              	.LCOLDB39:
 2682              		.section	.text._ZNSt15basic_stringbufIcSt11char_traitsIcESaIcEED0Ev,"axG",@progbits,_ZNSt15basic_s
 2683              	.LHOTB39:
 2684              		.align 2
 2685              		.p2align 4,,15
 2686              		.weak	_ZNSt15basic_stringbufIcSt11char_traitsIcESaIcEED0Ev
 2688              	_ZNSt15basic_stringbufIcSt11char_traitsIcESaIcEED0Ev:
 2689              	.LFB1468:
 2690              		.cfi_startproc
 2691 0000 53       		pushq	%rbx
 2692              		.cfi_def_cfa_offset 16
 2693              		.cfi_offset 3, -16
 2694 0001 4889FB   		movq	%rdi, %rbx
 2695 0004 4883EC10 		subq	$16, %rsp
 2696              		.cfi_def_cfa_offset 32
 2697 0008 48C70700 		movq	$_ZTVSt15basic_stringbufIcSt11char_traitsIcESaIcEE+16, (%rdi)
 2697      000000
 2698 000f 64488B04 		movq	%fs:40, %rax
 2698      25280000 
 2698      00
 2699 0018 48894424 		movq	%rax, 8(%rsp)
 2699      08
 2700 001d 31C0     		xorl	%eax, %eax
 2701 001f 488B4748 		movq	72(%rdi), %rax
 2702 0023 488D78E8 		leaq	-24(%rax), %rdi
 2703 0027 4881FF00 		cmpq	$_ZNSs4_Rep20_S_empty_rep_storageE, %rdi
 2703      000000
 2704 002e 7530     		jne	.L382
 2705              	.L376:
 2706 0030 488D7B38 		leaq	56(%rbx), %rdi
 2707 0034 48C70300 		movq	$_ZTVSt15basic_streambufIcSt11char_traitsIcEE+16, (%rbx)
 2707      000000
 2708 003b E8000000 		call	_ZNSt6localeD1Ev
 2708      00
 2709 0040 4889DF   		movq	%rbx, %rdi
 2710 0043 E8000000 		call	_ZdlPv
 2710      00
 2711 0048 488B4424 		movq	8(%rsp), %rax
 2711      08
 2712 004d 64483304 		xorq	%fs:40, %rax
 2712      25280000 
 2712      00
 2713 0056 7545     		jne	.L383
 2714 0058 4883C410 		addq	$16, %rsp
 2715              		.cfi_remember_state
 2716              		.cfi_def_cfa_offset 16
 2717 005c 5B       		popq	%rbx
 2718              		.cfi_def_cfa_offset 8
 2719 005d C3       		ret
 2720 005e 6690     		.p2align 4,,10
 2721              		.p2align 3
 2722              	.L382:
 2723              		.cfi_restore_state
 2724 0060 BA000000 		movl	$_ZL28__gthrw___pthread_key_createPjPFvPvE, %edx
 2724      00
 2725 0065 4885D2   		testq	%rdx, %rdx
 2726 0068 7426     		je	.L377
 2727 006a BAFFFFFF 		movl	$-1, %edx
 2727      FF
 2728 006f F00FC150 		lock xaddl	%edx, -8(%rax)
 2728      F8
 2729 0074 89D0     		movl	%edx, %eax
 2730              	.L378:
 2731 0076 85C0     		testl	%eax, %eax
 2732 0078 7FB6     		jg	.L376
 2733 007a 488D7424 		leaq	7(%rsp), %rsi
 2733      07
 2734 007f E8000000 		call	_ZNSs4_Rep10_M_destroyERKSaIcE
 2734      00
 2735 0084 EBAA     		jmp	.L376
 2736 0086 662E0F1F 		.p2align 4,,10
 2736      84000000 
 2736      0000
 2737              		.p2align 3
 2738              	.L377:
 2739 0090 8B50F8   		movl	-8(%rax), %edx
 2740 0093 8D4AFF   		leal	-1(%rdx), %ecx
 2741 0096 8948F8   		movl	%ecx, -8(%rax)
 2742 0099 89D0     		movl	%edx, %eax
 2743 009b EBD9     		jmp	.L378
 2744              	.L383:
 2745 009d E8000000 		call	__stack_chk_fail
 2745      00
 2746              		.cfi_endproc
 2747              	.LFE1468:
 2749              		.section	.text.unlikely._ZNSt15basic_stringbufIcSt11char_traitsIcESaIcEED0Ev,"axG",@progbits,_ZNSt
 2750              	.LCOLDE39:
 2751              		.section	.text._ZNSt15basic_stringbufIcSt11char_traitsIcESaIcEED0Ev,"axG",@progbits,_ZNSt15basic_s
 2752              	.LHOTE39:
 2753              		.section	.rodata.str1.1
 2754              	.LC40:
 2755 0081 45787065 		.string	"Expected "
 2755      63746564 
 2755      2000
 2756              	.LC41:
 2757 008b 20627574 		.string	" but was "
 2757      20776173 
 2757      2000
 2758              		.section	.text.unlikely._ZN8UnitTest10CheckEqualIPKcSsEEvRNS_11TestResultsERKT_RKT0_RKNS_11TestDet
 2759              	.LCOLDB42:
 2760              		.section	.text._ZN8UnitTest10CheckEqualIPKcSsEEvRNS_11TestResultsERKT_RKT0_RKNS_11TestDetailsE,"ax
 2761              	.LHOTB42:
 2762              		.p2align 4,,15
 2763              		.weak	_ZN8UnitTest10CheckEqualIPKcSsEEvRNS_11TestResultsERKT_RKT0_RKNS_11TestDetailsE
 2765              	_ZN8UnitTest10CheckEqualIPKcSsEEvRNS_11TestResultsERKT_RKT0_RKNS_11TestDetailsE:
 2766              	.LFB1488:
 2767              		.cfi_startproc
 2768              		.cfi_personality 0x3,__gxx_personality_v0
 2769              		.cfi_lsda 0x3,.LLSDA1488
 2770 0000 4156     		pushq	%r14
 2771              		.cfi_def_cfa_offset 16
 2772              		.cfi_offset 14, -16
 2773 0002 4155     		pushq	%r13
 2774              		.cfi_def_cfa_offset 24
 2775              		.cfi_offset 13, -24
 2776 0004 4989CD   		movq	%rcx, %r13
 2777 0007 4154     		pushq	%r12
 2778              		.cfi_def_cfa_offset 32
 2779              		.cfi_offset 12, -32
 2780 0009 55       		pushq	%rbp
 2781              		.cfi_def_cfa_offset 40
 2782              		.cfi_offset 6, -40
 2783 000a 4889F5   		movq	%rsi, %rbp
 2784 000d 53       		pushq	%rbx
 2785              		.cfi_def_cfa_offset 48
 2786              		.cfi_offset 3, -48
 2787 000e 4989FC   		movq	%rdi, %r12
 2788 0011 4889D7   		movq	%rdx, %rdi
 2789 0014 4889D3   		movq	%rdx, %rbx
 2790 0017 4881EC80 		subq	$384, %rsp
 2790      010000
 2791              		.cfi_def_cfa_offset 432
 2792 001e 488B36   		movq	(%rsi), %rsi
 2793 0021 64488B04 		movq	%fs:40, %rax
 2793      25280000 
 2793      00
 2794 002a 48898424 		movq	%rax, 376(%rsp)
 2794      78010000 
 2795 0032 31C0     		xorl	%eax, %eax
 2796              	.LEHB54:
 2797 0034 E8000000 		call	_ZNKSs7compareEPKc
 2797      00
 2798              	.LEHE54:
 2799 0039 85C0     		testl	%eax, %eax
 2800 003b 752B     		jne	.L418
 2801              	.L384:
 2802 003d 488B8424 		movq	376(%rsp), %rax
 2802      78010000 
 2803 0045 64483304 		xorq	%fs:40, %rax
 2803      25280000 
 2803      00
 2804 004e 0F85C902 		jne	.L419
 2804      0000
 2805 0054 4881C480 		addq	$384, %rsp
 2805      010000
 2806              		.cfi_remember_state
 2807              		.cfi_def_cfa_offset 48
 2808 005b 5B       		popq	%rbx
 2809              		.cfi_def_cfa_offset 40
 2810 005c 5D       		popq	%rbp
 2811              		.cfi_def_cfa_offset 32
 2812 005d 415C     		popq	%r12
 2813              		.cfi_def_cfa_offset 24
 2814 005f 415D     		popq	%r13
 2815              		.cfi_def_cfa_offset 16
 2816 0061 415E     		popq	%r14
 2817              		.cfi_def_cfa_offset 8
 2818 0063 C3       		ret
 2819              		.p2align 4,,10
 2820 0064 0F1F4000 		.p2align 3
 2821              	.L418:
 2822              		.cfi_restore_state
 2823 0068 4C8D7424 		leaq	112(%rsp), %r14
 2823      70
 2824 006d 4C89F7   		movq	%r14, %rdi
 2825 0070 E8000000 		call	_ZNSt8ios_baseC2Ev
 2825      00
 2826 0075 31F6     		xorl	%esi, %esi
 2827 0077 4C89F7   		movq	%r14, %rdi
 2828 007a 48C78424 		movq	$0, 328(%rsp)
 2828      48010000 
 2828      00000000 
 2829 0086 C6842450 		movb	$0, 336(%rsp)
 2829      01000000 
 2830 008e C6842451 		movb	$0, 337(%rsp)
 2830      01000000 
 2831 0096 48C78424 		movq	$0, 344(%rsp)
 2831      58010000 
 2831      00000000 
 2832 00a2 48C78424 		movq	$0, 352(%rsp)
 2832      60010000 
 2832      00000000 
 2833 00ae 48C78424 		movq	$0, 360(%rsp)
 2833      68010000 
 2833      00000000 
 2834 00ba 48C78424 		movq	$0, 368(%rsp)
 2834      70010000 
 2834      00000000 
 2835 00c6 48C74424 		movq	$_ZTCN8UnitTest15MemoryOutStreamE0_So+24, 16(%rsp)
 2835      10000000 
 2835      00
 2836 00cf 48C74424 		movq	$_ZTCN8UnitTest15MemoryOutStreamE0_So+64, 112(%rsp)
 2836      70000000 
 2836      00
 2837              	.LEHB55:
 2838 00d8 E8000000 		call	_ZNSt9basic_iosIcSt11char_traitsIcEE4initEPSt15basic_streambufIcS1_E
 2838      00
 2839              	.LEHE55:
 2840 00dd 488D7C24 		leaq	80(%rsp), %rdi
 2840      50
 2841 00e2 48C74424 		movq	$_ZTCN8UnitTest15MemoryOutStreamE0_St19basic_ostringstreamIcSt11char_traitsIcESaIcEE+24, 16(%
 2841      10000000 
 2841      00
 2842 00eb 48C74424 		movq	$_ZTCN8UnitTest15MemoryOutStreamE0_St19basic_ostringstreamIcSt11char_traitsIcESaIcEE+64, 112(
 2842      70000000 
 2842      00
 2843 00f4 48C74424 		movq	$_ZTVSt15basic_streambufIcSt11char_traitsIcEE+16, 24(%rsp)
 2843      18000000 
 2843      00
 2844 00fd 48C74424 		movq	$0, 32(%rsp)
 2844      20000000 
 2844      00
 2845 0106 48C74424 		movq	$0, 40(%rsp)
 2845      28000000 
 2845      00
 2846 010f 48C74424 		movq	$0, 48(%rsp)
 2846      30000000 
 2846      00
 2847 0118 48C74424 		movq	$0, 56(%rsp)
 2847      38000000 
 2847      00
 2848 0121 48C74424 		movq	$0, 64(%rsp)
 2848      40000000 
 2848      00
 2849 012a 48C74424 		movq	$0, 72(%rsp)
 2849      48000000 
 2849      00
 2850 0133 E8000000 		call	_ZNSt6localeC1Ev
 2850      00
 2851 0138 488B4424 		movq	16(%rsp), %rax
 2851      10
 2852 013d 488D7C24 		leaq	16(%rsp), %rdi
 2852      10
 2853 0142 488D7424 		leaq	24(%rsp), %rsi
 2853      18
 2854 0147 48C74424 		movq	$_ZTVSt15basic_stringbufIcSt11char_traitsIcESaIcEE+16, 24(%rsp)
 2854      18000000 
 2854      00
 2855 0150 C7442458 		movl	$16, 88(%rsp)
 2855      10000000 
 2856 0158 48C74424 		movq	$_ZNSs4_Rep20_S_empty_rep_storageE+24, 96(%rsp)
 2856      60000000 
 2856      00
 2857 0161 480378E8 		addq	-24(%rax), %rdi
 2858              	.LEHB56:
 2859 0165 E8000000 		call	_ZNSt9basic_iosIcSt11char_traitsIcEE4initEPSt15basic_streambufIcS1_E
 2859      00
 2860              	.LEHE56:
 2861 016a 488D7C24 		leaq	16(%rsp), %rdi
 2861      10
 2862 016f BA090000 		movl	$9, %edx
 2862      00
 2863 0174 BE000000 		movl	$.LC40, %esi
 2863      00
 2864 0179 48C74424 		movq	$_ZTVN8UnitTest15MemoryOutStreamE+24, 16(%rsp)
 2864      10000000 
 2864      00
 2865 0182 48C74424 		movq	$_ZTVN8UnitTest15MemoryOutStreamE+64, 112(%rsp)
 2865      70000000 
 2865      00
 2866 018b 48C74424 		movq	$_ZNSs4_Rep20_S_empty_rep_storageE+24, 104(%rsp)
 2866      68000000 
 2866      00
 2867 0194 488B6D00 		movq	0(%rbp), %rbp
 2868              	.LEHB57:
 2869 0198 E8000000 		call	_ZSt16__ostream_insertIcSt11char_traitsIcEERSt13basic_ostreamIT_T0_ES6_PKS3_l
 2869      00
 2870 019d 4885ED   		testq	%rbp, %rbp
 2871 01a0 0F84DA00 		je	.L420
 2871      0000
 2872 01a6 4889EF   		movq	%rbp, %rdi
 2873 01a9 E8000000 		call	strlen
 2873      00
 2874 01ae 488D7C24 		leaq	16(%rsp), %rdi
 2874      10
 2875 01b3 4889C2   		movq	%rax, %rdx
 2876 01b6 4889EE   		movq	%rbp, %rsi
 2877 01b9 E8000000 		call	_ZSt16__ostream_insertIcSt11char_traitsIcEERSt13basic_ostreamIT_T0_ES6_PKS3_l
 2877      00
 2878              	.L392:
 2879 01be 488D7C24 		leaq	16(%rsp), %rdi
 2879      10
 2880 01c3 BA090000 		movl	$9, %edx
 2880      00
 2881 01c8 BE000000 		movl	$.LC41, %esi
 2881      00
 2882 01cd E8000000 		call	_ZSt16__ostream_insertIcSt11char_traitsIcEERSt13basic_ostreamIT_T0_ES6_PKS3_l
 2882      00
 2883 01d2 488B33   		movq	(%rbx), %rsi
 2884 01d5 488D7C24 		leaq	16(%rsp), %rdi
 2884      10
 2885 01da 488B56E8 		movq	-24(%rsi), %rdx
 2886 01de E8000000 		call	_ZSt16__ostream_insertIcSt11char_traitsIcEERSt13basic_ostreamIT_T0_ES6_PKS3_l
 2886      00
 2887 01e3 488D7C24 		leaq	16(%rsp), %rdi
 2887      10
 2888 01e8 E8000000 		call	_ZNK8UnitTest15MemoryOutStream7GetTextEv
 2888      00
 2889 01ed 4889C2   		movq	%rax, %rdx
 2890 01f0 4C89EE   		movq	%r13, %rsi
 2891 01f3 4C89E7   		movq	%r12, %rdi
 2892 01f6 E8000000 		call	_ZN8UnitTest11TestResults13OnTestFailureERKNS_11TestDetailsEPKc
 2892      00
 2893              	.LEHE57:
 2894 01fb 488B4424 		movq	104(%rsp), %rax
 2894      68
 2895 0200 48C74424 		movq	$_ZTVN8UnitTest15MemoryOutStreamE+24, 16(%rsp)
 2895      10000000 
 2895      00
 2896 0209 48C74424 		movq	$_ZTVN8UnitTest15MemoryOutStreamE+64, 112(%rsp)
 2896      70000000 
 2896      00
 2897 0212 488D78E8 		leaq	-24(%rax), %rdi
 2898 0216 4881FF00 		cmpq	$_ZNSs4_Rep20_S_empty_rep_storageE, %rdi
 2898      000000
 2899 021d 0F857D00 		jne	.L421
 2899      0000
 2900              	.L394:
 2901 0223 488B4424 		movq	96(%rsp), %rax
 2901      60
 2902 0228 48C74424 		movq	$_ZTCN8UnitTest15MemoryOutStreamE0_St19basic_ostringstreamIcSt11char_traitsIcESaIcEE+24, 16(%
 2902      10000000 
 2902      00
 2903 0231 48C74424 		movq	$_ZTCN8UnitTest15MemoryOutStreamE0_St19basic_ostringstreamIcSt11char_traitsIcESaIcEE+64, 112(
 2903      70000000 
 2903      00
 2904 023a 48C74424 		movq	$_ZTVSt15basic_stringbufIcSt11char_traitsIcESaIcEE+16, 24(%rsp)
 2904      18000000 
 2904      00
 2905 0243 488D78E8 		leaq	-24(%rax), %rdi
 2906 0247 4881FF00 		cmpq	$_ZNSs4_Rep20_S_empty_rep_storageE, %rdi
 2906      000000
 2907 024e 0F857C00 		jne	.L422
 2907      0000
 2908              	.L399:
 2909 0254 488D7C24 		leaq	80(%rsp), %rdi
 2909      50
 2910 0259 48C74424 		movq	$_ZTVSt15basic_streambufIcSt11char_traitsIcEE+16, 24(%rsp)
 2910      18000000 
 2910      00
 2911 0262 E8000000 		call	_ZNSt6localeD1Ev
 2911      00
 2912 0267 488D7C24 		leaq	112(%rsp), %rdi
 2912      70
 2913 026c 48C74424 		movq	$_ZTVSt9basic_iosIcSt11char_traitsIcEE+16, 112(%rsp)
 2913      70000000 
 2913      00
 2914              	.LEHB58:
 2915 0275 E8000000 		call	_ZNSt8ios_baseD2Ev
 2915      00
 2916              	.LEHE58:
 2917 027a E9BEFDFF 		jmp	.L384
 2917      FF
 2918 027f 90       		.p2align 4,,10
 2919              		.p2align 3
 2920              	.L420:
 2921 0280 488B4424 		movq	16(%rsp), %rax
 2921      10
 2922 0285 488D7C24 		leaq	16(%rsp), %rdi
 2922      10
 2923 028a 480378E8 		addq	-24(%rax), %rdi
 2924 028e 8B7720   		movl	32(%rdi), %esi
 2925 0291 83CE01   		orl	$1, %esi
 2926              	.LEHB59:
 2927 0294 E8000000 		call	_ZNSt9basic_iosIcSt11char_traitsIcEE5clearESt12_Ios_Iostate
 2927      00
 2928              	.LEHE59:
 2929 0299 E920FFFF 		jmp	.L392
 2929      FF
 2930 029e 6690     		.p2align 4,,10
 2931              		.p2align 3
 2932              	.L421:
 2933 02a0 BA000000 		movl	$_ZL28__gthrw___pthread_key_createPjPFvPvE, %edx
 2933      00
 2934 02a5 4885D2   		testq	%rdx, %rdx
 2935 02a8 7456     		je	.L395
 2936 02aa BAFFFFFF 		movl	$-1, %edx
 2936      FF
 2937 02af F00FC150 		lock xaddl	%edx, -8(%rax)
 2937      F8
 2938 02b4 89D0     		movl	%edx, %eax
 2939              	.L396:
 2940 02b6 85C0     		testl	%eax, %eax
 2941 02b8 0F8F65FF 		jg	.L394
 2941      FFFF
 2942 02be 488D7424 		leaq	15(%rsp), %rsi
 2942      0F
 2943 02c3 E8000000 		call	_ZNSs4_Rep10_M_destroyERKSaIcE
 2943      00
 2944 02c8 E956FFFF 		jmp	.L394
 2944      FF
 2945 02cd 0F1F00   		.p2align 4,,10
 2946              		.p2align 3
 2947              	.L422:
 2948 02d0 BA000000 		movl	$_ZL28__gthrw___pthread_key_createPjPFvPvE, %edx
 2948      00
 2949 02d5 4885D2   		testq	%rdx, %rdx
 2950 02d8 7436     		je	.L400
 2951 02da BAFFFFFF 		movl	$-1, %edx
 2951      FF
 2952 02df F00FC150 		lock xaddl	%edx, -8(%rax)
 2952      F8
 2953 02e4 89D0     		movl	%edx, %eax
 2954              	.L401:
 2955 02e6 85C0     		testl	%eax, %eax
 2956 02e8 0F8F66FF 		jg	.L399
 2956      FFFF
 2957 02ee 488D7424 		leaq	15(%rsp), %rsi
 2957      0F
 2958 02f3 E8000000 		call	_ZNSs4_Rep10_M_destroyERKSaIcE
 2958      00
 2959 02f8 E957FFFF 		jmp	.L399
 2959      FF
 2960 02fd 0F1F00   		.p2align 4,,10
 2961              		.p2align 3
 2962              	.L395:
 2963 0300 8B50F8   		movl	-8(%rax), %edx
 2964 0303 8D4AFF   		leal	-1(%rdx), %ecx
 2965 0306 8948F8   		movl	%ecx, -8(%rax)
 2966 0309 89D0     		movl	%edx, %eax
 2967 030b EBA9     		jmp	.L396
 2968 030d 0F1F00   		.p2align 4,,10
 2969              		.p2align 3
 2970              	.L400:
 2971 0310 8B50F8   		movl	-8(%rax), %edx
 2972 0313 8D4AFF   		leal	-1(%rdx), %ecx
 2973 0316 8948F8   		movl	%ecx, -8(%rax)
 2974 0319 89D0     		movl	%edx, %eax
 2975 031b EBC9     		jmp	.L401
 2976              	.L419:
 2977 031d E8000000 		call	__stack_chk_fail
 2977      00
 2978              	.L406:
 2979 0322 4889C3   		movq	%rax, %rbx
 2980 0325 EB14     		jmp	.L388
 2981              	.L407:
 2982 0327 4889C3   		movq	%rax, %rbx
 2983 032a EB05     		jmp	.L387
 2984              	.L405:
 2985 032c 4889C3   		movq	%rax, %rbx
 2986 032f EB25     		jmp	.L403
 2987              	.L387:
 2988 0331 488D7C24 		leaq	24(%rsp), %rdi
 2988      18
 2989 0336 E8000000 		call	_ZNSt15basic_stringbufIcSt11char_traitsIcESaIcEED1Ev
 2989      00
 2990              	.L388:
 2991 033b 488D7C24 		leaq	112(%rsp), %rdi
 2991      70
 2992 0340 48C74424 		movq	$_ZTVSt9basic_iosIcSt11char_traitsIcEE+16, 112(%rsp)
 2992      70000000 
 2992      00
 2993 0349 E8000000 		call	_ZNSt8ios_baseD2Ev
 2993      00
 2994 034e 4889DF   		movq	%rbx, %rdi
 2995              	.LEHB60:
 2996 0351 E8000000 		call	_Unwind_Resume
 2996      00
 2997              	.LEHE60:
 2998              	.L403:
 2999 0356 488D7C24 		leaq	16(%rsp), %rdi
 2999      10
 3000 035b E8000000 		call	_ZN8UnitTest15MemoryOutStreamD1Ev
 3000      00
 3001 0360 4889DF   		movq	%rbx, %rdi
 3002              	.LEHB61:
 3003 0363 E8000000 		call	_Unwind_Resume
 3003      00
 3004              	.LEHE61:
 3005              		.cfi_endproc
 3006              	.LFE1488:
 3007              		.section	.gcc_except_table
 3008              	.LLSDA1488:
 3009 0174 FF       		.byte	0xff
 3010 0175 FF       		.byte	0xff
 3011 0176 01       		.byte	0x1
 3012 0177 2B       		.uleb128 .LLSDACSE1488-.LLSDACSB1488
 3013              	.LLSDACSB1488:
 3014 0178 34       		.uleb128 .LEHB54-.LFB1488
 3015 0179 05       		.uleb128 .LEHE54-.LEHB54
 3016 017a 00       		.uleb128 0
 3017 017b 00       		.uleb128 0
 3018 017c D801     		.uleb128 .LEHB55-.LFB1488
 3019 017e 05       		.uleb128 .LEHE55-.LEHB55
 3020 017f A206     		.uleb128 .L406-.LFB1488
 3021 0181 00       		.uleb128 0
 3022 0182 E502     		.uleb128 .LEHB56-.LFB1488
 3023 0184 05       		.uleb128 .LEHE56-.LEHB56
 3024 0185 A706     		.uleb128 .L407-.LFB1488
 3025 0187 00       		.uleb128 0
 3026 0188 9803     		.uleb128 .LEHB57-.LFB1488
 3027 018a 63       		.uleb128 .LEHE57-.LEHB57
 3028 018b AC06     		.uleb128 .L405-.LFB1488
 3029 018d 00       		.uleb128 0
 3030 018e F504     		.uleb128 .LEHB58-.LFB1488
 3031 0190 05       		.uleb128 .LEHE58-.LEHB58
 3032 0191 00       		.uleb128 0
 3033 0192 00       		.uleb128 0
 3034 0193 9405     		.uleb128 .LEHB59-.LFB1488
 3035 0195 05       		.uleb128 .LEHE59-.LEHB59
 3036 0196 AC06     		.uleb128 .L405-.LFB1488
 3037 0198 00       		.uleb128 0
 3038 0199 D106     		.uleb128 .LEHB60-.LFB1488
 3039 019b 05       		.uleb128 .LEHE60-.LEHB60
 3040 019c 00       		.uleb128 0
 3041 019d 00       		.uleb128 0
 3042 019e E306     		.uleb128 .LEHB61-.LFB1488
 3043 01a0 05       		.uleb128 .LEHE61-.LEHB61
 3044 01a1 00       		.uleb128 0
 3045 01a2 00       		.uleb128 0
 3046              	.LLSDACSE1488:
 3047              		.section	.text._ZN8UnitTest10CheckEqualIPKcSsEEvRNS_11TestResultsERKT_RKT0_RKNS_11TestDetailsE,"ax
 3049              		.section	.text.unlikely._ZN8UnitTest10CheckEqualIPKcSsEEvRNS_11TestResultsERKT_RKT0_RKNS_11TestDet
 3050              	.LCOLDE42:
 3051              		.section	.text._ZN8UnitTest10CheckEqualIPKcSsEEvRNS_11TestResultsERKT_RKT0_RKNS_11TestDetailsE,"ax
 3052              	.LHOTE42:
 3053              		.section	.rodata.str1.1
 3054              	.LC43:
 3055 0095 6661696C 		.string	"fail.h"
 3055      2E6800
 3056              	.LC44:
 3057 009c 73756974 		.string	"suite"
 3057      6500
 3058              	.LC45:
 3059 00a2 4661696C 		.string	"FailedTest"
 3059      65645465 
 3059      737400
 3060              	.LC46:
 3061 00ad 65787065 		.string	"expected 1 but was 2"
 3061      63746564 
 3061      20312062 
 3061      75742077 
 3061      61732032 
 3062              	.LC47:
 3063 00c2 65787065 		.string	"expected one but was two"
 3063      63746564 
 3063      206F6E65 
 3063      20627574 
 3063      20776173 
 3064              		.section	.rodata.str1.8
 3065 012e 0000     		.align 8
 3066              	.LC50:
 3067 0130 3C3F786D 		.ascii	"<?xml version=\"1.0\""
 3067      6C207665 
 3067      7273696F 
 3067      6E3D2231 
 3067      2E3022
 3068 0143 3F3E3C75 		.string	"?><unittest-results tests=\"1\" failedtests=\"1\" failures=\"2\" time=\"1.1\"><test suite
 3068      6E697474 
 3068      6573742D 
 3068      72657375 
 3068      6C747320 
 3069 0244 00000000 		.align 8
 3070              	.LC51:
 3071 0248 556E6861 		.string	"Unhandled exception in CHECK_EQUAL(expected, output.str())"
 3071      6E646C65 
 3071      64206578 
 3071      63657074 
 3071      696F6E20 
 3072              		.section	.text.unlikely
 3073              	.LCOLDB52:
 3074              		.text
 3075              	.LHOTB52:
 3076 127a 660F1F44 		.p2align 4,,15
 3076      0000
 3078              	_ZN8UnitTest11ExecuteTestIN12_GLOBAL__N_144XmlTestReporterFixtureMultipleFailuresHelperEEEvRT_RKNS_
 3079              	.LFB1497:
 3080              		.cfi_startproc
 3081              		.cfi_personality 0x3,__gxx_personality_v0
 3082              		.cfi_lsda 0x3,.LLSDA1497
 3083 1280 4154     		pushq	%r12
 3084              		.cfi_def_cfa_offset 16
 3085              		.cfi_offset 12, -16
 3086 1282 55       		pushq	%rbp
 3087              		.cfi_def_cfa_offset 24
 3088              		.cfi_offset 6, -24
 3089 1283 53       		pushq	%rbx
 3090              		.cfi_def_cfa_offset 32
 3091              		.cfi_offset 3, -32
 3092 1284 4889F3   		movq	%rsi, %rbx
 3093 1287 4881ECD0 		subq	$1744, %rsp
 3093      060000
 3094              		.cfi_def_cfa_offset 1776
 3095 128e 48893C24 		movq	%rdi, (%rsp)
 3096 1292 48897424 		movq	%rsi, 8(%rsp)
 3096      08
 3097 1297 64488B04 		movq	%fs:40, %rax
 3097      25280000 
 3097      00
 3098 12a0 48898424 		movq	%rax, 1736(%rsp)
 3098      C8060000 
 3099 12a8 31C0     		xorl	%eax, %eax
 3100              	.LEHB62:
 3101 12aa E8000000 		call	_ZN8UnitTest11CurrentTest7DetailsEv
 3101      00
 3102              	.LEHE62:
 3103 12af 488DBC24 		leaq	608(%rsp), %rdi
 3103      60020000 
 3104 12b7 488918   		movq	%rbx, (%rax)
 3105              	.LEHB63:
 3106 12ba E8000000 		call	_ZN8UnitTest16SignalTranslatorC1Ev
 3106      00
 3107              	.LEHE63:
 3108 12bf 488B3D00 		movq	_ZN8UnitTest16SignalTranslator12s_jumpTargetE(%rip), %rdi
 3108      000000
 3109 12c6 BE010000 		movl	$1, %esi
 3109      00
 3110 12cb E8000000 		call	__sigsetjmp
 3110      00
 3111 12d0 85C0     		testl	%eax, %eax
 3112 12d2 0F852001 		jne	.L508
 3112      0000
 3113 12d8 488D7C24 		leaq	112(%rsp), %rdi
 3113      70
 3114 12dd 41B80100 		movl	$1, %r8d
 3114      0000
 3115 12e3 B9000000 		movl	$.LC43, %ecx
 3115      00
 3116 12e8 BA000000 		movl	$.LC44, %edx
 3116      00
 3117 12ed BE000000 		movl	$.LC45, %esi
 3117      00
 3118              	.LEHB64:
 3119 12f2 E8000000 		call	_ZN8UnitTest11TestDetailsC1EPKcS2_S2_i
 3119      00
 3120 12f7 488DBC24 		leaq	144(%rsp), %rdi
 3120      90000000 
 3121 12ff 41B81F00 		movl	$31, %r8d
 3121      0000
 3122 1305 B9000000 		movl	$.LC43, %ecx
 3122      00
 3123 130a BA000000 		movl	$.LC44, %edx
 3123      00
 3124 130f BE000000 		movl	$.LC45, %esi
 3124      00
 3125 1314 E8000000 		call	_ZN8UnitTest11TestDetailsC1EPKcS2_S2_i
 3125      00
 3126 1319 488B2C24 		movq	(%rsp), %rbp
 3127 131d 488D7424 		leaq	112(%rsp), %rsi
 3127      70
 3128 1322 488D9D60 		leaq	352(%rbp), %rbx
 3128      010000
 3129 1329 4889DF   		movq	%rbx, %rdi
 3130 132c E8000000 		call	_ZN8UnitTest20DeferredTestReporter15ReportTestStartERKNS_11TestDetailsE
 3130      00
 3131 1331 488D7424 		leaq	112(%rsp), %rsi
 3131      70
 3132 1336 BA000000 		movl	$.LC46, %edx
 3132      00
 3133 133b 4889DF   		movq	%rbx, %rdi
 3134 133e E8000000 		call	_ZN8UnitTest20DeferredTestReporter13ReportFailureERKNS_11TestDetailsEPKc
 3134      00
 3135 1343 488DB424 		leaq	144(%rsp), %rsi
 3135      90000000 
 3136 134b BA000000 		movl	$.LC47, %edx
 3136      00
 3137 1350 4889DF   		movq	%rbx, %rdi
 3138 1353 E8000000 		call	_ZN8UnitTest20DeferredTestReporter13ReportFailureERKNS_11TestDetailsEPKc
 3138      00
 3139 1358 488D7424 		leaq	112(%rsp), %rsi
 3139      70
 3140 135d F30F1005 		movss	.LC48(%rip), %xmm0
 3140      00000000 
 3141 1365 4889DF   		movq	%rbx, %rdi
 3142 1368 E8000000 		call	_ZN8UnitTest20DeferredTestReporter16ReportTestFinishERKNS_11TestDetailsEf
 3142      00
 3143 136d F30F1005 		movss	.LC49(%rip), %xmm0
 3143      00000000 
 3144 1375 B9020000 		movl	$2, %ecx
 3144      00
 3145 137a BA010000 		movl	$1, %edx
 3145      00
 3146 137f BE010000 		movl	$1, %esi
 3146      00
 3147 1384 4889DF   		movq	%rbx, %rdi
 3148 1387 E8000000 		call	_ZN8UnitTest15XmlTestReporter13ReportSummaryEiiif
 3148      00
 3149              	.LEHE64:
 3150 138c 48C74424 		movq	$.LC50, 72(%rsp)
 3150      48000000 
 3150      00
 3151              	.LEHB65:
 3152 1395 E8000000 		call	_ZN8UnitTest11CurrentTest7DetailsEv
 3152      00
 3153 139a 488B30   		movq	(%rax), %rsi
 3154 139d 488DBC24 		leaq	208(%rsp), %rdi
 3154      D0000000 
 3155 13a5 BAB40000 		movl	$180, %edx
 3155      00
 3156 13aa E8000000 		call	_ZN8UnitTest11TestDetailsC1ERKS0_i
 3156      00
 3157              	.LEHE65:
 3158 13af 488B4530 		movq	48(%rbp), %rax
 3159 13b3 48C74424 		movq	$_ZNSs4_Rep20_S_empty_rep_storageE+24, 32(%rsp)
 3159      20000000 
 3159      00
 3160 13bc 4885C0   		testq	%rax, %rax
 3161 13bf 0F843B02 		je	.L426
 3161      0000
 3162 13c5 488B7D20 		movq	32(%rbp), %rdi
 3163 13c9 4839F8   		cmpq	%rdi, %rax
 3164 13cc 7652     		jbe	.L427
 3165 13ce 488B0C24 		movq	(%rsp), %rcx
 3166 13d2 488B6928 		movq	40(%rcx), %rbp
 3167 13d6 4839E8   		cmpq	%rbp, %rax
 3168 13d9 0F84B901 		je	.L482
 3168      0000
 3169 13df 4885ED   		testq	%rbp, %rbp
 3170 13e2 0F859802 		jne	.L509
 3170      0000
 3171 13e8 BF000000 		movl	$.LC34, %edi
 3171      00
 3172              	.LEHB66:
 3173 13ed E8000000 		call	_ZSt19__throw_logic_errorPKc
 3173      00
 3174              	.LEHE66:
 3175              		.p2align 4,,10
 3176 13f2 660F1F44 		.p2align 3
 3176      0000
 3177              	.L508:
 3178 13f8 BF080000 		movl	$8, %edi
 3178      00
 3179 13fd E8000000 		call	__cxa_allocate_exception
 3179      00
 3180 1402 31D2     		xorl	%edx, %edx
 3181 1404 48C70000 		movq	$.LC24, (%rax)
 3181      000000
 3182 140b BE000000 		movl	$_ZTIPKc, %esi
 3182      00
 3183 1410 4889C7   		movq	%rax, %rdi
 3184              	.LEHB67:
 3185 1413 E8000000 		call	__cxa_throw
 3185      00
 3186              	.LEHE67:
 3187 1418 0F1F8400 		.p2align 4,,10
 3187      00000000 
 3188              		.p2align 3
 3189              	.L427:
 3190 1420 488B0424 		movq	(%rsp), %rax
 3191 1424 488B6828 		movq	40(%rax), %rbp
 3192 1428 4839EF   		cmpq	%rbp, %rdi
 3193 142b 0F84E700 		je	.L483
 3193      0000
 3194 1431 4885ED   		testq	%rbp, %rbp
 3195 1434 0F859602 		jne	.L441
 3195      0000
 3196 143a 4885FF   		testq	%rdi, %rdi
 3197 143d 0F848D02 		je	.L441
 3197      0000
 3198 1443 BF000000 		movl	$.LC34, %edi
 3198      00
 3199              	.LEHB68:
 3200 1448 E8000000 		call	_ZSt19__throw_logic_errorPKc
 3200      00
 3201              	.LEHE68:
 3202              	.L485:
 3203 144d 4889C3   		movq	%rax, %rbx
 3204 1450 4889D5   		movq	%rdx, %rbp
 3205              	.L468:
 3206 1453 488DBC24 		leaq	608(%rsp), %rdi
 3206      60020000 
 3207 145b E8000000 		call	_ZN8UnitTest16SignalTranslatorD1Ev
 3207      00
 3208 1460 4889DF   		movq	%rbx, %rdi
 3209 1463 4889EA   		movq	%rbp, %rdx
 3210              	.L469:
 3211 1466 4883FA01 		cmpq	$1, %rdx
 3212 146a 0F845404 		je	.L471
 3212      0000
 3213 1470 4883FA02 		cmpq	$2, %rdx
 3214 1474 0F852404 		jne	.L510
 3214      0000
 3215 147a E8000000 		call	__cxa_begin_catch
 3215      00
 3216 147f 488DBC24 		leaq	240(%rsp), %rdi
 3216      F0000000 
 3217 1487 4889C3   		movq	%rax, %rbx
 3218              	.LEHB69:
 3219 148a E8000000 		call	_ZN8UnitTest15MemoryOutStreamC1Ev
 3219      00
 3220              	.LEHE69:
 3221 148f 488B03   		movq	(%rbx), %rax
 3222 1492 4889DF   		movq	%rbx, %rdi
 3223 1495 FF5010   		call	*16(%rax)
 3224 1498 488DBC24 		leaq	240(%rsp), %rdi
 3224      F0000000 
 3225 14a0 BE000000 		movl	$.LC32, %esi
 3225      00
 3226 14a5 4889C3   		movq	%rax, %rbx
 3227              	.LEHB70:
 3228 14a8 E8000000 		call	_ZStlsISt11char_traitsIcEERSt13basic_ostreamIcT_ES5_PKc
 3228      00
 3229 14ad 4889C7   		movq	%rax, %rdi
 3230 14b0 4889DE   		movq	%rbx, %rsi
 3231 14b3 E8000000 		call	_ZStlsISt11char_traitsIcEERSt13basic_ostreamIcT_ES5_PKc
 3231      00
 3232 14b8 488DBC24 		leaq	240(%rsp), %rdi
 3232      F0000000 
 3233 14c0 E8000000 		call	_ZNK8UnitTest15MemoryOutStream7GetTextEv
 3233      00
 3234 14c5 4889C3   		movq	%rax, %rbx
 3235 14c8 E8000000 		call	_ZN8UnitTest11CurrentTest7ResultsEv
 3235      00
 3236 14cd 488B7424 		movq	8(%rsp), %rsi
 3236      08
 3237 14d2 488B38   		movq	(%rax), %rdi
 3238 14d5 4889DA   		movq	%rbx, %rdx
 3239 14d8 E8000000 		call	_ZN8UnitTest11TestResults13OnTestFailureERKNS_11TestDetailsEPKc
 3239      00
 3240              	.LEHE70:
 3241 14dd 488DBC24 		leaq	240(%rsp), %rdi
 3241      F0000000 
 3242              	.LEHB71:
 3243 14e5 E8000000 		call	_ZN8UnitTest15MemoryOutStreamD1Ev
 3243      00
 3244              	.LEHE71:
 3245              	.L502:
 3246 14ea E8000000 		call	__cxa_end_catch
 3246      00
 3247 14ef 90       		.p2align 4,,10
 3248              		.p2align 3
 3249              	.L423:
 3250 14f0 488B8424 		movq	1736(%rsp), %rax
 3250      C8060000 
 3251 14f8 64483304 		xorq	%fs:40, %rax
 3251      25280000 
 3251      00
 3252 1501 0F85DB02 		jne	.L511
 3252      0000
 3253 1507 4881C4D0 		addq	$1744, %rsp
 3253      060000
 3254              		.cfi_remember_state
 3255              		.cfi_def_cfa_offset 32
 3256 150e 5B       		popq	%rbx
 3257              		.cfi_def_cfa_offset 24
 3258 150f 5D       		popq	%rbp
 3259              		.cfi_def_cfa_offset 16
 3260 1510 415C     		popq	%r12
 3261              		.cfi_def_cfa_offset 8
 3262 1512 C3       		ret
 3263              		.p2align 4,,10
 3264 1513 0F1F4400 		.p2align 3
 3264      00
 3265              	.L483:
 3266              		.cfi_restore_state
 3267 1518 B9000000 		movl	$_ZNSs4_Rep20_S_empty_rep_storageE+24, %ecx
 3267      00
 3268 151d 0F1F00   		.p2align 4,,10
 3269              		.p2align 3
 3270              	.L438:
 3271 1520 488D7424 		leaq	48(%rsp), %rsi
 3271      30
 3272 1525 488D7C24 		leaq	32(%rsp), %rdi
 3272      20
 3273 152a 48894C24 		movq	%rcx, 48(%rsp)
 3273      30
 3274              	.LEHB72:
 3275 152f E8000000 		call	_ZNSs6assignERKSs
 3275      00
 3276              	.LEHE72:
 3277 1534 488B4424 		movq	48(%rsp), %rax
 3277      30
 3278 1539 488D78E8 		leaq	-24(%rax), %rdi
 3279 153d 4881FF00 		cmpq	$_ZNSs4_Rep20_S_empty_rep_storageE, %rdi
 3279      000000
 3280 1544 0F853E02 		jne	.L512
 3280      0000
 3281              	.L434:
 3282              	.LEHB73:
 3283 154a E8000000 		call	_ZN8UnitTest11CurrentTest7ResultsEv
 3283      00
 3284 154f 488B38   		movq	(%rax), %rdi
 3285 1552 488D8C24 		leaq	208(%rsp), %rcx
 3285      D0000000 
 3286 155a 488D5424 		leaq	32(%rsp), %rdx
 3286      20
 3287 155f 488D7424 		leaq	72(%rsp), %rsi
 3287      48
 3288 1564 E8000000 		call	_ZN8UnitTest10CheckEqualIPKcSsEEvRNS_11TestResultsERKT_RKT0_RKNS_11TestDetailsE
 3288      00
 3289              	.LEHE73:
 3290 1569 488B4424 		movq	32(%rsp), %rax
 3290      20
 3291 156e 488D78E8 		leaq	-24(%rax), %rdi
 3292 1572 4881FF00 		cmpq	$_ZNSs4_Rep20_S_empty_rep_storageE, %rdi
 3292      000000
 3293 1579 0F85D901 		jne	.L513
 3293      0000
 3294              	.L459:
 3295 157f 488DBC24 		leaq	608(%rsp), %rdi
 3295      60020000 
 3296              	.LEHB74:
 3297 1587 E8000000 		call	_ZN8UnitTest16SignalTranslatorD1Ev
 3297      00
 3298              	.LEHE74:
 3299 158c E95FFFFF 		jmp	.L423
 3299      FF
 3300              		.p2align 4,,10
 3301 1591 0F1F8000 		.p2align 3
 3301      000000
 3302              	.L482:
 3303 1598 B9000000 		movl	$_ZNSs4_Rep20_S_empty_rep_storageE+24, %ecx
 3303      00
 3304 159d 0F1F00   		.p2align 4,,10
 3305              		.p2align 3
 3306              	.L428:
 3307 15a0 488D7424 		leaq	64(%rsp), %rsi
 3307      40
 3308 15a5 488D7C24 		leaq	32(%rsp), %rdi
 3308      20
 3309 15aa 48894C24 		movq	%rcx, 64(%rsp)
 3309      40
 3310              	.LEHB75:
 3311 15af E8000000 		call	_ZNSs6assignERKSs
 3311      00
 3312              	.LEHE75:
 3313 15b4 488B4424 		movq	64(%rsp), %rax
 3313      40
 3314 15b9 488D78E8 		leaq	-24(%rax), %rdi
 3315 15bd 4881FF00 		cmpq	$_ZNSs4_Rep20_S_empty_rep_storageE, %rdi
 3315      000000
 3316 15c4 7484     		je	.L434
 3317 15c6 BA000000 		movl	$_ZL28__gthrw___pthread_key_createPjPFvPvE, %edx
 3317      00
 3318 15cb 4885D2   		testq	%rdx, %rdx
 3319 15ce 0F84F101 		je	.L435
 3319      0000
 3320 15d4 BAFFFFFF 		movl	$-1, %edx
 3320      FF
 3321 15d9 F00FC150 		lock xaddl	%edx, -8(%rax)
 3321      F8
 3322 15de 89D0     		movl	%edx, %eax
 3323              	.L436:
 3324 15e0 85C0     		testl	%eax, %eax
 3325 15e2 0F8F62FF 		jg	.L434
 3325      FFFF
 3326 15e8 488D7424 		leaq	29(%rsp), %rsi
 3326      1D
 3327 15ed E8000000 		call	_ZNSs4_Rep10_M_destroyERKSaIcE
 3327      00
 3328 15f2 E953FFFF 		jmp	.L434
 3328      FF
 3329 15f7 660F1F84 		.p2align 4,,10
 3329      00000000 
 3329      00
 3330              		.p2align 3
 3331              	.L426:
 3332 1600 488B3424 		movq	(%rsp), %rsi
 3333 1604 488D7C24 		leaq	32(%rsp), %rdi
 3333      20
 3334 1609 4883C650 		addq	$80, %rsi
 3335              	.LEHB76:
 3336 160d E8000000 		call	_ZNSs6assignERKSs
 3336      00
 3337              	.LEHE76:
 3338 1612 E933FFFF 		jmp	.L434
 3338      FF
 3339              	.L493:
 3340 1617 4889C3   		movq	%rax, %rbx
 3341              	.L450:
 3342 161a 488B4424 		movq	32(%rsp), %rax
 3342      20
 3343 161f 488D78E8 		leaq	-24(%rax), %rdi
 3344 1623 4881FF00 		cmpq	$_ZNSs4_Rep20_S_empty_rep_storageE, %rdi
 3344      000000
 3345 162a 740A     		je	.L466
 3346 162c 488D7424 		leaq	25(%rsp), %rsi
 3346      19
 3347 1631 E8000000 		call	_ZNSs4_Rep10_M_disposeERKSaIcE.part.5
 3347      00
 3348              	.L466:
 3349 1636 4889D8   		movq	%rbx, %rax
 3350              	.L456:
 3351 1639 4889C7   		movq	%rax, %rdi
 3352 163c E8000000 		call	__cxa_begin_catch
 3352      00
 3353              	.LEHB77:
 3354 1641 E8000000 		call	_ZN8UnitTest11CurrentTest7DetailsEv
 3354      00
 3355 1646 488B30   		movq	(%rax), %rsi
 3356 1649 488DBC24 		leaq	176(%rsp), %rdi
 3356      B0000000 
 3357 1651 BAB40000 		movl	$180, %edx
 3357      00
 3358 1656 E8000000 		call	_ZN8UnitTest11TestDetailsC1ERKS0_i
 3358      00
 3359 165b E8000000 		call	_ZN8UnitTest11CurrentTest7ResultsEv
 3359      00
 3360 1660 488B38   		movq	(%rax), %rdi
 3361 1663 488DB424 		leaq	176(%rsp), %rsi
 3361      B0000000 
 3362 166b BA000000 		movl	$.LC51, %edx
 3362      00
 3363 1670 E8000000 		call	_ZN8UnitTest11TestResults13OnTestFailureERKNS_11TestDetailsEPKc
 3363      00
 3364              	.LEHE77:
 3365              	.LEHB78:
 3366 1675 E8000000 		call	__cxa_end_catch
 3366      00
 3367              	.LEHE78:
 3368 167a E900FFFF 		jmp	.L459
 3368      FF
 3369 167f 90       		.p2align 4,,10
 3370              		.p2align 3
 3371              	.L509:
 3372 1680 4829E8   		subq	%rbp, %rax
 3373 1683 488D5424 		leaq	31(%rsp), %rdx
 3373      1F
 3374 1688 31F6     		xorl	%esi, %esi
 3375 168a 4889C7   		movq	%rax, %rdi
 3376 168d 4889C3   		movq	%rax, %rbx
 3377              	.LEHB79:
 3378 1690 E8000000 		call	_ZNSs4_Rep9_S_createEmmRKSaIcE
 3378      00
 3379 1695 4883FB01 		cmpq	$1, %rbx
 3380 1699 4989C4   		movq	%rax, %r12
 3381 169c 488D4818 		leaq	24(%rax), %rcx
 3382 16a0 757E     		jne	.L431
 3383 16a2 0FB64500 		movzbl	0(%rbp), %eax
 3384 16a6 41884424 		movb	%al, 24(%r12)
 3384      18
 3385              	.L432:
 3386 16ab 4981FC00 		cmpq	$_ZNSs4_Rep20_S_empty_rep_storageE, %r12
 3386      000000
 3387 16b2 0F84E8FE 		je	.L428
 3387      FFFF
 3388 16b8 41C74424 		movl	$0, 16(%r12)
 3388      10000000 
 3388      00
 3389 16c1 49891C24 		movq	%rbx, (%r12)
 3390 16c5 41C6441C 		movb	$0, 24(%r12,%rbx)
 3390      1800
 3391 16cb E9D0FEFF 		jmp	.L428
 3391      FF
 3392              	.L441:
 3393 16d0 4889FB   		movq	%rdi, %rbx
 3394 16d3 488D5424 		leaq	30(%rsp), %rdx
 3394      1E
 3395 16d8 31F6     		xorl	%esi, %esi
 3396 16da 4829EB   		subq	%rbp, %rbx
 3397 16dd 4889DF   		movq	%rbx, %rdi
 3398 16e0 E8000000 		call	_ZNSs4_Rep9_S_createEmmRKSaIcE
 3398      00
 3399              	.LEHE79:
 3400 16e5 4883FB01 		cmpq	$1, %rbx
 3401 16e9 4989C4   		movq	%rax, %r12
 3402 16ec 488D4818 		leaq	24(%rax), %rcx
 3403 16f0 754E     		jne	.L442
 3404 16f2 0FB64500 		movzbl	0(%rbp), %eax
 3405 16f6 41884424 		movb	%al, 24(%r12)
 3405      18
 3406              	.L443:
 3407 16fb 4981FC00 		cmpq	$_ZNSs4_Rep20_S_empty_rep_storageE, %r12
 3407      000000
 3408 1702 0F8418FE 		je	.L438
 3408      FFFF
 3409 1708 41C74424 		movl	$0, 16(%r12)
 3409      10000000 
 3409      00
 3410 1711 49891C24 		movq	%rbx, (%r12)
 3411 1715 41C6441C 		movb	$0, 24(%r12,%rbx)
 3411      1800
 3412 171b E900FEFF 		jmp	.L438
 3412      FF
 3413              		.p2align 4,,10
 3414              		.p2align 3
 3415              	.L431:
 3416 1720 4889CF   		movq	%rcx, %rdi
 3417 1723 4889DA   		movq	%rbx, %rdx
 3418 1726 4889EE   		movq	%rbp, %rsi
 3419 1729 E8000000 		call	memcpy
 3419      00
 3420 172e 4889C1   		movq	%rax, %rcx
 3421 1731 E975FFFF 		jmp	.L432
 3421      FF
 3422 1736 662E0F1F 		.p2align 4,,10
 3422      84000000 
 3422      0000
 3423              		.p2align 3
 3424              	.L442:
 3425 1740 4889CF   		movq	%rcx, %rdi
 3426 1743 4889DA   		movq	%rbx, %rdx
 3427 1746 4889EE   		movq	%rbp, %rsi
 3428 1749 E8000000 		call	memcpy
 3428      00
 3429 174e 4889C1   		movq	%rax, %rcx
 3430 1751 EBA8     		jmp	.L443
 3431              		.p2align 4,,10
 3432 1753 0F1F4400 		.p2align 3
 3432      00
 3433              	.L513:
 3434 1758 BA000000 		movl	$_ZL28__gthrw___pthread_key_createPjPFvPvE, %edx
 3434      00
 3435 175d 4885D2   		testq	%rdx, %rdx
 3436 1760 7456     		je	.L460
 3437 1762 BAFFFFFF 		movl	$-1, %edx
 3437      FF
 3438 1767 F00FC150 		lock xaddl	%edx, -8(%rax)
 3438      F8
 3439 176c 89D0     		movl	%edx, %eax
 3440              	.L461:
 3441 176e 85C0     		testl	%eax, %eax
 3442 1770 0F8F09FE 		jg	.L459
 3442      FFFF
 3443 1776 488D7424 		leaq	24(%rsp), %rsi
 3443      18
 3444 177b E8000000 		call	_ZNSs4_Rep10_M_destroyERKSaIcE
 3444      00
 3445 1780 E9FAFDFF 		jmp	.L459
 3445      FF
 3446              		.p2align 4,,10
 3447 1785 0F1F00   		.p2align 3
 3448              	.L512:
 3449 1788 BA000000 		movl	$_ZL28__gthrw___pthread_key_createPjPFvPvE, %edx
 3449      00
 3450 178d 4885D2   		testq	%rdx, %rdx
 3451 1790 7443     		je	.L445
 3452 1792 BAFFFFFF 		movl	$-1, %edx
 3452      FF
 3453 1797 F00FC150 		lock xaddl	%edx, -8(%rax)
 3453      F8
 3454 179c 89D0     		movl	%edx, %eax
 3455              	.L446:
 3456 179e 85C0     		testl	%eax, %eax
 3457 17a0 0F8FA4FD 		jg	.L434
 3457      FFFF
 3458 17a6 488D7424 		leaq	28(%rsp), %rsi
 3458      1C
 3459 17ab E8000000 		call	_ZNSs4_Rep10_M_destroyERKSaIcE
 3459      00
 3460 17b0 E995FDFF 		jmp	.L434
 3460      FF
 3461              		.p2align 4,,10
 3462 17b5 0F1F00   		.p2align 3
 3463              	.L460:
 3464 17b8 8B50F8   		movl	-8(%rax), %edx
 3465 17bb 8D4AFF   		leal	-1(%rdx), %ecx
 3466 17be 8948F8   		movl	%ecx, -8(%rax)
 3467 17c1 89D0     		movl	%edx, %eax
 3468 17c3 EBA9     		jmp	.L461
 3469              	.L435:
 3470 17c5 8B50F8   		movl	-8(%rax), %edx
 3471 17c8 8D4AFF   		leal	-1(%rdx), %ecx
 3472 17cb 8948F8   		movl	%ecx, -8(%rax)
 3473 17ce 89D0     		movl	%edx, %eax
 3474 17d0 E90BFEFF 		jmp	.L436
 3474      FF
 3475              	.L445:
 3476 17d5 8B50F8   		movl	-8(%rax), %edx
 3477 17d8 8D4AFF   		leal	-1(%rdx), %ecx
 3478 17db 8948F8   		movl	%ecx, -8(%rax)
 3479 17de 89D0     		movl	%edx, %eax
 3480 17e0 EBBC     		jmp	.L446
 3481              	.L511:
 3482 17e2 E8000000 		call	__stack_chk_fail
 3482      00
 3483              	.L490:
 3484 17e7 4889C3   		movq	%rax, %rbx
 3485 17ea 4889D5   		movq	%rdx, %rbp
 3486 17ed E8000000 		call	__cxa_end_catch
 3486      00
 3487 17f2 E95CFCFF 		jmp	.L468
 3487      FF
 3488              	.L484:
 3489 17f7 4889C7   		movq	%rax, %rdi
 3490 17fa E967FCFF 		jmp	.L469
 3490      FF
 3491              	.L494:
 3492 17ff 4889C3   		movq	%rax, %rbx
 3493 1802 488B4424 		movq	48(%rsp), %rax
 3493      30
 3494 1807 488D78E8 		leaq	-24(%rax), %rdi
 3495 180b 4881FF00 		cmpq	$_ZNSs4_Rep20_S_empty_rep_storageE, %rdi
 3495      000000
 3496 1812 0F8402FE 		je	.L450
 3496      FFFF
 3497 1818 488D7424 		leaq	26(%rsp), %rsi
 3497      1A
 3498 181d E8000000 		call	_ZNSs4_Rep10_M_disposeERKSaIcE.part.5
 3498      00
 3499 1822 E9F3FDFF 		jmp	.L450
 3499      FF
 3500              	.L491:
 3501 1827 E90DFEFF 		jmp	.L456
 3501      FF
 3502              	.L492:
 3503 182c 4889C3   		movq	%rax, %rbx
 3504 182f 488B4424 		movq	32(%rsp), %rax
 3504      20
 3505 1834 488D78E8 		leaq	-24(%rax), %rdi
 3506 1838 4881FF00 		cmpq	$_ZNSs4_Rep20_S_empty_rep_storageE, %rdi
 3506      000000
 3507 183f 0F84F1FD 		je	.L466
 3507      FFFF
 3508 1845 488D7424 		leaq	23(%rsp), %rsi
 3508      17
 3509 184a E8000000 		call	_ZNSs4_Rep10_M_disposeERKSaIcE.part.5
 3509      00
 3510 184f E9E2FDFF 		jmp	.L466
 3510      FF
 3511              	.L495:
 3512 1854 4889C3   		movq	%rax, %rbx
 3513 1857 488B4424 		movq	64(%rsp), %rax
 3513      40
 3514 185c 488D78E8 		leaq	-24(%rax), %rdi
 3515 1860 4881FF00 		cmpq	$_ZNSs4_Rep20_S_empty_rep_storageE, %rdi
 3515      000000
 3516 1867 0F84ADFD 		je	.L450
 3516      FFFF
 3517 186d 488D7424 		leaq	27(%rsp), %rsi
 3517      1B
 3518 1872 E8000000 		call	_ZNSs4_Rep10_M_disposeERKSaIcE.part.5
 3518      00
 3519 1877 E99EFDFF 		jmp	.L450
 3519      FF
 3520              	.L488:
 3521 187c 488DBC24 		leaq	240(%rsp), %rdi
 3521      F0000000 
 3522 1884 4889C3   		movq	%rax, %rbx
 3523 1887 E8000000 		call	_ZN8UnitTest15MemoryOutStreamD1Ev
 3523      00
 3524              	.L475:
 3525 188c E8000000 		call	__cxa_end_catch
 3525      00
 3526 1891 4889DF   		movq	%rbx, %rdi
 3527              	.LEHB80:
 3528 1894 E8000000 		call	_Unwind_Resume
 3528      00
 3529              	.LEHE80:
 3530              	.L487:
 3531              	.L503:
 3532 1899 4889C3   		movq	%rax, %rbx
 3533 189c EBEE     		jmp	.L475
 3534              	.L510:
 3535 189e E8000000 		call	__cxa_begin_catch
 3535      00
 3536              	.LEHB81:
 3537 18a3 E8000000 		call	_ZN8UnitTest11CurrentTest7ResultsEv
 3537      00
 3538 18a8 488B7424 		movq	8(%rsp), %rsi
 3538      08
 3539 18ad 488B38   		movq	(%rax), %rdi
 3540 18b0 BA000000 		movl	$.LC33, %edx
 3540      00
 3541 18b5 E8000000 		call	_ZN8UnitTest11TestResults13OnTestFailureERKNS_11TestDetailsEPKc
 3541      00
 3542              	.LEHE81:
 3543              	.LEHB82:
 3544 18ba E8000000 		call	__cxa_end_catch
 3544      00
 3545              	.LEHE82:
 3546 18bf E92CFCFF 		jmp	.L423
 3546      FF
 3547              	.L471:
 3548 18c4 E8000000 		call	__cxa_begin_catch
 3548      00
 3549 18c9 4889C3   		movq	%rax, %rbx
 3550 18cc 488B00   		movq	(%rax), %rax
 3551 18cf 4889DF   		movq	%rbx, %rdi
 3552 18d2 FF5010   		call	*16(%rax)
 3553 18d5 4889DF   		movq	%rbx, %rdi
 3554 18d8 4889C5   		movq	%rax, %rbp
 3555              	.LEHB83:
 3556 18db E8000000 		call	_ZNK8UnitTest15AssertException10LineNumberEv
 3556      00
 3557 18e0 4889DF   		movq	%rbx, %rdi
 3558 18e3 4189C4   		movl	%eax, %r12d
 3559 18e6 E8000000 		call	_ZNK8UnitTest15AssertException8FilenameEv
 3559      00
 3560 18eb 4889C1   		movq	%rax, %rcx
 3561 18ee 488B4424 		movq	8(%rsp), %rax
 3561      08
 3562 18f3 488D7C24 		leaq	80(%rsp), %rdi
 3562      50
 3563 18f8 4589E0   		movl	%r12d, %r8d
 3564 18fb 488B7008 		movq	8(%rax), %rsi
 3565 18ff 488B10   		movq	(%rax), %rdx
 3566 1902 E8000000 		call	_ZN8UnitTest11TestDetailsC1EPKcS2_S2_i
 3566      00
 3567 1907 E8000000 		call	_ZN8UnitTest11CurrentTest7ResultsEv
 3567      00
 3568 190c 488B38   		movq	(%rax), %rdi
 3569 190f 488D7424 		leaq	80(%rsp), %rsi
 3569      50
 3570 1914 4889EA   		movq	%rbp, %rdx
 3571 1917 E8000000 		call	_ZN8UnitTest11TestResults13OnTestFailureERKNS_11TestDetailsEPKc
 3571      00
 3572              	.LEHE83:
 3573 191c E9C9FBFF 		jmp	.L502
 3573      FF
 3574              	.L489:
 3575 1921 4889C3   		movq	%rax, %rbx
 3576 1924 E8000000 		call	__cxa_end_catch
 3576      00
 3577 1929 4889DF   		movq	%rbx, %rdi
 3578              	.LEHB84:
 3579 192c E8000000 		call	_Unwind_Resume
 3579      00
 3580              	.LEHE84:
 3581              	.L486:
 3582 1931 E963FFFF 		jmp	.L503
 3582      FF
 3583              		.cfi_endproc
 3584              	.LFE1497:
 3585              		.section	.gcc_except_table
 3586 01a3 00       		.align 4
 3587              	.LLSDA1497:
 3588 01a4 FF       		.byte	0xff
 3589 01a5 03       		.byte	0x3
 3590 01a6 9C01     		.uleb128 .LLSDATT1497-.LLSDATTD1497
 3591              	.LLSDATTD1497:
 3592 01a8 01       		.byte	0x1
 3593 01a9 8401     		.uleb128 .LLSDACSE1497-.LLSDACSB1497
 3594              	.LLSDACSB1497:
 3595 01ab 2A       		.uleb128 .LEHB62-.LFB1497
 3596 01ac 05       		.uleb128 .LEHE62-.LEHB62
 3597 01ad 00       		.uleb128 0
 3598 01ae 00       		.uleb128 0
 3599 01af 3A       		.uleb128 .LEHB63-.LFB1497
 3600 01b0 05       		.uleb128 .LEHE63-.LEHB63
 3601 01b1 F70A     		.uleb128 .L484-.LFB1497
 3602 01b3 05       		.uleb128 0x5
 3603 01b4 72       		.uleb128 .LEHB64-.LFB1497
 3604 01b5 9A01     		.uleb128 .LEHE64-.LEHB64
 3605 01b7 CD03     		.uleb128 .L485-.LFB1497
 3606 01b9 07       		.uleb128 0x7
 3607 01ba 9502     		.uleb128 .LEHB65-.LFB1497
 3608 01bc 1A       		.uleb128 .LEHE65-.LEHB65
 3609 01bd A70B     		.uleb128 .L491-.LFB1497
 3610 01bf 01       		.uleb128 0x1
 3611 01c0 ED02     		.uleb128 .LEHB66-.LFB1497
 3612 01c2 05       		.uleb128 .LEHE66-.LEHB66
 3613 01c3 9707     		.uleb128 .L493-.LFB1497
 3614 01c5 01       		.uleb128 0x1
 3615 01c6 9303     		.uleb128 .LEHB67-.LFB1497
 3616 01c8 05       		.uleb128 .LEHE67-.LEHB67
 3617 01c9 CD03     		.uleb128 .L485-.LFB1497
 3618 01cb 07       		.uleb128 0x7
 3619 01cc C803     		.uleb128 .LEHB68-.LFB1497
 3620 01ce 05       		.uleb128 .LEHE68-.LEHB68
 3621 01cf 9707     		.uleb128 .L493-.LFB1497
 3622 01d1 01       		.uleb128 0x1
 3623 01d2 8A04     		.uleb128 .LEHB69-.LFB1497
 3624 01d4 05       		.uleb128 .LEHE69-.LEHB69
 3625 01d5 990C     		.uleb128 .L487-.LFB1497
 3626 01d7 00       		.uleb128 0
 3627 01d8 A804     		.uleb128 .LEHB70-.LFB1497
 3628 01da 35       		.uleb128 .LEHE70-.LEHB70
 3629 01db FC0B     		.uleb128 .L488-.LFB1497
 3630 01dd 00       		.uleb128 0
 3631 01de E504     		.uleb128 .LEHB71-.LFB1497
 3632 01e0 05       		.uleb128 .LEHE71-.LEHB71
 3633 01e1 990C     		.uleb128 .L487-.LFB1497
 3634 01e3 00       		.uleb128 0
 3635 01e4 AF05     		.uleb128 .LEHB72-.LFB1497
 3636 01e6 05       		.uleb128 .LEHE72-.LEHB72
 3637 01e7 FF0A     		.uleb128 .L494-.LFB1497
 3638 01e9 01       		.uleb128 0x1
 3639 01ea CA05     		.uleb128 .LEHB73-.LFB1497
 3640 01ec 1F       		.uleb128 .LEHE73-.LEHB73
 3641 01ed AC0B     		.uleb128 .L492-.LFB1497
 3642 01ef 01       		.uleb128 0x1
 3643 01f0 8706     		.uleb128 .LEHB74-.LFB1497
 3644 01f2 05       		.uleb128 .LEHE74-.LEHB74
 3645 01f3 F70A     		.uleb128 .L484-.LFB1497
 3646 01f5 05       		.uleb128 0x5
 3647 01f6 AF06     		.uleb128 .LEHB75-.LFB1497
 3648 01f8 05       		.uleb128 .LEHE75-.LEHB75
 3649 01f9 D40B     		.uleb128 .L495-.LFB1497
 3650 01fb 01       		.uleb128 0x1
 3651 01fc 8D07     		.uleb128 .LEHB76-.LFB1497
 3652 01fe 05       		.uleb128 .LEHE76-.LEHB76
 3653 01ff 9707     		.uleb128 .L493-.LFB1497
 3654 0201 01       		.uleb128 0x1
 3655 0202 C107     		.uleb128 .LEHB77-.LFB1497
 3656 0204 34       		.uleb128 .LEHE77-.LEHB77
 3657 0205 E70A     		.uleb128 .L490-.LFB1497
 3658 0207 07       		.uleb128 0x7
 3659 0208 F507     		.uleb128 .LEHB78-.LFB1497
 3660 020a 05       		.uleb128 .LEHE78-.LEHB78
 3661 020b CD03     		.uleb128 .L485-.LFB1497
 3662 020d 07       		.uleb128 0x7
 3663 020e 9008     		.uleb128 .LEHB79-.LFB1497
 3664 0210 55       		.uleb128 .LEHE79-.LEHB79
 3665 0211 9707     		.uleb128 .L493-.LFB1497
 3666 0213 01       		.uleb128 0x1
 3667 0214 940C     		.uleb128 .LEHB80-.LFB1497
 3668 0216 05       		.uleb128 .LEHE80-.LEHB80
 3669 0217 00       		.uleb128 0
 3670 0218 00       		.uleb128 0
 3671 0219 A30C     		.uleb128 .LEHB81-.LFB1497
 3672 021b 17       		.uleb128 .LEHE81-.LEHB81
 3673 021c A10D     		.uleb128 .L489-.LFB1497
 3674 021e 00       		.uleb128 0
 3675 021f BA0C     		.uleb128 .LEHB82-.LFB1497
 3676 0221 05       		.uleb128 .LEHE82-.LEHB82
 3677 0222 00       		.uleb128 0
 3678 0223 00       		.uleb128 0
 3679 0224 DB0C     		.uleb128 .LEHB83-.LFB1497
 3680 0226 41       		.uleb128 .LEHE83-.LEHB83
 3681 0227 B10D     		.uleb128 .L486-.LFB1497
 3682 0229 00       		.uleb128 0
 3683 022a AC0D     		.uleb128 .LEHB84-.LFB1497
 3684 022c 05       		.uleb128 .LEHE84-.LEHB84
 3685 022d 00       		.uleb128 0
 3686 022e 00       		.uleb128 0
 3687              	.LLSDACSE1497:
 3688 022f 03       		.byte	0x3
 3689 0230 00       		.byte	0
 3690 0231 02       		.byte	0x2
 3691 0232 7D       		.byte	0x7d
 3692 0233 01       		.byte	0x1
 3693 0234 7D       		.byte	0x7d
 3694 0235 00       		.byte	0
 3695 0236 7D       		.byte	0x7d
 3696 0237 00       		.align 4
 3697 0238 00000000 		.long	0
 3698              	
 3699 023c 00000000 		.long	_ZTISt9exception
 3700 0240 00000000 		.long	_ZTIN8UnitTest15AssertExceptionE
 3701              	.LLSDATT1497:
 3702              		.text
 3704              		.section	.text.unlikely
 3705              	.LCOLDE52:
 3706              		.text
 3707              	.LHOTE52:
 3708              		.section	.text.unlikely
 3709              		.align 2
 3710              	.LCOLDB53:
 3711              		.text
 3712              	.LHOTB53:
 3713              		.align 2
 3714 1936 662E0F1F 		.p2align 4,,15
 3714      84000000 
 3714      0000
 3716              	_ZNK12_GLOBAL__N_142TestXmlTestReporterFixtureMultipleFailures7RunImplEv:
 3717              	.LFB1452:
 3718              		.cfi_startproc
 3719              		.cfi_personality 0x3,__gxx_personality_v0
 3720              		.cfi_lsda 0x3,.LLSDA1452
 3721 1940 4157     		pushq	%r15
 3722              		.cfi_def_cfa_offset 16
 3723              		.cfi_offset 15, -16
 3724 1942 4156     		pushq	%r14
 3725              		.cfi_def_cfa_offset 24
 3726              		.cfi_offset 14, -24
 3727 1944 4155     		pushq	%r13
 3728              		.cfi_def_cfa_offset 32
 3729              		.cfi_offset 13, -32
 3730 1946 4154     		pushq	%r12
 3731              		.cfi_def_cfa_offset 40
 3732              		.cfi_offset 12, -40
 3733 1948 4C8D6F08 		leaq	8(%rdi), %r13
 3734 194c 55       		pushq	%rbp
 3735              		.cfi_def_cfa_offset 48
 3736              		.cfi_offset 6, -48
 3737 194d 53       		pushq	%rbx
 3738              		.cfi_def_cfa_offset 56
 3739              		.cfi_offset 3, -56
 3740 194e 4881ECD8 		subq	$472, %rsp
 3740      010000
 3741              		.cfi_def_cfa_offset 528
 3742 1955 48897C24 		movq	%rdi, 8(%rsp)
 3742      08
 3743 195a 488DBC24 		leaq	136(%rsp), %rdi
 3743      88000000 
 3744 1962 64488B0C 		movq	%fs:40, %rcx
 3744      25280000 
 3744      00
 3745 196b 48898C24 		movq	%rcx, 456(%rsp)
 3745      C8010000 
 3746 1973 31C9     		xorl	%ecx, %ecx
 3747 1975 E8000000 		call	_ZNSt8ios_baseC2Ev
 3747      00
 3748 197a 4C8B2500 		movq	_ZTTSt19basic_ostringstreamIcSt11char_traitsIcESaIcEE+8(%rip), %r12
 3748      000000
 3749 1981 C6842468 		movb	$0, 360(%rsp)
 3749      01000000 
 3750 1989 488D7C24 		leaq	48(%rsp), %rdi
 3750      30
 3751 198e 488B0500 		movq	_ZTTSt19basic_ostringstreamIcSt11char_traitsIcESaIcEE+16(%rip), %rax
 3751      000000
 3752 1995 48C78424 		movq	$_ZTVSt9basic_iosIcSt11char_traitsIcEE+16, 136(%rsp)
 3752      88000000 
 3752      00000000 
 3753 19a1 31F6     		xorl	%esi, %esi
 3754 19a3 48C78424 		movq	$0, 352(%rsp)
 3754      60010000 
 3754      00000000 
 3755 19af C6842469 		movb	$0, 361(%rsp)
 3755      01000000 
 3756 19b7 49037C24 		addq	-24(%r12), %rdi
 3756      E8
 3757 19bc 48C78424 		movq	$0, 368(%rsp)
 3757      70010000 
 3757      00000000 
 3758 19c8 48C78424 		movq	$0, 376(%rsp)
 3758      78010000 
 3758      00000000 
 3759 19d4 48C78424 		movq	$0, 384(%rsp)
 3759      80010000 
 3759      00000000 
 3760 19e0 48C78424 		movq	$0, 392(%rsp)
 3760      88010000 
 3760      00000000 
 3761 19ec 4C896424 		movq	%r12, 48(%rsp)
 3761      30
 3762 19f1 488907   		movq	%rax, (%rdi)
 3763              	.LEHB85:
 3764 19f4 E8000000 		call	_ZNSt9basic_iosIcSt11char_traitsIcEE4initEPSt15basic_streambufIcS1_E
 3764      00
 3765              	.LEHE85:
 3766 19f9 488D7C24 		leaq	112(%rsp), %rdi
 3766      70
 3767 19fe 48C74424 		movq	$_ZTVSt19basic_ostringstreamIcSt11char_traitsIcESaIcEE+24, 48(%rsp)
 3767      30000000 
 3767      00
 3768 1a07 48C78424 		movq	$_ZTVSt19basic_ostringstreamIcSt11char_traitsIcESaIcEE+64, 136(%rsp)
 3768      88000000 
 3768      00000000 
 3769 1a13 48C74424 		movq	$_ZTVSt15basic_streambufIcSt11char_traitsIcEE+16, 56(%rsp)
 3769      38000000 
 3769      00
 3770 1a1c 48C74424 		movq	$0, 64(%rsp)
 3770      40000000 
 3770      00
 3771 1a25 48C74424 		movq	$0, 72(%rsp)
 3771      48000000 
 3771      00
 3772 1a2e 48C74424 		movq	$0, 80(%rsp)
 3772      50000000 
 3772      00
 3773 1a37 48C74424 		movq	$0, 88(%rsp)
 3773      58000000 
 3773      00
 3774 1a40 48C74424 		movq	$0, 96(%rsp)
 3774      60000000 
 3774      00
 3775 1a49 48C74424 		movq	$0, 104(%rsp)
 3775      68000000 
 3775      00
 3776 1a52 E8000000 		call	_ZNSt6localeC1Ev
 3776      00
 3777 1a57 488D4424 		leaq	48(%rsp), %rax
 3777      30
 3778 1a5c 488D7424 		leaq	56(%rsp), %rsi
 3778      38
 3779 1a61 48C74424 		movq	$_ZTVSt15basic_stringbufIcSt11char_traitsIcESaIcEE+16, 56(%rsp)
 3779      38000000 
 3779      00
 3780 1a6a C7442478 		movl	$16, 120(%rsp)
 3780      10000000 
 3781 1a72 48C78424 		movq	$_ZNSs4_Rep20_S_empty_rep_storageE+24, 128(%rsp)
 3781      80000000 
 3781      00000000 
 3782 1a7e 488D7858 		leaq	88(%rax), %rdi
 3783              	.LEHB86:
 3784 1a82 E8000000 		call	_ZNSt9basic_iosIcSt11char_traitsIcEE4initEPSt15basic_streambufIcS1_E
 3784      00
 3785              	.LEHE86:
 3786 1a87 488D4424 		leaq	48(%rsp), %rax
 3786      30
 3787 1a8c 488DB860 		leaq	352(%rax), %rdi
 3787      010000
 3788 1a93 4889C6   		movq	%rax, %rsi
 3789              	.LEHB87:
 3790 1a96 E8000000 		call	_ZN8UnitTest15XmlTestReporterC1ERSo
 3790      00
 3791              	.LEHE87:
 3792 1a9b 488D7C24 		leaq	48(%rsp), %rdi
 3792      30
 3793 1aa0 4C89EE   		movq	%r13, %rsi
 3794 1aa3 4C89AC24 		movq	%r13, 440(%rsp)
 3794      B8010000 
 3795              	.LEHB88:
 3796 1aab E8D0F7FF 		call	_ZN8UnitTest11ExecuteTestIN12_GLOBAL__N_144XmlTestReporterFixtureMultipleFailuresHelperEEEvRT
 3796      FF
 3797              	.LEHE88:
 3798 1ab0 488BAC24 		movq	416(%rsp), %rbp
 3798      A0010000 
 3799 1ab8 4C8BB424 		movq	408(%rsp), %r14
 3799      98010000 
 3800 1ac0 48C78424 		movq	$_ZTVN8UnitTest20DeferredTestReporterE+16, 400(%rsp)
 3800      90010000 
 3800      00000000 
 3801 1acc 4C39F5   		cmpq	%r14, %rbp
 3802 1acf 0F84C700 		je	.L521
 3802      0000
 3803              		.p2align 4,,10
 3804 1ad5 0F1F00   		.p2align 3
 3805              	.L550:
 3806 1ad8 4D8B7E20 		movq	32(%r14), %r15
 3807 1adc 498B5E18 		movq	24(%r14), %rbx
 3808 1ae0 4939DF   		cmpq	%rbx, %r15
 3809 1ae3 7457     		je	.L522
 3810 1ae5 B8000000 		movl	$_ZL28__gthrw___pthread_key_createPjPFvPvE, %eax
 3810      00
 3811 1aea 4885C0   		testq	%rax, %rax
 3812 1aed 7512     		jne	.L586
 3813 1aef E9990100 		jmp	.L528
 3813      00
 3814              		.p2align 4,,10
 3815 1af4 0F1F4000 		.p2align 3
 3816              	.L531:
 3817 1af8 4883C310 		addq	$16, %rbx
 3818 1afc 4939DF   		cmpq	%rbx, %r15
 3819 1aff 7437     		je	.L529
 3820              	.L586:
 3821 1b01 488B4308 		movq	8(%rbx), %rax
 3822 1b05 488D78E8 		leaq	-24(%rax), %rdi
 3823 1b09 4881FF00 		cmpq	$_ZNSs4_Rep20_S_empty_rep_storageE, %rdi
 3823      000000
 3824 1b10 74E6     		je	.L531
 3825 1b12 BEFFFFFF 		movl	$-1, %esi
 3825      FF
 3826 1b17 F00FC170 		lock xaddl	%esi, -8(%rax)
 3826      F8
 3827 1b1c 85F6     		testl	%esi, %esi
 3828 1b1e 7FD8     		jg	.L531
 3829 1b20 488D7424 		leaq	16(%rsp), %rsi
 3829      10
 3830 1b25 4883C310 		addq	$16, %rbx
 3831 1b29 E8000000 		call	_ZNSs4_Rep10_M_destroyERKSaIcE
 3831      00
 3832 1b2e 4939DF   		cmpq	%rbx, %r15
 3833 1b31 75CE     		jne	.L586
 3834              		.p2align 4,,10
 3835 1b33 0F1F4400 		.p2align 3
 3835      00
 3836              	.L529:
 3837 1b38 4D8B7E18 		movq	24(%r14), %r15
 3838              	.L522:
 3839 1b3c 4D85FF   		testq	%r15, %r15
 3840 1b3f 7408     		je	.L534
 3841 1b41 4C89FF   		movq	%r15, %rdi
 3842 1b44 E8000000 		call	_ZdlPv
 3842      00
 3843              	.L534:
 3844 1b49 498B4610 		movq	16(%r14), %rax
 3845 1b4d 488D78E8 		leaq	-24(%rax), %rdi
 3846 1b51 4881FF00 		cmpq	$_ZNSs4_Rep20_S_empty_rep_storageE, %rdi
 3846      000000
 3847 1b58 0F85AA01 		jne	.L602
 3847      0000
 3848              	.L536:
 3849 1b5e 498B4608 		movq	8(%r14), %rax
 3850 1b62 488D78E8 		leaq	-24(%rax), %rdi
 3851 1b66 4881FF00 		cmpq	$_ZNSs4_Rep20_S_empty_rep_storageE, %rdi
 3851      000000
 3852 1b6d 0F856501 		jne	.L603
 3852      0000
 3853              	.L541:
 3854 1b73 498B06   		movq	(%r14), %rax
 3855 1b76 488D78E8 		leaq	-24(%rax), %rdi
 3856 1b7a 4881FF00 		cmpq	$_ZNSs4_Rep20_S_empty_rep_storageE, %rdi
 3856      000000
 3857 1b81 0F851901 		jne	.L604
 3857      0000
 3858              	.L546:
 3859 1b87 4983C638 		addq	$56, %r14
 3860 1b8b 4C39F5   		cmpq	%r14, %rbp
 3861 1b8e 0F8544FF 		jne	.L550
 3861      FFFF
 3862 1b94 488BAC24 		movq	408(%rsp), %rbp
 3862      98010000 
 3863              	.L521:
 3864 1b9c 4885ED   		testq	%rbp, %rbp
 3865 1b9f 7408     		je	.L551
 3866 1ba1 4889EF   		movq	%rbp, %rdi
 3867 1ba4 E8000000 		call	_ZdlPv
 3867      00
 3868              	.L551:
 3869 1ba9 488D4424 		leaq	48(%rsp), %rax
 3869      30
 3870 1bae 488DB860 		leaq	352(%rax), %rdi
 3870      010000
 3871              	.LEHB89:
 3872 1bb5 E8000000 		call	_ZN8UnitTest12TestReporterD2Ev
 3872      00
 3873              	.LEHE89:
 3874 1bba 488B8424 		movq	128(%rsp), %rax
 3874      80000000 
 3875 1bc2 48C74424 		movq	$_ZTVSt19basic_ostringstreamIcSt11char_traitsIcESaIcEE+24, 48(%rsp)
 3875      30000000 
 3875      00
 3876 1bcb 48C78424 		movq	$_ZTVSt19basic_ostringstreamIcSt11char_traitsIcESaIcEE+64, 136(%rsp)
 3876      88000000 
 3876      00000000 
 3877 1bd7 48C74424 		movq	$_ZTVSt15basic_stringbufIcSt11char_traitsIcESaIcEE+16, 56(%rsp)
 3877      38000000 
 3877      00
 3878 1be0 488D78E8 		leaq	-24(%rax), %rdi
 3879 1be4 4881FF00 		cmpq	$_ZNSs4_Rep20_S_empty_rep_storageE, %rdi
 3879      000000
 3880 1beb 0F856E01 		jne	.L605
 3880      0000
 3881              	.L553:
 3882 1bf1 488D7C24 		leaq	112(%rsp), %rdi
 3882      70
 3883 1bf6 48C74424 		movq	$_ZTVSt15basic_streambufIcSt11char_traitsIcEE+16, 56(%rsp)
 3883      38000000 
 3883      00
 3884 1bff E8000000 		call	_ZNSt6localeD1Ev
 3884      00
 3885 1c04 498B4424 		movq	-24(%r12), %rax
 3885      E8
 3886 1c09 488B0D00 		movq	_ZTTSt19basic_ostringstreamIcSt11char_traitsIcESaIcEE+16(%rip), %rcx
 3886      000000
 3887 1c10 4C896424 		movq	%r12, 48(%rsp)
 3887      30
 3888 1c15 48894C04 		movq	%rcx, 48(%rsp,%rax)
 3888      30
 3889 1c1a 488D4424 		leaq	48(%rsp), %rax
 3889      30
 3890 1c1f 48C78424 		movq	$_ZTVSt9basic_iosIcSt11char_traitsIcEE+16, 136(%rsp)
 3890      88000000 
 3890      00000000 
 3891 1c2b 488D7858 		leaq	88(%rax), %rdi
 3892              	.LEHB90:
 3893 1c2f E8000000 		call	_ZNSt8ios_baseD2Ev
 3893      00
 3894              	.LEHE90:
 3895              	.L514:
 3896 1c34 488B8424 		movq	456(%rsp), %rax
 3896      C8010000 
 3897 1c3c 64483304 		xorq	%fs:40, %rax
 3897      25280000 
 3897      00
 3898 1c45 0F85E901 		jne	.L606
 3898      0000
 3899 1c4b 4881C4D8 		addq	$472, %rsp
 3899      010000
 3900              		.cfi_remember_state
 3901              		.cfi_def_cfa_offset 56
 3902 1c52 5B       		popq	%rbx
 3903              		.cfi_def_cfa_offset 48
 3904 1c53 5D       		popq	%rbp
 3905              		.cfi_def_cfa_offset 40
 3906 1c54 415C     		popq	%r12
 3907              		.cfi_def_cfa_offset 32
 3908 1c56 415D     		popq	%r13
 3909              		.cfi_def_cfa_offset 24
 3910 1c58 415E     		popq	%r14
 3911              		.cfi_def_cfa_offset 16
 3912 1c5a 415F     		popq	%r15
 3913              		.cfi_def_cfa_offset 8
 3914 1c5c C3       		ret
 3915 1c5d 0F1F00   		.p2align 4,,10
 3916              		.p2align 3
 3917              	.L607:
 3918              		.cfi_restore_state
 3919 1c60 8B70F8   		movl	-8(%rax), %esi
 3920 1c63 448D46FF 		leal	-1(%rsi), %r8d
 3921 1c67 85F6     		testl	%esi, %esi
 3922 1c69 448940F8 		movl	%r8d, -8(%rax)
 3923 1c6d 7F11     		jg	.L526
 3924 1c6f 488D7424 		leaq	16(%rsp), %rsi
 3924      10
 3925 1c74 E8000000 		call	_ZNSs4_Rep10_M_destroyERKSaIcE
 3925      00
 3926 1c79 0F1F8000 		.p2align 4,,10
 3926      000000
 3927              		.p2align 3
 3928              	.L526:
 3929 1c80 4883C310 		addq	$16, %rbx
 3930 1c84 4939DF   		cmpq	%rbx, %r15
 3931 1c87 0F84ABFE 		je	.L529
 3931      FFFF
 3932              	.L528:
 3933 1c8d 488B4308 		movq	8(%rbx), %rax
 3934 1c91 488D78E8 		leaq	-24(%rax), %rdi
 3935 1c95 4881FF00 		cmpq	$_ZNSs4_Rep20_S_empty_rep_storageE, %rdi
 3935      000000
 3936 1c9c 74E2     		je	.L526
 3937 1c9e EBC0     		jmp	.L607
 3938              		.p2align 4,,10
 3939              		.p2align 3
 3940              	.L604:
 3941 1ca0 BA000000 		movl	$_ZL28__gthrw___pthread_key_createPjPFvPvE, %edx
 3941      00
 3942 1ca5 4885D2   		testq	%rdx, %rdx
 3943 1ca8 0F848700 		je	.L547
 3943      0000
 3944 1cae BAFFFFFF 		movl	$-1, %edx
 3944      FF
 3945 1cb3 F00FC150 		lock xaddl	%edx, -8(%rax)
 3945      F8
 3946 1cb8 89D0     		movl	%edx, %eax
 3947              	.L548:
 3948 1cba 85C0     		testl	%eax, %eax
 3949 1cbc 0F8FC5FE 		jg	.L546
 3949      FFFF
 3950 1cc2 488D7424 		leaq	16(%rsp), %rsi
 3950      10
 3951 1cc7 E8000000 		call	_ZNSs4_Rep10_M_destroyERKSaIcE
 3951      00
 3952 1ccc E9B6FEFF 		jmp	.L546
 3952      FF
 3953              		.p2align 4,,10
 3954 1cd1 0F1F8000 		.p2align 3
 3954      000000
 3955              	.L603:
 3956 1cd8 BA000000 		movl	$_ZL28__gthrw___pthread_key_createPjPFvPvE, %edx
 3956      00
 3957 1cdd 4885D2   		testq	%rdx, %rdx
 3958 1ce0 7470     		je	.L542
 3959 1ce2 BAFFFFFF 		movl	$-1, %edx
 3959      FF
 3960 1ce7 F00FC150 		lock xaddl	%edx, -8(%rax)
 3960      F8
 3961 1cec 89D0     		movl	%edx, %eax
 3962              	.L543:
 3963 1cee 85C0     		testl	%eax, %eax
 3964 1cf0 0F8F7DFE 		jg	.L541
 3964      FFFF
 3965 1cf6 488D7424 		leaq	16(%rsp), %rsi
 3965      10
 3966 1cfb E8000000 		call	_ZNSs4_Rep10_M_destroyERKSaIcE
 3966      00
 3967 1d00 E96EFEFF 		jmp	.L541
 3967      FF
 3968              		.p2align 4,,10
 3969 1d05 0F1F00   		.p2align 3
 3970              	.L602:
 3971 1d08 BA000000 		movl	$_ZL28__gthrw___pthread_key_createPjPFvPvE, %edx
 3971      00
 3972 1d0d 4885D2   		testq	%rdx, %rdx
 3973 1d10 7433     		je	.L537
 3974 1d12 BAFFFFFF 		movl	$-1, %edx
 3974      FF
 3975 1d17 F00FC150 		lock xaddl	%edx, -8(%rax)
 3975      F8
 3976 1d1c 89D0     		movl	%edx, %eax
 3977              	.L538:
 3978 1d1e 85C0     		testl	%eax, %eax
 3979 1d20 0F8F38FE 		jg	.L536
 3979      FFFF
 3980 1d26 488D7424 		leaq	16(%rsp), %rsi
 3980      10
 3981 1d2b E8000000 		call	_ZNSs4_Rep10_M_destroyERKSaIcE
 3981      00
 3982 1d30 E929FEFF 		jmp	.L536
 3982      FF
 3983              	.L547:
 3984 1d35 8B50F8   		movl	-8(%rax), %edx
 3985 1d38 8D72FF   		leal	-1(%rdx), %esi
 3986 1d3b 8970F8   		movl	%esi, -8(%rax)
 3987 1d3e 89D0     		movl	%edx, %eax
 3988 1d40 E975FFFF 		jmp	.L548
 3988      FF
 3989              	.L537:
 3990 1d45 8B50F8   		movl	-8(%rax), %edx
 3991 1d48 8D72FF   		leal	-1(%rdx), %esi
 3992 1d4b 8970F8   		movl	%esi, -8(%rax)
 3993 1d4e 89D0     		movl	%edx, %eax
 3994 1d50 EBCC     		jmp	.L538
 3995              	.L542:
 3996 1d52 8B50F8   		movl	-8(%rax), %edx
 3997 1d55 8D72FF   		leal	-1(%rdx), %esi
 3998 1d58 8970F8   		movl	%esi, -8(%rax)
 3999 1d5b 89D0     		movl	%edx, %eax
 4000 1d5d EB8F     		jmp	.L543
 4001              	.L605:
 4002 1d5f BA000000 		movl	$_ZL28__gthrw___pthread_key_createPjPFvPvE, %edx
 4002      00
 4003 1d64 4885D2   		testq	%rdx, %rdx
 4004 1d67 7423     		je	.L554
 4005 1d69 BAFFFFFF 		movl	$-1, %edx
 4005      FF
 4006 1d6e F00FC150 		lock xaddl	%edx, -8(%rax)
 4006      F8
 4007 1d73 89D0     		movl	%edx, %eax
 4008              	.L555:
 4009 1d75 85C0     		testl	%eax, %eax
 4010 1d77 0F8F74FE 		jg	.L553
 4010      FFFF
 4011 1d7d 488D7424 		leaq	16(%rsp), %rsi
 4011      10
 4012 1d82 E8000000 		call	_ZNSs4_Rep10_M_destroyERKSaIcE
 4012      00
 4013 1d87 E965FEFF 		jmp	.L553
 4013      FF
 4014              	.L554:
 4015 1d8c 8B50F8   		movl	-8(%rax), %edx
 4016 1d8f 8D4AFF   		leal	-1(%rdx), %ecx
 4017 1d92 8948F8   		movl	%ecx, -8(%rax)
 4018 1d95 89D0     		movl	%edx, %eax
 4019 1d97 EBDC     		jmp	.L555
 4020              	.L581:
 4021 1d99 488D7C24 		leaq	48(%rsp), %rdi
 4021      30
 4022 1d9e 4889C3   		movq	%rax, %rbx
 4023 1da1 4889D5   		movq	%rdx, %rbp
 4024 1da4 E8000000 		call	_ZNSt19basic_ostringstreamIcSt11char_traitsIcESaIcEED1Ev
 4024      00
 4025 1da9 4889DF   		movq	%rbx, %rdi
 4026 1dac 4889EA   		movq	%rbp, %rdx
 4027 1daf BB010000 		movl	$1, %ebx
 4027      00
 4028              	.L518:
 4029 1db4 4883FA01 		cmpq	$1, %rdx
 4030 1db8 0F84E800 		je	.L563
 4030      0000
 4031 1dbe 4883FA02 		cmpq	$2, %rdx
 4032 1dc2 0F859D00 		jne	.L608
 4032      0000
 4033 1dc8 E8000000 		call	__cxa_begin_catch
 4033      00
 4034 1dcd 488D7C24 		leaq	48(%rsp), %rdi
 4034      30
 4035 1dd2 4889C3   		movq	%rax, %rbx
 4036              	.LEHB91:
 4037 1dd5 E8000000 		call	_ZN8UnitTest15MemoryOutStreamC1Ev
 4037      00
 4038              	.LEHE91:
 4039 1dda 488B03   		movq	(%rbx), %rax
 4040 1ddd 4889DF   		movq	%rbx, %rdi
 4041 1de0 FF5010   		call	*16(%rax)
 4042 1de3 488D7C24 		leaq	48(%rsp), %rdi
 4042      30
 4043 1de8 BE000000 		movl	$.LC32, %esi
 4043      00
 4044 1ded 4889C3   		movq	%rax, %rbx
 4045              	.LEHB92:
 4046 1df0 E8000000 		call	_ZStlsISt11char_traitsIcEERSt13basic_ostreamIcT_ES5_PKc
 4046      00
 4047 1df5 4889C7   		movq	%rax, %rdi
 4048 1df8 4889DE   		movq	%rbx, %rsi
 4049 1dfb E8000000 		call	_ZStlsISt11char_traitsIcEERSt13basic_ostreamIcT_ES5_PKc
 4049      00
 4050 1e00 488D7C24 		leaq	48(%rsp), %rdi
 4050      30
 4051 1e05 E8000000 		call	_ZNK8UnitTest15MemoryOutStream7GetTextEv
 4051      00
 4052 1e0a 4889C3   		movq	%rax, %rbx
 4053 1e0d E8000000 		call	_ZN8UnitTest11CurrentTest7ResultsEv
 4053      00
 4054 1e12 488B38   		movq	(%rax), %rdi
 4055 1e15 4889DA   		movq	%rbx, %rdx
 4056 1e18 4C89EE   		movq	%r13, %rsi
 4057 1e1b E8000000 		call	_ZN8UnitTest11TestResults13OnTestFailureERKNS_11TestDetailsEPKc
 4057      00
 4058              	.LEHE92:
 4059 1e20 488D7C24 		leaq	48(%rsp), %rdi
 4059      30
 4060              	.LEHB93:
 4061 1e25 E8000000 		call	_ZN8UnitTest15MemoryOutStreamD1Ev
 4061      00
 4062              	.LEHE93:
 4063              	.L596:
 4064 1e2a E8000000 		call	__cxa_end_catch
 4064      00
 4065 1e2f E900FEFF 		jmp	.L514
 4065      FF
 4066              	.L606:
 4067 1e34 E8000000 		call	__stack_chk_fail
 4067      00
 4068              	.L572:
 4069 1e39 4889C7   		movq	%rax, %rdi
 4070 1e3c BB010000 		movl	$1, %ebx
 4070      00
 4071 1e41 E96EFFFF 		jmp	.L518
 4071      FF
 4072              	.L576:
 4073 1e46 488D7C24 		leaq	48(%rsp), %rdi
 4073      30
 4074 1e4b 4889C3   		movq	%rax, %rbx
 4075 1e4e E8000000 		call	_ZN8UnitTest15MemoryOutStreamD1Ev
 4075      00
 4076              	.L567:
 4077 1e53 E8000000 		call	__cxa_end_catch
 4077      00
 4078 1e58 4889DF   		movq	%rbx, %rdi
 4079              	.LEHB94:
 4080 1e5b E8000000 		call	_Unwind_Resume
 4080      00
 4081              	.LEHE94:
 4082              	.L575:
 4083              	.L597:
 4084 1e60 4889C3   		movq	%rax, %rbx
 4085 1e63 EBEE     		jmp	.L567
 4086              	.L608:
 4087 1e65 E8000000 		call	__cxa_begin_catch
 4087      00
 4088 1e6a 84DB     		testb	%bl, %bl
 4089 1e6c 488D5C24 		leaq	16(%rsp), %rbx
 4089      10
 4090 1e71 BA9F0000 		movl	$159, %edx
 4090      00
 4091 1e76 4C89EE   		movq	%r13, %rsi
 4092 1e79 4889DF   		movq	%rbx, %rdi
 4093 1e7c 0F849300 		je	.L569
 4093      0000
 4094              	.LEHB95:
 4095 1e82 E8000000 		call	_ZN8UnitTest11TestDetailsC1ERKS0_i
 4095      00
 4096 1e87 E8000000 		call	_ZN8UnitTest11CurrentTest7ResultsEv
 4096      00
 4097 1e8c 488B38   		movq	(%rax), %rdi
 4098 1e8f BA000000 		movl	$.LC36, %edx
 4098      00
 4099 1e94 4889DE   		movq	%rbx, %rsi
 4100 1e97 E8000000 		call	_ZN8UnitTest11TestResults13OnTestFailureERKNS_11TestDetailsEPKc
 4100      00
 4101              	.LEHE95:
 4102              	.L570:
 4103              	.LEHB96:
 4104 1e9c E8000000 		call	__cxa_end_catch
 4104      00
 4105              	.LEHE96:
 4106 1ea1 E98EFDFF 		jmp	.L514
 4106      FF
 4107              	.L563:
 4108 1ea6 E8000000 		call	__cxa_begin_catch
 4108      00
 4109 1eab 4889C3   		movq	%rax, %rbx
 4110 1eae 488B00   		movq	(%rax), %rax
 4111 1eb1 4889DF   		movq	%rbx, %rdi
 4112 1eb4 FF5010   		call	*16(%rax)
 4113 1eb7 4889DF   		movq	%rbx, %rdi
 4114 1eba 4889C5   		movq	%rax, %rbp
 4115              	.LEHB97:
 4116 1ebd E8000000 		call	_ZNK8UnitTest15AssertException10LineNumberEv
 4116      00
 4117 1ec2 4889DF   		movq	%rbx, %rdi
 4118 1ec5 4189C4   		movl	%eax, %r12d
 4119 1ec8 E8000000 		call	_ZNK8UnitTest15AssertException8FilenameEv
 4119      00
 4120 1ecd 488B4C24 		movq	8(%rsp), %rcx
 4120      08
 4121 1ed2 488D5C24 		leaq	16(%rsp), %rbx
 4121      10
 4122 1ed7 4589E0   		movl	%r12d, %r8d
 4123 1eda 4889DF   		movq	%rbx, %rdi
 4124 1edd 488B5108 		movq	8(%rcx), %rdx
 4125 1ee1 488B7110 		movq	16(%rcx), %rsi
 4126 1ee5 4889C1   		movq	%rax, %rcx
 4127 1ee8 E8000000 		call	_ZN8UnitTest11TestDetailsC1EPKcS2_S2_i
 4127      00
 4128 1eed E8000000 		call	_ZN8UnitTest11CurrentTest7ResultsEv
 4128      00
 4129 1ef2 488B38   		movq	(%rax), %rdi
 4130 1ef5 4889EA   		movq	%rbp, %rdx
 4131 1ef8 4889DE   		movq	%rbx, %rsi
 4132 1efb E8000000 		call	_ZN8UnitTest11TestResults13OnTestFailureERKNS_11TestDetailsEPKc
 4132      00
 4133              	.LEHE97:
 4134 1f00 E925FFFF 		jmp	.L596
 4134      FF
 4135              	.L577:
 4136 1f05 4889C3   		movq	%rax, %rbx
 4137 1f08 E8000000 		call	__cxa_end_catch
 4137      00
 4138 1f0d 4889DF   		movq	%rbx, %rdi
 4139              	.LEHB98:
 4140 1f10 E8000000 		call	_Unwind_Resume
 4140      00
 4141              	.LEHE98:
 4142              	.L569:
 4143              	.LEHB99:
 4144 1f15 E8000000 		call	_ZN8UnitTest11TestDetailsC1ERKS0_i
 4144      00
 4145 1f1a E8000000 		call	_ZN8UnitTest11CurrentTest7ResultsEv
 4145      00
 4146 1f1f 488B38   		movq	(%rax), %rdi
 4147 1f22 BA000000 		movl	$.LC37, %edx
 4147      00
 4148 1f27 4889DE   		movq	%rbx, %rsi
 4149 1f2a E8000000 		call	_ZN8UnitTest11TestResults13OnTestFailureERKNS_11TestDetailsEPKc
 4149      00
 4150              	.LEHE99:
 4151 1f2f E968FFFF 		jmp	.L570
 4151      FF
 4152              	.L574:
 4153 1f34 E927FFFF 		jmp	.L597
 4153      FF
 4154              	.L573:
 4155 1f39 488D7C24 		leaq	48(%rsp), %rdi
 4155      30
 4156 1f3e 4889C3   		movq	%rax, %rbx
 4157 1f41 4889D5   		movq	%rdx, %rbp
 4158 1f44 E8000000 		call	_ZN12_GLOBAL__N_122XmlTestReporterFixtureD2Ev
 4158      00
 4159 1f49 4889DF   		movq	%rbx, %rdi
 4160 1f4c 4889EA   		movq	%rbp, %rdx
 4161 1f4f BB010000 		movl	$1, %ebx
 4161      00
 4162 1f54 E95BFEFF 		jmp	.L518
 4162      FF
 4163              	.L578:
 4164 1f59 488D7C24 		leaq	48(%rsp), %rdi
 4164      30
 4165 1f5e 4889C3   		movq	%rax, %rbx
 4166 1f61 4889D5   		movq	%rdx, %rbp
 4167 1f64 E8000000 		call	_ZNSt19basic_ostringstreamIcSt11char_traitsIcESaIcEED1Ev
 4167      00
 4168 1f69 4889DF   		movq	%rbx, %rdi
 4169 1f6c 4889EA   		movq	%rbp, %rdx
 4170 1f6f 31DB     		xorl	%ebx, %ebx
 4171 1f71 E93EFEFF 		jmp	.L518
 4171      FF
 4172              	.L580:
 4173 1f76 488D7C24 		leaq	56(%rsp), %rdi
 4173      38
 4174 1f7b 4889C3   		movq	%rax, %rbx
 4175 1f7e 4889D5   		movq	%rdx, %rbp
 4176 1f81 E8000000 		call	_ZNSt15basic_stringbufIcSt11char_traitsIcESaIcEED1Ev
 4176      00
 4177 1f86 498B4424 		movq	-24(%r12), %rax
 4177      E8
 4178 1f8b 488B0D00 		movq	_ZTTSt19basic_ostringstreamIcSt11char_traitsIcESaIcEE+16(%rip), %rcx
 4178      000000
 4179 1f92 4C896424 		movq	%r12, 48(%rsp)
 4179      30
 4180 1f97 48894C04 		movq	%rcx, 48(%rsp,%rax)
 4180      30
 4181              	.L517:
 4182 1f9c 488DBC24 		leaq	136(%rsp), %rdi
 4182      88000000 
 4183 1fa4 48C78424 		movq	$_ZTVSt9basic_iosIcSt11char_traitsIcEE+16, 136(%rsp)
 4183      88000000 
 4183      00000000 
 4184 1fb0 E8000000 		call	_ZNSt8ios_baseD2Ev
 4184      00
 4185 1fb5 4889DF   		movq	%rbx, %rdi
 4186 1fb8 4889EA   		movq	%rbp, %rdx
 4187 1fbb 31DB     		xorl	%ebx, %ebx
 4188 1fbd E9F2FDFF 		jmp	.L518
 4188      FF
 4189              	.L579:
 4190 1fc2 4889C3   		movq	%rax, %rbx
 4191 1fc5 4889D5   		movq	%rdx, %rbp
 4192 1fc8 EBD2     		jmp	.L517
 4193              		.cfi_endproc
 4194              	.LFE1452:
 4195              		.section	.gcc_except_table
 4196              		.align 4
 4197              	.LLSDA1452:
 4198 0244 FF       		.byte	0xff
 4199 0245 03       		.byte	0x3
 4200 0246 6D       		.uleb128 .LLSDATT1452-.LLSDATTD1452
 4201              	.LLSDATTD1452:
 4202 0247 01       		.byte	0x1
 4203 0248 57       		.uleb128 .LLSDACSE1452-.LLSDACSB1452
 4204              	.LLSDACSB1452:
 4205 0249 B401     		.uleb128 .LEHB85-.LFB1452
 4206 024b 05       		.uleb128 .LEHE85-.LEHB85
 4207 024c 820D     		.uleb128 .L579-.LFB1452
 4208 024e 07       		.uleb128 0x7
 4209 024f C202     		.uleb128 .LEHB86-.LFB1452
 4210 0251 05       		.uleb128 .LEHE86-.LEHB86
 4211 0252 B60C     		.uleb128 .L580-.LFB1452
 4212 0254 07       		.uleb128 0x7
 4213 0255 D602     		.uleb128 .LEHB87-.LFB1452
 4214 0257 05       		.uleb128 .LEHE87-.LEHB87
 4215 0258 990C     		.uleb128 .L578-.LFB1452
 4216 025a 07       		.uleb128 0x7
 4217 025b EB02     		.uleb128 .LEHB88-.LFB1452
 4218 025d 05       		.uleb128 .LEHE88-.LEHB88
 4219 025e F90B     		.uleb128 .L573-.LFB1452
 4220 0260 07       		.uleb128 0x7
 4221 0261 F504     		.uleb128 .LEHB89-.LFB1452
 4222 0263 05       		.uleb128 .LEHE89-.LEHB89
 4223 0264 D908     		.uleb128 .L581-.LFB1452
 4224 0266 07       		.uleb128 0x7
 4225 0267 EF05     		.uleb128 .LEHB90-.LFB1452
 4226 0269 05       		.uleb128 .LEHE90-.LEHB90
 4227 026a F909     		.uleb128 .L572-.LFB1452
 4228 026c 05       		.uleb128 0x5
 4229 026d 9509     		.uleb128 .LEHB91-.LFB1452
 4230 026f 05       		.uleb128 .LEHE91-.LEHB91
 4231 0270 A00A     		.uleb128 .L575-.LFB1452
 4232 0272 00       		.uleb128 0
 4233 0273 B009     		.uleb128 .LEHB92-.LFB1452
 4234 0275 30       		.uleb128 .LEHE92-.LEHB92
 4235 0276 860A     		.uleb128 .L576-.LFB1452
 4236 0278 00       		.uleb128 0
 4237 0279 E509     		.uleb128 .LEHB93-.LFB1452
 4238 027b 05       		.uleb128 .LEHE93-.LEHB93
 4239 027c A00A     		.uleb128 .L575-.LFB1452
 4240 027e 00       		.uleb128 0
 4241 027f 9B0A     		.uleb128 .LEHB94-.LFB1452
 4242 0281 05       		.uleb128 .LEHE94-.LEHB94
 4243 0282 00       		.uleb128 0
 4244 0283 00       		.uleb128 0
 4245 0284 C20A     		.uleb128 .LEHB95-.LFB1452
 4246 0286 1A       		.uleb128 .LEHE95-.LEHB95
 4247 0287 C50B     		.uleb128 .L577-.LFB1452
 4248 0289 00       		.uleb128 0
 4249 028a DC0A     		.uleb128 .LEHB96-.LFB1452
 4250 028c 05       		.uleb128 .LEHE96-.LEHB96
 4251 028d 00       		.uleb128 0
 4252 028e 00       		.uleb128 0
 4253 028f FD0A     		.uleb128 .LEHB97-.LFB1452
 4254 0291 43       		.uleb128 .LEHE97-.LEHB97
 4255 0292 F40B     		.uleb128 .L574-.LFB1452
 4256 0294 00       		.uleb128 0
 4257 0295 D00B     		.uleb128 .LEHB98-.LFB1452
 4258 0297 05       		.uleb128 .LEHE98-.LEHB98
 4259 0298 00       		.uleb128 0
 4260 0299 00       		.uleb128 0
 4261 029a D50B     		.uleb128 .LEHB99-.LFB1452
 4262 029c 1A       		.uleb128 .LEHE99-.LEHB99
 4263 029d C50B     		.uleb128 .L577-.LFB1452
 4264 029f 00       		.uleb128 0
 4265              	.LLSDACSE1452:
 4266 02a0 03       		.byte	0x3
 4267 02a1 00       		.byte	0
 4268 02a2 02       		.byte	0x2
 4269 02a3 7D       		.byte	0x7d
 4270 02a4 01       		.byte	0x1
 4271 02a5 7D       		.byte	0x7d
 4272 02a6 00       		.byte	0
 4273 02a7 7D       		.byte	0x7d
 4274              		.align 4
 4275 02a8 00000000 		.long	0
 4276              	
 4277 02ac 00000000 		.long	_ZTISt9exception
 4278 02b0 00000000 		.long	_ZTIN8UnitTest15AssertExceptionE
 4279              	.LLSDATT1452:
 4280              		.text
 4282              		.section	.text.unlikely
 4283              	.LCOLDE53:
 4284              		.text
 4285              	.LHOTE53:
 4286              		.section	.rodata.str1.1
 4287              	.LC54:
 4288 00db 53756363 		.string	"SucceededTest"
 4288      65656465 
 4288      64546573 
 4288      7400
 4289              		.section	.rodata.str1.8
 4290 0283 00000000 		.align 8
 4290      00
 4291              	.LC55:
 4292 0288 3C3F786D 		.ascii	"<?xml versio"
 4292      6C207665 
 4292      7273696F 
 4293 0294 6E3D2231 		.string	"n=\"1.0\"?><unittest-results tests=\"2\" failedtests=\"1\" failures=\"1\" time=\"1.1\"><t
 4293      2E30223F 
 4293      3E3C756E 
 4293      69747465 
 4293      73742D72 
 4294              		.section	.text.unlikely
 4295              	.LCOLDB56:
 4296              		.text
 4297              	.LHOTB56:
 4298 1fca 660F1F44 		.p2align 4,,15
 4298      0000
 4300              	_ZN8UnitTest11ExecuteTestIN12_GLOBAL__N_151XmlTestReporterFixtureOneFailureAndOneSuccessHelperEEEvR
 4301              	.LFB1496:
 4302              		.cfi_startproc
 4303              		.cfi_personality 0x3,__gxx_personality_v0
 4304              		.cfi_lsda 0x3,.LLSDA1496
 4305 1fd0 4154     		pushq	%r12
 4306              		.cfi_def_cfa_offset 16
 4307              		.cfi_offset 12, -16
 4308 1fd2 55       		pushq	%rbp
 4309              		.cfi_def_cfa_offset 24
 4310              		.cfi_offset 6, -24
 4311 1fd3 53       		pushq	%rbx
 4312              		.cfi_def_cfa_offset 32
 4313              		.cfi_offset 3, -32
 4314 1fd4 4889F3   		movq	%rsi, %rbx
 4315 1fd7 4881ECD0 		subq	$1744, %rsp
 4315      060000
 4316              		.cfi_def_cfa_offset 1776
 4317 1fde 48893C24 		movq	%rdi, (%rsp)
 4318 1fe2 48897424 		movq	%rsi, 8(%rsp)
 4318      08
 4319 1fe7 64488B04 		movq	%fs:40, %rax
 4319      25280000 
 4319      00
 4320 1ff0 48898424 		movq	%rax, 1736(%rsp)
 4320      C8060000 
 4321 1ff8 31C0     		xorl	%eax, %eax
 4322              	.LEHB100:
 4323 1ffa E8000000 		call	_ZN8UnitTest11CurrentTest7DetailsEv
 4323      00
 4324              	.LEHE100:
 4325 1fff 488DBC24 		leaq	608(%rsp), %rdi
 4325      60020000 
 4326 2007 488918   		movq	%rbx, (%rax)
 4327              	.LEHB101:
 4328 200a E8000000 		call	_ZN8UnitTest16SignalTranslatorC1Ev
 4328      00
 4329              	.LEHE101:
 4330 200f 488B3D00 		movq	_ZN8UnitTest16SignalTranslator12s_jumpTargetE(%rip), %rdi
 4330      000000
 4331 2016 BE010000 		movl	$1, %esi
 4331      00
 4332 201b E8000000 		call	__sigsetjmp
 4332      00
 4333 2020 85C0     		testl	%eax, %eax
 4334 2022 0F853001 		jne	.L694
 4334      0000
 4335 2028 488D7C24 		leaq	112(%rsp), %rdi
 4335      70
 4336 202d 41B80100 		movl	$1, %r8d
 4336      0000
 4337 2033 B9000000 		movl	$.LC43, %ecx
 4337      00
 4338 2038 BA000000 		movl	$.LC44, %edx
 4338      00
 4339 203d BE000000 		movl	$.LC45, %esi
 4339      00
 4340              	.LEHB102:
 4341 2042 E8000000 		call	_ZN8UnitTest11TestDetailsC1EPKcS2_S2_i
 4341      00
 4342 2047 488B2C24 		movq	(%rsp), %rbp
 4343 204b 488D7424 		leaq	112(%rsp), %rsi
 4343      70
 4344 2050 488D9D60 		leaq	352(%rbp), %rbx
 4344      010000
 4345 2057 4889DF   		movq	%rbx, %rdi
 4346 205a E8000000 		call	_ZN8UnitTest20DeferredTestReporter15ReportTestStartERKNS_11TestDetailsE
 4346      00
 4347 205f 488D7424 		leaq	112(%rsp), %rsi
 4347      70
 4348 2064 BA000000 		movl	$.LC46, %edx
 4348      00
 4349 2069 4889DF   		movq	%rbx, %rdi
 4350 206c E8000000 		call	_ZN8UnitTest20DeferredTestReporter13ReportFailureERKNS_11TestDetailsEPKc
 4350      00
 4351 2071 488D7424 		leaq	112(%rsp), %rsi
 4351      70
 4352 2076 F30F1005 		movss	.LC48(%rip), %xmm0
 4352      00000000 
 4353 207e 4889DF   		movq	%rbx, %rdi
 4354 2081 E8000000 		call	_ZN8UnitTest20DeferredTestReporter16ReportTestFinishERKNS_11TestDetailsEf
 4354      00
 4355 2086 488DBC24 		leaq	144(%rsp), %rdi
 4355      90000000 
 4356 208e 4531C0   		xorl	%r8d, %r8d
 4357 2091 B9000000 		movl	$.LC25, %ecx
 4357      00
 4358 2096 BA000000 		movl	$.LC44, %edx
 4358      00
 4359 209b BE000000 		movl	$.LC54, %esi
 4359      00
 4360 20a0 E8000000 		call	_ZN8UnitTest11TestDetailsC1EPKcS2_S2_i
 4360      00
 4361 20a5 488DB424 		leaq	144(%rsp), %rsi
 4361      90000000 
 4362 20ad 4889DF   		movq	%rbx, %rdi
 4363 20b0 E8000000 		call	_ZN8UnitTest20DeferredTestReporter15ReportTestStartERKNS_11TestDetailsE
 4363      00
 4364 20b5 488DB424 		leaq	144(%rsp), %rsi
 4364      90000000 
 4365 20bd F30F1005 		movss	.LC27(%rip), %xmm0
 4365      00000000 
 4366 20c5 4889DF   		movq	%rbx, %rdi
 4367 20c8 E8000000 		call	_ZN8UnitTest20DeferredTestReporter16ReportTestFinishERKNS_11TestDetailsEf
 4367      00
 4368 20cd F30F1005 		movss	.LC49(%rip), %xmm0
 4368      00000000 
 4369 20d5 B9010000 		movl	$1, %ecx
 4369      00
 4370 20da BA010000 		movl	$1, %edx
 4370      00
 4371 20df BE020000 		movl	$2, %esi
 4371      00
 4372 20e4 4889DF   		movq	%rbx, %rdi
 4373 20e7 E8000000 		call	_ZN8UnitTest15XmlTestReporter13ReportSummaryEiiif
 4373      00
 4374              	.LEHE102:
 4375 20ec 48C74424 		movq	$.LC55, 72(%rsp)
 4375      48000000 
 4375      00
 4376              	.LEHB103:
 4377 20f5 E8000000 		call	_ZN8UnitTest11CurrentTest7DetailsEv
 4377      00
 4378 20fa 488B30   		movq	(%rax), %rsi
 4379 20fd 488DBC24 		leaq	208(%rsp), %rdi
 4379      D0000000 
 4380 2105 BA9C0000 		movl	$156, %edx
 4380      00
 4381 210a E8000000 		call	_ZN8UnitTest11TestDetailsC1ERKS0_i
 4381      00
 4382              	.LEHE103:
 4383 210f 488B4530 		movq	48(%rbp), %rax
 4384 2113 48C74424 		movq	$_ZNSs4_Rep20_S_empty_rep_storageE+24, 32(%rsp)
 4384      20000000 
 4384      00
 4385 211c 4885C0   		testq	%rax, %rax
 4386 211f 0F843B02 		je	.L612
 4386      0000
 4387 2125 488B7D20 		movq	32(%rbp), %rdi
 4388 2129 4839F8   		cmpq	%rdi, %rax
 4389 212c 7652     		jbe	.L613
 4390 212e 488B0C24 		movq	(%rsp), %rcx
 4391 2132 488B6928 		movq	40(%rcx), %rbp
 4392 2136 4839E8   		cmpq	%rbp, %rax
 4393 2139 0F84B901 		je	.L668
 4393      0000
 4394 213f 4885ED   		testq	%rbp, %rbp
 4395 2142 0F859802 		jne	.L695
 4395      0000
 4396 2148 BF000000 		movl	$.LC34, %edi
 4396      00
 4397              	.LEHB104:
 4398 214d E8000000 		call	_ZSt19__throw_logic_errorPKc
 4398      00
 4399              	.LEHE104:
 4400              		.p2align 4,,10
 4401 2152 660F1F44 		.p2align 3
 4401      0000
 4402              	.L694:
 4403 2158 BF080000 		movl	$8, %edi
 4403      00
 4404 215d E8000000 		call	__cxa_allocate_exception
 4404      00
 4405 2162 31D2     		xorl	%edx, %edx
 4406 2164 48C70000 		movq	$.LC24, (%rax)
 4406      000000
 4407 216b BE000000 		movl	$_ZTIPKc, %esi
 4407      00
 4408 2170 4889C7   		movq	%rax, %rdi
 4409              	.LEHB105:
 4410 2173 E8000000 		call	__cxa_throw
 4410      00
 4411              	.LEHE105:
 4412 2178 0F1F8400 		.p2align 4,,10
 4412      00000000 
 4413              		.p2align 3
 4414              	.L613:
 4415 2180 488B0424 		movq	(%rsp), %rax
 4416 2184 488B6828 		movq	40(%rax), %rbp
 4417 2188 4839EF   		cmpq	%rbp, %rdi
 4418 218b 0F84E700 		je	.L669
 4418      0000
 4419 2191 4885ED   		testq	%rbp, %rbp
 4420 2194 0F859602 		jne	.L627
 4420      0000
 4421 219a 4885FF   		testq	%rdi, %rdi
 4422 219d 0F848D02 		je	.L627
 4422      0000
 4423 21a3 BF000000 		movl	$.LC34, %edi
 4423      00
 4424              	.LEHB106:
 4425 21a8 E8000000 		call	_ZSt19__throw_logic_errorPKc
 4425      00
 4426              	.LEHE106:
 4427              	.L671:
 4428 21ad 4889C3   		movq	%rax, %rbx
 4429 21b0 4889D5   		movq	%rdx, %rbp
 4430              	.L654:
 4431 21b3 488DBC24 		leaq	608(%rsp), %rdi
 4431      60020000 
 4432 21bb E8000000 		call	_ZN8UnitTest16SignalTranslatorD1Ev
 4432      00
 4433 21c0 4889DF   		movq	%rbx, %rdi
 4434 21c3 4889EA   		movq	%rbp, %rdx
 4435              	.L655:
 4436 21c6 4883FA01 		cmpq	$1, %rdx
 4437 21ca 0F845404 		je	.L657
 4437      0000
 4438 21d0 4883FA02 		cmpq	$2, %rdx
 4439 21d4 0F852404 		jne	.L696
 4439      0000
 4440 21da E8000000 		call	__cxa_begin_catch
 4440      00
 4441 21df 488DBC24 		leaq	240(%rsp), %rdi
 4441      F0000000 
 4442 21e7 4889C3   		movq	%rax, %rbx
 4443              	.LEHB107:
 4444 21ea E8000000 		call	_ZN8UnitTest15MemoryOutStreamC1Ev
 4444      00
 4445              	.LEHE107:
 4446 21ef 488B03   		movq	(%rbx), %rax
 4447 21f2 4889DF   		movq	%rbx, %rdi
 4448 21f5 FF5010   		call	*16(%rax)
 4449 21f8 488DBC24 		leaq	240(%rsp), %rdi
 4449      F0000000 
 4450 2200 BE000000 		movl	$.LC32, %esi
 4450      00
 4451 2205 4889C3   		movq	%rax, %rbx
 4452              	.LEHB108:
 4453 2208 E8000000 		call	_ZStlsISt11char_traitsIcEERSt13basic_ostreamIcT_ES5_PKc
 4453      00
 4454 220d 4889C7   		movq	%rax, %rdi
 4455 2210 4889DE   		movq	%rbx, %rsi
 4456 2213 E8000000 		call	_ZStlsISt11char_traitsIcEERSt13basic_ostreamIcT_ES5_PKc
 4456      00
 4457 2218 488DBC24 		leaq	240(%rsp), %rdi
 4457      F0000000 
 4458 2220 E8000000 		call	_ZNK8UnitTest15MemoryOutStream7GetTextEv
 4458      00
 4459 2225 4889C3   		movq	%rax, %rbx
 4460 2228 E8000000 		call	_ZN8UnitTest11CurrentTest7ResultsEv
 4460      00
 4461 222d 488B7424 		movq	8(%rsp), %rsi
 4461      08
 4462 2232 488B38   		movq	(%rax), %rdi
 4463 2235 4889DA   		movq	%rbx, %rdx
 4464 2238 E8000000 		call	_ZN8UnitTest11TestResults13OnTestFailureERKNS_11TestDetailsEPKc
 4464      00
 4465              	.LEHE108:
 4466 223d 488DBC24 		leaq	240(%rsp), %rdi
 4466      F0000000 
 4467              	.LEHB109:
 4468 2245 E8000000 		call	_ZN8UnitTest15MemoryOutStreamD1Ev
 4468      00
 4469              	.LEHE109:
 4470              	.L688:
 4471 224a E8000000 		call	__cxa_end_catch
 4471      00
 4472 224f 90       		.p2align 4,,10
 4473              		.p2align 3
 4474              	.L609:
 4475 2250 488B8424 		movq	1736(%rsp), %rax
 4475      C8060000 
 4476 2258 64483304 		xorq	%fs:40, %rax
 4476      25280000 
 4476      00
 4477 2261 0F85DB02 		jne	.L697
 4477      0000
 4478 2267 4881C4D0 		addq	$1744, %rsp
 4478      060000
 4479              		.cfi_remember_state
 4480              		.cfi_def_cfa_offset 32
 4481 226e 5B       		popq	%rbx
 4482              		.cfi_def_cfa_offset 24
 4483 226f 5D       		popq	%rbp
 4484              		.cfi_def_cfa_offset 16
 4485 2270 415C     		popq	%r12
 4486              		.cfi_def_cfa_offset 8
 4487 2272 C3       		ret
 4488              		.p2align 4,,10
 4489 2273 0F1F4400 		.p2align 3
 4489      00
 4490              	.L669:
 4491              		.cfi_restore_state
 4492 2278 B9000000 		movl	$_ZNSs4_Rep20_S_empty_rep_storageE+24, %ecx
 4492      00
 4493 227d 0F1F00   		.p2align 4,,10
 4494              		.p2align 3
 4495              	.L624:
 4496 2280 488D7424 		leaq	48(%rsp), %rsi
 4496      30
 4497 2285 488D7C24 		leaq	32(%rsp), %rdi
 4497      20
 4498 228a 48894C24 		movq	%rcx, 48(%rsp)
 4498      30
 4499              	.LEHB110:
 4500 228f E8000000 		call	_ZNSs6assignERKSs
 4500      00
 4501              	.LEHE110:
 4502 2294 488B4424 		movq	48(%rsp), %rax
 4502      30
 4503 2299 488D78E8 		leaq	-24(%rax), %rdi
 4504 229d 4881FF00 		cmpq	$_ZNSs4_Rep20_S_empty_rep_storageE, %rdi
 4504      000000
 4505 22a4 0F853E02 		jne	.L698
 4505      0000
 4506              	.L620:
 4507              	.LEHB111:
 4508 22aa E8000000 		call	_ZN8UnitTest11CurrentTest7ResultsEv
 4508      00
 4509 22af 488B38   		movq	(%rax), %rdi
 4510 22b2 488D8C24 		leaq	208(%rsp), %rcx
 4510      D0000000 
 4511 22ba 488D5424 		leaq	32(%rsp), %rdx
 4511      20
 4512 22bf 488D7424 		leaq	72(%rsp), %rsi
 4512      48
 4513 22c4 E8000000 		call	_ZN8UnitTest10CheckEqualIPKcSsEEvRNS_11TestResultsERKT_RKT0_RKNS_11TestDetailsE
 4513      00
 4514              	.LEHE111:
 4515 22c9 488B4424 		movq	32(%rsp), %rax
 4515      20
 4516 22ce 488D78E8 		leaq	-24(%rax), %rdi
 4517 22d2 4881FF00 		cmpq	$_ZNSs4_Rep20_S_empty_rep_storageE, %rdi
 4517      000000
 4518 22d9 0F85D901 		jne	.L699
 4518      0000
 4519              	.L645:
 4520 22df 488DBC24 		leaq	608(%rsp), %rdi
 4520      60020000 
 4521              	.LEHB112:
 4522 22e7 E8000000 		call	_ZN8UnitTest16SignalTranslatorD1Ev
 4522      00
 4523              	.LEHE112:
 4524 22ec E95FFFFF 		jmp	.L609
 4524      FF
 4525              		.p2align 4,,10
 4526 22f1 0F1F8000 		.p2align 3
 4526      000000
 4527              	.L668:
 4528 22f8 B9000000 		movl	$_ZNSs4_Rep20_S_empty_rep_storageE+24, %ecx
 4528      00
 4529 22fd 0F1F00   		.p2align 4,,10
 4530              		.p2align 3
 4531              	.L614:
 4532 2300 488D7424 		leaq	64(%rsp), %rsi
 4532      40
 4533 2305 488D7C24 		leaq	32(%rsp), %rdi
 4533      20
 4534 230a 48894C24 		movq	%rcx, 64(%rsp)
 4534      40
 4535              	.LEHB113:
 4536 230f E8000000 		call	_ZNSs6assignERKSs
 4536      00
 4537              	.LEHE113:
 4538 2314 488B4424 		movq	64(%rsp), %rax
 4538      40
 4539 2319 488D78E8 		leaq	-24(%rax), %rdi
 4540 231d 4881FF00 		cmpq	$_ZNSs4_Rep20_S_empty_rep_storageE, %rdi
 4540      000000
 4541 2324 7484     		je	.L620
 4542 2326 BA000000 		movl	$_ZL28__gthrw___pthread_key_createPjPFvPvE, %edx
 4542      00
 4543 232b 4885D2   		testq	%rdx, %rdx
 4544 232e 0F84F101 		je	.L621
 4544      0000
 4545 2334 BAFFFFFF 		movl	$-1, %edx
 4545      FF
 4546 2339 F00FC150 		lock xaddl	%edx, -8(%rax)
 4546      F8
 4547 233e 89D0     		movl	%edx, %eax
 4548              	.L622:
 4549 2340 85C0     		testl	%eax, %eax
 4550 2342 0F8F62FF 		jg	.L620
 4550      FFFF
 4551 2348 488D7424 		leaq	29(%rsp), %rsi
 4551      1D
 4552 234d E8000000 		call	_ZNSs4_Rep10_M_destroyERKSaIcE
 4552      00
 4553 2352 E953FFFF 		jmp	.L620
 4553      FF
 4554 2357 660F1F84 		.p2align 4,,10
 4554      00000000 
 4554      00
 4555              		.p2align 3
 4556              	.L612:
 4557 2360 488B3424 		movq	(%rsp), %rsi
 4558 2364 488D7C24 		leaq	32(%rsp), %rdi
 4558      20
 4559 2369 4883C650 		addq	$80, %rsi
 4560              	.LEHB114:
 4561 236d E8000000 		call	_ZNSs6assignERKSs
 4561      00
 4562              	.LEHE114:
 4563 2372 E933FFFF 		jmp	.L620
 4563      FF
 4564              	.L679:
 4565 2377 4889C3   		movq	%rax, %rbx
 4566              	.L636:
 4567 237a 488B4424 		movq	32(%rsp), %rax
 4567      20
 4568 237f 488D78E8 		leaq	-24(%rax), %rdi
 4569 2383 4881FF00 		cmpq	$_ZNSs4_Rep20_S_empty_rep_storageE, %rdi
 4569      000000
 4570 238a 740A     		je	.L652
 4571 238c 488D7424 		leaq	25(%rsp), %rsi
 4571      19
 4572 2391 E8000000 		call	_ZNSs4_Rep10_M_disposeERKSaIcE.part.5
 4572      00
 4573              	.L652:
 4574 2396 4889D8   		movq	%rbx, %rax
 4575              	.L642:
 4576 2399 4889C7   		movq	%rax, %rdi
 4577 239c E8000000 		call	__cxa_begin_catch
 4577      00
 4578              	.LEHB115:
 4579 23a1 E8000000 		call	_ZN8UnitTest11CurrentTest7DetailsEv
 4579      00
 4580 23a6 488B30   		movq	(%rax), %rsi
 4581 23a9 488DBC24 		leaq	176(%rsp), %rdi
 4581      B0000000 
 4582 23b1 BA9C0000 		movl	$156, %edx
 4582      00
 4583 23b6 E8000000 		call	_ZN8UnitTest11TestDetailsC1ERKS0_i
 4583      00
 4584 23bb E8000000 		call	_ZN8UnitTest11CurrentTest7ResultsEv
 4584      00
 4585 23c0 488B38   		movq	(%rax), %rdi
 4586 23c3 488DB424 		leaq	176(%rsp), %rsi
 4586      B0000000 
 4587 23cb BA000000 		movl	$.LC51, %edx
 4587      00
 4588 23d0 E8000000 		call	_ZN8UnitTest11TestResults13OnTestFailureERKNS_11TestDetailsEPKc
 4588      00
 4589              	.LEHE115:
 4590              	.LEHB116:
 4591 23d5 E8000000 		call	__cxa_end_catch
 4591      00
 4592              	.LEHE116:
 4593 23da E900FFFF 		jmp	.L645
 4593      FF
 4594 23df 90       		.p2align 4,,10
 4595              		.p2align 3
 4596              	.L695:
 4597 23e0 4829E8   		subq	%rbp, %rax
 4598 23e3 488D5424 		leaq	31(%rsp), %rdx
 4598      1F
 4599 23e8 31F6     		xorl	%esi, %esi
 4600 23ea 4889C7   		movq	%rax, %rdi
 4601 23ed 4889C3   		movq	%rax, %rbx
 4602              	.LEHB117:
 4603 23f0 E8000000 		call	_ZNSs4_Rep9_S_createEmmRKSaIcE
 4603      00
 4604 23f5 4883FB01 		cmpq	$1, %rbx
 4605 23f9 4989C4   		movq	%rax, %r12
 4606 23fc 488D4818 		leaq	24(%rax), %rcx
 4607 2400 757E     		jne	.L617
 4608 2402 0FB64500 		movzbl	0(%rbp), %eax
 4609 2406 41884424 		movb	%al, 24(%r12)
 4609      18
 4610              	.L618:
 4611 240b 4981FC00 		cmpq	$_ZNSs4_Rep20_S_empty_rep_storageE, %r12
 4611      000000
 4612 2412 0F84E8FE 		je	.L614
 4612      FFFF
 4613 2418 41C74424 		movl	$0, 16(%r12)
 4613      10000000 
 4613      00
 4614 2421 49891C24 		movq	%rbx, (%r12)
 4615 2425 41C6441C 		movb	$0, 24(%r12,%rbx)
 4615      1800
 4616 242b E9D0FEFF 		jmp	.L614
 4616      FF
 4617              	.L627:
 4618 2430 4889FB   		movq	%rdi, %rbx
 4619 2433 488D5424 		leaq	30(%rsp), %rdx
 4619      1E
 4620 2438 31F6     		xorl	%esi, %esi
 4621 243a 4829EB   		subq	%rbp, %rbx
 4622 243d 4889DF   		movq	%rbx, %rdi
 4623 2440 E8000000 		call	_ZNSs4_Rep9_S_createEmmRKSaIcE
 4623      00
 4624              	.LEHE117:
 4625 2445 4883FB01 		cmpq	$1, %rbx
 4626 2449 4989C4   		movq	%rax, %r12
 4627 244c 488D4818 		leaq	24(%rax), %rcx
 4628 2450 754E     		jne	.L628
 4629 2452 0FB64500 		movzbl	0(%rbp), %eax
 4630 2456 41884424 		movb	%al, 24(%r12)
 4630      18
 4631              	.L629:
 4632 245b 4981FC00 		cmpq	$_ZNSs4_Rep20_S_empty_rep_storageE, %r12
 4632      000000
 4633 2462 0F8418FE 		je	.L624
 4633      FFFF
 4634 2468 41C74424 		movl	$0, 16(%r12)
 4634      10000000 
 4634      00
 4635 2471 49891C24 		movq	%rbx, (%r12)
 4636 2475 41C6441C 		movb	$0, 24(%r12,%rbx)
 4636      1800
 4637 247b E900FEFF 		jmp	.L624
 4637      FF
 4638              		.p2align 4,,10
 4639              		.p2align 3
 4640              	.L617:
 4641 2480 4889CF   		movq	%rcx, %rdi
 4642 2483 4889DA   		movq	%rbx, %rdx
 4643 2486 4889EE   		movq	%rbp, %rsi
 4644 2489 E8000000 		call	memcpy
 4644      00
 4645 248e 4889C1   		movq	%rax, %rcx
 4646 2491 E975FFFF 		jmp	.L618
 4646      FF
 4647 2496 662E0F1F 		.p2align 4,,10
 4647      84000000 
 4647      0000
 4648              		.p2align 3
 4649              	.L628:
 4650 24a0 4889CF   		movq	%rcx, %rdi
 4651 24a3 4889DA   		movq	%rbx, %rdx
 4652 24a6 4889EE   		movq	%rbp, %rsi
 4653 24a9 E8000000 		call	memcpy
 4653      00
 4654 24ae 4889C1   		movq	%rax, %rcx
 4655 24b1 EBA8     		jmp	.L629
 4656              		.p2align 4,,10
 4657 24b3 0F1F4400 		.p2align 3
 4657      00
 4658              	.L699:
 4659 24b8 BA000000 		movl	$_ZL28__gthrw___pthread_key_createPjPFvPvE, %edx
 4659      00
 4660 24bd 4885D2   		testq	%rdx, %rdx
 4661 24c0 7456     		je	.L646
 4662 24c2 BAFFFFFF 		movl	$-1, %edx
 4662      FF
 4663 24c7 F00FC150 		lock xaddl	%edx, -8(%rax)
 4663      F8
 4664 24cc 89D0     		movl	%edx, %eax
 4665              	.L647:
 4666 24ce 85C0     		testl	%eax, %eax
 4667 24d0 0F8F09FE 		jg	.L645
 4667      FFFF
 4668 24d6 488D7424 		leaq	24(%rsp), %rsi
 4668      18
 4669 24db E8000000 		call	_ZNSs4_Rep10_M_destroyERKSaIcE
 4669      00
 4670 24e0 E9FAFDFF 		jmp	.L645
 4670      FF
 4671              		.p2align 4,,10
 4672 24e5 0F1F00   		.p2align 3
 4673              	.L698:
 4674 24e8 BA000000 		movl	$_ZL28__gthrw___pthread_key_createPjPFvPvE, %edx
 4674      00
 4675 24ed 4885D2   		testq	%rdx, %rdx
 4676 24f0 7443     		je	.L631
 4677 24f2 BAFFFFFF 		movl	$-1, %edx
 4677      FF
 4678 24f7 F00FC150 		lock xaddl	%edx, -8(%rax)
 4678      F8
 4679 24fc 89D0     		movl	%edx, %eax
 4680              	.L632:
 4681 24fe 85C0     		testl	%eax, %eax
 4682 2500 0F8FA4FD 		jg	.L620
 4682      FFFF
 4683 2506 488D7424 		leaq	28(%rsp), %rsi
 4683      1C
 4684 250b E8000000 		call	_ZNSs4_Rep10_M_destroyERKSaIcE
 4684      00
 4685 2510 E995FDFF 		jmp	.L620
 4685      FF
 4686              		.p2align 4,,10
 4687 2515 0F1F00   		.p2align 3
 4688              	.L646:
 4689 2518 8B50F8   		movl	-8(%rax), %edx
 4690 251b 8D4AFF   		leal	-1(%rdx), %ecx
 4691 251e 8948F8   		movl	%ecx, -8(%rax)
 4692 2521 89D0     		movl	%edx, %eax
 4693 2523 EBA9     		jmp	.L647
 4694              	.L621:
 4695 2525 8B50F8   		movl	-8(%rax), %edx
 4696 2528 8D4AFF   		leal	-1(%rdx), %ecx
 4697 252b 8948F8   		movl	%ecx, -8(%rax)
 4698 252e 89D0     		movl	%edx, %eax
 4699 2530 E90BFEFF 		jmp	.L622
 4699      FF
 4700              	.L631:
 4701 2535 8B50F8   		movl	-8(%rax), %edx
 4702 2538 8D4AFF   		leal	-1(%rdx), %ecx
 4703 253b 8948F8   		movl	%ecx, -8(%rax)
 4704 253e 89D0     		movl	%edx, %eax
 4705 2540 EBBC     		jmp	.L632
 4706              	.L697:
 4707 2542 E8000000 		call	__stack_chk_fail
 4707      00
 4708              	.L676:
 4709 2547 4889C3   		movq	%rax, %rbx
 4710 254a 4889D5   		movq	%rdx, %rbp
 4711 254d E8000000 		call	__cxa_end_catch
 4711      00
 4712 2552 E95CFCFF 		jmp	.L654
 4712      FF
 4713              	.L670:
 4714 2557 4889C7   		movq	%rax, %rdi
 4715 255a E967FCFF 		jmp	.L655
 4715      FF
 4716              	.L680:
 4717 255f 4889C3   		movq	%rax, %rbx
 4718 2562 488B4424 		movq	48(%rsp), %rax
 4718      30
 4719 2567 488D78E8 		leaq	-24(%rax), %rdi
 4720 256b 4881FF00 		cmpq	$_ZNSs4_Rep20_S_empty_rep_storageE, %rdi
 4720      000000
 4721 2572 0F8402FE 		je	.L636
 4721      FFFF
 4722 2578 488D7424 		leaq	26(%rsp), %rsi
 4722      1A
 4723 257d E8000000 		call	_ZNSs4_Rep10_M_disposeERKSaIcE.part.5
 4723      00
 4724 2582 E9F3FDFF 		jmp	.L636
 4724      FF
 4725              	.L677:
 4726 2587 E90DFEFF 		jmp	.L642
 4726      FF
 4727              	.L678:
 4728 258c 4889C3   		movq	%rax, %rbx
 4729 258f 488B4424 		movq	32(%rsp), %rax
 4729      20
 4730 2594 488D78E8 		leaq	-24(%rax), %rdi
 4731 2598 4881FF00 		cmpq	$_ZNSs4_Rep20_S_empty_rep_storageE, %rdi
 4731      000000
 4732 259f 0F84F1FD 		je	.L652
 4732      FFFF
 4733 25a5 488D7424 		leaq	23(%rsp), %rsi
 4733      17
 4734 25aa E8000000 		call	_ZNSs4_Rep10_M_disposeERKSaIcE.part.5
 4734      00
 4735 25af E9E2FDFF 		jmp	.L652
 4735      FF
 4736              	.L681:
 4737 25b4 4889C3   		movq	%rax, %rbx
 4738 25b7 488B4424 		movq	64(%rsp), %rax
 4738      40
 4739 25bc 488D78E8 		leaq	-24(%rax), %rdi
 4740 25c0 4881FF00 		cmpq	$_ZNSs4_Rep20_S_empty_rep_storageE, %rdi
 4740      000000
 4741 25c7 0F84ADFD 		je	.L636
 4741      FFFF
 4742 25cd 488D7424 		leaq	27(%rsp), %rsi
 4742      1B
 4743 25d2 E8000000 		call	_ZNSs4_Rep10_M_disposeERKSaIcE.part.5
 4743      00
 4744 25d7 E99EFDFF 		jmp	.L636
 4744      FF
 4745              	.L674:
 4746 25dc 488DBC24 		leaq	240(%rsp), %rdi
 4746      F0000000 
 4747 25e4 4889C3   		movq	%rax, %rbx
 4748 25e7 E8000000 		call	_ZN8UnitTest15MemoryOutStreamD1Ev
 4748      00
 4749              	.L661:
 4750 25ec E8000000 		call	__cxa_end_catch
 4750      00
 4751 25f1 4889DF   		movq	%rbx, %rdi
 4752              	.LEHB118:
 4753 25f4 E8000000 		call	_Unwind_Resume
 4753      00
 4754              	.LEHE118:
 4755              	.L673:
 4756              	.L689:
 4757 25f9 4889C3   		movq	%rax, %rbx
 4758 25fc EBEE     		jmp	.L661
 4759              	.L696:
 4760 25fe E8000000 		call	__cxa_begin_catch
 4760      00
 4761              	.LEHB119:
 4762 2603 E8000000 		call	_ZN8UnitTest11CurrentTest7ResultsEv
 4762      00
 4763 2608 488B7424 		movq	8(%rsp), %rsi
 4763      08
 4764 260d 488B38   		movq	(%rax), %rdi
 4765 2610 BA000000 		movl	$.LC33, %edx
 4765      00
 4766 2615 E8000000 		call	_ZN8UnitTest11TestResults13OnTestFailureERKNS_11TestDetailsEPKc
 4766      00
 4767              	.LEHE119:
 4768              	.LEHB120:
 4769 261a E8000000 		call	__cxa_end_catch
 4769      00
 4770              	.LEHE120:
 4771 261f E92CFCFF 		jmp	.L609
 4771      FF
 4772              	.L657:
 4773 2624 E8000000 		call	__cxa_begin_catch
 4773      00
 4774 2629 4889C3   		movq	%rax, %rbx
 4775 262c 488B00   		movq	(%rax), %rax
 4776 262f 4889DF   		movq	%rbx, %rdi
 4777 2632 FF5010   		call	*16(%rax)
 4778 2635 4889DF   		movq	%rbx, %rdi
 4779 2638 4889C5   		movq	%rax, %rbp
 4780              	.LEHB121:
 4781 263b E8000000 		call	_ZNK8UnitTest15AssertException10LineNumberEv
 4781      00
 4782 2640 4889DF   		movq	%rbx, %rdi
 4783 2643 4189C4   		movl	%eax, %r12d
 4784 2646 E8000000 		call	_ZNK8UnitTest15AssertException8FilenameEv
 4784      00
 4785 264b 4889C1   		movq	%rax, %rcx
 4786 264e 488B4424 		movq	8(%rsp), %rax
 4786      08
 4787 2653 488D7C24 		leaq	80(%rsp), %rdi
 4787      50
 4788 2658 4589E0   		movl	%r12d, %r8d
 4789 265b 488B7008 		movq	8(%rax), %rsi
 4790 265f 488B10   		movq	(%rax), %rdx
 4791 2662 E8000000 		call	_ZN8UnitTest11TestDetailsC1EPKcS2_S2_i
 4791      00
 4792 2667 E8000000 		call	_ZN8UnitTest11CurrentTest7ResultsEv
 4792      00
 4793 266c 488B38   		movq	(%rax), %rdi
 4794 266f 488D7424 		leaq	80(%rsp), %rsi
 4794      50
 4795 2674 4889EA   		movq	%rbp, %rdx
 4796 2677 E8000000 		call	_ZN8UnitTest11TestResults13OnTestFailureERKNS_11TestDetailsEPKc
 4796      00
 4797              	.LEHE121:
 4798 267c E9C9FBFF 		jmp	.L688
 4798      FF
 4799              	.L675:
 4800 2681 4889C3   		movq	%rax, %rbx
 4801 2684 E8000000 		call	__cxa_end_catch
 4801      00
 4802 2689 4889DF   		movq	%rbx, %rdi
 4803              	.LEHB122:
 4804 268c E8000000 		call	_Unwind_Resume
 4804      00
 4805              	.LEHE122:
 4806              	.L672:
 4807 2691 E963FFFF 		jmp	.L689
 4807      FF
 4808              		.cfi_endproc
 4809              	.LFE1496:
 4810              		.section	.gcc_except_table
 4811              		.align 4
 4812              	.LLSDA1496:
 4813 02b4 FF       		.byte	0xff
 4814 02b5 03       		.byte	0x3
 4815 02b6 9C01     		.uleb128 .LLSDATT1496-.LLSDATTD1496
 4816              	.LLSDATTD1496:
 4817 02b8 01       		.byte	0x1
 4818 02b9 8401     		.uleb128 .LLSDACSE1496-.LLSDACSB1496
 4819              	.LLSDACSB1496:
 4820 02bb 2A       		.uleb128 .LEHB100-.LFB1496
 4821 02bc 05       		.uleb128 .LEHE100-.LEHB100
 4822 02bd 00       		.uleb128 0
 4823 02be 00       		.uleb128 0
 4824 02bf 3A       		.uleb128 .LEHB101-.LFB1496
 4825 02c0 05       		.uleb128 .LEHE101-.LEHB101
 4826 02c1 870B     		.uleb128 .L670-.LFB1496
 4827 02c3 05       		.uleb128 0x5
 4828 02c4 72       		.uleb128 .LEHB102-.LFB1496
 4829 02c5 AA01     		.uleb128 .LEHE102-.LEHB102
 4830 02c7 DD03     		.uleb128 .L671-.LFB1496
 4831 02c9 07       		.uleb128 0x7
 4832 02ca A502     		.uleb128 .LEHB103-.LFB1496
 4833 02cc 1A       		.uleb128 .LEHE103-.LEHB103
 4834 02cd B70B     		.uleb128 .L677-.LFB1496
 4835 02cf 01       		.uleb128 0x1
 4836 02d0 FD02     		.uleb128 .LEHB104-.LFB1496
 4837 02d2 05       		.uleb128 .LEHE104-.LEHB104
 4838 02d3 A707     		.uleb128 .L679-.LFB1496
 4839 02d5 01       		.uleb128 0x1
 4840 02d6 A303     		.uleb128 .LEHB105-.LFB1496
 4841 02d8 05       		.uleb128 .LEHE105-.LEHB105
 4842 02d9 DD03     		.uleb128 .L671-.LFB1496
 4843 02db 07       		.uleb128 0x7
 4844 02dc D803     		.uleb128 .LEHB106-.LFB1496
 4845 02de 05       		.uleb128 .LEHE106-.LEHB106
 4846 02df A707     		.uleb128 .L679-.LFB1496
 4847 02e1 01       		.uleb128 0x1
 4848 02e2 9A04     		.uleb128 .LEHB107-.LFB1496
 4849 02e4 05       		.uleb128 .LEHE107-.LEHB107
 4850 02e5 A90C     		.uleb128 .L673-.LFB1496
 4851 02e7 00       		.uleb128 0
 4852 02e8 B804     		.uleb128 .LEHB108-.LFB1496
 4853 02ea 35       		.uleb128 .LEHE108-.LEHB108
 4854 02eb 8C0C     		.uleb128 .L674-.LFB1496
 4855 02ed 00       		.uleb128 0
 4856 02ee F504     		.uleb128 .LEHB109-.LFB1496
 4857 02f0 05       		.uleb128 .LEHE109-.LEHB109
 4858 02f1 A90C     		.uleb128 .L673-.LFB1496
 4859 02f3 00       		.uleb128 0
 4860 02f4 BF05     		.uleb128 .LEHB110-.LFB1496
 4861 02f6 05       		.uleb128 .LEHE110-.LEHB110
 4862 02f7 8F0B     		.uleb128 .L680-.LFB1496
 4863 02f9 01       		.uleb128 0x1
 4864 02fa DA05     		.uleb128 .LEHB111-.LFB1496
 4865 02fc 1F       		.uleb128 .LEHE111-.LEHB111
 4866 02fd BC0B     		.uleb128 .L678-.LFB1496
 4867 02ff 01       		.uleb128 0x1
 4868 0300 9706     		.uleb128 .LEHB112-.LFB1496
 4869 0302 05       		.uleb128 .LEHE112-.LEHB112
 4870 0303 870B     		.uleb128 .L670-.LFB1496
 4871 0305 05       		.uleb128 0x5
 4872 0306 BF06     		.uleb128 .LEHB113-.LFB1496
 4873 0308 05       		.uleb128 .LEHE113-.LEHB113
 4874 0309 E40B     		.uleb128 .L681-.LFB1496
 4875 030b 01       		.uleb128 0x1
 4876 030c 9D07     		.uleb128 .LEHB114-.LFB1496
 4877 030e 05       		.uleb128 .LEHE114-.LEHB114
 4878 030f A707     		.uleb128 .L679-.LFB1496
 4879 0311 01       		.uleb128 0x1
 4880 0312 D107     		.uleb128 .LEHB115-.LFB1496
 4881 0314 34       		.uleb128 .LEHE115-.LEHB115
 4882 0315 F70A     		.uleb128 .L676-.LFB1496
 4883 0317 07       		.uleb128 0x7
 4884 0318 8508     		.uleb128 .LEHB116-.LFB1496
 4885 031a 05       		.uleb128 .LEHE116-.LEHB116
 4886 031b DD03     		.uleb128 .L671-.LFB1496
 4887 031d 07       		.uleb128 0x7
 4888 031e A008     		.uleb128 .LEHB117-.LFB1496
 4889 0320 55       		.uleb128 .LEHE117-.LEHB117
 4890 0321 A707     		.uleb128 .L679-.LFB1496
 4891 0323 01       		.uleb128 0x1
 4892 0324 A40C     		.uleb128 .LEHB118-.LFB1496
 4893 0326 05       		.uleb128 .LEHE118-.LEHB118
 4894 0327 00       		.uleb128 0
 4895 0328 00       		.uleb128 0
 4896 0329 B30C     		.uleb128 .LEHB119-.LFB1496
 4897 032b 17       		.uleb128 .LEHE119-.LEHB119
 4898 032c B10D     		.uleb128 .L675-.LFB1496
 4899 032e 00       		.uleb128 0
 4900 032f CA0C     		.uleb128 .LEHB120-.LFB1496
 4901 0331 05       		.uleb128 .LEHE120-.LEHB120
 4902 0332 00       		.uleb128 0
 4903 0333 00       		.uleb128 0
 4904 0334 EB0C     		.uleb128 .LEHB121-.LFB1496
 4905 0336 41       		.uleb128 .LEHE121-.LEHB121
 4906 0337 C10D     		.uleb128 .L672-.LFB1496
 4907 0339 00       		.uleb128 0
 4908 033a BC0D     		.uleb128 .LEHB122-.LFB1496
 4909 033c 05       		.uleb128 .LEHE122-.LEHB122
 4910 033d 00       		.uleb128 0
 4911 033e 00       		.uleb128 0
 4912              	.LLSDACSE1496:
 4913 033f 03       		.byte	0x3
 4914 0340 00       		.byte	0
 4915 0341 02       		.byte	0x2
 4916 0342 7D       		.byte	0x7d
 4917 0343 01       		.byte	0x1
 4918 0344 7D       		.byte	0x7d
 4919 0345 00       		.byte	0
 4920 0346 7D       		.byte	0x7d
 4921 0347 00       		.align 4
 4922 0348 00000000 		.long	0
 4923              	
 4924 034c 00000000 		.long	_ZTISt9exception
 4925 0350 00000000 		.long	_ZTIN8UnitTest15AssertExceptionE
 4926              	.LLSDATT1496:
 4927              		.text
 4929              		.section	.text.unlikely
 4930              	.LCOLDE56:
 4931              		.text
 4932              	.LHOTE56:
 4933              		.section	.text.unlikely
 4934              		.align 2
 4935              	.LCOLDB57:
 4936              		.text
 4937              	.LHOTB57:
 4938              		.align 2
 4939 2696 662E0F1F 		.p2align 4,,15
 4939      84000000 
 4939      0000
 4941              	_ZNK12_GLOBAL__N_149TestXmlTestReporterFixtureOneFailureAndOneSuccess7RunImplEv:
 4942              	.LFB1441:
 4943              		.cfi_startproc
 4944              		.cfi_personality 0x3,__gxx_personality_v0
 4945              		.cfi_lsda 0x3,.LLSDA1441
 4946 26a0 4157     		pushq	%r15
 4947              		.cfi_def_cfa_offset 16
 4948              		.cfi_offset 15, -16
 4949 26a2 4156     		pushq	%r14
 4950              		.cfi_def_cfa_offset 24
 4951              		.cfi_offset 14, -24
 4952 26a4 4155     		pushq	%r13
 4953              		.cfi_def_cfa_offset 32
 4954              		.cfi_offset 13, -32
 4955 26a6 4154     		pushq	%r12
 4956              		.cfi_def_cfa_offset 40
 4957              		.cfi_offset 12, -40
 4958 26a8 4C8D6F08 		leaq	8(%rdi), %r13
 4959 26ac 55       		pushq	%rbp
 4960              		.cfi_def_cfa_offset 48
 4961              		.cfi_offset 6, -48
 4962 26ad 53       		pushq	%rbx
 4963              		.cfi_def_cfa_offset 56
 4964              		.cfi_offset 3, -56
 4965 26ae 4881ECD8 		subq	$472, %rsp
 4965      010000
 4966              		.cfi_def_cfa_offset 528
 4967 26b5 48897C24 		movq	%rdi, 8(%rsp)
 4967      08
 4968 26ba 488DBC24 		leaq	136(%rsp), %rdi
 4968      88000000 
 4969 26c2 64488B0C 		movq	%fs:40, %rcx
 4969      25280000 
 4969      00
 4970 26cb 48898C24 		movq	%rcx, 456(%rsp)
 4970      C8010000 
 4971 26d3 31C9     		xorl	%ecx, %ecx
 4972 26d5 E8000000 		call	_ZNSt8ios_baseC2Ev
 4972      00
 4973 26da 4C8B2500 		movq	_ZTTSt19basic_ostringstreamIcSt11char_traitsIcESaIcEE+8(%rip), %r12
 4973      000000
 4974 26e1 C6842468 		movb	$0, 360(%rsp)
 4974      01000000 
 4975 26e9 488D7C24 		leaq	48(%rsp), %rdi
 4975      30
 4976 26ee 488B0500 		movq	_ZTTSt19basic_ostringstreamIcSt11char_traitsIcESaIcEE+16(%rip), %rax
 4976      000000
 4977 26f5 48C78424 		movq	$_ZTVSt9basic_iosIcSt11char_traitsIcEE+16, 136(%rsp)
 4977      88000000 
 4977      00000000 
 4978 2701 31F6     		xorl	%esi, %esi
 4979 2703 48C78424 		movq	$0, 352(%rsp)
 4979      60010000 
 4979      00000000 
 4980 270f C6842469 		movb	$0, 361(%rsp)
 4980      01000000 
 4981 2717 49037C24 		addq	-24(%r12), %rdi
 4981      E8
 4982 271c 48C78424 		movq	$0, 368(%rsp)
 4982      70010000 
 4982      00000000 
 4983 2728 48C78424 		movq	$0, 376(%rsp)
 4983      78010000 
 4983      00000000 
 4984 2734 48C78424 		movq	$0, 384(%rsp)
 4984      80010000 
 4984      00000000 
 4985 2740 48C78424 		movq	$0, 392(%rsp)
 4985      88010000 
 4985      00000000 
 4986 274c 4C896424 		movq	%r12, 48(%rsp)
 4986      30
 4987 2751 488907   		movq	%rax, (%rdi)
 4988              	.LEHB123:
 4989 2754 E8000000 		call	_ZNSt9basic_iosIcSt11char_traitsIcEE4initEPSt15basic_streambufIcS1_E
 4989      00
 4990              	.LEHE123:
 4991 2759 488D7C24 		leaq	112(%rsp), %rdi
 4991      70
 4992 275e 48C74424 		movq	$_ZTVSt19basic_ostringstreamIcSt11char_traitsIcESaIcEE+24, 48(%rsp)
 4992      30000000 
 4992      00
 4993 2767 48C78424 		movq	$_ZTVSt19basic_ostringstreamIcSt11char_traitsIcESaIcEE+64, 136(%rsp)
 4993      88000000 
 4993      00000000 
 4994 2773 48C74424 		movq	$_ZTVSt15basic_streambufIcSt11char_traitsIcEE+16, 56(%rsp)
 4994      38000000 
 4994      00
 4995 277c 48C74424 		movq	$0, 64(%rsp)
 4995      40000000 
 4995      00
 4996 2785 48C74424 		movq	$0, 72(%rsp)
 4996      48000000 
 4996      00
 4997 278e 48C74424 		movq	$0, 80(%rsp)
 4997      50000000 
 4997      00
 4998 2797 48C74424 		movq	$0, 88(%rsp)
 4998      58000000 
 4998      00
 4999 27a0 48C74424 		movq	$0, 96(%rsp)
 4999      60000000 
 4999      00
 5000 27a9 48C74424 		movq	$0, 104(%rsp)
 5000      68000000 
 5000      00
 5001 27b2 E8000000 		call	_ZNSt6localeC1Ev
 5001      00
 5002 27b7 488D4424 		leaq	48(%rsp), %rax
 5002      30
 5003 27bc 488D7424 		leaq	56(%rsp), %rsi
 5003      38
 5004 27c1 48C74424 		movq	$_ZTVSt15basic_stringbufIcSt11char_traitsIcESaIcEE+16, 56(%rsp)
 5004      38000000 
 5004      00
 5005 27ca C7442478 		movl	$16, 120(%rsp)
 5005      10000000 
 5006 27d2 48C78424 		movq	$_ZNSs4_Rep20_S_empty_rep_storageE+24, 128(%rsp)
 5006      80000000 
 5006      00000000 
 5007 27de 488D7858 		leaq	88(%rax), %rdi
 5008              	.LEHB124:
 5009 27e2 E8000000 		call	_ZNSt9basic_iosIcSt11char_traitsIcEE4initEPSt15basic_streambufIcS1_E
 5009      00
 5010              	.LEHE124:
 5011 27e7 488D4424 		leaq	48(%rsp), %rax
 5011      30
 5012 27ec 488DB860 		leaq	352(%rax), %rdi
 5012      010000
 5013 27f3 4889C6   		movq	%rax, %rsi
 5014              	.LEHB125:
 5015 27f6 E8000000 		call	_ZN8UnitTest15XmlTestReporterC1ERSo
 5015      00
 5016              	.LEHE125:
 5017 27fb 488D7C24 		leaq	48(%rsp), %rdi
 5017      30
 5018 2800 4C89EE   		movq	%r13, %rsi
 5019 2803 4C89AC24 		movq	%r13, 440(%rsp)
 5019      B8010000 
 5020              	.LEHB126:
 5021 280b E8C0F7FF 		call	_ZN8UnitTest11ExecuteTestIN12_GLOBAL__N_151XmlTestReporterFixtureOneFailureAndOneSuccessHelpe
 5021      FF
 5022              	.LEHE126:
 5023 2810 488BAC24 		movq	416(%rsp), %rbp
 5023      A0010000 
 5024 2818 4C8BB424 		movq	408(%rsp), %r14
 5024      98010000 
 5025 2820 48C78424 		movq	$_ZTVN8UnitTest20DeferredTestReporterE+16, 400(%rsp)
 5025      90010000 
 5025      00000000 
 5026 282c 4C39F5   		cmpq	%r14, %rbp
 5027 282f 0F84C700 		je	.L707
 5027      0000
 5028              		.p2align 4,,10
 5029 2835 0F1F00   		.p2align 3
 5030              	.L736:
 5031 2838 4D8B7E20 		movq	32(%r14), %r15
 5032 283c 498B5E18 		movq	24(%r14), %rbx
 5033 2840 4939DF   		cmpq	%rbx, %r15
 5034 2843 7457     		je	.L708
 5035 2845 B8000000 		movl	$_ZL28__gthrw___pthread_key_createPjPFvPvE, %eax
 5035      00
 5036 284a 4885C0   		testq	%rax, %rax
 5037 284d 7512     		jne	.L772
 5038 284f E9990100 		jmp	.L714
 5038      00
 5039              		.p2align 4,,10
 5040 2854 0F1F4000 		.p2align 3
 5041              	.L717:
 5042 2858 4883C310 		addq	$16, %rbx
 5043 285c 4939DF   		cmpq	%rbx, %r15
 5044 285f 7437     		je	.L715
 5045              	.L772:
 5046 2861 488B4308 		movq	8(%rbx), %rax
 5047 2865 488D78E8 		leaq	-24(%rax), %rdi
 5048 2869 4881FF00 		cmpq	$_ZNSs4_Rep20_S_empty_rep_storageE, %rdi
 5048      000000
 5049 2870 74E6     		je	.L717
 5050 2872 BEFFFFFF 		movl	$-1, %esi
 5050      FF
 5051 2877 F00FC170 		lock xaddl	%esi, -8(%rax)
 5051      F8
 5052 287c 85F6     		testl	%esi, %esi
 5053 287e 7FD8     		jg	.L717
 5054 2880 488D7424 		leaq	16(%rsp), %rsi
 5054      10
 5055 2885 4883C310 		addq	$16, %rbx
 5056 2889 E8000000 		call	_ZNSs4_Rep10_M_destroyERKSaIcE
 5056      00
 5057 288e 4939DF   		cmpq	%rbx, %r15
 5058 2891 75CE     		jne	.L772
 5059              		.p2align 4,,10
 5060 2893 0F1F4400 		.p2align 3
 5060      00
 5061              	.L715:
 5062 2898 4D8B7E18 		movq	24(%r14), %r15
 5063              	.L708:
 5064 289c 4D85FF   		testq	%r15, %r15
 5065 289f 7408     		je	.L720
 5066 28a1 4C89FF   		movq	%r15, %rdi
 5067 28a4 E8000000 		call	_ZdlPv
 5067      00
 5068              	.L720:
 5069 28a9 498B4610 		movq	16(%r14), %rax
 5070 28ad 488D78E8 		leaq	-24(%rax), %rdi
 5071 28b1 4881FF00 		cmpq	$_ZNSs4_Rep20_S_empty_rep_storageE, %rdi
 5071      000000
 5072 28b8 0F85AA01 		jne	.L788
 5072      0000
 5073              	.L722:
 5074 28be 498B4608 		movq	8(%r14), %rax
 5075 28c2 488D78E8 		leaq	-24(%rax), %rdi
 5076 28c6 4881FF00 		cmpq	$_ZNSs4_Rep20_S_empty_rep_storageE, %rdi
 5076      000000
 5077 28cd 0F856501 		jne	.L789
 5077      0000
 5078              	.L727:
 5079 28d3 498B06   		movq	(%r14), %rax
 5080 28d6 488D78E8 		leaq	-24(%rax), %rdi
 5081 28da 4881FF00 		cmpq	$_ZNSs4_Rep20_S_empty_rep_storageE, %rdi
 5081      000000
 5082 28e1 0F851901 		jne	.L790
 5082      0000
 5083              	.L732:
 5084 28e7 4983C638 		addq	$56, %r14
 5085 28eb 4C39F5   		cmpq	%r14, %rbp
 5086 28ee 0F8544FF 		jne	.L736
 5086      FFFF
 5087 28f4 488BAC24 		movq	408(%rsp), %rbp
 5087      98010000 
 5088              	.L707:
 5089 28fc 4885ED   		testq	%rbp, %rbp
 5090 28ff 7408     		je	.L737
 5091 2901 4889EF   		movq	%rbp, %rdi
 5092 2904 E8000000 		call	_ZdlPv
 5092      00
 5093              	.L737:
 5094 2909 488D4424 		leaq	48(%rsp), %rax
 5094      30
 5095 290e 488DB860 		leaq	352(%rax), %rdi
 5095      010000
 5096              	.LEHB127:
 5097 2915 E8000000 		call	_ZN8UnitTest12TestReporterD2Ev
 5097      00
 5098              	.LEHE127:
 5099 291a 488B8424 		movq	128(%rsp), %rax
 5099      80000000 
 5100 2922 48C74424 		movq	$_ZTVSt19basic_ostringstreamIcSt11char_traitsIcESaIcEE+24, 48(%rsp)
 5100      30000000 
 5100      00
 5101 292b 48C78424 		movq	$_ZTVSt19basic_ostringstreamIcSt11char_traitsIcESaIcEE+64, 136(%rsp)
 5101      88000000 
 5101      00000000 
 5102 2937 48C74424 		movq	$_ZTVSt15basic_stringbufIcSt11char_traitsIcESaIcEE+16, 56(%rsp)
 5102      38000000 
 5102      00
 5103 2940 488D78E8 		leaq	-24(%rax), %rdi
 5104 2944 4881FF00 		cmpq	$_ZNSs4_Rep20_S_empty_rep_storageE, %rdi
 5104      000000
 5105 294b 0F856E01 		jne	.L791
 5105      0000
 5106              	.L739:
 5107 2951 488D7C24 		leaq	112(%rsp), %rdi
 5107      70
 5108 2956 48C74424 		movq	$_ZTVSt15basic_streambufIcSt11char_traitsIcEE+16, 56(%rsp)
 5108      38000000 
 5108      00
 5109 295f E8000000 		call	_ZNSt6localeD1Ev
 5109      00
 5110 2964 498B4424 		movq	-24(%r12), %rax
 5110      E8
 5111 2969 488B0D00 		movq	_ZTTSt19basic_ostringstreamIcSt11char_traitsIcESaIcEE+16(%rip), %rcx
 5111      000000
 5112 2970 4C896424 		movq	%r12, 48(%rsp)
 5112      30
 5113 2975 48894C04 		movq	%rcx, 48(%rsp,%rax)
 5113      30
 5114 297a 488D4424 		leaq	48(%rsp), %rax
 5114      30
 5115 297f 48C78424 		movq	$_ZTVSt9basic_iosIcSt11char_traitsIcEE+16, 136(%rsp)
 5115      88000000 
 5115      00000000 
 5116 298b 488D7858 		leaq	88(%rax), %rdi
 5117              	.LEHB128:
 5118 298f E8000000 		call	_ZNSt8ios_baseD2Ev
 5118      00
 5119              	.LEHE128:
 5120              	.L700:
 5121 2994 488B8424 		movq	456(%rsp), %rax
 5121      C8010000 
 5122 299c 64483304 		xorq	%fs:40, %rax
 5122      25280000 
 5122      00
 5123 29a5 0F85E901 		jne	.L792
 5123      0000
 5124 29ab 4881C4D8 		addq	$472, %rsp
 5124      010000
 5125              		.cfi_remember_state
 5126              		.cfi_def_cfa_offset 56
 5127 29b2 5B       		popq	%rbx
 5128              		.cfi_def_cfa_offset 48
 5129 29b3 5D       		popq	%rbp
 5130              		.cfi_def_cfa_offset 40
 5131 29b4 415C     		popq	%r12
 5132              		.cfi_def_cfa_offset 32
 5133 29b6 415D     		popq	%r13
 5134              		.cfi_def_cfa_offset 24
 5135 29b8 415E     		popq	%r14
 5136              		.cfi_def_cfa_offset 16
 5137 29ba 415F     		popq	%r15
 5138              		.cfi_def_cfa_offset 8
 5139 29bc C3       		ret
 5140 29bd 0F1F00   		.p2align 4,,10
 5141              		.p2align 3
 5142              	.L793:
 5143              		.cfi_restore_state
 5144 29c0 8B70F8   		movl	-8(%rax), %esi
 5145 29c3 448D46FF 		leal	-1(%rsi), %r8d
 5146 29c7 85F6     		testl	%esi, %esi
 5147 29c9 448940F8 		movl	%r8d, -8(%rax)
 5148 29cd 7F11     		jg	.L712
 5149 29cf 488D7424 		leaq	16(%rsp), %rsi
 5149      10
 5150 29d4 E8000000 		call	_ZNSs4_Rep10_M_destroyERKSaIcE
 5150      00
 5151 29d9 0F1F8000 		.p2align 4,,10
 5151      000000
 5152              		.p2align 3
 5153              	.L712:
 5154 29e0 4883C310 		addq	$16, %rbx
 5155 29e4 4939DF   		cmpq	%rbx, %r15
 5156 29e7 0F84ABFE 		je	.L715
 5156      FFFF
 5157              	.L714:
 5158 29ed 488B4308 		movq	8(%rbx), %rax
 5159 29f1 488D78E8 		leaq	-24(%rax), %rdi
 5160 29f5 4881FF00 		cmpq	$_ZNSs4_Rep20_S_empty_rep_storageE, %rdi
 5160      000000
 5161 29fc 74E2     		je	.L712
 5162 29fe EBC0     		jmp	.L793
 5163              		.p2align 4,,10
 5164              		.p2align 3
 5165              	.L790:
 5166 2a00 BA000000 		movl	$_ZL28__gthrw___pthread_key_createPjPFvPvE, %edx
 5166      00
 5167 2a05 4885D2   		testq	%rdx, %rdx
 5168 2a08 0F848700 		je	.L733
 5168      0000
 5169 2a0e BAFFFFFF 		movl	$-1, %edx
 5169      FF
 5170 2a13 F00FC150 		lock xaddl	%edx, -8(%rax)
 5170      F8
 5171 2a18 89D0     		movl	%edx, %eax
 5172              	.L734:
 5173 2a1a 85C0     		testl	%eax, %eax
 5174 2a1c 0F8FC5FE 		jg	.L732
 5174      FFFF
 5175 2a22 488D7424 		leaq	16(%rsp), %rsi
 5175      10
 5176 2a27 E8000000 		call	_ZNSs4_Rep10_M_destroyERKSaIcE
 5176      00
 5177 2a2c E9B6FEFF 		jmp	.L732
 5177      FF
 5178              		.p2align 4,,10
 5179 2a31 0F1F8000 		.p2align 3
 5179      000000
 5180              	.L789:
 5181 2a38 BA000000 		movl	$_ZL28__gthrw___pthread_key_createPjPFvPvE, %edx
 5181      00
 5182 2a3d 4885D2   		testq	%rdx, %rdx
 5183 2a40 7470     		je	.L728
 5184 2a42 BAFFFFFF 		movl	$-1, %edx
 5184      FF
 5185 2a47 F00FC150 		lock xaddl	%edx, -8(%rax)
 5185      F8
 5186 2a4c 89D0     		movl	%edx, %eax
 5187              	.L729:
 5188 2a4e 85C0     		testl	%eax, %eax
 5189 2a50 0F8F7DFE 		jg	.L727
 5189      FFFF
 5190 2a56 488D7424 		leaq	16(%rsp), %rsi
 5190      10
 5191 2a5b E8000000 		call	_ZNSs4_Rep10_M_destroyERKSaIcE
 5191      00
 5192 2a60 E96EFEFF 		jmp	.L727
 5192      FF
 5193              		.p2align 4,,10
 5194 2a65 0F1F00   		.p2align 3
 5195              	.L788:
 5196 2a68 BA000000 		movl	$_ZL28__gthrw___pthread_key_createPjPFvPvE, %edx
 5196      00
 5197 2a6d 4885D2   		testq	%rdx, %rdx
 5198 2a70 7433     		je	.L723
 5199 2a72 BAFFFFFF 		movl	$-1, %edx
 5199      FF
 5200 2a77 F00FC150 		lock xaddl	%edx, -8(%rax)
 5200      F8
 5201 2a7c 89D0     		movl	%edx, %eax
 5202              	.L724:
 5203 2a7e 85C0     		testl	%eax, %eax
 5204 2a80 0F8F38FE 		jg	.L722
 5204      FFFF
 5205 2a86 488D7424 		leaq	16(%rsp), %rsi
 5205      10
 5206 2a8b E8000000 		call	_ZNSs4_Rep10_M_destroyERKSaIcE
 5206      00
 5207 2a90 E929FEFF 		jmp	.L722
 5207      FF
 5208              	.L733:
 5209 2a95 8B50F8   		movl	-8(%rax), %edx
 5210 2a98 8D72FF   		leal	-1(%rdx), %esi
 5211 2a9b 8970F8   		movl	%esi, -8(%rax)
 5212 2a9e 89D0     		movl	%edx, %eax
 5213 2aa0 E975FFFF 		jmp	.L734
 5213      FF
 5214              	.L723:
 5215 2aa5 8B50F8   		movl	-8(%rax), %edx
 5216 2aa8 8D72FF   		leal	-1(%rdx), %esi
 5217 2aab 8970F8   		movl	%esi, -8(%rax)
 5218 2aae 89D0     		movl	%edx, %eax
 5219 2ab0 EBCC     		jmp	.L724
 5220              	.L728:
 5221 2ab2 8B50F8   		movl	-8(%rax), %edx
 5222 2ab5 8D72FF   		leal	-1(%rdx), %esi
 5223 2ab8 8970F8   		movl	%esi, -8(%rax)
 5224 2abb 89D0     		movl	%edx, %eax
 5225 2abd EB8F     		jmp	.L729
 5226              	.L791:
 5227 2abf BA000000 		movl	$_ZL28__gthrw___pthread_key_createPjPFvPvE, %edx
 5227      00
 5228 2ac4 4885D2   		testq	%rdx, %rdx
 5229 2ac7 7423     		je	.L740
 5230 2ac9 BAFFFFFF 		movl	$-1, %edx
 5230      FF
 5231 2ace F00FC150 		lock xaddl	%edx, -8(%rax)
 5231      F8
 5232 2ad3 89D0     		movl	%edx, %eax
 5233              	.L741:
 5234 2ad5 85C0     		testl	%eax, %eax
 5235 2ad7 0F8F74FE 		jg	.L739
 5235      FFFF
 5236 2add 488D7424 		leaq	16(%rsp), %rsi
 5236      10
 5237 2ae2 E8000000 		call	_ZNSs4_Rep10_M_destroyERKSaIcE
 5237      00
 5238 2ae7 E965FEFF 		jmp	.L739
 5238      FF
 5239              	.L740:
 5240 2aec 8B50F8   		movl	-8(%rax), %edx
 5241 2aef 8D4AFF   		leal	-1(%rdx), %ecx
 5242 2af2 8948F8   		movl	%ecx, -8(%rax)
 5243 2af5 89D0     		movl	%edx, %eax
 5244 2af7 EBDC     		jmp	.L741
 5245              	.L767:
 5246 2af9 488D7C24 		leaq	48(%rsp), %rdi
 5246      30
 5247 2afe 4889C3   		movq	%rax, %rbx
 5248 2b01 4889D5   		movq	%rdx, %rbp
 5249 2b04 E8000000 		call	_ZNSt19basic_ostringstreamIcSt11char_traitsIcESaIcEED1Ev
 5249      00
 5250 2b09 4889DF   		movq	%rbx, %rdi
 5251 2b0c 4889EA   		movq	%rbp, %rdx
 5252 2b0f BB010000 		movl	$1, %ebx
 5252      00
 5253              	.L704:
 5254 2b14 4883FA01 		cmpq	$1, %rdx
 5255 2b18 0F84E800 		je	.L749
 5255      0000
 5256 2b1e 4883FA02 		cmpq	$2, %rdx
 5257 2b22 0F859D00 		jne	.L794
 5257      0000
 5258 2b28 E8000000 		call	__cxa_begin_catch
 5258      00
 5259 2b2d 488D7C24 		leaq	48(%rsp), %rdi
 5259      30
 5260 2b32 4889C3   		movq	%rax, %rbx
 5261              	.LEHB129:
 5262 2b35 E8000000 		call	_ZN8UnitTest15MemoryOutStreamC1Ev
 5262      00
 5263              	.LEHE129:
 5264 2b3a 488B03   		movq	(%rbx), %rax
 5265 2b3d 4889DF   		movq	%rbx, %rdi
 5266 2b40 FF5010   		call	*16(%rax)
 5267 2b43 488D7C24 		leaq	48(%rsp), %rdi
 5267      30
 5268 2b48 BE000000 		movl	$.LC32, %esi
 5268      00
 5269 2b4d 4889C3   		movq	%rax, %rbx
 5270              	.LEHB130:
 5271 2b50 E8000000 		call	_ZStlsISt11char_traitsIcEERSt13basic_ostreamIcT_ES5_PKc
 5271      00
 5272 2b55 4889C7   		movq	%rax, %rdi
 5273 2b58 4889DE   		movq	%rbx, %rsi
 5274 2b5b E8000000 		call	_ZStlsISt11char_traitsIcEERSt13basic_ostreamIcT_ES5_PKc
 5274      00
 5275 2b60 488D7C24 		leaq	48(%rsp), %rdi
 5275      30
 5276 2b65 E8000000 		call	_ZNK8UnitTest15MemoryOutStream7GetTextEv
 5276      00
 5277 2b6a 4889C3   		movq	%rax, %rbx
 5278 2b6d E8000000 		call	_ZN8UnitTest11CurrentTest7ResultsEv
 5278      00
 5279 2b72 488B38   		movq	(%rax), %rdi
 5280 2b75 4889DA   		movq	%rbx, %rdx
 5281 2b78 4C89EE   		movq	%r13, %rsi
 5282 2b7b E8000000 		call	_ZN8UnitTest11TestResults13OnTestFailureERKNS_11TestDetailsEPKc
 5282      00
 5283              	.LEHE130:
 5284 2b80 488D7C24 		leaq	48(%rsp), %rdi
 5284      30
 5285              	.LEHB131:
 5286 2b85 E8000000 		call	_ZN8UnitTest15MemoryOutStreamD1Ev
 5286      00
 5287              	.LEHE131:
 5288              	.L782:
 5289 2b8a E8000000 		call	__cxa_end_catch
 5289      00
 5290 2b8f E900FEFF 		jmp	.L700
 5290      FF
 5291              	.L792:
 5292 2b94 E8000000 		call	__stack_chk_fail
 5292      00
 5293              	.L758:
 5294 2b99 4889C7   		movq	%rax, %rdi
 5295 2b9c BB010000 		movl	$1, %ebx
 5295      00
 5296 2ba1 E96EFFFF 		jmp	.L704
 5296      FF
 5297              	.L762:
 5298 2ba6 488D7C24 		leaq	48(%rsp), %rdi
 5298      30
 5299 2bab 4889C3   		movq	%rax, %rbx
 5300 2bae E8000000 		call	_ZN8UnitTest15MemoryOutStreamD1Ev
 5300      00
 5301              	.L753:
 5302 2bb3 E8000000 		call	__cxa_end_catch
 5302      00
 5303 2bb8 4889DF   		movq	%rbx, %rdi
 5304              	.LEHB132:
 5305 2bbb E8000000 		call	_Unwind_Resume
 5305      00
 5306              	.LEHE132:
 5307              	.L761:
 5308              	.L783:
 5309 2bc0 4889C3   		movq	%rax, %rbx
 5310 2bc3 EBEE     		jmp	.L753
 5311              	.L794:
 5312 2bc5 E8000000 		call	__cxa_begin_catch
 5312      00
 5313 2bca 84DB     		testb	%bl, %bl
 5314 2bcc 488D5C24 		leaq	16(%rsp), %rbx
 5314      10
 5315 2bd1 BA870000 		movl	$135, %edx
 5315      00
 5316 2bd6 4C89EE   		movq	%r13, %rsi
 5317 2bd9 4889DF   		movq	%rbx, %rdi
 5318 2bdc 0F849300 		je	.L755
 5318      0000
 5319              	.LEHB133:
 5320 2be2 E8000000 		call	_ZN8UnitTest11TestDetailsC1ERKS0_i
 5320      00
 5321 2be7 E8000000 		call	_ZN8UnitTest11CurrentTest7ResultsEv
 5321      00
 5322 2bec 488B38   		movq	(%rax), %rdi
 5323 2bef BA000000 		movl	$.LC36, %edx
 5323      00
 5324 2bf4 4889DE   		movq	%rbx, %rsi
 5325 2bf7 E8000000 		call	_ZN8UnitTest11TestResults13OnTestFailureERKNS_11TestDetailsEPKc
 5325      00
 5326              	.LEHE133:
 5327              	.L756:
 5328              	.LEHB134:
 5329 2bfc E8000000 		call	__cxa_end_catch
 5329      00
 5330              	.LEHE134:
 5331 2c01 E98EFDFF 		jmp	.L700
 5331      FF
 5332              	.L749:
 5333 2c06 E8000000 		call	__cxa_begin_catch
 5333      00
 5334 2c0b 4889C3   		movq	%rax, %rbx
 5335 2c0e 488B00   		movq	(%rax), %rax
 5336 2c11 4889DF   		movq	%rbx, %rdi
 5337 2c14 FF5010   		call	*16(%rax)
 5338 2c17 4889DF   		movq	%rbx, %rdi
 5339 2c1a 4889C5   		movq	%rax, %rbp
 5340              	.LEHB135:
 5341 2c1d E8000000 		call	_ZNK8UnitTest15AssertException10LineNumberEv
 5341      00
 5342 2c22 4889DF   		movq	%rbx, %rdi
 5343 2c25 4189C4   		movl	%eax, %r12d
 5344 2c28 E8000000 		call	_ZNK8UnitTest15AssertException8FilenameEv
 5344      00
 5345 2c2d 488B4C24 		movq	8(%rsp), %rcx
 5345      08
 5346 2c32 488D5C24 		leaq	16(%rsp), %rbx
 5346      10
 5347 2c37 4589E0   		movl	%r12d, %r8d
 5348 2c3a 4889DF   		movq	%rbx, %rdi
 5349 2c3d 488B5108 		movq	8(%rcx), %rdx
 5350 2c41 488B7110 		movq	16(%rcx), %rsi
 5351 2c45 4889C1   		movq	%rax, %rcx
 5352 2c48 E8000000 		call	_ZN8UnitTest11TestDetailsC1EPKcS2_S2_i
 5352      00
 5353 2c4d E8000000 		call	_ZN8UnitTest11CurrentTest7ResultsEv
 5353      00
 5354 2c52 488B38   		movq	(%rax), %rdi
 5355 2c55 4889EA   		movq	%rbp, %rdx
 5356 2c58 4889DE   		movq	%rbx, %rsi
 5357 2c5b E8000000 		call	_ZN8UnitTest11TestResults13OnTestFailureERKNS_11TestDetailsEPKc
 5357      00
 5358              	.LEHE135:
 5359 2c60 E925FFFF 		jmp	.L782
 5359      FF
 5360              	.L763:
 5361 2c65 4889C3   		movq	%rax, %rbx
 5362 2c68 E8000000 		call	__cxa_end_catch
 5362      00
 5363 2c6d 4889DF   		movq	%rbx, %rdi
 5364              	.LEHB136:
 5365 2c70 E8000000 		call	_Unwind_Resume
 5365      00
 5366              	.LEHE136:
 5367              	.L755:
 5368              	.LEHB137:
 5369 2c75 E8000000 		call	_ZN8UnitTest11TestDetailsC1ERKS0_i
 5369      00
 5370 2c7a E8000000 		call	_ZN8UnitTest11CurrentTest7ResultsEv
 5370      00
 5371 2c7f 488B38   		movq	(%rax), %rdi
 5372 2c82 BA000000 		movl	$.LC37, %edx
 5372      00
 5373 2c87 4889DE   		movq	%rbx, %rsi
 5374 2c8a E8000000 		call	_ZN8UnitTest11TestResults13OnTestFailureERKNS_11TestDetailsEPKc
 5374      00
 5375              	.LEHE137:
 5376 2c8f E968FFFF 		jmp	.L756
 5376      FF
 5377              	.L760:
 5378 2c94 E927FFFF 		jmp	.L783
 5378      FF
 5379              	.L759:
 5380 2c99 488D7C24 		leaq	48(%rsp), %rdi
 5380      30
 5381 2c9e 4889C3   		movq	%rax, %rbx
 5382 2ca1 4889D5   		movq	%rdx, %rbp
 5383 2ca4 E8000000 		call	_ZN12_GLOBAL__N_122XmlTestReporterFixtureD2Ev
 5383      00
 5384 2ca9 4889DF   		movq	%rbx, %rdi
 5385 2cac 4889EA   		movq	%rbp, %rdx
 5386 2caf BB010000 		movl	$1, %ebx
 5386      00
 5387 2cb4 E95BFEFF 		jmp	.L704
 5387      FF
 5388              	.L764:
 5389 2cb9 488D7C24 		leaq	48(%rsp), %rdi
 5389      30
 5390 2cbe 4889C3   		movq	%rax, %rbx
 5391 2cc1 4889D5   		movq	%rdx, %rbp
 5392 2cc4 E8000000 		call	_ZNSt19basic_ostringstreamIcSt11char_traitsIcESaIcEED1Ev
 5392      00
 5393 2cc9 4889DF   		movq	%rbx, %rdi
 5394 2ccc 4889EA   		movq	%rbp, %rdx
 5395 2ccf 31DB     		xorl	%ebx, %ebx
 5396 2cd1 E93EFEFF 		jmp	.L704
 5396      FF
 5397              	.L766:
 5398 2cd6 488D7C24 		leaq	56(%rsp), %rdi
 5398      38
 5399 2cdb 4889C3   		movq	%rax, %rbx
 5400 2cde 4889D5   		movq	%rdx, %rbp
 5401 2ce1 E8000000 		call	_ZNSt15basic_stringbufIcSt11char_traitsIcESaIcEED1Ev
 5401      00
 5402 2ce6 498B4424 		movq	-24(%r12), %rax
 5402      E8
 5403 2ceb 488B0D00 		movq	_ZTTSt19basic_ostringstreamIcSt11char_traitsIcESaIcEE+16(%rip), %rcx
 5403      000000
 5404 2cf2 4C896424 		movq	%r12, 48(%rsp)
 5404      30
 5405 2cf7 48894C04 		movq	%rcx, 48(%rsp,%rax)
 5405      30
 5406              	.L703:
 5407 2cfc 488DBC24 		leaq	136(%rsp), %rdi
 5407      88000000 
 5408 2d04 48C78424 		movq	$_ZTVSt9basic_iosIcSt11char_traitsIcEE+16, 136(%rsp)
 5408      88000000 
 5408      00000000 
 5409 2d10 E8000000 		call	_ZNSt8ios_baseD2Ev
 5409      00
 5410 2d15 4889DF   		movq	%rbx, %rdi
 5411 2d18 4889EA   		movq	%rbp, %rdx
 5412 2d1b 31DB     		xorl	%ebx, %ebx
 5413 2d1d E9F2FDFF 		jmp	.L704
 5413      FF
 5414              	.L765:
 5415 2d22 4889C3   		movq	%rax, %rbx
 5416 2d25 4889D5   		movq	%rdx, %rbp
 5417 2d28 EBD2     		jmp	.L703
 5418              		.cfi_endproc
 5419              	.LFE1441:
 5420              		.section	.gcc_except_table
 5421              		.align 4
 5422              	.LLSDA1441:
 5423 0354 FF       		.byte	0xff
 5424 0355 03       		.byte	0x3
 5425 0356 6D       		.uleb128 .LLSDATT1441-.LLSDATTD1441
 5426              	.LLSDATTD1441:
 5427 0357 01       		.byte	0x1
 5428 0358 57       		.uleb128 .LLSDACSE1441-.LLSDACSB1441
 5429              	.LLSDACSB1441:
 5430 0359 B401     		.uleb128 .LEHB123-.LFB1441
 5431 035b 05       		.uleb128 .LEHE123-.LEHB123
 5432 035c 820D     		.uleb128 .L765-.LFB1441
 5433 035e 07       		.uleb128 0x7
 5434 035f C202     		.uleb128 .LEHB124-.LFB1441
 5435 0361 05       		.uleb128 .LEHE124-.LEHB124
 5436 0362 B60C     		.uleb128 .L766-.LFB1441
 5437 0364 07       		.uleb128 0x7
 5438 0365 D602     		.uleb128 .LEHB125-.LFB1441
 5439 0367 05       		.uleb128 .LEHE125-.LEHB125
 5440 0368 990C     		.uleb128 .L764-.LFB1441
 5441 036a 07       		.uleb128 0x7
 5442 036b EB02     		.uleb128 .LEHB126-.LFB1441
 5443 036d 05       		.uleb128 .LEHE126-.LEHB126
 5444 036e F90B     		.uleb128 .L759-.LFB1441
 5445 0370 07       		.uleb128 0x7
 5446 0371 F504     		.uleb128 .LEHB127-.LFB1441
 5447 0373 05       		.uleb128 .LEHE127-.LEHB127
 5448 0374 D908     		.uleb128 .L767-.LFB1441
 5449 0376 07       		.uleb128 0x7
 5450 0377 EF05     		.uleb128 .LEHB128-.LFB1441
 5451 0379 05       		.uleb128 .LEHE128-.LEHB128
 5452 037a F909     		.uleb128 .L758-.LFB1441
 5453 037c 05       		.uleb128 0x5
 5454 037d 9509     		.uleb128 .LEHB129-.LFB1441
 5455 037f 05       		.uleb128 .LEHE129-.LEHB129
 5456 0380 A00A     		.uleb128 .L761-.LFB1441
 5457 0382 00       		.uleb128 0
 5458 0383 B009     		.uleb128 .LEHB130-.LFB1441
 5459 0385 30       		.uleb128 .LEHE130-.LEHB130
 5460 0386 860A     		.uleb128 .L762-.LFB1441
 5461 0388 00       		.uleb128 0
 5462 0389 E509     		.uleb128 .LEHB131-.LFB1441
 5463 038b 05       		.uleb128 .LEHE131-.LEHB131
 5464 038c A00A     		.uleb128 .L761-.LFB1441
 5465 038e 00       		.uleb128 0
 5466 038f 9B0A     		.uleb128 .LEHB132-.LFB1441
 5467 0391 05       		.uleb128 .LEHE132-.LEHB132
 5468 0392 00       		.uleb128 0
 5469 0393 00       		.uleb128 0
 5470 0394 C20A     		.uleb128 .LEHB133-.LFB1441
 5471 0396 1A       		.uleb128 .LEHE133-.LEHB133
 5472 0397 C50B     		.uleb128 .L763-.LFB1441
 5473 0399 00       		.uleb128 0
 5474 039a DC0A     		.uleb128 .LEHB134-.LFB1441
 5475 039c 05       		.uleb128 .LEHE134-.LEHB134
 5476 039d 00       		.uleb128 0
 5477 039e 00       		.uleb128 0
 5478 039f FD0A     		.uleb128 .LEHB135-.LFB1441
 5479 03a1 43       		.uleb128 .LEHE135-.LEHB135
 5480 03a2 F40B     		.uleb128 .L760-.LFB1441
 5481 03a4 00       		.uleb128 0
 5482 03a5 D00B     		.uleb128 .LEHB136-.LFB1441
 5483 03a7 05       		.uleb128 .LEHE136-.LEHB136
 5484 03a8 00       		.uleb128 0
 5485 03a9 00       		.uleb128 0
 5486 03aa D50B     		.uleb128 .LEHB137-.LFB1441
 5487 03ac 1A       		.uleb128 .LEHE137-.LEHB137
 5488 03ad C50B     		.uleb128 .L763-.LFB1441
 5489 03af 00       		.uleb128 0
 5490              	.LLSDACSE1441:
 5491 03b0 03       		.byte	0x3
 5492 03b1 00       		.byte	0
 5493 03b2 02       		.byte	0x2
 5494 03b3 7D       		.byte	0x7d
 5495 03b4 01       		.byte	0x1
 5496 03b5 7D       		.byte	0x7d
 5497 03b6 00       		.byte	0
 5498 03b7 7D       		.byte	0x7d
 5499              		.align 4
 5500 03b8 00000000 		.long	0
 5501              	
 5502 03bc 00000000 		.long	_ZTISt9exception
 5503 03c0 00000000 		.long	_ZTIN8UnitTest15AssertExceptionE
 5504              	.LLSDATT1441:
 5505              		.text
 5507              		.section	.text.unlikely
 5508              	.LCOLDE57:
 5509              		.text
 5510              	.LHOTE57:
 5511              		.section	.rodata.str1.1
 5512              	.LC58:
 5513 00e9 66696C65 		.string	"filename.h"
 5513      6E616D65 
 5513      2E6800
 5514              	.LC59:
 5515 00f4 54657374 		.string	"TestName"
 5515      4E616D65 
 5515      00
 5516              	.LC60:
 5517 00fd 2227263C 		.string	"\"'&<>"
 5517      3E00
 5518              		.section	.rodata.str1.8
 5519 0395 000000   		.align 8
 5520              	.LC61:
 5521 0398 3C3F786D 		.string	"<?xml version=\"1.0\"?><unittest-results tests=\"1\" failedtests=\"1\" failures=\"1\" tim
 5521      6C207665 
 5521      7273696F 
 5521      6E3D2231 
 5521      2E30223F 
 5522              		.section	.text.unlikely
 5523              	.LCOLDB62:
 5524              		.text
 5525              	.LHOTB62:
 5526 2d2a 660F1F44 		.p2align 4,,15
 5526      0000
 5528              	_ZN8UnitTest11ExecuteTestIN12_GLOBAL__N_154XmlTestReporterFixtureFailureMessageIsXMLEscapedHelperEE
 5529              	.LFB1495:
 5530              		.cfi_startproc
 5531              		.cfi_personality 0x3,__gxx_personality_v0
 5532              		.cfi_lsda 0x3,.LLSDA1495
 5533 2d30 4154     		pushq	%r12
 5534              		.cfi_def_cfa_offset 16
 5535              		.cfi_offset 12, -16
 5536 2d32 55       		pushq	%rbp
 5537              		.cfi_def_cfa_offset 24
 5538              		.cfi_offset 6, -24
 5539 2d33 53       		pushq	%rbx
 5540              		.cfi_def_cfa_offset 32
 5541              		.cfi_offset 3, -32
 5542 2d34 4889F3   		movq	%rsi, %rbx
 5543 2d37 4881ECB0 		subq	$1712, %rsp
 5543      060000
 5544              		.cfi_def_cfa_offset 1744
 5545 2d3e 48893C24 		movq	%rdi, (%rsp)
 5546 2d42 48897424 		movq	%rsi, 8(%rsp)
 5546      08
 5547 2d47 64488B04 		movq	%fs:40, %rax
 5547      25280000 
 5547      00
 5548 2d50 48898424 		movq	%rax, 1704(%rsp)
 5548      A8060000 
 5549 2d58 31C0     		xorl	%eax, %eax
 5550              	.LEHB138:
 5551 2d5a E8000000 		call	_ZN8UnitTest11CurrentTest7DetailsEv
 5551      00
 5552              	.LEHE138:
 5553 2d5f 488DBC24 		leaq	576(%rsp), %rdi
 5553      40020000 
 5554 2d67 488918   		movq	%rbx, (%rax)
 5555              	.LEHB139:
 5556 2d6a E8000000 		call	_ZN8UnitTest16SignalTranslatorC1Ev
 5556      00
 5557              	.LEHE139:
 5558 2d6f 488B3D00 		movq	_ZN8UnitTest16SignalTranslator12s_jumpTargetE(%rip), %rdi
 5558      000000
 5559 2d76 BE010000 		movl	$1, %esi
 5559      00
 5560 2d7b E8000000 		call	__sigsetjmp
 5560      00
 5561 2d80 85C0     		testl	%eax, %eax
 5562 2d82 0F85E800 		jne	.L880
 5562      0000
 5563 2d88 488D7C24 		leaq	112(%rsp), %rdi
 5563      70
 5564 2d8d 41B8E110 		movl	$4321, %r8d
 5564      0000
 5565 2d93 B9000000 		movl	$.LC58, %ecx
 5565      00
 5566 2d98 BA000000 		movl	$.LC44, %edx
 5566      00
 5567 2d9d BE000000 		movl	$.LC59, %esi
 5567      00
 5568              	.LEHB140:
 5569 2da2 E8000000 		call	_ZN8UnitTest11TestDetailsC1EPKcS2_S2_i
 5569      00
 5570 2da7 488B2C24 		movq	(%rsp), %rbp
 5571 2dab 488D7424 		leaq	112(%rsp), %rsi
 5571      70
 5572 2db0 488D9D60 		leaq	352(%rbp), %rbx
 5572      010000
 5573 2db7 4889DF   		movq	%rbx, %rdi
 5574 2dba E8000000 		call	_ZN8UnitTest20DeferredTestReporter15ReportTestStartERKNS_11TestDetailsE
 5574      00
 5575 2dbf 488D7424 		leaq	112(%rsp), %rsi
 5575      70
 5576 2dc4 BA000000 		movl	$.LC60, %edx
 5576      00
 5577 2dc9 4889DF   		movq	%rbx, %rdi
 5578 2dcc E8000000 		call	_ZN8UnitTest20DeferredTestReporter13ReportFailureERKNS_11TestDetailsEPKc
 5578      00
 5579 2dd1 488D7424 		leaq	112(%rsp), %rsi
 5579      70
 5580 2dd6 F30F1005 		movss	.LC48(%rip), %xmm0
 5580      00000000 
 5581 2dde 4889DF   		movq	%rbx, %rdi
 5582 2de1 E8000000 		call	_ZN8UnitTest20DeferredTestReporter16ReportTestFinishERKNS_11TestDetailsEf
 5582      00
 5583 2de6 F30F1005 		movss	.LC48(%rip), %xmm0
 5583      00000000 
 5584 2dee B9010000 		movl	$1, %ecx
 5584      00
 5585 2df3 BA010000 		movl	$1, %edx
 5585      00
 5586 2df8 BE010000 		movl	$1, %esi
 5586      00
 5587 2dfd 4889DF   		movq	%rbx, %rdi
 5588 2e00 E8000000 		call	_ZN8UnitTest15XmlTestReporter13ReportSummaryEiiif
 5588      00
 5589              	.LEHE140:
 5590 2e05 48C74424 		movq	$.LC61, 72(%rsp)
 5590      48000000 
 5590      00
 5591              	.LEHB141:
 5592 2e0e E8000000 		call	_ZN8UnitTest11CurrentTest7DetailsEv
 5592      00
 5593 2e13 488B30   		movq	(%rax), %rsi
 5594 2e16 488DBC24 		leaq	176(%rsp), %rdi
 5594      B0000000 
 5595 2e1e BA840000 		movl	$132, %edx
 5595      00
 5596 2e23 E8000000 		call	_ZN8UnitTest11TestDetailsC1ERKS0_i
 5596      00
 5597              	.LEHE141:
 5598 2e28 488B4530 		movq	48(%rbp), %rax
 5599 2e2c 48C74424 		movq	$_ZNSs4_Rep20_S_empty_rep_storageE+24, 32(%rsp)
 5599      20000000 
 5599      00
 5600 2e35 4885C0   		testq	%rax, %rax
 5601 2e38 0F843202 		je	.L798
 5601      0000
 5602 2e3e 488B7D20 		movq	32(%rbp), %rdi
 5603 2e42 4839F8   		cmpq	%rdi, %rax
 5604 2e45 7649     		jbe	.L799
 5605 2e47 488B0C24 		movq	(%rsp), %rcx
 5606 2e4b 488B6928 		movq	40(%rcx), %rbp
 5607 2e4f 4839E8   		cmpq	%rbp, %rax
 5608 2e52 0F84B001 		je	.L854
 5608      0000
 5609 2e58 4885ED   		testq	%rbp, %rbp
 5610 2e5b 0F858F02 		jne	.L881
 5610      0000
 5611 2e61 BF000000 		movl	$.LC34, %edi
 5611      00
 5612              	.LEHB142:
 5613 2e66 E8000000 		call	_ZSt19__throw_logic_errorPKc
 5613      00
 5614              	.LEHE142:
 5615 2e6b 0F1F4400 		.p2align 4,,10
 5615      00
 5616              		.p2align 3
 5617              	.L880:
 5618 2e70 BF080000 		movl	$8, %edi
 5618      00
 5619 2e75 E8000000 		call	__cxa_allocate_exception
 5619      00
 5620 2e7a 31D2     		xorl	%edx, %edx
 5621 2e7c 48C70000 		movq	$.LC24, (%rax)
 5621      000000
 5622 2e83 BE000000 		movl	$_ZTIPKc, %esi
 5622      00
 5623 2e88 4889C7   		movq	%rax, %rdi
 5624              	.LEHB143:
 5625 2e8b E8000000 		call	__cxa_throw
 5625      00
 5626              	.LEHE143:
 5627              		.p2align 4,,10
 5628              		.p2align 3
 5629              	.L799:
 5630 2e90 488B0424 		movq	(%rsp), %rax
 5631 2e94 488B6828 		movq	40(%rax), %rbp
 5632 2e98 4839EF   		cmpq	%rbp, %rdi
 5633 2e9b 0F84E700 		je	.L855
 5633      0000
 5634 2ea1 4885ED   		testq	%rbp, %rbp
 5635 2ea4 0F859602 		jne	.L813
 5635      0000
 5636 2eaa 4885FF   		testq	%rdi, %rdi
 5637 2ead 0F848D02 		je	.L813
 5637      0000
 5638 2eb3 BF000000 		movl	$.LC34, %edi
 5638      00
 5639              	.LEHB144:
 5640 2eb8 E8000000 		call	_ZSt19__throw_logic_errorPKc
 5640      00
 5641              	.LEHE144:
 5642              	.L857:
 5643 2ebd 4889C3   		movq	%rax, %rbx
 5644 2ec0 4889D5   		movq	%rdx, %rbp
 5645              	.L840:
 5646 2ec3 488DBC24 		leaq	576(%rsp), %rdi
 5646      40020000 
 5647 2ecb E8000000 		call	_ZN8UnitTest16SignalTranslatorD1Ev
 5647      00
 5648 2ed0 4889DF   		movq	%rbx, %rdi
 5649 2ed3 4889EA   		movq	%rbp, %rdx
 5650              	.L841:
 5651 2ed6 4883FA01 		cmpq	$1, %rdx
 5652 2eda 0F845404 		je	.L843
 5652      0000
 5653 2ee0 4883FA02 		cmpq	$2, %rdx
 5654 2ee4 0F852404 		jne	.L882
 5654      0000
 5655 2eea E8000000 		call	__cxa_begin_catch
 5655      00
 5656 2eef 488DBC24 		leaq	208(%rsp), %rdi
 5656      D0000000 
 5657 2ef7 4889C3   		movq	%rax, %rbx
 5658              	.LEHB145:
 5659 2efa E8000000 		call	_ZN8UnitTest15MemoryOutStreamC1Ev
 5659      00
 5660              	.LEHE145:
 5661 2eff 488B03   		movq	(%rbx), %rax
 5662 2f02 4889DF   		movq	%rbx, %rdi
 5663 2f05 FF5010   		call	*16(%rax)
 5664 2f08 488DBC24 		leaq	208(%rsp), %rdi
 5664      D0000000 
 5665 2f10 BE000000 		movl	$.LC32, %esi
 5665      00
 5666 2f15 4889C3   		movq	%rax, %rbx
 5667              	.LEHB146:
 5668 2f18 E8000000 		call	_ZStlsISt11char_traitsIcEERSt13basic_ostreamIcT_ES5_PKc
 5668      00
 5669 2f1d 4889C7   		movq	%rax, %rdi
 5670 2f20 4889DE   		movq	%rbx, %rsi
 5671 2f23 E8000000 		call	_ZStlsISt11char_traitsIcEERSt13basic_ostreamIcT_ES5_PKc
 5671      00
 5672 2f28 488DBC24 		leaq	208(%rsp), %rdi
 5672      D0000000 
 5673 2f30 E8000000 		call	_ZNK8UnitTest15MemoryOutStream7GetTextEv
 5673      00
 5674 2f35 4889C3   		movq	%rax, %rbx
 5675 2f38 E8000000 		call	_ZN8UnitTest11CurrentTest7ResultsEv
 5675      00
 5676 2f3d 488B7424 		movq	8(%rsp), %rsi
 5676      08
 5677 2f42 488B38   		movq	(%rax), %rdi
 5678 2f45 4889DA   		movq	%rbx, %rdx
 5679 2f48 E8000000 		call	_ZN8UnitTest11TestResults13OnTestFailureERKNS_11TestDetailsEPKc
 5679      00
 5680              	.LEHE146:
 5681 2f4d 488DBC24 		leaq	208(%rsp), %rdi
 5681      D0000000 
 5682              	.LEHB147:
 5683 2f55 E8000000 		call	_ZN8UnitTest15MemoryOutStreamD1Ev
 5683      00
 5684              	.LEHE147:
 5685              	.L874:
 5686 2f5a E8000000 		call	__cxa_end_catch
 5686      00
 5687 2f5f 90       		.p2align 4,,10
 5688              		.p2align 3
 5689              	.L795:
 5690 2f60 488B8424 		movq	1704(%rsp), %rax
 5690      A8060000 
 5691 2f68 64483304 		xorq	%fs:40, %rax
 5691      25280000 
 5691      00
 5692 2f71 0F85DB02 		jne	.L883
 5692      0000
 5693 2f77 4881C4B0 		addq	$1712, %rsp
 5693      060000
 5694              		.cfi_remember_state
 5695              		.cfi_def_cfa_offset 32
 5696 2f7e 5B       		popq	%rbx
 5697              		.cfi_def_cfa_offset 24
 5698 2f7f 5D       		popq	%rbp
 5699              		.cfi_def_cfa_offset 16
 5700 2f80 415C     		popq	%r12
 5701              		.cfi_def_cfa_offset 8
 5702 2f82 C3       		ret
 5703              		.p2align 4,,10
 5704 2f83 0F1F4400 		.p2align 3
 5704      00
 5705              	.L855:
 5706              		.cfi_restore_state
 5707 2f88 B9000000 		movl	$_ZNSs4_Rep20_S_empty_rep_storageE+24, %ecx
 5707      00
 5708 2f8d 0F1F00   		.p2align 4,,10
 5709              		.p2align 3
 5710              	.L810:
 5711 2f90 488D7424 		leaq	48(%rsp), %rsi
 5711      30
 5712 2f95 488D7C24 		leaq	32(%rsp), %rdi
 5712      20
 5713 2f9a 48894C24 		movq	%rcx, 48(%rsp)
 5713      30
 5714              	.LEHB148:
 5715 2f9f E8000000 		call	_ZNSs6assignERKSs
 5715      00
 5716              	.LEHE148:
 5717 2fa4 488B4424 		movq	48(%rsp), %rax
 5717      30
 5718 2fa9 488D78E8 		leaq	-24(%rax), %rdi
 5719 2fad 4881FF00 		cmpq	$_ZNSs4_Rep20_S_empty_rep_storageE, %rdi
 5719      000000
 5720 2fb4 0F853E02 		jne	.L884
 5720      0000
 5721              	.L806:
 5722              	.LEHB149:
 5723 2fba E8000000 		call	_ZN8UnitTest11CurrentTest7ResultsEv
 5723      00
 5724 2fbf 488B38   		movq	(%rax), %rdi
 5725 2fc2 488D8C24 		leaq	176(%rsp), %rcx
 5725      B0000000 
 5726 2fca 488D5424 		leaq	32(%rsp), %rdx
 5726      20
 5727 2fcf 488D7424 		leaq	72(%rsp), %rsi
 5727      48
 5728 2fd4 E8000000 		call	_ZN8UnitTest10CheckEqualIPKcSsEEvRNS_11TestResultsERKT_RKT0_RKNS_11TestDetailsE
 5728      00
 5729              	.LEHE149:
 5730 2fd9 488B4424 		movq	32(%rsp), %rax
 5730      20
 5731 2fde 488D78E8 		leaq	-24(%rax), %rdi
 5732 2fe2 4881FF00 		cmpq	$_ZNSs4_Rep20_S_empty_rep_storageE, %rdi
 5732      000000
 5733 2fe9 0F85D901 		jne	.L885
 5733      0000
 5734              	.L831:
 5735 2fef 488DBC24 		leaq	576(%rsp), %rdi
 5735      40020000 
 5736              	.LEHB150:
 5737 2ff7 E8000000 		call	_ZN8UnitTest16SignalTranslatorD1Ev
 5737      00
 5738              	.LEHE150:
 5739 2ffc E95FFFFF 		jmp	.L795
 5739      FF
 5740              		.p2align 4,,10
 5741 3001 0F1F8000 		.p2align 3
 5741      000000
 5742              	.L854:
 5743 3008 B9000000 		movl	$_ZNSs4_Rep20_S_empty_rep_storageE+24, %ecx
 5743      00
 5744 300d 0F1F00   		.p2align 4,,10
 5745              		.p2align 3
 5746              	.L800:
 5747 3010 488D7424 		leaq	64(%rsp), %rsi
 5747      40
 5748 3015 488D7C24 		leaq	32(%rsp), %rdi
 5748      20
 5749 301a 48894C24 		movq	%rcx, 64(%rsp)
 5749      40
 5750              	.LEHB151:
 5751 301f E8000000 		call	_ZNSs6assignERKSs
 5751      00
 5752              	.LEHE151:
 5753 3024 488B4424 		movq	64(%rsp), %rax
 5753      40
 5754 3029 488D78E8 		leaq	-24(%rax), %rdi
 5755 302d 4881FF00 		cmpq	$_ZNSs4_Rep20_S_empty_rep_storageE, %rdi
 5755      000000
 5756 3034 7484     		je	.L806
 5757 3036 BA000000 		movl	$_ZL28__gthrw___pthread_key_createPjPFvPvE, %edx
 5757      00
 5758 303b 4885D2   		testq	%rdx, %rdx
 5759 303e 0F84F101 		je	.L807
 5759      0000
 5760 3044 BAFFFFFF 		movl	$-1, %edx
 5760      FF
 5761 3049 F00FC150 		lock xaddl	%edx, -8(%rax)
 5761      F8
 5762 304e 89D0     		movl	%edx, %eax
 5763              	.L808:
 5764 3050 85C0     		testl	%eax, %eax
 5765 3052 0F8F62FF 		jg	.L806
 5765      FFFF
 5766 3058 488D7424 		leaq	29(%rsp), %rsi
 5766      1D
 5767 305d E8000000 		call	_ZNSs4_Rep10_M_destroyERKSaIcE
 5767      00
 5768 3062 E953FFFF 		jmp	.L806
 5768      FF
 5769 3067 660F1F84 		.p2align 4,,10
 5769      00000000 
 5769      00
 5770              		.p2align 3
 5771              	.L798:
 5772 3070 488B3424 		movq	(%rsp), %rsi
 5773 3074 488D7C24 		leaq	32(%rsp), %rdi
 5773      20
 5774 3079 4883C650 		addq	$80, %rsi
 5775              	.LEHB152:
 5776 307d E8000000 		call	_ZNSs6assignERKSs
 5776      00
 5777              	.LEHE152:
 5778 3082 E933FFFF 		jmp	.L806
 5778      FF
 5779              	.L865:
 5780 3087 4889C3   		movq	%rax, %rbx
 5781              	.L822:
 5782 308a 488B4424 		movq	32(%rsp), %rax
 5782      20
 5783 308f 488D78E8 		leaq	-24(%rax), %rdi
 5784 3093 4881FF00 		cmpq	$_ZNSs4_Rep20_S_empty_rep_storageE, %rdi
 5784      000000
 5785 309a 740A     		je	.L838
 5786 309c 488D7424 		leaq	25(%rsp), %rsi
 5786      19
 5787 30a1 E8000000 		call	_ZNSs4_Rep10_M_disposeERKSaIcE.part.5
 5787      00
 5788              	.L838:
 5789 30a6 4889D8   		movq	%rbx, %rax
 5790              	.L828:
 5791 30a9 4889C7   		movq	%rax, %rdi
 5792 30ac E8000000 		call	__cxa_begin_catch
 5792      00
 5793              	.LEHB153:
 5794 30b1 E8000000 		call	_ZN8UnitTest11CurrentTest7DetailsEv
 5794      00
 5795 30b6 488B30   		movq	(%rax), %rsi
 5796 30b9 488DBC24 		leaq	144(%rsp), %rdi
 5796      90000000 
 5797 30c1 BA840000 		movl	$132, %edx
 5797      00
 5798 30c6 E8000000 		call	_ZN8UnitTest11TestDetailsC1ERKS0_i
 5798      00
 5799 30cb E8000000 		call	_ZN8UnitTest11CurrentTest7ResultsEv
 5799      00
 5800 30d0 488B38   		movq	(%rax), %rdi
 5801 30d3 488DB424 		leaq	144(%rsp), %rsi
 5801      90000000 
 5802 30db BA000000 		movl	$.LC51, %edx
 5802      00
 5803 30e0 E8000000 		call	_ZN8UnitTest11TestResults13OnTestFailureERKNS_11TestDetailsEPKc
 5803      00
 5804              	.LEHE153:
 5805              	.LEHB154:
 5806 30e5 E8000000 		call	__cxa_end_catch
 5806      00
 5807              	.LEHE154:
 5808 30ea E900FFFF 		jmp	.L831
 5808      FF
 5809 30ef 90       		.p2align 4,,10
 5810              		.p2align 3
 5811              	.L881:
 5812 30f0 4829E8   		subq	%rbp, %rax
 5813 30f3 488D5424 		leaq	31(%rsp), %rdx
 5813      1F
 5814 30f8 31F6     		xorl	%esi, %esi
 5815 30fa 4889C7   		movq	%rax, %rdi
 5816 30fd 4889C3   		movq	%rax, %rbx
 5817              	.LEHB155:
 5818 3100 E8000000 		call	_ZNSs4_Rep9_S_createEmmRKSaIcE
 5818      00
 5819 3105 4883FB01 		cmpq	$1, %rbx
 5820 3109 4989C4   		movq	%rax, %r12
 5821 310c 488D4818 		leaq	24(%rax), %rcx
 5822 3110 757E     		jne	.L803
 5823 3112 0FB64500 		movzbl	0(%rbp), %eax
 5824 3116 41884424 		movb	%al, 24(%r12)
 5824      18
 5825              	.L804:
 5826 311b 4981FC00 		cmpq	$_ZNSs4_Rep20_S_empty_rep_storageE, %r12
 5826      000000
 5827 3122 0F84E8FE 		je	.L800
 5827      FFFF
 5828 3128 41C74424 		movl	$0, 16(%r12)
 5828      10000000 
 5828      00
 5829 3131 49891C24 		movq	%rbx, (%r12)
 5830 3135 41C6441C 		movb	$0, 24(%r12,%rbx)
 5830      1800
 5831 313b E9D0FEFF 		jmp	.L800
 5831      FF
 5832              	.L813:
 5833 3140 4889FB   		movq	%rdi, %rbx
 5834 3143 488D5424 		leaq	30(%rsp), %rdx
 5834      1E
 5835 3148 31F6     		xorl	%esi, %esi
 5836 314a 4829EB   		subq	%rbp, %rbx
 5837 314d 4889DF   		movq	%rbx, %rdi
 5838 3150 E8000000 		call	_ZNSs4_Rep9_S_createEmmRKSaIcE
 5838      00
 5839              	.LEHE155:
 5840 3155 4883FB01 		cmpq	$1, %rbx
 5841 3159 4989C4   		movq	%rax, %r12
 5842 315c 488D4818 		leaq	24(%rax), %rcx
 5843 3160 754E     		jne	.L814
 5844 3162 0FB64500 		movzbl	0(%rbp), %eax
 5845 3166 41884424 		movb	%al, 24(%r12)
 5845      18
 5846              	.L815:
 5847 316b 4981FC00 		cmpq	$_ZNSs4_Rep20_S_empty_rep_storageE, %r12
 5847      000000
 5848 3172 0F8418FE 		je	.L810
 5848      FFFF
 5849 3178 41C74424 		movl	$0, 16(%r12)
 5849      10000000 
 5849      00
 5850 3181 49891C24 		movq	%rbx, (%r12)
 5851 3185 41C6441C 		movb	$0, 24(%r12,%rbx)
 5851      1800
 5852 318b E900FEFF 		jmp	.L810
 5852      FF
 5853              		.p2align 4,,10
 5854              		.p2align 3
 5855              	.L803:
 5856 3190 4889CF   		movq	%rcx, %rdi
 5857 3193 4889DA   		movq	%rbx, %rdx
 5858 3196 4889EE   		movq	%rbp, %rsi
 5859 3199 E8000000 		call	memcpy
 5859      00
 5860 319e 4889C1   		movq	%rax, %rcx
 5861 31a1 E975FFFF 		jmp	.L804
 5861      FF
 5862 31a6 662E0F1F 		.p2align 4,,10
 5862      84000000 
 5862      0000
 5863              		.p2align 3
 5864              	.L814:
 5865 31b0 4889CF   		movq	%rcx, %rdi
 5866 31b3 4889DA   		movq	%rbx, %rdx
 5867 31b6 4889EE   		movq	%rbp, %rsi
 5868 31b9 E8000000 		call	memcpy
 5868      00
 5869 31be 4889C1   		movq	%rax, %rcx
 5870 31c1 EBA8     		jmp	.L815
 5871              		.p2align 4,,10
 5872 31c3 0F1F4400 		.p2align 3
 5872      00
 5873              	.L885:
 5874 31c8 BA000000 		movl	$_ZL28__gthrw___pthread_key_createPjPFvPvE, %edx
 5874      00
 5875 31cd 4885D2   		testq	%rdx, %rdx
 5876 31d0 7456     		je	.L832
 5877 31d2 BAFFFFFF 		movl	$-1, %edx
 5877      FF
 5878 31d7 F00FC150 		lock xaddl	%edx, -8(%rax)
 5878      F8
 5879 31dc 89D0     		movl	%edx, %eax
 5880              	.L833:
 5881 31de 85C0     		testl	%eax, %eax
 5882 31e0 0F8F09FE 		jg	.L831
 5882      FFFF
 5883 31e6 488D7424 		leaq	24(%rsp), %rsi
 5883      18
 5884 31eb E8000000 		call	_ZNSs4_Rep10_M_destroyERKSaIcE
 5884      00
 5885 31f0 E9FAFDFF 		jmp	.L831
 5885      FF
 5886              		.p2align 4,,10
 5887 31f5 0F1F00   		.p2align 3
 5888              	.L884:
 5889 31f8 BA000000 		movl	$_ZL28__gthrw___pthread_key_createPjPFvPvE, %edx
 5889      00
 5890 31fd 4885D2   		testq	%rdx, %rdx
 5891 3200 7443     		je	.L817
 5892 3202 BAFFFFFF 		movl	$-1, %edx
 5892      FF
 5893 3207 F00FC150 		lock xaddl	%edx, -8(%rax)
 5893      F8
 5894 320c 89D0     		movl	%edx, %eax
 5895              	.L818:
 5896 320e 85C0     		testl	%eax, %eax
 5897 3210 0F8FA4FD 		jg	.L806
 5897      FFFF
 5898 3216 488D7424 		leaq	28(%rsp), %rsi
 5898      1C
 5899 321b E8000000 		call	_ZNSs4_Rep10_M_destroyERKSaIcE
 5899      00
 5900 3220 E995FDFF 		jmp	.L806
 5900      FF
 5901              		.p2align 4,,10
 5902 3225 0F1F00   		.p2align 3
 5903              	.L832:
 5904 3228 8B50F8   		movl	-8(%rax), %edx
 5905 322b 8D4AFF   		leal	-1(%rdx), %ecx
 5906 322e 8948F8   		movl	%ecx, -8(%rax)
 5907 3231 89D0     		movl	%edx, %eax
 5908 3233 EBA9     		jmp	.L833
 5909              	.L807:
 5910 3235 8B50F8   		movl	-8(%rax), %edx
 5911 3238 8D4AFF   		leal	-1(%rdx), %ecx
 5912 323b 8948F8   		movl	%ecx, -8(%rax)
 5913 323e 89D0     		movl	%edx, %eax
 5914 3240 E90BFEFF 		jmp	.L808
 5914      FF
 5915              	.L817:
 5916 3245 8B50F8   		movl	-8(%rax), %edx
 5917 3248 8D4AFF   		leal	-1(%rdx), %ecx
 5918 324b 8948F8   		movl	%ecx, -8(%rax)
 5919 324e 89D0     		movl	%edx, %eax
 5920 3250 EBBC     		jmp	.L818
 5921              	.L883:
 5922 3252 E8000000 		call	__stack_chk_fail
 5922      00
 5923              	.L862:
 5924 3257 4889C3   		movq	%rax, %rbx
 5925 325a 4889D5   		movq	%rdx, %rbp
 5926 325d E8000000 		call	__cxa_end_catch
 5926      00
 5927 3262 E95CFCFF 		jmp	.L840
 5927      FF
 5928              	.L856:
 5929 3267 4889C7   		movq	%rax, %rdi
 5930 326a E967FCFF 		jmp	.L841
 5930      FF
 5931              	.L866:
 5932 326f 4889C3   		movq	%rax, %rbx
 5933 3272 488B4424 		movq	48(%rsp), %rax
 5933      30
 5934 3277 488D78E8 		leaq	-24(%rax), %rdi
 5935 327b 4881FF00 		cmpq	$_ZNSs4_Rep20_S_empty_rep_storageE, %rdi
 5935      000000
 5936 3282 0F8402FE 		je	.L822
 5936      FFFF
 5937 3288 488D7424 		leaq	26(%rsp), %rsi
 5937      1A
 5938 328d E8000000 		call	_ZNSs4_Rep10_M_disposeERKSaIcE.part.5
 5938      00
 5939 3292 E9F3FDFF 		jmp	.L822
 5939      FF
 5940              	.L863:
 5941 3297 E90DFEFF 		jmp	.L828
 5941      FF
 5942              	.L864:
 5943 329c 4889C3   		movq	%rax, %rbx
 5944 329f 488B4424 		movq	32(%rsp), %rax
 5944      20
 5945 32a4 488D78E8 		leaq	-24(%rax), %rdi
 5946 32a8 4881FF00 		cmpq	$_ZNSs4_Rep20_S_empty_rep_storageE, %rdi
 5946      000000
 5947 32af 0F84F1FD 		je	.L838
 5947      FFFF
 5948 32b5 488D7424 		leaq	23(%rsp), %rsi
 5948      17
 5949 32ba E8000000 		call	_ZNSs4_Rep10_M_disposeERKSaIcE.part.5
 5949      00
 5950 32bf E9E2FDFF 		jmp	.L838
 5950      FF
 5951              	.L867:
 5952 32c4 4889C3   		movq	%rax, %rbx
 5953 32c7 488B4424 		movq	64(%rsp), %rax
 5953      40
 5954 32cc 488D78E8 		leaq	-24(%rax), %rdi
 5955 32d0 4881FF00 		cmpq	$_ZNSs4_Rep20_S_empty_rep_storageE, %rdi
 5955      000000
 5956 32d7 0F84ADFD 		je	.L822
 5956      FFFF
 5957 32dd 488D7424 		leaq	27(%rsp), %rsi
 5957      1B
 5958 32e2 E8000000 		call	_ZNSs4_Rep10_M_disposeERKSaIcE.part.5
 5958      00
 5959 32e7 E99EFDFF 		jmp	.L822
 5959      FF
 5960              	.L860:
 5961 32ec 488DBC24 		leaq	208(%rsp), %rdi
 5961      D0000000 
 5962 32f4 4889C3   		movq	%rax, %rbx
 5963 32f7 E8000000 		call	_ZN8UnitTest15MemoryOutStreamD1Ev
 5963      00
 5964              	.L847:
 5965 32fc E8000000 		call	__cxa_end_catch
 5965      00
 5966 3301 4889DF   		movq	%rbx, %rdi
 5967              	.LEHB156:
 5968 3304 E8000000 		call	_Unwind_Resume
 5968      00
 5969              	.LEHE156:
 5970              	.L859:
 5971              	.L875:
 5972 3309 4889C3   		movq	%rax, %rbx
 5973 330c EBEE     		jmp	.L847
 5974              	.L882:
 5975 330e E8000000 		call	__cxa_begin_catch
 5975      00
 5976              	.LEHB157:
 5977 3313 E8000000 		call	_ZN8UnitTest11CurrentTest7ResultsEv
 5977      00
 5978 3318 488B7424 		movq	8(%rsp), %rsi
 5978      08
 5979 331d 488B38   		movq	(%rax), %rdi
 5980 3320 BA000000 		movl	$.LC33, %edx
 5980      00
 5981 3325 E8000000 		call	_ZN8UnitTest11TestResults13OnTestFailureERKNS_11TestDetailsEPKc
 5981      00
 5982              	.LEHE157:
 5983              	.LEHB158:
 5984 332a E8000000 		call	__cxa_end_catch
 5984      00
 5985              	.LEHE158:
 5986 332f E92CFCFF 		jmp	.L795
 5986      FF
 5987              	.L843:
 5988 3334 E8000000 		call	__cxa_begin_catch
 5988      00
 5989 3339 4889C3   		movq	%rax, %rbx
 5990 333c 488B00   		movq	(%rax), %rax
 5991 333f 4889DF   		movq	%rbx, %rdi
 5992 3342 FF5010   		call	*16(%rax)
 5993 3345 4889DF   		movq	%rbx, %rdi
 5994 3348 4889C5   		movq	%rax, %rbp
 5995              	.LEHB159:
 5996 334b E8000000 		call	_ZNK8UnitTest15AssertException10LineNumberEv
 5996      00
 5997 3350 4889DF   		movq	%rbx, %rdi
 5998 3353 4189C4   		movl	%eax, %r12d
 5999 3356 E8000000 		call	_ZNK8UnitTest15AssertException8FilenameEv
 5999      00
 6000 335b 4889C1   		movq	%rax, %rcx
 6001 335e 488B4424 		movq	8(%rsp), %rax
 6001      08
 6002 3363 488D7C24 		leaq	80(%rsp), %rdi
 6002      50
 6003 3368 4589E0   		movl	%r12d, %r8d
 6004 336b 488B7008 		movq	8(%rax), %rsi
 6005 336f 488B10   		movq	(%rax), %rdx
 6006 3372 E8000000 		call	_ZN8UnitTest11TestDetailsC1EPKcS2_S2_i
 6006      00
 6007 3377 E8000000 		call	_ZN8UnitTest11CurrentTest7ResultsEv
 6007      00
 6008 337c 488B38   		movq	(%rax), %rdi
 6009 337f 488D7424 		leaq	80(%rsp), %rsi
 6009      50
 6010 3384 4889EA   		movq	%rbp, %rdx
 6011 3387 E8000000 		call	_ZN8UnitTest11TestResults13OnTestFailureERKNS_11TestDetailsEPKc
 6011      00
 6012              	.LEHE159:
 6013 338c E9C9FBFF 		jmp	.L874
 6013      FF
 6014              	.L861:
 6015 3391 4889C3   		movq	%rax, %rbx
 6016 3394 E8000000 		call	__cxa_end_catch
 6016      00
 6017 3399 4889DF   		movq	%rbx, %rdi
 6018              	.LEHB160:
 6019 339c E8000000 		call	_Unwind_Resume
 6019      00
 6020              	.LEHE160:
 6021              	.L858:
 6022 33a1 E963FFFF 		jmp	.L875
 6022      FF
 6023              		.cfi_endproc
 6024              	.LFE1495:
 6025              		.section	.gcc_except_table
 6026              		.align 4
 6027              	.LLSDA1495:
 6028 03c4 FF       		.byte	0xff
 6029 03c5 03       		.byte	0x3
 6030 03c6 9C01     		.uleb128 .LLSDATT1495-.LLSDATTD1495
 6031              	.LLSDATTD1495:
 6032 03c8 01       		.byte	0x1
 6033 03c9 8301     		.uleb128 .LLSDACSE1495-.LLSDACSB1495
 6034              	.LLSDACSB1495:
 6035 03cb 2A       		.uleb128 .LEHB138-.LFB1495
 6036 03cc 05       		.uleb128 .LEHE138-.LEHB138
 6037 03cd 00       		.uleb128 0
 6038 03ce 00       		.uleb128 0
 6039 03cf 3A       		.uleb128 .LEHB139-.LFB1495
 6040 03d0 05       		.uleb128 .LEHE139-.LEHB139
 6041 03d1 B70A     		.uleb128 .L856-.LFB1495
 6042 03d3 05       		.uleb128 0x5
 6043 03d4 72       		.uleb128 .LEHB140-.LFB1495
 6044 03d5 63       		.uleb128 .LEHE140-.LEHB140
 6045 03d6 8D03     		.uleb128 .L857-.LFB1495
 6046 03d8 07       		.uleb128 0x7
 6047 03d9 DE01     		.uleb128 .LEHB141-.LFB1495
 6048 03db 1A       		.uleb128 .LEHE141-.LEHB141
 6049 03dc E70A     		.uleb128 .L863-.LFB1495
 6050 03de 01       		.uleb128 0x1
 6051 03df B602     		.uleb128 .LEHB142-.LFB1495
 6052 03e1 05       		.uleb128 .LEHE142-.LEHB142
 6053 03e2 D706     		.uleb128 .L865-.LFB1495
 6054 03e4 01       		.uleb128 0x1
 6055 03e5 DB02     		.uleb128 .LEHB143-.LFB1495
 6056 03e7 05       		.uleb128 .LEHE143-.LEHB143
 6057 03e8 8D03     		.uleb128 .L857-.LFB1495
 6058 03ea 07       		.uleb128 0x7
 6059 03eb 8803     		.uleb128 .LEHB144-.LFB1495
 6060 03ed 05       		.uleb128 .LEHE144-.LEHB144
 6061 03ee D706     		.uleb128 .L865-.LFB1495
 6062 03f0 01       		.uleb128 0x1
 6063 03f1 CA03     		.uleb128 .LEHB145-.LFB1495
 6064 03f3 05       		.uleb128 .LEHE145-.LEHB145
 6065 03f4 D90B     		.uleb128 .L859-.LFB1495
 6066 03f6 00       		.uleb128 0
 6067 03f7 E803     		.uleb128 .LEHB146-.LFB1495
 6068 03f9 35       		.uleb128 .LEHE146-.LEHB146
 6069 03fa BC0B     		.uleb128 .L860-.LFB1495
 6070 03fc 00       		.uleb128 0
 6071 03fd A504     		.uleb128 .LEHB147-.LFB1495
 6072 03ff 05       		.uleb128 .LEHE147-.LEHB147
 6073 0400 D90B     		.uleb128 .L859-.LFB1495
 6074 0402 00       		.uleb128 0
 6075 0403 EF04     		.uleb128 .LEHB148-.LFB1495
 6076 0405 05       		.uleb128 .LEHE148-.LEHB148
 6077 0406 BF0A     		.uleb128 .L866-.LFB1495
 6078 0408 01       		.uleb128 0x1
 6079 0409 8A05     		.uleb128 .LEHB149-.LFB1495
 6080 040b 1F       		.uleb128 .LEHE149-.LEHB149
 6081 040c EC0A     		.uleb128 .L864-.LFB1495
 6082 040e 01       		.uleb128 0x1
 6083 040f C705     		.uleb128 .LEHB150-.LFB1495
 6084 0411 05       		.uleb128 .LEHE150-.LEHB150
 6085 0412 B70A     		.uleb128 .L856-.LFB1495
 6086 0414 05       		.uleb128 0x5
 6087 0415 EF05     		.uleb128 .LEHB151-.LFB1495
 6088 0417 05       		.uleb128 .LEHE151-.LEHB151
 6089 0418 940B     		.uleb128 .L867-.LFB1495
 6090 041a 01       		.uleb128 0x1
 6091 041b CD06     		.uleb128 .LEHB152-.LFB1495
 6092 041d 05       		.uleb128 .LEHE152-.LEHB152
 6093 041e D706     		.uleb128 .L865-.LFB1495
 6094 0420 01       		.uleb128 0x1
 6095 0421 8107     		.uleb128 .LEHB153-.LFB1495
 6096 0423 34       		.uleb128 .LEHE153-.LEHB153
 6097 0424 A70A     		.uleb128 .L862-.LFB1495
 6098 0426 07       		.uleb128 0x7
 6099 0427 B507     		.uleb128 .LEHB154-.LFB1495
 6100 0429 05       		.uleb128 .LEHE154-.LEHB154
 6101 042a 8D03     		.uleb128 .L857-.LFB1495
 6102 042c 07       		.uleb128 0x7
 6103 042d D007     		.uleb128 .LEHB155-.LFB1495
 6104 042f 55       		.uleb128 .LEHE155-.LEHB155
 6105 0430 D706     		.uleb128 .L865-.LFB1495
 6106 0432 01       		.uleb128 0x1
 6107 0433 D40B     		.uleb128 .LEHB156-.LFB1495
 6108 0435 05       		.uleb128 .LEHE156-.LEHB156
 6109 0436 00       		.uleb128 0
 6110 0437 00       		.uleb128 0
 6111 0438 E30B     		.uleb128 .LEHB157-.LFB1495
 6112 043a 17       		.uleb128 .LEHE157-.LEHB157
 6113 043b E10C     		.uleb128 .L861-.LFB1495
 6114 043d 00       		.uleb128 0
 6115 043e FA0B     		.uleb128 .LEHB158-.LFB1495
 6116 0440 05       		.uleb128 .LEHE158-.LEHB158
 6117 0441 00       		.uleb128 0
 6118 0442 00       		.uleb128 0
 6119 0443 9B0C     		.uleb128 .LEHB159-.LFB1495
 6120 0445 41       		.uleb128 .LEHE159-.LEHB159
 6121 0446 F10C     		.uleb128 .L858-.LFB1495
 6122 0448 00       		.uleb128 0
 6123 0449 EC0C     		.uleb128 .LEHB160-.LFB1495
 6124 044b 05       		.uleb128 .LEHE160-.LEHB160
 6125 044c 00       		.uleb128 0
 6126 044d 00       		.uleb128 0
 6127              	.LLSDACSE1495:
 6128 044e 03       		.byte	0x3
 6129 044f 00       		.byte	0
 6130 0450 02       		.byte	0x2
 6131 0451 7D       		.byte	0x7d
 6132 0452 01       		.byte	0x1
 6133 0453 7D       		.byte	0x7d
 6134 0454 00       		.byte	0
 6135 0455 7D       		.byte	0x7d
 6136 0456 0000     		.align 4
 6137 0458 00000000 		.long	0
 6138              	
 6139 045c 00000000 		.long	_ZTISt9exception
 6140 0460 00000000 		.long	_ZTIN8UnitTest15AssertExceptionE
 6141              	.LLSDATT1495:
 6142              		.text
 6144              		.section	.text.unlikely
 6145              	.LCOLDE62:
 6146              		.text
 6147              	.LHOTE62:
 6148              		.section	.text.unlikely
 6149              		.align 2
 6150              	.LCOLDB63:
 6151              		.text
 6152              	.LHOTB63:
 6153              		.align 2
 6154 33a6 662E0F1F 		.p2align 4,,15
 6154      84000000 
 6154      0000
 6156              	_ZNK12_GLOBAL__N_152TestXmlTestReporterFixtureFailureMessageIsXMLEscaped7RunImplEv:
 6157              	.LFB1430:
 6158              		.cfi_startproc
 6159              		.cfi_personality 0x3,__gxx_personality_v0
 6160              		.cfi_lsda 0x3,.LLSDA1430
 6161 33b0 4157     		pushq	%r15
 6162              		.cfi_def_cfa_offset 16
 6163              		.cfi_offset 15, -16
 6164 33b2 4156     		pushq	%r14
 6165              		.cfi_def_cfa_offset 24
 6166              		.cfi_offset 14, -24
 6167 33b4 4155     		pushq	%r13
 6168              		.cfi_def_cfa_offset 32
 6169              		.cfi_offset 13, -32
 6170 33b6 4154     		pushq	%r12
 6171              		.cfi_def_cfa_offset 40
 6172              		.cfi_offset 12, -40
 6173 33b8 4C8D6F08 		leaq	8(%rdi), %r13
 6174 33bc 55       		pushq	%rbp
 6175              		.cfi_def_cfa_offset 48
 6176              		.cfi_offset 6, -48
 6177 33bd 53       		pushq	%rbx
 6178              		.cfi_def_cfa_offset 56
 6179              		.cfi_offset 3, -56
 6180 33be 4881ECD8 		subq	$472, %rsp
 6180      010000
 6181              		.cfi_def_cfa_offset 528
 6182 33c5 48897C24 		movq	%rdi, 8(%rsp)
 6182      08
 6183 33ca 488DBC24 		leaq	136(%rsp), %rdi
 6183      88000000 
 6184 33d2 64488B0C 		movq	%fs:40, %rcx
 6184      25280000 
 6184      00
 6185 33db 48898C24 		movq	%rcx, 456(%rsp)
 6185      C8010000 
 6186 33e3 31C9     		xorl	%ecx, %ecx
 6187 33e5 E8000000 		call	_ZNSt8ios_baseC2Ev
 6187      00
 6188 33ea 4C8B2500 		movq	_ZTTSt19basic_ostringstreamIcSt11char_traitsIcESaIcEE+8(%rip), %r12
 6188      000000
 6189 33f1 C6842468 		movb	$0, 360(%rsp)
 6189      01000000 
 6190 33f9 488D7C24 		leaq	48(%rsp), %rdi
 6190      30
 6191 33fe 488B0500 		movq	_ZTTSt19basic_ostringstreamIcSt11char_traitsIcESaIcEE+16(%rip), %rax
 6191      000000
 6192 3405 48C78424 		movq	$_ZTVSt9basic_iosIcSt11char_traitsIcEE+16, 136(%rsp)
 6192      88000000 
 6192      00000000 
 6193 3411 31F6     		xorl	%esi, %esi
 6194 3413 48C78424 		movq	$0, 352(%rsp)
 6194      60010000 
 6194      00000000 
 6195 341f C6842469 		movb	$0, 361(%rsp)
 6195      01000000 
 6196 3427 49037C24 		addq	-24(%r12), %rdi
 6196      E8
 6197 342c 48C78424 		movq	$0, 368(%rsp)
 6197      70010000 
 6197      00000000 
 6198 3438 48C78424 		movq	$0, 376(%rsp)
 6198      78010000 
 6198      00000000 
 6199 3444 48C78424 		movq	$0, 384(%rsp)
 6199      80010000 
 6199      00000000 
 6200 3450 48C78424 		movq	$0, 392(%rsp)
 6200      88010000 
 6200      00000000 
 6201 345c 4C896424 		movq	%r12, 48(%rsp)
 6201      30
 6202 3461 488907   		movq	%rax, (%rdi)
 6203              	.LEHB161:
 6204 3464 E8000000 		call	_ZNSt9basic_iosIcSt11char_traitsIcEE4initEPSt15basic_streambufIcS1_E
 6204      00
 6205              	.LEHE161:
 6206 3469 488D7C24 		leaq	112(%rsp), %rdi
 6206      70
 6207 346e 48C74424 		movq	$_ZTVSt19basic_ostringstreamIcSt11char_traitsIcESaIcEE+24, 48(%rsp)
 6207      30000000 
 6207      00
 6208 3477 48C78424 		movq	$_ZTVSt19basic_ostringstreamIcSt11char_traitsIcESaIcEE+64, 136(%rsp)
 6208      88000000 
 6208      00000000 
 6209 3483 48C74424 		movq	$_ZTVSt15basic_streambufIcSt11char_traitsIcEE+16, 56(%rsp)
 6209      38000000 
 6209      00
 6210 348c 48C74424 		movq	$0, 64(%rsp)
 6210      40000000 
 6210      00
 6211 3495 48C74424 		movq	$0, 72(%rsp)
 6211      48000000 
 6211      00
 6212 349e 48C74424 		movq	$0, 80(%rsp)
 6212      50000000 
 6212      00
 6213 34a7 48C74424 		movq	$0, 88(%rsp)
 6213      58000000 
 6213      00
 6214 34b0 48C74424 		movq	$0, 96(%rsp)
 6214      60000000 
 6214      00
 6215 34b9 48C74424 		movq	$0, 104(%rsp)
 6215      68000000 
 6215      00
 6216 34c2 E8000000 		call	_ZNSt6localeC1Ev
 6216      00
 6217 34c7 488D4424 		leaq	48(%rsp), %rax
 6217      30
 6218 34cc 488D7424 		leaq	56(%rsp), %rsi
 6218      38
 6219 34d1 48C74424 		movq	$_ZTVSt15basic_stringbufIcSt11char_traitsIcESaIcEE+16, 56(%rsp)
 6219      38000000 
 6219      00
 6220 34da C7442478 		movl	$16, 120(%rsp)
 6220      10000000 
 6221 34e2 48C78424 		movq	$_ZNSs4_Rep20_S_empty_rep_storageE+24, 128(%rsp)
 6221      80000000 
 6221      00000000 
 6222 34ee 488D7858 		leaq	88(%rax), %rdi
 6223              	.LEHB162:
 6224 34f2 E8000000 		call	_ZNSt9basic_iosIcSt11char_traitsIcEE4initEPSt15basic_streambufIcS1_E
 6224      00
 6225              	.LEHE162:
 6226 34f7 488D4424 		leaq	48(%rsp), %rax
 6226      30
 6227 34fc 488DB860 		leaq	352(%rax), %rdi
 6227      010000
 6228 3503 4889C6   		movq	%rax, %rsi
 6229              	.LEHB163:
 6230 3506 E8000000 		call	_ZN8UnitTest15XmlTestReporterC1ERSo
 6230      00
 6231              	.LEHE163:
 6232 350b 488D7C24 		leaq	48(%rsp), %rdi
 6232      30
 6233 3510 4C89EE   		movq	%r13, %rsi
 6234 3513 4C89AC24 		movq	%r13, 440(%rsp)
 6234      B8010000 
 6235              	.LEHB164:
 6236 351b E810F8FF 		call	_ZN8UnitTest11ExecuteTestIN12_GLOBAL__N_154XmlTestReporterFixtureFailureMessageIsXMLEscapedHe
 6236      FF
 6237              	.LEHE164:
 6238 3520 488BAC24 		movq	416(%rsp), %rbp
 6238      A0010000 
 6239 3528 4C8BB424 		movq	408(%rsp), %r14
 6239      98010000 
 6240 3530 48C78424 		movq	$_ZTVN8UnitTest20DeferredTestReporterE+16, 400(%rsp)
 6240      90010000 
 6240      00000000 
 6241 353c 4C39F5   		cmpq	%r14, %rbp
 6242 353f 0F84C700 		je	.L893
 6242      0000
 6243              		.p2align 4,,10
 6244 3545 0F1F00   		.p2align 3
 6245              	.L922:
 6246 3548 4D8B7E20 		movq	32(%r14), %r15
 6247 354c 498B5E18 		movq	24(%r14), %rbx
 6248 3550 4939DF   		cmpq	%rbx, %r15
 6249 3553 7457     		je	.L894
 6250 3555 B8000000 		movl	$_ZL28__gthrw___pthread_key_createPjPFvPvE, %eax
 6250      00
 6251 355a 4885C0   		testq	%rax, %rax
 6252 355d 7512     		jne	.L958
 6253 355f E9990100 		jmp	.L900
 6253      00
 6254              		.p2align 4,,10
 6255 3564 0F1F4000 		.p2align 3
 6256              	.L903:
 6257 3568 4883C310 		addq	$16, %rbx
 6258 356c 4939DF   		cmpq	%rbx, %r15
 6259 356f 7437     		je	.L901
 6260              	.L958:
 6261 3571 488B4308 		movq	8(%rbx), %rax
 6262 3575 488D78E8 		leaq	-24(%rax), %rdi
 6263 3579 4881FF00 		cmpq	$_ZNSs4_Rep20_S_empty_rep_storageE, %rdi
 6263      000000
 6264 3580 74E6     		je	.L903
 6265 3582 BEFFFFFF 		movl	$-1, %esi
 6265      FF
 6266 3587 F00FC170 		lock xaddl	%esi, -8(%rax)
 6266      F8
 6267 358c 85F6     		testl	%esi, %esi
 6268 358e 7FD8     		jg	.L903
 6269 3590 488D7424 		leaq	16(%rsp), %rsi
 6269      10
 6270 3595 4883C310 		addq	$16, %rbx
 6271 3599 E8000000 		call	_ZNSs4_Rep10_M_destroyERKSaIcE
 6271      00
 6272 359e 4939DF   		cmpq	%rbx, %r15
 6273 35a1 75CE     		jne	.L958
 6274              		.p2align 4,,10
 6275 35a3 0F1F4400 		.p2align 3
 6275      00
 6276              	.L901:
 6277 35a8 4D8B7E18 		movq	24(%r14), %r15
 6278              	.L894:
 6279 35ac 4D85FF   		testq	%r15, %r15
 6280 35af 7408     		je	.L906
 6281 35b1 4C89FF   		movq	%r15, %rdi
 6282 35b4 E8000000 		call	_ZdlPv
 6282      00
 6283              	.L906:
 6284 35b9 498B4610 		movq	16(%r14), %rax
 6285 35bd 488D78E8 		leaq	-24(%rax), %rdi
 6286 35c1 4881FF00 		cmpq	$_ZNSs4_Rep20_S_empty_rep_storageE, %rdi
 6286      000000
 6287 35c8 0F85AA01 		jne	.L974
 6287      0000
 6288              	.L908:
 6289 35ce 498B4608 		movq	8(%r14), %rax
 6290 35d2 488D78E8 		leaq	-24(%rax), %rdi
 6291 35d6 4881FF00 		cmpq	$_ZNSs4_Rep20_S_empty_rep_storageE, %rdi
 6291      000000
 6292 35dd 0F856501 		jne	.L975
 6292      0000
 6293              	.L913:
 6294 35e3 498B06   		movq	(%r14), %rax
 6295 35e6 488D78E8 		leaq	-24(%rax), %rdi
 6296 35ea 4881FF00 		cmpq	$_ZNSs4_Rep20_S_empty_rep_storageE, %rdi
 6296      000000
 6297 35f1 0F851901 		jne	.L976
 6297      0000
 6298              	.L918:
 6299 35f7 4983C638 		addq	$56, %r14
 6300 35fb 4C39F5   		cmpq	%r14, %rbp
 6301 35fe 0F8544FF 		jne	.L922
 6301      FFFF
 6302 3604 488BAC24 		movq	408(%rsp), %rbp
 6302      98010000 
 6303              	.L893:
 6304 360c 4885ED   		testq	%rbp, %rbp
 6305 360f 7408     		je	.L923
 6306 3611 4889EF   		movq	%rbp, %rdi
 6307 3614 E8000000 		call	_ZdlPv
 6307      00
 6308              	.L923:
 6309 3619 488D4424 		leaq	48(%rsp), %rax
 6309      30
 6310 361e 488DB860 		leaq	352(%rax), %rdi
 6310      010000
 6311              	.LEHB165:
 6312 3625 E8000000 		call	_ZN8UnitTest12TestReporterD2Ev
 6312      00
 6313              	.LEHE165:
 6314 362a 488B8424 		movq	128(%rsp), %rax
 6314      80000000 
 6315 3632 48C74424 		movq	$_ZTVSt19basic_ostringstreamIcSt11char_traitsIcESaIcEE+24, 48(%rsp)
 6315      30000000 
 6315      00
 6316 363b 48C78424 		movq	$_ZTVSt19basic_ostringstreamIcSt11char_traitsIcESaIcEE+64, 136(%rsp)
 6316      88000000 
 6316      00000000 
 6317 3647 48C74424 		movq	$_ZTVSt15basic_stringbufIcSt11char_traitsIcESaIcEE+16, 56(%rsp)
 6317      38000000 
 6317      00
 6318 3650 488D78E8 		leaq	-24(%rax), %rdi
 6319 3654 4881FF00 		cmpq	$_ZNSs4_Rep20_S_empty_rep_storageE, %rdi
 6319      000000
 6320 365b 0F856E01 		jne	.L977
 6320      0000
 6321              	.L925:
 6322 3661 488D7C24 		leaq	112(%rsp), %rdi
 6322      70
 6323 3666 48C74424 		movq	$_ZTVSt15basic_streambufIcSt11char_traitsIcEE+16, 56(%rsp)
 6323      38000000 
 6323      00
 6324 366f E8000000 		call	_ZNSt6localeD1Ev
 6324      00
 6325 3674 498B4424 		movq	-24(%r12), %rax
 6325      E8
 6326 3679 488B0D00 		movq	_ZTTSt19basic_ostringstreamIcSt11char_traitsIcESaIcEE+16(%rip), %rcx
 6326      000000
 6327 3680 4C896424 		movq	%r12, 48(%rsp)
 6327      30
 6328 3685 48894C04 		movq	%rcx, 48(%rsp,%rax)
 6328      30
 6329 368a 488D4424 		leaq	48(%rsp), %rax
 6329      30
 6330 368f 48C78424 		movq	$_ZTVSt9basic_iosIcSt11char_traitsIcEE+16, 136(%rsp)
 6330      88000000 
 6330      00000000 
 6331 369b 488D7858 		leaq	88(%rax), %rdi
 6332              	.LEHB166:
 6333 369f E8000000 		call	_ZNSt8ios_baseD2Ev
 6333      00
 6334              	.LEHE166:
 6335              	.L886:
 6336 36a4 488B8424 		movq	456(%rsp), %rax
 6336      C8010000 
 6337 36ac 64483304 		xorq	%fs:40, %rax
 6337      25280000 
 6337      00
 6338 36b5 0F85E901 		jne	.L978
 6338      0000
 6339 36bb 4881C4D8 		addq	$472, %rsp
 6339      010000
 6340              		.cfi_remember_state
 6341              		.cfi_def_cfa_offset 56
 6342 36c2 5B       		popq	%rbx
 6343              		.cfi_def_cfa_offset 48
 6344 36c3 5D       		popq	%rbp
 6345              		.cfi_def_cfa_offset 40
 6346 36c4 415C     		popq	%r12
 6347              		.cfi_def_cfa_offset 32
 6348 36c6 415D     		popq	%r13
 6349              		.cfi_def_cfa_offset 24
 6350 36c8 415E     		popq	%r14
 6351              		.cfi_def_cfa_offset 16
 6352 36ca 415F     		popq	%r15
 6353              		.cfi_def_cfa_offset 8
 6354 36cc C3       		ret
 6355 36cd 0F1F00   		.p2align 4,,10
 6356              		.p2align 3
 6357              	.L979:
 6358              		.cfi_restore_state
 6359 36d0 8B70F8   		movl	-8(%rax), %esi
 6360 36d3 448D46FF 		leal	-1(%rsi), %r8d
 6361 36d7 85F6     		testl	%esi, %esi
 6362 36d9 448940F8 		movl	%r8d, -8(%rax)
 6363 36dd 7F11     		jg	.L898
 6364 36df 488D7424 		leaq	16(%rsp), %rsi
 6364      10
 6365 36e4 E8000000 		call	_ZNSs4_Rep10_M_destroyERKSaIcE
 6365      00
 6366 36e9 0F1F8000 		.p2align 4,,10
 6366      000000
 6367              		.p2align 3
 6368              	.L898:
 6369 36f0 4883C310 		addq	$16, %rbx
 6370 36f4 4939DF   		cmpq	%rbx, %r15
 6371 36f7 0F84ABFE 		je	.L901
 6371      FFFF
 6372              	.L900:
 6373 36fd 488B4308 		movq	8(%rbx), %rax
 6374 3701 488D78E8 		leaq	-24(%rax), %rdi
 6375 3705 4881FF00 		cmpq	$_ZNSs4_Rep20_S_empty_rep_storageE, %rdi
 6375      000000
 6376 370c 74E2     		je	.L898
 6377 370e EBC0     		jmp	.L979
 6378              		.p2align 4,,10
 6379              		.p2align 3
 6380              	.L976:
 6381 3710 BA000000 		movl	$_ZL28__gthrw___pthread_key_createPjPFvPvE, %edx
 6381      00
 6382 3715 4885D2   		testq	%rdx, %rdx
 6383 3718 0F848700 		je	.L919
 6383      0000
 6384 371e BAFFFFFF 		movl	$-1, %edx
 6384      FF
 6385 3723 F00FC150 		lock xaddl	%edx, -8(%rax)
 6385      F8
 6386 3728 89D0     		movl	%edx, %eax
 6387              	.L920:
 6388 372a 85C0     		testl	%eax, %eax
 6389 372c 0F8FC5FE 		jg	.L918
 6389      FFFF
 6390 3732 488D7424 		leaq	16(%rsp), %rsi
 6390      10
 6391 3737 E8000000 		call	_ZNSs4_Rep10_M_destroyERKSaIcE
 6391      00
 6392 373c E9B6FEFF 		jmp	.L918
 6392      FF
 6393              		.p2align 4,,10
 6394 3741 0F1F8000 		.p2align 3
 6394      000000
 6395              	.L975:
 6396 3748 BA000000 		movl	$_ZL28__gthrw___pthread_key_createPjPFvPvE, %edx
 6396      00
 6397 374d 4885D2   		testq	%rdx, %rdx
 6398 3750 7470     		je	.L914
 6399 3752 BAFFFFFF 		movl	$-1, %edx
 6399      FF
 6400 3757 F00FC150 		lock xaddl	%edx, -8(%rax)
 6400      F8
 6401 375c 89D0     		movl	%edx, %eax
 6402              	.L915:
 6403 375e 85C0     		testl	%eax, %eax
 6404 3760 0F8F7DFE 		jg	.L913
 6404      FFFF
 6405 3766 488D7424 		leaq	16(%rsp), %rsi
 6405      10
 6406 376b E8000000 		call	_ZNSs4_Rep10_M_destroyERKSaIcE
 6406      00
 6407 3770 E96EFEFF 		jmp	.L913
 6407      FF
 6408              		.p2align 4,,10
 6409 3775 0F1F00   		.p2align 3
 6410              	.L974:
 6411 3778 BA000000 		movl	$_ZL28__gthrw___pthread_key_createPjPFvPvE, %edx
 6411      00
 6412 377d 4885D2   		testq	%rdx, %rdx
 6413 3780 7433     		je	.L909
 6414 3782 BAFFFFFF 		movl	$-1, %edx
 6414      FF
 6415 3787 F00FC150 		lock xaddl	%edx, -8(%rax)
 6415      F8
 6416 378c 89D0     		movl	%edx, %eax
 6417              	.L910:
 6418 378e 85C0     		testl	%eax, %eax
 6419 3790 0F8F38FE 		jg	.L908
 6419      FFFF
 6420 3796 488D7424 		leaq	16(%rsp), %rsi
 6420      10
 6421 379b E8000000 		call	_ZNSs4_Rep10_M_destroyERKSaIcE
 6421      00
 6422 37a0 E929FEFF 		jmp	.L908
 6422      FF
 6423              	.L919:
 6424 37a5 8B50F8   		movl	-8(%rax), %edx
 6425 37a8 8D72FF   		leal	-1(%rdx), %esi
 6426 37ab 8970F8   		movl	%esi, -8(%rax)
 6427 37ae 89D0     		movl	%edx, %eax
 6428 37b0 E975FFFF 		jmp	.L920
 6428      FF
 6429              	.L909:
 6430 37b5 8B50F8   		movl	-8(%rax), %edx
 6431 37b8 8D72FF   		leal	-1(%rdx), %esi
 6432 37bb 8970F8   		movl	%esi, -8(%rax)
 6433 37be 89D0     		movl	%edx, %eax
 6434 37c0 EBCC     		jmp	.L910
 6435              	.L914:
 6436 37c2 8B50F8   		movl	-8(%rax), %edx
 6437 37c5 8D72FF   		leal	-1(%rdx), %esi
 6438 37c8 8970F8   		movl	%esi, -8(%rax)
 6439 37cb 89D0     		movl	%edx, %eax
 6440 37cd EB8F     		jmp	.L915
 6441              	.L977:
 6442 37cf BA000000 		movl	$_ZL28__gthrw___pthread_key_createPjPFvPvE, %edx
 6442      00
 6443 37d4 4885D2   		testq	%rdx, %rdx
 6444 37d7 7423     		je	.L926
 6445 37d9 BAFFFFFF 		movl	$-1, %edx
 6445      FF
 6446 37de F00FC150 		lock xaddl	%edx, -8(%rax)
 6446      F8
 6447 37e3 89D0     		movl	%edx, %eax
 6448              	.L927:
 6449 37e5 85C0     		testl	%eax, %eax
 6450 37e7 0F8F74FE 		jg	.L925
 6450      FFFF
 6451 37ed 488D7424 		leaq	16(%rsp), %rsi
 6451      10
 6452 37f2 E8000000 		call	_ZNSs4_Rep10_M_destroyERKSaIcE
 6452      00
 6453 37f7 E965FEFF 		jmp	.L925
 6453      FF
 6454              	.L926:
 6455 37fc 8B50F8   		movl	-8(%rax), %edx
 6456 37ff 8D4AFF   		leal	-1(%rdx), %ecx
 6457 3802 8948F8   		movl	%ecx, -8(%rax)
 6458 3805 89D0     		movl	%edx, %eax
 6459 3807 EBDC     		jmp	.L927
 6460              	.L953:
 6461 3809 488D7C24 		leaq	48(%rsp), %rdi
 6461      30
 6462 380e 4889C3   		movq	%rax, %rbx
 6463 3811 4889D5   		movq	%rdx, %rbp
 6464 3814 E8000000 		call	_ZNSt19basic_ostringstreamIcSt11char_traitsIcESaIcEED1Ev
 6464      00
 6465 3819 4889DF   		movq	%rbx, %rdi
 6466 381c 4889EA   		movq	%rbp, %rdx
 6467 381f BB010000 		movl	$1, %ebx
 6467      00
 6468              	.L890:
 6469 3824 4883FA01 		cmpq	$1, %rdx
 6470 3828 0F84E800 		je	.L935
 6470      0000
 6471 382e 4883FA02 		cmpq	$2, %rdx
 6472 3832 0F859D00 		jne	.L980
 6472      0000
 6473 3838 E8000000 		call	__cxa_begin_catch
 6473      00
 6474 383d 488D7C24 		leaq	48(%rsp), %rdi
 6474      30
 6475 3842 4889C3   		movq	%rax, %rbx
 6476              	.LEHB167:
 6477 3845 E8000000 		call	_ZN8UnitTest15MemoryOutStreamC1Ev
 6477      00
 6478              	.LEHE167:
 6479 384a 488B03   		movq	(%rbx), %rax
 6480 384d 4889DF   		movq	%rbx, %rdi
 6481 3850 FF5010   		call	*16(%rax)
 6482 3853 488D7C24 		leaq	48(%rsp), %rdi
 6482      30
 6483 3858 BE000000 		movl	$.LC32, %esi
 6483      00
 6484 385d 4889C3   		movq	%rax, %rbx
 6485              	.LEHB168:
 6486 3860 E8000000 		call	_ZStlsISt11char_traitsIcEERSt13basic_ostreamIcT_ES5_PKc
 6486      00
 6487 3865 4889C7   		movq	%rax, %rdi
 6488 3868 4889DE   		movq	%rbx, %rsi
 6489 386b E8000000 		call	_ZStlsISt11char_traitsIcEERSt13basic_ostreamIcT_ES5_PKc
 6489      00
 6490 3870 488D7C24 		leaq	48(%rsp), %rdi
 6490      30
 6491 3875 E8000000 		call	_ZNK8UnitTest15MemoryOutStream7GetTextEv
 6491      00
 6492 387a 4889C3   		movq	%rax, %rbx
 6493 387d E8000000 		call	_ZN8UnitTest11CurrentTest7ResultsEv
 6493      00
 6494 3882 488B38   		movq	(%rax), %rdi
 6495 3885 4889DA   		movq	%rbx, %rdx
 6496 3888 4C89EE   		movq	%r13, %rsi
 6497 388b E8000000 		call	_ZN8UnitTest11TestResults13OnTestFailureERKNS_11TestDetailsEPKc
 6497      00
 6498              	.LEHE168:
 6499 3890 488D7C24 		leaq	48(%rsp), %rdi
 6499      30
 6500              	.LEHB169:
 6501 3895 E8000000 		call	_ZN8UnitTest15MemoryOutStreamD1Ev
 6501      00
 6502              	.LEHE169:
 6503              	.L968:
 6504 389a E8000000 		call	__cxa_end_catch
 6504      00
 6505 389f E900FEFF 		jmp	.L886
 6505      FF
 6506              	.L978:
 6507 38a4 E8000000 		call	__stack_chk_fail
 6507      00
 6508              	.L944:
 6509 38a9 4889C7   		movq	%rax, %rdi
 6510 38ac BB010000 		movl	$1, %ebx
 6510      00
 6511 38b1 E96EFFFF 		jmp	.L890
 6511      FF
 6512              	.L948:
 6513 38b6 488D7C24 		leaq	48(%rsp), %rdi
 6513      30
 6514 38bb 4889C3   		movq	%rax, %rbx
 6515 38be E8000000 		call	_ZN8UnitTest15MemoryOutStreamD1Ev
 6515      00
 6516              	.L939:
 6517 38c3 E8000000 		call	__cxa_end_catch
 6517      00
 6518 38c8 4889DF   		movq	%rbx, %rdi
 6519              	.LEHB170:
 6520 38cb E8000000 		call	_Unwind_Resume
 6520      00
 6521              	.LEHE170:
 6522              	.L947:
 6523              	.L969:
 6524 38d0 4889C3   		movq	%rax, %rbx
 6525 38d3 EBEE     		jmp	.L939
 6526              	.L980:
 6527 38d5 E8000000 		call	__cxa_begin_catch
 6527      00
 6528 38da 84DB     		testb	%bl, %bl
 6529 38dc 488D5C24 		leaq	16(%rsp), %rbx
 6529      10
 6530 38e1 BA730000 		movl	$115, %edx
 6530      00
 6531 38e6 4C89EE   		movq	%r13, %rsi
 6532 38e9 4889DF   		movq	%rbx, %rdi
 6533 38ec 0F849300 		je	.L941
 6533      0000
 6534              	.LEHB171:
 6535 38f2 E8000000 		call	_ZN8UnitTest11TestDetailsC1ERKS0_i
 6535      00
 6536 38f7 E8000000 		call	_ZN8UnitTest11CurrentTest7ResultsEv
 6536      00
 6537 38fc 488B38   		movq	(%rax), %rdi
 6538 38ff BA000000 		movl	$.LC36, %edx
 6538      00
 6539 3904 4889DE   		movq	%rbx, %rsi
 6540 3907 E8000000 		call	_ZN8UnitTest11TestResults13OnTestFailureERKNS_11TestDetailsEPKc
 6540      00
 6541              	.LEHE171:
 6542              	.L942:
 6543              	.LEHB172:
 6544 390c E8000000 		call	__cxa_end_catch
 6544      00
 6545              	.LEHE172:
 6546 3911 E98EFDFF 		jmp	.L886
 6546      FF
 6547              	.L935:
 6548 3916 E8000000 		call	__cxa_begin_catch
 6548      00
 6549 391b 4889C3   		movq	%rax, %rbx
 6550 391e 488B00   		movq	(%rax), %rax
 6551 3921 4889DF   		movq	%rbx, %rdi
 6552 3924 FF5010   		call	*16(%rax)
 6553 3927 4889DF   		movq	%rbx, %rdi
 6554 392a 4889C5   		movq	%rax, %rbp
 6555              	.LEHB173:
 6556 392d E8000000 		call	_ZNK8UnitTest15AssertException10LineNumberEv
 6556      00
 6557 3932 4889DF   		movq	%rbx, %rdi
 6558 3935 4189C4   		movl	%eax, %r12d
 6559 3938 E8000000 		call	_ZNK8UnitTest15AssertException8FilenameEv
 6559      00
 6560 393d 488B4C24 		movq	8(%rsp), %rcx
 6560      08
 6561 3942 488D5C24 		leaq	16(%rsp), %rbx
 6561      10
 6562 3947 4589E0   		movl	%r12d, %r8d
 6563 394a 4889DF   		movq	%rbx, %rdi
 6564 394d 488B5108 		movq	8(%rcx), %rdx
 6565 3951 488B7110 		movq	16(%rcx), %rsi
 6566 3955 4889C1   		movq	%rax, %rcx
 6567 3958 E8000000 		call	_ZN8UnitTest11TestDetailsC1EPKcS2_S2_i
 6567      00
 6568 395d E8000000 		call	_ZN8UnitTest11CurrentTest7ResultsEv
 6568      00
 6569 3962 488B38   		movq	(%rax), %rdi
 6570 3965 4889EA   		movq	%rbp, %rdx
 6571 3968 4889DE   		movq	%rbx, %rsi
 6572 396b E8000000 		call	_ZN8UnitTest11TestResults13OnTestFailureERKNS_11TestDetailsEPKc
 6572      00
 6573              	.LEHE173:
 6574 3970 E925FFFF 		jmp	.L968
 6574      FF
 6575              	.L949:
 6576 3975 4889C3   		movq	%rax, %rbx
 6577 3978 E8000000 		call	__cxa_end_catch
 6577      00
 6578 397d 4889DF   		movq	%rbx, %rdi
 6579              	.LEHB174:
 6580 3980 E8000000 		call	_Unwind_Resume
 6580      00
 6581              	.LEHE174:
 6582              	.L941:
 6583              	.LEHB175:
 6584 3985 E8000000 		call	_ZN8UnitTest11TestDetailsC1ERKS0_i
 6584      00
 6585 398a E8000000 		call	_ZN8UnitTest11CurrentTest7ResultsEv
 6585      00
 6586 398f 488B38   		movq	(%rax), %rdi
 6587 3992 BA000000 		movl	$.LC37, %edx
 6587      00
 6588 3997 4889DE   		movq	%rbx, %rsi
 6589 399a E8000000 		call	_ZN8UnitTest11TestResults13OnTestFailureERKNS_11TestDetailsEPKc
 6589      00
 6590              	.LEHE175:
 6591 399f E968FFFF 		jmp	.L942
 6591      FF
 6592              	.L946:
 6593 39a4 E927FFFF 		jmp	.L969
 6593      FF
 6594              	.L945:
 6595 39a9 488D7C24 		leaq	48(%rsp), %rdi
 6595      30
 6596 39ae 4889C3   		movq	%rax, %rbx
 6597 39b1 4889D5   		movq	%rdx, %rbp
 6598 39b4 E8000000 		call	_ZN12_GLOBAL__N_122XmlTestReporterFixtureD2Ev
 6598      00
 6599 39b9 4889DF   		movq	%rbx, %rdi
 6600 39bc 4889EA   		movq	%rbp, %rdx
 6601 39bf BB010000 		movl	$1, %ebx
 6601      00
 6602 39c4 E95BFEFF 		jmp	.L890
 6602      FF
 6603              	.L950:
 6604 39c9 488D7C24 		leaq	48(%rsp), %rdi
 6604      30
 6605 39ce 4889C3   		movq	%rax, %rbx
 6606 39d1 4889D5   		movq	%rdx, %rbp
 6607 39d4 E8000000 		call	_ZNSt19basic_ostringstreamIcSt11char_traitsIcESaIcEED1Ev
 6607      00
 6608 39d9 4889DF   		movq	%rbx, %rdi
 6609 39dc 4889EA   		movq	%rbp, %rdx
 6610 39df 31DB     		xorl	%ebx, %ebx
 6611 39e1 E93EFEFF 		jmp	.L890
 6611      FF
 6612              	.L952:
 6613 39e6 488D7C24 		leaq	56(%rsp), %rdi
 6613      38
 6614 39eb 4889C3   		movq	%rax, %rbx
 6615 39ee 4889D5   		movq	%rdx, %rbp
 6616 39f1 E8000000 		call	_ZNSt15basic_stringbufIcSt11char_traitsIcESaIcEED1Ev
 6616      00
 6617 39f6 498B4424 		movq	-24(%r12), %rax
 6617      E8
 6618 39fb 488B0D00 		movq	_ZTTSt19basic_ostringstreamIcSt11char_traitsIcESaIcEE+16(%rip), %rcx
 6618      000000
 6619 3a02 4C896424 		movq	%r12, 48(%rsp)
 6619      30
 6620 3a07 48894C04 		movq	%rcx, 48(%rsp,%rax)
 6620      30
 6621              	.L889:
 6622 3a0c 488DBC24 		leaq	136(%rsp), %rdi
 6622      88000000 
 6623 3a14 48C78424 		movq	$_ZTVSt9basic_iosIcSt11char_traitsIcEE+16, 136(%rsp)
 6623      88000000 
 6623      00000000 
 6624 3a20 E8000000 		call	_ZNSt8ios_baseD2Ev
 6624      00
 6625 3a25 4889DF   		movq	%rbx, %rdi
 6626 3a28 4889EA   		movq	%rbp, %rdx
 6627 3a2b 31DB     		xorl	%ebx, %ebx
 6628 3a2d E9F2FDFF 		jmp	.L890
 6628      FF
 6629              	.L951:
 6630 3a32 4889C3   		movq	%rax, %rbx
 6631 3a35 4889D5   		movq	%rdx, %rbp
 6632 3a38 EBD2     		jmp	.L889
 6633              		.cfi_endproc
 6634              	.LFE1430:
 6635              		.section	.gcc_except_table
 6636              		.align 4
 6637              	.LLSDA1430:
 6638 0464 FF       		.byte	0xff
 6639 0465 03       		.byte	0x3
 6640 0466 6D       		.uleb128 .LLSDATT1430-.LLSDATTD1430
 6641              	.LLSDATTD1430:
 6642 0467 01       		.byte	0x1
 6643 0468 57       		.uleb128 .LLSDACSE1430-.LLSDACSB1430
 6644              	.LLSDACSB1430:
 6645 0469 B401     		.uleb128 .LEHB161-.LFB1430
 6646 046b 05       		.uleb128 .LEHE161-.LEHB161
 6647 046c 820D     		.uleb128 .L951-.LFB1430
 6648 046e 07       		.uleb128 0x7
 6649 046f C202     		.uleb128 .LEHB162-.LFB1430
 6650 0471 05       		.uleb128 .LEHE162-.LEHB162
 6651 0472 B60C     		.uleb128 .L952-.LFB1430
 6652 0474 07       		.uleb128 0x7
 6653 0475 D602     		.uleb128 .LEHB163-.LFB1430
 6654 0477 05       		.uleb128 .LEHE163-.LEHB163
 6655 0478 990C     		.uleb128 .L950-.LFB1430
 6656 047a 07       		.uleb128 0x7
 6657 047b EB02     		.uleb128 .LEHB164-.LFB1430
 6658 047d 05       		.uleb128 .LEHE164-.LEHB164
 6659 047e F90B     		.uleb128 .L945-.LFB1430
 6660 0480 07       		.uleb128 0x7
 6661 0481 F504     		.uleb128 .LEHB165-.LFB1430
 6662 0483 05       		.uleb128 .LEHE165-.LEHB165
 6663 0484 D908     		.uleb128 .L953-.LFB1430
 6664 0486 07       		.uleb128 0x7
 6665 0487 EF05     		.uleb128 .LEHB166-.LFB1430
 6666 0489 05       		.uleb128 .LEHE166-.LEHB166
 6667 048a F909     		.uleb128 .L944-.LFB1430
 6668 048c 05       		.uleb128 0x5
 6669 048d 9509     		.uleb128 .LEHB167-.LFB1430
 6670 048f 05       		.uleb128 .LEHE167-.LEHB167
 6671 0490 A00A     		.uleb128 .L947-.LFB1430
 6672 0492 00       		.uleb128 0
 6673 0493 B009     		.uleb128 .LEHB168-.LFB1430
 6674 0495 30       		.uleb128 .LEHE168-.LEHB168
 6675 0496 860A     		.uleb128 .L948-.LFB1430
 6676 0498 00       		.uleb128 0
 6677 0499 E509     		.uleb128 .LEHB169-.LFB1430
 6678 049b 05       		.uleb128 .LEHE169-.LEHB169
 6679 049c A00A     		.uleb128 .L947-.LFB1430
 6680 049e 00       		.uleb128 0
 6681 049f 9B0A     		.uleb128 .LEHB170-.LFB1430
 6682 04a1 05       		.uleb128 .LEHE170-.LEHB170
 6683 04a2 00       		.uleb128 0
 6684 04a3 00       		.uleb128 0
 6685 04a4 C20A     		.uleb128 .LEHB171-.LFB1430
 6686 04a6 1A       		.uleb128 .LEHE171-.LEHB171
 6687 04a7 C50B     		.uleb128 .L949-.LFB1430
 6688 04a9 00       		.uleb128 0
 6689 04aa DC0A     		.uleb128 .LEHB172-.LFB1430
 6690 04ac 05       		.uleb128 .LEHE172-.LEHB172
 6691 04ad 00       		.uleb128 0
 6692 04ae 00       		.uleb128 0
 6693 04af FD0A     		.uleb128 .LEHB173-.LFB1430
 6694 04b1 43       		.uleb128 .LEHE173-.LEHB173
 6695 04b2 F40B     		.uleb128 .L946-.LFB1430
 6696 04b4 00       		.uleb128 0
 6697 04b5 D00B     		.uleb128 .LEHB174-.LFB1430
 6698 04b7 05       		.uleb128 .LEHE174-.LEHB174
 6699 04b8 00       		.uleb128 0
 6700 04b9 00       		.uleb128 0
 6701 04ba D50B     		.uleb128 .LEHB175-.LFB1430
 6702 04bc 1A       		.uleb128 .LEHE175-.LEHB175
 6703 04bd C50B     		.uleb128 .L949-.LFB1430
 6704 04bf 00       		.uleb128 0
 6705              	.LLSDACSE1430:
 6706 04c0 03       		.byte	0x3
 6707 04c1 00       		.byte	0
 6708 04c2 02       		.byte	0x2
 6709 04c3 7D       		.byte	0x7d
 6710 04c4 01       		.byte	0x1
 6711 04c5 7D       		.byte	0x7d
 6712 04c6 00       		.byte	0
 6713 04c7 7D       		.byte	0x7d
 6714              		.align 4
 6715 04c8 00000000 		.long	0
 6716              	
 6717 04cc 00000000 		.long	_ZTISt9exception
 6718 04d0 00000000 		.long	_ZTIN8UnitTest15AssertExceptionE
 6719              	.LLSDATT1430:
 6720              		.text
 6722              		.section	.text.unlikely
 6723              	.LCOLDE63:
 6724              		.text
 6725              	.LHOTE63:
 6726              		.section	.rodata.str1.1
 6727              	.LC64:
 6728 0103 41204669 		.string	"A File"
 6728      6C6500
 6729              	.LC65:
 6730 010a 41205465 		.string	"A Test"
 6730      737400
 6731              	.LC66:
 6732 0111 41204661 		.string	"A Failure"
 6732      696C7572 
 6732      6500
 6733              		.section	.rodata.str1.8
 6734 047c 00000000 		.align 8
 6735              	.LC67:
 6736 0480 3C3F786D 		.string	"<?xml version=\"1.0\"?><unittest-results tests=\"1\" failedtests=\"1\" failures=\"1\" tim
 6736      6C207665 
 6736      7273696F 
 6736      6E3D2231 
 6736      2E30223F 
 6737              		.section	.text.unlikely
 6738              	.LCOLDB68:
 6739              		.text
 6740              	.LHOTB68:
 6741 3a3a 660F1F44 		.p2align 4,,15
 6741      0000
 6743              	_ZN8UnitTest11ExecuteTestIN12_GLOBAL__N_163XmlTestReporterFixtureSingleFailedTestReportSummaryForma
 6744              	.LFB1494:
 6745              		.cfi_startproc
 6746              		.cfi_personality 0x3,__gxx_personality_v0
 6747              		.cfi_lsda 0x3,.LLSDA1494
 6748 3a40 4154     		pushq	%r12
 6749              		.cfi_def_cfa_offset 16
 6750              		.cfi_offset 12, -16
 6751 3a42 55       		pushq	%rbp
 6752              		.cfi_def_cfa_offset 24
 6753              		.cfi_offset 6, -24
 6754 3a43 53       		pushq	%rbx
 6755              		.cfi_def_cfa_offset 32
 6756              		.cfi_offset 3, -32
 6757 3a44 4889F3   		movq	%rsi, %rbx
 6758 3a47 4881ECB0 		subq	$1712, %rsp
 6758      060000
 6759              		.cfi_def_cfa_offset 1744
 6760 3a4e 48893C24 		movq	%rdi, (%rsp)
 6761 3a52 48897424 		movq	%rsi, 8(%rsp)
 6761      08
 6762 3a57 64488B04 		movq	%fs:40, %rax
 6762      25280000 
 6762      00
 6763 3a60 48898424 		movq	%rax, 1704(%rsp)
 6763      A8060000 
 6764 3a68 31C0     		xorl	%eax, %eax
 6765              	.LEHB176:
 6766 3a6a E8000000 		call	_ZN8UnitTest11CurrentTest7DetailsEv
 6766      00
 6767              	.LEHE176:
 6768 3a6f 488DBC24 		leaq	576(%rsp), %rdi
 6768      40020000 
 6769 3a77 488918   		movq	%rbx, (%rax)
 6770              	.LEHB177:
 6771 3a7a E8000000 		call	_ZN8UnitTest16SignalTranslatorC1Ev
 6771      00
 6772              	.LEHE177:
 6773 3a7f 488B3D00 		movq	_ZN8UnitTest16SignalTranslator12s_jumpTargetE(%rip), %rdi
 6773      000000
 6774 3a86 BE010000 		movl	$1, %esi
 6774      00
 6775 3a8b E8000000 		call	__sigsetjmp
 6775      00
 6776 3a90 85C0     		testl	%eax, %eax
 6777 3a92 0F85D800 		jne	.L1066
 6777      0000
 6778 3a98 488D7C24 		leaq	112(%rsp), %rdi
 6778      70
 6779 3a9d 41B8E110 		movl	$4321, %r8d
 6779      0000
 6780 3aa3 B9000000 		movl	$.LC64, %ecx
 6780      00
 6781 3aa8 BA000000 		movl	$.LC44, %edx
 6781      00
 6782 3aad BE000000 		movl	$.LC65, %esi
 6782      00
 6783              	.LEHB178:
 6784 3ab2 E8000000 		call	_ZN8UnitTest11TestDetailsC1EPKcS2_S2_i
 6784      00
 6785 3ab7 488B2C24 		movq	(%rsp), %rbp
 6786 3abb 488D7424 		leaq	112(%rsp), %rsi
 6786      70
 6787 3ac0 488D9D60 		leaq	352(%rbp), %rbx
 6787      010000
 6788 3ac7 4889DF   		movq	%rbx, %rdi
 6789 3aca E8000000 		call	_ZN8UnitTest20DeferredTestReporter15ReportTestStartERKNS_11TestDetailsE
 6789      00
 6790 3acf 488D7424 		leaq	112(%rsp), %rsi
 6790      70
 6791 3ad4 BA000000 		movl	$.LC66, %edx
 6791      00
 6792 3ad9 4889DF   		movq	%rbx, %rdi
 6793 3adc E8000000 		call	_ZN8UnitTest20DeferredTestReporter13ReportFailureERKNS_11TestDetailsEPKc
 6793      00
 6794 3ae1 F30F1005 		movss	.LC48(%rip), %xmm0
 6794      00000000 
 6795 3ae9 B9010000 		movl	$1, %ecx
 6795      00
 6796 3aee BA010000 		movl	$1, %edx
 6796      00
 6797 3af3 BE010000 		movl	$1, %esi
 6797      00
 6798 3af8 4889DF   		movq	%rbx, %rdi
 6799 3afb E8000000 		call	_ZN8UnitTest15XmlTestReporter13ReportSummaryEiiif
 6799      00
 6800              	.LEHE178:
 6801 3b00 48C74424 		movq	$.LC67, 72(%rsp)
 6801      48000000 
 6801      00
 6802              	.LEHB179:
 6803 3b09 E8000000 		call	_ZN8UnitTest11CurrentTest7DetailsEv
 6803      00
 6804 3b0e 488B30   		movq	(%rax), %rsi
 6805 3b11 488DBC24 		leaq	176(%rsp), %rdi
 6805      B0000000 
 6806 3b19 BA700000 		movl	$112, %edx
 6806      00
 6807 3b1e E8000000 		call	_ZN8UnitTest11TestDetailsC1ERKS0_i
 6807      00
 6808              	.LEHE179:
 6809 3b23 488B4530 		movq	48(%rbp), %rax
 6810 3b27 48C74424 		movq	$_ZNSs4_Rep20_S_empty_rep_storageE+24, 32(%rsp)
 6810      20000000 
 6810      00
 6811 3b30 4885C0   		testq	%rax, %rax
 6812 3b33 0F843702 		je	.L984
 6812      0000
 6813 3b39 488B7D20 		movq	32(%rbp), %rdi
 6814 3b3d 4839F8   		cmpq	%rdi, %rax
 6815 3b40 764E     		jbe	.L985
 6816 3b42 488B0C24 		movq	(%rsp), %rcx
 6817 3b46 488B6928 		movq	40(%rcx), %rbp
 6818 3b4a 4839E8   		cmpq	%rbp, %rax
 6819 3b4d 0F84B501 		je	.L1040
 6819      0000
 6820 3b53 4885ED   		testq	%rbp, %rbp
 6821 3b56 0F859402 		jne	.L1067
 6821      0000
 6822 3b5c BF000000 		movl	$.LC34, %edi
 6822      00
 6823              	.LEHB180:
 6824 3b61 E8000000 		call	_ZSt19__throw_logic_errorPKc
 6824      00
 6825              	.LEHE180:
 6826 3b66 662E0F1F 		.p2align 4,,10
 6826      84000000 
 6826      0000
 6827              		.p2align 3
 6828              	.L1066:
 6829 3b70 BF080000 		movl	$8, %edi
 6829      00
 6830 3b75 E8000000 		call	__cxa_allocate_exception
 6830      00
 6831 3b7a 31D2     		xorl	%edx, %edx
 6832 3b7c 48C70000 		movq	$.LC24, (%rax)
 6832      000000
 6833 3b83 BE000000 		movl	$_ZTIPKc, %esi
 6833      00
 6834 3b88 4889C7   		movq	%rax, %rdi
 6835              	.LEHB181:
 6836 3b8b E8000000 		call	__cxa_throw
 6836      00
 6837              	.LEHE181:
 6838              		.p2align 4,,10
 6839              		.p2align 3
 6840              	.L985:
 6841 3b90 488B0424 		movq	(%rsp), %rax
 6842 3b94 488B6828 		movq	40(%rax), %rbp
 6843 3b98 4839EF   		cmpq	%rbp, %rdi
 6844 3b9b 0F84E700 		je	.L1041
 6844      0000
 6845 3ba1 4885ED   		testq	%rbp, %rbp
 6846 3ba4 0F859602 		jne	.L999
 6846      0000
 6847 3baa 4885FF   		testq	%rdi, %rdi
 6848 3bad 0F848D02 		je	.L999
 6848      0000
 6849 3bb3 BF000000 		movl	$.LC34, %edi
 6849      00
 6850              	.LEHB182:
 6851 3bb8 E8000000 		call	_ZSt19__throw_logic_errorPKc
 6851      00
 6852              	.LEHE182:
 6853              	.L1043:
 6854 3bbd 4889C3   		movq	%rax, %rbx
 6855 3bc0 4889D5   		movq	%rdx, %rbp
 6856              	.L1026:
 6857 3bc3 488DBC24 		leaq	576(%rsp), %rdi
 6857      40020000 
 6858 3bcb E8000000 		call	_ZN8UnitTest16SignalTranslatorD1Ev
 6858      00
 6859 3bd0 4889DF   		movq	%rbx, %rdi
 6860 3bd3 4889EA   		movq	%rbp, %rdx
 6861              	.L1027:
 6862 3bd6 4883FA01 		cmpq	$1, %rdx
 6863 3bda 0F845404 		je	.L1029
 6863      0000
 6864 3be0 4883FA02 		cmpq	$2, %rdx
 6865 3be4 0F852404 		jne	.L1068
 6865      0000
 6866 3bea E8000000 		call	__cxa_begin_catch
 6866      00
 6867 3bef 488DBC24 		leaq	208(%rsp), %rdi
 6867      D0000000 
 6868 3bf7 4889C3   		movq	%rax, %rbx
 6869              	.LEHB183:
 6870 3bfa E8000000 		call	_ZN8UnitTest15MemoryOutStreamC1Ev
 6870      00
 6871              	.LEHE183:
 6872 3bff 488B03   		movq	(%rbx), %rax
 6873 3c02 4889DF   		movq	%rbx, %rdi
 6874 3c05 FF5010   		call	*16(%rax)
 6875 3c08 488DBC24 		leaq	208(%rsp), %rdi
 6875      D0000000 
 6876 3c10 BE000000 		movl	$.LC32, %esi
 6876      00
 6877 3c15 4889C3   		movq	%rax, %rbx
 6878              	.LEHB184:
 6879 3c18 E8000000 		call	_ZStlsISt11char_traitsIcEERSt13basic_ostreamIcT_ES5_PKc
 6879      00
 6880 3c1d 4889C7   		movq	%rax, %rdi
 6881 3c20 4889DE   		movq	%rbx, %rsi
 6882 3c23 E8000000 		call	_ZStlsISt11char_traitsIcEERSt13basic_ostreamIcT_ES5_PKc
 6882      00
 6883 3c28 488DBC24 		leaq	208(%rsp), %rdi
 6883      D0000000 
 6884 3c30 E8000000 		call	_ZNK8UnitTest15MemoryOutStream7GetTextEv
 6884      00
 6885 3c35 4889C3   		movq	%rax, %rbx
 6886 3c38 E8000000 		call	_ZN8UnitTest11CurrentTest7ResultsEv
 6886      00
 6887 3c3d 488B7424 		movq	8(%rsp), %rsi
 6887      08
 6888 3c42 488B38   		movq	(%rax), %rdi
 6889 3c45 4889DA   		movq	%rbx, %rdx
 6890 3c48 E8000000 		call	_ZN8UnitTest11TestResults13OnTestFailureERKNS_11TestDetailsEPKc
 6890      00
 6891              	.LEHE184:
 6892 3c4d 488DBC24 		leaq	208(%rsp), %rdi
 6892      D0000000 
 6893              	.LEHB185:
 6894 3c55 E8000000 		call	_ZN8UnitTest15MemoryOutStreamD1Ev
 6894      00
 6895              	.LEHE185:
 6896              	.L1060:
 6897 3c5a E8000000 		call	__cxa_end_catch
 6897      00
 6898 3c5f 90       		.p2align 4,,10
 6899              		.p2align 3
 6900              	.L981:
 6901 3c60 488B8424 		movq	1704(%rsp), %rax
 6901      A8060000 
 6902 3c68 64483304 		xorq	%fs:40, %rax
 6902      25280000 
 6902      00
 6903 3c71 0F85DB02 		jne	.L1069
 6903      0000
 6904 3c77 4881C4B0 		addq	$1712, %rsp
 6904      060000
 6905              		.cfi_remember_state
 6906              		.cfi_def_cfa_offset 32
 6907 3c7e 5B       		popq	%rbx
 6908              		.cfi_def_cfa_offset 24
 6909 3c7f 5D       		popq	%rbp
 6910              		.cfi_def_cfa_offset 16
 6911 3c80 415C     		popq	%r12
 6912              		.cfi_def_cfa_offset 8
 6913 3c82 C3       		ret
 6914              		.p2align 4,,10
 6915 3c83 0F1F4400 		.p2align 3
 6915      00
 6916              	.L1041:
 6917              		.cfi_restore_state
 6918 3c88 B9000000 		movl	$_ZNSs4_Rep20_S_empty_rep_storageE+24, %ecx
 6918      00
 6919 3c8d 0F1F00   		.p2align 4,,10
 6920              		.p2align 3
 6921              	.L996:
 6922 3c90 488D7424 		leaq	48(%rsp), %rsi
 6922      30
 6923 3c95 488D7C24 		leaq	32(%rsp), %rdi
 6923      20
 6924 3c9a 48894C24 		movq	%rcx, 48(%rsp)
 6924      30
 6925              	.LEHB186:
 6926 3c9f E8000000 		call	_ZNSs6assignERKSs
 6926      00
 6927              	.LEHE186:
 6928 3ca4 488B4424 		movq	48(%rsp), %rax
 6928      30
 6929 3ca9 488D78E8 		leaq	-24(%rax), %rdi
 6930 3cad 4881FF00 		cmpq	$_ZNSs4_Rep20_S_empty_rep_storageE, %rdi
 6930      000000
 6931 3cb4 0F853E02 		jne	.L1070
 6931      0000
 6932              	.L992:
 6933              	.LEHB187:
 6934 3cba E8000000 		call	_ZN8UnitTest11CurrentTest7ResultsEv
 6934      00
 6935 3cbf 488B38   		movq	(%rax), %rdi
 6936 3cc2 488D8C24 		leaq	176(%rsp), %rcx
 6936      B0000000 
 6937 3cca 488D5424 		leaq	32(%rsp), %rdx
 6937      20
 6938 3ccf 488D7424 		leaq	72(%rsp), %rsi
 6938      48
 6939 3cd4 E8000000 		call	_ZN8UnitTest10CheckEqualIPKcSsEEvRNS_11TestResultsERKT_RKT0_RKNS_11TestDetailsE
 6939      00
 6940              	.LEHE187:
 6941 3cd9 488B4424 		movq	32(%rsp), %rax
 6941      20
 6942 3cde 488D78E8 		leaq	-24(%rax), %rdi
 6943 3ce2 4881FF00 		cmpq	$_ZNSs4_Rep20_S_empty_rep_storageE, %rdi
 6943      000000
 6944 3ce9 0F85D901 		jne	.L1071
 6944      0000
 6945              	.L1017:
 6946 3cef 488DBC24 		leaq	576(%rsp), %rdi
 6946      40020000 
 6947              	.LEHB188:
 6948 3cf7 E8000000 		call	_ZN8UnitTest16SignalTranslatorD1Ev
 6948      00
 6949              	.LEHE188:
 6950 3cfc E95FFFFF 		jmp	.L981
 6950      FF
 6951              		.p2align 4,,10
 6952 3d01 0F1F8000 		.p2align 3
 6952      000000
 6953              	.L1040:
 6954 3d08 B9000000 		movl	$_ZNSs4_Rep20_S_empty_rep_storageE+24, %ecx
 6954      00
 6955 3d0d 0F1F00   		.p2align 4,,10
 6956              		.p2align 3
 6957              	.L986:
 6958 3d10 488D7424 		leaq	64(%rsp), %rsi
 6958      40
 6959 3d15 488D7C24 		leaq	32(%rsp), %rdi
 6959      20
 6960 3d1a 48894C24 		movq	%rcx, 64(%rsp)
 6960      40
 6961              	.LEHB189:
 6962 3d1f E8000000 		call	_ZNSs6assignERKSs
 6962      00
 6963              	.LEHE189:
 6964 3d24 488B4424 		movq	64(%rsp), %rax
 6964      40
 6965 3d29 488D78E8 		leaq	-24(%rax), %rdi
 6966 3d2d 4881FF00 		cmpq	$_ZNSs4_Rep20_S_empty_rep_storageE, %rdi
 6966      000000
 6967 3d34 7484     		je	.L992
 6968 3d36 BA000000 		movl	$_ZL28__gthrw___pthread_key_createPjPFvPvE, %edx
 6968      00
 6969 3d3b 4885D2   		testq	%rdx, %rdx
 6970 3d3e 0F84F101 		je	.L993
 6970      0000
 6971 3d44 BAFFFFFF 		movl	$-1, %edx
 6971      FF
 6972 3d49 F00FC150 		lock xaddl	%edx, -8(%rax)
 6972      F8
 6973 3d4e 89D0     		movl	%edx, %eax
 6974              	.L994:
 6975 3d50 85C0     		testl	%eax, %eax
 6976 3d52 0F8F62FF 		jg	.L992
 6976      FFFF
 6977 3d58 488D7424 		leaq	29(%rsp), %rsi
 6977      1D
 6978 3d5d E8000000 		call	_ZNSs4_Rep10_M_destroyERKSaIcE
 6978      00
 6979 3d62 E953FFFF 		jmp	.L992
 6979      FF
 6980 3d67 660F1F84 		.p2align 4,,10
 6980      00000000 
 6980      00
 6981              		.p2align 3
 6982              	.L984:
 6983 3d70 488B3424 		movq	(%rsp), %rsi
 6984 3d74 488D7C24 		leaq	32(%rsp), %rdi
 6984      20
 6985 3d79 4883C650 		addq	$80, %rsi
 6986              	.LEHB190:
 6987 3d7d E8000000 		call	_ZNSs6assignERKSs
 6987      00
 6988              	.LEHE190:
 6989 3d82 E933FFFF 		jmp	.L992
 6989      FF
 6990              	.L1051:
 6991 3d87 4889C3   		movq	%rax, %rbx
 6992              	.L1008:
 6993 3d8a 488B4424 		movq	32(%rsp), %rax
 6993      20
 6994 3d8f 488D78E8 		leaq	-24(%rax), %rdi
 6995 3d93 4881FF00 		cmpq	$_ZNSs4_Rep20_S_empty_rep_storageE, %rdi
 6995      000000
 6996 3d9a 740A     		je	.L1024
 6997 3d9c 488D7424 		leaq	25(%rsp), %rsi
 6997      19
 6998 3da1 E8000000 		call	_ZNSs4_Rep10_M_disposeERKSaIcE.part.5
 6998      00
 6999              	.L1024:
 7000 3da6 4889D8   		movq	%rbx, %rax
 7001              	.L1014:
 7002 3da9 4889C7   		movq	%rax, %rdi
 7003 3dac E8000000 		call	__cxa_begin_catch
 7003      00
 7004              	.LEHB191:
 7005 3db1 E8000000 		call	_ZN8UnitTest11CurrentTest7DetailsEv
 7005      00
 7006 3db6 488B30   		movq	(%rax), %rsi
 7007 3db9 488DBC24 		leaq	144(%rsp), %rdi
 7007      90000000 
 7008 3dc1 BA700000 		movl	$112, %edx
 7008      00
 7009 3dc6 E8000000 		call	_ZN8UnitTest11TestDetailsC1ERKS0_i
 7009      00
 7010 3dcb E8000000 		call	_ZN8UnitTest11CurrentTest7ResultsEv
 7010      00
 7011 3dd0 488B38   		movq	(%rax), %rdi
 7012 3dd3 488DB424 		leaq	144(%rsp), %rsi
 7012      90000000 
 7013 3ddb BA000000 		movl	$.LC51, %edx
 7013      00
 7014 3de0 E8000000 		call	_ZN8UnitTest11TestResults13OnTestFailureERKNS_11TestDetailsEPKc
 7014      00
 7015              	.LEHE191:
 7016              	.LEHB192:
 7017 3de5 E8000000 		call	__cxa_end_catch
 7017      00
 7018              	.LEHE192:
 7019 3dea E900FFFF 		jmp	.L1017
 7019      FF
 7020 3def 90       		.p2align 4,,10
 7021              		.p2align 3
 7022              	.L1067:
 7023 3df0 4829E8   		subq	%rbp, %rax
 7024 3df3 488D5424 		leaq	31(%rsp), %rdx
 7024      1F
 7025 3df8 31F6     		xorl	%esi, %esi
 7026 3dfa 4889C7   		movq	%rax, %rdi
 7027 3dfd 4889C3   		movq	%rax, %rbx
 7028              	.LEHB193:
 7029 3e00 E8000000 		call	_ZNSs4_Rep9_S_createEmmRKSaIcE
 7029      00
 7030 3e05 4883FB01 		cmpq	$1, %rbx
 7031 3e09 4989C4   		movq	%rax, %r12
 7032 3e0c 488D4818 		leaq	24(%rax), %rcx
 7033 3e10 757E     		jne	.L989
 7034 3e12 0FB64500 		movzbl	0(%rbp), %eax
 7035 3e16 41884424 		movb	%al, 24(%r12)
 7035      18
 7036              	.L990:
 7037 3e1b 4981FC00 		cmpq	$_ZNSs4_Rep20_S_empty_rep_storageE, %r12
 7037      000000
 7038 3e22 0F84E8FE 		je	.L986
 7038      FFFF
 7039 3e28 41C74424 		movl	$0, 16(%r12)
 7039      10000000 
 7039      00
 7040 3e31 49891C24 		movq	%rbx, (%r12)
 7041 3e35 41C6441C 		movb	$0, 24(%r12,%rbx)
 7041      1800
 7042 3e3b E9D0FEFF 		jmp	.L986
 7042      FF
 7043              	.L999:
 7044 3e40 4889FB   		movq	%rdi, %rbx
 7045 3e43 488D5424 		leaq	30(%rsp), %rdx
 7045      1E
 7046 3e48 31F6     		xorl	%esi, %esi
 7047 3e4a 4829EB   		subq	%rbp, %rbx
 7048 3e4d 4889DF   		movq	%rbx, %rdi
 7049 3e50 E8000000 		call	_ZNSs4_Rep9_S_createEmmRKSaIcE
 7049      00
 7050              	.LEHE193:
 7051 3e55 4883FB01 		cmpq	$1, %rbx
 7052 3e59 4989C4   		movq	%rax, %r12
 7053 3e5c 488D4818 		leaq	24(%rax), %rcx
 7054 3e60 754E     		jne	.L1000
 7055 3e62 0FB64500 		movzbl	0(%rbp), %eax
 7056 3e66 41884424 		movb	%al, 24(%r12)
 7056      18
 7057              	.L1001:
 7058 3e6b 4981FC00 		cmpq	$_ZNSs4_Rep20_S_empty_rep_storageE, %r12
 7058      000000
 7059 3e72 0F8418FE 		je	.L996
 7059      FFFF
 7060 3e78 41C74424 		movl	$0, 16(%r12)
 7060      10000000 
 7060      00
 7061 3e81 49891C24 		movq	%rbx, (%r12)
 7062 3e85 41C6441C 		movb	$0, 24(%r12,%rbx)
 7062      1800
 7063 3e8b E900FEFF 		jmp	.L996
 7063      FF
 7064              		.p2align 4,,10
 7065              		.p2align 3
 7066              	.L989:
 7067 3e90 4889CF   		movq	%rcx, %rdi
 7068 3e93 4889DA   		movq	%rbx, %rdx
 7069 3e96 4889EE   		movq	%rbp, %rsi
 7070 3e99 E8000000 		call	memcpy
 7070      00
 7071 3e9e 4889C1   		movq	%rax, %rcx
 7072 3ea1 E975FFFF 		jmp	.L990
 7072      FF
 7073 3ea6 662E0F1F 		.p2align 4,,10
 7073      84000000 
 7073      0000
 7074              		.p2align 3
 7075              	.L1000:
 7076 3eb0 4889CF   		movq	%rcx, %rdi
 7077 3eb3 4889DA   		movq	%rbx, %rdx
 7078 3eb6 4889EE   		movq	%rbp, %rsi
 7079 3eb9 E8000000 		call	memcpy
 7079      00
 7080 3ebe 4889C1   		movq	%rax, %rcx
 7081 3ec1 EBA8     		jmp	.L1001
 7082              		.p2align 4,,10
 7083 3ec3 0F1F4400 		.p2align 3
 7083      00
 7084              	.L1071:
 7085 3ec8 BA000000 		movl	$_ZL28__gthrw___pthread_key_createPjPFvPvE, %edx
 7085      00
 7086 3ecd 4885D2   		testq	%rdx, %rdx
 7087 3ed0 7456     		je	.L1018
 7088 3ed2 BAFFFFFF 		movl	$-1, %edx
 7088      FF
 7089 3ed7 F00FC150 		lock xaddl	%edx, -8(%rax)
 7089      F8
 7090 3edc 89D0     		movl	%edx, %eax
 7091              	.L1019:
 7092 3ede 85C0     		testl	%eax, %eax
 7093 3ee0 0F8F09FE 		jg	.L1017
 7093      FFFF
 7094 3ee6 488D7424 		leaq	24(%rsp), %rsi
 7094      18
 7095 3eeb E8000000 		call	_ZNSs4_Rep10_M_destroyERKSaIcE
 7095      00
 7096 3ef0 E9FAFDFF 		jmp	.L1017
 7096      FF
 7097              		.p2align 4,,10
 7098 3ef5 0F1F00   		.p2align 3
 7099              	.L1070:
 7100 3ef8 BA000000 		movl	$_ZL28__gthrw___pthread_key_createPjPFvPvE, %edx
 7100      00
 7101 3efd 4885D2   		testq	%rdx, %rdx
 7102 3f00 7443     		je	.L1003
 7103 3f02 BAFFFFFF 		movl	$-1, %edx
 7103      FF
 7104 3f07 F00FC150 		lock xaddl	%edx, -8(%rax)
 7104      F8
 7105 3f0c 89D0     		movl	%edx, %eax
 7106              	.L1004:
 7107 3f0e 85C0     		testl	%eax, %eax
 7108 3f10 0F8FA4FD 		jg	.L992
 7108      FFFF
 7109 3f16 488D7424 		leaq	28(%rsp), %rsi
 7109      1C
 7110 3f1b E8000000 		call	_ZNSs4_Rep10_M_destroyERKSaIcE
 7110      00
 7111 3f20 E995FDFF 		jmp	.L992
 7111      FF
 7112              		.p2align 4,,10
 7113 3f25 0F1F00   		.p2align 3
 7114              	.L1018:
 7115 3f28 8B50F8   		movl	-8(%rax), %edx
 7116 3f2b 8D4AFF   		leal	-1(%rdx), %ecx
 7117 3f2e 8948F8   		movl	%ecx, -8(%rax)
 7118 3f31 89D0     		movl	%edx, %eax
 7119 3f33 EBA9     		jmp	.L1019
 7120              	.L993:
 7121 3f35 8B50F8   		movl	-8(%rax), %edx
 7122 3f38 8D4AFF   		leal	-1(%rdx), %ecx
 7123 3f3b 8948F8   		movl	%ecx, -8(%rax)
 7124 3f3e 89D0     		movl	%edx, %eax
 7125 3f40 E90BFEFF 		jmp	.L994
 7125      FF
 7126              	.L1003:
 7127 3f45 8B50F8   		movl	-8(%rax), %edx
 7128 3f48 8D4AFF   		leal	-1(%rdx), %ecx
 7129 3f4b 8948F8   		movl	%ecx, -8(%rax)
 7130 3f4e 89D0     		movl	%edx, %eax
 7131 3f50 EBBC     		jmp	.L1004
 7132              	.L1069:
 7133 3f52 E8000000 		call	__stack_chk_fail
 7133      00
 7134              	.L1048:
 7135 3f57 4889C3   		movq	%rax, %rbx
 7136 3f5a 4889D5   		movq	%rdx, %rbp
 7137 3f5d E8000000 		call	__cxa_end_catch
 7137      00
 7138 3f62 E95CFCFF 		jmp	.L1026
 7138      FF
 7139              	.L1042:
 7140 3f67 4889C7   		movq	%rax, %rdi
 7141 3f6a E967FCFF 		jmp	.L1027
 7141      FF
 7142              	.L1052:
 7143 3f6f 4889C3   		movq	%rax, %rbx
 7144 3f72 488B4424 		movq	48(%rsp), %rax
 7144      30
 7145 3f77 488D78E8 		leaq	-24(%rax), %rdi
 7146 3f7b 4881FF00 		cmpq	$_ZNSs4_Rep20_S_empty_rep_storageE, %rdi
 7146      000000
 7147 3f82 0F8402FE 		je	.L1008
 7147      FFFF
 7148 3f88 488D7424 		leaq	26(%rsp), %rsi
 7148      1A
 7149 3f8d E8000000 		call	_ZNSs4_Rep10_M_disposeERKSaIcE.part.5
 7149      00
 7150 3f92 E9F3FDFF 		jmp	.L1008
 7150      FF
 7151              	.L1049:
 7152 3f97 E90DFEFF 		jmp	.L1014
 7152      FF
 7153              	.L1050:
 7154 3f9c 4889C3   		movq	%rax, %rbx
 7155 3f9f 488B4424 		movq	32(%rsp), %rax
 7155      20
 7156 3fa4 488D78E8 		leaq	-24(%rax), %rdi
 7157 3fa8 4881FF00 		cmpq	$_ZNSs4_Rep20_S_empty_rep_storageE, %rdi
 7157      000000
 7158 3faf 0F84F1FD 		je	.L1024
 7158      FFFF
 7159 3fb5 488D7424 		leaq	23(%rsp), %rsi
 7159      17
 7160 3fba E8000000 		call	_ZNSs4_Rep10_M_disposeERKSaIcE.part.5
 7160      00
 7161 3fbf E9E2FDFF 		jmp	.L1024
 7161      FF
 7162              	.L1053:
 7163 3fc4 4889C3   		movq	%rax, %rbx
 7164 3fc7 488B4424 		movq	64(%rsp), %rax
 7164      40
 7165 3fcc 488D78E8 		leaq	-24(%rax), %rdi
 7166 3fd0 4881FF00 		cmpq	$_ZNSs4_Rep20_S_empty_rep_storageE, %rdi
 7166      000000
 7167 3fd7 0F84ADFD 		je	.L1008
 7167      FFFF
 7168 3fdd 488D7424 		leaq	27(%rsp), %rsi
 7168      1B
 7169 3fe2 E8000000 		call	_ZNSs4_Rep10_M_disposeERKSaIcE.part.5
 7169      00
 7170 3fe7 E99EFDFF 		jmp	.L1008
 7170      FF
 7171              	.L1046:
 7172 3fec 488DBC24 		leaq	208(%rsp), %rdi
 7172      D0000000 
 7173 3ff4 4889C3   		movq	%rax, %rbx
 7174 3ff7 E8000000 		call	_ZN8UnitTest15MemoryOutStreamD1Ev
 7174      00
 7175              	.L1033:
 7176 3ffc E8000000 		call	__cxa_end_catch
 7176      00
 7177 4001 4889DF   		movq	%rbx, %rdi
 7178              	.LEHB194:
 7179 4004 E8000000 		call	_Unwind_Resume
 7179      00
 7180              	.LEHE194:
 7181              	.L1045:
 7182              	.L1061:
 7183 4009 4889C3   		movq	%rax, %rbx
 7184 400c EBEE     		jmp	.L1033
 7185              	.L1068:
 7186 400e E8000000 		call	__cxa_begin_catch
 7186      00
 7187              	.LEHB195:
 7188 4013 E8000000 		call	_ZN8UnitTest11CurrentTest7ResultsEv
 7188      00
 7189 4018 488B7424 		movq	8(%rsp), %rsi
 7189      08
 7190 401d 488B38   		movq	(%rax), %rdi
 7191 4020 BA000000 		movl	$.LC33, %edx
 7191      00
 7192 4025 E8000000 		call	_ZN8UnitTest11TestResults13OnTestFailureERKNS_11TestDetailsEPKc
 7192      00
 7193              	.LEHE195:
 7194              	.LEHB196:
 7195 402a E8000000 		call	__cxa_end_catch
 7195      00
 7196              	.LEHE196:
 7197 402f E92CFCFF 		jmp	.L981
 7197      FF
 7198              	.L1029:
 7199 4034 E8000000 		call	__cxa_begin_catch
 7199      00
 7200 4039 4889C3   		movq	%rax, %rbx
 7201 403c 488B00   		movq	(%rax), %rax
 7202 403f 4889DF   		movq	%rbx, %rdi
 7203 4042 FF5010   		call	*16(%rax)
 7204 4045 4889DF   		movq	%rbx, %rdi
 7205 4048 4889C5   		movq	%rax, %rbp
 7206              	.LEHB197:
 7207 404b E8000000 		call	_ZNK8UnitTest15AssertException10LineNumberEv
 7207      00
 7208 4050 4889DF   		movq	%rbx, %rdi
 7209 4053 4189C4   		movl	%eax, %r12d
 7210 4056 E8000000 		call	_ZNK8UnitTest15AssertException8FilenameEv
 7210      00
 7211 405b 4889C1   		movq	%rax, %rcx
 7212 405e 488B4424 		movq	8(%rsp), %rax
 7212      08
 7213 4063 488D7C24 		leaq	80(%rsp), %rdi
 7213      50
 7214 4068 4589E0   		movl	%r12d, %r8d
 7215 406b 488B7008 		movq	8(%rax), %rsi
 7216 406f 488B10   		movq	(%rax), %rdx
 7217 4072 E8000000 		call	_ZN8UnitTest11TestDetailsC1EPKcS2_S2_i
 7217      00
 7218 4077 E8000000 		call	_ZN8UnitTest11CurrentTest7ResultsEv
 7218      00
 7219 407c 488B38   		movq	(%rax), %rdi
 7220 407f 488D7424 		leaq	80(%rsp), %rsi
 7220      50
 7221 4084 4889EA   		movq	%rbp, %rdx
 7222 4087 E8000000 		call	_ZN8UnitTest11TestResults13OnTestFailureERKNS_11TestDetailsEPKc
 7222      00
 7223              	.LEHE197:
 7224 408c E9C9FBFF 		jmp	.L1060
 7224      FF
 7225              	.L1047:
 7226 4091 4889C3   		movq	%rax, %rbx
 7227 4094 E8000000 		call	__cxa_end_catch
 7227      00
 7228 4099 4889DF   		movq	%rbx, %rdi
 7229              	.LEHB198:
 7230 409c E8000000 		call	_Unwind_Resume
 7230      00
 7231              	.LEHE198:
 7232              	.L1044:
 7233 40a1 E963FFFF 		jmp	.L1061
 7233      FF
 7234              		.cfi_endproc
 7235              	.LFE1494:
 7236              		.section	.gcc_except_table
 7237              		.align 4
 7238              	.LLSDA1494:
 7239 04d4 FF       		.byte	0xff
 7240 04d5 03       		.byte	0x3
 7241 04d6 9C01     		.uleb128 .LLSDATT1494-.LLSDATTD1494
 7242              	.LLSDATTD1494:
 7243 04d8 01       		.byte	0x1
 7244 04d9 8301     		.uleb128 .LLSDACSE1494-.LLSDACSB1494
 7245              	.LLSDACSB1494:
 7246 04db 2A       		.uleb128 .LEHB176-.LFB1494
 7247 04dc 05       		.uleb128 .LEHE176-.LEHB176
 7248 04dd 00       		.uleb128 0
 7249 04de 00       		.uleb128 0
 7250 04df 3A       		.uleb128 .LEHB177-.LFB1494
 7251 04e0 05       		.uleb128 .LEHE177-.LEHB177
 7252 04e1 A70A     		.uleb128 .L1042-.LFB1494
 7253 04e3 05       		.uleb128 0x5
 7254 04e4 72       		.uleb128 .LEHB178-.LFB1494
 7255 04e5 4E       		.uleb128 .LEHE178-.LEHB178
 7256 04e6 FD02     		.uleb128 .L1043-.LFB1494
 7257 04e8 07       		.uleb128 0x7
 7258 04e9 C901     		.uleb128 .LEHB179-.LFB1494
 7259 04eb 1A       		.uleb128 .LEHE179-.LEHB179
 7260 04ec D70A     		.uleb128 .L1049-.LFB1494
 7261 04ee 01       		.uleb128 0x1
 7262 04ef A102     		.uleb128 .LEHB180-.LFB1494
 7263 04f1 05       		.uleb128 .LEHE180-.LEHB180
 7264 04f2 C706     		.uleb128 .L1051-.LFB1494
 7265 04f4 01       		.uleb128 0x1
 7266 04f5 CB02     		.uleb128 .LEHB181-.LFB1494
 7267 04f7 05       		.uleb128 .LEHE181-.LEHB181
 7268 04f8 FD02     		.uleb128 .L1043-.LFB1494
 7269 04fa 07       		.uleb128 0x7
 7270 04fb F802     		.uleb128 .LEHB182-.LFB1494
 7271 04fd 05       		.uleb128 .LEHE182-.LEHB182
 7272 04fe C706     		.uleb128 .L1051-.LFB1494
 7273 0500 01       		.uleb128 0x1
 7274 0501 BA03     		.uleb128 .LEHB183-.LFB1494
 7275 0503 05       		.uleb128 .LEHE183-.LEHB183
 7276 0504 C90B     		.uleb128 .L1045-.LFB1494
 7277 0506 00       		.uleb128 0
 7278 0507 D803     		.uleb128 .LEHB184-.LFB1494
 7279 0509 35       		.uleb128 .LEHE184-.LEHB184
 7280 050a AC0B     		.uleb128 .L1046-.LFB1494
 7281 050c 00       		.uleb128 0
 7282 050d 9504     		.uleb128 .LEHB185-.LFB1494
 7283 050f 05       		.uleb128 .LEHE185-.LEHB185
 7284 0510 C90B     		.uleb128 .L1045-.LFB1494
 7285 0512 00       		.uleb128 0
 7286 0513 DF04     		.uleb128 .LEHB186-.LFB1494
 7287 0515 05       		.uleb128 .LEHE186-.LEHB186
 7288 0516 AF0A     		.uleb128 .L1052-.LFB1494
 7289 0518 01       		.uleb128 0x1
 7290 0519 FA04     		.uleb128 .LEHB187-.LFB1494
 7291 051b 1F       		.uleb128 .LEHE187-.LEHB187
 7292 051c DC0A     		.uleb128 .L1050-.LFB1494
 7293 051e 01       		.uleb128 0x1
 7294 051f B705     		.uleb128 .LEHB188-.LFB1494
 7295 0521 05       		.uleb128 .LEHE188-.LEHB188
 7296 0522 A70A     		.uleb128 .L1042-.LFB1494
 7297 0524 05       		.uleb128 0x5
 7298 0525 DF05     		.uleb128 .LEHB189-.LFB1494
 7299 0527 05       		.uleb128 .LEHE189-.LEHB189
 7300 0528 840B     		.uleb128 .L1053-.LFB1494
 7301 052a 01       		.uleb128 0x1
 7302 052b BD06     		.uleb128 .LEHB190-.LFB1494
 7303 052d 05       		.uleb128 .LEHE190-.LEHB190
 7304 052e C706     		.uleb128 .L1051-.LFB1494
 7305 0530 01       		.uleb128 0x1
 7306 0531 F106     		.uleb128 .LEHB191-.LFB1494
 7307 0533 34       		.uleb128 .LEHE191-.LEHB191
 7308 0534 970A     		.uleb128 .L1048-.LFB1494
 7309 0536 07       		.uleb128 0x7
 7310 0537 A507     		.uleb128 .LEHB192-.LFB1494
 7311 0539 05       		.uleb128 .LEHE192-.LEHB192
 7312 053a FD02     		.uleb128 .L1043-.LFB1494
 7313 053c 07       		.uleb128 0x7
 7314 053d C007     		.uleb128 .LEHB193-.LFB1494
 7315 053f 55       		.uleb128 .LEHE193-.LEHB193
 7316 0540 C706     		.uleb128 .L1051-.LFB1494
 7317 0542 01       		.uleb128 0x1
 7318 0543 C40B     		.uleb128 .LEHB194-.LFB1494
 7319 0545 05       		.uleb128 .LEHE194-.LEHB194
 7320 0546 00       		.uleb128 0
 7321 0547 00       		.uleb128 0
 7322 0548 D30B     		.uleb128 .LEHB195-.LFB1494
 7323 054a 17       		.uleb128 .LEHE195-.LEHB195
 7324 054b D10C     		.uleb128 .L1047-.LFB1494
 7325 054d 00       		.uleb128 0
 7326 054e EA0B     		.uleb128 .LEHB196-.LFB1494
 7327 0550 05       		.uleb128 .LEHE196-.LEHB196
 7328 0551 00       		.uleb128 0
 7329 0552 00       		.uleb128 0
 7330 0553 8B0C     		.uleb128 .LEHB197-.LFB1494
 7331 0555 41       		.uleb128 .LEHE197-.LEHB197
 7332 0556 E10C     		.uleb128 .L1044-.LFB1494
 7333 0558 00       		.uleb128 0
 7334 0559 DC0C     		.uleb128 .LEHB198-.LFB1494
 7335 055b 05       		.uleb128 .LEHE198-.LEHB198
 7336 055c 00       		.uleb128 0
 7337 055d 00       		.uleb128 0
 7338              	.LLSDACSE1494:
 7339 055e 03       		.byte	0x3
 7340 055f 00       		.byte	0
 7341 0560 02       		.byte	0x2
 7342 0561 7D       		.byte	0x7d
 7343 0562 01       		.byte	0x1
 7344 0563 7D       		.byte	0x7d
 7345 0564 00       		.byte	0
 7346 0565 7D       		.byte	0x7d
 7347 0566 0000     		.align 4
 7348 0568 00000000 		.long	0
 7349              	
 7350 056c 00000000 		.long	_ZTISt9exception
 7351 0570 00000000 		.long	_ZTIN8UnitTest15AssertExceptionE
 7352              	.LLSDATT1494:
 7353              		.text
 7355              		.section	.text.unlikely
 7356              	.LCOLDE68:
 7357              		.text
 7358              	.LHOTE68:
 7359              		.section	.text.unlikely
 7360              		.align 2
 7361              	.LCOLDB69:
 7362              		.text
 7363              	.LHOTB69:
 7364              		.align 2
 7365 40a6 662E0F1F 		.p2align 4,,15
 7365      84000000 
 7365      0000
 7367              	_ZNK12_GLOBAL__N_161TestXmlTestReporterFixtureSingleFailedTestReportSummaryFormat7RunImplEv:
 7368              	.LFB1419:
 7369              		.cfi_startproc
 7370              		.cfi_personality 0x3,__gxx_personality_v0
 7371              		.cfi_lsda 0x3,.LLSDA1419
 7372 40b0 4157     		pushq	%r15
 7373              		.cfi_def_cfa_offset 16
 7374              		.cfi_offset 15, -16
 7375 40b2 4156     		pushq	%r14
 7376              		.cfi_def_cfa_offset 24
 7377              		.cfi_offset 14, -24
 7378 40b4 4155     		pushq	%r13
 7379              		.cfi_def_cfa_offset 32
 7380              		.cfi_offset 13, -32
 7381 40b6 4154     		pushq	%r12
 7382              		.cfi_def_cfa_offset 40
 7383              		.cfi_offset 12, -40
 7384 40b8 4C8D6F08 		leaq	8(%rdi), %r13
 7385 40bc 55       		pushq	%rbp
 7386              		.cfi_def_cfa_offset 48
 7387              		.cfi_offset 6, -48
 7388 40bd 53       		pushq	%rbx
 7389              		.cfi_def_cfa_offset 56
 7390              		.cfi_offset 3, -56
 7391 40be 4881ECD8 		subq	$472, %rsp
 7391      010000
 7392              		.cfi_def_cfa_offset 528
 7393 40c5 48897C24 		movq	%rdi, 8(%rsp)
 7393      08
 7394 40ca 488DBC24 		leaq	136(%rsp), %rdi
 7394      88000000 
 7395 40d2 64488B0C 		movq	%fs:40, %rcx
 7395      25280000 
 7395      00
 7396 40db 48898C24 		movq	%rcx, 456(%rsp)
 7396      C8010000 
 7397 40e3 31C9     		xorl	%ecx, %ecx
 7398 40e5 E8000000 		call	_ZNSt8ios_baseC2Ev
 7398      00
 7399 40ea 4C8B2500 		movq	_ZTTSt19basic_ostringstreamIcSt11char_traitsIcESaIcEE+8(%rip), %r12
 7399      000000
 7400 40f1 C6842468 		movb	$0, 360(%rsp)
 7400      01000000 
 7401 40f9 488D7C24 		leaq	48(%rsp), %rdi
 7401      30
 7402 40fe 488B0500 		movq	_ZTTSt19basic_ostringstreamIcSt11char_traitsIcESaIcEE+16(%rip), %rax
 7402      000000
 7403 4105 48C78424 		movq	$_ZTVSt9basic_iosIcSt11char_traitsIcEE+16, 136(%rsp)
 7403      88000000 
 7403      00000000 
 7404 4111 31F6     		xorl	%esi, %esi
 7405 4113 48C78424 		movq	$0, 352(%rsp)
 7405      60010000 
 7405      00000000 
 7406 411f C6842469 		movb	$0, 361(%rsp)
 7406      01000000 
 7407 4127 49037C24 		addq	-24(%r12), %rdi
 7407      E8
 7408 412c 48C78424 		movq	$0, 368(%rsp)
 7408      70010000 
 7408      00000000 
 7409 4138 48C78424 		movq	$0, 376(%rsp)
 7409      78010000 
 7409      00000000 
 7410 4144 48C78424 		movq	$0, 384(%rsp)
 7410      80010000 
 7410      00000000 
 7411 4150 48C78424 		movq	$0, 392(%rsp)
 7411      88010000 
 7411      00000000 
 7412 415c 4C896424 		movq	%r12, 48(%rsp)
 7412      30
 7413 4161 488907   		movq	%rax, (%rdi)
 7414              	.LEHB199:
 7415 4164 E8000000 		call	_ZNSt9basic_iosIcSt11char_traitsIcEE4initEPSt15basic_streambufIcS1_E
 7415      00
 7416              	.LEHE199:
 7417 4169 488D7C24 		leaq	112(%rsp), %rdi
 7417      70
 7418 416e 48C74424 		movq	$_ZTVSt19basic_ostringstreamIcSt11char_traitsIcESaIcEE+24, 48(%rsp)
 7418      30000000 
 7418      00
 7419 4177 48C78424 		movq	$_ZTVSt19basic_ostringstreamIcSt11char_traitsIcESaIcEE+64, 136(%rsp)
 7419      88000000 
 7419      00000000 
 7420 4183 48C74424 		movq	$_ZTVSt15basic_streambufIcSt11char_traitsIcEE+16, 56(%rsp)
 7420      38000000 
 7420      00
 7421 418c 48C74424 		movq	$0, 64(%rsp)
 7421      40000000 
 7421      00
 7422 4195 48C74424 		movq	$0, 72(%rsp)
 7422      48000000 
 7422      00
 7423 419e 48C74424 		movq	$0, 80(%rsp)
 7423      50000000 
 7423      00
 7424 41a7 48C74424 		movq	$0, 88(%rsp)
 7424      58000000 
 7424      00
 7425 41b0 48C74424 		movq	$0, 96(%rsp)
 7425      60000000 
 7425      00
 7426 41b9 48C74424 		movq	$0, 104(%rsp)
 7426      68000000 
 7426      00
 7427 41c2 E8000000 		call	_ZNSt6localeC1Ev
 7427      00
 7428 41c7 488D4424 		leaq	48(%rsp), %rax
 7428      30
 7429 41cc 488D7424 		leaq	56(%rsp), %rsi
 7429      38
 7430 41d1 48C74424 		movq	$_ZTVSt15basic_stringbufIcSt11char_traitsIcESaIcEE+16, 56(%rsp)
 7430      38000000 
 7430      00
 7431 41da C7442478 		movl	$16, 120(%rsp)
 7431      10000000 
 7432 41e2 48C78424 		movq	$_ZNSs4_Rep20_S_empty_rep_storageE+24, 128(%rsp)
 7432      80000000 
 7432      00000000 
 7433 41ee 488D7858 		leaq	88(%rax), %rdi
 7434              	.LEHB200:
 7435 41f2 E8000000 		call	_ZNSt9basic_iosIcSt11char_traitsIcEE4initEPSt15basic_streambufIcS1_E
 7435      00
 7436              	.LEHE200:
 7437 41f7 488D4424 		leaq	48(%rsp), %rax
 7437      30
 7438 41fc 488DB860 		leaq	352(%rax), %rdi
 7438      010000
 7439 4203 4889C6   		movq	%rax, %rsi
 7440              	.LEHB201:
 7441 4206 E8000000 		call	_ZN8UnitTest15XmlTestReporterC1ERSo
 7441      00
 7442              	.LEHE201:
 7443 420b 488D7C24 		leaq	48(%rsp), %rdi
 7443      30
 7444 4210 4C89EE   		movq	%r13, %rsi
 7445 4213 4C89AC24 		movq	%r13, 440(%rsp)
 7445      B8010000 
 7446              	.LEHB202:
 7447 421b E820F8FF 		call	_ZN8UnitTest11ExecuteTestIN12_GLOBAL__N_163XmlTestReporterFixtureSingleFailedTestReportSummar
 7447      FF
 7448              	.LEHE202:
 7449 4220 488BAC24 		movq	416(%rsp), %rbp
 7449      A0010000 
 7450 4228 4C8BB424 		movq	408(%rsp), %r14
 7450      98010000 
 7451 4230 48C78424 		movq	$_ZTVN8UnitTest20DeferredTestReporterE+16, 400(%rsp)
 7451      90010000 
 7451      00000000 
 7452 423c 4C39F5   		cmpq	%r14, %rbp
 7453 423f 0F84C700 		je	.L1079
 7453      0000
 7454              		.p2align 4,,10
 7455 4245 0F1F00   		.p2align 3
 7456              	.L1108:
 7457 4248 4D8B7E20 		movq	32(%r14), %r15
 7458 424c 498B5E18 		movq	24(%r14), %rbx
 7459 4250 4939DF   		cmpq	%rbx, %r15
 7460 4253 7457     		je	.L1080
 7461 4255 B8000000 		movl	$_ZL28__gthrw___pthread_key_createPjPFvPvE, %eax
 7461      00
 7462 425a 4885C0   		testq	%rax, %rax
 7463 425d 7512     		jne	.L1144
 7464 425f E9990100 		jmp	.L1086
 7464      00
 7465              		.p2align 4,,10
 7466 4264 0F1F4000 		.p2align 3
 7467              	.L1089:
 7468 4268 4883C310 		addq	$16, %rbx
 7469 426c 4939DF   		cmpq	%rbx, %r15
 7470 426f 7437     		je	.L1087
 7471              	.L1144:
 7472 4271 488B4308 		movq	8(%rbx), %rax
 7473 4275 488D78E8 		leaq	-24(%rax), %rdi
 7474 4279 4881FF00 		cmpq	$_ZNSs4_Rep20_S_empty_rep_storageE, %rdi
 7474      000000
 7475 4280 74E6     		je	.L1089
 7476 4282 BEFFFFFF 		movl	$-1, %esi
 7476      FF
 7477 4287 F00FC170 		lock xaddl	%esi, -8(%rax)
 7477      F8
 7478 428c 85F6     		testl	%esi, %esi
 7479 428e 7FD8     		jg	.L1089
 7480 4290 488D7424 		leaq	16(%rsp), %rsi
 7480      10
 7481 4295 4883C310 		addq	$16, %rbx
 7482 4299 E8000000 		call	_ZNSs4_Rep10_M_destroyERKSaIcE
 7482      00
 7483 429e 4939DF   		cmpq	%rbx, %r15
 7484 42a1 75CE     		jne	.L1144
 7485              		.p2align 4,,10
 7486 42a3 0F1F4400 		.p2align 3
 7486      00
 7487              	.L1087:
 7488 42a8 4D8B7E18 		movq	24(%r14), %r15
 7489              	.L1080:
 7490 42ac 4D85FF   		testq	%r15, %r15
 7491 42af 7408     		je	.L1092
 7492 42b1 4C89FF   		movq	%r15, %rdi
 7493 42b4 E8000000 		call	_ZdlPv
 7493      00
 7494              	.L1092:
 7495 42b9 498B4610 		movq	16(%r14), %rax
 7496 42bd 488D78E8 		leaq	-24(%rax), %rdi
 7497 42c1 4881FF00 		cmpq	$_ZNSs4_Rep20_S_empty_rep_storageE, %rdi
 7497      000000
 7498 42c8 0F85AA01 		jne	.L1160
 7498      0000
 7499              	.L1094:
 7500 42ce 498B4608 		movq	8(%r14), %rax
 7501 42d2 488D78E8 		leaq	-24(%rax), %rdi
 7502 42d6 4881FF00 		cmpq	$_ZNSs4_Rep20_S_empty_rep_storageE, %rdi
 7502      000000
 7503 42dd 0F856501 		jne	.L1161
 7503      0000
 7504              	.L1099:
 7505 42e3 498B06   		movq	(%r14), %rax
 7506 42e6 488D78E8 		leaq	-24(%rax), %rdi
 7507 42ea 4881FF00 		cmpq	$_ZNSs4_Rep20_S_empty_rep_storageE, %rdi
 7507      000000
 7508 42f1 0F851901 		jne	.L1162
 7508      0000
 7509              	.L1104:
 7510 42f7 4983C638 		addq	$56, %r14
 7511 42fb 4C39F5   		cmpq	%r14, %rbp
 7512 42fe 0F8544FF 		jne	.L1108
 7512      FFFF
 7513 4304 488BAC24 		movq	408(%rsp), %rbp
 7513      98010000 
 7514              	.L1079:
 7515 430c 4885ED   		testq	%rbp, %rbp
 7516 430f 7408     		je	.L1109
 7517 4311 4889EF   		movq	%rbp, %rdi
 7518 4314 E8000000 		call	_ZdlPv
 7518      00
 7519              	.L1109:
 7520 4319 488D4424 		leaq	48(%rsp), %rax
 7520      30
 7521 431e 488DB860 		leaq	352(%rax), %rdi
 7521      010000
 7522              	.LEHB203:
 7523 4325 E8000000 		call	_ZN8UnitTest12TestReporterD2Ev
 7523      00
 7524              	.LEHE203:
 7525 432a 488B8424 		movq	128(%rsp), %rax
 7525      80000000 
 7526 4332 48C74424 		movq	$_ZTVSt19basic_ostringstreamIcSt11char_traitsIcESaIcEE+24, 48(%rsp)
 7526      30000000 
 7526      00
 7527 433b 48C78424 		movq	$_ZTVSt19basic_ostringstreamIcSt11char_traitsIcESaIcEE+64, 136(%rsp)
 7527      88000000 
 7527      00000000 
 7528 4347 48C74424 		movq	$_ZTVSt15basic_stringbufIcSt11char_traitsIcESaIcEE+16, 56(%rsp)
 7528      38000000 
 7528      00
 7529 4350 488D78E8 		leaq	-24(%rax), %rdi
 7530 4354 4881FF00 		cmpq	$_ZNSs4_Rep20_S_empty_rep_storageE, %rdi
 7530      000000
 7531 435b 0F856E01 		jne	.L1163
 7531      0000
 7532              	.L1111:
 7533 4361 488D7C24 		leaq	112(%rsp), %rdi
 7533      70
 7534 4366 48C74424 		movq	$_ZTVSt15basic_streambufIcSt11char_traitsIcEE+16, 56(%rsp)
 7534      38000000 
 7534      00
 7535 436f E8000000 		call	_ZNSt6localeD1Ev
 7535      00
 7536 4374 498B4424 		movq	-24(%r12), %rax
 7536      E8
 7537 4379 488B0D00 		movq	_ZTTSt19basic_ostringstreamIcSt11char_traitsIcESaIcEE+16(%rip), %rcx
 7537      000000
 7538 4380 4C896424 		movq	%r12, 48(%rsp)
 7538      30
 7539 4385 48894C04 		movq	%rcx, 48(%rsp,%rax)
 7539      30
 7540 438a 488D4424 		leaq	48(%rsp), %rax
 7540      30
 7541 438f 48C78424 		movq	$_ZTVSt9basic_iosIcSt11char_traitsIcEE+16, 136(%rsp)
 7541      88000000 
 7541      00000000 
 7542 439b 488D7858 		leaq	88(%rax), %rdi
 7543              	.LEHB204:
 7544 439f E8000000 		call	_ZNSt8ios_baseD2Ev
 7544      00
 7545              	.LEHE204:
 7546              	.L1072:
 7547 43a4 488B8424 		movq	456(%rsp), %rax
 7547      C8010000 
 7548 43ac 64483304 		xorq	%fs:40, %rax
 7548      25280000 
 7548      00
 7549 43b5 0F85E901 		jne	.L1164
 7549      0000
 7550 43bb 4881C4D8 		addq	$472, %rsp
 7550      010000
 7551              		.cfi_remember_state
 7552              		.cfi_def_cfa_offset 56
 7553 43c2 5B       		popq	%rbx
 7554              		.cfi_def_cfa_offset 48
 7555 43c3 5D       		popq	%rbp
 7556              		.cfi_def_cfa_offset 40
 7557 43c4 415C     		popq	%r12
 7558              		.cfi_def_cfa_offset 32
 7559 43c6 415D     		popq	%r13
 7560              		.cfi_def_cfa_offset 24
 7561 43c8 415E     		popq	%r14
 7562              		.cfi_def_cfa_offset 16
 7563 43ca 415F     		popq	%r15
 7564              		.cfi_def_cfa_offset 8
 7565 43cc C3       		ret
 7566 43cd 0F1F00   		.p2align 4,,10
 7567              		.p2align 3
 7568              	.L1165:
 7569              		.cfi_restore_state
 7570 43d0 8B70F8   		movl	-8(%rax), %esi
 7571 43d3 448D46FF 		leal	-1(%rsi), %r8d
 7572 43d7 85F6     		testl	%esi, %esi
 7573 43d9 448940F8 		movl	%r8d, -8(%rax)
 7574 43dd 7F11     		jg	.L1084
 7575 43df 488D7424 		leaq	16(%rsp), %rsi
 7575      10
 7576 43e4 E8000000 		call	_ZNSs4_Rep10_M_destroyERKSaIcE
 7576      00
 7577 43e9 0F1F8000 		.p2align 4,,10
 7577      000000
 7578              		.p2align 3
 7579              	.L1084:
 7580 43f0 4883C310 		addq	$16, %rbx
 7581 43f4 4939DF   		cmpq	%rbx, %r15
 7582 43f7 0F84ABFE 		je	.L1087
 7582      FFFF
 7583              	.L1086:
 7584 43fd 488B4308 		movq	8(%rbx), %rax
 7585 4401 488D78E8 		leaq	-24(%rax), %rdi
 7586 4405 4881FF00 		cmpq	$_ZNSs4_Rep20_S_empty_rep_storageE, %rdi
 7586      000000
 7587 440c 74E2     		je	.L1084
 7588 440e EBC0     		jmp	.L1165
 7589              		.p2align 4,,10
 7590              		.p2align 3
 7591              	.L1162:
 7592 4410 BA000000 		movl	$_ZL28__gthrw___pthread_key_createPjPFvPvE, %edx
 7592      00
 7593 4415 4885D2   		testq	%rdx, %rdx
 7594 4418 0F848700 		je	.L1105
 7594      0000
 7595 441e BAFFFFFF 		movl	$-1, %edx
 7595      FF
 7596 4423 F00FC150 		lock xaddl	%edx, -8(%rax)
 7596      F8
 7597 4428 89D0     		movl	%edx, %eax
 7598              	.L1106:
 7599 442a 85C0     		testl	%eax, %eax
 7600 442c 0F8FC5FE 		jg	.L1104
 7600      FFFF
 7601 4432 488D7424 		leaq	16(%rsp), %rsi
 7601      10
 7602 4437 E8000000 		call	_ZNSs4_Rep10_M_destroyERKSaIcE
 7602      00
 7603 443c E9B6FEFF 		jmp	.L1104
 7603      FF
 7604              		.p2align 4,,10
 7605 4441 0F1F8000 		.p2align 3
 7605      000000
 7606              	.L1161:
 7607 4448 BA000000 		movl	$_ZL28__gthrw___pthread_key_createPjPFvPvE, %edx
 7607      00
 7608 444d 4885D2   		testq	%rdx, %rdx
 7609 4450 7470     		je	.L1100
 7610 4452 BAFFFFFF 		movl	$-1, %edx
 7610      FF
 7611 4457 F00FC150 		lock xaddl	%edx, -8(%rax)
 7611      F8
 7612 445c 89D0     		movl	%edx, %eax
 7613              	.L1101:
 7614 445e 85C0     		testl	%eax, %eax
 7615 4460 0F8F7DFE 		jg	.L1099
 7615      FFFF
 7616 4466 488D7424 		leaq	16(%rsp), %rsi
 7616      10
 7617 446b E8000000 		call	_ZNSs4_Rep10_M_destroyERKSaIcE
 7617      00
 7618 4470 E96EFEFF 		jmp	.L1099
 7618      FF
 7619              		.p2align 4,,10
 7620 4475 0F1F00   		.p2align 3
 7621              	.L1160:
 7622 4478 BA000000 		movl	$_ZL28__gthrw___pthread_key_createPjPFvPvE, %edx
 7622      00
 7623 447d 4885D2   		testq	%rdx, %rdx
 7624 4480 7433     		je	.L1095
 7625 4482 BAFFFFFF 		movl	$-1, %edx
 7625      FF
 7626 4487 F00FC150 		lock xaddl	%edx, -8(%rax)
 7626      F8
 7627 448c 89D0     		movl	%edx, %eax
 7628              	.L1096:
 7629 448e 85C0     		testl	%eax, %eax
 7630 4490 0F8F38FE 		jg	.L1094
 7630      FFFF
 7631 4496 488D7424 		leaq	16(%rsp), %rsi
 7631      10
 7632 449b E8000000 		call	_ZNSs4_Rep10_M_destroyERKSaIcE
 7632      00
 7633 44a0 E929FEFF 		jmp	.L1094
 7633      FF
 7634              	.L1105:
 7635 44a5 8B50F8   		movl	-8(%rax), %edx
 7636 44a8 8D72FF   		leal	-1(%rdx), %esi
 7637 44ab 8970F8   		movl	%esi, -8(%rax)
 7638 44ae 89D0     		movl	%edx, %eax
 7639 44b0 E975FFFF 		jmp	.L1106
 7639      FF
 7640              	.L1095:
 7641 44b5 8B50F8   		movl	-8(%rax), %edx
 7642 44b8 8D72FF   		leal	-1(%rdx), %esi
 7643 44bb 8970F8   		movl	%esi, -8(%rax)
 7644 44be 89D0     		movl	%edx, %eax
 7645 44c0 EBCC     		jmp	.L1096
 7646              	.L1100:
 7647 44c2 8B50F8   		movl	-8(%rax), %edx
 7648 44c5 8D72FF   		leal	-1(%rdx), %esi
 7649 44c8 8970F8   		movl	%esi, -8(%rax)
 7650 44cb 89D0     		movl	%edx, %eax
 7651 44cd EB8F     		jmp	.L1101
 7652              	.L1163:
 7653 44cf BA000000 		movl	$_ZL28__gthrw___pthread_key_createPjPFvPvE, %edx
 7653      00
 7654 44d4 4885D2   		testq	%rdx, %rdx
 7655 44d7 7423     		je	.L1112
 7656 44d9 BAFFFFFF 		movl	$-1, %edx
 7656      FF
 7657 44de F00FC150 		lock xaddl	%edx, -8(%rax)
 7657      F8
 7658 44e3 89D0     		movl	%edx, %eax
 7659              	.L1113:
 7660 44e5 85C0     		testl	%eax, %eax
 7661 44e7 0F8F74FE 		jg	.L1111
 7661      FFFF
 7662 44ed 488D7424 		leaq	16(%rsp), %rsi
 7662      10
 7663 44f2 E8000000 		call	_ZNSs4_Rep10_M_destroyERKSaIcE
 7663      00
 7664 44f7 E965FEFF 		jmp	.L1111
 7664      FF
 7665              	.L1112:
 7666 44fc 8B50F8   		movl	-8(%rax), %edx
 7667 44ff 8D4AFF   		leal	-1(%rdx), %ecx
 7668 4502 8948F8   		movl	%ecx, -8(%rax)
 7669 4505 89D0     		movl	%edx, %eax
 7670 4507 EBDC     		jmp	.L1113
 7671              	.L1139:
 7672 4509 488D7C24 		leaq	48(%rsp), %rdi
 7672      30
 7673 450e 4889C3   		movq	%rax, %rbx
 7674 4511 4889D5   		movq	%rdx, %rbp
 7675 4514 E8000000 		call	_ZNSt19basic_ostringstreamIcSt11char_traitsIcESaIcEED1Ev
 7675      00
 7676 4519 4889DF   		movq	%rbx, %rdi
 7677 451c 4889EA   		movq	%rbp, %rdx
 7678 451f BB010000 		movl	$1, %ebx
 7678      00
 7679              	.L1076:
 7680 4524 4883FA01 		cmpq	$1, %rdx
 7681 4528 0F84E800 		je	.L1121
 7681      0000
 7682 452e 4883FA02 		cmpq	$2, %rdx
 7683 4532 0F859D00 		jne	.L1166
 7683      0000
 7684 4538 E8000000 		call	__cxa_begin_catch
 7684      00
 7685 453d 488D7C24 		leaq	48(%rsp), %rdi
 7685      30
 7686 4542 4889C3   		movq	%rax, %rbx
 7687              	.LEHB205:
 7688 4545 E8000000 		call	_ZN8UnitTest15MemoryOutStreamC1Ev
 7688      00
 7689              	.LEHE205:
 7690 454a 488B03   		movq	(%rbx), %rax
 7691 454d 4889DF   		movq	%rbx, %rdi
 7692 4550 FF5010   		call	*16(%rax)
 7693 4553 488D7C24 		leaq	48(%rsp), %rdi
 7693      30
 7694 4558 BE000000 		movl	$.LC32, %esi
 7694      00
 7695 455d 4889C3   		movq	%rax, %rbx
 7696              	.LEHB206:
 7697 4560 E8000000 		call	_ZStlsISt11char_traitsIcEERSt13basic_ostreamIcT_ES5_PKc
 7697      00
 7698 4565 4889C7   		movq	%rax, %rdi
 7699 4568 4889DE   		movq	%rbx, %rsi
 7700 456b E8000000 		call	_ZStlsISt11char_traitsIcEERSt13basic_ostreamIcT_ES5_PKc
 7700      00
 7701 4570 488D7C24 		leaq	48(%rsp), %rdi
 7701      30
 7702 4575 E8000000 		call	_ZNK8UnitTest15MemoryOutStream7GetTextEv
 7702      00
 7703 457a 4889C3   		movq	%rax, %rbx
 7704 457d E8000000 		call	_ZN8UnitTest11CurrentTest7ResultsEv
 7704      00
 7705 4582 488B38   		movq	(%rax), %rdi
 7706 4585 4889DA   		movq	%rbx, %rdx
 7707 4588 4C89EE   		movq	%r13, %rsi
 7708 458b E8000000 		call	_ZN8UnitTest11TestResults13OnTestFailureERKNS_11TestDetailsEPKc
 7708      00
 7709              	.LEHE206:
 7710 4590 488D7C24 		leaq	48(%rsp), %rdi
 7710      30
 7711              	.LEHB207:
 7712 4595 E8000000 		call	_ZN8UnitTest15MemoryOutStreamD1Ev
 7712      00
 7713              	.LEHE207:
 7714              	.L1154:
 7715 459a E8000000 		call	__cxa_end_catch
 7715      00
 7716 459f E900FEFF 		jmp	.L1072
 7716      FF
 7717              	.L1164:
 7718 45a4 E8000000 		call	__stack_chk_fail
 7718      00
 7719              	.L1130:
 7720 45a9 4889C7   		movq	%rax, %rdi
 7721 45ac BB010000 		movl	$1, %ebx
 7721      00
 7722 45b1 E96EFFFF 		jmp	.L1076
 7722      FF
 7723              	.L1134:
 7724 45b6 488D7C24 		leaq	48(%rsp), %rdi
 7724      30
 7725 45bb 4889C3   		movq	%rax, %rbx
 7726 45be E8000000 		call	_ZN8UnitTest15MemoryOutStreamD1Ev
 7726      00
 7727              	.L1125:
 7728 45c3 E8000000 		call	__cxa_end_catch
 7728      00
 7729 45c8 4889DF   		movq	%rbx, %rdi
 7730              	.LEHB208:
 7731 45cb E8000000 		call	_Unwind_Resume
 7731      00
 7732              	.LEHE208:
 7733              	.L1133:
 7734              	.L1155:
 7735 45d0 4889C3   		movq	%rax, %rbx
 7736 45d3 EBEE     		jmp	.L1125
 7737              	.L1166:
 7738 45d5 E8000000 		call	__cxa_begin_catch
 7738      00
 7739 45da 84DB     		testb	%bl, %bl
 7740 45dc 488D5C24 		leaq	16(%rsp), %rbx
 7740      10
 7741 45e1 BA600000 		movl	$96, %edx
 7741      00
 7742 45e6 4C89EE   		movq	%r13, %rsi
 7743 45e9 4889DF   		movq	%rbx, %rdi
 7744 45ec 0F849300 		je	.L1127
 7744      0000
 7745              	.LEHB209:
 7746 45f2 E8000000 		call	_ZN8UnitTest11TestDetailsC1ERKS0_i
 7746      00
 7747 45f7 E8000000 		call	_ZN8UnitTest11CurrentTest7ResultsEv
 7747      00
 7748 45fc 488B38   		movq	(%rax), %rdi
 7749 45ff BA000000 		movl	$.LC36, %edx
 7749      00
 7750 4604 4889DE   		movq	%rbx, %rsi
 7751 4607 E8000000 		call	_ZN8UnitTest11TestResults13OnTestFailureERKNS_11TestDetailsEPKc
 7751      00
 7752              	.LEHE209:
 7753              	.L1128:
 7754              	.LEHB210:
 7755 460c E8000000 		call	__cxa_end_catch
 7755      00
 7756              	.LEHE210:
 7757 4611 E98EFDFF 		jmp	.L1072
 7757      FF
 7758              	.L1121:
 7759 4616 E8000000 		call	__cxa_begin_catch
 7759      00
 7760 461b 4889C3   		movq	%rax, %rbx
 7761 461e 488B00   		movq	(%rax), %rax
 7762 4621 4889DF   		movq	%rbx, %rdi
 7763 4624 FF5010   		call	*16(%rax)
 7764 4627 4889DF   		movq	%rbx, %rdi
 7765 462a 4889C5   		movq	%rax, %rbp
 7766              	.LEHB211:
 7767 462d E8000000 		call	_ZNK8UnitTest15AssertException10LineNumberEv
 7767      00
 7768 4632 4889DF   		movq	%rbx, %rdi
 7769 4635 4189C4   		movl	%eax, %r12d
 7770 4638 E8000000 		call	_ZNK8UnitTest15AssertException8FilenameEv
 7770      00
 7771 463d 488B4C24 		movq	8(%rsp), %rcx
 7771      08
 7772 4642 488D5C24 		leaq	16(%rsp), %rbx
 7772      10
 7773 4647 4589E0   		movl	%r12d, %r8d
 7774 464a 4889DF   		movq	%rbx, %rdi
 7775 464d 488B5108 		movq	8(%rcx), %rdx
 7776 4651 488B7110 		movq	16(%rcx), %rsi
 7777 4655 4889C1   		movq	%rax, %rcx
 7778 4658 E8000000 		call	_ZN8UnitTest11TestDetailsC1EPKcS2_S2_i
 7778      00
 7779 465d E8000000 		call	_ZN8UnitTest11CurrentTest7ResultsEv
 7779      00
 7780 4662 488B38   		movq	(%rax), %rdi
 7781 4665 4889EA   		movq	%rbp, %rdx
 7782 4668 4889DE   		movq	%rbx, %rsi
 7783 466b E8000000 		call	_ZN8UnitTest11TestResults13OnTestFailureERKNS_11TestDetailsEPKc
 7783      00
 7784              	.LEHE211:
 7785 4670 E925FFFF 		jmp	.L1154
 7785      FF
 7786              	.L1135:
 7787 4675 4889C3   		movq	%rax, %rbx
 7788 4678 E8000000 		call	__cxa_end_catch
 7788      00
 7789 467d 4889DF   		movq	%rbx, %rdi
 7790              	.LEHB212:
 7791 4680 E8000000 		call	_Unwind_Resume
 7791      00
 7792              	.LEHE212:
 7793              	.L1127:
 7794              	.LEHB213:
 7795 4685 E8000000 		call	_ZN8UnitTest11TestDetailsC1ERKS0_i
 7795      00
 7796 468a E8000000 		call	_ZN8UnitTest11CurrentTest7ResultsEv
 7796      00
 7797 468f 488B38   		movq	(%rax), %rdi
 7798 4692 BA000000 		movl	$.LC37, %edx
 7798      00
 7799 4697 4889DE   		movq	%rbx, %rsi
 7800 469a E8000000 		call	_ZN8UnitTest11TestResults13OnTestFailureERKNS_11TestDetailsEPKc
 7800      00
 7801              	.LEHE213:
 7802 469f E968FFFF 		jmp	.L1128
 7802      FF
 7803              	.L1132:
 7804 46a4 E927FFFF 		jmp	.L1155
 7804      FF
 7805              	.L1131:
 7806 46a9 488D7C24 		leaq	48(%rsp), %rdi
 7806      30
 7807 46ae 4889C3   		movq	%rax, %rbx
 7808 46b1 4889D5   		movq	%rdx, %rbp
 7809 46b4 E8000000 		call	_ZN12_GLOBAL__N_122XmlTestReporterFixtureD2Ev
 7809      00
 7810 46b9 4889DF   		movq	%rbx, %rdi
 7811 46bc 4889EA   		movq	%rbp, %rdx
 7812 46bf BB010000 		movl	$1, %ebx
 7812      00
 7813 46c4 E95BFEFF 		jmp	.L1076
 7813      FF
 7814              	.L1136:
 7815 46c9 488D7C24 		leaq	48(%rsp), %rdi
 7815      30
 7816 46ce 4889C3   		movq	%rax, %rbx
 7817 46d1 4889D5   		movq	%rdx, %rbp
 7818 46d4 E8000000 		call	_ZNSt19basic_ostringstreamIcSt11char_traitsIcESaIcEED1Ev
 7818      00
 7819 46d9 4889DF   		movq	%rbx, %rdi
 7820 46dc 4889EA   		movq	%rbp, %rdx
 7821 46df 31DB     		xorl	%ebx, %ebx
 7822 46e1 E93EFEFF 		jmp	.L1076
 7822      FF
 7823              	.L1138:
 7824 46e6 488D7C24 		leaq	56(%rsp), %rdi
 7824      38
 7825 46eb 4889C3   		movq	%rax, %rbx
 7826 46ee 4889D5   		movq	%rdx, %rbp
 7827 46f1 E8000000 		call	_ZNSt15basic_stringbufIcSt11char_traitsIcESaIcEED1Ev
 7827      00
 7828 46f6 498B4424 		movq	-24(%r12), %rax
 7828      E8
 7829 46fb 488B0D00 		movq	_ZTTSt19basic_ostringstreamIcSt11char_traitsIcESaIcEE+16(%rip), %rcx
 7829      000000
 7830 4702 4C896424 		movq	%r12, 48(%rsp)
 7830      30
 7831 4707 48894C04 		movq	%rcx, 48(%rsp,%rax)
 7831      30
 7832              	.L1075:
 7833 470c 488DBC24 		leaq	136(%rsp), %rdi
 7833      88000000 
 7834 4714 48C78424 		movq	$_ZTVSt9basic_iosIcSt11char_traitsIcEE+16, 136(%rsp)
 7834      88000000 
 7834      00000000 
 7835 4720 E8000000 		call	_ZNSt8ios_baseD2Ev
 7835      00
 7836 4725 4889DF   		movq	%rbx, %rdi
 7837 4728 4889EA   		movq	%rbp, %rdx
 7838 472b 31DB     		xorl	%ebx, %ebx
 7839 472d E9F2FDFF 		jmp	.L1076
 7839      FF
 7840              	.L1137:
 7841 4732 4889C3   		movq	%rax, %rbx
 7842 4735 4889D5   		movq	%rdx, %rbp
 7843 4738 EBD2     		jmp	.L1075
 7844              		.cfi_endproc
 7845              	.LFE1419:
 7846              		.section	.gcc_except_table
 7847              		.align 4
 7848              	.LLSDA1419:
 7849 0574 FF       		.byte	0xff
 7850 0575 03       		.byte	0x3
 7851 0576 6D       		.uleb128 .LLSDATT1419-.LLSDATTD1419
 7852              	.LLSDATTD1419:
 7853 0577 01       		.byte	0x1
 7854 0578 57       		.uleb128 .LLSDACSE1419-.LLSDACSB1419
 7855              	.LLSDACSB1419:
 7856 0579 B401     		.uleb128 .LEHB199-.LFB1419
 7857 057b 05       		.uleb128 .LEHE199-.LEHB199
 7858 057c 820D     		.uleb128 .L1137-.LFB1419
 7859 057e 07       		.uleb128 0x7
 7860 057f C202     		.uleb128 .LEHB200-.LFB1419
 7861 0581 05       		.uleb128 .LEHE200-.LEHB200
 7862 0582 B60C     		.uleb128 .L1138-.LFB1419
 7863 0584 07       		.uleb128 0x7
 7864 0585 D602     		.uleb128 .LEHB201-.LFB1419
 7865 0587 05       		.uleb128 .LEHE201-.LEHB201
 7866 0588 990C     		.uleb128 .L1136-.LFB1419
 7867 058a 07       		.uleb128 0x7
 7868 058b EB02     		.uleb128 .LEHB202-.LFB1419
 7869 058d 05       		.uleb128 .LEHE202-.LEHB202
 7870 058e F90B     		.uleb128 .L1131-.LFB1419
 7871 0590 07       		.uleb128 0x7
 7872 0591 F504     		.uleb128 .LEHB203-.LFB1419
 7873 0593 05       		.uleb128 .LEHE203-.LEHB203
 7874 0594 D908     		.uleb128 .L1139-.LFB1419
 7875 0596 07       		.uleb128 0x7
 7876 0597 EF05     		.uleb128 .LEHB204-.LFB1419
 7877 0599 05       		.uleb128 .LEHE204-.LEHB204
 7878 059a F909     		.uleb128 .L1130-.LFB1419
 7879 059c 05       		.uleb128 0x5
 7880 059d 9509     		.uleb128 .LEHB205-.LFB1419
 7881 059f 05       		.uleb128 .LEHE205-.LEHB205
 7882 05a0 A00A     		.uleb128 .L1133-.LFB1419
 7883 05a2 00       		.uleb128 0
 7884 05a3 B009     		.uleb128 .LEHB206-.LFB1419
 7885 05a5 30       		.uleb128 .LEHE206-.LEHB206
 7886 05a6 860A     		.uleb128 .L1134-.LFB1419
 7887 05a8 00       		.uleb128 0
 7888 05a9 E509     		.uleb128 .LEHB207-.LFB1419
 7889 05ab 05       		.uleb128 .LEHE207-.LEHB207
 7890 05ac A00A     		.uleb128 .L1133-.LFB1419
 7891 05ae 00       		.uleb128 0
 7892 05af 9B0A     		.uleb128 .LEHB208-.LFB1419
 7893 05b1 05       		.uleb128 .LEHE208-.LEHB208
 7894 05b2 00       		.uleb128 0
 7895 05b3 00       		.uleb128 0
 7896 05b4 C20A     		.uleb128 .LEHB209-.LFB1419
 7897 05b6 1A       		.uleb128 .LEHE209-.LEHB209
 7898 05b7 C50B     		.uleb128 .L1135-.LFB1419
 7899 05b9 00       		.uleb128 0
 7900 05ba DC0A     		.uleb128 .LEHB210-.LFB1419
 7901 05bc 05       		.uleb128 .LEHE210-.LEHB210
 7902 05bd 00       		.uleb128 0
 7903 05be 00       		.uleb128 0
 7904 05bf FD0A     		.uleb128 .LEHB211-.LFB1419
 7905 05c1 43       		.uleb128 .LEHE211-.LEHB211
 7906 05c2 F40B     		.uleb128 .L1132-.LFB1419
 7907 05c4 00       		.uleb128 0
 7908 05c5 D00B     		.uleb128 .LEHB212-.LFB1419
 7909 05c7 05       		.uleb128 .LEHE212-.LEHB212
 7910 05c8 00       		.uleb128 0
 7911 05c9 00       		.uleb128 0
 7912 05ca D50B     		.uleb128 .LEHB213-.LFB1419
 7913 05cc 1A       		.uleb128 .LEHE213-.LEHB213
 7914 05cd C50B     		.uleb128 .L1135-.LFB1419
 7915 05cf 00       		.uleb128 0
 7916              	.LLSDACSE1419:
 7917 05d0 03       		.byte	0x3
 7918 05d1 00       		.byte	0
 7919 05d2 02       		.byte	0x2
 7920 05d3 7D       		.byte	0x7d
 7921 05d4 01       		.byte	0x1
 7922 05d5 7D       		.byte	0x7d
 7923 05d6 00       		.byte	0
 7924 05d7 7D       		.byte	0x7d
 7925              		.align 4
 7926 05d8 00000000 		.long	0
 7927              	
 7928 05dc 00000000 		.long	_ZTISt9exception
 7929 05e0 00000000 		.long	_ZTIN8UnitTest15AssertExceptionE
 7930              	.LLSDATT1419:
 7931              		.text
 7933              		.section	.text.unlikely
 7934              	.LCOLDE69:
 7935              		.text
 7936              	.LHOTE69:
 7937              		.section	.rodata.str1.1
 7938              	.LC70:
 7939 011b 44656661 		.string	"DefaultSuite"
 7939      756C7453 
 7939      75697465 
 7939      00
 7940              		.section	.rodata.str1.8
 7941 054c 00000000 		.align 8
 7942              	.LC71:
 7943 0550 3C3F786D 		.string	"<?xml version=\"1.0\"?><unittest-results tests=\"1\" failedtests=\"0\" failures=\"0\" tim
 7943      6C207665 
 7943      7273696F 
 7943      6E3D2231 
 7943      2E30223F 
 7944              		.section	.text.unlikely
 7945              	.LCOLDB72:
 7946              		.text
 7947              	.LHOTB72:
 7948 473a 660F1F44 		.p2align 4,,15
 7948      0000
 7950              	_ZN8UnitTest11ExecuteTestIN12_GLOBAL__N_167XmlTestReporterFixtureSingleSuccessfulTestReportSummaryF
 7951              	.LFB1493:
 7952              		.cfi_startproc
 7953              		.cfi_personality 0x3,__gxx_personality_v0
 7954              		.cfi_lsda 0x3,.LLSDA1493
 7955 4740 4154     		pushq	%r12
 7956              		.cfi_def_cfa_offset 16
 7957              		.cfi_offset 12, -16
 7958 4742 55       		pushq	%rbp
 7959              		.cfi_def_cfa_offset 24
 7960              		.cfi_offset 6, -24
 7961 4743 53       		pushq	%rbx
 7962              		.cfi_def_cfa_offset 32
 7963              		.cfi_offset 3, -32
 7964 4744 4889F3   		movq	%rsi, %rbx
 7965 4747 4881ECB0 		subq	$1712, %rsp
 7965      060000
 7966              		.cfi_def_cfa_offset 1744
 7967 474e 48893C24 		movq	%rdi, (%rsp)
 7968 4752 48897424 		movq	%rsi, 8(%rsp)
 7968      08
 7969 4757 64488B04 		movq	%fs:40, %rax
 7969      25280000 
 7969      00
 7970 4760 48898424 		movq	%rax, 1704(%rsp)
 7970      A8060000 
 7971 4768 31C0     		xorl	%eax, %eax
 7972              	.LEHB214:
 7973 476a E8000000 		call	_ZN8UnitTest11CurrentTest7DetailsEv
 7973      00
 7974              	.LEHE214:
 7975 476f 488DBC24 		leaq	576(%rsp), %rdi
 7975      40020000 
 7976 4777 488918   		movq	%rbx, (%rax)
 7977              	.LEHB215:
 7978 477a E8000000 		call	_ZN8UnitTest16SignalTranslatorC1Ev
 7978      00
 7979              	.LEHE215:
 7980 477f 488B3D00 		movq	_ZN8UnitTest16SignalTranslator12s_jumpTargetE(%rip), %rdi
 7980      000000
 7981 4786 BE010000 		movl	$1, %esi
 7981      00
 7982 478b E8000000 		call	__sigsetjmp
 7982      00
 7983 4790 85C0     		testl	%eax, %eax
 7984 4792 0F85B800 		jne	.L1252
 7984      0000
 7985 4798 488D7C24 		leaq	112(%rsp), %rdi
 7985      70
 7986 479d 4531C0   		xorl	%r8d, %r8d
 7987 47a0 B9000000 		movl	$.LC25, %ecx
 7987      00
 7988 47a5 BA000000 		movl	$.LC70, %edx
 7988      00
 7989 47aa BE000000 		movl	$.LC59, %esi
 7989      00
 7990              	.LEHB216:
 7991 47af E8000000 		call	_ZN8UnitTest11TestDetailsC1EPKcS2_S2_i
 7991      00
 7992 47b4 488B2C24 		movq	(%rsp), %rbp
 7993 47b8 488D7424 		leaq	112(%rsp), %rsi
 7993      70
 7994 47bd 488D9D60 		leaq	352(%rbp), %rbx
 7994      010000
 7995 47c4 4889DF   		movq	%rbx, %rdi
 7996 47c7 E8000000 		call	_ZN8UnitTest20DeferredTestReporter15ReportTestStartERKNS_11TestDetailsE
 7996      00
 7997 47cc F30F1005 		movss	.LC48(%rip), %xmm0
 7997      00000000 
 7998 47d4 31C9     		xorl	%ecx, %ecx
 7999 47d6 31D2     		xorl	%edx, %edx
 8000 47d8 BE010000 		movl	$1, %esi
 8000      00
 8001 47dd 4889DF   		movq	%rbx, %rdi
 8002 47e0 E8000000 		call	_ZN8UnitTest15XmlTestReporter13ReportSummaryEiiif
 8002      00
 8003              	.LEHE216:
 8004 47e5 48C74424 		movq	$.LC71, 72(%rsp)
 8004      48000000 
 8004      00
 8005              	.LEHB217:
 8006 47ee E8000000 		call	_ZN8UnitTest11CurrentTest7DetailsEv
 8006      00
 8007 47f3 488B30   		movq	(%rax), %rsi
 8008 47f6 488DBC24 		leaq	176(%rsp), %rdi
 8008      B0000000 
 8009 47fe BA5D0000 		movl	$93, %edx
 8009      00
 8010 4803 E8000000 		call	_ZN8UnitTest11TestDetailsC1ERKS0_i
 8010      00
 8011              	.LEHE217:
 8012 4808 488B4530 		movq	48(%rbp), %rax
 8013 480c 48C74424 		movq	$_ZNSs4_Rep20_S_empty_rep_storageE+24, 32(%rsp)
 8013      20000000 
 8013      00
 8014 4815 4885C0   		testq	%rax, %rax
 8015 4818 0F843202 		je	.L1170
 8015      0000
 8016 481e 488B7D20 		movq	32(%rbp), %rdi
 8017 4822 4839F8   		cmpq	%rdi, %rax
 8018 4825 7649     		jbe	.L1171
 8019 4827 488B1424 		movq	(%rsp), %rdx
 8020 482b 488B6A28 		movq	40(%rdx), %rbp
 8021 482f 4839E8   		cmpq	%rbp, %rax
 8022 4832 0F84B001 		je	.L1226
 8022      0000
 8023 4838 4885ED   		testq	%rbp, %rbp
 8024 483b 0F858F02 		jne	.L1253
 8024      0000
 8025 4841 BF000000 		movl	$.LC34, %edi
 8025      00
 8026              	.LEHB218:
 8027 4846 E8000000 		call	_ZSt19__throw_logic_errorPKc
 8027      00
 8028              	.LEHE218:
 8029 484b 0F1F4400 		.p2align 4,,10
 8029      00
 8030              		.p2align 3
 8031              	.L1252:
 8032 4850 BF080000 		movl	$8, %edi
 8032      00
 8033 4855 E8000000 		call	__cxa_allocate_exception
 8033      00
 8034 485a 31D2     		xorl	%edx, %edx
 8035 485c 48C70000 		movq	$.LC24, (%rax)
 8035      000000
 8036 4863 BE000000 		movl	$_ZTIPKc, %esi
 8036      00
 8037 4868 4889C7   		movq	%rax, %rdi
 8038              	.LEHB219:
 8039 486b E8000000 		call	__cxa_throw
 8039      00
 8040              	.LEHE219:
 8041              		.p2align 4,,10
 8042              		.p2align 3
 8043              	.L1171:
 8044 4870 488B0424 		movq	(%rsp), %rax
 8045 4874 488B6828 		movq	40(%rax), %rbp
 8046 4878 4839EF   		cmpq	%rbp, %rdi
 8047 487b 0F84E700 		je	.L1227
 8047      0000
 8048 4881 4885ED   		testq	%rbp, %rbp
 8049 4884 0F859602 		jne	.L1185
 8049      0000
 8050 488a 4885FF   		testq	%rdi, %rdi
 8051 488d 0F848D02 		je	.L1185
 8051      0000
 8052 4893 BF000000 		movl	$.LC34, %edi
 8052      00
 8053              	.LEHB220:
 8054 4898 E8000000 		call	_ZSt19__throw_logic_errorPKc
 8054      00
 8055              	.LEHE220:
 8056              	.L1229:
 8057 489d 4889C3   		movq	%rax, %rbx
 8058 48a0 4889D5   		movq	%rdx, %rbp
 8059              	.L1212:
 8060 48a3 488DBC24 		leaq	576(%rsp), %rdi
 8060      40020000 
 8061 48ab E8000000 		call	_ZN8UnitTest16SignalTranslatorD1Ev
 8061      00
 8062 48b0 4889DF   		movq	%rbx, %rdi
 8063 48b3 4889EA   		movq	%rbp, %rdx
 8064              	.L1213:
 8065 48b6 4883FA01 		cmpq	$1, %rdx
 8066 48ba 0F845404 		je	.L1215
 8066      0000
 8067 48c0 4883FA02 		cmpq	$2, %rdx
 8068 48c4 0F852404 		jne	.L1254
 8068      0000
 8069 48ca E8000000 		call	__cxa_begin_catch
 8069      00
 8070 48cf 488DBC24 		leaq	208(%rsp), %rdi
 8070      D0000000 
 8071 48d7 4889C3   		movq	%rax, %rbx
 8072              	.LEHB221:
 8073 48da E8000000 		call	_ZN8UnitTest15MemoryOutStreamC1Ev
 8073      00
 8074              	.LEHE221:
 8075 48df 488B03   		movq	(%rbx), %rax
 8076 48e2 4889DF   		movq	%rbx, %rdi
 8077 48e5 FF5010   		call	*16(%rax)
 8078 48e8 488DBC24 		leaq	208(%rsp), %rdi
 8078      D0000000 
 8079 48f0 BE000000 		movl	$.LC32, %esi
 8079      00
 8080 48f5 4889C3   		movq	%rax, %rbx
 8081              	.LEHB222:
 8082 48f8 E8000000 		call	_ZStlsISt11char_traitsIcEERSt13basic_ostreamIcT_ES5_PKc
 8082      00
 8083 48fd 4889C7   		movq	%rax, %rdi
 8084 4900 4889DE   		movq	%rbx, %rsi
 8085 4903 E8000000 		call	_ZStlsISt11char_traitsIcEERSt13basic_ostreamIcT_ES5_PKc
 8085      00
 8086 4908 488DBC24 		leaq	208(%rsp), %rdi
 8086      D0000000 
 8087 4910 E8000000 		call	_ZNK8UnitTest15MemoryOutStream7GetTextEv
 8087      00
 8088 4915 4889C3   		movq	%rax, %rbx
 8089 4918 E8000000 		call	_ZN8UnitTest11CurrentTest7ResultsEv
 8089      00
 8090 491d 488B7424 		movq	8(%rsp), %rsi
 8090      08
 8091 4922 488B38   		movq	(%rax), %rdi
 8092 4925 4889DA   		movq	%rbx, %rdx
 8093 4928 E8000000 		call	_ZN8UnitTest11TestResults13OnTestFailureERKNS_11TestDetailsEPKc
 8093      00
 8094              	.LEHE222:
 8095 492d 488DBC24 		leaq	208(%rsp), %rdi
 8095      D0000000 
 8096              	.LEHB223:
 8097 4935 E8000000 		call	_ZN8UnitTest15MemoryOutStreamD1Ev
 8097      00
 8098              	.LEHE223:
 8099              	.L1246:
 8100 493a E8000000 		call	__cxa_end_catch
 8100      00
 8101 493f 90       		.p2align 4,,10
 8102              		.p2align 3
 8103              	.L1167:
 8104 4940 488B8424 		movq	1704(%rsp), %rax
 8104      A8060000 
 8105 4948 64483304 		xorq	%fs:40, %rax
 8105      25280000 
 8105      00
 8106 4951 0F85DB02 		jne	.L1255
 8106      0000
 8107 4957 4881C4B0 		addq	$1712, %rsp
 8107      060000
 8108              		.cfi_remember_state
 8109              		.cfi_def_cfa_offset 32
 8110 495e 5B       		popq	%rbx
 8111              		.cfi_def_cfa_offset 24
 8112 495f 5D       		popq	%rbp
 8113              		.cfi_def_cfa_offset 16
 8114 4960 415C     		popq	%r12
 8115              		.cfi_def_cfa_offset 8
 8116 4962 C3       		ret
 8117              		.p2align 4,,10
 8118 4963 0F1F4400 		.p2align 3
 8118      00
 8119              	.L1227:
 8120              		.cfi_restore_state
 8121 4968 B9000000 		movl	$_ZNSs4_Rep20_S_empty_rep_storageE+24, %ecx
 8121      00
 8122 496d 0F1F00   		.p2align 4,,10
 8123              		.p2align 3
 8124              	.L1182:
 8125 4970 488D7424 		leaq	48(%rsp), %rsi
 8125      30
 8126 4975 488D7C24 		leaq	32(%rsp), %rdi
 8126      20
 8127 497a 48894C24 		movq	%rcx, 48(%rsp)
 8127      30
 8128              	.LEHB224:
 8129 497f E8000000 		call	_ZNSs6assignERKSs
 8129      00
 8130              	.LEHE224:
 8131 4984 488B4424 		movq	48(%rsp), %rax
 8131      30
 8132 4989 488D78E8 		leaq	-24(%rax), %rdi
 8133 498d 4881FF00 		cmpq	$_ZNSs4_Rep20_S_empty_rep_storageE, %rdi
 8133      000000
 8134 4994 0F853E02 		jne	.L1256
 8134      0000
 8135              	.L1178:
 8136              	.LEHB225:
 8137 499a E8000000 		call	_ZN8UnitTest11CurrentTest7ResultsEv
 8137      00
 8138 499f 488B38   		movq	(%rax), %rdi
 8139 49a2 488D8C24 		leaq	176(%rsp), %rcx
 8139      B0000000 
 8140 49aa 488D5424 		leaq	32(%rsp), %rdx
 8140      20
 8141 49af 488D7424 		leaq	72(%rsp), %rsi
 8141      48
 8142 49b4 E8000000 		call	_ZN8UnitTest10CheckEqualIPKcSsEEvRNS_11TestResultsERKT_RKT0_RKNS_11TestDetailsE
 8142      00
 8143              	.LEHE225:
 8144 49b9 488B4424 		movq	32(%rsp), %rax
 8144      20
 8145 49be 488D78E8 		leaq	-24(%rax), %rdi
 8146 49c2 4881FF00 		cmpq	$_ZNSs4_Rep20_S_empty_rep_storageE, %rdi
 8146      000000
 8147 49c9 0F85D901 		jne	.L1257
 8147      0000
 8148              	.L1203:
 8149 49cf 488DBC24 		leaq	576(%rsp), %rdi
 8149      40020000 
 8150              	.LEHB226:
 8151 49d7 E8000000 		call	_ZN8UnitTest16SignalTranslatorD1Ev
 8151      00
 8152              	.LEHE226:
 8153 49dc E95FFFFF 		jmp	.L1167
 8153      FF
 8154              		.p2align 4,,10
 8155 49e1 0F1F8000 		.p2align 3
 8155      000000
 8156              	.L1226:
 8157 49e8 B9000000 		movl	$_ZNSs4_Rep20_S_empty_rep_storageE+24, %ecx
 8157      00
 8158 49ed 0F1F00   		.p2align 4,,10
 8159              		.p2align 3
 8160              	.L1172:
 8161 49f0 488D7424 		leaq	64(%rsp), %rsi
 8161      40
 8162 49f5 488D7C24 		leaq	32(%rsp), %rdi
 8162      20
 8163 49fa 48894C24 		movq	%rcx, 64(%rsp)
 8163      40
 8164              	.LEHB227:
 8165 49ff E8000000 		call	_ZNSs6assignERKSs
 8165      00
 8166              	.LEHE227:
 8167 4a04 488B4424 		movq	64(%rsp), %rax
 8167      40
 8168 4a09 488D78E8 		leaq	-24(%rax), %rdi
 8169 4a0d 4881FF00 		cmpq	$_ZNSs4_Rep20_S_empty_rep_storageE, %rdi
 8169      000000
 8170 4a14 7484     		je	.L1178
 8171 4a16 BA000000 		movl	$_ZL28__gthrw___pthread_key_createPjPFvPvE, %edx
 8171      00
 8172 4a1b 4885D2   		testq	%rdx, %rdx
 8173 4a1e 0F84F101 		je	.L1179
 8173      0000
 8174 4a24 BAFFFFFF 		movl	$-1, %edx
 8174      FF
 8175 4a29 F00FC150 		lock xaddl	%edx, -8(%rax)
 8175      F8
 8176 4a2e 89D0     		movl	%edx, %eax
 8177              	.L1180:
 8178 4a30 85C0     		testl	%eax, %eax
 8179 4a32 0F8F62FF 		jg	.L1178
 8179      FFFF
 8180 4a38 488D7424 		leaq	29(%rsp), %rsi
 8180      1D
 8181 4a3d E8000000 		call	_ZNSs4_Rep10_M_destroyERKSaIcE
 8181      00
 8182 4a42 E953FFFF 		jmp	.L1178
 8182      FF
 8183 4a47 660F1F84 		.p2align 4,,10
 8183      00000000 
 8183      00
 8184              		.p2align 3
 8185              	.L1170:
 8186 4a50 488B3424 		movq	(%rsp), %rsi
 8187 4a54 488D7C24 		leaq	32(%rsp), %rdi
 8187      20
 8188 4a59 4883C650 		addq	$80, %rsi
 8189              	.LEHB228:
 8190 4a5d E8000000 		call	_ZNSs6assignERKSs
 8190      00
 8191              	.LEHE228:
 8192 4a62 E933FFFF 		jmp	.L1178
 8192      FF
 8193              	.L1237:
 8194 4a67 4889C3   		movq	%rax, %rbx
 8195              	.L1194:
 8196 4a6a 488B4424 		movq	32(%rsp), %rax
 8196      20
 8197 4a6f 488D78E8 		leaq	-24(%rax), %rdi
 8198 4a73 4881FF00 		cmpq	$_ZNSs4_Rep20_S_empty_rep_storageE, %rdi
 8198      000000
 8199 4a7a 740A     		je	.L1210
 8200 4a7c 488D7424 		leaq	25(%rsp), %rsi
 8200      19
 8201 4a81 E8000000 		call	_ZNSs4_Rep10_M_disposeERKSaIcE.part.5
 8201      00
 8202              	.L1210:
 8203 4a86 4889D8   		movq	%rbx, %rax
 8204              	.L1200:
 8205 4a89 4889C7   		movq	%rax, %rdi
 8206 4a8c E8000000 		call	__cxa_begin_catch
 8206      00
 8207              	.LEHB229:
 8208 4a91 E8000000 		call	_ZN8UnitTest11CurrentTest7DetailsEv
 8208      00
 8209 4a96 488B30   		movq	(%rax), %rsi
 8210 4a99 488DBC24 		leaq	144(%rsp), %rdi
 8210      90000000 
 8211 4aa1 BA5D0000 		movl	$93, %edx
 8211      00
 8212 4aa6 E8000000 		call	_ZN8UnitTest11TestDetailsC1ERKS0_i
 8212      00
 8213 4aab E8000000 		call	_ZN8UnitTest11CurrentTest7ResultsEv
 8213      00
 8214 4ab0 488B38   		movq	(%rax), %rdi
 8215 4ab3 488DB424 		leaq	144(%rsp), %rsi
 8215      90000000 
 8216 4abb BA000000 		movl	$.LC51, %edx
 8216      00
 8217 4ac0 E8000000 		call	_ZN8UnitTest11TestResults13OnTestFailureERKNS_11TestDetailsEPKc
 8217      00
 8218              	.LEHE229:
 8219              	.LEHB230:
 8220 4ac5 E8000000 		call	__cxa_end_catch
 8220      00
 8221              	.LEHE230:
 8222 4aca E900FFFF 		jmp	.L1203
 8222      FF
 8223 4acf 90       		.p2align 4,,10
 8224              		.p2align 3
 8225              	.L1253:
 8226 4ad0 4829E8   		subq	%rbp, %rax
 8227 4ad3 488D5424 		leaq	31(%rsp), %rdx
 8227      1F
 8228 4ad8 31F6     		xorl	%esi, %esi
 8229 4ada 4889C7   		movq	%rax, %rdi
 8230 4add 4889C3   		movq	%rax, %rbx
 8231              	.LEHB231:
 8232 4ae0 E8000000 		call	_ZNSs4_Rep9_S_createEmmRKSaIcE
 8232      00
 8233 4ae5 4883FB01 		cmpq	$1, %rbx
 8234 4ae9 4989C4   		movq	%rax, %r12
 8235 4aec 488D4818 		leaq	24(%rax), %rcx
 8236 4af0 757E     		jne	.L1175
 8237 4af2 0FB64500 		movzbl	0(%rbp), %eax
 8238 4af6 41884424 		movb	%al, 24(%r12)
 8238      18
 8239              	.L1176:
 8240 4afb 4981FC00 		cmpq	$_ZNSs4_Rep20_S_empty_rep_storageE, %r12
 8240      000000
 8241 4b02 0F84E8FE 		je	.L1172
 8241      FFFF
 8242 4b08 41C74424 		movl	$0, 16(%r12)
 8242      10000000 
 8242      00
 8243 4b11 49891C24 		movq	%rbx, (%r12)
 8244 4b15 41C6441C 		movb	$0, 24(%r12,%rbx)
 8244      1800
 8245 4b1b E9D0FEFF 		jmp	.L1172
 8245      FF
 8246              	.L1185:
 8247 4b20 4889FB   		movq	%rdi, %rbx
 8248 4b23 488D5424 		leaq	30(%rsp), %rdx
 8248      1E
 8249 4b28 31F6     		xorl	%esi, %esi
 8250 4b2a 4829EB   		subq	%rbp, %rbx
 8251 4b2d 4889DF   		movq	%rbx, %rdi
 8252 4b30 E8000000 		call	_ZNSs4_Rep9_S_createEmmRKSaIcE
 8252      00
 8253              	.LEHE231:
 8254 4b35 4883FB01 		cmpq	$1, %rbx
 8255 4b39 4989C4   		movq	%rax, %r12
 8256 4b3c 488D4818 		leaq	24(%rax), %rcx
 8257 4b40 754E     		jne	.L1186
 8258 4b42 0FB64500 		movzbl	0(%rbp), %eax
 8259 4b46 41884424 		movb	%al, 24(%r12)
 8259      18
 8260              	.L1187:
 8261 4b4b 4981FC00 		cmpq	$_ZNSs4_Rep20_S_empty_rep_storageE, %r12
 8261      000000
 8262 4b52 0F8418FE 		je	.L1182
 8262      FFFF
 8263 4b58 41C74424 		movl	$0, 16(%r12)
 8263      10000000 
 8263      00
 8264 4b61 49891C24 		movq	%rbx, (%r12)
 8265 4b65 41C6441C 		movb	$0, 24(%r12,%rbx)
 8265      1800
 8266 4b6b E900FEFF 		jmp	.L1182
 8266      FF
 8267              		.p2align 4,,10
 8268              		.p2align 3
 8269              	.L1175:
 8270 4b70 4889CF   		movq	%rcx, %rdi
 8271 4b73 4889DA   		movq	%rbx, %rdx
 8272 4b76 4889EE   		movq	%rbp, %rsi
 8273 4b79 E8000000 		call	memcpy
 8273      00
 8274 4b7e 4889C1   		movq	%rax, %rcx
 8275 4b81 E975FFFF 		jmp	.L1176
 8275      FF
 8276 4b86 662E0F1F 		.p2align 4,,10
 8276      84000000 
 8276      0000
 8277              		.p2align 3
 8278              	.L1186:
 8279 4b90 4889CF   		movq	%rcx, %rdi
 8280 4b93 4889DA   		movq	%rbx, %rdx
 8281 4b96 4889EE   		movq	%rbp, %rsi
 8282 4b99 E8000000 		call	memcpy
 8282      00
 8283 4b9e 4889C1   		movq	%rax, %rcx
 8284 4ba1 EBA8     		jmp	.L1187
 8285              		.p2align 4,,10
 8286 4ba3 0F1F4400 		.p2align 3
 8286      00
 8287              	.L1257:
 8288 4ba8 BA000000 		movl	$_ZL28__gthrw___pthread_key_createPjPFvPvE, %edx
 8288      00
 8289 4bad 4885D2   		testq	%rdx, %rdx
 8290 4bb0 7456     		je	.L1204
 8291 4bb2 BAFFFFFF 		movl	$-1, %edx
 8291      FF
 8292 4bb7 F00FC150 		lock xaddl	%edx, -8(%rax)
 8292      F8
 8293 4bbc 89D0     		movl	%edx, %eax
 8294              	.L1205:
 8295 4bbe 85C0     		testl	%eax, %eax
 8296 4bc0 0F8F09FE 		jg	.L1203
 8296      FFFF
 8297 4bc6 488D7424 		leaq	24(%rsp), %rsi
 8297      18
 8298 4bcb E8000000 		call	_ZNSs4_Rep10_M_destroyERKSaIcE
 8298      00
 8299 4bd0 E9FAFDFF 		jmp	.L1203
 8299      FF
 8300              		.p2align 4,,10
 8301 4bd5 0F1F00   		.p2align 3
 8302              	.L1256:
 8303 4bd8 BA000000 		movl	$_ZL28__gthrw___pthread_key_createPjPFvPvE, %edx
 8303      00
 8304 4bdd 4885D2   		testq	%rdx, %rdx
 8305 4be0 7443     		je	.L1189
 8306 4be2 BAFFFFFF 		movl	$-1, %edx
 8306      FF
 8307 4be7 F00FC150 		lock xaddl	%edx, -8(%rax)
 8307      F8
 8308 4bec 89D0     		movl	%edx, %eax
 8309              	.L1190:
 8310 4bee 85C0     		testl	%eax, %eax
 8311 4bf0 0F8FA4FD 		jg	.L1178
 8311      FFFF
 8312 4bf6 488D7424 		leaq	28(%rsp), %rsi
 8312      1C
 8313 4bfb E8000000 		call	_ZNSs4_Rep10_M_destroyERKSaIcE
 8313      00
 8314 4c00 E995FDFF 		jmp	.L1178
 8314      FF
 8315              		.p2align 4,,10
 8316 4c05 0F1F00   		.p2align 3
 8317              	.L1204:
 8318 4c08 8B50F8   		movl	-8(%rax), %edx
 8319 4c0b 8D4AFF   		leal	-1(%rdx), %ecx
 8320 4c0e 8948F8   		movl	%ecx, -8(%rax)
 8321 4c11 89D0     		movl	%edx, %eax
 8322 4c13 EBA9     		jmp	.L1205
 8323              	.L1179:
 8324 4c15 8B50F8   		movl	-8(%rax), %edx
 8325 4c18 8D4AFF   		leal	-1(%rdx), %ecx
 8326 4c1b 8948F8   		movl	%ecx, -8(%rax)
 8327 4c1e 89D0     		movl	%edx, %eax
 8328 4c20 E90BFEFF 		jmp	.L1180
 8328      FF
 8329              	.L1189:
 8330 4c25 8B50F8   		movl	-8(%rax), %edx
 8331 4c28 8D4AFF   		leal	-1(%rdx), %ecx
 8332 4c2b 8948F8   		movl	%ecx, -8(%rax)
 8333 4c2e 89D0     		movl	%edx, %eax
 8334 4c30 EBBC     		jmp	.L1190
 8335              	.L1255:
 8336 4c32 E8000000 		call	__stack_chk_fail
 8336      00
 8337              	.L1234:
 8338 4c37 4889C3   		movq	%rax, %rbx
 8339 4c3a 4889D5   		movq	%rdx, %rbp
 8340 4c3d E8000000 		call	__cxa_end_catch
 8340      00
 8341 4c42 E95CFCFF 		jmp	.L1212
 8341      FF
 8342              	.L1228:
 8343 4c47 4889C7   		movq	%rax, %rdi
 8344 4c4a E967FCFF 		jmp	.L1213
 8344      FF
 8345              	.L1238:
 8346 4c4f 4889C3   		movq	%rax, %rbx
 8347 4c52 488B4424 		movq	48(%rsp), %rax
 8347      30
 8348 4c57 488D78E8 		leaq	-24(%rax), %rdi
 8349 4c5b 4881FF00 		cmpq	$_ZNSs4_Rep20_S_empty_rep_storageE, %rdi
 8349      000000
 8350 4c62 0F8402FE 		je	.L1194
 8350      FFFF
 8351 4c68 488D7424 		leaq	26(%rsp), %rsi
 8351      1A
 8352 4c6d E8000000 		call	_ZNSs4_Rep10_M_disposeERKSaIcE.part.5
 8352      00
 8353 4c72 E9F3FDFF 		jmp	.L1194
 8353      FF
 8354              	.L1235:
 8355 4c77 E90DFEFF 		jmp	.L1200
 8355      FF
 8356              	.L1236:
 8357 4c7c 4889C3   		movq	%rax, %rbx
 8358 4c7f 488B4424 		movq	32(%rsp), %rax
 8358      20
 8359 4c84 488D78E8 		leaq	-24(%rax), %rdi
 8360 4c88 4881FF00 		cmpq	$_ZNSs4_Rep20_S_empty_rep_storageE, %rdi
 8360      000000
 8361 4c8f 0F84F1FD 		je	.L1210
 8361      FFFF
 8362 4c95 488D7424 		leaq	23(%rsp), %rsi
 8362      17
 8363 4c9a E8000000 		call	_ZNSs4_Rep10_M_disposeERKSaIcE.part.5
 8363      00
 8364 4c9f E9E2FDFF 		jmp	.L1210
 8364      FF
 8365              	.L1239:
 8366 4ca4 4889C3   		movq	%rax, %rbx
 8367 4ca7 488B4424 		movq	64(%rsp), %rax
 8367      40
 8368 4cac 488D78E8 		leaq	-24(%rax), %rdi
 8369 4cb0 4881FF00 		cmpq	$_ZNSs4_Rep20_S_empty_rep_storageE, %rdi
 8369      000000
 8370 4cb7 0F84ADFD 		je	.L1194
 8370      FFFF
 8371 4cbd 488D7424 		leaq	27(%rsp), %rsi
 8371      1B
 8372 4cc2 E8000000 		call	_ZNSs4_Rep10_M_disposeERKSaIcE.part.5
 8372      00
 8373 4cc7 E99EFDFF 		jmp	.L1194
 8373      FF
 8374              	.L1232:
 8375 4ccc 488DBC24 		leaq	208(%rsp), %rdi
 8375      D0000000 
 8376 4cd4 4889C3   		movq	%rax, %rbx
 8377 4cd7 E8000000 		call	_ZN8UnitTest15MemoryOutStreamD1Ev
 8377      00
 8378              	.L1219:
 8379 4cdc E8000000 		call	__cxa_end_catch
 8379      00
 8380 4ce1 4889DF   		movq	%rbx, %rdi
 8381              	.LEHB232:
 8382 4ce4 E8000000 		call	_Unwind_Resume
 8382      00
 8383              	.LEHE232:
 8384              	.L1231:
 8385              	.L1247:
 8386 4ce9 4889C3   		movq	%rax, %rbx
 8387 4cec EBEE     		jmp	.L1219
 8388              	.L1254:
 8389 4cee E8000000 		call	__cxa_begin_catch
 8389      00
 8390              	.LEHB233:
 8391 4cf3 E8000000 		call	_ZN8UnitTest11CurrentTest7ResultsEv
 8391      00
 8392 4cf8 488B7424 		movq	8(%rsp), %rsi
 8392      08
 8393 4cfd 488B38   		movq	(%rax), %rdi
 8394 4d00 BA000000 		movl	$.LC33, %edx
 8394      00
 8395 4d05 E8000000 		call	_ZN8UnitTest11TestResults13OnTestFailureERKNS_11TestDetailsEPKc
 8395      00
 8396              	.LEHE233:
 8397              	.LEHB234:
 8398 4d0a E8000000 		call	__cxa_end_catch
 8398      00
 8399              	.LEHE234:
 8400 4d0f E92CFCFF 		jmp	.L1167
 8400      FF
 8401              	.L1215:
 8402 4d14 E8000000 		call	__cxa_begin_catch
 8402      00
 8403 4d19 4889C3   		movq	%rax, %rbx
 8404 4d1c 488B00   		movq	(%rax), %rax
 8405 4d1f 4889DF   		movq	%rbx, %rdi
 8406 4d22 FF5010   		call	*16(%rax)
 8407 4d25 4889DF   		movq	%rbx, %rdi
 8408 4d28 4889C5   		movq	%rax, %rbp
 8409              	.LEHB235:
 8410 4d2b E8000000 		call	_ZNK8UnitTest15AssertException10LineNumberEv
 8410      00
 8411 4d30 4889DF   		movq	%rbx, %rdi
 8412 4d33 4189C4   		movl	%eax, %r12d
 8413 4d36 E8000000 		call	_ZNK8UnitTest15AssertException8FilenameEv
 8413      00
 8414 4d3b 4889C1   		movq	%rax, %rcx
 8415 4d3e 488B4424 		movq	8(%rsp), %rax
 8415      08
 8416 4d43 488D7C24 		leaq	80(%rsp), %rdi
 8416      50
 8417 4d48 4589E0   		movl	%r12d, %r8d
 8418 4d4b 488B7008 		movq	8(%rax), %rsi
 8419 4d4f 488B10   		movq	(%rax), %rdx
 8420 4d52 E8000000 		call	_ZN8UnitTest11TestDetailsC1EPKcS2_S2_i
 8420      00
 8421 4d57 E8000000 		call	_ZN8UnitTest11CurrentTest7ResultsEv
 8421      00
 8422 4d5c 488B38   		movq	(%rax), %rdi
 8423 4d5f 488D7424 		leaq	80(%rsp), %rsi
 8423      50
 8424 4d64 4889EA   		movq	%rbp, %rdx
 8425 4d67 E8000000 		call	_ZN8UnitTest11TestResults13OnTestFailureERKNS_11TestDetailsEPKc
 8425      00
 8426              	.LEHE235:
 8427 4d6c E9C9FBFF 		jmp	.L1246
 8427      FF
 8428              	.L1233:
 8429 4d71 4889C3   		movq	%rax, %rbx
 8430 4d74 E8000000 		call	__cxa_end_catch
 8430      00
 8431 4d79 4889DF   		movq	%rbx, %rdi
 8432              	.LEHB236:
 8433 4d7c E8000000 		call	_Unwind_Resume
 8433      00
 8434              	.LEHE236:
 8435              	.L1230:
 8436 4d81 E963FFFF 		jmp	.L1247
 8436      FF
 8437              		.cfi_endproc
 8438              	.LFE1493:
 8439              		.section	.gcc_except_table
 8440              		.align 4
 8441              	.LLSDA1493:
 8442 05e4 FF       		.byte	0xff
 8443 05e5 03       		.byte	0x3
 8444 05e6 9C01     		.uleb128 .LLSDATT1493-.LLSDATTD1493
 8445              	.LLSDATTD1493:
 8446 05e8 01       		.byte	0x1
 8447 05e9 8301     		.uleb128 .LLSDACSE1493-.LLSDACSB1493
 8448              	.LLSDACSB1493:
 8449 05eb 2A       		.uleb128 .LEHB214-.LFB1493
 8450 05ec 05       		.uleb128 .LEHE214-.LEHB214
 8451 05ed 00       		.uleb128 0
 8452 05ee 00       		.uleb128 0
 8453 05ef 3A       		.uleb128 .LEHB215-.LFB1493
 8454 05f0 05       		.uleb128 .LEHE215-.LEHB215
 8455 05f1 870A     		.uleb128 .L1228-.LFB1493
 8456 05f3 05       		.uleb128 0x5
 8457 05f4 6F       		.uleb128 .LEHB216-.LFB1493
 8458 05f5 36       		.uleb128 .LEHE216-.LEHB216
 8459 05f6 DD02     		.uleb128 .L1229-.LFB1493
 8460 05f8 07       		.uleb128 0x7
 8461 05f9 AE01     		.uleb128 .LEHB217-.LFB1493
 8462 05fb 1A       		.uleb128 .LEHE217-.LEHB217
 8463 05fc B70A     		.uleb128 .L1235-.LFB1493
 8464 05fe 01       		.uleb128 0x1
 8465 05ff 8602     		.uleb128 .LEHB218-.LFB1493
 8466 0601 05       		.uleb128 .LEHE218-.LEHB218
 8467 0602 A706     		.uleb128 .L1237-.LFB1493
 8468 0604 01       		.uleb128 0x1
 8469 0605 AB02     		.uleb128 .LEHB219-.LFB1493
 8470 0607 05       		.uleb128 .LEHE219-.LEHB219
 8471 0608 DD02     		.uleb128 .L1229-.LFB1493
 8472 060a 07       		.uleb128 0x7
 8473 060b D802     		.uleb128 .LEHB220-.LFB1493
 8474 060d 05       		.uleb128 .LEHE220-.LEHB220
 8475 060e A706     		.uleb128 .L1237-.LFB1493
 8476 0610 01       		.uleb128 0x1
 8477 0611 9A03     		.uleb128 .LEHB221-.LFB1493
 8478 0613 05       		.uleb128 .LEHE221-.LEHB221
 8479 0614 A90B     		.uleb128 .L1231-.LFB1493
 8480 0616 00       		.uleb128 0
 8481 0617 B803     		.uleb128 .LEHB222-.LFB1493
 8482 0619 35       		.uleb128 .LEHE222-.LEHB222
 8483 061a 8C0B     		.uleb128 .L1232-.LFB1493
 8484 061c 00       		.uleb128 0
 8485 061d F503     		.uleb128 .LEHB223-.LFB1493
 8486 061f 05       		.uleb128 .LEHE223-.LEHB223
 8487 0620 A90B     		.uleb128 .L1231-.LFB1493
 8488 0622 00       		.uleb128 0
 8489 0623 BF04     		.uleb128 .LEHB224-.LFB1493
 8490 0625 05       		.uleb128 .LEHE224-.LEHB224
 8491 0626 8F0A     		.uleb128 .L1238-.LFB1493
 8492 0628 01       		.uleb128 0x1
 8493 0629 DA04     		.uleb128 .LEHB225-.LFB1493
 8494 062b 1F       		.uleb128 .LEHE225-.LEHB225
 8495 062c BC0A     		.uleb128 .L1236-.LFB1493
 8496 062e 01       		.uleb128 0x1
 8497 062f 9705     		.uleb128 .LEHB226-.LFB1493
 8498 0631 05       		.uleb128 .LEHE226-.LEHB226
 8499 0632 870A     		.uleb128 .L1228-.LFB1493
 8500 0634 05       		.uleb128 0x5
 8501 0635 BF05     		.uleb128 .LEHB227-.LFB1493
 8502 0637 05       		.uleb128 .LEHE227-.LEHB227
 8503 0638 E40A     		.uleb128 .L1239-.LFB1493
 8504 063a 01       		.uleb128 0x1
 8505 063b 9D06     		.uleb128 .LEHB228-.LFB1493
 8506 063d 05       		.uleb128 .LEHE228-.LEHB228
 8507 063e A706     		.uleb128 .L1237-.LFB1493
 8508 0640 01       		.uleb128 0x1
 8509 0641 D106     		.uleb128 .LEHB229-.LFB1493
 8510 0643 34       		.uleb128 .LEHE229-.LEHB229
 8511 0644 F709     		.uleb128 .L1234-.LFB1493
 8512 0646 07       		.uleb128 0x7
 8513 0647 8507     		.uleb128 .LEHB230-.LFB1493
 8514 0649 05       		.uleb128 .LEHE230-.LEHB230
 8515 064a DD02     		.uleb128 .L1229-.LFB1493
 8516 064c 07       		.uleb128 0x7
 8517 064d A007     		.uleb128 .LEHB231-.LFB1493
 8518 064f 55       		.uleb128 .LEHE231-.LEHB231
 8519 0650 A706     		.uleb128 .L1237-.LFB1493
 8520 0652 01       		.uleb128 0x1
 8521 0653 A40B     		.uleb128 .LEHB232-.LFB1493
 8522 0655 05       		.uleb128 .LEHE232-.LEHB232
 8523 0656 00       		.uleb128 0
 8524 0657 00       		.uleb128 0
 8525 0658 B30B     		.uleb128 .LEHB233-.LFB1493
 8526 065a 17       		.uleb128 .LEHE233-.LEHB233
 8527 065b B10C     		.uleb128 .L1233-.LFB1493
 8528 065d 00       		.uleb128 0
 8529 065e CA0B     		.uleb128 .LEHB234-.LFB1493
 8530 0660 05       		.uleb128 .LEHE234-.LEHB234
 8531 0661 00       		.uleb128 0
 8532 0662 00       		.uleb128 0
 8533 0663 EB0B     		.uleb128 .LEHB235-.LFB1493
 8534 0665 41       		.uleb128 .LEHE235-.LEHB235
 8535 0666 C10C     		.uleb128 .L1230-.LFB1493
 8536 0668 00       		.uleb128 0
 8537 0669 BC0C     		.uleb128 .LEHB236-.LFB1493
 8538 066b 05       		.uleb128 .LEHE236-.LEHB236
 8539 066c 00       		.uleb128 0
 8540 066d 00       		.uleb128 0
 8541              	.LLSDACSE1493:
 8542 066e 03       		.byte	0x3
 8543 066f 00       		.byte	0
 8544 0670 02       		.byte	0x2
 8545 0671 7D       		.byte	0x7d
 8546 0672 01       		.byte	0x1
 8547 0673 7D       		.byte	0x7d
 8548 0674 00       		.byte	0
 8549 0675 7D       		.byte	0x7d
 8550 0676 0000     		.align 4
 8551 0678 00000000 		.long	0
 8552              	
 8553 067c 00000000 		.long	_ZTISt9exception
 8554 0680 00000000 		.long	_ZTIN8UnitTest15AssertExceptionE
 8555              	.LLSDATT1493:
 8556              		.text
 8558              		.section	.text.unlikely
 8559              	.LCOLDE72:
 8560              		.text
 8561              	.LHOTE72:
 8562              		.section	.text.unlikely
 8563              		.align 2
 8564              	.LCOLDB73:
 8565              		.text
 8566              	.LHOTB73:
 8567              		.align 2
 8568 4d86 662E0F1F 		.p2align 4,,15
 8568      84000000 
 8568      0000
 8570              	_ZNK12_GLOBAL__N_165TestXmlTestReporterFixtureSingleSuccessfulTestReportSummaryFormat7RunImplEv:
 8571              	.LFB1408:
 8572              		.cfi_startproc
 8573              		.cfi_personality 0x3,__gxx_personality_v0
 8574              		.cfi_lsda 0x3,.LLSDA1408
 8575 4d90 4157     		pushq	%r15
 8576              		.cfi_def_cfa_offset 16
 8577              		.cfi_offset 15, -16
 8578 4d92 4156     		pushq	%r14
 8579              		.cfi_def_cfa_offset 24
 8580              		.cfi_offset 14, -24
 8581 4d94 4155     		pushq	%r13
 8582              		.cfi_def_cfa_offset 32
 8583              		.cfi_offset 13, -32
 8584 4d96 4154     		pushq	%r12
 8585              		.cfi_def_cfa_offset 40
 8586              		.cfi_offset 12, -40
 8587 4d98 4C8D6F08 		leaq	8(%rdi), %r13
 8588 4d9c 55       		pushq	%rbp
 8589              		.cfi_def_cfa_offset 48
 8590              		.cfi_offset 6, -48
 8591 4d9d 53       		pushq	%rbx
 8592              		.cfi_def_cfa_offset 56
 8593              		.cfi_offset 3, -56
 8594 4d9e 4881ECD8 		subq	$472, %rsp
 8594      010000
 8595              		.cfi_def_cfa_offset 528
 8596 4da5 48897C24 		movq	%rdi, 8(%rsp)
 8596      08
 8597 4daa 488DBC24 		leaq	136(%rsp), %rdi
 8597      88000000 
 8598 4db2 64488B0C 		movq	%fs:40, %rcx
 8598      25280000 
 8598      00
 8599 4dbb 48898C24 		movq	%rcx, 456(%rsp)
 8599      C8010000 
 8600 4dc3 31C9     		xorl	%ecx, %ecx
 8601 4dc5 E8000000 		call	_ZNSt8ios_baseC2Ev
 8601      00
 8602 4dca 4C8B2500 		movq	_ZTTSt19basic_ostringstreamIcSt11char_traitsIcESaIcEE+8(%rip), %r12
 8602      000000
 8603 4dd1 C6842468 		movb	$0, 360(%rsp)
 8603      01000000 
 8604 4dd9 488D7C24 		leaq	48(%rsp), %rdi
 8604      30
 8605 4dde 488B0500 		movq	_ZTTSt19basic_ostringstreamIcSt11char_traitsIcESaIcEE+16(%rip), %rax
 8605      000000
 8606 4de5 48C78424 		movq	$_ZTVSt9basic_iosIcSt11char_traitsIcEE+16, 136(%rsp)
 8606      88000000 
 8606      00000000 
 8607 4df1 31F6     		xorl	%esi, %esi
 8608 4df3 48C78424 		movq	$0, 352(%rsp)
 8608      60010000 
 8608      00000000 
 8609 4dff C6842469 		movb	$0, 361(%rsp)
 8609      01000000 
 8610 4e07 49037C24 		addq	-24(%r12), %rdi
 8610      E8
 8611 4e0c 48C78424 		movq	$0, 368(%rsp)
 8611      70010000 
 8611      00000000 
 8612 4e18 48C78424 		movq	$0, 376(%rsp)
 8612      78010000 
 8612      00000000 
 8613 4e24 48C78424 		movq	$0, 384(%rsp)
 8613      80010000 
 8613      00000000 
 8614 4e30 48C78424 		movq	$0, 392(%rsp)
 8614      88010000 
 8614      00000000 
 8615 4e3c 4C896424 		movq	%r12, 48(%rsp)
 8615      30
 8616 4e41 488907   		movq	%rax, (%rdi)
 8617              	.LEHB237:
 8618 4e44 E8000000 		call	_ZNSt9basic_iosIcSt11char_traitsIcEE4initEPSt15basic_streambufIcS1_E
 8618      00
 8619              	.LEHE237:
 8620 4e49 488D7C24 		leaq	112(%rsp), %rdi
 8620      70
 8621 4e4e 48C74424 		movq	$_ZTVSt19basic_ostringstreamIcSt11char_traitsIcESaIcEE+24, 48(%rsp)
 8621      30000000 
 8621      00
 8622 4e57 48C78424 		movq	$_ZTVSt19basic_ostringstreamIcSt11char_traitsIcESaIcEE+64, 136(%rsp)
 8622      88000000 
 8622      00000000 
 8623 4e63 48C74424 		movq	$_ZTVSt15basic_streambufIcSt11char_traitsIcEE+16, 56(%rsp)
 8623      38000000 
 8623      00
 8624 4e6c 48C74424 		movq	$0, 64(%rsp)
 8624      40000000 
 8624      00
 8625 4e75 48C74424 		movq	$0, 72(%rsp)
 8625      48000000 
 8625      00
 8626 4e7e 48C74424 		movq	$0, 80(%rsp)
 8626      50000000 
 8626      00
 8627 4e87 48C74424 		movq	$0, 88(%rsp)
 8627      58000000 
 8627      00
 8628 4e90 48C74424 		movq	$0, 96(%rsp)
 8628      60000000 
 8628      00
 8629 4e99 48C74424 		movq	$0, 104(%rsp)
 8629      68000000 
 8629      00
 8630 4ea2 E8000000 		call	_ZNSt6localeC1Ev
 8630      00
 8631 4ea7 488D4424 		leaq	48(%rsp), %rax
 8631      30
 8632 4eac 488D7424 		leaq	56(%rsp), %rsi
 8632      38
 8633 4eb1 48C74424 		movq	$_ZTVSt15basic_stringbufIcSt11char_traitsIcESaIcEE+16, 56(%rsp)
 8633      38000000 
 8633      00
 8634 4eba C7442478 		movl	$16, 120(%rsp)
 8634      10000000 
 8635 4ec2 48C78424 		movq	$_ZNSs4_Rep20_S_empty_rep_storageE+24, 128(%rsp)
 8635      80000000 
 8635      00000000 
 8636 4ece 488D7858 		leaq	88(%rax), %rdi
 8637              	.LEHB238:
 8638 4ed2 E8000000 		call	_ZNSt9basic_iosIcSt11char_traitsIcEE4initEPSt15basic_streambufIcS1_E
 8638      00
 8639              	.LEHE238:
 8640 4ed7 488D4424 		leaq	48(%rsp), %rax
 8640      30
 8641 4edc 488DB860 		leaq	352(%rax), %rdi
 8641      010000
 8642 4ee3 4889C6   		movq	%rax, %rsi
 8643              	.LEHB239:
 8644 4ee6 E8000000 		call	_ZN8UnitTest15XmlTestReporterC1ERSo
 8644      00
 8645              	.LEHE239:
 8646 4eeb 488D7C24 		leaq	48(%rsp), %rdi
 8646      30
 8647 4ef0 4C89EE   		movq	%r13, %rsi
 8648 4ef3 4C89AC24 		movq	%r13, 440(%rsp)
 8648      B8010000 
 8649              	.LEHB240:
 8650 4efb E840F8FF 		call	_ZN8UnitTest11ExecuteTestIN12_GLOBAL__N_167XmlTestReporterFixtureSingleSuccessfulTestReportSu
 8650      FF
 8651              	.LEHE240:
 8652 4f00 488BAC24 		movq	416(%rsp), %rbp
 8652      A0010000 
 8653 4f08 4C8BB424 		movq	408(%rsp), %r14
 8653      98010000 
 8654 4f10 48C78424 		movq	$_ZTVN8UnitTest20DeferredTestReporterE+16, 400(%rsp)
 8654      90010000 
 8654      00000000 
 8655 4f1c 4C39F5   		cmpq	%r14, %rbp
 8656 4f1f 0F84C700 		je	.L1265
 8656      0000
 8657              		.p2align 4,,10
 8658 4f25 0F1F00   		.p2align 3
 8659              	.L1294:
 8660 4f28 4D8B7E20 		movq	32(%r14), %r15
 8661 4f2c 498B5E18 		movq	24(%r14), %rbx
 8662 4f30 4939DF   		cmpq	%rbx, %r15
 8663 4f33 7457     		je	.L1266
 8664 4f35 B8000000 		movl	$_ZL28__gthrw___pthread_key_createPjPFvPvE, %eax
 8664      00
 8665 4f3a 4885C0   		testq	%rax, %rax
 8666 4f3d 7512     		jne	.L1330
 8667 4f3f E9990100 		jmp	.L1272
 8667      00
 8668              		.p2align 4,,10
 8669 4f44 0F1F4000 		.p2align 3
 8670              	.L1275:
 8671 4f48 4883C310 		addq	$16, %rbx
 8672 4f4c 4939DF   		cmpq	%rbx, %r15
 8673 4f4f 7437     		je	.L1273
 8674              	.L1330:
 8675 4f51 488B4308 		movq	8(%rbx), %rax
 8676 4f55 488D78E8 		leaq	-24(%rax), %rdi
 8677 4f59 4881FF00 		cmpq	$_ZNSs4_Rep20_S_empty_rep_storageE, %rdi
 8677      000000
 8678 4f60 74E6     		je	.L1275
 8679 4f62 BEFFFFFF 		movl	$-1, %esi
 8679      FF
 8680 4f67 F00FC170 		lock xaddl	%esi, -8(%rax)
 8680      F8
 8681 4f6c 85F6     		testl	%esi, %esi
 8682 4f6e 7FD8     		jg	.L1275
 8683 4f70 488D7424 		leaq	16(%rsp), %rsi
 8683      10
 8684 4f75 4883C310 		addq	$16, %rbx
 8685 4f79 E8000000 		call	_ZNSs4_Rep10_M_destroyERKSaIcE
 8685      00
 8686 4f7e 4939DF   		cmpq	%rbx, %r15
 8687 4f81 75CE     		jne	.L1330
 8688              		.p2align 4,,10
 8689 4f83 0F1F4400 		.p2align 3
 8689      00
 8690              	.L1273:
 8691 4f88 4D8B7E18 		movq	24(%r14), %r15
 8692              	.L1266:
 8693 4f8c 4D85FF   		testq	%r15, %r15
 8694 4f8f 7408     		je	.L1278
 8695 4f91 4C89FF   		movq	%r15, %rdi
 8696 4f94 E8000000 		call	_ZdlPv
 8696      00
 8697              	.L1278:
 8698 4f99 498B4610 		movq	16(%r14), %rax
 8699 4f9d 488D78E8 		leaq	-24(%rax), %rdi
 8700 4fa1 4881FF00 		cmpq	$_ZNSs4_Rep20_S_empty_rep_storageE, %rdi
 8700      000000
 8701 4fa8 0F85AA01 		jne	.L1346
 8701      0000
 8702              	.L1280:
 8703 4fae 498B4608 		movq	8(%r14), %rax
 8704 4fb2 488D78E8 		leaq	-24(%rax), %rdi
 8705 4fb6 4881FF00 		cmpq	$_ZNSs4_Rep20_S_empty_rep_storageE, %rdi
 8705      000000
 8706 4fbd 0F856501 		jne	.L1347
 8706      0000
 8707              	.L1285:
 8708 4fc3 498B06   		movq	(%r14), %rax
 8709 4fc6 488D78E8 		leaq	-24(%rax), %rdi
 8710 4fca 4881FF00 		cmpq	$_ZNSs4_Rep20_S_empty_rep_storageE, %rdi
 8710      000000
 8711 4fd1 0F851901 		jne	.L1348
 8711      0000
 8712              	.L1290:
 8713 4fd7 4983C638 		addq	$56, %r14
 8714 4fdb 4C39F5   		cmpq	%r14, %rbp
 8715 4fde 0F8544FF 		jne	.L1294
 8715      FFFF
 8716 4fe4 488BAC24 		movq	408(%rsp), %rbp
 8716      98010000 
 8717              	.L1265:
 8718 4fec 4885ED   		testq	%rbp, %rbp
 8719 4fef 7408     		je	.L1295
 8720 4ff1 4889EF   		movq	%rbp, %rdi
 8721 4ff4 E8000000 		call	_ZdlPv
 8721      00
 8722              	.L1295:
 8723 4ff9 488D4424 		leaq	48(%rsp), %rax
 8723      30
 8724 4ffe 488DB860 		leaq	352(%rax), %rdi
 8724      010000
 8725              	.LEHB241:
 8726 5005 E8000000 		call	_ZN8UnitTest12TestReporterD2Ev
 8726      00
 8727              	.LEHE241:
 8728 500a 488B8424 		movq	128(%rsp), %rax
 8728      80000000 
 8729 5012 48C74424 		movq	$_ZTVSt19basic_ostringstreamIcSt11char_traitsIcESaIcEE+24, 48(%rsp)
 8729      30000000 
 8729      00
 8730 501b 48C78424 		movq	$_ZTVSt19basic_ostringstreamIcSt11char_traitsIcESaIcEE+64, 136(%rsp)
 8730      88000000 
 8730      00000000 
 8731 5027 48C74424 		movq	$_ZTVSt15basic_stringbufIcSt11char_traitsIcESaIcEE+16, 56(%rsp)
 8731      38000000 
 8731      00
 8732 5030 488D78E8 		leaq	-24(%rax), %rdi
 8733 5034 4881FF00 		cmpq	$_ZNSs4_Rep20_S_empty_rep_storageE, %rdi
 8733      000000
 8734 503b 0F856E01 		jne	.L1349
 8734      0000
 8735              	.L1297:
 8736 5041 488D7C24 		leaq	112(%rsp), %rdi
 8736      70
 8737 5046 48C74424 		movq	$_ZTVSt15basic_streambufIcSt11char_traitsIcEE+16, 56(%rsp)
 8737      38000000 
 8737      00
 8738 504f E8000000 		call	_ZNSt6localeD1Ev
 8738      00
 8739 5054 498B4424 		movq	-24(%r12), %rax
 8739      E8
 8740 5059 488B0D00 		movq	_ZTTSt19basic_ostringstreamIcSt11char_traitsIcESaIcEE+16(%rip), %rcx
 8740      000000
 8741 5060 4C896424 		movq	%r12, 48(%rsp)
 8741      30
 8742 5065 48894C04 		movq	%rcx, 48(%rsp,%rax)
 8742      30
 8743 506a 488D4424 		leaq	48(%rsp), %rax
 8743      30
 8744 506f 48C78424 		movq	$_ZTVSt9basic_iosIcSt11char_traitsIcEE+16, 136(%rsp)
 8744      88000000 
 8744      00000000 
 8745 507b 488D7858 		leaq	88(%rax), %rdi
 8746              	.LEHB242:
 8747 507f E8000000 		call	_ZNSt8ios_baseD2Ev
 8747      00
 8748              	.LEHE242:
 8749              	.L1258:
 8750 5084 488B8424 		movq	456(%rsp), %rax
 8750      C8010000 
 8751 508c 64483304 		xorq	%fs:40, %rax
 8751      25280000 
 8751      00
 8752 5095 0F85E901 		jne	.L1350
 8752      0000
 8753 509b 4881C4D8 		addq	$472, %rsp
 8753      010000
 8754              		.cfi_remember_state
 8755              		.cfi_def_cfa_offset 56
 8756 50a2 5B       		popq	%rbx
 8757              		.cfi_def_cfa_offset 48
 8758 50a3 5D       		popq	%rbp
 8759              		.cfi_def_cfa_offset 40
 8760 50a4 415C     		popq	%r12
 8761              		.cfi_def_cfa_offset 32
 8762 50a6 415D     		popq	%r13
 8763              		.cfi_def_cfa_offset 24
 8764 50a8 415E     		popq	%r14
 8765              		.cfi_def_cfa_offset 16
 8766 50aa 415F     		popq	%r15
 8767              		.cfi_def_cfa_offset 8
 8768 50ac C3       		ret
 8769 50ad 0F1F00   		.p2align 4,,10
 8770              		.p2align 3
 8771              	.L1351:
 8772              		.cfi_restore_state
 8773 50b0 8B70F8   		movl	-8(%rax), %esi
 8774 50b3 448D46FF 		leal	-1(%rsi), %r8d
 8775 50b7 85F6     		testl	%esi, %esi
 8776 50b9 448940F8 		movl	%r8d, -8(%rax)
 8777 50bd 7F11     		jg	.L1270
 8778 50bf 488D7424 		leaq	16(%rsp), %rsi
 8778      10
 8779 50c4 E8000000 		call	_ZNSs4_Rep10_M_destroyERKSaIcE
 8779      00
 8780 50c9 0F1F8000 		.p2align 4,,10
 8780      000000
 8781              		.p2align 3
 8782              	.L1270:
 8783 50d0 4883C310 		addq	$16, %rbx
 8784 50d4 4939DF   		cmpq	%rbx, %r15
 8785 50d7 0F84ABFE 		je	.L1273
 8785      FFFF
 8786              	.L1272:
 8787 50dd 488B4308 		movq	8(%rbx), %rax
 8788 50e1 488D78E8 		leaq	-24(%rax), %rdi
 8789 50e5 4881FF00 		cmpq	$_ZNSs4_Rep20_S_empty_rep_storageE, %rdi
 8789      000000
 8790 50ec 74E2     		je	.L1270
 8791 50ee EBC0     		jmp	.L1351
 8792              		.p2align 4,,10
 8793              		.p2align 3
 8794              	.L1348:
 8795 50f0 BA000000 		movl	$_ZL28__gthrw___pthread_key_createPjPFvPvE, %edx
 8795      00
 8796 50f5 4885D2   		testq	%rdx, %rdx
 8797 50f8 0F848700 		je	.L1291
 8797      0000
 8798 50fe BAFFFFFF 		movl	$-1, %edx
 8798      FF
 8799 5103 F00FC150 		lock xaddl	%edx, -8(%rax)
 8799      F8
 8800 5108 89D0     		movl	%edx, %eax
 8801              	.L1292:
 8802 510a 85C0     		testl	%eax, %eax
 8803 510c 0F8FC5FE 		jg	.L1290
 8803      FFFF
 8804 5112 488D7424 		leaq	16(%rsp), %rsi
 8804      10
 8805 5117 E8000000 		call	_ZNSs4_Rep10_M_destroyERKSaIcE
 8805      00
 8806 511c E9B6FEFF 		jmp	.L1290
 8806      FF
 8807              		.p2align 4,,10
 8808 5121 0F1F8000 		.p2align 3
 8808      000000
 8809              	.L1347:
 8810 5128 BA000000 		movl	$_ZL28__gthrw___pthread_key_createPjPFvPvE, %edx
 8810      00
 8811 512d 4885D2   		testq	%rdx, %rdx
 8812 5130 7470     		je	.L1286
 8813 5132 BAFFFFFF 		movl	$-1, %edx
 8813      FF
 8814 5137 F00FC150 		lock xaddl	%edx, -8(%rax)
 8814      F8
 8815 513c 89D0     		movl	%edx, %eax
 8816              	.L1287:
 8817 513e 85C0     		testl	%eax, %eax
 8818 5140 0F8F7DFE 		jg	.L1285
 8818      FFFF
 8819 5146 488D7424 		leaq	16(%rsp), %rsi
 8819      10
 8820 514b E8000000 		call	_ZNSs4_Rep10_M_destroyERKSaIcE
 8820      00
 8821 5150 E96EFEFF 		jmp	.L1285
 8821      FF
 8822              		.p2align 4,,10
 8823 5155 0F1F00   		.p2align 3
 8824              	.L1346:
 8825 5158 BA000000 		movl	$_ZL28__gthrw___pthread_key_createPjPFvPvE, %edx
 8825      00
 8826 515d 4885D2   		testq	%rdx, %rdx
 8827 5160 7433     		je	.L1281
 8828 5162 BAFFFFFF 		movl	$-1, %edx
 8828      FF
 8829 5167 F00FC150 		lock xaddl	%edx, -8(%rax)
 8829      F8
 8830 516c 89D0     		movl	%edx, %eax
 8831              	.L1282:
 8832 516e 85C0     		testl	%eax, %eax
 8833 5170 0F8F38FE 		jg	.L1280
 8833      FFFF
 8834 5176 488D7424 		leaq	16(%rsp), %rsi
 8834      10
 8835 517b E8000000 		call	_ZNSs4_Rep10_M_destroyERKSaIcE
 8835      00
 8836 5180 E929FEFF 		jmp	.L1280
 8836      FF
 8837              	.L1291:
 8838 5185 8B50F8   		movl	-8(%rax), %edx
 8839 5188 8D72FF   		leal	-1(%rdx), %esi
 8840 518b 8970F8   		movl	%esi, -8(%rax)
 8841 518e 89D0     		movl	%edx, %eax
 8842 5190 E975FFFF 		jmp	.L1292
 8842      FF
 8843              	.L1281:
 8844 5195 8B50F8   		movl	-8(%rax), %edx
 8845 5198 8D72FF   		leal	-1(%rdx), %esi
 8846 519b 8970F8   		movl	%esi, -8(%rax)
 8847 519e 89D0     		movl	%edx, %eax
 8848 51a0 EBCC     		jmp	.L1282
 8849              	.L1286:
 8850 51a2 8B50F8   		movl	-8(%rax), %edx
 8851 51a5 8D72FF   		leal	-1(%rdx), %esi
 8852 51a8 8970F8   		movl	%esi, -8(%rax)
 8853 51ab 89D0     		movl	%edx, %eax
 8854 51ad EB8F     		jmp	.L1287
 8855              	.L1349:
 8856 51af BA000000 		movl	$_ZL28__gthrw___pthread_key_createPjPFvPvE, %edx
 8856      00
 8857 51b4 4885D2   		testq	%rdx, %rdx
 8858 51b7 7423     		je	.L1298
 8859 51b9 BAFFFFFF 		movl	$-1, %edx
 8859      FF
 8860 51be F00FC150 		lock xaddl	%edx, -8(%rax)
 8860      F8
 8861 51c3 89D0     		movl	%edx, %eax
 8862              	.L1299:
 8863 51c5 85C0     		testl	%eax, %eax
 8864 51c7 0F8F74FE 		jg	.L1297
 8864      FFFF
 8865 51cd 488D7424 		leaq	16(%rsp), %rsi
 8865      10
 8866 51d2 E8000000 		call	_ZNSs4_Rep10_M_destroyERKSaIcE
 8866      00
 8867 51d7 E965FEFF 		jmp	.L1297
 8867      FF
 8868              	.L1298:
 8869 51dc 8B50F8   		movl	-8(%rax), %edx
 8870 51df 8D4AFF   		leal	-1(%rdx), %ecx
 8871 51e2 8948F8   		movl	%ecx, -8(%rax)
 8872 51e5 89D0     		movl	%edx, %eax
 8873 51e7 EBDC     		jmp	.L1299
 8874              	.L1325:
 8875 51e9 488D7C24 		leaq	48(%rsp), %rdi
 8875      30
 8876 51ee 4889C3   		movq	%rax, %rbx
 8877 51f1 4889D5   		movq	%rdx, %rbp
 8878 51f4 E8000000 		call	_ZNSt19basic_ostringstreamIcSt11char_traitsIcESaIcEED1Ev
 8878      00
 8879 51f9 4889DF   		movq	%rbx, %rdi
 8880 51fc 4889EA   		movq	%rbp, %rdx
 8881 51ff BB010000 		movl	$1, %ebx
 8881      00
 8882              	.L1262:
 8883 5204 4883FA01 		cmpq	$1, %rdx
 8884 5208 0F84E800 		je	.L1307
 8884      0000
 8885 520e 4883FA02 		cmpq	$2, %rdx
 8886 5212 0F859D00 		jne	.L1352
 8886      0000
 8887 5218 E8000000 		call	__cxa_begin_catch
 8887      00
 8888 521d 488D7C24 		leaq	48(%rsp), %rdi
 8888      30
 8889 5222 4889C3   		movq	%rax, %rbx
 8890              	.LEHB243:
 8891 5225 E8000000 		call	_ZN8UnitTest15MemoryOutStreamC1Ev
 8891      00
 8892              	.LEHE243:
 8893 522a 488B03   		movq	(%rbx), %rax
 8894 522d 4889DF   		movq	%rbx, %rdi
 8895 5230 FF5010   		call	*16(%rax)
 8896 5233 488D7C24 		leaq	48(%rsp), %rdi
 8896      30
 8897 5238 BE000000 		movl	$.LC32, %esi
 8897      00
 8898 523d 4889C3   		movq	%rax, %rbx
 8899              	.LEHB244:
 8900 5240 E8000000 		call	_ZStlsISt11char_traitsIcEERSt13basic_ostreamIcT_ES5_PKc
 8900      00
 8901 5245 4889C7   		movq	%rax, %rdi
 8902 5248 4889DE   		movq	%rbx, %rsi
 8903 524b E8000000 		call	_ZStlsISt11char_traitsIcEERSt13basic_ostreamIcT_ES5_PKc
 8903      00
 8904 5250 488D7C24 		leaq	48(%rsp), %rdi
 8904      30
 8905 5255 E8000000 		call	_ZNK8UnitTest15MemoryOutStream7GetTextEv
 8905      00
 8906 525a 4889C3   		movq	%rax, %rbx
 8907 525d E8000000 		call	_ZN8UnitTest11CurrentTest7ResultsEv
 8907      00
 8908 5262 488B38   		movq	(%rax), %rdi
 8909 5265 4889DA   		movq	%rbx, %rdx
 8910 5268 4C89EE   		movq	%r13, %rsi
 8911 526b E8000000 		call	_ZN8UnitTest11TestResults13OnTestFailureERKNS_11TestDetailsEPKc
 8911      00
 8912              	.LEHE244:
 8913 5270 488D7C24 		leaq	48(%rsp), %rdi
 8913      30
 8914              	.LEHB245:
 8915 5275 E8000000 		call	_ZN8UnitTest15MemoryOutStreamD1Ev
 8915      00
 8916              	.LEHE245:
 8917              	.L1340:
 8918 527a E8000000 		call	__cxa_end_catch
 8918      00
 8919 527f E900FEFF 		jmp	.L1258
 8919      FF
 8920              	.L1350:
 8921 5284 E8000000 		call	__stack_chk_fail
 8921      00
 8922              	.L1316:
 8923 5289 4889C7   		movq	%rax, %rdi
 8924 528c BB010000 		movl	$1, %ebx
 8924      00
 8925 5291 E96EFFFF 		jmp	.L1262
 8925      FF
 8926              	.L1320:
 8927 5296 488D7C24 		leaq	48(%rsp), %rdi
 8927      30
 8928 529b 4889C3   		movq	%rax, %rbx
 8929 529e E8000000 		call	_ZN8UnitTest15MemoryOutStreamD1Ev
 8929      00
 8930              	.L1311:
 8931 52a3 E8000000 		call	__cxa_end_catch
 8931      00
 8932 52a8 4889DF   		movq	%rbx, %rdi
 8933              	.LEHB246:
 8934 52ab E8000000 		call	_Unwind_Resume
 8934      00
 8935              	.LEHE246:
 8936              	.L1319:
 8937              	.L1341:
 8938 52b0 4889C3   		movq	%rax, %rbx
 8939 52b3 EBEE     		jmp	.L1311
 8940              	.L1352:
 8941 52b5 E8000000 		call	__cxa_begin_catch
 8941      00
 8942 52ba 84DB     		testb	%bl, %bl
 8943 52bc 488D5C24 		leaq	16(%rsp), %rbx
 8943      10
 8944 52c1 BA500000 		movl	$80, %edx
 8944      00
 8945 52c6 4C89EE   		movq	%r13, %rsi
 8946 52c9 4889DF   		movq	%rbx, %rdi
 8947 52cc 0F849300 		je	.L1313
 8947      0000
 8948              	.LEHB247:
 8949 52d2 E8000000 		call	_ZN8UnitTest11TestDetailsC1ERKS0_i
 8949      00
 8950 52d7 E8000000 		call	_ZN8UnitTest11CurrentTest7ResultsEv
 8950      00
 8951 52dc 488B38   		movq	(%rax), %rdi
 8952 52df BA000000 		movl	$.LC36, %edx
 8952      00
 8953 52e4 4889DE   		movq	%rbx, %rsi
 8954 52e7 E8000000 		call	_ZN8UnitTest11TestResults13OnTestFailureERKNS_11TestDetailsEPKc
 8954      00
 8955              	.LEHE247:
 8956              	.L1314:
 8957              	.LEHB248:
 8958 52ec E8000000 		call	__cxa_end_catch
 8958      00
 8959              	.LEHE248:
 8960 52f1 E98EFDFF 		jmp	.L1258
 8960      FF
 8961              	.L1307:
 8962 52f6 E8000000 		call	__cxa_begin_catch
 8962      00
 8963 52fb 4889C3   		movq	%rax, %rbx
 8964 52fe 488B00   		movq	(%rax), %rax
 8965 5301 4889DF   		movq	%rbx, %rdi
 8966 5304 FF5010   		call	*16(%rax)
 8967 5307 4889DF   		movq	%rbx, %rdi
 8968 530a 4889C5   		movq	%rax, %rbp
 8969              	.LEHB249:
 8970 530d E8000000 		call	_ZNK8UnitTest15AssertException10LineNumberEv
 8970      00
 8971 5312 4889DF   		movq	%rbx, %rdi
 8972 5315 4189C4   		movl	%eax, %r12d
 8973 5318 E8000000 		call	_ZNK8UnitTest15AssertException8FilenameEv
 8973      00
 8974 531d 488B4C24 		movq	8(%rsp), %rcx
 8974      08
 8975 5322 488D5C24 		leaq	16(%rsp), %rbx
 8975      10
 8976 5327 4589E0   		movl	%r12d, %r8d
 8977 532a 4889DF   		movq	%rbx, %rdi
 8978 532d 488B5108 		movq	8(%rcx), %rdx
 8979 5331 488B7110 		movq	16(%rcx), %rsi
 8980 5335 4889C1   		movq	%rax, %rcx
 8981 5338 E8000000 		call	_ZN8UnitTest11TestDetailsC1EPKcS2_S2_i
 8981      00
 8982 533d E8000000 		call	_ZN8UnitTest11CurrentTest7ResultsEv
 8982      00
 8983 5342 488B38   		movq	(%rax), %rdi
 8984 5345 4889EA   		movq	%rbp, %rdx
 8985 5348 4889DE   		movq	%rbx, %rsi
 8986 534b E8000000 		call	_ZN8UnitTest11TestResults13OnTestFailureERKNS_11TestDetailsEPKc
 8986      00
 8987              	.LEHE249:
 8988 5350 E925FFFF 		jmp	.L1340
 8988      FF
 8989              	.L1321:
 8990 5355 4889C3   		movq	%rax, %rbx
 8991 5358 E8000000 		call	__cxa_end_catch
 8991      00
 8992 535d 4889DF   		movq	%rbx, %rdi
 8993              	.LEHB250:
 8994 5360 E8000000 		call	_Unwind_Resume
 8994      00
 8995              	.LEHE250:
 8996              	.L1313:
 8997              	.LEHB251:
 8998 5365 E8000000 		call	_ZN8UnitTest11TestDetailsC1ERKS0_i
 8998      00
 8999 536a E8000000 		call	_ZN8UnitTest11CurrentTest7ResultsEv
 8999      00
 9000 536f 488B38   		movq	(%rax), %rdi
 9001 5372 BA000000 		movl	$.LC37, %edx
 9001      00
 9002 5377 4889DE   		movq	%rbx, %rsi
 9003 537a E8000000 		call	_ZN8UnitTest11TestResults13OnTestFailureERKNS_11TestDetailsEPKc
 9003      00
 9004              	.LEHE251:
 9005 537f E968FFFF 		jmp	.L1314
 9005      FF
 9006              	.L1318:
 9007 5384 E927FFFF 		jmp	.L1341
 9007      FF
 9008              	.L1317:
 9009 5389 488D7C24 		leaq	48(%rsp), %rdi
 9009      30
 9010 538e 4889C3   		movq	%rax, %rbx
 9011 5391 4889D5   		movq	%rdx, %rbp
 9012 5394 E8000000 		call	_ZN12_GLOBAL__N_122XmlTestReporterFixtureD2Ev
 9012      00
 9013 5399 4889DF   		movq	%rbx, %rdi
 9014 539c 4889EA   		movq	%rbp, %rdx
 9015 539f BB010000 		movl	$1, %ebx
 9015      00
 9016 53a4 E95BFEFF 		jmp	.L1262
 9016      FF
 9017              	.L1322:
 9018 53a9 488D7C24 		leaq	48(%rsp), %rdi
 9018      30
 9019 53ae 4889C3   		movq	%rax, %rbx
 9020 53b1 4889D5   		movq	%rdx, %rbp
 9021 53b4 E8000000 		call	_ZNSt19basic_ostringstreamIcSt11char_traitsIcESaIcEED1Ev
 9021      00
 9022 53b9 4889DF   		movq	%rbx, %rdi
 9023 53bc 4889EA   		movq	%rbp, %rdx
 9024 53bf 31DB     		xorl	%ebx, %ebx
 9025 53c1 E93EFEFF 		jmp	.L1262
 9025      FF
 9026              	.L1324:
 9027 53c6 488D7C24 		leaq	56(%rsp), %rdi
 9027      38
 9028 53cb 4889C3   		movq	%rax, %rbx
 9029 53ce 4889D5   		movq	%rdx, %rbp
 9030 53d1 E8000000 		call	_ZNSt15basic_stringbufIcSt11char_traitsIcESaIcEED1Ev
 9030      00
 9031 53d6 498B4424 		movq	-24(%r12), %rax
 9031      E8
 9032 53db 488B0D00 		movq	_ZTTSt19basic_ostringstreamIcSt11char_traitsIcESaIcEE+16(%rip), %rcx
 9032      000000
 9033 53e2 4C896424 		movq	%r12, 48(%rsp)
 9033      30
 9034 53e7 48894C04 		movq	%rcx, 48(%rsp,%rax)
 9034      30
 9035              	.L1261:
 9036 53ec 488DBC24 		leaq	136(%rsp), %rdi
 9036      88000000 
 9037 53f4 48C78424 		movq	$_ZTVSt9basic_iosIcSt11char_traitsIcEE+16, 136(%rsp)
 9037      88000000 
 9037      00000000 
 9038 5400 E8000000 		call	_ZNSt8ios_baseD2Ev
 9038      00
 9039 5405 4889DF   		movq	%rbx, %rdi
 9040 5408 4889EA   		movq	%rbp, %rdx
 9041 540b 31DB     		xorl	%ebx, %ebx
 9042 540d E9F2FDFF 		jmp	.L1262
 9042      FF
 9043              	.L1323:
 9044 5412 4889C3   		movq	%rax, %rbx
 9045 5415 4889D5   		movq	%rdx, %rbp
 9046 5418 EBD2     		jmp	.L1261
 9047              		.cfi_endproc
 9048              	.LFE1408:
 9049              		.section	.gcc_except_table
 9050              		.align 4
 9051              	.LLSDA1408:
 9052 0684 FF       		.byte	0xff
 9053 0685 03       		.byte	0x3
 9054 0686 6D       		.uleb128 .LLSDATT1408-.LLSDATTD1408
 9055              	.LLSDATTD1408:
 9056 0687 01       		.byte	0x1
 9057 0688 57       		.uleb128 .LLSDACSE1408-.LLSDACSB1408
 9058              	.LLSDACSB1408:
 9059 0689 B401     		.uleb128 .LEHB237-.LFB1408
 9060 068b 05       		.uleb128 .LEHE237-.LEHB237
 9061 068c 820D     		.uleb128 .L1323-.LFB1408
 9062 068e 07       		.uleb128 0x7
 9063 068f C202     		.uleb128 .LEHB238-.LFB1408
 9064 0691 05       		.uleb128 .LEHE238-.LEHB238
 9065 0692 B60C     		.uleb128 .L1324-.LFB1408
 9066 0694 07       		.uleb128 0x7
 9067 0695 D602     		.uleb128 .LEHB239-.LFB1408
 9068 0697 05       		.uleb128 .LEHE239-.LEHB239
 9069 0698 990C     		.uleb128 .L1322-.LFB1408
 9070 069a 07       		.uleb128 0x7
 9071 069b EB02     		.uleb128 .LEHB240-.LFB1408
 9072 069d 05       		.uleb128 .LEHE240-.LEHB240
 9073 069e F90B     		.uleb128 .L1317-.LFB1408
 9074 06a0 07       		.uleb128 0x7
 9075 06a1 F504     		.uleb128 .LEHB241-.LFB1408
 9076 06a3 05       		.uleb128 .LEHE241-.LEHB241
 9077 06a4 D908     		.uleb128 .L1325-.LFB1408
 9078 06a6 07       		.uleb128 0x7
 9079 06a7 EF05     		.uleb128 .LEHB242-.LFB1408
 9080 06a9 05       		.uleb128 .LEHE242-.LEHB242
 9081 06aa F909     		.uleb128 .L1316-.LFB1408
 9082 06ac 05       		.uleb128 0x5
 9083 06ad 9509     		.uleb128 .LEHB243-.LFB1408
 9084 06af 05       		.uleb128 .LEHE243-.LEHB243
 9085 06b0 A00A     		.uleb128 .L1319-.LFB1408
 9086 06b2 00       		.uleb128 0
 9087 06b3 B009     		.uleb128 .LEHB244-.LFB1408
 9088 06b5 30       		.uleb128 .LEHE244-.LEHB244
 9089 06b6 860A     		.uleb128 .L1320-.LFB1408
 9090 06b8 00       		.uleb128 0
 9091 06b9 E509     		.uleb128 .LEHB245-.LFB1408
 9092 06bb 05       		.uleb128 .LEHE245-.LEHB245
 9093 06bc A00A     		.uleb128 .L1319-.LFB1408
 9094 06be 00       		.uleb128 0
 9095 06bf 9B0A     		.uleb128 .LEHB246-.LFB1408
 9096 06c1 05       		.uleb128 .LEHE246-.LEHB246
 9097 06c2 00       		.uleb128 0
 9098 06c3 00       		.uleb128 0
 9099 06c4 C20A     		.uleb128 .LEHB247-.LFB1408
 9100 06c6 1A       		.uleb128 .LEHE247-.LEHB247
 9101 06c7 C50B     		.uleb128 .L1321-.LFB1408
 9102 06c9 00       		.uleb128 0
 9103 06ca DC0A     		.uleb128 .LEHB248-.LFB1408
 9104 06cc 05       		.uleb128 .LEHE248-.LEHB248
 9105 06cd 00       		.uleb128 0
 9106 06ce 00       		.uleb128 0
 9107 06cf FD0A     		.uleb128 .LEHB249-.LFB1408
 9108 06d1 43       		.uleb128 .LEHE249-.LEHB249
 9109 06d2 F40B     		.uleb128 .L1318-.LFB1408
 9110 06d4 00       		.uleb128 0
 9111 06d5 D00B     		.uleb128 .LEHB250-.LFB1408
 9112 06d7 05       		.uleb128 .LEHE250-.LEHB250
 9113 06d8 00       		.uleb128 0
 9114 06d9 00       		.uleb128 0
 9115 06da D50B     		.uleb128 .LEHB251-.LFB1408
 9116 06dc 1A       		.uleb128 .LEHE251-.LEHB251
 9117 06dd C50B     		.uleb128 .L1321-.LFB1408
 9118 06df 00       		.uleb128 0
 9119              	.LLSDACSE1408:
 9120 06e0 03       		.byte	0x3
 9121 06e1 00       		.byte	0
 9122 06e2 02       		.byte	0x2
 9123 06e3 7D       		.byte	0x7d
 9124 06e4 01       		.byte	0x1
 9125 06e5 7D       		.byte	0x7d
 9126 06e6 00       		.byte	0
 9127 06e7 7D       		.byte	0x7d
 9128              		.align 4
 9129 06e8 00000000 		.long	0
 9130              	
 9131 06ec 00000000 		.long	_ZTISt9exception
 9132 06f0 00000000 		.long	_ZTIN8UnitTest15AssertExceptionE
 9133              	.LLSDATT1408:
 9134              		.text
 9136              		.section	.text.unlikely
 9137              	.LCOLDE73:
 9138              		.text
 9139              	.LHOTE73:
 9140              		.section	.rodata.str1.8
 9141 05f2 00000000 		.align 8
 9141      0000
 9142              	.LC74:
 9143 05f8 3C3F786D 		.string	"<?xml version=\"1.0\"?><unittest-results tests=\"0\" failedtests=\"0\" failures=\"0\" tim
 9143      6C207665 
 9143      7273696F 
 9143      6E3D2231 
 9143      2E30223F 
 9144              		.section	.text.unlikely
 9145              	.LCOLDB75:
 9146              		.text
 9147              	.LHOTB75:
 9148 541a 660F1F44 		.p2align 4,,15
 9148      0000
 9150              	_ZN8UnitTest11ExecuteTestIN12_GLOBAL__N_152XmlTestReporterFixtureEmptyReportSummaryFormatHelperEEEv
 9151              	.LFB1492:
 9152              		.cfi_startproc
 9153              		.cfi_personality 0x3,__gxx_personality_v0
 9154              		.cfi_lsda 0x3,.LLSDA1492
 9155 5420 4154     		pushq	%r12
 9156              		.cfi_def_cfa_offset 16
 9157              		.cfi_offset 12, -16
 9158 5422 55       		pushq	%rbp
 9159              		.cfi_def_cfa_offset 24
 9160              		.cfi_offset 6, -24
 9161 5423 53       		pushq	%rbx
 9162              		.cfi_def_cfa_offset 32
 9163              		.cfi_offset 3, -32
 9164 5424 4889F3   		movq	%rsi, %rbx
 9165 5427 4881EC90 		subq	$1680, %rsp
 9165      060000
 9166              		.cfi_def_cfa_offset 1712
 9167 542e 48893C24 		movq	%rdi, (%rsp)
 9168 5432 48897424 		movq	%rsi, 8(%rsp)
 9168      08
 9169 5437 64488B04 		movq	%fs:40, %rax
 9169      25280000 
 9169      00
 9170 5440 48898424 		movq	%rax, 1672(%rsp)
 9170      88060000 
 9171 5448 31C0     		xorl	%eax, %eax
 9172              	.LEHB252:
 9173 544a E8000000 		call	_ZN8UnitTest11CurrentTest7DetailsEv
 9173      00
 9174              	.LEHE252:
 9175 544f 488DBC24 		leaq	544(%rsp), %rdi
 9175      20020000 
 9176 5457 488918   		movq	%rbx, (%rax)
 9177              	.LEHB253:
 9178 545a E8000000 		call	_ZN8UnitTest16SignalTranslatorC1Ev
 9178      00
 9179              	.LEHE253:
 9180 545f 488B3D00 		movq	_ZN8UnitTest16SignalTranslator12s_jumpTargetE(%rip), %rdi
 9180      000000
 9181 5466 BE010000 		movl	$1, %esi
 9181      00
 9182 546b E8000000 		call	__sigsetjmp
 9182      00
 9183 5470 85C0     		testl	%eax, %eax
 9184 5472 0F858800 		jne	.L1438
 9184      0000
 9185 5478 488B1C24 		movq	(%rsp), %rbx
 9186 547c F30F1005 		movss	.LC48(%rip), %xmm0
 9186      00000000 
 9187 5484 31C9     		xorl	%ecx, %ecx
 9188 5486 31D2     		xorl	%edx, %edx
 9189 5488 31F6     		xorl	%esi, %esi
 9190 548a 488DBB60 		leaq	352(%rbx), %rdi
 9190      010000
 9191              	.LEHB254:
 9192 5491 E8000000 		call	_ZN8UnitTest15XmlTestReporter13ReportSummaryEiiif
 9192      00
 9193              	.LEHE254:
 9194 5496 48C74424 		movq	$.LC74, 72(%rsp)
 9194      48000000 
 9194      00
 9195              	.LEHB255:
 9196 549f E8000000 		call	_ZN8UnitTest11CurrentTest7DetailsEv
 9196      00
 9197 54a4 488B30   		movq	(%rax), %rsi
 9198 54a7 488DBC24 		leaq	144(%rsp), %rdi
 9198      90000000 
 9199 54af BA4D0000 		movl	$77, %edx
 9199      00
 9200 54b4 E8000000 		call	_ZN8UnitTest11TestDetailsC1ERKS0_i
 9200      00
 9201              	.LEHE255:
 9202 54b9 488B4330 		movq	48(%rbx), %rax
 9203 54bd 48C74424 		movq	$_ZNSs4_Rep20_S_empty_rep_storageE+24, 32(%rsp)
 9203      20000000 
 9203      00
 9204 54c6 4885C0   		testq	%rax, %rax
 9205 54c9 0F843102 		je	.L1356
 9205      0000
 9206 54cf 488B7B20 		movq	32(%rbx), %rdi
 9207 54d3 4839F8   		cmpq	%rdi, %rax
 9208 54d6 7648     		jbe	.L1357
 9209 54d8 488B1424 		movq	(%rsp), %rdx
 9210 54dc 488B6A28 		movq	40(%rdx), %rbp
 9211 54e0 4839E8   		cmpq	%rbp, %rax
 9212 54e3 0F84AF01 		je	.L1412
 9212      0000
 9213 54e9 4885ED   		testq	%rbp, %rbp
 9214 54ec 0F858E02 		jne	.L1439
 9214      0000
 9215 54f2 BF000000 		movl	$.LC34, %edi
 9215      00
 9216              	.LEHB256:
 9217 54f7 E8000000 		call	_ZSt19__throw_logic_errorPKc
 9217      00
 9218              	.LEHE256:
 9219 54fc 0F1F4000 		.p2align 4,,10
 9220              		.p2align 3
 9221              	.L1438:
 9222 5500 BF080000 		movl	$8, %edi
 9222      00
 9223 5505 E8000000 		call	__cxa_allocate_exception
 9223      00
 9224 550a 31D2     		xorl	%edx, %edx
 9225 550c 48C70000 		movq	$.LC24, (%rax)
 9225      000000
 9226 5513 BE000000 		movl	$_ZTIPKc, %esi
 9226      00
 9227 5518 4889C7   		movq	%rax, %rdi
 9228              	.LEHB257:
 9229 551b E8000000 		call	__cxa_throw
 9229      00
 9230              	.LEHE257:
 9231              		.p2align 4,,10
 9232              		.p2align 3
 9233              	.L1357:
 9234 5520 488B0424 		movq	(%rsp), %rax
 9235 5524 488B6828 		movq	40(%rax), %rbp
 9236 5528 4839EF   		cmpq	%rbp, %rdi
 9237 552b 0F84E700 		je	.L1413
 9237      0000
 9238 5531 4885ED   		testq	%rbp, %rbp
 9239 5534 0F859602 		jne	.L1371
 9239      0000
 9240 553a 4885FF   		testq	%rdi, %rdi
 9241 553d 0F848D02 		je	.L1371
 9241      0000
 9242 5543 BF000000 		movl	$.LC34, %edi
 9242      00
 9243              	.LEHB258:
 9244 5548 E8000000 		call	_ZSt19__throw_logic_errorPKc
 9244      00
 9245              	.LEHE258:
 9246              	.L1415:
 9247 554d 4889C3   		movq	%rax, %rbx
 9248 5550 4889D5   		movq	%rdx, %rbp
 9249              	.L1398:
 9250 5553 488DBC24 		leaq	544(%rsp), %rdi
 9250      20020000 
 9251 555b E8000000 		call	_ZN8UnitTest16SignalTranslatorD1Ev
 9251      00
 9252 5560 4889DF   		movq	%rbx, %rdi
 9253 5563 4889EA   		movq	%rbp, %rdx
 9254              	.L1399:
 9255 5566 4883FA01 		cmpq	$1, %rdx
 9256 556a 0F845404 		je	.L1401
 9256      0000
 9257 5570 4883FA02 		cmpq	$2, %rdx
 9258 5574 0F852404 		jne	.L1440
 9258      0000
 9259 557a E8000000 		call	__cxa_begin_catch
 9259      00
 9260 557f 488DBC24 		leaq	176(%rsp), %rdi
 9260      B0000000 
 9261 5587 4889C3   		movq	%rax, %rbx
 9262              	.LEHB259:
 9263 558a E8000000 		call	_ZN8UnitTest15MemoryOutStreamC1Ev
 9263      00
 9264              	.LEHE259:
 9265 558f 488B03   		movq	(%rbx), %rax
 9266 5592 4889DF   		movq	%rbx, %rdi
 9267 5595 FF5010   		call	*16(%rax)
 9268 5598 488DBC24 		leaq	176(%rsp), %rdi
 9268      B0000000 
 9269 55a0 BE000000 		movl	$.LC32, %esi
 9269      00
 9270 55a5 4889C3   		movq	%rax, %rbx
 9271              	.LEHB260:
 9272 55a8 E8000000 		call	_ZStlsISt11char_traitsIcEERSt13basic_ostreamIcT_ES5_PKc
 9272      00
 9273 55ad 4889C7   		movq	%rax, %rdi
 9274 55b0 4889DE   		movq	%rbx, %rsi
 9275 55b3 E8000000 		call	_ZStlsISt11char_traitsIcEERSt13basic_ostreamIcT_ES5_PKc
 9275      00
 9276 55b8 488DBC24 		leaq	176(%rsp), %rdi
 9276      B0000000 
 9277 55c0 E8000000 		call	_ZNK8UnitTest15MemoryOutStream7GetTextEv
 9277      00
 9278 55c5 4889C3   		movq	%rax, %rbx
 9279 55c8 E8000000 		call	_ZN8UnitTest11CurrentTest7ResultsEv
 9279      00
 9280 55cd 488B7424 		movq	8(%rsp), %rsi
 9280      08
 9281 55d2 488B38   		movq	(%rax), %rdi
 9282 55d5 4889DA   		movq	%rbx, %rdx
 9283 55d8 E8000000 		call	_ZN8UnitTest11TestResults13OnTestFailureERKNS_11TestDetailsEPKc
 9283      00
 9284              	.LEHE260:
 9285 55dd 488DBC24 		leaq	176(%rsp), %rdi
 9285      B0000000 
 9286              	.LEHB261:
 9287 55e5 E8000000 		call	_ZN8UnitTest15MemoryOutStreamD1Ev
 9287      00
 9288              	.LEHE261:
 9289              	.L1432:
 9290 55ea E8000000 		call	__cxa_end_catch
 9290      00
 9291 55ef 90       		.p2align 4,,10
 9292              		.p2align 3
 9293              	.L1353:
 9294 55f0 488B8424 		movq	1672(%rsp), %rax
 9294      88060000 
 9295 55f8 64483304 		xorq	%fs:40, %rax
 9295      25280000 
 9295      00
 9296 5601 0F85DB02 		jne	.L1441
 9296      0000
 9297 5607 4881C490 		addq	$1680, %rsp
 9297      060000
 9298              		.cfi_remember_state
 9299              		.cfi_def_cfa_offset 32
 9300 560e 5B       		popq	%rbx
 9301              		.cfi_def_cfa_offset 24
 9302 560f 5D       		popq	%rbp
 9303              		.cfi_def_cfa_offset 16
 9304 5610 415C     		popq	%r12
 9305              		.cfi_def_cfa_offset 8
 9306 5612 C3       		ret
 9307              		.p2align 4,,10
 9308 5613 0F1F4400 		.p2align 3
 9308      00
 9309              	.L1413:
 9310              		.cfi_restore_state
 9311 5618 B9000000 		movl	$_ZNSs4_Rep20_S_empty_rep_storageE+24, %ecx
 9311      00
 9312 561d 0F1F00   		.p2align 4,,10
 9313              		.p2align 3
 9314              	.L1368:
 9315 5620 488D7424 		leaq	48(%rsp), %rsi
 9315      30
 9316 5625 488D7C24 		leaq	32(%rsp), %rdi
 9316      20
 9317 562a 48894C24 		movq	%rcx, 48(%rsp)
 9317      30
 9318              	.LEHB262:
 9319 562f E8000000 		call	_ZNSs6assignERKSs
 9319      00
 9320              	.LEHE262:
 9321 5634 488B4424 		movq	48(%rsp), %rax
 9321      30
 9322 5639 488D78E8 		leaq	-24(%rax), %rdi
 9323 563d 4881FF00 		cmpq	$_ZNSs4_Rep20_S_empty_rep_storageE, %rdi
 9323      000000
 9324 5644 0F853E02 		jne	.L1442
 9324      0000
 9325              	.L1364:
 9326              	.LEHB263:
 9327 564a E8000000 		call	_ZN8UnitTest11CurrentTest7ResultsEv
 9327      00
 9328 564f 488B38   		movq	(%rax), %rdi
 9329 5652 488D8C24 		leaq	144(%rsp), %rcx
 9329      90000000 
 9330 565a 488D5424 		leaq	32(%rsp), %rdx
 9330      20
 9331 565f 488D7424 		leaq	72(%rsp), %rsi
 9331      48
 9332 5664 E8000000 		call	_ZN8UnitTest10CheckEqualIPKcSsEEvRNS_11TestResultsERKT_RKT0_RKNS_11TestDetailsE
 9332      00
 9333              	.LEHE263:
 9334 5669 488B4424 		movq	32(%rsp), %rax
 9334      20
 9335 566e 488D78E8 		leaq	-24(%rax), %rdi
 9336 5672 4881FF00 		cmpq	$_ZNSs4_Rep20_S_empty_rep_storageE, %rdi
 9336      000000
 9337 5679 0F85D901 		jne	.L1443
 9337      0000
 9338              	.L1389:
 9339 567f 488DBC24 		leaq	544(%rsp), %rdi
 9339      20020000 
 9340              	.LEHB264:
 9341 5687 E8000000 		call	_ZN8UnitTest16SignalTranslatorD1Ev
 9341      00
 9342              	.LEHE264:
 9343 568c E95FFFFF 		jmp	.L1353
 9343      FF
 9344              		.p2align 4,,10
 9345 5691 0F1F8000 		.p2align 3
 9345      000000
 9346              	.L1412:
 9347 5698 B9000000 		movl	$_ZNSs4_Rep20_S_empty_rep_storageE+24, %ecx
 9347      00
 9348 569d 0F1F00   		.p2align 4,,10
 9349              		.p2align 3
 9350              	.L1358:
 9351 56a0 488D7424 		leaq	64(%rsp), %rsi
 9351      40
 9352 56a5 488D7C24 		leaq	32(%rsp), %rdi
 9352      20
 9353 56aa 48894C24 		movq	%rcx, 64(%rsp)
 9353      40
 9354              	.LEHB265:
 9355 56af E8000000 		call	_ZNSs6assignERKSs
 9355      00
 9356              	.LEHE265:
 9357 56b4 488B4424 		movq	64(%rsp), %rax
 9357      40
 9358 56b9 488D78E8 		leaq	-24(%rax), %rdi
 9359 56bd 4881FF00 		cmpq	$_ZNSs4_Rep20_S_empty_rep_storageE, %rdi
 9359      000000
 9360 56c4 7484     		je	.L1364
 9361 56c6 BA000000 		movl	$_ZL28__gthrw___pthread_key_createPjPFvPvE, %edx
 9361      00
 9362 56cb 4885D2   		testq	%rdx, %rdx
 9363 56ce 0F84F101 		je	.L1365
 9363      0000
 9364 56d4 BAFFFFFF 		movl	$-1, %edx
 9364      FF
 9365 56d9 F00FC150 		lock xaddl	%edx, -8(%rax)
 9365      F8
 9366 56de 89D0     		movl	%edx, %eax
 9367              	.L1366:
 9368 56e0 85C0     		testl	%eax, %eax
 9369 56e2 0F8F62FF 		jg	.L1364
 9369      FFFF
 9370 56e8 488D7424 		leaq	29(%rsp), %rsi
 9370      1D
 9371 56ed E8000000 		call	_ZNSs4_Rep10_M_destroyERKSaIcE
 9371      00
 9372 56f2 E953FFFF 		jmp	.L1364
 9372      FF
 9373 56f7 660F1F84 		.p2align 4,,10
 9373      00000000 
 9373      00
 9374              		.p2align 3
 9375              	.L1356:
 9376 5700 488B3424 		movq	(%rsp), %rsi
 9377 5704 488D7C24 		leaq	32(%rsp), %rdi
 9377      20
 9378 5709 4883C650 		addq	$80, %rsi
 9379              	.LEHB266:
 9380 570d E8000000 		call	_ZNSs6assignERKSs
 9380      00
 9381              	.LEHE266:
 9382 5712 E933FFFF 		jmp	.L1364
 9382      FF
 9383              	.L1423:
 9384 5717 4889C3   		movq	%rax, %rbx
 9385              	.L1380:
 9386 571a 488B4424 		movq	32(%rsp), %rax
 9386      20
 9387 571f 488D78E8 		leaq	-24(%rax), %rdi
 9388 5723 4881FF00 		cmpq	$_ZNSs4_Rep20_S_empty_rep_storageE, %rdi
 9388      000000
 9389 572a 740A     		je	.L1396
 9390 572c 488D7424 		leaq	25(%rsp), %rsi
 9390      19
 9391 5731 E8000000 		call	_ZNSs4_Rep10_M_disposeERKSaIcE.part.5
 9391      00
 9392              	.L1396:
 9393 5736 4889D8   		movq	%rbx, %rax
 9394              	.L1386:
 9395 5739 4889C7   		movq	%rax, %rdi
 9396 573c E8000000 		call	__cxa_begin_catch
 9396      00
 9397              	.LEHB267:
 9398 5741 E8000000 		call	_ZN8UnitTest11CurrentTest7DetailsEv
 9398      00
 9399 5746 488B30   		movq	(%rax), %rsi
 9400 5749 488D7C24 		leaq	112(%rsp), %rdi
 9400      70
 9401 574e BA4D0000 		movl	$77, %edx
 9401      00
 9402 5753 E8000000 		call	_ZN8UnitTest11TestDetailsC1ERKS0_i
 9402      00
 9403 5758 E8000000 		call	_ZN8UnitTest11CurrentTest7ResultsEv
 9403      00
 9404 575d 488B38   		movq	(%rax), %rdi
 9405 5760 488D7424 		leaq	112(%rsp), %rsi
 9405      70
 9406 5765 BA000000 		movl	$.LC51, %edx
 9406      00
 9407 576a E8000000 		call	_ZN8UnitTest11TestResults13OnTestFailureERKNS_11TestDetailsEPKc
 9407      00
 9408              	.LEHE267:
 9409              	.LEHB268:
 9410 576f E8000000 		call	__cxa_end_catch
 9410      00
 9411              	.LEHE268:
 9412 5774 E906FFFF 		jmp	.L1389
 9412      FF
 9413 5779 0F1F8000 		.p2align 4,,10
 9413      000000
 9414              		.p2align 3
 9415              	.L1439:
 9416 5780 4829E8   		subq	%rbp, %rax
 9417 5783 488D5424 		leaq	31(%rsp), %rdx
 9417      1F
 9418 5788 31F6     		xorl	%esi, %esi
 9419 578a 4889C7   		movq	%rax, %rdi
 9420 578d 4889C3   		movq	%rax, %rbx
 9421              	.LEHB269:
 9422 5790 E8000000 		call	_ZNSs4_Rep9_S_createEmmRKSaIcE
 9422      00
 9423 5795 4883FB01 		cmpq	$1, %rbx
 9424 5799 4989C4   		movq	%rax, %r12
 9425 579c 488D4818 		leaq	24(%rax), %rcx
 9426 57a0 757E     		jne	.L1361
 9427 57a2 0FB64500 		movzbl	0(%rbp), %eax
 9428 57a6 41884424 		movb	%al, 24(%r12)
 9428      18
 9429              	.L1362:
 9430 57ab 4981FC00 		cmpq	$_ZNSs4_Rep20_S_empty_rep_storageE, %r12
 9430      000000
 9431 57b2 0F84E8FE 		je	.L1358
 9431      FFFF
 9432 57b8 41C74424 		movl	$0, 16(%r12)
 9432      10000000 
 9432      00
 9433 57c1 49891C24 		movq	%rbx, (%r12)
 9434 57c5 41C6441C 		movb	$0, 24(%r12,%rbx)
 9434      1800
 9435 57cb E9D0FEFF 		jmp	.L1358
 9435      FF
 9436              	.L1371:
 9437 57d0 4889FB   		movq	%rdi, %rbx
 9438 57d3 488D5424 		leaq	30(%rsp), %rdx
 9438      1E
 9439 57d8 31F6     		xorl	%esi, %esi
 9440 57da 4829EB   		subq	%rbp, %rbx
 9441 57dd 4889DF   		movq	%rbx, %rdi
 9442 57e0 E8000000 		call	_ZNSs4_Rep9_S_createEmmRKSaIcE
 9442      00
 9443              	.LEHE269:
 9444 57e5 4883FB01 		cmpq	$1, %rbx
 9445 57e9 4989C4   		movq	%rax, %r12
 9446 57ec 488D4818 		leaq	24(%rax), %rcx
 9447 57f0 754E     		jne	.L1372
 9448 57f2 0FB64500 		movzbl	0(%rbp), %eax
 9449 57f6 41884424 		movb	%al, 24(%r12)
 9449      18
 9450              	.L1373:
 9451 57fb 4981FC00 		cmpq	$_ZNSs4_Rep20_S_empty_rep_storageE, %r12
 9451      000000
 9452 5802 0F8418FE 		je	.L1368
 9452      FFFF
 9453 5808 41C74424 		movl	$0, 16(%r12)
 9453      10000000 
 9453      00
 9454 5811 49891C24 		movq	%rbx, (%r12)
 9455 5815 41C6441C 		movb	$0, 24(%r12,%rbx)
 9455      1800
 9456 581b E900FEFF 		jmp	.L1368
 9456      FF
 9457              		.p2align 4,,10
 9458              		.p2align 3
 9459              	.L1361:
 9460 5820 4889CF   		movq	%rcx, %rdi
 9461 5823 4889DA   		movq	%rbx, %rdx
 9462 5826 4889EE   		movq	%rbp, %rsi
 9463 5829 E8000000 		call	memcpy
 9463      00
 9464 582e 4889C1   		movq	%rax, %rcx
 9465 5831 E975FFFF 		jmp	.L1362
 9465      FF
 9466 5836 662E0F1F 		.p2align 4,,10
 9466      84000000 
 9466      0000
 9467              		.p2align 3
 9468              	.L1372:
 9469 5840 4889CF   		movq	%rcx, %rdi
 9470 5843 4889DA   		movq	%rbx, %rdx
 9471 5846 4889EE   		movq	%rbp, %rsi
 9472 5849 E8000000 		call	memcpy
 9472      00
 9473 584e 4889C1   		movq	%rax, %rcx
 9474 5851 EBA8     		jmp	.L1373
 9475              		.p2align 4,,10
 9476 5853 0F1F4400 		.p2align 3
 9476      00
 9477              	.L1443:
 9478 5858 BA000000 		movl	$_ZL28__gthrw___pthread_key_createPjPFvPvE, %edx
 9478      00
 9479 585d 4885D2   		testq	%rdx, %rdx
 9480 5860 7456     		je	.L1390
 9481 5862 BAFFFFFF 		movl	$-1, %edx
 9481      FF
 9482 5867 F00FC150 		lock xaddl	%edx, -8(%rax)
 9482      F8
 9483 586c 89D0     		movl	%edx, %eax
 9484              	.L1391:
 9485 586e 85C0     		testl	%eax, %eax
 9486 5870 0F8F09FE 		jg	.L1389
 9486      FFFF
 9487 5876 488D7424 		leaq	24(%rsp), %rsi
 9487      18
 9488 587b E8000000 		call	_ZNSs4_Rep10_M_destroyERKSaIcE
 9488      00
 9489 5880 E9FAFDFF 		jmp	.L1389
 9489      FF
 9490              		.p2align 4,,10
 9491 5885 0F1F00   		.p2align 3
 9492              	.L1442:
 9493 5888 BA000000 		movl	$_ZL28__gthrw___pthread_key_createPjPFvPvE, %edx
 9493      00
 9494 588d 4885D2   		testq	%rdx, %rdx
 9495 5890 7443     		je	.L1375
 9496 5892 BAFFFFFF 		movl	$-1, %edx
 9496      FF
 9497 5897 F00FC150 		lock xaddl	%edx, -8(%rax)
 9497      F8
 9498 589c 89D0     		movl	%edx, %eax
 9499              	.L1376:
 9500 589e 85C0     		testl	%eax, %eax
 9501 58a0 0F8FA4FD 		jg	.L1364
 9501      FFFF
 9502 58a6 488D7424 		leaq	28(%rsp), %rsi
 9502      1C
 9503 58ab E8000000 		call	_ZNSs4_Rep10_M_destroyERKSaIcE
 9503      00
 9504 58b0 E995FDFF 		jmp	.L1364
 9504      FF
 9505              		.p2align 4,,10
 9506 58b5 0F1F00   		.p2align 3
 9507              	.L1390:
 9508 58b8 8B50F8   		movl	-8(%rax), %edx
 9509 58bb 8D4AFF   		leal	-1(%rdx), %ecx
 9510 58be 8948F8   		movl	%ecx, -8(%rax)
 9511 58c1 89D0     		movl	%edx, %eax
 9512 58c3 EBA9     		jmp	.L1391
 9513              	.L1365:
 9514 58c5 8B50F8   		movl	-8(%rax), %edx
 9515 58c8 8D4AFF   		leal	-1(%rdx), %ecx
 9516 58cb 8948F8   		movl	%ecx, -8(%rax)
 9517 58ce 89D0     		movl	%edx, %eax
 9518 58d0 E90BFEFF 		jmp	.L1366
 9518      FF
 9519              	.L1375:
 9520 58d5 8B50F8   		movl	-8(%rax), %edx
 9521 58d8 8D4AFF   		leal	-1(%rdx), %ecx
 9522 58db 8948F8   		movl	%ecx, -8(%rax)
 9523 58de 89D0     		movl	%edx, %eax
 9524 58e0 EBBC     		jmp	.L1376
 9525              	.L1441:
 9526 58e2 E8000000 		call	__stack_chk_fail
 9526      00
 9527              	.L1420:
 9528 58e7 4889C3   		movq	%rax, %rbx
 9529 58ea 4889D5   		movq	%rdx, %rbp
 9530 58ed E8000000 		call	__cxa_end_catch
 9530      00
 9531 58f2 E95CFCFF 		jmp	.L1398
 9531      FF
 9532              	.L1414:
 9533 58f7 4889C7   		movq	%rax, %rdi
 9534 58fa E967FCFF 		jmp	.L1399
 9534      FF
 9535              	.L1424:
 9536 58ff 4889C3   		movq	%rax, %rbx
 9537 5902 488B4424 		movq	48(%rsp), %rax
 9537      30
 9538 5907 488D78E8 		leaq	-24(%rax), %rdi
 9539 590b 4881FF00 		cmpq	$_ZNSs4_Rep20_S_empty_rep_storageE, %rdi
 9539      000000
 9540 5912 0F8402FE 		je	.L1380
 9540      FFFF
 9541 5918 488D7424 		leaq	26(%rsp), %rsi
 9541      1A
 9542 591d E8000000 		call	_ZNSs4_Rep10_M_disposeERKSaIcE.part.5
 9542      00
 9543 5922 E9F3FDFF 		jmp	.L1380
 9543      FF
 9544              	.L1421:
 9545 5927 E90DFEFF 		jmp	.L1386
 9545      FF
 9546              	.L1422:
 9547 592c 4889C3   		movq	%rax, %rbx
 9548 592f 488B4424 		movq	32(%rsp), %rax
 9548      20
 9549 5934 488D78E8 		leaq	-24(%rax), %rdi
 9550 5938 4881FF00 		cmpq	$_ZNSs4_Rep20_S_empty_rep_storageE, %rdi
 9550      000000
 9551 593f 0F84F1FD 		je	.L1396
 9551      FFFF
 9552 5945 488D7424 		leaq	23(%rsp), %rsi
 9552      17
 9553 594a E8000000 		call	_ZNSs4_Rep10_M_disposeERKSaIcE.part.5
 9553      00
 9554 594f E9E2FDFF 		jmp	.L1396
 9554      FF
 9555              	.L1425:
 9556 5954 4889C3   		movq	%rax, %rbx
 9557 5957 488B4424 		movq	64(%rsp), %rax
 9557      40
 9558 595c 488D78E8 		leaq	-24(%rax), %rdi
 9559 5960 4881FF00 		cmpq	$_ZNSs4_Rep20_S_empty_rep_storageE, %rdi
 9559      000000
 9560 5967 0F84ADFD 		je	.L1380
 9560      FFFF
 9561 596d 488D7424 		leaq	27(%rsp), %rsi
 9561      1B
 9562 5972 E8000000 		call	_ZNSs4_Rep10_M_disposeERKSaIcE.part.5
 9562      00
 9563 5977 E99EFDFF 		jmp	.L1380
 9563      FF
 9564              	.L1418:
 9565 597c 488DBC24 		leaq	176(%rsp), %rdi
 9565      B0000000 
 9566 5984 4889C3   		movq	%rax, %rbx
 9567 5987 E8000000 		call	_ZN8UnitTest15MemoryOutStreamD1Ev
 9567      00
 9568              	.L1405:
 9569 598c E8000000 		call	__cxa_end_catch
 9569      00
 9570 5991 4889DF   		movq	%rbx, %rdi
 9571              	.LEHB270:
 9572 5994 E8000000 		call	_Unwind_Resume
 9572      00
 9573              	.LEHE270:
 9574              	.L1417:
 9575              	.L1433:
 9576 5999 4889C3   		movq	%rax, %rbx
 9577 599c EBEE     		jmp	.L1405
 9578              	.L1440:
 9579 599e E8000000 		call	__cxa_begin_catch
 9579      00
 9580              	.LEHB271:
 9581 59a3 E8000000 		call	_ZN8UnitTest11CurrentTest7ResultsEv
 9581      00
 9582 59a8 488B7424 		movq	8(%rsp), %rsi
 9582      08
 9583 59ad 488B38   		movq	(%rax), %rdi
 9584 59b0 BA000000 		movl	$.LC33, %edx
 9584      00
 9585 59b5 E8000000 		call	_ZN8UnitTest11TestResults13OnTestFailureERKNS_11TestDetailsEPKc
 9585      00
 9586              	.LEHE271:
 9587              	.LEHB272:
 9588 59ba E8000000 		call	__cxa_end_catch
 9588      00
 9589              	.LEHE272:
 9590 59bf E92CFCFF 		jmp	.L1353
 9590      FF
 9591              	.L1401:
 9592 59c4 E8000000 		call	__cxa_begin_catch
 9592      00
 9593 59c9 4889C3   		movq	%rax, %rbx
 9594 59cc 488B00   		movq	(%rax), %rax
 9595 59cf 4889DF   		movq	%rbx, %rdi
 9596 59d2 FF5010   		call	*16(%rax)
 9597 59d5 4889DF   		movq	%rbx, %rdi
 9598 59d8 4889C5   		movq	%rax, %rbp
 9599              	.LEHB273:
 9600 59db E8000000 		call	_ZNK8UnitTest15AssertException10LineNumberEv
 9600      00
 9601 59e0 4889DF   		movq	%rbx, %rdi
 9602 59e3 4189C4   		movl	%eax, %r12d
 9603 59e6 E8000000 		call	_ZNK8UnitTest15AssertException8FilenameEv
 9603      00
 9604 59eb 4889C1   		movq	%rax, %rcx
 9605 59ee 488B4424 		movq	8(%rsp), %rax
 9605      08
 9606 59f3 488D7C24 		leaq	80(%rsp), %rdi
 9606      50
 9607 59f8 4589E0   		movl	%r12d, %r8d
 9608 59fb 488B7008 		movq	8(%rax), %rsi
 9609 59ff 488B10   		movq	(%rax), %rdx
 9610 5a02 E8000000 		call	_ZN8UnitTest11TestDetailsC1EPKcS2_S2_i
 9610      00
 9611 5a07 E8000000 		call	_ZN8UnitTest11CurrentTest7ResultsEv
 9611      00
 9612 5a0c 488B38   		movq	(%rax), %rdi
 9613 5a0f 488D7424 		leaq	80(%rsp), %rsi
 9613      50
 9614 5a14 4889EA   		movq	%rbp, %rdx
 9615 5a17 E8000000 		call	_ZN8UnitTest11TestResults13OnTestFailureERKNS_11TestDetailsEPKc
 9615      00
 9616              	.LEHE273:
 9617 5a1c E9C9FBFF 		jmp	.L1432
 9617      FF
 9618              	.L1419:
 9619 5a21 4889C3   		movq	%rax, %rbx
 9620 5a24 E8000000 		call	__cxa_end_catch
 9620      00
 9621 5a29 4889DF   		movq	%rbx, %rdi
 9622              	.LEHB274:
 9623 5a2c E8000000 		call	_Unwind_Resume
 9623      00
 9624              	.LEHE274:
 9625              	.L1416:
 9626 5a31 E963FFFF 		jmp	.L1433
 9626      FF
 9627              		.cfi_endproc
 9628              	.LFE1492:
 9629              		.section	.gcc_except_table
 9630              		.align 4
 9631              	.LLSDA1492:
 9632 06f4 FF       		.byte	0xff
 9633 06f5 03       		.byte	0x3
 9634 06f6 9C01     		.uleb128 .LLSDATT1492-.LLSDATTD1492
 9635              	.LLSDATTD1492:
 9636 06f8 01       		.byte	0x1
 9637 06f9 8201     		.uleb128 .LLSDACSE1492-.LLSDACSB1492
 9638              	.LLSDACSB1492:
 9639 06fb 2A       		.uleb128 .LEHB252-.LFB1492
 9640 06fc 05       		.uleb128 .LEHE252-.LEHB252
 9641 06fd 00       		.uleb128 0
 9642 06fe 00       		.uleb128 0
 9643 06ff 3A       		.uleb128 .LEHB253-.LFB1492
 9644 0700 05       		.uleb128 .LEHE253-.LEHB253
 9645 0701 D709     		.uleb128 .L1414-.LFB1492
 9646 0703 05       		.uleb128 0x5
 9647 0704 71       		.uleb128 .LEHB254-.LFB1492
 9648 0705 05       		.uleb128 .LEHE254-.LEHB254
 9649 0706 AD02     		.uleb128 .L1415-.LFB1492
 9650 0708 07       		.uleb128 0x7
 9651 0709 7F       		.uleb128 .LEHB255-.LFB1492
 9652 070a 1A       		.uleb128 .LEHE255-.LEHB255
 9653 070b 870A     		.uleb128 .L1421-.LFB1492
 9654 070d 01       		.uleb128 0x1
 9655 070e D701     		.uleb128 .LEHB256-.LFB1492
 9656 0710 05       		.uleb128 .LEHE256-.LEHB256
 9657 0711 F705     		.uleb128 .L1423-.LFB1492
 9658 0713 01       		.uleb128 0x1
 9659 0714 FB01     		.uleb128 .LEHB257-.LFB1492
 9660 0716 05       		.uleb128 .LEHE257-.LEHB257
 9661 0717 AD02     		.uleb128 .L1415-.LFB1492
 9662 0719 07       		.uleb128 0x7
 9663 071a A802     		.uleb128 .LEHB258-.LFB1492
 9664 071c 05       		.uleb128 .LEHE258-.LEHB258
 9665 071d F705     		.uleb128 .L1423-.LFB1492
 9666 071f 01       		.uleb128 0x1
 9667 0720 EA02     		.uleb128 .LEHB259-.LFB1492
 9668 0722 05       		.uleb128 .LEHE259-.LEHB259
 9669 0723 F90A     		.uleb128 .L1417-.LFB1492
 9670 0725 00       		.uleb128 0
 9671 0726 8803     		.uleb128 .LEHB260-.LFB1492
 9672 0728 35       		.uleb128 .LEHE260-.LEHB260
 9673 0729 DC0A     		.uleb128 .L1418-.LFB1492
 9674 072b 00       		.uleb128 0
 9675 072c C503     		.uleb128 .LEHB261-.LFB1492
 9676 072e 05       		.uleb128 .LEHE261-.LEHB261
 9677 072f F90A     		.uleb128 .L1417-.LFB1492
 9678 0731 00       		.uleb128 0
 9679 0732 8F04     		.uleb128 .LEHB262-.LFB1492
 9680 0734 05       		.uleb128 .LEHE262-.LEHB262
 9681 0735 DF09     		.uleb128 .L1424-.LFB1492
 9682 0737 01       		.uleb128 0x1
 9683 0738 AA04     		.uleb128 .LEHB263-.LFB1492
 9684 073a 1F       		.uleb128 .LEHE263-.LEHB263
 9685 073b 8C0A     		.uleb128 .L1422-.LFB1492
 9686 073d 01       		.uleb128 0x1
 9687 073e E704     		.uleb128 .LEHB264-.LFB1492
 9688 0740 05       		.uleb128 .LEHE264-.LEHB264
 9689 0741 D709     		.uleb128 .L1414-.LFB1492
 9690 0743 05       		.uleb128 0x5
 9691 0744 8F05     		.uleb128 .LEHB265-.LFB1492
 9692 0746 05       		.uleb128 .LEHE265-.LEHB265
 9693 0747 B40A     		.uleb128 .L1425-.LFB1492
 9694 0749 01       		.uleb128 0x1
 9695 074a ED05     		.uleb128 .LEHB266-.LFB1492
 9696 074c 05       		.uleb128 .LEHE266-.LEHB266
 9697 074d F705     		.uleb128 .L1423-.LFB1492
 9698 074f 01       		.uleb128 0x1
 9699 0750 A106     		.uleb128 .LEHB267-.LFB1492
 9700 0752 2E       		.uleb128 .LEHE267-.LEHB267
 9701 0753 C709     		.uleb128 .L1420-.LFB1492
 9702 0755 07       		.uleb128 0x7
 9703 0756 CF06     		.uleb128 .LEHB268-.LFB1492
 9704 0758 05       		.uleb128 .LEHE268-.LEHB268
 9705 0759 AD02     		.uleb128 .L1415-.LFB1492
 9706 075b 07       		.uleb128 0x7
 9707 075c F006     		.uleb128 .LEHB269-.LFB1492
 9708 075e 55       		.uleb128 .LEHE269-.LEHB269
 9709 075f F705     		.uleb128 .L1423-.LFB1492
 9710 0761 01       		.uleb128 0x1
 9711 0762 F40A     		.uleb128 .LEHB270-.LFB1492
 9712 0764 05       		.uleb128 .LEHE270-.LEHB270
 9713 0765 00       		.uleb128 0
 9714 0766 00       		.uleb128 0
 9715 0767 830B     		.uleb128 .LEHB271-.LFB1492
 9716 0769 17       		.uleb128 .LEHE271-.LEHB271
 9717 076a 810C     		.uleb128 .L1419-.LFB1492
 9718 076c 00       		.uleb128 0
 9719 076d 9A0B     		.uleb128 .LEHB272-.LFB1492
 9720 076f 05       		.uleb128 .LEHE272-.LEHB272
 9721 0770 00       		.uleb128 0
 9722 0771 00       		.uleb128 0
 9723 0772 BB0B     		.uleb128 .LEHB273-.LFB1492
 9724 0774 41       		.uleb128 .LEHE273-.LEHB273
 9725 0775 910C     		.uleb128 .L1416-.LFB1492
 9726 0777 00       		.uleb128 0
 9727 0778 8C0C     		.uleb128 .LEHB274-.LFB1492
 9728 077a 05       		.uleb128 .LEHE274-.LEHB274
 9729 077b 00       		.uleb128 0
 9730 077c 00       		.uleb128 0
 9731              	.LLSDACSE1492:
 9732 077d 03       		.byte	0x3
 9733 077e 00       		.byte	0
 9734 077f 02       		.byte	0x2
 9735 0780 7D       		.byte	0x7d
 9736 0781 01       		.byte	0x1
 9737 0782 7D       		.byte	0x7d
 9738 0783 00       		.byte	0
 9739 0784 7D       		.byte	0x7d
 9740 0785 000000   		.align 4
 9741 0788 00000000 		.long	0
 9742              	
 9743 078c 00000000 		.long	_ZTISt9exception
 9744 0790 00000000 		.long	_ZTIN8UnitTest15AssertExceptionE
 9745              	.LLSDATT1492:
 9746              		.text
 9748              		.section	.text.unlikely
 9749              	.LCOLDE75:
 9750              		.text
 9751              	.LHOTE75:
 9752              		.section	.text.unlikely
 9753              		.align 2
 9754              	.LCOLDB76:
 9755              		.text
 9756              	.LHOTB76:
 9757              		.align 2
 9758 5a36 662E0F1F 		.p2align 4,,15
 9758      84000000 
 9758      0000
 9760              	_ZNK12_GLOBAL__N_150TestXmlTestReporterFixtureEmptyReportSummaryFormat7RunImplEv:
 9761              	.LFB1397:
 9762              		.cfi_startproc
 9763              		.cfi_personality 0x3,__gxx_personality_v0
 9764              		.cfi_lsda 0x3,.LLSDA1397
 9765 5a40 4157     		pushq	%r15
 9766              		.cfi_def_cfa_offset 16
 9767              		.cfi_offset 15, -16
 9768 5a42 4156     		pushq	%r14
 9769              		.cfi_def_cfa_offset 24
 9770              		.cfi_offset 14, -24
 9771 5a44 4155     		pushq	%r13
 9772              		.cfi_def_cfa_offset 32
 9773              		.cfi_offset 13, -32
 9774 5a46 4154     		pushq	%r12
 9775              		.cfi_def_cfa_offset 40
 9776              		.cfi_offset 12, -40
 9777 5a48 4C8D6F08 		leaq	8(%rdi), %r13
 9778 5a4c 55       		pushq	%rbp
 9779              		.cfi_def_cfa_offset 48
 9780              		.cfi_offset 6, -48
 9781 5a4d 53       		pushq	%rbx
 9782              		.cfi_def_cfa_offset 56
 9783              		.cfi_offset 3, -56
 9784 5a4e 4881ECD8 		subq	$472, %rsp
 9784      010000
 9785              		.cfi_def_cfa_offset 528
 9786 5a55 48897C24 		movq	%rdi, 8(%rsp)
 9786      08
 9787 5a5a 488DBC24 		leaq	136(%rsp), %rdi
 9787      88000000 
 9788 5a62 64488B0C 		movq	%fs:40, %rcx
 9788      25280000 
 9788      00
 9789 5a6b 48898C24 		movq	%rcx, 456(%rsp)
 9789      C8010000 
 9790 5a73 31C9     		xorl	%ecx, %ecx
 9791 5a75 E8000000 		call	_ZNSt8ios_baseC2Ev
 9791      00
 9792 5a7a 4C8B2500 		movq	_ZTTSt19basic_ostringstreamIcSt11char_traitsIcESaIcEE+8(%rip), %r12
 9792      000000
 9793 5a81 C6842468 		movb	$0, 360(%rsp)
 9793      01000000 
 9794 5a89 488D7C24 		leaq	48(%rsp), %rdi
 9794      30
 9795 5a8e 488B0500 		movq	_ZTTSt19basic_ostringstreamIcSt11char_traitsIcESaIcEE+16(%rip), %rax
 9795      000000
 9796 5a95 48C78424 		movq	$_ZTVSt9basic_iosIcSt11char_traitsIcEE+16, 136(%rsp)
 9796      88000000 
 9796      00000000 
 9797 5aa1 31F6     		xorl	%esi, %esi
 9798 5aa3 48C78424 		movq	$0, 352(%rsp)
 9798      60010000 
 9798      00000000 
 9799 5aaf C6842469 		movb	$0, 361(%rsp)
 9799      01000000 
 9800 5ab7 49037C24 		addq	-24(%r12), %rdi
 9800      E8
 9801 5abc 48C78424 		movq	$0, 368(%rsp)
 9801      70010000 
 9801      00000000 
 9802 5ac8 48C78424 		movq	$0, 376(%rsp)
 9802      78010000 
 9802      00000000 
 9803 5ad4 48C78424 		movq	$0, 384(%rsp)
 9803      80010000 
 9803      00000000 
 9804 5ae0 48C78424 		movq	$0, 392(%rsp)
 9804      88010000 
 9804      00000000 
 9805 5aec 4C896424 		movq	%r12, 48(%rsp)
 9805      30
 9806 5af1 488907   		movq	%rax, (%rdi)
 9807              	.LEHB275:
 9808 5af4 E8000000 		call	_ZNSt9basic_iosIcSt11char_traitsIcEE4initEPSt15basic_streambufIcS1_E
 9808      00
 9809              	.LEHE275:
 9810 5af9 488D7C24 		leaq	112(%rsp), %rdi
 9810      70
 9811 5afe 48C74424 		movq	$_ZTVSt19basic_ostringstreamIcSt11char_traitsIcESaIcEE+24, 48(%rsp)
 9811      30000000 
 9811      00
 9812 5b07 48C78424 		movq	$_ZTVSt19basic_ostringstreamIcSt11char_traitsIcESaIcEE+64, 136(%rsp)
 9812      88000000 
 9812      00000000 
 9813 5b13 48C74424 		movq	$_ZTVSt15basic_streambufIcSt11char_traitsIcEE+16, 56(%rsp)
 9813      38000000 
 9813      00
 9814 5b1c 48C74424 		movq	$0, 64(%rsp)
 9814      40000000 
 9814      00
 9815 5b25 48C74424 		movq	$0, 72(%rsp)
 9815      48000000 
 9815      00
 9816 5b2e 48C74424 		movq	$0, 80(%rsp)
 9816      50000000 
 9816      00
 9817 5b37 48C74424 		movq	$0, 88(%rsp)
 9817      58000000 
 9817      00
 9818 5b40 48C74424 		movq	$0, 96(%rsp)
 9818      60000000 
 9818      00
 9819 5b49 48C74424 		movq	$0, 104(%rsp)
 9819      68000000 
 9819      00
 9820 5b52 E8000000 		call	_ZNSt6localeC1Ev
 9820      00
 9821 5b57 488D4424 		leaq	48(%rsp), %rax
 9821      30
 9822 5b5c 488D7424 		leaq	56(%rsp), %rsi
 9822      38
 9823 5b61 48C74424 		movq	$_ZTVSt15basic_stringbufIcSt11char_traitsIcESaIcEE+16, 56(%rsp)
 9823      38000000 
 9823      00
 9824 5b6a C7442478 		movl	$16, 120(%rsp)
 9824      10000000 
 9825 5b72 48C78424 		movq	$_ZNSs4_Rep20_S_empty_rep_storageE+24, 128(%rsp)
 9825      80000000 
 9825      00000000 
 9826 5b7e 488D7858 		leaq	88(%rax), %rdi
 9827              	.LEHB276:
 9828 5b82 E8000000 		call	_ZNSt9basic_iosIcSt11char_traitsIcEE4initEPSt15basic_streambufIcS1_E
 9828      00
 9829              	.LEHE276:
 9830 5b87 488D4424 		leaq	48(%rsp), %rax
 9830      30
 9831 5b8c 488DB860 		leaq	352(%rax), %rdi
 9831      010000
 9832 5b93 4889C6   		movq	%rax, %rsi
 9833              	.LEHB277:
 9834 5b96 E8000000 		call	_ZN8UnitTest15XmlTestReporterC1ERSo
 9834      00
 9835              	.LEHE277:
 9836 5b9b 488D7C24 		leaq	48(%rsp), %rdi
 9836      30
 9837 5ba0 4C89EE   		movq	%r13, %rsi
 9838 5ba3 4C89AC24 		movq	%r13, 440(%rsp)
 9838      B8010000 
 9839              	.LEHB278:
 9840 5bab E870F8FF 		call	_ZN8UnitTest11ExecuteTestIN12_GLOBAL__N_152XmlTestReporterFixtureEmptyReportSummaryFormatHelp
 9840      FF
 9841              	.LEHE278:
 9842 5bb0 488BAC24 		movq	416(%rsp), %rbp
 9842      A0010000 
 9843 5bb8 4C8BB424 		movq	408(%rsp), %r14
 9843      98010000 
 9844 5bc0 48C78424 		movq	$_ZTVN8UnitTest20DeferredTestReporterE+16, 400(%rsp)
 9844      90010000 
 9844      00000000 
 9845 5bcc 4C39F5   		cmpq	%r14, %rbp
 9846 5bcf 0F84C700 		je	.L1451
 9846      0000
 9847              		.p2align 4,,10
 9848 5bd5 0F1F00   		.p2align 3
 9849              	.L1480:
 9850 5bd8 4D8B7E20 		movq	32(%r14), %r15
 9851 5bdc 498B5E18 		movq	24(%r14), %rbx
 9852 5be0 4939DF   		cmpq	%rbx, %r15
 9853 5be3 7457     		je	.L1452
 9854 5be5 B8000000 		movl	$_ZL28__gthrw___pthread_key_createPjPFvPvE, %eax
 9854      00
 9855 5bea 4885C0   		testq	%rax, %rax
 9856 5bed 7512     		jne	.L1516
 9857 5bef E9990100 		jmp	.L1458
 9857      00
 9858              		.p2align 4,,10
 9859 5bf4 0F1F4000 		.p2align 3
 9860              	.L1461:
 9861 5bf8 4883C310 		addq	$16, %rbx
 9862 5bfc 4939DF   		cmpq	%rbx, %r15
 9863 5bff 7437     		je	.L1459
 9864              	.L1516:
 9865 5c01 488B4308 		movq	8(%rbx), %rax
 9866 5c05 488D78E8 		leaq	-24(%rax), %rdi
 9867 5c09 4881FF00 		cmpq	$_ZNSs4_Rep20_S_empty_rep_storageE, %rdi
 9867      000000
 9868 5c10 74E6     		je	.L1461
 9869 5c12 BEFFFFFF 		movl	$-1, %esi
 9869      FF
 9870 5c17 F00FC170 		lock xaddl	%esi, -8(%rax)
 9870      F8
 9871 5c1c 85F6     		testl	%esi, %esi
 9872 5c1e 7FD8     		jg	.L1461
 9873 5c20 488D7424 		leaq	16(%rsp), %rsi
 9873      10
 9874 5c25 4883C310 		addq	$16, %rbx
 9875 5c29 E8000000 		call	_ZNSs4_Rep10_M_destroyERKSaIcE
 9875      00
 9876 5c2e 4939DF   		cmpq	%rbx, %r15
 9877 5c31 75CE     		jne	.L1516
 9878              		.p2align 4,,10
 9879 5c33 0F1F4400 		.p2align 3
 9879      00
 9880              	.L1459:
 9881 5c38 4D8B7E18 		movq	24(%r14), %r15
 9882              	.L1452:
 9883 5c3c 4D85FF   		testq	%r15, %r15
 9884 5c3f 7408     		je	.L1464
 9885 5c41 4C89FF   		movq	%r15, %rdi
 9886 5c44 E8000000 		call	_ZdlPv
 9886      00
 9887              	.L1464:
 9888 5c49 498B4610 		movq	16(%r14), %rax
 9889 5c4d 488D78E8 		leaq	-24(%rax), %rdi
 9890 5c51 4881FF00 		cmpq	$_ZNSs4_Rep20_S_empty_rep_storageE, %rdi
 9890      000000
 9891 5c58 0F85AA01 		jne	.L1532
 9891      0000
 9892              	.L1466:
 9893 5c5e 498B4608 		movq	8(%r14), %rax
 9894 5c62 488D78E8 		leaq	-24(%rax), %rdi
 9895 5c66 4881FF00 		cmpq	$_ZNSs4_Rep20_S_empty_rep_storageE, %rdi
 9895      000000
 9896 5c6d 0F856501 		jne	.L1533
 9896      0000
 9897              	.L1471:
 9898 5c73 498B06   		movq	(%r14), %rax
 9899 5c76 488D78E8 		leaq	-24(%rax), %rdi
 9900 5c7a 4881FF00 		cmpq	$_ZNSs4_Rep20_S_empty_rep_storageE, %rdi
 9900      000000
 9901 5c81 0F851901 		jne	.L1534
 9901      0000
 9902              	.L1476:
 9903 5c87 4983C638 		addq	$56, %r14
 9904 5c8b 4C39F5   		cmpq	%r14, %rbp
 9905 5c8e 0F8544FF 		jne	.L1480
 9905      FFFF
 9906 5c94 488BAC24 		movq	408(%rsp), %rbp
 9906      98010000 
 9907              	.L1451:
 9908 5c9c 4885ED   		testq	%rbp, %rbp
 9909 5c9f 7408     		je	.L1481
 9910 5ca1 4889EF   		movq	%rbp, %rdi
 9911 5ca4 E8000000 		call	_ZdlPv
 9911      00
 9912              	.L1481:
 9913 5ca9 488D4424 		leaq	48(%rsp), %rax
 9913      30
 9914 5cae 488DB860 		leaq	352(%rax), %rdi
 9914      010000
 9915              	.LEHB279:
 9916 5cb5 E8000000 		call	_ZN8UnitTest12TestReporterD2Ev
 9916      00
 9917              	.LEHE279:
 9918 5cba 488B8424 		movq	128(%rsp), %rax
 9918      80000000 
 9919 5cc2 48C74424 		movq	$_ZTVSt19basic_ostringstreamIcSt11char_traitsIcESaIcEE+24, 48(%rsp)
 9919      30000000 
 9919      00
 9920 5ccb 48C78424 		movq	$_ZTVSt19basic_ostringstreamIcSt11char_traitsIcESaIcEE+64, 136(%rsp)
 9920      88000000 
 9920      00000000 
 9921 5cd7 48C74424 		movq	$_ZTVSt15basic_stringbufIcSt11char_traitsIcESaIcEE+16, 56(%rsp)
 9921      38000000 
 9921      00
 9922 5ce0 488D78E8 		leaq	-24(%rax), %rdi
 9923 5ce4 4881FF00 		cmpq	$_ZNSs4_Rep20_S_empty_rep_storageE, %rdi
 9923      000000
 9924 5ceb 0F856E01 		jne	.L1535
 9924      0000
 9925              	.L1483:
 9926 5cf1 488D7C24 		leaq	112(%rsp), %rdi
 9926      70
 9927 5cf6 48C74424 		movq	$_ZTVSt15basic_streambufIcSt11char_traitsIcEE+16, 56(%rsp)
 9927      38000000 
 9927      00
 9928 5cff E8000000 		call	_ZNSt6localeD1Ev
 9928      00
 9929 5d04 498B4424 		movq	-24(%r12), %rax
 9929      E8
 9930 5d09 488B0D00 		movq	_ZTTSt19basic_ostringstreamIcSt11char_traitsIcESaIcEE+16(%rip), %rcx
 9930      000000
 9931 5d10 4C896424 		movq	%r12, 48(%rsp)
 9931      30
 9932 5d15 48894C04 		movq	%rcx, 48(%rsp,%rax)
 9932      30
 9933 5d1a 488D4424 		leaq	48(%rsp), %rax
 9933      30
 9934 5d1f 48C78424 		movq	$_ZTVSt9basic_iosIcSt11char_traitsIcEE+16, 136(%rsp)
 9934      88000000 
 9934      00000000 
 9935 5d2b 488D7858 		leaq	88(%rax), %rdi
 9936              	.LEHB280:
 9937 5d2f E8000000 		call	_ZNSt8ios_baseD2Ev
 9937      00
 9938              	.LEHE280:
 9939              	.L1444:
 9940 5d34 488B8424 		movq	456(%rsp), %rax
 9940      C8010000 
 9941 5d3c 64483304 		xorq	%fs:40, %rax
 9941      25280000 
 9941      00
 9942 5d45 0F85E901 		jne	.L1536
 9942      0000
 9943 5d4b 4881C4D8 		addq	$472, %rsp
 9943      010000
 9944              		.cfi_remember_state
 9945              		.cfi_def_cfa_offset 56
 9946 5d52 5B       		popq	%rbx
 9947              		.cfi_def_cfa_offset 48
 9948 5d53 5D       		popq	%rbp
 9949              		.cfi_def_cfa_offset 40
 9950 5d54 415C     		popq	%r12
 9951              		.cfi_def_cfa_offset 32
 9952 5d56 415D     		popq	%r13
 9953              		.cfi_def_cfa_offset 24
 9954 5d58 415E     		popq	%r14
 9955              		.cfi_def_cfa_offset 16
 9956 5d5a 415F     		popq	%r15
 9957              		.cfi_def_cfa_offset 8
 9958 5d5c C3       		ret
 9959 5d5d 0F1F00   		.p2align 4,,10
 9960              		.p2align 3
 9961              	.L1537:
 9962              		.cfi_restore_state
 9963 5d60 8B70F8   		movl	-8(%rax), %esi
 9964 5d63 448D46FF 		leal	-1(%rsi), %r8d
 9965 5d67 85F6     		testl	%esi, %esi
 9966 5d69 448940F8 		movl	%r8d, -8(%rax)
 9967 5d6d 7F11     		jg	.L1456
 9968 5d6f 488D7424 		leaq	16(%rsp), %rsi
 9968      10
 9969 5d74 E8000000 		call	_ZNSs4_Rep10_M_destroyERKSaIcE
 9969      00
 9970 5d79 0F1F8000 		.p2align 4,,10
 9970      000000
 9971              		.p2align 3
 9972              	.L1456:
 9973 5d80 4883C310 		addq	$16, %rbx
 9974 5d84 4939DF   		cmpq	%rbx, %r15
 9975 5d87 0F84ABFE 		je	.L1459
 9975      FFFF
 9976              	.L1458:
 9977 5d8d 488B4308 		movq	8(%rbx), %rax
 9978 5d91 488D78E8 		leaq	-24(%rax), %rdi
 9979 5d95 4881FF00 		cmpq	$_ZNSs4_Rep20_S_empty_rep_storageE, %rdi
 9979      000000
 9980 5d9c 74E2     		je	.L1456
 9981 5d9e EBC0     		jmp	.L1537
 9982              		.p2align 4,,10
 9983              		.p2align 3
 9984              	.L1534:
 9985 5da0 BA000000 		movl	$_ZL28__gthrw___pthread_key_createPjPFvPvE, %edx
 9985      00
 9986 5da5 4885D2   		testq	%rdx, %rdx
 9987 5da8 0F848700 		je	.L1477
 9987      0000
 9988 5dae BAFFFFFF 		movl	$-1, %edx
 9988      FF
 9989 5db3 F00FC150 		lock xaddl	%edx, -8(%rax)
 9989      F8
 9990 5db8 89D0     		movl	%edx, %eax
 9991              	.L1478:
 9992 5dba 85C0     		testl	%eax, %eax
 9993 5dbc 0F8FC5FE 		jg	.L1476
 9993      FFFF
 9994 5dc2 488D7424 		leaq	16(%rsp), %rsi
 9994      10
 9995 5dc7 E8000000 		call	_ZNSs4_Rep10_M_destroyERKSaIcE
 9995      00
 9996 5dcc E9B6FEFF 		jmp	.L1476
 9996      FF
 9997              		.p2align 4,,10
 9998 5dd1 0F1F8000 		.p2align 3
 9998      000000
 9999              	.L1533:
 10000 5dd8 BA000000 		movl	$_ZL28__gthrw___pthread_key_createPjPFvPvE, %edx
 10000      00
 10001 5ddd 4885D2   		testq	%rdx, %rdx
 10002 5de0 7470     		je	.L1472
 10003 5de2 BAFFFFFF 		movl	$-1, %edx
 10003      FF
 10004 5de7 F00FC150 		lock xaddl	%edx, -8(%rax)
 10004      F8
 10005 5dec 89D0     		movl	%edx, %eax
 10006              	.L1473:
 10007 5dee 85C0     		testl	%eax, %eax
 10008 5df0 0F8F7DFE 		jg	.L1471
 10008      FFFF
 10009 5df6 488D7424 		leaq	16(%rsp), %rsi
 10009      10
 10010 5dfb E8000000 		call	_ZNSs4_Rep10_M_destroyERKSaIcE
 10010      00
 10011 5e00 E96EFEFF 		jmp	.L1471
 10011      FF
 10012              		.p2align 4,,10
 10013 5e05 0F1F00   		.p2align 3
 10014              	.L1532:
 10015 5e08 BA000000 		movl	$_ZL28__gthrw___pthread_key_createPjPFvPvE, %edx
 10015      00
 10016 5e0d 4885D2   		testq	%rdx, %rdx
 10017 5e10 7433     		je	.L1467
 10018 5e12 BAFFFFFF 		movl	$-1, %edx
 10018      FF
 10019 5e17 F00FC150 		lock xaddl	%edx, -8(%rax)
 10019      F8
 10020 5e1c 89D0     		movl	%edx, %eax
 10021              	.L1468:
 10022 5e1e 85C0     		testl	%eax, %eax
 10023 5e20 0F8F38FE 		jg	.L1466
 10023      FFFF
 10024 5e26 488D7424 		leaq	16(%rsp), %rsi
 10024      10
 10025 5e2b E8000000 		call	_ZNSs4_Rep10_M_destroyERKSaIcE
 10025      00
 10026 5e30 E929FEFF 		jmp	.L1466
 10026      FF
 10027              	.L1477:
 10028 5e35 8B50F8   		movl	-8(%rax), %edx
 10029 5e38 8D72FF   		leal	-1(%rdx), %esi
 10030 5e3b 8970F8   		movl	%esi, -8(%rax)
 10031 5e3e 89D0     		movl	%edx, %eax
 10032 5e40 E975FFFF 		jmp	.L1478
 10032      FF
 10033              	.L1467:
 10034 5e45 8B50F8   		movl	-8(%rax), %edx
 10035 5e48 8D72FF   		leal	-1(%rdx), %esi
 10036 5e4b 8970F8   		movl	%esi, -8(%rax)
 10037 5e4e 89D0     		movl	%edx, %eax
 10038 5e50 EBCC     		jmp	.L1468
 10039              	.L1472:
 10040 5e52 8B50F8   		movl	-8(%rax), %edx
 10041 5e55 8D72FF   		leal	-1(%rdx), %esi
 10042 5e58 8970F8   		movl	%esi, -8(%rax)
 10043 5e5b 89D0     		movl	%edx, %eax
 10044 5e5d EB8F     		jmp	.L1473
 10045              	.L1535:
 10046 5e5f BA000000 		movl	$_ZL28__gthrw___pthread_key_createPjPFvPvE, %edx
 10046      00
 10047 5e64 4885D2   		testq	%rdx, %rdx
 10048 5e67 7423     		je	.L1484
 10049 5e69 BAFFFFFF 		movl	$-1, %edx
 10049      FF
 10050 5e6e F00FC150 		lock xaddl	%edx, -8(%rax)
 10050      F8
 10051 5e73 89D0     		movl	%edx, %eax
 10052              	.L1485:
 10053 5e75 85C0     		testl	%eax, %eax
 10054 5e77 0F8F74FE 		jg	.L1483
 10054      FFFF
 10055 5e7d 488D7424 		leaq	16(%rsp), %rsi
 10055      10
 10056 5e82 E8000000 		call	_ZNSs4_Rep10_M_destroyERKSaIcE
 10056      00
 10057 5e87 E965FEFF 		jmp	.L1483
 10057      FF
 10058              	.L1484:
 10059 5e8c 8B50F8   		movl	-8(%rax), %edx
 10060 5e8f 8D4AFF   		leal	-1(%rdx), %ecx
 10061 5e92 8948F8   		movl	%ecx, -8(%rax)
 10062 5e95 89D0     		movl	%edx, %eax
 10063 5e97 EBDC     		jmp	.L1485
 10064              	.L1511:
 10065 5e99 488D7C24 		leaq	48(%rsp), %rdi
 10065      30
 10066 5e9e 4889C3   		movq	%rax, %rbx
 10067 5ea1 4889D5   		movq	%rdx, %rbp
 10068 5ea4 E8000000 		call	_ZNSt19basic_ostringstreamIcSt11char_traitsIcESaIcEED1Ev
 10068      00
 10069 5ea9 4889DF   		movq	%rbx, %rdi
 10070 5eac 4889EA   		movq	%rbp, %rdx
 10071 5eaf BB010000 		movl	$1, %ebx
 10071      00
 10072              	.L1448:
 10073 5eb4 4883FA01 		cmpq	$1, %rdx
 10074 5eb8 0F84E800 		je	.L1493
 10074      0000
 10075 5ebe 4883FA02 		cmpq	$2, %rdx
 10076 5ec2 0F859D00 		jne	.L1538
 10076      0000
 10077 5ec8 E8000000 		call	__cxa_begin_catch
 10077      00
 10078 5ecd 488D7C24 		leaq	48(%rsp), %rdi
 10078      30
 10079 5ed2 4889C3   		movq	%rax, %rbx
 10080              	.LEHB281:
 10081 5ed5 E8000000 		call	_ZN8UnitTest15MemoryOutStreamC1Ev
 10081      00
 10082              	.LEHE281:
 10083 5eda 488B03   		movq	(%rbx), %rax
 10084 5edd 4889DF   		movq	%rbx, %rdi
 10085 5ee0 FF5010   		call	*16(%rax)
 10086 5ee3 488D7C24 		leaq	48(%rsp), %rdi
 10086      30
 10087 5ee8 BE000000 		movl	$.LC32, %esi
 10087      00
 10088 5eed 4889C3   		movq	%rax, %rbx
 10089              	.LEHB282:
 10090 5ef0 E8000000 		call	_ZStlsISt11char_traitsIcEERSt13basic_ostreamIcT_ES5_PKc
 10090      00
 10091 5ef5 4889C7   		movq	%rax, %rdi
 10092 5ef8 4889DE   		movq	%rbx, %rsi
 10093 5efb E8000000 		call	_ZStlsISt11char_traitsIcEERSt13basic_ostreamIcT_ES5_PKc
 10093      00
 10094 5f00 488D7C24 		leaq	48(%rsp), %rdi
 10094      30
 10095 5f05 E8000000 		call	_ZNK8UnitTest15MemoryOutStream7GetTextEv
 10095      00
 10096 5f0a 4889C3   		movq	%rax, %rbx
 10097 5f0d E8000000 		call	_ZN8UnitTest11CurrentTest7ResultsEv
 10097      00
 10098 5f12 488B38   		movq	(%rax), %rdi
 10099 5f15 4889DA   		movq	%rbx, %rdx
 10100 5f18 4C89EE   		movq	%r13, %rsi
 10101 5f1b E8000000 		call	_ZN8UnitTest11TestResults13OnTestFailureERKNS_11TestDetailsEPKc
 10101      00
 10102              	.LEHE282:
 10103 5f20 488D7C24 		leaq	48(%rsp), %rdi
 10103      30
 10104              	.LEHB283:
 10105 5f25 E8000000 		call	_ZN8UnitTest15MemoryOutStreamD1Ev
 10105      00
 10106              	.LEHE283:
 10107              	.L1526:
 10108 5f2a E8000000 		call	__cxa_end_catch
 10108      00
 10109 5f2f E900FEFF 		jmp	.L1444
 10109      FF
 10110              	.L1536:
 10111 5f34 E8000000 		call	__stack_chk_fail
 10111      00
 10112              	.L1502:
 10113 5f39 4889C7   		movq	%rax, %rdi
 10114 5f3c BB010000 		movl	$1, %ebx
 10114      00
 10115 5f41 E96EFFFF 		jmp	.L1448
 10115      FF
 10116              	.L1506:
 10117 5f46 488D7C24 		leaq	48(%rsp), %rdi
 10117      30
 10118 5f4b 4889C3   		movq	%rax, %rbx
 10119 5f4e E8000000 		call	_ZN8UnitTest15MemoryOutStreamD1Ev
 10119      00
 10120              	.L1497:
 10121 5f53 E8000000 		call	__cxa_end_catch
 10121      00
 10122 5f58 4889DF   		movq	%rbx, %rdi
 10123              	.LEHB284:
 10124 5f5b E8000000 		call	_Unwind_Resume
 10124      00
 10125              	.LEHE284:
 10126              	.L1505:
 10127              	.L1527:
 10128 5f60 4889C3   		movq	%rax, %rbx
 10129 5f63 EBEE     		jmp	.L1497
 10130              	.L1538:
 10131 5f65 E8000000 		call	__cxa_begin_catch
 10131      00
 10132 5f6a 84DB     		testb	%bl, %bl
 10133 5f6c 488D5C24 		leaq	16(%rsp), %rbx
 10133      10
 10134 5f71 BA440000 		movl	$68, %edx
 10134      00
 10135 5f76 4C89EE   		movq	%r13, %rsi
 10136 5f79 4889DF   		movq	%rbx, %rdi
 10137 5f7c 0F849300 		je	.L1499
 10137      0000
 10138              	.LEHB285:
 10139 5f82 E8000000 		call	_ZN8UnitTest11TestDetailsC1ERKS0_i
 10139      00
 10140 5f87 E8000000 		call	_ZN8UnitTest11CurrentTest7ResultsEv
 10140      00
 10141 5f8c 488B38   		movq	(%rax), %rdi
 10142 5f8f BA000000 		movl	$.LC36, %edx
 10142      00
 10143 5f94 4889DE   		movq	%rbx, %rsi
 10144 5f97 E8000000 		call	_ZN8UnitTest11TestResults13OnTestFailureERKNS_11TestDetailsEPKc
 10144      00
 10145              	.LEHE285:
 10146              	.L1500:
 10147              	.LEHB286:
 10148 5f9c E8000000 		call	__cxa_end_catch
 10148      00
 10149              	.LEHE286:
 10150 5fa1 E98EFDFF 		jmp	.L1444
 10150      FF
 10151              	.L1493:
 10152 5fa6 E8000000 		call	__cxa_begin_catch
 10152      00
 10153 5fab 4889C3   		movq	%rax, %rbx
 10154 5fae 488B00   		movq	(%rax), %rax
 10155 5fb1 4889DF   		movq	%rbx, %rdi
 10156 5fb4 FF5010   		call	*16(%rax)
 10157 5fb7 4889DF   		movq	%rbx, %rdi
 10158 5fba 4889C5   		movq	%rax, %rbp
 10159              	.LEHB287:
 10160 5fbd E8000000 		call	_ZNK8UnitTest15AssertException10LineNumberEv
 10160      00
 10161 5fc2 4889DF   		movq	%rbx, %rdi
 10162 5fc5 4189C4   		movl	%eax, %r12d
 10163 5fc8 E8000000 		call	_ZNK8UnitTest15AssertException8FilenameEv
 10163      00
 10164 5fcd 488B4C24 		movq	8(%rsp), %rcx
 10164      08
 10165 5fd2 488D5C24 		leaq	16(%rsp), %rbx
 10165      10
 10166 5fd7 4589E0   		movl	%r12d, %r8d
 10167 5fda 4889DF   		movq	%rbx, %rdi
 10168 5fdd 488B5108 		movq	8(%rcx), %rdx
 10169 5fe1 488B7110 		movq	16(%rcx), %rsi
 10170 5fe5 4889C1   		movq	%rax, %rcx
 10171 5fe8 E8000000 		call	_ZN8UnitTest11TestDetailsC1EPKcS2_S2_i
 10171      00
 10172 5fed E8000000 		call	_ZN8UnitTest11CurrentTest7ResultsEv
 10172      00
 10173 5ff2 488B38   		movq	(%rax), %rdi
 10174 5ff5 4889EA   		movq	%rbp, %rdx
 10175 5ff8 4889DE   		movq	%rbx, %rsi
 10176 5ffb E8000000 		call	_ZN8UnitTest11TestResults13OnTestFailureERKNS_11TestDetailsEPKc
 10176      00
 10177              	.LEHE287:
 10178 6000 E925FFFF 		jmp	.L1526
 10178      FF
 10179              	.L1507:
 10180 6005 4889C3   		movq	%rax, %rbx
 10181 6008 E8000000 		call	__cxa_end_catch
 10181      00
 10182 600d 4889DF   		movq	%rbx, %rdi
 10183              	.LEHB288:
 10184 6010 E8000000 		call	_Unwind_Resume
 10184      00
 10185              	.LEHE288:
 10186              	.L1499:
 10187              	.LEHB289:
 10188 6015 E8000000 		call	_ZN8UnitTest11TestDetailsC1ERKS0_i
 10188      00
 10189 601a E8000000 		call	_ZN8UnitTest11CurrentTest7ResultsEv
 10189      00
 10190 601f 488B38   		movq	(%rax), %rdi
 10191 6022 BA000000 		movl	$.LC37, %edx
 10191      00
 10192 6027 4889DE   		movq	%rbx, %rsi
 10193 602a E8000000 		call	_ZN8UnitTest11TestResults13OnTestFailureERKNS_11TestDetailsEPKc
 10193      00
 10194              	.LEHE289:
 10195 602f E968FFFF 		jmp	.L1500
 10195      FF
 10196              	.L1504:
 10197 6034 E927FFFF 		jmp	.L1527
 10197      FF
 10198              	.L1503:
 10199 6039 488D7C24 		leaq	48(%rsp), %rdi
 10199      30
 10200 603e 4889C3   		movq	%rax, %rbx
 10201 6041 4889D5   		movq	%rdx, %rbp
 10202 6044 E8000000 		call	_ZN12_GLOBAL__N_122XmlTestReporterFixtureD2Ev
 10202      00
 10203 6049 4889DF   		movq	%rbx, %rdi
 10204 604c 4889EA   		movq	%rbp, %rdx
 10205 604f BB010000 		movl	$1, %ebx
 10205      00
 10206 6054 E95BFEFF 		jmp	.L1448
 10206      FF
 10207              	.L1508:
 10208 6059 488D7C24 		leaq	48(%rsp), %rdi
 10208      30
 10209 605e 4889C3   		movq	%rax, %rbx
 10210 6061 4889D5   		movq	%rdx, %rbp
 10211 6064 E8000000 		call	_ZNSt19basic_ostringstreamIcSt11char_traitsIcESaIcEED1Ev
 10211      00
 10212 6069 4889DF   		movq	%rbx, %rdi
 10213 606c 4889EA   		movq	%rbp, %rdx
 10214 606f 31DB     		xorl	%ebx, %ebx
 10215 6071 E93EFEFF 		jmp	.L1448
 10215      FF
 10216              	.L1510:
 10217 6076 488D7C24 		leaq	56(%rsp), %rdi
 10217      38
 10218 607b 4889C3   		movq	%rax, %rbx
 10219 607e 4889D5   		movq	%rdx, %rbp
 10220 6081 E8000000 		call	_ZNSt15basic_stringbufIcSt11char_traitsIcESaIcEED1Ev
 10220      00
 10221 6086 498B4424 		movq	-24(%r12), %rax
 10221      E8
 10222 608b 488B0D00 		movq	_ZTTSt19basic_ostringstreamIcSt11char_traitsIcESaIcEE+16(%rip), %rcx
 10222      000000
 10223 6092 4C896424 		movq	%r12, 48(%rsp)
 10223      30
 10224 6097 48894C04 		movq	%rcx, 48(%rsp,%rax)
 10224      30
 10225              	.L1447:
 10226 609c 488DBC24 		leaq	136(%rsp), %rdi
 10226      88000000 
 10227 60a4 48C78424 		movq	$_ZTVSt9basic_iosIcSt11char_traitsIcEE+16, 136(%rsp)
 10227      88000000 
 10227      00000000 
 10228 60b0 E8000000 		call	_ZNSt8ios_baseD2Ev
 10228      00
 10229 60b5 4889DF   		movq	%rbx, %rdi
 10230 60b8 4889EA   		movq	%rbp, %rdx
 10231 60bb 31DB     		xorl	%ebx, %ebx
 10232 60bd E9F2FDFF 		jmp	.L1448
 10232      FF
 10233              	.L1509:
 10234 60c2 4889C3   		movq	%rax, %rbx
 10235 60c5 4889D5   		movq	%rdx, %rbp
 10236 60c8 EBD2     		jmp	.L1447
 10237              		.cfi_endproc
 10238              	.LFE1397:
 10239              		.section	.gcc_except_table
 10240              		.align 4
 10241              	.LLSDA1397:
 10242 0794 FF       		.byte	0xff
 10243 0795 03       		.byte	0x3
 10244 0796 6D       		.uleb128 .LLSDATT1397-.LLSDATTD1397
 10245              	.LLSDATTD1397:
 10246 0797 01       		.byte	0x1
 10247 0798 57       		.uleb128 .LLSDACSE1397-.LLSDACSB1397
 10248              	.LLSDACSB1397:
 10249 0799 B401     		.uleb128 .LEHB275-.LFB1397
 10250 079b 05       		.uleb128 .LEHE275-.LEHB275
 10251 079c 820D     		.uleb128 .L1509-.LFB1397
 10252 079e 07       		.uleb128 0x7
 10253 079f C202     		.uleb128 .LEHB276-.LFB1397
 10254 07a1 05       		.uleb128 .LEHE276-.LEHB276
 10255 07a2 B60C     		.uleb128 .L1510-.LFB1397
 10256 07a4 07       		.uleb128 0x7
 10257 07a5 D602     		.uleb128 .LEHB277-.LFB1397
 10258 07a7 05       		.uleb128 .LEHE277-.LEHB277
 10259 07a8 990C     		.uleb128 .L1508-.LFB1397
 10260 07aa 07       		.uleb128 0x7
 10261 07ab EB02     		.uleb128 .LEHB278-.LFB1397
 10262 07ad 05       		.uleb128 .LEHE278-.LEHB278
 10263 07ae F90B     		.uleb128 .L1503-.LFB1397
 10264 07b0 07       		.uleb128 0x7
 10265 07b1 F504     		.uleb128 .LEHB279-.LFB1397
 10266 07b3 05       		.uleb128 .LEHE279-.LEHB279
 10267 07b4 D908     		.uleb128 .L1511-.LFB1397
 10268 07b6 07       		.uleb128 0x7
 10269 07b7 EF05     		.uleb128 .LEHB280-.LFB1397
 10270 07b9 05       		.uleb128 .LEHE280-.LEHB280
 10271 07ba F909     		.uleb128 .L1502-.LFB1397
 10272 07bc 05       		.uleb128 0x5
 10273 07bd 9509     		.uleb128 .LEHB281-.LFB1397
 10274 07bf 05       		.uleb128 .LEHE281-.LEHB281
 10275 07c0 A00A     		.uleb128 .L1505-.LFB1397
 10276 07c2 00       		.uleb128 0
 10277 07c3 B009     		.uleb128 .LEHB282-.LFB1397
 10278 07c5 30       		.uleb128 .LEHE282-.LEHB282
 10279 07c6 860A     		.uleb128 .L1506-.LFB1397
 10280 07c8 00       		.uleb128 0
 10281 07c9 E509     		.uleb128 .LEHB283-.LFB1397
 10282 07cb 05       		.uleb128 .LEHE283-.LEHB283
 10283 07cc A00A     		.uleb128 .L1505-.LFB1397
 10284 07ce 00       		.uleb128 0
 10285 07cf 9B0A     		.uleb128 .LEHB284-.LFB1397
 10286 07d1 05       		.uleb128 .LEHE284-.LEHB284
 10287 07d2 00       		.uleb128 0
 10288 07d3 00       		.uleb128 0
 10289 07d4 C20A     		.uleb128 .LEHB285-.LFB1397
 10290 07d6 1A       		.uleb128 .LEHE285-.LEHB285
 10291 07d7 C50B     		.uleb128 .L1507-.LFB1397
 10292 07d9 00       		.uleb128 0
 10293 07da DC0A     		.uleb128 .LEHB286-.LFB1397
 10294 07dc 05       		.uleb128 .LEHE286-.LEHB286
 10295 07dd 00       		.uleb128 0
 10296 07de 00       		.uleb128 0
 10297 07df FD0A     		.uleb128 .LEHB287-.LFB1397
 10298 07e1 43       		.uleb128 .LEHE287-.LEHB287
 10299 07e2 F40B     		.uleb128 .L1504-.LFB1397
 10300 07e4 00       		.uleb128 0
 10301 07e5 D00B     		.uleb128 .LEHB288-.LFB1397
 10302 07e7 05       		.uleb128 .LEHE288-.LEHB288
 10303 07e8 00       		.uleb128 0
 10304 07e9 00       		.uleb128 0
 10305 07ea D50B     		.uleb128 .LEHB289-.LFB1397
 10306 07ec 1A       		.uleb128 .LEHE289-.LEHB289
 10307 07ed C50B     		.uleb128 .L1507-.LFB1397
 10308 07ef 00       		.uleb128 0
 10309              	.LLSDACSE1397:
 10310 07f0 03       		.byte	0x3
 10311 07f1 00       		.byte	0
 10312 07f2 02       		.byte	0x2
 10313 07f3 7D       		.byte	0x7d
 10314 07f4 01       		.byte	0x1
 10315 07f5 7D       		.byte	0x7d
 10316 07f6 00       		.byte	0
 10317 07f7 7D       		.byte	0x7d
 10318              		.align 4
 10319 07f8 00000000 		.long	0
 10320              	
 10321 07fc 00000000 		.long	_ZTISt9exception
 10322 0800 00000000 		.long	_ZTIN8UnitTest15AssertExceptionE
 10323              	.LLSDATT1397:
 10324              		.text
 10326              		.section	.text.unlikely
 10327              	.LCOLDE76:
 10328              		.text
 10329              	.LHOTE76:
 10330              		.section	.rodata.str1.1
 10331              	.LC77:
 10332 0128 22222727 		.string	"\"\"''&&<<>>"
 10332      26263C3C 
 10332      3E3E00
 10333              		.section	.rodata.str1.8
 10334 0665 000000   		.align 8
 10335              	.LC78:
 10336 0668 3C3F786D 		.string	"<?xml version=\"1.0\"?><unittest-results tests=\"1\" failedtests=\"2\" failures=\"3\" tim
 10336      6C207665 
 10336      7273696F 
 10336      6E3D2231 
 10336      2E30223F 
 10337              		.section	.text.unlikely
 10338              	.LCOLDB79:
 10339              		.text
 10340              	.LHOTB79:
 10341 60ca 660F1F44 		.p2align 4,,15
 10341      0000
 10343              	_ZN8UnitTest11ExecuteTestIN12_GLOBAL__N_156XmlTestReporterFixtureMultipleCharactersAreEscapedHelper
 10344              	.LFB1485:
 10345              		.cfi_startproc
 10346              		.cfi_personality 0x3,__gxx_personality_v0
 10347              		.cfi_lsda 0x3,.LLSDA1485
 10348 60d0 4154     		pushq	%r12
 10349              		.cfi_def_cfa_offset 16
 10350              		.cfi_offset 12, -16
 10351 60d2 55       		pushq	%rbp
 10352              		.cfi_def_cfa_offset 24
 10353              		.cfi_offset 6, -24
 10354 60d3 53       		pushq	%rbx
 10355              		.cfi_def_cfa_offset 32
 10356              		.cfi_offset 3, -32
 10357 60d4 4889F3   		movq	%rsi, %rbx
 10358 60d7 4881ECB0 		subq	$1712, %rsp
 10358      060000
 10359              		.cfi_def_cfa_offset 1744
 10360 60de 48893C24 		movq	%rdi, (%rsp)
 10361 60e2 48897424 		movq	%rsi, 8(%rsp)
 10361      08
 10362 60e7 64488B04 		movq	%fs:40, %rax
 10362      25280000 
 10362      00
 10363 60f0 48898424 		movq	%rax, 1704(%rsp)
 10363      A8060000 
 10364 60f8 31C0     		xorl	%eax, %eax
 10365              	.LEHB290:
 10366 60fa E8000000 		call	_ZN8UnitTest11CurrentTest7DetailsEv
 10366      00
 10367              	.LEHE290:
 10368 60ff 488DBC24 		leaq	576(%rsp), %rdi
 10368      40020000 
 10369 6107 488918   		movq	%rbx, (%rax)
 10370              	.LEHB291:
 10371 610a E8000000 		call	_ZN8UnitTest16SignalTranslatorC1Ev
 10371      00
 10372              	.LEHE291:
 10373 610f 488B3D00 		movq	_ZN8UnitTest16SignalTranslator12s_jumpTargetE(%rip), %rdi
 10373      000000
 10374 6116 BE010000 		movl	$1, %esi
 10374      00
 10375 611b E8000000 		call	__sigsetjmp
 10375      00
 10376 6120 85C0     		testl	%eax, %eax
 10377 6122 0F85E800 		jne	.L1624
 10377      0000
 10378 6128 488D7C24 		leaq	112(%rsp), %rdi
 10378      70
 10379 612d 41B8E110 		movl	$4321, %r8d
 10379      0000
 10380 6133 B9000000 		movl	$.LC58, %ecx
 10380      00
 10381 6138 BA000000 		movl	$.LC44, %edx
 10381      00
 10382 613d BE000000 		movl	$.LC59, %esi
 10382      00
 10383              	.LEHB292:
 10384 6142 E8000000 		call	_ZN8UnitTest11TestDetailsC1EPKcS2_S2_i
 10384      00
 10385 6147 488B2C24 		movq	(%rsp), %rbp
 10386 614b 488D7424 		leaq	112(%rsp), %rsi
 10386      70
 10387 6150 488D9D60 		leaq	352(%rbp), %rbx
 10387      010000
 10388 6157 4889DF   		movq	%rbx, %rdi
 10389 615a E8000000 		call	_ZN8UnitTest20DeferredTestReporter15ReportTestStartERKNS_11TestDetailsE
 10389      00
 10390 615f 488D7424 		leaq	112(%rsp), %rsi
 10390      70
 10391 6164 BA000000 		movl	$.LC77, %edx
 10391      00
 10392 6169 4889DF   		movq	%rbx, %rdi
 10393 616c E8000000 		call	_ZN8UnitTest20DeferredTestReporter13ReportFailureERKNS_11TestDetailsEPKc
 10393      00
 10394 6171 488D7424 		leaq	112(%rsp), %rsi
 10394      70
 10395 6176 F30F1005 		movss	.LC48(%rip), %xmm0
 10395      00000000 
 10396 617e 4889DF   		movq	%rbx, %rdi
 10397 6181 E8000000 		call	_ZN8UnitTest20DeferredTestReporter16ReportTestFinishERKNS_11TestDetailsEf
 10397      00
 10398 6186 F30F1005 		movss	.LC48(%rip), %xmm0
 10398      00000000 
 10399 618e B9030000 		movl	$3, %ecx
 10399      00
 10400 6193 BA020000 		movl	$2, %edx
 10400      00
 10401 6198 BE010000 		movl	$1, %esi
 10401      00
 10402 619d 4889DF   		movq	%rbx, %rdi
 10403 61a0 E8000000 		call	_ZN8UnitTest15XmlTestReporter13ReportSummaryEiiif
 10403      00
 10404              	.LEHE292:
 10405 61a5 48C74424 		movq	$.LC78, 72(%rsp)
 10405      48000000 
 10405      00
 10406              	.LEHB293:
 10407 61ae E8000000 		call	_ZN8UnitTest11CurrentTest7DetailsEv
 10407      00
 10408 61b3 488B30   		movq	(%rax), %rsi
 10409 61b6 488DBC24 		leaq	176(%rsp), %rdi
 10409      B0000000 
 10410 61be BA340000 		movl	$52, %edx
 10410      00
 10411 61c3 E8000000 		call	_ZN8UnitTest11TestDetailsC1ERKS0_i
 10411      00
 10412              	.LEHE293:
 10413 61c8 488B4530 		movq	48(%rbp), %rax
 10414 61cc 48C74424 		movq	$_ZNSs4_Rep20_S_empty_rep_storageE+24, 32(%rsp)
 10414      20000000 
 10414      00
 10415 61d5 4885C0   		testq	%rax, %rax
 10416 61d8 0F843202 		je	.L1542
 10416      0000
 10417 61de 488B7D20 		movq	32(%rbp), %rdi
 10418 61e2 4839F8   		cmpq	%rdi, %rax
 10419 61e5 7649     		jbe	.L1543
 10420 61e7 488B0C24 		movq	(%rsp), %rcx
 10421 61eb 488B6928 		movq	40(%rcx), %rbp
 10422 61ef 4839E8   		cmpq	%rbp, %rax
 10423 61f2 0F84B001 		je	.L1598
 10423      0000
 10424 61f8 4885ED   		testq	%rbp, %rbp
 10425 61fb 0F858F02 		jne	.L1625
 10425      0000
 10426 6201 BF000000 		movl	$.LC34, %edi
 10426      00
 10427              	.LEHB294:
 10428 6206 E8000000 		call	_ZSt19__throw_logic_errorPKc
 10428      00
 10429              	.LEHE294:
 10430 620b 0F1F4400 		.p2align 4,,10
 10430      00
 10431              		.p2align 3
 10432              	.L1624:
 10433 6210 BF080000 		movl	$8, %edi
 10433      00
 10434 6215 E8000000 		call	__cxa_allocate_exception
 10434      00
 10435 621a 31D2     		xorl	%edx, %edx
 10436 621c 48C70000 		movq	$.LC24, (%rax)
 10436      000000
 10437 6223 BE000000 		movl	$_ZTIPKc, %esi
 10437      00
 10438 6228 4889C7   		movq	%rax, %rdi
 10439              	.LEHB295:
 10440 622b E8000000 		call	__cxa_throw
 10440      00
 10441              	.LEHE295:
 10442              		.p2align 4,,10
 10443              		.p2align 3
 10444              	.L1543:
 10445 6230 488B0424 		movq	(%rsp), %rax
 10446 6234 488B6828 		movq	40(%rax), %rbp
 10447 6238 4839EF   		cmpq	%rbp, %rdi
 10448 623b 0F84E700 		je	.L1599
 10448      0000
 10449 6241 4885ED   		testq	%rbp, %rbp
 10450 6244 0F859602 		jne	.L1557
 10450      0000
 10451 624a 4885FF   		testq	%rdi, %rdi
 10452 624d 0F848D02 		je	.L1557
 10452      0000
 10453 6253 BF000000 		movl	$.LC34, %edi
 10453      00
 10454              	.LEHB296:
 10455 6258 E8000000 		call	_ZSt19__throw_logic_errorPKc
 10455      00
 10456              	.LEHE296:
 10457              	.L1601:
 10458 625d 4889C3   		movq	%rax, %rbx
 10459 6260 4889D5   		movq	%rdx, %rbp
 10460              	.L1584:
 10461 6263 488DBC24 		leaq	576(%rsp), %rdi
 10461      40020000 
 10462 626b E8000000 		call	_ZN8UnitTest16SignalTranslatorD1Ev
 10462      00
 10463 6270 4889DF   		movq	%rbx, %rdi
 10464 6273 4889EA   		movq	%rbp, %rdx
 10465              	.L1585:
 10466 6276 4883FA01 		cmpq	$1, %rdx
 10467 627a 0F845404 		je	.L1587
 10467      0000
 10468 6280 4883FA02 		cmpq	$2, %rdx
 10469 6284 0F852404 		jne	.L1626
 10469      0000
 10470 628a E8000000 		call	__cxa_begin_catch
 10470      00
 10471 628f 488DBC24 		leaq	208(%rsp), %rdi
 10471      D0000000 
 10472 6297 4889C3   		movq	%rax, %rbx
 10473              	.LEHB297:
 10474 629a E8000000 		call	_ZN8UnitTest15MemoryOutStreamC1Ev
 10474      00
 10475              	.LEHE297:
 10476 629f 488B03   		movq	(%rbx), %rax
 10477 62a2 4889DF   		movq	%rbx, %rdi
 10478 62a5 FF5010   		call	*16(%rax)
 10479 62a8 488DBC24 		leaq	208(%rsp), %rdi
 10479      D0000000 
 10480 62b0 BE000000 		movl	$.LC32, %esi
 10480      00
 10481 62b5 4889C3   		movq	%rax, %rbx
 10482              	.LEHB298:
 10483 62b8 E8000000 		call	_ZStlsISt11char_traitsIcEERSt13basic_ostreamIcT_ES5_PKc
 10483      00
 10484 62bd 4889C7   		movq	%rax, %rdi
 10485 62c0 4889DE   		movq	%rbx, %rsi
 10486 62c3 E8000000 		call	_ZStlsISt11char_traitsIcEERSt13basic_ostreamIcT_ES5_PKc
 10486      00
 10487 62c8 488DBC24 		leaq	208(%rsp), %rdi
 10487      D0000000 
 10488 62d0 E8000000 		call	_ZNK8UnitTest15MemoryOutStream7GetTextEv
 10488      00
 10489 62d5 4889C3   		movq	%rax, %rbx
 10490 62d8 E8000000 		call	_ZN8UnitTest11CurrentTest7ResultsEv
 10490      00
 10491 62dd 488B7424 		movq	8(%rsp), %rsi
 10491      08
 10492 62e2 488B38   		movq	(%rax), %rdi
 10493 62e5 4889DA   		movq	%rbx, %rdx
 10494 62e8 E8000000 		call	_ZN8UnitTest11TestResults13OnTestFailureERKNS_11TestDetailsEPKc
 10494      00
 10495              	.LEHE298:
 10496 62ed 488DBC24 		leaq	208(%rsp), %rdi
 10496      D0000000 
 10497              	.LEHB299:
 10498 62f5 E8000000 		call	_ZN8UnitTest15MemoryOutStreamD1Ev
 10498      00
 10499              	.LEHE299:
 10500              	.L1618:
 10501 62fa E8000000 		call	__cxa_end_catch
 10501      00
 10502 62ff 90       		.p2align 4,,10
 10503              		.p2align 3
 10504              	.L1539:
 10505 6300 488B8424 		movq	1704(%rsp), %rax
 10505      A8060000 
 10506 6308 64483304 		xorq	%fs:40, %rax
 10506      25280000 
 10506      00
 10507 6311 0F85DB02 		jne	.L1627
 10507      0000
 10508 6317 4881C4B0 		addq	$1712, %rsp
 10508      060000
 10509              		.cfi_remember_state
 10510              		.cfi_def_cfa_offset 32
 10511 631e 5B       		popq	%rbx
 10512              		.cfi_def_cfa_offset 24
 10513 631f 5D       		popq	%rbp
 10514              		.cfi_def_cfa_offset 16
 10515 6320 415C     		popq	%r12
 10516              		.cfi_def_cfa_offset 8
 10517 6322 C3       		ret
 10518              		.p2align 4,,10
 10519 6323 0F1F4400 		.p2align 3
 10519      00
 10520              	.L1599:
 10521              		.cfi_restore_state
 10522 6328 B9000000 		movl	$_ZNSs4_Rep20_S_empty_rep_storageE+24, %ecx
 10522      00
 10523 632d 0F1F00   		.p2align 4,,10
 10524              		.p2align 3
 10525              	.L1554:
 10526 6330 488D7424 		leaq	48(%rsp), %rsi
 10526      30
 10527 6335 488D7C24 		leaq	32(%rsp), %rdi
 10527      20
 10528 633a 48894C24 		movq	%rcx, 48(%rsp)
 10528      30
 10529              	.LEHB300:
 10530 633f E8000000 		call	_ZNSs6assignERKSs
 10530      00
 10531              	.LEHE300:
 10532 6344 488B4424 		movq	48(%rsp), %rax
 10532      30
 10533 6349 488D78E8 		leaq	-24(%rax), %rdi
 10534 634d 4881FF00 		cmpq	$_ZNSs4_Rep20_S_empty_rep_storageE, %rdi
 10534      000000
 10535 6354 0F853E02 		jne	.L1628
 10535      0000
 10536              	.L1550:
 10537              	.LEHB301:
 10538 635a E8000000 		call	_ZN8UnitTest11CurrentTest7ResultsEv
 10538      00
 10539 635f 488B38   		movq	(%rax), %rdi
 10540 6362 488D8C24 		leaq	176(%rsp), %rcx
 10540      B0000000 
 10541 636a 488D5424 		leaq	32(%rsp), %rdx
 10541      20
 10542 636f 488D7424 		leaq	72(%rsp), %rsi
 10542      48
 10543 6374 E8000000 		call	_ZN8UnitTest10CheckEqualIPKcSsEEvRNS_11TestResultsERKT_RKT0_RKNS_11TestDetailsE
 10543      00
 10544              	.LEHE301:
 10545 6379 488B4424 		movq	32(%rsp), %rax
 10545      20
 10546 637e 488D78E8 		leaq	-24(%rax), %rdi
 10547 6382 4881FF00 		cmpq	$_ZNSs4_Rep20_S_empty_rep_storageE, %rdi
 10547      000000
 10548 6389 0F85D901 		jne	.L1629
 10548      0000
 10549              	.L1575:
 10550 638f 488DBC24 		leaq	576(%rsp), %rdi
 10550      40020000 
 10551              	.LEHB302:
 10552 6397 E8000000 		call	_ZN8UnitTest16SignalTranslatorD1Ev
 10552      00
 10553              	.LEHE302:
 10554 639c E95FFFFF 		jmp	.L1539
 10554      FF
 10555              		.p2align 4,,10
 10556 63a1 0F1F8000 		.p2align 3
 10556      000000
 10557              	.L1598:
 10558 63a8 B9000000 		movl	$_ZNSs4_Rep20_S_empty_rep_storageE+24, %ecx
 10558      00
 10559 63ad 0F1F00   		.p2align 4,,10
 10560              		.p2align 3
 10561              	.L1544:
 10562 63b0 488D7424 		leaq	64(%rsp), %rsi
 10562      40
 10563 63b5 488D7C24 		leaq	32(%rsp), %rdi
 10563      20
 10564 63ba 48894C24 		movq	%rcx, 64(%rsp)
 10564      40
 10565              	.LEHB303:
 10566 63bf E8000000 		call	_ZNSs6assignERKSs
 10566      00
 10567              	.LEHE303:
 10568 63c4 488B4424 		movq	64(%rsp), %rax
 10568      40
 10569 63c9 488D78E8 		leaq	-24(%rax), %rdi
 10570 63cd 4881FF00 		cmpq	$_ZNSs4_Rep20_S_empty_rep_storageE, %rdi
 10570      000000
 10571 63d4 7484     		je	.L1550
 10572 63d6 BA000000 		movl	$_ZL28__gthrw___pthread_key_createPjPFvPvE, %edx
 10572      00
 10573 63db 4885D2   		testq	%rdx, %rdx
 10574 63de 0F84F101 		je	.L1551
 10574      0000
 10575 63e4 BAFFFFFF 		movl	$-1, %edx
 10575      FF
 10576 63e9 F00FC150 		lock xaddl	%edx, -8(%rax)
 10576      F8
 10577 63ee 89D0     		movl	%edx, %eax
 10578              	.L1552:
 10579 63f0 85C0     		testl	%eax, %eax
 10580 63f2 0F8F62FF 		jg	.L1550
 10580      FFFF
 10581 63f8 488D7424 		leaq	29(%rsp), %rsi
 10581      1D
 10582 63fd E8000000 		call	_ZNSs4_Rep10_M_destroyERKSaIcE
 10582      00
 10583 6402 E953FFFF 		jmp	.L1550
 10583      FF
 10584 6407 660F1F84 		.p2align 4,,10
 10584      00000000 
 10584      00
 10585              		.p2align 3
 10586              	.L1542:
 10587 6410 488B3424 		movq	(%rsp), %rsi
 10588 6414 488D7C24 		leaq	32(%rsp), %rdi
 10588      20
 10589 6419 4883C650 		addq	$80, %rsi
 10590              	.LEHB304:
 10591 641d E8000000 		call	_ZNSs6assignERKSs
 10591      00
 10592              	.LEHE304:
 10593 6422 E933FFFF 		jmp	.L1550
 10593      FF
 10594              	.L1609:
 10595 6427 4889C3   		movq	%rax, %rbx
 10596              	.L1566:
 10597 642a 488B4424 		movq	32(%rsp), %rax
 10597      20
 10598 642f 488D78E8 		leaq	-24(%rax), %rdi
 10599 6433 4881FF00 		cmpq	$_ZNSs4_Rep20_S_empty_rep_storageE, %rdi
 10599      000000
 10600 643a 740A     		je	.L1582
 10601 643c 488D7424 		leaq	25(%rsp), %rsi
 10601      19
 10602 6441 E8000000 		call	_ZNSs4_Rep10_M_disposeERKSaIcE.part.5
 10602      00
 10603              	.L1582:
 10604 6446 4889D8   		movq	%rbx, %rax
 10605              	.L1572:
 10606 6449 4889C7   		movq	%rax, %rdi
 10607 644c E8000000 		call	__cxa_begin_catch
 10607      00
 10608              	.LEHB305:
 10609 6451 E8000000 		call	_ZN8UnitTest11CurrentTest7DetailsEv
 10609      00
 10610 6456 488B30   		movq	(%rax), %rsi
 10611 6459 488DBC24 		leaq	144(%rsp), %rdi
 10611      90000000 
 10612 6461 BA340000 		movl	$52, %edx
 10612      00
 10613 6466 E8000000 		call	_ZN8UnitTest11TestDetailsC1ERKS0_i
 10613      00
 10614 646b E8000000 		call	_ZN8UnitTest11CurrentTest7ResultsEv
 10614      00
 10615 6470 488B38   		movq	(%rax), %rdi
 10616 6473 488DB424 		leaq	144(%rsp), %rsi
 10616      90000000 
 10617 647b BA000000 		movl	$.LC51, %edx
 10617      00
 10618 6480 E8000000 		call	_ZN8UnitTest11TestResults13OnTestFailureERKNS_11TestDetailsEPKc
 10618      00
 10619              	.LEHE305:
 10620              	.LEHB306:
 10621 6485 E8000000 		call	__cxa_end_catch
 10621      00
 10622              	.LEHE306:
 10623 648a E900FFFF 		jmp	.L1575
 10623      FF
 10624 648f 90       		.p2align 4,,10
 10625              		.p2align 3
 10626              	.L1625:
 10627 6490 4829E8   		subq	%rbp, %rax
 10628 6493 488D5424 		leaq	31(%rsp), %rdx
 10628      1F
 10629 6498 31F6     		xorl	%esi, %esi
 10630 649a 4889C7   		movq	%rax, %rdi
 10631 649d 4889C3   		movq	%rax, %rbx
 10632              	.LEHB307:
 10633 64a0 E8000000 		call	_ZNSs4_Rep9_S_createEmmRKSaIcE
 10633      00
 10634 64a5 4883FB01 		cmpq	$1, %rbx
 10635 64a9 4989C4   		movq	%rax, %r12
 10636 64ac 488D4818 		leaq	24(%rax), %rcx
 10637 64b0 757E     		jne	.L1547
 10638 64b2 0FB64500 		movzbl	0(%rbp), %eax
 10639 64b6 41884424 		movb	%al, 24(%r12)
 10639      18
 10640              	.L1548:
 10641 64bb 4981FC00 		cmpq	$_ZNSs4_Rep20_S_empty_rep_storageE, %r12
 10641      000000
 10642 64c2 0F84E8FE 		je	.L1544
 10642      FFFF
 10643 64c8 41C74424 		movl	$0, 16(%r12)
 10643      10000000 
 10643      00
 10644 64d1 49891C24 		movq	%rbx, (%r12)
 10645 64d5 41C6441C 		movb	$0, 24(%r12,%rbx)
 10645      1800
 10646 64db E9D0FEFF 		jmp	.L1544
 10646      FF
 10647              	.L1557:
 10648 64e0 4889FB   		movq	%rdi, %rbx
 10649 64e3 488D5424 		leaq	30(%rsp), %rdx
 10649      1E
 10650 64e8 31F6     		xorl	%esi, %esi
 10651 64ea 4829EB   		subq	%rbp, %rbx
 10652 64ed 4889DF   		movq	%rbx, %rdi
 10653 64f0 E8000000 		call	_ZNSs4_Rep9_S_createEmmRKSaIcE
 10653      00
 10654              	.LEHE307:
 10655 64f5 4883FB01 		cmpq	$1, %rbx
 10656 64f9 4989C4   		movq	%rax, %r12
 10657 64fc 488D4818 		leaq	24(%rax), %rcx
 10658 6500 754E     		jne	.L1558
 10659 6502 0FB64500 		movzbl	0(%rbp), %eax
 10660 6506 41884424 		movb	%al, 24(%r12)
 10660      18
 10661              	.L1559:
 10662 650b 4981FC00 		cmpq	$_ZNSs4_Rep20_S_empty_rep_storageE, %r12
 10662      000000
 10663 6512 0F8418FE 		je	.L1554
 10663      FFFF
 10664 6518 41C74424 		movl	$0, 16(%r12)
 10664      10000000 
 10664      00
 10665 6521 49891C24 		movq	%rbx, (%r12)
 10666 6525 41C6441C 		movb	$0, 24(%r12,%rbx)
 10666      1800
 10667 652b E900FEFF 		jmp	.L1554
 10667      FF
 10668              		.p2align 4,,10
 10669              		.p2align 3
 10670              	.L1547:
 10671 6530 4889CF   		movq	%rcx, %rdi
 10672 6533 4889DA   		movq	%rbx, %rdx
 10673 6536 4889EE   		movq	%rbp, %rsi
 10674 6539 E8000000 		call	memcpy
 10674      00
 10675 653e 4889C1   		movq	%rax, %rcx
 10676 6541 E975FFFF 		jmp	.L1548
 10676      FF
 10677 6546 662E0F1F 		.p2align 4,,10
 10677      84000000 
 10677      0000
 10678              		.p2align 3
 10679              	.L1558:
 10680 6550 4889CF   		movq	%rcx, %rdi
 10681 6553 4889DA   		movq	%rbx, %rdx
 10682 6556 4889EE   		movq	%rbp, %rsi
 10683 6559 E8000000 		call	memcpy
 10683      00
 10684 655e 4889C1   		movq	%rax, %rcx
 10685 6561 EBA8     		jmp	.L1559
 10686              		.p2align 4,,10
 10687 6563 0F1F4400 		.p2align 3
 10687      00
 10688              	.L1629:
 10689 6568 BA000000 		movl	$_ZL28__gthrw___pthread_key_createPjPFvPvE, %edx
 10689      00
 10690 656d 4885D2   		testq	%rdx, %rdx
 10691 6570 7456     		je	.L1576
 10692 6572 BAFFFFFF 		movl	$-1, %edx
 10692      FF
 10693 6577 F00FC150 		lock xaddl	%edx, -8(%rax)
 10693      F8
 10694 657c 89D0     		movl	%edx, %eax
 10695              	.L1577:
 10696 657e 85C0     		testl	%eax, %eax
 10697 6580 0F8F09FE 		jg	.L1575
 10697      FFFF
 10698 6586 488D7424 		leaq	24(%rsp), %rsi
 10698      18
 10699 658b E8000000 		call	_ZNSs4_Rep10_M_destroyERKSaIcE
 10699      00
 10700 6590 E9FAFDFF 		jmp	.L1575
 10700      FF
 10701              		.p2align 4,,10
 10702 6595 0F1F00   		.p2align 3
 10703              	.L1628:
 10704 6598 BA000000 		movl	$_ZL28__gthrw___pthread_key_createPjPFvPvE, %edx
 10704      00
 10705 659d 4885D2   		testq	%rdx, %rdx
 10706 65a0 7443     		je	.L1561
 10707 65a2 BAFFFFFF 		movl	$-1, %edx
 10707      FF
 10708 65a7 F00FC150 		lock xaddl	%edx, -8(%rax)
 10708      F8
 10709 65ac 89D0     		movl	%edx, %eax
 10710              	.L1562:
 10711 65ae 85C0     		testl	%eax, %eax
 10712 65b0 0F8FA4FD 		jg	.L1550
 10712      FFFF
 10713 65b6 488D7424 		leaq	28(%rsp), %rsi
 10713      1C
 10714 65bb E8000000 		call	_ZNSs4_Rep10_M_destroyERKSaIcE
 10714      00
 10715 65c0 E995FDFF 		jmp	.L1550
 10715      FF
 10716              		.p2align 4,,10
 10717 65c5 0F1F00   		.p2align 3
 10718              	.L1576:
 10719 65c8 8B50F8   		movl	-8(%rax), %edx
 10720 65cb 8D4AFF   		leal	-1(%rdx), %ecx
 10721 65ce 8948F8   		movl	%ecx, -8(%rax)
 10722 65d1 89D0     		movl	%edx, %eax
 10723 65d3 EBA9     		jmp	.L1577
 10724              	.L1551:
 10725 65d5 8B50F8   		movl	-8(%rax), %edx
 10726 65d8 8D4AFF   		leal	-1(%rdx), %ecx
 10727 65db 8948F8   		movl	%ecx, -8(%rax)
 10728 65de 89D0     		movl	%edx, %eax
 10729 65e0 E90BFEFF 		jmp	.L1552
 10729      FF
 10730              	.L1561:
 10731 65e5 8B50F8   		movl	-8(%rax), %edx
 10732 65e8 8D4AFF   		leal	-1(%rdx), %ecx
 10733 65eb 8948F8   		movl	%ecx, -8(%rax)
 10734 65ee 89D0     		movl	%edx, %eax
 10735 65f0 EBBC     		jmp	.L1562
 10736              	.L1627:
 10737 65f2 E8000000 		call	__stack_chk_fail
 10737      00
 10738              	.L1606:
 10739 65f7 4889C3   		movq	%rax, %rbx
 10740 65fa 4889D5   		movq	%rdx, %rbp
 10741 65fd E8000000 		call	__cxa_end_catch
 10741      00
 10742 6602 E95CFCFF 		jmp	.L1584
 10742      FF
 10743              	.L1600:
 10744 6607 4889C7   		movq	%rax, %rdi
 10745 660a E967FCFF 		jmp	.L1585
 10745      FF
 10746              	.L1610:
 10747 660f 4889C3   		movq	%rax, %rbx
 10748 6612 488B4424 		movq	48(%rsp), %rax
 10748      30
 10749 6617 488D78E8 		leaq	-24(%rax), %rdi
 10750 661b 4881FF00 		cmpq	$_ZNSs4_Rep20_S_empty_rep_storageE, %rdi
 10750      000000
 10751 6622 0F8402FE 		je	.L1566
 10751      FFFF
 10752 6628 488D7424 		leaq	26(%rsp), %rsi
 10752      1A
 10753 662d E8000000 		call	_ZNSs4_Rep10_M_disposeERKSaIcE.part.5
 10753      00
 10754 6632 E9F3FDFF 		jmp	.L1566
 10754      FF
 10755              	.L1607:
 10756 6637 E90DFEFF 		jmp	.L1572
 10756      FF
 10757              	.L1608:
 10758 663c 4889C3   		movq	%rax, %rbx
 10759 663f 488B4424 		movq	32(%rsp), %rax
 10759      20
 10760 6644 488D78E8 		leaq	-24(%rax), %rdi
 10761 6648 4881FF00 		cmpq	$_ZNSs4_Rep20_S_empty_rep_storageE, %rdi
 10761      000000
 10762 664f 0F84F1FD 		je	.L1582
 10762      FFFF
 10763 6655 488D7424 		leaq	23(%rsp), %rsi
 10763      17
 10764 665a E8000000 		call	_ZNSs4_Rep10_M_disposeERKSaIcE.part.5
 10764      00
 10765 665f E9E2FDFF 		jmp	.L1582
 10765      FF
 10766              	.L1611:
 10767 6664 4889C3   		movq	%rax, %rbx
 10768 6667 488B4424 		movq	64(%rsp), %rax
 10768      40
 10769 666c 488D78E8 		leaq	-24(%rax), %rdi
 10770 6670 4881FF00 		cmpq	$_ZNSs4_Rep20_S_empty_rep_storageE, %rdi
 10770      000000
 10771 6677 0F84ADFD 		je	.L1566
 10771      FFFF
 10772 667d 488D7424 		leaq	27(%rsp), %rsi
 10772      1B
 10773 6682 E8000000 		call	_ZNSs4_Rep10_M_disposeERKSaIcE.part.5
 10773      00
 10774 6687 E99EFDFF 		jmp	.L1566
 10774      FF
 10775              	.L1604:
 10776 668c 488DBC24 		leaq	208(%rsp), %rdi
 10776      D0000000 
 10777 6694 4889C3   		movq	%rax, %rbx
 10778 6697 E8000000 		call	_ZN8UnitTest15MemoryOutStreamD1Ev
 10778      00
 10779              	.L1591:
 10780 669c E8000000 		call	__cxa_end_catch
 10780      00
 10781 66a1 4889DF   		movq	%rbx, %rdi
 10782              	.LEHB308:
 10783 66a4 E8000000 		call	_Unwind_Resume
 10783      00
 10784              	.LEHE308:
 10785              	.L1603:
 10786              	.L1619:
 10787 66a9 4889C3   		movq	%rax, %rbx
 10788 66ac EBEE     		jmp	.L1591
 10789              	.L1626:
 10790 66ae E8000000 		call	__cxa_begin_catch
 10790      00
 10791              	.LEHB309:
 10792 66b3 E8000000 		call	_ZN8UnitTest11CurrentTest7ResultsEv
 10792      00
 10793 66b8 488B7424 		movq	8(%rsp), %rsi
 10793      08
 10794 66bd 488B38   		movq	(%rax), %rdi
 10795 66c0 BA000000 		movl	$.LC33, %edx
 10795      00
 10796 66c5 E8000000 		call	_ZN8UnitTest11TestResults13OnTestFailureERKNS_11TestDetailsEPKc
 10796      00
 10797              	.LEHE309:
 10798              	.LEHB310:
 10799 66ca E8000000 		call	__cxa_end_catch
 10799      00
 10800              	.LEHE310:
 10801 66cf E92CFCFF 		jmp	.L1539
 10801      FF
 10802              	.L1587:
 10803 66d4 E8000000 		call	__cxa_begin_catch
 10803      00
 10804 66d9 4889C3   		movq	%rax, %rbx
 10805 66dc 488B00   		movq	(%rax), %rax
 10806 66df 4889DF   		movq	%rbx, %rdi
 10807 66e2 FF5010   		call	*16(%rax)
 10808 66e5 4889DF   		movq	%rbx, %rdi
 10809 66e8 4889C5   		movq	%rax, %rbp
 10810              	.LEHB311:
 10811 66eb E8000000 		call	_ZNK8UnitTest15AssertException10LineNumberEv
 10811      00
 10812 66f0 4889DF   		movq	%rbx, %rdi
 10813 66f3 4189C4   		movl	%eax, %r12d
 10814 66f6 E8000000 		call	_ZNK8UnitTest15AssertException8FilenameEv
 10814      00
 10815 66fb 4889C1   		movq	%rax, %rcx
 10816 66fe 488B4424 		movq	8(%rsp), %rax
 10816      08
 10817 6703 488D7C24 		leaq	80(%rsp), %rdi
 10817      50
 10818 6708 4589E0   		movl	%r12d, %r8d
 10819 670b 488B7008 		movq	8(%rax), %rsi
 10820 670f 488B10   		movq	(%rax), %rdx
 10821 6712 E8000000 		call	_ZN8UnitTest11TestDetailsC1EPKcS2_S2_i
 10821      00
 10822 6717 E8000000 		call	_ZN8UnitTest11CurrentTest7ResultsEv
 10822      00
 10823 671c 488B38   		movq	(%rax), %rdi
 10824 671f 488D7424 		leaq	80(%rsp), %rsi
 10824      50
 10825 6724 4889EA   		movq	%rbp, %rdx
 10826 6727 E8000000 		call	_ZN8UnitTest11TestResults13OnTestFailureERKNS_11TestDetailsEPKc
 10826      00
 10827              	.LEHE311:
 10828 672c E9C9FBFF 		jmp	.L1618
 10828      FF
 10829              	.L1605:
 10830 6731 4889C3   		movq	%rax, %rbx
 10831 6734 E8000000 		call	__cxa_end_catch
 10831      00
 10832 6739 4889DF   		movq	%rbx, %rdi
 10833              	.LEHB312:
 10834 673c E8000000 		call	_Unwind_Resume
 10834      00
 10835              	.LEHE312:
 10836              	.L1602:
 10837 6741 E963FFFF 		jmp	.L1619
 10837      FF
 10838              		.cfi_endproc
 10839              	.LFE1485:
 10840              		.section	.gcc_except_table
 10841              		.align 4
 10842              	.LLSDA1485:
 10843 0804 FF       		.byte	0xff
 10844 0805 03       		.byte	0x3
 10845 0806 9C01     		.uleb128 .LLSDATT1485-.LLSDATTD1485
 10846              	.LLSDATTD1485:
 10847 0808 01       		.byte	0x1
 10848 0809 8301     		.uleb128 .LLSDACSE1485-.LLSDACSB1485
 10849              	.LLSDACSB1485:
 10850 080b 2A       		.uleb128 .LEHB290-.LFB1485
 10851 080c 05       		.uleb128 .LEHE290-.LEHB290
 10852 080d 00       		.uleb128 0
 10853 080e 00       		.uleb128 0
 10854 080f 3A       		.uleb128 .LEHB291-.LFB1485
 10855 0810 05       		.uleb128 .LEHE291-.LEHB291
 10856 0811 B70A     		.uleb128 .L1600-.LFB1485
 10857 0813 05       		.uleb128 0x5
 10858 0814 72       		.uleb128 .LEHB292-.LFB1485
 10859 0815 63       		.uleb128 .LEHE292-.LEHB292
 10860 0816 8D03     		.uleb128 .L1601-.LFB1485
 10861 0818 07       		.uleb128 0x7
 10862 0819 DE01     		.uleb128 .LEHB293-.LFB1485
 10863 081b 1A       		.uleb128 .LEHE293-.LEHB293
 10864 081c E70A     		.uleb128 .L1607-.LFB1485
 10865 081e 01       		.uleb128 0x1
 10866 081f B602     		.uleb128 .LEHB294-.LFB1485
 10867 0821 05       		.uleb128 .LEHE294-.LEHB294
 10868 0822 D706     		.uleb128 .L1609-.LFB1485
 10869 0824 01       		.uleb128 0x1
 10870 0825 DB02     		.uleb128 .LEHB295-.LFB1485
 10871 0827 05       		.uleb128 .LEHE295-.LEHB295
 10872 0828 8D03     		.uleb128 .L1601-.LFB1485
 10873 082a 07       		.uleb128 0x7
 10874 082b 8803     		.uleb128 .LEHB296-.LFB1485
 10875 082d 05       		.uleb128 .LEHE296-.LEHB296
 10876 082e D706     		.uleb128 .L1609-.LFB1485
 10877 0830 01       		.uleb128 0x1
 10878 0831 CA03     		.uleb128 .LEHB297-.LFB1485
 10879 0833 05       		.uleb128 .LEHE297-.LEHB297
 10880 0834 D90B     		.uleb128 .L1603-.LFB1485
 10881 0836 00       		.uleb128 0
 10882 0837 E803     		.uleb128 .LEHB298-.LFB1485
 10883 0839 35       		.uleb128 .LEHE298-.LEHB298
 10884 083a BC0B     		.uleb128 .L1604-.LFB1485
 10885 083c 00       		.uleb128 0
 10886 083d A504     		.uleb128 .LEHB299-.LFB1485
 10887 083f 05       		.uleb128 .LEHE299-.LEHB299
 10888 0840 D90B     		.uleb128 .L1603-.LFB1485
 10889 0842 00       		.uleb128 0
 10890 0843 EF04     		.uleb128 .LEHB300-.LFB1485
 10891 0845 05       		.uleb128 .LEHE300-.LEHB300
 10892 0846 BF0A     		.uleb128 .L1610-.LFB1485
 10893 0848 01       		.uleb128 0x1
 10894 0849 8A05     		.uleb128 .LEHB301-.LFB1485
 10895 084b 1F       		.uleb128 .LEHE301-.LEHB301
 10896 084c EC0A     		.uleb128 .L1608-.LFB1485
 10897 084e 01       		.uleb128 0x1
 10898 084f C705     		.uleb128 .LEHB302-.LFB1485
 10899 0851 05       		.uleb128 .LEHE302-.LEHB302
 10900 0852 B70A     		.uleb128 .L1600-.LFB1485
 10901 0854 05       		.uleb128 0x5
 10902 0855 EF05     		.uleb128 .LEHB303-.LFB1485
 10903 0857 05       		.uleb128 .LEHE303-.LEHB303
 10904 0858 940B     		.uleb128 .L1611-.LFB1485
 10905 085a 01       		.uleb128 0x1
 10906 085b CD06     		.uleb128 .LEHB304-.LFB1485
 10907 085d 05       		.uleb128 .LEHE304-.LEHB304
 10908 085e D706     		.uleb128 .L1609-.LFB1485
 10909 0860 01       		.uleb128 0x1
 10910 0861 8107     		.uleb128 .LEHB305-.LFB1485
 10911 0863 34       		.uleb128 .LEHE305-.LEHB305
 10912 0864 A70A     		.uleb128 .L1606-.LFB1485
 10913 0866 07       		.uleb128 0x7
 10914 0867 B507     		.uleb128 .LEHB306-.LFB1485
 10915 0869 05       		.uleb128 .LEHE306-.LEHB306
 10916 086a 8D03     		.uleb128 .L1601-.LFB1485
 10917 086c 07       		.uleb128 0x7
 10918 086d D007     		.uleb128 .LEHB307-.LFB1485
 10919 086f 55       		.uleb128 .LEHE307-.LEHB307
 10920 0870 D706     		.uleb128 .L1609-.LFB1485
 10921 0872 01       		.uleb128 0x1
 10922 0873 D40B     		.uleb128 .LEHB308-.LFB1485
 10923 0875 05       		.uleb128 .LEHE308-.LEHB308
 10924 0876 00       		.uleb128 0
 10925 0877 00       		.uleb128 0
 10926 0878 E30B     		.uleb128 .LEHB309-.LFB1485
 10927 087a 17       		.uleb128 .LEHE309-.LEHB309
 10928 087b E10C     		.uleb128 .L1605-.LFB1485
 10929 087d 00       		.uleb128 0
 10930 087e FA0B     		.uleb128 .LEHB310-.LFB1485
 10931 0880 05       		.uleb128 .LEHE310-.LEHB310
 10932 0881 00       		.uleb128 0
 10933 0882 00       		.uleb128 0
 10934 0883 9B0C     		.uleb128 .LEHB311-.LFB1485
 10935 0885 41       		.uleb128 .LEHE311-.LEHB311
 10936 0886 F10C     		.uleb128 .L1602-.LFB1485
 10937 0888 00       		.uleb128 0
 10938 0889 EC0C     		.uleb128 .LEHB312-.LFB1485
 10939 088b 05       		.uleb128 .LEHE312-.LEHB312
 10940 088c 00       		.uleb128 0
 10941 088d 00       		.uleb128 0
 10942              	.LLSDACSE1485:
 10943 088e 03       		.byte	0x3
 10944 088f 00       		.byte	0
 10945 0890 02       		.byte	0x2
 10946 0891 7D       		.byte	0x7d
 10947 0892 01       		.byte	0x1
 10948 0893 7D       		.byte	0x7d
 10949 0894 00       		.byte	0
 10950 0895 7D       		.byte	0x7d
 10951 0896 0000     		.align 4
 10952 0898 00000000 		.long	0
 10953              	
 10954 089c 00000000 		.long	_ZTISt9exception
 10955 08a0 00000000 		.long	_ZTIN8UnitTest15AssertExceptionE
 10956              	.LLSDATT1485:
 10957              		.text
 10959              		.section	.text.unlikely
 10960              	.LCOLDE79:
 10961              		.text
 10962              	.LHOTE79:
 10963              		.section	.text.unlikely
 10964              		.align 2
 10965              	.LCOLDB80:
 10966              		.text
 10967              	.LHOTB80:
 10968              		.align 2
 10969 6746 662E0F1F 		.p2align 4,,15
 10969      84000000 
 10969      0000
 10971              	_ZNK12_GLOBAL__N_154TestXmlTestReporterFixtureMultipleCharactersAreEscaped7RunImplEv:
 10972              	.LFB1375:
 10973              		.cfi_startproc
 10974              		.cfi_personality 0x3,__gxx_personality_v0
 10975              		.cfi_lsda 0x3,.LLSDA1375
 10976 6750 4157     		pushq	%r15
 10977              		.cfi_def_cfa_offset 16
 10978              		.cfi_offset 15, -16
 10979 6752 4156     		pushq	%r14
 10980              		.cfi_def_cfa_offset 24
 10981              		.cfi_offset 14, -24
 10982 6754 4155     		pushq	%r13
 10983              		.cfi_def_cfa_offset 32
 10984              		.cfi_offset 13, -32
 10985 6756 4154     		pushq	%r12
 10986              		.cfi_def_cfa_offset 40
 10987              		.cfi_offset 12, -40
 10988 6758 4C8D6F08 		leaq	8(%rdi), %r13
 10989 675c 55       		pushq	%rbp
 10990              		.cfi_def_cfa_offset 48
 10991              		.cfi_offset 6, -48
 10992 675d 53       		pushq	%rbx
 10993              		.cfi_def_cfa_offset 56
 10994              		.cfi_offset 3, -56
 10995 675e 4881ECD8 		subq	$472, %rsp
 10995      010000
 10996              		.cfi_def_cfa_offset 528
 10997 6765 48897C24 		movq	%rdi, 8(%rsp)
 10997      08
 10998 676a 488DBC24 		leaq	136(%rsp), %rdi
 10998      88000000 
 10999 6772 64488B0C 		movq	%fs:40, %rcx
 10999      25280000 
 10999      00
 11000 677b 48898C24 		movq	%rcx, 456(%rsp)
 11000      C8010000 
 11001 6783 31C9     		xorl	%ecx, %ecx
 11002 6785 E8000000 		call	_ZNSt8ios_baseC2Ev
 11002      00
 11003 678a 4C8B2500 		movq	_ZTTSt19basic_ostringstreamIcSt11char_traitsIcESaIcEE+8(%rip), %r12
 11003      000000
 11004 6791 C6842468 		movb	$0, 360(%rsp)
 11004      01000000 
 11005 6799 488D7C24 		leaq	48(%rsp), %rdi
 11005      30
 11006 679e 488B0500 		movq	_ZTTSt19basic_ostringstreamIcSt11char_traitsIcESaIcEE+16(%rip), %rax
 11006      000000
 11007 67a5 48C78424 		movq	$_ZTVSt9basic_iosIcSt11char_traitsIcEE+16, 136(%rsp)
 11007      88000000 
 11007      00000000 
 11008 67b1 31F6     		xorl	%esi, %esi
 11009 67b3 48C78424 		movq	$0, 352(%rsp)
 11009      60010000 
 11009      00000000 
 11010 67bf C6842469 		movb	$0, 361(%rsp)
 11010      01000000 
 11011 67c7 49037C24 		addq	-24(%r12), %rdi
 11011      E8
 11012 67cc 48C78424 		movq	$0, 368(%rsp)
 11012      70010000 
 11012      00000000 
 11013 67d8 48C78424 		movq	$0, 376(%rsp)
 11013      78010000 
 11013      00000000 
 11014 67e4 48C78424 		movq	$0, 384(%rsp)
 11014      80010000 
 11014      00000000 
 11015 67f0 48C78424 		movq	$0, 392(%rsp)
 11015      88010000 
 11015      00000000 
 11016 67fc 4C896424 		movq	%r12, 48(%rsp)
 11016      30
 11017 6801 488907   		movq	%rax, (%rdi)
 11018              	.LEHB313:
 11019 6804 E8000000 		call	_ZNSt9basic_iosIcSt11char_traitsIcEE4initEPSt15basic_streambufIcS1_E
 11019      00
 11020              	.LEHE313:
 11021 6809 488D7C24 		leaq	112(%rsp), %rdi
 11021      70
 11022 680e 48C74424 		movq	$_ZTVSt19basic_ostringstreamIcSt11char_traitsIcESaIcEE+24, 48(%rsp)
 11022      30000000 
 11022      00
 11023 6817 48C78424 		movq	$_ZTVSt19basic_ostringstreamIcSt11char_traitsIcESaIcEE+64, 136(%rsp)
 11023      88000000 
 11023      00000000 
 11024 6823 48C74424 		movq	$_ZTVSt15basic_streambufIcSt11char_traitsIcEE+16, 56(%rsp)
 11024      38000000 
 11024      00
 11025 682c 48C74424 		movq	$0, 64(%rsp)
 11025      40000000 
 11025      00
 11026 6835 48C74424 		movq	$0, 72(%rsp)
 11026      48000000 
 11026      00
 11027 683e 48C74424 		movq	$0, 80(%rsp)
 11027      50000000 
 11027      00
 11028 6847 48C74424 		movq	$0, 88(%rsp)
 11028      58000000 
 11028      00
 11029 6850 48C74424 		movq	$0, 96(%rsp)
 11029      60000000 
 11029      00
 11030 6859 48C74424 		movq	$0, 104(%rsp)
 11030      68000000 
 11030      00
 11031 6862 E8000000 		call	_ZNSt6localeC1Ev
 11031      00
 11032 6867 488D4424 		leaq	48(%rsp), %rax
 11032      30
 11033 686c 488D7424 		leaq	56(%rsp), %rsi
 11033      38
 11034 6871 48C74424 		movq	$_ZTVSt15basic_stringbufIcSt11char_traitsIcESaIcEE+16, 56(%rsp)
 11034      38000000 
 11034      00
 11035 687a C7442478 		movl	$16, 120(%rsp)
 11035      10000000 
 11036 6882 48C78424 		movq	$_ZNSs4_Rep20_S_empty_rep_storageE+24, 128(%rsp)
 11036      80000000 
 11036      00000000 
 11037 688e 488D7858 		leaq	88(%rax), %rdi
 11038              	.LEHB314:
 11039 6892 E8000000 		call	_ZNSt9basic_iosIcSt11char_traitsIcEE4initEPSt15basic_streambufIcS1_E
 11039      00
 11040              	.LEHE314:
 11041 6897 488D4424 		leaq	48(%rsp), %rax
 11041      30
 11042 689c 488DB860 		leaq	352(%rax), %rdi
 11042      010000
 11043 68a3 4889C6   		movq	%rax, %rsi
 11044              	.LEHB315:
 11045 68a6 E8000000 		call	_ZN8UnitTest15XmlTestReporterC1ERSo
 11045      00
 11046              	.LEHE315:
 11047 68ab 488D7C24 		leaq	48(%rsp), %rdi
 11047      30
 11048 68b0 4C89EE   		movq	%r13, %rsi
 11049 68b3 4C89AC24 		movq	%r13, 440(%rsp)
 11049      B8010000 
 11050              	.LEHB316:
 11051 68bb E810F8FF 		call	_ZN8UnitTest11ExecuteTestIN12_GLOBAL__N_156XmlTestReporterFixtureMultipleCharactersAreEscaped
 11051      FF
 11052              	.LEHE316:
 11053 68c0 488BAC24 		movq	416(%rsp), %rbp
 11053      A0010000 
 11054 68c8 4C8BB424 		movq	408(%rsp), %r14
 11054      98010000 
 11055 68d0 48C78424 		movq	$_ZTVN8UnitTest20DeferredTestReporterE+16, 400(%rsp)
 11055      90010000 
 11055      00000000 
 11056 68dc 4C39F5   		cmpq	%r14, %rbp
 11057 68df 0F84C700 		je	.L1637
 11057      0000
 11058              		.p2align 4,,10
 11059 68e5 0F1F00   		.p2align 3
 11060              	.L1666:
 11061 68e8 4D8B7E20 		movq	32(%r14), %r15
 11062 68ec 498B5E18 		movq	24(%r14), %rbx
 11063 68f0 4939DF   		cmpq	%rbx, %r15
 11064 68f3 7457     		je	.L1638
 11065 68f5 B8000000 		movl	$_ZL28__gthrw___pthread_key_createPjPFvPvE, %eax
 11065      00
 11066 68fa 4885C0   		testq	%rax, %rax
 11067 68fd 7512     		jne	.L1702
 11068 68ff E9990100 		jmp	.L1644
 11068      00
 11069              		.p2align 4,,10
 11070 6904 0F1F4000 		.p2align 3
 11071              	.L1647:
 11072 6908 4883C310 		addq	$16, %rbx
 11073 690c 4939DF   		cmpq	%rbx, %r15
 11074 690f 7437     		je	.L1645
 11075              	.L1702:
 11076 6911 488B4308 		movq	8(%rbx), %rax
 11077 6915 488D78E8 		leaq	-24(%rax), %rdi
 11078 6919 4881FF00 		cmpq	$_ZNSs4_Rep20_S_empty_rep_storageE, %rdi
 11078      000000
 11079 6920 74E6     		je	.L1647
 11080 6922 BEFFFFFF 		movl	$-1, %esi
 11080      FF
 11081 6927 F00FC170 		lock xaddl	%esi, -8(%rax)
 11081      F8
 11082 692c 85F6     		testl	%esi, %esi
 11083 692e 7FD8     		jg	.L1647
 11084 6930 488D7424 		leaq	16(%rsp), %rsi
 11084      10
 11085 6935 4883C310 		addq	$16, %rbx
 11086 6939 E8000000 		call	_ZNSs4_Rep10_M_destroyERKSaIcE
 11086      00
 11087 693e 4939DF   		cmpq	%rbx, %r15
 11088 6941 75CE     		jne	.L1702
 11089              		.p2align 4,,10
 11090 6943 0F1F4400 		.p2align 3
 11090      00
 11091              	.L1645:
 11092 6948 4D8B7E18 		movq	24(%r14), %r15
 11093              	.L1638:
 11094 694c 4D85FF   		testq	%r15, %r15
 11095 694f 7408     		je	.L1650
 11096 6951 4C89FF   		movq	%r15, %rdi
 11097 6954 E8000000 		call	_ZdlPv
 11097      00
 11098              	.L1650:
 11099 6959 498B4610 		movq	16(%r14), %rax
 11100 695d 488D78E8 		leaq	-24(%rax), %rdi
 11101 6961 4881FF00 		cmpq	$_ZNSs4_Rep20_S_empty_rep_storageE, %rdi
 11101      000000
 11102 6968 0F85AA01 		jne	.L1718
 11102      0000
 11103              	.L1652:
 11104 696e 498B4608 		movq	8(%r14), %rax
 11105 6972 488D78E8 		leaq	-24(%rax), %rdi
 11106 6976 4881FF00 		cmpq	$_ZNSs4_Rep20_S_empty_rep_storageE, %rdi
 11106      000000
 11107 697d 0F856501 		jne	.L1719
 11107      0000
 11108              	.L1657:
 11109 6983 498B06   		movq	(%r14), %rax
 11110 6986 488D78E8 		leaq	-24(%rax), %rdi
 11111 698a 4881FF00 		cmpq	$_ZNSs4_Rep20_S_empty_rep_storageE, %rdi
 11111      000000
 11112 6991 0F851901 		jne	.L1720
 11112      0000
 11113              	.L1662:
 11114 6997 4983C638 		addq	$56, %r14
 11115 699b 4C39F5   		cmpq	%r14, %rbp
 11116 699e 0F8544FF 		jne	.L1666
 11116      FFFF
 11117 69a4 488BAC24 		movq	408(%rsp), %rbp
 11117      98010000 
 11118              	.L1637:
 11119 69ac 4885ED   		testq	%rbp, %rbp
 11120 69af 7408     		je	.L1667
 11121 69b1 4889EF   		movq	%rbp, %rdi
 11122 69b4 E8000000 		call	_ZdlPv
 11122      00
 11123              	.L1667:
 11124 69b9 488D4424 		leaq	48(%rsp), %rax
 11124      30
 11125 69be 488DB860 		leaq	352(%rax), %rdi
 11125      010000
 11126              	.LEHB317:
 11127 69c5 E8000000 		call	_ZN8UnitTest12TestReporterD2Ev
 11127      00
 11128              	.LEHE317:
 11129 69ca 488B8424 		movq	128(%rsp), %rax
 11129      80000000 
 11130 69d2 48C74424 		movq	$_ZTVSt19basic_ostringstreamIcSt11char_traitsIcESaIcEE+24, 48(%rsp)
 11130      30000000 
 11130      00
 11131 69db 48C78424 		movq	$_ZTVSt19basic_ostringstreamIcSt11char_traitsIcESaIcEE+64, 136(%rsp)
 11131      88000000 
 11131      00000000 
 11132 69e7 48C74424 		movq	$_ZTVSt15basic_stringbufIcSt11char_traitsIcESaIcEE+16, 56(%rsp)
 11132      38000000 
 11132      00
 11133 69f0 488D78E8 		leaq	-24(%rax), %rdi
 11134 69f4 4881FF00 		cmpq	$_ZNSs4_Rep20_S_empty_rep_storageE, %rdi
 11134      000000
 11135 69fb 0F856E01 		jne	.L1721
 11135      0000
 11136              	.L1669:
 11137 6a01 488D7C24 		leaq	112(%rsp), %rdi
 11137      70
 11138 6a06 48C74424 		movq	$_ZTVSt15basic_streambufIcSt11char_traitsIcEE+16, 56(%rsp)
 11138      38000000 
 11138      00
 11139 6a0f E8000000 		call	_ZNSt6localeD1Ev
 11139      00
 11140 6a14 498B4424 		movq	-24(%r12), %rax
 11140      E8
 11141 6a19 488B0D00 		movq	_ZTTSt19basic_ostringstreamIcSt11char_traitsIcESaIcEE+16(%rip), %rcx
 11141      000000
 11142 6a20 4C896424 		movq	%r12, 48(%rsp)
 11142      30
 11143 6a25 48894C04 		movq	%rcx, 48(%rsp,%rax)
 11143      30
 11144 6a2a 488D4424 		leaq	48(%rsp), %rax
 11144      30
 11145 6a2f 48C78424 		movq	$_ZTVSt9basic_iosIcSt11char_traitsIcEE+16, 136(%rsp)
 11145      88000000 
 11145      00000000 
 11146 6a3b 488D7858 		leaq	88(%rax), %rdi
 11147              	.LEHB318:
 11148 6a3f E8000000 		call	_ZNSt8ios_baseD2Ev
 11148      00
 11149              	.LEHE318:
 11150              	.L1630:
 11151 6a44 488B8424 		movq	456(%rsp), %rax
 11151      C8010000 
 11152 6a4c 64483304 		xorq	%fs:40, %rax
 11152      25280000 
 11152      00
 11153 6a55 0F85E901 		jne	.L1722
 11153      0000
 11154 6a5b 4881C4D8 		addq	$472, %rsp
 11154      010000
 11155              		.cfi_remember_state
 11156              		.cfi_def_cfa_offset 56
 11157 6a62 5B       		popq	%rbx
 11158              		.cfi_def_cfa_offset 48
 11159 6a63 5D       		popq	%rbp
 11160              		.cfi_def_cfa_offset 40
 11161 6a64 415C     		popq	%r12
 11162              		.cfi_def_cfa_offset 32
 11163 6a66 415D     		popq	%r13
 11164              		.cfi_def_cfa_offset 24
 11165 6a68 415E     		popq	%r14
 11166              		.cfi_def_cfa_offset 16
 11167 6a6a 415F     		popq	%r15
 11168              		.cfi_def_cfa_offset 8
 11169 6a6c C3       		ret
 11170 6a6d 0F1F00   		.p2align 4,,10
 11171              		.p2align 3
 11172              	.L1723:
 11173              		.cfi_restore_state
 11174 6a70 8B70F8   		movl	-8(%rax), %esi
 11175 6a73 448D46FF 		leal	-1(%rsi), %r8d
 11176 6a77 85F6     		testl	%esi, %esi
 11177 6a79 448940F8 		movl	%r8d, -8(%rax)
 11178 6a7d 7F11     		jg	.L1642
 11179 6a7f 488D7424 		leaq	16(%rsp), %rsi
 11179      10
 11180 6a84 E8000000 		call	_ZNSs4_Rep10_M_destroyERKSaIcE
 11180      00
 11181 6a89 0F1F8000 		.p2align 4,,10
 11181      000000
 11182              		.p2align 3
 11183              	.L1642:
 11184 6a90 4883C310 		addq	$16, %rbx
 11185 6a94 4939DF   		cmpq	%rbx, %r15
 11186 6a97 0F84ABFE 		je	.L1645
 11186      FFFF
 11187              	.L1644:
 11188 6a9d 488B4308 		movq	8(%rbx), %rax
 11189 6aa1 488D78E8 		leaq	-24(%rax), %rdi
 11190 6aa5 4881FF00 		cmpq	$_ZNSs4_Rep20_S_empty_rep_storageE, %rdi
 11190      000000
 11191 6aac 74E2     		je	.L1642
 11192 6aae EBC0     		jmp	.L1723
 11193              		.p2align 4,,10
 11194              		.p2align 3
 11195              	.L1720:
 11196 6ab0 BA000000 		movl	$_ZL28__gthrw___pthread_key_createPjPFvPvE, %edx
 11196      00
 11197 6ab5 4885D2   		testq	%rdx, %rdx
 11198 6ab8 0F848700 		je	.L1663
 11198      0000
 11199 6abe BAFFFFFF 		movl	$-1, %edx
 11199      FF
 11200 6ac3 F00FC150 		lock xaddl	%edx, -8(%rax)
 11200      F8
 11201 6ac8 89D0     		movl	%edx, %eax
 11202              	.L1664:
 11203 6aca 85C0     		testl	%eax, %eax
 11204 6acc 0F8FC5FE 		jg	.L1662
 11204      FFFF
 11205 6ad2 488D7424 		leaq	16(%rsp), %rsi
 11205      10
 11206 6ad7 E8000000 		call	_ZNSs4_Rep10_M_destroyERKSaIcE
 11206      00
 11207 6adc E9B6FEFF 		jmp	.L1662
 11207      FF
 11208              		.p2align 4,,10
 11209 6ae1 0F1F8000 		.p2align 3
 11209      000000
 11210              	.L1719:
 11211 6ae8 BA000000 		movl	$_ZL28__gthrw___pthread_key_createPjPFvPvE, %edx
 11211      00
 11212 6aed 4885D2   		testq	%rdx, %rdx
 11213 6af0 7470     		je	.L1658
 11214 6af2 BAFFFFFF 		movl	$-1, %edx
 11214      FF
 11215 6af7 F00FC150 		lock xaddl	%edx, -8(%rax)
 11215      F8
 11216 6afc 89D0     		movl	%edx, %eax
 11217              	.L1659:
 11218 6afe 85C0     		testl	%eax, %eax
 11219 6b00 0F8F7DFE 		jg	.L1657
 11219      FFFF
 11220 6b06 488D7424 		leaq	16(%rsp), %rsi
 11220      10
 11221 6b0b E8000000 		call	_ZNSs4_Rep10_M_destroyERKSaIcE
 11221      00
 11222 6b10 E96EFEFF 		jmp	.L1657
 11222      FF
 11223              		.p2align 4,,10
 11224 6b15 0F1F00   		.p2align 3
 11225              	.L1718:
 11226 6b18 BA000000 		movl	$_ZL28__gthrw___pthread_key_createPjPFvPvE, %edx
 11226      00
 11227 6b1d 4885D2   		testq	%rdx, %rdx
 11228 6b20 7433     		je	.L1653
 11229 6b22 BAFFFFFF 		movl	$-1, %edx
 11229      FF
 11230 6b27 F00FC150 		lock xaddl	%edx, -8(%rax)
 11230      F8
 11231 6b2c 89D0     		movl	%edx, %eax
 11232              	.L1654:
 11233 6b2e 85C0     		testl	%eax, %eax
 11234 6b30 0F8F38FE 		jg	.L1652
 11234      FFFF
 11235 6b36 488D7424 		leaq	16(%rsp), %rsi
 11235      10
 11236 6b3b E8000000 		call	_ZNSs4_Rep10_M_destroyERKSaIcE
 11236      00
 11237 6b40 E929FEFF 		jmp	.L1652
 11237      FF
 11238              	.L1663:
 11239 6b45 8B50F8   		movl	-8(%rax), %edx
 11240 6b48 8D72FF   		leal	-1(%rdx), %esi
 11241 6b4b 8970F8   		movl	%esi, -8(%rax)
 11242 6b4e 89D0     		movl	%edx, %eax
 11243 6b50 E975FFFF 		jmp	.L1664
 11243      FF
 11244              	.L1653:
 11245 6b55 8B50F8   		movl	-8(%rax), %edx
 11246 6b58 8D72FF   		leal	-1(%rdx), %esi
 11247 6b5b 8970F8   		movl	%esi, -8(%rax)
 11248 6b5e 89D0     		movl	%edx, %eax
 11249 6b60 EBCC     		jmp	.L1654
 11250              	.L1658:
 11251 6b62 8B50F8   		movl	-8(%rax), %edx
 11252 6b65 8D72FF   		leal	-1(%rdx), %esi
 11253 6b68 8970F8   		movl	%esi, -8(%rax)
 11254 6b6b 89D0     		movl	%edx, %eax
 11255 6b6d EB8F     		jmp	.L1659
 11256              	.L1721:
 11257 6b6f BA000000 		movl	$_ZL28__gthrw___pthread_key_createPjPFvPvE, %edx
 11257      00
 11258 6b74 4885D2   		testq	%rdx, %rdx
 11259 6b77 7423     		je	.L1670
 11260 6b79 BAFFFFFF 		movl	$-1, %edx
 11260      FF
 11261 6b7e F00FC150 		lock xaddl	%edx, -8(%rax)
 11261      F8
 11262 6b83 89D0     		movl	%edx, %eax
 11263              	.L1671:
 11264 6b85 85C0     		testl	%eax, %eax
 11265 6b87 0F8F74FE 		jg	.L1669
 11265      FFFF
 11266 6b8d 488D7424 		leaq	16(%rsp), %rsi
 11266      10
 11267 6b92 E8000000 		call	_ZNSs4_Rep10_M_destroyERKSaIcE
 11267      00
 11268 6b97 E965FEFF 		jmp	.L1669
 11268      FF
 11269              	.L1670:
 11270 6b9c 8B50F8   		movl	-8(%rax), %edx
 11271 6b9f 8D4AFF   		leal	-1(%rdx), %ecx
 11272 6ba2 8948F8   		movl	%ecx, -8(%rax)
 11273 6ba5 89D0     		movl	%edx, %eax
 11274 6ba7 EBDC     		jmp	.L1671
 11275              	.L1697:
 11276 6ba9 488D7C24 		leaq	48(%rsp), %rdi
 11276      30
 11277 6bae 4889C3   		movq	%rax, %rbx
 11278 6bb1 4889D5   		movq	%rdx, %rbp
 11279 6bb4 E8000000 		call	_ZNSt19basic_ostringstreamIcSt11char_traitsIcESaIcEED1Ev
 11279      00
 11280 6bb9 4889DF   		movq	%rbx, %rdi
 11281 6bbc 4889EA   		movq	%rbp, %rdx
 11282 6bbf BB010000 		movl	$1, %ebx
 11282      00
 11283              	.L1634:
 11284 6bc4 4883FA01 		cmpq	$1, %rdx
 11285 6bc8 0F84E800 		je	.L1679
 11285      0000
 11286 6bce 4883FA02 		cmpq	$2, %rdx
 11287 6bd2 0F859D00 		jne	.L1724
 11287      0000
 11288 6bd8 E8000000 		call	__cxa_begin_catch
 11288      00
 11289 6bdd 488D7C24 		leaq	48(%rsp), %rdi
 11289      30
 11290 6be2 4889C3   		movq	%rax, %rbx
 11291              	.LEHB319:
 11292 6be5 E8000000 		call	_ZN8UnitTest15MemoryOutStreamC1Ev
 11292      00
 11293              	.LEHE319:
 11294 6bea 488B03   		movq	(%rbx), %rax
 11295 6bed 4889DF   		movq	%rbx, %rdi
 11296 6bf0 FF5010   		call	*16(%rax)
 11297 6bf3 488D7C24 		leaq	48(%rsp), %rdi
 11297      30
 11298 6bf8 BE000000 		movl	$.LC32, %esi
 11298      00
 11299 6bfd 4889C3   		movq	%rax, %rbx
 11300              	.LEHB320:
 11301 6c00 E8000000 		call	_ZStlsISt11char_traitsIcEERSt13basic_ostreamIcT_ES5_PKc
 11301      00
 11302 6c05 4889C7   		movq	%rax, %rdi
 11303 6c08 4889DE   		movq	%rbx, %rsi
 11304 6c0b E8000000 		call	_ZStlsISt11char_traitsIcEERSt13basic_ostreamIcT_ES5_PKc
 11304      00
 11305 6c10 488D7C24 		leaq	48(%rsp), %rdi
 11305      30
 11306 6c15 E8000000 		call	_ZNK8UnitTest15MemoryOutStream7GetTextEv
 11306      00
 11307 6c1a 4889C3   		movq	%rax, %rbx
 11308 6c1d E8000000 		call	_ZN8UnitTest11CurrentTest7ResultsEv
 11308      00
 11309 6c22 488B38   		movq	(%rax), %rdi
 11310 6c25 4889DA   		movq	%rbx, %rdx
 11311 6c28 4C89EE   		movq	%r13, %rsi
 11312 6c2b E8000000 		call	_ZN8UnitTest11TestResults13OnTestFailureERKNS_11TestDetailsEPKc
 11312      00
 11313              	.LEHE320:
 11314 6c30 488D7C24 		leaq	48(%rsp), %rdi
 11314      30
 11315              	.LEHB321:
 11316 6c35 E8000000 		call	_ZN8UnitTest15MemoryOutStreamD1Ev
 11316      00
 11317              	.LEHE321:
 11318              	.L1712:
 11319 6c3a E8000000 		call	__cxa_end_catch
 11319      00
 11320 6c3f E900FEFF 		jmp	.L1630
 11320      FF
 11321              	.L1722:
 11322 6c44 E8000000 		call	__stack_chk_fail
 11322      00
 11323              	.L1688:
 11324 6c49 4889C7   		movq	%rax, %rdi
 11325 6c4c BB010000 		movl	$1, %ebx
 11325      00
 11326 6c51 E96EFFFF 		jmp	.L1634
 11326      FF
 11327              	.L1692:
 11328 6c56 488D7C24 		leaq	48(%rsp), %rdi
 11328      30
 11329 6c5b 4889C3   		movq	%rax, %rbx
 11330 6c5e E8000000 		call	_ZN8UnitTest15MemoryOutStreamD1Ev
 11330      00
 11331              	.L1683:
 11332 6c63 E8000000 		call	__cxa_end_catch
 11332      00
 11333 6c68 4889DF   		movq	%rbx, %rdi
 11334              	.LEHB322:
 11335 6c6b E8000000 		call	_Unwind_Resume
 11335      00
 11336              	.LEHE322:
 11337              	.L1691:
 11338              	.L1713:
 11339 6c70 4889C3   		movq	%rax, %rbx
 11340 6c73 EBEE     		jmp	.L1683
 11341              	.L1724:
 11342 6c75 E8000000 		call	__cxa_begin_catch
 11342      00
 11343 6c7a 84DB     		testb	%bl, %bl
 11344 6c7c 488D5C24 		leaq	16(%rsp), %rbx
 11344      10
 11345 6c81 BA220000 		movl	$34, %edx
 11345      00
 11346 6c86 4C89EE   		movq	%r13, %rsi
 11347 6c89 4889DF   		movq	%rbx, %rdi
 11348 6c8c 0F849300 		je	.L1685
 11348      0000
 11349              	.LEHB323:
 11350 6c92 E8000000 		call	_ZN8UnitTest11TestDetailsC1ERKS0_i
 11350      00
 11351 6c97 E8000000 		call	_ZN8UnitTest11CurrentTest7ResultsEv
 11351      00
 11352 6c9c 488B38   		movq	(%rax), %rdi
 11353 6c9f BA000000 		movl	$.LC36, %edx
 11353      00
 11354 6ca4 4889DE   		movq	%rbx, %rsi
 11355 6ca7 E8000000 		call	_ZN8UnitTest11TestResults13OnTestFailureERKNS_11TestDetailsEPKc
 11355      00
 11356              	.LEHE323:
 11357              	.L1686:
 11358              	.LEHB324:
 11359 6cac E8000000 		call	__cxa_end_catch
 11359      00
 11360              	.LEHE324:
 11361 6cb1 E98EFDFF 		jmp	.L1630
 11361      FF
 11362              	.L1679:
 11363 6cb6 E8000000 		call	__cxa_begin_catch
 11363      00
 11364 6cbb 4889C3   		movq	%rax, %rbx
 11365 6cbe 488B00   		movq	(%rax), %rax
 11366 6cc1 4889DF   		movq	%rbx, %rdi
 11367 6cc4 FF5010   		call	*16(%rax)
 11368 6cc7 4889DF   		movq	%rbx, %rdi
 11369 6cca 4889C5   		movq	%rax, %rbp
 11370              	.LEHB325:
 11371 6ccd E8000000 		call	_ZNK8UnitTest15AssertException10LineNumberEv
 11371      00
 11372 6cd2 4889DF   		movq	%rbx, %rdi
 11373 6cd5 4189C4   		movl	%eax, %r12d
 11374 6cd8 E8000000 		call	_ZNK8UnitTest15AssertException8FilenameEv
 11374      00
 11375 6cdd 488B4C24 		movq	8(%rsp), %rcx
 11375      08
 11376 6ce2 488D5C24 		leaq	16(%rsp), %rbx
 11376      10
 11377 6ce7 4589E0   		movl	%r12d, %r8d
 11378 6cea 4889DF   		movq	%rbx, %rdi
 11379 6ced 488B5108 		movq	8(%rcx), %rdx
 11380 6cf1 488B7110 		movq	16(%rcx), %rsi
 11381 6cf5 4889C1   		movq	%rax, %rcx
 11382 6cf8 E8000000 		call	_ZN8UnitTest11TestDetailsC1EPKcS2_S2_i
 11382      00
 11383 6cfd E8000000 		call	_ZN8UnitTest11CurrentTest7ResultsEv
 11383      00
 11384 6d02 488B38   		movq	(%rax), %rdi
 11385 6d05 4889EA   		movq	%rbp, %rdx
 11386 6d08 4889DE   		movq	%rbx, %rsi
 11387 6d0b E8000000 		call	_ZN8UnitTest11TestResults13OnTestFailureERKNS_11TestDetailsEPKc
 11387      00
 11388              	.LEHE325:
 11389 6d10 E925FFFF 		jmp	.L1712
 11389      FF
 11390              	.L1693:
 11391 6d15 4889C3   		movq	%rax, %rbx
 11392 6d18 E8000000 		call	__cxa_end_catch
 11392      00
 11393 6d1d 4889DF   		movq	%rbx, %rdi
 11394              	.LEHB326:
 11395 6d20 E8000000 		call	_Unwind_Resume
 11395      00
 11396              	.LEHE326:
 11397              	.L1685:
 11398              	.LEHB327:
 11399 6d25 E8000000 		call	_ZN8UnitTest11TestDetailsC1ERKS0_i
 11399      00
 11400 6d2a E8000000 		call	_ZN8UnitTest11CurrentTest7ResultsEv
 11400      00
 11401 6d2f 488B38   		movq	(%rax), %rdi
 11402 6d32 BA000000 		movl	$.LC37, %edx
 11402      00
 11403 6d37 4889DE   		movq	%rbx, %rsi
 11404 6d3a E8000000 		call	_ZN8UnitTest11TestResults13OnTestFailureERKNS_11TestDetailsEPKc
 11404      00
 11405              	.LEHE327:
 11406 6d3f E968FFFF 		jmp	.L1686
 11406      FF
 11407              	.L1690:
 11408 6d44 E927FFFF 		jmp	.L1713
 11408      FF
 11409              	.L1689:
 11410 6d49 488D7C24 		leaq	48(%rsp), %rdi
 11410      30
 11411 6d4e 4889C3   		movq	%rax, %rbx
 11412 6d51 4889D5   		movq	%rdx, %rbp
 11413 6d54 E8000000 		call	_ZN12_GLOBAL__N_122XmlTestReporterFixtureD2Ev
 11413      00
 11414 6d59 4889DF   		movq	%rbx, %rdi
 11415 6d5c 4889EA   		movq	%rbp, %rdx
 11416 6d5f BB010000 		movl	$1, %ebx
 11416      00
 11417 6d64 E95BFEFF 		jmp	.L1634
 11417      FF
 11418              	.L1694:
 11419 6d69 488D7C24 		leaq	48(%rsp), %rdi
 11419      30
 11420 6d6e 4889C3   		movq	%rax, %rbx
 11421 6d71 4889D5   		movq	%rdx, %rbp
 11422 6d74 E8000000 		call	_ZNSt19basic_ostringstreamIcSt11char_traitsIcESaIcEED1Ev
 11422      00
 11423 6d79 4889DF   		movq	%rbx, %rdi
 11424 6d7c 4889EA   		movq	%rbp, %rdx
 11425 6d7f 31DB     		xorl	%ebx, %ebx
 11426 6d81 E93EFEFF 		jmp	.L1634
 11426      FF
 11427              	.L1696:
 11428 6d86 488D7C24 		leaq	56(%rsp), %rdi
 11428      38
 11429 6d8b 4889C3   		movq	%rax, %rbx
 11430 6d8e 4889D5   		movq	%rdx, %rbp
 11431 6d91 E8000000 		call	_ZNSt15basic_stringbufIcSt11char_traitsIcESaIcEED1Ev
 11431      00
 11432 6d96 498B4424 		movq	-24(%r12), %rax
 11432      E8
 11433 6d9b 488B0D00 		movq	_ZTTSt19basic_ostringstreamIcSt11char_traitsIcESaIcEE+16(%rip), %rcx
 11433      000000
 11434 6da2 4C896424 		movq	%r12, 48(%rsp)
 11434      30
 11435 6da7 48894C04 		movq	%rcx, 48(%rsp,%rax)
 11435      30
 11436              	.L1633:
 11437 6dac 488DBC24 		leaq	136(%rsp), %rdi
 11437      88000000 
 11438 6db4 48C78424 		movq	$_ZTVSt9basic_iosIcSt11char_traitsIcEE+16, 136(%rsp)
 11438      88000000 
 11438      00000000 
 11439 6dc0 E8000000 		call	_ZNSt8ios_baseD2Ev
 11439      00
 11440 6dc5 4889DF   		movq	%rbx, %rdi
 11441 6dc8 4889EA   		movq	%rbp, %rdx
 11442 6dcb 31DB     		xorl	%ebx, %ebx
 11443 6dcd E9F2FDFF 		jmp	.L1634
 11443      FF
 11444              	.L1695:
 11445 6dd2 4889C3   		movq	%rax, %rbx
 11446 6dd5 4889D5   		movq	%rdx, %rbp
 11447 6dd8 EBD2     		jmp	.L1633
 11448              		.cfi_endproc
 11449              	.LFE1375:
 11450              		.section	.gcc_except_table
 11451              		.align 4
 11452              	.LLSDA1375:
 11453 08a4 FF       		.byte	0xff
 11454 08a5 03       		.byte	0x3
 11455 08a6 6D       		.uleb128 .LLSDATT1375-.LLSDATTD1375
 11456              	.LLSDATTD1375:
 11457 08a7 01       		.byte	0x1
 11458 08a8 57       		.uleb128 .LLSDACSE1375-.LLSDACSB1375
 11459              	.LLSDACSB1375:
 11460 08a9 B401     		.uleb128 .LEHB313-.LFB1375
 11461 08ab 05       		.uleb128 .LEHE313-.LEHB313
 11462 08ac 820D     		.uleb128 .L1695-.LFB1375
 11463 08ae 07       		.uleb128 0x7
 11464 08af C202     		.uleb128 .LEHB314-.LFB1375
 11465 08b1 05       		.uleb128 .LEHE314-.LEHB314
 11466 08b2 B60C     		.uleb128 .L1696-.LFB1375
 11467 08b4 07       		.uleb128 0x7
 11468 08b5 D602     		.uleb128 .LEHB315-.LFB1375
 11469 08b7 05       		.uleb128 .LEHE315-.LEHB315
 11470 08b8 990C     		.uleb128 .L1694-.LFB1375
 11471 08ba 07       		.uleb128 0x7
 11472 08bb EB02     		.uleb128 .LEHB316-.LFB1375
 11473 08bd 05       		.uleb128 .LEHE316-.LEHB316
 11474 08be F90B     		.uleb128 .L1689-.LFB1375
 11475 08c0 07       		.uleb128 0x7
 11476 08c1 F504     		.uleb128 .LEHB317-.LFB1375
 11477 08c3 05       		.uleb128 .LEHE317-.LEHB317
 11478 08c4 D908     		.uleb128 .L1697-.LFB1375
 11479 08c6 07       		.uleb128 0x7
 11480 08c7 EF05     		.uleb128 .LEHB318-.LFB1375
 11481 08c9 05       		.uleb128 .LEHE318-.LEHB318
 11482 08ca F909     		.uleb128 .L1688-.LFB1375
 11483 08cc 05       		.uleb128 0x5
 11484 08cd 9509     		.uleb128 .LEHB319-.LFB1375
 11485 08cf 05       		.uleb128 .LEHE319-.LEHB319
 11486 08d0 A00A     		.uleb128 .L1691-.LFB1375
 11487 08d2 00       		.uleb128 0
 11488 08d3 B009     		.uleb128 .LEHB320-.LFB1375
 11489 08d5 30       		.uleb128 .LEHE320-.LEHB320
 11490 08d6 860A     		.uleb128 .L1692-.LFB1375
 11491 08d8 00       		.uleb128 0
 11492 08d9 E509     		.uleb128 .LEHB321-.LFB1375
 11493 08db 05       		.uleb128 .LEHE321-.LEHB321
 11494 08dc A00A     		.uleb128 .L1691-.LFB1375
 11495 08de 00       		.uleb128 0
 11496 08df 9B0A     		.uleb128 .LEHB322-.LFB1375
 11497 08e1 05       		.uleb128 .LEHE322-.LEHB322
 11498 08e2 00       		.uleb128 0
 11499 08e3 00       		.uleb128 0
 11500 08e4 C20A     		.uleb128 .LEHB323-.LFB1375
 11501 08e6 1A       		.uleb128 .LEHE323-.LEHB323
 11502 08e7 C50B     		.uleb128 .L1693-.LFB1375
 11503 08e9 00       		.uleb128 0
 11504 08ea DC0A     		.uleb128 .LEHB324-.LFB1375
 11505 08ec 05       		.uleb128 .LEHE324-.LEHB324
 11506 08ed 00       		.uleb128 0
 11507 08ee 00       		.uleb128 0
 11508 08ef FD0A     		.uleb128 .LEHB325-.LFB1375
 11509 08f1 43       		.uleb128 .LEHE325-.LEHB325
 11510 08f2 F40B     		.uleb128 .L1690-.LFB1375
 11511 08f4 00       		.uleb128 0
 11512 08f5 D00B     		.uleb128 .LEHB326-.LFB1375
 11513 08f7 05       		.uleb128 .LEHE326-.LEHB326
 11514 08f8 00       		.uleb128 0
 11515 08f9 00       		.uleb128 0
 11516 08fa D50B     		.uleb128 .LEHB327-.LFB1375
 11517 08fc 1A       		.uleb128 .LEHE327-.LEHB327
 11518 08fd C50B     		.uleb128 .L1693-.LFB1375
 11519 08ff 00       		.uleb128 0
 11520              	.LLSDACSE1375:
 11521 0900 03       		.byte	0x3
 11522 0901 00       		.byte	0
 11523 0902 02       		.byte	0x2
 11524 0903 7D       		.byte	0x7d
 11525 0904 01       		.byte	0x1
 11526 0905 7D       		.byte	0x7d
 11527 0906 00       		.byte	0
 11528 0907 7D       		.byte	0x7d
 11529              		.align 4
 11530 0908 00000000 		.long	0
 11531              	
 11532 090c 00000000 		.long	_ZTISt9exception
 11533 0910 00000000 		.long	_ZTIN8UnitTest15AssertExceptionE
 11534              	.LLSDATT1375:
 11535              		.text
 11537              		.section	.text.unlikely
 11538              	.LCOLDE80:
 11539              		.text
 11540              	.LHOTE80:
 11541              		.section	.rodata.str1.1
 11542              	.LC81:
 11543 0133 54657374 		.string	"TestXmlTestReporter.cpp"
 11543      586D6C54 
 11543      65737452 
 11543      65706F72 
 11543      7465722E 
 11544              	.LC82:
 11545 014b 4D756C74 		.string	"MultipleCharactersAreEscaped"
 11545      69706C65 
 11545      43686172 
 11545      61637465 
 11545      72734172 
 11546              		.section	.rodata.str1.8
 11547 0765 000000   		.align 8
 11548              	.LC83:
 11549 0768 4F757470 		.string	"OutputIsCachedUntilReportSummaryIsCalled"
 11549      75744973 
 11549      43616368 
 11549      6564556E 
 11549      74696C52 
 11550              		.section	.rodata.str1.1
 11551              	.LC84:
 11552 0168 456D7074 		.string	"EmptyReportSummaryFormat"
 11552      79526570 
 11552      6F727453 
 11552      756D6D61 
 11552      7279466F 
 11553              		.section	.rodata.str1.8
 11554 0791 00000000 		.align 8
 11554      000000
 11555              	.LC85:
 11556 0798 53696E67 		.string	"SingleSuccessfulTestReportSummaryFormat"
 11556      6C655375 
 11556      63636573 
 11556      7366756C 
 11556      54657374 
 11557              		.align 8
 11558              	.LC86:
 11559 07c0 53696E67 		.string	"SingleFailedTestReportSummaryFormat"
 11559      6C654661 
 11559      696C6564 
 11559      54657374 
 11559      5265706F 
 11560              		.section	.rodata.str1.1
 11561              	.LC87:
 11562 0181 4661696C 		.string	"FailureMessageIsXMLEscaped"
 11562      7572654D 
 11562      65737361 
 11562      67654973 
 11562      584D4C45 
 11563              	.LC88:
 11564 019c 4F6E6546 		.string	"OneFailureAndOneSuccess"
 11564      61696C75 
 11564      7265416E 
 11564      644F6E65 
 11564      53756363 
 11565              	.LC89:
 11566 01b4 4D756C74 		.string	"MultipleFailures"
 11566      69706C65 
 11566      4661696C 
 11566      75726573 
 11566      00
 11567              		.section	.text.unlikely
 11568              	.LCOLDB90:
 11569              		.section	.text.startup,"ax",@progbits
 11570              	.LHOTB90:
 11571              		.p2align 4,,15
 11573              	_GLOBAL__sub_I_TestXmlTestReporter.cpp:
 11574              	.LFB1671:
 11575              		.cfi_startproc
 11576 0000 4883EC08 		subq	$8, %rsp
 11577              		.cfi_def_cfa_offset 16
 11578 0004 41B82200 		movl	$34, %r8d
 11578      0000
 11579 000a B9000000 		movl	$.LC81, %ecx
 11579      00
 11580 000f BA000000 		movl	$.LC70, %edx
 11580      00
 11581 0014 BE000000 		movl	$.LC82, %esi
 11581      00
 11582 0019 BF000000 		movl	$_ZN12_GLOBAL__N_162testXmlTestReporterFixtureMultipleCharactersAreEscapedInstanceE, %edi
 11582      00
 11583 001e E8000000 		call	_ZN8UnitTest4TestC2EPKcS2_S2_i
 11583      00
 11584 0023 BA000000 		movl	$__dso_handle, %edx
 11584      00
 11585 0028 BE000000 		movl	$_ZN12_GLOBAL__N_162testXmlTestReporterFixtureMultipleCharactersAreEscapedInstanceE, %esi
 11585      00
 11586 002d BF000000 		movl	$_ZN12_GLOBAL__N_154TestXmlTestReporterFixtureMultipleCharactersAreEscapedD1Ev, %edi
 11586      00
 11587 0032 48C70500 		movq	$_ZTVN12_GLOBAL__N_154TestXmlTestReporterFixtureMultipleCharactersAreEscapedE+16, _ZN12_GLOBA
 11587      00000000 
 11587      000000
 11588 003d E8000000 		call	__cxa_atexit
 11588      00
 11589 0042 E8000000 		call	_ZN8UnitTest4Test11GetTestListEv
 11589      00
 11590 0047 BA000000 		movl	$_ZN12_GLOBAL__N_162testXmlTestReporterFixtureMultipleCharactersAreEscapedInstanceE, %edx
 11590      00
 11591 004c 4889C6   		movq	%rax, %rsi
 11592 004f BF000000 		movl	$_ZN12_GLOBAL__N_155adderXmlTestReporterFixtureMultipleCharactersAreEscapedE, %edi
 11592      00
 11593 0054 E8000000 		call	_ZN8UnitTest9ListAdderC1ERNS_8TestListEPNS_4TestE
 11593      00
 11594 0059 41B83700 		movl	$55, %r8d
 11594      0000
 11595 005f B9000000 		movl	$.LC81, %ecx
 11595      00
 11596 0064 BA000000 		movl	$.LC70, %edx
 11596      00
 11597 0069 BE000000 		movl	$.LC83, %esi
 11597      00
 11598 006e BF000000 		movl	$_ZN12_GLOBAL__N_174testXmlTestReporterFixtureOutputIsCachedUntilReportSummaryIsCalledInstanc
 11598      00
 11599 0073 E8000000 		call	_ZN8UnitTest4TestC2EPKcS2_S2_i
 11599      00
 11600 0078 BA000000 		movl	$__dso_handle, %edx
 11600      00
 11601 007d BE000000 		movl	$_ZN12_GLOBAL__N_174testXmlTestReporterFixtureOutputIsCachedUntilReportSummaryIsCalledInstanc
 11601      00
 11602 0082 BF000000 		movl	$_ZN12_GLOBAL__N_166TestXmlTestReporterFixtureOutputIsCachedUntilReportSummaryIsCalledD1Ev, %
 11602      00
 11603 0087 48C70500 		movq	$_ZTVN12_GLOBAL__N_166TestXmlTestReporterFixtureOutputIsCachedUntilReportSummaryIsCalledE+16,
 11603      00000000 
 11603      000000
 11604 0092 E8000000 		call	__cxa_atexit
 11604      00
 11605 0097 E8000000 		call	_ZN8UnitTest4Test11GetTestListEv
 11605      00
 11606 009c BA000000 		movl	$_ZN12_GLOBAL__N_174testXmlTestReporterFixtureOutputIsCachedUntilReportSummaryIsCalledInstanc
 11606      00
 11607 00a1 4889C6   		movq	%rax, %rsi
 11608 00a4 BF000000 		movl	$_ZN12_GLOBAL__N_167adderXmlTestReporterFixtureOutputIsCachedUntilReportSummaryIsCalledE, %ed
 11608      00
 11609 00a9 E8000000 		call	_ZN8UnitTest9ListAdderC1ERNS_8TestListEPNS_4TestE
 11609      00
 11610 00ae 41B84400 		movl	$68, %r8d
 11610      0000
 11611 00b4 B9000000 		movl	$.LC81, %ecx
 11611      00
 11612 00b9 BA000000 		movl	$.LC70, %edx
 11612      00
 11613 00be BE000000 		movl	$.LC84, %esi
 11613      00
 11614 00c3 BF000000 		movl	$_ZN12_GLOBAL__N_158testXmlTestReporterFixtureEmptyReportSummaryFormatInstanceE, %edi
 11614      00
 11615 00c8 E8000000 		call	_ZN8UnitTest4TestC2EPKcS2_S2_i
 11615      00
 11616 00cd BA000000 		movl	$__dso_handle, %edx
 11616      00
 11617 00d2 BE000000 		movl	$_ZN12_GLOBAL__N_158testXmlTestReporterFixtureEmptyReportSummaryFormatInstanceE, %esi
 11617      00
 11618 00d7 BF000000 		movl	$_ZN12_GLOBAL__N_150TestXmlTestReporterFixtureEmptyReportSummaryFormatD1Ev, %edi
 11618      00
 11619 00dc 48C70500 		movq	$_ZTVN12_GLOBAL__N_150TestXmlTestReporterFixtureEmptyReportSummaryFormatE+16, _ZN12_GLOBAL__N
 11619      00000000 
 11619      000000
 11620 00e7 E8000000 		call	__cxa_atexit
 11620      00
 11621 00ec E8000000 		call	_ZN8UnitTest4Test11GetTestListEv
 11621      00
 11622 00f1 BA000000 		movl	$_ZN12_GLOBAL__N_158testXmlTestReporterFixtureEmptyReportSummaryFormatInstanceE, %edx
 11622      00
 11623 00f6 4889C6   		movq	%rax, %rsi
 11624 00f9 BF000000 		movl	$_ZN12_GLOBAL__N_151adderXmlTestReporterFixtureEmptyReportSummaryFormatE, %edi
 11624      00
 11625 00fe E8000000 		call	_ZN8UnitTest9ListAdderC1ERNS_8TestListEPNS_4TestE
 11625      00
 11626 0103 41B85000 		movl	$80, %r8d
 11626      0000
 11627 0109 B9000000 		movl	$.LC81, %ecx
 11627      00
 11628 010e BA000000 		movl	$.LC70, %edx
 11628      00
 11629 0113 BE000000 		movl	$.LC85, %esi
 11629      00
 11630 0118 BF000000 		movl	$_ZN12_GLOBAL__N_173testXmlTestReporterFixtureSingleSuccessfulTestReportSummaryFormatInstance
 11630      00
 11631 011d E8000000 		call	_ZN8UnitTest4TestC2EPKcS2_S2_i
 11631      00
 11632 0122 BA000000 		movl	$__dso_handle, %edx
 11632      00
 11633 0127 BE000000 		movl	$_ZN12_GLOBAL__N_173testXmlTestReporterFixtureSingleSuccessfulTestReportSummaryFormatInstance
 11633      00
 11634 012c BF000000 		movl	$_ZN12_GLOBAL__N_165TestXmlTestReporterFixtureSingleSuccessfulTestReportSummaryFormatD1Ev, %e
 11634      00
 11635 0131 48C70500 		movq	$_ZTVN12_GLOBAL__N_165TestXmlTestReporterFixtureSingleSuccessfulTestReportSummaryFormatE+16, 
 11635      00000000 
 11635      000000
 11636 013c E8000000 		call	__cxa_atexit
 11636      00
 11637 0141 E8000000 		call	_ZN8UnitTest4Test11GetTestListEv
 11637      00
 11638 0146 BA000000 		movl	$_ZN12_GLOBAL__N_173testXmlTestReporterFixtureSingleSuccessfulTestReportSummaryFormatInstance
 11638      00
 11639 014b 4889C6   		movq	%rax, %rsi
 11640 014e BF000000 		movl	$_ZN12_GLOBAL__N_166adderXmlTestReporterFixtureSingleSuccessfulTestReportSummaryFormatE, %edi
 11640      00
 11641 0153 E8000000 		call	_ZN8UnitTest9ListAdderC1ERNS_8TestListEPNS_4TestE
 11641      00
 11642 0158 41B86000 		movl	$96, %r8d
 11642      0000
 11643 015e B9000000 		movl	$.LC81, %ecx
 11643      00
 11644 0163 BA000000 		movl	$.LC70, %edx
 11644      00
 11645 0168 BE000000 		movl	$.LC86, %esi
 11645      00
 11646 016d BF000000 		movl	$_ZN12_GLOBAL__N_169testXmlTestReporterFixtureSingleFailedTestReportSummaryFormatInstanceE, %
 11646      00
 11647 0172 E8000000 		call	_ZN8UnitTest4TestC2EPKcS2_S2_i
 11647      00
 11648 0177 BA000000 		movl	$__dso_handle, %edx
 11648      00
 11649 017c BE000000 		movl	$_ZN12_GLOBAL__N_169testXmlTestReporterFixtureSingleFailedTestReportSummaryFormatInstanceE, %
 11649      00
 11650 0181 BF000000 		movl	$_ZN12_GLOBAL__N_161TestXmlTestReporterFixtureSingleFailedTestReportSummaryFormatD1Ev, %edi
 11650      00
 11651 0186 48C70500 		movq	$_ZTVN12_GLOBAL__N_161TestXmlTestReporterFixtureSingleFailedTestReportSummaryFormatE+16, _ZN1
 11651      00000000 
 11651      000000
 11652 0191 E8000000 		call	__cxa_atexit
 11652      00
 11653 0196 E8000000 		call	_ZN8UnitTest4Test11GetTestListEv
 11653      00
 11654 019b BA000000 		movl	$_ZN12_GLOBAL__N_169testXmlTestReporterFixtureSingleFailedTestReportSummaryFormatInstanceE, %
 11654      00
 11655 01a0 4889C6   		movq	%rax, %rsi
 11656 01a3 BF000000 		movl	$_ZN12_GLOBAL__N_162adderXmlTestReporterFixtureSingleFailedTestReportSummaryFormatE, %edi
 11656      00
 11657 01a8 E8000000 		call	_ZN8UnitTest9ListAdderC1ERNS_8TestListEPNS_4TestE
 11657      00
 11658 01ad 41B87300 		movl	$115, %r8d
 11658      0000
 11659 01b3 B9000000 		movl	$.LC81, %ecx
 11659      00
 11660 01b8 BA000000 		movl	$.LC70, %edx
 11660      00
 11661 01bd BE000000 		movl	$.LC87, %esi
 11661      00
 11662 01c2 BF000000 		movl	$_ZN12_GLOBAL__N_160testXmlTestReporterFixtureFailureMessageIsXMLEscapedInstanceE, %edi
 11662      00
 11663 01c7 E8000000 		call	_ZN8UnitTest4TestC2EPKcS2_S2_i
 11663      00
 11664 01cc BA000000 		movl	$__dso_handle, %edx
 11664      00
 11665 01d1 BE000000 		movl	$_ZN12_GLOBAL__N_160testXmlTestReporterFixtureFailureMessageIsXMLEscapedInstanceE, %esi
 11665      00
 11666 01d6 BF000000 		movl	$_ZN12_GLOBAL__N_152TestXmlTestReporterFixtureFailureMessageIsXMLEscapedD1Ev, %edi
 11666      00
 11667 01db 48C70500 		movq	$_ZTVN12_GLOBAL__N_152TestXmlTestReporterFixtureFailureMessageIsXMLEscapedE+16, _ZN12_GLOBAL_
 11667      00000000 
 11667      000000
 11668 01e6 E8000000 		call	__cxa_atexit
 11668      00
 11669 01eb E8000000 		call	_ZN8UnitTest4Test11GetTestListEv
 11669      00
 11670 01f0 BA000000 		movl	$_ZN12_GLOBAL__N_160testXmlTestReporterFixtureFailureMessageIsXMLEscapedInstanceE, %edx
 11670      00
 11671 01f5 4889C6   		movq	%rax, %rsi
 11672 01f8 BF000000 		movl	$_ZN12_GLOBAL__N_153adderXmlTestReporterFixtureFailureMessageIsXMLEscapedE, %edi
 11672      00
 11673 01fd E8000000 		call	_ZN8UnitTest9ListAdderC1ERNS_8TestListEPNS_4TestE
 11673      00
 11674 0202 41B88700 		movl	$135, %r8d
 11674      0000
 11675 0208 B9000000 		movl	$.LC81, %ecx
 11675      00
 11676 020d BA000000 		movl	$.LC70, %edx
 11676      00
 11677 0212 BE000000 		movl	$.LC88, %esi
 11677      00
 11678 0217 BF000000 		movl	$_ZN12_GLOBAL__N_157testXmlTestReporterFixtureOneFailureAndOneSuccessInstanceE, %edi
 11678      00
 11679 021c E8000000 		call	_ZN8UnitTest4TestC2EPKcS2_S2_i
 11679      00
 11680 0221 BA000000 		movl	$__dso_handle, %edx
 11680      00
 11681 0226 BE000000 		movl	$_ZN12_GLOBAL__N_157testXmlTestReporterFixtureOneFailureAndOneSuccessInstanceE, %esi
 11681      00
 11682 022b BF000000 		movl	$_ZN12_GLOBAL__N_149TestXmlTestReporterFixtureOneFailureAndOneSuccessD1Ev, %edi
 11682      00
 11683 0230 48C70500 		movq	$_ZTVN12_GLOBAL__N_149TestXmlTestReporterFixtureOneFailureAndOneSuccessE+16, _ZN12_GLOBAL__N_
 11683      00000000 
 11683      000000
 11684 023b E8000000 		call	__cxa_atexit
 11684      00
 11685 0240 E8000000 		call	_ZN8UnitTest4Test11GetTestListEv
 11685      00
 11686 0245 BA000000 		movl	$_ZN12_GLOBAL__N_157testXmlTestReporterFixtureOneFailureAndOneSuccessInstanceE, %edx
 11686      00
 11687 024a 4889C6   		movq	%rax, %rsi
 11688 024d BF000000 		movl	$_ZN12_GLOBAL__N_150adderXmlTestReporterFixtureOneFailureAndOneSuccessE, %edi
 11688      00
 11689 0252 E8000000 		call	_ZN8UnitTest9ListAdderC1ERNS_8TestListEPNS_4TestE
 11689      00
 11690 0257 41B89F00 		movl	$159, %r8d
 11690      0000
 11691 025d B9000000 		movl	$.LC81, %ecx
 11691      00
 11692 0262 BA000000 		movl	$.LC70, %edx
 11692      00
 11693 0267 BE000000 		movl	$.LC89, %esi
 11693      00
 11694 026c BF000000 		movl	$_ZN12_GLOBAL__N_150testXmlTestReporterFixtureMultipleFailuresInstanceE, %edi
 11694      00
 11695 0271 E8000000 		call	_ZN8UnitTest4TestC2EPKcS2_S2_i
 11695      00
 11696 0276 BA000000 		movl	$__dso_handle, %edx
 11696      00
 11697 027b BE000000 		movl	$_ZN12_GLOBAL__N_150testXmlTestReporterFixtureMultipleFailuresInstanceE, %esi
 11697      00
 11698 0280 BF000000 		movl	$_ZN12_GLOBAL__N_142TestXmlTestReporterFixtureMultipleFailuresD1Ev, %edi
 11698      00
 11699 0285 48C70500 		movq	$_ZTVN12_GLOBAL__N_142TestXmlTestReporterFixtureMultipleFailuresE+16, _ZN12_GLOBAL__N_150test
 11699      00000000 
 11699      000000
 11700 0290 E8000000 		call	__cxa_atexit
 11700      00
 11701 0295 E8000000 		call	_ZN8UnitTest4Test11GetTestListEv
 11701      00
 11702 029a BA000000 		movl	$_ZN12_GLOBAL__N_150testXmlTestReporterFixtureMultipleFailuresInstanceE, %edx
 11702      00
 11703 029f 4889C6   		movq	%rax, %rsi
 11704 02a2 BF000000 		movl	$_ZN12_GLOBAL__N_143adderXmlTestReporterFixtureMultipleFailuresE, %edi
 11704      00
 11705 02a7 4883C408 		addq	$8, %rsp
 11706              		.cfi_def_cfa_offset 8
 11707 02ab E9000000 		jmp	_ZN8UnitTest9ListAdderC1ERNS_8TestListEPNS_4TestE
 11707      00
 11708              		.cfi_endproc
 11709              	.LFE1671:
 11711              		.section	.text.unlikely
 11712              	.LCOLDE90:
 11713              		.section	.text.startup
 11714              	.LHOTE90:
 11715              		.section	.init_array,"aw"
 11716              		.align 8
 11717 0000 00000000 		.quad	_GLOBAL__sub_I_TestXmlTestReporter.cpp
 11717      00000000 
 11718              		.section	.rodata
 11719              		.align 64
 11722              	_ZTSN12_GLOBAL__N_154TestXmlTestReporterFixtureMultipleCharactersAreEscapedE:
 11723 0000 2A4E3132 		.string	"*N12_GLOBAL__N_154TestXmlTestReporterFixtureMultipleCharactersAreEscapedE"
 11723      5F474C4F 
 11723      42414C5F 
 11723      5F4E5F31 
 11723      35345465 
 11724 004a 00000000 		.align 64
 11724      00000000 
 11724      00000000 
 11724      00000000 
 11724      00000000 
 11727              	_ZTSN12_GLOBAL__N_166TestXmlTestReporterFixtureOutputIsCachedUntilReportSummaryIsCalledE:
 11728 0080 2A4E3132 		.string	"*N12_GLOBAL__N_166TestXmlTestReporterFixtureOutputIsCachedUntilReportSummaryIsCalledE"
 11728      5F474C4F 
 11728      42414C5F 
 11728      5F4E5F31 
 11728      36365465 
 11729 00d6 00000000 		.align 64
 11729      00000000 
 11729      00000000 
 11729      00000000 
 11729      00000000 
 11732              	_ZTSN12_GLOBAL__N_150TestXmlTestReporterFixtureEmptyReportSummaryFormatE:
 11733 0100 2A4E3132 		.string	"*N12_GLOBAL__N_150TestXmlTestReporterFixtureEmptyReportSummaryFormatE"
 11733      5F474C4F 
 11733      42414C5F 
 11733      5F4E5F31 
 11733      35305465 
 11734 0146 00000000 		.align 64
 11734      00000000 
 11734      00000000 
 11734      00000000 
 11734      00000000 
 11737              	_ZTSN12_GLOBAL__N_165TestXmlTestReporterFixtureSingleSuccessfulTestReportSummaryFormatE:
 11738 0180 2A4E3132 		.string	"*N12_GLOBAL__N_165TestXmlTestReporterFixtureSingleSuccessfulTestReportSummaryFormatE"
 11738      5F474C4F 
 11738      42414C5F 
 11738      5F4E5F31 
 11738      36355465 
 11739 01d5 00000000 		.align 64
 11739      00000000 
 11739      00000000 
 11739      00000000 
 11739      00000000 
 11742              	_ZTSN12_GLOBAL__N_161TestXmlTestReporterFixtureSingleFailedTestReportSummaryFormatE:
 11743 0200 2A4E3132 		.string	"*N12_GLOBAL__N_161TestXmlTestReporterFixtureSingleFailedTestReportSummaryFormatE"
 11743      5F474C4F 
 11743      42414C5F 
 11743      5F4E5F31 
 11743      36315465 
 11744 0251 00000000 		.align 64
 11744      00000000 
 11744      00000000 
 11744      00000000 
 11744      00000000 
 11747              	_ZTSN12_GLOBAL__N_152TestXmlTestReporterFixtureFailureMessageIsXMLEscapedE:
 11748 0280 2A4E3132 		.string	"*N12_GLOBAL__N_152TestXmlTestReporterFixtureFailureMessageIsXMLEscapedE"
 11748      5F474C4F 
 11748      42414C5F 
 11748      5F4E5F31 
 11748      35325465 
 11749 02c8 00000000 		.align 64
 11749      00000000 
 11749      00000000 
 11749      00000000 
 11749      00000000 
 11752              	_ZTSN12_GLOBAL__N_149TestXmlTestReporterFixtureOneFailureAndOneSuccessE:
 11753 0300 2A4E3132 		.string	"*N12_GLOBAL__N_149TestXmlTestReporterFixtureOneFailureAndOneSuccessE"
 11753      5F474C4F 
 11753      42414C5F 
 11753      5F4E5F31 
 11753      34395465 
 11754 0345 00000000 		.align 32
 11754      00000000 
 11754      00000000 
 11754      00000000 
 11754      00000000 
 11757              	_ZTSN12_GLOBAL__N_142TestXmlTestReporterFixtureMultipleFailuresE:
 11758 0360 2A4E3132 		.string	"*N12_GLOBAL__N_142TestXmlTestReporterFixtureMultipleFailuresE"
 11758      5F474C4F 
 11758      42414C5F 
 11758      5F4E5F31 
 11758      34325465 
 11759 039e 0000     		.align 16
 11762              	_ZTIN12_GLOBAL__N_142TestXmlTestReporterFixtureMultipleFailuresE:
 11763 03a0 00000000 		.quad	_ZTVN10__cxxabiv120__si_class_type_infoE+16
 11763      00000000 
 11764 03a8 00000000 		.quad	_ZTSN12_GLOBAL__N_142TestXmlTestReporterFixtureMultipleFailuresE
 11764      00000000 
 11765 03b0 00000000 		.quad	_ZTIN8UnitTest4TestE
 11765      00000000 
 11766 03b8 00000000 		.align 16
 11766      00000000 
 11769              	_ZTIN12_GLOBAL__N_149TestXmlTestReporterFixtureOneFailureAndOneSuccessE:
 11770 03c0 00000000 		.quad	_ZTVN10__cxxabiv120__si_class_type_infoE+16
 11770      00000000 
 11771 03c8 00000000 		.quad	_ZTSN12_GLOBAL__N_149TestXmlTestReporterFixtureOneFailureAndOneSuccessE
 11771      00000000 
 11772 03d0 00000000 		.quad	_ZTIN8UnitTest4TestE
 11772      00000000 
 11773 03d8 00000000 		.align 16
 11773      00000000 
 11776              	_ZTIN12_GLOBAL__N_152TestXmlTestReporterFixtureFailureMessageIsXMLEscapedE:
 11777 03e0 00000000 		.quad	_ZTVN10__cxxabiv120__si_class_type_infoE+16
 11777      00000000 
 11778 03e8 00000000 		.quad	_ZTSN12_GLOBAL__N_152TestXmlTestReporterFixtureFailureMessageIsXMLEscapedE
 11778      00000000 
 11779 03f0 00000000 		.quad	_ZTIN8UnitTest4TestE
 11779      00000000 
 11780 03f8 00000000 		.align 16
 11780      00000000 
 11783              	_ZTIN12_GLOBAL__N_161TestXmlTestReporterFixtureSingleFailedTestReportSummaryFormatE:
 11784 0400 00000000 		.quad	_ZTVN10__cxxabiv120__si_class_type_infoE+16
 11784      00000000 
 11785 0408 00000000 		.quad	_ZTSN12_GLOBAL__N_161TestXmlTestReporterFixtureSingleFailedTestReportSummaryFormatE
 11785      00000000 
 11786 0410 00000000 		.quad	_ZTIN8UnitTest4TestE
 11786      00000000 
 11787 0418 00000000 		.align 16
 11787      00000000 
 11790              	_ZTIN12_GLOBAL__N_165TestXmlTestReporterFixtureSingleSuccessfulTestReportSummaryFormatE:
 11791 0420 00000000 		.quad	_ZTVN10__cxxabiv120__si_class_type_infoE+16
 11791      00000000 
 11792 0428 00000000 		.quad	_ZTSN12_GLOBAL__N_165TestXmlTestReporterFixtureSingleSuccessfulTestReportSummaryFormatE
 11792      00000000 
 11793 0430 00000000 		.quad	_ZTIN8UnitTest4TestE
 11793      00000000 
 11794 0438 00000000 		.align 16
 11794      00000000 
 11797              	_ZTIN12_GLOBAL__N_150TestXmlTestReporterFixtureEmptyReportSummaryFormatE:
 11798 0440 00000000 		.quad	_ZTVN10__cxxabiv120__si_class_type_infoE+16
 11798      00000000 
 11799 0448 00000000 		.quad	_ZTSN12_GLOBAL__N_150TestXmlTestReporterFixtureEmptyReportSummaryFormatE
 11799      00000000 
 11800 0450 00000000 		.quad	_ZTIN8UnitTest4TestE
 11800      00000000 
 11801 0458 00000000 		.align 16
 11801      00000000 
 11804              	_ZTIN12_GLOBAL__N_166TestXmlTestReporterFixtureOutputIsCachedUntilReportSummaryIsCalledE:
 11805 0460 00000000 		.quad	_ZTVN10__cxxabiv120__si_class_type_infoE+16
 11805      00000000 
 11806 0468 00000000 		.quad	_ZTSN12_GLOBAL__N_166TestXmlTestReporterFixtureOutputIsCachedUntilReportSummaryIsCalledE
 11806      00000000 
 11807 0470 00000000 		.quad	_ZTIN8UnitTest4TestE
 11807      00000000 
 11808 0478 00000000 		.align 16
 11808      00000000 
 11811              	_ZTIN12_GLOBAL__N_154TestXmlTestReporterFixtureMultipleCharactersAreEscapedE:
 11812 0480 00000000 		.quad	_ZTVN10__cxxabiv120__si_class_type_infoE+16
 11812      00000000 
 11813 0488 00000000 		.quad	_ZTSN12_GLOBAL__N_154TestXmlTestReporterFixtureMultipleCharactersAreEscapedE
 11813      00000000 
 11814 0490 00000000 		.quad	_ZTIN8UnitTest4TestE
 11814      00000000 
 11815              		.weak	_ZTIN8UnitTest15MemoryOutStreamE
 11816              		.section	.rodata._ZTIN8UnitTest15MemoryOutStreamE,"aG",@progbits,_ZTIN8UnitTest15MemoryOutStreamE,
 11817              		.align 16
 11820              	_ZTIN8UnitTest15MemoryOutStreamE:
 11821 0000 00000000 		.quad	_ZTVN10__cxxabiv120__si_class_type_infoE+16
 11821      00000000 
 11822 0008 00000000 		.quad	_ZTSN8UnitTest15MemoryOutStreamE
 11822      00000000 
 11823 0010 00000000 		.quad	_ZTISt19basic_ostringstreamIcSt11char_traitsIcESaIcEE
 11823      00000000 
 11824              		.weak	_ZTSN8UnitTest15MemoryOutStreamE
 11825              		.section	.rodata._ZTSN8UnitTest15MemoryOutStreamE,"aG",@progbits,_ZTSN8UnitTest15MemoryOutStreamE,
 11826              		.align 16
 11829              	_ZTSN8UnitTest15MemoryOutStreamE:
 11830 0000 4E38556E 		.string	"N8UnitTest15MemoryOutStreamE"
 11830      69745465 
 11830      73743135 
 11830      4D656D6F 
 11830      72794F75 
 11831              		.hidden	_ZTCN8UnitTest15MemoryOutStreamE0_So
 11832              		.weak	_ZTCN8UnitTest15MemoryOutStreamE0_So
 11833              		.section	.rodata._ZTCN8UnitTest15MemoryOutStreamE0_So,"aG",@progbits,_ZTVN8UnitTest15MemoryOutStre
 11834              		.align 64
 11837              	_ZTCN8UnitTest15MemoryOutStreamE0_So:
 11838 0000 60000000 		.quad	96
 11838      00000000 
 11839 0008 00000000 		.quad	0
 11839      00000000 
 11840 0010 00000000 		.quad	_ZTISo
 11840      00000000 
 11841 0018 00000000 		.quad	0
 11841      00000000 
 11842 0020 00000000 		.quad	0
 11842      00000000 
 11843 0028 A0FFFFFF 		.quad	-96
 11843      FFFFFFFF 
 11844 0030 A0FFFFFF 		.quad	-96
 11844      FFFFFFFF 
 11845 0038 00000000 		.quad	_ZTISo
 11845      00000000 
 11846 0040 00000000 		.quad	0
 11846      00000000 
 11847 0048 00000000 		.quad	0
 11847      00000000 
 11848              		.hidden	_ZTCN8UnitTest15MemoryOutStreamE0_St19basic_ostringstreamIcSt11char_traitsIcESaIcEE
 11849              		.weak	_ZTCN8UnitTest15MemoryOutStreamE0_St19basic_ostringstreamIcSt11char_traitsIcESaIcEE
 11850              		.section	.rodata._ZTCN8UnitTest15MemoryOutStreamE0_St19basic_ostringstreamIcSt11char_traitsIcESaIc
 11851              		.align 64
 11854              	_ZTCN8UnitTest15MemoryOutStreamE0_St19basic_ostringstreamIcSt11char_traitsIcESaIcEE:
 11855 0000 60000000 		.quad	96
 11855      00000000 
 11856 0008 00000000 		.quad	0
 11856      00000000 
 11857 0010 00000000 		.quad	_ZTISt19basic_ostringstreamIcSt11char_traitsIcESaIcEE
 11857      00000000 
 11858 0018 00000000 		.quad	0
 11858      00000000 
 11859 0020 00000000 		.quad	0
 11859      00000000 
 11860 0028 A0FFFFFF 		.quad	-96
 11860      FFFFFFFF 
 11861 0030 A0FFFFFF 		.quad	-96
 11861      FFFFFFFF 
 11862 0038 00000000 		.quad	_ZTISt19basic_ostringstreamIcSt11char_traitsIcESaIcEE
 11862      00000000 
 11863 0040 00000000 		.quad	0
 11863      00000000 
 11864 0048 00000000 		.quad	0
 11864      00000000 
 11865              		.weak	_ZTTN8UnitTest15MemoryOutStreamE
 11866              		.section	.rodata._ZTTN8UnitTest15MemoryOutStreamE,"aG",@progbits,_ZTVN8UnitTest15MemoryOutStreamE,
 11867              		.align 32
 11870              	_ZTTN8UnitTest15MemoryOutStreamE:
 11871 0000 00000000 		.quad	_ZTVN8UnitTest15MemoryOutStreamE+24
 11871      00000000 
 11872 0008 00000000 		.quad	_ZTCN8UnitTest15MemoryOutStreamE0_St19basic_ostringstreamIcSt11char_traitsIcESaIcEE+24
 11872      00000000 
 11873 0010 00000000 		.quad	_ZTCN8UnitTest15MemoryOutStreamE0_So+24
 11873      00000000 
 11874 0018 00000000 		.quad	_ZTCN8UnitTest15MemoryOutStreamE0_So+64
 11874      00000000 
 11875 0020 00000000 		.quad	_ZTCN8UnitTest15MemoryOutStreamE0_St19basic_ostringstreamIcSt11char_traitsIcESaIcEE+64
 11875      00000000 
 11876 0028 00000000 		.quad	_ZTVN8UnitTest15MemoryOutStreamE+64
 11876      00000000 
 11877              		.weak	_ZTVN8UnitTest15MemoryOutStreamE
 11878              		.section	.rodata._ZTVN8UnitTest15MemoryOutStreamE,"aG",@progbits,_ZTVN8UnitTest15MemoryOutStreamE,
 11879              		.align 64
 11882              	_ZTVN8UnitTest15MemoryOutStreamE:
 11883 0000 60000000 		.quad	96
 11883      00000000 
 11884 0008 00000000 		.quad	0
 11884      00000000 
 11885 0010 00000000 		.quad	_ZTIN8UnitTest15MemoryOutStreamE
 11885      00000000 
 11886 0018 00000000 		.quad	_ZN8UnitTest15MemoryOutStreamD1Ev
 11886      00000000 
 11887 0020 00000000 		.quad	_ZN8UnitTest15MemoryOutStreamD0Ev
 11887      00000000 
 11888 0028 A0FFFFFF 		.quad	-96
 11888      FFFFFFFF 
 11889 0030 A0FFFFFF 		.quad	-96
 11889      FFFFFFFF 
 11890 0038 00000000 		.quad	_ZTIN8UnitTest15MemoryOutStreamE
 11890      00000000 
 11891 0040 00000000 		.quad	_ZTv0_n24_N8UnitTest15MemoryOutStreamD1Ev
 11891      00000000 
 11892 0048 00000000 		.quad	_ZTv0_n24_N8UnitTest15MemoryOutStreamD0Ev
 11892      00000000 
 11893              		.section	.rodata
 11894 0498 00000000 		.align 32
 11894      00000000 
 11897              	_ZTVN12_GLOBAL__N_154TestXmlTestReporterFixtureMultipleCharactersAreEscapedE:
 11898 04a0 00000000 		.quad	0
 11898      00000000 
 11899 04a8 00000000 		.quad	_ZTIN12_GLOBAL__N_154TestXmlTestReporterFixtureMultipleCharactersAreEscapedE
 11899      00000000 
 11900 04b0 00000000 		.quad	_ZN12_GLOBAL__N_154TestXmlTestReporterFixtureMultipleCharactersAreEscapedD1Ev
 11900      00000000 
 11901 04b8 00000000 		.quad	_ZN12_GLOBAL__N_154TestXmlTestReporterFixtureMultipleCharactersAreEscapedD0Ev
 11901      00000000 
 11902 04c0 00000000 		.quad	_ZNK12_GLOBAL__N_154TestXmlTestReporterFixtureMultipleCharactersAreEscaped7RunImplEv
 11902      00000000 
 11903 04c8 00000000 		.align 32
 11903      00000000 
 11903      00000000 
 11903      00000000 
 11903      00000000 
 11906              	_ZTVN12_GLOBAL__N_166TestXmlTestReporterFixtureOutputIsCachedUntilReportSummaryIsCalledE:
 11907 04e0 00000000 		.quad	0
 11907      00000000 
 11908 04e8 00000000 		.quad	_ZTIN12_GLOBAL__N_166TestXmlTestReporterFixtureOutputIsCachedUntilReportSummaryIsCalledE
 11908      00000000 
 11909 04f0 00000000 		.quad	_ZN12_GLOBAL__N_166TestXmlTestReporterFixtureOutputIsCachedUntilReportSummaryIsCalledD1Ev
 11909      00000000 
 11910 04f8 00000000 		.quad	_ZN12_GLOBAL__N_166TestXmlTestReporterFixtureOutputIsCachedUntilReportSummaryIsCalledD0Ev
 11910      00000000 
 11911 0500 00000000 		.quad	_ZNK12_GLOBAL__N_166TestXmlTestReporterFixtureOutputIsCachedUntilReportSummaryIsCalled7RunIm
 11911      00000000 
 11912 0508 00000000 		.align 32
 11912      00000000 
 11912      00000000 
 11912      00000000 
 11912      00000000 
 11915              	_ZTVN12_GLOBAL__N_150TestXmlTestReporterFixtureEmptyReportSummaryFormatE:
 11916 0520 00000000 		.quad	0
 11916      00000000 
 11917 0528 00000000 		.quad	_ZTIN12_GLOBAL__N_150TestXmlTestReporterFixtureEmptyReportSummaryFormatE
 11917      00000000 
 11918 0530 00000000 		.quad	_ZN12_GLOBAL__N_150TestXmlTestReporterFixtureEmptyReportSummaryFormatD1Ev
 11918      00000000 
 11919 0538 00000000 		.quad	_ZN12_GLOBAL__N_150TestXmlTestReporterFixtureEmptyReportSummaryFormatD0Ev
 11919      00000000 
 11920 0540 00000000 		.quad	_ZNK12_GLOBAL__N_150TestXmlTestReporterFixtureEmptyReportSummaryFormat7RunImplEv
 11920      00000000 
 11921 0548 00000000 		.align 32
 11921      00000000 
 11921      00000000 
 11921      00000000 
 11921      00000000 
 11924              	_ZTVN12_GLOBAL__N_165TestXmlTestReporterFixtureSingleSuccessfulTestReportSummaryFormatE:
 11925 0560 00000000 		.quad	0
 11925      00000000 
 11926 0568 00000000 		.quad	_ZTIN12_GLOBAL__N_165TestXmlTestReporterFixtureSingleSuccessfulTestReportSummaryFormatE
 11926      00000000 
 11927 0570 00000000 		.quad	_ZN12_GLOBAL__N_165TestXmlTestReporterFixtureSingleSuccessfulTestReportSummaryFormatD1Ev
 11927      00000000 
 11928 0578 00000000 		.quad	_ZN12_GLOBAL__N_165TestXmlTestReporterFixtureSingleSuccessfulTestReportSummaryFormatD0Ev
 11928      00000000 
 11929 0580 00000000 		.quad	_ZNK12_GLOBAL__N_165TestXmlTestReporterFixtureSingleSuccessfulTestReportSummaryFormat7RunImp
 11929      00000000 
 11930 0588 00000000 		.align 32
 11930      00000000 
 11930      00000000 
 11930      00000000 
 11930      00000000 
 11933              	_ZTVN12_GLOBAL__N_161TestXmlTestReporterFixtureSingleFailedTestReportSummaryFormatE:
 11934 05a0 00000000 		.quad	0
 11934      00000000 
 11935 05a8 00000000 		.quad	_ZTIN12_GLOBAL__N_161TestXmlTestReporterFixtureSingleFailedTestReportSummaryFormatE
 11935      00000000 
 11936 05b0 00000000 		.quad	_ZN12_GLOBAL__N_161TestXmlTestReporterFixtureSingleFailedTestReportSummaryFormatD1Ev
 11936      00000000 
 11937 05b8 00000000 		.quad	_ZN12_GLOBAL__N_161TestXmlTestReporterFixtureSingleFailedTestReportSummaryFormatD0Ev
 11937      00000000 
 11938 05c0 00000000 		.quad	_ZNK12_GLOBAL__N_161TestXmlTestReporterFixtureSingleFailedTestReportSummaryFormat7RunImplEv
 11938      00000000 
 11939 05c8 00000000 		.align 32
 11939      00000000 
 11939      00000000 
 11939      00000000 
 11939      00000000 
 11942              	_ZTVN12_GLOBAL__N_152TestXmlTestReporterFixtureFailureMessageIsXMLEscapedE:
 11943 05e0 00000000 		.quad	0
 11943      00000000 
 11944 05e8 00000000 		.quad	_ZTIN12_GLOBAL__N_152TestXmlTestReporterFixtureFailureMessageIsXMLEscapedE
 11944      00000000 
 11945 05f0 00000000 		.quad	_ZN12_GLOBAL__N_152TestXmlTestReporterFixtureFailureMessageIsXMLEscapedD1Ev
 11945      00000000 
 11946 05f8 00000000 		.quad	_ZN12_GLOBAL__N_152TestXmlTestReporterFixtureFailureMessageIsXMLEscapedD0Ev
 11946      00000000 
 11947 0600 00000000 		.quad	_ZNK12_GLOBAL__N_152TestXmlTestReporterFixtureFailureMessageIsXMLEscaped7RunImplEv
 11947      00000000 
 11948 0608 00000000 		.align 32
 11948      00000000 
 11948      00000000 
 11948      00000000 
 11948      00000000 
 11951              	_ZTVN12_GLOBAL__N_149TestXmlTestReporterFixtureOneFailureAndOneSuccessE:
 11952 0620 00000000 		.quad	0
 11952      00000000 
 11953 0628 00000000 		.quad	_ZTIN12_GLOBAL__N_149TestXmlTestReporterFixtureOneFailureAndOneSuccessE
 11953      00000000 
 11954 0630 00000000 		.quad	_ZN12_GLOBAL__N_149TestXmlTestReporterFixtureOneFailureAndOneSuccessD1Ev
 11954      00000000 
 11955 0638 00000000 		.quad	_ZN12_GLOBAL__N_149TestXmlTestReporterFixtureOneFailureAndOneSuccessD0Ev
 11955      00000000 
 11956 0640 00000000 		.quad	_ZNK12_GLOBAL__N_149TestXmlTestReporterFixtureOneFailureAndOneSuccess7RunImplEv
 11956      00000000 
 11957 0648 00000000 		.align 32
 11957      00000000 
 11957      00000000 
 11957      00000000 
 11957      00000000 
 11960              	_ZTVN12_GLOBAL__N_142TestXmlTestReporterFixtureMultipleFailuresE:
 11961 0660 00000000 		.quad	0
 11961      00000000 
 11962 0668 00000000 		.quad	_ZTIN12_GLOBAL__N_142TestXmlTestReporterFixtureMultipleFailuresE
 11962      00000000 
 11963 0670 00000000 		.quad	_ZN12_GLOBAL__N_142TestXmlTestReporterFixtureMultipleFailuresD1Ev
 11963      00000000 
 11964 0678 00000000 		.quad	_ZN12_GLOBAL__N_142TestXmlTestReporterFixtureMultipleFailuresD0Ev
 11964      00000000 
 11965 0680 00000000 		.quad	_ZNK12_GLOBAL__N_142TestXmlTestReporterFixtureMultipleFailures7RunImplEv
 11965      00000000 
 11966              		.local	_ZN12_GLOBAL__N_143adderXmlTestReporterFixtureMultipleFailuresE
 11967              		.comm	_ZN12_GLOBAL__N_143adderXmlTestReporterFixtureMultipleFailuresE,1,1
 11968              		.local	_ZN12_GLOBAL__N_150testXmlTestReporterFixtureMultipleFailuresInstanceE
 11969              		.comm	_ZN12_GLOBAL__N_150testXmlTestReporterFixtureMultipleFailuresInstanceE,56,32
 11970              		.local	_ZN12_GLOBAL__N_150adderXmlTestReporterFixtureOneFailureAndOneSuccessE
 11971              		.comm	_ZN12_GLOBAL__N_150adderXmlTestReporterFixtureOneFailureAndOneSuccessE,1,1
 11972              		.local	_ZN12_GLOBAL__N_157testXmlTestReporterFixtureOneFailureAndOneSuccessInstanceE
 11973              		.comm	_ZN12_GLOBAL__N_157testXmlTestReporterFixtureOneFailureAndOneSuccessInstanceE,56,32
 11974              		.local	_ZN12_GLOBAL__N_153adderXmlTestReporterFixtureFailureMessageIsXMLEscapedE
 11975              		.comm	_ZN12_GLOBAL__N_153adderXmlTestReporterFixtureFailureMessageIsXMLEscapedE,1,1
 11976              		.local	_ZN12_GLOBAL__N_160testXmlTestReporterFixtureFailureMessageIsXMLEscapedInstanceE
 11977              		.comm	_ZN12_GLOBAL__N_160testXmlTestReporterFixtureFailureMessageIsXMLEscapedInstanceE,56,32
 11978              		.local	_ZN12_GLOBAL__N_162adderXmlTestReporterFixtureSingleFailedTestReportSummaryFormatE
 11979              		.comm	_ZN12_GLOBAL__N_162adderXmlTestReporterFixtureSingleFailedTestReportSummaryFormatE,1,1
 11980              		.local	_ZN12_GLOBAL__N_169testXmlTestReporterFixtureSingleFailedTestReportSummaryFormatInstanceE
 11981              		.comm	_ZN12_GLOBAL__N_169testXmlTestReporterFixtureSingleFailedTestReportSummaryFormatInstanceE,56
 11982              		.local	_ZN12_GLOBAL__N_166adderXmlTestReporterFixtureSingleSuccessfulTestReportSummaryFormatE
 11983              		.comm	_ZN12_GLOBAL__N_166adderXmlTestReporterFixtureSingleSuccessfulTestReportSummaryFormatE,1,1
 11984              		.local	_ZN12_GLOBAL__N_173testXmlTestReporterFixtureSingleSuccessfulTestReportSummaryFormatInstanc
 11985              		.comm	_ZN12_GLOBAL__N_173testXmlTestReporterFixtureSingleSuccessfulTestReportSummaryFormatInstance
 11986              		.local	_ZN12_GLOBAL__N_151adderXmlTestReporterFixtureEmptyReportSummaryFormatE
 11987              		.comm	_ZN12_GLOBAL__N_151adderXmlTestReporterFixtureEmptyReportSummaryFormatE,1,1
 11988              		.local	_ZN12_GLOBAL__N_158testXmlTestReporterFixtureEmptyReportSummaryFormatInstanceE
 11989              		.comm	_ZN12_GLOBAL__N_158testXmlTestReporterFixtureEmptyReportSummaryFormatInstanceE,56,32
 11990              		.local	_ZN12_GLOBAL__N_167adderXmlTestReporterFixtureOutputIsCachedUntilReportSummaryIsCalledE
 11991              		.comm	_ZN12_GLOBAL__N_167adderXmlTestReporterFixtureOutputIsCachedUntilReportSummaryIsCalledE,1,1
 11992              		.local	_ZN12_GLOBAL__N_174testXmlTestReporterFixtureOutputIsCachedUntilReportSummaryIsCalledInstan
 11993              		.comm	_ZN12_GLOBAL__N_174testXmlTestReporterFixtureOutputIsCachedUntilReportSummaryIsCalledInstanc
 11994              		.local	_ZN12_GLOBAL__N_155adderXmlTestReporterFixtureMultipleCharactersAreEscapedE
 11995              		.comm	_ZN12_GLOBAL__N_155adderXmlTestReporterFixtureMultipleCharactersAreEscapedE,1,1
 11996              		.local	_ZN12_GLOBAL__N_162testXmlTestReporterFixtureMultipleCharactersAreEscapedInstanceE
 11997              		.comm	_ZN12_GLOBAL__N_162testXmlTestReporterFixtureMultipleCharactersAreEscapedInstanceE,56,32
 11998              		.weakref	_ZL28__gthrw___pthread_key_createPjPFvPvE,__pthread_key_create
 11999              		.section	.rodata.cst4,"aM",@progbits,4
 12000              		.align 4
 12001              	.LC27:
 12002 0000 0000803F 		.long	1065353216
 12003              		.align 4
 12004              	.LC48:
 12005 0004 CDCCCC3D 		.long	1036831949
 12006              		.align 4
 12007              	.LC49:
 12008 0008 CDCC8C3F 		.long	1066192077
 12009              		.hidden	__dso_handle
 12010              		.ident	"GCC: (Ubuntu 4.9.2-10ubuntu13) 4.9.2"
 12011              		.section	.note.GNU-stack,"",@progbits
DEFINED SYMBOLS
                            *ABS*:0000000000000000 TestXmlTestReporter.cpp
     /tmp/ccIwhjsI.s:10     .text:0000000000000000 _ZN12_GLOBAL__N_142TestXmlTestReporterFixtureMultipleFailuresD2Ev
     /tmp/ccIwhjsI.s:11960  .rodata:0000000000000660 _ZTVN12_GLOBAL__N_142TestXmlTestReporterFixtureMultipleFailuresE
     /tmp/ccIwhjsI.s:10     .text:0000000000000000 _ZN12_GLOBAL__N_142TestXmlTestReporterFixtureMultipleFailuresD1Ev
     /tmp/ccIwhjsI.s:31     .text:0000000000000010 _ZN12_GLOBAL__N_149TestXmlTestReporterFixtureOneFailureAndOneSuccessD2Ev
     /tmp/ccIwhjsI.s:11951  .rodata:0000000000000620 _ZTVN12_GLOBAL__N_149TestXmlTestReporterFixtureOneFailureAndOneSuccessE
     /tmp/ccIwhjsI.s:31     .text:0000000000000010 _ZN12_GLOBAL__N_149TestXmlTestReporterFixtureOneFailureAndOneSuccessD1Ev
     /tmp/ccIwhjsI.s:52     .text:0000000000000020 _ZN12_GLOBAL__N_152TestXmlTestReporterFixtureFailureMessageIsXMLEscapedD2Ev
     /tmp/ccIwhjsI.s:11942  .rodata:00000000000005e0 _ZTVN12_GLOBAL__N_152TestXmlTestReporterFixtureFailureMessageIsXMLEscapedE
     /tmp/ccIwhjsI.s:52     .text:0000000000000020 _ZN12_GLOBAL__N_152TestXmlTestReporterFixtureFailureMessageIsXMLEscapedD1Ev
     /tmp/ccIwhjsI.s:73     .text:0000000000000030 _ZN12_GLOBAL__N_161TestXmlTestReporterFixtureSingleFailedTestReportSummaryFormatD2Ev
     /tmp/ccIwhjsI.s:11933  .rodata:00000000000005a0 _ZTVN12_GLOBAL__N_161TestXmlTestReporterFixtureSingleFailedTestReportSummaryFormatE
     /tmp/ccIwhjsI.s:73     .text:0000000000000030 _ZN12_GLOBAL__N_161TestXmlTestReporterFixtureSingleFailedTestReportSummaryFormatD1Ev
     /tmp/ccIwhjsI.s:94     .text:0000000000000040 _ZN12_GLOBAL__N_165TestXmlTestReporterFixtureSingleSuccessfulTestReportSummaryFormatD2Ev
     /tmp/ccIwhjsI.s:11924  .rodata:0000000000000560 _ZTVN12_GLOBAL__N_165TestXmlTestReporterFixtureSingleSuccessfulTestReportSummaryFormatE
     /tmp/ccIwhjsI.s:94     .text:0000000000000040 _ZN12_GLOBAL__N_165TestXmlTestReporterFixtureSingleSuccessfulTestReportSummaryFormatD1Ev
     /tmp/ccIwhjsI.s:115    .text:0000000000000050 _ZN12_GLOBAL__N_150TestXmlTestReporterFixtureEmptyReportSummaryFormatD2Ev
     /tmp/ccIwhjsI.s:11915  .rodata:0000000000000520 _ZTVN12_GLOBAL__N_150TestXmlTestReporterFixtureEmptyReportSummaryFormatE
     /tmp/ccIwhjsI.s:115    .text:0000000000000050 _ZN12_GLOBAL__N_150TestXmlTestReporterFixtureEmptyReportSummaryFormatD1Ev
     /tmp/ccIwhjsI.s:136    .text:0000000000000060 _ZN12_GLOBAL__N_166TestXmlTestReporterFixtureOutputIsCachedUntilReportSummaryIsCalledD2Ev
     /tmp/ccIwhjsI.s:11906  .rodata:00000000000004e0 _ZTVN12_GLOBAL__N_166TestXmlTestReporterFixtureOutputIsCachedUntilReportSummaryIsCalledE
     /tmp/ccIwhjsI.s:136    .text:0000000000000060 _ZN12_GLOBAL__N_166TestXmlTestReporterFixtureOutputIsCachedUntilReportSummaryIsCalledD1Ev
     /tmp/ccIwhjsI.s:157    .text:0000000000000070 _ZN12_GLOBAL__N_154TestXmlTestReporterFixtureMultipleCharactersAreEscapedD2Ev
     /tmp/ccIwhjsI.s:11897  .rodata:00000000000004a0 _ZTVN12_GLOBAL__N_154TestXmlTestReporterFixtureMultipleCharactersAreEscapedE
     /tmp/ccIwhjsI.s:157    .text:0000000000000070 _ZN12_GLOBAL__N_154TestXmlTestReporterFixtureMultipleCharactersAreEscapedD1Ev
     /tmp/ccIwhjsI.s:178    .text:0000000000000080 _ZN12_GLOBAL__N_142TestXmlTestReporterFixtureMultipleFailuresD0Ev
     /tmp/ccIwhjsI.s:206    .text:00000000000000a0 _ZN12_GLOBAL__N_149TestXmlTestReporterFixtureOneFailureAndOneSuccessD0Ev
     /tmp/ccIwhjsI.s:234    .text:00000000000000c0 _ZN12_GLOBAL__N_152TestXmlTestReporterFixtureFailureMessageIsXMLEscapedD0Ev
     /tmp/ccIwhjsI.s:262    .text:00000000000000e0 _ZN12_GLOBAL__N_161TestXmlTestReporterFixtureSingleFailedTestReportSummaryFormatD0Ev
     /tmp/ccIwhjsI.s:290    .text:0000000000000100 _ZN12_GLOBAL__N_165TestXmlTestReporterFixtureSingleSuccessfulTestReportSummaryFormatD0Ev
     /tmp/ccIwhjsI.s:318    .text:0000000000000120 _ZN12_GLOBAL__N_150TestXmlTestReporterFixtureEmptyReportSummaryFormatD0Ev
     /tmp/ccIwhjsI.s:346    .text:0000000000000140 _ZN12_GLOBAL__N_166TestXmlTestReporterFixtureOutputIsCachedUntilReportSummaryIsCalledD0Ev
     /tmp/ccIwhjsI.s:374    .text:0000000000000160 _ZN12_GLOBAL__N_154TestXmlTestReporterFixtureMultipleCharactersAreEscapedD0Ev
     /tmp/ccIwhjsI.s:400    .text.unlikely:0000000000000000 _ZNSs4_Rep10_M_disposeERKSaIcE.part.5
     /tmp/ccIwhjsI.s:433    .text._ZN8UnitTest15MemoryOutStreamD1Ev:0000000000000000 _ZN8UnitTest15MemoryOutStreamD1Ev
     /tmp/ccIwhjsI.s:11882  .rodata._ZTVN8UnitTest15MemoryOutStreamE:0000000000000000 _ZTVN8UnitTest15MemoryOutStreamE
     /tmp/ccIwhjsI.s:11854  .rodata._ZTCN8UnitTest15MemoryOutStreamE0_St19basic_ostringstreamIcSt11char_traitsIcESaIcEE:0000000000000000 _ZTCN8UnitTest15MemoryOutStreamE0_St19basic_ostringstreamIcSt11char_traitsIcESaIcEE
     /tmp/ccIwhjsI.s:537    .text._ZN8UnitTest15MemoryOutStreamD1Ev:0000000000000130 _ZTv0_n24_N8UnitTest15MemoryOutStreamD1Ev
     /tmp/ccIwhjsI.s:557    .text._ZN8UnitTest15MemoryOutStreamD0Ev:0000000000000000 _ZN8UnitTest15MemoryOutStreamD0Ev
     /tmp/ccIwhjsI.s:663    .text._ZN8UnitTest15MemoryOutStreamD0Ev:0000000000000130 _ZTv0_n24_N8UnitTest15MemoryOutStreamD0Ev
     /tmp/ccIwhjsI.s:680    .text.unlikely:0000000000000028 _ZN12_GLOBAL__N_122XmlTestReporterFixtureD2Ev
     /tmp/ccIwhjsI.s:925    .text._ZNSt15basic_stringbufIcSt11char_traitsIcESaIcEED2Ev:0000000000000000 _ZNSt15basic_stringbufIcSt11char_traitsIcESaIcEED2Ev
     /tmp/ccIwhjsI.s:925    .text._ZNSt15basic_stringbufIcSt11char_traitsIcESaIcEED2Ev:0000000000000000 _ZNSt15basic_stringbufIcSt11char_traitsIcESaIcEED1Ev
     /tmp/ccIwhjsI.s:999    .text._ZN8UnitTest15MemoryOutStreamC1Ev:0000000000000000 _ZN8UnitTest15MemoryOutStreamC1Ev
     /tmp/ccIwhjsI.s:11837  .rodata._ZTCN8UnitTest15MemoryOutStreamE0_So:0000000000000000 _ZTCN8UnitTest15MemoryOutStreamE0_So
     /tmp/ccIwhjsI.s:1152   .text:0000000000000180 _ZN8UnitTest11ExecuteTestIN12_GLOBAL__N_168XmlTestReporterFixtureOutputIsCachedUntilReportSummaryIsCalledHelperEEEvRT_RKNS_11TestDetailsE
     /tmp/ccIwhjsI.s:2109   .text:0000000000000bf0 _ZNK12_GLOBAL__N_166TestXmlTestReporterFixtureOutputIsCachedUntilReportSummaryIsCalled7RunImplEv
     /tmp/ccIwhjsI.s:2688   .text._ZNSt15basic_stringbufIcSt11char_traitsIcESaIcEED0Ev:0000000000000000 _ZNSt15basic_stringbufIcSt11char_traitsIcESaIcEED0Ev
     /tmp/ccIwhjsI.s:2765   .text._ZN8UnitTest10CheckEqualIPKcSsEEvRNS_11TestResultsERKT_RKT0_RKNS_11TestDetailsE:0000000000000000 _ZN8UnitTest10CheckEqualIPKcSsEEvRNS_11TestResultsERKT_RKT0_RKNS_11TestDetailsE
     /tmp/ccIwhjsI.s:3078   .text:0000000000001280 _ZN8UnitTest11ExecuteTestIN12_GLOBAL__N_144XmlTestReporterFixtureMultipleFailuresHelperEEEvRT_RKNS_11TestDetailsE
     /tmp/ccIwhjsI.s:3716   .text:0000000000001940 _ZNK12_GLOBAL__N_142TestXmlTestReporterFixtureMultipleFailures7RunImplEv
     /tmp/ccIwhjsI.s:4300   .text:0000000000001fd0 _ZN8UnitTest11ExecuteTestIN12_GLOBAL__N_151XmlTestReporterFixtureOneFailureAndOneSuccessHelperEEEvRT_RKNS_11TestDetailsE
     /tmp/ccIwhjsI.s:4941   .text:00000000000026a0 _ZNK12_GLOBAL__N_149TestXmlTestReporterFixtureOneFailureAndOneSuccess7RunImplEv
     /tmp/ccIwhjsI.s:5528   .text:0000000000002d30 _ZN8UnitTest11ExecuteTestIN12_GLOBAL__N_154XmlTestReporterFixtureFailureMessageIsXMLEscapedHelperEEEvRT_RKNS_11TestDetailsE
     /tmp/ccIwhjsI.s:6156   .text:00000000000033b0 _ZNK12_GLOBAL__N_152TestXmlTestReporterFixtureFailureMessageIsXMLEscaped7RunImplEv
     /tmp/ccIwhjsI.s:6743   .text:0000000000003a40 _ZN8UnitTest11ExecuteTestIN12_GLOBAL__N_163XmlTestReporterFixtureSingleFailedTestReportSummaryFormatHelperEEEvRT_RKNS_11TestDetailsE
     /tmp/ccIwhjsI.s:7367   .text:00000000000040b0 _ZNK12_GLOBAL__N_161TestXmlTestReporterFixtureSingleFailedTestReportSummaryFormat7RunImplEv
     /tmp/ccIwhjsI.s:7950   .text:0000000000004740 _ZN8UnitTest11ExecuteTestIN12_GLOBAL__N_167XmlTestReporterFixtureSingleSuccessfulTestReportSummaryFormatHelperEEEvRT_RKNS_11TestDetailsE
     /tmp/ccIwhjsI.s:8570   .text:0000000000004d90 _ZNK12_GLOBAL__N_165TestXmlTestReporterFixtureSingleSuccessfulTestReportSummaryFormat7RunImplEv
     /tmp/ccIwhjsI.s:9150   .text:0000000000005420 _ZN8UnitTest11ExecuteTestIN12_GLOBAL__N_152XmlTestReporterFixtureEmptyReportSummaryFormatHelperEEEvRT_RKNS_11TestDetailsE
     /tmp/ccIwhjsI.s:9760   .text:0000000000005a40 _ZNK12_GLOBAL__N_150TestXmlTestReporterFixtureEmptyReportSummaryFormat7RunImplEv
     /tmp/ccIwhjsI.s:10343  .text:00000000000060d0 _ZN8UnitTest11ExecuteTestIN12_GLOBAL__N_156XmlTestReporterFixtureMultipleCharactersAreEscapedHelperEEEvRT_RKNS_11TestDetailsE
     /tmp/ccIwhjsI.s:10971  .text:0000000000006750 _ZNK12_GLOBAL__N_154TestXmlTestReporterFixtureMultipleCharactersAreEscaped7RunImplEv
     /tmp/ccIwhjsI.s:11573  .text.startup:0000000000000000 _GLOBAL__sub_I_TestXmlTestReporter.cpp
     /tmp/ccIwhjsI.s:11997  .bss:00000000000001e0 _ZN12_GLOBAL__N_162testXmlTestReporterFixtureMultipleCharactersAreEscapedInstanceE
     /tmp/ccIwhjsI.s:11993  .bss:00000000000001d8 _ZN12_GLOBAL__N_155adderXmlTestReporterFixtureMultipleCharactersAreEscapedE
     /tmp/ccIwhjsI.s:11993  .bss:00000000000001a0 _ZN12_GLOBAL__N_174testXmlTestReporterFixtureOutputIsCachedUntilReportSummaryIsCalledInstanceE
     /tmp/ccIwhjsI.s:11989  .bss:0000000000000198 _ZN12_GLOBAL__N_167adderXmlTestReporterFixtureOutputIsCachedUntilReportSummaryIsCalledE
     /tmp/ccIwhjsI.s:11989  .bss:0000000000000160 _ZN12_GLOBAL__N_158testXmlTestReporterFixtureEmptyReportSummaryFormatInstanceE
     /tmp/ccIwhjsI.s:11985  .bss:0000000000000158 _ZN12_GLOBAL__N_151adderXmlTestReporterFixtureEmptyReportSummaryFormatE
     /tmp/ccIwhjsI.s:11985  .bss:0000000000000120 _ZN12_GLOBAL__N_173testXmlTestReporterFixtureSingleSuccessfulTestReportSummaryFormatInstanceE
     /tmp/ccIwhjsI.s:11981  .bss:0000000000000118 _ZN12_GLOBAL__N_166adderXmlTestReporterFixtureSingleSuccessfulTestReportSummaryFormatE
     /tmp/ccIwhjsI.s:11981  .bss:00000000000000e0 _ZN12_GLOBAL__N_169testXmlTestReporterFixtureSingleFailedTestReportSummaryFormatInstanceE
     /tmp/ccIwhjsI.s:11977  .bss:00000000000000d8 _ZN12_GLOBAL__N_162adderXmlTestReporterFixtureSingleFailedTestReportSummaryFormatE
     /tmp/ccIwhjsI.s:11977  .bss:00000000000000a0 _ZN12_GLOBAL__N_160testXmlTestReporterFixtureFailureMessageIsXMLEscapedInstanceE
     /tmp/ccIwhjsI.s:11973  .bss:0000000000000098 _ZN12_GLOBAL__N_153adderXmlTestReporterFixtureFailureMessageIsXMLEscapedE
     /tmp/ccIwhjsI.s:11973  .bss:0000000000000060 _ZN12_GLOBAL__N_157testXmlTestReporterFixtureOneFailureAndOneSuccessInstanceE
     /tmp/ccIwhjsI.s:11969  .bss:0000000000000058 _ZN12_GLOBAL__N_150adderXmlTestReporterFixtureOneFailureAndOneSuccessE
     /tmp/ccIwhjsI.s:11969  .bss:0000000000000020 _ZN12_GLOBAL__N_150testXmlTestReporterFixtureMultipleFailuresInstanceE
                             .bss:0000000000000000 _ZN12_GLOBAL__N_143adderXmlTestReporterFixtureMultipleFailuresE
     /tmp/ccIwhjsI.s:11722  .rodata:0000000000000000 _ZTSN12_GLOBAL__N_154TestXmlTestReporterFixtureMultipleCharactersAreEscapedE
     /tmp/ccIwhjsI.s:11727  .rodata:0000000000000080 _ZTSN12_GLOBAL__N_166TestXmlTestReporterFixtureOutputIsCachedUntilReportSummaryIsCalledE
     /tmp/ccIwhjsI.s:11732  .rodata:0000000000000100 _ZTSN12_GLOBAL__N_150TestXmlTestReporterFixtureEmptyReportSummaryFormatE
     /tmp/ccIwhjsI.s:11737  .rodata:0000000000000180 _ZTSN12_GLOBAL__N_165TestXmlTestReporterFixtureSingleSuccessfulTestReportSummaryFormatE
     /tmp/ccIwhjsI.s:11742  .rodata:0000000000000200 _ZTSN12_GLOBAL__N_161TestXmlTestReporterFixtureSingleFailedTestReportSummaryFormatE
     /tmp/ccIwhjsI.s:11747  .rodata:0000000000000280 _ZTSN12_GLOBAL__N_152TestXmlTestReporterFixtureFailureMessageIsXMLEscapedE
     /tmp/ccIwhjsI.s:11752  .rodata:0000000000000300 _ZTSN12_GLOBAL__N_149TestXmlTestReporterFixtureOneFailureAndOneSuccessE
     /tmp/ccIwhjsI.s:11757  .rodata:0000000000000360 _ZTSN12_GLOBAL__N_142TestXmlTestReporterFixtureMultipleFailuresE
     /tmp/ccIwhjsI.s:11762  .rodata:00000000000003a0 _ZTIN12_GLOBAL__N_142TestXmlTestReporterFixtureMultipleFailuresE
     /tmp/ccIwhjsI.s:11769  .rodata:00000000000003c0 _ZTIN12_GLOBAL__N_149TestXmlTestReporterFixtureOneFailureAndOneSuccessE
     /tmp/ccIwhjsI.s:11776  .rodata:00000000000003e0 _ZTIN12_GLOBAL__N_152TestXmlTestReporterFixtureFailureMessageIsXMLEscapedE
     /tmp/ccIwhjsI.s:11783  .rodata:0000000000000400 _ZTIN12_GLOBAL__N_161TestXmlTestReporterFixtureSingleFailedTestReportSummaryFormatE
     /tmp/ccIwhjsI.s:11790  .rodata:0000000000000420 _ZTIN12_GLOBAL__N_165TestXmlTestReporterFixtureSingleSuccessfulTestReportSummaryFormatE
     /tmp/ccIwhjsI.s:11797  .rodata:0000000000000440 _ZTIN12_GLOBAL__N_150TestXmlTestReporterFixtureEmptyReportSummaryFormatE
     /tmp/ccIwhjsI.s:11804  .rodata:0000000000000460 _ZTIN12_GLOBAL__N_166TestXmlTestReporterFixtureOutputIsCachedUntilReportSummaryIsCalledE
     /tmp/ccIwhjsI.s:11811  .rodata:0000000000000480 _ZTIN12_GLOBAL__N_154TestXmlTestReporterFixtureMultipleCharactersAreEscapedE
     /tmp/ccIwhjsI.s:11820  .rodata._ZTIN8UnitTest15MemoryOutStreamE:0000000000000000 _ZTIN8UnitTest15MemoryOutStreamE
     /tmp/ccIwhjsI.s:11829  .rodata._ZTSN8UnitTest15MemoryOutStreamE:0000000000000000 _ZTSN8UnitTest15MemoryOutStreamE
     /tmp/ccIwhjsI.s:11870  .rodata._ZTTN8UnitTest15MemoryOutStreamE:0000000000000000 _ZTTN8UnitTest15MemoryOutStreamE
     /tmp/ccIwhjsI.s:12001  .rodata.cst4:0000000000000000 .LC27
     /tmp/ccIwhjsI.s:12004  .rodata.cst4:0000000000000004 .LC48
     /tmp/ccIwhjsI.s:12007  .rodata.cst4:0000000000000008 .LC49
                           .group:0000000000000000 _ZNSt15basic_stringbufIcSt11char_traitsIcESaIcEED5Ev

UNDEFINED SYMBOLS
_ZN8UnitTest4TestD2Ev
_ZdlPv
_ZNSs4_Rep10_M_destroyERKSaIcE
_ZNSs4_Rep20_S_empty_rep_storageE
_ZTVSt15basic_stringbufIcSt11char_traitsIcESaIcEE
_ZTVSt15basic_streambufIcSt11char_traitsIcEE
_ZNSt6localeD1Ev
_ZTVSt9basic_iosIcSt11char_traitsIcEE
_ZNSt8ios_baseD2Ev
__stack_chk_fail
__gxx_personality_v0
_ZTVN8UnitTest20DeferredTestReporterE
_ZN8UnitTest12TestReporterD2Ev
_ZTVSt19basic_ostringstreamIcSt11char_traitsIcESaIcEE
_ZTTSt19basic_ostringstreamIcSt11char_traitsIcESaIcEE
_ZNSt19basic_ostringstreamIcSt11char_traitsIcESaIcEED1Ev
_Unwind_Resume
_ZNSt8ios_baseC2Ev
_ZNSt9basic_iosIcSt11char_traitsIcEE4initEPSt15basic_streambufIcS1_E
_ZNSt6localeC1Ev
_ZN8UnitTest11CurrentTest7DetailsEv
_ZN8UnitTest16SignalTranslatorC1Ev
_ZN8UnitTest16SignalTranslator12s_jumpTargetE
__sigsetjmp
_ZN8UnitTest11TestDetailsC1EPKcS2_S2_i
_ZN8UnitTest20DeferredTestReporter15ReportTestStartERKNS_11TestDetailsE
_ZN8UnitTest20DeferredTestReporter13ReportFailureERKNS_11TestDetailsEPKc
_ZN8UnitTest20DeferredTestReporter16ReportTestFinishERKNS_11TestDetailsEf
_ZSt19__throw_logic_errorPKc
__cxa_allocate_exception
_ZTIPKc
__cxa_throw
_ZN8UnitTest16SignalTranslatorD1Ev
__cxa_begin_catch
_ZStlsISt11char_traitsIcEERSt13basic_ostreamIcT_ES5_PKc
_ZNK8UnitTest15MemoryOutStream7GetTextEv
_ZN8UnitTest11CurrentTest7ResultsEv
_ZN8UnitTest11TestResults13OnTestFailureERKNS_11TestDetailsEPKc
__cxa_end_catch
_ZNSs6assignERKSs
_ZN8UnitTest15XmlTestReporter13ReportSummaryEiiif
_ZN8UnitTest11TestDetailsC1ERKS0_i
_ZNSs4_Rep9_S_createEmmRKSaIcE
memcpy
_ZNK8UnitTest15AssertException10LineNumberEv
_ZNK8UnitTest15AssertException8FilenameEv
_ZTISt9exception
_ZTIN8UnitTest15AssertExceptionE
_ZN8UnitTest15XmlTestReporterC1ERSo
_ZNKSs7compareEPKc
_ZSt16__ostream_insertIcSt11char_traitsIcEERSt13basic_ostreamIT_T0_ES6_PKS3_l
strlen
_ZNSt9basic_iosIcSt11char_traitsIcEE5clearESt12_Ios_Iostate
_ZN8UnitTest4TestC2EPKcS2_S2_i
__dso_handle
__cxa_atexit
_ZN8UnitTest4Test11GetTestListEv
_ZN8UnitTest9ListAdderC1ERNS_8TestListEPNS_4TestE
_ZTVN10__cxxabiv120__si_class_type_infoE
_ZTIN8UnitTest4TestE
_ZTISt19basic_ostringstreamIcSt11char_traitsIcESaIcEE
_ZTISo
__pthread_key_create
