   1              		.file	"TestUnitTest++.cpp"
   2              		.section	.text.unlikely,"ax",@progbits
   3              		.align 2
   4              	.LCOLDB0:
   5              		.text
   6              	.LHOTB0:
   7              		.align 2
   8              		.p2align 4,,15
  10              	_ZNK12_GLOBAL__N_122TestValidCheckSucceeds7RunImplEv:
  11              	.LFB1375:
  12              		.cfi_startproc
  13 0000 F3C3     		rep ret
  14              		.cfi_endproc
  15              	.LFE1375:
  17              		.section	.text.unlikely
  18              	.LCOLDE0:
  19              		.text
  20              	.LHOTE0:
  21              		.section	.text.unlikely
  22              		.align 2
  23              	.LCOLDB1:
  24              		.text
  25              	.LHOTB1:
  26              		.align 2
  27 0002 0F1F4000 		.p2align 4,,15
  27      662E0F1F 
  27      84000000 
  27      0000
  29              	_ZNK12_GLOBAL__N_126TestCheckWorksWithPointers7RunImplEv:
  30              	.LFB1379:
  31              		.cfi_startproc
  32 0010 F3C3     		rep ret
  33              		.cfi_endproc
  34              	.LFE1379:
  36              		.section	.text.unlikely
  37              	.LCOLDE1:
  38              		.text
  39              	.LHOTE1:
  40              		.section	.text.unlikely
  41              		.align 2
  42              	.LCOLDB2:
  43              		.text
  44              	.LHOTB2:
  45              		.align 2
  46 0012 0F1F4000 		.p2align 4,,15
  46      662E0F1F 
  46      84000000 
  46      0000
  48              	_ZN12_GLOBAL__N_137TestCanCallCHECKOutsideOfTestFunctionD2Ev:
  49              	.LFB1611:
  50              		.cfi_startproc
  51 0020 48C70700 		movq	$_ZTVN12_GLOBAL__N_137TestCanCallCHECKOutsideOfTestFunctionE+16, (%rdi)
  51      000000
  52 0027 E9000000 		jmp	_ZN8UnitTest4TestD2Ev
  52      00
  53              		.cfi_endproc
  54              	.LFE1611:
  56              		.section	.text.unlikely
  57              	.LCOLDE2:
  58              		.text
  59              	.LHOTE2:
  60              		.set	_ZN12_GLOBAL__N_137TestCanCallCHECKOutsideOfTestFunctionD1Ev,_ZN12_GLOBAL__N_137TestCanCallCH
  61              		.section	.text.unlikely
  62              		.align 2
  63              	.LCOLDB3:
  64              		.text
  65              	.LHOTB3:
  66              		.align 2
  67 002c 0F1F4000 		.p2align 4,,15
  69              	_ZN12_GLOBAL__N_143TestSimpleFixtureOnlyOneFixtureAliveAtATimeD2Ev:
  70              	.LFB1615:
  71              		.cfi_startproc
  72 0030 48C70700 		movq	$_ZTVN12_GLOBAL__N_143TestSimpleFixtureOnlyOneFixtureAliveAtATimeE+16, (%rdi)
  72      000000
  73 0037 E9000000 		jmp	_ZN8UnitTest4TestD2Ev
  73      00
  74              		.cfi_endproc
  75              	.LFE1615:
  77              		.section	.text.unlikely
  78              	.LCOLDE3:
  79              		.text
  80              	.LHOTE3:
  81              		.set	_ZN12_GLOBAL__N_143TestSimpleFixtureOnlyOneFixtureAliveAtATimeD1Ev,_ZN12_GLOBAL__N_143TestSim
  82              		.section	.text.unlikely
  83              		.align 2
  84              	.LCOLDB4:
  85              		.text
  86              	.LHOTB4:
  87              		.align 2
  88 003c 0F1F4000 		.p2align 4,,15
  90              	_ZN12_GLOBAL__N_143TestSimpleFixtureDefaultFixtureCtorIsCalledD2Ev:
  91              	.LFB1619:
  92              		.cfi_startproc
  93 0040 48C70700 		movq	$_ZTVN12_GLOBAL__N_143TestSimpleFixtureDefaultFixtureCtorIsCalledE+16, (%rdi)
  93      000000
  94 0047 E9000000 		jmp	_ZN8UnitTest4TestD2Ev
  94      00
  95              		.cfi_endproc
  96              	.LFE1619:
  98              		.section	.text.unlikely
  99              	.LCOLDE4:
 100              		.text
 101              	.LHOTE4:
 102              		.set	_ZN12_GLOBAL__N_143TestSimpleFixtureDefaultFixtureCtorIsCalledD1Ev,_ZN12_GLOBAL__N_143TestSim
 103              		.section	.text.unlikely
 104              		.align 2
 105              	.LCOLDB5:
 106              		.text
 107              	.LHOTB5:
 108              		.align 2
 109 004c 0F1F4000 		.p2align 4,,15
 111              	_ZN12_GLOBAL__N_140TestCheckThrowMacroFailsOnWrongExceptionD2Ev:
 112              	.LFB1623:
 113              		.cfi_startproc
 114 0050 48C70700 		movq	$_ZTVN12_GLOBAL__N_140TestCheckThrowMacroFailsOnWrongExceptionE+16, (%rdi)
 114      000000
 115 0057 E9000000 		jmp	_ZN8UnitTest4TestD2Ev
 115      00
 116              		.cfi_endproc
 117              	.LFE1623:
 119              		.section	.text.unlikely
 120              	.LCOLDE5:
 121              		.text
 122              	.LHOTE5:
 123              		.set	_ZN12_GLOBAL__N_140TestCheckThrowMacroFailsOnWrongExceptionD1Ev,_ZN12_GLOBAL__N_140TestCheckT
 124              		.section	.text.unlikely
 125              		.align 2
 126              	.LCOLDB6:
 127              		.text
 128              	.LHOTB6:
 129              		.align 2
 130 005c 0F1F4000 		.p2align 4,,15
 132              	_ZZNK12_GLOBAL__N_140TestCheckThrowMacroFailsOnWrongException7RunImplEvEN14WrongThrowTestD2Ev:
 133              	.LFB1627:
 134              		.cfi_startproc
 135 0060 48C70700 		movq	$_ZTVZNK12_GLOBAL__N_140TestCheckThrowMacroFailsOnWrongException7RunImplEvE14WrongThrowTest+1
 135      000000
 136 0067 E9000000 		jmp	_ZN8UnitTest4TestD2Ev
 136      00
 137              		.cfi_endproc
 138              	.LFE1627:
 140              		.section	.text.unlikely
 141              	.LCOLDE6:
 142              		.text
 143              	.LHOTE6:
 144              		.set	_ZZNK12_GLOBAL__N_140TestCheckThrowMacroFailsOnWrongException7RunImplEvEN14WrongThrowTestD1Ev
 145              		.section	.text.unlikely
 146              		.align 2
 147              	.LCOLDB7:
 148              		.text
 149              	.LHOTB7:
 150              		.align 2
 151 006c 0F1F4000 		.p2align 4,,15
 153              	_ZN12_GLOBAL__N_142TestCheckThrowMacroFailsOnMissingExceptionD2Ev:
 154              	.LFB1631:
 155              		.cfi_startproc
 156 0070 48C70700 		movq	$_ZTVN12_GLOBAL__N_142TestCheckThrowMacroFailsOnMissingExceptionE+16, (%rdi)
 156      000000
 157 0077 E9000000 		jmp	_ZN8UnitTest4TestD2Ev
 157      00
 158              		.cfi_endproc
 159              	.LFE1631:
 161              		.section	.text.unlikely
 162              	.LCOLDE7:
 163              		.text
 164              	.LHOTE7:
 165              		.set	_ZN12_GLOBAL__N_142TestCheckThrowMacroFailsOnMissingExceptionD1Ev,_ZN12_GLOBAL__N_142TestChec
 166              		.section	.text.unlikely
 167              		.align 2
 168              	.LCOLDB8:
 169              		.text
 170              	.LHOTB8:
 171              		.align 2
 172 007c 0F1F4000 		.p2align 4,,15
 174              	_ZZNK12_GLOBAL__N_142TestCheckThrowMacroFailsOnMissingException7RunImplEvEN11NoThrowTestD2Ev:
 175              	.LFB1635:
 176              		.cfi_startproc
 177 0080 48C70700 		movq	$_ZTVZNK12_GLOBAL__N_142TestCheckThrowMacroFailsOnMissingException7RunImplEvE11NoThrowTest+16
 177      000000
 178 0087 E9000000 		jmp	_ZN8UnitTest4TestD2Ev
 178      00
 179              		.cfi_endproc
 180              	.LFE1635:
 182              		.section	.text.unlikely
 183              	.LCOLDE8:
 184              		.text
 185              	.LHOTE8:
 186              		.set	_ZZNK12_GLOBAL__N_142TestCheckThrowMacroFailsOnMissingException7RunImplEvEN11NoThrowTestD1Ev,
 187              		.section	.text.unlikely
 188              		.align 2
 189              	.LCOLDB9:
 190              		.text
 191              	.LHOTB9:
 192              		.align 2
 193 008c 0F1F4000 		.p2align 4,,15
 195              	_ZN12_GLOBAL__N_123TestCheckAssertSucceedsD2Ev:
 196              	.LFB1639:
 197              		.cfi_startproc
 198 0090 48C70700 		movq	$_ZTVN12_GLOBAL__N_123TestCheckAssertSucceedsE+16, (%rdi)
 198      000000
 199 0097 E9000000 		jmp	_ZN8UnitTest4TestD2Ev
 199      00
 200              		.cfi_endproc
 201              	.LFE1639:
 203              		.section	.text.unlikely
 204              	.LCOLDE9:
 205              		.text
 206              	.LHOTE9:
 207              		.set	_ZN12_GLOBAL__N_123TestCheckAssertSucceedsD1Ev,_ZN12_GLOBAL__N_123TestCheckAssertSucceedsD2Ev
 208              		.section	.text.unlikely
 209              		.align 2
 210              	.LCOLDB10:
 211              		.text
 212              	.LHOTB10:
 213              		.align 2
 214 009c 0F1F4000 		.p2align 4,,15
 216              	_ZN12_GLOBAL__N_145TestCheckThrowMacroSucceedsOnCorrectExceptionD2Ev:
 217              	.LFB1643:
 218              		.cfi_startproc
 219 00a0 48C70700 		movq	$_ZTVN12_GLOBAL__N_145TestCheckThrowMacroSucceedsOnCorrectExceptionE+16, (%rdi)
 219      000000
 220 00a7 E9000000 		jmp	_ZN8UnitTest4TestD2Ev
 220      00
 221              		.cfi_endproc
 222              	.LFE1643:
 224              		.section	.text.unlikely
 225              	.LCOLDE10:
 226              		.text
 227              	.LHOTE10:
 228              		.set	_ZN12_GLOBAL__N_145TestCheckThrowMacroSucceedsOnCorrectExceptionD1Ev,_ZN12_GLOBAL__N_145TestC
 229              		.section	.text.unlikely
 230              		.align 2
 231              	.LCOLDB11:
 232              		.text
 233              	.LHOTB11:
 234              		.align 2
 235 00ac 0F1F4000 		.p2align 4,,15
 237              	_ZN12_GLOBAL__N_135TestCheckArrayCloseWorksWithVectorsD2Ev:
 238              	.LFB1647:
 239              		.cfi_startproc
 240 00b0 48C70700 		movq	$_ZTVN12_GLOBAL__N_135TestCheckArrayCloseWorksWithVectorsE+16, (%rdi)
 240      000000
 241 00b7 E9000000 		jmp	_ZN8UnitTest4TestD2Ev
 241      00
 242              		.cfi_endproc
 243              	.LFE1647:
 245              		.section	.text.unlikely
 246              	.LCOLDE11:
 247              		.text
 248              	.LHOTE11:
 249              		.set	_ZN12_GLOBAL__N_135TestCheckArrayCloseWorksWithVectorsD1Ev,_ZN12_GLOBAL__N_135TestCheckArrayC
 250              		.section	.text.unlikely
 251              		.align 2
 252              	.LCOLDB12:
 253              		.text
 254              	.LHOTB12:
 255              		.align 2
 256 00bc 0F1F4000 		.p2align 4,,15
 258              	_ZN12_GLOBAL__N_122TestArrayCloseSucceedsD2Ev:
 259              	.LFB1651:
 260              		.cfi_startproc
 261 00c0 48C70700 		movq	$_ZTVN12_GLOBAL__N_122TestArrayCloseSucceedsE+16, (%rdi)
 261      000000
 262 00c7 E9000000 		jmp	_ZN8UnitTest4TestD2Ev
 262      00
 263              		.cfi_endproc
 264              	.LFE1651:
 266              		.section	.text.unlikely
 267              	.LCOLDE12:
 268              		.text
 269              	.LHOTE12:
 270              		.set	_ZN12_GLOBAL__N_122TestArrayCloseSucceedsD1Ev,_ZN12_GLOBAL__N_122TestArrayCloseSucceedsD2Ev
 271              		.section	.text.unlikely
 272              		.align 2
 273              	.LCOLDB13:
 274              		.text
 275              	.LHOTB13:
 276              		.align 2
 277 00cc 0F1F4000 		.p2align 4,,15
 279              	_ZN12_GLOBAL__N_127TestValidCheckCloseSucceedsD2Ev:
 280              	.LFB1655:
 281              		.cfi_startproc
 282 00d0 48C70700 		movq	$_ZTVN12_GLOBAL__N_127TestValidCheckCloseSucceedsE+16, (%rdi)
 282      000000
 283 00d7 E9000000 		jmp	_ZN8UnitTest4TestD2Ev
 283      00
 284              		.cfi_endproc
 285              	.LFE1655:
 287              		.section	.text.unlikely
 288              	.LCOLDE13:
 289              		.text
 290              	.LHOTE13:
 291              		.set	_ZN12_GLOBAL__N_127TestValidCheckCloseSucceedsD1Ev,_ZN12_GLOBAL__N_127TestValidCheckCloseSucc
 292              		.section	.text.unlikely
 293              		.align 2
 294              	.LCOLDB14:
 295              		.text
 296              	.LHOTB14:
 297              		.align 2
 298 00dc 0F1F4000 		.p2align 4,,15
 300              	_ZN12_GLOBAL__N_131TestCheckEqualWorksWithPointersD2Ev:
 301              	.LFB1659:
 302              		.cfi_startproc
 303 00e0 48C70700 		movq	$_ZTVN12_GLOBAL__N_131TestCheckEqualWorksWithPointersE+16, (%rdi)
 303      000000
 304 00e7 E9000000 		jmp	_ZN8UnitTest4TestD2Ev
 304      00
 305              		.cfi_endproc
 306              	.LFE1659:
 308              		.section	.text.unlikely
 309              	.LCOLDE14:
 310              		.text
 311              	.LHOTE14:
 312              		.set	_ZN12_GLOBAL__N_131TestCheckEqualWorksWithPointersD1Ev,_ZN12_GLOBAL__N_131TestCheckEqualWorks
 313              		.section	.text.unlikely
 314              		.align 2
 315              	.LCOLDB15:
 316              		.text
 317              	.LHOTB15:
 318              		.align 2
 319 00ec 0F1F4000 		.p2align 4,,15
 321              	_ZN12_GLOBAL__N_127TestValidCheckEqualSucceedsD2Ev:
 322              	.LFB1663:
 323              		.cfi_startproc
 324 00f0 48C70700 		movq	$_ZTVN12_GLOBAL__N_127TestValidCheckEqualSucceedsE+16, (%rdi)
 324      000000
 325 00f7 E9000000 		jmp	_ZN8UnitTest4TestD2Ev
 325      00
 326              		.cfi_endproc
 327              	.LFE1663:
 329              		.section	.text.unlikely
 330              	.LCOLDE15:
 331              		.text
 332              	.LHOTE15:
 333              		.set	_ZN12_GLOBAL__N_127TestValidCheckEqualSucceedsD1Ev,_ZN12_GLOBAL__N_127TestValidCheckEqualSucc
 334              		.section	.text.unlikely
 335              		.align 2
 336              	.LCOLDB16:
 337              		.text
 338              	.LHOTB16:
 339              		.align 2
 340 00fc 0F1F4000 		.p2align 4,,15
 342              	_ZN12_GLOBAL__N_126TestCheckWorksWithPointersD2Ev:
 343              	.LFB1667:
 344              		.cfi_startproc
 345 0100 48C70700 		movq	$_ZTVN12_GLOBAL__N_126TestCheckWorksWithPointersE+16, (%rdi)
 345      000000
 346 0107 E9000000 		jmp	_ZN8UnitTest4TestD2Ev
 346      00
 347              		.cfi_endproc
 348              	.LFE1667:
 350              		.section	.text.unlikely
 351              	.LCOLDE16:
 352              		.text
 353              	.LHOTE16:
 354              		.set	_ZN12_GLOBAL__N_126TestCheckWorksWithPointersD1Ev,_ZN12_GLOBAL__N_126TestCheckWorksWithPointe
 355              		.section	.text.unlikely
 356              		.align 2
 357              	.LCOLDB17:
 358              		.text
 359              	.LHOTB17:
 360              		.align 2
 361 010c 0F1F4000 		.p2align 4,,15
 363              	_ZN12_GLOBAL__N_122TestValidCheckSucceedsD2Ev:
 364              	.LFB1671:
 365              		.cfi_startproc
 366 0110 48C70700 		movq	$_ZTVN12_GLOBAL__N_122TestValidCheckSucceedsE+16, (%rdi)
 366      000000
 367 0117 E9000000 		jmp	_ZN8UnitTest4TestD2Ev
 367      00
 368              		.cfi_endproc
 369              	.LFE1671:
 371              		.section	.text.unlikely
 372              	.LCOLDE17:
 373              		.text
 374              	.LHOTE17:
 375              		.set	_ZN12_GLOBAL__N_122TestValidCheckSucceedsD1Ev,_ZN12_GLOBAL__N_122TestValidCheckSucceedsD2Ev
 376              		.section	.text.unlikely
 377              		.align 2
 378              	.LCOLDB18:
 379              		.text
 380              	.LHOTB18:
 381              		.align 2
 382 011c 0F1F4000 		.p2align 4,,15
 384              	_ZN12_GLOBAL__N_137TestCanCallCHECKOutsideOfTestFunctionD0Ev:
 385              	.LFB1613:
 386              		.cfi_startproc
 387 0120 53       		pushq	%rbx
 388              		.cfi_def_cfa_offset 16
 389              		.cfi_offset 3, -16
 390 0121 4889FB   		movq	%rdi, %rbx
 391 0124 48C70700 		movq	$_ZTVN12_GLOBAL__N_137TestCanCallCHECKOutsideOfTestFunctionE+16, (%rdi)
 391      000000
 392 012b E8000000 		call	_ZN8UnitTest4TestD2Ev
 392      00
 393 0130 4889DF   		movq	%rbx, %rdi
 394 0133 5B       		popq	%rbx
 395              		.cfi_def_cfa_offset 8
 396 0134 E9000000 		jmp	_ZdlPv
 396      00
 397              		.cfi_endproc
 398              	.LFE1613:
 400              		.section	.text.unlikely
 401              	.LCOLDE18:
 402              		.text
 403              	.LHOTE18:
 404              		.section	.text.unlikely
 405              		.align 2
 406              	.LCOLDB19:
 407              		.text
 408              	.LHOTB19:
 409 0139 90       		.align 2
 410 013a 660F1F44 		.p2align 4,,15
 410      0000
 412              	_ZN12_GLOBAL__N_143TestSimpleFixtureOnlyOneFixtureAliveAtATimeD0Ev:
 413              	.LFB1617:
 414              		.cfi_startproc
 415 0140 53       		pushq	%rbx
 416              		.cfi_def_cfa_offset 16
 417              		.cfi_offset 3, -16
 418 0141 4889FB   		movq	%rdi, %rbx
 419 0144 48C70700 		movq	$_ZTVN12_GLOBAL__N_143TestSimpleFixtureOnlyOneFixtureAliveAtATimeE+16, (%rdi)
 419      000000
 420 014b E8000000 		call	_ZN8UnitTest4TestD2Ev
 420      00
 421 0150 4889DF   		movq	%rbx, %rdi
 422 0153 5B       		popq	%rbx
 423              		.cfi_def_cfa_offset 8
 424 0154 E9000000 		jmp	_ZdlPv
 424      00
 425              		.cfi_endproc
 426              	.LFE1617:
 428              		.section	.text.unlikely
 429              	.LCOLDE19:
 430              		.text
 431              	.LHOTE19:
 432              		.section	.text.unlikely
 433              		.align 2
 434              	.LCOLDB20:
 435              		.text
 436              	.LHOTB20:
 437 0159 90       		.align 2
 438 015a 660F1F44 		.p2align 4,,15
 438      0000
 440              	_ZN12_GLOBAL__N_143TestSimpleFixtureDefaultFixtureCtorIsCalledD0Ev:
 441              	.LFB1621:
 442              		.cfi_startproc
 443 0160 53       		pushq	%rbx
 444              		.cfi_def_cfa_offset 16
 445              		.cfi_offset 3, -16
 446 0161 4889FB   		movq	%rdi, %rbx
 447 0164 48C70700 		movq	$_ZTVN12_GLOBAL__N_143TestSimpleFixtureDefaultFixtureCtorIsCalledE+16, (%rdi)
 447      000000
 448 016b E8000000 		call	_ZN8UnitTest4TestD2Ev
 448      00
 449 0170 4889DF   		movq	%rbx, %rdi
 450 0173 5B       		popq	%rbx
 451              		.cfi_def_cfa_offset 8
 452 0174 E9000000 		jmp	_ZdlPv
 452      00
 453              		.cfi_endproc
 454              	.LFE1621:
 456              		.section	.text.unlikely
 457              	.LCOLDE20:
 458              		.text
 459              	.LHOTE20:
 460              		.section	.text.unlikely
 461              		.align 2
 462              	.LCOLDB21:
 463              		.text
 464              	.LHOTB21:
 465 0179 90       		.align 2
 466 017a 660F1F44 		.p2align 4,,15
 466      0000
 468              	_ZZNK12_GLOBAL__N_140TestCheckThrowMacroFailsOnWrongException7RunImplEvEN14WrongThrowTestD0Ev:
 469              	.LFB1629:
 470              		.cfi_startproc
 471 0180 53       		pushq	%rbx
 472              		.cfi_def_cfa_offset 16
 473              		.cfi_offset 3, -16
 474 0181 4889FB   		movq	%rdi, %rbx
 475 0184 48C70700 		movq	$_ZTVZNK12_GLOBAL__N_140TestCheckThrowMacroFailsOnWrongException7RunImplEvE14WrongThrowTest+1
 475      000000
 476 018b E8000000 		call	_ZN8UnitTest4TestD2Ev
 476      00
 477 0190 4889DF   		movq	%rbx, %rdi
 478 0193 5B       		popq	%rbx
 479              		.cfi_def_cfa_offset 8
 480 0194 E9000000 		jmp	_ZdlPv
 480      00
 481              		.cfi_endproc
 482              	.LFE1629:
 484              		.section	.text.unlikely
 485              	.LCOLDE21:
 486              		.text
 487              	.LHOTE21:
 488              		.section	.text.unlikely
 489              		.align 2
 490              	.LCOLDB22:
 491              		.text
 492              	.LHOTB22:
 493 0199 90       		.align 2
 494 019a 660F1F44 		.p2align 4,,15
 494      0000
 496              	_ZN12_GLOBAL__N_140TestCheckThrowMacroFailsOnWrongExceptionD0Ev:
 497              	.LFB1625:
 498              		.cfi_startproc
 499 01a0 53       		pushq	%rbx
 500              		.cfi_def_cfa_offset 16
 501              		.cfi_offset 3, -16
 502 01a1 4889FB   		movq	%rdi, %rbx
 503 01a4 48C70700 		movq	$_ZTVN12_GLOBAL__N_140TestCheckThrowMacroFailsOnWrongExceptionE+16, (%rdi)
 503      000000
 504 01ab E8000000 		call	_ZN8UnitTest4TestD2Ev
 504      00
 505 01b0 4889DF   		movq	%rbx, %rdi
 506 01b3 5B       		popq	%rbx
 507              		.cfi_def_cfa_offset 8
 508 01b4 E9000000 		jmp	_ZdlPv
 508      00
 509              		.cfi_endproc
 510              	.LFE1625:
 512              		.section	.text.unlikely
 513              	.LCOLDE22:
 514              		.text
 515              	.LHOTE22:
 516              		.section	.text.unlikely
 517              		.align 2
 518              	.LCOLDB23:
 519              		.text
 520              	.LHOTB23:
 521 01b9 90       		.align 2
 522 01ba 660F1F44 		.p2align 4,,15
 522      0000
 524              	_ZZNK12_GLOBAL__N_142TestCheckThrowMacroFailsOnMissingException7RunImplEvEN11NoThrowTestD0Ev:
 525              	.LFB1637:
 526              		.cfi_startproc
 527 01c0 53       		pushq	%rbx
 528              		.cfi_def_cfa_offset 16
 529              		.cfi_offset 3, -16
 530 01c1 4889FB   		movq	%rdi, %rbx
 531 01c4 48C70700 		movq	$_ZTVZNK12_GLOBAL__N_142TestCheckThrowMacroFailsOnMissingException7RunImplEvE11NoThrowTest+16
 531      000000
 532 01cb E8000000 		call	_ZN8UnitTest4TestD2Ev
 532      00
 533 01d0 4889DF   		movq	%rbx, %rdi
 534 01d3 5B       		popq	%rbx
 535              		.cfi_def_cfa_offset 8
 536 01d4 E9000000 		jmp	_ZdlPv
 536      00
 537              		.cfi_endproc
 538              	.LFE1637:
 540              		.section	.text.unlikely
 541              	.LCOLDE23:
 542              		.text
 543              	.LHOTE23:
 544              		.section	.text.unlikely
 545              		.align 2
 546              	.LCOLDB24:
 547              		.text
 548              	.LHOTB24:
 549 01d9 90       		.align 2
 550 01da 660F1F44 		.p2align 4,,15
 550      0000
 552              	_ZN12_GLOBAL__N_142TestCheckThrowMacroFailsOnMissingExceptionD0Ev:
 553              	.LFB1633:
 554              		.cfi_startproc
 555 01e0 53       		pushq	%rbx
 556              		.cfi_def_cfa_offset 16
 557              		.cfi_offset 3, -16
 558 01e1 4889FB   		movq	%rdi, %rbx
 559 01e4 48C70700 		movq	$_ZTVN12_GLOBAL__N_142TestCheckThrowMacroFailsOnMissingExceptionE+16, (%rdi)
 559      000000
 560 01eb E8000000 		call	_ZN8UnitTest4TestD2Ev
 560      00
 561 01f0 4889DF   		movq	%rbx, %rdi
 562 01f3 5B       		popq	%rbx
 563              		.cfi_def_cfa_offset 8
 564 01f4 E9000000 		jmp	_ZdlPv
 564      00
 565              		.cfi_endproc
 566              	.LFE1633:
 568              		.section	.text.unlikely
 569              	.LCOLDE24:
 570              		.text
 571              	.LHOTE24:
 572              		.section	.text.unlikely
 573              		.align 2
 574              	.LCOLDB25:
 575              		.text
 576              	.LHOTB25:
 577 01f9 90       		.align 2
 578 01fa 660F1F44 		.p2align 4,,15
 578      0000
 580              	_ZN12_GLOBAL__N_123TestCheckAssertSucceedsD0Ev:
 581              	.LFB1641:
 582              		.cfi_startproc
 583 0200 53       		pushq	%rbx
 584              		.cfi_def_cfa_offset 16
 585              		.cfi_offset 3, -16
 586 0201 4889FB   		movq	%rdi, %rbx
 587 0204 48C70700 		movq	$_ZTVN12_GLOBAL__N_123TestCheckAssertSucceedsE+16, (%rdi)
 587      000000
 588 020b E8000000 		call	_ZN8UnitTest4TestD2Ev
 588      00
 589 0210 4889DF   		movq	%rbx, %rdi
 590 0213 5B       		popq	%rbx
 591              		.cfi_def_cfa_offset 8
 592 0214 E9000000 		jmp	_ZdlPv
 592      00
 593              		.cfi_endproc
 594              	.LFE1641:
 596              		.section	.text.unlikely
 597              	.LCOLDE25:
 598              		.text
 599              	.LHOTE25:
 600              		.section	.text.unlikely
 601              		.align 2
 602              	.LCOLDB26:
 603              		.text
 604              	.LHOTB26:
 605 0219 90       		.align 2
 606 021a 660F1F44 		.p2align 4,,15
 606      0000
 608              	_ZN12_GLOBAL__N_145TestCheckThrowMacroSucceedsOnCorrectExceptionD0Ev:
 609              	.LFB1645:
 610              		.cfi_startproc
 611 0220 53       		pushq	%rbx
 612              		.cfi_def_cfa_offset 16
 613              		.cfi_offset 3, -16
 614 0221 4889FB   		movq	%rdi, %rbx
 615 0224 48C70700 		movq	$_ZTVN12_GLOBAL__N_145TestCheckThrowMacroSucceedsOnCorrectExceptionE+16, (%rdi)
 615      000000
 616 022b E8000000 		call	_ZN8UnitTest4TestD2Ev
 616      00
 617 0230 4889DF   		movq	%rbx, %rdi
 618 0233 5B       		popq	%rbx
 619              		.cfi_def_cfa_offset 8
 620 0234 E9000000 		jmp	_ZdlPv
 620      00
 621              		.cfi_endproc
 622              	.LFE1645:
 624              		.section	.text.unlikely
 625              	.LCOLDE26:
 626              		.text
 627              	.LHOTE26:
 628              		.section	.text.unlikely
 629              		.align 2
 630              	.LCOLDB27:
 631              		.text
 632              	.LHOTB27:
 633 0239 90       		.align 2
 634 023a 660F1F44 		.p2align 4,,15
 634      0000
 636              	_ZN12_GLOBAL__N_135TestCheckArrayCloseWorksWithVectorsD0Ev:
 637              	.LFB1649:
 638              		.cfi_startproc
 639 0240 53       		pushq	%rbx
 640              		.cfi_def_cfa_offset 16
 641              		.cfi_offset 3, -16
 642 0241 4889FB   		movq	%rdi, %rbx
 643 0244 48C70700 		movq	$_ZTVN12_GLOBAL__N_135TestCheckArrayCloseWorksWithVectorsE+16, (%rdi)
 643      000000
 644 024b E8000000 		call	_ZN8UnitTest4TestD2Ev
 644      00
 645 0250 4889DF   		movq	%rbx, %rdi
 646 0253 5B       		popq	%rbx
 647              		.cfi_def_cfa_offset 8
 648 0254 E9000000 		jmp	_ZdlPv
 648      00
 649              		.cfi_endproc
 650              	.LFE1649:
 652              		.section	.text.unlikely
 653              	.LCOLDE27:
 654              		.text
 655              	.LHOTE27:
 656              		.section	.text.unlikely
 657              		.align 2
 658              	.LCOLDB28:
 659              		.text
 660              	.LHOTB28:
 661 0259 90       		.align 2
 662 025a 660F1F44 		.p2align 4,,15
 662      0000
 664              	_ZN12_GLOBAL__N_122TestArrayCloseSucceedsD0Ev:
 665              	.LFB1653:
 666              		.cfi_startproc
 667 0260 53       		pushq	%rbx
 668              		.cfi_def_cfa_offset 16
 669              		.cfi_offset 3, -16
 670 0261 4889FB   		movq	%rdi, %rbx
 671 0264 48C70700 		movq	$_ZTVN12_GLOBAL__N_122TestArrayCloseSucceedsE+16, (%rdi)
 671      000000
 672 026b E8000000 		call	_ZN8UnitTest4TestD2Ev
 672      00
 673 0270 4889DF   		movq	%rbx, %rdi
 674 0273 5B       		popq	%rbx
 675              		.cfi_def_cfa_offset 8
 676 0274 E9000000 		jmp	_ZdlPv
 676      00
 677              		.cfi_endproc
 678              	.LFE1653:
 680              		.section	.text.unlikely
 681              	.LCOLDE28:
 682              		.text
 683              	.LHOTE28:
 684              		.section	.text.unlikely
 685              		.align 2
 686              	.LCOLDB29:
 687              		.text
 688              	.LHOTB29:
 689 0279 90       		.align 2
 690 027a 660F1F44 		.p2align 4,,15
 690      0000
 692              	_ZN12_GLOBAL__N_127TestValidCheckCloseSucceedsD0Ev:
 693              	.LFB1657:
 694              		.cfi_startproc
 695 0280 53       		pushq	%rbx
 696              		.cfi_def_cfa_offset 16
 697              		.cfi_offset 3, -16
 698 0281 4889FB   		movq	%rdi, %rbx
 699 0284 48C70700 		movq	$_ZTVN12_GLOBAL__N_127TestValidCheckCloseSucceedsE+16, (%rdi)
 699      000000
 700 028b E8000000 		call	_ZN8UnitTest4TestD2Ev
 700      00
 701 0290 4889DF   		movq	%rbx, %rdi
 702 0293 5B       		popq	%rbx
 703              		.cfi_def_cfa_offset 8
 704 0294 E9000000 		jmp	_ZdlPv
 704      00
 705              		.cfi_endproc
 706              	.LFE1657:
 708              		.section	.text.unlikely
 709              	.LCOLDE29:
 710              		.text
 711              	.LHOTE29:
 712              		.section	.text.unlikely
 713              		.align 2
 714              	.LCOLDB30:
 715              		.text
 716              	.LHOTB30:
 717 0299 90       		.align 2
 718 029a 660F1F44 		.p2align 4,,15
 718      0000
 720              	_ZN12_GLOBAL__N_131TestCheckEqualWorksWithPointersD0Ev:
 721              	.LFB1661:
 722              		.cfi_startproc
 723 02a0 53       		pushq	%rbx
 724              		.cfi_def_cfa_offset 16
 725              		.cfi_offset 3, -16
 726 02a1 4889FB   		movq	%rdi, %rbx
 727 02a4 48C70700 		movq	$_ZTVN12_GLOBAL__N_131TestCheckEqualWorksWithPointersE+16, (%rdi)
 727      000000
 728 02ab E8000000 		call	_ZN8UnitTest4TestD2Ev
 728      00
 729 02b0 4889DF   		movq	%rbx, %rdi
 730 02b3 5B       		popq	%rbx
 731              		.cfi_def_cfa_offset 8
 732 02b4 E9000000 		jmp	_ZdlPv
 732      00
 733              		.cfi_endproc
 734              	.LFE1661:
 736              		.section	.text.unlikely
 737              	.LCOLDE30:
 738              		.text
 739              	.LHOTE30:
 740              		.section	.text.unlikely
 741              		.align 2
 742              	.LCOLDB31:
 743              		.text
 744              	.LHOTB31:
 745 02b9 90       		.align 2
 746 02ba 660F1F44 		.p2align 4,,15
 746      0000
 748              	_ZN12_GLOBAL__N_127TestValidCheckEqualSucceedsD0Ev:
 749              	.LFB1665:
 750              		.cfi_startproc
 751 02c0 53       		pushq	%rbx
 752              		.cfi_def_cfa_offset 16
 753              		.cfi_offset 3, -16
 754 02c1 4889FB   		movq	%rdi, %rbx
 755 02c4 48C70700 		movq	$_ZTVN12_GLOBAL__N_127TestValidCheckEqualSucceedsE+16, (%rdi)
 755      000000
 756 02cb E8000000 		call	_ZN8UnitTest4TestD2Ev
 756      00
 757 02d0 4889DF   		movq	%rbx, %rdi
 758 02d3 5B       		popq	%rbx
 759              		.cfi_def_cfa_offset 8
 760 02d4 E9000000 		jmp	_ZdlPv
 760      00
 761              		.cfi_endproc
 762              	.LFE1665:
 764              		.section	.text.unlikely
 765              	.LCOLDE31:
 766              		.text
 767              	.LHOTE31:
 768              		.section	.text.unlikely
 769              		.align 2
 770              	.LCOLDB32:
 771              		.text
 772              	.LHOTB32:
 773 02d9 90       		.align 2
 774 02da 660F1F44 		.p2align 4,,15
 774      0000
 776              	_ZN12_GLOBAL__N_126TestCheckWorksWithPointersD0Ev:
 777              	.LFB1669:
 778              		.cfi_startproc
 779 02e0 53       		pushq	%rbx
 780              		.cfi_def_cfa_offset 16
 781              		.cfi_offset 3, -16
 782 02e1 4889FB   		movq	%rdi, %rbx
 783 02e4 48C70700 		movq	$_ZTVN12_GLOBAL__N_126TestCheckWorksWithPointersE+16, (%rdi)
 783      000000
 784 02eb E8000000 		call	_ZN8UnitTest4TestD2Ev
 784      00
 785 02f0 4889DF   		movq	%rbx, %rdi
 786 02f3 5B       		popq	%rbx
 787              		.cfi_def_cfa_offset 8
 788 02f4 E9000000 		jmp	_ZdlPv
 788      00
 789              		.cfi_endproc
 790              	.LFE1669:
 792              		.section	.text.unlikely
 793              	.LCOLDE32:
 794              		.text
 795              	.LHOTE32:
 796              		.section	.text.unlikely
 797              		.align 2
 798              	.LCOLDB33:
 799              		.text
 800              	.LHOTB33:
 801 02f9 90       		.align 2
 802 02fa 660F1F44 		.p2align 4,,15
 802      0000
 804              	_ZN12_GLOBAL__N_122TestValidCheckSucceedsD0Ev:
 805              	.LFB1673:
 806              		.cfi_startproc
 807 0300 53       		pushq	%rbx
 808              		.cfi_def_cfa_offset 16
 809              		.cfi_offset 3, -16
 810 0301 4889FB   		movq	%rdi, %rbx
 811 0304 48C70700 		movq	$_ZTVN12_GLOBAL__N_122TestValidCheckSucceedsE+16, (%rdi)
 811      000000
 812 030b E8000000 		call	_ZN8UnitTest4TestD2Ev
 812      00
 813 0310 4889DF   		movq	%rbx, %rdi
 814 0313 5B       		popq	%rbx
 815              		.cfi_def_cfa_offset 8
 816 0314 E9000000 		jmp	_ZdlPv
 816      00
 817              		.cfi_endproc
 818              	.LFE1673:
 820              		.section	.text.unlikely
 821              	.LCOLDE33:
 822              		.text
 823              	.LHOTE33:
 824              		.section	.rodata.str1.8,"aMS",@progbits,1
 825              		.align 8
 826              	.LC34:
 827 0000 45787065 		.string	"Expected exception: \"int\" not thrown"
 827      63746564 
 827      20657863 
 827      65707469 
 827      6F6E3A20 
 828              		.section	.text.unlikely
 829              		.align 2
 830              	.LCOLDB35:
 831              		.text
 832              	.LHOTB35:
 833 0319 90       		.align 2
 834 031a 660F1F44 		.p2align 4,,15
 834      0000
 836              	_ZZNK12_GLOBAL__N_142TestCheckThrowMacroFailsOnMissingException7RunImplEvENK11NoThrowTest7RunImplEv
 837              	.LFB1416:
 838              		.cfi_startproc
 839 0320 4883EC38 		subq	$56, %rsp
 840              		.cfi_def_cfa_offset 64
 841 0324 64488B04 		movq	%fs:40, %rax
 841      25280000 
 841      00
 842 032d 48894424 		movq	%rax, 40(%rsp)
 842      28
 843 0332 31C0     		xorl	%eax, %eax
 844 0334 E8000000 		call	_ZN8UnitTest11CurrentTest7DetailsEv
 844      00
 845 0339 488B30   		movq	(%rax), %rsi
 846 033c BA520000 		movl	$82, %edx
 846      00
 847 0341 4889E7   		movq	%rsp, %rdi
 848 0344 E8000000 		call	_ZN8UnitTest11TestDetailsC1ERKS0_i
 848      00
 849 0349 E8000000 		call	_ZN8UnitTest11CurrentTest7ResultsEv
 849      00
 850 034e 488B38   		movq	(%rax), %rdi
 851 0351 BA000000 		movl	$.LC34, %edx
 851      00
 852 0356 4889E6   		movq	%rsp, %rsi
 853 0359 E8000000 		call	_ZN8UnitTest11TestResults13OnTestFailureERKNS_11TestDetailsEPKc
 853      00
 854 035e 488B4424 		movq	40(%rsp), %rax
 854      28
 855 0363 64483304 		xorq	%fs:40, %rax
 855      25280000 
 855      00
 856 036c 7505     		jne	.L55
 857 036e 4883C438 		addq	$56, %rsp
 858              		.cfi_remember_state
 859              		.cfi_def_cfa_offset 8
 860 0372 C3       		ret
 861              	.L55:
 862              		.cfi_restore_state
 863 0373 E8000000 		call	__stack_chk_fail
 863      00
 864              		.cfi_endproc
 865              	.LFE1416:
 867              		.section	.text.unlikely
 868              	.LCOLDE35:
 869              		.text
 870              	.LHOTE35:
 871              		.section	.rodata.str1.1,"aMS",@progbits,1
 872              	.LC36:
 873 0000 6F6F7073 		.string	"oops"
 873      00
 874              		.section	.text.unlikely
 875              		.align 2
 876              	.LCOLDB37:
 877              		.text
 878              	.LHOTB37:
 879              		.align 2
 880 0378 0F1F8400 		.p2align 4,,15
 880      00000000 
 882              	_ZZNK12_GLOBAL__N_140TestCheckThrowMacroFailsOnWrongException7RunImplEvENK14WrongThrowTest7RunImplE
 883              	.LFB1424:
 884              		.cfi_startproc
 885              		.cfi_personality 0x3,__gxx_personality_v0
 886              		.cfi_lsda 0x3,.LLSDA1424
 887 0380 4883EC38 		subq	$56, %rsp
 888              		.cfi_def_cfa_offset 64
 889 0384 BF080000 		movl	$8, %edi
 889      00
 890 0389 64488B04 		movq	%fs:40, %rax
 890      25280000 
 890      00
 891 0392 48894424 		movq	%rax, 40(%rsp)
 891      28
 892 0397 31C0     		xorl	%eax, %eax
 893 0399 E8000000 		call	__cxa_allocate_exception
 893      00
 894 039e 31D2     		xorl	%edx, %edx
 895 03a0 48C70000 		movq	$.LC36, (%rax)
 895      000000
 896 03a7 BE000000 		movl	$_ZTIPKc, %esi
 896      00
 897 03ac 4889C7   		movq	%rax, %rdi
 898              	.LEHB0:
 899 03af E8000000 		call	__cxa_throw
 899      00
 900              	.LEHE0:
 901              	.L62:
 902 03b4 4883EA01 		subq	$1, %rdx
 903 03b8 4889C7   		movq	%rax, %rdi
 904 03bb 751F     		jne	.L63
 905 03bd E8000000 		call	__cxa_begin_catch
 905      00
 906 03c2 E8000000 		call	__cxa_end_catch
 906      00
 907              	.L56:
 908 03c7 488B4424 		movq	40(%rsp), %rax
 908      28
 909 03cc 64483304 		xorq	%fs:40, %rax
 909      25280000 
 909      00
 910 03d5 753B     		jne	.L65
 911 03d7 4883C438 		addq	$56, %rsp
 912              		.cfi_remember_state
 913              		.cfi_def_cfa_offset 8
 914 03db C3       		ret
 915              	.L63:
 916              		.cfi_restore_state
 917 03dc E8000000 		call	__cxa_begin_catch
 917      00
 918              	.LEHB1:
 919 03e1 E8000000 		call	__cxa_end_catch
 919      00
 920 03e6 E8000000 		call	_ZN8UnitTest11CurrentTest7DetailsEv
 920      00
 921 03eb 488B30   		movq	(%rax), %rsi
 922 03ee 4889E7   		movq	%rsp, %rdi
 923 03f1 BA690000 		movl	$105, %edx
 923      00
 924 03f6 E8000000 		call	_ZN8UnitTest11TestDetailsC1ERKS0_i
 924      00
 925 03fb E8000000 		call	_ZN8UnitTest11CurrentTest7ResultsEv
 925      00
 926 0400 488B38   		movq	(%rax), %rdi
 927 0403 BA000000 		movl	$.LC34, %edx
 927      00
 928 0408 4889E6   		movq	%rsp, %rsi
 929 040b E8000000 		call	_ZN8UnitTest11TestResults13OnTestFailureERKNS_11TestDetailsEPKc
 929      00
 930              	.LEHE1:
 931 0410 EBB5     		jmp	.L56
 932              	.L65:
 933 0412 E8000000 		call	__stack_chk_fail
 933      00
 934              		.cfi_endproc
 935              	.LFE1424:
 936              		.globl	__gxx_personality_v0
 937              		.section	.gcc_except_table,"a",@progbits
 938              		.align 4
 939              	.LLSDA1424:
 940 0000 FF       		.byte	0xff
 941 0001 03       		.byte	0x3
 942 0002 19       		.uleb128 .LLSDATT1424-.LLSDATTD1424
 943              	.LLSDATTD1424:
 944 0003 01       		.byte	0x1
 945 0004 08       		.uleb128 .LLSDACSE1424-.LLSDACSB1424
 946              	.LLSDACSB1424:
 947 0005 2F       		.uleb128 .LEHB0-.LFB1424
 948 0006 05       		.uleb128 .LEHE0-.LEHB0
 949 0007 34       		.uleb128 .L62-.LFB1424
 950 0008 03       		.uleb128 0x3
 951 0009 61       		.uleb128 .LEHB1-.LFB1424
 952 000a 2F       		.uleb128 .LEHE1-.LEHB1
 953 000b 00       		.uleb128 0
 954 000c 00       		.uleb128 0
 955              	.LLSDACSE1424:
 956 000d 02       		.byte	0x2
 957 000e 00       		.byte	0
 958 000f 01       		.byte	0x1
 959 0010 7D       		.byte	0x7d
 960 0011 000000   		.align 4
 961 0014 00000000 		.long	0
 962              	
 963 0018 00000000 		.long	_ZTIi
 964              	.LLSDATT1424:
 965              		.text
 967              		.section	.text.unlikely
 968              	.LCOLDE37:
 969              		.text
 970              	.LHOTE37:
 971              		.section	.rodata.str1.8
 972 0025 000000   		.align 8
 973              	.LC38:
 974 0028 45787065 		.string	"Expected exception: \"TestException\" not thrown"
 974      63746564 
 974      20657863 
 974      65707469 
 974      6F6E3A20 
 975              		.section	.text.unlikely
 976              		.align 2
 977              	.LCOLDB39:
 978              		.text
 979              	.LHOTB39:
 980 0417 90       		.align 2
 981 0418 0F1F8400 		.p2align 4,,15
 981      00000000 
 983              	_ZNK12_GLOBAL__N_145TestCheckThrowMacroSucceedsOnCorrectException7RunImplEv:
 984              	.LFB1403:
 985              		.cfi_startproc
 986              		.cfi_personality 0x3,__gxx_personality_v0
 987              		.cfi_lsda 0x3,.LLSDA1403
 988 0420 4883EC38 		subq	$56, %rsp
 989              		.cfi_def_cfa_offset 64
 990 0424 BF010000 		movl	$1, %edi
 990      00
 991 0429 64488B04 		movq	%fs:40, %rax
 991      25280000 
 991      00
 992 0432 48894424 		movq	%rax, 40(%rsp)
 992      28
 993 0437 31C0     		xorl	%eax, %eax
 994 0439 E8000000 		call	__cxa_allocate_exception
 994      00
 995 043e 31D2     		xorl	%edx, %edx
 996 0440 BE000000 		movl	$_ZTIZNK12_GLOBAL__N_145TestCheckThrowMacroSucceedsOnCorrectException7RunImplEvE13TestExcepti
 996      00
 997 0445 4889C7   		movq	%rax, %rdi
 998              	.LEHB2:
 999 0448 E8000000 		call	__cxa_throw
 999      00
 1000              	.LEHE2:
 1001              	.L72:
 1002 044d 4883EA01 		subq	$1, %rdx
 1003 0451 4889C7   		movq	%rax, %rdi
 1004 0454 751F     		jne	.L73
 1005 0456 E8000000 		call	__cxa_begin_catch
 1005      00
 1006 045b E8000000 		call	__cxa_end_catch
 1006      00
 1007              	.L66:
 1008 0460 488B4424 		movq	40(%rsp), %rax
 1008      28
 1009 0465 64483304 		xorq	%fs:40, %rax
 1009      25280000 
 1009      00
 1010 046e 753B     		jne	.L75
 1011 0470 4883C438 		addq	$56, %rsp
 1012              		.cfi_remember_state
 1013              		.cfi_def_cfa_offset 8
 1014 0474 C3       		ret
 1015              	.L73:
 1016              		.cfi_restore_state
 1017 0475 E8000000 		call	__cxa_begin_catch
 1017      00
 1018              	.LEHB3:
 1019 047a E8000000 		call	__cxa_end_catch
 1019      00
 1020 047f E8000000 		call	_ZN8UnitTest11CurrentTest7DetailsEv
 1020      00
 1021 0484 488B30   		movq	(%rax), %rsi
 1022 0487 4889E7   		movq	%rsp, %rdi
 1023 048a BA3E0000 		movl	$62, %edx
 1023      00
 1024 048f E8000000 		call	_ZN8UnitTest11TestDetailsC1ERKS0_i
 1024      00
 1025 0494 E8000000 		call	_ZN8UnitTest11CurrentTest7ResultsEv
 1025      00
 1026 0499 488B38   		movq	(%rax), %rdi
 1027 049c BA000000 		movl	$.LC38, %edx
 1027      00
 1028 04a1 4889E6   		movq	%rsp, %rsi
 1029 04a4 E8000000 		call	_ZN8UnitTest11TestResults13OnTestFailureERKNS_11TestDetailsEPKc
 1029      00
 1030              	.LEHE3:
 1031 04a9 EBB5     		jmp	.L66
 1032              	.L75:
 1033 04ab E8000000 		call	__stack_chk_fail
 1033      00
 1034              		.cfi_endproc
 1035              	.LFE1403:
 1036              		.section	.gcc_except_table
 1037              		.align 4
 1038              	.LLSDA1403:
 1039 001c FF       		.byte	0xff
 1040 001d 03       		.byte	0x3
 1041 001e 19       		.uleb128 .LLSDATT1403-.LLSDATTD1403
 1042              	.LLSDATTD1403:
 1043 001f 01       		.byte	0x1
 1044 0020 08       		.uleb128 .LLSDACSE1403-.LLSDACSB1403
 1045              	.LLSDACSB1403:
 1046 0021 28       		.uleb128 .LEHB2-.LFB1403
 1047 0022 05       		.uleb128 .LEHE2-.LEHB2
 1048 0023 2D       		.uleb128 .L72-.LFB1403
 1049 0024 03       		.uleb128 0x3
 1050 0025 5A       		.uleb128 .LEHB3-.LFB1403
 1051 0026 2F       		.uleb128 .LEHE3-.LEHB3
 1052 0027 00       		.uleb128 0
 1053 0028 00       		.uleb128 0
 1054              	.LLSDACSE1403:
 1055 0029 02       		.byte	0x2
 1056 002a 00       		.byte	0
 1057 002b 01       		.byte	0x1
 1058 002c 7D       		.byte	0x7d
 1059 002d 000000   		.align 4
 1060 0030 00000000 		.long	0
 1061              	
 1062 0034 00000000 		.long	_ZTIZNK12_GLOBAL__N_145TestCheckThrowMacroSucceedsOnCorrectException7RunImplEvE13TestExcepti
 1063              	.LLSDATT1403:
 1064              		.text
 1066              		.section	.text.unlikely
 1067              	.LCOLDE39:
 1068              		.text
 1069              	.LHOTE39:
 1070              		.section	.rodata.str1.1
 1071              	.LC40:
 1072 0005 66696C65 		.string	"file"
 1072      00
 1073              	.LC41:
 1074 000a 64657363 		.string	"desc"
 1074      00
 1075              		.section	.rodata.str1.8
 1076 0057 00       		.align 8
 1077              	.LC42:
 1078 0058 45787065 		.string	"Expected exception: \"UnitTest::AssertException\" not thrown"
 1078      63746564 
 1078      20657863 
 1078      65707469 
 1078      6F6E3A20 
 1079              		.section	.text.unlikely
 1080              		.align 2
 1081              	.LCOLDB43:
 1082              		.text
 1083              	.LHOTB43:
 1084              		.align 2
 1085              		.p2align 4,,15
 1087              	_ZNK12_GLOBAL__N_123TestCheckAssertSucceeds7RunImplEv:
 1088              	.LFB1407:
 1089              		.cfi_startproc
 1090              		.cfi_personality 0x3,__gxx_personality_v0
 1091              		.cfi_lsda 0x3,.LLSDA1407
 1092 04b0 4883EC38 		subq	$56, %rsp
 1093              		.cfi_def_cfa_offset 64
 1094 04b4 31D2     		xorl	%edx, %edx
 1095 04b6 BE000000 		movl	$.LC40, %esi
 1095      00
 1096 04bb BF000000 		movl	$.LC41, %edi
 1096      00
 1097 04c0 64488B04 		movq	%fs:40, %rax
 1097      25280000 
 1097      00
 1098 04c9 48894424 		movq	%rax, 40(%rsp)
 1098      28
 1099 04ce 31C0     		xorl	%eax, %eax
 1100              	.LEHB4:
 1101 04d0 E8000000 		call	_ZN8UnitTest12ReportAssertEPKcS1_i
 1101      00
 1102              	.LEHE4:
 1103              	.L77:
 1104              	.LEHB5:
 1105 04d5 E8000000 		call	_ZN8UnitTest11CurrentTest7DetailsEv
 1105      00
 1106 04da 488B30   		movq	(%rax), %rsi
 1107 04dd BA430000 		movl	$67, %edx
 1107      00
 1108 04e2 4889E7   		movq	%rsp, %rdi
 1109 04e5 E8000000 		call	_ZN8UnitTest11TestDetailsC1ERKS0_i
 1109      00
 1110 04ea E8000000 		call	_ZN8UnitTest11CurrentTest7ResultsEv
 1110      00
 1111 04ef 488B38   		movq	(%rax), %rdi
 1112 04f2 BA000000 		movl	$.LC42, %edx
 1112      00
 1113 04f7 4889E6   		movq	%rsp, %rsi
 1114 04fa E8000000 		call	_ZN8UnitTest11TestResults13OnTestFailureERKNS_11TestDetailsEPKc
 1114      00
 1115              	.L76:
 1116 04ff 488B4424 		movq	40(%rsp), %rax
 1116      28
 1117 0504 64483304 		xorq	%fs:40, %rax
 1117      25280000 
 1117      00
 1118 050d 7505     		jne	.L86
 1119 050f 4883C438 		addq	$56, %rsp
 1120              		.cfi_remember_state
 1121              		.cfi_def_cfa_offset 8
 1122 0513 C3       		ret
 1123              	.L86:
 1124              		.cfi_restore_state
 1125 0514 E8000000 		call	__stack_chk_fail
 1125      00
 1126              	.L83:
 1127 0519 4883EA01 		subq	$1, %rdx
 1128 051d 4889C7   		movq	%rax, %rdi
 1129 0520 750C     		jne	.L84
 1130 0522 E8000000 		call	__cxa_begin_catch
 1130      00
 1131 0527 E8000000 		call	__cxa_end_catch
 1131      00
 1132 052c EBD1     		jmp	.L76
 1133              	.L84:
 1134 052e E8000000 		call	__cxa_begin_catch
 1134      00
 1135 0533 E8000000 		call	__cxa_end_catch
 1135      00
 1136              	.LEHE5:
 1137 0538 EB9B     		jmp	.L77
 1138              		.cfi_endproc
 1139              	.LFE1407:
 1140              		.section	.gcc_except_table
 1141              		.align 4
 1142              	.LLSDA1407:
 1143 0038 FF       		.byte	0xff
 1144 0039 03       		.byte	0x3
 1145 003a 19       		.uleb128 .LLSDATT1407-.LLSDATTD1407
 1146              	.LLSDATTD1407:
 1147 003b 01       		.byte	0x1
 1148 003c 08       		.uleb128 .LLSDACSE1407-.LLSDACSB1407
 1149              	.LLSDACSB1407:
 1150 003d 20       		.uleb128 .LEHB4-.LFB1407
 1151 003e 05       		.uleb128 .LEHE4-.LEHB4
 1152 003f 69       		.uleb128 .L83-.LFB1407
 1153 0040 03       		.uleb128 0x3
 1154 0041 25       		.uleb128 .LEHB5-.LFB1407
 1155 0042 63       		.uleb128 .LEHE5-.LEHB5
 1156 0043 00       		.uleb128 0
 1157 0044 00       		.uleb128 0
 1158              	.LLSDACSE1407:
 1159 0045 02       		.byte	0x2
 1160 0046 00       		.byte	0
 1161 0047 01       		.byte	0x1
 1162 0048 7D       		.byte	0x7d
 1163 0049 000000   		.align 4
 1164 004c 00000000 		.long	0
 1165              	
 1166 0050 00000000 		.long	_ZTIN8UnitTest15AssertExceptionE
 1167              	.LLSDATT1407:
 1168              		.text
 1170              		.section	.text.unlikely
 1171              	.LCOLDE43:
 1172              		.text
 1173              	.LHOTE43:
 1174              		.section	.text.unlikely
 1175              		.align 2
 1176              	.LCOLDB44:
 1177              		.text
 1178              	.LHOTB44:
 1179              		.align 2
 1180 053a 660F1F44 		.p2align 4,,15
 1180      0000
 1182              	_ZNK12_GLOBAL__N_137TestCanCallCHECKOutsideOfTestFunction7RunImplEv:
 1183              	.LFB1457:
 1184              		.cfi_startproc
 1185 0540 F3C3     		rep ret
 1186              		.cfi_endproc
 1187              	.LFE1457:
 1189              		.section	.text.unlikely
 1190              	.LCOLDE44:
 1191              		.text
 1192              	.LHOTE44:
 1193              		.section	.text.unlikely._ZN8UnitTest15MemoryOutStreamD1Ev,"axG",@progbits,_ZN8UnitTest15MemoryOutS
 1194              		.align 2
 1195              	.LCOLDB45:
 1196              		.section	.text._ZN8UnitTest15MemoryOutStreamD1Ev,"axG",@progbits,_ZN8UnitTest15MemoryOutStreamD1Ev
 1197              	.LHOTB45:
 1198              		.align 2
 1199              		.p2align 4,,15
 1200              		.weak	_ZN8UnitTest15MemoryOutStreamD1Ev
 1202              	_ZN8UnitTest15MemoryOutStreamD1Ev:
 1203              	.LFB1676:
 1204              		.cfi_startproc
 1205 0000 53       		pushq	%rbx
 1206              		.cfi_def_cfa_offset 16
 1207              		.cfi_offset 3, -16
 1208 0001 4889FB   		movq	%rdi, %rbx
 1209 0004 4883EC10 		subq	$16, %rsp
 1210              		.cfi_def_cfa_offset 32
 1211 0008 48C70700 		movq	$_ZTVN8UnitTest15MemoryOutStreamE+24, (%rdi)
 1211      000000
 1212 000f 48C74760 		movq	$_ZTVN8UnitTest15MemoryOutStreamE+64, 96(%rdi)
 1212      00000000 
 1213 0017 64488B04 		movq	%fs:40, %rax
 1213      25280000 
 1213      00
 1214 0020 48894424 		movq	%rax, 8(%rsp)
 1214      08
 1215 0025 31C0     		xorl	%eax, %eax
 1216 0027 488B4758 		movq	88(%rdi), %rax
 1217 002b 488D78E8 		leaq	-24(%rax), %rdi
 1218 002f 4881FF00 		cmpq	$_ZNSs4_Rep20_S_empty_rep_storageE, %rdi
 1218      000000
 1219 0036 7568     		jne	.L101
 1220              	.L90:
 1221 0038 488B4350 		movq	80(%rbx), %rax
 1222 003c 48C70300 		movq	$_ZTCN8UnitTest15MemoryOutStreamE0_St19basic_ostringstreamIcSt11char_traitsIcESaIcEE+24, (%rb
 1222      000000
 1223 0043 48C74360 		movq	$_ZTCN8UnitTest15MemoryOutStreamE0_St19basic_ostringstreamIcSt11char_traitsIcESaIcEE+64, 96(%
 1223      00000000 
 1224 004b 48C74308 		movq	$_ZTVSt15basic_stringbufIcSt11char_traitsIcESaIcEE+16, 8(%rbx)
 1224      00000000 
 1225 0053 488D78E8 		leaq	-24(%rax), %rdi
 1226 0057 4881FF00 		cmpq	$_ZNSs4_Rep20_S_empty_rep_storageE, %rdi
 1226      000000
 1227 005e 7570     		jne	.L102
 1228              	.L95:
 1229 0060 488D7B40 		leaq	64(%rbx), %rdi
 1230 0064 48C74308 		movq	$_ZTVSt15basic_streambufIcSt11char_traitsIcEE+16, 8(%rbx)
 1230      00000000 
 1231 006c E8000000 		call	_ZNSt6localeD1Ev
 1231      00
 1232 0071 488D7B60 		leaq	96(%rbx), %rdi
 1233 0075 48C74360 		movq	$_ZTVSt9basic_iosIcSt11char_traitsIcEE+16, 96(%rbx)
 1233      00000000 
 1234 007d E8000000 		call	_ZNSt8ios_baseD2Ev
 1234      00
 1235 0082 488B4424 		movq	8(%rsp), %rax
 1235      08
 1236 0087 64483304 		xorq	%fs:40, %rax
 1236      25280000 
 1236      00
 1237 0090 0F858700 		jne	.L103
 1237      0000
 1238 0096 4883C410 		addq	$16, %rsp
 1239              		.cfi_remember_state
 1240              		.cfi_def_cfa_offset 16
 1241 009a 5B       		popq	%rbx
 1242              		.cfi_def_cfa_offset 8
 1243 009b C3       		ret
 1244 009c 0F1F4000 		.p2align 4,,10
 1245              		.p2align 3
 1246              	.L101:
 1247              		.cfi_restore_state
 1248 00a0 BA000000 		movl	$_ZL28__gthrw___pthread_key_createPjPFvPvE, %edx
 1248      00
 1249 00a5 4885D2   		testq	%rdx, %rdx
 1250 00a8 7466     		je	.L91
 1251 00aa BAFFFFFF 		movl	$-1, %edx
 1251      FF
 1252 00af F00FC150 		lock xaddl	%edx, -8(%rax)
 1252      F8
 1253 00b4 89D0     		movl	%edx, %eax
 1254              	.L92:
 1255 00b6 85C0     		testl	%eax, %eax
 1256 00b8 0F8F7AFF 		jg	.L90
 1256      FFFF
 1257 00be 488D7424 		leaq	7(%rsp), %rsi
 1257      07
 1258 00c3 E8000000 		call	_ZNSs4_Rep10_M_destroyERKSaIcE
 1258      00
 1259 00c8 E96BFFFF 		jmp	.L90
 1259      FF
 1260 00cd 0F1F00   		.p2align 4,,10
 1261              		.p2align 3
 1262              	.L102:
 1263 00d0 BA000000 		movl	$_ZL28__gthrw___pthread_key_createPjPFvPvE, %edx
 1263      00
 1264 00d5 4885D2   		testq	%rdx, %rdx
 1265 00d8 7426     		je	.L96
 1266 00da BAFFFFFF 		movl	$-1, %edx
 1266      FF
 1267 00df F00FC150 		lock xaddl	%edx, -8(%rax)
 1267      F8
 1268 00e4 89D0     		movl	%edx, %eax
 1269              	.L97:
 1270 00e6 85C0     		testl	%eax, %eax
 1271 00e8 0F8F72FF 		jg	.L95
 1271      FFFF
 1272 00ee 488D7424 		leaq	7(%rsp), %rsi
 1272      07
 1273 00f3 E8000000 		call	_ZNSs4_Rep10_M_destroyERKSaIcE
 1273      00
 1274 00f8 E963FFFF 		jmp	.L95
 1274      FF
 1275 00fd 0F1F00   		.p2align 4,,10
 1276              		.p2align 3
 1277              	.L96:
 1278 0100 8B50F8   		movl	-8(%rax), %edx
 1279 0103 8D4AFF   		leal	-1(%rdx), %ecx
 1280 0106 8948F8   		movl	%ecx, -8(%rax)
 1281 0109 89D0     		movl	%edx, %eax
 1282 010b EBD9     		jmp	.L97
 1283 010d 0F1F00   		.p2align 4,,10
 1284              		.p2align 3
 1285              	.L91:
 1286 0110 8B50F8   		movl	-8(%rax), %edx
 1287 0113 8D4AFF   		leal	-1(%rdx), %ecx
 1288 0116 8948F8   		movl	%ecx, -8(%rax)
 1289 0119 89D0     		movl	%edx, %eax
 1290 011b EB99     		jmp	.L92
 1291              	.L103:
 1292 011d E8000000 		call	__stack_chk_fail
 1292      00
 1293              		.cfi_endproc
 1294              	.LFE1676:
 1296              		.section	.text.unlikely._ZN8UnitTest15MemoryOutStreamD1Ev,"axG",@progbits,_ZN8UnitTest15MemoryOutS
 1297              	.LCOLDE45:
 1298              		.section	.text._ZN8UnitTest15MemoryOutStreamD1Ev,"axG",@progbits,_ZN8UnitTest15MemoryOutStreamD1Ev
 1299              	.LHOTE45:
 1300              		.set	.LTHUNK0,_ZN8UnitTest15MemoryOutStreamD1Ev
 1301              	.LCOLDB46:
 1302              	.LHOTB46:
 1303 0122 0F1F4000 		.p2align 4,,15
 1303      662E0F1F 
 1303      84000000 
 1303      0000
 1304              		.weak	_ZTv0_n24_N8UnitTest15MemoryOutStreamD1Ev
 1306              	_ZTv0_n24_N8UnitTest15MemoryOutStreamD1Ev:
 1307              	.LFB1723:
 1308              		.cfi_startproc
 1309 0130 4C8B17   		movq	(%rdi), %r10
 1310 0133 49037AE8 		addq	-24(%r10), %rdi
 1311 0137 E9C4FEFF 		jmp	.LTHUNK0
 1311      FF
 1312              		.cfi_endproc
 1313              	.LFE1723:
 1315              	.LCOLDE46:
 1316              	.LHOTE46:
 1317              		.section	.text.unlikely._ZN8UnitTest15MemoryOutStreamD0Ev,"axG",@progbits,_ZN8UnitTest15MemoryOutS
 1318              		.align 2
 1319              	.LCOLDB47:
 1320              		.section	.text._ZN8UnitTest15MemoryOutStreamD0Ev,"axG",@progbits,_ZN8UnitTest15MemoryOutStreamD0Ev
 1321              	.LHOTB47:
 1322              		.align 2
 1323              		.p2align 4,,15
 1324              		.weak	_ZN8UnitTest15MemoryOutStreamD0Ev
 1326              	_ZN8UnitTest15MemoryOutStreamD0Ev:
 1327              	.LFB1677:
 1328              		.cfi_startproc
 1329 0000 53       		pushq	%rbx
 1330              		.cfi_def_cfa_offset 16
 1331              		.cfi_offset 3, -16
 1332 0001 4889FB   		movq	%rdi, %rbx
 1333 0004 4883EC10 		subq	$16, %rsp
 1334              		.cfi_def_cfa_offset 32
 1335 0008 48C70700 		movq	$_ZTVN8UnitTest15MemoryOutStreamE+24, (%rdi)
 1335      000000
 1336 000f 48C74760 		movq	$_ZTVN8UnitTest15MemoryOutStreamE+64, 96(%rdi)
 1336      00000000 
 1337 0017 64488B04 		movq	%fs:40, %rax
 1337      25280000 
 1337      00
 1338 0020 48894424 		movq	%rax, 8(%rsp)
 1338      08
 1339 0025 31C0     		xorl	%eax, %eax
 1340 0027 488B4758 		movq	88(%rdi), %rax
 1341 002b 488D78E8 		leaq	-24(%rax), %rdi
 1342 002f 4881FF00 		cmpq	$_ZNSs4_Rep20_S_empty_rep_storageE, %rdi
 1342      000000
 1343 0036 7570     		jne	.L117
 1344              	.L106:
 1345 0038 488B4350 		movq	80(%rbx), %rax
 1346 003c 48C70300 		movq	$_ZTCN8UnitTest15MemoryOutStreamE0_St19basic_ostringstreamIcSt11char_traitsIcESaIcEE+24, (%rb
 1346      000000
 1347 0043 48C74360 		movq	$_ZTCN8UnitTest15MemoryOutStreamE0_St19basic_ostringstreamIcSt11char_traitsIcESaIcEE+64, 96(%
 1347      00000000 
 1348 004b 48C74308 		movq	$_ZTVSt15basic_stringbufIcSt11char_traitsIcESaIcEE+16, 8(%rbx)
 1348      00000000 
 1349 0053 488D78E8 		leaq	-24(%rax), %rdi
 1350 0057 4881FF00 		cmpq	$_ZNSs4_Rep20_S_empty_rep_storageE, %rdi
 1350      000000
 1351 005e 7578     		jne	.L118
 1352              	.L111:
 1353 0060 488D7B40 		leaq	64(%rbx), %rdi
 1354 0064 48C74308 		movq	$_ZTVSt15basic_streambufIcSt11char_traitsIcEE+16, 8(%rbx)
 1354      00000000 
 1355 006c E8000000 		call	_ZNSt6localeD1Ev
 1355      00
 1356 0071 488D7B60 		leaq	96(%rbx), %rdi
 1357 0075 48C74360 		movq	$_ZTVSt9basic_iosIcSt11char_traitsIcEE+16, 96(%rbx)
 1357      00000000 
 1358 007d E8000000 		call	_ZNSt8ios_baseD2Ev
 1358      00
 1359 0082 4889DF   		movq	%rbx, %rdi
 1360 0085 E8000000 		call	_ZdlPv
 1360      00
 1361 008a 488B4424 		movq	8(%rsp), %rax
 1361      08
 1362 008f 64483304 		xorq	%fs:40, %rax
 1362      25280000 
 1362      00
 1363 0098 0F858700 		jne	.L119
 1363      0000
 1364 009e 4883C410 		addq	$16, %rsp
 1365              		.cfi_remember_state
 1366              		.cfi_def_cfa_offset 16
 1367 00a2 5B       		popq	%rbx
 1368              		.cfi_def_cfa_offset 8
 1369 00a3 C3       		ret
 1370              		.p2align 4,,10
 1371 00a4 0F1F4000 		.p2align 3
 1372              	.L117:
 1373              		.cfi_restore_state
 1374 00a8 BA000000 		movl	$_ZL28__gthrw___pthread_key_createPjPFvPvE, %edx
 1374      00
 1375 00ad 4885D2   		testq	%rdx, %rdx
 1376 00b0 7466     		je	.L107
 1377 00b2 BAFFFFFF 		movl	$-1, %edx
 1377      FF
 1378 00b7 F00FC150 		lock xaddl	%edx, -8(%rax)
 1378      F8
 1379 00bc 89D0     		movl	%edx, %eax
 1380              	.L108:
 1381 00be 85C0     		testl	%eax, %eax
 1382 00c0 0F8F72FF 		jg	.L106
 1382      FFFF
 1383 00c6 488D7424 		leaq	7(%rsp), %rsi
 1383      07
 1384 00cb E8000000 		call	_ZNSs4_Rep10_M_destroyERKSaIcE
 1384      00
 1385 00d0 E963FFFF 		jmp	.L106
 1385      FF
 1386              		.p2align 4,,10
 1387 00d5 0F1F00   		.p2align 3
 1388              	.L118:
 1389 00d8 BA000000 		movl	$_ZL28__gthrw___pthread_key_createPjPFvPvE, %edx
 1389      00
 1390 00dd 4885D2   		testq	%rdx, %rdx
 1391 00e0 7426     		je	.L112
 1392 00e2 BAFFFFFF 		movl	$-1, %edx
 1392      FF
 1393 00e7 F00FC150 		lock xaddl	%edx, -8(%rax)
 1393      F8
 1394 00ec 89D0     		movl	%edx, %eax
 1395              	.L113:
 1396 00ee 85C0     		testl	%eax, %eax
 1397 00f0 0F8F6AFF 		jg	.L111
 1397      FFFF
 1398 00f6 488D7424 		leaq	7(%rsp), %rsi
 1398      07
 1399 00fb E8000000 		call	_ZNSs4_Rep10_M_destroyERKSaIcE
 1399      00
 1400 0100 E95BFFFF 		jmp	.L111
 1400      FF
 1401              		.p2align 4,,10
 1402 0105 0F1F00   		.p2align 3
 1403              	.L112:
 1404 0108 8B50F8   		movl	-8(%rax), %edx
 1405 010b 8D4AFF   		leal	-1(%rdx), %ecx
 1406 010e 8948F8   		movl	%ecx, -8(%rax)
 1407 0111 89D0     		movl	%edx, %eax
 1408 0113 EBD9     		jmp	.L113
 1409              		.p2align 4,,10
 1410 0115 0F1F00   		.p2align 3
 1411              	.L107:
 1412 0118 8B50F8   		movl	-8(%rax), %edx
 1413 011b 8D4AFF   		leal	-1(%rdx), %ecx
 1414 011e 8948F8   		movl	%ecx, -8(%rax)
 1415 0121 89D0     		movl	%edx, %eax
 1416 0123 EB99     		jmp	.L108
 1417              	.L119:
 1418 0125 E8000000 		call	__stack_chk_fail
 1418      00
 1419              		.cfi_endproc
 1420              	.LFE1677:
 1422              		.section	.text.unlikely._ZN8UnitTest15MemoryOutStreamD0Ev,"axG",@progbits,_ZN8UnitTest15MemoryOutS
 1423              	.LCOLDE47:
 1424              		.section	.text._ZN8UnitTest15MemoryOutStreamD0Ev,"axG",@progbits,_ZN8UnitTest15MemoryOutStreamD0Ev
 1425              	.LHOTE47:
 1426              		.set	.LTHUNK1,_ZN8UnitTest15MemoryOutStreamD0Ev
 1427              	.LCOLDB48:
 1428              	.LHOTB48:
 1429 012a 660F1F44 		.p2align 4,,15
 1429      0000
 1430              		.weak	_ZTv0_n24_N8UnitTest15MemoryOutStreamD0Ev
 1432              	_ZTv0_n24_N8UnitTest15MemoryOutStreamD0Ev:
 1433              	.LFB1724:
 1434              		.cfi_startproc
 1435 0130 4C8B17   		movq	(%rdi), %r10
 1436 0133 49037AE8 		addq	-24(%r10), %rdi
 1437 0137 E9C4FEFF 		jmp	.LTHUNK1
 1437      FF
 1438              		.cfi_endproc
 1439              	.LFE1724:
 1441              	.LCOLDE48:
 1442              	.LHOTE48:
 1443              		.section	.text.unlikely._ZN17ScopedCurrentTestD2Ev,"axG",@progbits,_ZN17ScopedCurrentTestD5Ev,comd
 1444              		.align 2
 1445              	.LCOLDB49:
 1446              		.section	.text._ZN17ScopedCurrentTestD2Ev,"axG",@progbits,_ZN17ScopedCurrentTestD5Ev,comdat
 1447              	.LHOTB49:
 1448              		.align 2
 1449              		.p2align 4,,15
 1450              		.weak	_ZN17ScopedCurrentTestD2Ev
 1452              	_ZN17ScopedCurrentTestD2Ev:
 1453              	.LFB1102:
 1454              		.cfi_startproc
 1455 0000 53       		pushq	%rbx
 1456              		.cfi_def_cfa_offset 16
 1457              		.cfi_offset 3, -16
 1458 0001 4889FB   		movq	%rdi, %rbx
 1459 0004 E8000000 		call	_ZN8UnitTest11CurrentTest7ResultsEv
 1459      00
 1460 0009 488B13   		movq	(%rbx), %rdx
 1461 000c 488910   		movq	%rdx, (%rax)
 1462 000f E8000000 		call	_ZN8UnitTest11CurrentTest7DetailsEv
 1462      00
 1463 0014 488B5308 		movq	8(%rbx), %rdx
 1464 0018 488910   		movq	%rdx, (%rax)
 1465 001b 5B       		popq	%rbx
 1466              		.cfi_def_cfa_offset 8
 1467 001c C3       		ret
 1468              		.cfi_endproc
 1469              	.LFE1102:
 1471              		.section	.text.unlikely._ZN17ScopedCurrentTestD2Ev,"axG",@progbits,_ZN17ScopedCurrentTestD5Ev,comd
 1472              	.LCOLDE49:
 1473              		.section	.text._ZN17ScopedCurrentTestD2Ev,"axG",@progbits,_ZN17ScopedCurrentTestD5Ev,comdat
 1474              	.LHOTE49:
 1475              		.weak	_ZN17ScopedCurrentTestD1Ev
 1476              		.set	_ZN17ScopedCurrentTestD1Ev,_ZN17ScopedCurrentTestD2Ev
 1477              		.section	.text.unlikely._ZNSt15basic_stringbufIcSt11char_traitsIcESaIcEED2Ev,"axG",@progbits,_ZNSt
 1478              		.align 2
 1479              	.LCOLDB50:
 1480              		.section	.text._ZNSt15basic_stringbufIcSt11char_traitsIcESaIcEED2Ev,"axG",@progbits,_ZNSt15basic_s
 1481              	.LHOTB50:
 1482              		.align 2
 1483              		.p2align 4,,15
 1484              		.weak	_ZNSt15basic_stringbufIcSt11char_traitsIcESaIcEED2Ev
 1486              	_ZNSt15basic_stringbufIcSt11char_traitsIcESaIcEED2Ev:
 1487              	.LFB1467:
 1488              		.cfi_startproc
 1489 0000 53       		pushq	%rbx
 1490              		.cfi_def_cfa_offset 16
 1491              		.cfi_offset 3, -16
 1492 0001 4889FB   		movq	%rdi, %rbx
 1493 0004 4883EC10 		subq	$16, %rsp
 1494              		.cfi_def_cfa_offset 32
 1495 0008 48C70700 		movq	$_ZTVSt15basic_stringbufIcSt11char_traitsIcESaIcEE+16, (%rdi)
 1495      000000
 1496 000f 64488B04 		movq	%fs:40, %rax
 1496      25280000 
 1496      00
 1497 0018 48894424 		movq	%rax, 8(%rsp)
 1497      08
 1498 001d 31C0     		xorl	%eax, %eax
 1499 001f 488B4748 		movq	72(%rdi), %rax
 1500 0023 488D78E8 		leaq	-24(%rax), %rdi
 1501 0027 4881FF00 		cmpq	$_ZNSs4_Rep20_S_empty_rep_storageE, %rdi
 1501      000000
 1502 002e 7530     		jne	.L130
 1503              	.L124:
 1504 0030 488D7B38 		leaq	56(%rbx), %rdi
 1505 0034 48C70300 		movq	$_ZTVSt15basic_streambufIcSt11char_traitsIcEE+16, (%rbx)
 1505      000000
 1506 003b E8000000 		call	_ZNSt6localeD1Ev
 1506      00
 1507 0040 488B4424 		movq	8(%rsp), %rax
 1507      08
 1508 0045 64483304 		xorq	%fs:40, %rax
 1508      25280000 
 1508      00
 1509 004e 754D     		jne	.L131
 1510 0050 4883C410 		addq	$16, %rsp
 1511              		.cfi_remember_state
 1512              		.cfi_def_cfa_offset 16
 1513 0054 5B       		popq	%rbx
 1514              		.cfi_def_cfa_offset 8
 1515 0055 C3       		ret
 1516 0056 662E0F1F 		.p2align 4,,10
 1516      84000000 
 1516      0000
 1517              		.p2align 3
 1518              	.L130:
 1519              		.cfi_restore_state
 1520 0060 BA000000 		movl	$_ZL28__gthrw___pthread_key_createPjPFvPvE, %edx
 1520      00
 1521 0065 4885D2   		testq	%rdx, %rdx
 1522 0068 7426     		je	.L125
 1523 006a BAFFFFFF 		movl	$-1, %edx
 1523      FF
 1524 006f F00FC150 		lock xaddl	%edx, -8(%rax)
 1524      F8
 1525 0074 89D0     		movl	%edx, %eax
 1526              	.L126:
 1527 0076 85C0     		testl	%eax, %eax
 1528 0078 7FB6     		jg	.L124
 1529 007a 488D7424 		leaq	7(%rsp), %rsi
 1529      07
 1530 007f E8000000 		call	_ZNSs4_Rep10_M_destroyERKSaIcE
 1530      00
 1531 0084 EBAA     		jmp	.L124
 1532 0086 662E0F1F 		.p2align 4,,10
 1532      84000000 
 1532      0000
 1533              		.p2align 3
 1534              	.L125:
 1535 0090 8B50F8   		movl	-8(%rax), %edx
 1536 0093 8D4AFF   		leal	-1(%rdx), %ecx
 1537 0096 8948F8   		movl	%ecx, -8(%rax)
 1538 0099 89D0     		movl	%edx, %eax
 1539 009b EBD9     		jmp	.L126
 1540              	.L131:
 1541 009d E8000000 		call	__stack_chk_fail
 1541      00
 1542              		.cfi_endproc
 1543              	.LFE1467:
 1545              		.section	.text.unlikely._ZNSt15basic_stringbufIcSt11char_traitsIcESaIcEED2Ev,"axG",@progbits,_ZNSt
 1546              	.LCOLDE50:
 1547              		.section	.text._ZNSt15basic_stringbufIcSt11char_traitsIcESaIcEED2Ev,"axG",@progbits,_ZNSt15basic_s
 1548              	.LHOTE50:
 1549              		.weak	_ZNSt15basic_stringbufIcSt11char_traitsIcESaIcEED1Ev
 1550              		.set	_ZNSt15basic_stringbufIcSt11char_traitsIcESaIcEED1Ev,_ZNSt15basic_stringbufIcSt11char_traitsI
 1551              		.section	.text.unlikely._ZN8UnitTest15MemoryOutStreamC1Ev,"axG",@progbits,_ZN8UnitTest15MemoryOutS
 1552              		.align 2
 1553              	.LCOLDB51:
 1554              		.section	.text._ZN8UnitTest15MemoryOutStreamC1Ev,"axG",@progbits,_ZN8UnitTest15MemoryOutStreamC1Ev
 1555              	.LHOTB51:
 1556              		.align 2
 1557              		.p2align 4,,15
 1558              		.weak	_ZN8UnitTest15MemoryOutStreamC1Ev
 1560              	_ZN8UnitTest15MemoryOutStreamC1Ev:
 1561              	.LFB1080:
 1562              		.cfi_startproc
 1563              		.cfi_personality 0x3,__gxx_personality_v0
 1564              		.cfi_lsda 0x3,.LLSDA1080
 1565 0000 4155     		pushq	%r13
 1566              		.cfi_def_cfa_offset 16
 1567              		.cfi_offset 13, -16
 1568 0002 4154     		pushq	%r12
 1569              		.cfi_def_cfa_offset 24
 1570              		.cfi_offset 12, -24
 1571 0004 55       		pushq	%rbp
 1572              		.cfi_def_cfa_offset 32
 1573              		.cfi_offset 6, -32
 1574 0005 488D6F60 		leaq	96(%rdi), %rbp
 1575 0009 53       		pushq	%rbx
 1576              		.cfi_def_cfa_offset 40
 1577              		.cfi_offset 3, -40
 1578 000a 4889FB   		movq	%rdi, %rbx
 1579 000d 4883EC08 		subq	$8, %rsp
 1580              		.cfi_def_cfa_offset 48
 1581 0011 4889EF   		movq	%rbp, %rdi
 1582 0014 E8000000 		call	_ZNSt8ios_baseC2Ev
 1582      00
 1583 0019 48C78338 		movq	$0, 312(%rbx)
 1583      01000000 
 1583      000000
 1584 0024 C6834001 		movb	$0, 320(%rbx)
 1584      000000
 1585 002b 31F6     		xorl	%esi, %esi
 1586 002d C6834101 		movb	$0, 321(%rbx)
 1586      000000
 1587 0034 48C78348 		movq	$0, 328(%rbx)
 1587      01000000 
 1587      000000
 1588 003f 4889EF   		movq	%rbp, %rdi
 1589 0042 48C78350 		movq	$0, 336(%rbx)
 1589      01000000 
 1589      000000
 1590 004d 48C78358 		movq	$0, 344(%rbx)
 1590      01000000 
 1590      000000
 1591 0058 48C78360 		movq	$0, 352(%rbx)
 1591      01000000 
 1591      000000
 1592 0063 48C70300 		movq	$_ZTCN8UnitTest15MemoryOutStreamE0_So+24, (%rbx)
 1592      000000
 1593 006a 48C74360 		movq	$_ZTCN8UnitTest15MemoryOutStreamE0_So+64, 96(%rbx)
 1593      00000000 
 1594              	.LEHB6:
 1595 0072 E8000000 		call	_ZNSt9basic_iosIcSt11char_traitsIcEE4initEPSt15basic_streambufIcS1_E
 1595      00
 1596              	.LEHE6:
 1597 0077 488D7B40 		leaq	64(%rbx), %rdi
 1598 007b 48C70300 		movq	$_ZTCN8UnitTest15MemoryOutStreamE0_St19basic_ostringstreamIcSt11char_traitsIcESaIcEE+24, (%rb
 1598      000000
 1599 0082 48C74360 		movq	$_ZTCN8UnitTest15MemoryOutStreamE0_St19basic_ostringstreamIcSt11char_traitsIcESaIcEE+64, 96(%
 1599      00000000 
 1600 008a 48C74308 		movq	$_ZTVSt15basic_streambufIcSt11char_traitsIcEE+16, 8(%rbx)
 1600      00000000 
 1601 0092 48C74310 		movq	$0, 16(%rbx)
 1601      00000000 
 1602 009a 4C8D6308 		leaq	8(%rbx), %r12
 1603 009e 48C74318 		movq	$0, 24(%rbx)
 1603      00000000 
 1604 00a6 48C74320 		movq	$0, 32(%rbx)
 1604      00000000 
 1605 00ae 48C74328 		movq	$0, 40(%rbx)
 1605      00000000 
 1606 00b6 48C74330 		movq	$0, 48(%rbx)
 1606      00000000 
 1607 00be 48C74338 		movq	$0, 56(%rbx)
 1607      00000000 
 1608 00c6 E8000000 		call	_ZNSt6localeC1Ev
 1608      00
 1609 00cb 488B03   		movq	(%rbx), %rax
 1610 00ce 4889DF   		movq	%rbx, %rdi
 1611 00d1 48C74308 		movq	$_ZTVSt15basic_stringbufIcSt11char_traitsIcESaIcEE+16, 8(%rbx)
 1611      00000000 
 1612 00d9 C7434810 		movl	$16, 72(%rbx)
 1612      000000
 1613 00e0 48C74350 		movq	$_ZNSs4_Rep20_S_empty_rep_storageE+24, 80(%rbx)
 1613      00000000 
 1614 00e8 4C89E6   		movq	%r12, %rsi
 1615 00eb 480378E8 		addq	-24(%rax), %rdi
 1616              	.LEHB7:
 1617 00ef E8000000 		call	_ZNSt9basic_iosIcSt11char_traitsIcEE4initEPSt15basic_streambufIcS1_E
 1617      00
 1618              	.LEHE7:
 1619 00f4 48C70300 		movq	$_ZTVN8UnitTest15MemoryOutStreamE+24, (%rbx)
 1619      000000
 1620 00fb 48C74360 		movq	$_ZTVN8UnitTest15MemoryOutStreamE+64, 96(%rbx)
 1620      00000000 
 1621 0103 48C74358 		movq	$_ZNSs4_Rep20_S_empty_rep_storageE+24, 88(%rbx)
 1621      00000000 
 1622 010b 4883C408 		addq	$8, %rsp
 1623              		.cfi_remember_state
 1624              		.cfi_def_cfa_offset 40
 1625 010f 5B       		popq	%rbx
 1626              		.cfi_def_cfa_offset 32
 1627 0110 5D       		popq	%rbp
 1628              		.cfi_def_cfa_offset 24
 1629 0111 415C     		popq	%r12
 1630              		.cfi_def_cfa_offset 16
 1631 0113 415D     		popq	%r13
 1632              		.cfi_def_cfa_offset 8
 1633 0115 C3       		ret
 1634              	.L136:
 1635              		.cfi_restore_state
 1636 0116 4989C4   		movq	%rax, %r12
 1637 0119 EB0E     		jmp	.L135
 1638              	.L137:
 1639 011b 4989C5   		movq	%rax, %r13
 1640              	.L134:
 1641 011e 4C89E7   		movq	%r12, %rdi
 1642 0121 4D89EC   		movq	%r13, %r12
 1643 0124 E8000000 		call	_ZNSt15basic_stringbufIcSt11char_traitsIcESaIcEED1Ev
 1643      00
 1644              	.L135:
 1645 0129 4889EF   		movq	%rbp, %rdi
 1646 012c 48C74360 		movq	$_ZTVSt9basic_iosIcSt11char_traitsIcEE+16, 96(%rbx)
 1646      00000000 
 1647 0134 E8000000 		call	_ZNSt8ios_baseD2Ev
 1647      00
 1648 0139 4C89E7   		movq	%r12, %rdi
 1649              	.LEHB8:
 1650 013c E8000000 		call	_Unwind_Resume
 1650      00
 1651              	.LEHE8:
 1652              		.cfi_endproc
 1653              	.LFE1080:
 1654              		.section	.gcc_except_table
 1655              	.LLSDA1080:
 1656 0054 FF       		.byte	0xff
 1657 0055 FF       		.byte	0xff
 1658 0056 01       		.byte	0x1
 1659 0057 10       		.uleb128 .LLSDACSE1080-.LLSDACSB1080
 1660              	.LLSDACSB1080:
 1661 0058 72       		.uleb128 .LEHB6-.LFB1080
 1662 0059 05       		.uleb128 .LEHE6-.LEHB6
 1663 005a 9602     		.uleb128 .L136-.LFB1080
 1664 005c 00       		.uleb128 0
 1665 005d EF01     		.uleb128 .LEHB7-.LFB1080
 1666 005f 05       		.uleb128 .LEHE7-.LEHB7
 1667 0060 9B02     		.uleb128 .L137-.LFB1080
 1668 0062 00       		.uleb128 0
 1669 0063 BC02     		.uleb128 .LEHB8-.LFB1080
 1670 0065 05       		.uleb128 .LEHE8-.LEHB8
 1671 0066 00       		.uleb128 0
 1672 0067 00       		.uleb128 0
 1673              	.LLSDACSE1080:
 1674              		.section	.text._ZN8UnitTest15MemoryOutStreamC1Ev,"axG",@progbits,_ZN8UnitTest15MemoryOutStreamC1Ev
 1676              		.section	.text.unlikely._ZN8UnitTest15MemoryOutStreamC1Ev,"axG",@progbits,_ZN8UnitTest15MemoryOutS
 1677              	.LCOLDE51:
 1678              		.section	.text._ZN8UnitTest15MemoryOutStreamC1Ev,"axG",@progbits,_ZN8UnitTest15MemoryOutStreamC1Ev
 1679              	.LHOTE51:
 1680              		.section	.rodata.str1.1
 1681              	.LC52:
 1682 000f 556E6861 		.string	"Unhandled system exception"
 1682      6E646C65 
 1682      64207379 
 1682      7374656D 
 1682      20657863 
 1683              		.section	.rodata.str1.8
 1684 0093 00000000 		.align 8
 1684      00
 1685              	.LC53:
 1686 0098 53696D70 		.string	"SimpleFixture::instanceCount > 0"
 1686      6C654669 
 1686      78747572 
 1686      653A3A69 
 1686      6E737461 
 1687 00b9 00000000 		.align 8
 1687      000000
 1688              	.LC54:
 1689 00c0 556E6861 		.string	"Unhandled exception in CHECK(SimpleFixture::instanceCount > 0)"
 1689      6E646C65 
 1689      64206578 
 1689      63657074 
 1689      696F6E20 
 1690              		.section	.rodata.str1.1
 1691              	.LC55:
 1692 002a 556E6861 		.string	"Unhandled exception: "
 1692      6E646C65 
 1692      64206578 
 1692      63657074 
 1692      696F6E3A 
 1693              	.LC56:
 1694 0040 556E6861 		.string	"Unhandled exception: Crash!"
 1694      6E646C65 
 1694      64206578 
 1694      63657074 
 1694      696F6E3A 
 1695              		.section	.text.unlikely
 1696              	.LCOLDB57:
 1697              		.text
 1698              	.LHOTB57:
 1699 0542 0F1F4000 		.p2align 4,,15
 1699      662E0F1F 
 1699      84000000 
 1699      0000
 1701              	_ZN8UnitTest11ExecuteTestIN12_GLOBAL__N_145SimpleFixtureDefaultFixtureCtorIsCalledHelperEEEvRT_RKNS
 1702              	.LFB1699:
 1703              		.cfi_startproc
 1704              		.cfi_personality 0x3,__gxx_personality_v0
 1705              		.cfi_lsda 0x3,.LLSDA1699
 1706 0550 4154     		pushq	%r12
 1707              		.cfi_def_cfa_offset 16
 1708              		.cfi_offset 12, -16
 1709 0552 55       		pushq	%rbp
 1710              		.cfi_def_cfa_offset 24
 1711              		.cfi_offset 6, -24
 1712 0553 53       		pushq	%rbx
 1713              		.cfi_def_cfa_offset 32
 1714              		.cfi_offset 3, -32
 1715 0554 4889FB   		movq	%rdi, %rbx
 1716 0557 4881EC50 		subq	$1616, %rsp
 1716      060000
 1717              		.cfi_def_cfa_offset 1648
 1718 055e 48897C24 		movq	%rdi, 8(%rsp)
 1718      08
 1719 0563 64488B04 		movq	%fs:40, %rax
 1719      25280000 
 1719      00
 1720 056c 48898424 		movq	%rax, 1608(%rsp)
 1720      48060000 
 1721 0574 31C0     		xorl	%eax, %eax
 1722              	.LEHB9:
 1723 0576 E8000000 		call	_ZN8UnitTest11CurrentTest7DetailsEv
 1723      00
 1724              	.LEHE9:
 1725 057b 488DBC24 		leaq	480(%rsp), %rdi
 1725      E0010000 
 1726 0583 488918   		movq	%rbx, (%rax)
 1727              	.LEHB10:
 1728 0586 E8000000 		call	_ZN8UnitTest16SignalTranslatorC1Ev
 1728      00
 1729 058b 488B3D00 		movq	_ZN8UnitTest16SignalTranslator12s_jumpTargetE(%rip), %rdi
 1729      000000
 1730 0592 BE010000 		movl	$1, %esi
 1730      00
 1731 0597 E8000000 		call	__sigsetjmp
 1731      00
 1732 059c 85C0     		testl	%eax, %eax
 1733 059e 7540     		jne	.L176
 1734 05a0 8B050000 		movl	_ZN12_GLOBAL__N_113SimpleFixture13instanceCountE(%rip), %eax
 1734      0000
 1735 05a6 85C0     		testl	%eax, %eax
 1736 05a8 7E56     		jle	.L177
 1737              	.L146:
 1738 05aa 488DBC24 		leaq	480(%rsp), %rdi
 1738      E0010000 
 1739 05b2 E8000000 		call	_ZN8UnitTest16SignalTranslatorD1Ev
 1739      00
 1740              	.LEHE10:
 1741              	.L142:
 1742 05b7 488B8424 		movq	1608(%rsp), %rax
 1742      48060000 
 1743 05bf 64483304 		xorq	%fs:40, %rax
 1743      25280000 
 1743      00
 1744 05c8 0F850001 		jne	.L178
 1744      0000
 1745 05ce 4881C450 		addq	$1616, %rsp
 1745      060000
 1746              		.cfi_remember_state
 1747              		.cfi_def_cfa_offset 32
 1748 05d5 5B       		popq	%rbx
 1749              		.cfi_def_cfa_offset 24
 1750 05d6 5D       		popq	%rbp
 1751              		.cfi_def_cfa_offset 16
 1752 05d7 415C     		popq	%r12
 1753              		.cfi_def_cfa_offset 8
 1754 05d9 C3       		ret
 1755 05da 660F1F44 		.p2align 4,,10
 1755      0000
 1756              		.p2align 3
 1757              	.L176:
 1758              		.cfi_restore_state
 1759 05e0 BF080000 		movl	$8, %edi
 1759      00
 1760 05e5 E8000000 		call	__cxa_allocate_exception
 1760      00
 1761 05ea 31D2     		xorl	%edx, %edx
 1762 05ec 48C70000 		movq	$.LC52, (%rax)
 1762      000000
 1763 05f3 BE000000 		movl	$_ZTIPKc, %esi
 1763      00
 1764 05f8 4889C7   		movq	%rax, %rdi
 1765              	.LEHB11:
 1766 05fb E8000000 		call	__cxa_throw
 1766      00
 1767              	.LEHE11:
 1768              		.p2align 4,,10
 1769              		.p2align 3
 1770              	.L177:
 1771              	.LEHB12:
 1772 0600 E8000000 		call	_ZN8UnitTest11CurrentTest7DetailsEv
 1772      00
 1773 0605 488B30   		movq	(%rax), %rsi
 1774 0608 488D7C24 		leaq	48(%rsp), %rdi
 1774      30
 1775 060d BA8A0000 		movl	$138, %edx
 1775      00
 1776 0612 E8000000 		call	_ZN8UnitTest11TestDetailsC1ERKS0_i
 1776      00
 1777 0617 E8000000 		call	_ZN8UnitTest11CurrentTest7ResultsEv
 1777      00
 1778 061c 488B38   		movq	(%rax), %rdi
 1779 061f 488D7424 		leaq	48(%rsp), %rsi
 1779      30
 1780 0624 BA000000 		movl	$.LC53, %edx
 1780      00
 1781 0629 E8000000 		call	_ZN8UnitTest11TestResults13OnTestFailureERKNS_11TestDetailsEPKc
 1781      00
 1782              	.LEHE12:
 1783 062e E977FFFF 		jmp	.L146
 1783      FF
 1784              	.L167:
 1785 0633 4889C5   		movq	%rax, %rbp
 1786 0636 4889D3   		movq	%rdx, %rbx
 1787              	.L148:
 1788 0639 488DBC24 		leaq	480(%rsp), %rdi
 1788      E0010000 
 1789 0641 E8000000 		call	_ZN8UnitTest16SignalTranslatorD1Ev
 1789      00
 1790 0646 4889EF   		movq	%rbp, %rdi
 1791 0649 4889DA   		movq	%rbx, %rdx
 1792              	.L151:
 1793 064c 4883FA01 		cmpq	$1, %rdx
 1794 0650 0F840501 		je	.L153
 1794      0000
 1795 0656 4883FA02 		cmpq	$2, %rdx
 1796 065a 0F85D500 		jne	.L179
 1796      0000
 1797 0660 E8000000 		call	__cxa_begin_catch
 1797      00
 1798 0665 488D7C24 		leaq	112(%rsp), %rdi
 1798      70
 1799 066a 4889C3   		movq	%rax, %rbx
 1800              	.LEHB13:
 1801 066d E8000000 		call	_ZN8UnitTest15MemoryOutStreamC1Ev
 1801      00
 1802              	.LEHE13:
 1803 0672 488B03   		movq	(%rbx), %rax
 1804 0675 4889DF   		movq	%rbx, %rdi
 1805 0678 FF5010   		call	*16(%rax)
 1806 067b 488D7C24 		leaq	112(%rsp), %rdi
 1806      70
 1807 0680 BE000000 		movl	$.LC55, %esi
 1807      00
 1808 0685 4889C3   		movq	%rax, %rbx
 1809              	.LEHB14:
 1810 0688 E8000000 		call	_ZStlsISt11char_traitsIcEERSt13basic_ostreamIcT_ES5_PKc
 1810      00
 1811 068d 4889C7   		movq	%rax, %rdi
 1812 0690 4889DE   		movq	%rbx, %rsi
 1813 0693 E8000000 		call	_ZStlsISt11char_traitsIcEERSt13basic_ostreamIcT_ES5_PKc
 1813      00
 1814 0698 488D7C24 		leaq	112(%rsp), %rdi
 1814      70
 1815 069d E8000000 		call	_ZNK8UnitTest15MemoryOutStream7GetTextEv
 1815      00
 1816 06a2 4889C3   		movq	%rax, %rbx
 1817 06a5 E8000000 		call	_ZN8UnitTest11CurrentTest7ResultsEv
 1817      00
 1818 06aa 488B7424 		movq	8(%rsp), %rsi
 1818      08
 1819 06af 488B38   		movq	(%rax), %rdi
 1820 06b2 4889DA   		movq	%rbx, %rdx
 1821 06b5 E8000000 		call	_ZN8UnitTest11TestResults13OnTestFailureERKNS_11TestDetailsEPKc
 1821      00
 1822              	.LEHE14:
 1823 06ba 488D7C24 		leaq	112(%rsp), %rdi
 1823      70
 1824              	.LEHB15:
 1825 06bf E8000000 		call	_ZN8UnitTest15MemoryOutStreamD1Ev
 1825      00
 1826              	.LEHE15:
 1827              	.L173:
 1828 06c4 E8000000 		call	__cxa_end_catch
 1828      00
 1829 06c9 E9E9FEFF 		jmp	.L142
 1829      FF
 1830              	.L178:
 1831 06ce E8000000 		call	__stack_chk_fail
 1831      00
 1832              	.L166:
 1833 06d3 4889C7   		movq	%rax, %rdi
 1834 06d6 E971FFFF 		jmp	.L151
 1834      FF
 1835              	.L168:
 1836 06db 4889C7   		movq	%rax, %rdi
 1837 06de E8000000 		call	__cxa_begin_catch
 1837      00
 1838              	.LEHB16:
 1839 06e3 E8000000 		call	_ZN8UnitTest11CurrentTest7DetailsEv
 1839      00
 1840 06e8 488B30   		movq	(%rax), %rsi
 1841 06eb 488D7C24 		leaq	80(%rsp), %rdi
 1841      50
 1842 06f0 BA8A0000 		movl	$138, %edx
 1842      00
 1843 06f5 E8000000 		call	_ZN8UnitTest11TestDetailsC1ERKS0_i
 1843      00
 1844 06fa E8000000 		call	_ZN8UnitTest11CurrentTest7ResultsEv
 1844      00
 1845 06ff 488B38   		movq	(%rax), %rdi
 1846 0702 488D7424 		leaq	80(%rsp), %rsi
 1846      50
 1847 0707 BA000000 		movl	$.LC54, %edx
 1847      00
 1848 070c E8000000 		call	_ZN8UnitTest11TestResults13OnTestFailureERKNS_11TestDetailsEPKc
 1848      00
 1849              	.LEHE16:
 1850              	.LEHB17:
 1851 0711 E8000000 		call	__cxa_end_catch
 1851      00
 1852              	.LEHE17:
 1853 0716 E98FFEFF 		jmp	.L146
 1853      FF
 1854              	.L164:
 1855 071b 488D7C24 		leaq	112(%rsp), %rdi
 1855      70
 1856 0720 4889C3   		movq	%rax, %rbx
 1857 0723 E8000000 		call	_ZN8UnitTest15MemoryOutStreamD1Ev
 1857      00
 1858              	.L157:
 1859 0728 E8000000 		call	__cxa_end_catch
 1859      00
 1860 072d 4889DF   		movq	%rbx, %rdi
 1861              	.LEHB18:
 1862 0730 E8000000 		call	_Unwind_Resume
 1862      00
 1863              	.LEHE18:
 1864              	.L179:
 1865 0735 E8000000 		call	__cxa_begin_catch
 1865      00
 1866              	.LEHB19:
 1867 073a E8000000 		call	_ZN8UnitTest11CurrentTest7ResultsEv
 1867      00
 1868 073f 488B7424 		movq	8(%rsp), %rsi
 1868      08
 1869 0744 488B38   		movq	(%rax), %rdi
 1870 0747 BA000000 		movl	$.LC56, %edx
 1870      00
 1871 074c E8000000 		call	_ZN8UnitTest11TestResults13OnTestFailureERKNS_11TestDetailsEPKc
 1871      00
 1872              	.LEHE19:
 1873              	.LEHB20:
 1874 0751 E8000000 		call	__cxa_end_catch
 1874      00
 1875              	.LEHE20:
 1876 0756 E95CFEFF 		jmp	.L142
 1876      FF
 1877              	.L153:
 1878 075b E8000000 		call	__cxa_begin_catch
 1878      00
 1879 0760 4889C3   		movq	%rax, %rbx
 1880 0763 488B00   		movq	(%rax), %rax
 1881 0766 4889DF   		movq	%rbx, %rdi
 1882 0769 FF5010   		call	*16(%rax)
 1883 076c 4889DF   		movq	%rbx, %rdi
 1884 076f 4889C5   		movq	%rax, %rbp
 1885              	.LEHB21:
 1886 0772 E8000000 		call	_ZNK8UnitTest15AssertException10LineNumberEv
 1886      00
 1887 0777 4889DF   		movq	%rbx, %rdi
 1888 077a 4189C4   		movl	%eax, %r12d
 1889 077d E8000000 		call	_ZNK8UnitTest15AssertException8FilenameEv
 1889      00
 1890 0782 4889C1   		movq	%rax, %rcx
 1891 0785 488B4424 		movq	8(%rsp), %rax
 1891      08
 1892 078a 488D7C24 		leaq	16(%rsp), %rdi
 1892      10
 1893 078f 4589E0   		movl	%r12d, %r8d
 1894 0792 488B7008 		movq	8(%rax), %rsi
 1895 0796 488B10   		movq	(%rax), %rdx
 1896 0799 E8000000 		call	_ZN8UnitTest11TestDetailsC1EPKcS2_S2_i
 1896      00
 1897 079e E8000000 		call	_ZN8UnitTest11CurrentTest7ResultsEv
 1897      00
 1898 07a3 488B38   		movq	(%rax), %rdi
 1899 07a6 488D7424 		leaq	16(%rsp), %rsi
 1899      10
 1900 07ab 4889EA   		movq	%rbp, %rdx
 1901 07ae E8000000 		call	_ZN8UnitTest11TestResults13OnTestFailureERKNS_11TestDetailsEPKc
 1901      00
 1902              	.LEHE21:
 1903 07b3 E90CFFFF 		jmp	.L173
 1903      FF
 1904              	.L162:
 1905 07b8 4889C3   		movq	%rax, %rbx
 1906 07bb E8000000 		call	__cxa_end_catch
 1906      00
 1907 07c0 4889DF   		movq	%rbx, %rdi
 1908              	.LEHB22:
 1909 07c3 E8000000 		call	_Unwind_Resume
 1909      00
 1910              	.LEHE22:
 1911              	.L165:
 1912              	.L174:
 1913 07c8 4889C3   		movq	%rax, %rbx
 1914 07cb E958FFFF 		jmp	.L157
 1914      FF
 1915              	.L163:
 1916 07d0 EBF6     		jmp	.L174
 1917              	.L169:
 1918 07d2 4889C5   		movq	%rax, %rbp
 1919 07d5 4889D3   		movq	%rdx, %rbx
 1920 07d8 E8000000 		call	__cxa_end_catch
 1920      00
 1921 07dd E957FEFF 		jmp	.L148
 1921      FF
 1922              		.cfi_endproc
 1923              	.LFE1699:
 1924              		.section	.gcc_except_table
 1925              		.align 4
 1926              	.LLSDA1699:
 1927 0068 FF       		.byte	0xff
 1928 0069 03       		.byte	0x3
 1929 006a 65       		.uleb128 .LLSDATT1699-.LLSDATTD1699
 1930              	.LLSDATTD1699:
 1931 006b 01       		.byte	0x1
 1932 006c 4E       		.uleb128 .LLSDACSE1699-.LLSDACSB1699
 1933              	.LLSDACSB1699:
 1934 006d 26       		.uleb128 .LEHB9-.LFB1699
 1935 006e 05       		.uleb128 .LEHE9-.LEHB9
 1936 006f 00       		.uleb128 0
 1937 0070 00       		.uleb128 0
 1938 0071 36       		.uleb128 .LEHB10-.LFB1699
 1939 0072 31       		.uleb128 .LEHE10-.LEHB10
 1940 0073 8303     		.uleb128 .L166-.LFB1699
 1941 0075 05       		.uleb128 0x5
 1942 0076 AB01     		.uleb128 .LEHB11-.LFB1699
 1943 0078 05       		.uleb128 .LEHE11-.LEHB11
 1944 0079 E301     		.uleb128 .L167-.LFB1699
 1945 007b 07       		.uleb128 0x7
 1946 007c B001     		.uleb128 .LEHB12-.LFB1699
 1947 007e 2E       		.uleb128 .LEHE12-.LEHB12
 1948 007f 8B03     		.uleb128 .L168-.LFB1699
 1949 0081 01       		.uleb128 0x1
 1950 0082 9D02     		.uleb128 .LEHB13-.LFB1699
 1951 0084 05       		.uleb128 .LEHE13-.LEHB13
 1952 0085 8005     		.uleb128 .L163-.LFB1699
 1953 0087 00       		.uleb128 0
 1954 0088 B802     		.uleb128 .LEHB14-.LFB1699
 1955 008a 32       		.uleb128 .LEHE14-.LEHB14
 1956 008b CB03     		.uleb128 .L164-.LFB1699
 1957 008d 00       		.uleb128 0
 1958 008e EF02     		.uleb128 .LEHB15-.LFB1699
 1959 0090 05       		.uleb128 .LEHE15-.LEHB15
 1960 0091 8005     		.uleb128 .L163-.LFB1699
 1961 0093 00       		.uleb128 0
 1962 0094 9303     		.uleb128 .LEHB16-.LFB1699
 1963 0096 2E       		.uleb128 .LEHE16-.LEHB16
 1964 0097 8205     		.uleb128 .L169-.LFB1699
 1965 0099 07       		.uleb128 0x7
 1966 009a C103     		.uleb128 .LEHB17-.LFB1699
 1967 009c 05       		.uleb128 .LEHE17-.LEHB17
 1968 009d E301     		.uleb128 .L167-.LFB1699
 1969 009f 07       		.uleb128 0x7
 1970 00a0 E003     		.uleb128 .LEHB18-.LFB1699
 1971 00a2 05       		.uleb128 .LEHE18-.LEHB18
 1972 00a3 00       		.uleb128 0
 1973 00a4 00       		.uleb128 0
 1974 00a5 EA03     		.uleb128 .LEHB19-.LFB1699
 1975 00a7 17       		.uleb128 .LEHE19-.LEHB19
 1976 00a8 E804     		.uleb128 .L162-.LFB1699
 1977 00aa 00       		.uleb128 0
 1978 00ab 8104     		.uleb128 .LEHB20-.LFB1699
 1979 00ad 05       		.uleb128 .LEHE20-.LEHB20
 1980 00ae 00       		.uleb128 0
 1981 00af 00       		.uleb128 0
 1982 00b0 A204     		.uleb128 .LEHB21-.LFB1699
 1983 00b2 41       		.uleb128 .LEHE21-.LEHB21
 1984 00b3 F804     		.uleb128 .L165-.LFB1699
 1985 00b5 00       		.uleb128 0
 1986 00b6 F304     		.uleb128 .LEHB22-.LFB1699
 1987 00b8 05       		.uleb128 .LEHE22-.LEHB22
 1988 00b9 00       		.uleb128 0
 1989 00ba 00       		.uleb128 0
 1990              	.LLSDACSE1699:
 1991 00bb 03       		.byte	0x3
 1992 00bc 00       		.byte	0
 1993 00bd 02       		.byte	0x2
 1994 00be 7D       		.byte	0x7d
 1995 00bf 01       		.byte	0x1
 1996 00c0 7D       		.byte	0x7d
 1997 00c1 00       		.byte	0
 1998 00c2 7D       		.byte	0x7d
 1999 00c3 00       		.align 4
 2000 00c4 00000000 		.long	0
 2001              	
 2002 00c8 00000000 		.long	_ZTISt9exception
 2003 00cc 00000000 		.long	_ZTIN8UnitTest15AssertExceptionE
 2004              	.LLSDATT1699:
 2005              		.text
 2007              		.section	.text.unlikely
 2008              	.LCOLDE57:
 2009              		.text
 2010              	.LHOTE57:
 2011              		.section	.rodata.str1.8
 2012 00ff 00       		.align 8
 2013              	.LC58:
 2014 0100 556E6861 		.string	"Unhandled exception while destroying fixture SimpleFixture"
 2014      6E646C65 
 2014      64206578 
 2014      63657074 
 2014      696F6E20 
 2015              		.section	.text.unlikely
 2016              		.align 2
 2017              	.LCOLDB59:
 2018              		.text
 2019              	.LHOTB59:
 2020              		.align 2
 2021 07e2 0F1F4000 		.p2align 4,,15
 2021      662E0F1F 
 2021      84000000 
 2021      0000
 2023              	_ZNK12_GLOBAL__N_143TestSimpleFixtureDefaultFixtureCtorIsCalled7RunImplEv:
 2024              	.LFB1437:
 2025              		.cfi_startproc
 2026              		.cfi_personality 0x3,__gxx_personality_v0
 2027              		.cfi_lsda 0x3,.LLSDA1437
 2028 07f0 4155     		pushq	%r13
 2029              		.cfi_def_cfa_offset 16
 2030              		.cfi_offset 13, -16
 2031 07f2 4154     		pushq	%r12
 2032              		.cfi_def_cfa_offset 24
 2033              		.cfi_offset 12, -24
 2034 07f4 55       		pushq	%rbp
 2035              		.cfi_def_cfa_offset 32
 2036              		.cfi_offset 6, -32
 2037 07f5 53       		pushq	%rbx
 2038              		.cfi_def_cfa_offset 40
 2039              		.cfi_offset 3, -40
 2040 07f6 488D5F08 		leaq	8(%rdi), %rbx
 2041 07fa 4889FD   		movq	%rdi, %rbp
 2042 07fd 4881EC98 		subq	$408, %rsp
 2042      010000
 2043              		.cfi_def_cfa_offset 448
 2044 0804 4889DF   		movq	%rbx, %rdi
 2045 0807 83050000 		addl	$1, _ZN12_GLOBAL__N_113SimpleFixture13instanceCountE(%rip)
 2045      000001
 2046 080e 64488B04 		movq	%fs:40, %rax
 2046      25280000 
 2046      00
 2047 0817 48898424 		movq	%rax, 392(%rsp)
 2047      88010000 
 2048 081f 31C0     		xorl	%eax, %eax
 2049              	.LEHB23:
 2050 0821 E82AFDFF 		call	_ZN8UnitTest11ExecuteTestIN12_GLOBAL__N_145SimpleFixtureDefaultFixtureCtorIsCalledHelperEEEvR
 2050      FF
 2051              	.LEHE23:
 2052 0826 832D0000 		subl	$1, _ZN12_GLOBAL__N_113SimpleFixture13instanceCountE(%rip)
 2052      000001
 2053              	.L180:
 2054 082d 488B8424 		movq	392(%rsp), %rax
 2054      88010000 
 2055 0835 64483304 		xorq	%fs:40, %rax
 2055      25280000 
 2055      00
 2056 083e 750E     		jne	.L201
 2057 0840 4881C498 		addq	$408, %rsp
 2057      010000
 2058              		.cfi_remember_state
 2059              		.cfi_def_cfa_offset 40
 2060 0847 5B       		popq	%rbx
 2061              		.cfi_def_cfa_offset 32
 2062 0848 5D       		popq	%rbp
 2063              		.cfi_def_cfa_offset 24
 2064 0849 415C     		popq	%r12
 2065              		.cfi_def_cfa_offset 16
 2066 084b 415D     		popq	%r13
 2067              		.cfi_def_cfa_offset 8
 2068 084d C3       		ret
 2069              	.L201:
 2070              		.cfi_restore_state
 2071 084e E8000000 		call	__stack_chk_fail
 2071      00
 2072              	.L191:
 2073 0853 832D0000 		subl	$1, _ZN12_GLOBAL__N_113SimpleFixture13instanceCountE(%rip)
 2073      000001
 2074 085a 4883FA01 		cmpq	$1, %rdx
 2075 085e 4889C7   		movq	%rax, %rdi
 2076 0861 7477     		je	.L183
 2077 0863 4883FA02 		cmpq	$2, %rdx
 2078 0867 0F85E000 		jne	.L202
 2078      0000
 2079 086d E8000000 		call	__cxa_begin_catch
 2079      00
 2080 0872 488D7C24 		leaq	32(%rsp), %rdi
 2080      20
 2081 0877 4889C5   		movq	%rax, %rbp
 2082              	.LEHB24:
 2083 087a E8000000 		call	_ZN8UnitTest15MemoryOutStreamC1Ev
 2083      00
 2084              	.LEHE24:
 2085 087f 488B4500 		movq	0(%rbp), %rax
 2086 0883 4889EF   		movq	%rbp, %rdi
 2087 0886 FF5010   		call	*16(%rax)
 2088 0889 488D7C24 		leaq	32(%rsp), %rdi
 2088      20
 2089 088e BE000000 		movl	$.LC55, %esi
 2089      00
 2090 0893 4889C5   		movq	%rax, %rbp
 2091              	.LEHB25:
 2092 0896 E8000000 		call	_ZStlsISt11char_traitsIcEERSt13basic_ostreamIcT_ES5_PKc
 2092      00
 2093 089b 4889C7   		movq	%rax, %rdi
 2094 089e 4889EE   		movq	%rbp, %rsi
 2095 08a1 E8000000 		call	_ZStlsISt11char_traitsIcEERSt13basic_ostreamIcT_ES5_PKc
 2095      00
 2096 08a6 488D7C24 		leaq	32(%rsp), %rdi
 2096      20
 2097 08ab E8000000 		call	_ZNK8UnitTest15MemoryOutStream7GetTextEv
 2097      00
 2098 08b0 4889C5   		movq	%rax, %rbp
 2099 08b3 E8000000 		call	_ZN8UnitTest11CurrentTest7ResultsEv
 2099      00
 2100 08b8 488B38   		movq	(%rax), %rdi
 2101 08bb 4889EA   		movq	%rbp, %rdx
 2102 08be 4889DE   		movq	%rbx, %rsi
 2103 08c1 E8000000 		call	_ZN8UnitTest11TestResults13OnTestFailureERKNS_11TestDetailsEPKc
 2103      00
 2104              	.LEHE25:
 2105 08c6 488D7C24 		leaq	32(%rsp), %rdi
 2105      20
 2106              	.LEHB26:
 2107 08cb E8000000 		call	_ZN8UnitTest15MemoryOutStreamD1Ev
 2107      00
 2108              	.LEHE26:
 2109              	.L198:
 2110 08d0 E8000000 		call	__cxa_end_catch
 2110      00
 2111 08d5 E953FFFF 		jmp	.L180
 2111      FF
 2112              	.L183:
 2113 08da E8000000 		call	__cxa_begin_catch
 2113      00
 2114 08df 4889C3   		movq	%rax, %rbx
 2115 08e2 488B00   		movq	(%rax), %rax
 2116 08e5 4889DF   		movq	%rbx, %rdi
 2117 08e8 FF5010   		call	*16(%rax)
 2118 08eb 4889DF   		movq	%rbx, %rdi
 2119 08ee 4989C4   		movq	%rax, %r12
 2120              	.LEHB27:
 2121 08f1 E8000000 		call	_ZNK8UnitTest15AssertException10LineNumberEv
 2121      00
 2122 08f6 4889DF   		movq	%rbx, %rdi
 2123 08f9 4189C5   		movl	%eax, %r13d
 2124 08fc E8000000 		call	_ZNK8UnitTest15AssertException8FilenameEv
 2124      00
 2125 0901 488B5508 		movq	8(%rbp), %rdx
 2126 0905 488B7510 		movq	16(%rbp), %rsi
 2127 0909 4589E8   		movl	%r13d, %r8d
 2128 090c 4889C1   		movq	%rax, %rcx
 2129 090f 4889E7   		movq	%rsp, %rdi
 2130 0912 E8000000 		call	_ZN8UnitTest11TestDetailsC1EPKcS2_S2_i
 2130      00
 2131 0917 E8000000 		call	_ZN8UnitTest11CurrentTest7ResultsEv
 2131      00
 2132 091c 488B38   		movq	(%rax), %rdi
 2133 091f 4C89E2   		movq	%r12, %rdx
 2134 0922 4889E6   		movq	%rsp, %rsi
 2135 0925 E8000000 		call	_ZN8UnitTest11TestResults13OnTestFailureERKNS_11TestDetailsEPKc
 2135      00
 2136              	.LEHE27:
 2137 092a EBA4     		jmp	.L198
 2138              	.L194:
 2139 092c 488D7C24 		leaq	32(%rsp), %rdi
 2139      20
 2140 0931 4889C3   		movq	%rax, %rbx
 2141 0934 E8000000 		call	_ZN8UnitTest15MemoryOutStreamD1Ev
 2141      00
 2142              	.L187:
 2143 0939 E8000000 		call	__cxa_end_catch
 2143      00
 2144 093e 4889DF   		movq	%rbx, %rdi
 2145              	.LEHB28:
 2146 0941 E8000000 		call	_Unwind_Resume
 2146      00
 2147              	.LEHE28:
 2148              	.L192:
 2149              	.L199:
 2150 0946 4889C3   		movq	%rax, %rbx
 2151 0949 EBEE     		jmp	.L187
 2152              	.L193:
 2153 094b EBF9     		jmp	.L199
 2154              	.L202:
 2155 094d E8000000 		call	__cxa_begin_catch
 2155      00
 2156 0952 BA880000 		movl	$136, %edx
 2156      00
 2157 0957 4889DE   		movq	%rbx, %rsi
 2158 095a 4889E7   		movq	%rsp, %rdi
 2159              	.LEHB29:
 2160 095d E8000000 		call	_ZN8UnitTest11TestDetailsC1ERKS0_i
 2160      00
 2161 0962 E8000000 		call	_ZN8UnitTest11CurrentTest7ResultsEv
 2161      00
 2162 0967 488B38   		movq	(%rax), %rdi
 2163 096a BA000000 		movl	$.LC58, %edx
 2163      00
 2164 096f 4889E6   		movq	%rsp, %rsi
 2165 0972 E8000000 		call	_ZN8UnitTest11TestResults13OnTestFailureERKNS_11TestDetailsEPKc
 2165      00
 2166              	.LEHE29:
 2167              	.LEHB30:
 2168 0977 E8000000 		call	__cxa_end_catch
 2168      00
 2169              	.LEHE30:
 2170 097c E9ACFEFF 		jmp	.L180
 2170      FF
 2171              	.L195:
 2172 0981 4889C3   		movq	%rax, %rbx
 2173 0984 E8000000 		call	__cxa_end_catch
 2173      00
 2174 0989 4889DF   		movq	%rbx, %rdi
 2175              	.LEHB31:
 2176 098c E8000000 		call	_Unwind_Resume
 2176      00
 2177              	.LEHE31:
 2178              		.cfi_endproc
 2179              	.LFE1437:
 2180              		.section	.gcc_except_table
 2181              		.align 4
 2182              	.LLSDA1437:
 2183 00d0 FF       		.byte	0xff
 2184 00d1 03       		.byte	0x3
 2185 00d2 49       		.uleb128 .LLSDATT1437-.LLSDATTD1437
 2186              	.LLSDATTD1437:
 2187 00d3 01       		.byte	0x1
 2188 00d4 31       		.uleb128 .LLSDACSE1437-.LLSDACSB1437
 2189              	.LLSDACSB1437:
 2190 00d5 31       		.uleb128 .LEHB23-.LFB1437
 2191 00d6 05       		.uleb128 .LEHE23-.LEHB23
 2192 00d7 63       		.uleb128 .L191-.LFB1437
 2193 00d8 07       		.uleb128 0x7
 2194 00d9 8A01     		.uleb128 .LEHB24-.LFB1437
 2195 00db 05       		.uleb128 .LEHE24-.LEHB24
 2196 00dc DB02     		.uleb128 .L193-.LFB1437
 2197 00de 00       		.uleb128 0
 2198 00df A601     		.uleb128 .LEHB25-.LFB1437
 2199 00e1 30       		.uleb128 .LEHE25-.LEHB25
 2200 00e2 BC02     		.uleb128 .L194-.LFB1437
 2201 00e4 00       		.uleb128 0
 2202 00e5 DB01     		.uleb128 .LEHB26-.LFB1437
 2203 00e7 05       		.uleb128 .LEHE26-.LEHB26
 2204 00e8 DB02     		.uleb128 .L193-.LFB1437
 2205 00ea 00       		.uleb128 0
 2206 00eb 8102     		.uleb128 .LEHB27-.LFB1437
 2207 00ed 39       		.uleb128 .LEHE27-.LEHB27
 2208 00ee D602     		.uleb128 .L192-.LFB1437
 2209 00f0 00       		.uleb128 0
 2210 00f1 D102     		.uleb128 .LEHB28-.LFB1437
 2211 00f3 05       		.uleb128 .LEHE28-.LEHB28
 2212 00f4 00       		.uleb128 0
 2213 00f5 00       		.uleb128 0
 2214 00f6 ED02     		.uleb128 .LEHB29-.LFB1437
 2215 00f8 1A       		.uleb128 .LEHE29-.LEHB29
 2216 00f9 9103     		.uleb128 .L195-.LFB1437
 2217 00fb 00       		.uleb128 0
 2218 00fc 8703     		.uleb128 .LEHB30-.LFB1437
 2219 00fe 05       		.uleb128 .LEHE30-.LEHB30
 2220 00ff 00       		.uleb128 0
 2221 0100 00       		.uleb128 0
 2222 0101 9C03     		.uleb128 .LEHB31-.LFB1437
 2223 0103 05       		.uleb128 .LEHE31-.LEHB31
 2224 0104 00       		.uleb128 0
 2225 0105 00       		.uleb128 0
 2226              	.LLSDACSE1437:
 2227 0106 03       		.byte	0x3
 2228 0107 00       		.byte	0
 2229 0108 02       		.byte	0x2
 2230 0109 7D       		.byte	0x7d
 2231 010a 01       		.byte	0x1
 2232 010b 7D       		.byte	0x7d
 2233 010c 00       		.byte	0
 2234 010d 7D       		.byte	0x7d
 2235 010e 0000     		.align 4
 2236 0110 00000000 		.long	0
 2237              	
 2238 0114 00000000 		.long	_ZTISt9exception
 2239 0118 00000000 		.long	_ZTIN8UnitTest15AssertExceptionE
 2240              	.LLSDATT1437:
 2241              		.text
 2243              		.section	.text.unlikely
 2244              	.LCOLDE59:
 2245              		.text
 2246              	.LHOTE59:
 2247              		.section	.rodata.str1.8
 2248 013b 00000000 		.align 8
 2248      00
 2249              	.LC60:
 2250 0140 556E6861 		.string	"Unhandled exception in CHECK_EQUAL((void*)0, p)"
 2250      6E646C65 
 2250      64206578 
 2250      63657074 
 2250      696F6E20 
 2251              		.section	.text.unlikely
 2252              		.align 2
 2253              	.LCOLDB61:
 2254              		.text
 2255              	.LHOTB61:
 2256 0991 90       		.align 2
 2257 0992 0F1F4000 		.p2align 4,,15
 2257      662E0F1F 
 2257      84000000 
 2257      0000
 2259              	_ZNK12_GLOBAL__N_131TestCheckEqualWorksWithPointers7RunImplEv:
 2260              	.LFB1387:
 2261              		.cfi_startproc
 2262              		.cfi_personality 0x3,__gxx_personality_v0
 2263              		.cfi_lsda 0x3,.LLSDA1387
 2264 09a0 53       		pushq	%rbx
 2265              		.cfi_def_cfa_offset 16
 2266              		.cfi_offset 3, -16
 2267 09a1 4883EC30 		subq	$48, %rsp
 2268              		.cfi_def_cfa_offset 64
 2269 09a5 64488B04 		movq	%fs:40, %rax
 2269      25280000 
 2269      00
 2270 09ae 48894424 		movq	%rax, 40(%rsp)
 2270      28
 2271 09b3 31C0     		xorl	%eax, %eax
 2272              	.LEHB32:
 2273 09b5 E8000000 		call	_ZN8UnitTest11CurrentTest7DetailsEv
 2273      00
 2274 09ba 488B30   		movq	(%rax), %rsi
 2275 09bd BA220000 		movl	$34, %edx
 2275      00
 2276 09c2 4889E7   		movq	%rsp, %rdi
 2277 09c5 E8000000 		call	_ZN8UnitTest11TestDetailsC1ERKS0_i
 2277      00
 2278 09ca E8000000 		call	_ZN8UnitTest11CurrentTest7ResultsEv
 2278      00
 2279              	.LEHE32:
 2280              	.L203:
 2281 09cf 488B4424 		movq	40(%rsp), %rax
 2281      28
 2282 09d4 64483304 		xorq	%fs:40, %rax
 2282      25280000 
 2282      00
 2283 09dd 7506     		jne	.L211
 2284 09df 4883C430 		addq	$48, %rsp
 2285              		.cfi_remember_state
 2286              		.cfi_def_cfa_offset 16
 2287 09e3 5B       		popq	%rbx
 2288              		.cfi_def_cfa_offset 8
 2289 09e4 C3       		ret
 2290              	.L211:
 2291              		.cfi_restore_state
 2292 09e5 E8000000 		call	__stack_chk_fail
 2292      00
 2293              	.L208:
 2294 09ea 4889C7   		movq	%rax, %rdi
 2295 09ed E8000000 		call	__cxa_begin_catch
 2295      00
 2296              	.LEHB33:
 2297 09f2 E8000000 		call	_ZN8UnitTest11CurrentTest7DetailsEv
 2297      00
 2298 09f7 488B30   		movq	(%rax), %rsi
 2299 09fa BA220000 		movl	$34, %edx
 2299      00
 2300 09ff 4889E7   		movq	%rsp, %rdi
 2301 0a02 E8000000 		call	_ZN8UnitTest11TestDetailsC1ERKS0_i
 2301      00
 2302 0a07 E8000000 		call	_ZN8UnitTest11CurrentTest7ResultsEv
 2302      00
 2303 0a0c 488B38   		movq	(%rax), %rdi
 2304 0a0f BA000000 		movl	$.LC60, %edx
 2304      00
 2305 0a14 4889E6   		movq	%rsp, %rsi
 2306 0a17 E8000000 		call	_ZN8UnitTest11TestResults13OnTestFailureERKNS_11TestDetailsEPKc
 2306      00
 2307              	.LEHE33:
 2308              	.LEHB34:
 2309 0a1c E8000000 		call	__cxa_end_catch
 2309      00
 2310              	.LEHE34:
 2311 0a21 EBAC     		jmp	.L203
 2312              	.L209:
 2313 0a23 4889C3   		movq	%rax, %rbx
 2314 0a26 E8000000 		call	__cxa_end_catch
 2314      00
 2315 0a2b 4889DF   		movq	%rbx, %rdi
 2316              	.LEHB35:
 2317 0a2e E8000000 		call	_Unwind_Resume
 2317      00
 2318              	.LEHE35:
 2319              		.cfi_endproc
 2320              	.LFE1387:
 2321              		.section	.gcc_except_table
 2322              		.align 4
 2323              	.LLSDA1387:
 2324 011c FF       		.byte	0xff
 2325 011d 03       		.byte	0x3
 2326 011e 1D       		.uleb128 .LLSDATT1387-.LLSDATTD1387
 2327              	.LLSDATTD1387:
 2328 011f 01       		.byte	0x1
 2329 0120 12       		.uleb128 .LLSDACSE1387-.LLSDACSB1387
 2330              	.LLSDACSB1387:
 2331 0121 15       		.uleb128 .LEHB32-.LFB1387
 2332 0122 1A       		.uleb128 .LEHE32-.LEHB32
 2333 0123 4A       		.uleb128 .L208-.LFB1387
 2334 0124 01       		.uleb128 0x1
 2335 0125 52       		.uleb128 .LEHB33-.LFB1387
 2336 0126 2A       		.uleb128 .LEHE33-.LEHB33
 2337 0127 8301     		.uleb128 .L209-.LFB1387
 2338 0129 00       		.uleb128 0
 2339 012a 7C       		.uleb128 .LEHB34-.LFB1387
 2340 012b 05       		.uleb128 .LEHE34-.LEHB34
 2341 012c 00       		.uleb128 0
 2342 012d 00       		.uleb128 0
 2343 012e 8E01     		.uleb128 .LEHB35-.LFB1387
 2344 0130 05       		.uleb128 .LEHE35-.LEHB35
 2345 0131 00       		.uleb128 0
 2346 0132 00       		.uleb128 0
 2347              	.LLSDACSE1387:
 2348 0133 01       		.byte	0x1
 2349 0134 00       		.byte	0
 2350 0135 000000   		.align 4
 2351 0138 00000000 		.long	0
 2352              	
 2353              	.LLSDATT1387:
 2354              		.text
 2356              		.section	.text.unlikely
 2357              	.LCOLDE61:
 2358              		.text
 2359              	.LHOTE61:
 2360              		.section	.rodata.str1.1
 2361              	.LC67:
 2362 005c 45787065 		.string	"Expected [ "
 2362      63746564 
 2362      205B2000 
 2363              	.LC68:
 2364 0068 2000     		.string	" "
 2365              	.LC69:
 2366 006a 5D202B2F 		.string	"] +/- "
 2366      2D2000
 2367              	.LC71:
 2368 0071 20627574 		.string	" but was [ "
 2368      20776173 
 2368      205B2000 
 2369              	.LC72:
 2370 007d 5D00     		.string	"]"
 2371              		.section	.rodata.str1.8
 2372              		.align 8
 2373              	.LC73:
 2374 0170 556E6861 		.string	"Unhandled exception in CHECK_ARRAY_CLOSE(a1, a2)"
 2374      6E646C65 
 2374      64206578 
 2374      63657074 
 2374      696F6E20 
 2375              		.section	.text.unlikely
 2376              		.align 2
 2377              	.LCOLDB74:
 2378              		.text
 2379              	.LHOTB74:
 2380 0a33 90       		.align 2
 2381 0a34 6690662E 		.p2align 4,,15
 2381      0F1F8400 
 2381      00000000 
 2383              	_ZNK12_GLOBAL__N_122TestArrayCloseSucceeds7RunImplEv:
 2384              	.LFB1395:
 2385              		.cfi_startproc
 2386              		.cfi_personality 0x3,__gxx_personality_v0
 2387              		.cfi_lsda 0x3,.LLSDA1395
 2388 0a40 4155     		pushq	%r13
 2389              		.cfi_def_cfa_offset 16
 2390              		.cfi_offset 13, -16
 2391 0a42 4154     		pushq	%r12
 2392              		.cfi_def_cfa_offset 24
 2393              		.cfi_offset 12, -24
 2394 0a44 55       		pushq	%rbp
 2395              		.cfi_def_cfa_offset 32
 2396              		.cfi_offset 6, -32
 2397 0a45 53       		pushq	%rbx
 2398              		.cfi_def_cfa_offset 40
 2399              		.cfi_offset 3, -40
 2400 0a46 4881ECC8 		subq	$456, %rsp
 2400      010000
 2401              		.cfi_def_cfa_offset 496
 2402 0a4d 64488B04 		movq	%fs:40, %rax
 2402      25280000 
 2402      00
 2403 0a56 48898424 		movq	%rax, 440(%rsp)
 2403      B8010000 
 2404 0a5e 31C0     		xorl	%eax, %eax
 2405 0a60 C7442410 		movl	$0x3f800000, 16(%rsp)
 2405      0000803F 
 2406 0a68 C7442414 		movl	$0x40000000, 20(%rsp)
 2406      00000040 
 2407 0a70 C7442418 		movl	$0x40400000, 24(%rsp)
 2407      00004040 
 2408 0a78 C7442420 		movl	$0x3f800000, 32(%rsp)
 2408      0000803F 
 2409 0a80 C7442424 		movl	$0x4000a3d7, 36(%rsp)
 2409      D7A30040 
 2410 0a88 C7442428 		movl	$0x40400000, 40(%rsp)
 2410      00004040 
 2411              	.LEHB36:
 2412 0a90 E8000000 		call	_ZN8UnitTest11CurrentTest7DetailsEv
 2412      00
 2413 0a95 488D6C24 		leaq	48(%rsp), %rbp
 2413      30
 2414 0a9a 488B30   		movq	(%rax), %rsi
 2415 0a9d BA2F0000 		movl	$47, %edx
 2415      00
 2416 0aa2 4889EF   		movq	%rbp, %rdi
 2417 0aa5 E8000000 		call	_ZN8UnitTest11TestDetailsC1ERKS0_i
 2417      00
 2418 0aaa E8000000 		call	_ZN8UnitTest11CurrentTest7ResultsEv
 2418      00
 2419              	.LEHE36:
 2420 0aaf F30F104C 		movss	16(%rsp), %xmm1
 2420      2410
 2421 0ab5 4C8B20   		movq	(%rax), %r12
 2422 0ab8 0F28D9   		movaps	%xmm1, %xmm3
 2423 0abb 31C0     		xorl	%eax, %eax
 2424 0abd F30F1005 		movss	.LC66(%rip), %xmm0
 2424      00000000 
 2425 0ac5 F30F5CD8 		subss	%xmm0, %xmm3
 2426 0ac9 F30F1054 		movss	32(%rsp), %xmm2
 2426      2420
 2427 0acf 0F2ED3   		ucomiss	%xmm3, %xmm2
 2428 0ad2 720A     		jb	.L213
 2429 0ad4 F30F58C8 		addss	%xmm0, %xmm1
 2430 0ad8 0F2ECA   		ucomiss	%xmm2, %xmm1
 2431 0adb 0F93C0   		setnb	%al
 2432              	.L213:
 2433 0ade F30F104C 		movss	20(%rsp), %xmm1
 2433      2414
 2434 0ae4 0F28D9   		movaps	%xmm1, %xmm3
 2435 0ae7 F30F1054 		movss	36(%rsp), %xmm2
 2435      2424
 2436 0aed F30F5CD8 		subss	%xmm0, %xmm3
 2437 0af1 0F2ED3   		ucomiss	%xmm3, %xmm2
 2438 0af4 0F820E03 		jb	.L256
 2438      0000
 2439 0afa F30F58C8 		addss	%xmm0, %xmm1
 2440 0afe BA000000 		movl	$0, %edx
 2440      00
 2441 0b03 0F2ECA   		ucomiss	%xmm2, %xmm1
 2442 0b06 0F42C2   		cmovb	%edx, %eax
 2443              	.L215:
 2444 0b09 F30F1054 		movss	24(%rsp), %xmm2
 2444      2418
 2445 0b0f 0F28DA   		movaps	%xmm2, %xmm3
 2446 0b12 F30F104C 		movss	40(%rsp), %xmm1
 2446      2428
 2447 0b18 F30F5CD8 		subss	%xmm0, %xmm3
 2448 0b1c 0F2ECB   		ucomiss	%xmm3, %xmm1
 2449 0b1f 0F83EB02 		jnb	.L262
 2449      0000
 2450              	.L217:
 2451 0b25 488D9C24 		leaq	176(%rsp), %rbx
 2451      B0000000 
 2452 0b2d 4889DF   		movq	%rbx, %rdi
 2453 0b30 E8000000 		call	_ZNSt8ios_baseC2Ev
 2453      00
 2454 0b35 31F6     		xorl	%esi, %esi
 2455 0b37 4889DF   		movq	%rbx, %rdi
 2456 0b3a 48C78424 		movq	$0, 392(%rsp)
 2456      88010000 
 2456      00000000 
 2457 0b46 C6842490 		movb	$0, 400(%rsp)
 2457      01000000 
 2458 0b4e C6842491 		movb	$0, 401(%rsp)
 2458      01000000 
 2459 0b56 48C78424 		movq	$0, 408(%rsp)
 2459      98010000 
 2459      00000000 
 2460 0b62 48C78424 		movq	$0, 416(%rsp)
 2460      A0010000 
 2460      00000000 
 2461 0b6e 48C78424 		movq	$0, 424(%rsp)
 2461      A8010000 
 2461      00000000 
 2462 0b7a 48C78424 		movq	$0, 432(%rsp)
 2462      B0010000 
 2462      00000000 
 2463 0b86 48C74424 		movq	$_ZTCN8UnitTest15MemoryOutStreamE0_So+24, 80(%rsp)
 2463      50000000 
 2463      00
 2464 0b8f 48C78424 		movq	$_ZTCN8UnitTest15MemoryOutStreamE0_So+64, 176(%rsp)
 2464      B0000000 
 2464      00000000 
 2465              	.LEHB37:
 2466 0b9b E8000000 		call	_ZNSt9basic_iosIcSt11char_traitsIcEE4initEPSt15basic_streambufIcS1_E
 2466      00
 2467              	.LEHE37:
 2468 0ba0 488DBC24 		leaq	144(%rsp), %rdi
 2468      90000000 
 2469 0ba8 48C74424 		movq	$_ZTCN8UnitTest15MemoryOutStreamE0_St19basic_ostringstreamIcSt11char_traitsIcESaIcEE+24, 80(%
 2469      50000000 
 2469      00
 2470 0bb1 48C78424 		movq	$_ZTCN8UnitTest15MemoryOutStreamE0_St19basic_ostringstreamIcSt11char_traitsIcESaIcEE+64, 176(
 2470      B0000000 
 2470      00000000 
 2471 0bbd 48C74424 		movq	$_ZTVSt15basic_streambufIcSt11char_traitsIcEE+16, 88(%rsp)
 2471      58000000 
 2471      00
 2472 0bc6 48C74424 		movq	$0, 96(%rsp)
 2472      60000000 
 2472      00
 2473 0bcf 48C74424 		movq	$0, 104(%rsp)
 2473      68000000 
 2473      00
 2474 0bd8 48C74424 		movq	$0, 112(%rsp)
 2474      70000000 
 2474      00
 2475 0be1 48C74424 		movq	$0, 120(%rsp)
 2475      78000000 
 2475      00
 2476 0bea 48C78424 		movq	$0, 128(%rsp)
 2476      80000000 
 2476      00000000 
 2477 0bf6 48C78424 		movq	$0, 136(%rsp)
 2477      88000000 
 2477      00000000 
 2478 0c02 E8000000 		call	_ZNSt6localeC1Ev
 2478      00
 2479 0c07 488B4424 		movq	80(%rsp), %rax
 2479      50
 2480 0c0c 488D7C24 		leaq	80(%rsp), %rdi
 2480      50
 2481 0c11 488D7424 		leaq	88(%rsp), %rsi
 2481      58
 2482 0c16 48C74424 		movq	$_ZTVSt15basic_stringbufIcSt11char_traitsIcESaIcEE+16, 88(%rsp)
 2482      58000000 
 2482      00
 2483 0c1f C7842498 		movl	$16, 152(%rsp)
 2483      00000010 
 2483      000000
 2484 0c2a 48C78424 		movq	$_ZNSs4_Rep20_S_empty_rep_storageE+24, 160(%rsp)
 2484      A0000000 
 2484      00000000 
 2485 0c36 480378E8 		addq	-24(%rax), %rdi
 2486              	.LEHB38:
 2487 0c3a E8000000 		call	_ZNSt9basic_iosIcSt11char_traitsIcEE4initEPSt15basic_streambufIcS1_E
 2487      00
 2488              	.LEHE38:
 2489 0c3f 488D7C24 		leaq	80(%rsp), %rdi
 2489      50
 2490 0c44 BA0B0000 		movl	$11, %edx
 2490      00
 2491 0c49 BE000000 		movl	$.LC67, %esi
 2491      00
 2492 0c4e 48C74424 		movq	$_ZTVN8UnitTest15MemoryOutStreamE+24, 80(%rsp)
 2492      50000000 
 2492      00
 2493 0c57 48C78424 		movq	$_ZTVN8UnitTest15MemoryOutStreamE+64, 176(%rsp)
 2493      B0000000 
 2493      00000000 
 2494 0c63 48C78424 		movq	$_ZNSs4_Rep20_S_empty_rep_storageE+24, 168(%rsp)
 2494      A8000000 
 2494      00000000 
 2495              	.LEHB39:
 2496 0c6f E8000000 		call	_ZSt16__ostream_insertIcSt11char_traitsIcEERSt13basic_ostreamIT_T0_ES6_PKS3_l
 2496      00
 2497 0c74 488D5C24 		leaq	16(%rsp), %rbx
 2497      10
 2498 0c79 4C8D6B0C 		leaq	12(%rbx), %r13
 2499 0c7d 0F1F00   		.p2align 4,,10
 2500              		.p2align 3
 2501              	.L226:
 2502 0c80 660FEFC0 		pxor	%xmm0, %xmm0
 2503 0c84 488D7C24 		leaq	80(%rsp), %rdi
 2503      50
 2504 0c89 F30F5A03 		cvtss2sd	(%rbx), %xmm0
 2505 0c8d E8000000 		call	_ZNSo9_M_insertIdEERSoT_
 2505      00
 2506 0c92 BA010000 		movl	$1, %edx
 2506      00
 2507 0c97 BE000000 		movl	$.LC68, %esi
 2507      00
 2508 0c9c 4889C7   		movq	%rax, %rdi
 2509 0c9f E8000000 		call	_ZSt16__ostream_insertIcSt11char_traitsIcEERSt13basic_ostreamIT_T0_ES6_PKS3_l
 2509      00
 2510 0ca4 4883C304 		addq	$4, %rbx
 2511 0ca8 4C39EB   		cmpq	%r13, %rbx
 2512 0cab 75D3     		jne	.L226
 2513 0cad 488D7C24 		leaq	80(%rsp), %rdi
 2513      50
 2514 0cb2 BA060000 		movl	$6, %edx
 2514      00
 2515 0cb7 BE000000 		movl	$.LC69, %esi
 2515      00
 2516 0cbc E8000000 		call	_ZSt16__ostream_insertIcSt11char_traitsIcEERSt13basic_ostreamIT_T0_ES6_PKS3_l
 2516      00
 2517 0cc1 F20F1005 		movsd	.LC70(%rip), %xmm0
 2517      00000000 
 2518 0cc9 488D7C24 		leaq	80(%rsp), %rdi
 2518      50
 2519 0cce E8000000 		call	_ZNSo9_M_insertIdEERSoT_
 2519      00
 2520 0cd3 BA0B0000 		movl	$11, %edx
 2520      00
 2521 0cd8 BE000000 		movl	$.LC71, %esi
 2521      00
 2522 0cdd 4889C7   		movq	%rax, %rdi
 2523 0ce0 E8000000 		call	_ZSt16__ostream_insertIcSt11char_traitsIcEERSt13basic_ostreamIT_T0_ES6_PKS3_l
 2523      00
 2524 0ce5 488D5C24 		leaq	32(%rsp), %rbx
 2524      20
 2525 0cea 4C8D6B0C 		leaq	12(%rbx), %r13
 2526 0cee 6690     		.p2align 4,,10
 2527              		.p2align 3
 2528              	.L227:
 2529 0cf0 660FEFC0 		pxor	%xmm0, %xmm0
 2530 0cf4 488D7C24 		leaq	80(%rsp), %rdi
 2530      50
 2531 0cf9 F30F5A03 		cvtss2sd	(%rbx), %xmm0
 2532 0cfd E8000000 		call	_ZNSo9_M_insertIdEERSoT_
 2532      00
 2533 0d02 BA010000 		movl	$1, %edx
 2533      00
 2534 0d07 BE000000 		movl	$.LC68, %esi
 2534      00
 2535 0d0c 4889C7   		movq	%rax, %rdi
 2536 0d0f E8000000 		call	_ZSt16__ostream_insertIcSt11char_traitsIcEERSt13basic_ostreamIT_T0_ES6_PKS3_l
 2536      00
 2537 0d14 4883C304 		addq	$4, %rbx
 2538 0d18 4C39EB   		cmpq	%r13, %rbx
 2539 0d1b 75D3     		jne	.L227
 2540 0d1d 488D7C24 		leaq	80(%rsp), %rdi
 2540      50
 2541 0d22 BA010000 		movl	$1, %edx
 2541      00
 2542 0d27 BE000000 		movl	$.LC72, %esi
 2542      00
 2543 0d2c E8000000 		call	_ZSt16__ostream_insertIcSt11char_traitsIcEERSt13basic_ostreamIT_T0_ES6_PKS3_l
 2543      00
 2544 0d31 488D7C24 		leaq	80(%rsp), %rdi
 2544      50
 2545 0d36 E8000000 		call	_ZNK8UnitTest15MemoryOutStream7GetTextEv
 2545      00
 2546 0d3b 4889C2   		movq	%rax, %rdx
 2547 0d3e 4889EE   		movq	%rbp, %rsi
 2548 0d41 4C89E7   		movq	%r12, %rdi
 2549 0d44 E8000000 		call	_ZN8UnitTest11TestResults13OnTestFailureERKNS_11TestDetailsEPKc
 2549      00
 2550              	.LEHE39:
 2551 0d49 488B8424 		movq	168(%rsp), %rax
 2551      A8000000 
 2552 0d51 48C74424 		movq	$_ZTVN8UnitTest15MemoryOutStreamE+24, 80(%rsp)
 2552      50000000 
 2552      00
 2553 0d5a 48C78424 		movq	$_ZTVN8UnitTest15MemoryOutStreamE+64, 176(%rsp)
 2553      B0000000 
 2553      00000000 
 2554 0d66 488D78E8 		leaq	-24(%rax), %rdi
 2555 0d6a 4881FF00 		cmpq	$_ZNSs4_Rep20_S_empty_rep_storageE, %rdi
 2555      000000
 2556 0d71 0F85B900 		jne	.L263
 2556      0000
 2557              	.L229:
 2558 0d77 488B8424 		movq	160(%rsp), %rax
 2558      A0000000 
 2559 0d7f 48C74424 		movq	$_ZTCN8UnitTest15MemoryOutStreamE0_St19basic_ostringstreamIcSt11char_traitsIcESaIcEE+24, 80(%
 2559      50000000 
 2559      00
 2560 0d88 48C78424 		movq	$_ZTCN8UnitTest15MemoryOutStreamE0_St19basic_ostringstreamIcSt11char_traitsIcESaIcEE+64, 176(
 2560      B0000000 
 2560      00000000 
 2561 0d94 48C74424 		movq	$_ZTVSt15basic_stringbufIcSt11char_traitsIcESaIcEE+16, 88(%rsp)
 2561      58000000 
 2561      00
 2562 0d9d 488D78E8 		leaq	-24(%rax), %rdi
 2563 0da1 4881FF00 		cmpq	$_ZNSs4_Rep20_S_empty_rep_storageE, %rdi
 2563      000000
 2564 0da8 0F85AF00 		jne	.L264
 2564      0000
 2565              	.L234:
 2566 0dae 488DBC24 		leaq	144(%rsp), %rdi
 2566      90000000 
 2567 0db6 48C74424 		movq	$_ZTVSt15basic_streambufIcSt11char_traitsIcEE+16, 88(%rsp)
 2567      58000000 
 2567      00
 2568 0dbf E8000000 		call	_ZNSt6localeD1Ev
 2568      00
 2569 0dc4 488D4424 		leaq	80(%rsp), %rax
 2569      50
 2570 0dc9 48C78424 		movq	$_ZTVSt9basic_iosIcSt11char_traitsIcEE+16, 176(%rsp)
 2570      B0000000 
 2570      00000000 
 2571 0dd5 488D7860 		leaq	96(%rax), %rdi
 2572              	.LEHB40:
 2573 0dd9 E8000000 		call	_ZNSt8ios_baseD2Ev
 2573      00
 2574              	.LEHE40:
 2575              	.L212:
 2576 0dde 488B8424 		movq	440(%rsp), %rax
 2576      B8010000 
 2577 0de6 64483304 		xorq	%fs:40, %rax
 2577      25280000 
 2577      00
 2578 0def 0F85AF00 		jne	.L265
 2578      0000
 2579 0df5 4881C4C8 		addq	$456, %rsp
 2579      010000
 2580              		.cfi_remember_state
 2581              		.cfi_def_cfa_offset 40
 2582 0dfc 5B       		popq	%rbx
 2583              		.cfi_def_cfa_offset 32
 2584 0dfd 5D       		popq	%rbp
 2585              		.cfi_def_cfa_offset 24
 2586 0dfe 415C     		popq	%r12
 2587              		.cfi_def_cfa_offset 16
 2588 0e00 415D     		popq	%r13
 2589              		.cfi_def_cfa_offset 8
 2590 0e02 C3       		ret
 2591              		.p2align 4,,10
 2592 0e03 0F1F4400 		.p2align 3
 2592      00
 2593              	.L256:
 2594              		.cfi_restore_state
 2595 0e08 31C0     		xorl	%eax, %eax
 2596 0e0a E9FAFCFF 		jmp	.L215
 2596      FF
 2597 0e0f 90       		.p2align 4,,10
 2598              		.p2align 3
 2599              	.L262:
 2600 0e10 F30F58C2 		addss	%xmm2, %xmm0
 2601 0e14 0F2EC1   		ucomiss	%xmm1, %xmm0
 2602 0e17 0F8208FD 		jb	.L217
 2602      FFFF
 2603 0e1d 84C0     		testb	%al, %al
 2604 0e1f 75BD     		jne	.L212
 2605 0e21 E9FFFCFF 		jmp	.L217
 2605      FF
 2606 0e26 662E0F1F 		.p2align 4,,10
 2606      84000000 
 2606      0000
 2607              		.p2align 3
 2608              	.L263:
 2609 0e30 BA000000 		movl	$_ZL28__gthrw___pthread_key_createPjPFvPvE, %edx
 2609      00
 2610 0e35 4885D2   		testq	%rdx, %rdx
 2611 0e38 7450     		je	.L230
 2612 0e3a BAFFFFFF 		movl	$-1, %edx
 2612      FF
 2613 0e3f F00FC150 		lock xaddl	%edx, -8(%rax)
 2613      F8
 2614 0e44 89D0     		movl	%edx, %eax
 2615              	.L231:
 2616 0e46 85C0     		testl	%eax, %eax
 2617 0e48 0F8F29FF 		jg	.L229
 2617      FFFF
 2618 0e4e 488D7424 		leaq	15(%rsp), %rsi
 2618      0F
 2619 0e53 E8000000 		call	_ZNSs4_Rep10_M_destroyERKSaIcE
 2619      00
 2620 0e58 E91AFFFF 		jmp	.L229
 2620      FF
 2621              	.L264:
 2622 0e5d BA000000 		movl	$_ZL28__gthrw___pthread_key_createPjPFvPvE, %edx
 2622      00
 2623 0e62 4885D2   		testq	%rdx, %rdx
 2624 0e65 7430     		je	.L235
 2625 0e67 BAFFFFFF 		movl	$-1, %edx
 2625      FF
 2626 0e6c F00FC150 		lock xaddl	%edx, -8(%rax)
 2626      F8
 2627 0e71 89D0     		movl	%edx, %eax
 2628              	.L236:
 2629 0e73 85C0     		testl	%eax, %eax
 2630 0e75 0F8F33FF 		jg	.L234
 2630      FFFF
 2631 0e7b 488D7424 		leaq	15(%rsp), %rsi
 2631      0F
 2632 0e80 E8000000 		call	_ZNSs4_Rep10_M_destroyERKSaIcE
 2632      00
 2633 0e85 E924FFFF 		jmp	.L234
 2633      FF
 2634              	.L230:
 2635 0e8a 8B50F8   		movl	-8(%rax), %edx
 2636 0e8d 8D4AFF   		leal	-1(%rdx), %ecx
 2637 0e90 8948F8   		movl	%ecx, -8(%rax)
 2638 0e93 89D0     		movl	%edx, %eax
 2639 0e95 EBAF     		jmp	.L231
 2640              	.L235:
 2641 0e97 8B50F8   		movl	-8(%rax), %edx
 2642 0e9a 8D4AFF   		leal	-1(%rdx), %ecx
 2643 0e9d 8948F8   		movl	%ecx, -8(%rax)
 2644 0ea0 89D0     		movl	%edx, %eax
 2645 0ea2 EBCF     		jmp	.L236
 2646              	.L265:
 2647 0ea4 E8000000 		call	__stack_chk_fail
 2647      00
 2648              	.L246:
 2649 0ea9 488D7C24 		leaq	80(%rsp), %rdi
 2649      50
 2650 0eae 4889C3   		movq	%rax, %rbx
 2651 0eb1 E8000000 		call	_ZN8UnitTest15MemoryOutStreamD1Ev
 2651      00
 2652 0eb6 4889D8   		movq	%rbx, %rax
 2653              	.L225:
 2654 0eb9 4889C7   		movq	%rax, %rdi
 2655 0ebc E8000000 		call	__cxa_begin_catch
 2655      00
 2656              	.LEHB41:
 2657 0ec1 E8000000 		call	_ZN8UnitTest11CurrentTest7DetailsEv
 2657      00
 2658 0ec6 488D6C24 		leaq	48(%rsp), %rbp
 2658      30
 2659 0ecb 488B30   		movq	(%rax), %rsi
 2660 0ece BA2F0000 		movl	$47, %edx
 2660      00
 2661 0ed3 4889EF   		movq	%rbp, %rdi
 2662 0ed6 E8000000 		call	_ZN8UnitTest11TestDetailsC1ERKS0_i
 2662      00
 2663 0edb E8000000 		call	_ZN8UnitTest11CurrentTest7ResultsEv
 2663      00
 2664 0ee0 488B38   		movq	(%rax), %rdi
 2665 0ee3 BA000000 		movl	$.LC73, %edx
 2665      00
 2666 0ee8 4889EE   		movq	%rbp, %rsi
 2667 0eeb E8000000 		call	_ZN8UnitTest11TestResults13OnTestFailureERKNS_11TestDetailsEPKc
 2667      00
 2668              	.LEHE41:
 2669              	.LEHB42:
 2670 0ef0 E8000000 		call	__cxa_end_catch
 2670      00
 2671              	.LEHE42:
 2672 0ef5 E9E4FEFF 		jmp	.L212
 2672      FF
 2673              	.L244:
 2674 0efa EBBD     		jmp	.L225
 2675              	.L245:
 2676 0efc 4889C3   		movq	%rax, %rbx
 2677 0eff E8000000 		call	__cxa_end_catch
 2677      00
 2678 0f04 4889DF   		movq	%rbx, %rdi
 2679              	.LEHB43:
 2680 0f07 E8000000 		call	_Unwind_Resume
 2680      00
 2681              	.LEHE43:
 2682              	.L248:
 2683 0f0c 488D7C24 		leaq	88(%rsp), %rdi
 2683      58
 2684 0f11 4889C3   		movq	%rax, %rbx
 2685 0f14 E8000000 		call	_ZNSt15basic_stringbufIcSt11char_traitsIcESaIcEED1Ev
 2685      00
 2686              	.L223:
 2687 0f19 488DBC24 		leaq	176(%rsp), %rdi
 2687      B0000000 
 2688 0f21 48C78424 		movq	$_ZTVSt9basic_iosIcSt11char_traitsIcEE+16, 176(%rsp)
 2688      B0000000 
 2688      00000000 
 2689 0f2d E8000000 		call	_ZNSt8ios_baseD2Ev
 2689      00
 2690 0f32 4889D8   		movq	%rbx, %rax
 2691 0f35 EB82     		jmp	.L225
 2692              	.L247:
 2693 0f37 4889C3   		movq	%rax, %rbx
 2694 0f3a EBDD     		jmp	.L223
 2695              		.cfi_endproc
 2696              	.LFE1395:
 2697              		.section	.gcc_except_table
 2698              		.align 4
 2699              	.LLSDA1395:
 2700 013c FF       		.byte	0xff
 2701 013d 03       		.byte	0x3
 2702 013e 39       		.uleb128 .LLSDATT1395-.LLSDATTD1395
 2703              	.LLSDATTD1395:
 2704 013f 01       		.byte	0x1
 2705 0140 2E       		.uleb128 .LLSDACSE1395-.LLSDACSB1395
 2706              	.LLSDACSB1395:
 2707 0141 50       		.uleb128 .LEHB36-.LFB1395
 2708 0142 1F       		.uleb128 .LEHE36-.LEHB36
 2709 0143 BA09     		.uleb128 .L244-.LFB1395
 2710 0145 01       		.uleb128 0x1
 2711 0146 DB02     		.uleb128 .LEHB37-.LFB1395
 2712 0148 05       		.uleb128 .LEHE37-.LEHB37
 2713 0149 F709     		.uleb128 .L247-.LFB1395
 2714 014b 03       		.uleb128 0x3
 2715 014c FA03     		.uleb128 .LEHB38-.LFB1395
 2716 014e 05       		.uleb128 .LEHE38-.LEHB38
 2717 014f CC09     		.uleb128 .L248-.LFB1395
 2718 0151 03       		.uleb128 0x3
 2719 0152 AF04     		.uleb128 .LEHB39-.LFB1395
 2720 0154 DA01     		.uleb128 .LEHE39-.LEHB39
 2721 0156 E908     		.uleb128 .L246-.LFB1395
 2722 0158 03       		.uleb128 0x3
 2723 0159 9907     		.uleb128 .LEHB40-.LFB1395
 2724 015b 05       		.uleb128 .LEHE40-.LEHB40
 2725 015c BA09     		.uleb128 .L244-.LFB1395
 2726 015e 01       		.uleb128 0x1
 2727 015f 8109     		.uleb128 .LEHB41-.LFB1395
 2728 0161 2F       		.uleb128 .LEHE41-.LEHB41
 2729 0162 BC09     		.uleb128 .L245-.LFB1395
 2730 0164 00       		.uleb128 0
 2731 0165 B009     		.uleb128 .LEHB42-.LFB1395
 2732 0167 05       		.uleb128 .LEHE42-.LEHB42
 2733 0168 00       		.uleb128 0
 2734 0169 00       		.uleb128 0
 2735 016a C709     		.uleb128 .LEHB43-.LFB1395
 2736 016c 05       		.uleb128 .LEHE43-.LEHB43
 2737 016d 00       		.uleb128 0
 2738 016e 00       		.uleb128 0
 2739              	.LLSDACSE1395:
 2740 016f 01       		.byte	0x1
 2741 0170 00       		.byte	0
 2742 0171 00       		.byte	0
 2743 0172 7D       		.byte	0x7d
 2744 0173 00       		.align 4
 2745 0174 00000000 		.long	0
 2746              	
 2747              	.LLSDATT1395:
 2748              		.text
 2750              		.section	.text.unlikely
 2751              	.LCOLDE74:
 2752              		.text
 2753              	.LHOTE74:
 2754              		.section	.rodata.str1.8
 2755 01a1 00000000 		.align 8
 2755      000000
 2756              	.LC75:
 2757 01a8 556E6861 		.string	"Unhandled exception in CHECK_EQUAL(x, y)"
 2757      6E646C65 
 2757      64206578 
 2757      63657074 
 2757      696F6E20 
 2758              		.section	.text.unlikely
 2759              		.align 2
 2760              	.LCOLDB76:
 2761              		.text
 2762              	.LHOTB76:
 2763              		.align 2
 2764 0f3c 0F1F4000 		.p2align 4,,15
 2766              	_ZNK12_GLOBAL__N_127TestValidCheckEqualSucceeds7RunImplEv:
 2767              	.LFB1383:
 2768              		.cfi_startproc
 2769              		.cfi_personality 0x3,__gxx_personality_v0
 2770              		.cfi_lsda 0x3,.LLSDA1383
 2771 0f40 53       		pushq	%rbx
 2772              		.cfi_def_cfa_offset 16
 2773              		.cfi_offset 3, -16
 2774 0f41 4883EC30 		subq	$48, %rsp
 2775              		.cfi_def_cfa_offset 64
 2776 0f45 64488B04 		movq	%fs:40, %rax
 2776      25280000 
 2776      00
 2777 0f4e 48894424 		movq	%rax, 40(%rsp)
 2777      28
 2778 0f53 31C0     		xorl	%eax, %eax
 2779              	.LEHB44:
 2780 0f55 E8000000 		call	_ZN8UnitTest11CurrentTest7DetailsEv
 2780      00
 2781 0f5a 488B30   		movq	(%rax), %rsi
 2782 0f5d BA1C0000 		movl	$28, %edx
 2782      00
 2783 0f62 4889E7   		movq	%rsp, %rdi
 2784 0f65 E8000000 		call	_ZN8UnitTest11TestDetailsC1ERKS0_i
 2784      00
 2785 0f6a E8000000 		call	_ZN8UnitTest11CurrentTest7ResultsEv
 2785      00
 2786              	.LEHE44:
 2787              	.L266:
 2788 0f6f 488B4424 		movq	40(%rsp), %rax
 2788      28
 2789 0f74 64483304 		xorq	%fs:40, %rax
 2789      25280000 
 2789      00
 2790 0f7d 7506     		jne	.L274
 2791 0f7f 4883C430 		addq	$48, %rsp
 2792              		.cfi_remember_state
 2793              		.cfi_def_cfa_offset 16
 2794 0f83 5B       		popq	%rbx
 2795              		.cfi_def_cfa_offset 8
 2796 0f84 C3       		ret
 2797              	.L274:
 2798              		.cfi_restore_state
 2799 0f85 E8000000 		call	__stack_chk_fail
 2799      00
 2800              	.L271:
 2801 0f8a 4889C7   		movq	%rax, %rdi
 2802 0f8d E8000000 		call	__cxa_begin_catch
 2802      00
 2803              	.LEHB45:
 2804 0f92 E8000000 		call	_ZN8UnitTest11CurrentTest7DetailsEv
 2804      00
 2805 0f97 488B30   		movq	(%rax), %rsi
 2806 0f9a BA1C0000 		movl	$28, %edx
 2806      00
 2807 0f9f 4889E7   		movq	%rsp, %rdi
 2808 0fa2 E8000000 		call	_ZN8UnitTest11TestDetailsC1ERKS0_i
 2808      00
 2809 0fa7 E8000000 		call	_ZN8UnitTest11CurrentTest7ResultsEv
 2809      00
 2810 0fac 488B38   		movq	(%rax), %rdi
 2811 0faf BA000000 		movl	$.LC75, %edx
 2811      00
 2812 0fb4 4889E6   		movq	%rsp, %rsi
 2813 0fb7 E8000000 		call	_ZN8UnitTest11TestResults13OnTestFailureERKNS_11TestDetailsEPKc
 2813      00
 2814              	.LEHE45:
 2815              	.LEHB46:
 2816 0fbc E8000000 		call	__cxa_end_catch
 2816      00
 2817              	.LEHE46:
 2818 0fc1 EBAC     		jmp	.L266
 2819              	.L272:
 2820 0fc3 4889C3   		movq	%rax, %rbx
 2821 0fc6 E8000000 		call	__cxa_end_catch
 2821      00
 2822 0fcb 4889DF   		movq	%rbx, %rdi
 2823              	.LEHB47:
 2824 0fce E8000000 		call	_Unwind_Resume
 2824      00
 2825              	.LEHE47:
 2826              		.cfi_endproc
 2827              	.LFE1383:
 2828              		.section	.gcc_except_table
 2829              		.align 4
 2830              	.LLSDA1383:
 2831 0178 FF       		.byte	0xff
 2832 0179 03       		.byte	0x3
 2833 017a 1D       		.uleb128 .LLSDATT1383-.LLSDATTD1383
 2834              	.LLSDATTD1383:
 2835 017b 01       		.byte	0x1
 2836 017c 12       		.uleb128 .LLSDACSE1383-.LLSDACSB1383
 2837              	.LLSDACSB1383:
 2838 017d 15       		.uleb128 .LEHB44-.LFB1383
 2839 017e 1A       		.uleb128 .LEHE44-.LEHB44
 2840 017f 4A       		.uleb128 .L271-.LFB1383
 2841 0180 01       		.uleb128 0x1
 2842 0181 52       		.uleb128 .LEHB45-.LFB1383
 2843 0182 2A       		.uleb128 .LEHE45-.LEHB45
 2844 0183 8301     		.uleb128 .L272-.LFB1383
 2845 0185 00       		.uleb128 0
 2846 0186 7C       		.uleb128 .LEHB46-.LFB1383
 2847 0187 05       		.uleb128 .LEHE46-.LEHB46
 2848 0188 00       		.uleb128 0
 2849 0189 00       		.uleb128 0
 2850 018a 8E01     		.uleb128 .LEHB47-.LFB1383
 2851 018c 05       		.uleb128 .LEHE47-.LEHB47
 2852 018d 00       		.uleb128 0
 2853 018e 00       		.uleb128 0
 2854              	.LLSDACSE1383:
 2855 018f 01       		.byte	0x1
 2856 0190 00       		.byte	0
 2857 0191 000000   		.align 4
 2858 0194 00000000 		.long	0
 2859              	
 2860              	.LLSDATT1383:
 2861              		.text
 2863              		.section	.text.unlikely
 2864              	.LCOLDE76:
 2865              		.text
 2866              	.LHOTE76:
 2867              		.section	.text.unlikely._ZNSt15basic_stringbufIcSt11char_traitsIcESaIcEED0Ev,"axG",@progbits,_ZNSt
 2868              		.align 2
 2869              	.LCOLDB77:
 2870              		.section	.text._ZNSt15basic_stringbufIcSt11char_traitsIcESaIcEED0Ev,"axG",@progbits,_ZNSt15basic_s
 2871              	.LHOTB77:
 2872              		.align 2
 2873              		.p2align 4,,15
 2874              		.weak	_ZNSt15basic_stringbufIcSt11char_traitsIcESaIcEED0Ev
 2876              	_ZNSt15basic_stringbufIcSt11char_traitsIcESaIcEED0Ev:
 2877              	.LFB1469:
 2878              		.cfi_startproc
 2879 0000 53       		pushq	%rbx
 2880              		.cfi_def_cfa_offset 16
 2881              		.cfi_offset 3, -16
 2882 0001 4889FB   		movq	%rdi, %rbx
 2883 0004 4883EC10 		subq	$16, %rsp
 2884              		.cfi_def_cfa_offset 32
 2885 0008 48C70700 		movq	$_ZTVSt15basic_stringbufIcSt11char_traitsIcESaIcEE+16, (%rdi)
 2885      000000
 2886 000f 64488B04 		movq	%fs:40, %rax
 2886      25280000 
 2886      00
 2887 0018 48894424 		movq	%rax, 8(%rsp)
 2887      08
 2888 001d 31C0     		xorl	%eax, %eax
 2889 001f 488B4748 		movq	72(%rdi), %rax
 2890 0023 488D78E8 		leaq	-24(%rax), %rdi
 2891 0027 4881FF00 		cmpq	$_ZNSs4_Rep20_S_empty_rep_storageE, %rdi
 2891      000000
 2892 002e 7530     		jne	.L283
 2893              	.L277:
 2894 0030 488D7B38 		leaq	56(%rbx), %rdi
 2895 0034 48C70300 		movq	$_ZTVSt15basic_streambufIcSt11char_traitsIcEE+16, (%rbx)
 2895      000000
 2896 003b E8000000 		call	_ZNSt6localeD1Ev
 2896      00
 2897 0040 4889DF   		movq	%rbx, %rdi
 2898 0043 E8000000 		call	_ZdlPv
 2898      00
 2899 0048 488B4424 		movq	8(%rsp), %rax
 2899      08
 2900 004d 64483304 		xorq	%fs:40, %rax
 2900      25280000 
 2900      00
 2901 0056 7545     		jne	.L284
 2902 0058 4883C410 		addq	$16, %rsp
 2903              		.cfi_remember_state
 2904              		.cfi_def_cfa_offset 16
 2905 005c 5B       		popq	%rbx
 2906              		.cfi_def_cfa_offset 8
 2907 005d C3       		ret
 2908 005e 6690     		.p2align 4,,10
 2909              		.p2align 3
 2910              	.L283:
 2911              		.cfi_restore_state
 2912 0060 BA000000 		movl	$_ZL28__gthrw___pthread_key_createPjPFvPvE, %edx
 2912      00
 2913 0065 4885D2   		testq	%rdx, %rdx
 2914 0068 7426     		je	.L278
 2915 006a BAFFFFFF 		movl	$-1, %edx
 2915      FF
 2916 006f F00FC150 		lock xaddl	%edx, -8(%rax)
 2916      F8
 2917 0074 89D0     		movl	%edx, %eax
 2918              	.L279:
 2919 0076 85C0     		testl	%eax, %eax
 2920 0078 7FB6     		jg	.L277
 2921 007a 488D7424 		leaq	7(%rsp), %rsi
 2921      07
 2922 007f E8000000 		call	_ZNSs4_Rep10_M_destroyERKSaIcE
 2922      00
 2923 0084 EBAA     		jmp	.L277
 2924 0086 662E0F1F 		.p2align 4,,10
 2924      84000000 
 2924      0000
 2925              		.p2align 3
 2926              	.L278:
 2927 0090 8B50F8   		movl	-8(%rax), %edx
 2928 0093 8D4AFF   		leal	-1(%rdx), %ecx
 2929 0096 8948F8   		movl	%ecx, -8(%rax)
 2930 0099 89D0     		movl	%edx, %eax
 2931 009b EBD9     		jmp	.L279
 2932              	.L284:
 2933 009d E8000000 		call	__stack_chk_fail
 2933      00
 2934              		.cfi_endproc
 2935              	.LFE1469:
 2937              		.section	.text.unlikely._ZNSt15basic_stringbufIcSt11char_traitsIcESaIcEED0Ev,"axG",@progbits,_ZNSt
 2938              	.LCOLDE77:
 2939              		.section	.text._ZNSt15basic_stringbufIcSt11char_traitsIcESaIcEED0Ev,"axG",@progbits,_ZNSt15basic_s
 2940              	.LHOTE77:
 2941              		.section	.rodata.str1.1
 2942              	.LC78:
 2943 007f 45787065 		.string	"Expected "
 2943      63746564 
 2943      2000
 2944              	.LC79:
 2945 0089 20627574 		.string	" but was "
 2945      20776173 
 2945      2000
 2946              		.section	.text.unlikely._ZN8UnitTest10CheckEqualIiiEEvRNS_11TestResultsERKT_RKT0_RKNS_11TestDetail
 2947              	.LCOLDB80:
 2948              		.section	.text._ZN8UnitTest10CheckEqualIiiEEvRNS_11TestResultsERKT_RKT0_RKNS_11TestDetailsE,"axG",
 2949              	.LHOTB80:
 2950              		.p2align 4,,15
 2951              		.weak	_ZN8UnitTest10CheckEqualIiiEEvRNS_11TestResultsERKT_RKT0_RKNS_11TestDetailsE
 2953              	_ZN8UnitTest10CheckEqualIiiEEvRNS_11TestResultsERKT_RKT0_RKNS_11TestDetailsE:
 2954              	.LFB1488:
 2955              		.cfi_startproc
 2956              		.cfi_personality 0x3,__gxx_personality_v0
 2957              		.cfi_lsda 0x3,.LLSDA1488
 2958 0000 4156     		pushq	%r14
 2959              		.cfi_def_cfa_offset 16
 2960              		.cfi_offset 14, -16
 2961 0002 4155     		pushq	%r13
 2962              		.cfi_def_cfa_offset 24
 2963              		.cfi_offset 13, -24
 2964 0004 4154     		pushq	%r12
 2965              		.cfi_def_cfa_offset 32
 2966              		.cfi_offset 12, -32
 2967 0006 55       		pushq	%rbp
 2968              		.cfi_def_cfa_offset 40
 2969              		.cfi_offset 6, -40
 2970 0007 4889D5   		movq	%rdx, %rbp
 2971 000a 53       		pushq	%rbx
 2972              		.cfi_def_cfa_offset 48
 2973              		.cfi_offset 3, -48
 2974 000b 4889F3   		movq	%rsi, %rbx
 2975 000e 4881EC80 		subq	$384, %rsp
 2975      010000
 2976              		.cfi_def_cfa_offset 432
 2977 0015 64488B04 		movq	%fs:40, %rax
 2977      25280000 
 2977      00
 2978 001e 48898424 		movq	%rax, 376(%rsp)
 2978      78010000 
 2979 0026 31C0     		xorl	%eax, %eax
 2980 0028 8B02     		movl	(%rdx), %eax
 2981 002a 3906     		cmpl	%eax, (%rsi)
 2982 002c 0F84F601 		je	.L285
 2982      0000
 2983 0032 4C8D6424 		leaq	112(%rsp), %r12
 2983      70
 2984 0037 4989FD   		movq	%rdi, %r13
 2985 003a 4989CE   		movq	%rcx, %r14
 2986 003d 4C89E7   		movq	%r12, %rdi
 2987 0040 E8000000 		call	_ZNSt8ios_baseC2Ev
 2987      00
 2988 0045 31F6     		xorl	%esi, %esi
 2989 0047 4C89E7   		movq	%r12, %rdi
 2990 004a 48C78424 		movq	$0, 328(%rsp)
 2990      48010000 
 2990      00000000 
 2991 0056 C6842450 		movb	$0, 336(%rsp)
 2991      01000000 
 2992 005e C6842451 		movb	$0, 337(%rsp)
 2992      01000000 
 2993 0066 48C78424 		movq	$0, 344(%rsp)
 2993      58010000 
 2993      00000000 
 2994 0072 48C78424 		movq	$0, 352(%rsp)
 2994      60010000 
 2994      00000000 
 2995 007e 48C78424 		movq	$0, 360(%rsp)
 2995      68010000 
 2995      00000000 
 2996 008a 48C78424 		movq	$0, 368(%rsp)
 2996      70010000 
 2996      00000000 
 2997 0096 48C74424 		movq	$_ZTCN8UnitTest15MemoryOutStreamE0_So+24, 16(%rsp)
 2997      10000000 
 2997      00
 2998 009f 48C74424 		movq	$_ZTCN8UnitTest15MemoryOutStreamE0_So+64, 112(%rsp)
 2998      70000000 
 2998      00
 2999              	.LEHB48:
 3000 00a8 E8000000 		call	_ZNSt9basic_iosIcSt11char_traitsIcEE4initEPSt15basic_streambufIcS1_E
 3000      00
 3001              	.LEHE48:
 3002 00ad 488D7C24 		leaq	80(%rsp), %rdi
 3002      50
 3003 00b2 48C74424 		movq	$_ZTCN8UnitTest15MemoryOutStreamE0_St19basic_ostringstreamIcSt11char_traitsIcESaIcEE+24, 16(%
 3003      10000000 
 3003      00
 3004 00bb 48C74424 		movq	$_ZTCN8UnitTest15MemoryOutStreamE0_St19basic_ostringstreamIcSt11char_traitsIcESaIcEE+64, 112(
 3004      70000000 
 3004      00
 3005 00c4 48C74424 		movq	$_ZTVSt15basic_streambufIcSt11char_traitsIcEE+16, 24(%rsp)
 3005      18000000 
 3005      00
 3006 00cd 48C74424 		movq	$0, 32(%rsp)
 3006      20000000 
 3006      00
 3007 00d6 48C74424 		movq	$0, 40(%rsp)
 3007      28000000 
 3007      00
 3008 00df 48C74424 		movq	$0, 48(%rsp)
 3008      30000000 
 3008      00
 3009 00e8 48C74424 		movq	$0, 56(%rsp)
 3009      38000000 
 3009      00
 3010 00f1 48C74424 		movq	$0, 64(%rsp)
 3010      40000000 
 3010      00
 3011 00fa 48C74424 		movq	$0, 72(%rsp)
 3011      48000000 
 3011      00
 3012 0103 E8000000 		call	_ZNSt6localeC1Ev
 3012      00
 3013 0108 488B4424 		movq	16(%rsp), %rax
 3013      10
 3014 010d 488D7C24 		leaq	16(%rsp), %rdi
 3014      10
 3015 0112 488D7424 		leaq	24(%rsp), %rsi
 3015      18
 3016 0117 48C74424 		movq	$_ZTVSt15basic_stringbufIcSt11char_traitsIcESaIcEE+16, 24(%rsp)
 3016      18000000 
 3016      00
 3017 0120 C7442458 		movl	$16, 88(%rsp)
 3017      10000000 
 3018 0128 48C74424 		movq	$_ZNSs4_Rep20_S_empty_rep_storageE+24, 96(%rsp)
 3018      60000000 
 3018      00
 3019 0131 480378E8 		addq	-24(%rax), %rdi
 3020              	.LEHB49:
 3021 0135 E8000000 		call	_ZNSt9basic_iosIcSt11char_traitsIcEE4initEPSt15basic_streambufIcS1_E
 3021      00
 3022              	.LEHE49:
 3023 013a 488D7C24 		leaq	16(%rsp), %rdi
 3023      10
 3024 013f BA090000 		movl	$9, %edx
 3024      00
 3025 0144 BE000000 		movl	$.LC78, %esi
 3025      00
 3026 0149 48C74424 		movq	$_ZTVN8UnitTest15MemoryOutStreamE+24, 16(%rsp)
 3026      10000000 
 3026      00
 3027 0152 48C74424 		movq	$_ZTVN8UnitTest15MemoryOutStreamE+64, 112(%rsp)
 3027      70000000 
 3027      00
 3028 015b 48C74424 		movq	$_ZNSs4_Rep20_S_empty_rep_storageE+24, 104(%rsp)
 3028      68000000 
 3028      00
 3029 0164 8B6D00   		movl	0(%rbp), %ebp
 3030 0167 8B1B     		movl	(%rbx), %ebx
 3031              	.LEHB50:
 3032 0169 E8000000 		call	_ZSt16__ostream_insertIcSt11char_traitsIcEERSt13basic_ostreamIT_T0_ES6_PKS3_l
 3032      00
 3033 016e 488D7C24 		leaq	16(%rsp), %rdi
 3033      10
 3034 0173 89DE     		movl	%ebx, %esi
 3035 0175 E8000000 		call	_ZNSolsEi
 3035      00
 3036 017a BA090000 		movl	$9, %edx
 3036      00
 3037 017f BE000000 		movl	$.LC79, %esi
 3037      00
 3038 0184 4889C7   		movq	%rax, %rdi
 3039 0187 4889C3   		movq	%rax, %rbx
 3040 018a E8000000 		call	_ZSt16__ostream_insertIcSt11char_traitsIcEERSt13basic_ostreamIT_T0_ES6_PKS3_l
 3040      00
 3041 018f 89EE     		movl	%ebp, %esi
 3042 0191 4889DF   		movq	%rbx, %rdi
 3043 0194 E8000000 		call	_ZNSolsEi
 3043      00
 3044 0199 488D7C24 		leaq	16(%rsp), %rdi
 3044      10
 3045 019e E8000000 		call	_ZNK8UnitTest15MemoryOutStream7GetTextEv
 3045      00
 3046 01a3 4889C2   		movq	%rax, %rdx
 3047 01a6 4C89F6   		movq	%r14, %rsi
 3048 01a9 4C89EF   		movq	%r13, %rdi
 3049 01ac E8000000 		call	_ZN8UnitTest11TestResults13OnTestFailureERKNS_11TestDetailsEPKc
 3049      00
 3050              	.LEHE50:
 3051 01b1 488B4424 		movq	104(%rsp), %rax
 3051      68
 3052 01b6 48C74424 		movq	$_ZTVN8UnitTest15MemoryOutStreamE+24, 16(%rsp)
 3052      10000000 
 3052      00
 3053 01bf 48C74424 		movq	$_ZTVN8UnitTest15MemoryOutStreamE+64, 112(%rsp)
 3053      70000000 
 3053      00
 3054 01c8 488D78E8 		leaq	-24(%rax), %rdi
 3055 01cc 4881FF00 		cmpq	$_ZNSs4_Rep20_S_empty_rep_storageE, %rdi
 3055      000000
 3056 01d3 757B     		jne	.L311
 3057              	.L292:
 3058 01d5 488B4424 		movq	96(%rsp), %rax
 3058      60
 3059 01da 48C74424 		movq	$_ZTCN8UnitTest15MemoryOutStreamE0_St19basic_ostringstreamIcSt11char_traitsIcESaIcEE+24, 16(%
 3059      10000000 
 3059      00
 3060 01e3 48C74424 		movq	$_ZTCN8UnitTest15MemoryOutStreamE0_St19basic_ostringstreamIcSt11char_traitsIcESaIcEE+64, 112(
 3060      70000000 
 3060      00
 3061 01ec 48C74424 		movq	$_ZTVSt15basic_stringbufIcSt11char_traitsIcESaIcEE+16, 24(%rsp)
 3061      18000000 
 3061      00
 3062 01f5 488D78E8 		leaq	-24(%rax), %rdi
 3063 01f9 4881FF00 		cmpq	$_ZNSs4_Rep20_S_empty_rep_storageE, %rdi
 3063      000000
 3064 0200 757E     		jne	.L312
 3065              	.L297:
 3066 0202 488D7C24 		leaq	80(%rsp), %rdi
 3066      50
 3067 0207 48C74424 		movq	$_ZTVSt15basic_streambufIcSt11char_traitsIcEE+16, 24(%rsp)
 3067      18000000 
 3067      00
 3068 0210 E8000000 		call	_ZNSt6localeD1Ev
 3068      00
 3069 0215 488D7C24 		leaq	112(%rsp), %rdi
 3069      70
 3070 021a 48C74424 		movq	$_ZTVSt9basic_iosIcSt11char_traitsIcEE+16, 112(%rsp)
 3070      70000000 
 3070      00
 3071              	.LEHB51:
 3072 0223 E8000000 		call	_ZNSt8ios_baseD2Ev
 3072      00
 3073              	.LEHE51:
 3074              	.L285:
 3075 0228 488B8424 		movq	376(%rsp), %rax
 3075      78010000 
 3076 0230 64483304 		xorq	%fs:40, %rax
 3076      25280000 
 3076      00
 3077 0239 0F858E00 		jne	.L313
 3077      0000
 3078 023f 4881C480 		addq	$384, %rsp
 3078      010000
 3079              		.cfi_remember_state
 3080              		.cfi_def_cfa_offset 48
 3081 0246 5B       		popq	%rbx
 3082              		.cfi_def_cfa_offset 40
 3083 0247 5D       		popq	%rbp
 3084              		.cfi_def_cfa_offset 32
 3085 0248 415C     		popq	%r12
 3086              		.cfi_def_cfa_offset 24
 3087 024a 415D     		popq	%r13
 3088              		.cfi_def_cfa_offset 16
 3089 024c 415E     		popq	%r14
 3090              		.cfi_def_cfa_offset 8
 3091 024e C3       		ret
 3092 024f 90       		.p2align 4,,10
 3093              		.p2align 3
 3094              	.L311:
 3095              		.cfi_restore_state
 3096 0250 BA000000 		movl	$_ZL28__gthrw___pthread_key_createPjPFvPvE, %edx
 3096      00
 3097 0255 4885D2   		testq	%rdx, %rdx
 3098 0258 7456     		je	.L293
 3099 025a BAFFFFFF 		movl	$-1, %edx
 3099      FF
 3100 025f F00FC150 		lock xaddl	%edx, -8(%rax)
 3100      F8
 3101 0264 89D0     		movl	%edx, %eax
 3102              	.L294:
 3103 0266 85C0     		testl	%eax, %eax
 3104 0268 0F8F67FF 		jg	.L292
 3104      FFFF
 3105 026e 488D7424 		leaq	15(%rsp), %rsi
 3105      0F
 3106 0273 E8000000 		call	_ZNSs4_Rep10_M_destroyERKSaIcE
 3106      00
 3107 0278 E958FFFF 		jmp	.L292
 3107      FF
 3108 027d 0F1F00   		.p2align 4,,10
 3109              		.p2align 3
 3110              	.L312:
 3111 0280 BA000000 		movl	$_ZL28__gthrw___pthread_key_createPjPFvPvE, %edx
 3111      00
 3112 0285 4885D2   		testq	%rdx, %rdx
 3113 0288 7436     		je	.L298
 3114 028a BAFFFFFF 		movl	$-1, %edx
 3114      FF
 3115 028f F00FC150 		lock xaddl	%edx, -8(%rax)
 3115      F8
 3116 0294 89D0     		movl	%edx, %eax
 3117              	.L299:
 3118 0296 85C0     		testl	%eax, %eax
 3119 0298 0F8F64FF 		jg	.L297
 3119      FFFF
 3120 029e 488D7424 		leaq	15(%rsp), %rsi
 3120      0F
 3121 02a3 E8000000 		call	_ZNSs4_Rep10_M_destroyERKSaIcE
 3121      00
 3122 02a8 E955FFFF 		jmp	.L297
 3122      FF
 3123 02ad 0F1F00   		.p2align 4,,10
 3124              		.p2align 3
 3125              	.L293:
 3126 02b0 8B50F8   		movl	-8(%rax), %edx
 3127 02b3 8D4AFF   		leal	-1(%rdx), %ecx
 3128 02b6 8948F8   		movl	%ecx, -8(%rax)
 3129 02b9 89D0     		movl	%edx, %eax
 3130 02bb EBA9     		jmp	.L294
 3131 02bd 0F1F00   		.p2align 4,,10
 3132              		.p2align 3
 3133              	.L298:
 3134 02c0 8B50F8   		movl	-8(%rax), %edx
 3135 02c3 8D4AFF   		leal	-1(%rdx), %ecx
 3136 02c6 8948F8   		movl	%ecx, -8(%rax)
 3137 02c9 89D0     		movl	%edx, %eax
 3138 02cb EBC9     		jmp	.L299
 3139              	.L313:
 3140 02cd E8000000 		call	__stack_chk_fail
 3140      00
 3141              	.L303:
 3142 02d2 4889C3   		movq	%rax, %rbx
 3143 02d5 EB0A     		jmp	.L301
 3144              	.L305:
 3145 02d7 4889C3   		movq	%rax, %rbx
 3146 02da EB17     		jmp	.L288
 3147              	.L304:
 3148 02dc 4889C3   		movq	%rax, %rbx
 3149 02df EB1C     		jmp	.L289
 3150              	.L301:
 3151 02e1 488D7C24 		leaq	16(%rsp), %rdi
 3151      10
 3152 02e6 E8000000 		call	_ZN8UnitTest15MemoryOutStreamD1Ev
 3152      00
 3153 02eb 4889DF   		movq	%rbx, %rdi
 3154              	.LEHB52:
 3155 02ee E8000000 		call	_Unwind_Resume
 3155      00
 3156              	.LEHE52:
 3157              	.L288:
 3158 02f3 488D7C24 		leaq	24(%rsp), %rdi
 3158      18
 3159 02f8 E8000000 		call	_ZNSt15basic_stringbufIcSt11char_traitsIcESaIcEED1Ev
 3159      00
 3160              	.L289:
 3161 02fd 488D7C24 		leaq	112(%rsp), %rdi
 3161      70
 3162 0302 48C74424 		movq	$_ZTVSt9basic_iosIcSt11char_traitsIcEE+16, 112(%rsp)
 3162      70000000 
 3162      00
 3163 030b E8000000 		call	_ZNSt8ios_baseD2Ev
 3163      00
 3164 0310 4889DF   		movq	%rbx, %rdi
 3165              	.LEHB53:
 3166 0313 E8000000 		call	_Unwind_Resume
 3166      00
 3167              	.LEHE53:
 3168              		.cfi_endproc
 3169              	.LFE1488:
 3170              		.section	.gcc_except_table
 3171              	.LLSDA1488:
 3172 0198 FF       		.byte	0xff
 3173 0199 FF       		.byte	0xff
 3174 019a 01       		.byte	0x1
 3175 019b 21       		.uleb128 .LLSDACSE1488-.LLSDACSB1488
 3176              	.LLSDACSB1488:
 3177 019c A801     		.uleb128 .LEHB48-.LFB1488
 3178 019e 05       		.uleb128 .LEHE48-.LEHB48
 3179 019f DC05     		.uleb128 .L304-.LFB1488
 3180 01a1 00       		.uleb128 0
 3181 01a2 B502     		.uleb128 .LEHB49-.LFB1488
 3182 01a4 05       		.uleb128 .LEHE49-.LEHB49
 3183 01a5 D705     		.uleb128 .L305-.LFB1488
 3184 01a7 00       		.uleb128 0
 3185 01a8 E902     		.uleb128 .LEHB50-.LFB1488
 3186 01aa 48       		.uleb128 .LEHE50-.LEHB50
 3187 01ab D205     		.uleb128 .L303-.LFB1488
 3188 01ad 00       		.uleb128 0
 3189 01ae A304     		.uleb128 .LEHB51-.LFB1488
 3190 01b0 05       		.uleb128 .LEHE51-.LEHB51
 3191 01b1 00       		.uleb128 0
 3192 01b2 00       		.uleb128 0
 3193 01b3 EE05     		.uleb128 .LEHB52-.LFB1488
 3194 01b5 05       		.uleb128 .LEHE52-.LEHB52
 3195 01b6 00       		.uleb128 0
 3196 01b7 00       		.uleb128 0
 3197 01b8 9306     		.uleb128 .LEHB53-.LFB1488
 3198 01ba 05       		.uleb128 .LEHE53-.LEHB53
 3199 01bb 00       		.uleb128 0
 3200 01bc 00       		.uleb128 0
 3201              	.LLSDACSE1488:
 3202              		.section	.text._ZN8UnitTest10CheckEqualIiiEEvRNS_11TestResultsERKT_RKT0_RKNS_11TestDetailsE,"axG",
 3204              		.section	.text.unlikely._ZN8UnitTest10CheckEqualIiiEEvRNS_11TestResultsERKT_RKT0_RKNS_11TestDetail
 3205              	.LCOLDE80:
 3206              		.section	.text._ZN8UnitTest10CheckEqualIiiEEvRNS_11TestResultsERKT_RKT0_RKNS_11TestDetailsE,"axG",
 3207              	.LHOTE80:
 3208              		.section	.rodata.str1.8
 3209 01d1 00000000 		.align 8
 3209      000000
 3210              	.LC81:
 3211 01d8 556E6861 		.string	"Unhandled exception in CHECK_EQUAL(1, SimpleFixture::instanceCount)"
 3211      6E646C65 
 3211      64206578 
 3211      63657074 
 3211      696F6E20 
 3212              		.section	.text.unlikely
 3213              	.LCOLDB82:
 3214              		.text
 3215              	.LHOTB82:
 3216 0fd3 0F1F0066 		.p2align 4,,15
 3216      2E0F1F84 
 3216      00000000 
 3216      00
 3218              	_ZN8UnitTest11ExecuteTestIN12_GLOBAL__N_145SimpleFixtureOnlyOneFixtureAliveAtATimeHelperEEEvRT_RKNS
 3219              	.LFB1698:
 3220              		.cfi_startproc
 3221              		.cfi_personality 0x3,__gxx_personality_v0
 3222              		.cfi_lsda 0x3,.LLSDA1698
 3223 0fe0 4154     		pushq	%r12
 3224              		.cfi_def_cfa_offset 16
 3225              		.cfi_offset 12, -16
 3226 0fe2 55       		pushq	%rbp
 3227              		.cfi_def_cfa_offset 24
 3228              		.cfi_offset 6, -24
 3229 0fe3 53       		pushq	%rbx
 3230              		.cfi_def_cfa_offset 32
 3231              		.cfi_offset 3, -32
 3232 0fe4 4889FB   		movq	%rdi, %rbx
 3233 0fe7 4881EC60 		subq	$1632, %rsp
 3233      060000
 3234              		.cfi_def_cfa_offset 1664
 3235 0fee 48897C24 		movq	%rdi, 8(%rsp)
 3235      08
 3236 0ff3 64488B04 		movq	%fs:40, %rax
 3236      25280000 
 3236      00
 3237 0ffc 48898424 		movq	%rax, 1624(%rsp)
 3237      58060000 
 3238 1004 31C0     		xorl	%eax, %eax
 3239              	.LEHB54:
 3240 1006 E8000000 		call	_ZN8UnitTest11CurrentTest7DetailsEv
 3240      00
 3241              	.LEHE54:
 3242 100b 488DBC24 		leaq	496(%rsp), %rdi
 3242      F0010000 
 3243 1013 488918   		movq	%rbx, (%rax)
 3244              	.LEHB55:
 3245 1016 E8000000 		call	_ZN8UnitTest16SignalTranslatorC1Ev
 3245      00
 3246              	.LEHE55:
 3247 101b 488B3D00 		movq	_ZN8UnitTest16SignalTranslator12s_jumpTargetE(%rip), %rdi
 3247      000000
 3248 1022 BE010000 		movl	$1, %esi
 3248      00
 3249 1027 E8000000 		call	__sigsetjmp
 3249      00
 3250 102c 85C0     		testl	%eax, %eax
 3251 102e 7570     		jne	.L346
 3252              	.LEHB56:
 3253 1030 E8000000 		call	_ZN8UnitTest11CurrentTest7DetailsEv
 3253      00
 3254 1035 488B30   		movq	(%rax), %rsi
 3255 1038 488D7C24 		leaq	64(%rsp), %rdi
 3255      40
 3256 103d BA8F0000 		movl	$143, %edx
 3256      00
 3257 1042 E8000000 		call	_ZN8UnitTest11TestDetailsC1ERKS0_i
 3257      00
 3258 1047 C744241C 		movl	$1, 28(%rsp)
 3258      01000000 
 3259 104f E8000000 		call	_ZN8UnitTest11CurrentTest7ResultsEv
 3259      00
 3260 1054 488B38   		movq	(%rax), %rdi
 3261 1057 488D4C24 		leaq	64(%rsp), %rcx
 3261      40
 3262 105c 488D7424 		leaq	28(%rsp), %rsi
 3262      1C
 3263 1061 BA000000 		movl	$_ZN12_GLOBAL__N_113SimpleFixture13instanceCountE, %edx
 3263      00
 3264 1066 E8000000 		call	_ZN8UnitTest10CheckEqualIiiEEvRNS_11TestResultsERKT_RKT0_RKNS_11TestDetailsE
 3264      00
 3265              	.LEHE56:
 3266              	.L317:
 3267 106b 488DBC24 		leaq	496(%rsp), %rdi
 3267      F0010000 
 3268              	.LEHB57:
 3269 1073 E8000000 		call	_ZN8UnitTest16SignalTranslatorD1Ev
 3269      00
 3270              	.LEHE57:
 3271              	.L314:
 3272 1078 488B8424 		movq	1624(%rsp), %rax
 3272      58060000 
 3273 1080 64483304 		xorq	%fs:40, %rax
 3273      25280000 
 3273      00
 3274 1089 0F85D800 		jne	.L347
 3274      0000
 3275 108f 4881C460 		addq	$1632, %rsp
 3275      060000
 3276              		.cfi_remember_state
 3277              		.cfi_def_cfa_offset 32
 3278 1096 5B       		popq	%rbx
 3279              		.cfi_def_cfa_offset 24
 3280 1097 5D       		popq	%rbp
 3281              		.cfi_def_cfa_offset 16
 3282 1098 415C     		popq	%r12
 3283              		.cfi_def_cfa_offset 8
 3284 109a C3       		ret
 3285 109b 0F1F4400 		.p2align 4,,10
 3285      00
 3286              		.p2align 3
 3287              	.L346:
 3288              		.cfi_restore_state
 3289 10a0 BF080000 		movl	$8, %edi
 3289      00
 3290 10a5 E8000000 		call	__cxa_allocate_exception
 3290      00
 3291 10aa 31D2     		xorl	%edx, %edx
 3292 10ac 48C70000 		movq	$.LC52, (%rax)
 3292      000000
 3293 10b3 BE000000 		movl	$_ZTIPKc, %esi
 3293      00
 3294 10b8 4889C7   		movq	%rax, %rdi
 3295              	.LEHB58:
 3296 10bb E8000000 		call	__cxa_throw
 3296      00
 3297              	.LEHE58:
 3298              	.L337:
 3299 10c0 4889C5   		movq	%rax, %rbp
 3300 10c3 4889D3   		movq	%rdx, %rbx
 3301              	.L319:
 3302 10c6 488DBC24 		leaq	496(%rsp), %rdi
 3302      F0010000 
 3303 10ce E8000000 		call	_ZN8UnitTest16SignalTranslatorD1Ev
 3303      00
 3304 10d3 4889EF   		movq	%rbp, %rdi
 3305 10d6 4889DA   		movq	%rbx, %rdx
 3306              	.L321:
 3307 10d9 4883FA01 		cmpq	$1, %rdx
 3308 10dd 0F841401 		je	.L323
 3308      0000
 3309 10e3 4883FA02 		cmpq	$2, %rdx
 3310 10e7 0F85E400 		jne	.L348
 3310      0000
 3311 10ed E8000000 		call	__cxa_begin_catch
 3311      00
 3312 10f2 488DBC24 		leaq	128(%rsp), %rdi
 3312      80000000 
 3313 10fa 4889C3   		movq	%rax, %rbx
 3314              	.LEHB59:
 3315 10fd E8000000 		call	_ZN8UnitTest15MemoryOutStreamC1Ev
 3315      00
 3316              	.LEHE59:
 3317 1102 488B03   		movq	(%rbx), %rax
 3318 1105 4889DF   		movq	%rbx, %rdi
 3319 1108 FF5010   		call	*16(%rax)
 3320 110b 488DBC24 		leaq	128(%rsp), %rdi
 3320      80000000 
 3321 1113 BE000000 		movl	$.LC55, %esi
 3321      00
 3322 1118 4889C3   		movq	%rax, %rbx
 3323              	.LEHB60:
 3324 111b E8000000 		call	_ZStlsISt11char_traitsIcEERSt13basic_ostreamIcT_ES5_PKc
 3324      00
 3325 1120 4889C7   		movq	%rax, %rdi
 3326 1123 4889DE   		movq	%rbx, %rsi
 3327 1126 E8000000 		call	_ZStlsISt11char_traitsIcEERSt13basic_ostreamIcT_ES5_PKc
 3327      00
 3328 112b 488DBC24 		leaq	128(%rsp), %rdi
 3328      80000000 
 3329 1133 E8000000 		call	_ZNK8UnitTest15MemoryOutStream7GetTextEv
 3329      00
 3330 1138 4889C3   		movq	%rax, %rbx
 3331 113b E8000000 		call	_ZN8UnitTest11CurrentTest7ResultsEv
 3331      00
 3332 1140 488B7424 		movq	8(%rsp), %rsi
 3332      08
 3333 1145 488B38   		movq	(%rax), %rdi
 3334 1148 4889DA   		movq	%rbx, %rdx
 3335 114b E8000000 		call	_ZN8UnitTest11TestResults13OnTestFailureERKNS_11TestDetailsEPKc
 3335      00
 3336              	.LEHE60:
 3337 1150 488DBC24 		leaq	128(%rsp), %rdi
 3337      80000000 
 3338              	.LEHB61:
 3339 1158 E8000000 		call	_ZN8UnitTest15MemoryOutStreamD1Ev
 3339      00
 3340              	.LEHE61:
 3341              	.L343:
 3342 115d E8000000 		call	__cxa_end_catch
 3342      00
 3343 1162 E911FFFF 		jmp	.L314
 3343      FF
 3344              	.L347:
 3345 1167 E8000000 		call	__stack_chk_fail
 3345      00
 3346              	.L336:
 3347 116c 4889C7   		movq	%rax, %rdi
 3348 116f E965FFFF 		jmp	.L321
 3348      FF
 3349              	.L338:
 3350 1174 4889C7   		movq	%rax, %rdi
 3351 1177 E8000000 		call	__cxa_begin_catch
 3351      00
 3352              	.LEHB62:
 3353 117c E8000000 		call	_ZN8UnitTest11CurrentTest7DetailsEv
 3353      00
 3354 1181 488B30   		movq	(%rax), %rsi
 3355 1184 488D7C24 		leaq	96(%rsp), %rdi
 3355      60
 3356 1189 BA8F0000 		movl	$143, %edx
 3356      00
 3357 118e E8000000 		call	_ZN8UnitTest11TestDetailsC1ERKS0_i
 3357      00
 3358 1193 E8000000 		call	_ZN8UnitTest11CurrentTest7ResultsEv
 3358      00
 3359 1198 488B38   		movq	(%rax), %rdi
 3360 119b 488D7424 		leaq	96(%rsp), %rsi
 3360      60
 3361 11a0 BA000000 		movl	$.LC81, %edx
 3361      00
 3362 11a5 E8000000 		call	_ZN8UnitTest11TestResults13OnTestFailureERKNS_11TestDetailsEPKc
 3362      00
 3363              	.LEHE62:
 3364              	.LEHB63:
 3365 11aa E8000000 		call	__cxa_end_catch
 3365      00
 3366              	.LEHE63:
 3367 11af E9B7FEFF 		jmp	.L317
 3367      FF
 3368              	.L334:
 3369 11b4 488DBC24 		leaq	128(%rsp), %rdi
 3369      80000000 
 3370 11bc 4889C3   		movq	%rax, %rbx
 3371 11bf E8000000 		call	_ZN8UnitTest15MemoryOutStreamD1Ev
 3371      00
 3372              	.L327:
 3373 11c4 E8000000 		call	__cxa_end_catch
 3373      00
 3374 11c9 4889DF   		movq	%rbx, %rdi
 3375              	.LEHB64:
 3376 11cc E8000000 		call	_Unwind_Resume
 3376      00
 3377              	.LEHE64:
 3378              	.L348:
 3379 11d1 E8000000 		call	__cxa_begin_catch
 3379      00
 3380              	.LEHB65:
 3381 11d6 E8000000 		call	_ZN8UnitTest11CurrentTest7ResultsEv
 3381      00
 3382 11db 488B7424 		movq	8(%rsp), %rsi
 3382      08
 3383 11e0 488B38   		movq	(%rax), %rdi
 3384 11e3 BA000000 		movl	$.LC56, %edx
 3384      00
 3385 11e8 E8000000 		call	_ZN8UnitTest11TestResults13OnTestFailureERKNS_11TestDetailsEPKc
 3385      00
 3386              	.LEHE65:
 3387              	.LEHB66:
 3388 11ed E8000000 		call	__cxa_end_catch
 3388      00
 3389              	.LEHE66:
 3390 11f2 E981FEFF 		jmp	.L314
 3390      FF
 3391              	.L323:
 3392 11f7 E8000000 		call	__cxa_begin_catch
 3392      00
 3393 11fc 4889C3   		movq	%rax, %rbx
 3394 11ff 488B00   		movq	(%rax), %rax
 3395 1202 4889DF   		movq	%rbx, %rdi
 3396 1205 FF5010   		call	*16(%rax)
 3397 1208 4889DF   		movq	%rbx, %rdi
 3398 120b 4889C5   		movq	%rax, %rbp
 3399              	.LEHB67:
 3400 120e E8000000 		call	_ZNK8UnitTest15AssertException10LineNumberEv
 3400      00
 3401 1213 4889DF   		movq	%rbx, %rdi
 3402 1216 4189C4   		movl	%eax, %r12d
 3403 1219 E8000000 		call	_ZNK8UnitTest15AssertException8FilenameEv
 3403      00
 3404 121e 4889C1   		movq	%rax, %rcx
 3405 1221 488B4424 		movq	8(%rsp), %rax
 3405      08
 3406 1226 488D7C24 		leaq	32(%rsp), %rdi
 3406      20
 3407 122b 4589E0   		movl	%r12d, %r8d
 3408 122e 488B7008 		movq	8(%rax), %rsi
 3409 1232 488B10   		movq	(%rax), %rdx
 3410 1235 E8000000 		call	_ZN8UnitTest11TestDetailsC1EPKcS2_S2_i
 3410      00
 3411 123a E8000000 		call	_ZN8UnitTest11CurrentTest7ResultsEv
 3411      00
 3412 123f 488B38   		movq	(%rax), %rdi
 3413 1242 488D7424 		leaq	32(%rsp), %rsi
 3413      20
 3414 1247 4889EA   		movq	%rbp, %rdx
 3415 124a E8000000 		call	_ZN8UnitTest11TestResults13OnTestFailureERKNS_11TestDetailsEPKc
 3415      00
 3416              	.LEHE67:
 3417 124f E909FFFF 		jmp	.L343
 3417      FF
 3418              	.L332:
 3419 1254 4889C3   		movq	%rax, %rbx
 3420 1257 E8000000 		call	__cxa_end_catch
 3420      00
 3421 125c 4889DF   		movq	%rbx, %rdi
 3422              	.LEHB68:
 3423 125f E8000000 		call	_Unwind_Resume
 3423      00
 3424              	.LEHE68:
 3425              	.L335:
 3426              	.L344:
 3427 1264 4889C3   		movq	%rax, %rbx
 3428 1267 E958FFFF 		jmp	.L327
 3428      FF
 3429              	.L333:
 3430 126c EBF6     		jmp	.L344
 3431              	.L339:
 3432 126e 4889C5   		movq	%rax, %rbp
 3433 1271 4889D3   		movq	%rdx, %rbx
 3434 1274 E8000000 		call	__cxa_end_catch
 3434      00
 3435 1279 E948FEFF 		jmp	.L319
 3435      FF
 3436              		.cfi_endproc
 3437              	.LFE1698:
 3438              		.section	.gcc_except_table
 3439 01bd 000000   		.align 4
 3440              	.LLSDA1698:
 3441 01c0 FF       		.byte	0xff
 3442 01c1 03       		.byte	0x3
 3443 01c2 69       		.uleb128 .LLSDATT1698-.LLSDATTD1698
 3444              	.LLSDATTD1698:
 3445 01c3 01       		.byte	0x1
 3446 01c4 53       		.uleb128 .LLSDACSE1698-.LLSDACSB1698
 3447              	.LLSDACSB1698:
 3448 01c5 26       		.uleb128 .LEHB54-.LFB1698
 3449 01c6 05       		.uleb128 .LEHE54-.LEHB54
 3450 01c7 00       		.uleb128 0
 3451 01c8 00       		.uleb128 0
 3452 01c9 36       		.uleb128 .LEHB55-.LFB1698
 3453 01ca 05       		.uleb128 .LEHE55-.LEHB55
 3454 01cb 8C03     		.uleb128 .L336-.LFB1698
 3455 01cd 05       		.uleb128 0x5
 3456 01ce 50       		.uleb128 .LEHB56-.LFB1698
 3457 01cf 3B       		.uleb128 .LEHE56-.LEHB56
 3458 01d0 9403     		.uleb128 .L338-.LFB1698
 3459 01d2 01       		.uleb128 0x1
 3460 01d3 9301     		.uleb128 .LEHB57-.LFB1698
 3461 01d5 05       		.uleb128 .LEHE57-.LEHB57
 3462 01d6 8C03     		.uleb128 .L336-.LFB1698
 3463 01d8 05       		.uleb128 0x5
 3464 01d9 DB01     		.uleb128 .LEHB58-.LFB1698
 3465 01db 05       		.uleb128 .LEHE58-.LEHB58
 3466 01dc E001     		.uleb128 .L337-.LFB1698
 3467 01de 07       		.uleb128 0x7
 3468 01df 9D02     		.uleb128 .LEHB59-.LFB1698
 3469 01e1 05       		.uleb128 .LEHE59-.LEHB59
 3470 01e2 8C05     		.uleb128 .L333-.LFB1698
 3471 01e4 00       		.uleb128 0
 3472 01e5 BB02     		.uleb128 .LEHB60-.LFB1698
 3473 01e7 35       		.uleb128 .LEHE60-.LEHB60
 3474 01e8 D403     		.uleb128 .L334-.LFB1698
 3475 01ea 00       		.uleb128 0
 3476 01eb F802     		.uleb128 .LEHB61-.LFB1698
 3477 01ed 05       		.uleb128 .LEHE61-.LEHB61
 3478 01ee 8C05     		.uleb128 .L333-.LFB1698
 3479 01f0 00       		.uleb128 0
 3480 01f1 9C03     		.uleb128 .LEHB62-.LFB1698
 3481 01f3 2E       		.uleb128 .LEHE62-.LEHB62
 3482 01f4 8E05     		.uleb128 .L339-.LFB1698
 3483 01f6 07       		.uleb128 0x7
 3484 01f7 CA03     		.uleb128 .LEHB63-.LFB1698
 3485 01f9 05       		.uleb128 .LEHE63-.LEHB63
 3486 01fa E001     		.uleb128 .L337-.LFB1698
 3487 01fc 07       		.uleb128 0x7
 3488 01fd EC03     		.uleb128 .LEHB64-.LFB1698
 3489 01ff 05       		.uleb128 .LEHE64-.LEHB64
 3490 0200 00       		.uleb128 0
 3491 0201 00       		.uleb128 0
 3492 0202 F603     		.uleb128 .LEHB65-.LFB1698
 3493 0204 17       		.uleb128 .LEHE65-.LEHB65
 3494 0205 F404     		.uleb128 .L332-.LFB1698
 3495 0207 00       		.uleb128 0
 3496 0208 8D04     		.uleb128 .LEHB66-.LFB1698
 3497 020a 05       		.uleb128 .LEHE66-.LEHB66
 3498 020b 00       		.uleb128 0
 3499 020c 00       		.uleb128 0
 3500 020d AE04     		.uleb128 .LEHB67-.LFB1698
 3501 020f 41       		.uleb128 .LEHE67-.LEHB67
 3502 0210 8405     		.uleb128 .L335-.LFB1698
 3503 0212 00       		.uleb128 0
 3504 0213 FF04     		.uleb128 .LEHB68-.LFB1698
 3505 0215 05       		.uleb128 .LEHE68-.LEHB68
 3506 0216 00       		.uleb128 0
 3507 0217 00       		.uleb128 0
 3508              	.LLSDACSE1698:
 3509 0218 03       		.byte	0x3
 3510 0219 00       		.byte	0
 3511 021a 02       		.byte	0x2
 3512 021b 7D       		.byte	0x7d
 3513 021c 01       		.byte	0x1
 3514 021d 7D       		.byte	0x7d
 3515 021e 00       		.byte	0
 3516 021f 7D       		.byte	0x7d
 3517              		.align 4
 3518 0220 00000000 		.long	0
 3519              	
 3520 0224 00000000 		.long	_ZTISt9exception
 3521 0228 00000000 		.long	_ZTIN8UnitTest15AssertExceptionE
 3522              	.LLSDATT1698:
 3523              		.text
 3525              		.section	.text.unlikely
 3526              	.LCOLDE82:
 3527              		.text
 3528              	.LHOTE82:
 3529              		.section	.text.unlikely
 3530              		.align 2
 3531              	.LCOLDB83:
 3532              		.text
 3533              	.LHOTB83:
 3534              		.align 2
 3535 127e 6690     		.p2align 4,,15
 3537              	_ZNK12_GLOBAL__N_143TestSimpleFixtureOnlyOneFixtureAliveAtATime7RunImplEv:
 3538              	.LFB1448:
 3539              		.cfi_startproc
 3540              		.cfi_personality 0x3,__gxx_personality_v0
 3541              		.cfi_lsda 0x3,.LLSDA1448
 3542 1280 4155     		pushq	%r13
 3543              		.cfi_def_cfa_offset 16
 3544              		.cfi_offset 13, -16
 3545 1282 4154     		pushq	%r12
 3546              		.cfi_def_cfa_offset 24
 3547              		.cfi_offset 12, -24
 3548 1284 55       		pushq	%rbp
 3549              		.cfi_def_cfa_offset 32
 3550              		.cfi_offset 6, -32
 3551 1285 53       		pushq	%rbx
 3552              		.cfi_def_cfa_offset 40
 3553              		.cfi_offset 3, -40
 3554 1286 488D5F08 		leaq	8(%rdi), %rbx
 3555 128a 4889FD   		movq	%rdi, %rbp
 3556 128d 4881EC98 		subq	$408, %rsp
 3556      010000
 3557              		.cfi_def_cfa_offset 448
 3558 1294 4889DF   		movq	%rbx, %rdi
 3559 1297 83050000 		addl	$1, _ZN12_GLOBAL__N_113SimpleFixture13instanceCountE(%rip)
 3559      000001
 3560 129e 64488B04 		movq	%fs:40, %rax
 3560      25280000 
 3560      00
 3561 12a7 48898424 		movq	%rax, 392(%rsp)
 3561      88010000 
 3562 12af 31C0     		xorl	%eax, %eax
 3563              	.LEHB69:
 3564 12b1 E82AFDFF 		call	_ZN8UnitTest11ExecuteTestIN12_GLOBAL__N_145SimpleFixtureOnlyOneFixtureAliveAtATimeHelperEEEvR
 3564      FF
 3565              	.LEHE69:
 3566 12b6 832D0000 		subl	$1, _ZN12_GLOBAL__N_113SimpleFixture13instanceCountE(%rip)
 3566      000001
 3567              	.L349:
 3568 12bd 488B8424 		movq	392(%rsp), %rax
 3568      88010000 
 3569 12c5 64483304 		xorq	%fs:40, %rax
 3569      25280000 
 3569      00
 3570 12ce 750E     		jne	.L370
 3571 12d0 4881C498 		addq	$408, %rsp
 3571      010000
 3572              		.cfi_remember_state
 3573              		.cfi_def_cfa_offset 40
 3574 12d7 5B       		popq	%rbx
 3575              		.cfi_def_cfa_offset 32
 3576 12d8 5D       		popq	%rbp
 3577              		.cfi_def_cfa_offset 24
 3578 12d9 415C     		popq	%r12
 3579              		.cfi_def_cfa_offset 16
 3580 12db 415D     		popq	%r13
 3581              		.cfi_def_cfa_offset 8
 3582 12dd C3       		ret
 3583              	.L370:
 3584              		.cfi_restore_state
 3585 12de E8000000 		call	__stack_chk_fail
 3585      00
 3586              	.L360:
 3587 12e3 832D0000 		subl	$1, _ZN12_GLOBAL__N_113SimpleFixture13instanceCountE(%rip)
 3587      000001
 3588 12ea 4883FA01 		cmpq	$1, %rdx
 3589 12ee 4889C7   		movq	%rax, %rdi
 3590 12f1 7477     		je	.L352
 3591 12f3 4883FA02 		cmpq	$2, %rdx
 3592 12f7 0F85E000 		jne	.L371
 3592      0000
 3593 12fd E8000000 		call	__cxa_begin_catch
 3593      00
 3594 1302 488D7C24 		leaq	32(%rsp), %rdi
 3594      20
 3595 1307 4889C5   		movq	%rax, %rbp
 3596              	.LEHB70:
 3597 130a E8000000 		call	_ZN8UnitTest15MemoryOutStreamC1Ev
 3597      00
 3598              	.LEHE70:
 3599 130f 488B4500 		movq	0(%rbp), %rax
 3600 1313 4889EF   		movq	%rbp, %rdi
 3601 1316 FF5010   		call	*16(%rax)
 3602 1319 488D7C24 		leaq	32(%rsp), %rdi
 3602      20
 3603 131e BE000000 		movl	$.LC55, %esi
 3603      00
 3604 1323 4889C5   		movq	%rax, %rbp
 3605              	.LEHB71:
 3606 1326 E8000000 		call	_ZStlsISt11char_traitsIcEERSt13basic_ostreamIcT_ES5_PKc
 3606      00
 3607 132b 4889C7   		movq	%rax, %rdi
 3608 132e 4889EE   		movq	%rbp, %rsi
 3609 1331 E8000000 		call	_ZStlsISt11char_traitsIcEERSt13basic_ostreamIcT_ES5_PKc
 3609      00
 3610 1336 488D7C24 		leaq	32(%rsp), %rdi
 3610      20
 3611 133b E8000000 		call	_ZNK8UnitTest15MemoryOutStream7GetTextEv
 3611      00
 3612 1340 4889C5   		movq	%rax, %rbp
 3613 1343 E8000000 		call	_ZN8UnitTest11CurrentTest7ResultsEv
 3613      00
 3614 1348 488B38   		movq	(%rax), %rdi
 3615 134b 4889EA   		movq	%rbp, %rdx
 3616 134e 4889DE   		movq	%rbx, %rsi
 3617 1351 E8000000 		call	_ZN8UnitTest11TestResults13OnTestFailureERKNS_11TestDetailsEPKc
 3617      00
 3618              	.LEHE71:
 3619 1356 488D7C24 		leaq	32(%rsp), %rdi
 3619      20
 3620              	.LEHB72:
 3621 135b E8000000 		call	_ZN8UnitTest15MemoryOutStreamD1Ev
 3621      00
 3622              	.LEHE72:
 3623              	.L367:
 3624 1360 E8000000 		call	__cxa_end_catch
 3624      00
 3625 1365 E953FFFF 		jmp	.L349
 3625      FF
 3626              	.L352:
 3627 136a E8000000 		call	__cxa_begin_catch
 3627      00
 3628 136f 4889C3   		movq	%rax, %rbx
 3629 1372 488B00   		movq	(%rax), %rax
 3630 1375 4889DF   		movq	%rbx, %rdi
 3631 1378 FF5010   		call	*16(%rax)
 3632 137b 4889DF   		movq	%rbx, %rdi
 3633 137e 4989C4   		movq	%rax, %r12
 3634              	.LEHB73:
 3635 1381 E8000000 		call	_ZNK8UnitTest15AssertException10LineNumberEv
 3635      00
 3636 1386 4889DF   		movq	%rbx, %rdi
 3637 1389 4189C5   		movl	%eax, %r13d
 3638 138c E8000000 		call	_ZNK8UnitTest15AssertException8FilenameEv
 3638      00
 3639 1391 488B5508 		movq	8(%rbp), %rdx
 3640 1395 488B7510 		movq	16(%rbp), %rsi
 3641 1399 4589E8   		movl	%r13d, %r8d
 3642 139c 4889C1   		movq	%rax, %rcx
 3643 139f 4889E7   		movq	%rsp, %rdi
 3644 13a2 E8000000 		call	_ZN8UnitTest11TestDetailsC1EPKcS2_S2_i
 3644      00
 3645 13a7 E8000000 		call	_ZN8UnitTest11CurrentTest7ResultsEv
 3645      00
 3646 13ac 488B38   		movq	(%rax), %rdi
 3647 13af 4C89E2   		movq	%r12, %rdx
 3648 13b2 4889E6   		movq	%rsp, %rsi
 3649 13b5 E8000000 		call	_ZN8UnitTest11TestResults13OnTestFailureERKNS_11TestDetailsEPKc
 3649      00
 3650              	.LEHE73:
 3651 13ba EBA4     		jmp	.L367
 3652              	.L363:
 3653 13bc 488D7C24 		leaq	32(%rsp), %rdi
 3653      20
 3654 13c1 4889C3   		movq	%rax, %rbx
 3655 13c4 E8000000 		call	_ZN8UnitTest15MemoryOutStreamD1Ev
 3655      00
 3656              	.L356:
 3657 13c9 E8000000 		call	__cxa_end_catch
 3657      00
 3658 13ce 4889DF   		movq	%rbx, %rdi
 3659              	.LEHB74:
 3660 13d1 E8000000 		call	_Unwind_Resume
 3660      00
 3661              	.LEHE74:
 3662              	.L361:
 3663              	.L368:
 3664 13d6 4889C3   		movq	%rax, %rbx
 3665 13d9 EBEE     		jmp	.L356
 3666              	.L362:
 3667 13db EBF9     		jmp	.L368
 3668              	.L371:
 3669 13dd E8000000 		call	__cxa_begin_catch
 3669      00
 3670 13e2 BA8D0000 		movl	$141, %edx
 3670      00
 3671 13e7 4889DE   		movq	%rbx, %rsi
 3672 13ea 4889E7   		movq	%rsp, %rdi
 3673              	.LEHB75:
 3674 13ed E8000000 		call	_ZN8UnitTest11TestDetailsC1ERKS0_i
 3674      00
 3675 13f2 E8000000 		call	_ZN8UnitTest11CurrentTest7ResultsEv
 3675      00
 3676 13f7 488B38   		movq	(%rax), %rdi
 3677 13fa BA000000 		movl	$.LC58, %edx
 3677      00
 3678 13ff 4889E6   		movq	%rsp, %rsi
 3679 1402 E8000000 		call	_ZN8UnitTest11TestResults13OnTestFailureERKNS_11TestDetailsEPKc
 3679      00
 3680              	.LEHE75:
 3681              	.LEHB76:
 3682 1407 E8000000 		call	__cxa_end_catch
 3682      00
 3683              	.LEHE76:
 3684 140c E9ACFEFF 		jmp	.L349
 3684      FF
 3685              	.L364:
 3686 1411 4889C3   		movq	%rax, %rbx
 3687 1414 E8000000 		call	__cxa_end_catch
 3687      00
 3688 1419 4889DF   		movq	%rbx, %rdi
 3689              	.LEHB77:
 3690 141c E8000000 		call	_Unwind_Resume
 3690      00
 3691              	.LEHE77:
 3692              		.cfi_endproc
 3693              	.LFE1448:
 3694              		.section	.gcc_except_table
 3695              		.align 4
 3696              	.LLSDA1448:
 3697 022c FF       		.byte	0xff
 3698 022d 03       		.byte	0x3
 3699 022e 49       		.uleb128 .LLSDATT1448-.LLSDATTD1448
 3700              	.LLSDATTD1448:
 3701 022f 01       		.byte	0x1
 3702 0230 31       		.uleb128 .LLSDACSE1448-.LLSDACSB1448
 3703              	.LLSDACSB1448:
 3704 0231 31       		.uleb128 .LEHB69-.LFB1448
 3705 0232 05       		.uleb128 .LEHE69-.LEHB69
 3706 0233 63       		.uleb128 .L360-.LFB1448
 3707 0234 07       		.uleb128 0x7
 3708 0235 8A01     		.uleb128 .LEHB70-.LFB1448
 3709 0237 05       		.uleb128 .LEHE70-.LEHB70
 3710 0238 DB02     		.uleb128 .L362-.LFB1448
 3711 023a 00       		.uleb128 0
 3712 023b A601     		.uleb128 .LEHB71-.LFB1448
 3713 023d 30       		.uleb128 .LEHE71-.LEHB71
 3714 023e BC02     		.uleb128 .L363-.LFB1448
 3715 0240 00       		.uleb128 0
 3716 0241 DB01     		.uleb128 .LEHB72-.LFB1448
 3717 0243 05       		.uleb128 .LEHE72-.LEHB72
 3718 0244 DB02     		.uleb128 .L362-.LFB1448
 3719 0246 00       		.uleb128 0
 3720 0247 8102     		.uleb128 .LEHB73-.LFB1448
 3721 0249 39       		.uleb128 .LEHE73-.LEHB73
 3722 024a D602     		.uleb128 .L361-.LFB1448
 3723 024c 00       		.uleb128 0
 3724 024d D102     		.uleb128 .LEHB74-.LFB1448
 3725 024f 05       		.uleb128 .LEHE74-.LEHB74
 3726 0250 00       		.uleb128 0
 3727 0251 00       		.uleb128 0
 3728 0252 ED02     		.uleb128 .LEHB75-.LFB1448
 3729 0254 1A       		.uleb128 .LEHE75-.LEHB75
 3730 0255 9103     		.uleb128 .L364-.LFB1448
 3731 0257 00       		.uleb128 0
 3732 0258 8703     		.uleb128 .LEHB76-.LFB1448
 3733 025a 05       		.uleb128 .LEHE76-.LEHB76
 3734 025b 00       		.uleb128 0
 3735 025c 00       		.uleb128 0
 3736 025d 9C03     		.uleb128 .LEHB77-.LFB1448
 3737 025f 05       		.uleb128 .LEHE77-.LEHB77
 3738 0260 00       		.uleb128 0
 3739 0261 00       		.uleb128 0
 3740              	.LLSDACSE1448:
 3741 0262 03       		.byte	0x3
 3742 0263 00       		.byte	0
 3743 0264 02       		.byte	0x2
 3744 0265 7D       		.byte	0x7d
 3745 0266 01       		.byte	0x1
 3746 0267 7D       		.byte	0x7d
 3747 0268 00       		.byte	0
 3748 0269 7D       		.byte	0x7d
 3749 026a 0000     		.align 4
 3750 026c 00000000 		.long	0
 3751              	
 3752 0270 00000000 		.long	_ZTISt9exception
 3753 0274 00000000 		.long	_ZTIN8UnitTest15AssertExceptionE
 3754              	.LLSDATT1448:
 3755              		.text
 3757              		.section	.text.unlikely
 3758              	.LCOLDE83:
 3759              		.text
 3760              	.LHOTE83:
 3761              		.section	.rodata.str1.1
 3762              	.LC84:
 3763 0093 00       		.string	""
 3764              	.LC85:
 3765 0094 44656661 		.string	"DefaultSuite"
 3765      756C7453 
 3765      75697465 
 3765      00
 3766              	.LC86:
 3767 00a1 77726F6E 		.string	"wrongthrow"
 3767      67746872 
 3767      6F7700
 3768              		.section	.rodata.str1.8
 3769 021c 00000000 		.align 8
 3770              	.LC87:
 3771 0220 556E6861 		.string	"Unhandled exception in CHECK_EQUAL(1, results.GetFailureCount())"
 3771      6E646C65 
 3771      64206578 
 3771      63657074 
 3771      696F6E20 
 3772              		.section	.text.unlikely
 3773              		.align 2
 3774              	.LCOLDB88:
 3775              		.text
 3776              	.LHOTB88:
 3777 1421 90       		.align 2
 3778 1422 0F1F4000 		.p2align 4,,15
 3778      662E0F1F 
 3778      84000000 
 3778      0000
 3780              	_ZNK12_GLOBAL__N_140TestCheckThrowMacroFailsOnWrongException7RunImplEv:
 3781              	.LFB1420:
 3782              		.cfi_startproc
 3783              		.cfi_personality 0x3,__gxx_personality_v0
 3784              		.cfi_lsda 0x3,.LLSDA1420
 3785 1430 53       		pushq	%rbx
 3786              		.cfi_def_cfa_offset 16
 3787              		.cfi_offset 3, -16
 3788 1431 31F6     		xorl	%esi, %esi
 3789 1433 4883C480 		addq	$-128, %rsp
 3790              		.cfi_def_cfa_offset 144
 3791 1437 488D5C24 		leaq	32(%rsp), %rbx
 3791      20
 3792 143c 64488B04 		movq	%fs:40, %rax
 3792      25280000 
 3792      00
 3793 1445 48894424 		movq	%rax, 120(%rsp)
 3793      78
 3794 144a 31C0     		xorl	%eax, %eax
 3795 144c 4889DF   		movq	%rbx, %rdi
 3796              	.LEHB78:
 3797 144f E8000000 		call	_ZN8UnitTest11TestResultsC1EPNS_12TestReporterE
 3797      00
 3798 1454 E8000000 		call	_ZN8UnitTest11CurrentTest7ResultsEv
 3798      00
 3799 1459 488B00   		movq	(%rax), %rax
 3800 145c 48894424 		movq	%rax, 16(%rsp)
 3800      10
 3801 1461 E8000000 		call	_ZN8UnitTest11CurrentTest7DetailsEv
 3801      00
 3802 1466 488B00   		movq	(%rax), %rax
 3803 1469 48894424 		movq	%rax, 24(%rsp)
 3803      18
 3804 146e E8000000 		call	_ZN8UnitTest11CurrentTest7ResultsEv
 3804      00
 3805              	.LEHE78:
 3806 1473 488D7C24 		leaq	64(%rsp), %rdi
 3806      40
 3807 1478 488918   		movq	%rbx, (%rax)
 3808 147b 4531C0   		xorl	%r8d, %r8d
 3809 147e B9000000 		movl	$.LC84, %ecx
 3809      00
 3810 1483 BA000000 		movl	$.LC85, %edx
 3810      00
 3811 1488 BE000000 		movl	$.LC86, %esi
 3811      00
 3812              	.LEHB79:
 3813 148d E8000000 		call	_ZN8UnitTest4TestC2EPKcS2_S2_i
 3813      00
 3814              	.LEHE79:
 3815 1492 488D7C24 		leaq	64(%rsp), %rdi
 3815      40
 3816 1497 48C74424 		movq	$_ZTVZNK12_GLOBAL__N_140TestCheckThrowMacroFailsOnWrongException7RunImplEvE14WrongThrowTest+1
 3816      40000000 
 3816      00
 3817              	.LEHB80:
 3818 14a0 E8000000 		call	_ZN8UnitTest4Test3RunEv
 3818      00
 3819              	.LEHE80:
 3820 14a5 488D7C24 		leaq	64(%rsp), %rdi
 3820      40
 3821 14aa 48C74424 		movq	$_ZTVZNK12_GLOBAL__N_140TestCheckThrowMacroFailsOnWrongException7RunImplEvE14WrongThrowTest+1
 3821      40000000 
 3821      00
 3822              	.LEHB81:
 3823 14b3 E8000000 		call	_ZN8UnitTest4TestD2Ev
 3823      00
 3824              	.LEHE81:
 3825              	.LEHB82:
 3826 14b8 E8000000 		call	_ZN8UnitTest11CurrentTest7ResultsEv
 3826      00
 3827 14bd 488B5424 		movq	16(%rsp), %rdx
 3827      10
 3828 14c2 488910   		movq	%rdx, (%rax)
 3829 14c5 E8000000 		call	_ZN8UnitTest11CurrentTest7DetailsEv
 3829      00
 3830              	.LEHE82:
 3831 14ca 488B5424 		movq	24(%rsp), %rdx
 3831      18
 3832 14cf 488910   		movq	%rdx, (%rax)
 3833              	.LEHB83:
 3834 14d2 E8000000 		call	_ZN8UnitTest11CurrentTest7DetailsEv
 3834      00
 3835 14d7 488B30   		movq	(%rax), %rsi
 3836 14da 488D7C24 		leaq	64(%rsp), %rdi
 3836      40
 3837 14df BA750000 		movl	$117, %edx
 3837      00
 3838 14e4 E8000000 		call	_ZN8UnitTest11TestDetailsC1ERKS0_i
 3838      00
 3839 14e9 4889DF   		movq	%rbx, %rdi
 3840 14ec E8000000 		call	_ZNK8UnitTest11TestResults15GetFailureCountEv
 3840      00
 3841 14f1 89442410 		movl	%eax, 16(%rsp)
 3842 14f5 C744240C 		movl	$1, 12(%rsp)
 3842      01000000 
 3843 14fd E8000000 		call	_ZN8UnitTest11CurrentTest7ResultsEv
 3843      00
 3844 1502 488B38   		movq	(%rax), %rdi
 3845 1505 488D4C24 		leaq	64(%rsp), %rcx
 3845      40
 3846 150a 488D5424 		leaq	16(%rsp), %rdx
 3846      10
 3847 150f 488D7424 		leaq	12(%rsp), %rsi
 3847      0C
 3848 1514 E8000000 		call	_ZN8UnitTest10CheckEqualIiiEEvRNS_11TestResultsERKT_RKT0_RKNS_11TestDetailsE
 3848      00
 3849              	.LEHE83:
 3850              	.L372:
 3851 1519 488B4424 		movq	120(%rsp), %rax
 3851      78
 3852 151e 64483304 		xorq	%fs:40, %rax
 3852      25280000 
 3852      00
 3853 1527 7506     		jne	.L384
 3854 1529 4883EC80 		subq	$-128, %rsp
 3855              		.cfi_remember_state
 3856              		.cfi_def_cfa_offset 16
 3857 152d 5B       		popq	%rbx
 3858              		.cfi_def_cfa_offset 8
 3859 152e C3       		ret
 3860              	.L384:
 3861              		.cfi_restore_state
 3862 152f E8000000 		call	__stack_chk_fail
 3862      00
 3863              	.L381:
 3864 1534 4889C7   		movq	%rax, %rdi
 3865 1537 E8000000 		call	__cxa_begin_catch
 3865      00
 3866              	.LEHB84:
 3867 153c E8000000 		call	_ZN8UnitTest11CurrentTest7DetailsEv
 3867      00
 3868 1541 488B30   		movq	(%rax), %rsi
 3869 1544 488D7C24 		leaq	64(%rsp), %rdi
 3869      40
 3870 1549 BA750000 		movl	$117, %edx
 3870      00
 3871 154e E8000000 		call	_ZN8UnitTest11TestDetailsC1ERKS0_i
 3871      00
 3872 1553 E8000000 		call	_ZN8UnitTest11CurrentTest7ResultsEv
 3872      00
 3873 1558 488B38   		movq	(%rax), %rdi
 3874 155b 488D7424 		leaq	64(%rsp), %rsi
 3874      40
 3875 1560 BA000000 		movl	$.LC87, %edx
 3875      00
 3876 1565 E8000000 		call	_ZN8UnitTest11TestResults13OnTestFailureERKNS_11TestDetailsEPKc
 3876      00
 3877              	.LEHE84:
 3878              	.LEHB85:
 3879 156a E8000000 		call	__cxa_end_catch
 3879      00
 3880              	.LEHE85:
 3881 156f EBA8     		jmp	.L372
 3882              	.L380:
 3883 1571 488D7C24 		leaq	64(%rsp), %rdi
 3883      40
 3884 1576 4889C3   		movq	%rax, %rbx
 3885 1579 48C74424 		movq	$_ZTVZNK12_GLOBAL__N_140TestCheckThrowMacroFailsOnWrongException7RunImplEvE14WrongThrowTest+1
 3885      40000000 
 3885      00
 3886 1582 E8000000 		call	_ZN8UnitTest4TestD2Ev
 3886      00
 3887              	.L374:
 3888 1587 488D7C24 		leaq	16(%rsp), %rdi
 3888      10
 3889 158c E8000000 		call	_ZN17ScopedCurrentTestD1Ev
 3889      00
 3890 1591 4889DF   		movq	%rbx, %rdi
 3891              	.LEHB86:
 3892 1594 E8000000 		call	_Unwind_Resume
 3892      00
 3893              	.LEHE86:
 3894              	.L379:
 3895 1599 4889C3   		movq	%rax, %rbx
 3896 159c EBE9     		jmp	.L374
 3897              	.L382:
 3898 159e 4889C3   		movq	%rax, %rbx
 3899 15a1 E8000000 		call	__cxa_end_catch
 3899      00
 3900 15a6 4889DF   		movq	%rbx, %rdi
 3901              	.LEHB87:
 3902 15a9 E8000000 		call	_Unwind_Resume
 3902      00
 3903              	.LEHE87:
 3904              		.cfi_endproc
 3905              	.LFE1420:
 3906              		.section	.gcc_except_table
 3907              		.align 4
 3908              	.LLSDA1420:
 3909 0278 FF       		.byte	0xff
 3910 0279 03       		.byte	0x3
 3911 027a 3D       		.uleb128 .LLSDATT1420-.LLSDATTD1420
 3912              	.LLSDATTD1420:
 3913 027b 01       		.byte	0x1
 3914 027c 34       		.uleb128 .LLSDACSE1420-.LLSDACSB1420
 3915              	.LLSDACSB1420:
 3916 027d 1F       		.uleb128 .LEHB78-.LFB1420
 3917 027e 24       		.uleb128 .LEHE78-.LEHB78
 3918 027f 00       		.uleb128 0
 3919 0280 00       		.uleb128 0
 3920 0281 5D       		.uleb128 .LEHB79-.LFB1420
 3921 0282 05       		.uleb128 .LEHE79-.LEHB79
 3922 0283 E902     		.uleb128 .L379-.LFB1420
 3923 0285 00       		.uleb128 0
 3924 0286 70       		.uleb128 .LEHB80-.LFB1420
 3925 0287 05       		.uleb128 .LEHE80-.LEHB80
 3926 0288 C102     		.uleb128 .L380-.LFB1420
 3927 028a 00       		.uleb128 0
 3928 028b 8301     		.uleb128 .LEHB81-.LFB1420
 3929 028d 05       		.uleb128 .LEHE81-.LEHB81
 3930 028e E902     		.uleb128 .L379-.LFB1420
 3931 0290 00       		.uleb128 0
 3932 0291 8801     		.uleb128 .LEHB82-.LFB1420
 3933 0293 12       		.uleb128 .LEHE82-.LEHB82
 3934 0294 00       		.uleb128 0
 3935 0295 00       		.uleb128 0
 3936 0296 A201     		.uleb128 .LEHB83-.LFB1420
 3937 0298 47       		.uleb128 .LEHE83-.LEHB83
 3938 0299 8402     		.uleb128 .L381-.LFB1420
 3939 029b 01       		.uleb128 0x1
 3940 029c 8C02     		.uleb128 .LEHB84-.LFB1420
 3941 029e 2E       		.uleb128 .LEHE84-.LEHB84
 3942 029f EE02     		.uleb128 .L382-.LFB1420
 3943 02a1 00       		.uleb128 0
 3944 02a2 BA02     		.uleb128 .LEHB85-.LFB1420
 3945 02a4 05       		.uleb128 .LEHE85-.LEHB85
 3946 02a5 00       		.uleb128 0
 3947 02a6 00       		.uleb128 0
 3948 02a7 E402     		.uleb128 .LEHB86-.LFB1420
 3949 02a9 05       		.uleb128 .LEHE86-.LEHB86
 3950 02aa 00       		.uleb128 0
 3951 02ab 00       		.uleb128 0
 3952 02ac F902     		.uleb128 .LEHB87-.LFB1420
 3953 02ae 05       		.uleb128 .LEHE87-.LEHB87
 3954 02af 00       		.uleb128 0
 3955 02b0 00       		.uleb128 0
 3956              	.LLSDACSE1420:
 3957 02b1 01       		.byte	0x1
 3958 02b2 00       		.byte	0
 3959 02b3 00       		.align 4
 3960 02b4 00000000 		.long	0
 3961              	
 3962              	.LLSDATT1420:
 3963              		.text
 3965              		.section	.text.unlikely
 3966              	.LCOLDE88:
 3967              		.text
 3968              	.LHOTE88:
 3969              		.section	.rodata.str1.1
 3970              	.LC89:
 3971 00ac 6E6F7468 		.string	"nothrow"
 3971      726F7700 
 3972              		.section	.text.unlikely
 3973              		.align 2
 3974              	.LCOLDB90:
 3975              		.text
 3976              	.LHOTB90:
 3977              		.align 2
 3978 15ae 6690     		.p2align 4,,15
 3980              	_ZNK12_GLOBAL__N_142TestCheckThrowMacroFailsOnMissingException7RunImplEv:
 3981              	.LFB1411:
 3982              		.cfi_startproc
 3983              		.cfi_personality 0x3,__gxx_personality_v0
 3984              		.cfi_lsda 0x3,.LLSDA1411
 3985 15b0 53       		pushq	%rbx
 3986              		.cfi_def_cfa_offset 16
 3987              		.cfi_offset 3, -16
 3988 15b1 31F6     		xorl	%esi, %esi
 3989 15b3 4883C480 		addq	$-128, %rsp
 3990              		.cfi_def_cfa_offset 144
 3991 15b7 488D5C24 		leaq	32(%rsp), %rbx
 3991      20
 3992 15bc 64488B04 		movq	%fs:40, %rax
 3992      25280000 
 3992      00
 3993 15c5 48894424 		movq	%rax, 120(%rsp)
 3993      78
 3994 15ca 31C0     		xorl	%eax, %eax
 3995 15cc 4889DF   		movq	%rbx, %rdi
 3996              	.LEHB88:
 3997 15cf E8000000 		call	_ZN8UnitTest11TestResultsC1EPNS_12TestReporterE
 3997      00
 3998 15d4 E8000000 		call	_ZN8UnitTest11CurrentTest7ResultsEv
 3998      00
 3999 15d9 488B00   		movq	(%rax), %rax
 4000 15dc 48894424 		movq	%rax, 16(%rsp)
 4000      10
 4001 15e1 E8000000 		call	_ZN8UnitTest11CurrentTest7DetailsEv
 4001      00
 4002 15e6 488B00   		movq	(%rax), %rax
 4003 15e9 48894424 		movq	%rax, 24(%rsp)
 4003      18
 4004 15ee E8000000 		call	_ZN8UnitTest11CurrentTest7ResultsEv
 4004      00
 4005              	.LEHE88:
 4006 15f3 488D7C24 		leaq	64(%rsp), %rdi
 4006      40
 4007 15f8 488918   		movq	%rbx, (%rax)
 4008 15fb 4531C0   		xorl	%r8d, %r8d
 4009 15fe B9000000 		movl	$.LC84, %ecx
 4009      00
 4010 1603 BA000000 		movl	$.LC85, %edx
 4010      00
 4011 1608 BE000000 		movl	$.LC89, %esi
 4011      00
 4012              	.LEHB89:
 4013 160d E8000000 		call	_ZN8UnitTest4TestC2EPKcS2_S2_i
 4013      00
 4014              	.LEHE89:
 4015 1612 488D7C24 		leaq	64(%rsp), %rdi
 4015      40
 4016 1617 48C74424 		movq	$_ZTVZNK12_GLOBAL__N_142TestCheckThrowMacroFailsOnMissingException7RunImplEvE11NoThrowTest+16
 4016      40000000 
 4016      00
 4017              	.LEHB90:
 4018 1620 E8000000 		call	_ZN8UnitTest4Test3RunEv
 4018      00
 4019              	.LEHE90:
 4020 1625 488D7C24 		leaq	64(%rsp), %rdi
 4020      40
 4021 162a 48C74424 		movq	$_ZTVZNK12_GLOBAL__N_142TestCheckThrowMacroFailsOnMissingException7RunImplEvE11NoThrowTest+16
 4021      40000000 
 4021      00
 4022              	.LEHB91:
 4023 1633 E8000000 		call	_ZN8UnitTest4TestD2Ev
 4023      00
 4024              	.LEHE91:
 4025              	.LEHB92:
 4026 1638 E8000000 		call	_ZN8UnitTest11CurrentTest7ResultsEv
 4026      00
 4027 163d 488B5424 		movq	16(%rsp), %rdx
 4027      10
 4028 1642 488910   		movq	%rdx, (%rax)
 4029 1645 E8000000 		call	_ZN8UnitTest11CurrentTest7DetailsEv
 4029      00
 4030              	.LEHE92:
 4031 164a 488B5424 		movq	24(%rsp), %rdx
 4031      18
 4032 164f 488910   		movq	%rdx, (%rax)
 4033              	.LEHB93:
 4034 1652 E8000000 		call	_ZN8UnitTest11CurrentTest7DetailsEv
 4034      00
 4035 1657 488B30   		movq	(%rax), %rsi
 4036 165a 488D7C24 		leaq	64(%rsp), %rdi
 4036      40
 4037 165f BA5E0000 		movl	$94, %edx
 4037      00
 4038 1664 E8000000 		call	_ZN8UnitTest11TestDetailsC1ERKS0_i
 4038      00
 4039 1669 4889DF   		movq	%rbx, %rdi
 4040 166c E8000000 		call	_ZNK8UnitTest11TestResults15GetFailureCountEv
 4040      00
 4041 1671 89442410 		movl	%eax, 16(%rsp)
 4042 1675 C744240C 		movl	$1, 12(%rsp)
 4042      01000000 
 4043 167d E8000000 		call	_ZN8UnitTest11CurrentTest7ResultsEv
 4043      00
 4044 1682 488B38   		movq	(%rax), %rdi
 4045 1685 488D4C24 		leaq	64(%rsp), %rcx
 4045      40
 4046 168a 488D5424 		leaq	16(%rsp), %rdx
 4046      10
 4047 168f 488D7424 		leaq	12(%rsp), %rsi
 4047      0C
 4048 1694 E8000000 		call	_ZN8UnitTest10CheckEqualIiiEEvRNS_11TestResultsERKT_RKT0_RKNS_11TestDetailsE
 4048      00
 4049              	.LEHE93:
 4050              	.L385:
 4051 1699 488B4424 		movq	120(%rsp), %rax
 4051      78
 4052 169e 64483304 		xorq	%fs:40, %rax
 4052      25280000 
 4052      00
 4053 16a7 7506     		jne	.L397
 4054 16a9 4883EC80 		subq	$-128, %rsp
 4055              		.cfi_remember_state
 4056              		.cfi_def_cfa_offset 16
 4057 16ad 5B       		popq	%rbx
 4058              		.cfi_def_cfa_offset 8
 4059 16ae C3       		ret
 4060              	.L397:
 4061              		.cfi_restore_state
 4062 16af E8000000 		call	__stack_chk_fail
 4062      00
 4063              	.L394:
 4064 16b4 4889C7   		movq	%rax, %rdi
 4065 16b7 E8000000 		call	__cxa_begin_catch
 4065      00
 4066              	.LEHB94:
 4067 16bc E8000000 		call	_ZN8UnitTest11CurrentTest7DetailsEv
 4067      00
 4068 16c1 488B30   		movq	(%rax), %rsi
 4069 16c4 488D7C24 		leaq	64(%rsp), %rdi
 4069      40
 4070 16c9 BA5E0000 		movl	$94, %edx
 4070      00
 4071 16ce E8000000 		call	_ZN8UnitTest11TestDetailsC1ERKS0_i
 4071      00
 4072 16d3 E8000000 		call	_ZN8UnitTest11CurrentTest7ResultsEv
 4072      00
 4073 16d8 488B38   		movq	(%rax), %rdi
 4074 16db 488D7424 		leaq	64(%rsp), %rsi
 4074      40
 4075 16e0 BA000000 		movl	$.LC87, %edx
 4075      00
 4076 16e5 E8000000 		call	_ZN8UnitTest11TestResults13OnTestFailureERKNS_11TestDetailsEPKc
 4076      00
 4077              	.LEHE94:
 4078              	.LEHB95:
 4079 16ea E8000000 		call	__cxa_end_catch
 4079      00
 4080              	.LEHE95:
 4081 16ef EBA8     		jmp	.L385
 4082              	.L393:
 4083 16f1 488D7C24 		leaq	64(%rsp), %rdi
 4083      40
 4084 16f6 4889C3   		movq	%rax, %rbx
 4085 16f9 48C74424 		movq	$_ZTVZNK12_GLOBAL__N_142TestCheckThrowMacroFailsOnMissingException7RunImplEvE11NoThrowTest+16
 4085      40000000 
 4085      00
 4086 1702 E8000000 		call	_ZN8UnitTest4TestD2Ev
 4086      00
 4087              	.L387:
 4088 1707 488D7C24 		leaq	16(%rsp), %rdi
 4088      10
 4089 170c E8000000 		call	_ZN17ScopedCurrentTestD1Ev
 4089      00
 4090 1711 4889DF   		movq	%rbx, %rdi
 4091              	.LEHB96:
 4092 1714 E8000000 		call	_Unwind_Resume
 4092      00
 4093              	.LEHE96:
 4094              	.L392:
 4095 1719 4889C3   		movq	%rax, %rbx
 4096 171c EBE9     		jmp	.L387
 4097              	.L395:
 4098 171e 4889C3   		movq	%rax, %rbx
 4099 1721 E8000000 		call	__cxa_end_catch
 4099      00
 4100 1726 4889DF   		movq	%rbx, %rdi
 4101              	.LEHB97:
 4102 1729 E8000000 		call	_Unwind_Resume
 4102      00
 4103              	.LEHE97:
 4104              		.cfi_endproc
 4105              	.LFE1411:
 4106              		.section	.gcc_except_table
 4107              		.align 4
 4108              	.LLSDA1411:
 4109 02b8 FF       		.byte	0xff
 4110 02b9 03       		.byte	0x3
 4111 02ba 3D       		.uleb128 .LLSDATT1411-.LLSDATTD1411
 4112              	.LLSDATTD1411:
 4113 02bb 01       		.byte	0x1
 4114 02bc 34       		.uleb128 .LLSDACSE1411-.LLSDACSB1411
 4115              	.LLSDACSB1411:
 4116 02bd 1F       		.uleb128 .LEHB88-.LFB1411
 4117 02be 24       		.uleb128 .LEHE88-.LEHB88
 4118 02bf 00       		.uleb128 0
 4119 02c0 00       		.uleb128 0
 4120 02c1 5D       		.uleb128 .LEHB89-.LFB1411
 4121 02c2 05       		.uleb128 .LEHE89-.LEHB89
 4122 02c3 E902     		.uleb128 .L392-.LFB1411
 4123 02c5 00       		.uleb128 0
 4124 02c6 70       		.uleb128 .LEHB90-.LFB1411
 4125 02c7 05       		.uleb128 .LEHE90-.LEHB90
 4126 02c8 C102     		.uleb128 .L393-.LFB1411
 4127 02ca 00       		.uleb128 0
 4128 02cb 8301     		.uleb128 .LEHB91-.LFB1411
 4129 02cd 05       		.uleb128 .LEHE91-.LEHB91
 4130 02ce E902     		.uleb128 .L392-.LFB1411
 4131 02d0 00       		.uleb128 0
 4132 02d1 8801     		.uleb128 .LEHB92-.LFB1411
 4133 02d3 12       		.uleb128 .LEHE92-.LEHB92
 4134 02d4 00       		.uleb128 0
 4135 02d5 00       		.uleb128 0
 4136 02d6 A201     		.uleb128 .LEHB93-.LFB1411
 4137 02d8 47       		.uleb128 .LEHE93-.LEHB93
 4138 02d9 8402     		.uleb128 .L394-.LFB1411
 4139 02db 01       		.uleb128 0x1
 4140 02dc 8C02     		.uleb128 .LEHB94-.LFB1411
 4141 02de 2E       		.uleb128 .LEHE94-.LEHB94
 4142 02df EE02     		.uleb128 .L395-.LFB1411
 4143 02e1 00       		.uleb128 0
 4144 02e2 BA02     		.uleb128 .LEHB95-.LFB1411
 4145 02e4 05       		.uleb128 .LEHE95-.LEHB95
 4146 02e5 00       		.uleb128 0
 4147 02e6 00       		.uleb128 0
 4148 02e7 E402     		.uleb128 .LEHB96-.LFB1411
 4149 02e9 05       		.uleb128 .LEHE96-.LEHB96
 4150 02ea 00       		.uleb128 0
 4151 02eb 00       		.uleb128 0
 4152 02ec F902     		.uleb128 .LEHB97-.LFB1411
 4153 02ee 05       		.uleb128 .LEHE97-.LEHB97
 4154 02ef 00       		.uleb128 0
 4155 02f0 00       		.uleb128 0
 4156              	.LLSDACSE1411:
 4157 02f1 01       		.byte	0x1
 4158 02f2 00       		.byte	0
 4159 02f3 00       		.align 4
 4160 02f4 00000000 		.long	0
 4161              	
 4162              	.LLSDATT1411:
 4163              		.text
 4165              		.section	.text.unlikely
 4166              	.LCOLDE90:
 4167              		.text
 4168              	.LHOTE90:
 4169              		.section	.rodata.str1.1
 4170              	.LC91:
 4171 00b4 202B2F2D 		.string	" +/- "
 4171      2000
 4172              		.section	.text.unlikely._ZN8UnitTest10CheckCloseIfffEEvRNS_11TestResultsERKT_RKT0_RKT1_RKNS_11Test
 4173              	.LCOLDB92:
 4174              		.section	.text._ZN8UnitTest10CheckCloseIfffEEvRNS_11TestResultsERKT_RKT0_RKT1_RKNS_11TestDetailsE,
 4175              	.LHOTB92:
 4176              		.p2align 4,,15
 4177              		.weak	_ZN8UnitTest10CheckCloseIfffEEvRNS_11TestResultsERKT_RKT0_RKT1_RKNS_11TestDetailsE
 4179              	_ZN8UnitTest10CheckCloseIfffEEvRNS_11TestResultsERKT_RKT0_RKT1_RKNS_11TestDetailsE:
 4180              	.LFB1490:
 4181              		.cfi_startproc
 4182              		.cfi_personality 0x3,__gxx_personality_v0
 4183              		.cfi_lsda 0x3,.LLSDA1490
 4184 0000 4157     		pushq	%r15
 4185              		.cfi_def_cfa_offset 16
 4186              		.cfi_offset 15, -16
 4187 0002 4156     		pushq	%r14
 4188              		.cfi_def_cfa_offset 24
 4189              		.cfi_offset 14, -24
 4190 0004 4D89C7   		movq	%r8, %r15
 4191 0007 4155     		pushq	%r13
 4192              		.cfi_def_cfa_offset 32
 4193              		.cfi_offset 13, -32
 4194 0009 4154     		pushq	%r12
 4195              		.cfi_def_cfa_offset 40
 4196              		.cfi_offset 12, -40
 4197 000b 4989FE   		movq	%rdi, %r14
 4198 000e 55       		pushq	%rbp
 4199              		.cfi_def_cfa_offset 48
 4200              		.cfi_offset 6, -48
 4201 000f 53       		pushq	%rbx
 4202              		.cfi_def_cfa_offset 56
 4203              		.cfi_offset 3, -56
 4204 0010 4889D5   		movq	%rdx, %rbp
 4205 0013 4889F3   		movq	%rsi, %rbx
 4206 0016 4989CC   		movq	%rcx, %r12
 4207 0019 4881EC98 		subq	$408, %rsp
 4207      010000
 4208              		.cfi_def_cfa_offset 464
 4209 0020 F30F1016 		movss	(%rsi), %xmm2
 4210 0024 0F28DA   		movaps	%xmm2, %xmm3
 4211 0027 F30F1001 		movss	(%rcx), %xmm0
 4212 002b F30F100A 		movss	(%rdx), %xmm1
 4213 002f F30F5CD8 		subss	%xmm0, %xmm3
 4214 0033 64488B04 		movq	%fs:40, %rax
 4214      25280000 
 4214      00
 4215 003c 48898424 		movq	%rax, 392(%rsp)
 4215      88010000 
 4216 0044 31C0     		xorl	%eax, %eax
 4217 0046 0F2ECB   		ucomiss	%xmm3, %xmm1
 4218 0049 720D     		jb	.L399
 4219 004b F30F58C2 		addss	%xmm2, %xmm0
 4220 004f 0F2EC1   		ucomiss	%xmm1, %xmm0
 4221 0052 0F836302 		jnb	.L398
 4221      0000
 4222              	.L399:
 4223 0058 4C8DAC24 		leaq	128(%rsp), %r13
 4223      80000000 
 4224 0060 4C89EF   		movq	%r13, %rdi
 4225 0063 E8000000 		call	_ZNSt8ios_baseC2Ev
 4225      00
 4226 0068 31F6     		xorl	%esi, %esi
 4227 006a 4C89EF   		movq	%r13, %rdi
 4228 006d 48C78424 		movq	$0, 344(%rsp)
 4228      58010000 
 4228      00000000 
 4229 0079 C6842460 		movb	$0, 352(%rsp)
 4229      01000000 
 4230 0081 C6842461 		movb	$0, 353(%rsp)
 4230      01000000 
 4231 0089 48C78424 		movq	$0, 360(%rsp)
 4231      68010000 
 4231      00000000 
 4232 0095 48C78424 		movq	$0, 368(%rsp)
 4232      70010000 
 4232      00000000 
 4233 00a1 48C78424 		movq	$0, 376(%rsp)
 4233      78010000 
 4233      00000000 
 4234 00ad 48C78424 		movq	$0, 384(%rsp)
 4234      80010000 
 4234      00000000 
 4235 00b9 48C74424 		movq	$_ZTCN8UnitTest15MemoryOutStreamE0_So+24, 32(%rsp)
 4235      20000000 
 4235      00
 4236 00c2 48C78424 		movq	$_ZTCN8UnitTest15MemoryOutStreamE0_So+64, 128(%rsp)
 4236      80000000 
 4236      00000000 
 4237              	.LEHB98:
 4238 00ce E8000000 		call	_ZNSt9basic_iosIcSt11char_traitsIcEE4initEPSt15basic_streambufIcS1_E
 4238      00
 4239              	.LEHE98:
 4240 00d3 488D7C24 		leaq	96(%rsp), %rdi
 4240      60
 4241 00d8 48C74424 		movq	$_ZTCN8UnitTest15MemoryOutStreamE0_St19basic_ostringstreamIcSt11char_traitsIcESaIcEE+24, 32(%
 4241      20000000 
 4241      00
 4242 00e1 48C78424 		movq	$_ZTCN8UnitTest15MemoryOutStreamE0_St19basic_ostringstreamIcSt11char_traitsIcESaIcEE+64, 128(
 4242      80000000 
 4242      00000000 
 4243 00ed 48C74424 		movq	$_ZTVSt15basic_streambufIcSt11char_traitsIcEE+16, 40(%rsp)
 4243      28000000 
 4243      00
 4244 00f6 48C74424 		movq	$0, 48(%rsp)
 4244      30000000 
 4244      00
 4245 00ff 48C74424 		movq	$0, 56(%rsp)
 4245      38000000 
 4245      00
 4246 0108 48C74424 		movq	$0, 64(%rsp)
 4246      40000000 
 4246      00
 4247 0111 48C74424 		movq	$0, 72(%rsp)
 4247      48000000 
 4247      00
 4248 011a 48C74424 		movq	$0, 80(%rsp)
 4248      50000000 
 4248      00
 4249 0123 48C74424 		movq	$0, 88(%rsp)
 4249      58000000 
 4249      00
 4250 012c E8000000 		call	_ZNSt6localeC1Ev
 4250      00
 4251 0131 488B4424 		movq	32(%rsp), %rax
 4251      20
 4252 0136 488D7C24 		leaq	32(%rsp), %rdi
 4252      20
 4253 013b 488D7424 		leaq	40(%rsp), %rsi
 4253      28
 4254 0140 48C74424 		movq	$_ZTVSt15basic_stringbufIcSt11char_traitsIcESaIcEE+16, 40(%rsp)
 4254      28000000 
 4254      00
 4255 0149 C7442468 		movl	$16, 104(%rsp)
 4255      10000000 
 4256 0151 48C74424 		movq	$_ZNSs4_Rep20_S_empty_rep_storageE+24, 112(%rsp)
 4256      70000000 
 4256      00
 4257 015a 480378E8 		addq	-24(%rax), %rdi
 4258              	.LEHB99:
 4259 015e E8000000 		call	_ZNSt9basic_iosIcSt11char_traitsIcEE4initEPSt15basic_streambufIcS1_E
 4259      00
 4260              	.LEHE99:
 4261 0163 488D7C24 		leaq	32(%rsp), %rdi
 4261      20
 4262 0168 F30F1065 		movss	0(%rbp), %xmm4
 4262      00
 4263 016d F3410F10 		movss	(%r12), %xmm5
 4263      2C24
 4264 0173 BA090000 		movl	$9, %edx
 4264      00
 4265 0178 F30F1033 		movss	(%rbx), %xmm6
 4266 017c BE000000 		movl	$.LC78, %esi
 4266      00
 4267 0181 48C74424 		movq	$_ZTVN8UnitTest15MemoryOutStreamE+24, 32(%rsp)
 4267      20000000 
 4267      00
 4268 018a 48C78424 		movq	$_ZTVN8UnitTest15MemoryOutStreamE+64, 128(%rsp)
 4268      80000000 
 4268      00000000 
 4269 0196 F30F1164 		movss	%xmm4, 4(%rsp)
 4269      2404
 4270 019c 48C74424 		movq	$_ZNSs4_Rep20_S_empty_rep_storageE+24, 120(%rsp)
 4270      78000000 
 4270      00
 4271 01a5 F30F116C 		movss	%xmm5, 8(%rsp)
 4271      2408
 4272 01ab F30F1174 		movss	%xmm6, 12(%rsp)
 4272      240C
 4273              	.LEHB100:
 4274 01b1 E8000000 		call	_ZSt16__ostream_insertIcSt11char_traitsIcEERSt13basic_ostreamIT_T0_ES6_PKS3_l
 4274      00
 4275 01b6 660FEFC0 		pxor	%xmm0, %xmm0
 4276 01ba 488D7C24 		leaq	32(%rsp), %rdi
 4276      20
 4277 01bf F30F5A44 		cvtss2sd	12(%rsp), %xmm0
 4277      240C
 4278 01c5 E8000000 		call	_ZNSo9_M_insertIdEERSoT_
 4278      00
 4279 01ca BA050000 		movl	$5, %edx
 4279      00
 4280 01cf BE000000 		movl	$.LC91, %esi
 4280      00
 4281 01d4 4889C7   		movq	%rax, %rdi
 4282 01d7 4889C3   		movq	%rax, %rbx
 4283 01da E8000000 		call	_ZSt16__ostream_insertIcSt11char_traitsIcEERSt13basic_ostreamIT_T0_ES6_PKS3_l
 4283      00
 4284 01df 660FEFC0 		pxor	%xmm0, %xmm0
 4285 01e3 4889DF   		movq	%rbx, %rdi
 4286 01e6 F30F5A44 		cvtss2sd	8(%rsp), %xmm0
 4286      2408
 4287 01ec E8000000 		call	_ZNSo9_M_insertIdEERSoT_
 4287      00
 4288 01f1 BA090000 		movl	$9, %edx
 4288      00
 4289 01f6 BE000000 		movl	$.LC79, %esi
 4289      00
 4290 01fb 4889C7   		movq	%rax, %rdi
 4291 01fe 4889C3   		movq	%rax, %rbx
 4292 0201 E8000000 		call	_ZSt16__ostream_insertIcSt11char_traitsIcEERSt13basic_ostreamIT_T0_ES6_PKS3_l
 4292      00
 4293 0206 660FEFC0 		pxor	%xmm0, %xmm0
 4294 020a 4889DF   		movq	%rbx, %rdi
 4295 020d F30F5A44 		cvtss2sd	4(%rsp), %xmm0
 4295      2404
 4296 0213 E8000000 		call	_ZNSo9_M_insertIdEERSoT_
 4296      00
 4297 0218 488D7C24 		leaq	32(%rsp), %rdi
 4297      20
 4298 021d E8000000 		call	_ZNK8UnitTest15MemoryOutStream7GetTextEv
 4298      00
 4299 0222 4889C2   		movq	%rax, %rdx
 4300 0225 4C89FE   		movq	%r15, %rsi
 4301 0228 4C89F7   		movq	%r14, %rdi
 4302 022b E8000000 		call	_ZN8UnitTest11TestResults13OnTestFailureERKNS_11TestDetailsEPKc
 4302      00
 4303              	.LEHE100:
 4304 0230 488B4424 		movq	120(%rsp), %rax
 4304      78
 4305 0235 48C74424 		movq	$_ZTVN8UnitTest15MemoryOutStreamE+24, 32(%rsp)
 4305      20000000 
 4305      00
 4306 023e 48C78424 		movq	$_ZTVN8UnitTest15MemoryOutStreamE+64, 128(%rsp)
 4306      80000000 
 4306      00000000 
 4307 024a 488D78E8 		leaq	-24(%rax), %rdi
 4308 024e 4881FF00 		cmpq	$_ZNSs4_Rep20_S_empty_rep_storageE, %rdi
 4308      000000
 4309 0255 0F858D00 		jne	.L430
 4309      0000
 4310              	.L407:
 4311 025b 488B4424 		movq	112(%rsp), %rax
 4311      70
 4312 0260 48C74424 		movq	$_ZTCN8UnitTest15MemoryOutStreamE0_St19basic_ostringstreamIcSt11char_traitsIcESaIcEE+24, 32(%
 4312      20000000 
 4312      00
 4313 0269 48C78424 		movq	$_ZTCN8UnitTest15MemoryOutStreamE0_St19basic_ostringstreamIcSt11char_traitsIcESaIcEE+64, 128(
 4313      80000000 
 4313      00000000 
 4314 0275 48C74424 		movq	$_ZTVSt15basic_stringbufIcSt11char_traitsIcESaIcEE+16, 40(%rsp)
 4314      28000000 
 4314      00
 4315 027e 488D78E8 		leaq	-24(%rax), %rdi
 4316 0282 4881FF00 		cmpq	$_ZNSs4_Rep20_S_empty_rep_storageE, %rdi
 4316      000000
 4317 0289 0F858900 		jne	.L431
 4317      0000
 4318              	.L412:
 4319 028f 488D7C24 		leaq	96(%rsp), %rdi
 4319      60
 4320 0294 48C74424 		movq	$_ZTVSt15basic_streambufIcSt11char_traitsIcEE+16, 40(%rsp)
 4320      28000000 
 4320      00
 4321 029d E8000000 		call	_ZNSt6localeD1Ev
 4321      00
 4322 02a2 488DBC24 		leaq	128(%rsp), %rdi
 4322      80000000 
 4323 02aa 48C78424 		movq	$_ZTVSt9basic_iosIcSt11char_traitsIcEE+16, 128(%rsp)
 4323      80000000 
 4323      00000000 
 4324              	.LEHB101:
 4325 02b6 E8000000 		call	_ZNSt8ios_baseD2Ev
 4325      00
 4326              	.LEHE101:
 4327              	.L398:
 4328 02bb 488B8424 		movq	392(%rsp), %rax
 4328      88010000 
 4329 02c3 64483304 		xorq	%fs:40, %rax
 4329      25280000 
 4329      00
 4330 02cc 0F859300 		jne	.L432
 4330      0000
 4331 02d2 4881C498 		addq	$408, %rsp
 4331      010000
 4332              		.cfi_remember_state
 4333              		.cfi_def_cfa_offset 56
 4334 02d9 5B       		popq	%rbx
 4335              		.cfi_def_cfa_offset 48
 4336 02da 5D       		popq	%rbp
 4337              		.cfi_def_cfa_offset 40
 4338 02db 415C     		popq	%r12
 4339              		.cfi_def_cfa_offset 32
 4340 02dd 415D     		popq	%r13
 4341              		.cfi_def_cfa_offset 24
 4342 02df 415E     		popq	%r14
 4343              		.cfi_def_cfa_offset 16
 4344 02e1 415F     		popq	%r15
 4345              		.cfi_def_cfa_offset 8
 4346 02e3 C3       		ret
 4347              		.p2align 4,,10
 4348 02e4 0F1F4000 		.p2align 3
 4349              	.L430:
 4350              		.cfi_restore_state
 4351 02e8 BA000000 		movl	$_ZL28__gthrw___pthread_key_createPjPFvPvE, %edx
 4351      00
 4352 02ed 4885D2   		testq	%rdx, %rdx
 4353 02f0 7456     		je	.L408
 4354 02f2 BAFFFFFF 		movl	$-1, %edx
 4354      FF
 4355 02f7 F00FC150 		lock xaddl	%edx, -8(%rax)
 4355      F8
 4356 02fc 89D0     		movl	%edx, %eax
 4357              	.L409:
 4358 02fe 85C0     		testl	%eax, %eax
 4359 0300 0F8F55FF 		jg	.L407
 4359      FFFF
 4360 0306 488D7424 		leaq	31(%rsp), %rsi
 4360      1F
 4361 030b E8000000 		call	_ZNSs4_Rep10_M_destroyERKSaIcE
 4361      00
 4362 0310 E946FFFF 		jmp	.L407
 4362      FF
 4363              		.p2align 4,,10
 4364 0315 0F1F00   		.p2align 3
 4365              	.L431:
 4366 0318 BA000000 		movl	$_ZL28__gthrw___pthread_key_createPjPFvPvE, %edx
 4366      00
 4367 031d 4885D2   		testq	%rdx, %rdx
 4368 0320 7436     		je	.L413
 4369 0322 BAFFFFFF 		movl	$-1, %edx
 4369      FF
 4370 0327 F00FC150 		lock xaddl	%edx, -8(%rax)
 4370      F8
 4371 032c 89D0     		movl	%edx, %eax
 4372              	.L414:
 4373 032e 85C0     		testl	%eax, %eax
 4374 0330 0F8F59FF 		jg	.L412
 4374      FFFF
 4375 0336 488D7424 		leaq	31(%rsp), %rsi
 4375      1F
 4376 033b E8000000 		call	_ZNSs4_Rep10_M_destroyERKSaIcE
 4376      00
 4377 0340 E94AFFFF 		jmp	.L412
 4377      FF
 4378              		.p2align 4,,10
 4379 0345 0F1F00   		.p2align 3
 4380              	.L408:
 4381 0348 8B50F8   		movl	-8(%rax), %edx
 4382 034b 8D4AFF   		leal	-1(%rdx), %ecx
 4383 034e 8948F8   		movl	%ecx, -8(%rax)
 4384 0351 89D0     		movl	%edx, %eax
 4385 0353 EBA9     		jmp	.L409
 4386              		.p2align 4,,10
 4387 0355 0F1F00   		.p2align 3
 4388              	.L413:
 4389 0358 8B50F8   		movl	-8(%rax), %edx
 4390 035b 8D4AFF   		leal	-1(%rdx), %ecx
 4391 035e 8948F8   		movl	%ecx, -8(%rax)
 4392 0361 89D0     		movl	%edx, %eax
 4393 0363 EBC9     		jmp	.L414
 4394              	.L432:
 4395 0365 E8000000 		call	__stack_chk_fail
 4395      00
 4396              	.L419:
 4397 036a 4889C3   		movq	%rax, %rbx
 4398 036d EB0A     		jmp	.L416
 4399              	.L421:
 4400 036f 4889C3   		movq	%rax, %rbx
 4401 0372 EB17     		jmp	.L403
 4402              	.L420:
 4403 0374 4889C3   		movq	%rax, %rbx
 4404 0377 EB1C     		jmp	.L404
 4405              	.L416:
 4406 0379 488D7C24 		leaq	32(%rsp), %rdi
 4406      20
 4407 037e E8000000 		call	_ZN8UnitTest15MemoryOutStreamD1Ev
 4407      00
 4408 0383 4889DF   		movq	%rbx, %rdi
 4409              	.LEHB102:
 4410 0386 E8000000 		call	_Unwind_Resume
 4410      00
 4411              	.LEHE102:
 4412              	.L403:
 4413 038b 488D7C24 		leaq	40(%rsp), %rdi
 4413      28
 4414 0390 E8000000 		call	_ZNSt15basic_stringbufIcSt11char_traitsIcESaIcEED1Ev
 4414      00
 4415              	.L404:
 4416 0395 488DBC24 		leaq	128(%rsp), %rdi
 4416      80000000 
 4417 039d 48C78424 		movq	$_ZTVSt9basic_iosIcSt11char_traitsIcEE+16, 128(%rsp)
 4417      80000000 
 4417      00000000 
 4418 03a9 E8000000 		call	_ZNSt8ios_baseD2Ev
 4418      00
 4419 03ae 4889DF   		movq	%rbx, %rdi
 4420              	.LEHB103:
 4421 03b1 E8000000 		call	_Unwind_Resume
 4421      00
 4422              	.LEHE103:
 4423              		.cfi_endproc
 4424              	.LFE1490:
 4425              		.section	.gcc_except_table
 4426              	.LLSDA1490:
 4427 02f8 FF       		.byte	0xff
 4428 02f9 FF       		.byte	0xff
 4429 02fa 01       		.byte	0x1
 4430 02fb 21       		.uleb128 .LLSDACSE1490-.LLSDACSB1490
 4431              	.LLSDACSB1490:
 4432 02fc CE01     		.uleb128 .LEHB98-.LFB1490
 4433 02fe 05       		.uleb128 .LEHE98-.LEHB98
 4434 02ff F406     		.uleb128 .L420-.LFB1490
 4435 0301 00       		.uleb128 0
 4436 0302 DE02     		.uleb128 .LEHB99-.LFB1490
 4437 0304 05       		.uleb128 .LEHE99-.LEHB99
 4438 0305 EF06     		.uleb128 .L421-.LFB1490
 4439 0307 00       		.uleb128 0
 4440 0308 B103     		.uleb128 .LEHB100-.LFB1490
 4441 030a 7F       		.uleb128 .LEHE100-.LEHB100
 4442 030b EA06     		.uleb128 .L419-.LFB1490
 4443 030d 00       		.uleb128 0
 4444 030e B605     		.uleb128 .LEHB101-.LFB1490
 4445 0310 05       		.uleb128 .LEHE101-.LEHB101
 4446 0311 00       		.uleb128 0
 4447 0312 00       		.uleb128 0
 4448 0313 8607     		.uleb128 .LEHB102-.LFB1490
 4449 0315 05       		.uleb128 .LEHE102-.LEHB102
 4450 0316 00       		.uleb128 0
 4451 0317 00       		.uleb128 0
 4452 0318 B107     		.uleb128 .LEHB103-.LFB1490
 4453 031a 05       		.uleb128 .LEHE103-.LEHB103
 4454 031b 00       		.uleb128 0
 4455 031c 00       		.uleb128 0
 4456              	.LLSDACSE1490:
 4457              		.section	.text._ZN8UnitTest10CheckCloseIfffEEvRNS_11TestResultsERKT_RKT0_RKT1_RKNS_11TestDetailsE,
 4459              		.section	.text.unlikely._ZN8UnitTest10CheckCloseIfffEEvRNS_11TestResultsERKT_RKT0_RKT1_RKNS_11Test
 4460              	.LCOLDE92:
 4461              		.section	.text._ZN8UnitTest10CheckCloseIfffEEvRNS_11TestResultsERKT_RKT0_RKT1_RKNS_11TestDetailsE,
 4462              	.LHOTE92:
 4463              		.section	.rodata.str1.8
 4464 0261 00000000 		.align 8
 4464      000000
 4465              	.LC95:
 4466 0268 556E6861 		.string	"Unhandled exception in CHECK_CLOSE(2.0f, 2.001f)"
 4466      6E646C65 
 4466      64206578 
 4466      63657074 
 4466      696F6E20 
 4467 0299 00000000 		.align 8
 4467      000000
 4468              	.LC96:
 4469 02a0 556E6861 		.string	"Unhandled exception in CHECK_CLOSE(2.001f, 2.0f)"
 4469      6E646C65 
 4469      64206578 
 4469      63657074 
 4469      696F6E20 
 4470              		.section	.text.unlikely
 4471              		.align 2
 4472              	.LCOLDB97:
 4473              		.text
 4474              	.LHOTB97:
 4475              		.align 2
 4476 172e 6690     		.p2align 4,,15
 4478              	_ZNK12_GLOBAL__N_127TestValidCheckCloseSucceeds7RunImplEv:
 4479              	.LFB1391:
 4480              		.cfi_startproc
 4481              		.cfi_personality 0x3,__gxx_personality_v0
 4482              		.cfi_lsda 0x3,.LLSDA1391
 4483 1730 53       		pushq	%rbx
 4484              		.cfi_def_cfa_offset 16
 4485              		.cfi_offset 3, -16
 4486 1731 4883EC40 		subq	$64, %rsp
 4487              		.cfi_def_cfa_offset 80
 4488 1735 64488B04 		movq	%fs:40, %rax
 4488      25280000 
 4488      00
 4489 173e 48894424 		movq	%rax, 56(%rsp)
 4489      38
 4490 1743 31C0     		xorl	%eax, %eax
 4491              	.LEHB104:
 4492 1745 E8000000 		call	_ZN8UnitTest11CurrentTest7DetailsEv
 4492      00
 4493 174a 488D5C24 		leaq	16(%rsp), %rbx
 4493      10
 4494 174f 488B30   		movq	(%rax), %rsi
 4495 1752 BA270000 		movl	$39, %edx
 4495      00
 4496 1757 4889DF   		movq	%rbx, %rdi
 4497 175a E8000000 		call	_ZN8UnitTest11TestDetailsC1ERKS0_i
 4497      00
 4498 175f C744240C 		movl	$0x3c23d70a, 12(%rsp)
 4498      0AD7233C 
 4499 1767 C7442408 		movl	$0x40001062, 8(%rsp)
 4499      62100040 
 4500 176f C7442404 		movl	$0x40000000, 4(%rsp)
 4500      00000040 
 4501 1777 E8000000 		call	_ZN8UnitTest11CurrentTest7ResultsEv
 4501      00
 4502 177c 488B38   		movq	(%rax), %rdi
 4503 177f 488D4C24 		leaq	12(%rsp), %rcx
 4503      0C
 4504 1784 488D5424 		leaq	8(%rsp), %rdx
 4504      08
 4505 1789 488D7424 		leaq	4(%rsp), %rsi
 4505      04
 4506 178e 4989D8   		movq	%rbx, %r8
 4507 1791 E8000000 		call	_ZN8UnitTest10CheckCloseIfffEEvRNS_11TestResultsERKT_RKT0_RKT1_RKNS_11TestDetailsE
 4507      00
 4508              	.LEHE104:
 4509              	.L436:
 4510              	.LEHB105:
 4511 1796 E8000000 		call	_ZN8UnitTest11CurrentTest7DetailsEv
 4511      00
 4512 179b 488B30   		movq	(%rax), %rsi
 4513 179e BA280000 		movl	$40, %edx
 4513      00
 4514 17a3 4889DF   		movq	%rbx, %rdi
 4515 17a6 E8000000 		call	_ZN8UnitTest11TestDetailsC1ERKS0_i
 4515      00
 4516 17ab E8000000 		call	_ZN8UnitTest11CurrentTest7ResultsEv
 4516      00
 4517              	.LEHE105:
 4518              	.L433:
 4519 17b0 488B4424 		movq	56(%rsp), %rax
 4519      38
 4520 17b5 64483304 		xorq	%fs:40, %rax
 4520      25280000 
 4520      00
 4521 17be 7506     		jne	.L446
 4522 17c0 4883C440 		addq	$64, %rsp
 4523              		.cfi_remember_state
 4524              		.cfi_def_cfa_offset 16
 4525 17c4 5B       		popq	%rbx
 4526              		.cfi_def_cfa_offset 8
 4527 17c5 C3       		ret
 4528              	.L446:
 4529              		.cfi_restore_state
 4530 17c6 E8000000 		call	__stack_chk_fail
 4530      00
 4531              	.L443:
 4532 17cb 4889C7   		movq	%rax, %rdi
 4533 17ce E8000000 		call	__cxa_begin_catch
 4533      00
 4534              	.LEHB106:
 4535 17d3 E8000000 		call	_ZN8UnitTest11CurrentTest7DetailsEv
 4535      00
 4536 17d8 488B30   		movq	(%rax), %rsi
 4537 17db BA280000 		movl	$40, %edx
 4537      00
 4538 17e0 4889DF   		movq	%rbx, %rdi
 4539 17e3 E8000000 		call	_ZN8UnitTest11TestDetailsC1ERKS0_i
 4539      00
 4540 17e8 E8000000 		call	_ZN8UnitTest11CurrentTest7ResultsEv
 4540      00
 4541 17ed 488B38   		movq	(%rax), %rdi
 4542 17f0 BA000000 		movl	$.LC96, %edx
 4542      00
 4543 17f5 4889DE   		movq	%rbx, %rsi
 4544 17f8 E8000000 		call	_ZN8UnitTest11TestResults13OnTestFailureERKNS_11TestDetailsEPKc
 4544      00
 4545              	.LEHE106:
 4546              	.LEHB107:
 4547 17fd E8000000 		call	__cxa_end_catch
 4547      00
 4548              	.LEHE107:
 4549 1802 EBAC     		jmp	.L433
 4550              	.L441:
 4551 1804 4889C7   		movq	%rax, %rdi
 4552 1807 E8000000 		call	__cxa_begin_catch
 4552      00
 4553              	.LEHB108:
 4554 180c E8000000 		call	_ZN8UnitTest11CurrentTest7DetailsEv
 4554      00
 4555 1811 488D5C24 		leaq	16(%rsp), %rbx
 4555      10
 4556 1816 488B30   		movq	(%rax), %rsi
 4557 1819 BA270000 		movl	$39, %edx
 4557      00
 4558 181e 4889DF   		movq	%rbx, %rdi
 4559 1821 E8000000 		call	_ZN8UnitTest11TestDetailsC1ERKS0_i
 4559      00
 4560 1826 E8000000 		call	_ZN8UnitTest11CurrentTest7ResultsEv
 4560      00
 4561 182b 488B38   		movq	(%rax), %rdi
 4562 182e BA000000 		movl	$.LC95, %edx
 4562      00
 4563 1833 4889DE   		movq	%rbx, %rsi
 4564 1836 E8000000 		call	_ZN8UnitTest11TestResults13OnTestFailureERKNS_11TestDetailsEPKc
 4564      00
 4565              	.LEHE108:
 4566              	.LEHB109:
 4567 183b E8000000 		call	__cxa_end_catch
 4567      00
 4568              	.LEHE109:
 4569 1840 E951FFFF 		jmp	.L436
 4569      FF
 4570              	.L444:
 4571 1845 4889C3   		movq	%rax, %rbx
 4572 1848 E8000000 		call	__cxa_end_catch
 4572      00
 4573 184d 4889DF   		movq	%rbx, %rdi
 4574              	.LEHB110:
 4575 1850 E8000000 		call	_Unwind_Resume
 4575      00
 4576              	.LEHE110:
 4577              	.L442:
 4578 1855 4889C3   		movq	%rax, %rbx
 4579 1858 E8000000 		call	__cxa_end_catch
 4579      00
 4580 185d 4889DF   		movq	%rbx, %rdi
 4581              	.LEHB111:
 4582 1860 E8000000 		call	_Unwind_Resume
 4582      00
 4583              	.LEHE111:
 4584              		.cfi_endproc
 4585              	.LFE1391:
 4586              		.section	.gcc_except_table
 4587 031d 000000   		.align 4
 4588              	.LLSDA1391:
 4589 0320 FF       		.byte	0xff
 4590 0321 03       		.byte	0x3
 4591 0322 35       		.uleb128 .LLSDATT1391-.LLSDATTD1391
 4592              	.LLSDATTD1391:
 4593 0323 01       		.byte	0x1
 4594 0324 2A       		.uleb128 .LLSDACSE1391-.LLSDACSB1391
 4595              	.LLSDACSB1391:
 4596 0325 15       		.uleb128 .LEHB104-.LFB1391
 4597 0326 51       		.uleb128 .LEHE104-.LEHB104
 4598 0327 D401     		.uleb128 .L441-.LFB1391
 4599 0329 01       		.uleb128 0x1
 4600 032a 66       		.uleb128 .LEHB105-.LFB1391
 4601 032b 1A       		.uleb128 .LEHE105-.LEHB105
 4602 032c 9B01     		.uleb128 .L443-.LFB1391
 4603 032e 01       		.uleb128 0x1
 4604 032f A301     		.uleb128 .LEHB106-.LFB1391
 4605 0331 2A       		.uleb128 .LEHE106-.LEHB106
 4606 0332 9502     		.uleb128 .L444-.LFB1391
 4607 0334 00       		.uleb128 0
 4608 0335 CD01     		.uleb128 .LEHB107-.LFB1391
 4609 0337 05       		.uleb128 .LEHE107-.LEHB107
 4610 0338 00       		.uleb128 0
 4611 0339 00       		.uleb128 0
 4612 033a DC01     		.uleb128 .LEHB108-.LFB1391
 4613 033c 2F       		.uleb128 .LEHE108-.LEHB108
 4614 033d A502     		.uleb128 .L442-.LFB1391
 4615 033f 00       		.uleb128 0
 4616 0340 8B02     		.uleb128 .LEHB109-.LFB1391
 4617 0342 05       		.uleb128 .LEHE109-.LEHB109
 4618 0343 00       		.uleb128 0
 4619 0344 00       		.uleb128 0
 4620 0345 A002     		.uleb128 .LEHB110-.LFB1391
 4621 0347 05       		.uleb128 .LEHE110-.LEHB110
 4622 0348 00       		.uleb128 0
 4623 0349 00       		.uleb128 0
 4624 034a B002     		.uleb128 .LEHB111-.LFB1391
 4625 034c 05       		.uleb128 .LEHE111-.LEHB111
 4626 034d 00       		.uleb128 0
 4627 034e 00       		.uleb128 0
 4628              	.LLSDACSE1391:
 4629 034f 01       		.byte	0x1
 4630 0350 00       		.byte	0
 4631 0351 000000   		.align 4
 4632 0354 00000000 		.long	0
 4633              	
 4634              	.LLSDATT1391:
 4635              		.text
 4637              		.section	.text.unlikely
 4638              	.LCOLDE97:
 4639              		.text
 4640              	.LHOTE97:
 4641              		.section	.text.unlikely._ZN8UnitTest15CheckArrayCloseISt6vectorIfSaIfEES3_fEEvRNS_11TestResultsERK
 4642              	.LCOLDB98:
 4643              		.section	.text._ZN8UnitTest15CheckArrayCloseISt6vectorIfSaIfEES3_fEEvRNS_11TestResultsERKT_RKT0_iR
 4644              	.LHOTB98:
 4645              		.p2align 4,,15
 4646              		.weak	_ZN8UnitTest15CheckArrayCloseISt6vectorIfSaIfEES3_fEEvRNS_11TestResultsERKT_RKT0_iRKT1_RKNS_
 4648              	_ZN8UnitTest15CheckArrayCloseISt6vectorIfSaIfEES3_fEEvRNS_11TestResultsERKT_RKT0_iRKT1_RKNS_11TestD
 4649              	.LFB1506:
 4650              		.cfi_startproc
 4651              		.cfi_personality 0x3,__gxx_personality_v0
 4652              		.cfi_lsda 0x3,.LLSDA1506
 4653 0000 4157     		pushq	%r15
 4654              		.cfi_def_cfa_offset 16
 4655              		.cfi_offset 15, -16
 4656 0002 4156     		pushq	%r14
 4657              		.cfi_def_cfa_offset 24
 4658              		.cfi_offset 14, -24
 4659 0004 4155     		pushq	%r13
 4660              		.cfi_def_cfa_offset 32
 4661              		.cfi_offset 13, -32
 4662 0006 4154     		pushq	%r12
 4663              		.cfi_def_cfa_offset 40
 4664              		.cfi_offset 12, -40
 4665 0008 55       		pushq	%rbp
 4666              		.cfi_def_cfa_offset 48
 4667              		.cfi_offset 6, -48
 4668 0009 53       		pushq	%rbx
 4669              		.cfi_def_cfa_offset 56
 4670              		.cfi_offset 3, -56
 4671 000a 89CB     		movl	%ecx, %ebx
 4672 000c 4881EC98 		subq	$408, %rsp
 4672      010000
 4673              		.cfi_def_cfa_offset 464
 4674 0013 64488B04 		movq	%fs:40, %rax
 4674      25280000 
 4674      00
 4675 001c 48898424 		movq	%rax, 392(%rsp)
 4675      88010000 
 4676 0024 31C0     		xorl	%eax, %eax
 4677 0026 85C9     		testl	%ecx, %ecx
 4678 0028 48893C24 		movq	%rdi, (%rsp)
 4679 002c 7E5D     		jle	.L447
 4680 002e 4989F4   		movq	%rsi, %r12
 4681 0031 4889D5   		movq	%rdx, %rbp
 4682 0034 488B32   		movq	(%rdx), %rsi
 4683 0037 4D89C6   		movq	%r8, %r14
 4684 003a 4D89CF   		movq	%r9, %r15
 4685 003d 498B0C24 		movq	(%r12), %rcx
 4686 0041 F3410F10 		movss	(%r8), %xmm3
 4686      18
 4687 0046 BA010000 		movl	$1, %edx
 4687      00
 4688 004b EB1A     		jmp	.L451
 4689 004d 0F1F00   		.p2align 4,,10
 4690              		.p2align 3
 4691              	.L500:
 4692 0050 F30F58C3 		addss	%xmm3, %xmm0
 4693 0054 BF000000 		movl	$0, %edi
 4693      00
 4694 0059 0F2EC1   		ucomiss	%xmm1, %xmm0
 4695 005c 0F42D7   		cmovb	%edi, %edx
 4696 005f 4883C001 		addq	$1, %rax
 4697 0063 39C3     		cmpl	%eax, %ebx
 4698 0065 7E20     		jle	.L499
 4699              	.L451:
 4700 0067 F30F1004 		movss	(%rcx,%rax,4), %xmm0
 4700      81
 4701 006c 0F28D0   		movaps	%xmm0, %xmm2
 4702 006f F30F100C 		movss	(%rsi,%rax,4), %xmm1
 4702      86
 4703 0074 F30F5CD3 		subss	%xmm3, %xmm2
 4704 0078 0F2ECA   		ucomiss	%xmm2, %xmm1
 4705 007b 73D3     		jnb	.L500
 4706 007d 4883C001 		addq	$1, %rax
 4707 0081 31D2     		xorl	%edx, %edx
 4708 0083 39C3     		cmpl	%eax, %ebx
 4709 0085 7FE0     		jg	.L451
 4710              	.L499:
 4711 0087 84D2     		testb	%dl, %dl
 4712 0089 742D     		je	.L501
 4713              	.L447:
 4714 008b 488B8424 		movq	392(%rsp), %rax
 4714      88010000 
 4715 0093 64483304 		xorq	%fs:40, %rax
 4715      25280000 
 4715      00
 4716 009c 0F859203 		jne	.L502
 4716      0000
 4717 00a2 4881C498 		addq	$408, %rsp
 4717      010000
 4718              		.cfi_remember_state
 4719              		.cfi_def_cfa_offset 56
 4720 00a9 5B       		popq	%rbx
 4721              		.cfi_def_cfa_offset 48
 4722 00aa 5D       		popq	%rbp
 4723              		.cfi_def_cfa_offset 40
 4724 00ab 415C     		popq	%r12
 4725              		.cfi_def_cfa_offset 32
 4726 00ad 415D     		popq	%r13
 4727              		.cfi_def_cfa_offset 24
 4728 00af 415E     		popq	%r14
 4729              		.cfi_def_cfa_offset 16
 4730 00b1 415F     		popq	%r15
 4731              		.cfi_def_cfa_offset 8
 4732 00b3 C3       		ret
 4733              		.p2align 4,,10
 4734 00b4 0F1F4000 		.p2align 3
 4735              	.L501:
 4736              		.cfi_restore_state
 4737 00b8 4C8DAC24 		leaq	128(%rsp), %r13
 4737      80000000 
 4738 00c0 4C89EF   		movq	%r13, %rdi
 4739 00c3 E8000000 		call	_ZNSt8ios_baseC2Ev
 4739      00
 4740 00c8 31F6     		xorl	%esi, %esi
 4741 00ca 4C89EF   		movq	%r13, %rdi
 4742 00cd 48C78424 		movq	$0, 344(%rsp)
 4742      58010000 
 4742      00000000 
 4743 00d9 C6842460 		movb	$0, 352(%rsp)
 4743      01000000 
 4744 00e1 C6842461 		movb	$0, 353(%rsp)
 4744      01000000 
 4745 00e9 48C78424 		movq	$0, 360(%rsp)
 4745      68010000 
 4745      00000000 
 4746 00f5 48C78424 		movq	$0, 368(%rsp)
 4746      70010000 
 4746      00000000 
 4747 0101 48C78424 		movq	$0, 376(%rsp)
 4747      78010000 
 4747      00000000 
 4748 010d 48C78424 		movq	$0, 384(%rsp)
 4748      80010000 
 4748      00000000 
 4749 0119 48C74424 		movq	$_ZTCN8UnitTest15MemoryOutStreamE0_So+24, 32(%rsp)
 4749      20000000 
 4749      00
 4750 0122 48C78424 		movq	$_ZTCN8UnitTest15MemoryOutStreamE0_So+64, 128(%rsp)
 4750      80000000 
 4750      00000000 
 4751              	.LEHB112:
 4752 012e E8000000 		call	_ZNSt9basic_iosIcSt11char_traitsIcEE4initEPSt15basic_streambufIcS1_E
 4752      00
 4753              	.LEHE112:
 4754 0133 488D7C24 		leaq	96(%rsp), %rdi
 4754      60
 4755 0138 48C74424 		movq	$_ZTCN8UnitTest15MemoryOutStreamE0_St19basic_ostringstreamIcSt11char_traitsIcESaIcEE+24, 32(%
 4755      20000000 
 4755      00
 4756 0141 48C78424 		movq	$_ZTCN8UnitTest15MemoryOutStreamE0_St19basic_ostringstreamIcSt11char_traitsIcESaIcEE+64, 128(
 4756      80000000 
 4756      00000000 
 4757 014d 48C74424 		movq	$_ZTVSt15basic_streambufIcSt11char_traitsIcEE+16, 40(%rsp)
 4757      28000000 
 4757      00
 4758 0156 48C74424 		movq	$0, 48(%rsp)
 4758      30000000 
 4758      00
 4759 015f 48C74424 		movq	$0, 56(%rsp)
 4759      38000000 
 4759      00
 4760 0168 48C74424 		movq	$0, 64(%rsp)
 4760      40000000 
 4760      00
 4761 0171 48C74424 		movq	$0, 72(%rsp)
 4761      48000000 
 4761      00
 4762 017a 48C74424 		movq	$0, 80(%rsp)
 4762      50000000 
 4762      00
 4763 0183 48C74424 		movq	$0, 88(%rsp)
 4763      58000000 
 4763      00
 4764 018c E8000000 		call	_ZNSt6localeC1Ev
 4764      00
 4765 0191 488B4424 		movq	32(%rsp), %rax
 4765      20
 4766 0196 488D7C24 		leaq	32(%rsp), %rdi
 4766      20
 4767 019b 488D7424 		leaq	40(%rsp), %rsi
 4767      28
 4768 01a0 48C74424 		movq	$_ZTVSt15basic_stringbufIcSt11char_traitsIcESaIcEE+16, 40(%rsp)
 4768      28000000 
 4768      00
 4769 01a9 C7442468 		movl	$16, 104(%rsp)
 4769      10000000 
 4770 01b1 48C74424 		movq	$_ZNSs4_Rep20_S_empty_rep_storageE+24, 112(%rsp)
 4770      70000000 
 4770      00
 4771 01ba 480378E8 		addq	-24(%rax), %rdi
 4772              	.LEHB113:
 4773 01be E8000000 		call	_ZNSt9basic_iosIcSt11char_traitsIcEE4initEPSt15basic_streambufIcS1_E
 4773      00
 4774              	.LEHE113:
 4775 01c3 488D7C24 		leaq	32(%rsp), %rdi
 4775      20
 4776 01c8 BA0B0000 		movl	$11, %edx
 4776      00
 4777 01cd BE000000 		movl	$.LC67, %esi
 4777      00
 4778 01d2 48C74424 		movq	$_ZTVN8UnitTest15MemoryOutStreamE+24, 32(%rsp)
 4778      20000000 
 4778      00
 4779 01db 48C78424 		movq	$_ZTVN8UnitTest15MemoryOutStreamE+64, 128(%rsp)
 4779      80000000 
 4779      00000000 
 4780 01e7 48C74424 		movq	$_ZNSs4_Rep20_S_empty_rep_storageE+24, 120(%rsp)
 4780      78000000 
 4780      00
 4781              	.LEHB114:
 4782 01f0 E8000000 		call	_ZSt16__ostream_insertIcSt11char_traitsIcEERSt13basic_ostreamIT_T0_ES6_PKS3_l
 4782      00
 4783 01f5 8D43FF   		leal	-1(%rbx), %eax
 4784 01f8 31DB     		xorl	%ebx, %ebx
 4785 01fa 4C8D2C85 		leaq	4(,%rax,4), %r13
 4785      04000000 
 4786 0202 8944240C 		movl	%eax, 12(%rsp)
 4787 0206 662E0F1F 		.p2align 4,,10
 4787      84000000 
 4787      0000
 4788              		.p2align 3
 4789              	.L457:
 4790 0210 498B0424 		movq	(%r12), %rax
 4791 0214 660FEFC0 		pxor	%xmm0, %xmm0
 4792 0218 488D7C24 		leaq	32(%rsp), %rdi
 4792      20
 4793 021d F30F5A04 		cvtss2sd	(%rax,%rbx), %xmm0
 4793      18
 4794 0222 E8000000 		call	_ZNSo9_M_insertIdEERSoT_
 4794      00
 4795 0227 BA010000 		movl	$1, %edx
 4795      00
 4796 022c BE000000 		movl	$.LC68, %esi
 4796      00
 4797 0231 4889C7   		movq	%rax, %rdi
 4798 0234 E8000000 		call	_ZSt16__ostream_insertIcSt11char_traitsIcEERSt13basic_ostreamIT_T0_ES6_PKS3_l
 4798      00
 4799 0239 4883C304 		addq	$4, %rbx
 4800 023d 4C39EB   		cmpq	%r13, %rbx
 4801 0240 75CE     		jne	.L457
 4802 0242 488D7C24 		leaq	32(%rsp), %rdi
 4802      20
 4803 0247 F3410F10 		movss	(%r14), %xmm4
 4803      26
 4804 024c BA060000 		movl	$6, %edx
 4804      00
 4805 0251 BE000000 		movl	$.LC69, %esi
 4805      00
 4806 0256 F30F1164 		movss	%xmm4, 8(%rsp)
 4806      2408
 4807 025c E8000000 		call	_ZSt16__ostream_insertIcSt11char_traitsIcEERSt13basic_ostreamIT_T0_ES6_PKS3_l
 4807      00
 4808 0261 660FEFC0 		pxor	%xmm0, %xmm0
 4809 0265 488D7C24 		leaq	32(%rsp), %rdi
 4809      20
 4810 026a F30F5A44 		cvtss2sd	8(%rsp), %xmm0
 4810      2408
 4811 0270 E8000000 		call	_ZNSo9_M_insertIdEERSoT_
 4811      00
 4812 0275 BA0B0000 		movl	$11, %edx
 4812      00
 4813 027a BE000000 		movl	$.LC71, %esi
 4813      00
 4814 027f 4889C7   		movq	%rax, %rdi
 4815 0282 E8000000 		call	_ZSt16__ostream_insertIcSt11char_traitsIcEERSt13basic_ostreamIT_T0_ES6_PKS3_l
 4815      00
 4816 0287 8B44240C 		movl	12(%rsp), %eax
 4817 028b 31DB     		xorl	%ebx, %ebx
 4818 028d 4C8D2485 		leaq	4(,%rax,4), %r12
 4818      04000000 
 4819              		.p2align 4,,10
 4820 0295 0F1F00   		.p2align 3
 4821              	.L461:
 4822 0298 488B4500 		movq	0(%rbp), %rax
 4823 029c 660FEFC0 		pxor	%xmm0, %xmm0
 4824 02a0 488D7C24 		leaq	32(%rsp), %rdi
 4824      20
 4825 02a5 F30F5A04 		cvtss2sd	(%rax,%rbx), %xmm0
 4825      18
 4826 02aa E8000000 		call	_ZNSo9_M_insertIdEERSoT_
 4826      00
 4827 02af BA010000 		movl	$1, %edx
 4827      00
 4828 02b4 BE000000 		movl	$.LC68, %esi
 4828      00
 4829 02b9 4889C7   		movq	%rax, %rdi
 4830 02bc E8000000 		call	_ZSt16__ostream_insertIcSt11char_traitsIcEERSt13basic_ostreamIT_T0_ES6_PKS3_l
 4830      00
 4831 02c1 4883C304 		addq	$4, %rbx
 4832 02c5 4C39E3   		cmpq	%r12, %rbx
 4833 02c8 75CE     		jne	.L461
 4834 02ca 488D7C24 		leaq	32(%rsp), %rdi
 4834      20
 4835 02cf BA010000 		movl	$1, %edx
 4835      00
 4836 02d4 BE000000 		movl	$.LC72, %esi
 4836      00
 4837 02d9 E8000000 		call	_ZSt16__ostream_insertIcSt11char_traitsIcEERSt13basic_ostreamIT_T0_ES6_PKS3_l
 4837      00
 4838 02de 488D7C24 		leaq	32(%rsp), %rdi
 4838      20
 4839 02e3 E8000000 		call	_ZNK8UnitTest15MemoryOutStream7GetTextEv
 4839      00
 4840 02e8 488B3C24 		movq	(%rsp), %rdi
 4841 02ec 4889C2   		movq	%rax, %rdx
 4842 02ef 4C89FE   		movq	%r15, %rsi
 4843 02f2 E8000000 		call	_ZN8UnitTest11TestResults13OnTestFailureERKNS_11TestDetailsEPKc
 4843      00
 4844              	.LEHE114:
 4845 02f7 488B4424 		movq	120(%rsp), %rax
 4845      78
 4846 02fc 48C74424 		movq	$_ZTVN8UnitTest15MemoryOutStreamE+24, 32(%rsp)
 4846      20000000 
 4846      00
 4847 0305 48C78424 		movq	$_ZTVN8UnitTest15MemoryOutStreamE+64, 128(%rsp)
 4847      80000000 
 4847      00000000 
 4848 0311 488D78E8 		leaq	-24(%rax), %rdi
 4849 0315 4881FF00 		cmpq	$_ZNSs4_Rep20_S_empty_rep_storageE, %rdi
 4849      000000
 4850 031c 7561     		jne	.L503
 4851              	.L464:
 4852 031e 488B4424 		movq	112(%rsp), %rax
 4852      70
 4853 0323 48C74424 		movq	$_ZTCN8UnitTest15MemoryOutStreamE0_St19basic_ostringstreamIcSt11char_traitsIcESaIcEE+24, 32(%
 4853      20000000 
 4853      00
 4854 032c 48C78424 		movq	$_ZTCN8UnitTest15MemoryOutStreamE0_St19basic_ostringstreamIcSt11char_traitsIcESaIcEE+64, 128(
 4854      80000000 
 4854      00000000 
 4855 0338 48C74424 		movq	$_ZTVSt15basic_stringbufIcSt11char_traitsIcESaIcEE+16, 40(%rsp)
 4855      28000000 
 4855      00
 4856 0341 488D78E8 		leaq	-24(%rax), %rdi
 4857 0345 4881FF00 		cmpq	$_ZNSs4_Rep20_S_empty_rep_storageE, %rdi
 4857      000000
 4858 034c 755A     		jne	.L504
 4859              	.L469:
 4860 034e 488D7C24 		leaq	96(%rsp), %rdi
 4860      60
 4861 0353 48C74424 		movq	$_ZTVSt15basic_streambufIcSt11char_traitsIcEE+16, 40(%rsp)
 4861      28000000 
 4861      00
 4862 035c E8000000 		call	_ZNSt6localeD1Ev
 4862      00
 4863 0361 488DBC24 		leaq	128(%rsp), %rdi
 4863      80000000 
 4864 0369 48C78424 		movq	$_ZTVSt9basic_iosIcSt11char_traitsIcEE+16, 128(%rsp)
 4864      80000000 
 4864      00000000 
 4865              	.LEHB115:
 4866 0375 E8000000 		call	_ZNSt8ios_baseD2Ev
 4866      00
 4867              	.LEHE115:
 4868 037a E90CFDFF 		jmp	.L447
 4868      FF
 4869              	.L503:
 4870 037f BA000000 		movl	$_ZL28__gthrw___pthread_key_createPjPFvPvE, %edx
 4870      00
 4871 0384 4885D2   		testq	%rdx, %rdx
 4872 0387 7445     		je	.L465
 4873 0389 BAFFFFFF 		movl	$-1, %edx
 4873      FF
 4874 038e F00FC150 		lock xaddl	%edx, -8(%rax)
 4874      F8
 4875 0393 89D0     		movl	%edx, %eax
 4876              	.L466:
 4877 0395 85C0     		testl	%eax, %eax
 4878 0397 7F85     		jg	.L464
 4879 0399 488D7424 		leaq	31(%rsp), %rsi
 4879      1F
 4880 039e E8000000 		call	_ZNSs4_Rep10_M_destroyERKSaIcE
 4880      00
 4881 03a3 E976FFFF 		jmp	.L464
 4881      FF
 4882              	.L504:
 4883 03a8 BA000000 		movl	$_ZL28__gthrw___pthread_key_createPjPFvPvE, %edx
 4883      00
 4884 03ad 4885D2   		testq	%rdx, %rdx
 4885 03b0 7429     		je	.L470
 4886 03b2 BAFFFFFF 		movl	$-1, %edx
 4886      FF
 4887 03b7 F00FC150 		lock xaddl	%edx, -8(%rax)
 4887      F8
 4888 03bc 89D0     		movl	%edx, %eax
 4889              	.L471:
 4890 03be 85C0     		testl	%eax, %eax
 4891 03c0 7F8C     		jg	.L469
 4892 03c2 488D7424 		leaq	31(%rsp), %rsi
 4892      1F
 4893 03c7 E8000000 		call	_ZNSs4_Rep10_M_destroyERKSaIcE
 4893      00
 4894 03cc EB80     		jmp	.L469
 4895              	.L465:
 4896 03ce 8B50F8   		movl	-8(%rax), %edx
 4897 03d1 8D4AFF   		leal	-1(%rdx), %ecx
 4898 03d4 8948F8   		movl	%ecx, -8(%rax)
 4899 03d7 89D0     		movl	%edx, %eax
 4900 03d9 EBBA     		jmp	.L466
 4901              	.L470:
 4902 03db 8B50F8   		movl	-8(%rax), %edx
 4903 03de 8D4AFF   		leal	-1(%rdx), %ecx
 4904 03e1 8948F8   		movl	%ecx, -8(%rax)
 4905 03e4 89D0     		movl	%edx, %eax
 4906 03e6 EBD6     		jmp	.L471
 4907              	.L477:
 4908 03e8 4889C3   		movq	%rax, %rbx
 4909 03eb EB0F     		jmp	.L454
 4910              	.L476:
 4911 03ed 4889C3   		movq	%rax, %rbx
 4912 03f0 EB2B     		jmp	.L473
 4913              	.L453:
 4914 03f2 488D7C24 		leaq	40(%rsp), %rdi
 4914      28
 4915 03f7 E8000000 		call	_ZNSt15basic_stringbufIcSt11char_traitsIcESaIcEED1Ev
 4915      00
 4916              	.L454:
 4917 03fc 488DBC24 		leaq	128(%rsp), %rdi
 4917      80000000 
 4918 0404 48C78424 		movq	$_ZTVSt9basic_iosIcSt11char_traitsIcEE+16, 128(%rsp)
 4918      80000000 
 4918      00000000 
 4919 0410 E8000000 		call	_ZNSt8ios_baseD2Ev
 4919      00
 4920 0415 4889DF   		movq	%rbx, %rdi
 4921              	.LEHB116:
 4922 0418 E8000000 		call	_Unwind_Resume
 4922      00
 4923              	.LEHE116:
 4924              	.L473:
 4925 041d 488D7C24 		leaq	32(%rsp), %rdi
 4925      20
 4926 0422 E8000000 		call	_ZN8UnitTest15MemoryOutStreamD1Ev
 4926      00
 4927 0427 4889DF   		movq	%rbx, %rdi
 4928              	.LEHB117:
 4929 042a E8000000 		call	_Unwind_Resume
 4929      00
 4930              	.LEHE117:
 4931              	.L478:
 4932 042f 4889C3   		movq	%rax, %rbx
 4933 0432 EBBE     		jmp	.L453
 4934              	.L502:
 4935 0434 E8000000 		call	__stack_chk_fail
 4935      00
 4936              		.cfi_endproc
 4937              	.LFE1506:
 4938              		.section	.gcc_except_table
 4939              	.LLSDA1506:
 4940 0358 FF       		.byte	0xff
 4941 0359 FF       		.byte	0xff
 4942 035a 01       		.byte	0x1
 4943 035b 22       		.uleb128 .LLSDACSE1506-.LLSDACSB1506
 4944              	.LLSDACSB1506:
 4945 035c AE02     		.uleb128 .LEHB112-.LFB1506
 4946 035e 05       		.uleb128 .LEHE112-.LEHB112
 4947 035f E807     		.uleb128 .L477-.LFB1506
 4948 0361 00       		.uleb128 0
 4949 0362 BE03     		.uleb128 .LEHB113-.LFB1506
 4950 0364 05       		.uleb128 .LEHE113-.LEHB113
 4951 0365 AF08     		.uleb128 .L478-.LFB1506
 4952 0367 00       		.uleb128 0
 4953 0368 F003     		.uleb128 .LEHB114-.LFB1506
 4954 036a 8702     		.uleb128 .LEHE114-.LEHB114
 4955 036c ED07     		.uleb128 .L476-.LFB1506
 4956 036e 00       		.uleb128 0
 4957 036f F506     		.uleb128 .LEHB115-.LFB1506
 4958 0371 05       		.uleb128 .LEHE115-.LEHB115
 4959 0372 00       		.uleb128 0
 4960 0373 00       		.uleb128 0
 4961 0374 9808     		.uleb128 .LEHB116-.LFB1506
 4962 0376 05       		.uleb128 .LEHE116-.LEHB116
 4963 0377 00       		.uleb128 0
 4964 0378 00       		.uleb128 0
 4965 0379 AA08     		.uleb128 .LEHB117-.LFB1506
 4966 037b 05       		.uleb128 .LEHE117-.LEHB117
 4967 037c 00       		.uleb128 0
 4968 037d 00       		.uleb128 0
 4969              	.LLSDACSE1506:
 4970              		.section	.text._ZN8UnitTest15CheckArrayCloseISt6vectorIfSaIfEES3_fEEvRNS_11TestResultsERKT_RKT0_iR
 4972              		.section	.text.unlikely._ZN8UnitTest15CheckArrayCloseISt6vectorIfSaIfEES3_fEEvRNS_11TestResultsERK
 4973              	.LCOLDE98:
 4974              		.section	.text._ZN8UnitTest15CheckArrayCloseISt6vectorIfSaIfEES3_fEEvRNS_11TestResultsERKT_RKT0_iR
 4975              	.LHOTE98:
 4976              		.section	.rodata.str1.8
 4977 02d1 00000000 		.align 8
 4977      000000
 4978              	.LC101:
 4979 02d8 556E6861 		.string	"Unhandled exception in CHECK_ARRAY_CLOSE(a, a)"
 4979      6E646C65 
 4979      64206578 
 4979      63657074 
 4979      696F6E20 
 4980              		.section	.text.unlikely
 4981              		.align 2
 4982              	.LCOLDB102:
 4983              		.text
 4984              	.LHOTB102:
 4985 1865 90       		.align 2
 4986 1866 662E0F1F 		.p2align 4,,15
 4986      84000000 
 4986      0000
 4988              	_ZNK12_GLOBAL__N_135TestCheckArrayCloseWorksWithVectors7RunImplEv:
 4989              	.LFB1399:
 4990              		.cfi_startproc
 4991              		.cfi_personality 0x3,__gxx_personality_v0
 4992              		.cfi_lsda 0x3,.LLSDA1399
 4993 1870 55       		pushq	%rbp
 4994              		.cfi_def_cfa_offset 16
 4995              		.cfi_offset 6, -16
 4996 1871 53       		pushq	%rbx
 4997              		.cfi_def_cfa_offset 24
 4998              		.cfi_offset 3, -24
 4999 1872 BF100000 		movl	$16, %edi
 4999      00
 5000 1877 4883EC68 		subq	$104, %rsp
 5001              		.cfi_def_cfa_offset 128
 5002 187b 64488B04 		movq	%fs:40, %rax
 5002      25280000 
 5002      00
 5003 1884 48894424 		movq	%rax, 88(%rsp)
 5003      58
 5004 1889 31C0     		xorl	%eax, %eax
 5005 188b 48C74424 		movq	$0, 16(%rsp)
 5005      10000000 
 5005      00
 5006 1894 48C74424 		movq	$0, 24(%rsp)
 5006      18000000 
 5006      00
 5007 189d 48C74424 		movq	$0, 32(%rsp)
 5007      20000000 
 5007      00
 5008              	.LEHB118:
 5009 18a6 E8000000 		call	_Znwm
 5009      00
 5010              	.LEHE118:
 5011 18ab 488D5010 		leaq	16(%rax), %rdx
 5012 18af 48894424 		movq	%rax, 16(%rsp)
 5012      10
 5013 18b4 48895424 		movq	%rdx, 32(%rsp)
 5013      20
 5014 18b9 48895424 		movq	%rdx, 24(%rsp)
 5014      18
 5015 18be C7000000 		movl	$0x00000000, (%rax)
 5015      0000
 5016 18c4 C7400400 		movl	$0x3f800000, 4(%rax)
 5016      00803F
 5017 18cb C7400800 		movl	$0x40000000, 8(%rax)
 5017      000040
 5018 18d2 C7400C00 		movl	$0x40400000, 12(%rax)
 5018      004040
 5019              	.LEHB119:
 5020 18d9 E8000000 		call	_ZN8UnitTest11CurrentTest7DetailsEv
 5020      00
 5021 18de 488D6C24 		leaq	48(%rsp), %rbp
 5021      30
 5022 18e3 488B30   		movq	(%rax), %rsi
 5023 18e6 BA380000 		movl	$56, %edx
 5023      00
 5024 18eb 4889EF   		movq	%rbp, %rdi
 5025 18ee E8000000 		call	_ZN8UnitTest11TestDetailsC1ERKS0_i
 5025      00
 5026 18f3 488B5C24 		movq	24(%rsp), %rbx
 5026      18
 5027 18f8 482B5C24 		subq	16(%rsp), %rbx
 5027      10
 5028 18fd C744240C 		movl	$0x38d1b717, 12(%rsp)
 5028      17B7D138 
 5029 1905 48C1FB02 		sarq	$2, %rbx
 5030 1909 E8000000 		call	_ZN8UnitTest11CurrentTest7ResultsEv
 5030      00
 5031 190e 488D5424 		leaq	16(%rsp), %rdx
 5031      10
 5032 1913 488B38   		movq	(%rax), %rdi
 5033 1916 4C8D4424 		leaq	12(%rsp), %r8
 5033      0C
 5034 191b 4989E9   		movq	%rbp, %r9
 5035 191e 89D9     		movl	%ebx, %ecx
 5036 1920 4889D6   		movq	%rdx, %rsi
 5037 1923 E8000000 		call	_ZN8UnitTest15CheckArrayCloseISt6vectorIfSaIfEES3_fEEvRNS_11TestResultsERKT_RKT0_iRKT1_RKNS_1
 5037      00
 5038              	.LEHE119:
 5039              	.L510:
 5040 1928 488B7C24 		movq	16(%rsp), %rdi
 5040      10
 5041 192d 4885FF   		testq	%rdi, %rdi
 5042 1930 7405     		je	.L505
 5043 1932 E8000000 		call	_ZdlPv
 5043      00
 5044              	.L505:
 5045 1937 488B4424 		movq	88(%rsp), %rax
 5045      58
 5046 193c 64483304 		xorq	%fs:40, %rax
 5046      25280000 
 5046      00
 5047 1945 7545     		jne	.L523
 5048 1947 4883C468 		addq	$104, %rsp
 5049              		.cfi_remember_state
 5050              		.cfi_def_cfa_offset 24
 5051 194b 5B       		popq	%rbx
 5052              		.cfi_def_cfa_offset 16
 5053 194c 5D       		popq	%rbp
 5054              		.cfi_def_cfa_offset 8
 5055 194d C3       		ret
 5056              	.L513:
 5057              		.cfi_restore_state
 5058 194e 4889C7   		movq	%rax, %rdi
 5059 1951 E8000000 		call	__cxa_begin_catch
 5059      00
 5060              	.LEHB120:
 5061 1956 E8000000 		call	_ZN8UnitTest11CurrentTest7DetailsEv
 5061      00
 5062 195b 488D6C24 		leaq	48(%rsp), %rbp
 5062      30
 5063 1960 488B30   		movq	(%rax), %rsi
 5064 1963 BA380000 		movl	$56, %edx
 5064      00
 5065 1968 4889EF   		movq	%rbp, %rdi
 5066 196b E8000000 		call	_ZN8UnitTest11TestDetailsC1ERKS0_i
 5066      00
 5067 1970 E8000000 		call	_ZN8UnitTest11CurrentTest7ResultsEv
 5067      00
 5068 1975 488B38   		movq	(%rax), %rdi
 5069 1978 BA000000 		movl	$.LC101, %edx
 5069      00
 5070 197d 4889EE   		movq	%rbp, %rsi
 5071 1980 E8000000 		call	_ZN8UnitTest11TestResults13OnTestFailureERKNS_11TestDetailsEPKc
 5071      00
 5072              	.LEHE120:
 5073              	.LEHB121:
 5074 1985 E8000000 		call	__cxa_end_catch
 5074      00
 5075              	.LEHE121:
 5076 198a EB9C     		jmp	.L510
 5077              	.L523:
 5078 198c E8000000 		call	__stack_chk_fail
 5078      00
 5079              	.L514:
 5080 1991 4889C3   		movq	%rax, %rbx
 5081              	.L508:
 5082 1994 488B7C24 		movq	16(%rsp), %rdi
 5082      10
 5083 1999 4885FF   		testq	%rdi, %rdi
 5084 199c 7405     		je	.L511
 5085 199e E8000000 		call	_ZdlPv
 5085      00
 5086              	.L511:
 5087 19a3 4889DF   		movq	%rbx, %rdi
 5088              	.LEHB122:
 5089 19a6 E8000000 		call	_Unwind_Resume
 5089      00
 5090              	.LEHE122:
 5091              	.L515:
 5092 19ab 4889C3   		movq	%rax, %rbx
 5093 19ae E8000000 		call	__cxa_end_catch
 5093      00
 5094 19b3 EBDF     		jmp	.L508
 5095              		.cfi_endproc
 5096              	.LFE1399:
 5097              		.section	.gcc_except_table
 5098 037e 0000     		.align 4
 5099              	.LLSDA1399:
 5100 0380 FF       		.byte	0xff
 5101 0381 03       		.byte	0x3
 5102 0382 25       		.uleb128 .LLSDATT1399-.LLSDATTD1399
 5103              	.LLSDATTD1399:
 5104 0383 01       		.byte	0x1
 5105 0384 1A       		.uleb128 .LLSDACSE1399-.LLSDACSB1399
 5106              	.LLSDACSB1399:
 5107 0385 36       		.uleb128 .LEHB118-.LFB1399
 5108 0386 05       		.uleb128 .LEHE118-.LEHB118
 5109 0387 00       		.uleb128 0
 5110 0388 00       		.uleb128 0
 5111 0389 69       		.uleb128 .LEHB119-.LFB1399
 5112 038a 4F       		.uleb128 .LEHE119-.LEHB119
 5113 038b DE01     		.uleb128 .L513-.LFB1399
 5114 038d 01       		.uleb128 0x1
 5115 038e E601     		.uleb128 .LEHB120-.LFB1399
 5116 0390 2F       		.uleb128 .LEHE120-.LEHB120
 5117 0391 BB02     		.uleb128 .L515-.LFB1399
 5118 0393 00       		.uleb128 0
 5119 0394 9502     		.uleb128 .LEHB121-.LFB1399
 5120 0396 05       		.uleb128 .LEHE121-.LEHB121
 5121 0397 A102     		.uleb128 .L514-.LFB1399
 5122 0399 00       		.uleb128 0
 5123 039a B602     		.uleb128 .LEHB122-.LFB1399
 5124 039c 05       		.uleb128 .LEHE122-.LEHB122
 5125 039d 00       		.uleb128 0
 5126 039e 00       		.uleb128 0
 5127              	.LLSDACSE1399:
 5128 039f 01       		.byte	0x1
 5129 03a0 00       		.byte	0
 5130 03a1 000000   		.align 4
 5131 03a4 00000000 		.long	0
 5132              	
 5133              	.LLSDATT1399:
 5134              		.text
 5136              		.section	.text.unlikely
 5137              	.LCOLDE102:
 5138              		.text
 5139              	.LHOTE102:
 5140              		.section	.rodata.str1.1
 5141              	.LC103:
 5142 00ba 54657374 		.string	"TestUnitTest++.cpp"
 5142      556E6974 
 5142      54657374 
 5142      2B2B2E63 
 5142      707000
 5143              	.LC104:
 5144 00cd 56616C69 		.string	"ValidCheckSucceeds"
 5144      64436865 
 5144      636B5375 
 5144      63636565 
 5144      647300
 5145              	.LC105:
 5146 00e0 43686563 		.string	"CheckWorksWithPointers"
 5146      6B576F72 
 5146      6B735769 
 5146      7468506F 
 5146      696E7465 
 5147              	.LC106:
 5148 00f7 56616C69 		.string	"ValidCheckEqualSucceeds"
 5148      64436865 
 5148      636B4571 
 5148      75616C53 
 5148      75636365 
 5149              	.LC107:
 5150 010f 43686563 		.string	"CheckEqualWorksWithPointers"
 5150      6B457175 
 5150      616C576F 
 5150      726B7357 
 5150      69746850 
 5151              	.LC108:
 5152 012b 56616C69 		.string	"ValidCheckCloseSucceeds"
 5152      64436865 
 5152      636B436C 
 5152      6F736553 
 5152      75636365 
 5153              	.LC109:
 5154 0143 41727261 		.string	"ArrayCloseSucceeds"
 5154      79436C6F 
 5154      73655375 
 5154      63636565 
 5154      647300
 5155              		.section	.rodata.str1.8
 5156 0307 00       		.align 8
 5157              	.LC110:
 5158 0308 43686563 		.string	"CheckArrayCloseWorksWithVectors"
 5158      6B417272 
 5158      6179436C 
 5158      6F736557 
 5158      6F726B73 
 5159              		.align 8
 5160              	.LC111:
 5161 0328 43686563 		.string	"CheckThrowMacroSucceedsOnCorrectException"
 5161      6B546872 
 5161      6F774D61 
 5161      63726F53 
 5161      75636365 
 5162              		.section	.rodata.str1.1
 5163              	.LC112:
 5164 0156 43686563 		.string	"CheckAssertSucceeds"
 5164      6B417373 
 5164      65727453 
 5164      75636365 
 5164      65647300 
 5165              		.section	.rodata.str1.8
 5166 0352 00000000 		.align 8
 5166      0000
 5167              	.LC113:
 5168 0358 43686563 		.string	"CheckThrowMacroFailsOnMissingException"
 5168      6B546872 
 5168      6F774D61 
 5168      63726F46 
 5168      61696C73 
 5169 037f 00       		.align 8
 5170              	.LC114:
 5171 0380 43686563 		.string	"CheckThrowMacroFailsOnWrongException"
 5171      6B546872 
 5171      6F774D61 
 5171      63726F46 
 5171      61696C73 
 5172              		.section	.rodata.str1.1
 5173              	.LC115:
 5174 016a 44656661 		.string	"DefaultFixtureCtorIsCalled"
 5174      756C7446 
 5174      69787475 
 5174      72654374 
 5174      6F724973 
 5175              	.LC116:
 5176 0185 4F6E6C79 		.string	"OnlyOneFixtureAliveAtATime"
 5176      4F6E6546 
 5176      69787475 
 5176      7265416C 
 5176      69766541 
 5177              		.section	.rodata.str1.8
 5178 03a5 000000   		.align 8
 5179              	.LC117:
 5180 03a8 43616E43 		.string	"CanCallCHECKOutsideOfTestFunction"
 5180      616C6C43 
 5180      4845434B 
 5180      4F757473 
 5180      6964654F 
 5181              		.section	.text.unlikely
 5182              	.LCOLDB118:
 5183              		.section	.text.startup,"ax",@progbits
 5184              	.LHOTB118:
 5185              		.p2align 4,,15
 5187              	_GLOBAL__sub_I_TestUnitTest__.cpp:
 5188              	.LFB1679:
 5189              		.cfi_startproc
 5190 0000 4883EC08 		subq	$8, %rsp
 5191              		.cfi_def_cfa_offset 16
 5192 0004 41B80B00 		movl	$11, %r8d
 5192      0000
 5193 000a B9000000 		movl	$.LC103, %ecx
 5193      00
 5194 000f BA000000 		movl	$.LC85, %edx
 5194      00
 5195 0014 BE000000 		movl	$.LC104, %esi
 5195      00
 5196 0019 BF000000 		movl	$_ZN12_GLOBAL__N_130testValidCheckSucceedsInstanceE, %edi
 5196      00
 5197 001e E8000000 		call	_ZN8UnitTest4TestC2EPKcS2_S2_i
 5197      00
 5198 0023 BA000000 		movl	$__dso_handle, %edx
 5198      00
 5199 0028 BE000000 		movl	$_ZN12_GLOBAL__N_130testValidCheckSucceedsInstanceE, %esi
 5199      00
 5200 002d BF000000 		movl	$_ZN12_GLOBAL__N_122TestValidCheckSucceedsD1Ev, %edi
 5200      00
 5201 0032 48C70500 		movq	$_ZTVN12_GLOBAL__N_122TestValidCheckSucceedsE+16, _ZN12_GLOBAL__N_130testValidCheckSucceedsIn
 5201      00000000 
 5201      000000
 5202 003d E8000000 		call	__cxa_atexit
 5202      00
 5203 0042 E8000000 		call	_ZN8UnitTest4Test11GetTestListEv
 5203      00
 5204 0047 BA000000 		movl	$_ZN12_GLOBAL__N_130testValidCheckSucceedsInstanceE, %edx
 5204      00
 5205 004c 4889C6   		movq	%rax, %rsi
 5206 004f BF000000 		movl	$_ZN12_GLOBAL__N_123adderValidCheckSucceedsE, %edi
 5206      00
 5207 0054 E8000000 		call	_ZN8UnitTest9ListAdderC1ERNS_8TestListEPNS_4TestE
 5207      00
 5208 0059 41B81100 		movl	$17, %r8d
 5208      0000
 5209 005f B9000000 		movl	$.LC103, %ecx
 5209      00
 5210 0064 BA000000 		movl	$.LC85, %edx
 5210      00
 5211 0069 BE000000 		movl	$.LC105, %esi
 5211      00
 5212 006e BF000000 		movl	$_ZN12_GLOBAL__N_134testCheckWorksWithPointersInstanceE, %edi
 5212      00
 5213 0073 E8000000 		call	_ZN8UnitTest4TestC2EPKcS2_S2_i
 5213      00
 5214 0078 BA000000 		movl	$__dso_handle, %edx
 5214      00
 5215 007d BE000000 		movl	$_ZN12_GLOBAL__N_134testCheckWorksWithPointersInstanceE, %esi
 5215      00
 5216 0082 BF000000 		movl	$_ZN12_GLOBAL__N_126TestCheckWorksWithPointersD1Ev, %edi
 5216      00
 5217 0087 48C70500 		movq	$_ZTVN12_GLOBAL__N_126TestCheckWorksWithPointersE+16, _ZN12_GLOBAL__N_134testCheckWorksWithPo
 5217      00000000 
 5217      000000
 5218 0092 E8000000 		call	__cxa_atexit
 5218      00
 5219 0097 E8000000 		call	_ZN8UnitTest4Test11GetTestListEv
 5219      00
 5220 009c BA000000 		movl	$_ZN12_GLOBAL__N_134testCheckWorksWithPointersInstanceE, %edx
 5220      00
 5221 00a1 4889C6   		movq	%rax, %rsi
 5222 00a4 BF000000 		movl	$_ZN12_GLOBAL__N_127adderCheckWorksWithPointersE, %edi
 5222      00
 5223 00a9 E8000000 		call	_ZN8UnitTest9ListAdderC1ERNS_8TestListEPNS_4TestE
 5223      00
 5224 00ae 41B81800 		movl	$24, %r8d
 5224      0000
 5225 00b4 B9000000 		movl	$.LC103, %ecx
 5225      00
 5226 00b9 BA000000 		movl	$.LC85, %edx
 5226      00
 5227 00be BE000000 		movl	$.LC106, %esi
 5227      00
 5228 00c3 BF000000 		movl	$_ZN12_GLOBAL__N_135testValidCheckEqualSucceedsInstanceE, %edi
 5228      00
 5229 00c8 E8000000 		call	_ZN8UnitTest4TestC2EPKcS2_S2_i
 5229      00
 5230 00cd BA000000 		movl	$__dso_handle, %edx
 5230      00
 5231 00d2 BE000000 		movl	$_ZN12_GLOBAL__N_135testValidCheckEqualSucceedsInstanceE, %esi
 5231      00
 5232 00d7 BF000000 		movl	$_ZN12_GLOBAL__N_127TestValidCheckEqualSucceedsD1Ev, %edi
 5232      00
 5233 00dc 48C70500 		movq	$_ZTVN12_GLOBAL__N_127TestValidCheckEqualSucceedsE+16, _ZN12_GLOBAL__N_135testValidCheckEqual
 5233      00000000 
 5233      000000
 5234 00e7 E8000000 		call	__cxa_atexit
 5234      00
 5235 00ec E8000000 		call	_ZN8UnitTest4Test11GetTestListEv
 5235      00
 5236 00f1 BA000000 		movl	$_ZN12_GLOBAL__N_135testValidCheckEqualSucceedsInstanceE, %edx
 5236      00
 5237 00f6 4889C6   		movq	%rax, %rsi
 5238 00f9 BF000000 		movl	$_ZN12_GLOBAL__N_128adderValidCheckEqualSucceedsE, %edi
 5238      00
 5239 00fe E8000000 		call	_ZN8UnitTest9ListAdderC1ERNS_8TestListEPNS_4TestE
 5239      00
 5240 0103 41B81F00 		movl	$31, %r8d
 5240      0000
 5241 0109 B9000000 		movl	$.LC103, %ecx
 5241      00
 5242 010e BA000000 		movl	$.LC85, %edx
 5242      00
 5243 0113 BE000000 		movl	$.LC107, %esi
 5243      00
 5244 0118 BF000000 		movl	$_ZN12_GLOBAL__N_139testCheckEqualWorksWithPointersInstanceE, %edi
 5244      00
 5245 011d E8000000 		call	_ZN8UnitTest4TestC2EPKcS2_S2_i
 5245      00
 5246 0122 BA000000 		movl	$__dso_handle, %edx
 5246      00
 5247 0127 BE000000 		movl	$_ZN12_GLOBAL__N_139testCheckEqualWorksWithPointersInstanceE, %esi
 5247      00
 5248 012c BF000000 		movl	$_ZN12_GLOBAL__N_131TestCheckEqualWorksWithPointersD1Ev, %edi
 5248      00
 5249 0131 48C70500 		movq	$_ZTVN12_GLOBAL__N_131TestCheckEqualWorksWithPointersE+16, _ZN12_GLOBAL__N_139testCheckEqualW
 5249      00000000 
 5249      000000
 5250 013c E8000000 		call	__cxa_atexit
 5250      00
 5251 0141 E8000000 		call	_ZN8UnitTest4Test11GetTestListEv
 5251      00
 5252 0146 BA000000 		movl	$_ZN12_GLOBAL__N_139testCheckEqualWorksWithPointersInstanceE, %edx
 5252      00
 5253 014b 4889C6   		movq	%rax, %rsi
 5254 014e BF000000 		movl	$_ZN12_GLOBAL__N_132adderCheckEqualWorksWithPointersE, %edi
 5254      00
 5255 0153 E8000000 		call	_ZN8UnitTest9ListAdderC1ERNS_8TestListEPNS_4TestE
 5255      00
 5256 0158 41B82500 		movl	$37, %r8d
 5256      0000
 5257 015e B9000000 		movl	$.LC103, %ecx
 5257      00
 5258 0163 BA000000 		movl	$.LC85, %edx
 5258      00
 5259 0168 BE000000 		movl	$.LC108, %esi
 5259      00
 5260 016d BF000000 		movl	$_ZN12_GLOBAL__N_135testValidCheckCloseSucceedsInstanceE, %edi
 5260      00
 5261 0172 E8000000 		call	_ZN8UnitTest4TestC2EPKcS2_S2_i
 5261      00
 5262 0177 BA000000 		movl	$__dso_handle, %edx
 5262      00
 5263 017c BE000000 		movl	$_ZN12_GLOBAL__N_135testValidCheckCloseSucceedsInstanceE, %esi
 5263      00
 5264 0181 BF000000 		movl	$_ZN12_GLOBAL__N_127TestValidCheckCloseSucceedsD1Ev, %edi
 5264      00
 5265 0186 48C70500 		movq	$_ZTVN12_GLOBAL__N_127TestValidCheckCloseSucceedsE+16, _ZN12_GLOBAL__N_135testValidCheckClose
 5265      00000000 
 5265      000000
 5266 0191 E8000000 		call	__cxa_atexit
 5266      00
 5267 0196 E8000000 		call	_ZN8UnitTest4Test11GetTestListEv
 5267      00
 5268 019b BA000000 		movl	$_ZN12_GLOBAL__N_135testValidCheckCloseSucceedsInstanceE, %edx
 5268      00
 5269 01a0 4889C6   		movq	%rax, %rsi
 5270 01a3 BF000000 		movl	$_ZN12_GLOBAL__N_128adderValidCheckCloseSucceedsE, %edi
 5270      00
 5271 01a8 E8000000 		call	_ZN8UnitTest9ListAdderC1ERNS_8TestListEPNS_4TestE
 5271      00
 5272 01ad 41B82B00 		movl	$43, %r8d
 5272      0000
 5273 01b3 B9000000 		movl	$.LC103, %ecx
 5273      00
 5274 01b8 BA000000 		movl	$.LC85, %edx
 5274      00
 5275 01bd BE000000 		movl	$.LC109, %esi
 5275      00
 5276 01c2 BF000000 		movl	$_ZN12_GLOBAL__N_130testArrayCloseSucceedsInstanceE, %edi
 5276      00
 5277 01c7 E8000000 		call	_ZN8UnitTest4TestC2EPKcS2_S2_i
 5277      00
 5278 01cc BA000000 		movl	$__dso_handle, %edx
 5278      00
 5279 01d1 BE000000 		movl	$_ZN12_GLOBAL__N_130testArrayCloseSucceedsInstanceE, %esi
 5279      00
 5280 01d6 BF000000 		movl	$_ZN12_GLOBAL__N_122TestArrayCloseSucceedsD1Ev, %edi
 5280      00
 5281 01db 48C70500 		movq	$_ZTVN12_GLOBAL__N_122TestArrayCloseSucceedsE+16, _ZN12_GLOBAL__N_130testArrayCloseSucceedsIn
 5281      00000000 
 5281      000000
 5282 01e6 E8000000 		call	__cxa_atexit
 5282      00
 5283 01eb E8000000 		call	_ZN8UnitTest4Test11GetTestListEv
 5283      00
 5284 01f0 BA000000 		movl	$_ZN12_GLOBAL__N_130testArrayCloseSucceedsInstanceE, %edx
 5284      00
 5285 01f5 4889C6   		movq	%rax, %rsi
 5286 01f8 BF000000 		movl	$_ZN12_GLOBAL__N_123adderArrayCloseSucceedsE, %edi
 5286      00
 5287 01fd E8000000 		call	_ZN8UnitTest9ListAdderC1ERNS_8TestListEPNS_4TestE
 5287      00
 5288 0202 41B83200 		movl	$50, %r8d
 5288      0000
 5289 0208 B9000000 		movl	$.LC103, %ecx
 5289      00
 5290 020d BA000000 		movl	$.LC85, %edx
 5290      00
 5291 0212 BE000000 		movl	$.LC110, %esi
 5291      00
 5292 0217 BF000000 		movl	$_ZN12_GLOBAL__N_143testCheckArrayCloseWorksWithVectorsInstanceE, %edi
 5292      00
 5293 021c E8000000 		call	_ZN8UnitTest4TestC2EPKcS2_S2_i
 5293      00
 5294 0221 BA000000 		movl	$__dso_handle, %edx
 5294      00
 5295 0226 BE000000 		movl	$_ZN12_GLOBAL__N_143testCheckArrayCloseWorksWithVectorsInstanceE, %esi
 5295      00
 5296 022b BF000000 		movl	$_ZN12_GLOBAL__N_135TestCheckArrayCloseWorksWithVectorsD1Ev, %edi
 5296      00
 5297 0230 48C70500 		movq	$_ZTVN12_GLOBAL__N_135TestCheckArrayCloseWorksWithVectorsE+16, _ZN12_GLOBAL__N_143testCheckAr
 5297      00000000 
 5297      000000
 5298 023b E8000000 		call	__cxa_atexit
 5298      00
 5299 0240 E8000000 		call	_ZN8UnitTest4Test11GetTestListEv
 5299      00
 5300 0245 BA000000 		movl	$_ZN12_GLOBAL__N_143testCheckArrayCloseWorksWithVectorsInstanceE, %edx
 5300      00
 5301 024a 4889C6   		movq	%rax, %rsi
 5302 024d BF000000 		movl	$_ZN12_GLOBAL__N_136adderCheckArrayCloseWorksWithVectorsE, %edi
 5302      00
 5303 0252 E8000000 		call	_ZN8UnitTest9ListAdderC1ERNS_8TestListEPNS_4TestE
 5303      00
 5304 0257 41B83B00 		movl	$59, %r8d
 5304      0000
 5305 025d B9000000 		movl	$.LC103, %ecx
 5305      00
 5306 0262 BA000000 		movl	$.LC85, %edx
 5306      00
 5307 0267 BE000000 		movl	$.LC111, %esi
 5307      00
 5308 026c BF000000 		movl	$_ZN12_GLOBAL__N_153testCheckThrowMacroSucceedsOnCorrectExceptionInstanceE, %edi
 5308      00
 5309 0271 E8000000 		call	_ZN8UnitTest4TestC2EPKcS2_S2_i
 5309      00
 5310 0276 BA000000 		movl	$__dso_handle, %edx
 5310      00
 5311 027b BE000000 		movl	$_ZN12_GLOBAL__N_153testCheckThrowMacroSucceedsOnCorrectExceptionInstanceE, %esi
 5311      00
