   1              		.file	"TestDeferredTestReporter.cpp"
   2              		.section	.text.unlikely,"ax",@progbits
   3              		.align 2
   4              	.LCOLDB0:
   5              		.text
   6              	.LHOTB0:
   7              		.align 2
   8              		.p2align 4,,15
  10              	_ZN8UnitTest12_GLOBAL__N_124MockDeferredTestReporter13ReportSummaryEiiif:
  11              	.LFB1389:
  12              		.cfi_startproc
  13 0000 F3C3     		rep ret
  14              		.cfi_endproc
  15              	.LFE1389:
  17              		.section	.text.unlikely
  18              	.LCOLDE0:
  19              		.text
  20              	.LHOTE0:
  21              		.section	.text.unlikely
  22              		.align 2
  23              	.LCOLDB1:
  24              		.text
  25              	.LHOTB1:
  26              		.align 2
  27 0002 0F1F4000 		.p2align 4,,15
  27      662E0F1F 
  27      84000000 
  27      0000
  29              	_ZN8UnitTest12_GLOBAL__N_176TestDeferredTestReporterFixtureDeferredTestReporterTakesCopyOfFailureMe
  30              	.LFB1649:
  31              		.cfi_startproc
  32 0010 48C70700 		movq	$_ZTVN8UnitTest12_GLOBAL__N_176TestDeferredTestReporterFixtureDeferredTestReporterTakesCopyOf
  32      000000
  33 0017 E9000000 		jmp	_ZN8UnitTest4TestD2Ev
  33      00
  34              		.cfi_endproc
  35              	.LFE1649:
  37              		.section	.text.unlikely
  38              	.LCOLDE1:
  39              		.text
  40              	.LHOTE1:
  41              		.set	_ZN8UnitTest12_GLOBAL__N_176TestDeferredTestReporterFixtureDeferredTestReporterTakesCopyOfFai
  42              		.section	.text.unlikely
  43              		.align 2
  44              	.LCOLDB2:
  45              		.text
  46              	.LHOTB2:
  47              		.align 2
  48 001c 0F1F4000 		.p2align 4,,15
  50              	_ZN8UnitTest12_GLOBAL__N_182TestDeferredTestReporterFixtureReportFailureSavesFailureDetailsForMulti
  51              	.LFB1653:
  52              		.cfi_startproc
  53 0020 48C70700 		movq	$_ZTVN8UnitTest12_GLOBAL__N_182TestDeferredTestReporterFixtureReportFailureSavesFailureDetail
  53      000000
  54 0027 E9000000 		jmp	_ZN8UnitTest4TestD2Ev
  54      00
  55              		.cfi_endproc
  56              	.LFE1653:
  58              		.section	.text.unlikely
  59              	.LCOLDE2:
  60              		.text
  61              	.LHOTE2:
  62              		.set	_ZN8UnitTest12_GLOBAL__N_182TestDeferredTestReporterFixtureReportFailureSavesFailureDetailsFo
  63              		.section	.text.unlikely
  64              		.align 2
  65              	.LCOLDB3:
  66              		.text
  67              	.LHOTB3:
  68              		.align 2
  69 002c 0F1F4000 		.p2align 4,,15
  71              	_ZN8UnitTest12_GLOBAL__N_163TestDeferredTestReporterFixtureReportFailureSavesFailureDetailsD2Ev:
  72              	.LFB1657:
  73              		.cfi_startproc
  74 0030 48C70700 		movq	$_ZTVN8UnitTest12_GLOBAL__N_163TestDeferredTestReporterFixtureReportFailureSavesFailureDetail
  74      000000
  75 0037 E9000000 		jmp	_ZN8UnitTest4TestD2Ev
  75      00
  76              		.cfi_endproc
  77              	.LFE1657:
  79              		.section	.text.unlikely
  80              	.LCOLDE3:
  81              		.text
  82              	.LHOTE3:
  83              		.set	_ZN8UnitTest12_GLOBAL__N_163TestDeferredTestReporterFixtureReportFailureSavesFailureDetailsD1
  84              		.section	.text.unlikely
  85              		.align 2
  86              	.LCOLDB4:
  87              		.text
  88              	.LHOTB4:
  89              		.align 2
  90 003c 0F1F4000 		.p2align 4,,15
  92              	_ZN8UnitTest12_GLOBAL__N_160TestDeferredTestReporterFixtureReportTestEndCapturesTestTimeD2Ev:
  93              	.LFB1661:
  94              		.cfi_startproc
  95 0040 48C70700 		movq	$_ZTVN8UnitTest12_GLOBAL__N_160TestDeferredTestReporterFixtureReportTestEndCapturesTestTimeE+
  95      000000
  96 0047 E9000000 		jmp	_ZN8UnitTest4TestD2Ev
  96      00
  97              		.cfi_endproc
  98              	.LFE1661:
 100              		.section	.text.unlikely
 101              	.LCOLDE4:
 102              		.text
 103              	.LHOTE4:
 104              		.set	_ZN8UnitTest12_GLOBAL__N_160TestDeferredTestReporterFixtureReportTestEndCapturesTestTimeD1Ev,
 105              		.section	.text.unlikely
 106              		.align 2
 107              	.LCOLDB5:
 108              		.text
 109              	.LHOTB5:
 110              		.align 2
 111 004c 0F1F4000 		.p2align 4,,15
 113              	_ZN8UnitTest12_GLOBAL__N_170TestDeferredTestReporterFixtureReportTestStartCapturesTestNameAndSuiteD
 114              	.LFB1665:
 115              		.cfi_startproc
 116 0050 48C70700 		movq	$_ZTVN8UnitTest12_GLOBAL__N_170TestDeferredTestReporterFixtureReportTestStartCapturesTestName
 116      000000
 117 0057 E9000000 		jmp	_ZN8UnitTest4TestD2Ev
 117      00
 118              		.cfi_endproc
 119              	.LFE1665:
 121              		.section	.text.unlikely
 122              	.LCOLDE5:
 123              		.text
 124              	.LHOTE5:
 125              		.set	_ZN8UnitTest12_GLOBAL__N_170TestDeferredTestReporterFixtureReportTestStartCapturesTestNameAnd
 126              		.section	.text.unlikely
 127              		.align 2
 128              	.LCOLDB6:
 129              		.text
 130              	.LHOTB6:
 131              		.align 2
 132 005c 0F1F4000 		.p2align 4,,15
 134              	_ZN8UnitTest12_GLOBAL__N_169TestDeferredTestReporterFixtureReportTestStartCreatesANewDeferredTestD2
 135              	.LFB1669:
 136              		.cfi_startproc
 137 0060 48C70700 		movq	$_ZTVN8UnitTest12_GLOBAL__N_169TestDeferredTestReporterFixtureReportTestStartCreatesANewDefer
 137      000000
 138 0067 E9000000 		jmp	_ZN8UnitTest4TestD2Ev
 138      00
 139              		.cfi_endproc
 140              	.LFE1669:
 142              		.section	.text.unlikely
 143              	.LCOLDE6:
 144              		.text
 145              	.LHOTE6:
 146              		.set	_ZN8UnitTest12_GLOBAL__N_169TestDeferredTestReporterFixtureReportTestStartCreatesANewDeferred
 147              		.section	.text.unlikely
 148              		.align 2
 149              	.LCOLDB7:
 150              		.text
 151              	.LHOTB7:
 152              		.align 2
 153 006c 0F1F4000 		.p2align 4,,15
 155              	_ZN8UnitTest12_GLOBAL__N_176TestDeferredTestReporterFixtureDeferredTestReporterTakesCopyOfFailureMe
 156              	.LFB1651:
 157              		.cfi_startproc
 158 0070 53       		pushq	%rbx
 159              		.cfi_def_cfa_offset 16
 160              		.cfi_offset 3, -16
 161 0071 4889FB   		movq	%rdi, %rbx
 162 0074 48C70700 		movq	$_ZTVN8UnitTest12_GLOBAL__N_176TestDeferredTestReporterFixtureDeferredTestReporterTakesCopyOf
 162      000000
 163 007b E8000000 		call	_ZN8UnitTest4TestD2Ev
 163      00
 164 0080 4889DF   		movq	%rbx, %rdi
 165 0083 5B       		popq	%rbx
 166              		.cfi_def_cfa_offset 8
 167 0084 E9000000 		jmp	_ZdlPv
 167      00
 168              		.cfi_endproc
 169              	.LFE1651:
 171              		.section	.text.unlikely
 172              	.LCOLDE7:
 173              		.text
 174              	.LHOTE7:
 175              		.section	.text.unlikely
 176              		.align 2
 177              	.LCOLDB8:
 178              		.text
 179              	.LHOTB8:
 180 0089 90       		.align 2
 181 008a 660F1F44 		.p2align 4,,15
 181      0000
 183              	_ZN8UnitTest12_GLOBAL__N_182TestDeferredTestReporterFixtureReportFailureSavesFailureDetailsForMulti
 184              	.LFB1655:
 185              		.cfi_startproc
 186 0090 53       		pushq	%rbx
 187              		.cfi_def_cfa_offset 16
 188              		.cfi_offset 3, -16
 189 0091 4889FB   		movq	%rdi, %rbx
 190 0094 48C70700 		movq	$_ZTVN8UnitTest12_GLOBAL__N_182TestDeferredTestReporterFixtureReportFailureSavesFailureDetail
 190      000000
 191 009b E8000000 		call	_ZN8UnitTest4TestD2Ev
 191      00
 192 00a0 4889DF   		movq	%rbx, %rdi
 193 00a3 5B       		popq	%rbx
 194              		.cfi_def_cfa_offset 8
 195 00a4 E9000000 		jmp	_ZdlPv
 195      00
 196              		.cfi_endproc
 197              	.LFE1655:
 199              		.section	.text.unlikely
 200              	.LCOLDE8:
 201              		.text
 202              	.LHOTE8:
 203              		.section	.text.unlikely
 204              		.align 2
 205              	.LCOLDB9:
 206              		.text
 207              	.LHOTB9:
 208 00a9 90       		.align 2
 209 00aa 660F1F44 		.p2align 4,,15
 209      0000
 211              	_ZN8UnitTest12_GLOBAL__N_163TestDeferredTestReporterFixtureReportFailureSavesFailureDetailsD0Ev:
 212              	.LFB1659:
 213              		.cfi_startproc
 214 00b0 53       		pushq	%rbx
 215              		.cfi_def_cfa_offset 16
 216              		.cfi_offset 3, -16
 217 00b1 4889FB   		movq	%rdi, %rbx
 218 00b4 48C70700 		movq	$_ZTVN8UnitTest12_GLOBAL__N_163TestDeferredTestReporterFixtureReportFailureSavesFailureDetail
 218      000000
 219 00bb E8000000 		call	_ZN8UnitTest4TestD2Ev
 219      00
 220 00c0 4889DF   		movq	%rbx, %rdi
 221 00c3 5B       		popq	%rbx
 222              		.cfi_def_cfa_offset 8
 223 00c4 E9000000 		jmp	_ZdlPv
 223      00
 224              		.cfi_endproc
 225              	.LFE1659:
 227              		.section	.text.unlikely
 228              	.LCOLDE9:
 229              		.text
 230              	.LHOTE9:
 231              		.section	.text.unlikely
 232              		.align 2
 233              	.LCOLDB10:
 234              		.text
 235              	.LHOTB10:
 236 00c9 90       		.align 2
 237 00ca 660F1F44 		.p2align 4,,15
 237      0000
 239              	_ZN8UnitTest12_GLOBAL__N_160TestDeferredTestReporterFixtureReportTestEndCapturesTestTimeD0Ev:
 240              	.LFB1663:
 241              		.cfi_startproc
 242 00d0 53       		pushq	%rbx
 243              		.cfi_def_cfa_offset 16
 244              		.cfi_offset 3, -16
 245 00d1 4889FB   		movq	%rdi, %rbx
 246 00d4 48C70700 		movq	$_ZTVN8UnitTest12_GLOBAL__N_160TestDeferredTestReporterFixtureReportTestEndCapturesTestTimeE+
 246      000000
 247 00db E8000000 		call	_ZN8UnitTest4TestD2Ev
 247      00
 248 00e0 4889DF   		movq	%rbx, %rdi
 249 00e3 5B       		popq	%rbx
 250              		.cfi_def_cfa_offset 8
 251 00e4 E9000000 		jmp	_ZdlPv
 251      00
 252              		.cfi_endproc
 253              	.LFE1663:
 255              		.section	.text.unlikely
 256              	.LCOLDE10:
 257              		.text
 258              	.LHOTE10:
 259              		.section	.text.unlikely
 260              		.align 2
 261              	.LCOLDB11:
 262              		.text
 263              	.LHOTB11:
 264 00e9 90       		.align 2
 265 00ea 660F1F44 		.p2align 4,,15
 265      0000
 267              	_ZN8UnitTest12_GLOBAL__N_170TestDeferredTestReporterFixtureReportTestStartCapturesTestNameAndSuiteD
 268              	.LFB1667:
 269              		.cfi_startproc
 270 00f0 53       		pushq	%rbx
 271              		.cfi_def_cfa_offset 16
 272              		.cfi_offset 3, -16
 273 00f1 4889FB   		movq	%rdi, %rbx
 274 00f4 48C70700 		movq	$_ZTVN8UnitTest12_GLOBAL__N_170TestDeferredTestReporterFixtureReportTestStartCapturesTestName
 274      000000
 275 00fb E8000000 		call	_ZN8UnitTest4TestD2Ev
 275      00
 276 0100 4889DF   		movq	%rbx, %rdi
 277 0103 5B       		popq	%rbx
 278              		.cfi_def_cfa_offset 8
 279 0104 E9000000 		jmp	_ZdlPv
 279      00
 280              		.cfi_endproc
 281              	.LFE1667:
 283              		.section	.text.unlikely
 284              	.LCOLDE11:
 285              		.text
 286              	.LHOTE11:
 287              		.section	.text.unlikely
 288              		.align 2
 289              	.LCOLDB12:
 290              		.text
 291              	.LHOTB12:
 292 0109 90       		.align 2
 293 010a 660F1F44 		.p2align 4,,15
 293      0000
 295              	_ZN8UnitTest12_GLOBAL__N_169TestDeferredTestReporterFixtureReportTestStartCreatesANewDeferredTestD0
 296              	.LFB1671:
 297              		.cfi_startproc
 298 0110 53       		pushq	%rbx
 299              		.cfi_def_cfa_offset 16
 300              		.cfi_offset 3, -16
 301 0111 4889FB   		movq	%rdi, %rbx
 302 0114 48C70700 		movq	$_ZTVN8UnitTest12_GLOBAL__N_169TestDeferredTestReporterFixtureReportTestStartCreatesANewDefer
 302      000000
 303 011b E8000000 		call	_ZN8UnitTest4TestD2Ev
 303      00
 304 0120 4889DF   		movq	%rbx, %rdi
 305 0123 5B       		popq	%rbx
 306              		.cfi_def_cfa_offset 8
 307 0124 E9000000 		jmp	_ZdlPv
 307      00
 308              		.cfi_endproc
 309              	.LFE1671:
 311              		.section	.text.unlikely
 312              	.LCOLDE12:
 313              		.text
 314              	.LHOTE12:
 315              		.section	.text.unlikely
 316              		.align 2
 317              	.LCOLDB13:
 318              	.LHOTB13:
 319              		.align 2
 321              	_ZNSs4_Rep10_M_disposeERKSaIcE.part.1:
 322              	.LFB1683:
 323              		.cfi_startproc
 324 0000 B8000000 		movl	$_ZL28__gthrw___pthread_key_createPjPFvPvE, %eax
 324      00
 325 0005 4885C0   		testq	%rax, %rax
 326 0008 740A     		je	.L21
 327 000a 83C8FF   		orl	$-1, %eax
 328 000d F00FC147 		lock xaddl	%eax, 16(%rdi)
 328      10
 329 0012 EB09     		jmp	.L22
 330              	.L21:
 331 0014 8B4710   		movl	16(%rdi), %eax
 332 0017 8D50FF   		leal	-1(%rax), %edx
 333 001a 895710   		movl	%edx, 16(%rdi)
 334              	.L22:
 335 001d 85C0     		testl	%eax, %eax
 336 001f 7F05     		jg	.L20
 337 0021 E9000000 		jmp	_ZNSs4_Rep10_M_destroyERKSaIcE
 337      00
 338              	.L20:
 339 0026 C3       		ret
 340              		.cfi_endproc
 341              	.LFE1683:
 343              	.LCOLDE13:
 344              	.LHOTE13:
 345              		.section	.text.unlikely._ZN8UnitTest15MemoryOutStreamD1Ev,"axG",@progbits,_ZN8UnitTest15MemoryOutS
 346              		.align 2
 347              	.LCOLDB14:
 348              		.section	.text._ZN8UnitTest15MemoryOutStreamD1Ev,"axG",@progbits,_ZN8UnitTest15MemoryOutStreamD1Ev
 349              	.LHOTB14:
 350              		.align 2
 351              		.p2align 4,,15
 352              		.weak	_ZN8UnitTest15MemoryOutStreamD1Ev
 354              	_ZN8UnitTest15MemoryOutStreamD1Ev:
 355              	.LFB1678:
 356              		.cfi_startproc
 357 0000 53       		pushq	%rbx
 358              		.cfi_def_cfa_offset 16
 359              		.cfi_offset 3, -16
 360 0001 4889FB   		movq	%rdi, %rbx
 361 0004 4883EC10 		subq	$16, %rsp
 362              		.cfi_def_cfa_offset 32
 363 0008 48C70700 		movq	$_ZTVN8UnitTest15MemoryOutStreamE+24, (%rdi)
 363      000000
 364 000f 48C74760 		movq	$_ZTVN8UnitTest15MemoryOutStreamE+64, 96(%rdi)
 364      00000000 
 365 0017 64488B04 		movq	%fs:40, %rax
 365      25280000 
 365      00
 366 0020 48894424 		movq	%rax, 8(%rsp)
 366      08
 367 0025 31C0     		xorl	%eax, %eax
 368 0027 488B4758 		movq	88(%rdi), %rax
 369 002b 488D78E8 		leaq	-24(%rax), %rdi
 370 002f 4881FF00 		cmpq	$_ZNSs4_Rep20_S_empty_rep_storageE, %rdi
 370      000000
 371 0036 7568     		jne	.L38
 372              	.L27:
 373 0038 488B4350 		movq	80(%rbx), %rax
 374 003c 48C70300 		movq	$_ZTCN8UnitTest15MemoryOutStreamE0_St19basic_ostringstreamIcSt11char_traitsIcESaIcEE+24, (%rb
 374      000000
 375 0043 48C74360 		movq	$_ZTCN8UnitTest15MemoryOutStreamE0_St19basic_ostringstreamIcSt11char_traitsIcESaIcEE+64, 96(%
 375      00000000 
 376 004b 48C74308 		movq	$_ZTVSt15basic_stringbufIcSt11char_traitsIcESaIcEE+16, 8(%rbx)
 376      00000000 
 377 0053 488D78E8 		leaq	-24(%rax), %rdi
 378 0057 4881FF00 		cmpq	$_ZNSs4_Rep20_S_empty_rep_storageE, %rdi
 378      000000
 379 005e 7570     		jne	.L39
 380              	.L32:
 381 0060 488D7B40 		leaq	64(%rbx), %rdi
 382 0064 48C74308 		movq	$_ZTVSt15basic_streambufIcSt11char_traitsIcEE+16, 8(%rbx)
 382      00000000 
 383 006c E8000000 		call	_ZNSt6localeD1Ev
 383      00
 384 0071 488D7B60 		leaq	96(%rbx), %rdi
 385 0075 48C74360 		movq	$_ZTVSt9basic_iosIcSt11char_traitsIcEE+16, 96(%rbx)
 385      00000000 
 386 007d E8000000 		call	_ZNSt8ios_baseD2Ev
 386      00
 387 0082 488B4424 		movq	8(%rsp), %rax
 387      08
 388 0087 64483304 		xorq	%fs:40, %rax
 388      25280000 
 388      00
 389 0090 0F858700 		jne	.L40
 389      0000
 390 0096 4883C410 		addq	$16, %rsp
 391              		.cfi_remember_state
 392              		.cfi_def_cfa_offset 16
 393 009a 5B       		popq	%rbx
 394              		.cfi_def_cfa_offset 8
 395 009b C3       		ret
 396 009c 0F1F4000 		.p2align 4,,10
 397              		.p2align 3
 398              	.L38:
 399              		.cfi_restore_state
 400 00a0 BA000000 		movl	$_ZL28__gthrw___pthread_key_createPjPFvPvE, %edx
 400      00
 401 00a5 4885D2   		testq	%rdx, %rdx
 402 00a8 7466     		je	.L28
 403 00aa BAFFFFFF 		movl	$-1, %edx
 403      FF
 404 00af F00FC150 		lock xaddl	%edx, -8(%rax)
 404      F8
 405 00b4 89D0     		movl	%edx, %eax
 406              	.L29:
 407 00b6 85C0     		testl	%eax, %eax
 408 00b8 0F8F7AFF 		jg	.L27
 408      FFFF
 409 00be 488D7424 		leaq	7(%rsp), %rsi
 409      07
 410 00c3 E8000000 		call	_ZNSs4_Rep10_M_destroyERKSaIcE
 410      00
 411 00c8 E96BFFFF 		jmp	.L27
 411      FF
 412 00cd 0F1F00   		.p2align 4,,10
 413              		.p2align 3
 414              	.L39:
 415 00d0 BA000000 		movl	$_ZL28__gthrw___pthread_key_createPjPFvPvE, %edx
 415      00
 416 00d5 4885D2   		testq	%rdx, %rdx
 417 00d8 7426     		je	.L33
 418 00da BAFFFFFF 		movl	$-1, %edx
 418      FF
 419 00df F00FC150 		lock xaddl	%edx, -8(%rax)
 419      F8
 420 00e4 89D0     		movl	%edx, %eax
 421              	.L34:
 422 00e6 85C0     		testl	%eax, %eax
 423 00e8 0F8F72FF 		jg	.L32
 423      FFFF
 424 00ee 488D7424 		leaq	7(%rsp), %rsi
 424      07
 425 00f3 E8000000 		call	_ZNSs4_Rep10_M_destroyERKSaIcE
 425      00
 426 00f8 E963FFFF 		jmp	.L32
 426      FF
 427 00fd 0F1F00   		.p2align 4,,10
 428              		.p2align 3
 429              	.L33:
 430 0100 8B50F8   		movl	-8(%rax), %edx
 431 0103 8D4AFF   		leal	-1(%rdx), %ecx
 432 0106 8948F8   		movl	%ecx, -8(%rax)
 433 0109 89D0     		movl	%edx, %eax
 434 010b EBD9     		jmp	.L34
 435 010d 0F1F00   		.p2align 4,,10
 436              		.p2align 3
 437              	.L28:
 438 0110 8B50F8   		movl	-8(%rax), %edx
 439 0113 8D4AFF   		leal	-1(%rdx), %ecx
 440 0116 8948F8   		movl	%ecx, -8(%rax)
 441 0119 89D0     		movl	%edx, %eax
 442 011b EB99     		jmp	.L29
 443              	.L40:
 444 011d E8000000 		call	__stack_chk_fail
 444      00
 445              		.cfi_endproc
 446              	.LFE1678:
 448              		.section	.text.unlikely._ZN8UnitTest15MemoryOutStreamD1Ev,"axG",@progbits,_ZN8UnitTest15MemoryOutS
 449              	.LCOLDE14:
 450              		.section	.text._ZN8UnitTest15MemoryOutStreamD1Ev,"axG",@progbits,_ZN8UnitTest15MemoryOutStreamD1Ev
 451              	.LHOTE14:
 452              		.set	.LTHUNK0,_ZN8UnitTest15MemoryOutStreamD1Ev
 453              	.LCOLDB15:
 454              	.LHOTB15:
 455 0122 0F1F4000 		.p2align 4,,15
 455      662E0F1F 
 455      84000000 
 455      0000
 456              		.weak	_ZTv0_n24_N8UnitTest15MemoryOutStreamD1Ev
 458              	_ZTv0_n24_N8UnitTest15MemoryOutStreamD1Ev:
 459              	.LFB1707:
 460              		.cfi_startproc
 461 0130 4C8B17   		movq	(%rdi), %r10
 462 0133 49037AE8 		addq	-24(%r10), %rdi
 463 0137 E9C4FEFF 		jmp	.LTHUNK0
 463      FF
 464              		.cfi_endproc
 465              	.LFE1707:
 467              	.LCOLDE15:
 468              	.LHOTE15:
 469              		.section	.text.unlikely._ZN8UnitTest15MemoryOutStreamD0Ev,"axG",@progbits,_ZN8UnitTest15MemoryOutS
 470              		.align 2
 471              	.LCOLDB16:
 472              		.section	.text._ZN8UnitTest15MemoryOutStreamD0Ev,"axG",@progbits,_ZN8UnitTest15MemoryOutStreamD0Ev
 473              	.LHOTB16:
 474              		.align 2
 475              		.p2align 4,,15
 476              		.weak	_ZN8UnitTest15MemoryOutStreamD0Ev
 478              	_ZN8UnitTest15MemoryOutStreamD0Ev:
 479              	.LFB1679:
 480              		.cfi_startproc
 481 0000 53       		pushq	%rbx
 482              		.cfi_def_cfa_offset 16
 483              		.cfi_offset 3, -16
 484 0001 4889FB   		movq	%rdi, %rbx
 485 0004 4883EC10 		subq	$16, %rsp
 486              		.cfi_def_cfa_offset 32
 487 0008 48C70700 		movq	$_ZTVN8UnitTest15MemoryOutStreamE+24, (%rdi)
 487      000000
 488 000f 48C74760 		movq	$_ZTVN8UnitTest15MemoryOutStreamE+64, 96(%rdi)
 488      00000000 
 489 0017 64488B04 		movq	%fs:40, %rax
 489      25280000 
 489      00
 490 0020 48894424 		movq	%rax, 8(%rsp)
 490      08
 491 0025 31C0     		xorl	%eax, %eax
 492 0027 488B4758 		movq	88(%rdi), %rax
 493 002b 488D78E8 		leaq	-24(%rax), %rdi
 494 002f 4881FF00 		cmpq	$_ZNSs4_Rep20_S_empty_rep_storageE, %rdi
 494      000000
 495 0036 7570     		jne	.L54
 496              	.L43:
 497 0038 488B4350 		movq	80(%rbx), %rax
 498 003c 48C70300 		movq	$_ZTCN8UnitTest15MemoryOutStreamE0_St19basic_ostringstreamIcSt11char_traitsIcESaIcEE+24, (%rb
 498      000000
 499 0043 48C74360 		movq	$_ZTCN8UnitTest15MemoryOutStreamE0_St19basic_ostringstreamIcSt11char_traitsIcESaIcEE+64, 96(%
 499      00000000 
 500 004b 48C74308 		movq	$_ZTVSt15basic_stringbufIcSt11char_traitsIcESaIcEE+16, 8(%rbx)
 500      00000000 
 501 0053 488D78E8 		leaq	-24(%rax), %rdi
 502 0057 4881FF00 		cmpq	$_ZNSs4_Rep20_S_empty_rep_storageE, %rdi
 502      000000
 503 005e 7578     		jne	.L55
 504              	.L48:
 505 0060 488D7B40 		leaq	64(%rbx), %rdi
 506 0064 48C74308 		movq	$_ZTVSt15basic_streambufIcSt11char_traitsIcEE+16, 8(%rbx)
 506      00000000 
 507 006c E8000000 		call	_ZNSt6localeD1Ev
 507      00
 508 0071 488D7B60 		leaq	96(%rbx), %rdi
 509 0075 48C74360 		movq	$_ZTVSt9basic_iosIcSt11char_traitsIcEE+16, 96(%rbx)
 509      00000000 
 510 007d E8000000 		call	_ZNSt8ios_baseD2Ev
 510      00
 511 0082 4889DF   		movq	%rbx, %rdi
 512 0085 E8000000 		call	_ZdlPv
 512      00
 513 008a 488B4424 		movq	8(%rsp), %rax
 513      08
 514 008f 64483304 		xorq	%fs:40, %rax
 514      25280000 
 514      00
 515 0098 0F858700 		jne	.L56
 515      0000
 516 009e 4883C410 		addq	$16, %rsp
 517              		.cfi_remember_state
 518              		.cfi_def_cfa_offset 16
 519 00a2 5B       		popq	%rbx
 520              		.cfi_def_cfa_offset 8
 521 00a3 C3       		ret
 522              		.p2align 4,,10
 523 00a4 0F1F4000 		.p2align 3
 524              	.L54:
 525              		.cfi_restore_state
 526 00a8 BA000000 		movl	$_ZL28__gthrw___pthread_key_createPjPFvPvE, %edx
 526      00
 527 00ad 4885D2   		testq	%rdx, %rdx
 528 00b0 7466     		je	.L44
 529 00b2 BAFFFFFF 		movl	$-1, %edx
 529      FF
 530 00b7 F00FC150 		lock xaddl	%edx, -8(%rax)
 530      F8
 531 00bc 89D0     		movl	%edx, %eax
 532              	.L45:
 533 00be 85C0     		testl	%eax, %eax
 534 00c0 0F8F72FF 		jg	.L43
 534      FFFF
 535 00c6 488D7424 		leaq	7(%rsp), %rsi
 535      07
 536 00cb E8000000 		call	_ZNSs4_Rep10_M_destroyERKSaIcE
 536      00
 537 00d0 E963FFFF 		jmp	.L43
 537      FF
 538              		.p2align 4,,10
 539 00d5 0F1F00   		.p2align 3
 540              	.L55:
 541 00d8 BA000000 		movl	$_ZL28__gthrw___pthread_key_createPjPFvPvE, %edx
 541      00
 542 00dd 4885D2   		testq	%rdx, %rdx
 543 00e0 7426     		je	.L49
 544 00e2 BAFFFFFF 		movl	$-1, %edx
 544      FF
 545 00e7 F00FC150 		lock xaddl	%edx, -8(%rax)
 545      F8
 546 00ec 89D0     		movl	%edx, %eax
 547              	.L50:
 548 00ee 85C0     		testl	%eax, %eax
 549 00f0 0F8F6AFF 		jg	.L48
 549      FFFF
 550 00f6 488D7424 		leaq	7(%rsp), %rsi
 550      07
 551 00fb E8000000 		call	_ZNSs4_Rep10_M_destroyERKSaIcE
 551      00
 552 0100 E95BFFFF 		jmp	.L48
 552      FF
 553              		.p2align 4,,10
 554 0105 0F1F00   		.p2align 3
 555              	.L49:
 556 0108 8B50F8   		movl	-8(%rax), %edx
 557 010b 8D4AFF   		leal	-1(%rdx), %ecx
 558 010e 8948F8   		movl	%ecx, -8(%rax)
 559 0111 89D0     		movl	%edx, %eax
 560 0113 EBD9     		jmp	.L50
 561              		.p2align 4,,10
 562 0115 0F1F00   		.p2align 3
 563              	.L44:
 564 0118 8B50F8   		movl	-8(%rax), %edx
 565 011b 8D4AFF   		leal	-1(%rdx), %ecx
 566 011e 8948F8   		movl	%ecx, -8(%rax)
 567 0121 89D0     		movl	%edx, %eax
 568 0123 EB99     		jmp	.L45
 569              	.L56:
 570 0125 E8000000 		call	__stack_chk_fail
 570      00
 571              		.cfi_endproc
 572              	.LFE1679:
 574              		.section	.text.unlikely._ZN8UnitTest15MemoryOutStreamD0Ev,"axG",@progbits,_ZN8UnitTest15MemoryOutS
 575              	.LCOLDE16:
 576              		.section	.text._ZN8UnitTest15MemoryOutStreamD0Ev,"axG",@progbits,_ZN8UnitTest15MemoryOutStreamD0Ev
 577              	.LHOTE16:
 578              		.set	.LTHUNK1,_ZN8UnitTest15MemoryOutStreamD0Ev
 579              	.LCOLDB17:
 580              	.LHOTB17:
 581 012a 660F1F44 		.p2align 4,,15
 581      0000
 582              		.weak	_ZTv0_n24_N8UnitTest15MemoryOutStreamD0Ev
 584              	_ZTv0_n24_N8UnitTest15MemoryOutStreamD0Ev:
 585              	.LFB1708:
 586              		.cfi_startproc
 587 0130 4C8B17   		movq	(%rdi), %r10
 588 0133 49037AE8 		addq	-24(%r10), %rdi
 589 0137 E9C4FEFF 		jmp	.LTHUNK1
 589      FF
 590              		.cfi_endproc
 591              	.LFE1708:
 593              	.LCOLDE17:
 594              	.LHOTE17:
 595              		.section	.text.unlikely
 596 0027 90       		.align 2
 597              	.LCOLDB18:
 598              		.text
 599              	.LHOTB18:
 600 0129 90       		.align 2
 601 012a 660F1F44 		.p2align 4,,15
 601      0000
 603              	_ZN8UnitTest12_GLOBAL__N_124MockDeferredTestReporterD2Ev:
 604              	.LFB1673:
 605              		.cfi_startproc
 606 0130 4156     		pushq	%r14
 607              		.cfi_def_cfa_offset 16
 608              		.cfi_offset 14, -16
 609 0132 4155     		pushq	%r13
 610              		.cfi_def_cfa_offset 24
 611              		.cfi_offset 13, -24
 612 0134 4989FD   		movq	%rdi, %r13
 613 0137 4154     		pushq	%r12
 614              		.cfi_def_cfa_offset 32
 615              		.cfi_offset 12, -32
 616 0139 55       		pushq	%rbp
 617              		.cfi_def_cfa_offset 40
 618              		.cfi_offset 6, -40
 619 013a 53       		pushq	%rbx
 620              		.cfi_def_cfa_offset 48
 621              		.cfi_offset 3, -48
 622 013b 4883EC10 		subq	$16, %rsp
 623              		.cfi_def_cfa_offset 64
 624 013f 4C8B6710 		movq	16(%rdi), %r12
 625 0143 4C8B7708 		movq	8(%rdi), %r14
 626 0147 64488B04 		movq	%fs:40, %rax
 626      25280000 
 626      00
 627 0150 48894424 		movq	%rax, 8(%rsp)
 627      08
 628 0155 31C0     		xorl	%eax, %eax
 629 0157 48C70700 		movq	$_ZTVN8UnitTest20DeferredTestReporterE+16, (%rdi)
 629      000000
 630 015e 4D39F4   		cmpq	%r14, %r12
 631 0161 0F84C900 		je	.L58
 631      0000
 632 0167 660F1F84 		.p2align 4,,10
 632      00000000 
 632      00
 633              		.p2align 3
 634              	.L87:
 635 0170 498B6E20 		movq	32(%r14), %rbp
 636 0174 498B5E18 		movq	24(%r14), %rbx
 637 0178 4839DD   		cmpq	%rbx, %rbp
 638 017b 7457     		je	.L59
 639 017d B8000000 		movl	$_ZL28__gthrw___pthread_key_createPjPFvPvE, %eax
 639      00
 640 0182 4885C0   		testq	%rax, %rax
 641 0185 7512     		jne	.L94
 642 0187 E9110100 		jmp	.L65
 642      00
 643 018c 0F1F4000 		.p2align 4,,10
 644              		.p2align 3
 645              	.L68:
 646 0190 4883C310 		addq	$16, %rbx
 647 0194 4839DD   		cmpq	%rbx, %rbp
 648 0197 7437     		je	.L66
 649              	.L94:
 650 0199 488B4308 		movq	8(%rbx), %rax
 651 019d 488D78E8 		leaq	-24(%rax), %rdi
 652 01a1 4881FF00 		cmpq	$_ZNSs4_Rep20_S_empty_rep_storageE, %rdi
 652      000000
 653 01a8 74E6     		je	.L68
 654 01aa B9FFFFFF 		movl	$-1, %ecx
 654      FF
 655 01af F00FC148 		lock xaddl	%ecx, -8(%rax)
 655      F8
 656 01b4 85C9     		testl	%ecx, %ecx
 657 01b6 7FD8     		jg	.L68
 658 01b8 488D7424 		leaq	7(%rsp), %rsi
 658      07
 659 01bd 4883C310 		addq	$16, %rbx
 660 01c1 E8000000 		call	_ZNSs4_Rep10_M_destroyERKSaIcE
 660      00
 661 01c6 4839DD   		cmpq	%rbx, %rbp
 662 01c9 75CE     		jne	.L94
 663 01cb 0F1F4400 		.p2align 4,,10
 663      00
 664              		.p2align 3
 665              	.L66:
 666 01d0 498B6E18 		movq	24(%r14), %rbp
 667              	.L59:
 668 01d4 4885ED   		testq	%rbp, %rbp
 669 01d7 7408     		je	.L71
 670 01d9 4889EF   		movq	%rbp, %rdi
 671 01dc E8000000 		call	_ZdlPv
 671      00
 672              	.L71:
 673 01e1 498B4610 		movq	16(%r14), %rax
 674 01e5 488D78E8 		leaq	-24(%rax), %rdi
 675 01e9 4881FF00 		cmpq	$_ZNSs4_Rep20_S_empty_rep_storageE, %rdi
 675      000000
 676 01f0 0F852201 		jne	.L102
 676      0000
 677              	.L73:
 678 01f6 498B4608 		movq	8(%r14), %rax
 679 01fa 488D78E8 		leaq	-24(%rax), %rdi
 680 01fe 4881FF00 		cmpq	$_ZNSs4_Rep20_S_empty_rep_storageE, %rdi
 680      000000
 681 0205 0F85DD00 		jne	.L103
 681      0000
 682              	.L78:
 683 020b 498B06   		movq	(%r14), %rax
 684 020e 488D78E8 		leaq	-24(%rax), %rdi
 685 0212 4881FF00 		cmpq	$_ZNSs4_Rep20_S_empty_rep_storageE, %rdi
 685      000000
 686 0219 0F859100 		jne	.L104
 686      0000
 687              	.L83:
 688 021f 4983C638 		addq	$56, %r14
 689 0223 4D39F4   		cmpq	%r14, %r12
 690 0226 0F8544FF 		jne	.L87
 690      FFFF
 691 022c 4D8B6508 		movq	8(%r13), %r12
 692              	.L58:
 693 0230 4D85E4   		testq	%r12, %r12
 694 0233 7408     		je	.L88
 695 0235 4C89E7   		movq	%r12, %rdi
 696 0238 E8000000 		call	_ZdlPv
 696      00
 697              	.L88:
 698 023d 4C89EF   		movq	%r13, %rdi
 699 0240 E8000000 		call	_ZN8UnitTest12TestReporterD2Ev
 699      00
 700 0245 488B4424 		movq	8(%rsp), %rax
 700      08
 701 024a 64483304 		xorq	%fs:40, %rax
 701      25280000 
 701      00
 702 0253 0F851601 		jne	.L105
 702      0000
 703 0259 4883C410 		addq	$16, %rsp
 704              		.cfi_remember_state
 705              		.cfi_def_cfa_offset 48
 706 025d 5B       		popq	%rbx
 707              		.cfi_def_cfa_offset 40
 708 025e 5D       		popq	%rbp
 709              		.cfi_def_cfa_offset 32
 710 025f 415C     		popq	%r12
 711              		.cfi_def_cfa_offset 24
 712 0261 415D     		popq	%r13
 713              		.cfi_def_cfa_offset 16
 714 0263 415E     		popq	%r14
 715              		.cfi_def_cfa_offset 8
 716 0265 C3       		ret
 717 0266 662E0F1F 		.p2align 4,,10
 717      84000000 
 717      0000
 718              		.p2align 3
 719              	.L106:
 720              		.cfi_restore_state
 721 0270 8B50F8   		movl	-8(%rax), %edx
 722 0273 8D4AFF   		leal	-1(%rdx), %ecx
 723 0276 85D2     		testl	%edx, %edx
 724 0278 8948F8   		movl	%ecx, -8(%rax)
 725 027b 7F13     		jg	.L63
 726 027d 488D7424 		leaq	7(%rsp), %rsi
 726      07
 727 0282 E8000000 		call	_ZNSs4_Rep10_M_destroyERKSaIcE
 727      00
 728 0287 660F1F84 		.p2align 4,,10
 728      00000000 
 728      00
 729              		.p2align 3
 730              	.L63:
 731 0290 4883C310 		addq	$16, %rbx
 732 0294 4839DD   		cmpq	%rbx, %rbp
 733 0297 0F8433FF 		je	.L66
 733      FFFF
 734              	.L65:
 735 029d 488B4308 		movq	8(%rbx), %rax
 736 02a1 488D78E8 		leaq	-24(%rax), %rdi
 737 02a5 4881FF00 		cmpq	$_ZNSs4_Rep20_S_empty_rep_storageE, %rdi
 737      000000
 738 02ac 74E2     		je	.L63
 739 02ae EBC0     		jmp	.L106
 740              		.p2align 4,,10
 741              		.p2align 3
 742              	.L104:
 743 02b0 BA000000 		movl	$_ZL28__gthrw___pthread_key_createPjPFvPvE, %edx
 743      00
 744 02b5 4885D2   		testq	%rdx, %rdx
 745 02b8 0F84A100 		je	.L84
 745      0000
 746 02be BAFFFFFF 		movl	$-1, %edx
 746      FF
 747 02c3 F00FC150 		lock xaddl	%edx, -8(%rax)
 747      F8
 748 02c8 89D0     		movl	%edx, %eax
 749              	.L85:
 750 02ca 85C0     		testl	%eax, %eax
 751 02cc 0F8F4DFF 		jg	.L83
 751      FFFF
 752 02d2 488D7424 		leaq	7(%rsp), %rsi
 752      07
 753 02d7 E8000000 		call	_ZNSs4_Rep10_M_destroyERKSaIcE
 753      00
 754 02dc E93EFFFF 		jmp	.L83
 754      FF
 755              		.p2align 4,,10
 756 02e1 0F1F8000 		.p2align 3
 756      000000
 757              	.L103:
 758 02e8 BA000000 		movl	$_ZL28__gthrw___pthread_key_createPjPFvPvE, %edx
 758      00
 759 02ed 4885D2   		testq	%rdx, %rdx
 760 02f0 7460     		je	.L79
 761 02f2 BAFFFFFF 		movl	$-1, %edx
 761      FF
 762 02f7 F00FC150 		lock xaddl	%edx, -8(%rax)
 762      F8
 763 02fc 89D0     		movl	%edx, %eax
 764              	.L80:
 765 02fe 85C0     		testl	%eax, %eax
 766 0300 0F8F05FF 		jg	.L78
 766      FFFF
 767 0306 488D7424 		leaq	7(%rsp), %rsi
 767      07
 768 030b E8000000 		call	_ZNSs4_Rep10_M_destroyERKSaIcE
 768      00
 769 0310 E9F6FEFF 		jmp	.L78
 769      FF
 770              		.p2align 4,,10
 771 0315 0F1F00   		.p2align 3
 772              	.L102:
 773 0318 BA000000 		movl	$_ZL28__gthrw___pthread_key_createPjPFvPvE, %edx
 773      00
 774 031d 4885D2   		testq	%rdx, %rdx
 775 0320 7423     		je	.L74
 776 0322 BAFFFFFF 		movl	$-1, %edx
 776      FF
 777 0327 F00FC150 		lock xaddl	%edx, -8(%rax)
 777      F8
 778 032c 89D0     		movl	%edx, %eax
 779              	.L75:
 780 032e 85C0     		testl	%eax, %eax
 781 0330 0F8FC0FE 		jg	.L73
 781      FFFF
 782 0336 488D7424 		leaq	7(%rsp), %rsi
 782      07
 783 033b E8000000 		call	_ZNSs4_Rep10_M_destroyERKSaIcE
 783      00
 784 0340 E9B1FEFF 		jmp	.L73
 784      FF
 785              	.L74:
 786 0345 8B50F8   		movl	-8(%rax), %edx
 787 0348 8D4AFF   		leal	-1(%rdx), %ecx
 788 034b 8948F8   		movl	%ecx, -8(%rax)
 789 034e 89D0     		movl	%edx, %eax
 790 0350 EBDC     		jmp	.L75
 791              	.L79:
 792 0352 8B50F8   		movl	-8(%rax), %edx
 793 0355 8D4AFF   		leal	-1(%rdx), %ecx
 794 0358 8948F8   		movl	%ecx, -8(%rax)
 795 035b 89D0     		movl	%edx, %eax
 796 035d EB9F     		jmp	.L80
 797              	.L84:
 798 035f 8B50F8   		movl	-8(%rax), %edx
 799 0362 8D4AFF   		leal	-1(%rdx), %ecx
 800 0365 8948F8   		movl	%ecx, -8(%rax)
 801 0368 89D0     		movl	%edx, %eax
 802 036a E95BFFFF 		jmp	.L85
 802      FF
 803              	.L105:
 804 036f E8000000 		call	__stack_chk_fail
 804      00
 805              		.cfi_endproc
 806              	.LFE1673:
 808              		.section	.text.unlikely
 809              	.LCOLDE18:
 810              		.text
 811              	.LHOTE18:
 812              		.set	_ZN8UnitTest12_GLOBAL__N_124MockDeferredTestReporterD1Ev,_ZN8UnitTest12_GLOBAL__N_124MockDefe
 813              		.section	.text.unlikely
 814              		.align 2
 815              	.LCOLDB19:
 816              		.text
 817              	.LHOTB19:
 818              		.align 2
 819 0374 6690662E 		.p2align 4,,15
 819      0F1F8400 
 819      00000000 
 821              	_ZN8UnitTest12_GLOBAL__N_124MockDeferredTestReporterD0Ev:
 822              	.LFB1675:
 823              		.cfi_startproc
 824 0380 4156     		pushq	%r14
 825              		.cfi_def_cfa_offset 16
 826              		.cfi_offset 14, -16
 827 0382 4155     		pushq	%r13
 828              		.cfi_def_cfa_offset 24
 829              		.cfi_offset 13, -24
 830 0384 4989FD   		movq	%rdi, %r13
 831 0387 4154     		pushq	%r12
 832              		.cfi_def_cfa_offset 32
 833              		.cfi_offset 12, -32
 834 0389 55       		pushq	%rbp
 835              		.cfi_def_cfa_offset 40
 836              		.cfi_offset 6, -40
 837 038a 53       		pushq	%rbx
 838              		.cfi_def_cfa_offset 48
 839              		.cfi_offset 3, -48
 840 038b 4883EC10 		subq	$16, %rsp
 841              		.cfi_def_cfa_offset 64
 842 038f 4C8B6710 		movq	16(%rdi), %r12
 843 0393 4C8B7708 		movq	8(%rdi), %r14
 844 0397 64488B04 		movq	%fs:40, %rax
 844      25280000 
 844      00
 845 03a0 48894424 		movq	%rax, 8(%rsp)
 845      08
 846 03a5 31C0     		xorl	%eax, %eax
 847 03a7 48C70700 		movq	$_ZTVN8UnitTest20DeferredTestReporterE+16, (%rdi)
 847      000000
 848 03ae 4D39F4   		cmpq	%r14, %r12
 849 03b1 0F84C900 		je	.L108
 849      0000
 850 03b7 660F1F84 		.p2align 4,,10
 850      00000000 
 850      00
 851              		.p2align 3
 852              	.L137:
 853 03c0 498B6E20 		movq	32(%r14), %rbp
 854 03c4 498B5E18 		movq	24(%r14), %rbx
 855 03c8 4839DD   		cmpq	%rbx, %rbp
 856 03cb 7457     		je	.L109
 857 03cd B8000000 		movl	$_ZL28__gthrw___pthread_key_createPjPFvPvE, %eax
 857      00
 858 03d2 4885C0   		testq	%rax, %rax
 859 03d5 7512     		jne	.L144
 860 03d7 E9110100 		jmp	.L115
 860      00
 861 03dc 0F1F4000 		.p2align 4,,10
 862              		.p2align 3
 863              	.L118:
 864 03e0 4883C310 		addq	$16, %rbx
 865 03e4 4839DD   		cmpq	%rbx, %rbp
 866 03e7 7437     		je	.L116
 867              	.L144:
 868 03e9 488B4308 		movq	8(%rbx), %rax
 869 03ed 488D78E8 		leaq	-24(%rax), %rdi
 870 03f1 4881FF00 		cmpq	$_ZNSs4_Rep20_S_empty_rep_storageE, %rdi
 870      000000
 871 03f8 74E6     		je	.L118
 872 03fa B9FFFFFF 		movl	$-1, %ecx
 872      FF
 873 03ff F00FC148 		lock xaddl	%ecx, -8(%rax)
 873      F8
 874 0404 85C9     		testl	%ecx, %ecx
 875 0406 7FD8     		jg	.L118
 876 0408 488D7424 		leaq	7(%rsp), %rsi
 876      07
 877 040d 4883C310 		addq	$16, %rbx
 878 0411 E8000000 		call	_ZNSs4_Rep10_M_destroyERKSaIcE
 878      00
 879 0416 4839DD   		cmpq	%rbx, %rbp
 880 0419 75CE     		jne	.L144
 881 041b 0F1F4400 		.p2align 4,,10
 881      00
 882              		.p2align 3
 883              	.L116:
 884 0420 498B6E18 		movq	24(%r14), %rbp
 885              	.L109:
 886 0424 4885ED   		testq	%rbp, %rbp
 887 0427 7408     		je	.L121
 888 0429 4889EF   		movq	%rbp, %rdi
 889 042c E8000000 		call	_ZdlPv
 889      00
 890              	.L121:
 891 0431 498B4610 		movq	16(%r14), %rax
 892 0435 488D78E8 		leaq	-24(%rax), %rdi
 893 0439 4881FF00 		cmpq	$_ZNSs4_Rep20_S_empty_rep_storageE, %rdi
 893      000000
 894 0440 0F852201 		jne	.L152
 894      0000
 895              	.L123:
 896 0446 498B4608 		movq	8(%r14), %rax
 897 044a 488D78E8 		leaq	-24(%rax), %rdi
 898 044e 4881FF00 		cmpq	$_ZNSs4_Rep20_S_empty_rep_storageE, %rdi
 898      000000
 899 0455 0F85DD00 		jne	.L153
 899      0000
 900              	.L128:
 901 045b 498B06   		movq	(%r14), %rax
 902 045e 488D78E8 		leaq	-24(%rax), %rdi
 903 0462 4881FF00 		cmpq	$_ZNSs4_Rep20_S_empty_rep_storageE, %rdi
 903      000000
 904 0469 0F859100 		jne	.L154
 904      0000
 905              	.L133:
 906 046f 4983C638 		addq	$56, %r14
 907 0473 4D39F4   		cmpq	%r14, %r12
 908 0476 0F8544FF 		jne	.L137
 908      FFFF
 909 047c 4D8B6508 		movq	8(%r13), %r12
 910              	.L108:
 911 0480 4D85E4   		testq	%r12, %r12
 912 0483 7408     		je	.L138
 913 0485 4C89E7   		movq	%r12, %rdi
 914 0488 E8000000 		call	_ZdlPv
 914      00
 915              	.L138:
 916 048d 4C89EF   		movq	%r13, %rdi
 917 0490 E8000000 		call	_ZN8UnitTest12TestReporterD2Ev
 917      00
 918 0495 4C89EF   		movq	%r13, %rdi
 919 0498 E8000000 		call	_ZdlPv
 919      00
 920 049d 488B4424 		movq	8(%rsp), %rax
 920      08
 921 04a2 64483304 		xorq	%fs:40, %rax
 921      25280000 
 921      00
 922 04ab 0F850E01 		jne	.L155
 922      0000
 923 04b1 4883C410 		addq	$16, %rsp
 924              		.cfi_remember_state
 925              		.cfi_def_cfa_offset 48
 926 04b5 5B       		popq	%rbx
 927              		.cfi_def_cfa_offset 40
 928 04b6 5D       		popq	%rbp
 929              		.cfi_def_cfa_offset 32
 930 04b7 415C     		popq	%r12
 931              		.cfi_def_cfa_offset 24
 932 04b9 415D     		popq	%r13
 933              		.cfi_def_cfa_offset 16
 934 04bb 415E     		popq	%r14
 935              		.cfi_def_cfa_offset 8
 936 04bd C3       		ret
 937 04be 6690     		.p2align 4,,10
 938              		.p2align 3
 939              	.L156:
 940              		.cfi_restore_state
 941 04c0 8B50F8   		movl	-8(%rax), %edx
 942 04c3 8D4AFF   		leal	-1(%rdx), %ecx
 943 04c6 85D2     		testl	%edx, %edx
 944 04c8 8948F8   		movl	%ecx, -8(%rax)
 945 04cb 7F13     		jg	.L113
 946 04cd 488D7424 		leaq	7(%rsp), %rsi
 946      07
 947 04d2 E8000000 		call	_ZNSs4_Rep10_M_destroyERKSaIcE
 947      00
 948 04d7 660F1F84 		.p2align 4,,10
 948      00000000 
 948      00
 949              		.p2align 3
 950              	.L113:
 951 04e0 4883C310 		addq	$16, %rbx
 952 04e4 4839DD   		cmpq	%rbx, %rbp
 953 04e7 0F8433FF 		je	.L116
 953      FFFF
 954              	.L115:
 955 04ed 488B4308 		movq	8(%rbx), %rax
 956 04f1 488D78E8 		leaq	-24(%rax), %rdi
 957 04f5 4881FF00 		cmpq	$_ZNSs4_Rep20_S_empty_rep_storageE, %rdi
 957      000000
 958 04fc 74E2     		je	.L113
 959 04fe EBC0     		jmp	.L156
 960              		.p2align 4,,10
 961              		.p2align 3
 962              	.L154:
 963 0500 BA000000 		movl	$_ZL28__gthrw___pthread_key_createPjPFvPvE, %edx
 963      00
 964 0505 4885D2   		testq	%rdx, %rdx
 965 0508 0F84A100 		je	.L134
 965      0000
 966 050e BAFFFFFF 		movl	$-1, %edx
 966      FF
 967 0513 F00FC150 		lock xaddl	%edx, -8(%rax)
 967      F8
 968 0518 89D0     		movl	%edx, %eax
 969              	.L135:
 970 051a 85C0     		testl	%eax, %eax
 971 051c 0F8F4DFF 		jg	.L133
 971      FFFF
 972 0522 488D7424 		leaq	7(%rsp), %rsi
 972      07
 973 0527 E8000000 		call	_ZNSs4_Rep10_M_destroyERKSaIcE
 973      00
 974 052c E93EFFFF 		jmp	.L133
 974      FF
 975              		.p2align 4,,10
 976 0531 0F1F8000 		.p2align 3
 976      000000
 977              	.L153:
 978 0538 BA000000 		movl	$_ZL28__gthrw___pthread_key_createPjPFvPvE, %edx
 978      00
 979 053d 4885D2   		testq	%rdx, %rdx
 980 0540 7460     		je	.L129
 981 0542 BAFFFFFF 		movl	$-1, %edx
 981      FF
 982 0547 F00FC150 		lock xaddl	%edx, -8(%rax)
 982      F8
 983 054c 89D0     		movl	%edx, %eax
 984              	.L130:
 985 054e 85C0     		testl	%eax, %eax
 986 0550 0F8F05FF 		jg	.L128
 986      FFFF
 987 0556 488D7424 		leaq	7(%rsp), %rsi
 987      07
 988 055b E8000000 		call	_ZNSs4_Rep10_M_destroyERKSaIcE
 988      00
 989 0560 E9F6FEFF 		jmp	.L128
 989      FF
 990              		.p2align 4,,10
 991 0565 0F1F00   		.p2align 3
 992              	.L152:
 993 0568 BA000000 		movl	$_ZL28__gthrw___pthread_key_createPjPFvPvE, %edx
 993      00
 994 056d 4885D2   		testq	%rdx, %rdx
 995 0570 7423     		je	.L124
 996 0572 BAFFFFFF 		movl	$-1, %edx
 996      FF
 997 0577 F00FC150 		lock xaddl	%edx, -8(%rax)
 997      F8
 998 057c 89D0     		movl	%edx, %eax
 999              	.L125:
 1000 057e 85C0     		testl	%eax, %eax
 1001 0580 0F8FC0FE 		jg	.L123
 1001      FFFF
 1002 0586 488D7424 		leaq	7(%rsp), %rsi
 1002      07
 1003 058b E8000000 		call	_ZNSs4_Rep10_M_destroyERKSaIcE
 1003      00
 1004 0590 E9B1FEFF 		jmp	.L123
 1004      FF
 1005              	.L124:
 1006 0595 8B50F8   		movl	-8(%rax), %edx
 1007 0598 8D4AFF   		leal	-1(%rdx), %ecx
 1008 059b 8948F8   		movl	%ecx, -8(%rax)
 1009 059e 89D0     		movl	%edx, %eax
 1010 05a0 EBDC     		jmp	.L125
 1011              	.L129:
 1012 05a2 8B50F8   		movl	-8(%rax), %edx
 1013 05a5 8D4AFF   		leal	-1(%rdx), %ecx
 1014 05a8 8948F8   		movl	%ecx, -8(%rax)
 1015 05ab 89D0     		movl	%edx, %eax
 1016 05ad EB9F     		jmp	.L130
 1017              	.L134:
 1018 05af 8B50F8   		movl	-8(%rax), %edx
 1019 05b2 8D4AFF   		leal	-1(%rdx), %ecx
 1020 05b5 8948F8   		movl	%ecx, -8(%rax)
 1021 05b8 89D0     		movl	%edx, %eax
 1022 05ba E95BFFFF 		jmp	.L135
 1022      FF
 1023              	.L155:
 1024 05bf E8000000 		call	__stack_chk_fail
 1024      00
 1025              		.cfi_endproc
 1026              	.LFE1675:
 1028              		.section	.text.unlikely
 1029              	.LCOLDE19:
 1030              		.text
 1031              	.LHOTE19:
 1032              		.section	.text.unlikely
 1033              		.align 2
 1034              	.LCOLDB20:
 1035              	.LHOTB20:
 1036              		.align 2
 1038              	_ZN8UnitTest12_GLOBAL__N_127DeferredTestReporterFixtureD2Ev:
 1039              	.LFB1408:
 1040              		.cfi_startproc
 1041 0028 4156     		pushq	%r14
 1042              		.cfi_def_cfa_offset 16
 1043              		.cfi_offset 14, -16
 1044 002a 4155     		pushq	%r13
 1045              		.cfi_def_cfa_offset 24
 1046              		.cfi_offset 13, -24
 1047 002c 4989FD   		movq	%rdi, %r13
 1048 002f 4154     		pushq	%r12
 1049              		.cfi_def_cfa_offset 32
 1050              		.cfi_offset 12, -32
 1051 0031 55       		pushq	%rbp
 1052              		.cfi_def_cfa_offset 40
 1053              		.cfi_offset 6, -40
 1054 0032 53       		pushq	%rbx
 1055              		.cfi_def_cfa_offset 48
 1056              		.cfi_offset 3, -48
 1057 0033 4883EC10 		subq	$16, %rsp
 1058              		.cfi_def_cfa_offset 64
 1059 0037 64488B04 		movq	%fs:40, %rax
 1059      25280000 
 1059      00
 1060 0040 48894424 		movq	%rax, 8(%rsp)
 1060      08
 1061 0045 31C0     		xorl	%eax, %eax
 1062 0047 488B4730 		movq	48(%rdi), %rax
 1063 004b 488D78E8 		leaq	-24(%rax), %rdi
 1064 004f 4881FF00 		cmpq	$_ZNSs4_Rep20_S_empty_rep_storageE, %rdi
 1064      000000
 1065 0056 742F     		je	.L159
 1066 0058 BA000000 		movl	$_ZL28__gthrw___pthread_key_createPjPFvPvE, %edx
 1066      00
 1067 005d 4885D2   		testq	%rdx, %rdx
 1068 0060 740C     		je	.L160
 1069 0062 83CAFF   		orl	$-1, %edx
 1070 0065 F00FC150 		lock xaddl	%edx, -8(%rax)
 1070      F8
 1071 006a 89D0     		movl	%edx, %eax
 1072 006c EB0B     		jmp	.L161
 1073              	.L160:
 1074 006e 8B50F8   		movl	-8(%rax), %edx
 1075 0071 8D4AFF   		leal	-1(%rdx), %ecx
 1076 0074 8948F8   		movl	%ecx, -8(%rax)
 1077 0077 89D0     		movl	%edx, %eax
 1078              	.L161:
 1079 0079 85C0     		testl	%eax, %eax
 1080 007b 7F0A     		jg	.L159
 1081 007d 488D7424 		leaq	7(%rsp), %rsi
 1081      07
 1082 0082 E8000000 		call	_ZNSs4_Rep10_M_destroyERKSaIcE
 1082      00
 1083              	.L159:
 1084 0087 498B4528 		movq	40(%r13), %rax
 1085 008b 488D78E8 		leaq	-24(%rax), %rdi
 1086 008f 4881FF00 		cmpq	$_ZNSs4_Rep20_S_empty_rep_storageE, %rdi
 1086      000000
 1087 0096 742F     		je	.L164
 1088 0098 BA000000 		movl	$_ZL28__gthrw___pthread_key_createPjPFvPvE, %edx
 1088      00
 1089 009d 4885D2   		testq	%rdx, %rdx
 1090 00a0 740C     		je	.L165
 1091 00a2 83CAFF   		orl	$-1, %edx
 1092 00a5 F00FC150 		lock xaddl	%edx, -8(%rax)
 1092      F8
 1093 00aa 89D0     		movl	%edx, %eax
 1094 00ac EB0B     		jmp	.L166
 1095              	.L165:
 1096 00ae 8B50F8   		movl	-8(%rax), %edx
 1097 00b1 8D4AFF   		leal	-1(%rdx), %ecx
 1098 00b4 8948F8   		movl	%ecx, -8(%rax)
 1099 00b7 89D0     		movl	%edx, %eax
 1100              	.L166:
 1101 00b9 85C0     		testl	%eax, %eax
 1102 00bb 7F0A     		jg	.L164
 1103 00bd 488D7424 		leaq	7(%rsp), %rsi
 1103      07
 1104 00c2 E8000000 		call	_ZNSs4_Rep10_M_destroyERKSaIcE
 1104      00
 1105              	.L164:
 1106 00c7 498B4520 		movq	32(%r13), %rax
 1107 00cb 488D78E8 		leaq	-24(%rax), %rdi
 1108 00cf 4881FF00 		cmpq	$_ZNSs4_Rep20_S_empty_rep_storageE, %rdi
 1108      000000
 1109 00d6 742F     		je	.L169
 1110 00d8 BA000000 		movl	$_ZL28__gthrw___pthread_key_createPjPFvPvE, %edx
 1110      00
 1111 00dd 4885D2   		testq	%rdx, %rdx
 1112 00e0 740C     		je	.L170
 1113 00e2 83CAFF   		orl	$-1, %edx
 1114 00e5 F00FC150 		lock xaddl	%edx, -8(%rax)
 1114      F8
 1115 00ea 89D0     		movl	%edx, %eax
 1116 00ec EB0B     		jmp	.L171
 1117              	.L170:
 1118 00ee 8B50F8   		movl	-8(%rax), %edx
 1119 00f1 8D4AFF   		leal	-1(%rdx), %ecx
 1120 00f4 8948F8   		movl	%ecx, -8(%rax)
 1121 00f7 89D0     		movl	%edx, %eax
 1122              	.L171:
 1123 00f9 85C0     		testl	%eax, %eax
 1124 00fb 7F0A     		jg	.L169
 1125 00fd 488D7424 		leaq	7(%rsp), %rsi
 1125      07
 1126 0102 E8000000 		call	_ZNSs4_Rep10_M_destroyERKSaIcE
 1126      00
 1127              	.L169:
 1128 0107 4D8B6510 		movq	16(%r13), %r12
 1129 010b 4D8B7508 		movq	8(%r13), %r14
 1130 010f 49C74500 		movq	$_ZTVN8UnitTest20DeferredTestReporterE+16, 0(%r13)
 1130      00000000 
 1131              	.L173:
 1132 0117 4D39F4   		cmpq	%r14, %r12
 1133 011a 0F842901 		je	.L209
 1133      0000
 1134 0120 498B6E20 		movq	32(%r14), %rbp
 1135 0124 498B5E18 		movq	24(%r14), %rbx
 1136              	.L174:
 1137 0128 4839EB   		cmpq	%rbp, %rbx
 1138 012b 7446     		je	.L210
 1139 012d 488B4308 		movq	8(%rbx), %rax
 1140 0131 488D78E8 		leaq	-24(%rax), %rdi
 1141 0135 4881FF00 		cmpq	$_ZNSs4_Rep20_S_empty_rep_storageE, %rdi
 1141      000000
 1142 013c 742F     		je	.L200
 1143 013e B9000000 		movl	$_ZL28__gthrw___pthread_key_createPjPFvPvE, %ecx
 1143      00
 1144 0143 4885C9   		testq	%rcx, %rcx
 1145 0146 740C     		je	.L177
 1146 0148 83C9FF   		orl	$-1, %ecx
 1147 014b F00FC148 		lock xaddl	%ecx, -8(%rax)
 1147      F8
 1148 0150 89C8     		movl	%ecx, %eax
 1149 0152 EB0B     		jmp	.L178
 1150              	.L177:
 1151 0154 8B48F8   		movl	-8(%rax), %ecx
 1152 0157 8D71FF   		leal	-1(%rcx), %esi
 1153 015a 8970F8   		movl	%esi, -8(%rax)
 1154 015d 89C8     		movl	%ecx, %eax
 1155              	.L178:
 1156 015f 85C0     		testl	%eax, %eax
 1157 0161 7F0A     		jg	.L200
 1158 0163 488D7424 		leaq	7(%rsp), %rsi
 1158      07
 1159 0168 E8000000 		call	_ZNSs4_Rep10_M_destroyERKSaIcE
 1159      00
 1160              	.L200:
 1161 016d 4883C310 		addq	$16, %rbx
 1162 0171 EBB5     		jmp	.L174
 1163              	.L210:
 1164 0173 498B7E18 		movq	24(%r14), %rdi
 1165 0177 4885FF   		testq	%rdi, %rdi
 1166 017a 7405     		je	.L181
 1167 017c E8000000 		call	_ZdlPv
 1167      00
 1168              	.L181:
 1169 0181 498B4610 		movq	16(%r14), %rax
 1170 0185 488D78E8 		leaq	-24(%rax), %rdi
 1171 0189 4881FF00 		cmpq	$_ZNSs4_Rep20_S_empty_rep_storageE, %rdi
 1171      000000
 1172 0190 742F     		je	.L183
 1173 0192 BA000000 		movl	$_ZL28__gthrw___pthread_key_createPjPFvPvE, %edx
 1173      00
 1174 0197 4885D2   		testq	%rdx, %rdx
 1175 019a 740C     		je	.L184
 1176 019c 83CAFF   		orl	$-1, %edx
 1177 019f F00FC150 		lock xaddl	%edx, -8(%rax)
 1177      F8
 1178 01a4 89D0     		movl	%edx, %eax
 1179 01a6 EB0B     		jmp	.L185
 1180              	.L184:
 1181 01a8 8B50F8   		movl	-8(%rax), %edx
 1182 01ab 8D4AFF   		leal	-1(%rdx), %ecx
 1183 01ae 8948F8   		movl	%ecx, -8(%rax)
 1184 01b1 89D0     		movl	%edx, %eax
 1185              	.L185:
 1186 01b3 85C0     		testl	%eax, %eax
 1187 01b5 7F0A     		jg	.L183
 1188 01b7 488D7424 		leaq	7(%rsp), %rsi
 1188      07
 1189 01bc E8000000 		call	_ZNSs4_Rep10_M_destroyERKSaIcE
 1189      00
 1190              	.L183:
 1191 01c1 498B4608 		movq	8(%r14), %rax
 1192 01c5 488D78E8 		leaq	-24(%rax), %rdi
 1193 01c9 4881FF00 		cmpq	$_ZNSs4_Rep20_S_empty_rep_storageE, %rdi
 1193      000000
 1194 01d0 742F     		je	.L188
 1195 01d2 BA000000 		movl	$_ZL28__gthrw___pthread_key_createPjPFvPvE, %edx
 1195      00
 1196 01d7 4885D2   		testq	%rdx, %rdx
 1197 01da 740C     		je	.L189
 1198 01dc 83CAFF   		orl	$-1, %edx
 1199 01df F00FC150 		lock xaddl	%edx, -8(%rax)
 1199      F8
 1200 01e4 89D0     		movl	%edx, %eax
 1201 01e6 EB0B     		jmp	.L190
 1202              	.L189:
 1203 01e8 8B50F8   		movl	-8(%rax), %edx
 1204 01eb 8D4AFF   		leal	-1(%rdx), %ecx
 1205 01ee 8948F8   		movl	%ecx, -8(%rax)
 1206 01f1 89D0     		movl	%edx, %eax
 1207              	.L190:
 1208 01f3 85C0     		testl	%eax, %eax
 1209 01f5 7F0A     		jg	.L188
 1210 01f7 488D7424 		leaq	7(%rsp), %rsi
 1210      07
 1211 01fc E8000000 		call	_ZNSs4_Rep10_M_destroyERKSaIcE
 1211      00
 1212              	.L188:
 1213 0201 498B06   		movq	(%r14), %rax
 1214 0204 488D78E8 		leaq	-24(%rax), %rdi
 1215 0208 4881FF00 		cmpq	$_ZNSs4_Rep20_S_empty_rep_storageE, %rdi
 1215      000000
 1216 020f 742F     		je	.L201
 1217 0211 BA000000 		movl	$_ZL28__gthrw___pthread_key_createPjPFvPvE, %edx
 1217      00
 1218 0216 4885D2   		testq	%rdx, %rdx
 1219 0219 740C     		je	.L194
 1220 021b 83CAFF   		orl	$-1, %edx
 1221 021e F00FC150 		lock xaddl	%edx, -8(%rax)
 1221      F8
 1222 0223 89D0     		movl	%edx, %eax
 1223 0225 EB0B     		jmp	.L195
 1224              	.L194:
 1225 0227 8B50F8   		movl	-8(%rax), %edx
 1226 022a 8D4AFF   		leal	-1(%rdx), %ecx
 1227 022d 8948F8   		movl	%ecx, -8(%rax)
 1228 0230 89D0     		movl	%edx, %eax
 1229              	.L195:
 1230 0232 85C0     		testl	%eax, %eax
 1231 0234 7F0A     		jg	.L201
 1232 0236 488D7424 		leaq	7(%rsp), %rsi
 1232      07
 1233 023b E8000000 		call	_ZNSs4_Rep10_M_destroyERKSaIcE
 1233      00
 1234              	.L201:
 1235 0240 4983C638 		addq	$56, %r14
 1236 0244 E9CEFEFF 		jmp	.L173
 1236      FF
 1237              	.L209:
 1238 0249 498B7D08 		movq	8(%r13), %rdi
 1239 024d 4885FF   		testq	%rdi, %rdi
 1240 0250 7405     		je	.L198
 1241 0252 E8000000 		call	_ZdlPv
 1241      00
 1242              	.L198:
 1243 0257 4C89EF   		movq	%r13, %rdi
 1244 025a E8000000 		call	_ZN8UnitTest12TestReporterD2Ev
 1244      00
 1245 025f 488B4424 		movq	8(%rsp), %rax
 1245      08
 1246 0264 64483304 		xorq	%fs:40, %rax
 1246      25280000 
 1246      00
 1247 026d 7405     		je	.L199
 1248 026f E8000000 		call	__stack_chk_fail
 1248      00
 1249              	.L199:
 1250 0274 4883C410 		addq	$16, %rsp
 1251              		.cfi_def_cfa_offset 48
 1252 0278 5B       		popq	%rbx
 1253              		.cfi_def_cfa_offset 40
 1254 0279 5D       		popq	%rbp
 1255              		.cfi_def_cfa_offset 32
 1256 027a 415C     		popq	%r12
 1257              		.cfi_def_cfa_offset 24
 1258 027c 415D     		popq	%r13
 1259              		.cfi_def_cfa_offset 16
 1260 027e 415E     		popq	%r14
 1261              		.cfi_def_cfa_offset 8
 1262 0280 C3       		ret
 1263              		.cfi_endproc
 1264              	.LFE1408:
 1266              	.LCOLDE20:
 1267              	.LHOTE20:
 1268              		.section	.text.unlikely._ZNSt15basic_stringbufIcSt11char_traitsIcESaIcEED2Ev,"axG",@progbits,_ZNSt
 1269              		.align 2
 1270              	.LCOLDB21:
 1271              		.section	.text._ZNSt15basic_stringbufIcSt11char_traitsIcESaIcEED2Ev,"axG",@progbits,_ZNSt15basic_s
 1272              	.LHOTB21:
 1273              		.align 2
 1274              		.p2align 4,,15
 1275              		.weak	_ZNSt15basic_stringbufIcSt11char_traitsIcESaIcEED2Ev
 1277              	_ZNSt15basic_stringbufIcSt11char_traitsIcESaIcEED2Ev:
 1278              	.LFB1484:
 1279              		.cfi_startproc
 1280 0000 53       		pushq	%rbx
 1281              		.cfi_def_cfa_offset 16
 1282              		.cfi_offset 3, -16
 1283 0001 4889FB   		movq	%rdi, %rbx
 1284 0004 4883EC10 		subq	$16, %rsp
 1285              		.cfi_def_cfa_offset 32
 1286 0008 48C70700 		movq	$_ZTVSt15basic_stringbufIcSt11char_traitsIcESaIcEE+16, (%rdi)
 1286      000000
 1287 000f 64488B04 		movq	%fs:40, %rax
 1287      25280000 
 1287      00
 1288 0018 48894424 		movq	%rax, 8(%rsp)
 1288      08
 1289 001d 31C0     		xorl	%eax, %eax
 1290 001f 488B4748 		movq	72(%rdi), %rax
 1291 0023 488D78E8 		leaq	-24(%rax), %rdi
 1292 0027 4881FF00 		cmpq	$_ZNSs4_Rep20_S_empty_rep_storageE, %rdi
 1292      000000
 1293 002e 7530     		jne	.L219
 1294              	.L213:
 1295 0030 488D7B38 		leaq	56(%rbx), %rdi
 1296 0034 48C70300 		movq	$_ZTVSt15basic_streambufIcSt11char_traitsIcEE+16, (%rbx)
 1296      000000
 1297 003b E8000000 		call	_ZNSt6localeD1Ev
 1297      00
 1298 0040 488B4424 		movq	8(%rsp), %rax
 1298      08
 1299 0045 64483304 		xorq	%fs:40, %rax
 1299      25280000 
 1299      00
 1300 004e 754D     		jne	.L220
 1301 0050 4883C410 		addq	$16, %rsp
 1302              		.cfi_remember_state
 1303              		.cfi_def_cfa_offset 16
 1304 0054 5B       		popq	%rbx
 1305              		.cfi_def_cfa_offset 8
 1306 0055 C3       		ret
 1307 0056 662E0F1F 		.p2align 4,,10
 1307      84000000 
 1307      0000
 1308              		.p2align 3
 1309              	.L219:
 1310              		.cfi_restore_state
 1311 0060 BA000000 		movl	$_ZL28__gthrw___pthread_key_createPjPFvPvE, %edx
 1311      00
 1312 0065 4885D2   		testq	%rdx, %rdx
 1313 0068 7426     		je	.L214
 1314 006a BAFFFFFF 		movl	$-1, %edx
 1314      FF
 1315 006f F00FC150 		lock xaddl	%edx, -8(%rax)
 1315      F8
 1316 0074 89D0     		movl	%edx, %eax
 1317              	.L215:
 1318 0076 85C0     		testl	%eax, %eax
 1319 0078 7FB6     		jg	.L213
 1320 007a 488D7424 		leaq	7(%rsp), %rsi
 1320      07
 1321 007f E8000000 		call	_ZNSs4_Rep10_M_destroyERKSaIcE
 1321      00
 1322 0084 EBAA     		jmp	.L213
 1323 0086 662E0F1F 		.p2align 4,,10
 1323      84000000 
 1323      0000
 1324              		.p2align 3
 1325              	.L214:
 1326 0090 8B50F8   		movl	-8(%rax), %edx
 1327 0093 8D4AFF   		leal	-1(%rdx), %ecx
 1328 0096 8948F8   		movl	%ecx, -8(%rax)
 1329 0099 89D0     		movl	%edx, %eax
 1330 009b EBD9     		jmp	.L215
 1331              	.L220:
 1332 009d E8000000 		call	__stack_chk_fail
 1332      00
 1333              		.cfi_endproc
 1334              	.LFE1484:
 1336              		.section	.text.unlikely._ZNSt15basic_stringbufIcSt11char_traitsIcESaIcEED2Ev,"axG",@progbits,_ZNSt
 1337              	.LCOLDE21:
 1338              		.section	.text._ZNSt15basic_stringbufIcSt11char_traitsIcESaIcEED2Ev,"axG",@progbits,_ZNSt15basic_s
 1339              	.LHOTE21:
 1340              		.weak	_ZNSt15basic_stringbufIcSt11char_traitsIcESaIcEED1Ev
 1341              		.set	_ZNSt15basic_stringbufIcSt11char_traitsIcESaIcEED1Ev,_ZNSt15basic_stringbufIcSt11char_traitsI
 1342              		.section	.text.unlikely._ZN8UnitTest15MemoryOutStreamC1Ev,"axG",@progbits,_ZN8UnitTest15MemoryOutS
 1343              		.align 2
 1344              	.LCOLDB22:
 1345              		.section	.text._ZN8UnitTest15MemoryOutStreamC1Ev,"axG",@progbits,_ZN8UnitTest15MemoryOutStreamC1Ev
 1346              	.LHOTB22:
 1347              		.align 2
 1348              		.p2align 4,,15
 1349              		.weak	_ZN8UnitTest15MemoryOutStreamC1Ev
 1351              	_ZN8UnitTest15MemoryOutStreamC1Ev:
 1352              	.LFB1080:
 1353              		.cfi_startproc
 1354              		.cfi_personality 0x3,__gxx_personality_v0
 1355              		.cfi_lsda 0x3,.LLSDA1080
 1356 0000 4155     		pushq	%r13
 1357              		.cfi_def_cfa_offset 16
 1358              		.cfi_offset 13, -16
 1359 0002 4154     		pushq	%r12
 1360              		.cfi_def_cfa_offset 24
 1361              		.cfi_offset 12, -24
 1362 0004 55       		pushq	%rbp
 1363              		.cfi_def_cfa_offset 32
 1364              		.cfi_offset 6, -32
 1365 0005 488D6F60 		leaq	96(%rdi), %rbp
 1366 0009 53       		pushq	%rbx
 1367              		.cfi_def_cfa_offset 40
 1368              		.cfi_offset 3, -40
 1369 000a 4889FB   		movq	%rdi, %rbx
 1370 000d 4883EC08 		subq	$8, %rsp
 1371              		.cfi_def_cfa_offset 48
 1372 0011 4889EF   		movq	%rbp, %rdi
 1373 0014 E8000000 		call	_ZNSt8ios_baseC2Ev
 1373      00
 1374 0019 48C78338 		movq	$0, 312(%rbx)
 1374      01000000 
 1374      000000
 1375 0024 C6834001 		movb	$0, 320(%rbx)
 1375      000000
 1376 002b 31F6     		xorl	%esi, %esi
 1377 002d C6834101 		movb	$0, 321(%rbx)
 1377      000000
 1378 0034 48C78348 		movq	$0, 328(%rbx)
 1378      01000000 
 1378      000000
 1379 003f 4889EF   		movq	%rbp, %rdi
 1380 0042 48C78350 		movq	$0, 336(%rbx)
 1380      01000000 
 1380      000000
 1381 004d 48C78358 		movq	$0, 344(%rbx)
 1381      01000000 
 1381      000000
 1382 0058 48C78360 		movq	$0, 352(%rbx)
 1382      01000000 
 1382      000000
 1383 0063 48C70300 		movq	$_ZTCN8UnitTest15MemoryOutStreamE0_So+24, (%rbx)
 1383      000000
 1384 006a 48C74360 		movq	$_ZTCN8UnitTest15MemoryOutStreamE0_So+64, 96(%rbx)
 1384      00000000 
 1385              	.LEHB0:
 1386 0072 E8000000 		call	_ZNSt9basic_iosIcSt11char_traitsIcEE4initEPSt15basic_streambufIcS1_E
 1386      00
 1387              	.LEHE0:
 1388 0077 488D7B40 		leaq	64(%rbx), %rdi
 1389 007b 48C70300 		movq	$_ZTCN8UnitTest15MemoryOutStreamE0_St19basic_ostringstreamIcSt11char_traitsIcESaIcEE+24, (%rb
 1389      000000
 1390 0082 48C74360 		movq	$_ZTCN8UnitTest15MemoryOutStreamE0_St19basic_ostringstreamIcSt11char_traitsIcESaIcEE+64, 96(%
 1390      00000000 
 1391 008a 48C74308 		movq	$_ZTVSt15basic_streambufIcSt11char_traitsIcEE+16, 8(%rbx)
 1391      00000000 
 1392 0092 48C74310 		movq	$0, 16(%rbx)
 1392      00000000 
 1393 009a 4C8D6308 		leaq	8(%rbx), %r12
 1394 009e 48C74318 		movq	$0, 24(%rbx)
 1394      00000000 
 1395 00a6 48C74320 		movq	$0, 32(%rbx)
 1395      00000000 
 1396 00ae 48C74328 		movq	$0, 40(%rbx)
 1396      00000000 
 1397 00b6 48C74330 		movq	$0, 48(%rbx)
 1397      00000000 
 1398 00be 48C74338 		movq	$0, 56(%rbx)
 1398      00000000 
 1399 00c6 E8000000 		call	_ZNSt6localeC1Ev
 1399      00
 1400 00cb 488B03   		movq	(%rbx), %rax
 1401 00ce 4889DF   		movq	%rbx, %rdi
 1402 00d1 48C74308 		movq	$_ZTVSt15basic_stringbufIcSt11char_traitsIcESaIcEE+16, 8(%rbx)
 1402      00000000 
 1403 00d9 C7434810 		movl	$16, 72(%rbx)
 1403      000000
 1404 00e0 48C74350 		movq	$_ZNSs4_Rep20_S_empty_rep_storageE+24, 80(%rbx)
 1404      00000000 
 1405 00e8 4C89E6   		movq	%r12, %rsi
 1406 00eb 480378E8 		addq	-24(%rax), %rdi
 1407              	.LEHB1:
 1408 00ef E8000000 		call	_ZNSt9basic_iosIcSt11char_traitsIcEE4initEPSt15basic_streambufIcS1_E
 1408      00
 1409              	.LEHE1:
 1410 00f4 48C70300 		movq	$_ZTVN8UnitTest15MemoryOutStreamE+24, (%rbx)
 1410      000000
 1411 00fb 48C74360 		movq	$_ZTVN8UnitTest15MemoryOutStreamE+64, 96(%rbx)
 1411      00000000 
 1412 0103 48C74358 		movq	$_ZNSs4_Rep20_S_empty_rep_storageE+24, 88(%rbx)
 1412      00000000 
 1413 010b 4883C408 		addq	$8, %rsp
 1414              		.cfi_remember_state
 1415              		.cfi_def_cfa_offset 40
 1416 010f 5B       		popq	%rbx
 1417              		.cfi_def_cfa_offset 32
 1418 0110 5D       		popq	%rbp
 1419              		.cfi_def_cfa_offset 24
 1420 0111 415C     		popq	%r12
 1421              		.cfi_def_cfa_offset 16
 1422 0113 415D     		popq	%r13
 1423              		.cfi_def_cfa_offset 8
 1424 0115 C3       		ret
 1425              	.L225:
 1426              		.cfi_restore_state
 1427 0116 4989C4   		movq	%rax, %r12
 1428 0119 EB0E     		jmp	.L224
 1429              	.L226:
 1430 011b 4989C5   		movq	%rax, %r13
 1431              	.L223:
 1432 011e 4C89E7   		movq	%r12, %rdi
 1433 0121 4D89EC   		movq	%r13, %r12
 1434 0124 E8000000 		call	_ZNSt15basic_stringbufIcSt11char_traitsIcESaIcEED1Ev
 1434      00
 1435              	.L224:
 1436 0129 4889EF   		movq	%rbp, %rdi
 1437 012c 48C74360 		movq	$_ZTVSt9basic_iosIcSt11char_traitsIcEE+16, 96(%rbx)
 1437      00000000 
 1438 0134 E8000000 		call	_ZNSt8ios_baseD2Ev
 1438      00
 1439 0139 4C89E7   		movq	%r12, %rdi
 1440              	.LEHB2:
 1441 013c E8000000 		call	_Unwind_Resume
 1441      00
 1442              	.LEHE2:
 1443              		.cfi_endproc
 1444              	.LFE1080:
 1445              		.globl	__gxx_personality_v0
 1446              		.section	.gcc_except_table._ZN8UnitTest15MemoryOutStreamC1Ev,"aG",@progbits,_ZN8UnitTest15MemoryOu
 1447              	.LLSDA1080:
 1448 0000 FF       		.byte	0xff
 1449 0001 FF       		.byte	0xff
 1450 0002 01       		.byte	0x1
 1451 0003 10       		.uleb128 .LLSDACSE1080-.LLSDACSB1080
 1452              	.LLSDACSB1080:
 1453 0004 72       		.uleb128 .LEHB0-.LFB1080
 1454 0005 05       		.uleb128 .LEHE0-.LEHB0
 1455 0006 9602     		.uleb128 .L225-.LFB1080
 1456 0008 00       		.uleb128 0
 1457 0009 EF01     		.uleb128 .LEHB1-.LFB1080
 1458 000b 05       		.uleb128 .LEHE1-.LEHB1
 1459 000c 9B02     		.uleb128 .L226-.LFB1080
 1460 000e 00       		.uleb128 0
 1461 000f BC02     		.uleb128 .LEHB2-.LFB1080
 1462 0011 05       		.uleb128 .LEHE2-.LEHB2
 1463 0012 00       		.uleb128 0
 1464 0013 00       		.uleb128 0
 1465              	.LLSDACSE1080:
 1466              		.section	.text._ZN8UnitTest15MemoryOutStreamC1Ev,"axG",@progbits,_ZN8UnitTest15MemoryOutStreamC1Ev
 1468              		.section	.text.unlikely._ZN8UnitTest15MemoryOutStreamC1Ev,"axG",@progbits,_ZN8UnitTest15MemoryOutS
 1469              	.LCOLDE22:
 1470              		.section	.text._ZN8UnitTest15MemoryOutStreamC1Ev,"axG",@progbits,_ZN8UnitTest15MemoryOutStreamC1Ev
 1471              	.LHOTE22:
 1472              		.section	.rodata.str1.1,"aMS",@progbits,1
 1473              	.LC23:
 1474 0000 556E6861 		.string	"Unhandled system exception"
 1474      6E646C65 
 1474      64207379 
 1474      7374656D 
 1474      20657863 
 1475              		.section	.rodata.str1.8,"aMS",@progbits,1
 1476              		.align 8
 1477              	.LC25:
 1478 0000 76656374 		.string	"vector::_M_range_check: __n (which is %zu) >= this->size() (which is %zu)"
 1478      6F723A3A 
 1478      5F4D5F72 
 1478      616E6765 
 1478      5F636865 
 1479              		.section	.rodata.str1.1
 1480              	.LC28:
 1481 001b 45787065 		.string	"Expected "
 1481      63746564 
 1481      2000
 1482              	.LC30:
 1483 0025 202B2F2D 		.string	" +/- "
 1483      2000
 1484              	.LC32:
 1485 002b 20627574 		.string	" but was "
 1485      20776173 
 1485      2000
 1486              		.section	.rodata.str1.8
 1487 004a 00000000 		.align 8
 1487      0000
 1488              	.LC33:
 1489 0050 556E6861 		.string	"Unhandled exception in CHECK_CLOSE(elapsed, result.timeElapsed)"
 1489      6E646C65 
 1489      64206578 
 1489      63657074 
 1489      696F6E20 
 1490              		.section	.rodata.str1.1
 1491              	.LC34:
 1492 0035 556E6861 		.string	"Unhandled exception: "
 1492      6E646C65 
 1492      64206578 
 1492      63657074 
 1492      696F6E3A 
 1493              	.LC35:
 1494 004b 556E6861 		.string	"Unhandled exception: Crash!"
 1494      6E646C65 
 1494      64206578 
 1494      63657074 
 1494      696F6E3A 
 1495              		.section	.text.unlikely
 1496              	.LCOLDB36:
 1497              		.text
 1498              	.LHOTB36:
 1499 05c4 6690662E 		.p2align 4,,15
 1499      0F1F8400 
 1499      00000000 
 1501              	_ZN8UnitTest11ExecuteTestINS_12_GLOBAL__N_162DeferredTestReporterFixtureReportTestEndCapturesTestTi
 1502              	.LFB1523:
 1503              		.cfi_startproc
 1504              		.cfi_personality 0x3,__gxx_personality_v0
 1505              		.cfi_lsda 0x3,.LLSDA1523
 1506 05d0 4154     		pushq	%r12
 1507              		.cfi_def_cfa_offset 16
 1508              		.cfi_offset 12, -16
 1509 05d2 55       		pushq	%rbp
 1510              		.cfi_def_cfa_offset 24
 1511              		.cfi_offset 6, -24
 1512 05d3 53       		pushq	%rbx
 1513              		.cfi_def_cfa_offset 32
 1514              		.cfi_offset 3, -32
 1515 05d4 4889F3   		movq	%rsi, %rbx
 1516 05d7 4881ECE0 		subq	$2016, %rsp
 1516      070000
 1517              		.cfi_def_cfa_offset 2048
 1518 05de 48897C24 		movq	%rdi, 8(%rsp)
 1518      08
 1519 05e3 48897424 		movq	%rsi, 16(%rsp)
 1519      10
 1520 05e8 64488B04 		movq	%fs:40, %rax
 1520      25280000 
 1520      00
 1521 05f1 48898424 		movq	%rax, 2008(%rsp)
 1521      D8070000 
 1522 05f9 31C0     		xorl	%eax, %eax
 1523              	.LEHB3:
 1524 05fb E8000000 		call	_ZN8UnitTest11CurrentTest7DetailsEv
 1524      00
 1525              	.LEHE3:
 1526 0600 488DBC24 		leaq	880(%rsp), %rdi
 1526      70030000 
 1527 0608 488918   		movq	%rbx, (%rax)
 1528              	.LEHB4:
 1529 060b E8000000 		call	_ZN8UnitTest16SignalTranslatorC1Ev
 1529      00
 1530              	.LEHE4:
 1531 0610 488B3D00 		movq	_ZN8UnitTest16SignalTranslator12s_jumpTargetE(%rip), %rdi
 1531      000000
 1532 0617 BE010000 		movl	$1, %esi
 1532      00
 1533 061c E8000000 		call	__sigsetjmp
 1533      00
 1534 0621 85C0     		testl	%eax, %eax
 1535 0623 0F85C700 		jne	.L293
 1535      0000
 1536 0629 488B6C24 		movq	8(%rsp), %rbp
 1536      08
 1537 062e 488D5D40 		leaq	64(%rbp), %rbx
 1538 0632 4889EF   		movq	%rbp, %rdi
 1539 0635 4889DE   		movq	%rbx, %rsi
 1540              	.LEHB5:
 1541 0638 E8000000 		call	_ZN8UnitTest20DeferredTestReporter15ReportTestStartERKNS_11TestDetailsE
 1541      00
 1542 063d F30F1005 		movss	.LC24(%rip), %xmm0
 1542      00000000 
 1543 0645 4889DE   		movq	%rbx, %rsi
 1544 0648 4889EF   		movq	%rbp, %rdi
 1545 064b E8000000 		call	_ZN8UnitTest20DeferredTestReporter16ReportTestFinishERKNS_11TestDetailsEf
 1545      00
 1546 0650 4889EF   		movq	%rbp, %rdi
 1547 0653 E8000000 		call	_ZN8UnitTest20DeferredTestReporter10GetResultsEv
 1547      00
 1548              	.LEHE5:
 1549 0658 488B18   		movq	(%rax), %rbx
 1550 065b 488B4008 		movq	8(%rax), %rax
 1551 065f 48BAB76D 		movabsq	$7905747460161236407, %rdx
 1551      DBB66DDB 
 1551      B66D
 1552 0669 4829D8   		subq	%rbx, %rax
 1553 066c 48C1F803 		sarq	$3, %rax
 1554 0670 480FAFC2 		imulq	%rdx, %rax
 1555 0674 4885C0   		testq	%rax, %rax
 1556 0677 0F841804 		je	.L294
 1556      0000
 1557              	.LEHB6:
 1558 067d E8000000 		call	_ZN8UnitTest11CurrentTest7DetailsEv
 1558      00
 1559 0682 488B30   		movq	(%rax), %rsi
 1560 0685 488D7C24 		leaq	112(%rsp), %rdi
 1560      70
 1561 068a BA440000 		movl	$68, %edx
 1561      00
 1562 068f E8000000 		call	_ZN8UnitTest11TestDetailsC1ERKS0_i
 1562      00
 1563 0694 E8000000 		call	_ZN8UnitTest11CurrentTest7ResultsEv
 1563      00
 1564              	.LEHE6:
 1565 0699 F30F1043 		movss	48(%rbx), %xmm0
 1565      30
 1566 069e 488B28   		movq	(%rax), %rbp
 1567 06a1 0F2E0500 		ucomiss	.LC26(%rip), %xmm0
 1567      000000
 1568 06a8 7266     		jb	.L237
 1569 06aa F30F100D 		movss	.LC27(%rip), %xmm1
 1569      00000000 
 1570 06b2 0F2EC8   		ucomiss	%xmm0, %xmm1
 1571 06b5 7259     		jb	.L237
 1572              	.L256:
 1573 06b7 488DBC24 		leaq	880(%rsp), %rdi
 1573      70030000 
 1574              	.LEHB7:
 1575 06bf E8000000 		call	_ZN8UnitTest16SignalTranslatorD1Ev
 1575      00
 1576              	.LEHE7:
 1577              	.L231:
 1578 06c4 488B8424 		movq	2008(%rsp), %rax
 1578      D8070000 
 1579 06cc 64483304 		xorq	%fs:40, %rax
 1579      25280000 
 1579      00
 1580 06d5 0F851404 		jne	.L295
 1580      0000
 1581 06db 4881C4E0 		addq	$2016, %rsp
 1581      070000
 1582              		.cfi_remember_state
 1583              		.cfi_def_cfa_offset 32
 1584 06e2 5B       		popq	%rbx
 1585              		.cfi_def_cfa_offset 24
 1586 06e3 5D       		popq	%rbp
 1587              		.cfi_def_cfa_offset 16
 1588 06e4 415C     		popq	%r12
 1589              		.cfi_def_cfa_offset 8
 1590 06e6 C3       		ret
 1591 06e7 660F1F84 		.p2align 4,,10
 1591      00000000 
 1591      00
 1592              		.p2align 3
 1593              	.L293:
 1594              		.cfi_restore_state
 1595 06f0 BF080000 		movl	$8, %edi
 1595      00
 1596 06f5 E8000000 		call	__cxa_allocate_exception
 1596      00
 1597 06fa 31D2     		xorl	%edx, %edx
 1598 06fc 48C70000 		movq	$.LC23, (%rax)
 1598      000000
 1599 0703 BE000000 		movl	$_ZTIPKc, %esi
 1599      00
 1600 0708 4889C7   		movq	%rax, %rdi
 1601              	.LEHB8:
 1602 070b E8000000 		call	__cxa_throw
 1602      00
 1603              	.LEHE8:
 1604              		.p2align 4,,10
 1605              		.p2align 3
 1606              	.L237:
 1607 0710 488DBC24 		leaq	608(%rsp), %rdi
 1607      60020000 
 1608 0718 E8000000 		call	_ZNSt8ios_baseC2Ev
 1608      00
 1609 071d 488DBC24 		leaq	608(%rsp), %rdi
 1609      60020000 
 1610 0725 31F6     		xorl	%esi, %esi
 1611 0727 48C78424 		movq	$0, 824(%rsp)
 1611      38030000 
 1611      00000000 
 1612 0733 C6842440 		movb	$0, 832(%rsp)
 1612      03000000 
 1613 073b C6842441 		movb	$0, 833(%rsp)
 1613      03000000 
 1614 0743 48C78424 		movq	$0, 840(%rsp)
 1614      48030000 
 1614      00000000 
 1615 074f 48C78424 		movq	$0, 848(%rsp)
 1615      50030000 
 1615      00000000 
 1616 075b 48C78424 		movq	$0, 856(%rsp)
 1616      58030000 
 1616      00000000 
 1617 0767 48C78424 		movq	$0, 864(%rsp)
 1617      60030000 
 1617      00000000 
 1618 0773 48C78424 		movq	$_ZTCN8UnitTest15MemoryOutStreamE0_So+24, 512(%rsp)
 1618      00020000 
 1618      00000000 
 1619 077f 48C78424 		movq	$_ZTCN8UnitTest15MemoryOutStreamE0_So+64, 608(%rsp)
 1619      60020000 
 1619      00000000 
 1620              	.LEHB9:
 1621 078b E8000000 		call	_ZNSt9basic_iosIcSt11char_traitsIcEE4initEPSt15basic_streambufIcS1_E
 1621      00
 1622              	.LEHE9:
 1623 0790 488DBC24 		leaq	576(%rsp), %rdi
 1623      40020000 
 1624 0798 48C78424 		movq	$_ZTCN8UnitTest15MemoryOutStreamE0_St19basic_ostringstreamIcSt11char_traitsIcESaIcEE+24, 512(
 1624      00020000 
 1624      00000000 
 1625 07a4 48C78424 		movq	$_ZTCN8UnitTest15MemoryOutStreamE0_St19basic_ostringstreamIcSt11char_traitsIcESaIcEE+64, 608(
 1625      60020000 
 1625      00000000 
 1626 07b0 48C78424 		movq	$_ZTVSt15basic_streambufIcSt11char_traitsIcEE+16, 520(%rsp)
 1626      08020000 
 1626      00000000 
 1627 07bc 48C78424 		movq	$0, 528(%rsp)
 1627      10020000 
 1627      00000000 
 1628 07c8 48C78424 		movq	$0, 536(%rsp)
 1628      18020000 
 1628      00000000 
 1629 07d4 48C78424 		movq	$0, 544(%rsp)
 1629      20020000 
 1629      00000000 
 1630 07e0 48C78424 		movq	$0, 552(%rsp)
 1630      28020000 
 1630      00000000 
 1631 07ec 48C78424 		movq	$0, 560(%rsp)
 1631      30020000 
 1631      00000000 
 1632 07f8 48C78424 		movq	$0, 568(%rsp)
 1632      38020000 
 1632      00000000 
 1633 0804 E8000000 		call	_ZNSt6localeC1Ev
 1633      00
 1634 0809 488B8424 		movq	512(%rsp), %rax
 1634      00020000 
 1635 0811 488DBC24 		leaq	512(%rsp), %rdi
 1635      00020000 
 1636 0819 488DB424 		leaq	520(%rsp), %rsi
 1636      08020000 
 1637 0821 48C78424 		movq	$_ZTVSt15basic_stringbufIcSt11char_traitsIcESaIcEE+16, 520(%rsp)
 1637      08020000 
 1637      00000000 
 1638 082d C7842448 		movl	$16, 584(%rsp)
 1638      02000010 
 1638      000000
 1639 0838 48C78424 		movq	$_ZNSs4_Rep20_S_empty_rep_storageE+24, 592(%rsp)
 1639      50020000 
 1639      00000000 
 1640 0844 480378E8 		addq	-24(%rax), %rdi
 1641              	.LEHB10:
 1642 0848 E8000000 		call	_ZNSt9basic_iosIcSt11char_traitsIcEE4initEPSt15basic_streambufIcS1_E
 1642      00
 1643              	.LEHE10:
 1644 084d 488DBC24 		leaq	512(%rsp), %rdi
 1644      00020000 
 1645 0855 F30F1053 		movss	48(%rbx), %xmm2
 1645      30
 1646 085a BA090000 		movl	$9, %edx
 1646      00
 1647 085f BE000000 		movl	$.LC28, %esi
 1647      00
 1648 0864 48C78424 		movq	$_ZTVN8UnitTest15MemoryOutStreamE+24, 512(%rsp)
 1648      00020000 
 1648      00000000 
 1649 0870 48C78424 		movq	$_ZTVN8UnitTest15MemoryOutStreamE+64, 608(%rsp)
 1649      60020000 
 1649      00000000 
 1650 087c 48C78424 		movq	$_ZNSs4_Rep20_S_empty_rep_storageE+24, 600(%rsp)
 1650      58020000 
 1650      00000000 
 1651 0888 F30F1154 		movss	%xmm2, 28(%rsp)
 1651      241C
 1652              	.LEHB11:
 1653 088e E8000000 		call	_ZSt16__ostream_insertIcSt11char_traitsIcEERSt13basic_ostreamIT_T0_ES6_PKS3_l
 1653      00
 1654 0893 F20F1005 		movsd	.LC29(%rip), %xmm0
 1654      00000000 
 1655 089b 488DBC24 		leaq	512(%rsp), %rdi
 1655      00020000 
 1656 08a3 E8000000 		call	_ZNSo9_M_insertIdEERSoT_
 1656      00
 1657 08a8 BA050000 		movl	$5, %edx
 1657      00
 1658 08ad BE000000 		movl	$.LC30, %esi
 1658      00
 1659 08b2 4889C7   		movq	%rax, %rdi
 1660 08b5 4889C3   		movq	%rax, %rbx
 1661 08b8 E8000000 		call	_ZSt16__ostream_insertIcSt11char_traitsIcEERSt13basic_ostreamIT_T0_ES6_PKS3_l
 1661      00
 1662 08bd F20F1005 		movsd	.LC31(%rip), %xmm0
 1662      00000000 
 1663 08c5 4889DF   		movq	%rbx, %rdi
 1664 08c8 E8000000 		call	_ZNSo9_M_insertIdEERSoT_
 1664      00
 1665 08cd BA090000 		movl	$9, %edx
 1665      00
 1666 08d2 BE000000 		movl	$.LC32, %esi
 1666      00
 1667 08d7 4889C7   		movq	%rax, %rdi
 1668 08da 4889C3   		movq	%rax, %rbx
 1669 08dd E8000000 		call	_ZSt16__ostream_insertIcSt11char_traitsIcEERSt13basic_ostreamIT_T0_ES6_PKS3_l
 1669      00
 1670 08e2 660FEFC0 		pxor	%xmm0, %xmm0
 1671 08e6 4889DF   		movq	%rbx, %rdi
 1672 08e9 F30F5A44 		cvtss2sd	28(%rsp), %xmm0
 1672      241C
 1673 08ef E8000000 		call	_ZNSo9_M_insertIdEERSoT_
 1673      00
 1674 08f4 488DBC24 		leaq	512(%rsp), %rdi
 1674      00020000 
 1675 08fc E8000000 		call	_ZNK8UnitTest15MemoryOutStream7GetTextEv
 1675      00
 1676 0901 488D7424 		leaq	112(%rsp), %rsi
 1676      70
 1677 0906 4889C2   		movq	%rax, %rdx
 1678 0909 4889EF   		movq	%rbp, %rdi
 1679 090c E8000000 		call	_ZN8UnitTest11TestResults13OnTestFailureERKNS_11TestDetailsEPKc
 1679      00
 1680              	.LEHE11:
 1681 0911 488B8424 		movq	600(%rsp), %rax
 1681      58020000 
 1682 0919 48C78424 		movq	$_ZTVN8UnitTest15MemoryOutStreamE+24, 512(%rsp)
 1682      00020000 
 1682      00000000 
 1683 0925 48C78424 		movq	$_ZTVN8UnitTest15MemoryOutStreamE+64, 608(%rsp)
 1683      60020000 
 1683      00000000 
 1684 0931 488D78E8 		leaq	-24(%rax), %rdi
 1685 0935 4881FF00 		cmpq	$_ZNSs4_Rep20_S_empty_rep_storageE, %rdi
 1685      000000
 1686 093c 0F852601 		jne	.L243
 1686      0000
 1687              	.L248:
 1688 0942 488B8424 		movq	592(%rsp), %rax
 1688      50020000 
 1689 094a 48C78424 		movq	$_ZTCN8UnitTest15MemoryOutStreamE0_St19basic_ostringstreamIcSt11char_traitsIcESaIcEE+24, 512(
 1689      00020000 
 1689      00000000 
 1690 0956 48C78424 		movq	$_ZTCN8UnitTest15MemoryOutStreamE0_St19basic_ostringstreamIcSt11char_traitsIcESaIcEE+64, 608(
 1690      60020000 
 1690      00000000 
 1691 0962 48C78424 		movq	$_ZTVSt15basic_stringbufIcSt11char_traitsIcESaIcEE+16, 520(%rsp)
 1691      08020000 
 1691      00000000 
 1692 096e 488D78E8 		leaq	-24(%rax), %rdi
 1693 0972 4881FF00 		cmpq	$_ZNSs4_Rep20_S_empty_rep_storageE, %rdi
 1693      000000
 1694 0979 0F852901 		jne	.L296
 1694      0000
 1695              	.L245:
 1696 097f 488DBC24 		leaq	576(%rsp), %rdi
 1696      40020000 
 1697 0987 48C78424 		movq	$_ZTVSt15basic_streambufIcSt11char_traitsIcEE+16, 520(%rsp)
 1697      08020000 
 1697      00000000 
 1698 0993 E8000000 		call	_ZNSt6localeD1Ev
 1698      00
 1699 0998 488D8424 		leaq	512(%rsp), %rax
 1699      00020000 
 1700 09a0 48C78424 		movq	$_ZTVSt9basic_iosIcSt11char_traitsIcEE+16, 608(%rsp)
 1700      60020000 
 1700      00000000 
 1701 09ac 488D7860 		leaq	96(%rax), %rdi
 1702              	.LEHB12:
 1703 09b0 E8000000 		call	_ZNSt8ios_baseD2Ev
 1703      00
 1704              	.LEHE12:
 1705 09b5 E9FDFCFF 		jmp	.L256
 1705      FF
 1706              	.L270:
 1707 09ba 4889C3   		movq	%rax, %rbx
 1708 09bd 4889D5   		movq	%rdx, %rbp
 1709              	.L255:
 1710 09c0 488DBC24 		leaq	880(%rsp), %rdi
 1710      70030000 
 1711 09c8 E8000000 		call	_ZN8UnitTest16SignalTranslatorD1Ev
 1711      00
 1712 09cd 4889DF   		movq	%rbx, %rdi
 1713 09d0 4889EA   		movq	%rbp, %rdx
 1714              	.L257:
 1715 09d3 4883FA01 		cmpq	$1, %rdx
 1716 09d7 0F84E001 		je	.L259
 1716      0000
 1717 09dd 4883FA02 		cmpq	$2, %rdx
 1718 09e1 0F85B001 		jne	.L297
 1718      0000
 1719 09e7 E8000000 		call	__cxa_begin_catch
 1719      00
 1720 09ec 488DBC24 		leaq	144(%rsp), %rdi
 1720      90000000 
 1721 09f4 4889C3   		movq	%rax, %rbx
 1722              	.LEHB13:
 1723 09f7 E8000000 		call	_ZN8UnitTest15MemoryOutStreamC1Ev
 1723      00
 1724              	.LEHE13:
 1725 09fc 488B03   		movq	(%rbx), %rax
 1726 09ff 4889DF   		movq	%rbx, %rdi
 1727 0a02 FF5010   		call	*16(%rax)
 1728 0a05 488DBC24 		leaq	144(%rsp), %rdi
 1728      90000000 
 1729 0a0d BE000000 		movl	$.LC34, %esi
 1729      00
 1730 0a12 4889C3   		movq	%rax, %rbx
 1731              	.LEHB14:
 1732 0a15 E8000000 		call	_ZStlsISt11char_traitsIcEERSt13basic_ostreamIcT_ES5_PKc
 1732      00
 1733 0a1a 4889C7   		movq	%rax, %rdi
 1734 0a1d 4889DE   		movq	%rbx, %rsi
 1735 0a20 E8000000 		call	_ZStlsISt11char_traitsIcEERSt13basic_ostreamIcT_ES5_PKc
 1735      00
 1736 0a25 488DBC24 		leaq	144(%rsp), %rdi
 1736      90000000 
 1737 0a2d E8000000 		call	_ZNK8UnitTest15MemoryOutStream7GetTextEv
 1737      00
 1738 0a32 4889C3   		movq	%rax, %rbx
 1739 0a35 E8000000 		call	_ZN8UnitTest11CurrentTest7ResultsEv
 1739      00
 1740 0a3a 488B7424 		movq	16(%rsp), %rsi
 1740      10
 1741 0a3f 488B38   		movq	(%rax), %rdi
 1742 0a42 4889DA   		movq	%rbx, %rdx
 1743 0a45 E8000000 		call	_ZN8UnitTest11TestResults13OnTestFailureERKNS_11TestDetailsEPKc
 1743      00
 1744              	.LEHE14:
 1745 0a4a 488DBC24 		leaq	144(%rsp), %rdi
 1745      90000000 
 1746              	.LEHB15:
 1747 0a52 E8000000 		call	_ZN8UnitTest15MemoryOutStreamD1Ev
 1747      00
 1748              	.LEHE15:
 1749              	.L286:
 1750 0a57 E8000000 		call	__cxa_end_catch
 1750      00
 1751 0a5c E963FCFF 		jmp	.L231
 1751      FF
 1752              		.p2align 4,,10
 1753 0a61 0F1F8000 		.p2align 3
 1753      000000
 1754              	.L243:
 1755 0a68 BA000000 		movl	$_ZL28__gthrw___pthread_key_createPjPFvPvE, %edx
 1755      00
 1756 0a6d 4885D2   		testq	%rdx, %rdx
 1757 0a70 7463     		je	.L246
 1758 0a72 BAFFFFFF 		movl	$-1, %edx
 1758      FF
 1759 0a77 F00FC150 		lock xaddl	%edx, -8(%rax)
 1759      F8
 1760 0a7c 89D0     		movl	%edx, %eax
 1761              	.L247:
 1762 0a7e 85C0     		testl	%eax, %eax
 1763 0a80 0F8FBCFE 		jg	.L248
 1763      FFFF
 1764 0a86 488D7424 		leaq	46(%rsp), %rsi
 1764      2E
 1765 0a8b E8000000 		call	_ZNSs4_Rep10_M_destroyERKSaIcE
 1765      00
 1766 0a90 E9ADFEFF 		jmp	.L248
 1766      FF
 1767              	.L294:
 1768 0a95 31D2     		xorl	%edx, %edx
 1769 0a97 31F6     		xorl	%esi, %esi
 1770 0a99 BF000000 		movl	$.LC25, %edi
 1770      00
 1771              	.LEHB16:
 1772 0a9e E8000000 		call	_ZSt24__throw_out_of_range_fmtPKcz
 1772      00
 1773              	.LEHE16:
 1774              		.p2align 4,,10
 1775 0aa3 0F1F4400 		.p2align 3
 1775      00
 1776              	.L296:
 1777 0aa8 BA000000 		movl	$_ZL28__gthrw___pthread_key_createPjPFvPvE, %edx
 1777      00
 1778 0aad 4885D2   		testq	%rdx, %rdx
 1779 0ab0 7430     		je	.L250
 1780 0ab2 BAFFFFFF 		movl	$-1, %edx
 1780      FF
 1781 0ab7 F00FC150 		lock xaddl	%edx, -8(%rax)
 1781      F8
 1782 0abc 89D0     		movl	%edx, %eax
 1783              	.L251:
 1784 0abe 85C0     		testl	%eax, %eax
 1785 0ac0 0F8FB9FE 		jg	.L245
 1785      FFFF
 1786 0ac6 488D7424 		leaq	47(%rsp), %rsi
 1786      2F
 1787 0acb E8000000 		call	_ZNSs4_Rep10_M_destroyERKSaIcE
 1787      00
 1788 0ad0 E9AAFEFF 		jmp	.L245
 1788      FF
 1789              	.L246:
 1790 0ad5 8B50F8   		movl	-8(%rax), %edx
 1791 0ad8 8D4AFF   		leal	-1(%rdx), %ecx
 1792 0adb 8948F8   		movl	%ecx, -8(%rax)
 1793 0ade 89D0     		movl	%edx, %eax
 1794 0ae0 EB9C     		jmp	.L247
 1795              	.L250:
 1796 0ae2 8B50F8   		movl	-8(%rax), %edx
 1797 0ae5 8D4AFF   		leal	-1(%rdx), %ecx
 1798 0ae8 8948F8   		movl	%ecx, -8(%rax)
 1799 0aeb 89D0     		movl	%edx, %eax
 1800 0aed EBCF     		jmp	.L251
 1801              	.L295:
 1802 0aef E8000000 		call	__stack_chk_fail
 1802      00
 1803              	.L279:
 1804 0af4 488DBC24 		leaq	520(%rsp), %rdi
 1804      08020000 
 1805 0afc 4889C3   		movq	%rax, %rbx
 1806 0aff E8000000 		call	_ZNSt15basic_stringbufIcSt11char_traitsIcESaIcEED1Ev
 1806      00
 1807              	.L240:
 1808 0b04 488DBC24 		leaq	608(%rsp), %rdi
 1808      60020000 
 1809 0b0c 48C78424 		movq	$_ZTVSt9basic_iosIcSt11char_traitsIcEE+16, 608(%rsp)
 1809      60020000 
 1809      00000000 
 1810 0b18 E8000000 		call	_ZNSt8ios_baseD2Ev
 1810      00
 1811 0b1d 4889D8   		movq	%rbx, %rax
 1812              	.L242:
 1813 0b20 4889C7   		movq	%rax, %rdi
 1814 0b23 E8000000 		call	__cxa_begin_catch
 1814      00
 1815              	.LEHB17:
 1816 0b28 E8000000 		call	_ZN8UnitTest11CurrentTest7DetailsEv
 1816      00
 1817 0b2d 488B30   		movq	(%rax), %rsi
 1818 0b30 488D7C24 		leaq	80(%rsp), %rdi
 1818      50
 1819 0b35 BA440000 		movl	$68, %edx
 1819      00
 1820 0b3a E8000000 		call	_ZN8UnitTest11TestDetailsC1ERKS0_i
 1820      00
 1821 0b3f E8000000 		call	_ZN8UnitTest11CurrentTest7ResultsEv
 1821      00
 1822 0b44 488B38   		movq	(%rax), %rdi
 1823 0b47 488D7424 		leaq	80(%rsp), %rsi
 1823      50
 1824 0b4c BA000000 		movl	$.LC33, %edx
 1824      00
 1825 0b51 E8000000 		call	_ZN8UnitTest11TestResults13OnTestFailureERKNS_11TestDetailsEPKc
 1825      00
 1826              	.LEHE17:
 1827              	.LEHB18:
 1828 0b56 E8000000 		call	__cxa_end_catch
 1828      00
 1829              	.LEHE18:
 1830 0b5b E957FBFF 		jmp	.L256
 1830      FF
 1831              	.L277:
 1832 0b60 488DBC24 		leaq	512(%rsp), %rdi
 1832      00020000 
 1833 0b68 4889C3   		movq	%rax, %rbx
 1834 0b6b E8000000 		call	_ZN8UnitTest15MemoryOutStreamD1Ev
 1834      00
 1835 0b70 4889D8   		movq	%rbx, %rax
 1836 0b73 EBAB     		jmp	.L242
 1837              	.L273:
 1838 0b75 488DBC24 		leaq	144(%rsp), %rdi
 1838      90000000 
 1839 0b7d 4889C3   		movq	%rax, %rbx
 1840 0b80 E8000000 		call	_ZN8UnitTest15MemoryOutStreamD1Ev
 1840      00
 1841              	.L263:
 1842 0b85 E8000000 		call	__cxa_end_catch
 1842      00
 1843 0b8a 4889DF   		movq	%rbx, %rdi
 1844              	.LEHB19:
 1845 0b8d E8000000 		call	_Unwind_Resume
 1845      00
 1846              	.LEHE19:
 1847              	.L272:
 1848              	.L287:
 1849 0b92 4889C3   		movq	%rax, %rbx
 1850 0b95 EBEE     		jmp	.L263
 1851              	.L297:
 1852 0b97 E8000000 		call	__cxa_begin_catch
 1852      00
 1853              	.LEHB20:
 1854 0b9c E8000000 		call	_ZN8UnitTest11CurrentTest7ResultsEv
 1854      00
 1855 0ba1 488B7424 		movq	16(%rsp), %rsi
 1855      10
 1856 0ba6 488B38   		movq	(%rax), %rdi
 1857 0ba9 BA000000 		movl	$.LC35, %edx
 1857      00
 1858 0bae E8000000 		call	_ZN8UnitTest11TestResults13OnTestFailureERKNS_11TestDetailsEPKc
 1858      00
 1859              	.LEHE20:
 1860              	.LEHB21:
 1861 0bb3 E8000000 		call	__cxa_end_catch
 1861      00
 1862              	.LEHE21:
 1863 0bb8 E907FBFF 		jmp	.L231
 1863      FF
 1864              	.L259:
 1865 0bbd E8000000 		call	__cxa_begin_catch
 1865      00
 1866 0bc2 4889C3   		movq	%rax, %rbx
 1867 0bc5 488B00   		movq	(%rax), %rax
 1868 0bc8 4889DF   		movq	%rbx, %rdi
 1869 0bcb FF5010   		call	*16(%rax)
 1870 0bce 4889DF   		movq	%rbx, %rdi
 1871 0bd1 4889C5   		movq	%rax, %rbp
 1872              	.LEHB22:
 1873 0bd4 E8000000 		call	_ZNK8UnitTest15AssertException10LineNumberEv
 1873      00
 1874 0bd9 4889DF   		movq	%rbx, %rdi
 1875 0bdc 4189C4   		movl	%eax, %r12d
 1876 0bdf E8000000 		call	_ZNK8UnitTest15AssertException8FilenameEv
 1876      00
 1877 0be4 4889C1   		movq	%rax, %rcx
 1878 0be7 488B4424 		movq	16(%rsp), %rax
 1878      10
 1879 0bec 488D7C24 		leaq	48(%rsp), %rdi
 1879      30
 1880 0bf1 4589E0   		movl	%r12d, %r8d
 1881 0bf4 488B7008 		movq	8(%rax), %rsi
 1882 0bf8 488B10   		movq	(%rax), %rdx
 1883 0bfb E8000000 		call	_ZN8UnitTest11TestDetailsC1EPKcS2_S2_i
 1883      00
 1884 0c00 E8000000 		call	_ZN8UnitTest11CurrentTest7ResultsEv
 1884      00
 1885 0c05 488B38   		movq	(%rax), %rdi
 1886 0c08 488D7424 		leaq	48(%rsp), %rsi
 1886      30
 1887 0c0d 4889EA   		movq	%rbp, %rdx
 1888 0c10 E8000000 		call	_ZN8UnitTest11TestResults13OnTestFailureERKNS_11TestDetailsEPKc
 1888      00
 1889              	.LEHE22:
 1890 0c15 E93DFEFF 		jmp	.L286
 1890      FF
 1891              	.L274:
 1892 0c1a 4889C3   		movq	%rax, %rbx
 1893 0c1d E8000000 		call	__cxa_end_catch
 1893      00
 1894 0c22 4889DF   		movq	%rbx, %rdi
 1895              	.LEHB23:
 1896 0c25 E8000000 		call	_Unwind_Resume
 1896      00
 1897              	.LEHE23:
 1898              	.L271:
 1899 0c2a E963FFFF 		jmp	.L287
 1899      FF
 1900              	.L276:
 1901 0c2f E9ECFEFF 		jmp	.L242
 1901      FF
 1902              	.L278:
 1903 0c34 4889C3   		movq	%rax, %rbx
 1904 0c37 E9C8FEFF 		jmp	.L240
 1904      FF
 1905              	.L269:
 1906 0c3c 4889C7   		movq	%rax, %rdi
 1907 0c3f E98FFDFF 		jmp	.L257
 1907      FF
 1908              	.L275:
 1909 0c44 4889C3   		movq	%rax, %rbx
 1910 0c47 4889D5   		movq	%rdx, %rbp
 1911 0c4a E8000000 		call	__cxa_end_catch
 1911      00
 1912 0c4f E96CFDFF 		jmp	.L255
 1912      FF
 1913              		.cfi_endproc
 1914              	.LFE1523:
 1915              		.section	.gcc_except_table,"a",@progbits
 1916              		.align 4
 1917              	.LLSDA1523:
 1918 0000 FF       		.byte	0xff
 1919 0001 03       		.byte	0x3
 1920 0002 9001     		.uleb128 .LLSDATT1523-.LLSDATTD1523
 1921              	.LLSDATTD1523:
 1922 0004 01       		.byte	0x1
 1923 0005 78       		.uleb128 .LLSDACSE1523-.LLSDACSB1523
 1924              	.LLSDACSB1523:
 1925 0006 2B       		.uleb128 .LEHB3-.LFB1523
 1926 0007 05       		.uleb128 .LEHE3-.LEHB3
 1927 0008 00       		.uleb128 0
 1928 0009 00       		.uleb128 0
 1929 000a 3B       		.uleb128 .LEHB4-.LFB1523
 1930 000b 05       		.uleb128 .LEHE4-.LEHB4
 1931 000c EC0C     		.uleb128 .L269-.LFB1523
 1932 000e 05       		.uleb128 0x5
 1933 000f 68       		.uleb128 .LEHB5-.LFB1523
 1934 0010 20       		.uleb128 .LEHE5-.LEHB5
 1935 0011 EA07     		.uleb128 .L270-.LFB1523
 1936 0013 07       		.uleb128 0x7
 1937 0014 AD01     		.uleb128 .LEHB6-.LFB1523
 1938 0016 1C       		.uleb128 .LEHE6-.LEHB6
 1939 0017 DF0C     		.uleb128 .L276-.LFB1523
 1940 0019 01       		.uleb128 0x1
 1941 001a EF01     		.uleb128 .LEHB7-.LFB1523
 1942 001c 05       		.uleb128 .LEHE7-.LEHB7
 1943 001d EC0C     		.uleb128 .L269-.LFB1523
 1944 001f 05       		.uleb128 0x5
 1945 0020 BB02     		.uleb128 .LEHB8-.LFB1523
 1946 0022 05       		.uleb128 .LEHE8-.LEHB8
 1947 0023 EA07     		.uleb128 .L270-.LFB1523
 1948 0025 07       		.uleb128 0x7
 1949 0026 BB03     		.uleb128 .LEHB9-.LFB1523
 1950 0028 05       		.uleb128 .LEHE9-.LEHB9
 1951 0029 E40C     		.uleb128 .L278-.LFB1523
 1952 002b 01       		.uleb128 0x1
 1953 002c F804     		.uleb128 .LEHB10-.LFB1523
 1954 002e 05       		.uleb128 .LEHE10-.LEHB10
 1955 002f A40A     		.uleb128 .L279-.LFB1523
 1956 0031 01       		.uleb128 0x1
 1957 0032 BE05     		.uleb128 .LEHB11-.LFB1523
 1958 0034 8301     		.uleb128 .LEHE11-.LEHB11
 1959 0036 900B     		.uleb128 .L277-.LFB1523
 1960 0038 01       		.uleb128 0x1
 1961 0039 E007     		.uleb128 .LEHB12-.LFB1523
 1962 003b 05       		.uleb128 .LEHE12-.LEHB12
 1963 003c DF0C     		.uleb128 .L276-.LFB1523
 1964 003e 01       		.uleb128 0x1
 1965 003f A708     		.uleb128 .LEHB13-.LFB1523
 1966 0041 05       		.uleb128 .LEHE13-.LEHB13
 1967 0042 C20B     		.uleb128 .L272-.LFB1523
 1968 0044 00       		.uleb128 0
 1969 0045 C508     		.uleb128 .LEHB14-.LFB1523
 1970 0047 35       		.uleb128 .LEHE14-.LEHB14
 1971 0048 A50B     		.uleb128 .L273-.LFB1523
 1972 004a 00       		.uleb128 0
 1973 004b 8209     		.uleb128 .LEHB15-.LFB1523
 1974 004d 05       		.uleb128 .LEHE15-.LEHB15
 1975 004e C20B     		.uleb128 .L272-.LFB1523
 1976 0050 00       		.uleb128 0
 1977 0051 CE09     		.uleb128 .LEHB16-.LFB1523
 1978 0053 05       		.uleb128 .LEHE16-.LEHB16
 1979 0054 EA07     		.uleb128 .L270-.LFB1523
 1980 0056 07       		.uleb128 0x7
 1981 0057 D80A     		.uleb128 .LEHB17-.LFB1523
 1982 0059 2E       		.uleb128 .LEHE17-.LEHB17
 1983 005a F40C     		.uleb128 .L275-.LFB1523
 1984 005c 07       		.uleb128 0x7
 1985 005d 860B     		.uleb128 .LEHB18-.LFB1523
 1986 005f 05       		.uleb128 .LEHE18-.LEHB18
 1987 0060 EA07     		.uleb128 .L270-.LFB1523
 1988 0062 07       		.uleb128 0x7
 1989 0063 BD0B     		.uleb128 .LEHB19-.LFB1523
 1990 0065 05       		.uleb128 .LEHE19-.LEHB19
 1991 0066 00       		.uleb128 0
 1992 0067 00       		.uleb128 0
 1993 0068 CC0B     		.uleb128 .LEHB20-.LFB1523
 1994 006a 17       		.uleb128 .LEHE20-.LEHB20
 1995 006b CA0C     		.uleb128 .L274-.LFB1523
 1996 006d 00       		.uleb128 0
 1997 006e E30B     		.uleb128 .LEHB21-.LFB1523
 1998 0070 05       		.uleb128 .LEHE21-.LEHB21
 1999 0071 00       		.uleb128 0
 2000 0072 00       		.uleb128 0
 2001 0073 840C     		.uleb128 .LEHB22-.LFB1523
 2002 0075 41       		.uleb128 .LEHE22-.LEHB22
 2003 0076 DA0C     		.uleb128 .L271-.LFB1523
 2004 0078 00       		.uleb128 0
 2005 0079 D50C     		.uleb128 .LEHB23-.LFB1523
 2006 007b 05       		.uleb128 .LEHE23-.LEHB23
 2007 007c 00       		.uleb128 0
 2008 007d 00       		.uleb128 0
 2009              	.LLSDACSE1523:
 2010 007e 03       		.byte	0x3
 2011 007f 00       		.byte	0
 2012 0080 02       		.byte	0x2
 2013 0081 7D       		.byte	0x7d
 2014 0082 01       		.byte	0x1
 2015 0083 7D       		.byte	0x7d
 2016 0084 00       		.byte	0
 2017 0085 7D       		.byte	0x7d
 2018 0086 0000     		.align 4
 2019 0088 00000000 		.long	0
 2020              	
 2021 008c 00000000 		.long	_ZTISt9exception
 2022 0090 00000000 		.long	_ZTIN8UnitTest15AssertExceptionE
 2023              	.LLSDATT1523:
 2024              		.text
 2026              		.section	.text.unlikely
 2027              	.LCOLDE36:
 2028              		.text
 2029              	.LHOTE36:
 2030              		.section	.text.unlikely._ZNSt15basic_stringbufIcSt11char_traitsIcESaIcEED0Ev,"axG",@progbits,_ZNSt
 2031              		.align 2
 2032              	.LCOLDB37:
 2033              		.section	.text._ZNSt15basic_stringbufIcSt11char_traitsIcESaIcEED0Ev,"axG",@progbits,_ZNSt15basic_s
 2034              	.LHOTB37:
 2035              		.align 2
 2036              		.p2align 4,,15
 2037              		.weak	_ZNSt15basic_stringbufIcSt11char_traitsIcESaIcEED0Ev
 2039              	_ZNSt15basic_stringbufIcSt11char_traitsIcESaIcEED0Ev:
 2040              	.LFB1486:
 2041              		.cfi_startproc
 2042 0000 53       		pushq	%rbx
 2043              		.cfi_def_cfa_offset 16
 2044              		.cfi_offset 3, -16
 2045 0001 4889FB   		movq	%rdi, %rbx
 2046 0004 4883EC10 		subq	$16, %rsp
 2047              		.cfi_def_cfa_offset 32
 2048 0008 48C70700 		movq	$_ZTVSt15basic_stringbufIcSt11char_traitsIcESaIcEE+16, (%rdi)
 2048      000000
 2049 000f 64488B04 		movq	%fs:40, %rax
 2049      25280000 
 2049      00
 2050 0018 48894424 		movq	%rax, 8(%rsp)
 2050      08
 2051 001d 31C0     		xorl	%eax, %eax
 2052 001f 488B4748 		movq	72(%rdi), %rax
 2053 0023 488D78E8 		leaq	-24(%rax), %rdi
 2054 0027 4881FF00 		cmpq	$_ZNSs4_Rep20_S_empty_rep_storageE, %rdi
 2054      000000
 2055 002e 7530     		jne	.L306
 2056              	.L300:
 2057 0030 488D7B38 		leaq	56(%rbx), %rdi
 2058 0034 48C70300 		movq	$_ZTVSt15basic_streambufIcSt11char_traitsIcEE+16, (%rbx)
 2058      000000
 2059 003b E8000000 		call	_ZNSt6localeD1Ev
 2059      00
 2060 0040 4889DF   		movq	%rbx, %rdi
 2061 0043 E8000000 		call	_ZdlPv
 2061      00
 2062 0048 488B4424 		movq	8(%rsp), %rax
 2062      08
 2063 004d 64483304 		xorq	%fs:40, %rax
 2063      25280000 
 2063      00
 2064 0056 7545     		jne	.L307
 2065 0058 4883C410 		addq	$16, %rsp
 2066              		.cfi_remember_state
 2067              		.cfi_def_cfa_offset 16
 2068 005c 5B       		popq	%rbx
 2069              		.cfi_def_cfa_offset 8
 2070 005d C3       		ret
 2071 005e 6690     		.p2align 4,,10
 2072              		.p2align 3
 2073              	.L306:
 2074              		.cfi_restore_state
 2075 0060 BA000000 		movl	$_ZL28__gthrw___pthread_key_createPjPFvPvE, %edx
 2075      00
 2076 0065 4885D2   		testq	%rdx, %rdx
 2077 0068 7426     		je	.L301
 2078 006a BAFFFFFF 		movl	$-1, %edx
 2078      FF
 2079 006f F00FC150 		lock xaddl	%edx, -8(%rax)
 2079      F8
 2080 0074 89D0     		movl	%edx, %eax
 2081              	.L302:
 2082 0076 85C0     		testl	%eax, %eax
 2083 0078 7FB6     		jg	.L300
 2084 007a 488D7424 		leaq	7(%rsp), %rsi
 2084      07
 2085 007f E8000000 		call	_ZNSs4_Rep10_M_destroyERKSaIcE
 2085      00
 2086 0084 EBAA     		jmp	.L300
 2087 0086 662E0F1F 		.p2align 4,,10
 2087      84000000 
 2087      0000
 2088              		.p2align 3
 2089              	.L301:
 2090 0090 8B50F8   		movl	-8(%rax), %edx
 2091 0093 8D4AFF   		leal	-1(%rdx), %ecx
 2092 0096 8948F8   		movl	%ecx, -8(%rax)
 2093 0099 89D0     		movl	%edx, %eax
 2094 009b EBD9     		jmp	.L302
 2095              	.L307:
 2096 009d E8000000 		call	__stack_chk_fail
 2096      00
 2097              		.cfi_endproc
 2098              	.LFE1486:
 2100              		.section	.text.unlikely._ZNSt15basic_stringbufIcSt11char_traitsIcESaIcEED0Ev,"axG",@progbits,_ZNSt
 2101              	.LCOLDE37:
 2102              		.section	.text._ZNSt15basic_stringbufIcSt11char_traitsIcESaIcEED0Ev,"axG",@progbits,_ZNSt15basic_s
 2103              	.LHOTE37:
 2104              		.section	.text.unlikely._ZNSt6vectorIN8UnitTest18DeferredTestResultESaIS1_EED2Ev,"axG",@progbits,_
 2105              		.align 2
 2106              	.LCOLDB38:
 2107              		.section	.text._ZNSt6vectorIN8UnitTest18DeferredTestResultESaIS1_EED2Ev,"axG",@progbits,_ZNSt6vect
 2108              	.LHOTB38:
 2109              		.align 2
 2110              		.p2align 4,,15
 2111              		.weak	_ZNSt6vectorIN8UnitTest18DeferredTestResultESaIS1_EED2Ev
 2113              	_ZNSt6vectorIN8UnitTest18DeferredTestResultESaIS1_EED2Ev:
 2114              	.LFB1508:
 2115              		.cfi_startproc
 2116 0000 4156     		pushq	%r14
 2117              		.cfi_def_cfa_offset 16
 2118              		.cfi_offset 14, -16
 2119 0002 4155     		pushq	%r13
 2120              		.cfi_def_cfa_offset 24
 2121              		.cfi_offset 13, -24
 2122 0004 4989FD   		movq	%rdi, %r13
 2123 0007 4154     		pushq	%r12
 2124              		.cfi_def_cfa_offset 32
 2125              		.cfi_offset 12, -32
 2126 0009 55       		pushq	%rbp
 2127              		.cfi_def_cfa_offset 40
 2128              		.cfi_offset 6, -40
 2129 000a 53       		pushq	%rbx
 2130              		.cfi_def_cfa_offset 48
 2131              		.cfi_offset 3, -48
 2132 000b 4883EC10 		subq	$16, %rsp
 2133              		.cfi_def_cfa_offset 64
 2134 000f 4C8B6708 		movq	8(%rdi), %r12
 2135 0013 4C8B37   		movq	(%rdi), %r14
 2136 0016 64488B04 		movq	%fs:40, %rax
 2136      25280000 
 2136      00
 2137 001f 48894424 		movq	%rax, 8(%rsp)
 2137      08
 2138 0024 31C0     		xorl	%eax, %eax
 2139 0026 4D39F4   		cmpq	%r14, %r12
 2140 0029 0F84C100 		je	.L309
 2140      0000
 2141 002f 90       		.p2align 4,,10
 2142              		.p2align 3
 2143              	.L338:
 2144 0030 498B6E20 		movq	32(%r14), %rbp
 2145 0034 498B5E18 		movq	24(%r14), %rbx
 2146 0038 4839DD   		cmpq	%rbx, %rbp
 2147 003b 7457     		je	.L310
 2148 003d B8000000 		movl	$_ZL28__gthrw___pthread_key_createPjPFvPvE, %eax
 2148      00
 2149 0042 4885C0   		testq	%rax, %rax
 2150 0045 7512     		jne	.L345
 2151 0047 E9010100 		jmp	.L316
 2151      00
 2152 004c 0F1F4000 		.p2align 4,,10
 2153              		.p2align 3
 2154              	.L319:
 2155 0050 4883C310 		addq	$16, %rbx
 2156 0054 4839DD   		cmpq	%rbx, %rbp
 2157 0057 7437     		je	.L317
 2158              	.L345:
 2159 0059 488B4308 		movq	8(%rbx), %rax
 2160 005d 488D78E8 		leaq	-24(%rax), %rdi
 2161 0061 4881FF00 		cmpq	$_ZNSs4_Rep20_S_empty_rep_storageE, %rdi
 2161      000000
 2162 0068 74E6     		je	.L319
 2163 006a B9FFFFFF 		movl	$-1, %ecx
 2163      FF
 2164 006f F00FC148 		lock xaddl	%ecx, -8(%rax)
 2164      F8
 2165 0074 85C9     		testl	%ecx, %ecx
 2166 0076 7FD8     		jg	.L319
 2167 0078 488D7424 		leaq	7(%rsp), %rsi
 2167      07
 2168 007d 4883C310 		addq	$16, %rbx
 2169 0081 E8000000 		call	_ZNSs4_Rep10_M_destroyERKSaIcE
 2169      00
 2170 0086 4839DD   		cmpq	%rbx, %rbp
 2171 0089 75CE     		jne	.L345
 2172 008b 0F1F4400 		.p2align 4,,10
 2172      00
 2173              		.p2align 3
 2174              	.L317:
 2175 0090 498B6E18 		movq	24(%r14), %rbp
 2176              	.L310:
 2177 0094 4885ED   		testq	%rbp, %rbp
 2178 0097 7408     		je	.L322
 2179 0099 4889EF   		movq	%rbp, %rdi
 2180 009c E8000000 		call	_ZdlPv
 2180      00
 2181              	.L322:
 2182 00a1 498B4610 		movq	16(%r14), %rax
 2183 00a5 488D78E8 		leaq	-24(%rax), %rdi
 2184 00a9 4881FF00 		cmpq	$_ZNSs4_Rep20_S_empty_rep_storageE, %rdi
 2184      000000
 2185 00b0 0F851201 		jne	.L353
 2185      0000
 2186              	.L324:
 2187 00b6 498B4608 		movq	8(%r14), %rax
 2188 00ba 488D78E8 		leaq	-24(%rax), %rdi
 2189 00be 4881FF00 		cmpq	$_ZNSs4_Rep20_S_empty_rep_storageE, %rdi
 2189      000000
 2190 00c5 0F85CD00 		jne	.L354
 2190      0000
 2191              	.L329:
 2192 00cb 498B06   		movq	(%r14), %rax
 2193 00ce 488D78E8 		leaq	-24(%rax), %rdi
 2194 00d2 4881FF00 		cmpq	$_ZNSs4_Rep20_S_empty_rep_storageE, %rdi
 2194      000000
 2195 00d9 0F858100 		jne	.L355
 2195      0000
 2196              	.L334:
 2197 00df 4983C638 		addq	$56, %r14
 2198 00e3 4D39F4   		cmpq	%r14, %r12
 2199 00e6 0F8544FF 		jne	.L338
 2199      FFFF
 2200 00ec 4D8B6500 		movq	0(%r13), %r12
 2201              	.L309:
 2202 00f0 4D85E4   		testq	%r12, %r12
 2203 00f3 7408     		je	.L308
 2204 00f5 4C89E7   		movq	%r12, %rdi
 2205 00f8 E8000000 		call	_ZdlPv
 2205      00
 2206              	.L308:
 2207 00fd 488B4424 		movq	8(%rsp), %rax
 2207      08
 2208 0102 64483304 		xorq	%fs:40, %rax
 2208      25280000 
 2208      00
 2209 010b 0F850E01 		jne	.L356
 2209      0000
 2210 0111 4883C410 		addq	$16, %rsp
 2211              		.cfi_remember_state
 2212              		.cfi_def_cfa_offset 48
 2213 0115 5B       		popq	%rbx
 2214              		.cfi_def_cfa_offset 40
 2215 0116 5D       		popq	%rbp
 2216              		.cfi_def_cfa_offset 32
 2217 0117 415C     		popq	%r12
 2218              		.cfi_def_cfa_offset 24
 2219 0119 415D     		popq	%r13
 2220              		.cfi_def_cfa_offset 16
 2221 011b 415E     		popq	%r14
 2222              		.cfi_def_cfa_offset 8
 2223 011d C3       		ret
 2224 011e 6690     		.p2align 4,,10
 2225              		.p2align 3
 2226              	.L357:
 2227              		.cfi_restore_state
 2228 0120 8B50F8   		movl	-8(%rax), %edx
 2229 0123 8D4AFF   		leal	-1(%rdx), %ecx
 2230 0126 85D2     		testl	%edx, %edx
 2231 0128 8948F8   		movl	%ecx, -8(%rax)
 2232 012b 7F13     		jg	.L314
 2233 012d 488D7424 		leaq	7(%rsp), %rsi
 2233      07
 2234 0132 E8000000 		call	_ZNSs4_Rep10_M_destroyERKSaIcE
 2234      00
 2235 0137 660F1F84 		.p2align 4,,10
 2235      00000000 
 2235      00
 2236              		.p2align 3
 2237              	.L314:
 2238 0140 4883C310 		addq	$16, %rbx
 2239 0144 4839DD   		cmpq	%rbx, %rbp
 2240 0147 0F8443FF 		je	.L317
 2240      FFFF
 2241              	.L316:
 2242 014d 488B4308 		movq	8(%rbx), %rax
 2243 0151 488D78E8 		leaq	-24(%rax), %rdi
 2244 0155 4881FF00 		cmpq	$_ZNSs4_Rep20_S_empty_rep_storageE, %rdi
 2244      000000
 2245 015c 74E2     		je	.L314
 2246 015e EBC0     		jmp	.L357
 2247              		.p2align 4,,10
 2248              		.p2align 3
 2249              	.L355:
 2250 0160 BA000000 		movl	$_ZL28__gthrw___pthread_key_createPjPFvPvE, %edx
 2250      00
 2251 0165 4885D2   		testq	%rdx, %rdx
 2252 0168 0F84A100 		je	.L335
 2252      0000
 2253 016e BAFFFFFF 		movl	$-1, %edx
 2253      FF
 2254 0173 F00FC150 		lock xaddl	%edx, -8(%rax)
 2254      F8
 2255 0178 89D0     		movl	%edx, %eax
 2256              	.L336:
 2257 017a 85C0     		testl	%eax, %eax
 2258 017c 0F8F5DFF 		jg	.L334
 2258      FFFF
 2259 0182 488D7424 		leaq	7(%rsp), %rsi
 2259      07
 2260 0187 E8000000 		call	_ZNSs4_Rep10_M_destroyERKSaIcE
 2260      00
 2261 018c E94EFFFF 		jmp	.L334
 2261      FF
 2262              		.p2align 4,,10
 2263 0191 0F1F8000 		.p2align 3
 2263      000000
 2264              	.L354:
 2265 0198 BA000000 		movl	$_ZL28__gthrw___pthread_key_createPjPFvPvE, %edx
 2265      00
 2266 019d 4885D2   		testq	%rdx, %rdx
 2267 01a0 7460     		je	.L330
 2268 01a2 BAFFFFFF 		movl	$-1, %edx
 2268      FF
 2269 01a7 F00FC150 		lock xaddl	%edx, -8(%rax)
 2269      F8
 2270 01ac 89D0     		movl	%edx, %eax
 2271              	.L331:
 2272 01ae 85C0     		testl	%eax, %eax
 2273 01b0 0F8F15FF 		jg	.L329
 2273      FFFF
 2274 01b6 488D7424 		leaq	7(%rsp), %rsi
 2274      07
 2275 01bb E8000000 		call	_ZNSs4_Rep10_M_destroyERKSaIcE
 2275      00
 2276 01c0 E906FFFF 		jmp	.L329
 2276      FF
 2277              		.p2align 4,,10
 2278 01c5 0F1F00   		.p2align 3
 2279              	.L353:
 2280 01c8 BA000000 		movl	$_ZL28__gthrw___pthread_key_createPjPFvPvE, %edx
 2280      00
 2281 01cd 4885D2   		testq	%rdx, %rdx
 2282 01d0 7423     		je	.L325
 2283 01d2 BAFFFFFF 		movl	$-1, %edx
 2283      FF
 2284 01d7 F00FC150 		lock xaddl	%edx, -8(%rax)
 2284      F8
 2285 01dc 89D0     		movl	%edx, %eax
 2286              	.L326:
 2287 01de 85C0     		testl	%eax, %eax
 2288 01e0 0F8FD0FE 		jg	.L324
 2288      FFFF
 2289 01e6 488D7424 		leaq	7(%rsp), %rsi
 2289      07
 2290 01eb E8000000 		call	_ZNSs4_Rep10_M_destroyERKSaIcE
 2290      00
 2291 01f0 E9C1FEFF 		jmp	.L324
 2291      FF
 2292              	.L325:
 2293 01f5 8B50F8   		movl	-8(%rax), %edx
 2294 01f8 8D4AFF   		leal	-1(%rdx), %ecx
 2295 01fb 8948F8   		movl	%ecx, -8(%rax)
 2296 01fe 89D0     		movl	%edx, %eax
 2297 0200 EBDC     		jmp	.L326
 2298              	.L330:
 2299 0202 8B50F8   		movl	-8(%rax), %edx
 2300 0205 8D4AFF   		leal	-1(%rdx), %ecx
 2301 0208 8948F8   		movl	%ecx, -8(%rax)
 2302 020b 89D0     		movl	%edx, %eax
 2303 020d EB9F     		jmp	.L331
 2304              	.L335:
 2305 020f 8B50F8   		movl	-8(%rax), %edx
 2306 0212 8D4AFF   		leal	-1(%rdx), %ecx
 2307 0215 8948F8   		movl	%ecx, -8(%rax)
 2308 0218 89D0     		movl	%edx, %eax
 2309 021a E95BFFFF 		jmp	.L336
 2309      FF
 2310              	.L356:
 2311 021f E8000000 		call	__stack_chk_fail
 2311      00
 2312              		.cfi_endproc
 2313              	.LFE1508:
 2315              		.section	.text.unlikely._ZNSt6vectorIN8UnitTest18DeferredTestResultESaIS1_EED2Ev,"axG",@progbits,_
 2316              	.LCOLDE38:
 2317              		.section	.text._ZNSt6vectorIN8UnitTest18DeferredTestResultESaIS1_EED2Ev,"axG",@progbits,_ZNSt6vect
 2318              	.LHOTE38:
 2319              		.weak	_ZNSt6vectorIN8UnitTest18DeferredTestResultESaIS1_EED1Ev
 2320              		.set	_ZNSt6vectorIN8UnitTest18DeferredTestResultESaIS1_EED1Ev,_ZNSt6vectorIN8UnitTest18DeferredTes
 2321              		.section	.rodata.str1.1
 2322              	.LC39:
 2323 0067 556E6971 		.string	"UniqueTestName"
 2323      75655465 
 2323      73744E61 
 2323      6D6500
 2324              	.LC40:
 2325 0076 556E6971 		.string	"UniqueTestSuite"
 2325      75655465 
 2325      73745375 
 2325      69746500 
 2326              	.LC41:
 2327 0086 66696C65 		.string	"filename.h"
 2327      6E616D65 
 2327      2E6800
 2328              		.section	.rodata.str1.8
 2329              		.align 8
 2330              	.LC42:
 2331 0090 556E6861 		.string	"Unhandled exception while destroying fixture DeferredTestReporterFixture"
 2331      6E646C65 
 2331      64206578 
 2331      63657074 
 2331      696F6E20 
 2332 00d9 00000000 		.align 8
 2332      000000
 2333              	.LC43:
 2334 00e0 556E6861 		.string	"Unhandled exception while constructing fixture DeferredTestReporterFixture"
 2334      6E646C65 
 2334      64206578 
 2334      63657074 
 2334      696F6E20 
 2335              		.section	.text.unlikely
 2336 0281 90       		.align 2
 2337              	.LCOLDB44:
 2338              		.text
 2339              	.LHOTB44:
 2340              		.align 2
 2341 0c54 6690662E 		.p2align 4,,15
 2341      0F1F8400 
 2341      00000000 
 2343              	_ZNK8UnitTest12_GLOBAL__N_160TestDeferredTestReporterFixtureReportTestEndCapturesTestTime7RunImplEv
 2344              	.LFB1437:
 2345              		.cfi_startproc
 2346              		.cfi_personality 0x3,__gxx_personality_v0
 2347              		.cfi_lsda 0x3,.LLSDA1437
 2348 0c60 4157     		pushq	%r15
 2349              		.cfi_def_cfa_offset 16
 2350              		.cfi_offset 15, -16
 2351 0c62 4156     		pushq	%r14
 2352              		.cfi_def_cfa_offset 24
 2353              		.cfi_offset 14, -24
 2354 0c64 BE000000 		movl	$.LC39, %esi
 2354      00
 2355 0c69 4155     		pushq	%r13
 2356              		.cfi_def_cfa_offset 32
 2357              		.cfi_offset 13, -32
 2358 0c6b 4154     		pushq	%r12
 2359              		.cfi_def_cfa_offset 40
 2360              		.cfi_offset 12, -40
 2361 0c6d 4C8D6F08 		leaq	8(%rdi), %r13
 2362 0c71 55       		pushq	%rbp
 2363              		.cfi_def_cfa_offset 48
 2364              		.cfi_offset 6, -48
 2365 0c72 53       		pushq	%rbx
 2366              		.cfi_def_cfa_offset 56
 2367              		.cfi_offset 3, -56
 2368 0c73 4881EC08 		subq	$520, %rsp
 2368      020000
 2369              		.cfi_def_cfa_offset 576
 2370 0c7a 488D4424 		leaq	32(%rsp), %rax
 2370      20
 2371 0c7f 48897C24 		movq	%rdi, 8(%rsp)
 2371      08
 2372 0c84 48C74424 		movq	$0, 40(%rsp)
 2372      28000000 
 2372      00
 2373 0c8d 64488B14 		movq	%fs:40, %rdx
 2373      25280000 
 2373      00
 2374 0c96 48899424 		movq	%rdx, 504(%rsp)
 2374      F8010000 
 2375 0c9e 31D2     		xorl	%edx, %edx
 2376 0ca0 488D7820 		leaq	32(%rax), %rdi
 2377 0ca4 488D5424 		leaq	31(%rsp), %rdx
 2377      1F
 2378 0ca9 48C74424 		movq	$0, 48(%rsp)
 2378      30000000 
 2378      00
 2379 0cb2 48C74424 		movq	$0, 56(%rsp)
 2379      38000000 
 2379      00
 2380 0cbb 48C74424 		movq	$_ZTVN8UnitTest12_GLOBAL__N_124MockDeferredTestReporterE+16, 32(%rsp)
 2380      20000000 
 2380      00
 2381              	.LEHB24:
 2382 0cc4 E8000000 		call	_ZNSsC1EPKcRKSaIcE
 2382      00
 2383              	.LEHE24:
 2384 0cc9 488D4424 		leaq	32(%rsp), %rax
 2384      20
 2385 0cce 488D5424 		leaq	31(%rsp), %rdx
 2385      1F
 2386 0cd3 BE000000 		movl	$.LC40, %esi
 2386      00
 2387 0cd8 488D7828 		leaq	40(%rax), %rdi
 2388              	.LEHB25:
 2389 0cdc E8000000 		call	_ZNSsC1EPKcRKSaIcE
 2389      00
 2390              	.LEHE25:
 2391 0ce1 488D4424 		leaq	32(%rsp), %rax
 2391      20
 2392 0ce6 488D5424 		leaq	31(%rsp), %rdx
 2392      1F
 2393 0ceb BE000000 		movl	$.LC41, %esi
 2393      00
 2394 0cf0 488D7830 		leaq	48(%rax), %rdi
 2395              	.LEHB26:
 2396 0cf4 E8000000 		call	_ZNSsC1EPKcRKSaIcE
 2396      00
 2397              	.LEHE26:
 2398 0cf9 488D4424 		leaq	32(%rsp), %rax
 2398      20
 2399 0cfe 488B4C24 		movq	80(%rsp), %rcx
 2399      50
 2400 0d03 488B5424 		movq	72(%rsp), %rdx
 2400      48
 2401 0d08 488B7424 		movq	64(%rsp), %rsi
 2401      40
 2402 0d0d 41B80C00 		movl	$12, %r8d
 2402      0000
 2403 0d13 C7442458 		movl	$12, 88(%rsp)
 2403      0C000000 
 2404 0d1b 488D7840 		leaq	64(%rax), %rdi
 2405              	.LEHB27:
 2406 0d1f E8000000 		call	_ZN8UnitTest11TestDetailsC1EPKcS2_S2_i
 2406      00
 2407              	.LEHE27:
 2408 0d24 488D7C24 		leaq	32(%rsp), %rdi
 2408      20
 2409 0d29 4C89EE   		movq	%r13, %rsi
 2410 0d2c 4C89AC24 		movq	%r13, 128(%rsp)
 2410      80000000 
 2411              	.LEHB28:
 2412 0d34 E897F8FF 		call	_ZN8UnitTest11ExecuteTestINS_12_GLOBAL__N_162DeferredTestReporterFixtureReportTestEndCaptures
 2412      FF
 2413              	.LEHE28:
 2414 0d39 488B4424 		movq	80(%rsp), %rax
 2414      50
 2415 0d3e 488D78E8 		leaq	-24(%rax), %rdi
 2416 0d42 4881FF00 		cmpq	$_ZNSs4_Rep20_S_empty_rep_storageE, %rdi
 2416      000000
 2417 0d49 0F857402 		jne	.L465
 2417      0000
 2418              	.L369:
 2419 0d4f 488B4424 		movq	72(%rsp), %rax
 2419      48
 2420 0d54 488D78E8 		leaq	-24(%rax), %rdi
 2421 0d58 4881FF00 		cmpq	$_ZNSs4_Rep20_S_empty_rep_storageE, %rdi
 2421      000000
 2422 0d5f 0F858B02 		jne	.L466
 2422      0000
 2423              	.L374:
 2424 0d65 488B4424 		movq	64(%rsp), %rax
 2424      40
 2425 0d6a 488D78E8 		leaq	-24(%rax), %rdi
 2426 0d6e 4881FF00 		cmpq	$_ZNSs4_Rep20_S_empty_rep_storageE, %rdi
 2426      000000
 2427 0d75 0F851702 		jne	.L467
 2427      0000
 2428              	.L379:
 2429 0d7b 488B6C24 		movq	48(%rsp), %rbp
 2429      30
 2430 0d80 4C8B7424 		movq	40(%rsp), %r14
 2430      28
 2431 0d85 48C74424 		movq	$_ZTVN8UnitTest20DeferredTestReporterE+16, 32(%rsp)
 2431      20000000 
 2431      00
 2432 0d8e 4C39F5   		cmpq	%r14, %rbp
 2433 0d91 0F84CA00 		je	.L383
 2433      0000
 2434 0d97 41BC0000 		movl	$_ZL28__gthrw___pthread_key_createPjPFvPvE, %r12d
 2434      0000
 2435 0d9d 0F1F00   		.p2align 4,,10
 2436              		.p2align 3
 2437              	.L412:
 2438 0da0 4D8B7E20 		movq	32(%r14), %r15
 2439 0da4 498B5E18 		movq	24(%r14), %rbx
 2440 0da8 4939DF   		cmpq	%rbx, %r15
 2441 0dab 7457     		je	.L384
 2442 0dad 4D85E4   		testq	%r12, %r12
 2443 0db0 7517     		jne	.L448
 2444 0db2 E9160100 		jmp	.L390
 2444      00
 2445 0db7 660F1F84 		.p2align 4,,10
 2445      00000000 
 2445      00
 2446              		.p2align 3
 2447              	.L393:
 2448 0dc0 4883C310 		addq	$16, %rbx
 2449 0dc4 4939DF   		cmpq	%rbx, %r15
 2450 0dc7 7437     		je	.L391
 2451              	.L448:
 2452 0dc9 488B4308 		movq	8(%rbx), %rax
 2453 0dcd 488D78E8 		leaq	-24(%rax), %rdi
 2454 0dd1 4881FF00 		cmpq	$_ZNSs4_Rep20_S_empty_rep_storageE, %rdi
 2454      000000
 2455 0dd8 74E6     		je	.L393
 2456 0dda B9FFFFFF 		movl	$-1, %ecx
 2456      FF
 2457 0ddf F00FC148 		lock xaddl	%ecx, -8(%rax)
 2457      F8
 2458 0de4 85C9     		testl	%ecx, %ecx
 2459 0de6 7FD8     		jg	.L393
 2460 0de8 488D7424 		leaq	31(%rsp), %rsi
 2460      1F
 2461 0ded 4883C310 		addq	$16, %rbx
 2462 0df1 E8000000 		call	_ZNSs4_Rep10_M_destroyERKSaIcE
 2462      00
 2463 0df6 4939DF   		cmpq	%rbx, %r15
 2464 0df9 75CE     		jne	.L448
 2465 0dfb 0F1F4400 		.p2align 4,,10
 2465      00
 2466              		.p2align 3
 2467              	.L391:
 2468 0e00 4D8B7E18 		movq	24(%r14), %r15
 2469              	.L384:
 2470 0e04 4D85FF   		testq	%r15, %r15
 2471 0e07 7408     		je	.L396
 2472 0e09 4C89FF   		movq	%r15, %rdi
 2473 0e0c E8000000 		call	_ZdlPv
 2473      00
 2474              	.L396:
 2475 0e11 498B4610 		movq	16(%r14), %rax
 2476 0e15 488D78E8 		leaq	-24(%rax), %rdi
 2477 0e19 4881FF00 		cmpq	$_ZNSs4_Rep20_S_empty_rep_storageE, %rdi
 2477      000000
 2478 0e20 0F851A01 		jne	.L468
 2478      0000
 2479              	.L398:
 2480 0e26 498B4608 		movq	8(%r14), %rax
 2481 0e2a 488D78E8 		leaq	-24(%rax), %rdi
 2482 0e2e 4881FF00 		cmpq	$_ZNSs4_Rep20_S_empty_rep_storageE, %rdi
 2482      000000
 2483 0e35 0F85D500 		jne	.L469
 2483      0000
 2484              	.L403:
 2485 0e3b 498B06   		movq	(%r14), %rax
 2486 0e3e 488D78E8 		leaq	-24(%rax), %rdi
 2487 0e42 4881FF00 		cmpq	$_ZNSs4_Rep20_S_empty_rep_storageE, %rdi
 2487      000000
 2488 0e49 0F859100 		jne	.L470
 2488      0000
 2489              	.L408:
 2490 0e4f 4983C638 		addq	$56, %r14
 2491 0e53 4C39F5   		cmpq	%r14, %rbp
 2492 0e56 0F8544FF 		jne	.L412
 2492      FFFF
 2493 0e5c 488B6C24 		movq	40(%rsp), %rbp
 2493      28
 2494              	.L383:
 2495 0e61 4885ED   		testq	%rbp, %rbp
 2496 0e64 7408     		je	.L413
 2497 0e66 4889EF   		movq	%rbp, %rdi
 2498 0e69 E8000000 		call	_ZdlPv
 2498      00
 2499              	.L413:
 2500 0e6e 488D7C24 		leaq	32(%rsp), %rdi
 2500      20
 2501              	.LEHB29:
 2502 0e73 E8000000 		call	_ZN8UnitTest12TestReporterD2Ev
 2502      00
 2503              	.LEHE29:
 2504              	.L358:
 2505 0e78 488B8424 		movq	504(%rsp), %rax
 2505      F8010000 
 2506 0e80 64483304 		xorq	%fs:40, %rax
 2506      25280000 
 2506      00
 2507 0e89 0F85F903 		jne	.L471
 2507      0000
 2508 0e8f 4881C408 		addq	$520, %rsp
 2508      020000
 2509              		.cfi_remember_state
 2510              		.cfi_def_cfa_offset 56
 2511 0e96 5B       		popq	%rbx
 2512              		.cfi_def_cfa_offset 48
 2513 0e97 5D       		popq	%rbp
 2514              		.cfi_def_cfa_offset 40
 2515 0e98 415C     		popq	%r12
 2516              		.cfi_def_cfa_offset 32
 2517 0e9a 415D     		popq	%r13
 2518              		.cfi_def_cfa_offset 24
 2519 0e9c 415E     		popq	%r14
 2520              		.cfi_def_cfa_offset 16
 2521 0e9e 415F     		popq	%r15
 2522              		.cfi_def_cfa_offset 8
 2523 0ea0 C3       		ret
 2524              		.p2align 4,,10
 2525 0ea1 0F1F8000 		.p2align 3
 2525      000000
 2526              	.L472:
 2527              		.cfi_restore_state
 2528 0ea8 8B48F8   		movl	-8(%rax), %ecx
 2529 0eab 8D71FF   		leal	-1(%rcx), %esi
 2530 0eae 85C9     		testl	%ecx, %ecx
 2531 0eb0 8970F8   		movl	%esi, -8(%rax)
 2532 0eb3 7F0B     		jg	.L388
 2533 0eb5 488D7424 		leaq	31(%rsp), %rsi
 2533      1F
 2534 0eba E8000000 		call	_ZNSs4_Rep10_M_destroyERKSaIcE
 2534      00
 2535 0ebf 90       		.p2align 4,,10
 2536              		.p2align 3
 2537              	.L388:
 2538 0ec0 4883C310 		addq	$16, %rbx
 2539 0ec4 4939DF   		cmpq	%rbx, %r15
 2540 0ec7 0F8433FF 		je	.L391
 2540      FFFF
 2541              	.L390:
 2542 0ecd 488B4308 		movq	8(%rbx), %rax
 2543 0ed1 488D78E8 		leaq	-24(%rax), %rdi
 2544 0ed5 4881FF00 		cmpq	$_ZNSs4_Rep20_S_empty_rep_storageE, %rdi
 2544      000000
 2545 0edc 74E2     		je	.L388
 2546 0ede EBC8     		jmp	.L472
 2547              		.p2align 4,,10
 2548              		.p2align 3
 2549              	.L470:
 2550 0ee0 4D85E4   		testq	%r12, %r12
 2551 0ee3 0F847F00 		je	.L409
 2551      0000
 2552 0ee9 B9FFFFFF 		movl	$-1, %ecx
 2552      FF
 2553 0eee F00FC148 		lock xaddl	%ecx, -8(%rax)
 2553      F8
 2554 0ef3 89C8     		movl	%ecx, %eax
 2555              	.L410:
 2556 0ef5 85C0     		testl	%eax, %eax
 2557 0ef7 0F8F52FF 		jg	.L408
 2557      FFFF
 2558 0efd 488D7424 		leaq	31(%rsp), %rsi
 2558      1F
 2559 0f02 E8000000 		call	_ZNSs4_Rep10_M_destroyERKSaIcE
 2559      00
 2560 0f07 E943FFFF 		jmp	.L408
 2560      FF
 2561 0f0c 0F1F4000 		.p2align 4,,10
 2562              		.p2align 3
 2563              	.L469:
 2564 0f10 4D85E4   		testq	%r12, %r12
 2565 0f13 7470     		je	.L404
 2566 0f15 B9FFFFFF 		movl	$-1, %ecx
 2566      FF
 2567 0f1a F00FC148 		lock xaddl	%ecx, -8(%rax)
 2567      F8
 2568 0f1f 89C8     		movl	%ecx, %eax
 2569              	.L405:
 2570 0f21 85C0     		testl	%eax, %eax
 2571 0f23 0F8F12FF 		jg	.L403
 2571      FFFF
 2572 0f29 488D7424 		leaq	31(%rsp), %rsi
 2572      1F
 2573 0f2e E8000000 		call	_ZNSs4_Rep10_M_destroyERKSaIcE
 2573      00
 2574 0f33 E903FFFF 		jmp	.L403
 2574      FF
 2575 0f38 0F1F8400 		.p2align 4,,10
 2575      00000000 
 2576              		.p2align 3
 2577              	.L468:
 2578 0f40 4D85E4   		testq	%r12, %r12
 2579 0f43 7433     		je	.L399
 2580 0f45 B9FFFFFF 		movl	$-1, %ecx
 2580      FF
 2581 0f4a F00FC148 		lock xaddl	%ecx, -8(%rax)
 2581      F8
 2582 0f4f 89C8     		movl	%ecx, %eax
 2583              	.L400:
 2584 0f51 85C0     		testl	%eax, %eax
 2585 0f53 0F8FCDFE 		jg	.L398
 2585      FFFF
 2586 0f59 488D7424 		leaq	31(%rsp), %rsi
 2586      1F
 2587 0f5e E8000000 		call	_ZNSs4_Rep10_M_destroyERKSaIcE
 2587      00
 2588 0f63 E9BEFEFF 		jmp	.L398
 2588      FF
 2589              	.L409:
 2590 0f68 8B48F8   		movl	-8(%rax), %ecx
 2591 0f6b 8D71FF   		leal	-1(%rcx), %esi
 2592 0f6e 8970F8   		movl	%esi, -8(%rax)
 2593 0f71 89C8     		movl	%ecx, %eax
 2594 0f73 E97DFFFF 		jmp	.L410
 2594      FF
 2595              	.L399:
 2596 0f78 8B48F8   		movl	-8(%rax), %ecx
 2597 0f7b 8D71FF   		leal	-1(%rcx), %esi
 2598 0f7e 8970F8   		movl	%esi, -8(%rax)
 2599 0f81 89C8     		movl	%ecx, %eax
 2600 0f83 EBCC     		jmp	.L400
 2601              	.L404:
 2602 0f85 8B48F8   		movl	-8(%rax), %ecx
 2603 0f88 8D71FF   		leal	-1(%rcx), %esi
 2604 0f8b 8970F8   		movl	%esi, -8(%rax)
 2605 0f8e 89C8     		movl	%ecx, %eax
 2606 0f90 EB8F     		jmp	.L405
 2607              	.L467:
 2608 0f92 BA000000 		movl	$_ZL28__gthrw___pthread_key_createPjPFvPvE, %edx
 2608      00
 2609 0f97 4885D2   		testq	%rdx, %rdx
 2610 0f9a 0F849700 		je	.L380
 2610      0000
 2611 0fa0 BAFFFFFF 		movl	$-1, %edx
 2611      FF
 2612 0fa5 F00FC150 		lock xaddl	%edx, -8(%rax)
 2612      F8
 2613 0faa 89D0     		movl	%edx, %eax
 2614              	.L381:
 2615 0fac 85C0     		testl	%eax, %eax
 2616 0fae 0F8FC7FD 		jg	.L379
 2616      FFFF
 2617 0fb4 488D7424 		leaq	31(%rsp), %rsi
 2617      1F
 2618 0fb9 E8000000 		call	_ZNSs4_Rep10_M_destroyERKSaIcE
 2618      00
 2619 0fbe E9B8FDFF 		jmp	.L379
 2619      FF
 2620              	.L465:
 2621 0fc3 BA000000 		movl	$_ZL28__gthrw___pthread_key_createPjPFvPvE, %edx
 2621      00
 2622 0fc8 4885D2   		testq	%rdx, %rdx
 2623 0fcb 745D     		je	.L370
 2624 0fcd BAFFFFFF 		movl	$-1, %edx
 2624      FF
 2625 0fd2 F00FC150 		lock xaddl	%edx, -8(%rax)
 2625      F8
 2626 0fd7 89D0     		movl	%edx, %eax
 2627              	.L371:
 2628 0fd9 85C0     		testl	%eax, %eax
 2629 0fdb 0F8F6EFD 		jg	.L369
 2629      FFFF
 2630 0fe1 488D7424 		leaq	31(%rsp), %rsi
 2630      1F
 2631 0fe6 E8000000 		call	_ZNSs4_Rep10_M_destroyERKSaIcE
 2631      00
 2632 0feb E95FFDFF 		jmp	.L369
 2632      FF
 2633              	.L466:
 2634 0ff0 BA000000 		movl	$_ZL28__gthrw___pthread_key_createPjPFvPvE, %edx
 2634      00
 2635 0ff5 4885D2   		testq	%rdx, %rdx
 2636 0ff8 7423     		je	.L375
 2637 0ffa BAFFFFFF 		movl	$-1, %edx
 2637      FF
 2638 0fff F00FC150 		lock xaddl	%edx, -8(%rax)
 2638      F8
 2639 1004 89D0     		movl	%edx, %eax
 2640              	.L376:
 2641 1006 85C0     		testl	%eax, %eax
 2642 1008 0F8F57FD 		jg	.L374
 2642      FFFF
 2643 100e 488D7424 		leaq	31(%rsp), %rsi
 2643      1F
 2644 1013 E8000000 		call	_ZNSs4_Rep10_M_destroyERKSaIcE
 2644      00
 2645 1018 E948FDFF 		jmp	.L374
 2645      FF
 2646              	.L375:
 2647 101d 8B50F8   		movl	-8(%rax), %edx
 2648 1020 8D4AFF   		leal	-1(%rdx), %ecx
 2649 1023 8948F8   		movl	%ecx, -8(%rax)
 2650 1026 89D0     		movl	%edx, %eax
 2651 1028 EBDC     		jmp	.L376
 2652              	.L370:
 2653 102a 8B50F8   		movl	-8(%rax), %edx
 2654 102d 8D4AFF   		leal	-1(%rdx), %ecx
 2655 1030 8948F8   		movl	%ecx, -8(%rax)
 2656 1033 89D0     		movl	%edx, %eax
 2657 1035 EBA2     		jmp	.L371
 2658              	.L380:
 2659 1037 8B50F8   		movl	-8(%rax), %edx
 2660 103a 8D4AFF   		leal	-1(%rdx), %ecx
 2661 103d 8948F8   		movl	%ecx, -8(%rax)
 2662 1040 89D0     		movl	%edx, %eax
 2663 1042 E965FFFF 		jmp	.L381
 2663      FF
 2664              	.L428:
 2665 1047 4889C7   		movq	%rax, %rdi
 2666 104a BB010000 		movl	$1, %ebx
 2666      00
 2667              	.L367:
 2668 104f 4883FA01 		cmpq	$1, %rdx
 2669 1053 0F847001 		je	.L418
 2669      0000
 2670 1059 4883FA02 		cmpq	$2, %rdx
 2671 105d 0F852601 		jne	.L473
 2671      0000
 2672 1063 E8000000 		call	__cxa_begin_catch
 2672      00
 2673 1068 488DBC24 		leaq	144(%rsp), %rdi
 2673      90000000 
 2674 1070 4889C3   		movq	%rax, %rbx
 2675              	.LEHB30:
 2676 1073 E8000000 		call	_ZN8UnitTest15MemoryOutStreamC1Ev
 2676      00
 2677              	.LEHE30:
 2678 1078 488B03   		movq	(%rbx), %rax
 2679 107b 4889DF   		movq	%rbx, %rdi
 2680 107e FF5010   		call	*16(%rax)
 2681 1081 488DBC24 		leaq	144(%rsp), %rdi
 2681      90000000 
 2682 1089 BE000000 		movl	$.LC34, %esi
 2682      00
 2683 108e 4889C3   		movq	%rax, %rbx
 2684              	.LEHB31:
 2685 1091 E8000000 		call	_ZStlsISt11char_traitsIcEERSt13basic_ostreamIcT_ES5_PKc
 2685      00
 2686 1096 4889C7   		movq	%rax, %rdi
 2687 1099 4889DE   		movq	%rbx, %rsi
 2688 109c E8000000 		call	_ZStlsISt11char_traitsIcEERSt13basic_ostreamIcT_ES5_PKc
 2688      00
 2689 10a1 488DBC24 		leaq	144(%rsp), %rdi
 2689      90000000 
 2690 10a9 E8000000 		call	_ZNK8UnitTest15MemoryOutStream7GetTextEv
 2690      00
 2691 10ae 4889C3   		movq	%rax, %rbx
 2692 10b1 E8000000 		call	_ZN8UnitTest11CurrentTest7ResultsEv
 2692      00
 2693 10b6 488B38   		movq	(%rax), %rdi
 2694 10b9 4889DA   		movq	%rbx, %rdx
 2695 10bc 4C89EE   		movq	%r13, %rsi
 2696 10bf E8000000 		call	_ZN8UnitTest11TestResults13OnTestFailureERKNS_11TestDetailsEPKc
 2696      00
 2697              	.LEHE31:
 2698 10c4 488DBC24 		leaq	144(%rsp), %rdi
 2698      90000000 
 2699              	.LEHB32:
 2700 10cc E8000000 		call	_ZN8UnitTest15MemoryOutStreamD1Ev
 2700      00
 2701              	.LEHE32:
 2702              	.L460:
 2703 10d1 E8000000 		call	__cxa_end_catch
 2703      00
 2704 10d6 E99DFDFF 		jmp	.L358
 2704      FF
 2705              	.L437:
 2706 10db 4889C3   		movq	%rax, %rbx
 2707 10de 488B4424 		movq	80(%rsp), %rax
 2707      50
 2708 10e3 4889D5   		movq	%rdx, %rbp
 2709 10e6 488D78E8 		leaq	-24(%rax), %rdi
 2710 10ea 4881FF00 		cmpq	$_ZNSs4_Rep20_S_empty_rep_storageE, %rdi
 2710      000000
 2711 10f1 740A     		je	.L362
 2712 10f3 488D7424 		leaq	31(%rsp), %rsi
 2712      1F
 2713 10f8 E8000000 		call	_ZNSs4_Rep10_M_disposeERKSaIcE.part.1
 2713      00
 2714              	.L362:
 2715 10fd 488B4424 		movq	72(%rsp), %rax
 2715      48
 2716 1102 488D78E8 		leaq	-24(%rax), %rdi
 2717 1106 4881FF00 		cmpq	$_ZNSs4_Rep20_S_empty_rep_storageE, %rdi
 2717      000000
 2718 110d 740A     		je	.L364
 2719 110f 488D7424 		leaq	31(%rsp), %rsi
 2719      1F
 2720 1114 E8000000 		call	_ZNSs4_Rep10_M_disposeERKSaIcE.part.1
 2720      00
 2721              	.L364:
 2722 1119 488B4424 		movq	64(%rsp), %rax
 2722      40
 2723 111e 488D78E8 		leaq	-24(%rax), %rdi
 2724 1122 4881FF00 		cmpq	$_ZNSs4_Rep20_S_empty_rep_storageE, %rdi
 2724      000000
 2725 1129 740A     		je	.L366
 2726 112b 488D7424 		leaq	31(%rsp), %rsi
 2726      1F
 2727 1130 E8000000 		call	_ZNSs4_Rep10_M_disposeERKSaIcE.part.1
 2727      00
 2728              	.L366:
 2729 1135 488D7C24 		leaq	40(%rsp), %rdi
 2729      28
 2730 113a 48C74424 		movq	$_ZTVN8UnitTest20DeferredTestReporterE+16, 32(%rsp)
 2730      20000000 
 2730      00
 2731 1143 E8000000 		call	_ZNSt6vectorIN8UnitTest18DeferredTestResultESaIS1_EED1Ev
 2731      00
 2732 1148 488D7C24 		leaq	32(%rsp), %rdi
 2732      20
 2733 114d E8000000 		call	_ZN8UnitTest12TestReporterD2Ev
 2733      00
 2734 1152 4889DF   		movq	%rbx, %rdi
 2735 1155 4889EA   		movq	%rbp, %rdx
 2736 1158 31DB     		xorl	%ebx, %ebx
 2737 115a E9F0FEFF 		jmp	.L367
 2737      FF
 2738              	.L436:
 2739 115f 4889C3   		movq	%rax, %rbx
 2740 1162 4889D5   		movq	%rdx, %rbp
 2741 1165 EB96     		jmp	.L362
 2742              	.L432:
 2743 1167 488DBC24 		leaq	144(%rsp), %rdi
 2743      90000000 
 2744 116f 4889C3   		movq	%rax, %rbx
 2745 1172 E8000000 		call	_ZN8UnitTest15MemoryOutStreamD1Ev
 2745      00
 2746              	.L422:
 2747 1177 E8000000 		call	__cxa_end_catch
 2747      00
 2748 117c 4889DF   		movq	%rbx, %rdi
 2749              	.LEHB33:
 2750 117f E8000000 		call	_Unwind_Resume
 2750      00
 2751              	.LEHE33:
 2752              	.L431:
 2753              	.L461:
 2754 1184 4889C3   		movq	%rax, %rbx
 2755 1187 EBEE     		jmp	.L422
 2756              	.L473:
 2757 1189 E8000000 		call	__cxa_begin_catch
 2757      00
 2758 118e 84DB     		testb	%bl, %bl
 2759 1190 BA3D0000 		movl	$61, %edx
 2759      00
 2760 1195 4C89EE   		movq	%r13, %rsi
 2761 1198 488D7C24 		leaq	32(%rsp), %rdi
 2761      20
 2762 119d 0F849400 		je	.L425
 2762      0000
 2763              	.LEHB34:
 2764 11a3 E8000000 		call	_ZN8UnitTest11TestDetailsC1ERKS0_i
 2764      00
 2765 11a8 E8000000 		call	_ZN8UnitTest11CurrentTest7ResultsEv
 2765      00
 2766 11ad 488B38   		movq	(%rax), %rdi
 2767 11b0 488D7424 		leaq	32(%rsp), %rsi
 2767      20
 2768 11b5 BA000000 		movl	$.LC42, %edx
 2768      00
 2769 11ba E8000000 		call	_ZN8UnitTest11TestResults13OnTestFailureERKNS_11TestDetailsEPKc
 2769      00
 2770              	.LEHE34:
 2771              	.L426:
 2772              	.LEHB35:
 2773 11bf E8000000 		call	__cxa_end_catch
 2773      00
 2774              	.LEHE35:
 2775 11c4 E9AFFCFF 		jmp	.L358
 2775      FF
 2776              	.L418:
 2777 11c9 E8000000 		call	__cxa_begin_catch
 2777      00
 2778 11ce 4889C3   		movq	%rax, %rbx
 2779 11d1 488B00   		movq	(%rax), %rax
 2780 11d4 4889DF   		movq	%rbx, %rdi
 2781 11d7 FF5010   		call	*16(%rax)
 2782 11da 4889DF   		movq	%rbx, %rdi
 2783 11dd 4889C5   		movq	%rax, %rbp
 2784              	.LEHB36:
 2785 11e0 E8000000 		call	_ZNK8UnitTest15AssertException10LineNumberEv
 2785      00
 2786 11e5 4889DF   		movq	%rbx, %rdi
 2787 11e8 4189C4   		movl	%eax, %r12d
 2788 11eb E8000000 		call	_ZNK8UnitTest15AssertException8FilenameEv
 2788      00
 2789 11f0 488B7424 		movq	8(%rsp), %rsi
 2789      08
 2790 11f5 488D7C24 		leaq	32(%rsp), %rdi
 2790      20
 2791 11fa 4589E0   		movl	%r12d, %r8d
 2792 11fd 4889C1   		movq	%rax, %rcx
 2793 1200 488B5608 		movq	8(%rsi), %rdx
 2794 1204 488B7610 		movq	16(%rsi), %rsi
 2795 1208 E8000000 		call	_ZN8UnitTest11TestDetailsC1EPKcS2_S2_i
 2795      00
 2796 120d E8000000 		call	_ZN8UnitTest11CurrentTest7ResultsEv
 2796      00
 2797 1212 488B38   		movq	(%rax), %rdi
 2798 1215 488D7424 		leaq	32(%rsp), %rsi
 2798      20
 2799 121a 4889EA   		movq	%rbp, %rdx
 2800 121d E8000000 		call	_ZN8UnitTest11TestResults13OnTestFailureERKNS_11TestDetailsEPKc
 2800      00
 2801              	.LEHE36:
 2802 1222 E9AAFEFF 		jmp	.L460
 2802      FF
 2803              	.L433:
 2804 1227 4889C3   		movq	%rax, %rbx
 2805 122a E8000000 		call	__cxa_end_catch
 2805      00
 2806 122f 4889DF   		movq	%rbx, %rdi
 2807              	.LEHB37:
 2808 1232 E8000000 		call	_Unwind_Resume
 2808      00
 2809              	.LEHE37:
 2810              	.L425:
 2811              	.LEHB38:
 2812 1237 E8000000 		call	_ZN8UnitTest11TestDetailsC1ERKS0_i
 2812      00
 2813 123c E8000000 		call	_ZN8UnitTest11CurrentTest7ResultsEv
 2813      00
 2814 1241 488B38   		movq	(%rax), %rdi
 2815 1244 488D7424 		leaq	32(%rsp), %rsi
 2815      20
 2816 1249 BA000000 		movl	$.LC43, %edx
 2816      00
 2817 124e E8000000 		call	_ZN8UnitTest11TestResults13OnTestFailureERKNS_11TestDetailsEPKc
 2817      00
 2818              	.LEHE38:
 2819 1253 E967FFFF 		jmp	.L426
 2819      FF
 2820              	.L430:
 2821 1258 E927FFFF 		jmp	.L461
 2821      FF
 2822              	.L435:
 2823 125d 4889C3   		movq	%rax, %rbx
 2824 1260 4889D5   		movq	%rdx, %rbp
 2825 1263 E9B1FEFF 		jmp	.L364
 2825      FF
 2826              	.L429:
 2827 1268 488D7C24 		leaq	32(%rsp), %rdi
 2827      20
 2828 126d 4889C3   		movq	%rax, %rbx
 2829 1270 4889D5   		movq	%rdx, %rbp
 2830 1273 E8000000 		call	_ZN8UnitTest12_GLOBAL__N_127DeferredTestReporterFixtureD2Ev
 2830      00
 2831 1278 4889DF   		movq	%rbx, %rdi
 2832 127b 4889EA   		movq	%rbp, %rdx
 2833 127e BB010000 		movl	$1, %ebx
 2833      00
 2834 1283 E9C7FDFF 		jmp	.L367
 2834      FF
 2835              	.L471:
 2836 1288 E8000000 		call	__stack_chk_fail
 2836      00
 2837              	.L434:
 2838 128d 4889C3   		movq	%rax, %rbx
 2839 1290 4889D5   		movq	%rdx, %rbp
 2840 1293 E99DFEFF 		jmp	.L366
 2840      FF
 2841              		.cfi_endproc
 2842              	.LFE1437:
 2843              		.section	.gcc_except_table
 2844              		.align 4
 2845              	.LLSDA1437:
 2846 0094 FF       		.byte	0xff
 2847 0095 03       		.byte	0x3
 2848 0096 6D       		.uleb128 .LLSDATT1437-.LLSDATTD1437
 2849              	.LLSDATTD1437:
 2850 0097 01       		.byte	0x1
 2851 0098 55       		.uleb128 .LLSDACSE1437-.LLSDACSB1437
 2852              	.LLSDACSB1437:
 2853 0099 64       		.uleb128 .LEHB24-.LFB1437
 2854 009a 05       		.uleb128 .LEHE24-.LEHB24
 2855 009b AD0C     		.uleb128 .L434-.LFB1437
 2856 009d 07       		.uleb128 0x7
 2857 009e 7C       		.uleb128 .LEHB25-.LFB1437
 2858 009f 05       		.uleb128 .LEHE25-.LEHB25
 2859 00a0 FD0B     		.uleb128 .L435-.LFB1437
 2860 00a2 07       		.uleb128 0x7
 2861 00a3 9401     		.uleb128 .LEHB26-.LFB1437
 2862 00a5 05       		.uleb128 .LEHE26-.LEHB26
 2863 00a6 FF09     		.uleb128 .L436-.LFB1437
 2864 00a8 07       		.uleb128 0x7
 2865 00a9 BF01     		.uleb128 .LEHB27-.LFB1437
 2866 00ab 05       		.uleb128 .LEHE27-.LEHB27
 2867 00ac FB08     		.uleb128 .L437-.LFB1437
 2868 00ae 07       		.uleb128 0x7
 2869 00af D401     		.uleb128 .LEHB28-.LFB1437
 2870 00b1 05       		.uleb128 .LEHE28-.LEHB28
 2871 00b2 880C     		.uleb128 .L429-.LFB1437
 2872 00b4 07       		.uleb128 0x7
 2873 00b5 9304     		.uleb128 .LEHB29-.LFB1437
 2874 00b7 05       		.uleb128 .LEHE29-.LEHB29
 2875 00b8 E707     		.uleb128 .L428-.LFB1437
 2876 00ba 05       		.uleb128 0x5
 2877 00bb 9308     		.uleb128 .LEHB30-.LFB1437
 2878 00bd 05       		.uleb128 .LEHE30-.LEHB30
 2879 00be A40A     		.uleb128 .L431-.LFB1437
 2880 00c0 00       		.uleb128 0
 2881 00c1 B108     		.uleb128 .LEHB31-.LFB1437
 2882 00c3 33       		.uleb128 .LEHE31-.LEHB31
 2883 00c4 870A     		.uleb128 .L432-.LFB1437
 2884 00c6 00       		.uleb128 0
 2885 00c7 EC08     		.uleb128 .LEHB32-.LFB1437
 2886 00c9 05       		.uleb128 .LEHE32-.LEHB32
 2887 00ca A40A     		.uleb128 .L431-.LFB1437
 2888 00cc 00       		.uleb128 0
 2889 00cd 9F0A     		.uleb128 .LEHB33-.LFB1437
 2890 00cf 05       		.uleb128 .LEHE33-.LEHB33
 2891 00d0 00       		.uleb128 0
 2892 00d1 00       		.uleb128 0
 2893 00d2 C30A     		.uleb128 .LEHB34-.LFB1437
 2894 00d4 1C       		.uleb128 .LEHE34-.LEHB34
 2895 00d5 C70B     		.uleb128 .L433-.LFB1437
 2896 00d7 00       		.uleb128 0
 2897 00d8 DF0A     		.uleb128 .LEHB35-.LFB1437
 2898 00da 05       		.uleb128 .LEHE35-.LEHB35
 2899 00db 00       		.uleb128 0
 2900 00dc 00       		.uleb128 0
 2901 00dd 800B     		.uleb128 .LEHB36-.LFB1437
 2902 00df 42       		.uleb128 .LEHE36-.LEHB36
 2903 00e0 F80B     		.uleb128 .L430-.LFB1437
 2904 00e2 00       		.uleb128 0
 2905 00e3 D20B     		.uleb128 .LEHB37-.LFB1437
 2906 00e5 05       		.uleb128 .LEHE37-.LEHB37
 2907 00e6 00       		.uleb128 0
 2908 00e7 00       		.uleb128 0
 2909 00e8 D70B     		.uleb128 .LEHB38-.LFB1437
 2910 00ea 1C       		.uleb128 .LEHE38-.LEHB38
 2911 00eb C70B     		.uleb128 .L433-.LFB1437
 2912 00ed 00       		.uleb128 0
 2913              	.LLSDACSE1437:
 2914 00ee 03       		.byte	0x3
 2915 00ef 00       		.byte	0
 2916 00f0 02       		.byte	0x2
 2917 00f1 7D       		.byte	0x7d
 2918 00f2 01       		.byte	0x1
 2919 00f3 7D       		.byte	0x7d
 2920 00f4 00       		.byte	0
 2921 00f5 7D       		.byte	0x7d
 2922 00f6 0000     		.align 4
 2923 00f8 00000000 		.long	0
 2924              	
 2925 00fc 00000000 		.long	_ZTISt9exception
 2926 0100 00000000 		.long	_ZTIN8UnitTest15AssertExceptionE
 2927              	.LLSDATT1437:
 2928              		.text
 2930              		.section	.text.unlikely
 2931              	.LCOLDE44:
 2932              		.text
 2933              	.LHOTE44:
 2934              		.section	.text.unlikely._ZN8UnitTest10CheckEqualIiiEEvRNS_11TestResultsERKT_RKT0_RKNS_11TestDetail
 2935              	.LCOLDB45:
 2936              		.section	.text._ZN8UnitTest10CheckEqualIiiEEvRNS_11TestResultsERKT_RKT0_RKNS_11TestDetailsE,"axG",
 2937              	.LHOTB45:
 2938              		.p2align 4,,15
 2939              		.weak	_ZN8UnitTest10CheckEqualIiiEEvRNS_11TestResultsERKT_RKT0_RKNS_11TestDetailsE
 2941              	_ZN8UnitTest10CheckEqualIiiEEvRNS_11TestResultsERKT_RKT0_RKNS_11TestDetailsE:
 2942              	.LFB1519:
 2943              		.cfi_startproc
 2944              		.cfi_personality 0x3,__gxx_personality_v0
 2945              		.cfi_lsda 0x3,.LLSDA1519
 2946 0000 4156     		pushq	%r14
 2947              		.cfi_def_cfa_offset 16
 2948              		.cfi_offset 14, -16
 2949 0002 4155     		pushq	%r13
 2950              		.cfi_def_cfa_offset 24
 2951              		.cfi_offset 13, -24
 2952 0004 4154     		pushq	%r12
 2953              		.cfi_def_cfa_offset 32
 2954              		.cfi_offset 12, -32
 2955 0006 55       		pushq	%rbp
 2956              		.cfi_def_cfa_offset 40
 2957              		.cfi_offset 6, -40
 2958 0007 4889D5   		movq	%rdx, %rbp
 2959 000a 53       		pushq	%rbx
 2960              		.cfi_def_cfa_offset 48
 2961              		.cfi_offset 3, -48
 2962 000b 4889F3   		movq	%rsi, %rbx
 2963 000e 4881EC80 		subq	$384, %rsp
 2963      010000
 2964              		.cfi_def_cfa_offset 432
 2965 0015 64488B04 		movq	%fs:40, %rax
 2965      25280000 
 2965      00
 2966 001e 48898424 		movq	%rax, 376(%rsp)
 2966      78010000 
 2967 0026 31C0     		xorl	%eax, %eax
 2968 0028 8B02     		movl	(%rdx), %eax
 2969 002a 3906     		cmpl	%eax, (%rsi)
 2970 002c 0F84F601 		je	.L474
 2970      0000
 2971 0032 4C8D6424 		leaq	112(%rsp), %r12
 2971      70
 2972 0037 4989FD   		movq	%rdi, %r13
 2973 003a 4989CE   		movq	%rcx, %r14
 2974 003d 4C89E7   		movq	%r12, %rdi
 2975 0040 E8000000 		call	_ZNSt8ios_baseC2Ev
 2975      00
 2976 0045 31F6     		xorl	%esi, %esi
 2977 0047 4C89E7   		movq	%r12, %rdi
 2978 004a 48C78424 		movq	$0, 328(%rsp)
 2978      48010000 
 2978      00000000 
 2979 0056 C6842450 		movb	$0, 336(%rsp)
 2979      01000000 
 2980 005e C6842451 		movb	$0, 337(%rsp)
 2980      01000000 
 2981 0066 48C78424 		movq	$0, 344(%rsp)
 2981      58010000 
 2981      00000000 
 2982 0072 48C78424 		movq	$0, 352(%rsp)
 2982      60010000 
 2982      00000000 
 2983 007e 48C78424 		movq	$0, 360(%rsp)
 2983      68010000 
 2983      00000000 
 2984 008a 48C78424 		movq	$0, 368(%rsp)
 2984      70010000 
 2984      00000000 
 2985 0096 48C74424 		movq	$_ZTCN8UnitTest15MemoryOutStreamE0_So+24, 16(%rsp)
 2985      10000000 
 2985      00
 2986 009f 48C74424 		movq	$_ZTCN8UnitTest15MemoryOutStreamE0_So+64, 112(%rsp)
 2986      70000000 
 2986      00
 2987              	.LEHB39:
 2988 00a8 E8000000 		call	_ZNSt9basic_iosIcSt11char_traitsIcEE4initEPSt15basic_streambufIcS1_E
 2988      00
 2989              	.LEHE39:
 2990 00ad 488D7C24 		leaq	80(%rsp), %rdi
 2990      50
 2991 00b2 48C74424 		movq	$_ZTCN8UnitTest15MemoryOutStreamE0_St19basic_ostringstreamIcSt11char_traitsIcESaIcEE+24, 16(%
 2991      10000000 
 2991      00
 2992 00bb 48C74424 		movq	$_ZTCN8UnitTest15MemoryOutStreamE0_St19basic_ostringstreamIcSt11char_traitsIcESaIcEE+64, 112(
 2992      70000000 
 2992      00
 2993 00c4 48C74424 		movq	$_ZTVSt15basic_streambufIcSt11char_traitsIcEE+16, 24(%rsp)
 2993      18000000 
 2993      00
 2994 00cd 48C74424 		movq	$0, 32(%rsp)
 2994      20000000 
 2994      00
 2995 00d6 48C74424 		movq	$0, 40(%rsp)
 2995      28000000 
 2995      00
 2996 00df 48C74424 		movq	$0, 48(%rsp)
 2996      30000000 
 2996      00
 2997 00e8 48C74424 		movq	$0, 56(%rsp)
 2997      38000000 
 2997      00
 2998 00f1 48C74424 		movq	$0, 64(%rsp)
 2998      40000000 
 2998      00
 2999 00fa 48C74424 		movq	$0, 72(%rsp)
 2999      48000000 
 2999      00
 3000 0103 E8000000 		call	_ZNSt6localeC1Ev
 3000      00
 3001 0108 488B4424 		movq	16(%rsp), %rax
 3001      10
 3002 010d 488D7C24 		leaq	16(%rsp), %rdi
 3002      10
 3003 0112 488D7424 		leaq	24(%rsp), %rsi
 3003      18
 3004 0117 48C74424 		movq	$_ZTVSt15basic_stringbufIcSt11char_traitsIcESaIcEE+16, 24(%rsp)
 3004      18000000 
 3004      00
 3005 0120 C7442458 		movl	$16, 88(%rsp)
 3005      10000000 
 3006 0128 48C74424 		movq	$_ZNSs4_Rep20_S_empty_rep_storageE+24, 96(%rsp)
 3006      60000000 
 3006      00
 3007 0131 480378E8 		addq	-24(%rax), %rdi
 3008              	.LEHB40:
 3009 0135 E8000000 		call	_ZNSt9basic_iosIcSt11char_traitsIcEE4initEPSt15basic_streambufIcS1_E
 3009      00
 3010              	.LEHE40:
 3011 013a 488D7C24 		leaq	16(%rsp), %rdi
 3011      10
 3012 013f BA090000 		movl	$9, %edx
 3012      00
 3013 0144 BE000000 		movl	$.LC28, %esi
 3013      00
 3014 0149 48C74424 		movq	$_ZTVN8UnitTest15MemoryOutStreamE+24, 16(%rsp)
 3014      10000000 
 3014      00
 3015 0152 48C74424 		movq	$_ZTVN8UnitTest15MemoryOutStreamE+64, 112(%rsp)
 3015      70000000 
 3015      00
 3016 015b 48C74424 		movq	$_ZNSs4_Rep20_S_empty_rep_storageE+24, 104(%rsp)
 3016      68000000 
 3016      00
 3017 0164 8B6D00   		movl	0(%rbp), %ebp
 3018 0167 8B1B     		movl	(%rbx), %ebx
 3019              	.LEHB41:
 3020 0169 E8000000 		call	_ZSt16__ostream_insertIcSt11char_traitsIcEERSt13basic_ostreamIT_T0_ES6_PKS3_l
 3020      00
 3021 016e 488D7C24 		leaq	16(%rsp), %rdi
 3021      10
 3022 0173 89DE     		movl	%ebx, %esi
 3023 0175 E8000000 		call	_ZNSolsEi
 3023      00
 3024 017a BA090000 		movl	$9, %edx
 3024      00
 3025 017f BE000000 		movl	$.LC32, %esi
 3025      00
 3026 0184 4889C7   		movq	%rax, %rdi
 3027 0187 4889C3   		movq	%rax, %rbx
 3028 018a E8000000 		call	_ZSt16__ostream_insertIcSt11char_traitsIcEERSt13basic_ostreamIT_T0_ES6_PKS3_l
 3028      00
 3029 018f 89EE     		movl	%ebp, %esi
 3030 0191 4889DF   		movq	%rbx, %rdi
 3031 0194 E8000000 		call	_ZNSolsEi
 3031      00
 3032 0199 488D7C24 		leaq	16(%rsp), %rdi
 3032      10
 3033 019e E8000000 		call	_ZNK8UnitTest15MemoryOutStream7GetTextEv
 3033      00
 3034 01a3 4889C2   		movq	%rax, %rdx
 3035 01a6 4C89F6   		movq	%r14, %rsi
 3036 01a9 4C89EF   		movq	%r13, %rdi
 3037 01ac E8000000 		call	_ZN8UnitTest11TestResults13OnTestFailureERKNS_11TestDetailsEPKc
 3037      00
 3038              	.LEHE41:
 3039 01b1 488B4424 		movq	104(%rsp), %rax
 3039      68
 3040 01b6 48C74424 		movq	$_ZTVN8UnitTest15MemoryOutStreamE+24, 16(%rsp)
 3040      10000000 
 3040      00
 3041 01bf 48C74424 		movq	$_ZTVN8UnitTest15MemoryOutStreamE+64, 112(%rsp)
 3041      70000000 
 3041      00
 3042 01c8 488D78E8 		leaq	-24(%rax), %rdi
 3043 01cc 4881FF00 		cmpq	$_ZNSs4_Rep20_S_empty_rep_storageE, %rdi
 3043      000000
 3044 01d3 757B     		jne	.L500
 3045              	.L481:
 3046 01d5 488B4424 		movq	96(%rsp), %rax
 3046      60
 3047 01da 48C74424 		movq	$_ZTCN8UnitTest15MemoryOutStreamE0_St19basic_ostringstreamIcSt11char_traitsIcESaIcEE+24, 16(%
 3047      10000000 
 3047      00
 3048 01e3 48C74424 		movq	$_ZTCN8UnitTest15MemoryOutStreamE0_St19basic_ostringstreamIcSt11char_traitsIcESaIcEE+64, 112(
 3048      70000000 
 3048      00
 3049 01ec 48C74424 		movq	$_ZTVSt15basic_stringbufIcSt11char_traitsIcESaIcEE+16, 24(%rsp)
 3049      18000000 
 3049      00
 3050 01f5 488D78E8 		leaq	-24(%rax), %rdi
 3051 01f9 4881FF00 		cmpq	$_ZNSs4_Rep20_S_empty_rep_storageE, %rdi
 3051      000000
 3052 0200 757E     		jne	.L501
 3053              	.L486:
 3054 0202 488D7C24 		leaq	80(%rsp), %rdi
 3054      50
 3055 0207 48C74424 		movq	$_ZTVSt15basic_streambufIcSt11char_traitsIcEE+16, 24(%rsp)
 3055      18000000 
 3055      00
 3056 0210 E8000000 		call	_ZNSt6localeD1Ev
 3056      00
 3057 0215 488D7C24 		leaq	112(%rsp), %rdi
 3057      70
 3058 021a 48C74424 		movq	$_ZTVSt9basic_iosIcSt11char_traitsIcEE+16, 112(%rsp)
 3058      70000000 
 3058      00
 3059              	.LEHB42:
 3060 0223 E8000000 		call	_ZNSt8ios_baseD2Ev
 3060      00
 3061              	.LEHE42:
 3062              	.L474:
 3063 0228 488B8424 		movq	376(%rsp), %rax
 3063      78010000 
 3064 0230 64483304 		xorq	%fs:40, %rax
 3064      25280000 
 3064      00
 3065 0239 0F858E00 		jne	.L502
 3065      0000
 3066 023f 4881C480 		addq	$384, %rsp
 3066      010000
 3067              		.cfi_remember_state
 3068              		.cfi_def_cfa_offset 48
 3069 0246 5B       		popq	%rbx
 3070              		.cfi_def_cfa_offset 40
 3071 0247 5D       		popq	%rbp
 3072              		.cfi_def_cfa_offset 32
 3073 0248 415C     		popq	%r12
 3074              		.cfi_def_cfa_offset 24
 3075 024a 415D     		popq	%r13
 3076              		.cfi_def_cfa_offset 16
 3077 024c 415E     		popq	%r14
 3078              		.cfi_def_cfa_offset 8
 3079 024e C3       		ret
 3080 024f 90       		.p2align 4,,10
 3081              		.p2align 3
 3082              	.L500:
 3083              		.cfi_restore_state
 3084 0250 BA000000 		movl	$_ZL28__gthrw___pthread_key_createPjPFvPvE, %edx
 3084      00
 3085 0255 4885D2   		testq	%rdx, %rdx
 3086 0258 7456     		je	.L482
 3087 025a BAFFFFFF 		movl	$-1, %edx
 3087      FF
 3088 025f F00FC150 		lock xaddl	%edx, -8(%rax)
 3088      F8
 3089 0264 89D0     		movl	%edx, %eax
 3090              	.L483:
 3091 0266 85C0     		testl	%eax, %eax
 3092 0268 0F8F67FF 		jg	.L481
 3092      FFFF
 3093 026e 488D7424 		leaq	15(%rsp), %rsi
 3093      0F
 3094 0273 E8000000 		call	_ZNSs4_Rep10_M_destroyERKSaIcE
 3094      00
 3095 0278 E958FFFF 		jmp	.L481
 3095      FF
 3096 027d 0F1F00   		.p2align 4,,10
 3097              		.p2align 3
 3098              	.L501:
 3099 0280 BA000000 		movl	$_ZL28__gthrw___pthread_key_createPjPFvPvE, %edx
 3099      00
 3100 0285 4885D2   		testq	%rdx, %rdx
 3101 0288 7436     		je	.L487
 3102 028a BAFFFFFF 		movl	$-1, %edx
 3102      FF
 3103 028f F00FC150 		lock xaddl	%edx, -8(%rax)
 3103      F8
 3104 0294 89D0     		movl	%edx, %eax
 3105              	.L488:
 3106 0296 85C0     		testl	%eax, %eax
 3107 0298 0F8F64FF 		jg	.L486
 3107      FFFF
 3108 029e 488D7424 		leaq	15(%rsp), %rsi
 3108      0F
 3109 02a3 E8000000 		call	_ZNSs4_Rep10_M_destroyERKSaIcE
 3109      00
 3110 02a8 E955FFFF 		jmp	.L486
 3110      FF
 3111 02ad 0F1F00   		.p2align 4,,10
 3112              		.p2align 3
 3113              	.L482:
 3114 02b0 8B50F8   		movl	-8(%rax), %edx
 3115 02b3 8D4AFF   		leal	-1(%rdx), %ecx
 3116 02b6 8948F8   		movl	%ecx, -8(%rax)
 3117 02b9 89D0     		movl	%edx, %eax
 3118 02bb EBA9     		jmp	.L483
 3119 02bd 0F1F00   		.p2align 4,,10
 3120              		.p2align 3
 3121              	.L487:
 3122 02c0 8B50F8   		movl	-8(%rax), %edx
 3123 02c3 8D4AFF   		leal	-1(%rdx), %ecx
 3124 02c6 8948F8   		movl	%ecx, -8(%rax)
 3125 02c9 89D0     		movl	%edx, %eax
 3126 02cb EBC9     		jmp	.L488
 3127              	.L502:
 3128 02cd E8000000 		call	__stack_chk_fail
 3128      00
 3129              	.L492:
 3130 02d2 4889C3   		movq	%rax, %rbx
 3131 02d5 EB0A     		jmp	.L490
 3132              	.L494:
 3133 02d7 4889C3   		movq	%rax, %rbx
 3134 02da EB17     		jmp	.L477
 3135              	.L493:
 3136 02dc 4889C3   		movq	%rax, %rbx
 3137 02df EB1C     		jmp	.L478
 3138              	.L490:
 3139 02e1 488D7C24 		leaq	16(%rsp), %rdi
 3139      10
 3140 02e6 E8000000 		call	_ZN8UnitTest15MemoryOutStreamD1Ev
 3140      00
 3141 02eb 4889DF   		movq	%rbx, %rdi
 3142              	.LEHB43:
 3143 02ee E8000000 		call	_Unwind_Resume
 3143      00
 3144              	.LEHE43:
 3145              	.L477:
 3146 02f3 488D7C24 		leaq	24(%rsp), %rdi
 3146      18
 3147 02f8 E8000000 		call	_ZNSt15basic_stringbufIcSt11char_traitsIcESaIcEED1Ev
 3147      00
 3148              	.L478:
 3149 02fd 488D7C24 		leaq	112(%rsp), %rdi
 3149      70
 3150 0302 48C74424 		movq	$_ZTVSt9basic_iosIcSt11char_traitsIcEE+16, 112(%rsp)
 3150      70000000 
 3150      00
 3151 030b E8000000 		call	_ZNSt8ios_baseD2Ev
 3151      00
 3152 0310 4889DF   		movq	%rbx, %rdi
 3153              	.LEHB44:
 3154 0313 E8000000 		call	_Unwind_Resume
 3154      00
 3155              	.LEHE44:
 3156              		.cfi_endproc
 3157              	.LFE1519:
 3158              		.section	.gcc_except_table
 3159              	.LLSDA1519:
 3160 0104 FF       		.byte	0xff
 3161 0105 FF       		.byte	0xff
 3162 0106 01       		.byte	0x1
 3163 0107 21       		.uleb128 .LLSDACSE1519-.LLSDACSB1519
 3164              	.LLSDACSB1519:
 3165 0108 A801     		.uleb128 .LEHB39-.LFB1519
 3166 010a 05       		.uleb128 .LEHE39-.LEHB39
 3167 010b DC05     		.uleb128 .L493-.LFB1519
 3168 010d 00       		.uleb128 0
 3169 010e B502     		.uleb128 .LEHB40-.LFB1519
 3170 0110 05       		.uleb128 .LEHE40-.LEHB40
 3171 0111 D705     		.uleb128 .L494-.LFB1519
 3172 0113 00       		.uleb128 0
 3173 0114 E902     		.uleb128 .LEHB41-.LFB1519
 3174 0116 48       		.uleb128 .LEHE41-.LEHB41
 3175 0117 D205     		.uleb128 .L492-.LFB1519
 3176 0119 00       		.uleb128 0
 3177 011a A304     		.uleb128 .LEHB42-.LFB1519
 3178 011c 05       		.uleb128 .LEHE42-.LEHB42
 3179 011d 00       		.uleb128 0
 3180 011e 00       		.uleb128 0
 3181 011f EE05     		.uleb128 .LEHB43-.LFB1519
 3182 0121 05       		.uleb128 .LEHE43-.LEHB43
 3183 0122 00       		.uleb128 0
 3184 0123 00       		.uleb128 0
 3185 0124 9306     		.uleb128 .LEHB44-.LFB1519
 3186 0126 05       		.uleb128 .LEHE44-.LEHB44
 3187 0127 00       		.uleb128 0
 3188 0128 00       		.uleb128 0
 3189              	.LLSDACSE1519:
 3190              		.section	.text._ZN8UnitTest10CheckEqualIiiEEvRNS_11TestResultsERKT_RKT0_RKNS_11TestDetailsE,"axG",
 3192              		.section	.text.unlikely._ZN8UnitTest10CheckEqualIiiEEvRNS_11TestResultsERKT_RKT0_RKNS_11TestDetail
 3193              	.LCOLDE45:
 3194              		.section	.text._ZN8UnitTest10CheckEqualIiiEEvRNS_11TestResultsERKT_RKT0_RKNS_11TestDetailsE,"axG",
 3195              	.LHOTE45:
 3196              		.section	.rodata.str1.8
 3197 012b 00000000 		.align 8
 3197      00
 3198              	.LC46:
 3199 0130 556E6861 		.string	"Unhandled exception in CHECK_EQUAL(1, (int)reporter.GetResults().size())"
 3199      6E646C65 
 3199      64206578 
 3199      63657074 
 3199      696F6E20 
 3200              		.section	.text.unlikely
 3201              	.LCOLDB47:
 3202              		.text
 3203              	.LHOTB47:
 3204 1298 0F1F8400 		.p2align 4,,15
 3204      00000000 
 3206              	_ZN8UnitTest11ExecuteTestINS_12_GLOBAL__N_171DeferredTestReporterFixtureReportTestStartCreatesANewD
 3207              	.LFB1516:
 3208              		.cfi_startproc
 3209              		.cfi_personality 0x3,__gxx_personality_v0
 3210              		.cfi_lsda 0x3,.LLSDA1516
 3211 12a0 4154     		pushq	%r12
 3212              		.cfi_def_cfa_offset 16
 3213              		.cfi_offset 12, -16
 3214 12a2 55       		pushq	%rbp
 3215              		.cfi_def_cfa_offset 24
 3216              		.cfi_offset 6, -24
 3217 12a3 53       		pushq	%rbx
 3218              		.cfi_def_cfa_offset 32
 3219              		.cfi_offset 3, -32
 3220 12a4 4889F3   		movq	%rsi, %rbx
 3221 12a7 4881EC60 		subq	$1632, %rsp
 3221      060000
 3222              		.cfi_def_cfa_offset 1664
 3223 12ae 48893C24 		movq	%rdi, (%rsp)
 3224 12b2 48897424 		movq	%rsi, 8(%rsp)
 3224      08
 3225 12b7 64488B04 		movq	%fs:40, %rax
 3225      25280000 
 3225      00
 3226 12c0 48898424 		movq	%rax, 1624(%rsp)
 3226      58060000 
 3227 12c8 31C0     		xorl	%eax, %eax
 3228              	.LEHB45:
 3229 12ca E8000000 		call	_ZN8UnitTest11CurrentTest7DetailsEv
 3229      00
 3230              	.LEHE45:
 3231 12cf 488DBC24 		leaq	496(%rsp), %rdi
 3231      F0010000 
 3232 12d7 488918   		movq	%rbx, (%rax)
 3233              	.LEHB46:
 3234 12da E8000000 		call	_ZN8UnitTest16SignalTranslatorC1Ev
 3234      00
 3235              	.LEHE46:
 3236 12df 488B3D00 		movq	_ZN8UnitTest16SignalTranslator12s_jumpTargetE(%rip), %rdi
 3236      000000
 3237 12e6 BE010000 		movl	$1, %esi
 3237      00
 3238 12eb E8000000 		call	__sigsetjmp
 3238      00
 3239 12f0 85C0     		testl	%eax, %eax
 3240 12f2 0F85A800 		jne	.L535
 3240      0000
 3241 12f8 488B1C24 		movq	(%rsp), %rbx
 3242 12fc 488D7340 		leaq	64(%rbx), %rsi
 3243 1300 4889DF   		movq	%rbx, %rdi
 3244              	.LEHB47:
 3245 1303 E8000000 		call	_ZN8UnitTest20DeferredTestReporter15ReportTestStartERKNS_11TestDetailsE
 3245      00
 3246              	.LEHE47:
 3247              	.LEHB48:
 3248 1308 E8000000 		call	_ZN8UnitTest11CurrentTest7DetailsEv
 3248      00
 3249 130d 488B30   		movq	(%rax), %rsi
 3250 1310 488D7C24 		leaq	96(%rsp), %rdi
 3250      60
 3251 1315 BA310000 		movl	$49, %edx
 3251      00
 3252 131a E8000000 		call	_ZN8UnitTest11TestDetailsC1ERKS0_i
 3252      00
 3253 131f 4889DF   		movq	%rbx, %rdi
 3254 1322 E8000000 		call	_ZN8UnitTest20DeferredTestReporter10GetResultsEv
 3254      00
 3255 1327 488B5008 		movq	8(%rax), %rdx
 3256 132b 482B10   		subq	(%rax), %rdx
 3257 132e C7442418 		movl	$1, 24(%rsp)
 3257      01000000 
 3258 1336 4889D0   		movq	%rdx, %rax
 3259 1339 48BAB76D 		movabsq	$7905747460161236407, %rdx
 3259      DBB66DDB 
 3259      B66D
 3260 1343 48C1F803 		sarq	$3, %rax
 3261 1347 480FAFC2 		imulq	%rdx, %rax
 3262 134b 8944241C 		movl	%eax, 28(%rsp)
 3263 134f E8000000 		call	_ZN8UnitTest11CurrentTest7ResultsEv
 3263      00
 3264 1354 488B38   		movq	(%rax), %rdi
 3265 1357 488D4C24 		leaq	96(%rsp), %rcx
 3265      60
 3266 135c 488D5424 		leaq	28(%rsp), %rdx
 3266      1C
 3267 1361 488D7424 		leaq	24(%rsp), %rsi
 3267      18
 3268 1366 E8000000 		call	_ZN8UnitTest10CheckEqualIiiEEvRNS_11TestResultsERKT_RKT0_RKNS_11TestDetailsE
 3268      00
 3269              	.LEHE48:
 3270              	.L506:
 3271 136b 488DBC24 		leaq	496(%rsp), %rdi
 3271      F0010000 
 3272              	.LEHB49:
 3273 1373 E8000000 		call	_ZN8UnitTest16SignalTranslatorD1Ev
 3273      00
 3274              	.LEHE49:
 3275              	.L503:
 3276 1378 488B8424 		movq	1624(%rsp), %rax
 3276      58060000 
 3277 1380 64483304 		xorq	%fs:40, %rax
 3277      25280000 
 3277      00
 3278 1389 0F85D800 		jne	.L536
 3278      0000
 3279 138f 4881C460 		addq	$1632, %rsp
 3279      060000
 3280              		.cfi_remember_state
 3281              		.cfi_def_cfa_offset 32
 3282 1396 5B       		popq	%rbx
 3283              		.cfi_def_cfa_offset 24
 3284 1397 5D       		popq	%rbp
 3285              		.cfi_def_cfa_offset 16
 3286 1398 415C     		popq	%r12
 3287              		.cfi_def_cfa_offset 8
 3288 139a C3       		ret
 3289 139b 0F1F4400 		.p2align 4,,10
 3289      00
 3290              		.p2align 3
 3291              	.L535:
 3292              		.cfi_restore_state
 3293 13a0 BF080000 		movl	$8, %edi
 3293      00
 3294 13a5 E8000000 		call	__cxa_allocate_exception
 3294      00
 3295 13aa 31D2     		xorl	%edx, %edx
 3296 13ac 48C70000 		movq	$.LC23, (%rax)
 3296      000000
 3297 13b3 BE000000 		movl	$_ZTIPKc, %esi
 3297      00
 3298 13b8 4889C7   		movq	%rax, %rdi
 3299              	.LEHB50:
 3300 13bb E8000000 		call	__cxa_throw
 3300      00
 3301              	.LEHE50:
 3302              	.L522:
 3303 13c0 4889C5   		movq	%rax, %rbp
 3304 13c3 4889D3   		movq	%rdx, %rbx
 3305              	.L508:
 3306 13c6 488DBC24 		leaq	496(%rsp), %rdi
 3306      F0010000 
 3307 13ce E8000000 		call	_ZN8UnitTest16SignalTranslatorD1Ev
 3307      00
 3308 13d3 4889EF   		movq	%rbp, %rdi
 3309 13d6 4889DA   		movq	%rbx, %rdx
 3310              	.L510:
 3311 13d9 4883FA01 		cmpq	$1, %rdx
 3312 13dd 0F842901 		je	.L512
 3312      0000
 3313 13e3 4883FA02 		cmpq	$2, %rdx
 3314 13e7 0F85F900 		jne	.L537
 3314      0000
 3315 13ed E8000000 		call	__cxa_begin_catch
 3315      00
 3316 13f2 488DBC24 		leaq	128(%rsp), %rdi
 3316      80000000 
 3317 13fa 4889C3   		movq	%rax, %rbx
 3318              	.LEHB51:
 3319 13fd E8000000 		call	_ZN8UnitTest15MemoryOutStreamC1Ev
 3319      00
 3320              	.LEHE51:
 3321 1402 488B03   		movq	(%rbx), %rax
 3322 1405 4889DF   		movq	%rbx, %rdi
 3323 1408 FF5010   		call	*16(%rax)
 3324 140b 488DBC24 		leaq	128(%rsp), %rdi
 3324      80000000 
 3325 1413 BE000000 		movl	$.LC34, %esi
 3325      00
 3326 1418 4889C3   		movq	%rax, %rbx
 3327              	.LEHB52:
 3328 141b E8000000 		call	_ZStlsISt11char_traitsIcEERSt13basic_ostreamIcT_ES5_PKc
 3328      00
 3329 1420 4889C7   		movq	%rax, %rdi
 3330 1423 4889DE   		movq	%rbx, %rsi
 3331 1426 E8000000 		call	_ZStlsISt11char_traitsIcEERSt13basic_ostreamIcT_ES5_PKc
 3331      00
 3332 142b 488DBC24 		leaq	128(%rsp), %rdi
 3332      80000000 
 3333 1433 E8000000 		call	_ZNK8UnitTest15MemoryOutStream7GetTextEv
 3333      00
 3334 1438 4889C3   		movq	%rax, %rbx
 3335 143b E8000000 		call	_ZN8UnitTest11CurrentTest7ResultsEv
 3335      00
 3336 1440 488B7424 		movq	8(%rsp), %rsi
 3336      08
 3337 1445 488B38   		movq	(%rax), %rdi
 3338 1448 4889DA   		movq	%rbx, %rdx
 3339 144b E8000000 		call	_ZN8UnitTest11TestResults13OnTestFailureERKNS_11TestDetailsEPKc
 3339      00
 3340              	.LEHE52:
 3341 1450 488DBC24 		leaq	128(%rsp), %rdi
 3341      80000000 
 3342              	.LEHB53:
 3343 1458 E8000000 		call	_ZN8UnitTest15MemoryOutStreamD1Ev
 3343      00
 3344              	.LEHE53:
 3345              	.L532:
 3346 145d E8000000 		call	__cxa_end_catch
 3346      00
 3347 1462 E911FFFF 		jmp	.L503
 3347      FF
 3348              	.L536:
 3349 1467 E8000000 		call	__stack_chk_fail
 3349      00
 3350              	.L528:
 3351 146c 4889C7   		movq	%rax, %rdi
 3352 146f E8000000 		call	__cxa_begin_catch
 3352      00
 3353              	.LEHB54:
 3354 1474 E8000000 		call	_ZN8UnitTest11CurrentTest7DetailsEv
 3354      00
 3355 1479 488B30   		movq	(%rax), %rsi
 3356 147c 488D7C24 		leaq	64(%rsp), %rdi
 3356      40
 3357 1481 BA310000 		movl	$49, %edx
 3357      00
 3358 1486 E8000000 		call	_ZN8UnitTest11TestDetailsC1ERKS0_i
 3358      00
 3359 148b E8000000 		call	_ZN8UnitTest11CurrentTest7ResultsEv
 3359      00
 3360 1490 488B38   		movq	(%rax), %rdi
 3361 1493 488D7424 		leaq	64(%rsp), %rsi
 3361      40
 3362 1498 BA000000 		movl	$.LC46, %edx
 3362      00
 3363 149d E8000000 		call	_ZN8UnitTest11TestResults13OnTestFailureERKNS_11TestDetailsEPKc
 3363      00
 3364              	.LEHE54:
 3365              	.LEHB55:
 3366 14a2 E8000000 		call	__cxa_end_catch
 3366      00
 3367              	.LEHE55:
 3368 14a7 E9BFFEFF 		jmp	.L506
 3368      FF
 3369              	.L521:
 3370 14ac 4889C7   		movq	%rax, %rdi
 3371 14af E925FFFF 		jmp	.L510
 3371      FF
 3372              	.L527:
 3373 14b4 4889C5   		movq	%rax, %rbp
 3374 14b7 4889D3   		movq	%rdx, %rbx
 3375 14ba E8000000 		call	__cxa_end_catch
 3375      00
 3376 14bf E902FFFF 		jmp	.L508
 3376      FF
 3377              	.L525:
 3378 14c4 488DBC24 		leaq	128(%rsp), %rdi
 3378      80000000 
 3379 14cc 4889C3   		movq	%rax, %rbx
 3380 14cf E8000000 		call	_ZN8UnitTest15MemoryOutStreamD1Ev
 3380      00
 3381              	.L516:
 3382 14d4 E8000000 		call	__cxa_end_catch
 3382      00
 3383 14d9 4889DF   		movq	%rbx, %rdi
 3384              	.LEHB56:
 3385 14dc E8000000 		call	_Unwind_Resume
 3385      00
 3386              	.LEHE56:
 3387              	.L524:
 3388              	.L533:
 3389 14e1 4889C3   		movq	%rax, %rbx
 3390 14e4 EBEE     		jmp	.L516
 3391              	.L537:
 3392 14e6 E8000000 		call	__cxa_begin_catch
 3392      00
 3393              	.LEHB57:
 3394 14eb E8000000 		call	_ZN8UnitTest11CurrentTest7ResultsEv
 3394      00
 3395 14f0 488B7424 		movq	8(%rsp), %rsi
 3395      08
 3396 14f5 488B38   		movq	(%rax), %rdi
 3397 14f8 BA000000 		movl	$.LC35, %edx
 3397      00
 3398 14fd E8000000 		call	_ZN8UnitTest11TestResults13OnTestFailureERKNS_11TestDetailsEPKc
 3398      00
 3399              	.LEHE57:
 3400              	.LEHB58:
 3401 1502 E8000000 		call	__cxa_end_catch
 3401      00
 3402              	.LEHE58:
 3403 1507 E96CFEFF 		jmp	.L503
 3403      FF
 3404              	.L512:
 3405 150c E8000000 		call	__cxa_begin_catch
 3405      00
 3406 1511 4889C3   		movq	%rax, %rbx
 3407 1514 488B00   		movq	(%rax), %rax
 3408 1517 4889DF   		movq	%rbx, %rdi
 3409 151a FF5010   		call	*16(%rax)
 3410 151d 4889DF   		movq	%rbx, %rdi
 3411 1520 4889C5   		movq	%rax, %rbp
 3412              	.LEHB59:
 3413 1523 E8000000 		call	_ZNK8UnitTest15AssertException10LineNumberEv
 3413      00
 3414 1528 4889DF   		movq	%rbx, %rdi
 3415 152b 4189C4   		movl	%eax, %r12d
 3416 152e E8000000 		call	_ZNK8UnitTest15AssertException8FilenameEv
 3416      00
 3417 1533 4889C1   		movq	%rax, %rcx
 3418 1536 488B4424 		movq	8(%rsp), %rax
 3418      08
 3419 153b 488D7C24 		leaq	32(%rsp), %rdi
 3419      20
 3420 1540 4589E0   		movl	%r12d, %r8d
 3421 1543 488B7008 		movq	8(%rax), %rsi
 3422 1547 488B10   		movq	(%rax), %rdx
 3423 154a E8000000 		call	_ZN8UnitTest11TestDetailsC1EPKcS2_S2_i
 3423      00
 3424 154f E8000000 		call	_ZN8UnitTest11CurrentTest7ResultsEv
 3424      00
 3425 1554 488B38   		movq	(%rax), %rdi
 3426 1557 488D7424 		leaq	32(%rsp), %rsi
 3426      20
 3427 155c 4889EA   		movq	%rbp, %rdx
 3428 155f E8000000 		call	_ZN8UnitTest11TestResults13OnTestFailureERKNS_11TestDetailsEPKc
 3428      00
 3429              	.LEHE59:
 3430 1564 E9F4FEFF 		jmp	.L532
 3430      FF
 3431              	.L526:
 3432 1569 4889C3   		movq	%rax, %rbx
 3433 156c E8000000 		call	__cxa_end_catch
 3433      00
 3434 1571 4889DF   		movq	%rbx, %rdi
 3435              	.LEHB60:
 3436 1574 E8000000 		call	_Unwind_Resume
 3436      00
 3437              	.LEHE60:
 3438              	.L523:
 3439 1579 E963FFFF 		jmp	.L533
 3439      FF
 3440              		.cfi_endproc
 3441              	.LFE1516:
 3442              		.section	.gcc_except_table
 3443 0129 000000   		.align 4
 3444              	.LLSDA1516:
 3445 012c FF       		.byte	0xff
 3446 012d 03       		.byte	0x3
 3447 012e 71       		.uleb128 .LLSDATT1516-.LLSDATTD1516
 3448              	.LLSDATTD1516:
 3449 012f 01       		.byte	0x1
 3450 0130 58       		.uleb128 .LLSDACSE1516-.LLSDACSB1516
 3451              	.LLSDACSB1516:
 3452 0131 2A       		.uleb128 .LEHB45-.LFB1516
 3453 0132 05       		.uleb128 .LEHE45-.LEHB45
 3454 0133 00       		.uleb128 0
 3455 0134 00       		.uleb128 0
 3456 0135 3A       		.uleb128 .LEHB46-.LFB1516
 3457 0136 05       		.uleb128 .LEHE46-.LEHB46
 3458 0137 8C04     		.uleb128 .L521-.LFB1516
 3459 0139 05       		.uleb128 0x5
 3460 013a 63       		.uleb128 .LEHB47-.LFB1516
 3461 013b 05       		.uleb128 .LEHE47-.LEHB47
 3462 013c A002     		.uleb128 .L522-.LFB1516
 3463 013e 07       		.uleb128 0x7
 3464 013f 68       		.uleb128 .LEHB48-.LFB1516
 3465 0140 63       		.uleb128 .LEHE48-.LEHB48
 3466 0141 CC03     		.uleb128 .L528-.LFB1516
 3467 0143 01       		.uleb128 0x1
 3468 0144 D301     		.uleb128 .LEHB49-.LFB1516
 3469 0146 05       		.uleb128 .LEHE49-.LEHB49
 3470 0147 8C04     		.uleb128 .L521-.LFB1516
 3471 0149 05       		.uleb128 0x5
 3472 014a 9B02     		.uleb128 .LEHB50-.LFB1516
 3473 014c 05       		.uleb128 .LEHE50-.LEHB50
 3474 014d A002     		.uleb128 .L522-.LFB1516
 3475 014f 07       		.uleb128 0x7
 3476 0150 DD02     		.uleb128 .LEHB51-.LFB1516
 3477 0152 05       		.uleb128 .LEHE51-.LEHB51
 3478 0153 C104     		.uleb128 .L524-.LFB1516
 3479 0155 00       		.uleb128 0
 3480 0156 FB02     		.uleb128 .LEHB52-.LFB1516
 3481 0158 35       		.uleb128 .LEHE52-.LEHB52
 3482 0159 A404     		.uleb128 .L525-.LFB1516
 3483 015b 00       		.uleb128 0
 3484 015c B803     		.uleb128 .LEHB53-.LFB1516
 3485 015e 05       		.uleb128 .LEHE53-.LEHB53
 3486 015f C104     		.uleb128 .L524-.LFB1516
 3487 0161 00       		.uleb128 0
 3488 0162 D403     		.uleb128 .LEHB54-.LFB1516
 3489 0164 2E       		.uleb128 .LEHE54-.LEHB54
 3490 0165 9404     		.uleb128 .L527-.LFB1516
 3491 0167 07       		.uleb128 0x7
 3492 0168 8204     		.uleb128 .LEHB55-.LFB1516
 3493 016a 05       		.uleb128 .LEHE55-.LEHB55
 3494 016b A002     		.uleb128 .L522-.LFB1516
 3495 016d 07       		.uleb128 0x7
 3496 016e BC04     		.uleb128 .LEHB56-.LFB1516
 3497 0170 05       		.uleb128 .LEHE56-.LEHB56
 3498 0171 00       		.uleb128 0
 3499 0172 00       		.uleb128 0
 3500 0173 CB04     		.uleb128 .LEHB57-.LFB1516
 3501 0175 17       		.uleb128 .LEHE57-.LEHB57
 3502 0176 C905     		.uleb128 .L526-.LFB1516
 3503 0178 00       		.uleb128 0
 3504 0179 E204     		.uleb128 .LEHB58-.LFB1516
 3505 017b 05       		.uleb128 .LEHE58-.LEHB58
 3506 017c 00       		.uleb128 0
 3507 017d 00       		.uleb128 0
 3508 017e 8305     		.uleb128 .LEHB59-.LFB1516
 3509 0180 41       		.uleb128 .LEHE59-.LEHB59
 3510 0181 D905     		.uleb128 .L523-.LFB1516
 3511 0183 00       		.uleb128 0
 3512 0184 D405     		.uleb128 .LEHB60-.LFB1516
 3513 0186 05       		.uleb128 .LEHE60-.LEHB60
 3514 0187 00       		.uleb128 0
 3515 0188 00       		.uleb128 0
 3516              	.LLSDACSE1516:
 3517 0189 03       		.byte	0x3
 3518 018a 00       		.byte	0
 3519 018b 02       		.byte	0x2
 3520 018c 7D       		.byte	0x7d
 3521 018d 01       		.byte	0x1
 3522 018e 7D       		.byte	0x7d
 3523 018f 00       		.byte	0
 3524 0190 7D       		.byte	0x7d
 3525 0191 000000   		.align 4
 3526 0194 00000000 		.long	0
 3527              	
 3528 0198 00000000 		.long	_ZTISt9exception
 3529 019c 00000000 		.long	_ZTIN8UnitTest15AssertExceptionE
 3530              	.LLSDATT1516:
 3531              		.text
 3533              		.section	.text.unlikely
 3534              	.LCOLDE47:
 3535              		.text
 3536              	.LHOTE47:
 3537              		.section	.text.unlikely
 3538              		.align 2
 3539              	.LCOLDB48:
 3540              		.text
 3541              	.LHOTB48:
 3542              		.align 2
 3543 157e 6690     		.p2align 4,,15
 3545              	_ZNK8UnitTest12_GLOBAL__N_169TestDeferredTestReporterFixtureReportTestStartCreatesANewDeferredTest7
 3546              	.LFB1415:
 3547              		.cfi_startproc
 3548              		.cfi_personality 0x3,__gxx_personality_v0
 3549              		.cfi_lsda 0x3,.LLSDA1415
 3550 1580 4157     		pushq	%r15
 3551              		.cfi_def_cfa_offset 16
 3552              		.cfi_offset 15, -16
 3553 1582 4156     		pushq	%r14
 3554              		.cfi_def_cfa_offset 24
 3555              		.cfi_offset 14, -24
 3556 1584 BE000000 		movl	$.LC39, %esi
 3556      00
 3557 1589 4155     		pushq	%r13
 3558              		.cfi_def_cfa_offset 32
 3559              		.cfi_offset 13, -32
 3560 158b 4154     		pushq	%r12
 3561              		.cfi_def_cfa_offset 40
 3562              		.cfi_offset 12, -40
 3563 158d 4C8D6F08 		leaq	8(%rdi), %r13
 3564 1591 55       		pushq	%rbp
 3565              		.cfi_def_cfa_offset 48
 3566              		.cfi_offset 6, -48
 3567 1592 53       		pushq	%rbx
 3568              		.cfi_def_cfa_offset 56
 3569              		.cfi_offset 3, -56
 3570 1593 4881EC08 		subq	$520, %rsp
 3570      020000
 3571              		.cfi_def_cfa_offset 576
 3572 159a 488D4424 		leaq	32(%rsp), %rax
 3572      20
 3573 159f 48897C24 		movq	%rdi, 8(%rsp)
 3573      08
 3574 15a4 48C74424 		movq	$0, 40(%rsp)
 3574      28000000 
 3574      00
 3575 15ad 64488B14 		movq	%fs:40, %rdx
 3575      25280000 
 3575      00
 3576 15b6 48899424 		movq	%rdx, 504(%rsp)
 3576      F8010000 
 3577 15be 31D2     		xorl	%edx, %edx
 3578 15c0 488D7820 		leaq	32(%rax), %rdi
 3579 15c4 488D5424 		leaq	31(%rsp), %rdx
 3579      1F
 3580 15c9 48C74424 		movq	$0, 48(%rsp)
 3580      30000000 
 3580      00
 3581 15d2 48C74424 		movq	$0, 56(%rsp)
 3581      38000000 
 3581      00
 3582 15db 48C74424 		movq	$_ZTVN8UnitTest12_GLOBAL__N_124MockDeferredTestReporterE+16, 32(%rsp)
 3582      20000000 
 3582      00
 3583              	.LEHB61:
 3584 15e4 E8000000 		call	_ZNSsC1EPKcRKSaIcE
 3584      00
 3585              	.LEHE61:
 3586 15e9 488D4424 		leaq	32(%rsp), %rax
 3586      20
 3587 15ee 488D5424 		leaq	31(%rsp), %rdx
 3587      1F
 3588 15f3 BE000000 		movl	$.LC40, %esi
 3588      00
 3589 15f8 488D7828 		leaq	40(%rax), %rdi
 3590              	.LEHB62:
 3591 15fc E8000000 		call	_ZNSsC1EPKcRKSaIcE
 3591      00
 3592              	.LEHE62:
 3593 1601 488D4424 		leaq	32(%rsp), %rax
 3593      20
 3594 1606 488D5424 		leaq	31(%rsp), %rdx
 3594      1F
 3595 160b BE000000 		movl	$.LC41, %esi
 3595      00
 3596 1610 488D7830 		leaq	48(%rax), %rdi
 3597              	.LEHB63:
 3598 1614 E8000000 		call	_ZNSsC1EPKcRKSaIcE
 3598      00
 3599              	.LEHE63:
 3600 1619 488D4424 		leaq	32(%rsp), %rax
 3600      20
 3601 161e 488B4C24 		movq	80(%rsp), %rcx
 3601      50
 3602 1623 488B5424 		movq	72(%rsp), %rdx
 3602      48
 3603 1628 488B7424 		movq	64(%rsp), %rsi
 3603      40
 3604 162d 41B80C00 		movl	$12, %r8d
 3604      0000
 3605 1633 C7442458 		movl	$12, 88(%rsp)
 3605      0C000000 
 3606 163b 488D7840 		leaq	64(%rax), %rdi
 3607              	.LEHB64:
 3608 163f E8000000 		call	_ZN8UnitTest11TestDetailsC1EPKcS2_S2_i
 3608      00
 3609              	.LEHE64:
 3610 1644 488D7C24 		leaq	32(%rsp), %rdi
 3610      20
 3611 1649 4C89EE   		movq	%r13, %rsi
 3612 164c 4C89AC24 		movq	%r13, 128(%rsp)
 3612      80000000 
 3613              	.LEHB65:
 3614 1654 E847FCFF 		call	_ZN8UnitTest11ExecuteTestINS_12_GLOBAL__N_171DeferredTestReporterFixtureReportTestStartCreate
 3614      FF
 3615              	.LEHE65:
 3616 1659 488B4424 		movq	80(%rsp), %rax
 3616      50
 3617 165e 488D78E8 		leaq	-24(%rax), %rdi
 3618 1662 4881FF00 		cmpq	$_ZNSs4_Rep20_S_empty_rep_storageE, %rdi
 3618      000000
 3619 1669 0F857402 		jne	.L645
 3619      0000
 3620              	.L549:
 3621 166f 488B4424 		movq	72(%rsp), %rax
 3621      48
 3622 1674 488D78E8 		leaq	-24(%rax), %rdi
 3623 1678 4881FF00 		cmpq	$_ZNSs4_Rep20_S_empty_rep_storageE, %rdi
 3623      000000
 3624 167f 0F858B02 		jne	.L646
 3624      0000
 3625              	.L554:
 3626 1685 488B4424 		movq	64(%rsp), %rax
 3626      40
 3627 168a 488D78E8 		leaq	-24(%rax), %rdi
 3628 168e 4881FF00 		cmpq	$_ZNSs4_Rep20_S_empty_rep_storageE, %rdi
 3628      000000
 3629 1695 0F851702 		jne	.L647
 3629      0000
 3630              	.L559:
 3631 169b 488B6C24 		movq	48(%rsp), %rbp
 3631      30
 3632 16a0 4C8B7424 		movq	40(%rsp), %r14
 3632      28
 3633 16a5 48C74424 		movq	$_ZTVN8UnitTest20DeferredTestReporterE+16, 32(%rsp)
 3633      20000000 
 3633      00
 3634 16ae 4C39F5   		cmpq	%r14, %rbp
 3635 16b1 0F84CA00 		je	.L563
 3635      0000
 3636 16b7 41BC0000 		movl	$_ZL28__gthrw___pthread_key_createPjPFvPvE, %r12d
 3636      0000
 3637 16bd 0F1F00   		.p2align 4,,10
 3638              		.p2align 3
 3639              	.L592:
 3640 16c0 4D8B7E20 		movq	32(%r14), %r15
 3641 16c4 498B5E18 		movq	24(%r14), %rbx
 3642 16c8 4939DF   		cmpq	%rbx, %r15
 3643 16cb 7457     		je	.L564
 3644 16cd 4D85E4   		testq	%r12, %r12
 3645 16d0 7517     		jne	.L628
 3646 16d2 E9160100 		jmp	.L570
 3646      00
 3647 16d7 660F1F84 		.p2align 4,,10
 3647      00000000 
 3647      00
 3648              		.p2align 3
 3649              	.L573:
 3650 16e0 4883C310 		addq	$16, %rbx
 3651 16e4 4939DF   		cmpq	%rbx, %r15
 3652 16e7 7437     		je	.L571
 3653              	.L628:
 3654 16e9 488B4308 		movq	8(%rbx), %rax
 3655 16ed 488D78E8 		leaq	-24(%rax), %rdi
 3656 16f1 4881FF00 		cmpq	$_ZNSs4_Rep20_S_empty_rep_storageE, %rdi
 3656      000000
 3657 16f8 74E6     		je	.L573
 3658 16fa B9FFFFFF 		movl	$-1, %ecx
 3658      FF
 3659 16ff F00FC148 		lock xaddl	%ecx, -8(%rax)
 3659      F8
 3660 1704 85C9     		testl	%ecx, %ecx
 3661 1706 7FD8     		jg	.L573
 3662 1708 488D7424 		leaq	31(%rsp), %rsi
 3662      1F
 3663 170d 4883C310 		addq	$16, %rbx
 3664 1711 E8000000 		call	_ZNSs4_Rep10_M_destroyERKSaIcE
 3664      00
 3665 1716 4939DF   		cmpq	%rbx, %r15
 3666 1719 75CE     		jne	.L628
 3667 171b 0F1F4400 		.p2align 4,,10
 3667      00
 3668              		.p2align 3
 3669              	.L571:
 3670 1720 4D8B7E18 		movq	24(%r14), %r15
 3671              	.L564:
 3672 1724 4D85FF   		testq	%r15, %r15
 3673 1727 7408     		je	.L576
 3674 1729 4C89FF   		movq	%r15, %rdi
 3675 172c E8000000 		call	_ZdlPv
 3675      00
 3676              	.L576:
 3677 1731 498B4610 		movq	16(%r14), %rax
 3678 1735 488D78E8 		leaq	-24(%rax), %rdi
 3679 1739 4881FF00 		cmpq	$_ZNSs4_Rep20_S_empty_rep_storageE, %rdi
 3679      000000
 3680 1740 0F851A01 		jne	.L648
 3680      0000
 3681              	.L578:
 3682 1746 498B4608 		movq	8(%r14), %rax
 3683 174a 488D78E8 		leaq	-24(%rax), %rdi
 3684 174e 4881FF00 		cmpq	$_ZNSs4_Rep20_S_empty_rep_storageE, %rdi
 3684      000000
 3685 1755 0F85D500 		jne	.L649
 3685      0000
 3686              	.L583:
 3687 175b 498B06   		movq	(%r14), %rax
 3688 175e 488D78E8 		leaq	-24(%rax), %rdi
 3689 1762 4881FF00 		cmpq	$_ZNSs4_Rep20_S_empty_rep_storageE, %rdi
 3689      000000
 3690 1769 0F859100 		jne	.L650
 3690      0000
 3691              	.L588:
 3692 176f 4983C638 		addq	$56, %r14
 3693 1773 4C39F5   		cmpq	%r14, %rbp
 3694 1776 0F8544FF 		jne	.L592
 3694      FFFF
 3695 177c 488B6C24 		movq	40(%rsp), %rbp
 3695      28
 3696              	.L563:
 3697 1781 4885ED   		testq	%rbp, %rbp
 3698 1784 7408     		je	.L593
 3699 1786 4889EF   		movq	%rbp, %rdi
 3700 1789 E8000000 		call	_ZdlPv
 3700      00
 3701              	.L593:
 3702 178e 488D7C24 		leaq	32(%rsp), %rdi
 3702      20
 3703              	.LEHB66:
 3704 1793 E8000000 		call	_ZN8UnitTest12TestReporterD2Ev
 3704      00
 3705              	.LEHE66:
 3706              	.L538:
 3707 1798 488B8424 		movq	504(%rsp), %rax
 3707      F8010000 
 3708 17a0 64483304 		xorq	%fs:40, %rax
 3708      25280000 
 3708      00
 3709 17a9 0F85F903 		jne	.L651
 3709      0000
 3710 17af 4881C408 		addq	$520, %rsp
 3710      020000
 3711              		.cfi_remember_state
 3712              		.cfi_def_cfa_offset 56
 3713 17b6 5B       		popq	%rbx
 3714              		.cfi_def_cfa_offset 48
 3715 17b7 5D       		popq	%rbp
 3716              		.cfi_def_cfa_offset 40
 3717 17b8 415C     		popq	%r12
 3718              		.cfi_def_cfa_offset 32
 3719 17ba 415D     		popq	%r13
 3720              		.cfi_def_cfa_offset 24
 3721 17bc 415E     		popq	%r14
 3722              		.cfi_def_cfa_offset 16
 3723 17be 415F     		popq	%r15
 3724              		.cfi_def_cfa_offset 8
 3725 17c0 C3       		ret
 3726              		.p2align 4,,10
 3727 17c1 0F1F8000 		.p2align 3
 3727      000000
 3728              	.L652:
 3729              		.cfi_restore_state
 3730 17c8 8B48F8   		movl	-8(%rax), %ecx
 3731 17cb 8D71FF   		leal	-1(%rcx), %esi
 3732 17ce 85C9     		testl	%ecx, %ecx
 3733 17d0 8970F8   		movl	%esi, -8(%rax)
 3734 17d3 7F0B     		jg	.L568
 3735 17d5 488D7424 		leaq	31(%rsp), %rsi
 3735      1F
 3736 17da E8000000 		call	_ZNSs4_Rep10_M_destroyERKSaIcE
 3736      00
 3737 17df 90       		.p2align 4,,10
 3738              		.p2align 3
 3739              	.L568:
 3740 17e0 4883C310 		addq	$16, %rbx
 3741 17e4 4939DF   		cmpq	%rbx, %r15
 3742 17e7 0F8433FF 		je	.L571
 3742      FFFF
 3743              	.L570:
 3744 17ed 488B4308 		movq	8(%rbx), %rax
 3745 17f1 488D78E8 		leaq	-24(%rax), %rdi
 3746 17f5 4881FF00 		cmpq	$_ZNSs4_Rep20_S_empty_rep_storageE, %rdi
 3746      000000
 3747 17fc 74E2     		je	.L568
 3748 17fe EBC8     		jmp	.L652
 3749              		.p2align 4,,10
 3750              		.p2align 3
 3751              	.L650:
 3752 1800 4D85E4   		testq	%r12, %r12
 3753 1803 0F847F00 		je	.L589
 3753      0000
 3754 1809 B9FFFFFF 		movl	$-1, %ecx
 3754      FF
 3755 180e F00FC148 		lock xaddl	%ecx, -8(%rax)
 3755      F8
 3756 1813 89C8     		movl	%ecx, %eax
 3757              	.L590:
 3758 1815 85C0     		testl	%eax, %eax
 3759 1817 0F8F52FF 		jg	.L588
 3759      FFFF
 3760 181d 488D7424 		leaq	31(%rsp), %rsi
 3760      1F
 3761 1822 E8000000 		call	_ZNSs4_Rep10_M_destroyERKSaIcE
 3761      00
 3762 1827 E943FFFF 		jmp	.L588
 3762      FF
 3763 182c 0F1F4000 		.p2align 4,,10
 3764              		.p2align 3
 3765              	.L649:
 3766 1830 4D85E4   		testq	%r12, %r12
 3767 1833 7470     		je	.L584
 3768 1835 B9FFFFFF 		movl	$-1, %ecx
 3768      FF
 3769 183a F00FC148 		lock xaddl	%ecx, -8(%rax)
 3769      F8
 3770 183f 89C8     		movl	%ecx, %eax
 3771              	.L585:
 3772 1841 85C0     		testl	%eax, %eax
 3773 1843 0F8F12FF 		jg	.L583
 3773      FFFF
 3774 1849 488D7424 		leaq	31(%rsp), %rsi
 3774      1F
 3775 184e E8000000 		call	_ZNSs4_Rep10_M_destroyERKSaIcE
 3775      00
 3776 1853 E903FFFF 		jmp	.L583
 3776      FF
 3777 1858 0F1F8400 		.p2align 4,,10
 3777      00000000 
 3778              		.p2align 3
 3779              	.L648:
 3780 1860 4D85E4   		testq	%r12, %r12
 3781 1863 7433     		je	.L579
 3782 1865 B9FFFFFF 		movl	$-1, %ecx
 3782      FF
 3783 186a F00FC148 		lock xaddl	%ecx, -8(%rax)
 3783      F8
 3784 186f 89C8     		movl	%ecx, %eax
 3785              	.L580:
 3786 1871 85C0     		testl	%eax, %eax
 3787 1873 0F8FCDFE 		jg	.L578
 3787      FFFF
 3788 1879 488D7424 		leaq	31(%rsp), %rsi
 3788      1F
 3789 187e E8000000 		call	_ZNSs4_Rep10_M_destroyERKSaIcE
 3789      00
 3790 1883 E9BEFEFF 		jmp	.L578
 3790      FF
 3791              	.L589:
 3792 1888 8B48F8   		movl	-8(%rax), %ecx
 3793 188b 8D71FF   		leal	-1(%rcx), %esi
 3794 188e 8970F8   		movl	%esi, -8(%rax)
 3795 1891 89C8     		movl	%ecx, %eax
 3796 1893 E97DFFFF 		jmp	.L590
 3796      FF
 3797              	.L579:
 3798 1898 8B48F8   		movl	-8(%rax), %ecx
 3799 189b 8D71FF   		leal	-1(%rcx), %esi
 3800 189e 8970F8   		movl	%esi, -8(%rax)
 3801 18a1 89C8     		movl	%ecx, %eax
 3802 18a3 EBCC     		jmp	.L580
 3803              	.L584:
 3804 18a5 8B48F8   		movl	-8(%rax), %ecx
 3805 18a8 8D71FF   		leal	-1(%rcx), %esi
 3806 18ab 8970F8   		movl	%esi, -8(%rax)
 3807 18ae 89C8     		movl	%ecx, %eax
 3808 18b0 EB8F     		jmp	.L585
 3809              	.L647:
 3810 18b2 BA000000 		movl	$_ZL28__gthrw___pthread_key_createPjPFvPvE, %edx
 3810      00
 3811 18b7 4885D2   		testq	%rdx, %rdx
 3812 18ba 0F849700 		je	.L560
 3812      0000
 3813 18c0 BAFFFFFF 		movl	$-1, %edx
 3813      FF
 3814 18c5 F00FC150 		lock xaddl	%edx, -8(%rax)
 3814      F8
 3815 18ca 89D0     		movl	%edx, %eax
 3816              	.L561:
 3817 18cc 85C0     		testl	%eax, %eax
 3818 18ce 0F8FC7FD 		jg	.L559
 3818      FFFF
 3819 18d4 488D7424 		leaq	31(%rsp), %rsi
 3819      1F
 3820 18d9 E8000000 		call	_ZNSs4_Rep10_M_destroyERKSaIcE
 3820      00
 3821 18de E9B8FDFF 		jmp	.L559
 3821      FF
 3822              	.L645:
 3823 18e3 BA000000 		movl	$_ZL28__gthrw___pthread_key_createPjPFvPvE, %edx
 3823      00
 3824 18e8 4885D2   		testq	%rdx, %rdx
 3825 18eb 745D     		je	.L550
 3826 18ed BAFFFFFF 		movl	$-1, %edx
 3826      FF
 3827 18f2 F00FC150 		lock xaddl	%edx, -8(%rax)
 3827      F8
 3828 18f7 89D0     		movl	%edx, %eax
 3829              	.L551:
 3830 18f9 85C0     		testl	%eax, %eax
 3831 18fb 0F8F6EFD 		jg	.L549
 3831      FFFF
 3832 1901 488D7424 		leaq	31(%rsp), %rsi
 3832      1F
 3833 1906 E8000000 		call	_ZNSs4_Rep10_M_destroyERKSaIcE
 3833      00
 3834 190b E95FFDFF 		jmp	.L549
 3834      FF
 3835              	.L646:
 3836 1910 BA000000 		movl	$_ZL28__gthrw___pthread_key_createPjPFvPvE, %edx
 3836      00
 3837 1915 4885D2   		testq	%rdx, %rdx
 3838 1918 7423     		je	.L555
 3839 191a BAFFFFFF 		movl	$-1, %edx
 3839      FF
 3840 191f F00FC150 		lock xaddl	%edx, -8(%rax)
 3840      F8
 3841 1924 89D0     		movl	%edx, %eax
 3842              	.L556:
 3843 1926 85C0     		testl	%eax, %eax
 3844 1928 0F8F57FD 		jg	.L554
 3844      FFFF
 3845 192e 488D7424 		leaq	31(%rsp), %rsi
 3845      1F
 3846 1933 E8000000 		call	_ZNSs4_Rep10_M_destroyERKSaIcE
 3846      00
 3847 1938 E948FDFF 		jmp	.L554
 3847      FF
 3848              	.L555:
 3849 193d 8B50F8   		movl	-8(%rax), %edx
 3850 1940 8D4AFF   		leal	-1(%rdx), %ecx
 3851 1943 8948F8   		movl	%ecx, -8(%rax)
 3852 1946 89D0     		movl	%edx, %eax
 3853 1948 EBDC     		jmp	.L556
 3854              	.L550:
 3855 194a 8B50F8   		movl	-8(%rax), %edx
 3856 194d 8D4AFF   		leal	-1(%rdx), %ecx
 3857 1950 8948F8   		movl	%ecx, -8(%rax)
 3858 1953 89D0     		movl	%edx, %eax
 3859 1955 EBA2     		jmp	.L551
 3860              	.L560:
 3861 1957 8B50F8   		movl	-8(%rax), %edx
 3862 195a 8D4AFF   		leal	-1(%rdx), %ecx
 3863 195d 8948F8   		movl	%ecx, -8(%rax)
 3864 1960 89D0     		movl	%edx, %eax
 3865 1962 E965FFFF 		jmp	.L561
 3865      FF
 3866              	.L608:
 3867 1967 4889C7   		movq	%rax, %rdi
 3868 196a BB010000 		movl	$1, %ebx
 3868      00
 3869              	.L547:
 3870 196f 4883FA01 		cmpq	$1, %rdx
 3871 1973 0F847001 		je	.L598
 3871      0000
 3872 1979 4883FA02 		cmpq	$2, %rdx
 3873 197d 0F852601 		jne	.L653
 3873      0000
 3874 1983 E8000000 		call	__cxa_begin_catch
 3874      00
 3875 1988 488DBC24 		leaq	144(%rsp), %rdi
 3875      90000000 
 3876 1990 4889C3   		movq	%rax, %rbx
 3877              	.LEHB67:
 3878 1993 E8000000 		call	_ZN8UnitTest15MemoryOutStreamC1Ev
 3878      00
 3879              	.LEHE67:
 3880 1998 488B03   		movq	(%rbx), %rax
 3881 199b 4889DF   		movq	%rbx, %rdi
 3882 199e FF5010   		call	*16(%rax)
 3883 19a1 488DBC24 		leaq	144(%rsp), %rdi
 3883      90000000 
 3884 19a9 BE000000 		movl	$.LC34, %esi
 3884      00
 3885 19ae 4889C3   		movq	%rax, %rbx
 3886              	.LEHB68:
 3887 19b1 E8000000 		call	_ZStlsISt11char_traitsIcEERSt13basic_ostreamIcT_ES5_PKc
 3887      00
 3888 19b6 4889C7   		movq	%rax, %rdi
 3889 19b9 4889DE   		movq	%rbx, %rsi
 3890 19bc E8000000 		call	_ZStlsISt11char_traitsIcEERSt13basic_ostreamIcT_ES5_PKc
 3890      00
 3891 19c1 488DBC24 		leaq	144(%rsp), %rdi
 3891      90000000 
 3892 19c9 E8000000 		call	_ZNK8UnitTest15MemoryOutStream7GetTextEv
 3892      00
 3893 19ce 4889C3   		movq	%rax, %rbx
 3894 19d1 E8000000 		call	_ZN8UnitTest11CurrentTest7ResultsEv
 3894      00
 3895 19d6 488B38   		movq	(%rax), %rdi
 3896 19d9 4889DA   		movq	%rbx, %rdx
 3897 19dc 4C89EE   		movq	%r13, %rsi
 3898 19df E8000000 		call	_ZN8UnitTest11TestResults13OnTestFailureERKNS_11TestDetailsEPKc
 3898      00
 3899              	.LEHE68:
 3900 19e4 488DBC24 		leaq	144(%rsp), %rdi
 3900      90000000 
 3901              	.LEHB69:
 3902 19ec E8000000 		call	_ZN8UnitTest15MemoryOutStreamD1Ev
 3902      00
 3903              	.LEHE69:
 3904              	.L640:
 3905 19f1 E8000000 		call	__cxa_end_catch
 3905      00
 3906 19f6 E99DFDFF 		jmp	.L538
 3906      FF
 3907              	.L617:
 3908 19fb 4889C3   		movq	%rax, %rbx
 3909 19fe 488B4424 		movq	80(%rsp), %rax
 3909      50
 3910 1a03 4889D5   		movq	%rdx, %rbp
 3911 1a06 488D78E8 		leaq	-24(%rax), %rdi
 3912 1a0a 4881FF00 		cmpq	$_ZNSs4_Rep20_S_empty_rep_storageE, %rdi
 3912      000000
 3913 1a11 740A     		je	.L542
 3914 1a13 488D7424 		leaq	31(%rsp), %rsi
 3914      1F
 3915 1a18 E8000000 		call	_ZNSs4_Rep10_M_disposeERKSaIcE.part.1
 3915      00
 3916              	.L542:
 3917 1a1d 488B4424 		movq	72(%rsp), %rax
 3917      48
 3918 1a22 488D78E8 		leaq	-24(%rax), %rdi
 3919 1a26 4881FF00 		cmpq	$_ZNSs4_Rep20_S_empty_rep_storageE, %rdi
 3919      000000
 3920 1a2d 740A     		je	.L544
 3921 1a2f 488D7424 		leaq	31(%rsp), %rsi
 3921      1F
 3922 1a34 E8000000 		call	_ZNSs4_Rep10_M_disposeERKSaIcE.part.1
 3922      00
 3923              	.L544:
 3924 1a39 488B4424 		movq	64(%rsp), %rax
 3924      40
 3925 1a3e 488D78E8 		leaq	-24(%rax), %rdi
 3926 1a42 4881FF00 		cmpq	$_ZNSs4_Rep20_S_empty_rep_storageE, %rdi
 3926      000000
 3927 1a49 740A     		je	.L546
 3928 1a4b 488D7424 		leaq	31(%rsp), %rsi
 3928      1F
 3929 1a50 E8000000 		call	_ZNSs4_Rep10_M_disposeERKSaIcE.part.1
 3929      00
 3930              	.L546:
 3931 1a55 488D7C24 		leaq	40(%rsp), %rdi
 3931      28
 3932 1a5a 48C74424 		movq	$_ZTVN8UnitTest20DeferredTestReporterE+16, 32(%rsp)
 3932      20000000 
 3932      00
 3933 1a63 E8000000 		call	_ZNSt6vectorIN8UnitTest18DeferredTestResultESaIS1_EED1Ev
 3933      00
 3934 1a68 488D7C24 		leaq	32(%rsp), %rdi
 3934      20
 3935 1a6d E8000000 		call	_ZN8UnitTest12TestReporterD2Ev
 3935      00
 3936 1a72 4889DF   		movq	%rbx, %rdi
 3937 1a75 4889EA   		movq	%rbp, %rdx
 3938 1a78 31DB     		xorl	%ebx, %ebx
 3939 1a7a E9F0FEFF 		jmp	.L547
 3939      FF
 3940              	.L616:
 3941 1a7f 4889C3   		movq	%rax, %rbx
 3942 1a82 4889D5   		movq	%rdx, %rbp
 3943 1a85 EB96     		jmp	.L542
 3944              	.L612:
 3945 1a87 488DBC24 		leaq	144(%rsp), %rdi
 3945      90000000 
 3946 1a8f 4889C3   		movq	%rax, %rbx
 3947 1a92 E8000000 		call	_ZN8UnitTest15MemoryOutStreamD1Ev
 3947      00
 3948              	.L602:
 3949 1a97 E8000000 		call	__cxa_end_catch
 3949      00
 3950 1a9c 4889DF   		movq	%rbx, %rdi
 3951              	.LEHB70:
 3952 1a9f E8000000 		call	_Unwind_Resume
 3952      00
 3953              	.LEHE70:
 3954              	.L611:
 3955              	.L641:
 3956 1aa4 4889C3   		movq	%rax, %rbx
 3957 1aa7 EBEE     		jmp	.L602
 3958              	.L653:
 3959 1aa9 E8000000 		call	__cxa_begin_catch
 3959      00
 3960 1aae 84DB     		testb	%bl, %bl
 3961 1ab0 BA2E0000 		movl	$46, %edx
 3961      00
 3962 1ab5 4C89EE   		movq	%r13, %rsi
 3963 1ab8 488D7C24 		leaq	32(%rsp), %rdi
 3963      20
 3964 1abd 0F849400 		je	.L605
 3964      0000
 3965              	.LEHB71:
 3966 1ac3 E8000000 		call	_ZN8UnitTest11TestDetailsC1ERKS0_i
 3966      00
 3967 1ac8 E8000000 		call	_ZN8UnitTest11CurrentTest7ResultsEv
 3967      00
 3968 1acd 488B38   		movq	(%rax), %rdi
 3969 1ad0 488D7424 		leaq	32(%rsp), %rsi
 3969      20
 3970 1ad5 BA000000 		movl	$.LC42, %edx
 3970      00
 3971 1ada E8000000 		call	_ZN8UnitTest11TestResults13OnTestFailureERKNS_11TestDetailsEPKc
 3971      00
 3972              	.LEHE71:
 3973              	.L606:
 3974              	.LEHB72:
 3975 1adf E8000000 		call	__cxa_end_catch
 3975      00
 3976              	.LEHE72:
 3977 1ae4 E9AFFCFF 		jmp	.L538
 3977      FF
 3978              	.L598:
 3979 1ae9 E8000000 		call	__cxa_begin_catch
 3979      00
 3980 1aee 4889C3   		movq	%rax, %rbx
 3981 1af1 488B00   		movq	(%rax), %rax
 3982 1af4 4889DF   		movq	%rbx, %rdi
 3983 1af7 FF5010   		call	*16(%rax)
 3984 1afa 4889DF   		movq	%rbx, %rdi
 3985 1afd 4889C5   		movq	%rax, %rbp
 3986              	.LEHB73:
 3987 1b00 E8000000 		call	_ZNK8UnitTest15AssertException10LineNumberEv
 3987      00
 3988 1b05 4889DF   		movq	%rbx, %rdi
 3989 1b08 4189C4   		movl	%eax, %r12d
 3990 1b0b E8000000 		call	_ZNK8UnitTest15AssertException8FilenameEv
 3990      00
 3991 1b10 488B7424 		movq	8(%rsp), %rsi
 3991      08
 3992 1b15 488D7C24 		leaq	32(%rsp), %rdi
 3992      20
 3993 1b1a 4589E0   		movl	%r12d, %r8d
 3994 1b1d 4889C1   		movq	%rax, %rcx
 3995 1b20 488B5608 		movq	8(%rsi), %rdx
 3996 1b24 488B7610 		movq	16(%rsi), %rsi
 3997 1b28 E8000000 		call	_ZN8UnitTest11TestDetailsC1EPKcS2_S2_i
 3997      00
 3998 1b2d E8000000 		call	_ZN8UnitTest11CurrentTest7ResultsEv
 3998      00
 3999 1b32 488B38   		movq	(%rax), %rdi
 4000 1b35 488D7424 		leaq	32(%rsp), %rsi
 4000      20
 4001 1b3a 4889EA   		movq	%rbp, %rdx
 4002 1b3d E8000000 		call	_ZN8UnitTest11TestResults13OnTestFailureERKNS_11TestDetailsEPKc
 4002      00
 4003              	.LEHE73:
 4004 1b42 E9AAFEFF 		jmp	.L640
 4004      FF
 4005              	.L613:
 4006 1b47 4889C3   		movq	%rax, %rbx
 4007 1b4a E8000000 		call	__cxa_end_catch
 4007      00
 4008 1b4f 4889DF   		movq	%rbx, %rdi
 4009              	.LEHB74:
 4010 1b52 E8000000 		call	_Unwind_Resume
 4010      00
 4011              	.LEHE74:
 4012              	.L605:
 4013              	.LEHB75:
 4014 1b57 E8000000 		call	_ZN8UnitTest11TestDetailsC1ERKS0_i
 4014      00
 4015 1b5c E8000000 		call	_ZN8UnitTest11CurrentTest7ResultsEv
 4015      00
 4016 1b61 488B38   		movq	(%rax), %rdi
 4017 1b64 488D7424 		leaq	32(%rsp), %rsi
 4017      20
 4018 1b69 BA000000 		movl	$.LC43, %edx
 4018      00
 4019 1b6e E8000000 		call	_ZN8UnitTest11TestResults13OnTestFailureERKNS_11TestDetailsEPKc
 4019      00
 4020              	.LEHE75:
 4021 1b73 E967FFFF 		jmp	.L606
 4021      FF
 4022              	.L610:
 4023 1b78 E927FFFF 		jmp	.L641
 4023      FF
 4024              	.L615:
 4025 1b7d 4889C3   		movq	%rax, %rbx
 4026 1b80 4889D5   		movq	%rdx, %rbp
 4027 1b83 E9B1FEFF 		jmp	.L544
 4027      FF
 4028              	.L609:
 4029 1b88 488D7C24 		leaq	32(%rsp), %rdi
 4029      20
 4030 1b8d 4889C3   		movq	%rax, %rbx
 4031 1b90 4889D5   		movq	%rdx, %rbp
 4032 1b93 E8000000 		call	_ZN8UnitTest12_GLOBAL__N_127DeferredTestReporterFixtureD2Ev
 4032      00
 4033 1b98 4889DF   		movq	%rbx, %rdi
 4034 1b9b 4889EA   		movq	%rbp, %rdx
 4035 1b9e BB010000 		movl	$1, %ebx
 4035      00
 4036 1ba3 E9C7FDFF 		jmp	.L547
 4036      FF
 4037              	.L651:
 4038 1ba8 E8000000 		call	__stack_chk_fail
 4038      00
 4039              	.L614:
 4040 1bad 4889C3   		movq	%rax, %rbx
 4041 1bb0 4889D5   		movq	%rdx, %rbp
 4042 1bb3 E99DFEFF 		jmp	.L546
 4042      FF
 4043              		.cfi_endproc
 4044              	.LFE1415:
 4045              		.section	.gcc_except_table
 4046              		.align 4
 4047              	.LLSDA1415:
 4048 01a0 FF       		.byte	0xff
 4049 01a1 03       		.byte	0x3
 4050 01a2 6D       		.uleb128 .LLSDATT1415-.LLSDATTD1415
 4051              	.LLSDATTD1415:
 4052 01a3 01       		.byte	0x1
 4053 01a4 55       		.uleb128 .LLSDACSE1415-.LLSDACSB1415
 4054              	.LLSDACSB1415:
 4055 01a5 64       		.uleb128 .LEHB61-.LFB1415
 4056 01a6 05       		.uleb128 .LEHE61-.LEHB61
 4057 01a7 AD0C     		.uleb128 .L614-.LFB1415
 4058 01a9 07       		.uleb128 0x7
 4059 01aa 7C       		.uleb128 .LEHB62-.LFB1415
 4060 01ab 05       		.uleb128 .LEHE62-.LEHB62
 4061 01ac FD0B     		.uleb128 .L615-.LFB1415
 4062 01ae 07       		.uleb128 0x7
 4063 01af 9401     		.uleb128 .LEHB63-.LFB1415
 4064 01b1 05       		.uleb128 .LEHE63-.LEHB63
 4065 01b2 FF09     		.uleb128 .L616-.LFB1415
 4066 01b4 07       		.uleb128 0x7
 4067 01b5 BF01     		.uleb128 .LEHB64-.LFB1415
 4068 01b7 05       		.uleb128 .LEHE64-.LEHB64
 4069 01b8 FB08     		.uleb128 .L617-.LFB1415
 4070 01ba 07       		.uleb128 0x7
 4071 01bb D401     		.uleb128 .LEHB65-.LFB1415
 4072 01bd 05       		.uleb128 .LEHE65-.LEHB65
 4073 01be 880C     		.uleb128 .L609-.LFB1415
 4074 01c0 07       		.uleb128 0x7
 4075 01c1 9304     		.uleb128 .LEHB66-.LFB1415
 4076 01c3 05       		.uleb128 .LEHE66-.LEHB66
 4077 01c4 E707     		.uleb128 .L608-.LFB1415
 4078 01c6 05       		.uleb128 0x5
 4079 01c7 9308     		.uleb128 .LEHB67-.LFB1415
 4080 01c9 05       		.uleb128 .LEHE67-.LEHB67
 4081 01ca A40A     		.uleb128 .L611-.LFB1415
 4082 01cc 00       		.uleb128 0
 4083 01cd B108     		.uleb128 .LEHB68-.LFB1415
 4084 01cf 33       		.uleb128 .LEHE68-.LEHB68
 4085 01d0 870A     		.uleb128 .L612-.LFB1415
 4086 01d2 00       		.uleb128 0
 4087 01d3 EC08     		.uleb128 .LEHB69-.LFB1415
 4088 01d5 05       		.uleb128 .LEHE69-.LEHB69
 4089 01d6 A40A     		.uleb128 .L611-.LFB1415
 4090 01d8 00       		.uleb128 0
 4091 01d9 9F0A     		.uleb128 .LEHB70-.LFB1415
 4092 01db 05       		.uleb128 .LEHE70-.LEHB70
 4093 01dc 00       		.uleb128 0
 4094 01dd 00       		.uleb128 0
 4095 01de C30A     		.uleb128 .LEHB71-.LFB1415
 4096 01e0 1C       		.uleb128 .LEHE71-.LEHB71
 4097 01e1 C70B     		.uleb128 .L613-.LFB1415
 4098 01e3 00       		.uleb128 0
 4099 01e4 DF0A     		.uleb128 .LEHB72-.LFB1415
 4100 01e6 05       		.uleb128 .LEHE72-.LEHB72
 4101 01e7 00       		.uleb128 0
 4102 01e8 00       		.uleb128 0
 4103 01e9 800B     		.uleb128 .LEHB73-.LFB1415
 4104 01eb 42       		.uleb128 .LEHE73-.LEHB73
 4105 01ec F80B     		.uleb128 .L610-.LFB1415
 4106 01ee 00       		.uleb128 0
 4107 01ef D20B     		.uleb128 .LEHB74-.LFB1415
 4108 01f1 05       		.uleb128 .LEHE74-.LEHB74
 4109 01f2 00       		.uleb128 0
 4110 01f3 00       		.uleb128 0
 4111 01f4 D70B     		.uleb128 .LEHB75-.LFB1415
 4112 01f6 1C       		.uleb128 .LEHE75-.LEHB75
 4113 01f7 C70B     		.uleb128 .L613-.LFB1415
 4114 01f9 00       		.uleb128 0
 4115              	.LLSDACSE1415:
 4116 01fa 03       		.byte	0x3
 4117 01fb 00       		.byte	0
 4118 01fc 02       		.byte	0x2
 4119 01fd 7D       		.byte	0x7d
 4120 01fe 01       		.byte	0x1
 4121 01ff 7D       		.byte	0x7d
 4122 0200 00       		.byte	0
 4123 0201 7D       		.byte	0x7d
 4124 0202 0000     		.align 4
 4125 0204 00000000 		.long	0
 4126              	
 4127 0208 00000000 		.long	_ZTISt9exception
 4128 020c 00000000 		.long	_ZTIN8UnitTest15AssertExceptionE
 4129              	.LLSDATT1415:
 4130              		.text
 4132              		.section	.text.unlikely
 4133              	.LCOLDE48:
 4134              		.text
 4135              	.LHOTE48:
 4136              		.section	.text.unlikely._ZN8UnitTest10CheckEqualIPKcSsEEvRNS_11TestResultsERKT_RKT0_RKNS_11TestDet
 4137              	.LCOLDB49:
 4138              		.section	.text._ZN8UnitTest10CheckEqualIPKcSsEEvRNS_11TestResultsERKT_RKT0_RKNS_11TestDetailsE,"ax
 4139              	.LHOTB49:
 4140              		.p2align 4,,15
 4141              		.weak	_ZN8UnitTest10CheckEqualIPKcSsEEvRNS_11TestResultsERKT_RKT0_RKNS_11TestDetailsE
 4143              	_ZN8UnitTest10CheckEqualIPKcSsEEvRNS_11TestResultsERKT_RKT0_RKNS_11TestDetailsE:
 4144              	.LFB1522:
 4145              		.cfi_startproc
 4146              		.cfi_personality 0x3,__gxx_personality_v0
 4147              		.cfi_lsda 0x3,.LLSDA1522
 4148 0000 4156     		pushq	%r14
 4149              		.cfi_def_cfa_offset 16
 4150              		.cfi_offset 14, -16
 4151 0002 4155     		pushq	%r13
 4152              		.cfi_def_cfa_offset 24
 4153              		.cfi_offset 13, -24
 4154 0004 4989CD   		movq	%rcx, %r13
 4155 0007 4154     		pushq	%r12
 4156              		.cfi_def_cfa_offset 32
 4157              		.cfi_offset 12, -32
 4158 0009 55       		pushq	%rbp
 4159              		.cfi_def_cfa_offset 40
 4160              		.cfi_offset 6, -40
 4161 000a 4889F5   		movq	%rsi, %rbp
 4162 000d 53       		pushq	%rbx
 4163              		.cfi_def_cfa_offset 48
 4164              		.cfi_offset 3, -48
 4165 000e 4989FC   		movq	%rdi, %r12
 4166 0011 4889D7   		movq	%rdx, %rdi
 4167 0014 4889D3   		movq	%rdx, %rbx
 4168 0017 4881EC80 		subq	$384, %rsp
 4168      010000
 4169              		.cfi_def_cfa_offset 432
 4170 001e 488B36   		movq	(%rsi), %rsi
 4171 0021 64488B04 		movq	%fs:40, %rax
 4171      25280000 
 4171      00
 4172 002a 48898424 		movq	%rax, 376(%rsp)
 4172      78010000 
 4173 0032 31C0     		xorl	%eax, %eax
 4174              	.LEHB76:
 4175 0034 E8000000 		call	_ZNKSs7compareEPKc
 4175      00
 4176              	.LEHE76:
 4177 0039 85C0     		testl	%eax, %eax
 4178 003b 752B     		jne	.L688
 4179              	.L654:
 4180 003d 488B8424 		movq	376(%rsp), %rax
 4180      78010000 
 4181 0045 64483304 		xorq	%fs:40, %rax
 4181      25280000 
 4181      00
 4182 004e 0F85C902 		jne	.L689
 4182      0000
 4183 0054 4881C480 		addq	$384, %rsp
 4183      010000
 4184              		.cfi_remember_state
 4185              		.cfi_def_cfa_offset 48
 4186 005b 5B       		popq	%rbx
 4187              		.cfi_def_cfa_offset 40
 4188 005c 5D       		popq	%rbp
 4189              		.cfi_def_cfa_offset 32
 4190 005d 415C     		popq	%r12
 4191              		.cfi_def_cfa_offset 24
 4192 005f 415D     		popq	%r13
 4193              		.cfi_def_cfa_offset 16
 4194 0061 415E     		popq	%r14
 4195              		.cfi_def_cfa_offset 8
 4196 0063 C3       		ret
 4197              		.p2align 4,,10
 4198 0064 0F1F4000 		.p2align 3
 4199              	.L688:
 4200              		.cfi_restore_state
 4201 0068 4C8D7424 		leaq	112(%rsp), %r14
 4201      70
 4202 006d 4C89F7   		movq	%r14, %rdi
 4203 0070 E8000000 		call	_ZNSt8ios_baseC2Ev
 4203      00
 4204 0075 31F6     		xorl	%esi, %esi
 4205 0077 4C89F7   		movq	%r14, %rdi
 4206 007a 48C78424 		movq	$0, 328(%rsp)
 4206      48010000 
 4206      00000000 
 4207 0086 C6842450 		movb	$0, 336(%rsp)
 4207      01000000 
 4208 008e C6842451 		movb	$0, 337(%rsp)
 4208      01000000 
 4209 0096 48C78424 		movq	$0, 344(%rsp)
 4209      58010000 
 4209      00000000 
 4210 00a2 48C78424 		movq	$0, 352(%rsp)
 4210      60010000 
 4210      00000000 
 4211 00ae 48C78424 		movq	$0, 360(%rsp)
 4211      68010000 
 4211      00000000 
 4212 00ba 48C78424 		movq	$0, 368(%rsp)
 4212      70010000 
 4212      00000000 
 4213 00c6 48C74424 		movq	$_ZTCN8UnitTest15MemoryOutStreamE0_So+24, 16(%rsp)
 4213      10000000 
 4213      00
 4214 00cf 48C74424 		movq	$_ZTCN8UnitTest15MemoryOutStreamE0_So+64, 112(%rsp)
 4214      70000000 
 4214      00
 4215              	.LEHB77:
 4216 00d8 E8000000 		call	_ZNSt9basic_iosIcSt11char_traitsIcEE4initEPSt15basic_streambufIcS1_E
 4216      00
 4217              	.LEHE77:
 4218 00dd 488D7C24 		leaq	80(%rsp), %rdi
 4218      50
 4219 00e2 48C74424 		movq	$_ZTCN8UnitTest15MemoryOutStreamE0_St19basic_ostringstreamIcSt11char_traitsIcESaIcEE+24, 16(%
 4219      10000000 
 4219      00
 4220 00eb 48C74424 		movq	$_ZTCN8UnitTest15MemoryOutStreamE0_St19basic_ostringstreamIcSt11char_traitsIcESaIcEE+64, 112(
 4220      70000000 
 4220      00
 4221 00f4 48C74424 		movq	$_ZTVSt15basic_streambufIcSt11char_traitsIcEE+16, 24(%rsp)
 4221      18000000 
 4221      00
 4222 00fd 48C74424 		movq	$0, 32(%rsp)
 4222      20000000 
 4222      00
 4223 0106 48C74424 		movq	$0, 40(%rsp)
 4223      28000000 
 4223      00
 4224 010f 48C74424 		movq	$0, 48(%rsp)
 4224      30000000 
 4224      00
 4225 0118 48C74424 		movq	$0, 56(%rsp)
 4225      38000000 
 4225      00
 4226 0121 48C74424 		movq	$0, 64(%rsp)
 4226      40000000 
 4226      00
 4227 012a 48C74424 		movq	$0, 72(%rsp)
 4227      48000000 
 4227      00
 4228 0133 E8000000 		call	_ZNSt6localeC1Ev
 4228      00
 4229 0138 488B4424 		movq	16(%rsp), %rax
 4229      10
 4230 013d 488D7C24 		leaq	16(%rsp), %rdi
 4230      10
 4231 0142 488D7424 		leaq	24(%rsp), %rsi
 4231      18
 4232 0147 48C74424 		movq	$_ZTVSt15basic_stringbufIcSt11char_traitsIcESaIcEE+16, 24(%rsp)
 4232      18000000 
 4232      00
 4233 0150 C7442458 		movl	$16, 88(%rsp)
 4233      10000000 
 4234 0158 48C74424 		movq	$_ZNSs4_Rep20_S_empty_rep_storageE+24, 96(%rsp)
 4234      60000000 
 4234      00
 4235 0161 480378E8 		addq	-24(%rax), %rdi
 4236              	.LEHB78:
 4237 0165 E8000000 		call	_ZNSt9basic_iosIcSt11char_traitsIcEE4initEPSt15basic_streambufIcS1_E
 4237      00
 4238              	.LEHE78:
 4239 016a 488D7C24 		leaq	16(%rsp), %rdi
 4239      10
 4240 016f BA090000 		movl	$9, %edx
 4240      00
 4241 0174 BE000000 		movl	$.LC28, %esi
 4241      00
 4242 0179 48C74424 		movq	$_ZTVN8UnitTest15MemoryOutStreamE+24, 16(%rsp)
 4242      10000000 
 4242      00
 4243 0182 48C74424 		movq	$_ZTVN8UnitTest15MemoryOutStreamE+64, 112(%rsp)
 4243      70000000 
 4243      00
 4244 018b 48C74424 		movq	$_ZNSs4_Rep20_S_empty_rep_storageE+24, 104(%rsp)
 4244      68000000 
 4244      00
 4245 0194 488B6D00 		movq	0(%rbp), %rbp
 4246              	.LEHB79:
 4247 0198 E8000000 		call	_ZSt16__ostream_insertIcSt11char_traitsIcEERSt13basic_ostreamIT_T0_ES6_PKS3_l
 4247      00
 4248 019d 4885ED   		testq	%rbp, %rbp
 4249 01a0 0F84DA00 		je	.L690
 4249      0000
 4250 01a6 4889EF   		movq	%rbp, %rdi
 4251 01a9 E8000000 		call	strlen
 4251      00
 4252 01ae 488D7C24 		leaq	16(%rsp), %rdi
 4252      10
 4253 01b3 4889C2   		movq	%rax, %rdx
 4254 01b6 4889EE   		movq	%rbp, %rsi
 4255 01b9 E8000000 		call	_ZSt16__ostream_insertIcSt11char_traitsIcEERSt13basic_ostreamIT_T0_ES6_PKS3_l
 4255      00
 4256              	.L662:
 4257 01be 488D7C24 		leaq	16(%rsp), %rdi
 4257      10
 4258 01c3 BA090000 		movl	$9, %edx
 4258      00
 4259 01c8 BE000000 		movl	$.LC32, %esi
 4259      00
 4260 01cd E8000000 		call	_ZSt16__ostream_insertIcSt11char_traitsIcEERSt13basic_ostreamIT_T0_ES6_PKS3_l
 4260      00
 4261 01d2 488B33   		movq	(%rbx), %rsi
 4262 01d5 488D7C24 		leaq	16(%rsp), %rdi
 4262      10
 4263 01da 488B56E8 		movq	-24(%rsi), %rdx
 4264 01de E8000000 		call	_ZSt16__ostream_insertIcSt11char_traitsIcEERSt13basic_ostreamIT_T0_ES6_PKS3_l
 4264      00
 4265 01e3 488D7C24 		leaq	16(%rsp), %rdi
 4265      10
 4266 01e8 E8000000 		call	_ZNK8UnitTest15MemoryOutStream7GetTextEv
 4266      00
 4267 01ed 4889C2   		movq	%rax, %rdx
 4268 01f0 4C89EE   		movq	%r13, %rsi
 4269 01f3 4C89E7   		movq	%r12, %rdi
 4270 01f6 E8000000 		call	_ZN8UnitTest11TestResults13OnTestFailureERKNS_11TestDetailsEPKc
 4270      00
 4271              	.LEHE79:
 4272 01fb 488B4424 		movq	104(%rsp), %rax
 4272      68
 4273 0200 48C74424 		movq	$_ZTVN8UnitTest15MemoryOutStreamE+24, 16(%rsp)
 4273      10000000 
 4273      00
 4274 0209 48C74424 		movq	$_ZTVN8UnitTest15MemoryOutStreamE+64, 112(%rsp)
 4274      70000000 
 4274      00
 4275 0212 488D78E8 		leaq	-24(%rax), %rdi
 4276 0216 4881FF00 		cmpq	$_ZNSs4_Rep20_S_empty_rep_storageE, %rdi
 4276      000000
 4277 021d 0F857D00 		jne	.L691
 4277      0000
 4278              	.L664:
 4279 0223 488B4424 		movq	96(%rsp), %rax
 4279      60
 4280 0228 48C74424 		movq	$_ZTCN8UnitTest15MemoryOutStreamE0_St19basic_ostringstreamIcSt11char_traitsIcESaIcEE+24, 16(%
 4280      10000000 
 4280      00
 4281 0231 48C74424 		movq	$_ZTCN8UnitTest15MemoryOutStreamE0_St19basic_ostringstreamIcSt11char_traitsIcESaIcEE+64, 112(
 4281      70000000 
 4281      00
 4282 023a 48C74424 		movq	$_ZTVSt15basic_stringbufIcSt11char_traitsIcESaIcEE+16, 24(%rsp)
 4282      18000000 
 4282      00
 4283 0243 488D78E8 		leaq	-24(%rax), %rdi
 4284 0247 4881FF00 		cmpq	$_ZNSs4_Rep20_S_empty_rep_storageE, %rdi
 4284      000000
 4285 024e 0F857C00 		jne	.L692
 4285      0000
 4286              	.L669:
 4287 0254 488D7C24 		leaq	80(%rsp), %rdi
 4287      50
 4288 0259 48C74424 		movq	$_ZTVSt15basic_streambufIcSt11char_traitsIcEE+16, 24(%rsp)
 4288      18000000 
 4288      00
 4289 0262 E8000000 		call	_ZNSt6localeD1Ev
 4289      00
 4290 0267 488D7C24 		leaq	112(%rsp), %rdi
 4290      70
 4291 026c 48C74424 		movq	$_ZTVSt9basic_iosIcSt11char_traitsIcEE+16, 112(%rsp)
 4291      70000000 
 4291      00
 4292              	.LEHB80:
 4293 0275 E8000000 		call	_ZNSt8ios_baseD2Ev
 4293      00
 4294              	.LEHE80:
 4295 027a E9BEFDFF 		jmp	.L654
 4295      FF
 4296 027f 90       		.p2align 4,,10
 4297              		.p2align 3
 4298              	.L690:
 4299 0280 488B4424 		movq	16(%rsp), %rax
 4299      10
 4300 0285 488D7C24 		leaq	16(%rsp), %rdi
 4300      10
 4301 028a 480378E8 		addq	-24(%rax), %rdi
 4302 028e 8B7720   		movl	32(%rdi), %esi
 4303 0291 83CE01   		orl	$1, %esi
 4304              	.LEHB81:
 4305 0294 E8000000 		call	_ZNSt9basic_iosIcSt11char_traitsIcEE5clearESt12_Ios_Iostate
 4305      00
 4306              	.LEHE81:
 4307 0299 E920FFFF 		jmp	.L662
 4307      FF
 4308 029e 6690     		.p2align 4,,10
 4309              		.p2align 3
 4310              	.L691:
 4311 02a0 BA000000 		movl	$_ZL28__gthrw___pthread_key_createPjPFvPvE, %edx
 4311      00
 4312 02a5 4885D2   		testq	%rdx, %rdx
 4313 02a8 7456     		je	.L665
 4314 02aa BAFFFFFF 		movl	$-1, %edx
 4314      FF
 4315 02af F00FC150 		lock xaddl	%edx, -8(%rax)
 4315      F8
 4316 02b4 89D0     		movl	%edx, %eax
 4317              	.L666:
 4318 02b6 85C0     		testl	%eax, %eax
 4319 02b8 0F8F65FF 		jg	.L664
 4319      FFFF
 4320 02be 488D7424 		leaq	15(%rsp), %rsi
 4320      0F
 4321 02c3 E8000000 		call	_ZNSs4_Rep10_M_destroyERKSaIcE
 4321      00
 4322 02c8 E956FFFF 		jmp	.L664
 4322      FF
 4323 02cd 0F1F00   		.p2align 4,,10
 4324              		.p2align 3
 4325              	.L692:
 4326 02d0 BA000000 		movl	$_ZL28__gthrw___pthread_key_createPjPFvPvE, %edx
 4326      00
 4327 02d5 4885D2   		testq	%rdx, %rdx
 4328 02d8 7436     		je	.L670
 4329 02da BAFFFFFF 		movl	$-1, %edx
 4329      FF
 4330 02df F00FC150 		lock xaddl	%edx, -8(%rax)
 4330      F8
 4331 02e4 89D0     		movl	%edx, %eax
 4332              	.L671:
 4333 02e6 85C0     		testl	%eax, %eax
 4334 02e8 0F8F66FF 		jg	.L669
 4334      FFFF
 4335 02ee 488D7424 		leaq	15(%rsp), %rsi
 4335      0F
 4336 02f3 E8000000 		call	_ZNSs4_Rep10_M_destroyERKSaIcE
 4336      00
 4337 02f8 E957FFFF 		jmp	.L669
 4337      FF
 4338 02fd 0F1F00   		.p2align 4,,10
 4339              		.p2align 3
 4340              	.L665:
 4341 0300 8B50F8   		movl	-8(%rax), %edx
 4342 0303 8D4AFF   		leal	-1(%rdx), %ecx
 4343 0306 8948F8   		movl	%ecx, -8(%rax)
 4344 0309 89D0     		movl	%edx, %eax
 4345 030b EBA9     		jmp	.L666
 4346 030d 0F1F00   		.p2align 4,,10
 4347              		.p2align 3
 4348              	.L670:
 4349 0310 8B50F8   		movl	-8(%rax), %edx
 4350 0313 8D4AFF   		leal	-1(%rdx), %ecx
 4351 0316 8948F8   		movl	%ecx, -8(%rax)
 4352 0319 89D0     		movl	%edx, %eax
 4353 031b EBC9     		jmp	.L671
 4354              	.L689:
 4355 031d E8000000 		call	__stack_chk_fail
 4355      00
 4356              	.L676:
 4357 0322 4889C3   		movq	%rax, %rbx
 4358 0325 EB14     		jmp	.L658
 4359              	.L677:
 4360 0327 4889C3   		movq	%rax, %rbx
 4361 032a EB05     		jmp	.L657
 4362              	.L675:
 4363 032c 4889C3   		movq	%rax, %rbx
 4364 032f EB25     		jmp	.L673
 4365              	.L657:
 4366 0331 488D7C24 		leaq	24(%rsp), %rdi
 4366      18
 4367 0336 E8000000 		call	_ZNSt15basic_stringbufIcSt11char_traitsIcESaIcEED1Ev
 4367      00
 4368              	.L658:
 4369 033b 488D7C24 		leaq	112(%rsp), %rdi
 4369      70
 4370 0340 48C74424 		movq	$_ZTVSt9basic_iosIcSt11char_traitsIcEE+16, 112(%rsp)
 4370      70000000 
 4370      00
 4371 0349 E8000000 		call	_ZNSt8ios_baseD2Ev
 4371      00
 4372 034e 4889DF   		movq	%rbx, %rdi
 4373              	.LEHB82:
 4374 0351 E8000000 		call	_Unwind_Resume
 4374      00
 4375              	.LEHE82:
 4376              	.L673:
 4377 0356 488D7C24 		leaq	16(%rsp), %rdi
 4377      10
 4378 035b E8000000 		call	_ZN8UnitTest15MemoryOutStreamD1Ev
 4378      00
 4379 0360 4889DF   		movq	%rbx, %rdi
 4380              	.LEHB83:
 4381 0363 E8000000 		call	_Unwind_Resume
 4381      00
 4382              	.LEHE83:
 4383              		.cfi_endproc
 4384              	.LFE1522:
 4385              		.section	.gcc_except_table
 4386              	.LLSDA1522:
 4387 0210 FF       		.byte	0xff
 4388 0211 FF       		.byte	0xff
 4389 0212 01       		.byte	0x1
 4390 0213 2B       		.uleb128 .LLSDACSE1522-.LLSDACSB1522
 4391              	.LLSDACSB1522:
 4392 0214 34       		.uleb128 .LEHB76-.LFB1522
 4393 0215 05       		.uleb128 .LEHE76-.LEHB76
 4394 0216 00       		.uleb128 0
 4395 0217 00       		.uleb128 0
 4396 0218 D801     		.uleb128 .LEHB77-.LFB1522
 4397 021a 05       		.uleb128 .LEHE77-.LEHB77
 4398 021b A206     		.uleb128 .L676-.LFB1522
 4399 021d 00       		.uleb128 0
 4400 021e E502     		.uleb128 .LEHB78-.LFB1522
 4401 0220 05       		.uleb128 .LEHE78-.LEHB78
 4402 0221 A706     		.uleb128 .L677-.LFB1522
 4403 0223 00       		.uleb128 0
 4404 0224 9803     		.uleb128 .LEHB79-.LFB1522
 4405 0226 63       		.uleb128 .LEHE79-.LEHB79
 4406 0227 AC06     		.uleb128 .L675-.LFB1522
 4407 0229 00       		.uleb128 0
 4408 022a F504     		.uleb128 .LEHB80-.LFB1522
 4409 022c 05       		.uleb128 .LEHE80-.LEHB80
 4410 022d 00       		.uleb128 0
 4411 022e 00       		.uleb128 0
 4412 022f 9405     		.uleb128 .LEHB81-.LFB1522
 4413 0231 05       		.uleb128 .LEHE81-.LEHB81
 4414 0232 AC06     		.uleb128 .L675-.LFB1522
 4415 0234 00       		.uleb128 0
 4416 0235 D106     		.uleb128 .LEHB82-.LFB1522
 4417 0237 05       		.uleb128 .LEHE82-.LEHB82
 4418 0238 00       		.uleb128 0
 4419 0239 00       		.uleb128 0
 4420 023a E306     		.uleb128 .LEHB83-.LFB1522
 4421 023c 05       		.uleb128 .LEHE83-.LEHB83
 4422 023d 00       		.uleb128 0
 4423 023e 00       		.uleb128 0
 4424              	.LLSDACSE1522:
 4425              		.section	.text._ZN8UnitTest10CheckEqualIPKcSsEEvRNS_11TestResultsERKT_RKT0_RKNS_11TestDetailsE,"ax
 4427              		.section	.text.unlikely._ZN8UnitTest10CheckEqualIPKcSsEEvRNS_11TestResultsERKT_RKT0_RKNS_11TestDet
 4428              	.LCOLDE49:
 4429              		.section	.text._ZN8UnitTest10CheckEqualIPKcSsEEvRNS_11TestResultsERKT_RKT0_RKNS_11TestDetailsE,"ax
 4430              	.LHOTE49:
 4431              		.section	.rodata.str1.1
 4432              	.LC50:
 4433 0091 5265616C 		.string	"Real failure message"
 4433      20666169 
 4433      6C757265 
 4433      206D6573 
 4433      73616765 
 4434              		.section	.rodata.str1.8
 4435 0179 00000000 		.align 8
 4435      000000
 4436              	.LC51:
 4437 0180 556E6861 		.string	"Unhandled exception in CHECK_EQUAL(goodStr, failure.second)"
 4437      6E646C65 
 4437      64206578 
 4437      63657074 
 4437      696F6E20 
 4438              		.section	.text.unlikely
 4439              	.LCOLDB52:
 4440              		.text
 4441              	.LHOTB52:
 4442 1bb8 0F1F8400 		.p2align 4,,15
 4442      00000000 
 4444              	_ZN8UnitTest11ExecuteTestINS_12_GLOBAL__N_178DeferredTestReporterFixtureDeferredTestReporterTakesCo
 4445              	.LFB1530:
 4446              		.cfi_startproc
 4447              		.cfi_personality 0x3,__gxx_personality_v0
 4448              		.cfi_lsda 0x3,.LLSDA1530
 4449 1bc0 4154     		pushq	%r12
 4450              		.cfi_def_cfa_offset 16
 4451              		.cfi_offset 12, -16
 4452 1bc2 55       		pushq	%rbp
 4453              		.cfi_def_cfa_offset 24
 4454              		.cfi_offset 6, -24
 4455 1bc3 53       		pushq	%rbx
 4456              		.cfi_def_cfa_offset 32
 4457              		.cfi_offset 3, -32
 4458 1bc4 4889F3   		movq	%rsi, %rbx
 4459 1bc7 4881ECE0 		subq	$1760, %rsp
 4459      060000
 4460              		.cfi_def_cfa_offset 1792
 4461 1bce 48893C24 		movq	%rdi, (%rsp)
 4462 1bd2 48897424 		movq	%rsi, 8(%rsp)
 4462      08
 4463 1bd7 64488B04 		movq	%fs:40, %rax
 4463      25280000 
 4463      00
 4464 1be0 48898424 		movq	%rax, 1752(%rsp)
 4464      D8060000 
 4465 1be8 31C0     		xorl	%eax, %eax
 4466              	.LEHB84:
 4467 1bea E8000000 		call	_ZN8UnitTest11CurrentTest7DetailsEv
 4467      00
 4468              	.LEHE84:
 4469 1bef 488DBC24 		leaq	496(%rsp), %rdi
 4469      F0010000 
 4470 1bf7 488918   		movq	%rbx, (%rax)
 4471              	.LEHB85:
 4472 1bfa E8000000 		call	_ZN8UnitTest16SignalTranslatorC1Ev
 4472      00
 4473              	.LEHE85:
 4474 1bff 488B3D00 		movq	_ZN8UnitTest16SignalTranslator12s_jumpTargetE(%rip), %rdi
 4474      000000
 4475 1c06 BE010000 		movl	$1, %esi
 4475      00
 4476 1c0b E8000000 		call	__sigsetjmp
 4476      00
 4477 1c10 85C0     		testl	%eax, %eax
 4478 1c12 0F855001 		jne	.L728
 4478      0000
 4479 1c18 488B2C24 		movq	(%rsp), %rbp
 4480 1c1c 488D5D40 		leaq	64(%rbp), %rbx
 4481 1c20 4889EF   		movq	%rbp, %rdi
 4482 1c23 4889DE   		movq	%rbx, %rsi
 4483              	.LEHB86:
 4484 1c26 E8000000 		call	_ZN8UnitTest20DeferredTestReporter15ReportTestStartERKNS_11TestDetailsE
 4484      00
 4485 1c2b 48B85265 		movabsq	$7593462736166675794, %rax
 4485      616C2066 
 4485      6169
 4486 1c35 488D9424 		leaq	1616(%rsp), %rdx
 4486      50060000 
 4487 1c3d 4889DE   		movq	%rbx, %rsi
 4488 1c40 48898424 		movq	%rax, 1616(%rsp)
 4488      50060000 
 4489 1c48 4889EF   		movq	%rbp, %rdi
 4490 1c4b 48B86C75 		movabsq	$8315172272917869932, %rax
 4490      7265206D 
 4490      6573
 4491 1c55 48C74424 		movq	$.LC50, 24(%rsp)
 4491      18000000 
 4491      00
 4492 1c5e 48898424 		movq	%rax, 1624(%rsp)
 4492      58060000 
 4493 1c66 C7842460 		movl	$1701273971, 1632(%rsp)
 4493      06000073 
 4493      616765
 4494 1c71 C6842464 		movb	$0, 1636(%rsp)
 4494      06000000 
 4495 1c79 E8000000 		call	_ZN8UnitTest20DeferredTestReporter13ReportFailureERKNS_11TestDetailsEPKc
 4495      00
 4496 1c7e 48B8426F 		movabsq	$7018332749566537538, %rax
 4496      67757320 
 4496      6661
 4497 1c88 4889EF   		movq	%rbp, %rdi
 4498 1c8b C7842460 		movl	$1734439795, 1632(%rsp)
 4498      06000073 
 4498      736167
 4499 1c96 48898424 		movq	%rax, 1616(%rsp)
 4499      50060000 
 4500 1c9e 48B8696C 		movabsq	$7308533390376266857, %rax
 4500      75726520 
 4500      6D65
 4501 1ca8 48898424 		movq	%rax, 1624(%rsp)
 4501      58060000 
 4502 1cb0 B8650000 		movl	$101, %eax
 4502      00
 4503 1cb5 66898424 		movw	%ax, 1636(%rsp)
 4503      64060000 
 4504 1cbd E8000000 		call	_ZN8UnitTest20DeferredTestReporter10GetResultsEv
 4504      00
 4505              	.LEHE86:
 4506 1cc2 488B08   		movq	(%rax), %rcx
 4507 1cc5 488B4008 		movq	8(%rax), %rax
 4508 1cc9 48BAB76D 		movabsq	$7905747460161236407, %rdx
 4508      DBB66DDB 
 4508      B66D
 4509 1cd3 4829C8   		subq	%rcx, %rax
 4510 1cd6 48C1F803 		sarq	$3, %rax
 4511 1cda 480FAFC2 		imulq	%rdx, %rax
 4512 1cde 4885C0   		testq	%rax, %rax
 4513 1ce1 0F844801 		je	.L729
 4513      0000
 4514 1ce7 488B5918 		movq	24(%rcx), %rbx
 4515 1ceb 488B4120 		movq	32(%rcx), %rax
 4516 1cef 4829D8   		subq	%rbx, %rax
 4517 1cf2 48C1F804 		sarq	$4, %rax
 4518 1cf6 4885C0   		testq	%rax, %rax
 4519 1cf9 0F844301 		je	.L730
 4519      0000
 4520              	.LEHB87:
 4521 1cff E8000000 		call	_ZN8UnitTest11CurrentTest7DetailsEv
 4521      00
 4522 1d04 488B30   		movq	(%rax), %rsi
 4523 1d07 488D7C24 		leaq	96(%rsp), %rdi
 4523      60
 4524 1d0c BA720000 		movl	$114, %edx
 4524      00
 4525 1d11 E8000000 		call	_ZN8UnitTest11TestDetailsC1ERKS0_i
 4525      00
 4526 1d16 4883C308 		addq	$8, %rbx
 4527 1d1a E8000000 		call	_ZN8UnitTest11CurrentTest7ResultsEv
 4527      00
 4528 1d1f 488B38   		movq	(%rax), %rdi
 4529 1d22 488D4C24 		leaq	96(%rsp), %rcx
 4529      60
 4530 1d27 488D7424 		leaq	24(%rsp), %rsi
 4530      18
 4531 1d2c 4889DA   		movq	%rbx, %rdx
 4532 1d2f E8000000 		call	_ZN8UnitTest10CheckEqualIPKcSsEEvRNS_11TestResultsERKT_RKT0_RKNS_11TestDetailsE
 4532      00
 4533              	.LEHE87:
 4534              	.L702:
 4535 1d34 488DBC24 		leaq	496(%rsp), %rdi
 4535      F0010000 
 4536              	.LEHB88:
 4537 1d3c E8000000 		call	_ZN8UnitTest16SignalTranslatorD1Ev
 4537      00
 4538              	.LEHE88:
 4539              	.L693:
 4540 1d41 488B8424 		movq	1752(%rsp), %rax
 4540      D8060000 
 4541 1d49 64483304 		xorq	%fs:40, %rax
 4541      25280000 
 4541      00
 4542 1d52 0F85E500 		jne	.L731
 4542      0000
 4543 1d58 4881C4E0 		addq	$1760, %rsp
 4543      060000
 4544              		.cfi_remember_state
 4545              		.cfi_def_cfa_offset 32
 4546 1d5f 5B       		popq	%rbx
 4547              		.cfi_def_cfa_offset 24
 4548 1d60 5D       		popq	%rbp
 4549              		.cfi_def_cfa_offset 16
 4550 1d61 415C     		popq	%r12
 4551              		.cfi_def_cfa_offset 8
 4552 1d63 C3       		ret
 4553              		.p2align 4,,10
 4554 1d64 0F1F4000 		.p2align 3
 4555              	.L728:
 4556              		.cfi_restore_state
 4557 1d68 BF080000 		movl	$8, %edi
 4557      00
 4558 1d6d E8000000 		call	__cxa_allocate_exception
 4558      00
 4559 1d72 31D2     		xorl	%edx, %edx
 4560 1d74 48C70000 		movq	$.LC23, (%rax)
 4560      000000
 4561 1d7b BE000000 		movl	$_ZTIPKc, %esi
 4561      00
 4562 1d80 4889C7   		movq	%rax, %rdi
 4563              	.LEHB89:
 4564 1d83 E8000000 		call	__cxa_throw
 4564      00
 4565              	.LEHE89:
 4566              	.L715:
 4567 1d88 4889C3   		movq	%rax, %rbx
 4568 1d8b 4889D5   		movq	%rdx, %rbp
 4569              	.L700:
 4570 1d8e 488DBC24 		leaq	496(%rsp), %rdi
 4570      F0010000 
 4571 1d96 E8000000 		call	_ZN8UnitTest16SignalTranslatorD1Ev
 4571      00
 4572 1d9b 4889DF   		movq	%rbx, %rdi
 4573 1d9e 4889EA   		movq	%rbp, %rdx
 4574              	.L703:
 4575 1da1 4883FA01 		cmpq	$1, %rdx
 4576 1da5 0F844501 		je	.L705
 4576      0000
 4577 1dab 4883FA02 		cmpq	$2, %rdx
 4578 1daf 0F851501 		jne	.L732
 4578      0000
 4579 1db5 E8000000 		call	__cxa_begin_catch
 4579      00
 4580 1dba 488DBC24 		leaq	128(%rsp), %rdi
 4580      80000000 
 4581 1dc2 4889C3   		movq	%rax, %rbx
 4582              	.LEHB90:
 4583 1dc5 E8000000 		call	_ZN8UnitTest15MemoryOutStreamC1Ev
 4583      00
 4584              	.LEHE90:
 4585 1dca 488B03   		movq	(%rbx), %rax
 4586 1dcd 4889DF   		movq	%rbx, %rdi
 4587 1dd0 FF5010   		call	*16(%rax)
 4588 1dd3 488DBC24 		leaq	128(%rsp), %rdi
 4588      80000000 
 4589 1ddb BE000000 		movl	$.LC34, %esi
 4589      00
 4590 1de0 4889C3   		movq	%rax, %rbx
 4591              	.LEHB91:
 4592 1de3 E8000000 		call	_ZStlsISt11char_traitsIcEERSt13basic_ostreamIcT_ES5_PKc
 4592      00
 4593 1de8 4889C7   		movq	%rax, %rdi
 4594 1deb 4889DE   		movq	%rbx, %rsi
 4595 1dee E8000000 		call	_ZStlsISt11char_traitsIcEERSt13basic_ostreamIcT_ES5_PKc
 4595      00
 4596 1df3 488DBC24 		leaq	128(%rsp), %rdi
 4596      80000000 
 4597 1dfb E8000000 		call	_ZNK8UnitTest15MemoryOutStream7GetTextEv
 4597      00
 4598 1e00 4889C3   		movq	%rax, %rbx
 4599 1e03 E8000000 		call	_ZN8UnitTest11CurrentTest7ResultsEv
 4599      00
 4600 1e08 488B7424 		movq	8(%rsp), %rsi
 4600      08
 4601 1e0d 488B38   		movq	(%rax), %rdi
 4602 1e10 4889DA   		movq	%rbx, %rdx
 4603 1e13 E8000000 		call	_ZN8UnitTest11TestResults13OnTestFailureERKNS_11TestDetailsEPKc
 4603      00
 4604              	.LEHE91:
 4605 1e18 488DBC24 		leaq	128(%rsp), %rdi
 4605      80000000 
 4606              	.LEHB92:
 4607 1e20 E8000000 		call	_ZN8UnitTest15MemoryOutStreamD1Ev
 4607      00
 4608              	.LEHE92:
 4609              	.L725:
 4610 1e25 E8000000 		call	__cxa_end_catch
 4610      00
 4611 1e2a E912FFFF 		jmp	.L693
 4611      FF
 4612              	.L729:
 4613 1e2f 31D2     		xorl	%edx, %edx
 4614 1e31 31F6     		xorl	%esi, %esi
 4615 1e33 BF000000 		movl	$.LC25, %edi
 4615      00
 4616              	.LEHB93:
 4617 1e38 E8000000 		call	_ZSt24__throw_out_of_range_fmtPKcz
 4617      00
 4618              	.L731:
 4619 1e3d E8000000 		call	__stack_chk_fail
 4619      00
 4620              	.L730:
 4621 1e42 31D2     		xorl	%edx, %edx
 4622 1e44 31F6     		xorl	%esi, %esi
 4623 1e46 BF000000 		movl	$.LC25, %edi
 4623      00
 4624 1e4b E8000000 		call	_ZSt24__throw_out_of_range_fmtPKcz
 4624      00
 4625              	.LEHE93:
 4626              	.L721:
 4627 1e50 4889C7   		movq	%rax, %rdi
 4628 1e53 E8000000 		call	__cxa_begin_catch
 4628      00
 4629              	.LEHB94:
 4630 1e58 E8000000 		call	_ZN8UnitTest11CurrentTest7DetailsEv
 4630      00
 4631 1e5d 488B30   		movq	(%rax), %rsi
 4632 1e60 488D7C24 		leaq	64(%rsp), %rdi
 4632      40
 4633 1e65 BA720000 		movl	$114, %edx
 4633      00
 4634 1e6a E8000000 		call	_ZN8UnitTest11TestDetailsC1ERKS0_i
 4634      00
 4635 1e6f E8000000 		call	_ZN8UnitTest11CurrentTest7ResultsEv
 4635      00
 4636 1e74 488B38   		movq	(%rax), %rdi
 4637 1e77 488D7424 		leaq	64(%rsp), %rsi
 4637      40
 4638 1e7c BA000000 		movl	$.LC51, %edx
 4638      00
 4639 1e81 E8000000 		call	_ZN8UnitTest11TestResults13OnTestFailureERKNS_11TestDetailsEPKc
 4639      00
 4640              	.LEHE94:
 4641              	.LEHB95:
 4642 1e86 E8000000 		call	__cxa_end_catch
 4642      00
 4643              	.LEHE95:
 4644 1e8b E9A4FEFF 		jmp	.L702
 4644      FF
 4645              	.L714:
 4646 1e90 4889C7   		movq	%rax, %rdi
 4647 1e93 E909FFFF 		jmp	.L703
 4647      FF
 4648              	.L720:
 4649 1e98 4889C3   		movq	%rax, %rbx
 4650 1e9b 4889D5   		movq	%rdx, %rbp
 4651 1e9e E8000000 		call	__cxa_end_catch
 4651      00
 4652 1ea3 E9E6FEFF 		jmp	.L700
 4652      FF
 4653              	.L718:
 4654 1ea8 488DBC24 		leaq	128(%rsp), %rdi
 4654      80000000 
 4655 1eb0 4889C3   		movq	%rax, %rbx
 4656 1eb3 E8000000 		call	_ZN8UnitTest15MemoryOutStreamD1Ev
 4656      00
 4657              	.L709:
 4658 1eb8 E8000000 		call	__cxa_end_catch
 4658      00
 4659 1ebd 4889DF   		movq	%rbx, %rdi
 4660              	.LEHB96:
 4661 1ec0 E8000000 		call	_Unwind_Resume
 4661      00
 4662              	.LEHE96:
 4663              	.L717:
 4664              	.L726:
 4665 1ec5 4889C3   		movq	%rax, %rbx
 4666 1ec8 EBEE     		jmp	.L709
 4667              	.L732:
 4668 1eca E8000000 		call	__cxa_begin_catch
 4668      00
 4669              	.LEHB97:
 4670 1ecf E8000000 		call	_ZN8UnitTest11CurrentTest7ResultsEv
 4670      00
 4671 1ed4 488B7424 		movq	8(%rsp), %rsi
 4671      08
 4672 1ed9 488B38   		movq	(%rax), %rdi
 4673 1edc BA000000 		movl	$.LC35, %edx
 4673      00
 4674 1ee1 E8000000 		call	_ZN8UnitTest11TestResults13OnTestFailureERKNS_11TestDetailsEPKc
 4674      00
 4675              	.LEHE97:
 4676              	.LEHB98:
 4677 1ee6 E8000000 		call	__cxa_end_catch
 4677      00
 4678              	.LEHE98:
 4679 1eeb E951FEFF 		jmp	.L693
 4679      FF
 4680              	.L705:
 4681 1ef0 E8000000 		call	__cxa_begin_catch
 4681      00
 4682 1ef5 4889C3   		movq	%rax, %rbx
 4683 1ef8 488B00   		movq	(%rax), %rax
 4684 1efb 4889DF   		movq	%rbx, %rdi
 4685 1efe FF5010   		call	*16(%rax)
 4686 1f01 4889DF   		movq	%rbx, %rdi
 4687 1f04 4889C5   		movq	%rax, %rbp
 4688              	.LEHB99:
 4689 1f07 E8000000 		call	_ZNK8UnitTest15AssertException10LineNumberEv
 4689      00
 4690 1f0c 4889DF   		movq	%rbx, %rdi
 4691 1f0f 4189C4   		movl	%eax, %r12d
 4692 1f12 E8000000 		call	_ZNK8UnitTest15AssertException8FilenameEv
 4692      00
 4693 1f17 4889C1   		movq	%rax, %rcx
 4694 1f1a 488B4424 		movq	8(%rsp), %rax
 4694      08
 4695 1f1f 488D7C24 		leaq	32(%rsp), %rdi
 4695      20
 4696 1f24 4589E0   		movl	%r12d, %r8d
 4697 1f27 488B7008 		movq	8(%rax), %rsi
 4698 1f2b 488B10   		movq	(%rax), %rdx
 4699 1f2e E8000000 		call	_ZN8UnitTest11TestDetailsC1EPKcS2_S2_i
 4699      00
 4700 1f33 E8000000 		call	_ZN8UnitTest11CurrentTest7ResultsEv
 4700      00
 4701 1f38 488B38   		movq	(%rax), %rdi
 4702 1f3b 488D7424 		leaq	32(%rsp), %rsi
 4702      20
 4703 1f40 4889EA   		movq	%rbp, %rdx
 4704 1f43 E8000000 		call	_ZN8UnitTest11TestResults13OnTestFailureERKNS_11TestDetailsEPKc
 4704      00
 4705              	.LEHE99:
 4706 1f48 E9D8FEFF 		jmp	.L725
 4706      FF
 4707              	.L719:
 4708 1f4d 4889C3   		movq	%rax, %rbx
 4709 1f50 E8000000 		call	__cxa_end_catch
 4709      00
 4710 1f55 4889DF   		movq	%rbx, %rdi
 4711              	.LEHB100:
 4712 1f58 E8000000 		call	_Unwind_Resume
 4712      00
 4713              	.LEHE100:
 4714              	.L716:
 4715 1f5d E963FFFF 		jmp	.L726
 4715      FF
 4716              		.cfi_endproc
 4717              	.LFE1530:
 4718              		.section	.gcc_except_table
 4719 023f 00       		.align 4
 4720              	.LLSDA1530:
 4721 0240 FF       		.byte	0xff
 4722 0241 03       		.byte	0x3
 4723 0242 79       		.uleb128 .LLSDATT1530-.LLSDATTD1530
 4724              	.LLSDATTD1530:
 4725 0243 01       		.byte	0x1
 4726 0244 60       		.uleb128 .LLSDACSE1530-.LLSDACSB1530
 4727              	.LLSDACSB1530:
 4728 0245 2A       		.uleb128 .LEHB84-.LFB1530
 4729 0246 05       		.uleb128 .LEHE84-.LEHB84
 4730 0247 00       		.uleb128 0
 4731 0248 00       		.uleb128 0
 4732 0249 3A       		.uleb128 .LEHB85-.LFB1530
 4733 024a 05       		.uleb128 .LEHE85-.LEHB85
 4734 024b D005     		.uleb128 .L714-.LFB1530
 4735 024d 05       		.uleb128 0x5
 4736 024e 66       		.uleb128 .LEHB86-.LFB1530
 4737 024f 9C01     		.uleb128 .LEHE86-.LEHB86
 4738 0251 C803     		.uleb128 .L715-.LFB1530
 4739 0253 07       		.uleb128 0x7
 4740 0254 BF02     		.uleb128 .LEHB87-.LFB1530
 4741 0256 35       		.uleb128 .LEHE87-.LEHB87
 4742 0257 9005     		.uleb128 .L721-.LFB1530
 4743 0259 01       		.uleb128 0x1
 4744 025a FC02     		.uleb128 .LEHB88-.LFB1530
 4745 025c 05       		.uleb128 .LEHE88-.LEHB88
 4746 025d D005     		.uleb128 .L714-.LFB1530
 4747 025f 05       		.uleb128 0x5
 4748 0260 C303     		.uleb128 .LEHB89-.LFB1530
 4749 0262 05       		.uleb128 .LEHE89-.LEHB89
 4750 0263 C803     		.uleb128 .L715-.LFB1530
 4751 0265 07       		.uleb128 0x7
 4752 0266 8504     		.uleb128 .LEHB90-.LFB1530
 4753 0268 05       		.uleb128 .LEHE90-.LEHB90
 4754 0269 8506     		.uleb128 .L717-.LFB1530
 4755 026b 00       		.uleb128 0
 4756 026c A304     		.uleb128 .LEHB91-.LFB1530
 4757 026e 35       		.uleb128 .LEHE91-.LEHB91
 4758 026f E805     		.uleb128 .L718-.LFB1530
 4759 0271 00       		.uleb128 0
 4760 0272 E004     		.uleb128 .LEHB92-.LFB1530
 4761 0274 05       		.uleb128 .LEHE92-.LEHB92
 4762 0275 8506     		.uleb128 .L717-.LFB1530
 4763 0277 00       		.uleb128 0
 4764 0278 F804     		.uleb128 .LEHB93-.LFB1530
 4765 027a 18       		.uleb128 .LEHE93-.LEHB93
 4766 027b C803     		.uleb128 .L715-.LFB1530
 4767 027d 07       		.uleb128 0x7
 4768 027e 9805     		.uleb128 .LEHB94-.LFB1530
 4769 0280 2E       		.uleb128 .LEHE94-.LEHB94
 4770 0281 D805     		.uleb128 .L720-.LFB1530
 4771 0283 07       		.uleb128 0x7
 4772 0284 C605     		.uleb128 .LEHB95-.LFB1530
 4773 0286 05       		.uleb128 .LEHE95-.LEHB95
 4774 0287 C803     		.uleb128 .L715-.LFB1530
 4775 0289 07       		.uleb128 0x7
 4776 028a 8006     		.uleb128 .LEHB96-.LFB1530
 4777 028c 05       		.uleb128 .LEHE96-.LEHB96
 4778 028d 00       		.uleb128 0
 4779 028e 00       		.uleb128 0
 4780 028f 8F06     		.uleb128 .LEHB97-.LFB1530
 4781 0291 17       		.uleb128 .LEHE97-.LEHB97
 4782 0292 8D07     		.uleb128 .L719-.LFB1530
 4783 0294 00       		.uleb128 0
 4784 0295 A606     		.uleb128 .LEHB98-.LFB1530
 4785 0297 05       		.uleb128 .LEHE98-.LEHB98
 4786 0298 00       		.uleb128 0
 4787 0299 00       		.uleb128 0
 4788 029a C706     		.uleb128 .LEHB99-.LFB1530
 4789 029c 41       		.uleb128 .LEHE99-.LEHB99
 4790 029d 9D07     		.uleb128 .L716-.LFB1530
 4791 029f 00       		.uleb128 0
 4792 02a0 9807     		.uleb128 .LEHB100-.LFB1530
 4793 02a2 05       		.uleb128 .LEHE100-.LEHB100
 4794 02a3 00       		.uleb128 0
 4795 02a4 00       		.uleb128 0
 4796              	.LLSDACSE1530:
 4797 02a5 03       		.byte	0x3
 4798 02a6 00       		.byte	0
 4799 02a7 02       		.byte	0x2
 4800 02a8 7D       		.byte	0x7d
 4801 02a9 01       		.byte	0x1
 4802 02aa 7D       		.byte	0x7d
 4803 02ab 00       		.byte	0
 4804 02ac 7D       		.byte	0x7d
 4805 02ad 000000   		.align 4
 4806 02b0 00000000 		.long	0
 4807              	
 4808 02b4 00000000 		.long	_ZTISt9exception
 4809 02b8 00000000 		.long	_ZTIN8UnitTest15AssertExceptionE
 4810              	.LLSDATT1530:
 4811              		.text
 4813              		.section	.text.unlikely
 4814              	.LCOLDE52:
 4815              		.text
 4816              	.LHOTE52:
 4817              		.section	.text.unlikely
 4818              		.align 2
 4819              	.LCOLDB53:
 4820              		.text
 4821              	.LHOTB53:
 4822              		.align 2
 4823 1f62 0F1F4000 		.p2align 4,,15
 4823      662E0F1F 
 4823      84000000 
 4823      0000
 4825              	_ZNK8UnitTest12_GLOBAL__N_176TestDeferredTestReporterFixtureDeferredTestReporterTakesCopyOfFailureM
 4826              	.LFB1470:
 4827              		.cfi_startproc
 4828              		.cfi_personality 0x3,__gxx_personality_v0
 4829              		.cfi_lsda 0x3,.LLSDA1470
 4830 1f70 4157     		pushq	%r15
 4831              		.cfi_def_cfa_offset 16
 4832              		.cfi_offset 15, -16
 4833 1f72 4156     		pushq	%r14
 4834              		.cfi_def_cfa_offset 24
 4835              		.cfi_offset 14, -24
 4836 1f74 BE000000 		movl	$.LC39, %esi
 4836      00
 4837 1f79 4155     		pushq	%r13
 4838              		.cfi_def_cfa_offset 32
 4839              		.cfi_offset 13, -32
 4840 1f7b 4154     		pushq	%r12
 4841              		.cfi_def_cfa_offset 40
 4842              		.cfi_offset 12, -40
 4843 1f7d 4C8D6F08 		leaq	8(%rdi), %r13
 4844 1f81 55       		pushq	%rbp
 4845              		.cfi_def_cfa_offset 48
 4846              		.cfi_offset 6, -48
 4847 1f82 53       		pushq	%rbx
 4848              		.cfi_def_cfa_offset 56
 4849              		.cfi_offset 3, -56
 4850 1f83 4881EC08 		subq	$520, %rsp
 4850      020000
 4851              		.cfi_def_cfa_offset 576
 4852 1f8a 488D4424 		leaq	32(%rsp), %rax
 4852      20
 4853 1f8f 48897C24 		movq	%rdi, 8(%rsp)
 4853      08
 4854 1f94 48C74424 		movq	$0, 40(%rsp)
 4854      28000000 
 4854      00
 4855 1f9d 64488B14 		movq	%fs:40, %rdx
 4855      25280000 
 4855      00
 4856 1fa6 48899424 		movq	%rdx, 504(%rsp)
 4856      F8010000 
 4857 1fae 31D2     		xorl	%edx, %edx
 4858 1fb0 488D7820 		leaq	32(%rax), %rdi
 4859 1fb4 488D5424 		leaq	31(%rsp), %rdx
 4859      1F
 4860 1fb9 48C74424 		movq	$0, 48(%rsp)
 4860      30000000 
 4860      00
 4861 1fc2 48C74424 		movq	$0, 56(%rsp)
 4861      38000000 
 4861      00
 4862 1fcb 48C74424 		movq	$_ZTVN8UnitTest12_GLOBAL__N_124MockDeferredTestReporterE+16, 32(%rsp)
 4862      20000000 
 4862      00
 4863              	.LEHB101:
 4864 1fd4 E8000000 		call	_ZNSsC1EPKcRKSaIcE
 4864      00
 4865              	.LEHE101:
 4866 1fd9 488D4424 		leaq	32(%rsp), %rax
 4866      20
 4867 1fde 488D5424 		leaq	31(%rsp), %rdx
 4867      1F
 4868 1fe3 BE000000 		movl	$.LC40, %esi
 4868      00
 4869 1fe8 488D7828 		leaq	40(%rax), %rdi
 4870              	.LEHB102:
 4871 1fec E8000000 		call	_ZNSsC1EPKcRKSaIcE
 4871      00
 4872              	.LEHE102:
 4873 1ff1 488D4424 		leaq	32(%rsp), %rax
 4873      20
 4874 1ff6 488D5424 		leaq	31(%rsp), %rdx
 4874      1F
 4875 1ffb BE000000 		movl	$.LC41, %esi
 4875      00
 4876 2000 488D7830 		leaq	48(%rax), %rdi
 4877              	.LEHB103:
 4878 2004 E8000000 		call	_ZNSsC1EPKcRKSaIcE
 4878      00
 4879              	.LEHE103:
 4880 2009 488D4424 		leaq	32(%rsp), %rax
 4880      20
 4881 200e 488B4C24 		movq	80(%rsp), %rcx
 4881      50
 4882 2013 488B5424 		movq	72(%rsp), %rdx
 4882      48
 4883 2018 488B7424 		movq	64(%rsp), %rsi
 4883      40
 4884 201d 41B80C00 		movl	$12, %r8d
 4884      0000
 4885 2023 C7442458 		movl	$12, 88(%rsp)
 4885      0C000000 
 4886 202b 488D7840 		leaq	64(%rax), %rdi
 4887              	.LEHB104:
 4888 202f E8000000 		call	_ZN8UnitTest11TestDetailsC1EPKcS2_S2_i
 4888      00
 4889              	.LEHE104:
 4890 2034 488D7C24 		leaq	32(%rsp), %rdi
 4890      20
 4891 2039 4C89EE   		movq	%r13, %rsi
 4892 203c 4C89AC24 		movq	%r13, 128(%rsp)
 4892      80000000 
 4893              	.LEHB105:
 4894 2044 E877FBFF 		call	_ZN8UnitTest11ExecuteTestINS_12_GLOBAL__N_178DeferredTestReporterFixtureDeferredTestReporterT
 4894      FF
 4895              	.LEHE105:
 4896 2049 488B4424 		movq	80(%rsp), %rax
 4896      50
 4897 204e 488D78E8 		leaq	-24(%rax), %rdi
 4898 2052 4881FF00 		cmpq	$_ZNSs4_Rep20_S_empty_rep_storageE, %rdi
 4898      000000
 4899 2059 0F857402 		jne	.L840
 4899      0000
 4900              	.L744:
 4901 205f 488B4424 		movq	72(%rsp), %rax
 4901      48
 4902 2064 488D78E8 		leaq	-24(%rax), %rdi
 4903 2068 4881FF00 		cmpq	$_ZNSs4_Rep20_S_empty_rep_storageE, %rdi
 4903      000000
 4904 206f 0F858B02 		jne	.L841
 4904      0000
 4905              	.L749:
 4906 2075 488B4424 		movq	64(%rsp), %rax
 4906      40
 4907 207a 488D78E8 		leaq	-24(%rax), %rdi
 4908 207e 4881FF00 		cmpq	$_ZNSs4_Rep20_S_empty_rep_storageE, %rdi
 4908      000000
 4909 2085 0F851702 		jne	.L842
 4909      0000
 4910              	.L754:
 4911 208b 488B6C24 		movq	48(%rsp), %rbp
 4911      30
 4912 2090 4C8B7424 		movq	40(%rsp), %r14
 4912      28
 4913 2095 48C74424 		movq	$_ZTVN8UnitTest20DeferredTestReporterE+16, 32(%rsp)
 4913      20000000 
 4913      00
 4914 209e 4C39F5   		cmpq	%r14, %rbp
 4915 20a1 0F84CA00 		je	.L758
 4915      0000
 4916 20a7 41BC0000 		movl	$_ZL28__gthrw___pthread_key_createPjPFvPvE, %r12d
 4916      0000
 4917 20ad 0F1F00   		.p2align 4,,10
 4918              		.p2align 3
 4919              	.L787:
 4920 20b0 4D8B7E20 		movq	32(%r14), %r15
 4921 20b4 498B5E18 		movq	24(%r14), %rbx
 4922 20b8 4939DF   		cmpq	%rbx, %r15
 4923 20bb 7457     		je	.L759
 4924 20bd 4D85E4   		testq	%r12, %r12
 4925 20c0 7517     		jne	.L823
 4926 20c2 E9160100 		jmp	.L765
 4926      00
 4927 20c7 660F1F84 		.p2align 4,,10
 4927      00000000 
 4927      00
 4928              		.p2align 3
 4929              	.L768:
 4930 20d0 4883C310 		addq	$16, %rbx
 4931 20d4 4939DF   		cmpq	%rbx, %r15
 4932 20d7 7437     		je	.L766
 4933              	.L823:
 4934 20d9 488B4308 		movq	8(%rbx), %rax
 4935 20dd 488D78E8 		leaq	-24(%rax), %rdi
 4936 20e1 4881FF00 		cmpq	$_ZNSs4_Rep20_S_empty_rep_storageE, %rdi
 4936      000000
 4937 20e8 74E6     		je	.L768
 4938 20ea B9FFFFFF 		movl	$-1, %ecx
 4938      FF
 4939 20ef F00FC148 		lock xaddl	%ecx, -8(%rax)
 4939      F8
 4940 20f4 85C9     		testl	%ecx, %ecx
 4941 20f6 7FD8     		jg	.L768
 4942 20f8 488D7424 		leaq	31(%rsp), %rsi
 4942      1F
 4943 20fd 4883C310 		addq	$16, %rbx
 4944 2101 E8000000 		call	_ZNSs4_Rep10_M_destroyERKSaIcE
 4944      00
 4945 2106 4939DF   		cmpq	%rbx, %r15
 4946 2109 75CE     		jne	.L823
 4947 210b 0F1F4400 		.p2align 4,,10
 4947      00
 4948              		.p2align 3
 4949              	.L766:
 4950 2110 4D8B7E18 		movq	24(%r14), %r15
 4951              	.L759:
 4952 2114 4D85FF   		testq	%r15, %r15
 4953 2117 7408     		je	.L771
 4954 2119 4C89FF   		movq	%r15, %rdi
 4955 211c E8000000 		call	_ZdlPv
 4955      00
 4956              	.L771:
 4957 2121 498B4610 		movq	16(%r14), %rax
 4958 2125 488D78E8 		leaq	-24(%rax), %rdi
 4959 2129 4881FF00 		cmpq	$_ZNSs4_Rep20_S_empty_rep_storageE, %rdi
 4959      000000
 4960 2130 0F851A01 		jne	.L843
 4960      0000
 4961              	.L773:
 4962 2136 498B4608 		movq	8(%r14), %rax
 4963 213a 488D78E8 		leaq	-24(%rax), %rdi
 4964 213e 4881FF00 		cmpq	$_ZNSs4_Rep20_S_empty_rep_storageE, %rdi
 4964      000000
 4965 2145 0F85D500 		jne	.L844
 4965      0000
 4966              	.L778:
 4967 214b 498B06   		movq	(%r14), %rax
 4968 214e 488D78E8 		leaq	-24(%rax), %rdi
 4969 2152 4881FF00 		cmpq	$_ZNSs4_Rep20_S_empty_rep_storageE, %rdi
 4969      000000
 4970 2159 0F859100 		jne	.L845
 4970      0000
 4971              	.L783:
 4972 215f 4983C638 		addq	$56, %r14
 4973 2163 4C39F5   		cmpq	%r14, %rbp
 4974 2166 0F8544FF 		jne	.L787
 4974      FFFF
 4975 216c 488B6C24 		movq	40(%rsp), %rbp
 4975      28
 4976              	.L758:
 4977 2171 4885ED   		testq	%rbp, %rbp
 4978 2174 7408     		je	.L788
 4979 2176 4889EF   		movq	%rbp, %rdi
 4980 2179 E8000000 		call	_ZdlPv
 4980      00
 4981              	.L788:
 4982 217e 488D7C24 		leaq	32(%rsp), %rdi
 4982      20
 4983              	.LEHB106:
 4984 2183 E8000000 		call	_ZN8UnitTest12TestReporterD2Ev
 4984      00
 4985              	.LEHE106:
 4986              	.L733:
 4987 2188 488B8424 		movq	504(%rsp), %rax
 4987      F8010000 
 4988 2190 64483304 		xorq	%fs:40, %rax
 4988      25280000 
 4988      00
 4989 2199 0F85F903 		jne	.L846
 4989      0000
 4990 219f 4881C408 		addq	$520, %rsp
 4990      020000
 4991              		.cfi_remember_state
 4992              		.cfi_def_cfa_offset 56
 4993 21a6 5B       		popq	%rbx
 4994              		.cfi_def_cfa_offset 48
 4995 21a7 5D       		popq	%rbp
 4996              		.cfi_def_cfa_offset 40
 4997 21a8 415C     		popq	%r12
 4998              		.cfi_def_cfa_offset 32
 4999 21aa 415D     		popq	%r13
 5000              		.cfi_def_cfa_offset 24
 5001 21ac 415E     		popq	%r14
 5002              		.cfi_def_cfa_offset 16
 5003 21ae 415F     		popq	%r15
 5004              		.cfi_def_cfa_offset 8
 5005 21b0 C3       		ret
 5006              		.p2align 4,,10
 5007 21b1 0F1F8000 		.p2align 3
 5007      000000
 5008              	.L847:
 5009              		.cfi_restore_state
 5010 21b8 8B48F8   		movl	-8(%rax), %ecx
 5011 21bb 8D71FF   		leal	-1(%rcx), %esi
 5012 21be 85C9     		testl	%ecx, %ecx
 5013 21c0 8970F8   		movl	%esi, -8(%rax)
 5014 21c3 7F0B     		jg	.L763
 5015 21c5 488D7424 		leaq	31(%rsp), %rsi
 5015      1F
 5016 21ca E8000000 		call	_ZNSs4_Rep10_M_destroyERKSaIcE
 5016      00
 5017 21cf 90       		.p2align 4,,10
 5018              		.p2align 3
 5019              	.L763:
 5020 21d0 4883C310 		addq	$16, %rbx
 5021 21d4 4939DF   		cmpq	%rbx, %r15
 5022 21d7 0F8433FF 		je	.L766
 5022      FFFF
 5023              	.L765:
 5024 21dd 488B4308 		movq	8(%rbx), %rax
 5025 21e1 488D78E8 		leaq	-24(%rax), %rdi
 5026 21e5 4881FF00 		cmpq	$_ZNSs4_Rep20_S_empty_rep_storageE, %rdi
 5026      000000
 5027 21ec 74E2     		je	.L763
 5028 21ee EBC8     		jmp	.L847
 5029              		.p2align 4,,10
 5030              		.p2align 3
 5031              	.L845:
 5032 21f0 4D85E4   		testq	%r12, %r12
 5033 21f3 0F847F00 		je	.L784
 5033      0000
 5034 21f9 B9FFFFFF 		movl	$-1, %ecx
 5034      FF
 5035 21fe F00FC148 		lock xaddl	%ecx, -8(%rax)
 5035      F8
 5036 2203 89C8     		movl	%ecx, %eax
 5037              	.L785:
 5038 2205 85C0     		testl	%eax, %eax
 5039 2207 0F8F52FF 		jg	.L783
 5039      FFFF
 5040 220d 488D7424 		leaq	31(%rsp), %rsi
 5040      1F
 5041 2212 E8000000 		call	_ZNSs4_Rep10_M_destroyERKSaIcE
 5041      00
 5042 2217 E943FFFF 		jmp	.L783
 5042      FF
 5043 221c 0F1F4000 		.p2align 4,,10
 5044              		.p2align 3
 5045              	.L844:
 5046 2220 4D85E4   		testq	%r12, %r12
 5047 2223 7470     		je	.L779
 5048 2225 B9FFFFFF 		movl	$-1, %ecx
 5048      FF
 5049 222a F00FC148 		lock xaddl	%ecx, -8(%rax)
 5049      F8
 5050 222f 89C8     		movl	%ecx, %eax
 5051              	.L780:
 5052 2231 85C0     		testl	%eax, %eax
 5053 2233 0F8F12FF 		jg	.L778
 5053      FFFF
 5054 2239 488D7424 		leaq	31(%rsp), %rsi
 5054      1F
 5055 223e E8000000 		call	_ZNSs4_Rep10_M_destroyERKSaIcE
 5055      00
 5056 2243 E903FFFF 		jmp	.L778
 5056      FF
 5057 2248 0F1F8400 		.p2align 4,,10
 5057      00000000 
 5058              		.p2align 3
 5059              	.L843:
 5060 2250 4D85E4   		testq	%r12, %r12
 5061 2253 7433     		je	.L774
 5062 2255 B9FFFFFF 		movl	$-1, %ecx
 5062      FF
 5063 225a F00FC148 		lock xaddl	%ecx, -8(%rax)
 5063      F8
 5064 225f 89C8     		movl	%ecx, %eax
 5065              	.L775:
 5066 2261 85C0     		testl	%eax, %eax
 5067 2263 0F8FCDFE 		jg	.L773
 5067      FFFF
 5068 2269 488D7424 		leaq	31(%rsp), %rsi
 5068      1F
 5069 226e E8000000 		call	_ZNSs4_Rep10_M_destroyERKSaIcE
 5069      00
 5070 2273 E9BEFEFF 		jmp	.L773
 5070      FF
 5071              	.L784:
 5072 2278 8B48F8   		movl	-8(%rax), %ecx
 5073 227b 8D71FF   		leal	-1(%rcx), %esi
 5074 227e 8970F8   		movl	%esi, -8(%rax)
 5075 2281 89C8     		movl	%ecx, %eax
 5076 2283 E97DFFFF 		jmp	.L785
 5076      FF
 5077              	.L774:
 5078 2288 8B48F8   		movl	-8(%rax), %ecx
 5079 228b 8D71FF   		leal	-1(%rcx), %esi
 5080 228e 8970F8   		movl	%esi, -8(%rax)
 5081 2291 89C8     		movl	%ecx, %eax
 5082 2293 EBCC     		jmp	.L775
 5083              	.L779:
 5084 2295 8B48F8   		movl	-8(%rax), %ecx
 5085 2298 8D71FF   		leal	-1(%rcx), %esi
 5086 229b 8970F8   		movl	%esi, -8(%rax)
 5087 229e 89C8     		movl	%ecx, %eax
 5088 22a0 EB8F     		jmp	.L780
 5089              	.L842:
 5090 22a2 BA000000 		movl	$_ZL28__gthrw___pthread_key_createPjPFvPvE, %edx
 5090      00
 5091 22a7 4885D2   		testq	%rdx, %rdx
 5092 22aa 0F849700 		je	.L755
 5092      0000
 5093 22b0 BAFFFFFF 		movl	$-1, %edx
 5093      FF
 5094 22b5 F00FC150 		lock xaddl	%edx, -8(%rax)
 5094      F8
 5095 22ba 89D0     		movl	%edx, %eax
 5096              	.L756:
 5097 22bc 85C0     		testl	%eax, %eax
 5098 22be 0F8FC7FD 		jg	.L754
 5098      FFFF
 5099 22c4 488D7424 		leaq	31(%rsp), %rsi
 5099      1F
 5100 22c9 E8000000 		call	_ZNSs4_Rep10_M_destroyERKSaIcE
 5100      00
 5101 22ce E9B8FDFF 		jmp	.L754
 5101      FF
 5102              	.L840:
 5103 22d3 BA000000 		movl	$_ZL28__gthrw___pthread_key_createPjPFvPvE, %edx
 5103      00
 5104 22d8 4885D2   		testq	%rdx, %rdx
 5105 22db 745D     		je	.L745
 5106 22dd BAFFFFFF 		movl	$-1, %edx
 5106      FF
 5107 22e2 F00FC150 		lock xaddl	%edx, -8(%rax)
 5107      F8
 5108 22e7 89D0     		movl	%edx, %eax
 5109              	.L746:
 5110 22e9 85C0     		testl	%eax, %eax
 5111 22eb 0F8F6EFD 		jg	.L744
 5111      FFFF
 5112 22f1 488D7424 		leaq	31(%rsp), %rsi
 5112      1F
 5113 22f6 E8000000 		call	_ZNSs4_Rep10_M_destroyERKSaIcE
 5113      00
 5114 22fb E95FFDFF 		jmp	.L744
 5114      FF
 5115              	.L841:
 5116 2300 BA000000 		movl	$_ZL28__gthrw___pthread_key_createPjPFvPvE, %edx
 5116      00
 5117 2305 4885D2   		testq	%rdx, %rdx
 5118 2308 7423     		je	.L750
 5119 230a BAFFFFFF 		movl	$-1, %edx
 5119      FF
 5120 230f F00FC150 		lock xaddl	%edx, -8(%rax)
 5120      F8
 5121 2314 89D0     		movl	%edx, %eax
 5122              	.L751:
 5123 2316 85C0     		testl	%eax, %eax
 5124 2318 0F8F57FD 		jg	.L749
 5124      FFFF
 5125 231e 488D7424 		leaq	31(%rsp), %rsi
 5125      1F
 5126 2323 E8000000 		call	_ZNSs4_Rep10_M_destroyERKSaIcE
 5126      00
 5127 2328 E948FDFF 		jmp	.L749
 5127      FF
 5128              	.L750:
 5129 232d 8B50F8   		movl	-8(%rax), %edx
 5130 2330 8D4AFF   		leal	-1(%rdx), %ecx
 5131 2333 8948F8   		movl	%ecx, -8(%rax)
 5132 2336 89D0     		movl	%edx, %eax
 5133 2338 EBDC     		jmp	.L751
 5134              	.L745:
 5135 233a 8B50F8   		movl	-8(%rax), %edx
 5136 233d 8D4AFF   		leal	-1(%rdx), %ecx
 5137 2340 8948F8   		movl	%ecx, -8(%rax)
 5138 2343 89D0     		movl	%edx, %eax
 5139 2345 EBA2     		jmp	.L746
 5140              	.L755:
 5141 2347 8B50F8   		movl	-8(%rax), %edx
 5142 234a 8D4AFF   		leal	-1(%rdx), %ecx
 5143 234d 8948F8   		movl	%ecx, -8(%rax)
 5144 2350 89D0     		movl	%edx, %eax
 5145 2352 E965FFFF 		jmp	.L756
 5145      FF
 5146              	.L803:
 5147 2357 4889C7   		movq	%rax, %rdi
 5148 235a BB010000 		movl	$1, %ebx
 5148      00
 5149              	.L742:
 5150 235f 4883FA01 		cmpq	$1, %rdx
 5151 2363 0F847001 		je	.L793
 5151      0000
 5152 2369 4883FA02 		cmpq	$2, %rdx
 5153 236d 0F852601 		jne	.L848
 5153      0000
 5154 2373 E8000000 		call	__cxa_begin_catch
 5154      00
 5155 2378 488DBC24 		leaq	144(%rsp), %rdi
 5155      90000000 
 5156 2380 4889C3   		movq	%rax, %rbx
 5157              	.LEHB107:
 5158 2383 E8000000 		call	_ZN8UnitTest15MemoryOutStreamC1Ev
 5158      00
 5159              	.LEHE107:
 5160 2388 488B03   		movq	(%rbx), %rax
 5161 238b 4889DF   		movq	%rbx, %rdi
 5162 238e FF5010   		call	*16(%rax)
 5163 2391 488DBC24 		leaq	144(%rsp), %rdi
 5163      90000000 
 5164 2399 BE000000 		movl	$.LC34, %esi
 5164      00
 5165 239e 4889C3   		movq	%rax, %rbx
 5166              	.LEHB108:
 5167 23a1 E8000000 		call	_ZStlsISt11char_traitsIcEERSt13basic_ostreamIcT_ES5_PKc
 5167      00
 5168 23a6 4889C7   		movq	%rax, %rdi
 5169 23a9 4889DE   		movq	%rbx, %rsi
 5170 23ac E8000000 		call	_ZStlsISt11char_traitsIcEERSt13basic_ostreamIcT_ES5_PKc
 5170      00
 5171 23b1 488DBC24 		leaq	144(%rsp), %rdi
 5171      90000000 
 5172 23b9 E8000000 		call	_ZNK8UnitTest15MemoryOutStream7GetTextEv
 5172      00
 5173 23be 4889C3   		movq	%rax, %rbx
 5174 23c1 E8000000 		call	_ZN8UnitTest11CurrentTest7ResultsEv
 5174      00
 5175 23c6 488B38   		movq	(%rax), %rdi
 5176 23c9 4889DA   		movq	%rbx, %rdx
 5177 23cc 4C89EE   		movq	%r13, %rsi
 5178 23cf E8000000 		call	_ZN8UnitTest11TestResults13OnTestFailureERKNS_11TestDetailsEPKc
 5178      00
 5179              	.LEHE108:
 5180 23d4 488DBC24 		leaq	144(%rsp), %rdi
 5180      90000000 
 5181              	.LEHB109:
 5182 23dc E8000000 		call	_ZN8UnitTest15MemoryOutStreamD1Ev
 5182      00
 5183              	.LEHE109:
 5184              	.L835:
 5185 23e1 E8000000 		call	__cxa_end_catch
 5185      00
 5186 23e6 E99DFDFF 		jmp	.L733
 5186      FF
 5187              	.L812:
 5188 23eb 4889C3   		movq	%rax, %rbx
 5189 23ee 488B4424 		movq	80(%rsp), %rax
 5189      50
 5190 23f3 4889D5   		movq	%rdx, %rbp
 5191 23f6 488D78E8 		leaq	-24(%rax), %rdi
 5192 23fa 4881FF00 		cmpq	$_ZNSs4_Rep20_S_empty_rep_storageE, %rdi
 5192      000000
 5193 2401 740A     		je	.L737
 5194 2403 488D7424 		leaq	31(%rsp), %rsi
 5194      1F
 5195 2408 E8000000 		call	_ZNSs4_Rep10_M_disposeERKSaIcE.part.1
 5195      00
 5196              	.L737:
 5197 240d 488B4424 		movq	72(%rsp), %rax
 5197      48
 5198 2412 488D78E8 		leaq	-24(%rax), %rdi
 5199 2416 4881FF00 		cmpq	$_ZNSs4_Rep20_S_empty_rep_storageE, %rdi
 5199      000000
 5200 241d 740A     		je	.L739
 5201 241f 488D7424 		leaq	31(%rsp), %rsi
 5201      1F
 5202 2424 E8000000 		call	_ZNSs4_Rep10_M_disposeERKSaIcE.part.1
 5202      00
 5203              	.L739:
 5204 2429 488B4424 		movq	64(%rsp), %rax
 5204      40
 5205 242e 488D78E8 		leaq	-24(%rax), %rdi
 5206 2432 4881FF00 		cmpq	$_ZNSs4_Rep20_S_empty_rep_storageE, %rdi
 5206      000000
 5207 2439 740A     		je	.L741
 5208 243b 488D7424 		leaq	31(%rsp), %rsi
 5208      1F
 5209 2440 E8000000 		call	_ZNSs4_Rep10_M_disposeERKSaIcE.part.1
 5209      00
 5210              	.L741:
 5211 2445 488D7C24 		leaq	40(%rsp), %rdi
 5211      28
 5212 244a 48C74424 		movq	$_ZTVN8UnitTest20DeferredTestReporterE+16, 32(%rsp)
 5212      20000000 
 5212      00
 5213 2453 E8000000 		call	_ZNSt6vectorIN8UnitTest18DeferredTestResultESaIS1_EED1Ev
 5213      00
 5214 2458 488D7C24 		leaq	32(%rsp), %rdi
 5214      20
 5215 245d E8000000 		call	_ZN8UnitTest12TestReporterD2Ev
 5215      00
 5216 2462 4889DF   		movq	%rbx, %rdi
 5217 2465 4889EA   		movq	%rbp, %rdx
 5218 2468 31DB     		xorl	%ebx, %ebx
 5219 246a E9F0FEFF 		jmp	.L742
 5219      FF
 5220              	.L811:
 5221 246f 4889C3   		movq	%rax, %rbx
 5222 2472 4889D5   		movq	%rdx, %rbp
 5223 2475 EB96     		jmp	.L737
 5224              	.L807:
 5225 2477 488DBC24 		leaq	144(%rsp), %rdi
 5225      90000000 
 5226 247f 4889C3   		movq	%rax, %rbx
 5227 2482 E8000000 		call	_ZN8UnitTest15MemoryOutStreamD1Ev
 5227      00
 5228              	.L797:
 5229 2487 E8000000 		call	__cxa_end_catch
 5229      00
 5230 248c 4889DF   		movq	%rbx, %rdi
 5231              	.LEHB110:
 5232 248f E8000000 		call	_Unwind_Resume
 5232      00
 5233              	.LEHE110:
 5234              	.L806:
 5235              	.L836:
 5236 2494 4889C3   		movq	%rax, %rbx
 5237 2497 EBEE     		jmp	.L797
 5238              	.L848:
 5239 2499 E8000000 		call	__cxa_begin_catch
 5239      00
 5240 249e 84DB     		testb	%bl, %bl
 5241 24a0 BA620000 		movl	$98, %edx
 5241      00
 5242 24a5 4C89EE   		movq	%r13, %rsi
 5243 24a8 488D7C24 		leaq	32(%rsp), %rdi
 5243      20
 5244 24ad 0F849400 		je	.L800
 5244      0000
 5245              	.LEHB111:
 5246 24b3 E8000000 		call	_ZN8UnitTest11TestDetailsC1ERKS0_i
 5246      00
 5247 24b8 E8000000 		call	_ZN8UnitTest11CurrentTest7ResultsEv
 5247      00
 5248 24bd 488B38   		movq	(%rax), %rdi
 5249 24c0 488D7424 		leaq	32(%rsp), %rsi
 5249      20
 5250 24c5 BA000000 		movl	$.LC42, %edx
 5250      00
 5251 24ca E8000000 		call	_ZN8UnitTest11TestResults13OnTestFailureERKNS_11TestDetailsEPKc
 5251      00
 5252              	.LEHE111:
 5253              	.L801:
 5254              	.LEHB112:
 5255 24cf E8000000 		call	__cxa_end_catch
 5255      00
 5256              	.LEHE112:
 5257 24d4 E9AFFCFF 		jmp	.L733
 5257      FF
 5258              	.L793:
 5259 24d9 E8000000 		call	__cxa_begin_catch
 5259      00
 5260 24de 4889C3   		movq	%rax, %rbx
 5261 24e1 488B00   		movq	(%rax), %rax
 5262 24e4 4889DF   		movq	%rbx, %rdi
 5263 24e7 FF5010   		call	*16(%rax)
 5264 24ea 4889DF   		movq	%rbx, %rdi
 5265 24ed 4889C5   		movq	%rax, %rbp
 5266              	.LEHB113:
 5267 24f0 E8000000 		call	_ZNK8UnitTest15AssertException10LineNumberEv
 5267      00
 5268 24f5 4889DF   		movq	%rbx, %rdi
 5269 24f8 4189C4   		movl	%eax, %r12d
 5270 24fb E8000000 		call	_ZNK8UnitTest15AssertException8FilenameEv
 5270      00
 5271 2500 488B7424 		movq	8(%rsp), %rsi
 5271      08
 5272 2505 488D7C24 		leaq	32(%rsp), %rdi
 5272      20
 5273 250a 4589E0   		movl	%r12d, %r8d
 5274 250d 4889C1   		movq	%rax, %rcx
 5275 2510 488B5608 		movq	8(%rsi), %rdx
 5276 2514 488B7610 		movq	16(%rsi), %rsi
 5277 2518 E8000000 		call	_ZN8UnitTest11TestDetailsC1EPKcS2_S2_i
 5277      00
 5278 251d E8000000 		call	_ZN8UnitTest11CurrentTest7ResultsEv
 5278      00
 5279 2522 488B38   		movq	(%rax), %rdi
 5280 2525 488D7424 		leaq	32(%rsp), %rsi
 5280      20
 5281 252a 4889EA   		movq	%rbp, %rdx
 5282 252d E8000000 		call	_ZN8UnitTest11TestResults13OnTestFailureERKNS_11TestDetailsEPKc
 5282      00
 5283              	.LEHE113:
 5284 2532 E9AAFEFF 		jmp	.L835
 5284      FF
 5285              	.L808:
 5286 2537 4889C3   		movq	%rax, %rbx
 5287 253a E8000000 		call	__cxa_end_catch
 5287      00
 5288 253f 4889DF   		movq	%rbx, %rdi
 5289              	.LEHB114:
 5290 2542 E8000000 		call	_Unwind_Resume
 5290      00
 5291              	.LEHE114:
 5292              	.L800:
 5293              	.LEHB115:
 5294 2547 E8000000 		call	_ZN8UnitTest11TestDetailsC1ERKS0_i
 5294      00
 5295 254c E8000000 		call	_ZN8UnitTest11CurrentTest7ResultsEv
 5295      00
 5296 2551 488B38   		movq	(%rax), %rdi
 5297 2554 488D7424 		leaq	32(%rsp), %rsi
 5297      20
 5298 2559 BA000000 		movl	$.LC43, %edx
 5298      00
 5299 255e E8000000 		call	_ZN8UnitTest11TestResults13OnTestFailureERKNS_11TestDetailsEPKc
 5299      00
 5300              	.LEHE115:
 5301 2563 E967FFFF 		jmp	.L801
 5301      FF
 5302              	.L805:
 5303 2568 E927FFFF 		jmp	.L836
 5303      FF
 5304              	.L810:
 5305 256d 4889C3   		movq	%rax, %rbx
 5306 2570 4889D5   		movq	%rdx, %rbp
 5307 2573 E9B1FEFF 		jmp	.L739
 5307      FF
 5308              	.L804:
 5309 2578 488D7C24 		leaq	32(%rsp), %rdi
 5309      20
 5310 257d 4889C3   		movq	%rax, %rbx
 5311 2580 4889D5   		movq	%rdx, %rbp
 5312 2583 E8000000 		call	_ZN8UnitTest12_GLOBAL__N_127DeferredTestReporterFixtureD2Ev
 5312      00
 5313 2588 4889DF   		movq	%rbx, %rdi
 5314 258b 4889EA   		movq	%rbp, %rdx
 5315 258e BB010000 		movl	$1, %ebx
 5315      00
 5316 2593 E9C7FDFF 		jmp	.L742
 5316      FF
 5317              	.L846:
 5318 2598 E8000000 		call	__stack_chk_fail
 5318      00
 5319              	.L809:
 5320 259d 4889C3   		movq	%rax, %rbx
 5321 25a0 4889D5   		movq	%rdx, %rbp
 5322 25a3 E99DFEFF 		jmp	.L741
 5322      FF
 5323              		.cfi_endproc
 5324              	.LFE1470:
 5325              		.section	.gcc_except_table
 5326              		.align 4
 5327              	.LLSDA1470:
 5328 02bc FF       		.byte	0xff
 5329 02bd 03       		.byte	0x3
 5330 02be 6D       		.uleb128 .LLSDATT1470-.LLSDATTD1470
 5331              	.LLSDATTD1470:
 5332 02bf 01       		.byte	0x1
 5333 02c0 55       		.uleb128 .LLSDACSE1470-.LLSDACSB1470
 5334              	.LLSDACSB1470:
 5335 02c1 64       		.uleb128 .LEHB101-.LFB1470
 5336 02c2 05       		.uleb128 .LEHE101-.LEHB101
 5337 02c3 AD0C     		.uleb128 .L809-.LFB1470
 5338 02c5 07       		.uleb128 0x7
 5339 02c6 7C       		.uleb128 .LEHB102-.LFB1470
 5340 02c7 05       		.uleb128 .LEHE102-.LEHB102
 5341 02c8 FD0B     		.uleb128 .L810-.LFB1470
 5342 02ca 07       		.uleb128 0x7
 5343 02cb 9401     		.uleb128 .LEHB103-.LFB1470
 5344 02cd 05       		.uleb128 .LEHE103-.LEHB103
 5345 02ce FF09     		.uleb128 .L811-.LFB1470
 5346 02d0 07       		.uleb128 0x7
 5347 02d1 BF01     		.uleb128 .LEHB104-.LFB1470
 5348 02d3 05       		.uleb128 .LEHE104-.LEHB104
 5349 02d4 FB08     		.uleb128 .L812-.LFB1470
 5350 02d6 07       		.uleb128 0x7
 5351 02d7 D401     		.uleb128 .LEHB105-.LFB1470
 5352 02d9 05       		.uleb128 .LEHE105-.LEHB105
 5353 02da 880C     		.uleb128 .L804-.LFB1470
 5354 02dc 07       		.uleb128 0x7
 5355 02dd 9304     		.uleb128 .LEHB106-.LFB1470
 5356 02df 05       		.uleb128 .LEHE106-.LEHB106
 5357 02e0 E707     		.uleb128 .L803-.LFB1470
 5358 02e2 05       		.uleb128 0x5
 5359 02e3 9308     		.uleb128 .LEHB107-.LFB1470
 5360 02e5 05       		.uleb128 .LEHE107-.LEHB107
 5361 02e6 A40A     		.uleb128 .L806-.LFB1470
 5362 02e8 00       		.uleb128 0
 5363 02e9 B108     		.uleb128 .LEHB108-.LFB1470
 5364 02eb 33       		.uleb128 .LEHE108-.LEHB108
 5365 02ec 870A     		.uleb128 .L807-.LFB1470
 5366 02ee 00       		.uleb128 0
 5367 02ef EC08     		.uleb128 .LEHB109-.LFB1470
 5368 02f1 05       		.uleb128 .LEHE109-.LEHB109
 5369 02f2 A40A     		.uleb128 .L806-.LFB1470
 5370 02f4 00       		.uleb128 0
 5371 02f5 9F0A     		.uleb128 .LEHB110-.LFB1470
 5372 02f7 05       		.uleb128 .LEHE110-.LEHB110
 5373 02f8 00       		.uleb128 0
 5374 02f9 00       		.uleb128 0
 5375 02fa C30A     		.uleb128 .LEHB111-.LFB1470
 5376 02fc 1C       		.uleb128 .LEHE111-.LEHB111
 5377 02fd C70B     		.uleb128 .L808-.LFB1470
 5378 02ff 00       		.uleb128 0
 5379 0300 DF0A     		.uleb128 .LEHB112-.LFB1470
 5380 0302 05       		.uleb128 .LEHE112-.LEHB112
 5381 0303 00       		.uleb128 0
 5382 0304 00       		.uleb128 0
 5383 0305 800B     		.uleb128 .LEHB113-.LFB1470
 5384 0307 42       		.uleb128 .LEHE113-.LEHB113
 5385 0308 F80B     		.uleb128 .L805-.LFB1470
 5386 030a 00       		.uleb128 0
 5387 030b D20B     		.uleb128 .LEHB114-.LFB1470
