   1              		.file	"TestDeferredTestReporter.cpp"
   2              		.section	.text.unlikely,"ax",@progbits
   3              		.align 2
   4              	.LCOLDB0:
   5              		.text
   6              	.LHOTB0:
   7              		.align 2
   8              		.p2align 4,,15
  10              	_ZN8UnitTest12_GLOBAL__N_124MockDeferredTestReporter13ReportSummaryEiiif:
  11              	.LFB1389:
  12              		.cfi_startproc
  13 0000 F3C3     		rep ret
  14              		.cfi_endproc
  15              	.LFE1389:
  17              		.section	.text.unlikely
  18              	.LCOLDE0:
  19              		.text
  20              	.LHOTE0:
  21              		.section	.text.unlikely
  22              		.align 2
  23              	.LCOLDB1:
  24              		.text
  25              	.LHOTB1:
  26              		.align 2
  27 0002 0F1F4000 		.p2align 4,,15
  27      662E0F1F 
  27      84000000 
  27      0000
  29              	_ZN8UnitTest12_GLOBAL__N_176TestDeferredTestReporterFixtureDeferredTestReporterTakesCopyOfFailureMe
  30              	.LFB1649:
  31              		.cfi_startproc
  32 0010 48C70700 		movq	$_ZTVN8UnitTest12_GLOBAL__N_176TestDeferredTestReporterFixtureDeferredTestReporterTakesCopyOf
  32      000000
  33 0017 E9000000 		jmp	_ZN8UnitTest4TestD2Ev
  33      00
  34              		.cfi_endproc
  35              	.LFE1649:
  37              		.section	.text.unlikely
  38              	.LCOLDE1:
  39              		.text
  40              	.LHOTE1:
  41              		.set	_ZN8UnitTest12_GLOBAL__N_176TestDeferredTestReporterFixtureDeferredTestReporterTakesCopyOfFai
  42              		.section	.text.unlikely
  43              		.align 2
  44              	.LCOLDB2:
  45              		.text
  46              	.LHOTB2:
  47              		.align 2
  48 001c 0F1F4000 		.p2align 4,,15
  50              	_ZN8UnitTest12_GLOBAL__N_182TestDeferredTestReporterFixtureReportFailureSavesFailureDetailsForMulti
  51              	.LFB1653:
  52              		.cfi_startproc
  53 0020 48C70700 		movq	$_ZTVN8UnitTest12_GLOBAL__N_182TestDeferredTestReporterFixtureReportFailureSavesFailureDetail
  53      000000
  54 0027 E9000000 		jmp	_ZN8UnitTest4TestD2Ev
  54      00
  55              		.cfi_endproc
  56              	.LFE1653:
  58              		.section	.text.unlikely
  59              	.LCOLDE2:
  60              		.text
  61              	.LHOTE2:
  62              		.set	_ZN8UnitTest12_GLOBAL__N_182TestDeferredTestReporterFixtureReportFailureSavesFailureDetailsFo
  63              		.section	.text.unlikely
  64              		.align 2
  65              	.LCOLDB3:
  66              		.text
  67              	.LHOTB3:
  68              		.align 2
  69 002c 0F1F4000 		.p2align 4,,15
  71              	_ZN8UnitTest12_GLOBAL__N_163TestDeferredTestReporterFixtureReportFailureSavesFailureDetailsD2Ev:
  72              	.LFB1657:
  73              		.cfi_startproc
  74 0030 48C70700 		movq	$_ZTVN8UnitTest12_GLOBAL__N_163TestDeferredTestReporterFixtureReportFailureSavesFailureDetail
  74      000000
  75 0037 E9000000 		jmp	_ZN8UnitTest4TestD2Ev
  75      00
  76              		.cfi_endproc
  77              	.LFE1657:
  79              		.section	.text.unlikely
  80              	.LCOLDE3:
  81              		.text
  82              	.LHOTE3:
  83              		.set	_ZN8UnitTest12_GLOBAL__N_163TestDeferredTestReporterFixtureReportFailureSavesFailureDetailsD1
  84              		.section	.text.unlikely
  85              		.align 2
  86              	.LCOLDB4:
  87              		.text
  88              	.LHOTB4:
  89              		.align 2
  90 003c 0F1F4000 		.p2align 4,,15
  92              	_ZN8UnitTest12_GLOBAL__N_160TestDeferredTestReporterFixtureReportTestEndCapturesTestTimeD2Ev:
  93              	.LFB1661:
  94              		.cfi_startproc
  95 0040 48C70700 		movq	$_ZTVN8UnitTest12_GLOBAL__N_160TestDeferredTestReporterFixtureReportTestEndCapturesTestTimeE+
  95      000000
  96 0047 E9000000 		jmp	_ZN8UnitTest4TestD2Ev
  96      00
  97              		.cfi_endproc
  98              	.LFE1661:
 100              		.section	.text.unlikely
 101              	.LCOLDE4:
 102              		.text
 103              	.LHOTE4:
 104              		.set	_ZN8UnitTest12_GLOBAL__N_160TestDeferredTestReporterFixtureReportTestEndCapturesTestTimeD1Ev,
 105              		.section	.text.unlikely
 106              		.align 2
 107              	.LCOLDB5:
 108              		.text
 109              	.LHOTB5:
 110              		.align 2
 111 004c 0F1F4000 		.p2align 4,,15
 113              	_ZN8UnitTest12_GLOBAL__N_170TestDeferredTestReporterFixtureReportTestStartCapturesTestNameAndSuiteD
 114              	.LFB1665:
 115              		.cfi_startproc
 116 0050 48C70700 		movq	$_ZTVN8UnitTest12_GLOBAL__N_170TestDeferredTestReporterFixtureReportTestStartCapturesTestName
 116      000000
 117 0057 E9000000 		jmp	_ZN8UnitTest4TestD2Ev
 117      00
 118              		.cfi_endproc
 119              	.LFE1665:
 121              		.section	.text.unlikely
 122              	.LCOLDE5:
 123              		.text
 124              	.LHOTE5:
 125              		.set	_ZN8UnitTest12_GLOBAL__N_170TestDeferredTestReporterFixtureReportTestStartCapturesTestNameAnd
 126              		.section	.text.unlikely
 127              		.align 2
 128              	.LCOLDB6:
 129              		.text
 130              	.LHOTB6:
 131              		.align 2
 132 005c 0F1F4000 		.p2align 4,,15
 134              	_ZN8UnitTest12_GLOBAL__N_169TestDeferredTestReporterFixtureReportTestStartCreatesANewDeferredTestD2
 135              	.LFB1669:
 136              		.cfi_startproc
 137 0060 48C70700 		movq	$_ZTVN8UnitTest12_GLOBAL__N_169TestDeferredTestReporterFixtureReportTestStartCreatesANewDefer
 137      000000
 138 0067 E9000000 		jmp	_ZN8UnitTest4TestD2Ev
 138      00
 139              		.cfi_endproc
 140              	.LFE1669:
 142              		.section	.text.unlikely
 143              	.LCOLDE6:
 144              		.text
 145              	.LHOTE6:
 146              		.set	_ZN8UnitTest12_GLOBAL__N_169TestDeferredTestReporterFixtureReportTestStartCreatesANewDeferred
 147              		.section	.text.unlikely
 148              		.align 2
 149              	.LCOLDB7:
 150              		.text
 151              	.LHOTB7:
 152              		.align 2
 153 006c 0F1F4000 		.p2align 4,,15
 155              	_ZN8UnitTest12_GLOBAL__N_176TestDeferredTestReporterFixtureDeferredTestReporterTakesCopyOfFailureMe
 156              	.LFB1651:
 157              		.cfi_startproc
 158 0070 53       		pushq	%rbx
 159              		.cfi_def_cfa_offset 16
 160              		.cfi_offset 3, -16
 161 0071 4889FB   		movq	%rdi, %rbx
 162 0074 48C70700 		movq	$_ZTVN8UnitTest12_GLOBAL__N_176TestDeferredTestReporterFixtureDeferredTestReporterTakesCopyOf
 162      000000
 163 007b E8000000 		call	_ZN8UnitTest4TestD2Ev
 163      00
 164 0080 4889DF   		movq	%rbx, %rdi
 165 0083 5B       		popq	%rbx
 166              		.cfi_def_cfa_offset 8
 167 0084 E9000000 		jmp	_ZdlPv
 167      00
 168              		.cfi_endproc
 169              	.LFE1651:
 171              		.section	.text.unlikely
 172              	.LCOLDE7:
 173              		.text
 174              	.LHOTE7:
 175              		.section	.text.unlikely
 176              		.align 2
 177              	.LCOLDB8:
 178              		.text
 179              	.LHOTB8:
 180 0089 90       		.align 2
 181 008a 660F1F44 		.p2align 4,,15
 181      0000
 183              	_ZN8UnitTest12_GLOBAL__N_182TestDeferredTestReporterFixtureReportFailureSavesFailureDetailsForMulti
 184              	.LFB1655:
 185              		.cfi_startproc
 186 0090 53       		pushq	%rbx
 187              		.cfi_def_cfa_offset 16
 188              		.cfi_offset 3, -16
 189 0091 4889FB   		movq	%rdi, %rbx
 190 0094 48C70700 		movq	$_ZTVN8UnitTest12_GLOBAL__N_182TestDeferredTestReporterFixtureReportFailureSavesFailureDetail
 190      000000
 191 009b E8000000 		call	_ZN8UnitTest4TestD2Ev
 191      00
 192 00a0 4889DF   		movq	%rbx, %rdi
 193 00a3 5B       		popq	%rbx
 194              		.cfi_def_cfa_offset 8
 195 00a4 E9000000 		jmp	_ZdlPv
 195      00
 196              		.cfi_endproc
 197              	.LFE1655:
 199              		.section	.text.unlikely
 200              	.LCOLDE8:
 201              		.text
 202              	.LHOTE8:
 203              		.section	.text.unlikely
 204              		.align 2
 205              	.LCOLDB9:
 206              		.text
 207              	.LHOTB9:
 208 00a9 90       		.align 2
 209 00aa 660F1F44 		.p2align 4,,15
 209      0000
 211              	_ZN8UnitTest12_GLOBAL__N_163TestDeferredTestReporterFixtureReportFailureSavesFailureDetailsD0Ev:
 212              	.LFB1659:
 213              		.cfi_startproc
 214 00b0 53       		pushq	%rbx
 215              		.cfi_def_cfa_offset 16
 216              		.cfi_offset 3, -16
 217 00b1 4889FB   		movq	%rdi, %rbx
 218 00b4 48C70700 		movq	$_ZTVN8UnitTest12_GLOBAL__N_163TestDeferredTestReporterFixtureReportFailureSavesFailureDetail
 218      000000
 219 00bb E8000000 		call	_ZN8UnitTest4TestD2Ev
 219      00
 220 00c0 4889DF   		movq	%rbx, %rdi
 221 00c3 5B       		popq	%rbx
 222              		.cfi_def_cfa_offset 8
 223 00c4 E9000000 		jmp	_ZdlPv
 223      00
 224              		.cfi_endproc
 225              	.LFE1659:
 227              		.section	.text.unlikely
 228              	.LCOLDE9:
 229              		.text
 230              	.LHOTE9:
 231              		.section	.text.unlikely
 232              		.align 2
 233              	.LCOLDB10:
 234              		.text
 235              	.LHOTB10:
 236 00c9 90       		.align 2
 237 00ca 660F1F44 		.p2align 4,,15
 237      0000
 239              	_ZN8UnitTest12_GLOBAL__N_160TestDeferredTestReporterFixtureReportTestEndCapturesTestTimeD0Ev:
 240              	.LFB1663:
 241              		.cfi_startproc
 242 00d0 53       		pushq	%rbx
 243              		.cfi_def_cfa_offset 16
 244              		.cfi_offset 3, -16
 245 00d1 4889FB   		movq	%rdi, %rbx
 246 00d4 48C70700 		movq	$_ZTVN8UnitTest12_GLOBAL__N_160TestDeferredTestReporterFixtureReportTestEndCapturesTestTimeE+
 246      000000
 247 00db E8000000 		call	_ZN8UnitTest4TestD2Ev
 247      00
 248 00e0 4889DF   		movq	%rbx, %rdi
 249 00e3 5B       		popq	%rbx
 250              		.cfi_def_cfa_offset 8
 251 00e4 E9000000 		jmp	_ZdlPv
 251      00
 252              		.cfi_endproc
 253              	.LFE1663:
 255              		.section	.text.unlikely
 256              	.LCOLDE10:
 257              		.text
 258              	.LHOTE10:
 259              		.section	.text.unlikely
 260              		.align 2
 261              	.LCOLDB11:
 262              		.text
 263              	.LHOTB11:
 264 00e9 90       		.align 2
 265 00ea 660F1F44 		.p2align 4,,15
 265      0000
 267              	_ZN8UnitTest12_GLOBAL__N_170TestDeferredTestReporterFixtureReportTestStartCapturesTestNameAndSuiteD
 268              	.LFB1667:
 269              		.cfi_startproc
 270 00f0 53       		pushq	%rbx
 271              		.cfi_def_cfa_offset 16
 272              		.cfi_offset 3, -16
 273 00f1 4889FB   		movq	%rdi, %rbx
 274 00f4 48C70700 		movq	$_ZTVN8UnitTest12_GLOBAL__N_170TestDeferredTestReporterFixtureReportTestStartCapturesTestName
 274      000000
 275 00fb E8000000 		call	_ZN8UnitTest4TestD2Ev
 275      00
 276 0100 4889DF   		movq	%rbx, %rdi
 277 0103 5B       		popq	%rbx
 278              		.cfi_def_cfa_offset 8
 279 0104 E9000000 		jmp	_ZdlPv
 279      00
 280              		.cfi_endproc
 281              	.LFE1667:
 283              		.section	.text.unlikely
 284              	.LCOLDE11:
 285              		.text
 286              	.LHOTE11:
 287              		.section	.text.unlikely
 288              		.align 2
 289              	.LCOLDB12:
 290              		.text
 291              	.LHOTB12:
 292 0109 90       		.align 2
 293 010a 660F1F44 		.p2align 4,,15
 293      0000
 295              	_ZN8UnitTest12_GLOBAL__N_169TestDeferredTestReporterFixtureReportTestStartCreatesANewDeferredTestD0
 296              	.LFB1671:
 297              		.cfi_startproc
 298 0110 53       		pushq	%rbx
 299              		.cfi_def_cfa_offset 16
 300              		.cfi_offset 3, -16
 301 0111 4889FB   		movq	%rdi, %rbx
 302 0114 48C70700 		movq	$_ZTVN8UnitTest12_GLOBAL__N_169TestDeferredTestReporterFixtureReportTestStartCreatesANewDefer
 302      000000
 303 011b E8000000 		call	_ZN8UnitTest4TestD2Ev
 303      00
 304 0120 4889DF   		movq	%rbx, %rdi
 305 0123 5B       		popq	%rbx
 306              		.cfi_def_cfa_offset 8
 307 0124 E9000000 		jmp	_ZdlPv
 307      00
 308              		.cfi_endproc
 309              	.LFE1671:
 311              		.section	.text.unlikely
 312              	.LCOLDE12:
 313              		.text
 314              	.LHOTE12:
 315              		.section	.text.unlikely
 316              		.align 2
 317              	.LCOLDB13:
 318              	.LHOTB13:
 319              		.align 2
 321              	_ZNSs4_Rep10_M_disposeERKSaIcE.part.1:
 322              	.LFB1683:
 323              		.cfi_startproc
 324 0000 B8000000 		movl	$_ZL28__gthrw___pthread_key_createPjPFvPvE, %eax
 324      00
 325 0005 4885C0   		testq	%rax, %rax
 326 0008 740A     		je	.L21
 327 000a 83C8FF   		orl	$-1, %eax
 328 000d F00FC147 		lock xaddl	%eax, 16(%rdi)
 328      10
 329 0012 EB09     		jmp	.L22
 330              	.L21:
 331 0014 8B4710   		movl	16(%rdi), %eax
 332 0017 8D50FF   		leal	-1(%rax), %edx
 333 001a 895710   		movl	%edx, 16(%rdi)
 334              	.L22:
 335 001d 85C0     		testl	%eax, %eax
 336 001f 7F05     		jg	.L20
 337 0021 E9000000 		jmp	_ZNSs4_Rep10_M_destroyERKSaIcE
 337      00
 338              	.L20:
 339 0026 C3       		ret
 340              		.cfi_endproc
 341              	.LFE1683:
 343              	.LCOLDE13:
 344              	.LHOTE13:
 345              		.section	.text.unlikely._ZN8UnitTest15MemoryOutStreamD1Ev,"axG",@progbits,_ZN8UnitTest15MemoryOutS
 346              		.align 2
 347              	.LCOLDB14:
 348              		.section	.text._ZN8UnitTest15MemoryOutStreamD1Ev,"axG",@progbits,_ZN8UnitTest15MemoryOutStreamD1Ev
 349              	.LHOTB14:
 350              		.align 2
 351              		.p2align 4,,15
 352              		.weak	_ZN8UnitTest15MemoryOutStreamD1Ev
 354              	_ZN8UnitTest15MemoryOutStreamD1Ev:
 355              	.LFB1678:
 356              		.cfi_startproc
 357 0000 53       		pushq	%rbx
 358              		.cfi_def_cfa_offset 16
 359              		.cfi_offset 3, -16
 360 0001 4889FB   		movq	%rdi, %rbx
 361 0004 4883EC10 		subq	$16, %rsp
 362              		.cfi_def_cfa_offset 32
 363 0008 48C70700 		movq	$_ZTVN8UnitTest15MemoryOutStreamE+24, (%rdi)
 363      000000
 364 000f 48C74760 		movq	$_ZTVN8UnitTest15MemoryOutStreamE+64, 96(%rdi)
 364      00000000 
 365 0017 64488B04 		movq	%fs:40, %rax
 365      25280000 
 365      00
 366 0020 48894424 		movq	%rax, 8(%rsp)
 366      08
 367 0025 31C0     		xorl	%eax, %eax
 368 0027 488B4758 		movq	88(%rdi), %rax
 369 002b 488D78E8 		leaq	-24(%rax), %rdi
 370 002f 4881FF00 		cmpq	$_ZNSs4_Rep20_S_empty_rep_storageE, %rdi
 370      000000
 371 0036 7568     		jne	.L38
 372              	.L27:
 373 0038 488B4350 		movq	80(%rbx), %rax
 374 003c 48C70300 		movq	$_ZTCN8UnitTest15MemoryOutStreamE0_St19basic_ostringstreamIcSt11char_traitsIcESaIcEE+24, (%rb
 374      000000
 375 0043 48C74360 		movq	$_ZTCN8UnitTest15MemoryOutStreamE0_St19basic_ostringstreamIcSt11char_traitsIcESaIcEE+64, 96(%
 375      00000000 
 376 004b 48C74308 		movq	$_ZTVSt15basic_stringbufIcSt11char_traitsIcESaIcEE+16, 8(%rbx)
 376      00000000 
 377 0053 488D78E8 		leaq	-24(%rax), %rdi
 378 0057 4881FF00 		cmpq	$_ZNSs4_Rep20_S_empty_rep_storageE, %rdi
 378      000000
 379 005e 7570     		jne	.L39
 380              	.L32:
 381 0060 488D7B40 		leaq	64(%rbx), %rdi
 382 0064 48C74308 		movq	$_ZTVSt15basic_streambufIcSt11char_traitsIcEE+16, 8(%rbx)
 382      00000000 
 383 006c E8000000 		call	_ZNSt6localeD1Ev
 383      00
 384 0071 488D7B60 		leaq	96(%rbx), %rdi
 385 0075 48C74360 		movq	$_ZTVSt9basic_iosIcSt11char_traitsIcEE+16, 96(%rbx)
 385      00000000 
 386 007d E8000000 		call	_ZNSt8ios_baseD2Ev
 386      00
 387 0082 488B4424 		movq	8(%rsp), %rax
 387      08
 388 0087 64483304 		xorq	%fs:40, %rax
 388      25280000 
 388      00
 389 0090 0F858700 		jne	.L40
 389      0000
 390 0096 4883C410 		addq	$16, %rsp
 391              		.cfi_remember_state
 392              		.cfi_def_cfa_offset 16
 393 009a 5B       		popq	%rbx
 394              		.cfi_def_cfa_offset 8
 395 009b C3       		ret
 396 009c 0F1F4000 		.p2align 4,,10
 397              		.p2align 3
 398              	.L38:
 399              		.cfi_restore_state
 400 00a0 BA000000 		movl	$_ZL28__gthrw___pthread_key_createPjPFvPvE, %edx
 400      00
 401 00a5 4885D2   		testq	%rdx, %rdx
 402 00a8 7466     		je	.L28
 403 00aa BAFFFFFF 		movl	$-1, %edx
 403      FF
 404 00af F00FC150 		lock xaddl	%edx, -8(%rax)
 404      F8
 405 00b4 89D0     		movl	%edx, %eax
 406              	.L29:
 407 00b6 85C0     		testl	%eax, %eax
 408 00b8 0F8F7AFF 		jg	.L27
 408      FFFF
 409 00be 488D7424 		leaq	7(%rsp), %rsi
 409      07
 410 00c3 E8000000 		call	_ZNSs4_Rep10_M_destroyERKSaIcE
 410      00
 411 00c8 E96BFFFF 		jmp	.L27
 411      FF
 412 00cd 0F1F00   		.p2align 4,,10
 413              		.p2align 3
 414              	.L39:
 415 00d0 BA000000 		movl	$_ZL28__gthrw___pthread_key_createPjPFvPvE, %edx
 415      00
 416 00d5 4885D2   		testq	%rdx, %rdx
 417 00d8 7426     		je	.L33
 418 00da BAFFFFFF 		movl	$-1, %edx
 418      FF
 419 00df F00FC150 		lock xaddl	%edx, -8(%rax)
 419      F8
 420 00e4 89D0     		movl	%edx, %eax
 421              	.L34:
 422 00e6 85C0     		testl	%eax, %eax
 423 00e8 0F8F72FF 		jg	.L32
 423      FFFF
 424 00ee 488D7424 		leaq	7(%rsp), %rsi
 424      07
 425 00f3 E8000000 		call	_ZNSs4_Rep10_M_destroyERKSaIcE
 425      00
 426 00f8 E963FFFF 		jmp	.L32
 426      FF
 427 00fd 0F1F00   		.p2align 4,,10
 428              		.p2align 3
 429              	.L33:
 430 0100 8B50F8   		movl	-8(%rax), %edx
 431 0103 8D4AFF   		leal	-1(%rdx), %ecx
 432 0106 8948F8   		movl	%ecx, -8(%rax)
 433 0109 89D0     		movl	%edx, %eax
 434 010b EBD9     		jmp	.L34
 435 010d 0F1F00   		.p2align 4,,10
 436              		.p2align 3
 437              	.L28:
 438 0110 8B50F8   		movl	-8(%rax), %edx
 439 0113 8D4AFF   		leal	-1(%rdx), %ecx
 440 0116 8948F8   		movl	%ecx, -8(%rax)
 441 0119 89D0     		movl	%edx, %eax
 442 011b EB99     		jmp	.L29
 443              	.L40:
 444 011d E8000000 		call	__stack_chk_fail
 444      00
 445              		.cfi_endproc
 446              	.LFE1678:
 448              		.section	.text.unlikely._ZN8UnitTest15MemoryOutStreamD1Ev,"axG",@progbits,_ZN8UnitTest15MemoryOutS
 449              	.LCOLDE14:
 450              		.section	.text._ZN8UnitTest15MemoryOutStreamD1Ev,"axG",@progbits,_ZN8UnitTest15MemoryOutStreamD1Ev
 451              	.LHOTE14:
 452              		.set	.LTHUNK0,_ZN8UnitTest15MemoryOutStreamD1Ev
 453              	.LCOLDB15:
 454              	.LHOTB15:
 455 0122 0F1F4000 		.p2align 4,,15
 455      662E0F1F 
 455      84000000 
 455      0000
 456              		.weak	_ZTv0_n24_N8UnitTest15MemoryOutStreamD1Ev
 458              	_ZTv0_n24_N8UnitTest15MemoryOutStreamD1Ev:
 459              	.LFB1707:
 460              		.cfi_startproc
 461 0130 4C8B17   		movq	(%rdi), %r10
 462 0133 49037AE8 		addq	-24(%r10), %rdi
 463 0137 E9C4FEFF 		jmp	.LTHUNK0
 463      FF
 464              		.cfi_endproc
 465              	.LFE1707:
 467              	.LCOLDE15:
 468              	.LHOTE15:
 469              		.section	.text.unlikely._ZN8UnitTest15MemoryOutStreamD0Ev,"axG",@progbits,_ZN8UnitTest15MemoryOutS
 470              		.align 2
 471              	.LCOLDB16:
 472              		.section	.text._ZN8UnitTest15MemoryOutStreamD0Ev,"axG",@progbits,_ZN8UnitTest15MemoryOutStreamD0Ev
 473              	.LHOTB16:
 474              		.align 2
 475              		.p2align 4,,15
 476              		.weak	_ZN8UnitTest15MemoryOutStreamD0Ev
 478              	_ZN8UnitTest15MemoryOutStreamD0Ev:
 479              	.LFB1679:
 480              		.cfi_startproc
 481 0000 53       		pushq	%rbx
 482              		.cfi_def_cfa_offset 16
 483              		.cfi_offset 3, -16
 484 0001 4889FB   		movq	%rdi, %rbx
 485 0004 4883EC10 		subq	$16, %rsp
 486              		.cfi_def_cfa_offset 32
 487 0008 48C70700 		movq	$_ZTVN8UnitTest15MemoryOutStreamE+24, (%rdi)
 487      000000
 488 000f 48C74760 		movq	$_ZTVN8UnitTest15MemoryOutStreamE+64, 96(%rdi)
 488      00000000 
 489 0017 64488B04 		movq	%fs:40, %rax
 489      25280000 
 489      00
 490 0020 48894424 		movq	%rax, 8(%rsp)
 490      08
 491 0025 31C0     		xorl	%eax, %eax
 492 0027 488B4758 		movq	88(%rdi), %rax
 493 002b 488D78E8 		leaq	-24(%rax), %rdi
 494 002f 4881FF00 		cmpq	$_ZNSs4_Rep20_S_empty_rep_storageE, %rdi
 494      000000
 495 0036 7570     		jne	.L54
 496              	.L43:
 497 0038 488B4350 		movq	80(%rbx), %rax
 498 003c 48C70300 		movq	$_ZTCN8UnitTest15MemoryOutStreamE0_St19basic_ostringstreamIcSt11char_traitsIcESaIcEE+24, (%rb
 498      000000
 499 0043 48C74360 		movq	$_ZTCN8UnitTest15MemoryOutStreamE0_St19basic_ostringstreamIcSt11char_traitsIcESaIcEE+64, 96(%
 499      00000000 
 500 004b 48C74308 		movq	$_ZTVSt15basic_stringbufIcSt11char_traitsIcESaIcEE+16, 8(%rbx)
 500      00000000 
 501 0053 488D78E8 		leaq	-24(%rax), %rdi
 502 0057 4881FF00 		cmpq	$_ZNSs4_Rep20_S_empty_rep_storageE, %rdi
 502      000000
 503 005e 7578     		jne	.L55
 504              	.L48:
 505 0060 488D7B40 		leaq	64(%rbx), %rdi
 506 0064 48C74308 		movq	$_ZTVSt15basic_streambufIcSt11char_traitsIcEE+16, 8(%rbx)
 506      00000000 
 507 006c E8000000 		call	_ZNSt6localeD1Ev
 507      00
 508 0071 488D7B60 		leaq	96(%rbx), %rdi
 509 0075 48C74360 		movq	$_ZTVSt9basic_iosIcSt11char_traitsIcEE+16, 96(%rbx)
 509      00000000 
 510 007d E8000000 		call	_ZNSt8ios_baseD2Ev
 510      00
 511 0082 4889DF   		movq	%rbx, %rdi
 512 0085 E8000000 		call	_ZdlPv
 512      00
 513 008a 488B4424 		movq	8(%rsp), %rax
 513      08
 514 008f 64483304 		xorq	%fs:40, %rax
 514      25280000 
 514      00
 515 0098 0F858700 		jne	.L56
 515      0000
 516 009e 4883C410 		addq	$16, %rsp
 517              		.cfi_remember_state
 518              		.cfi_def_cfa_offset 16
 519 00a2 5B       		popq	%rbx
 520              		.cfi_def_cfa_offset 8
 521 00a3 C3       		ret
 522              		.p2align 4,,10
 523 00a4 0F1F4000 		.p2align 3
 524              	.L54:
 525              		.cfi_restore_state
 526 00a8 BA000000 		movl	$_ZL28__gthrw___pthread_key_createPjPFvPvE, %edx
 526      00
 527 00ad 4885D2   		testq	%rdx, %rdx
 528 00b0 7466     		je	.L44
 529 00b2 BAFFFFFF 		movl	$-1, %edx
 529      FF
 530 00b7 F00FC150 		lock xaddl	%edx, -8(%rax)
 530      F8
 531 00bc 89D0     		movl	%edx, %eax
 532              	.L45:
 533 00be 85C0     		testl	%eax, %eax
 534 00c0 0F8F72FF 		jg	.L43
 534      FFFF
 535 00c6 488D7424 		leaq	7(%rsp), %rsi
 535      07
 536 00cb E8000000 		call	_ZNSs4_Rep10_M_destroyERKSaIcE
 536      00
 537 00d0 E963FFFF 		jmp	.L43
 537      FF
 538              		.p2align 4,,10
 539 00d5 0F1F00   		.p2align 3
 540              	.L55:
 541 00d8 BA000000 		movl	$_ZL28__gthrw___pthread_key_createPjPFvPvE, %edx
 541      00
 542 00dd 4885D2   		testq	%rdx, %rdx
 543 00e0 7426     		je	.L49
 544 00e2 BAFFFFFF 		movl	$-1, %edx
 544      FF
 545 00e7 F00FC150 		lock xaddl	%edx, -8(%rax)
 545      F8
 546 00ec 89D0     		movl	%edx, %eax
 547              	.L50:
 548 00ee 85C0     		testl	%eax, %eax
 549 00f0 0F8F6AFF 		jg	.L48
 549      FFFF
 550 00f6 488D7424 		leaq	7(%rsp), %rsi
 550      07
 551 00fb E8000000 		call	_ZNSs4_Rep10_M_destroyERKSaIcE
 551      00
 552 0100 E95BFFFF 		jmp	.L48
 552      FF
 553              		.p2align 4,,10
 554 0105 0F1F00   		.p2align 3
 555              	.L49:
 556 0108 8B50F8   		movl	-8(%rax), %edx
 557 010b 8D4AFF   		leal	-1(%rdx), %ecx
 558 010e 8948F8   		movl	%ecx, -8(%rax)
 559 0111 89D0     		movl	%edx, %eax
 560 0113 EBD9     		jmp	.L50
 561              		.p2align 4,,10
 562 0115 0F1F00   		.p2align 3
 563              	.L44:
 564 0118 8B50F8   		movl	-8(%rax), %edx
 565 011b 8D4AFF   		leal	-1(%rdx), %ecx
 566 011e 8948F8   		movl	%ecx, -8(%rax)
 567 0121 89D0     		movl	%edx, %eax
 568 0123 EB99     		jmp	.L45
 569              	.L56:
 570 0125 E8000000 		call	__stack_chk_fail
 570      00
 571              		.cfi_endproc
 572              	.LFE1679:
 574              		.section	.text.unlikely._ZN8UnitTest15MemoryOutStreamD0Ev,"axG",@progbits,_ZN8UnitTest15MemoryOutS
 575              	.LCOLDE16:
 576              		.section	.text._ZN8UnitTest15MemoryOutStreamD0Ev,"axG",@progbits,_ZN8UnitTest15MemoryOutStreamD0Ev
 577              	.LHOTE16:
 578              		.set	.LTHUNK1,_ZN8UnitTest15MemoryOutStreamD0Ev
 579              	.LCOLDB17:
 580              	.LHOTB17:
 581 012a 660F1F44 		.p2align 4,,15
 581      0000
 582              		.weak	_ZTv0_n24_N8UnitTest15MemoryOutStreamD0Ev
 584              	_ZTv0_n24_N8UnitTest15MemoryOutStreamD0Ev:
 585              	.LFB1708:
 586              		.cfi_startproc
 587 0130 4C8B17   		movq	(%rdi), %r10
 588 0133 49037AE8 		addq	-24(%r10), %rdi
 589 0137 E9C4FEFF 		jmp	.LTHUNK1
 589      FF
 590              		.cfi_endproc
 591              	.LFE1708:
 593              	.LCOLDE17:
 594              	.LHOTE17:
 595              		.section	.text.unlikely
 596 0027 90       		.align 2
 597              	.LCOLDB18:
 598              		.text
 599              	.LHOTB18:
 600 0129 90       		.align 2
 601 012a 660F1F44 		.p2align 4,,15
 601      0000
 603              	_ZN8UnitTest12_GLOBAL__N_124MockDeferredTestReporterD2Ev:
 604              	.LFB1673:
 605              		.cfi_startproc
 606 0130 4156     		pushq	%r14
 607              		.cfi_def_cfa_offset 16
 608              		.cfi_offset 14, -16
 609 0132 4155     		pushq	%r13
 610              		.cfi_def_cfa_offset 24
 611              		.cfi_offset 13, -24
 612 0134 4989FD   		movq	%rdi, %r13
 613 0137 4154     		pushq	%r12
 614              		.cfi_def_cfa_offset 32
 615              		.cfi_offset 12, -32
 616 0139 55       		pushq	%rbp
 617              		.cfi_def_cfa_offset 40
 618              		.cfi_offset 6, -40
 619 013a 53       		pushq	%rbx
 620              		.cfi_def_cfa_offset 48
 621              		.cfi_offset 3, -48
 622 013b 4883EC10 		subq	$16, %rsp
 623              		.cfi_def_cfa_offset 64
 624 013f 4C8B6710 		movq	16(%rdi), %r12
 625 0143 4C8B7708 		movq	8(%rdi), %r14
 626 0147 64488B04 		movq	%fs:40, %rax
 626      25280000 
 626      00
 627 0150 48894424 		movq	%rax, 8(%rsp)
 627      08
 628 0155 31C0     		xorl	%eax, %eax
 629 0157 48C70700 		movq	$_ZTVN8UnitTest20DeferredTestReporterE+16, (%rdi)
 629      000000
 630 015e 4D39F4   		cmpq	%r14, %r12
 631 0161 0F84C900 		je	.L58
 631      0000
 632 0167 660F1F84 		.p2align 4,,10
 632      00000000 
 632      00
 633              		.p2align 3
 634              	.L87:
 635 0170 498B6E20 		movq	32(%r14), %rbp
 636 0174 498B5E18 		movq	24(%r14), %rbx
 637 0178 4839DD   		cmpq	%rbx, %rbp
 638 017b 7457     		je	.L59
 639 017d B8000000 		movl	$_ZL28__gthrw___pthread_key_createPjPFvPvE, %eax
 639      00
 640 0182 4885C0   		testq	%rax, %rax
 641 0185 7512     		jne	.L94
 642 0187 E9110100 		jmp	.L65
 642      00
 643 018c 0F1F4000 		.p2align 4,,10
 644              		.p2align 3
 645              	.L68:
 646 0190 4883C310 		addq	$16, %rbx
 647 0194 4839DD   		cmpq	%rbx, %rbp
 648 0197 7437     		je	.L66
 649              	.L94:
 650 0199 488B4308 		movq	8(%rbx), %rax
 651 019d 488D78E8 		leaq	-24(%rax), %rdi
 652 01a1 4881FF00 		cmpq	$_ZNSs4_Rep20_S_empty_rep_storageE, %rdi
 652      000000
 653 01a8 74E6     		je	.L68
 654 01aa B9FFFFFF 		movl	$-1, %ecx
 654      FF
 655 01af F00FC148 		lock xaddl	%ecx, -8(%rax)
 655      F8
 656 01b4 85C9     		testl	%ecx, %ecx
 657 01b6 7FD8     		jg	.L68
 658 01b8 488D7424 		leaq	7(%rsp), %rsi
 658      07
 659 01bd 4883C310 		addq	$16, %rbx
 660 01c1 E8000000 		call	_ZNSs4_Rep10_M_destroyERKSaIcE
 660      00
 661 01c6 4839DD   		cmpq	%rbx, %rbp
 662 01c9 75CE     		jne	.L94
 663 01cb 0F1F4400 		.p2align 4,,10
 663      00
 664              		.p2align 3
 665              	.L66:
 666 01d0 498B6E18 		movq	24(%r14), %rbp
 667              	.L59:
 668 01d4 4885ED   		testq	%rbp, %rbp
 669 01d7 7408     		je	.L71
 670 01d9 4889EF   		movq	%rbp, %rdi
 671 01dc E8000000 		call	_ZdlPv
 671      00
 672              	.L71:
 673 01e1 498B4610 		movq	16(%r14), %rax
 674 01e5 488D78E8 		leaq	-24(%rax), %rdi
 675 01e9 4881FF00 		cmpq	$_ZNSs4_Rep20_S_empty_rep_storageE, %rdi
 675      000000
 676 01f0 0F852201 		jne	.L102
 676      0000
 677              	.L73:
 678 01f6 498B4608 		movq	8(%r14), %rax
 679 01fa 488D78E8 		leaq	-24(%rax), %rdi
 680 01fe 4881FF00 		cmpq	$_ZNSs4_Rep20_S_empty_rep_storageE, %rdi
 680      000000
 681 0205 0F85DD00 		jne	.L103
 681      0000
 682              	.L78:
 683 020b 498B06   		movq	(%r14), %rax
 684 020e 488D78E8 		leaq	-24(%rax), %rdi
 685 0212 4881FF00 		cmpq	$_ZNSs4_Rep20_S_empty_rep_storageE, %rdi
 685      000000
 686 0219 0F859100 		jne	.L104
 686      0000
 687              	.L83:
 688 021f 4983C638 		addq	$56, %r14
 689 0223 4D39F4   		cmpq	%r14, %r12
 690 0226 0F8544FF 		jne	.L87
 690      FFFF
 691 022c 4D8B6508 		movq	8(%r13), %r12
 692              	.L58:
 693 0230 4D85E4   		testq	%r12, %r12
 694 0233 7408     		je	.L88
 695 0235 4C89E7   		movq	%r12, %rdi
 696 0238 E8000000 		call	_ZdlPv
 696      00
 697              	.L88:
 698 023d 4C89EF   		movq	%r13, %rdi
 699 0240 E8000000 		call	_ZN8UnitTest12TestReporterD2Ev
 699      00
 700 0245 488B4424 		movq	8(%rsp), %rax
 700      08
 701 024a 64483304 		xorq	%fs:40, %rax
 701      25280000 
 701      00
 702 0253 0F851601 		jne	.L105
 702      0000
 703 0259 4883C410 		addq	$16, %rsp
 704              		.cfi_remember_state
 705              		.cfi_def_cfa_offset 48
 706 025d 5B       		popq	%rbx
 707              		.cfi_def_cfa_offset 40
 708 025e 5D       		popq	%rbp
 709              		.cfi_def_cfa_offset 32
 710 025f 415C     		popq	%r12
 711              		.cfi_def_cfa_offset 24
 712 0261 415D     		popq	%r13
 713              		.cfi_def_cfa_offset 16
 714 0263 415E     		popq	%r14
 715              		.cfi_def_cfa_offset 8
 716 0265 C3       		ret
 717 0266 662E0F1F 		.p2align 4,,10
 717      84000000 
 717      0000
 718              		.p2align 3
 719              	.L106:
 720              		.cfi_restore_state
 721 0270 8B50F8   		movl	-8(%rax), %edx
 722 0273 8D4AFF   		leal	-1(%rdx), %ecx
 723 0276 85D2     		testl	%edx, %edx
 724 0278 8948F8   		movl	%ecx, -8(%rax)
 725 027b 7F13     		jg	.L63
 726 027d 488D7424 		leaq	7(%rsp), %rsi
 726      07
 727 0282 E8000000 		call	_ZNSs4_Rep10_M_destroyERKSaIcE
 727      00
 728 0287 660F1F84 		.p2align 4,,10
 728      00000000 
 728      00
 729              		.p2align 3
 730              	.L63:
 731 0290 4883C310 		addq	$16, %rbx
 732 0294 4839DD   		cmpq	%rbx, %rbp
 733 0297 0F8433FF 		je	.L66
 733      FFFF
 734              	.L65:
 735 029d 488B4308 		movq	8(%rbx), %rax
 736 02a1 488D78E8 		leaq	-24(%rax), %rdi
 737 02a5 4881FF00 		cmpq	$_ZNSs4_Rep20_S_empty_rep_storageE, %rdi
 737      000000
 738 02ac 74E2     		je	.L63
 739 02ae EBC0     		jmp	.L106
 740              		.p2align 4,,10
 741              		.p2align 3
 742              	.L104:
 743 02b0 BA000000 		movl	$_ZL28__gthrw___pthread_key_createPjPFvPvE, %edx
 743      00
 744 02b5 4885D2   		testq	%rdx, %rdx
 745 02b8 0F84A100 		je	.L84
 745      0000
 746 02be BAFFFFFF 		movl	$-1, %edx
 746      FF
 747 02c3 F00FC150 		lock xaddl	%edx, -8(%rax)
 747      F8
 748 02c8 89D0     		movl	%edx, %eax
 749              	.L85:
 750 02ca 85C0     		testl	%eax, %eax
 751 02cc 0F8F4DFF 		jg	.L83
 751      FFFF
 752 02d2 488D7424 		leaq	7(%rsp), %rsi
 752      07
 753 02d7 E8000000 		call	_ZNSs4_Rep10_M_destroyERKSaIcE
 753      00
 754 02dc E93EFFFF 		jmp	.L83
 754      FF
 755              		.p2align 4,,10
 756 02e1 0F1F8000 		.p2align 3
 756      000000
 757              	.L103:
 758 02e8 BA000000 		movl	$_ZL28__gthrw___pthread_key_createPjPFvPvE, %edx
 758      00
 759 02ed 4885D2   		testq	%rdx, %rdx
 760 02f0 7460     		je	.L79
 761 02f2 BAFFFFFF 		movl	$-1, %edx
 761      FF
 762 02f7 F00FC150 		lock xaddl	%edx, -8(%rax)
 762      F8
 763 02fc 89D0     		movl	%edx, %eax
 764              	.L80:
 765 02fe 85C0     		testl	%eax, %eax
 766 0300 0F8F05FF 		jg	.L78
 766      FFFF
 767 0306 488D7424 		leaq	7(%rsp), %rsi
 767      07
 768 030b E8000000 		call	_ZNSs4_Rep10_M_destroyERKSaIcE
 768      00
 769 0310 E9F6FEFF 		jmp	.L78
 769      FF
 770              		.p2align 4,,10
 771 0315 0F1F00   		.p2align 3
 772              	.L102:
 773 0318 BA000000 		movl	$_ZL28__gthrw___pthread_key_createPjPFvPvE, %edx
 773      00
 774 031d 4885D2   		testq	%rdx, %rdx
 775 0320 7423     		je	.L74
 776 0322 BAFFFFFF 		movl	$-1, %edx
 776      FF
 777 0327 F00FC150 		lock xaddl	%edx, -8(%rax)
 777      F8
 778 032c 89D0     		movl	%edx, %eax
 779              	.L75:
 780 032e 85C0     		testl	%eax, %eax
 781 0330 0F8FC0FE 		jg	.L73
 781      FFFF
 782 0336 488D7424 		leaq	7(%rsp), %rsi
 782      07
 783 033b E8000000 		call	_ZNSs4_Rep10_M_destroyERKSaIcE
 783      00
 784 0340 E9B1FEFF 		jmp	.L73
 784      FF
 785              	.L74:
 786 0345 8B50F8   		movl	-8(%rax), %edx
 787 0348 8D4AFF   		leal	-1(%rdx), %ecx
 788 034b 8948F8   		movl	%ecx, -8(%rax)
 789 034e 89D0     		movl	%edx, %eax
 790 0350 EBDC     		jmp	.L75
 791              	.L79:
 792 0352 8B50F8   		movl	-8(%rax), %edx
 793 0355 8D4AFF   		leal	-1(%rdx), %ecx
 794 0358 8948F8   		movl	%ecx, -8(%rax)
 795 035b 89D0     		movl	%edx, %eax
 796 035d EB9F     		jmp	.L80
 797              	.L84:
 798 035f 8B50F8   		movl	-8(%rax), %edx
 799 0362 8D4AFF   		leal	-1(%rdx), %ecx
 800 0365 8948F8   		movl	%ecx, -8(%rax)
 801 0368 89D0     		movl	%edx, %eax
 802 036a E95BFFFF 		jmp	.L85
 802      FF
 803              	.L105:
 804 036f E8000000 		call	__stack_chk_fail
 804      00
 805              		.cfi_endproc
 806              	.LFE1673:
 808              		.section	.text.unlikely
 809              	.LCOLDE18:
 810              		.text
 811              	.LHOTE18:
 812              		.set	_ZN8UnitTest12_GLOBAL__N_124MockDeferredTestReporterD1Ev,_ZN8UnitTest12_GLOBAL__N_124MockDefe
 813              		.section	.text.unlikely
 814              		.align 2
 815              	.LCOLDB19:
 816              		.text
 817              	.LHOTB19:
 818              		.align 2
 819 0374 6690662E 		.p2align 4,,15
 819      0F1F8400 
 819      00000000 
 821              	_ZN8UnitTest12_GLOBAL__N_124MockDeferredTestReporterD0Ev:
 822              	.LFB1675:
 823              		.cfi_startproc
 824 0380 4156     		pushq	%r14
 825              		.cfi_def_cfa_offset 16
 826              		.cfi_offset 14, -16
 827 0382 4155     		pushq	%r13
 828              		.cfi_def_cfa_offset 24
 829              		.cfi_offset 13, -24
 830 0384 4989FD   		movq	%rdi, %r13
 831 0387 4154     		pushq	%r12
 832              		.cfi_def_cfa_offset 32
 833              		.cfi_offset 12, -32
 834 0389 55       		pushq	%rbp
 835              		.cfi_def_cfa_offset 40
 836              		.cfi_offset 6, -40
 837 038a 53       		pushq	%rbx
 838              		.cfi_def_cfa_offset 48
 839              		.cfi_offset 3, -48
 840 038b 4883EC10 		subq	$16, %rsp
 841              		.cfi_def_cfa_offset 64
 842 038f 4C8B6710 		movq	16(%rdi), %r12
 843 0393 4C8B7708 		movq	8(%rdi), %r14
 844 0397 64488B04 		movq	%fs:40, %rax
 844      25280000 
 844      00
 845 03a0 48894424 		movq	%rax, 8(%rsp)
 845      08
 846 03a5 31C0     		xorl	%eax, %eax
 847 03a7 48C70700 		movq	$_ZTVN8UnitTest20DeferredTestReporterE+16, (%rdi)
 847      000000
 848 03ae 4D39F4   		cmpq	%r14, %r12
 849 03b1 0F84C900 		je	.L108
 849      0000
 850 03b7 660F1F84 		.p2align 4,,10
 850      00000000 
 850      00
 851              		.p2align 3
 852              	.L137:
 853 03c0 498B6E20 		movq	32(%r14), %rbp
 854 03c4 498B5E18 		movq	24(%r14), %rbx
 855 03c8 4839DD   		cmpq	%rbx, %rbp
 856 03cb 7457     		je	.L109
 857 03cd B8000000 		movl	$_ZL28__gthrw___pthread_key_createPjPFvPvE, %eax
 857      00
 858 03d2 4885C0   		testq	%rax, %rax
 859 03d5 7512     		jne	.L144
 860 03d7 E9110100 		jmp	.L115
 860      00
 861 03dc 0F1F4000 		.p2align 4,,10
 862              		.p2align 3
 863              	.L118:
 864 03e0 4883C310 		addq	$16, %rbx
 865 03e4 4839DD   		cmpq	%rbx, %rbp
 866 03e7 7437     		je	.L116
 867              	.L144:
 868 03e9 488B4308 		movq	8(%rbx), %rax
 869 03ed 488D78E8 		leaq	-24(%rax), %rdi
 870 03f1 4881FF00 		cmpq	$_ZNSs4_Rep20_S_empty_rep_storageE, %rdi
 870      000000
 871 03f8 74E6     		je	.L118
 872 03fa B9FFFFFF 		movl	$-1, %ecx
 872      FF
 873 03ff F00FC148 		lock xaddl	%ecx, -8(%rax)
 873      F8
 874 0404 85C9     		testl	%ecx, %ecx
 875 0406 7FD8     		jg	.L118
 876 0408 488D7424 		leaq	7(%rsp), %rsi
 876      07
 877 040d 4883C310 		addq	$16, %rbx
 878 0411 E8000000 		call	_ZNSs4_Rep10_M_destroyERKSaIcE
 878      00
 879 0416 4839DD   		cmpq	%rbx, %rbp
 880 0419 75CE     		jne	.L144
 881 041b 0F1F4400 		.p2align 4,,10
 881      00
 882              		.p2align 3
 883              	.L116:
 884 0420 498B6E18 		movq	24(%r14), %rbp
 885              	.L109:
 886 0424 4885ED   		testq	%rbp, %rbp
 887 0427 7408     		je	.L121
 888 0429 4889EF   		movq	%rbp, %rdi
 889 042c E8000000 		call	_ZdlPv
 889      00
 890              	.L121:
 891 0431 498B4610 		movq	16(%r14), %rax
 892 0435 488D78E8 		leaq	-24(%rax), %rdi
 893 0439 4881FF00 		cmpq	$_ZNSs4_Rep20_S_empty_rep_storageE, %rdi
 893      000000
 894 0440 0F852201 		jne	.L152
 894      0000
 895              	.L123:
 896 0446 498B4608 		movq	8(%r14), %rax
 897 044a 488D78E8 		leaq	-24(%rax), %rdi
 898 044e 4881FF00 		cmpq	$_ZNSs4_Rep20_S_empty_rep_storageE, %rdi
 898      000000
 899 0455 0F85DD00 		jne	.L153
 899      0000
 900              	.L128:
 901 045b 498B06   		movq	(%r14), %rax
 902 045e 488D78E8 		leaq	-24(%rax), %rdi
 903 0462 4881FF00 		cmpq	$_ZNSs4_Rep20_S_empty_rep_storageE, %rdi
 903      000000
 904 0469 0F859100 		jne	.L154
 904      0000
 905              	.L133:
 906 046f 4983C638 		addq	$56, %r14
 907 0473 4D39F4   		cmpq	%r14, %r12
 908 0476 0F8544FF 		jne	.L137
 908      FFFF
 909 047c 4D8B6508 		movq	8(%r13), %r12
 910              	.L108:
 911 0480 4D85E4   		testq	%r12, %r12
 912 0483 7408     		je	.L138
 913 0485 4C89E7   		movq	%r12, %rdi
 914 0488 E8000000 		call	_ZdlPv
 914      00
 915              	.L138:
 916 048d 4C89EF   		movq	%r13, %rdi
 917 0490 E8000000 		call	_ZN8UnitTest12TestReporterD2Ev
 917      00
 918 0495 4C89EF   		movq	%r13, %rdi
 919 0498 E8000000 		call	_ZdlPv
 919      00
 920 049d 488B4424 		movq	8(%rsp), %rax
 920      08
 921 04a2 64483304 		xorq	%fs:40, %rax
 921      25280000 
 921      00
 922 04ab 0F850E01 		jne	.L155
 922      0000
 923 04b1 4883C410 		addq	$16, %rsp
 924              		.cfi_remember_state
 925              		.cfi_def_cfa_offset 48
 926 04b5 5B       		popq	%rbx
 927              		.cfi_def_cfa_offset 40
 928 04b6 5D       		popq	%rbp
 929              		.cfi_def_cfa_offset 32
 930 04b7 415C     		popq	%r12
 931              		.cfi_def_cfa_offset 24
 932 04b9 415D     		popq	%r13
 933              		.cfi_def_cfa_offset 16
 934 04bb 415E     		popq	%r14
 935              		.cfi_def_cfa_offset 8
 936 04bd C3       		ret
 937 04be 6690     		.p2align 4,,10
 938              		.p2align 3
 939              	.L156:
 940              		.cfi_restore_state
 941 04c0 8B50F8   		movl	-8(%rax), %edx
 942 04c3 8D4AFF   		leal	-1(%rdx), %ecx
 943 04c6 85D2     		testl	%edx, %edx
 944 04c8 8948F8   		movl	%ecx, -8(%rax)
 945 04cb 7F13     		jg	.L113
 946 04cd 488D7424 		leaq	7(%rsp), %rsi
 946      07
 947 04d2 E8000000 		call	_ZNSs4_Rep10_M_destroyERKSaIcE
 947      00
 948 04d7 660F1F84 		.p2align 4,,10
 948      00000000 
 948      00
 949              		.p2align 3
 950              	.L113:
 951 04e0 4883C310 		addq	$16, %rbx
 952 04e4 4839DD   		cmpq	%rbx, %rbp
 953 04e7 0F8433FF 		je	.L116
 953      FFFF
 954              	.L115:
 955 04ed 488B4308 		movq	8(%rbx), %rax
 956 04f1 488D78E8 		leaq	-24(%rax), %rdi
 957 04f5 4881FF00 		cmpq	$_ZNSs4_Rep20_S_empty_rep_storageE, %rdi
 957      000000
 958 04fc 74E2     		je	.L113
 959 04fe EBC0     		jmp	.L156
 960              		.p2align 4,,10
 961              		.p2align 3
 962              	.L154:
 963 0500 BA000000 		movl	$_ZL28__gthrw___pthread_key_createPjPFvPvE, %edx
 963      00
 964 0505 4885D2   		testq	%rdx, %rdx
 965 0508 0F84A100 		je	.L134
 965      0000
 966 050e BAFFFFFF 		movl	$-1, %edx
 966      FF
 967 0513 F00FC150 		lock xaddl	%edx, -8(%rax)
 967      F8
 968 0518 89D0     		movl	%edx, %eax
 969              	.L135:
 970 051a 85C0     		testl	%eax, %eax
 971 051c 0F8F4DFF 		jg	.L133
 971      FFFF
 972 0522 488D7424 		leaq	7(%rsp), %rsi
 972      07
 973 0527 E8000000 		call	_ZNSs4_Rep10_M_destroyERKSaIcE
 973      00
 974 052c E93EFFFF 		jmp	.L133
 974      FF
 975              		.p2align 4,,10
 976 0531 0F1F8000 		.p2align 3
 976      000000
 977              	.L153:
 978 0538 BA000000 		movl	$_ZL28__gthrw___pthread_key_createPjPFvPvE, %edx
 978      00
 979 053d 4885D2   		testq	%rdx, %rdx
 980 0540 7460     		je	.L129
 981 0542 BAFFFFFF 		movl	$-1, %edx
 981      FF
 982 0547 F00FC150 		lock xaddl	%edx, -8(%rax)
 982      F8
 983 054c 89D0     		movl	%edx, %eax
 984              	.L130:
 985 054e 85C0     		testl	%eax, %eax
 986 0550 0F8F05FF 		jg	.L128
 986      FFFF
 987 0556 488D7424 		leaq	7(%rsp), %rsi
 987      07
 988 055b E8000000 		call	_ZNSs4_Rep10_M_destroyERKSaIcE
 988      00
 989 0560 E9F6FEFF 		jmp	.L128
 989      FF
 990              		.p2align 4,,10
 991 0565 0F1F00   		.p2align 3
 992              	.L152:
 993 0568 BA000000 		movl	$_ZL28__gthrw___pthread_key_createPjPFvPvE, %edx
 993      00
 994 056d 4885D2   		testq	%rdx, %rdx
 995 0570 7423     		je	.L124
 996 0572 BAFFFFFF 		movl	$-1, %edx
 996      FF
 997 0577 F00FC150 		lock xaddl	%edx, -8(%rax)
 997      F8
 998 057c 89D0     		movl	%edx, %eax
 999              	.L125:
 1000 057e 85C0     		testl	%eax, %eax
 1001 0580 0F8FC0FE 		jg	.L123
 1001      FFFF
 1002 0586 488D7424 		leaq	7(%rsp), %rsi
 1002      07
 1003 058b E8000000 		call	_ZNSs4_Rep10_M_destroyERKSaIcE
 1003      00
 1004 0590 E9B1FEFF 		jmp	.L123
 1004      FF
 1005              	.L124:
 1006 0595 8B50F8   		movl	-8(%rax), %edx
 1007 0598 8D4AFF   		leal	-1(%rdx), %ecx
 1008 059b 8948F8   		movl	%ecx, -8(%rax)
 1009 059e 89D0     		movl	%edx, %eax
 1010 05a0 EBDC     		jmp	.L125
 1011              	.L129:
 1012 05a2 8B50F8   		movl	-8(%rax), %edx
 1013 05a5 8D4AFF   		leal	-1(%rdx), %ecx
 1014 05a8 8948F8   		movl	%ecx, -8(%rax)
 1015 05ab 89D0     		movl	%edx, %eax
 1016 05ad EB9F     		jmp	.L130
 1017              	.L134:
 1018 05af 8B50F8   		movl	-8(%rax), %edx
 1019 05b2 8D4AFF   		leal	-1(%rdx), %ecx
 1020 05b5 8948F8   		movl	%ecx, -8(%rax)
 1021 05b8 89D0     		movl	%edx, %eax
 1022 05ba E95BFFFF 		jmp	.L135
 1022      FF
 1023              	.L155:
 1024 05bf E8000000 		call	__stack_chk_fail
 1024      00
 1025              		.cfi_endproc
 1026              	.LFE1675:
 1028              		.section	.text.unlikely
 1029              	.LCOLDE19:
 1030              		.text
 1031              	.LHOTE19:
 1032              		.section	.text.unlikely
 1033              		.align 2
 1034              	.LCOLDB20:
 1035              	.LHOTB20:
 1036              		.align 2
 1038              	_ZN8UnitTest12_GLOBAL__N_127DeferredTestReporterFixtureD2Ev:
 1039              	.LFB1408:
 1040              		.cfi_startproc
 1041 0028 4156     		pushq	%r14
 1042              		.cfi_def_cfa_offset 16
 1043              		.cfi_offset 14, -16
 1044 002a 4155     		pushq	%r13
 1045              		.cfi_def_cfa_offset 24
 1046              		.cfi_offset 13, -24
 1047 002c 4989FD   		movq	%rdi, %r13
 1048 002f 4154     		pushq	%r12
 1049              		.cfi_def_cfa_offset 32
 1050              		.cfi_offset 12, -32
 1051 0031 55       		pushq	%rbp
 1052              		.cfi_def_cfa_offset 40
 1053              		.cfi_offset 6, -40
 1054 0032 53       		pushq	%rbx
 1055              		.cfi_def_cfa_offset 48
 1056              		.cfi_offset 3, -48
 1057 0033 4883EC10 		subq	$16, %rsp
 1058              		.cfi_def_cfa_offset 64
 1059 0037 64488B04 		movq	%fs:40, %rax
 1059      25280000 
 1059      00
 1060 0040 48894424 		movq	%rax, 8(%rsp)
 1060      08
 1061 0045 31C0     		xorl	%eax, %eax
 1062 0047 488B4730 		movq	48(%rdi), %rax
 1063 004b 488D78E8 		leaq	-24(%rax), %rdi
 1064 004f 4881FF00 		cmpq	$_ZNSs4_Rep20_S_empty_rep_storageE, %rdi
 1064      000000
 1065 0056 742F     		je	.L159
 1066 0058 BA000000 		movl	$_ZL28__gthrw___pthread_key_createPjPFvPvE, %edx
 1066      00
 1067 005d 4885D2   		testq	%rdx, %rdx
 1068 0060 740C     		je	.L160
 1069 0062 83CAFF   		orl	$-1, %edx
 1070 0065 F00FC150 		lock xaddl	%edx, -8(%rax)
 1070      F8
 1071 006a 89D0     		movl	%edx, %eax
 1072 006c EB0B     		jmp	.L161
 1073              	.L160:
 1074 006e 8B50F8   		movl	-8(%rax), %edx
 1075 0071 8D4AFF   		leal	-1(%rdx), %ecx
 1076 0074 8948F8   		movl	%ecx, -8(%rax)
 1077 0077 89D0     		movl	%edx, %eax
 1078              	.L161:
 1079 0079 85C0     		testl	%eax, %eax
 1080 007b 7F0A     		jg	.L159
 1081 007d 488D7424 		leaq	7(%rsp), %rsi
 1081      07
 1082 0082 E8000000 		call	_ZNSs4_Rep10_M_destroyERKSaIcE
 1082      00
 1083              	.L159:
 1084 0087 498B4528 		movq	40(%r13), %rax
 1085 008b 488D78E8 		leaq	-24(%rax), %rdi
 1086 008f 4881FF00 		cmpq	$_ZNSs4_Rep20_S_empty_rep_storageE, %rdi
 1086      000000
 1087 0096 742F     		je	.L164
 1088 0098 BA000000 		movl	$_ZL28__gthrw___pthread_key_createPjPFvPvE, %edx
 1088      00
 1089 009d 4885D2   		testq	%rdx, %rdx
 1090 00a0 740C     		je	.L165
 1091 00a2 83CAFF   		orl	$-1, %edx
 1092 00a5 F00FC150 		lock xaddl	%edx, -8(%rax)
 1092      F8
 1093 00aa 89D0     		movl	%edx, %eax
 1094 00ac EB0B     		jmp	.L166
 1095              	.L165:
 1096 00ae 8B50F8   		movl	-8(%rax), %edx
 1097 00b1 8D4AFF   		leal	-1(%rdx), %ecx
 1098 00b4 8948F8   		movl	%ecx, -8(%rax)
 1099 00b7 89D0     		movl	%edx, %eax
 1100              	.L166:
 1101 00b9 85C0     		testl	%eax, %eax
 1102 00bb 7F0A     		jg	.L164
 1103 00bd 488D7424 		leaq	7(%rsp), %rsi
 1103      07
 1104 00c2 E8000000 		call	_ZNSs4_Rep10_M_destroyERKSaIcE
 1104      00
 1105              	.L164:
 1106 00c7 498B4520 		movq	32(%r13), %rax
 1107 00cb 488D78E8 		leaq	-24(%rax), %rdi
 1108 00cf 4881FF00 		cmpq	$_ZNSs4_Rep20_S_empty_rep_storageE, %rdi
 1108      000000
 1109 00d6 742F     		je	.L169
 1110 00d8 BA000000 		movl	$_ZL28__gthrw___pthread_key_createPjPFvPvE, %edx
 1110      00
 1111 00dd 4885D2   		testq	%rdx, %rdx
 1112 00e0 740C     		je	.L170
 1113 00e2 83CAFF   		orl	$-1, %edx
 1114 00e5 F00FC150 		lock xaddl	%edx, -8(%rax)
 1114      F8
 1115 00ea 89D0     		movl	%edx, %eax
 1116 00ec EB0B     		jmp	.L171
 1117              	.L170:
 1118 00ee 8B50F8   		movl	-8(%rax), %edx
 1119 00f1 8D4AFF   		leal	-1(%rdx), %ecx
 1120 00f4 8948F8   		movl	%ecx, -8(%rax)
 1121 00f7 89D0     		movl	%edx, %eax
 1122              	.L171:
 1123 00f9 85C0     		testl	%eax, %eax
 1124 00fb 7F0A     		jg	.L169
 1125 00fd 488D7424 		leaq	7(%rsp), %rsi
 1125      07
 1126 0102 E8000000 		call	_ZNSs4_Rep10_M_destroyERKSaIcE
 1126      00
 1127              	.L169:
 1128 0107 4D8B6510 		movq	16(%r13), %r12
 1129 010b 4D8B7508 		movq	8(%r13), %r14
 1130 010f 49C74500 		movq	$_ZTVN8UnitTest20DeferredTestReporterE+16, 0(%r13)
 1130      00000000 
 1131              	.L173:
 1132 0117 4D39F4   		cmpq	%r14, %r12
 1133 011a 0F842901 		je	.L209
 1133      0000
 1134 0120 498B6E20 		movq	32(%r14), %rbp
 1135 0124 498B5E18 		movq	24(%r14), %rbx
 1136              	.L174:
 1137 0128 4839EB   		cmpq	%rbp, %rbx
 1138 012b 7446     		je	.L210
 1139 012d 488B4308 		movq	8(%rbx), %rax
 1140 0131 488D78E8 		leaq	-24(%rax), %rdi
 1141 0135 4881FF00 		cmpq	$_ZNSs4_Rep20_S_empty_rep_storageE, %rdi
 1141      000000
 1142 013c 742F     		je	.L200
 1143 013e B9000000 		movl	$_ZL28__gthrw___pthread_key_createPjPFvPvE, %ecx
 1143      00
 1144 0143 4885C9   		testq	%rcx, %rcx
 1145 0146 740C     		je	.L177
 1146 0148 83C9FF   		orl	$-1, %ecx
 1147 014b F00FC148 		lock xaddl	%ecx, -8(%rax)
 1147      F8
 1148 0150 89C8     		movl	%ecx, %eax
 1149 0152 EB0B     		jmp	.L178
 1150              	.L177:
 1151 0154 8B48F8   		movl	-8(%rax), %ecx
 1152 0157 8D71FF   		leal	-1(%rcx), %esi
 1153 015a 8970F8   		movl	%esi, -8(%rax)
 1154 015d 89C8     		movl	%ecx, %eax
 1155              	.L178:
 1156 015f 85C0     		testl	%eax, %eax
 1157 0161 7F0A     		jg	.L200
 1158 0163 488D7424 		leaq	7(%rsp), %rsi
 1158      07
 1159 0168 E8000000 		call	_ZNSs4_Rep10_M_destroyERKSaIcE
 1159      00
 1160              	.L200:
 1161 016d 4883C310 		addq	$16, %rbx
 1162 0171 EBB5     		jmp	.L174
 1163              	.L210:
 1164 0173 498B7E18 		movq	24(%r14), %rdi
 1165 0177 4885FF   		testq	%rdi, %rdi
 1166 017a 7405     		je	.L181
 1167 017c E8000000 		call	_ZdlPv
 1167      00
 1168              	.L181:
 1169 0181 498B4610 		movq	16(%r14), %rax
 1170 0185 488D78E8 		leaq	-24(%rax), %rdi
 1171 0189 4881FF00 		cmpq	$_ZNSs4_Rep20_S_empty_rep_storageE, %rdi
 1171      000000
 1172 0190 742F     		je	.L183
 1173 0192 BA000000 		movl	$_ZL28__gthrw___pthread_key_createPjPFvPvE, %edx
 1173      00
 1174 0197 4885D2   		testq	%rdx, %rdx
 1175 019a 740C     		je	.L184
 1176 019c 83CAFF   		orl	$-1, %edx
 1177 019f F00FC150 		lock xaddl	%edx, -8(%rax)
 1177      F8
 1178 01a4 89D0     		movl	%edx, %eax
 1179 01a6 EB0B     		jmp	.L185
 1180              	.L184:
 1181 01a8 8B50F8   		movl	-8(%rax), %edx
 1182 01ab 8D4AFF   		leal	-1(%rdx), %ecx
 1183 01ae 8948F8   		movl	%ecx, -8(%rax)
 1184 01b1 89D0     		movl	%edx, %eax
 1185              	.L185:
 1186 01b3 85C0     		testl	%eax, %eax
 1187 01b5 7F0A     		jg	.L183
 1188 01b7 488D7424 		leaq	7(%rsp), %rsi
 1188      07
 1189 01bc E8000000 		call	_ZNSs4_Rep10_M_destroyERKSaIcE
 1189      00
 1190              	.L183:
 1191 01c1 498B4608 		movq	8(%r14), %rax
 1192 01c5 488D78E8 		leaq	-24(%rax), %rdi
 1193 01c9 4881FF00 		cmpq	$_ZNSs4_Rep20_S_empty_rep_storageE, %rdi
 1193      000000
 1194 01d0 742F     		je	.L188
 1195 01d2 BA000000 		movl	$_ZL28__gthrw___pthread_key_createPjPFvPvE, %edx
 1195      00
 1196 01d7 4885D2   		testq	%rdx, %rdx
 1197 01da 740C     		je	.L189
 1198 01dc 83CAFF   		orl	$-1, %edx
 1199 01df F00FC150 		lock xaddl	%edx, -8(%rax)
 1199      F8
 1200 01e4 89D0     		movl	%edx, %eax
 1201 01e6 EB0B     		jmp	.L190
 1202              	.L189:
 1203 01e8 8B50F8   		movl	-8(%rax), %edx
 1204 01eb 8D4AFF   		leal	-1(%rdx), %ecx
 1205 01ee 8948F8   		movl	%ecx, -8(%rax)
 1206 01f1 89D0     		movl	%edx, %eax
 1207              	.L190:
 1208 01f3 85C0     		testl	%eax, %eax
 1209 01f5 7F0A     		jg	.L188
 1210 01f7 488D7424 		leaq	7(%rsp), %rsi
 1210      07
 1211 01fc E8000000 		call	_ZNSs4_Rep10_M_destroyERKSaIcE
 1211      00
 1212              	.L188:
 1213 0201 498B06   		movq	(%r14), %rax
 1214 0204 488D78E8 		leaq	-24(%rax), %rdi
 1215 0208 4881FF00 		cmpq	$_ZNSs4_Rep20_S_empty_rep_storageE, %rdi
 1215      000000
 1216 020f 742F     		je	.L201
 1217 0211 BA000000 		movl	$_ZL28__gthrw___pthread_key_createPjPFvPvE, %edx
 1217      00
 1218 0216 4885D2   		testq	%rdx, %rdx
 1219 0219 740C     		je	.L194
 1220 021b 83CAFF   		orl	$-1, %edx
 1221 021e F00FC150 		lock xaddl	%edx, -8(%rax)
 1221      F8
 1222 0223 89D0     		movl	%edx, %eax
 1223 0225 EB0B     		jmp	.L195
 1224              	.L194:
 1225 0227 8B50F8   		movl	-8(%rax), %edx
 1226 022a 8D4AFF   		leal	-1(%rdx), %ecx
 1227 022d 8948F8   		movl	%ecx, -8(%rax)
 1228 0230 89D0     		movl	%edx, %eax
 1229              	.L195:
 1230 0232 85C0     		testl	%eax, %eax
 1231 0234 7F0A     		jg	.L201
 1232 0236 488D7424 		leaq	7(%rsp), %rsi
 1232      07
 1233 023b E8000000 		call	_ZNSs4_Rep10_M_destroyERKSaIcE
 1233      00
 1234              	.L201:
 1235 0240 4983C638 		addq	$56, %r14
 1236 0244 E9CEFEFF 		jmp	.L173
 1236      FF
 1237              	.L209:
 1238 0249 498B7D08 		movq	8(%r13), %rdi
 1239 024d 4885FF   		testq	%rdi, %rdi
 1240 0250 7405     		je	.L198
 1241 0252 E8000000 		call	_ZdlPv
 1241      00
 1242              	.L198:
 1243 0257 4C89EF   		movq	%r13, %rdi
 1244 025a E8000000 		call	_ZN8UnitTest12TestReporterD2Ev
 1244      00
 1245 025f 488B4424 		movq	8(%rsp), %rax
 1245      08
 1246 0264 64483304 		xorq	%fs:40, %rax
 1246      25280000 
 1246      00
 1247 026d 7405     		je	.L199
 1248 026f E8000000 		call	__stack_chk_fail
 1248      00
 1249              	.L199:
 1250 0274 4883C410 		addq	$16, %rsp
 1251              		.cfi_def_cfa_offset 48
 1252 0278 5B       		popq	%rbx
 1253              		.cfi_def_cfa_offset 40
 1254 0279 5D       		popq	%rbp
 1255              		.cfi_def_cfa_offset 32
 1256 027a 415C     		popq	%r12
 1257              		.cfi_def_cfa_offset 24
 1258 027c 415D     		popq	%r13
 1259              		.cfi_def_cfa_offset 16
 1260 027e 415E     		popq	%r14
 1261              		.cfi_def_cfa_offset 8
 1262 0280 C3       		ret
 1263              		.cfi_endproc
 1264              	.LFE1408:
 1266              	.LCOLDE20:
 1267              	.LHOTE20:
 1268              		.section	.text.unlikely._ZNSt15basic_stringbufIcSt11char_traitsIcESaIcEED2Ev,"axG",@progbits,_ZNSt
 1269              		.align 2
 1270              	.LCOLDB21:
 1271              		.section	.text._ZNSt15basic_stringbufIcSt11char_traitsIcESaIcEED2Ev,"axG",@progbits,_ZNSt15basic_s
 1272              	.LHOTB21:
 1273              		.align 2
 1274              		.p2align 4,,15
 1275              		.weak	_ZNSt15basic_stringbufIcSt11char_traitsIcESaIcEED2Ev
 1277              	_ZNSt15basic_stringbufIcSt11char_traitsIcESaIcEED2Ev:
 1278              	.LFB1484:
 1279              		.cfi_startproc
 1280 0000 53       		pushq	%rbx
 1281              		.cfi_def_cfa_offset 16
 1282              		.cfi_offset 3, -16
 1283 0001 4889FB   		movq	%rdi, %rbx
 1284 0004 4883EC10 		subq	$16, %rsp
 1285              		.cfi_def_cfa_offset 32
 1286 0008 48C70700 		movq	$_ZTVSt15basic_stringbufIcSt11char_traitsIcESaIcEE+16, (%rdi)
 1286      000000
 1287 000f 64488B04 		movq	%fs:40, %rax
 1287      25280000 
 1287      00
 1288 0018 48894424 		movq	%rax, 8(%rsp)
 1288      08
 1289 001d 31C0     		xorl	%eax, %eax
 1290 001f 488B4748 		movq	72(%rdi), %rax
 1291 0023 488D78E8 		leaq	-24(%rax), %rdi
 1292 0027 4881FF00 		cmpq	$_ZNSs4_Rep20_S_empty_rep_storageE, %rdi
 1292      000000
 1293 002e 7530     		jne	.L219
 1294              	.L213:
 1295 0030 488D7B38 		leaq	56(%rbx), %rdi
 1296 0034 48C70300 		movq	$_ZTVSt15basic_streambufIcSt11char_traitsIcEE+16, (%rbx)
 1296      000000
 1297 003b E8000000 		call	_ZNSt6localeD1Ev
 1297      00
 1298 0040 488B4424 		movq	8(%rsp), %rax
 1298      08
 1299 0045 64483304 		xorq	%fs:40, %rax
 1299      25280000 
 1299      00
 1300 004e 754D     		jne	.L220
 1301 0050 4883C410 		addq	$16, %rsp
 1302              		.cfi_remember_state
 1303              		.cfi_def_cfa_offset 16
 1304 0054 5B       		popq	%rbx
 1305              		.cfi_def_cfa_offset 8
 1306 0055 C3       		ret
 1307 0056 662E0F1F 		.p2align 4,,10
 1307      84000000 
 1307      0000
 1308              		.p2align 3
 1309              	.L219:
 1310              		.cfi_restore_state
 1311 0060 BA000000 		movl	$_ZL28__gthrw___pthread_key_createPjPFvPvE, %edx
 1311      00
 1312 0065 4885D2   		testq	%rdx, %rdx
 1313 0068 7426     		je	.L214
 1314 006a BAFFFFFF 		movl	$-1, %edx
 1314      FF
 1315 006f F00FC150 		lock xaddl	%edx, -8(%rax)
 1315      F8
 1316 0074 89D0     		movl	%edx, %eax
 1317              	.L215:
 1318 0076 85C0     		testl	%eax, %eax
 1319 0078 7FB6     		jg	.L213
 1320 007a 488D7424 		leaq	7(%rsp), %rsi
 1320      07
 1321 007f E8000000 		call	_ZNSs4_Rep10_M_destroyERKSaIcE
 1321      00
 1322 0084 EBAA     		jmp	.L213
 1323 0086 662E0F1F 		.p2align 4,,10
 1323      84000000 
 1323      0000
 1324              		.p2align 3
 1325              	.L214:
 1326 0090 8B50F8   		movl	-8(%rax), %edx
 1327 0093 8D4AFF   		leal	-1(%rdx), %ecx
 1328 0096 8948F8   		movl	%ecx, -8(%rax)
 1329 0099 89D0     		movl	%edx, %eax
 1330 009b EBD9     		jmp	.L215
 1331              	.L220:
 1332 009d E8000000 		call	__stack_chk_fail
 1332      00
 1333              		.cfi_endproc
 1334              	.LFE1484:
 1336              		.section	.text.unlikely._ZNSt15basic_stringbufIcSt11char_traitsIcESaIcEED2Ev,"axG",@progbits,_ZNSt
 1337              	.LCOLDE21:
 1338              		.section	.text._ZNSt15basic_stringbufIcSt11char_traitsIcESaIcEED2Ev,"axG",@progbits,_ZNSt15basic_s
 1339              	.LHOTE21:
 1340              		.weak	_ZNSt15basic_stringbufIcSt11char_traitsIcESaIcEED1Ev
 1341              		.set	_ZNSt15basic_stringbufIcSt11char_traitsIcESaIcEED1Ev,_ZNSt15basic_stringbufIcSt11char_traitsI
 1342              		.section	.text.unlikely._ZN8UnitTest15MemoryOutStreamC1Ev,"axG",@progbits,_ZN8UnitTest15MemoryOutS
 1343              		.align 2
 1344              	.LCOLDB22:
 1345              		.section	.text._ZN8UnitTest15MemoryOutStreamC1Ev,"axG",@progbits,_ZN8UnitTest15MemoryOutStreamC1Ev
 1346              	.LHOTB22:
 1347              		.align 2
 1348              		.p2align 4,,15
 1349              		.weak	_ZN8UnitTest15MemoryOutStreamC1Ev
 1351              	_ZN8UnitTest15MemoryOutStreamC1Ev:
 1352              	.LFB1080:
 1353              		.cfi_startproc
 1354              		.cfi_personality 0x3,__gxx_personality_v0
 1355              		.cfi_lsda 0x3,.LLSDA1080
 1356 0000 4155     		pushq	%r13
 1357              		.cfi_def_cfa_offset 16
 1358              		.cfi_offset 13, -16
 1359 0002 4154     		pushq	%r12
 1360              		.cfi_def_cfa_offset 24
 1361              		.cfi_offset 12, -24
 1362 0004 55       		pushq	%rbp
 1363              		.cfi_def_cfa_offset 32
 1364              		.cfi_offset 6, -32
 1365 0005 488D6F60 		leaq	96(%rdi), %rbp
 1366 0009 53       		pushq	%rbx
 1367              		.cfi_def_cfa_offset 40
 1368              		.cfi_offset 3, -40
 1369 000a 4889FB   		movq	%rdi, %rbx
 1370 000d 4883EC08 		subq	$8, %rsp
 1371              		.cfi_def_cfa_offset 48
 1372 0011 4889EF   		movq	%rbp, %rdi
 1373 0014 E8000000 		call	_ZNSt8ios_baseC2Ev
 1373      00
 1374 0019 48C78338 		movq	$0, 312(%rbx)
 1374      01000000 
 1374      000000
 1375 0024 C6834001 		movb	$0, 320(%rbx)
 1375      000000
 1376 002b 31F6     		xorl	%esi, %esi
 1377 002d C6834101 		movb	$0, 321(%rbx)
 1377      000000
 1378 0034 48C78348 		movq	$0, 328(%rbx)
 1378      01000000 
 1378      000000
 1379 003f 4889EF   		movq	%rbp, %rdi
 1380 0042 48C78350 		movq	$0, 336(%rbx)
 1380      01000000 
 1380      000000
 1381 004d 48C78358 		movq	$0, 344(%rbx)
 1381      01000000 
 1381      000000
 1382 0058 48C78360 		movq	$0, 352(%rbx)
 1382      01000000 
 1382      000000
 1383 0063 48C70300 		movq	$_ZTCN8UnitTest15MemoryOutStreamE0_So+24, (%rbx)
 1383      000000
 1384 006a 48C74360 		movq	$_ZTCN8UnitTest15MemoryOutStreamE0_So+64, 96(%rbx)
 1384      00000000 
 1385              	.LEHB0:
 1386 0072 E8000000 		call	_ZNSt9basic_iosIcSt11char_traitsIcEE4initEPSt15basic_streambufIcS1_E
 1386      00
 1387              	.LEHE0:
 1388 0077 488D7B40 		leaq	64(%rbx), %rdi
 1389 007b 48C70300 		movq	$_ZTCN8UnitTest15MemoryOutStreamE0_St19basic_ostringstreamIcSt11char_traitsIcESaIcEE+24, (%rb
 1389      000000
 1390 0082 48C74360 		movq	$_ZTCN8UnitTest15MemoryOutStreamE0_St19basic_ostringstreamIcSt11char_traitsIcESaIcEE+64, 96(%
 1390      00000000 
 1391 008a 48C74308 		movq	$_ZTVSt15basic_streambufIcSt11char_traitsIcEE+16, 8(%rbx)
 1391      00000000 
 1392 0092 48C74310 		movq	$0, 16(%rbx)
 1392      00000000 
 1393 009a 4C8D6308 		leaq	8(%rbx), %r12
 1394 009e 48C74318 		movq	$0, 24(%rbx)
 1394      00000000 
 1395 00a6 48C74320 		movq	$0, 32(%rbx)
 1395      00000000 
 1396 00ae 48C74328 		movq	$0, 40(%rbx)
 1396      00000000 
 1397 00b6 48C74330 		movq	$0, 48(%rbx)
 1397      00000000 
 1398 00be 48C74338 		movq	$0, 56(%rbx)
 1398      00000000 
 1399 00c6 E8000000 		call	_ZNSt6localeC1Ev
 1399      00
 1400 00cb 488B03   		movq	(%rbx), %rax
 1401 00ce 4889DF   		movq	%rbx, %rdi
 1402 00d1 48C74308 		movq	$_ZTVSt15basic_stringbufIcSt11char_traitsIcESaIcEE+16, 8(%rbx)
 1402      00000000 
 1403 00d9 C7434810 		movl	$16, 72(%rbx)
 1403      000000
 1404 00e0 48C74350 		movq	$_ZNSs4_Rep20_S_empty_rep_storageE+24, 80(%rbx)
 1404      00000000 
 1405 00e8 4C89E6   		movq	%r12, %rsi
 1406 00eb 480378E8 		addq	-24(%rax), %rdi
 1407              	.LEHB1:
 1408 00ef E8000000 		call	_ZNSt9basic_iosIcSt11char_traitsIcEE4initEPSt15basic_streambufIcS1_E
 1408      00
 1409              	.LEHE1:
 1410 00f4 48C70300 		movq	$_ZTVN8UnitTest15MemoryOutStreamE+24, (%rbx)
 1410      000000
 1411 00fb 48C74360 		movq	$_ZTVN8UnitTest15MemoryOutStreamE+64, 96(%rbx)
 1411      00000000 
 1412 0103 48C74358 		movq	$_ZNSs4_Rep20_S_empty_rep_storageE+24, 88(%rbx)
 1412      00000000 
 1413 010b 4883C408 		addq	$8, %rsp
 1414              		.cfi_remember_state
 1415              		.cfi_def_cfa_offset 40
 1416 010f 5B       		popq	%rbx
 1417              		.cfi_def_cfa_offset 32
 1418 0110 5D       		popq	%rbp
 1419              		.cfi_def_cfa_offset 24
 1420 0111 415C     		popq	%r12
 1421              		.cfi_def_cfa_offset 16
 1422 0113 415D     		popq	%r13
 1423              		.cfi_def_cfa_offset 8
 1424 0115 C3       		ret
 1425              	.L225:
 1426              		.cfi_restore_state
 1427 0116 4989C4   		movq	%rax, %r12
 1428 0119 EB0E     		jmp	.L224
 1429              	.L226:
 1430 011b 4989C5   		movq	%rax, %r13
 1431              	.L223:
 1432 011e 4C89E7   		movq	%r12, %rdi
 1433 0121 4D89EC   		movq	%r13, %r12
 1434 0124 E8000000 		call	_ZNSt15basic_stringbufIcSt11char_traitsIcESaIcEED1Ev
 1434      00
 1435              	.L224:
 1436 0129 4889EF   		movq	%rbp, %rdi
 1437 012c 48C74360 		movq	$_ZTVSt9basic_iosIcSt11char_traitsIcEE+16, 96(%rbx)
 1437      00000000 
 1438 0134 E8000000 		call	_ZNSt8ios_baseD2Ev
 1438      00
 1439 0139 4C89E7   		movq	%r12, %rdi
 1440              	.LEHB2:
 1441 013c E8000000 		call	_Unwind_Resume
 1441      00
 1442              	.LEHE2:
 1443              		.cfi_endproc
 1444              	.LFE1080:
 1445              		.globl	__gxx_personality_v0
 1446              		.section	.gcc_except_table._ZN8UnitTest15MemoryOutStreamC1Ev,"aG",@progbits,_ZN8UnitTest15MemoryOu
 1447              	.LLSDA1080:
 1448 0000 FF       		.byte	0xff
 1449 0001 FF       		.byte	0xff
 1450 0002 01       		.byte	0x1
 1451 0003 10       		.uleb128 .LLSDACSE1080-.LLSDACSB1080
 1452              	.LLSDACSB1080:
 1453 0004 72       		.uleb128 .LEHB0-.LFB1080
 1454 0005 05       		.uleb128 .LEHE0-.LEHB0
 1455 0006 9602     		.uleb128 .L225-.LFB1080
 1456 0008 00       		.uleb128 0
 1457 0009 EF01     		.uleb128 .LEHB1-.LFB1080
 1458 000b 05       		.uleb128 .LEHE1-.LEHB1
 1459 000c 9B02     		.uleb128 .L226-.LFB1080
 1460 000e 00       		.uleb128 0
 1461 000f BC02     		.uleb128 .LEHB2-.LFB1080
 1462 0011 05       		.uleb128 .LEHE2-.LEHB2
 1463 0012 00       		.uleb128 0
 1464 0013 00       		.uleb128 0
 1465              	.LLSDACSE1080:
 1466              		.section	.text._ZN8UnitTest15MemoryOutStreamC1Ev,"axG",@progbits,_ZN8UnitTest15MemoryOutStreamC1Ev
 1468              		.section	.text.unlikely._ZN8UnitTest15MemoryOutStreamC1Ev,"axG",@progbits,_ZN8UnitTest15MemoryOutS
 1469              	.LCOLDE22:
 1470              		.section	.text._ZN8UnitTest15MemoryOutStreamC1Ev,"axG",@progbits,_ZN8UnitTest15MemoryOutStreamC1Ev
 1471              	.LHOTE22:
 1472              		.section	.rodata.str1.1,"aMS",@progbits,1
 1473              	.LC23:
 1474 0000 556E6861 		.string	"Unhandled system exception"
 1474      6E646C65 
 1474      64207379 
 1474      7374656D 
 1474      20657863 
 1475              		.section	.rodata.str1.8,"aMS",@progbits,1
 1476              		.align 8
 1477              	.LC25:
 1478 0000 76656374 		.string	"vector::_M_range_check: __n (which is %zu) >= this->size() (which is %zu)"
 1478      6F723A3A 
 1478      5F4D5F72 
 1478      616E6765 
 1478      5F636865 
 1479              		.section	.rodata.str1.1
 1480              	.LC28:
 1481 001b 45787065 		.string	"Expected "
 1481      63746564 
 1481      2000
 1482              	.LC30:
 1483 0025 202B2F2D 		.string	" +/- "
 1483      2000
 1484              	.LC32:
 1485 002b 20627574 		.string	" but was "
 1485      20776173 
 1485      2000
 1486              		.section	.rodata.str1.8
 1487 004a 00000000 		.align 8
 1487      0000
 1488              	.LC33:
 1489 0050 556E6861 		.string	"Unhandled exception in CHECK_CLOSE(elapsed, result.timeElapsed)"
 1489      6E646C65 
 1489      64206578 
 1489      63657074 
 1489      696F6E20 
 1490              		.section	.rodata.str1.1
 1491              	.LC34:
 1492 0035 556E6861 		.string	"Unhandled exception: "
 1492      6E646C65 
 1492      64206578 
 1492      63657074 
 1492      696F6E3A 
 1493              	.LC35:
 1494 004b 556E6861 		.string	"Unhandled exception: Crash!"
 1494      6E646C65 
 1494      64206578 
 1494      63657074 
 1494      696F6E3A 
 1495              		.section	.text.unlikely
 1496              	.LCOLDB36:
 1497              		.text
 1498              	.LHOTB36:
 1499 05c4 6690662E 		.p2align 4,,15
 1499      0F1F8400 
 1499      00000000 
 1501              	_ZN8UnitTest11ExecuteTestINS_12_GLOBAL__N_162DeferredTestReporterFixtureReportTestEndCapturesTestTi
 1502              	.LFB1523:
 1503              		.cfi_startproc
 1504              		.cfi_personality 0x3,__gxx_personality_v0
 1505              		.cfi_lsda 0x3,.LLSDA1523
 1506 05d0 4154     		pushq	%r12
 1507              		.cfi_def_cfa_offset 16
 1508              		.cfi_offset 12, -16
 1509 05d2 55       		pushq	%rbp
 1510              		.cfi_def_cfa_offset 24
 1511              		.cfi_offset 6, -24
 1512 05d3 53       		pushq	%rbx
 1513              		.cfi_def_cfa_offset 32
 1514              		.cfi_offset 3, -32
 1515 05d4 4889F3   		movq	%rsi, %rbx
 1516 05d7 4881ECE0 		subq	$2016, %rsp
 1516      070000
 1517              		.cfi_def_cfa_offset 2048
 1518 05de 48897C24 		movq	%rdi, 8(%rsp)
 1518      08
 1519 05e3 48897424 		movq	%rsi, 16(%rsp)
 1519      10
 1520 05e8 64488B04 		movq	%fs:40, %rax
 1520      25280000 
 1520      00
 1521 05f1 48898424 		movq	%rax, 2008(%rsp)
 1521      D8070000 
 1522 05f9 31C0     		xorl	%eax, %eax
 1523              	.LEHB3:
 1524 05fb E8000000 		call	_ZN8UnitTest11CurrentTest7DetailsEv
 1524      00
 1525              	.LEHE3:
 1526 0600 488DBC24 		leaq	880(%rsp), %rdi
 1526      70030000 
 1527 0608 488918   		movq	%rbx, (%rax)
 1528              	.LEHB4:
 1529 060b E8000000 		call	_ZN8UnitTest16SignalTranslatorC1Ev
 1529      00
 1530              	.LEHE4:
 1531 0610 488B3D00 		movq	_ZN8UnitTest16SignalTranslator12s_jumpTargetE(%rip), %rdi
 1531      000000
 1532 0617 BE010000 		movl	$1, %esi
 1532      00
 1533 061c E8000000 		call	__sigsetjmp
 1533      00
 1534 0621 85C0     		testl	%eax, %eax
 1535 0623 0F85C700 		jne	.L293
 1535      0000
 1536 0629 488B6C24 		movq	8(%rsp), %rbp
 1536      08
 1537 062e 488D5D40 		leaq	64(%rbp), %rbx
 1538 0632 4889EF   		movq	%rbp, %rdi
 1539 0635 4889DE   		movq	%rbx, %rsi
 1540              	.LEHB5:
 1541 0638 E8000000 		call	_ZN8UnitTest20DeferredTestReporter15ReportTestStartERKNS_11TestDetailsE
 1541      00
 1542 063d F30F1005 		movss	.LC24(%rip), %xmm0
 1542      00000000 
 1543 0645 4889DE   		movq	%rbx, %rsi
 1544 0648 4889EF   		movq	%rbp, %rdi
 1545 064b E8000000 		call	_ZN8UnitTest20DeferredTestReporter16ReportTestFinishERKNS_11TestDetailsEf
 1545      00
 1546 0650 4889EF   		movq	%rbp, %rdi
 1547 0653 E8000000 		call	_ZN8UnitTest20DeferredTestReporter10GetResultsEv
 1547      00
 1548              	.LEHE5:
 1549 0658 488B18   		movq	(%rax), %rbx
 1550 065b 488B4008 		movq	8(%rax), %rax
 1551 065f 48BAB76D 		movabsq	$7905747460161236407, %rdx
 1551      DBB66DDB 
 1551      B66D
 1552 0669 4829D8   		subq	%rbx, %rax
 1553 066c 48C1F803 		sarq	$3, %rax
 1554 0670 480FAFC2 		imulq	%rdx, %rax
 1555 0674 4885C0   		testq	%rax, %rax
 1556 0677 0F841804 		je	.L294
 1556      0000
 1557              	.LEHB6:
 1558 067d E8000000 		call	_ZN8UnitTest11CurrentTest7DetailsEv
 1558      00
 1559 0682 488B30   		movq	(%rax), %rsi
 1560 0685 488D7C24 		leaq	112(%rsp), %rdi
 1560      70
 1561 068a BA440000 		movl	$68, %edx
 1561      00
 1562 068f E8000000 		call	_ZN8UnitTest11TestDetailsC1ERKS0_i
 1562      00
 1563 0694 E8000000 		call	_ZN8UnitTest11CurrentTest7ResultsEv
 1563      00
 1564              	.LEHE6:
 1565 0699 F30F1043 		movss	48(%rbx), %xmm0
 1565      30
 1566 069e 488B28   		movq	(%rax), %rbp
 1567 06a1 0F2E0500 		ucomiss	.LC26(%rip), %xmm0
 1567      000000
 1568 06a8 7266     		jb	.L237
 1569 06aa F30F100D 		movss	.LC27(%rip), %xmm1
 1569      00000000 
 1570 06b2 0F2EC8   		ucomiss	%xmm0, %xmm1
 1571 06b5 7259     		jb	.L237
 1572              	.L256:
 1573 06b7 488DBC24 		leaq	880(%rsp), %rdi
 1573      70030000 
 1574              	.LEHB7:
 1575 06bf E8000000 		call	_ZN8UnitTest16SignalTranslatorD1Ev
 1575      00
 1576              	.LEHE7:
 1577              	.L231:
 1578 06c4 488B8424 		movq	2008(%rsp), %rax
 1578      D8070000 
 1579 06cc 64483304 		xorq	%fs:40, %rax
 1579      25280000 
 1579      00
 1580 06d5 0F851404 		jne	.L295
 1580      0000
 1581 06db 4881C4E0 		addq	$2016, %rsp
 1581      070000
 1582              		.cfi_remember_state
 1583              		.cfi_def_cfa_offset 32
 1584 06e2 5B       		popq	%rbx
 1585              		.cfi_def_cfa_offset 24
 1586 06e3 5D       		popq	%rbp
 1587              		.cfi_def_cfa_offset 16
 1588 06e4 415C     		popq	%r12
 1589              		.cfi_def_cfa_offset 8
 1590 06e6 C3       		ret
 1591 06e7 660F1F84 		.p2align 4,,10
 1591      00000000 
 1591      00
 1592              		.p2align 3
 1593              	.L293:
 1594              		.cfi_restore_state
 1595 06f0 BF080000 		movl	$8, %edi
 1595      00
 1596 06f5 E8000000 		call	__cxa_allocate_exception
 1596      00
 1597 06fa 31D2     		xorl	%edx, %edx
 1598 06fc 48C70000 		movq	$.LC23, (%rax)
 1598      000000
 1599 0703 BE000000 		movl	$_ZTIPKc, %esi
 1599      00
 1600 0708 4889C7   		movq	%rax, %rdi
 1601              	.LEHB8:
 1602 070b E8000000 		call	__cxa_throw
 1602      00
 1603              	.LEHE8:
 1604              		.p2align 4,,10
 1605              		.p2align 3
 1606              	.L237:
 1607 0710 488DBC24 		leaq	608(%rsp), %rdi
 1607      60020000 
 1608 0718 E8000000 		call	_ZNSt8ios_baseC2Ev
 1608      00
 1609 071d 488DBC24 		leaq	608(%rsp), %rdi
 1609      60020000 
 1610 0725 31F6     		xorl	%esi, %esi
 1611 0727 48C78424 		movq	$0, 824(%rsp)
 1611      38030000 
 1611      00000000 
 1612 0733 C6842440 		movb	$0, 832(%rsp)
 1612      03000000 
 1613 073b C6842441 		movb	$0, 833(%rsp)
 1613      03000000 
 1614 0743 48C78424 		movq	$0, 840(%rsp)
 1614      48030000 
 1614      00000000 
 1615 074f 48C78424 		movq	$0, 848(%rsp)
 1615      50030000 
 1615      00000000 
 1616 075b 48C78424 		movq	$0, 856(%rsp)
 1616      58030000 
 1616      00000000 
 1617 0767 48C78424 		movq	$0, 864(%rsp)
 1617      60030000 
 1617      00000000 
 1618 0773 48C78424 		movq	$_ZTCN8UnitTest15MemoryOutStreamE0_So+24, 512(%rsp)
 1618      00020000 
 1618      00000000 
 1619 077f 48C78424 		movq	$_ZTCN8UnitTest15MemoryOutStreamE0_So+64, 608(%rsp)
 1619      60020000 
 1619      00000000 
 1620              	.LEHB9:
 1621 078b E8000000 		call	_ZNSt9basic_iosIcSt11char_traitsIcEE4initEPSt15basic_streambufIcS1_E
 1621      00
 1622              	.LEHE9:
 1623 0790 488DBC24 		leaq	576(%rsp), %rdi
 1623      40020000 
 1624 0798 48C78424 		movq	$_ZTCN8UnitTest15MemoryOutStreamE0_St19basic_ostringstreamIcSt11char_traitsIcESaIcEE+24, 512(
 1624      00020000 
 1624      00000000 
 1625 07a4 48C78424 		movq	$_ZTCN8UnitTest15MemoryOutStreamE0_St19basic_ostringstreamIcSt11char_traitsIcESaIcEE+64, 608(
 1625      60020000 
 1625      00000000 
 1626 07b0 48C78424 		movq	$_ZTVSt15basic_streambufIcSt11char_traitsIcEE+16, 520(%rsp)
 1626      08020000 
 1626      00000000 
 1627 07bc 48C78424 		movq	$0, 528(%rsp)
 1627      10020000 
 1627      00000000 
 1628 07c8 48C78424 		movq	$0, 536(%rsp)
 1628      18020000 
 1628      00000000 
 1629 07d4 48C78424 		movq	$0, 544(%rsp)
 1629      20020000 
 1629      00000000 
 1630 07e0 48C78424 		movq	$0, 552(%rsp)
 1630      28020000 
 1630      00000000 
 1631 07ec 48C78424 		movq	$0, 560(%rsp)
 1631      30020000 
 1631      00000000 
 1632 07f8 48C78424 		movq	$0, 568(%rsp)
 1632      38020000 
 1632      00000000 
 1633 0804 E8000000 		call	_ZNSt6localeC1Ev
 1633      00
 1634 0809 488B8424 		movq	512(%rsp), %rax
 1634      00020000 
 1635 0811 488DBC24 		leaq	512(%rsp), %rdi
 1635      00020000 
 1636 0819 488DB424 		leaq	520(%rsp), %rsi
 1636      08020000 
 1637 0821 48C78424 		movq	$_ZTVSt15basic_stringbufIcSt11char_traitsIcESaIcEE+16, 520(%rsp)
 1637      08020000 
 1637      00000000 
 1638 082d C7842448 		movl	$16, 584(%rsp)
 1638      02000010 
 1638      000000
 1639 0838 48C78424 		movq	$_ZNSs4_Rep20_S_empty_rep_storageE+24, 592(%rsp)
 1639      50020000 
 1639      00000000 
 1640 0844 480378E8 		addq	-24(%rax), %rdi
 1641              	.LEHB10:
 1642 0848 E8000000 		call	_ZNSt9basic_iosIcSt11char_traitsIcEE4initEPSt15basic_streambufIcS1_E
 1642      00
 1643              	.LEHE10:
 1644 084d 488DBC24 		leaq	512(%rsp), %rdi
 1644      00020000 
 1645 0855 F30F1053 		movss	48(%rbx), %xmm2
 1645      30
 1646 085a BA090000 		movl	$9, %edx
 1646      00
 1647 085f BE000000 		movl	$.LC28, %esi
 1647      00
 1648 0864 48C78424 		movq	$_ZTVN8UnitTest15MemoryOutStreamE+24, 512(%rsp)
 1648      00020000 
 1648      00000000 
 1649 0870 48C78424 		movq	$_ZTVN8UnitTest15MemoryOutStreamE+64, 608(%rsp)
 1649      60020000 
 1649      00000000 
 1650 087c 48C78424 		movq	$_ZNSs4_Rep20_S_empty_rep_storageE+24, 600(%rsp)
 1650      58020000 
 1650      00000000 
 1651 0888 F30F1154 		movss	%xmm2, 28(%rsp)
 1651      241C
 1652              	.LEHB11:
 1653 088e E8000000 		call	_ZSt16__ostream_insertIcSt11char_traitsIcEERSt13basic_ostreamIT_T0_ES6_PKS3_l
 1653      00
 1654 0893 F20F1005 		movsd	.LC29(%rip), %xmm0
 1654      00000000 
 1655 089b 488DBC24 		leaq	512(%rsp), %rdi
 1655      00020000 
 1656 08a3 E8000000 		call	_ZNSo9_M_insertIdEERSoT_
 1656      00
 1657 08a8 BA050000 		movl	$5, %edx
 1657      00
 1658 08ad BE000000 		movl	$.LC30, %esi
 1658      00
 1659 08b2 4889C7   		movq	%rax, %rdi
 1660 08b5 4889C3   		movq	%rax, %rbx
 1661 08b8 E8000000 		call	_ZSt16__ostream_insertIcSt11char_traitsIcEERSt13basic_ostreamIT_T0_ES6_PKS3_l
 1661      00
 1662 08bd F20F1005 		movsd	.LC31(%rip), %xmm0
 1662      00000000 
 1663 08c5 4889DF   		movq	%rbx, %rdi
 1664 08c8 E8000000 		call	_ZNSo9_M_insertIdEERSoT_
 1664      00
 1665 08cd BA090000 		movl	$9, %edx
 1665      00
 1666 08d2 BE000000 		movl	$.LC32, %esi
 1666      00
 1667 08d7 4889C7   		movq	%rax, %rdi
 1668 08da 4889C3   		movq	%rax, %rbx
 1669 08dd E8000000 		call	_ZSt16__ostream_insertIcSt11char_traitsIcEERSt13basic_ostreamIT_T0_ES6_PKS3_l
 1669      00
 1670 08e2 660FEFC0 		pxor	%xmm0, %xmm0
 1671 08e6 4889DF   		movq	%rbx, %rdi
 1672 08e9 F30F5A44 		cvtss2sd	28(%rsp), %xmm0
 1672      241C
 1673 08ef E8000000 		call	_ZNSo9_M_insertIdEERSoT_
 1673      00
 1674 08f4 488DBC24 		leaq	512(%rsp), %rdi
 1674      00020000 
 1675 08fc E8000000 		call	_ZNK8UnitTest15MemoryOutStream7GetTextEv
 1675      00
 1676 0901 488D7424 		leaq	112(%rsp), %rsi
 1676      70
 1677 0906 4889C2   		movq	%rax, %rdx
 1678 0909 4889EF   		movq	%rbp, %rdi
 1679 090c E8000000 		call	_ZN8UnitTest11TestResults13OnTestFailureERKNS_11TestDetailsEPKc
 1679      00
 1680              	.LEHE11:
 1681 0911 488B8424 		movq	600(%rsp), %rax
 1681      58020000 
 1682 0919 48C78424 		movq	$_ZTVN8UnitTest15MemoryOutStreamE+24, 512(%rsp)
 1682      00020000 
 1682      00000000 
 1683 0925 48C78424 		movq	$_ZTVN8UnitTest15MemoryOutStreamE+64, 608(%rsp)
 1683      60020000 
 1683      00000000 
 1684 0931 488D78E8 		leaq	-24(%rax), %rdi
 1685 0935 4881FF00 		cmpq	$_ZNSs4_Rep20_S_empty_rep_storageE, %rdi
 1685      000000
 1686 093c 0F852601 		jne	.L243
 1686      0000
 1687              	.L248:
 1688 0942 488B8424 		movq	592(%rsp), %rax
 1688      50020000 
 1689 094a 48C78424 		movq	$_ZTCN8UnitTest15MemoryOutStreamE0_St19basic_ostringstreamIcSt11char_traitsIcESaIcEE+24, 512(
 1689      00020000 
 1689      00000000 
 1690 0956 48C78424 		movq	$_ZTCN8UnitTest15MemoryOutStreamE0_St19basic_ostringstreamIcSt11char_traitsIcESaIcEE+64, 608(
 1690      60020000 
 1690      00000000 
 1691 0962 48C78424 		movq	$_ZTVSt15basic_stringbufIcSt11char_traitsIcESaIcEE+16, 520(%rsp)
 1691      08020000 
 1691      00000000 
 1692 096e 488D78E8 		leaq	-24(%rax), %rdi
 1693 0972 4881FF00 		cmpq	$_ZNSs4_Rep20_S_empty_rep_storageE, %rdi
 1693      000000
 1694 0979 0F852901 		jne	.L296
 1694      0000
 1695              	.L245:
 1696 097f 488DBC24 		leaq	576(%rsp), %rdi
 1696      40020000 
 1697 0987 48C78424 		movq	$_ZTVSt15basic_streambufIcSt11char_traitsIcEE+16, 520(%rsp)
 1697      08020000 
 1697      00000000 
 1698 0993 E8000000 		call	_ZNSt6localeD1Ev
 1698      00
 1699 0998 488D8424 		leaq	512(%rsp), %rax
 1699      00020000 
 1700 09a0 48C78424 		movq	$_ZTVSt9basic_iosIcSt11char_traitsIcEE+16, 608(%rsp)
 1700      60020000 
 1700      00000000 
 1701 09ac 488D7860 		leaq	96(%rax), %rdi
 1702              	.LEHB12:
 1703 09b0 E8000000 		call	_ZNSt8ios_baseD2Ev
 1703      00
 1704              	.LEHE12:
 1705 09b5 E9FDFCFF 		jmp	.L256
 1705      FF
 1706              	.L270:
 1707 09ba 4889C3   		movq	%rax, %rbx
 1708 09bd 4889D5   		movq	%rdx, %rbp
 1709              	.L255:
 1710 09c0 488DBC24 		leaq	880(%rsp), %rdi
 1710      70030000 
 1711 09c8 E8000000 		call	_ZN8UnitTest16SignalTranslatorD1Ev
 1711      00
 1712 09cd 4889DF   		movq	%rbx, %rdi
 1713 09d0 4889EA   		movq	%rbp, %rdx
 1714              	.L257:
 1715 09d3 4883FA01 		cmpq	$1, %rdx
 1716 09d7 0F84E001 		je	.L259
 1716      0000
 1717 09dd 4883FA02 		cmpq	$2, %rdx
 1718 09e1 0F85B001 		jne	.L297
 1718      0000
 1719 09e7 E8000000 		call	__cxa_begin_catch
 1719      00
 1720 09ec 488DBC24 		leaq	144(%rsp), %rdi
 1720      90000000 
 1721 09f4 4889C3   		movq	%rax, %rbx
 1722              	.LEHB13:
 1723 09f7 E8000000 		call	_ZN8UnitTest15MemoryOutStreamC1Ev
 1723      00
 1724              	.LEHE13:
 1725 09fc 488B03   		movq	(%rbx), %rax
 1726 09ff 4889DF   		movq	%rbx, %rdi
 1727 0a02 FF5010   		call	*16(%rax)
 1728 0a05 488DBC24 		leaq	144(%rsp), %rdi
 1728      90000000 
 1729 0a0d BE000000 		movl	$.LC34, %esi
 1729      00
 1730 0a12 4889C3   		movq	%rax, %rbx
 1731              	.LEHB14:
 1732 0a15 E8000000 		call	_ZStlsISt11char_traitsIcEERSt13basic_ostreamIcT_ES5_PKc
 1732      00
 1733 0a1a 4889C7   		movq	%rax, %rdi
 1734 0a1d 4889DE   		movq	%rbx, %rsi
 1735 0a20 E8000000 		call	_ZStlsISt11char_traitsIcEERSt13basic_ostreamIcT_ES5_PKc
 1735      00
 1736 0a25 488DBC24 		leaq	144(%rsp), %rdi
 1736      90000000 
 1737 0a2d E8000000 		call	_ZNK8UnitTest15MemoryOutStream7GetTextEv
 1737      00
 1738 0a32 4889C3   		movq	%rax, %rbx
 1739 0a35 E8000000 		call	_ZN8UnitTest11CurrentTest7ResultsEv
 1739      00
 1740 0a3a 488B7424 		movq	16(%rsp), %rsi
 1740      10
 1741 0a3f 488B38   		movq	(%rax), %rdi
 1742 0a42 4889DA   		movq	%rbx, %rdx
 1743 0a45 E8000000 		call	_ZN8UnitTest11TestResults13OnTestFailureERKNS_11TestDetailsEPKc
 1743      00
 1744              	.LEHE14:
 1745 0a4a 488DBC24 		leaq	144(%rsp), %rdi
 1745      90000000 
 1746              	.LEHB15:
 1747 0a52 E8000000 		call	_ZN8UnitTest15MemoryOutStreamD1Ev
 1747      00
 1748              	.LEHE15:
 1749              	.L286:
 1750 0a57 E8000000 		call	__cxa_end_catch
 1750      00
 1751 0a5c E963FCFF 		jmp	.L231
 1751      FF
 1752              		.p2align 4,,10
 1753 0a61 0F1F8000 		.p2align 3
 1753      000000
 1754              	.L243:
 1755 0a68 BA000000 		movl	$_ZL28__gthrw___pthread_key_createPjPFvPvE, %edx
 1755      00
 1756 0a6d 4885D2   		testq	%rdx, %rdx
 1757 0a70 7463     		je	.L246
 1758 0a72 BAFFFFFF 		movl	$-1, %edx
 1758      FF
 1759 0a77 F00FC150 		lock xaddl	%edx, -8(%rax)
 1759      F8
 1760 0a7c 89D0     		movl	%edx, %eax
 1761              	.L247:
 1762 0a7e 85C0     		testl	%eax, %eax
 1763 0a80 0F8FBCFE 		jg	.L248
 1763      FFFF
 1764 0a86 488D7424 		leaq	46(%rsp), %rsi
 1764      2E
 1765 0a8b E8000000 		call	_ZNSs4_Rep10_M_destroyERKSaIcE
 1765      00
 1766 0a90 E9ADFEFF 		jmp	.L248
 1766      FF
 1767              	.L294:
 1768 0a95 31D2     		xorl	%edx, %edx
 1769 0a97 31F6     		xorl	%esi, %esi
 1770 0a99 BF000000 		movl	$.LC25, %edi
 1770      00
 1771              	.LEHB16:
 1772 0a9e E8000000 		call	_ZSt24__throw_out_of_range_fmtPKcz
 1772      00
 1773              	.LEHE16:
 1774              		.p2align 4,,10
 1775 0aa3 0F1F4400 		.p2align 3
 1775      00
 1776              	.L296:
 1777 0aa8 BA000000 		movl	$_ZL28__gthrw___pthread_key_createPjPFvPvE, %edx
 1777      00
 1778 0aad 4885D2   		testq	%rdx, %rdx
 1779 0ab0 7430     		je	.L250
 1780 0ab2 BAFFFFFF 		movl	$-1, %edx
 1780      FF
 1781 0ab7 F00FC150 		lock xaddl	%edx, -8(%rax)
 1781      F8
 1782 0abc 89D0     		movl	%edx, %eax
 1783              	.L251:
 1784 0abe 85C0     		testl	%eax, %eax
 1785 0ac0 0F8FB9FE 		jg	.L245
 1785      FFFF
 1786 0ac6 488D7424 		leaq	47(%rsp), %rsi
 1786      2F
 1787 0acb E8000000 		call	_ZNSs4_Rep10_M_destroyERKSaIcE
 1787      00
 1788 0ad0 E9AAFEFF 		jmp	.L245
 1788      FF
 1789              	.L246:
 1790 0ad5 8B50F8   		movl	-8(%rax), %edx
 1791 0ad8 8D4AFF   		leal	-1(%rdx), %ecx
 1792 0adb 8948F8   		movl	%ecx, -8(%rax)
 1793 0ade 89D0     		movl	%edx, %eax
 1794 0ae0 EB9C     		jmp	.L247
 1795              	.L250:
 1796 0ae2 8B50F8   		movl	-8(%rax), %edx
 1797 0ae5 8D4AFF   		leal	-1(%rdx), %ecx
 1798 0ae8 8948F8   		movl	%ecx, -8(%rax)
 1799 0aeb 89D0     		movl	%edx, %eax
 1800 0aed EBCF     		jmp	.L251
 1801              	.L295:
 1802 0aef E8000000 		call	__stack_chk_fail
 1802      00
 1803              	.L279:
 1804 0af4 488DBC24 		leaq	520(%rsp), %rdi
 1804      08020000 
 1805 0afc 4889C3   		movq	%rax, %rbx
 1806 0aff E8000000 		call	_ZNSt15basic_stringbufIcSt11char_traitsIcESaIcEED1Ev
 1806      00
 1807              	.L240:
 1808 0b04 488DBC24 		leaq	608(%rsp), %rdi
 1808      60020000 
 1809 0b0c 48C78424 		movq	$_ZTVSt9basic_iosIcSt11char_traitsIcEE+16, 608(%rsp)
 1809      60020000 
 1809      00000000 
 1810 0b18 E8000000 		call	_ZNSt8ios_baseD2Ev
 1810      00
 1811 0b1d 4889D8   		movq	%rbx, %rax
 1812              	.L242:
 1813 0b20 4889C7   		movq	%rax, %rdi
 1814 0b23 E8000000 		call	__cxa_begin_catch
 1814      00
 1815              	.LEHB17:
 1816 0b28 E8000000 		call	_ZN8UnitTest11CurrentTest7DetailsEv
 1816      00
 1817 0b2d 488B30   		movq	(%rax), %rsi
 1818 0b30 488D7C24 		leaq	80(%rsp), %rdi
 1818      50
 1819 0b35 BA440000 		movl	$68, %edx
 1819      00
 1820 0b3a E8000000 		call	_ZN8UnitTest11TestDetailsC1ERKS0_i
 1820      00
 1821 0b3f E8000000 		call	_ZN8UnitTest11CurrentTest7ResultsEv
 1821      00
 1822 0b44 488B38   		movq	(%rax), %rdi
 1823 0b47 488D7424 		leaq	80(%rsp), %rsi
 1823      50
 1824 0b4c BA000000 		movl	$.LC33, %edx
 1824      00
 1825 0b51 E8000000 		call	_ZN8UnitTest11TestResults13OnTestFailureERKNS_11TestDetailsEPKc
 1825      00
 1826              	.LEHE17:
 1827              	.LEHB18:
 1828 0b56 E8000000 		call	__cxa_end_catch
 1828      00
 1829              	.LEHE18:
 1830 0b5b E957FBFF 		jmp	.L256
 1830      FF
 1831              	.L277:
 1832 0b60 488DBC24 		leaq	512(%rsp), %rdi
 1832      00020000 
 1833 0b68 4889C3   		movq	%rax, %rbx
 1834 0b6b E8000000 		call	_ZN8UnitTest15MemoryOutStreamD1Ev
 1834      00
 1835 0b70 4889D8   		movq	%rbx, %rax
 1836 0b73 EBAB     		jmp	.L242
 1837              	.L273:
 1838 0b75 488DBC24 		leaq	144(%rsp), %rdi
 1838      90000000 
 1839 0b7d 4889C3   		movq	%rax, %rbx
 1840 0b80 E8000000 		call	_ZN8UnitTest15MemoryOutStreamD1Ev
 1840      00
 1841              	.L263:
 1842 0b85 E8000000 		call	__cxa_end_catch
 1842      00
 1843 0b8a 4889DF   		movq	%rbx, %rdi
 1844              	.LEHB19:
 1845 0b8d E8000000 		call	_Unwind_Resume
 1845      00
 1846              	.LEHE19:
 1847              	.L272:
 1848              	.L287:
 1849 0b92 4889C3   		movq	%rax, %rbx
 1850 0b95 EBEE     		jmp	.L263
 1851              	.L297:
 1852 0b97 E8000000 		call	__cxa_begin_catch
 1852      00
 1853              	.LEHB20:
 1854 0b9c E8000000 		call	_ZN8UnitTest11CurrentTest7ResultsEv
 1854      00
 1855 0ba1 488B7424 		movq	16(%rsp), %rsi
 1855      10
 1856 0ba6 488B38   		movq	(%rax), %rdi
 1857 0ba9 BA000000 		movl	$.LC35, %edx
 1857      00
 1858 0bae E8000000 		call	_ZN8UnitTest11TestResults13OnTestFailureERKNS_11TestDetailsEPKc
 1858      00
 1859              	.LEHE20:
 1860              	.LEHB21:
 1861 0bb3 E8000000 		call	__cxa_end_catch
 1861      00
 1862              	.LEHE21:
 1863 0bb8 E907FBFF 		jmp	.L231
 1863      FF
 1864              	.L259:
 1865 0bbd E8000000 		call	__cxa_begin_catch
 1865      00
 1866 0bc2 4889C3   		movq	%rax, %rbx
 1867 0bc5 488B00   		movq	(%rax), %rax
 1868 0bc8 4889DF   		movq	%rbx, %rdi
 1869 0bcb FF5010   		call	*16(%rax)
 1870 0bce 4889DF   		movq	%rbx, %rdi
 1871 0bd1 4889C5   		movq	%rax, %rbp
 1872              	.LEHB22:
 1873 0bd4 E8000000 		call	_ZNK8UnitTest15AssertException10LineNumberEv
 1873      00
 1874 0bd9 4889DF   		movq	%rbx, %rdi
 1875 0bdc 4189C4   		movl	%eax, %r12d
 1876 0bdf E8000000 		call	_ZNK8UnitTest15AssertException8FilenameEv
 1876      00
 1877 0be4 4889C1   		movq	%rax, %rcx
 1878 0be7 488B4424 		movq	16(%rsp), %rax
 1878      10
 1879 0bec 488D7C24 		leaq	48(%rsp), %rdi
 1879      30
 1880 0bf1 4589E0   		movl	%r12d, %r8d
 1881 0bf4 488B7008 		movq	8(%rax), %rsi
 1882 0bf8 488B10   		movq	(%rax), %rdx
 1883 0bfb E8000000 		call	_ZN8UnitTest11TestDetailsC1EPKcS2_S2_i
 1883      00
 1884 0c00 E8000000 		call	_ZN8UnitTest11CurrentTest7ResultsEv
 1884      00
 1885 0c05 488B38   		movq	(%rax), %rdi
 1886 0c08 488D7424 		leaq	48(%rsp), %rsi
 1886      30
 1887 0c0d 4889EA   		movq	%rbp, %rdx
 1888 0c10 E8000000 		call	_ZN8UnitTest11TestResults13OnTestFailureERKNS_11TestDetailsEPKc
 1888      00
 1889              	.LEHE22:
 1890 0c15 E93DFEFF 		jmp	.L286
 1890      FF
 1891              	.L274:
 1892 0c1a 4889C3   		movq	%rax, %rbx
 1893 0c1d E8000000 		call	__cxa_end_catch
 1893      00
 1894 0c22 4889DF   		movq	%rbx, %rdi
 1895              	.LEHB23:
 1896 0c25 E8000000 		call	_Unwind_Resume
 1896      00
 1897              	.LEHE23:
 1898              	.L271:
 1899 0c2a E963FFFF 		jmp	.L287
 1899      FF
 1900              	.L276:
 1901 0c2f E9ECFEFF 		jmp	.L242
 1901      FF
 1902              	.L278:
 1903 0c34 4889C3   		movq	%rax, %rbx
 1904 0c37 E9C8FEFF 		jmp	.L240
 1904      FF
 1905              	.L269:
 1906 0c3c 4889C7   		movq	%rax, %rdi
 1907 0c3f E98FFDFF 		jmp	.L257
 1907      FF
 1908              	.L275:
 1909 0c44 4889C3   		movq	%rax, %rbx
 1910 0c47 4889D5   		movq	%rdx, %rbp
 1911 0c4a E8000000 		call	__cxa_end_catch
 1911      00
 1912 0c4f E96CFDFF 		jmp	.L255
 1912      FF
 1913              		.cfi_endproc
 1914              	.LFE1523:
 1915              		.section	.gcc_except_table,"a",@progbits
 1916              		.align 4
 1917              	.LLSDA1523:
 1918 0000 FF       		.byte	0xff
 1919 0001 03       		.byte	0x3
 1920 0002 9001     		.uleb128 .LLSDATT1523-.LLSDATTD1523
 1921              	.LLSDATTD1523:
 1922 0004 01       		.byte	0x1
 1923 0005 78       		.uleb128 .LLSDACSE1523-.LLSDACSB1523
 1924              	.LLSDACSB1523:
 1925 0006 2B       		.uleb128 .LEHB3-.LFB1523
 1926 0007 05       		.uleb128 .LEHE3-.LEHB3
 1927 0008 00       		.uleb128 0
 1928 0009 00       		.uleb128 0
 1929 000a 3B       		.uleb128 .LEHB4-.LFB1523
 1930 000b 05       		.uleb128 .LEHE4-.LEHB4
 1931 000c EC0C     		.uleb128 .L269-.LFB1523
 1932 000e 05       		.uleb128 0x5
 1933 000f 68       		.uleb128 .LEHB5-.LFB1523
 1934 0010 20       		.uleb128 .LEHE5-.LEHB5
 1935 0011 EA07     		.uleb128 .L270-.LFB1523
 1936 0013 07       		.uleb128 0x7
 1937 0014 AD01     		.uleb128 .LEHB6-.LFB1523
 1938 0016 1C       		.uleb128 .LEHE6-.LEHB6
 1939 0017 DF0C     		.uleb128 .L276-.LFB1523
 1940 0019 01       		.uleb128 0x1
 1941 001a EF01     		.uleb128 .LEHB7-.LFB1523
 1942 001c 05       		.uleb128 .LEHE7-.LEHB7
 1943 001d EC0C     		.uleb128 .L269-.LFB1523
 1944 001f 05       		.uleb128 0x5
 1945 0020 BB02     		.uleb128 .LEHB8-.LFB1523
 1946 0022 05       		.uleb128 .LEHE8-.LEHB8
 1947 0023 EA07     		.uleb128 .L270-.LFB1523
 1948 0025 07       		.uleb128 0x7
 1949 0026 BB03     		.uleb128 .LEHB9-.LFB1523
 1950 0028 05       		.uleb128 .LEHE9-.LEHB9
 1951 0029 E40C     		.uleb128 .L278-.LFB1523
 1952 002b 01       		.uleb128 0x1
 1953 002c F804     		.uleb128 .LEHB10-.LFB1523
 1954 002e 05       		.uleb128 .LEHE10-.LEHB10
 1955 002f A40A     		.uleb128 .L279-.LFB1523
 1956 0031 01       		.uleb128 0x1
 1957 0032 BE05     		.uleb128 .LEHB11-.LFB1523
 1958 0034 8301     		.uleb128 .LEHE11-.LEHB11
 1959 0036 900B     		.uleb128 .L277-.LFB1523
 1960 0038 01       		.uleb128 0x1
 1961 0039 E007     		.uleb128 .LEHB12-.LFB1523
 1962 003b 05       		.uleb128 .LEHE12-.LEHB12
 1963 003c DF0C     		.uleb128 .L276-.LFB1523
 1964 003e 01       		.uleb128 0x1
 1965 003f A708     		.uleb128 .LEHB13-.LFB1523
 1966 0041 05       		.uleb128 .LEHE13-.LEHB13
 1967 0042 C20B     		.uleb128 .L272-.LFB1523
 1968 0044 00       		.uleb128 0
 1969 0045 C508     		.uleb128 .LEHB14-.LFB1523
 1970 0047 35       		.uleb128 .LEHE14-.LEHB14
 1971 0048 A50B     		.uleb128 .L273-.LFB1523
 1972 004a 00       		.uleb128 0
 1973 004b 8209     		.uleb128 .LEHB15-.LFB1523
 1974 004d 05       		.uleb128 .LEHE15-.LEHB15
 1975 004e C20B     		.uleb128 .L272-.LFB1523
 1976 0050 00       		.uleb128 0
 1977 0051 CE09     		.uleb128 .LEHB16-.LFB1523
 1978 0053 05       		.uleb128 .LEHE16-.LEHB16
 1979 0054 EA07     		.uleb128 .L270-.LFB1523
 1980 0056 07       		.uleb128 0x7
 1981 0057 D80A     		.uleb128 .LEHB17-.LFB1523
 1982 0059 2E       		.uleb128 .LEHE17-.LEHB17
 1983 005a F40C     		.uleb128 .L275-.LFB1523
 1984 005c 07       		.uleb128 0x7
 1985 005d 860B     		.uleb128 .LEHB18-.LFB1523
 1986 005f 05       		.uleb128 .LEHE18-.LEHB18
 1987 0060 EA07     		.uleb128 .L270-.LFB1523
 1988 0062 07       		.uleb128 0x7
 1989 0063 BD0B     		.uleb128 .LEHB19-.LFB1523
 1990 0065 05       		.uleb128 .LEHE19-.LEHB19
 1991 0066 00       		.uleb128 0
 1992 0067 00       		.uleb128 0
 1993 0068 CC0B     		.uleb128 .LEHB20-.LFB1523
 1994 006a 17       		.uleb128 .LEHE20-.LEHB20
 1995 006b CA0C     		.uleb128 .L274-.LFB1523
 1996 006d 00       		.uleb128 0
 1997 006e E30B     		.uleb128 .LEHB21-.LFB1523
 1998 0070 05       		.uleb128 .LEHE21-.LEHB21
 1999 0071 00       		.uleb128 0
 2000 0072 00       		.uleb128 0
 2001 0073 840C     		.uleb128 .LEHB22-.LFB1523
 2002 0075 41       		.uleb128 .LEHE22-.LEHB22
 2003 0076 DA0C     		.uleb128 .L271-.LFB1523
 2004 0078 00       		.uleb128 0
 2005 0079 D50C     		.uleb128 .LEHB23-.LFB1523
 2006 007b 05       		.uleb128 .LEHE23-.LEHB23
 2007 007c 00       		.uleb128 0
 2008 007d 00       		.uleb128 0
 2009              	.LLSDACSE1523:
 2010 007e 03       		.byte	0x3
 2011 007f 00       		.byte	0
 2012 0080 02       		.byte	0x2
 2013 0081 7D       		.byte	0x7d
 2014 0082 01       		.byte	0x1
 2015 0083 7D       		.byte	0x7d
 2016 0084 00       		.byte	0
 2017 0085 7D       		.byte	0x7d
 2018 0086 0000     		.align 4
 2019 0088 00000000 		.long	0
 2020              	
 2021 008c 00000000 		.long	_ZTISt9exception
 2022 0090 00000000 		.long	_ZTIN8UnitTest15AssertExceptionE
 2023              	.LLSDATT1523:
 2024              		.text
 2026              		.section	.text.unlikely
 2027              	.LCOLDE36:
 2028              		.text
 2029              	.LHOTE36:
 2030              		.section	.text.unlikely._ZNSt15basic_stringbufIcSt11char_traitsIcESaIcEED0Ev,"axG",@progbits,_ZNSt
 2031              		.align 2
 2032              	.LCOLDB37:
 2033              		.section	.text._ZNSt15basic_stringbufIcSt11char_traitsIcESaIcEED0Ev,"axG",@progbits,_ZNSt15basic_s
 2034              	.LHOTB37:
 2035              		.align 2
 2036              		.p2align 4,,15
 2037              		.weak	_ZNSt15basic_stringbufIcSt11char_traitsIcESaIcEED0Ev
 2039              	_ZNSt15basic_stringbufIcSt11char_traitsIcESaIcEED0Ev:
 2040              	.LFB1486:
 2041              		.cfi_startproc
 2042 0000 53       		pushq	%rbx
 2043              		.cfi_def_cfa_offset 16
 2044              		.cfi_offset 3, -16
 2045 0001 4889FB   		movq	%rdi, %rbx
 2046 0004 4883EC10 		subq	$16, %rsp
 2047              		.cfi_def_cfa_offset 32
 2048 0008 48C70700 		movq	$_ZTVSt15basic_stringbufIcSt11char_traitsIcESaIcEE+16, (%rdi)
 2048      000000
 2049 000f 64488B04 		movq	%fs:40, %rax
 2049      25280000 
 2049      00
 2050 0018 48894424 		movq	%rax, 8(%rsp)
 2050      08
 2051 001d 31C0     		xorl	%eax, %eax
 2052 001f 488B4748 		movq	72(%rdi), %rax
 2053 0023 488D78E8 		leaq	-24(%rax), %rdi
 2054 0027 4881FF00 		cmpq	$_ZNSs4_Rep20_S_empty_rep_storageE, %rdi
 2054      000000
 2055 002e 7530     		jne	.L306
 2056              	.L300:
 2057 0030 488D7B38 		leaq	56(%rbx), %rdi
 2058 0034 48C70300 		movq	$_ZTVSt15basic_streambufIcSt11char_traitsIcEE+16, (%rbx)
 2058      000000
 2059 003b E8000000 		call	_ZNSt6localeD1Ev
 2059      00
 2060 0040 4889DF   		movq	%rbx, %rdi
 2061 0043 E8000000 		call	_ZdlPv
 2061      00
 2062 0048 488B4424 		movq	8(%rsp), %rax
 2062      08
 2063 004d 64483304 		xorq	%fs:40, %rax
 2063      25280000 
 2063      00
 2064 0056 7545     		jne	.L307
 2065 0058 4883C410 		addq	$16, %rsp
 2066              		.cfi_remember_state
 2067              		.cfi_def_cfa_offset 16
 2068 005c 5B       		popq	%rbx
 2069              		.cfi_def_cfa_offset 8
 2070 005d C3       		ret
 2071 005e 6690     		.p2align 4,,10
 2072              		.p2align 3
 2073              	.L306:
 2074              		.cfi_restore_state
 2075 0060 BA000000 		movl	$_ZL28__gthrw___pthread_key_createPjPFvPvE, %edx
 2075      00
 2076 0065 4885D2   		testq	%rdx, %rdx
 2077 0068 7426     		je	.L301
 2078 006a BAFFFFFF 		movl	$-1, %edx
 2078      FF
 2079 006f F00FC150 		lock xaddl	%edx, -8(%rax)
 2079      F8
 2080 0074 89D0     		movl	%edx, %eax
 2081              	.L302:
 2082 0076 85C0     		testl	%eax, %eax
 2083 0078 7FB6     		jg	.L300
 2084 007a 488D7424 		leaq	7(%rsp), %rsi
 2084      07
 2085 007f E8000000 		call	_ZNSs4_Rep10_M_destroyERKSaIcE
 2085      00
 2086 0084 EBAA     		jmp	.L300
 2087 0086 662E0F1F 		.p2align 4,,10
 2087      84000000 
 2087      0000
 2088              		.p2align 3
 2089              	.L301:
 2090 0090 8B50F8   		movl	-8(%rax), %edx
 2091 0093 8D4AFF   		leal	-1(%rdx), %ecx
 2092 0096 8948F8   		movl	%ecx, -8(%rax)
 2093 0099 89D0     		movl	%edx, %eax
 2094 009b EBD9     		jmp	.L302
 2095              	.L307:
 2096 009d E8000000 		call	__stack_chk_fail
 2096      00
 2097              		.cfi_endproc
 2098              	.LFE1486:
 2100              		.section	.text.unlikely._ZNSt15basic_stringbufIcSt11char_traitsIcESaIcEED0Ev,"axG",@progbits,_ZNSt
 2101              	.LCOLDE37:
 2102              		.section	.text._ZNSt15basic_stringbufIcSt11char_traitsIcESaIcEED0Ev,"axG",@progbits,_ZNSt15basic_s
 2103              	.LHOTE37:
 2104              		.section	.text.unlikely._ZNSt6vectorIN8UnitTest18DeferredTestResultESaIS1_EED2Ev,"axG",@progbits,_
 2105              		.align 2
 2106              	.LCOLDB38:
 2107              		.section	.text._ZNSt6vectorIN8UnitTest18DeferredTestResultESaIS1_EED2Ev,"axG",@progbits,_ZNSt6vect
 2108              	.LHOTB38:
 2109              		.align 2
 2110              		.p2align 4,,15
 2111              		.weak	_ZNSt6vectorIN8UnitTest18DeferredTestResultESaIS1_EED2Ev
 2113              	_ZNSt6vectorIN8UnitTest18DeferredTestResultESaIS1_EED2Ev:
 2114              	.LFB1508:
 2115              		.cfi_startproc
 2116 0000 4156     		pushq	%r14
 2117              		.cfi_def_cfa_offset 16
 2118              		.cfi_offset 14, -16
 2119 0002 4155     		pushq	%r13
 2120              		.cfi_def_cfa_offset 24
 2121              		.cfi_offset 13, -24
 2122 0004 4989FD   		movq	%rdi, %r13
 2123 0007 4154     		pushq	%r12
 2124              		.cfi_def_cfa_offset 32
 2125              		.cfi_offset 12, -32
 2126 0009 55       		pushq	%rbp
 2127              		.cfi_def_cfa_offset 40
 2128              		.cfi_offset 6, -40
 2129 000a 53       		pushq	%rbx
 2130              		.cfi_def_cfa_offset 48
 2131              		.cfi_offset 3, -48
 2132 000b 4883EC10 		subq	$16, %rsp
 2133              		.cfi_def_cfa_offset 64
 2134 000f 4C8B6708 		movq	8(%rdi), %r12
 2135 0013 4C8B37   		movq	(%rdi), %r14
 2136 0016 64488B04 		movq	%fs:40, %rax
 2136      25280000 
 2136      00
 2137 001f 48894424 		movq	%rax, 8(%rsp)
 2137      08
 2138 0024 31C0     		xorl	%eax, %eax
 2139 0026 4D39F4   		cmpq	%r14, %r12
 2140 0029 0F84C100 		je	.L309
 2140      0000
 2141 002f 90       		.p2align 4,,10
 2142              		.p2align 3
 2143              	.L338:
 2144 0030 498B6E20 		movq	32(%r14), %rbp
 2145 0034 498B5E18 		movq	24(%r14), %rbx
 2146 0038 4839DD   		cmpq	%rbx, %rbp
 2147 003b 7457     		je	.L310
 2148 003d B8000000 		movl	$_ZL28__gthrw___pthread_key_createPjPFvPvE, %eax
 2148      00
 2149 0042 4885C0   		testq	%rax, %rax
 2150 0045 7512     		jne	.L345
 2151 0047 E9010100 		jmp	.L316
 2151      00
 2152 004c 0F1F4000 		.p2align 4,,10
 2153              		.p2align 3
 2154              	.L319:
 2155 0050 4883C310 		addq	$16, %rbx
 2156 0054 4839DD   		cmpq	%rbx, %rbp
 2157 0057 7437     		je	.L317
 2158              	.L345:
 2159 0059 488B4308 		movq	8(%rbx), %rax
 2160 005d 488D78E8 		leaq	-24(%rax), %rdi
 2161 0061 4881FF00 		cmpq	$_ZNSs4_Rep20_S_empty_rep_storageE, %rdi
 2161      000000
 2162 0068 74E6     		je	.L319
 2163 006a B9FFFFFF 		movl	$-1, %ecx
 2163      FF
 2164 006f F00FC148 		lock xaddl	%ecx, -8(%rax)
 2164      F8
 2165 0074 85C9     		testl	%ecx, %ecx
 2166 0076 7FD8     		jg	.L319
 2167 0078 488D7424 		leaq	7(%rsp), %rsi
 2167      07
 2168 007d 4883C310 		addq	$16, %rbx
 2169 0081 E8000000 		call	_ZNSs4_Rep10_M_destroyERKSaIcE
 2169      00
 2170 0086 4839DD   		cmpq	%rbx, %rbp
 2171 0089 75CE     		jne	.L345
 2172 008b 0F1F4400 		.p2align 4,,10
 2172      00
 2173              		.p2align 3
 2174              	.L317:
 2175 0090 498B6E18 		movq	24(%r14), %rbp
 2176              	.L310:
 2177 0094 4885ED   		testq	%rbp, %rbp
 2178 0097 7408     		je	.L322
 2179 0099 4889EF   		movq	%rbp, %rdi
 2180 009c E8000000 		call	_ZdlPv
 2180      00
 2181              	.L322:
 2182 00a1 498B4610 		movq	16(%r14), %rax
 2183 00a5 488D78E8 		leaq	-24(%rax), %rdi
 2184 00a9 4881FF00 		cmpq	$_ZNSs4_Rep20_S_empty_rep_storageE, %rdi
 2184      000000
 2185 00b0 0F851201 		jne	.L353
 2185      0000
 2186              	.L324:
 2187 00b6 498B4608 		movq	8(%r14), %rax
 2188 00ba 488D78E8 		leaq	-24(%rax), %rdi
 2189 00be 4881FF00 		cmpq	$_ZNSs4_Rep20_S_empty_rep_storageE, %rdi
 2189      000000
 2190 00c5 0F85CD00 		jne	.L354
 2190      0000
 2191              	.L329:
 2192 00cb 498B06   		movq	(%r14), %rax
 2193 00ce 488D78E8 		leaq	-24(%rax), %rdi
 2194 00d2 4881FF00 		cmpq	$_ZNSs4_Rep20_S_empty_rep_storageE, %rdi
 2194      000000
 2195 00d9 0F858100 		jne	.L355
 2195      0000
 2196              	.L334:
 2197 00df 4983C638 		addq	$56, %r14
 2198 00e3 4D39F4   		cmpq	%r14, %r12
 2199 00e6 0F8544FF 		jne	.L338
 2199      FFFF
 2200 00ec 4D8B6500 		movq	0(%r13), %r12
 2201              	.L309:
 2202 00f0 4D85E4   		testq	%r12, %r12
 2203 00f3 7408     		je	.L308
 2204 00f5 4C89E7   		movq	%r12, %rdi
 2205 00f8 E8000000 		call	_ZdlPv
 2205      00
 2206              	.L308:
 2207 00fd 488B4424 		movq	8(%rsp), %rax
 2207      08
 2208 0102 64483304 		xorq	%fs:40, %rax
 2208      25280000 
 2208      00
 2209 010b 0F850E01 		jne	.L356
 2209      0000
 2210 0111 4883C410 		addq	$16, %rsp
 2211              		.cfi_remember_state
 2212              		.cfi_def_cfa_offset 48
 2213 0115 5B       		popq	%rbx
 2214              		.cfi_def_cfa_offset 40
 2215 0116 5D       		popq	%rbp
 2216              		.cfi_def_cfa_offset 32
 2217 0117 415C     		popq	%r12
 2218              		.cfi_def_cfa_offset 24
 2219 0119 415D     		popq	%r13
 2220              		.cfi_def_cfa_offset 16
 2221 011b 415E     		popq	%r14
 2222              		.cfi_def_cfa_offset 8
 2223 011d C3       		ret
 2224 011e 6690     		.p2align 4,,10
 2225              		.p2align 3
 2226              	.L357:
 2227              		.cfi_restore_state
 2228 0120 8B50F8   		movl	-8(%rax), %edx
 2229 0123 8D4AFF   		leal	-1(%rdx), %ecx
 2230 0126 85D2     		testl	%edx, %edx
 2231 0128 8948F8   		movl	%ecx, -8(%rax)
 2232 012b 7F13     		jg	.L314
 2233 012d 488D7424 		leaq	7(%rsp), %rsi
 2233      07
 2234 0132 E8000000 		call	_ZNSs4_Rep10_M_destroyERKSaIcE
 2234      00
 2235 0137 660F1F84 		.p2align 4,,10
 2235      00000000 
 2235      00
 2236              		.p2align 3
 2237              	.L314:
 2238 0140 4883C310 		addq	$16, %rbx
 2239 0144 4839DD   		cmpq	%rbx, %rbp
 2240 0147 0F8443FF 		je	.L317
 2240      FFFF
 2241              	.L316:
 2242 014d 488B4308 		movq	8(%rbx), %rax
 2243 0151 488D78E8 		leaq	-24(%rax), %rdi
 2244 0155 4881FF00 		cmpq	$_ZNSs4_Rep20_S_empty_rep_storageE, %rdi
 2244      000000
 2245 015c 74E2     		je	.L314
 2246 015e EBC0     		jmp	.L357
 2247              		.p2align 4,,10
 2248              		.p2align 3
 2249              	.L355:
 2250 0160 BA000000 		movl	$_ZL28__gthrw___pthread_key_createPjPFvPvE, %edx
 2250      00
 2251 0165 4885D2   		testq	%rdx, %rdx
 2252 0168 0F84A100 		je	.L335
 2252      0000
 2253 016e BAFFFFFF 		movl	$-1, %edx
 2253      FF
 2254 0173 F00FC150 		lock xaddl	%edx, -8(%rax)
 2254      F8
 2255 0178 89D0     		movl	%edx, %eax
 2256              	.L336:
 2257 017a 85C0     		testl	%eax, %eax
 2258 017c 0F8F5DFF 		jg	.L334
 2258      FFFF
 2259 0182 488D7424 		leaq	7(%rsp), %rsi
 2259      07
 2260 0187 E8000000 		call	_ZNSs4_Rep10_M_destroyERKSaIcE
 2260      00
 2261 018c E94EFFFF 		jmp	.L334
 2261      FF
 2262              		.p2align 4,,10
 2263 0191 0F1F8000 		.p2align 3
 2263      000000
 2264              	.L354:
 2265 0198 BA000000 		movl	$_ZL28__gthrw___pthread_key_createPjPFvPvE, %edx
 2265      00
 2266 019d 4885D2   		testq	%rdx, %rdx
 2267 01a0 7460     		je	.L330
 2268 01a2 BAFFFFFF 		movl	$-1, %edx
 2268      FF
 2269 01a7 F00FC150 		lock xaddl	%edx, -8(%rax)
 2269      F8
 2270 01ac 89D0     		movl	%edx, %eax
 2271              	.L331:
 2272 01ae 85C0     		testl	%eax, %eax
 2273 01b0 0F8F15FF 		jg	.L329
 2273      FFFF
 2274 01b6 488D7424 		leaq	7(%rsp), %rsi
 2274      07
 2275 01bb E8000000 		call	_ZNSs4_Rep10_M_destroyERKSaIcE
 2275      00
 2276 01c0 E906FFFF 		jmp	.L329
 2276      FF
 2277              		.p2align 4,,10
 2278 01c5 0F1F00   		.p2align 3
 2279              	.L353:
 2280 01c8 BA000000 		movl	$_ZL28__gthrw___pthread_key_createPjPFvPvE, %edx
 2280      00
 2281 01cd 4885D2   		testq	%rdx, %rdx
 2282 01d0 7423     		je	.L325
 2283 01d2 BAFFFFFF 		movl	$-1, %edx
 2283      FF
 2284 01d7 F00FC150 		lock xaddl	%edx, -8(%rax)
 2284      F8
 2285 01dc 89D0     		movl	%edx, %eax
 2286              	.L326:
 2287 01de 85C0     		testl	%eax, %eax
 2288 01e0 0F8FD0FE 		jg	.L324
 2288      FFFF
 2289 01e6 488D7424 		leaq	7(%rsp), %rsi
 2289      07
 2290 01eb E8000000 		call	_ZNSs4_Rep10_M_destroyERKSaIcE
 2290      00
 2291 01f0 E9C1FEFF 		jmp	.L324
 2291      FF
 2292              	.L325:
 2293 01f5 8B50F8   		movl	-8(%rax), %edx
 2294 01f8 8D4AFF   		leal	-1(%rdx), %ecx
 2295 01fb 8948F8   		movl	%ecx, -8(%rax)
 2296 01fe 89D0     		movl	%edx, %eax
 2297 0200 EBDC     		jmp	.L326
 2298              	.L330:
 2299 0202 8B50F8   		movl	-8(%rax), %edx
 2300 0205 8D4AFF   		leal	-1(%rdx), %ecx
 2301 0208 8948F8   		movl	%ecx, -8(%rax)
 2302 020b 89D0     		movl	%edx, %eax
 2303 020d EB9F     		jmp	.L331
 2304              	.L335:
 2305 020f 8B50F8   		movl	-8(%rax), %edx
 2306 0212 8D4AFF   		leal	-1(%rdx), %ecx
 2307 0215 8948F8   		movl	%ecx, -8(%rax)
 2308 0218 89D0     		movl	%edx, %eax
 2309 021a E95BFFFF 		jmp	.L336
 2309      FF
 2310              	.L356:
 2311 021f E8000000 		call	__stack_chk_fail
 2311      00
 2312              		.cfi_endproc
 2313              	.LFE1508:
 2315              		.section	.text.unlikely._ZNSt6vectorIN8UnitTest18DeferredTestResultESaIS1_EED2Ev,"axG",@progbits,_
 2316              	.LCOLDE38:
 2317              		.section	.text._ZNSt6vectorIN8UnitTest18DeferredTestResultESaIS1_EED2Ev,"axG",@progbits,_ZNSt6vect
 2318              	.LHOTE38:
 2319              		.weak	_ZNSt6vectorIN8UnitTest18DeferredTestResultESaIS1_EED1Ev
 2320              		.set	_ZNSt6vectorIN8UnitTest18DeferredTestResultESaIS1_EED1Ev,_ZNSt6vectorIN8UnitTest18DeferredTes
 2321              		.section	.rodata.str1.1
 2322              	.LC39:
 2323 0067 556E6971 		.string	"UniqueTestName"
 2323      75655465 
 2323      73744E61 
 2323      6D6500
 2324              	.LC40:
 2325 0076 556E6971 		.string	"UniqueTestSuite"
 2325      75655465 
 2325      73745375 
 2325      69746500 
 2326              	.LC41:
 2327 0086 66696C65 		.string	"filename.h"
 2327      6E616D65 
 2327      2E6800
 2328              		.section	.rodata.str1.8
 2329              		.align 8
 2330              	.LC42:
 2331 0090 556E6861 		.string	"Unhandled exception while destroying fixture DeferredTestReporterFixture"
 2331      6E646C65 
 2331      64206578 
 2331      63657074 
 2331      696F6E20 
 2332 00d9 00000000 		.align 8
 2332      000000
 2333              	.LC43:
 2334 00e0 556E6861 		.string	"Unhandled exception while constructing fixture DeferredTestReporterFixture"
 2334      6E646C65 
 2334      64206578 
 2334      63657074 
 2334      696F6E20 
 2335              		.section	.text.unlikely
 2336 0281 90       		.align 2
 2337              	.LCOLDB44:
 2338              		.text
 2339              	.LHOTB44:
 2340              		.align 2
 2341 0c54 6690662E 		.p2align 4,,15
 2341      0F1F8400 
 2341      00000000 
 2343              	_ZNK8UnitTest12_GLOBAL__N_160TestDeferredTestReporterFixtureReportTestEndCapturesTestTime7RunImplEv
 2344              	.LFB1437:
 2345              		.cfi_startproc
 2346              		.cfi_personality 0x3,__gxx_personality_v0
 2347              		.cfi_lsda 0x3,.LLSDA1437
 2348 0c60 4157     		pushq	%r15
 2349              		.cfi_def_cfa_offset 16
 2350              		.cfi_offset 15, -16
 2351 0c62 4156     		pushq	%r14
 2352              		.cfi_def_cfa_offset 24
 2353              		.cfi_offset 14, -24
 2354 0c64 BE000000 		movl	$.LC39, %esi
 2354      00
 2355 0c69 4155     		pushq	%r13
 2356              		.cfi_def_cfa_offset 32
 2357              		.cfi_offset 13, -32
 2358 0c6b 4154     		pushq	%r12
 2359              		.cfi_def_cfa_offset 40
 2360              		.cfi_offset 12, -40
 2361 0c6d 4C8D6F08 		leaq	8(%rdi), %r13
 2362 0c71 55       		pushq	%rbp
 2363              		.cfi_def_cfa_offset 48
 2364              		.cfi_offset 6, -48
 2365 0c72 53       		pushq	%rbx
 2366              		.cfi_def_cfa_offset 56
 2367              		.cfi_offset 3, -56
 2368 0c73 4881EC08 		subq	$520, %rsp
 2368      020000
 2369              		.cfi_def_cfa_offset 576
 2370 0c7a 488D4424 		leaq	32(%rsp), %rax
 2370      20
 2371 0c7f 48897C24 		movq	%rdi, 8(%rsp)
 2371      08
 2372 0c84 48C74424 		movq	$0, 40(%rsp)
 2372      28000000 
 2372      00
 2373 0c8d 64488B14 		movq	%fs:40, %rdx
 2373      25280000 
 2373      00
 2374 0c96 48899424 		movq	%rdx, 504(%rsp)
 2374      F8010000 
 2375 0c9e 31D2     		xorl	%edx, %edx
 2376 0ca0 488D7820 		leaq	32(%rax), %rdi
 2377 0ca4 488D5424 		leaq	31(%rsp), %rdx
 2377      1F
 2378 0ca9 48C74424 		movq	$0, 48(%rsp)
 2378      30000000 
 2378      00
 2379 0cb2 48C74424 		movq	$0, 56(%rsp)
 2379      38000000 
 2379      00
 2380 0cbb 48C74424 		movq	$_ZTVN8UnitTest12_GLOBAL__N_124MockDeferredTestReporterE+16, 32(%rsp)
 2380      20000000 
 2380      00
 2381              	.LEHB24:
 2382 0cc4 E8000000 		call	_ZNSsC1EPKcRKSaIcE
 2382      00
 2383              	.LEHE24:
 2384 0cc9 488D4424 		leaq	32(%rsp), %rax
 2384      20
 2385 0cce 488D5424 		leaq	31(%rsp), %rdx
 2385      1F
 2386 0cd3 BE000000 		movl	$.LC40, %esi
 2386      00
 2387 0cd8 488D7828 		leaq	40(%rax), %rdi
 2388              	.LEHB25:
 2389 0cdc E8000000 		call	_ZNSsC1EPKcRKSaIcE
 2389      00
 2390              	.LEHE25:
 2391 0ce1 488D4424 		leaq	32(%rsp), %rax
 2391      20
 2392 0ce6 488D5424 		leaq	31(%rsp), %rdx
 2392      1F
 2393 0ceb BE000000 		movl	$.LC41, %esi
 2393      00
 2394 0cf0 488D7830 		leaq	48(%rax), %rdi
 2395              	.LEHB26:
 2396 0cf4 E8000000 		call	_ZNSsC1EPKcRKSaIcE
 2396      00
 2397              	.LEHE26:
 2398 0cf9 488D4424 		leaq	32(%rsp), %rax
 2398      20
 2399 0cfe 488B4C24 		movq	80(%rsp), %rcx
 2399      50
 2400 0d03 488B5424 		movq	72(%rsp), %rdx
 2400      48
 2401 0d08 488B7424 		movq	64(%rsp), %rsi
 2401      40
 2402 0d0d 41B80C00 		movl	$12, %r8d
 2402      0000
 2403 0d13 C7442458 		movl	$12, 88(%rsp)
 2403      0C000000 
 2404 0d1b 488D7840 		leaq	64(%rax), %rdi
 2405              	.LEHB27:
 2406 0d1f E8000000 		call	_ZN8UnitTest11TestDetailsC1EPKcS2_S2_i
 2406      00
 2407              	.LEHE27:
 2408 0d24 488D7C24 		leaq	32(%rsp), %rdi
 2408      20
 2409 0d29 4C89EE   		movq	%r13, %rsi
 2410 0d2c 4C89AC24 		movq	%r13, 128(%rsp)
 2410      80000000 
 2411              	.LEHB28:
 2412 0d34 E897F8FF 		call	_ZN8UnitTest11ExecuteTestINS_12_GLOBAL__N_162DeferredTestReporterFixtureReportTestEndCaptures
 2412      FF
 2413              	.LEHE28:
 2414 0d39 488B4424 		movq	80(%rsp), %rax
 2414      50
 2415 0d3e 488D78E8 		leaq	-24(%rax), %rdi
 2416 0d42 4881FF00 		cmpq	$_ZNSs4_Rep20_S_empty_rep_storageE, %rdi
 2416      000000
 2417 0d49 0F857402 		jne	.L465
 2417      0000
 2418              	.L369:
 2419 0d4f 488B4424 		movq	72(%rsp), %rax
 2419      48
 2420 0d54 488D78E8 		leaq	-24(%rax), %rdi
 2421 0d58 4881FF00 		cmpq	$_ZNSs4_Rep20_S_empty_rep_storageE, %rdi
 2421      000000
 2422 0d5f 0F858B02 		jne	.L466
 2422      0000
 2423              	.L374:
 2424 0d65 488B4424 		movq	64(%rsp), %rax
 2424      40
 2425 0d6a 488D78E8 		leaq	-24(%rax), %rdi
 2426 0d6e 4881FF00 		cmpq	$_ZNSs4_Rep20_S_empty_rep_storageE, %rdi
 2426      000000
 2427 0d75 0F851702 		jne	.L467
 2427      0000
 2428              	.L379:
 2429 0d7b 488B6C24 		movq	48(%rsp), %rbp
 2429      30
 2430 0d80 4C8B7424 		movq	40(%rsp), %r14
 2430      28
 2431 0d85 48C74424 		movq	$_ZTVN8UnitTest20DeferredTestReporterE+16, 32(%rsp)
 2431      20000000 
 2431      00
 2432 0d8e 4C39F5   		cmpq	%r14, %rbp
 2433 0d91 0F84CA00 		je	.L383
 2433      0000
 2434 0d97 41BC0000 		movl	$_ZL28__gthrw___pthread_key_createPjPFvPvE, %r12d
 2434      0000
 2435 0d9d 0F1F00   		.p2align 4,,10
 2436              		.p2align 3
 2437              	.L412:
 2438 0da0 4D8B7E20 		movq	32(%r14), %r15
 2439 0da4 498B5E18 		movq	24(%r14), %rbx
 2440 0da8 4939DF   		cmpq	%rbx, %r15
 2441 0dab 7457     		je	.L384
 2442 0dad 4D85E4   		testq	%r12, %r12
 2443 0db0 7517     		jne	.L448
 2444 0db2 E9160100 		jmp	.L390
 2444      00
 2445 0db7 660F1F84 		.p2align 4,,10
 2445      00000000 
 2445      00
 2446              		.p2align 3
 2447              	.L393:
 2448 0dc0 4883C310 		addq	$16, %rbx
 2449 0dc4 4939DF   		cmpq	%rbx, %r15
 2450 0dc7 7437     		je	.L391
 2451              	.L448:
 2452 0dc9 488B4308 		movq	8(%rbx), %rax
 2453 0dcd 488D78E8 		leaq	-24(%rax), %rdi
 2454 0dd1 4881FF00 		cmpq	$_ZNSs4_Rep20_S_empty_rep_storageE, %rdi
 2454      000000
 2455 0dd8 74E6     		je	.L393
 2456 0dda B9FFFFFF 		movl	$-1, %ecx
 2456      FF
 2457 0ddf F00FC148 		lock xaddl	%ecx, -8(%rax)
 2457      F8
 2458 0de4 85C9     		testl	%ecx, %ecx
 2459 0de6 7FD8     		jg	.L393
 2460 0de8 488D7424 		leaq	31(%rsp), %rsi
 2460      1F
 2461 0ded 4883C310 		addq	$16, %rbx
 2462 0df1 E8000000 		call	_ZNSs4_Rep10_M_destroyERKSaIcE
 2462      00
 2463 0df6 4939DF   		cmpq	%rbx, %r15
 2464 0df9 75CE     		jne	.L448
 2465 0dfb 0F1F4400 		.p2align 4,,10
 2465      00
 2466              		.p2align 3
 2467              	.L391:
 2468 0e00 4D8B7E18 		movq	24(%r14), %r15
 2469              	.L384:
 2470 0e04 4D85FF   		testq	%r15, %r15
 2471 0e07 7408     		je	.L396
 2472 0e09 4C89FF   		movq	%r15, %rdi
 2473 0e0c E8000000 		call	_ZdlPv
 2473      00
 2474              	.L396:
 2475 0e11 498B4610 		movq	16(%r14), %rax
 2476 0e15 488D78E8 		leaq	-24(%rax), %rdi
 2477 0e19 4881FF00 		cmpq	$_ZNSs4_Rep20_S_empty_rep_storageE, %rdi
 2477      000000
 2478 0e20 0F851A01 		jne	.L468
 2478      0000
 2479              	.L398:
 2480 0e26 498B4608 		movq	8(%r14), %rax
 2481 0e2a 488D78E8 		leaq	-24(%rax), %rdi
 2482 0e2e 4881FF00 		cmpq	$_ZNSs4_Rep20_S_empty_rep_storageE, %rdi
 2482      000000
 2483 0e35 0F85D500 		jne	.L469
 2483      0000
 2484              	.L403:
 2485 0e3b 498B06   		movq	(%r14), %rax
 2486 0e3e 488D78E8 		leaq	-24(%rax), %rdi
 2487 0e42 4881FF00 		cmpq	$_ZNSs4_Rep20_S_empty_rep_storageE, %rdi
 2487      000000
 2488 0e49 0F859100 		jne	.L470
 2488      0000
 2489              	.L408:
 2490 0e4f 4983C638 		addq	$56, %r14
 2491 0e53 4C39F5   		cmpq	%r14, %rbp
 2492 0e56 0F8544FF 		jne	.L412
 2492      FFFF
 2493 0e5c 488B6C24 		movq	40(%rsp), %rbp
 2493      28
 2494              	.L383:
 2495 0e61 4885ED   		testq	%rbp, %rbp
 2496 0e64 7408     		je	.L413
 2497 0e66 4889EF   		movq	%rbp, %rdi
 2498 0e69 E8000000 		call	_ZdlPv
 2498      00
 2499              	.L413:
 2500 0e6e 488D7C24 		leaq	32(%rsp), %rdi
 2500      20
 2501              	.LEHB29:
 2502 0e73 E8000000 		call	_ZN8UnitTest12TestReporterD2Ev
 2502      00
 2503              	.LEHE29:
 2504              	.L358:
 2505 0e78 488B8424 		movq	504(%rsp), %rax
 2505      F8010000 
 2506 0e80 64483304 		xorq	%fs:40, %rax
 2506      25280000 
 2506      00
 2507 0e89 0F85F903 		jne	.L471
 2507      0000
 2508 0e8f 4881C408 		addq	$520, %rsp
 2508      020000
 2509              		.cfi_remember_state
 2510              		.cfi_def_cfa_offset 56
 2511 0e96 5B       		popq	%rbx
 2512              		.cfi_def_cfa_offset 48
 2513 0e97 5D       		popq	%rbp
 2514              		.cfi_def_cfa_offset 40
 2515 0e98 415C     		popq	%r12
 2516              		.cfi_def_cfa_offset 32
 2517 0e9a 415D     		popq	%r13
 2518              		.cfi_def_cfa_offset 24
 2519 0e9c 415E     		popq	%r14
 2520              		.cfi_def_cfa_offset 16
 2521 0e9e 415F     		popq	%r15
 2522              		.cfi_def_cfa_offset 8
 2523 0ea0 C3       		ret
 2524              		.p2align 4,,10
 2525 0ea1 0F1F8000 		.p2align 3
 2525      000000
 2526              	.L472:
 2527              		.cfi_restore_state
 2528 0ea8 8B48F8   		movl	-8(%rax), %ecx
 2529 0eab 8D71FF   		leal	-1(%rcx), %esi
 2530 0eae 85C9     		testl	%ecx, %ecx
 2531 0eb0 8970F8   		movl	%esi, -8(%rax)
 2532 0eb3 7F0B     		jg	.L388
 2533 0eb5 488D7424 		leaq	31(%rsp), %rsi
 2533      1F
 2534 0eba E8000000 		call	_ZNSs4_Rep10_M_destroyERKSaIcE
 2534      00
 2535 0ebf 90       		.p2align 4,,10
 2536              		.p2align 3
 2537              	.L388:
 2538 0ec0 4883C310 		addq	$16, %rbx
 2539 0ec4 4939DF   		cmpq	%rbx, %r15
 2540 0ec7 0F8433FF 		je	.L391
 2540      FFFF
 2541              	.L390:
 2542 0ecd 488B4308 		movq	8(%rbx), %rax
 2543 0ed1 488D78E8 		leaq	-24(%rax), %rdi
 2544 0ed5 4881FF00 		cmpq	$_ZNSs4_Rep20_S_empty_rep_storageE, %rdi
 2544      000000
 2545 0edc 74E2     		je	.L388
 2546 0ede EBC8     		jmp	.L472
 2547              		.p2align 4,,10
 2548              		.p2align 3
 2549              	.L470:
 2550 0ee0 4D85E4   		testq	%r12, %r12
 2551 0ee3 0F847F00 		je	.L409
 2551      0000
 2552 0ee9 B9FFFFFF 		movl	$-1, %ecx
 2552      FF
 2553 0eee F00FC148 		lock xaddl	%ecx, -8(%rax)
 2553      F8
 2554 0ef3 89C8     		movl	%ecx, %eax
 2555              	.L410:
 2556 0ef5 85C0     		testl	%eax, %eax
 2557 0ef7 0F8F52FF 		jg	.L408
 2557      FFFF
 2558 0efd 488D7424 		leaq	31(%rsp), %rsi
 2558      1F
 2559 0f02 E8000000 		call	_ZNSs4_Rep10_M_destroyERKSaIcE
 2559      00
 2560 0f07 E943FFFF 		jmp	.L408
 2560      FF
 2561 0f0c 0F1F4000 		.p2align 4,,10
 2562              		.p2align 3
 2563              	.L469:
 2564 0f10 4D85E4   		testq	%r12, %r12
 2565 0f13 7470     		je	.L404
 2566 0f15 B9FFFFFF 		movl	$-1, %ecx
 2566      FF
 2567 0f1a F00FC148 		lock xaddl	%ecx, -8(%rax)
 2567      F8
 2568 0f1f 89C8     		movl	%ecx, %eax
 2569              	.L405:
 2570 0f21 85C0     		testl	%eax, %eax
 2571 0f23 0F8F12FF 		jg	.L403
 2571      FFFF
 2572 0f29 488D7424 		leaq	31(%rsp), %rsi
 2572      1F
 2573 0f2e E8000000 		call	_ZNSs4_Rep10_M_destroyERKSaIcE
 2573      00
 2574 0f33 E903FFFF 		jmp	.L403
 2574      FF
 2575 0f38 0F1F8400 		.p2align 4,,10
 2575      00000000 
 2576              		.p2align 3
 2577              	.L468:
 2578 0f40 4D85E4   		testq	%r12, %r12
 2579 0f43 7433     		je	.L399
 2580 0f45 B9FFFFFF 		movl	$-1, %ecx
 2580      FF
 2581 0f4a F00FC148 		lock xaddl	%ecx, -8(%rax)
 2581      F8
 2582 0f4f 89C8     		movl	%ecx, %eax
 2583              	.L400:
 2584 0f51 85C0     		testl	%eax, %eax
 2585 0f53 0F8FCDFE 		jg	.L398
 2585      FFFF
 2586 0f59 488D7424 		leaq	31(%rsp), %rsi
 2586      1F
 2587 0f5e E8000000 		call	_ZNSs4_Rep10_M_destroyERKSaIcE
 2587      00
 2588 0f63 E9BEFEFF 		jmp	.L398
 2588      FF
 2589              	.L409:
 2590 0f68 8B48F8   		movl	-8(%rax), %ecx
 2591 0f6b 8D71FF   		leal	-1(%rcx), %esi
 2592 0f6e 8970F8   		movl	%esi, -8(%rax)
 2593 0f71 89C8     		movl	%ecx, %eax
 2594 0f73 E97DFFFF 		jmp	.L410
 2594      FF
 2595              	.L399:
 2596 0f78 8B48F8   		movl	-8(%rax), %ecx
 2597 0f7b 8D71FF   		leal	-1(%rcx), %esi
 2598 0f7e 8970F8   		movl	%esi, -8(%rax)
 2599 0f81 89C8     		movl	%ecx, %eax
 2600 0f83 EBCC     		jmp	.L400
 2601              	.L404:
 2602 0f85 8B48F8   		movl	-8(%rax), %ecx
 2603 0f88 8D71FF   		leal	-1(%rcx), %esi
 2604 0f8b 8970F8   		movl	%esi, -8(%rax)
 2605 0f8e 89C8     		movl	%ecx, %eax
 2606 0f90 EB8F     		jmp	.L405
 2607              	.L467:
 2608 0f92 BA000000 		movl	$_ZL28__gthrw___pthread_key_createPjPFvPvE, %edx
 2608      00
 2609 0f97 4885D2   		testq	%rdx, %rdx
 2610 0f9a 0F849700 		je	.L380
 2610      0000
 2611 0fa0 BAFFFFFF 		movl	$-1, %edx
 2611      FF
 2612 0fa5 F00FC150 		lock xaddl	%edx, -8(%rax)
 2612      F8
 2613 0faa 89D0     		movl	%edx, %eax
 2614              	.L381:
 2615 0fac 85C0     		testl	%eax, %eax
 2616 0fae 0F8FC7FD 		jg	.L379
 2616      FFFF
 2617 0fb4 488D7424 		leaq	31(%rsp), %rsi
 2617      1F
 2618 0fb9 E8000000 		call	_ZNSs4_Rep10_M_destroyERKSaIcE
 2618      00
 2619 0fbe E9B8FDFF 		jmp	.L379
 2619      FF
 2620              	.L465:
 2621 0fc3 BA000000 		movl	$_ZL28__gthrw___pthread_key_createPjPFvPvE, %edx
 2621      00
 2622 0fc8 4885D2   		testq	%rdx, %rdx
 2623 0fcb 745D     		je	.L370
 2624 0fcd BAFFFFFF 		movl	$-1, %edx
 2624      FF
 2625 0fd2 F00FC150 		lock xaddl	%edx, -8(%rax)
 2625      F8
 2626 0fd7 89D0     		movl	%edx, %eax
 2627              	.L371:
 2628 0fd9 85C0     		testl	%eax, %eax
 2629 0fdb 0F8F6EFD 		jg	.L369
 2629      FFFF
 2630 0fe1 488D7424 		leaq	31(%rsp), %rsi
 2630      1F
 2631 0fe6 E8000000 		call	_ZNSs4_Rep10_M_destroyERKSaIcE
 2631      00
 2632 0feb E95FFDFF 		jmp	.L369
 2632      FF
 2633              	.L466:
 2634 0ff0 BA000000 		movl	$_ZL28__gthrw___pthread_key_createPjPFvPvE, %edx
 2634      00
 2635 0ff5 4885D2   		testq	%rdx, %rdx
 2636 0ff8 7423     		je	.L375
 2637 0ffa BAFFFFFF 		movl	$-1, %edx
 2637      FF
 2638 0fff F00FC150 		lock xaddl	%edx, -8(%rax)
 2638      F8
 2639 1004 89D0     		movl	%edx, %eax
 2640              	.L376:
 2641 1006 85C0     		testl	%eax, %eax
 2642 1008 0F8F57FD 		jg	.L374
 2642      FFFF
 2643 100e 488D7424 		leaq	31(%rsp), %rsi
 2643      1F
 2644 1013 E8000000 		call	_ZNSs4_Rep10_M_destroyERKSaIcE
 2644      00
 2645 1018 E948FDFF 		jmp	.L374
 2645      FF
 2646              	.L375:
 2647 101d 8B50F8   		movl	-8(%rax), %edx
 2648 1020 8D4AFF   		leal	-1(%rdx), %ecx
 2649 1023 8948F8   		movl	%ecx, -8(%rax)
 2650 1026 89D0     		movl	%edx, %eax
 2651 1028 EBDC     		jmp	.L376
 2652              	.L370:
 2653 102a 8B50F8   		movl	-8(%rax), %edx
 2654 102d 8D4AFF   		leal	-1(%rdx), %ecx
 2655 1030 8948F8   		movl	%ecx, -8(%rax)
 2656 1033 89D0     		movl	%edx, %eax
 2657 1035 EBA2     		jmp	.L371
 2658              	.L380:
 2659 1037 8B50F8   		movl	-8(%rax), %edx
 2660 103a 8D4AFF   		leal	-1(%rdx), %ecx
 2661 103d 8948F8   		movl	%ecx, -8(%rax)
 2662 1040 89D0     		movl	%edx, %eax
 2663 1042 E965FFFF 		jmp	.L381
 2663      FF
 2664              	.L428:
 2665 1047 4889C7   		movq	%rax, %rdi
 2666 104a BB010000 		movl	$1, %ebx
 2666      00
 2667              	.L367:
 2668 104f 4883FA01 		cmpq	$1, %rdx
 2669 1053 0F847001 		je	.L418
 2669      0000
 2670 1059 4883FA02 		cmpq	$2, %rdx
 2671 105d 0F852601 		jne	.L473
 2671      0000
 2672 1063 E8000000 		call	__cxa_begin_catch
 2672      00
 2673 1068 488DBC24 		leaq	144(%rsp), %rdi
 2673      90000000 
 2674 1070 4889C3   		movq	%rax, %rbx
 2675              	.LEHB30:
 2676 1073 E8000000 		call	_ZN8UnitTest15MemoryOutStreamC1Ev
 2676      00
 2677              	.LEHE30:
 2678 1078 488B03   		movq	(%rbx), %rax
 2679 107b 4889DF   		movq	%rbx, %rdi
 2680 107e FF5010   		call	*16(%rax)
 2681 1081 488DBC24 		leaq	144(%rsp), %rdi
 2681      90000000 
 2682 1089 BE000000 		movl	$.LC34, %esi
 2682      00
 2683 108e 4889C3   		movq	%rax, %rbx
 2684              	.LEHB31:
 2685 1091 E8000000 		call	_ZStlsISt11char_traitsIcEERSt13basic_ostreamIcT_ES5_PKc
 2685      00
 2686 1096 4889C7   		movq	%rax, %rdi
 2687 1099 4889DE   		movq	%rbx, %rsi
 2688 109c E8000000 		call	_ZStlsISt11char_traitsIcEERSt13basic_ostreamIcT_ES5_PKc
 2688      00
 2689 10a1 488DBC24 		leaq	144(%rsp), %rdi
 2689      90000000 
 2690 10a9 E8000000 		call	_ZNK8UnitTest15MemoryOutStream7GetTextEv
 2690      00
 2691 10ae 4889C3   		movq	%rax, %rbx
 2692 10b1 E8000000 		call	_ZN8UnitTest11CurrentTest7ResultsEv
 2692      00
 2693 10b6 488B38   		movq	(%rax), %rdi
 2694 10b9 4889DA   		movq	%rbx, %rdx
 2695 10bc 4C89EE   		movq	%r13, %rsi
 2696 10bf E8000000 		call	_ZN8UnitTest11TestResults13OnTestFailureERKNS_11TestDetailsEPKc
 2696      00
 2697              	.LEHE31:
 2698 10c4 488DBC24 		leaq	144(%rsp), %rdi
 2698      90000000 
 2699              	.LEHB32:
 2700 10cc E8000000 		call	_ZN8UnitTest15MemoryOutStreamD1Ev
 2700      00
 2701              	.LEHE32:
 2702              	.L460:
 2703 10d1 E8000000 		call	__cxa_end_catch
 2703      00
 2704 10d6 E99DFDFF 		jmp	.L358
 2704      FF
 2705              	.L437:
 2706 10db 4889C3   		movq	%rax, %rbx
 2707 10de 488B4424 		movq	80(%rsp), %rax
 2707      50
 2708 10e3 4889D5   		movq	%rdx, %rbp
 2709 10e6 488D78E8 		leaq	-24(%rax), %rdi
 2710 10ea 4881FF00 		cmpq	$_ZNSs4_Rep20_S_empty_rep_storageE, %rdi
 2710      000000
 2711 10f1 740A     		je	.L362
 2712 10f3 488D7424 		leaq	31(%rsp), %rsi
 2712      1F
 2713 10f8 E8000000 		call	_ZNSs4_Rep10_M_disposeERKSaIcE.part.1
 2713      00
 2714              	.L362:
 2715 10fd 488B4424 		movq	72(%rsp), %rax
 2715      48
 2716 1102 488D78E8 		leaq	-24(%rax), %rdi
 2717 1106 4881FF00 		cmpq	$_ZNSs4_Rep20_S_empty_rep_storageE, %rdi
 2717      000000
 2718 110d 740A     		je	.L364
 2719 110f 488D7424 		leaq	31(%rsp), %rsi
 2719      1F
 2720 1114 E8000000 		call	_ZNSs4_Rep10_M_disposeERKSaIcE.part.1
 2720      00
 2721              	.L364:
 2722 1119 488B4424 		movq	64(%rsp), %rax
 2722      40
 2723 111e 488D78E8 		leaq	-24(%rax), %rdi
 2724 1122 4881FF00 		cmpq	$_ZNSs4_Rep20_S_empty_rep_storageE, %rdi
 2724      000000
 2725 1129 740A     		je	.L366
 2726 112b 488D7424 		leaq	31(%rsp), %rsi
 2726      1F
 2727 1130 E8000000 		call	_ZNSs4_Rep10_M_disposeERKSaIcE.part.1
 2727      00
 2728              	.L366:
 2729 1135 488D7C24 		leaq	40(%rsp), %rdi
 2729      28
 2730 113a 48C74424 		movq	$_ZTVN8UnitTest20DeferredTestReporterE+16, 32(%rsp)
 2730      20000000 
 2730      00
 2731 1143 E8000000 		call	_ZNSt6vectorIN8UnitTest18DeferredTestResultESaIS1_EED1Ev
 2731      00
 2732 1148 488D7C24 		leaq	32(%rsp), %rdi
 2732      20
 2733 114d E8000000 		call	_ZN8UnitTest12TestReporterD2Ev
 2733      00
 2734 1152 4889DF   		movq	%rbx, %rdi
 2735 1155 4889EA   		movq	%rbp, %rdx
 2736 1158 31DB     		xorl	%ebx, %ebx
 2737 115a E9F0FEFF 		jmp	.L367
 2737      FF
 2738              	.L436:
 2739 115f 4889C3   		movq	%rax, %rbx
 2740 1162 4889D5   		movq	%rdx, %rbp
 2741 1165 EB96     		jmp	.L362
 2742              	.L432:
 2743 1167 488DBC24 		leaq	144(%rsp), %rdi
 2743      90000000 
 2744 116f 4889C3   		movq	%rax, %rbx
 2745 1172 E8000000 		call	_ZN8UnitTest15MemoryOutStreamD1Ev
 2745      00
 2746              	.L422:
 2747 1177 E8000000 		call	__cxa_end_catch
 2747      00
 2748 117c 4889DF   		movq	%rbx, %rdi
 2749              	.LEHB33:
 2750 117f E8000000 		call	_Unwind_Resume
 2750      00
 2751              	.LEHE33:
 2752              	.L431:
 2753              	.L461:
 2754 1184 4889C3   		movq	%rax, %rbx
 2755 1187 EBEE     		jmp	.L422
 2756              	.L473:
 2757 1189 E8000000 		call	__cxa_begin_catch
 2757      00
 2758 118e 84DB     		testb	%bl, %bl
 2759 1190 BA3D0000 		movl	$61, %edx
 2759      00
 2760 1195 4C89EE   		movq	%r13, %rsi
 2761 1198 488D7C24 		leaq	32(%rsp), %rdi
 2761      20
 2762 119d 0F849400 		je	.L425
 2762      0000
 2763              	.LEHB34:
 2764 11a3 E8000000 		call	_ZN8UnitTest11TestDetailsC1ERKS0_i
 2764      00
 2765 11a8 E8000000 		call	_ZN8UnitTest11CurrentTest7ResultsEv
 2765      00
 2766 11ad 488B38   		movq	(%rax), %rdi
 2767 11b0 488D7424 		leaq	32(%rsp), %rsi
 2767      20
 2768 11b5 BA000000 		movl	$.LC42, %edx
 2768      00
 2769 11ba E8000000 		call	_ZN8UnitTest11TestResults13OnTestFailureERKNS_11TestDetailsEPKc
 2769      00
 2770              	.LEHE34:
 2771              	.L426:
 2772              	.LEHB35:
 2773 11bf E8000000 		call	__cxa_end_catch
 2773      00
 2774              	.LEHE35:
 2775 11c4 E9AFFCFF 		jmp	.L358
 2775      FF
 2776              	.L418:
 2777 11c9 E8000000 		call	__cxa_begin_catch
 2777      00
 2778 11ce 4889C3   		movq	%rax, %rbx
 2779 11d1 488B00   		movq	(%rax), %rax
 2780 11d4 4889DF   		movq	%rbx, %rdi
 2781 11d7 FF5010   		call	*16(%rax)
 2782 11da 4889DF   		movq	%rbx, %rdi
 2783 11dd 4889C5   		movq	%rax, %rbp
 2784              	.LEHB36:
 2785 11e0 E8000000 		call	_ZNK8UnitTest15AssertException10LineNumberEv
 2785      00
 2786 11e5 4889DF   		movq	%rbx, %rdi
 2787 11e8 4189C4   		movl	%eax, %r12d
 2788 11eb E8000000 		call	_ZNK8UnitTest15AssertException8FilenameEv
 2788      00
 2789 11f0 488B7424 		movq	8(%rsp), %rsi
 2789      08
 2790 11f5 488D7C24 		leaq	32(%rsp), %rdi
 2790      20
 2791 11fa 4589E0   		movl	%r12d, %r8d
 2792 11fd 4889C1   		movq	%rax, %rcx
 2793 1200 488B5608 		movq	8(%rsi), %rdx
 2794 1204 488B7610 		movq	16(%rsi), %rsi
 2795 1208 E8000000 		call	_ZN8UnitTest11TestDetailsC1EPKcS2_S2_i
 2795      00
 2796 120d E8000000 		call	_ZN8UnitTest11CurrentTest7ResultsEv
 2796      00
 2797 1212 488B38   		movq	(%rax), %rdi
 2798 1215 488D7424 		leaq	32(%rsp), %rsi
 2798      20
 2799 121a 4889EA   		movq	%rbp, %rdx
 2800 121d E8000000 		call	_ZN8UnitTest11TestResults13OnTestFailureERKNS_11TestDetailsEPKc
 2800      00
 2801              	.LEHE36:
 2802 1222 E9AAFEFF 		jmp	.L460
 2802      FF
 2803              	.L433:
 2804 1227 4889C3   		movq	%rax, %rbx
 2805 122a E8000000 		call	__cxa_end_catch
 2805      00
 2806 122f 4889DF   		movq	%rbx, %rdi
 2807              	.LEHB37:
 2808 1232 E8000000 		call	_Unwind_Resume
 2808      00
 2809              	.LEHE37:
 2810              	.L425:
 2811              	.LEHB38:
 2812 1237 E8000000 		call	_ZN8UnitTest11TestDetailsC1ERKS0_i
 2812      00
 2813 123c E8000000 		call	_ZN8UnitTest11CurrentTest7ResultsEv
 2813      00
 2814 1241 488B38   		movq	(%rax), %rdi
 2815 1244 488D7424 		leaq	32(%rsp), %rsi
 2815      20
 2816 1249 BA000000 		movl	$.LC43, %edx
 2816      00
 2817 124e E8000000 		call	_ZN8UnitTest11TestResults13OnTestFailureERKNS_11TestDetailsEPKc
 2817      00
 2818              	.LEHE38:
 2819 1253 E967FFFF 		jmp	.L426
 2819      FF
 2820              	.L430:
 2821 1258 E927FFFF 		jmp	.L461
 2821      FF
 2822              	.L435:
 2823 125d 4889C3   		movq	%rax, %rbx
 2824 1260 4889D5   		movq	%rdx, %rbp
 2825 1263 E9B1FEFF 		jmp	.L364
 2825      FF
 2826              	.L429:
 2827 1268 488D7C24 		leaq	32(%rsp), %rdi
 2827      20
 2828 126d 4889C3   		movq	%rax, %rbx
 2829 1270 4889D5   		movq	%rdx, %rbp
 2830 1273 E8000000 		call	_ZN8UnitTest12_GLOBAL__N_127DeferredTestReporterFixtureD2Ev
 2830      00
 2831 1278 4889DF   		movq	%rbx, %rdi
 2832 127b 4889EA   		movq	%rbp, %rdx
 2833 127e BB010000 		movl	$1, %ebx
 2833      00
 2834 1283 E9C7FDFF 		jmp	.L367
 2834      FF
 2835              	.L471:
 2836 1288 E8000000 		call	__stack_chk_fail
 2836      00
 2837              	.L434:
 2838 128d 4889C3   		movq	%rax, %rbx
 2839 1290 4889D5   		movq	%rdx, %rbp
 2840 1293 E99DFEFF 		jmp	.L366
 2840      FF
 2841              		.cfi_endproc
 2842              	.LFE1437:
 2843              		.section	.gcc_except_table
 2844              		.align 4
 2845              	.LLSDA1437:
 2846 0094 FF       		.byte	0xff
 2847 0095 03       		.byte	0x3
 2848 0096 6D       		.uleb128 .LLSDATT1437-.LLSDATTD1437
 2849              	.LLSDATTD1437:
 2850 0097 01       		.byte	0x1
 2851 0098 55       		.uleb128 .LLSDACSE1437-.LLSDACSB1437
 2852              	.LLSDACSB1437:
 2853 0099 64       		.uleb128 .LEHB24-.LFB1437
 2854 009a 05       		.uleb128 .LEHE24-.LEHB24
 2855 009b AD0C     		.uleb128 .L434-.LFB1437
 2856 009d 07       		.uleb128 0x7
 2857 009e 7C       		.uleb128 .LEHB25-.LFB1437
 2858 009f 05       		.uleb128 .LEHE25-.LEHB25
 2859 00a0 FD0B     		.uleb128 .L435-.LFB1437
 2860 00a2 07       		.uleb128 0x7
 2861 00a3 9401     		.uleb128 .LEHB26-.LFB1437
 2862 00a5 05       		.uleb128 .LEHE26-.LEHB26
 2863 00a6 FF09     		.uleb128 .L436-.LFB1437
 2864 00a8 07       		.uleb128 0x7
 2865 00a9 BF01     		.uleb128 .LEHB27-.LFB1437
 2866 00ab 05       		.uleb128 .LEHE27-.LEHB27
 2867 00ac FB08     		.uleb128 .L437-.LFB1437
 2868 00ae 07       		.uleb128 0x7
 2869 00af D401     		.uleb128 .LEHB28-.LFB1437
 2870 00b1 05       		.uleb128 .LEHE28-.LEHB28
 2871 00b2 880C     		.uleb128 .L429-.LFB1437
 2872 00b4 07       		.uleb128 0x7
 2873 00b5 9304     		.uleb128 .LEHB29-.LFB1437
 2874 00b7 05       		.uleb128 .LEHE29-.LEHB29
 2875 00b8 E707     		.uleb128 .L428-.LFB1437
 2876 00ba 05       		.uleb128 0x5
 2877 00bb 9308     		.uleb128 .LEHB30-.LFB1437
 2878 00bd 05       		.uleb128 .LEHE30-.LEHB30
 2879 00be A40A     		.uleb128 .L431-.LFB1437
 2880 00c0 00       		.uleb128 0
 2881 00c1 B108     		.uleb128 .LEHB31-.LFB1437
 2882 00c3 33       		.uleb128 .LEHE31-.LEHB31
 2883 00c4 870A     		.uleb128 .L432-.LFB1437
 2884 00c6 00       		.uleb128 0
 2885 00c7 EC08     		.uleb128 .LEHB32-.LFB1437
 2886 00c9 05       		.uleb128 .LEHE32-.LEHB32
 2887 00ca A40A     		.uleb128 .L431-.LFB1437
 2888 00cc 00       		.uleb128 0
 2889 00cd 9F0A     		.uleb128 .LEHB33-.LFB1437
 2890 00cf 05       		.uleb128 .LEHE33-.LEHB33
 2891 00d0 00       		.uleb128 0
 2892 00d1 00       		.uleb128 0
 2893 00d2 C30A     		.uleb128 .LEHB34-.LFB1437
 2894 00d4 1C       		.uleb128 .LEHE34-.LEHB34
 2895 00d5 C70B     		.uleb128 .L433-.LFB1437
 2896 00d7 00       		.uleb128 0
 2897 00d8 DF0A     		.uleb128 .LEHB35-.LFB1437
 2898 00da 05       		.uleb128 .LEHE35-.LEHB35
 2899 00db 00       		.uleb128 0
 2900 00dc 00       		.uleb128 0
 2901 00dd 800B     		.uleb128 .LEHB36-.LFB1437
 2902 00df 42       		.uleb128 .LEHE36-.LEHB36
 2903 00e0 F80B     		.uleb128 .L430-.LFB1437
 2904 00e2 00       		.uleb128 0
 2905 00e3 D20B     		.uleb128 .LEHB37-.LFB1437
 2906 00e5 05       		.uleb128 .LEHE37-.LEHB37
 2907 00e6 00       		.uleb128 0
 2908 00e7 00       		.uleb128 0
 2909 00e8 D70B     		.uleb128 .LEHB38-.LFB1437
 2910 00ea 1C       		.uleb128 .LEHE38-.LEHB38
 2911 00eb C70B     		.uleb128 .L433-.LFB1437
 2912 00ed 00       		.uleb128 0
 2913              	.LLSDACSE1437:
 2914 00ee 03       		.byte	0x3
 2915 00ef 00       		.byte	0
 2916 00f0 02       		.byte	0x2
 2917 00f1 7D       		.byte	0x7d
 2918 00f2 01       		.byte	0x1
 2919 00f3 7D       		.byte	0x7d
 2920 00f4 00       		.byte	0
 2921 00f5 7D       		.byte	0x7d
 2922 00f6 0000     		.align 4
 2923 00f8 00000000 		.long	0
 2924              	
 2925 00fc 00000000 		.long	_ZTISt9exception
 2926 0100 00000000 		.long	_ZTIN8UnitTest15AssertExceptionE
 2927              	.LLSDATT1437:
 2928              		.text
 2930              		.section	.text.unlikely
 2931              	.LCOLDE44:
 2932              		.text
 2933              	.LHOTE44:
 2934              		.section	.text.unlikely._ZN8UnitTest10CheckEqualIiiEEvRNS_11TestResultsERKT_RKT0_RKNS_11TestDetail
 2935              	.LCOLDB45:
 2936              		.section	.text._ZN8UnitTest10CheckEqualIiiEEvRNS_11TestResultsERKT_RKT0_RKNS_11TestDetailsE,"axG",
 2937              	.LHOTB45:
 2938              		.p2align 4,,15
 2939              		.weak	_ZN8UnitTest10CheckEqualIiiEEvRNS_11TestResultsERKT_RKT0_RKNS_11TestDetailsE
 2941              	_ZN8UnitTest10CheckEqualIiiEEvRNS_11TestResultsERKT_RKT0_RKNS_11TestDetailsE:
 2942              	.LFB1519:
 2943              		.cfi_startproc
 2944              		.cfi_personality 0x3,__gxx_personality_v0
 2945              		.cfi_lsda 0x3,.LLSDA1519
 2946 0000 4156     		pushq	%r14
 2947              		.cfi_def_cfa_offset 16
 2948              		.cfi_offset 14, -16
 2949 0002 4155     		pushq	%r13
 2950              		.cfi_def_cfa_offset 24
 2951              		.cfi_offset 13, -24
 2952 0004 4154     		pushq	%r12
 2953              		.cfi_def_cfa_offset 32
 2954              		.cfi_offset 12, -32
 2955 0006 55       		pushq	%rbp
 2956              		.cfi_def_cfa_offset 40
 2957              		.cfi_offset 6, -40
 2958 0007 4889D5   		movq	%rdx, %rbp
 2959 000a 53       		pushq	%rbx
 2960              		.cfi_def_cfa_offset 48
 2961              		.cfi_offset 3, -48
 2962 000b 4889F3   		movq	%rsi, %rbx
 2963 000e 4881EC80 		subq	$384, %rsp
 2963      010000
 2964              		.cfi_def_cfa_offset 432
 2965 0015 64488B04 		movq	%fs:40, %rax
 2965      25280000 
 2965      00
 2966 001e 48898424 		movq	%rax, 376(%rsp)
 2966      78010000 
 2967 0026 31C0     		xorl	%eax, %eax
 2968 0028 8B02     		movl	(%rdx), %eax
 2969 002a 3906     		cmpl	%eax, (%rsi)
 2970 002c 0F84F601 		je	.L474
 2970      0000
 2971 0032 4C8D6424 		leaq	112(%rsp), %r12
 2971      70
 2972 0037 4989FD   		movq	%rdi, %r13
 2973 003a 4989CE   		movq	%rcx, %r14
 2974 003d 4C89E7   		movq	%r12, %rdi
 2975 0040 E8000000 		call	_ZNSt8ios_baseC2Ev
 2975      00
 2976 0045 31F6     		xorl	%esi, %esi
 2977 0047 4C89E7   		movq	%r12, %rdi
 2978 004a 48C78424 		movq	$0, 328(%rsp)
 2978      48010000 
 2978      00000000 
 2979 0056 C6842450 		movb	$0, 336(%rsp)
 2979      01000000 
 2980 005e C6842451 		movb	$0, 337(%rsp)
 2980      01000000 
 2981 0066 48C78424 		movq	$0, 344(%rsp)
 2981      58010000 
 2981      00000000 
 2982 0072 48C78424 		movq	$0, 352(%rsp)
 2982      60010000 
 2982      00000000 
 2983 007e 48C78424 		movq	$0, 360(%rsp)
 2983      68010000 
 2983      00000000 
 2984 008a 48C78424 		movq	$0, 368(%rsp)
 2984      70010000 
 2984      00000000 
 2985 0096 48C74424 		movq	$_ZTCN8UnitTest15MemoryOutStreamE0_So+24, 16(%rsp)
 2985      10000000 
 2985      00
 2986 009f 48C74424 		movq	$_ZTCN8UnitTest15MemoryOutStreamE0_So+64, 112(%rsp)
 2986      70000000 
 2986      00
 2987              	.LEHB39:
 2988 00a8 E8000000 		call	_ZNSt9basic_iosIcSt11char_traitsIcEE4initEPSt15basic_streambufIcS1_E
 2988      00
 2989              	.LEHE39:
 2990 00ad 488D7C24 		leaq	80(%rsp), %rdi
 2990      50
 2991 00b2 48C74424 		movq	$_ZTCN8UnitTest15MemoryOutStreamE0_St19basic_ostringstreamIcSt11char_traitsIcESaIcEE+24, 16(%
 2991      10000000 
 2991      00
 2992 00bb 48C74424 		movq	$_ZTCN8UnitTest15MemoryOutStreamE0_St19basic_ostringstreamIcSt11char_traitsIcESaIcEE+64, 112(
 2992      70000000 
 2992      00
 2993 00c4 48C74424 		movq	$_ZTVSt15basic_streambufIcSt11char_traitsIcEE+16, 24(%rsp)
 2993      18000000 
 2993      00
 2994 00cd 48C74424 		movq	$0, 32(%rsp)
 2994      20000000 
 2994      00
 2995 00d6 48C74424 		movq	$0, 40(%rsp)
 2995      28000000 
 2995      00
 2996 00df 48C74424 		movq	$0, 48(%rsp)
 2996      30000000 
 2996      00
 2997 00e8 48C74424 		movq	$0, 56(%rsp)
 2997      38000000 
 2997      00
 2998 00f1 48C74424 		movq	$0, 64(%rsp)
 2998      40000000 
 2998      00
 2999 00fa 48C74424 		movq	$0, 72(%rsp)
 2999      48000000 
 2999      00
 3000 0103 E8000000 		call	_ZNSt6localeC1Ev
 3000      00
 3001 0108 488B4424 		movq	16(%rsp), %rax
 3001      10
 3002 010d 488D7C24 		leaq	16(%rsp), %rdi
 3002      10
 3003 0112 488D7424 		leaq	24(%rsp), %rsi
 3003      18
 3004 0117 48C74424 		movq	$_ZTVSt15basic_stringbufIcSt11char_traitsIcESaIcEE+16, 24(%rsp)
 3004      18000000 
 3004      00
 3005 0120 C7442458 		movl	$16, 88(%rsp)
 3005      10000000 
 3006 0128 48C74424 		movq	$_ZNSs4_Rep20_S_empty_rep_storageE+24, 96(%rsp)
 3006      60000000 
 3006      00
 3007 0131 480378E8 		addq	-24(%rax), %rdi
 3008              	.LEHB40:
 3009 0135 E8000000 		call	_ZNSt9basic_iosIcSt11char_traitsIcEE4initEPSt15basic_streambufIcS1_E
 3009      00
 3010              	.LEHE40:
 3011 013a 488D7C24 		leaq	16(%rsp), %rdi
 3011      10
 3012 013f BA090000 		movl	$9, %edx
 3012      00
 3013 0144 BE000000 		movl	$.LC28, %esi
 3013      00
 3014 0149 48C74424 		movq	$_ZTVN8UnitTest15MemoryOutStreamE+24, 16(%rsp)
 3014      10000000 
 3014      00
 3015 0152 48C74424 		movq	$_ZTVN8UnitTest15MemoryOutStreamE+64, 112(%rsp)
 3015      70000000 
 3015      00
 3016 015b 48C74424 		movq	$_ZNSs4_Rep20_S_empty_rep_storageE+24, 104(%rsp)
 3016      68000000 
 3016      00
 3017 0164 8B6D00   		movl	0(%rbp), %ebp
 3018 0167 8B1B     		movl	(%rbx), %ebx
 3019              	.LEHB41:
 3020 0169 E8000000 		call	_ZSt16__ostream_insertIcSt11char_traitsIcEERSt13basic_ostreamIT_T0_ES6_PKS3_l
 3020      00
 3021 016e 488D7C24 		leaq	16(%rsp), %rdi
 3021      10
 3022 0173 89DE     		movl	%ebx, %esi
 3023 0175 E8000000 		call	_ZNSolsEi
 3023      00
 3024 017a BA090000 		movl	$9, %edx
 3024      00
 3025 017f BE000000 		movl	$.LC32, %esi
 3025      00
 3026 0184 4889C7   		movq	%rax, %rdi
 3027 0187 4889C3   		movq	%rax, %rbx
 3028 018a E8000000 		call	_ZSt16__ostream_insertIcSt11char_traitsIcEERSt13basic_ostreamIT_T0_ES6_PKS3_l
 3028      00
 3029 018f 89EE     		movl	%ebp, %esi
 3030 0191 4889DF   		movq	%rbx, %rdi
 3031 0194 E8000000 		call	_ZNSolsEi
 3031      00
 3032 0199 488D7C24 		leaq	16(%rsp), %rdi
 3032      10
 3033 019e E8000000 		call	_ZNK8UnitTest15MemoryOutStream7GetTextEv
 3033      00
 3034 01a3 4889C2   		movq	%rax, %rdx
 3035 01a6 4C89F6   		movq	%r14, %rsi
 3036 01a9 4C89EF   		movq	%r13, %rdi
 3037 01ac E8000000 		call	_ZN8UnitTest11TestResults13OnTestFailureERKNS_11TestDetailsEPKc
 3037      00
 3038              	.LEHE41:
 3039 01b1 488B4424 		movq	104(%rsp), %rax
 3039      68
 3040 01b6 48C74424 		movq	$_ZTVN8UnitTest15MemoryOutStreamE+24, 16(%rsp)
 3040      10000000 
 3040      00
 3041 01bf 48C74424 		movq	$_ZTVN8UnitTest15MemoryOutStreamE+64, 112(%rsp)
 3041      70000000 
 3041      00
 3042 01c8 488D78E8 		leaq	-24(%rax), %rdi
 3043 01cc 4881FF00 		cmpq	$_ZNSs4_Rep20_S_empty_rep_storageE, %rdi
 3043      000000
 3044 01d3 757B     		jne	.L500
 3045              	.L481:
 3046 01d5 488B4424 		movq	96(%rsp), %rax
 3046      60
 3047 01da 48C74424 		movq	$_ZTCN8UnitTest15MemoryOutStreamE0_St19basic_ostringstreamIcSt11char_traitsIcESaIcEE+24, 16(%
 3047      10000000 
 3047      00
 3048 01e3 48C74424 		movq	$_ZTCN8UnitTest15MemoryOutStreamE0_St19basic_ostringstreamIcSt11char_traitsIcESaIcEE+64, 112(
 3048      70000000 
 3048      00
 3049 01ec 48C74424 		movq	$_ZTVSt15basic_stringbufIcSt11char_traitsIcESaIcEE+16, 24(%rsp)
 3049      18000000 
 3049      00
 3050 01f5 488D78E8 		leaq	-24(%rax), %rdi
 3051 01f9 4881FF00 		cmpq	$_ZNSs4_Rep20_S_empty_rep_storageE, %rdi
 3051      000000
 3052 0200 757E     		jne	.L501
 3053              	.L486:
 3054 0202 488D7C24 		leaq	80(%rsp), %rdi
 3054      50
 3055 0207 48C74424 		movq	$_ZTVSt15basic_streambufIcSt11char_traitsIcEE+16, 24(%rsp)
 3055      18000000 
 3055      00
 3056 0210 E8000000 		call	_ZNSt6localeD1Ev
 3056      00
 3057 0215 488D7C24 		leaq	112(%rsp), %rdi
 3057      70
 3058 021a 48C74424 		movq	$_ZTVSt9basic_iosIcSt11char_traitsIcEE+16, 112(%rsp)
 3058      70000000 
 3058      00
 3059              	.LEHB42:
 3060 0223 E8000000 		call	_ZNSt8ios_baseD2Ev
 3060      00
 3061              	.LEHE42:
 3062              	.L474:
 3063 0228 488B8424 		movq	376(%rsp), %rax
 3063      78010000 
 3064 0230 64483304 		xorq	%fs:40, %rax
 3064      25280000 
 3064      00
 3065 0239 0F858E00 		jne	.L502
 3065      0000
 3066 023f 4881C480 		addq	$384, %rsp
 3066      010000
 3067              		.cfi_remember_state
 3068              		.cfi_def_cfa_offset 48
 3069 0246 5B       		popq	%rbx
 3070              		.cfi_def_cfa_offset 40
 3071 0247 5D       		popq	%rbp
 3072              		.cfi_def_cfa_offset 32
 3073 0248 415C     		popq	%r12
 3074              		.cfi_def_cfa_offset 24
 3075 024a 415D     		popq	%r13
 3076              		.cfi_def_cfa_offset 16
 3077 024c 415E     		popq	%r14
 3078              		.cfi_def_cfa_offset 8
 3079 024e C3       		ret
 3080 024f 90       		.p2align 4,,10
 3081              		.p2align 3
 3082              	.L500:
 3083              		.cfi_restore_state
 3084 0250 BA000000 		movl	$_ZL28__gthrw___pthread_key_createPjPFvPvE, %edx
 3084      00
 3085 0255 4885D2   		testq	%rdx, %rdx
 3086 0258 7456     		je	.L482
 3087 025a BAFFFFFF 		movl	$-1, %edx
 3087      FF
 3088 025f F00FC150 		lock xaddl	%edx, -8(%rax)
 3088      F8
 3089 0264 89D0     		movl	%edx, %eax
 3090              	.L483:
 3091 0266 85C0     		testl	%eax, %eax
 3092 0268 0F8F67FF 		jg	.L481
 3092      FFFF
 3093 026e 488D7424 		leaq	15(%rsp), %rsi
 3093      0F
 3094 0273 E8000000 		call	_ZNSs4_Rep10_M_destroyERKSaIcE
 3094      00
 3095 0278 E958FFFF 		jmp	.L481
 3095      FF
 3096 027d 0F1F00   		.p2align 4,,10
 3097              		.p2align 3
 3098              	.L501:
 3099 0280 BA000000 		movl	$_ZL28__gthrw___pthread_key_createPjPFvPvE, %edx
 3099      00
 3100 0285 4885D2   		testq	%rdx, %rdx
 3101 0288 7436     		je	.L487
 3102 028a BAFFFFFF 		movl	$-1, %edx
 3102      FF
 3103 028f F00FC150 		lock xaddl	%edx, -8(%rax)
 3103      F8
 3104 0294 89D0     		movl	%edx, %eax
 3105              	.L488:
 3106 0296 85C0     		testl	%eax, %eax
 3107 0298 0F8F64FF 		jg	.L486
 3107      FFFF
 3108 029e 488D7424 		leaq	15(%rsp), %rsi
 3108      0F
 3109 02a3 E8000000 		call	_ZNSs4_Rep10_M_destroyERKSaIcE
 3109      00
 3110 02a8 E955FFFF 		jmp	.L486
 3110      FF
 3111 02ad 0F1F00   		.p2align 4,,10
 3112              		.p2align 3
 3113              	.L482:
 3114 02b0 8B50F8   		movl	-8(%rax), %edx
 3115 02b3 8D4AFF   		leal	-1(%rdx), %ecx
 3116 02b6 8948F8   		movl	%ecx, -8(%rax)
 3117 02b9 89D0     		movl	%edx, %eax
 3118 02bb EBA9     		jmp	.L483
 3119 02bd 0F1F00   		.p2align 4,,10
 3120              		.p2align 3
 3121              	.L487:
 3122 02c0 8B50F8   		movl	-8(%rax), %edx
 3123 02c3 8D4AFF   		leal	-1(%rdx), %ecx
 3124 02c6 8948F8   		movl	%ecx, -8(%rax)
 3125 02c9 89D0     		movl	%edx, %eax
 3126 02cb EBC9     		jmp	.L488
 3127              	.L502:
 3128 02cd E8000000 		call	__stack_chk_fail
 3128      00
 3129              	.L492:
 3130 02d2 4889C3   		movq	%rax, %rbx
 3131 02d5 EB0A     		jmp	.L490
 3132              	.L494:
 3133 02d7 4889C3   		movq	%rax, %rbx
 3134 02da EB17     		jmp	.L477
 3135              	.L493:
 3136 02dc 4889C3   		movq	%rax, %rbx
 3137 02df EB1C     		jmp	.L478
 3138              	.L490:
 3139 02e1 488D7C24 		leaq	16(%rsp), %rdi
 3139      10
 3140 02e6 E8000000 		call	_ZN8UnitTest15MemoryOutStreamD1Ev
 3140      00
 3141 02eb 4889DF   		movq	%rbx, %rdi
 3142              	.LEHB43:
 3143 02ee E8000000 		call	_Unwind_Resume
 3143      00
 3144              	.LEHE43:
 3145              	.L477:
 3146 02f3 488D7C24 		leaq	24(%rsp), %rdi
 3146      18
 3147 02f8 E8000000 		call	_ZNSt15basic_stringbufIcSt11char_traitsIcESaIcEED1Ev
 3147      00
 3148              	.L478:
 3149 02fd 488D7C24 		leaq	112(%rsp), %rdi
 3149      70
 3150 0302 48C74424 		movq	$_ZTVSt9basic_iosIcSt11char_traitsIcEE+16, 112(%rsp)
 3150      70000000 
 3150      00
 3151 030b E8000000 		call	_ZNSt8ios_baseD2Ev
 3151      00
 3152 0310 4889DF   		movq	%rbx, %rdi
 3153              	.LEHB44:
 3154 0313 E8000000 		call	_Unwind_Resume
 3154      00
 3155              	.LEHE44:
 3156              		.cfi_endproc
 3157              	.LFE1519:
 3158              		.section	.gcc_except_table
 3159              	.LLSDA1519:
 3160 0104 FF       		.byte	0xff
 3161 0105 FF       		.byte	0xff
 3162 0106 01       		.byte	0x1
 3163 0107 21       		.uleb128 .LLSDACSE1519-.LLSDACSB1519
 3164              	.LLSDACSB1519:
 3165 0108 A801     		.uleb128 .LEHB39-.LFB1519
 3166 010a 05       		.uleb128 .LEHE39-.LEHB39
 3167 010b DC05     		.uleb128 .L493-.LFB1519
 3168 010d 00       		.uleb128 0
 3169 010e B502     		.uleb128 .LEHB40-.LFB1519
 3170 0110 05       		.uleb128 .LEHE40-.LEHB40
 3171 0111 D705     		.uleb128 .L494-.LFB1519
 3172 0113 00       		.uleb128 0
 3173 0114 E902     		.uleb128 .LEHB41-.LFB1519
 3174 0116 48       		.uleb128 .LEHE41-.LEHB41
 3175 0117 D205     		.uleb128 .L492-.LFB1519
 3176 0119 00       		.uleb128 0
 3177 011a A304     		.uleb128 .LEHB42-.LFB1519
 3178 011c 05       		.uleb128 .LEHE42-.LEHB42
 3179 011d 00       		.uleb128 0
 3180 011e 00       		.uleb128 0
 3181 011f EE05     		.uleb128 .LEHB43-.LFB1519
 3182 0121 05       		.uleb128 .LEHE43-.LEHB43
 3183 0122 00       		.uleb128 0
 3184 0123 00       		.uleb128 0
 3185 0124 9306     		.uleb128 .LEHB44-.LFB1519
 3186 0126 05       		.uleb128 .LEHE44-.LEHB44
 3187 0127 00       		.uleb128 0
 3188 0128 00       		.uleb128 0
 3189              	.LLSDACSE1519:
 3190              		.section	.text._ZN8UnitTest10CheckEqualIiiEEvRNS_11TestResultsERKT_RKT0_RKNS_11TestDetailsE,"axG",
 3192              		.section	.text.unlikely._ZN8UnitTest10CheckEqualIiiEEvRNS_11TestResultsERKT_RKT0_RKNS_11TestDetail
 3193              	.LCOLDE45:
 3194              		.section	.text._ZN8UnitTest10CheckEqualIiiEEvRNS_11TestResultsERKT_RKT0_RKNS_11TestDetailsE,"axG",
 3195              	.LHOTE45:
 3196              		.section	.rodata.str1.8
 3197 012b 00000000 		.align 8
 3197      00
 3198              	.LC46:
 3199 0130 556E6861 		.string	"Unhandled exception in CHECK_EQUAL(1, (int)reporter.GetResults().size())"
 3199      6E646C65 
 3199      64206578 
 3199      63657074 
 3199      696F6E20 
 3200              		.section	.text.unlikely
 3201              	.LCOLDB47:
 3202              		.text
 3203              	.LHOTB47:
 3204 1298 0F1F8400 		.p2align 4,,15
 3204      00000000 
 3206              	_ZN8UnitTest11ExecuteTestINS_12_GLOBAL__N_171DeferredTestReporterFixtureReportTestStartCreatesANewD
 3207              	.LFB1516:
 3208              		.cfi_startproc
 3209              		.cfi_personality 0x3,__gxx_personality_v0
 3210              		.cfi_lsda 0x3,.LLSDA1516
 3211 12a0 4154     		pushq	%r12
 3212              		.cfi_def_cfa_offset 16
 3213              		.cfi_offset 12, -16
 3214 12a2 55       		pushq	%rbp
 3215              		.cfi_def_cfa_offset 24
 3216              		.cfi_offset 6, -24
 3217 12a3 53       		pushq	%rbx
 3218              		.cfi_def_cfa_offset 32
 3219              		.cfi_offset 3, -32
 3220 12a4 4889F3   		movq	%rsi, %rbx
 3221 12a7 4881EC60 		subq	$1632, %rsp
 3221      060000
 3222              		.cfi_def_cfa_offset 1664
 3223 12ae 48893C24 		movq	%rdi, (%rsp)
 3224 12b2 48897424 		movq	%rsi, 8(%rsp)
 3224      08
 3225 12b7 64488B04 		movq	%fs:40, %rax
 3225      25280000 
 3225      00
 3226 12c0 48898424 		movq	%rax, 1624(%rsp)
 3226      58060000 
 3227 12c8 31C0     		xorl	%eax, %eax
 3228              	.LEHB45:
 3229 12ca E8000000 		call	_ZN8UnitTest11CurrentTest7DetailsEv
 3229      00
 3230              	.LEHE45:
 3231 12cf 488DBC24 		leaq	496(%rsp), %rdi
 3231      F0010000 
 3232 12d7 488918   		movq	%rbx, (%rax)
 3233              	.LEHB46:
 3234 12da E8000000 		call	_ZN8UnitTest16SignalTranslatorC1Ev
 3234      00
 3235              	.LEHE46:
 3236 12df 488B3D00 		movq	_ZN8UnitTest16SignalTranslator12s_jumpTargetE(%rip), %rdi
 3236      000000
 3237 12e6 BE010000 		movl	$1, %esi
 3237      00
 3238 12eb E8000000 		call	__sigsetjmp
 3238      00
 3239 12f0 85C0     		testl	%eax, %eax
 3240 12f2 0F85A800 		jne	.L535
 3240      0000
 3241 12f8 488B1C24 		movq	(%rsp), %rbx
 3242 12fc 488D7340 		leaq	64(%rbx), %rsi
 3243 1300 4889DF   		movq	%rbx, %rdi
 3244              	.LEHB47:
 3245 1303 E8000000 		call	_ZN8UnitTest20DeferredTestReporter15ReportTestStartERKNS_11TestDetailsE
 3245      00
 3246              	.LEHE47:
 3247              	.LEHB48:
 3248 1308 E8000000 		call	_ZN8UnitTest11CurrentTest7DetailsEv
 3248      00
 3249 130d 488B30   		movq	(%rax), %rsi
 3250 1310 488D7C24 		leaq	96(%rsp), %rdi
 3250      60
 3251 1315 BA310000 		movl	$49, %edx
 3251      00
 3252 131a E8000000 		call	_ZN8UnitTest11TestDetailsC1ERKS0_i
 3252      00
 3253 131f 4889DF   		movq	%rbx, %rdi
 3254 1322 E8000000 		call	_ZN8UnitTest20DeferredTestReporter10GetResultsEv
 3254      00
 3255 1327 488B5008 		movq	8(%rax), %rdx
 3256 132b 482B10   		subq	(%rax), %rdx
 3257 132e C7442418 		movl	$1, 24(%rsp)
 3257      01000000 
 3258 1336 4889D0   		movq	%rdx, %rax
 3259 1339 48BAB76D 		movabsq	$7905747460161236407, %rdx
 3259      DBB66DDB 
 3259      B66D
 3260 1343 48C1F803 		sarq	$3, %rax
 3261 1347 480FAFC2 		imulq	%rdx, %rax
 3262 134b 8944241C 		movl	%eax, 28(%rsp)
 3263 134f E8000000 		call	_ZN8UnitTest11CurrentTest7ResultsEv
 3263      00
 3264 1354 488B38   		movq	(%rax), %rdi
 3265 1357 488D4C24 		leaq	96(%rsp), %rcx
 3265      60
 3266 135c 488D5424 		leaq	28(%rsp), %rdx
 3266      1C
 3267 1361 488D7424 		leaq	24(%rsp), %rsi
 3267      18
 3268 1366 E8000000 		call	_ZN8UnitTest10CheckEqualIiiEEvRNS_11TestResultsERKT_RKT0_RKNS_11TestDetailsE
 3268      00
 3269              	.LEHE48:
 3270              	.L506:
 3271 136b 488DBC24 		leaq	496(%rsp), %rdi
 3271      F0010000 
 3272              	.LEHB49:
 3273 1373 E8000000 		call	_ZN8UnitTest16SignalTranslatorD1Ev
 3273      00
 3274              	.LEHE49:
 3275              	.L503:
 3276 1378 488B8424 		movq	1624(%rsp), %rax
 3276      58060000 
 3277 1380 64483304 		xorq	%fs:40, %rax
 3277      25280000 
 3277      00
 3278 1389 0F85D800 		jne	.L536
 3278      0000
 3279 138f 4881C460 		addq	$1632, %rsp
 3279      060000
 3280              		.cfi_remember_state
 3281              		.cfi_def_cfa_offset 32
 3282 1396 5B       		popq	%rbx
 3283              		.cfi_def_cfa_offset 24
 3284 1397 5D       		popq	%rbp
 3285              		.cfi_def_cfa_offset 16
 3286 1398 415C     		popq	%r12
 3287              		.cfi_def_cfa_offset 8
 3288 139a C3       		ret
 3289 139b 0F1F4400 		.p2align 4,,10
 3289      00
 3290              		.p2align 3
 3291              	.L535:
 3292              		.cfi_restore_state
 3293 13a0 BF080000 		movl	$8, %edi
 3293      00
 3294 13a5 E8000000 		call	__cxa_allocate_exception
 3294      00
 3295 13aa 31D2     		xorl	%edx, %edx
 3296 13ac 48C70000 		movq	$.LC23, (%rax)
 3296      000000
 3297 13b3 BE000000 		movl	$_ZTIPKc, %esi
 3297      00
 3298 13b8 4889C7   		movq	%rax, %rdi
 3299              	.LEHB50:
 3300 13bb E8000000 		call	__cxa_throw
 3300      00
 3301              	.LEHE50:
 3302              	.L522:
 3303 13c0 4889C5   		movq	%rax, %rbp
 3304 13c3 4889D3   		movq	%rdx, %rbx
 3305              	.L508:
 3306 13c6 488DBC24 		leaq	496(%rsp), %rdi
 3306      F0010000 
 3307 13ce E8000000 		call	_ZN8UnitTest16SignalTranslatorD1Ev
 3307      00
 3308 13d3 4889EF   		movq	%rbp, %rdi
 3309 13d6 4889DA   		movq	%rbx, %rdx
 3310              	.L510:
 3311 13d9 4883FA01 		cmpq	$1, %rdx
 3312 13dd 0F842901 		je	.L512
 3312      0000
 3313 13e3 4883FA02 		cmpq	$2, %rdx
 3314 13e7 0F85F900 		jne	.L537
 3314      0000
 3315 13ed E8000000 		call	__cxa_begin_catch
 3315      00
 3316 13f2 488DBC24 		leaq	128(%rsp), %rdi
 3316      80000000 
 3317 13fa 4889C3   		movq	%rax, %rbx
 3318              	.LEHB51:
 3319 13fd E8000000 		call	_ZN8UnitTest15MemoryOutStreamC1Ev
 3319      00
 3320              	.LEHE51:
 3321 1402 488B03   		movq	(%rbx), %rax
 3322 1405 4889DF   		movq	%rbx, %rdi
 3323 1408 FF5010   		call	*16(%rax)
 3324 140b 488DBC24 		leaq	128(%rsp), %rdi
 3324      80000000 
 3325 1413 BE000000 		movl	$.LC34, %esi
 3325      00
 3326 1418 4889C3   		movq	%rax, %rbx
 3327              	.LEHB52:
 3328 141b E8000000 		call	_ZStlsISt11char_traitsIcEERSt13basic_ostreamIcT_ES5_PKc
 3328      00
 3329 1420 4889C7   		movq	%rax, %rdi
 3330 1423 4889DE   		movq	%rbx, %rsi
 3331 1426 E8000000 		call	_ZStlsISt11char_traitsIcEERSt13basic_ostreamIcT_ES5_PKc
 3331      00
 3332 142b 488DBC24 		leaq	128(%rsp), %rdi
 3332      80000000 
 3333 1433 E8000000 		call	_ZNK8UnitTest15MemoryOutStream7GetTextEv
 3333      00
 3334 1438 4889C3   		movq	%rax, %rbx
 3335 143b E8000000 		call	_ZN8UnitTest11CurrentTest7ResultsEv
 3335      00
 3336 1440 488B7424 		movq	8(%rsp), %rsi
 3336      08
 3337 1445 488B38   		movq	(%rax), %rdi
 3338 1448 4889DA   		movq	%rbx, %rdx
 3339 144b E8000000 		call	_ZN8UnitTest11TestResults13OnTestFailureERKNS_11TestDetailsEPKc
 3339      00
 3340              	.LEHE52:
 3341 1450 488DBC24 		leaq	128(%rsp), %rdi
 3341      80000000 
 3342              	.LEHB53:
 3343 1458 E8000000 		call	_ZN8UnitTest15MemoryOutStreamD1Ev
 3343      00
 3344              	.LEHE53:
 3345              	.L532:
 3346 145d E8000000 		call	__cxa_end_catch
 3346      00
 3347 1462 E911FFFF 		jmp	.L503
 3347      FF
 3348              	.L536:
 3349 1467 E8000000 		call	__stack_chk_fail
 3349      00
 3350              	.L528:
 3351 146c 4889C7   		movq	%rax, %rdi
 3352 146f E8000000 		call	__cxa_begin_catch
 3352      00
 3353              	.LEHB54:
 3354 1474 E8000000 		call	_ZN8UnitTest11CurrentTest7DetailsEv
 3354      00
 3355 1479 488B30   		movq	(%rax), %rsi
 3356 147c 488D7C24 		leaq	64(%rsp), %rdi
 3356      40
 3357 1481 BA310000 		movl	$49, %edx
 3357      00
 3358 1486 E8000000 		call	_ZN8UnitTest11TestDetailsC1ERKS0_i
 3358      00
 3359 148b E8000000 		call	_ZN8UnitTest11CurrentTest7ResultsEv
 3359      00
 3360 1490 488B38   		movq	(%rax), %rdi
 3361 1493 488D7424 		leaq	64(%rsp), %rsi
 3361      40
 3362 1498 BA000000 		movl	$.LC46, %edx
 3362      00
 3363 149d E8000000 		call	_ZN8UnitTest11TestResults13OnTestFailureERKNS_11TestDetailsEPKc
 3363      00
 3364              	.LEHE54:
 3365              	.LEHB55:
 3366 14a2 E8000000 		call	__cxa_end_catch
 3366      00
 3367              	.LEHE55:
 3368 14a7 E9BFFEFF 		jmp	.L506
 3368      FF
 3369              	.L521:
 3370 14ac 4889C7   		movq	%rax, %rdi
 3371 14af E925FFFF 		jmp	.L510
 3371      FF
 3372              	.L527:
 3373 14b4 4889C5   		movq	%rax, %rbp
 3374 14b7 4889D3   		movq	%rdx, %rbx
 3375 14ba E8000000 		call	__cxa_end_catch
 3375      00
 3376 14bf E902FFFF 		jmp	.L508
 3376      FF
 3377              	.L525:
 3378 14c4 488DBC24 		leaq	128(%rsp), %rdi
 3378      80000000 
 3379 14cc 4889C3   		movq	%rax, %rbx
 3380 14cf E8000000 		call	_ZN8UnitTest15MemoryOutStreamD1Ev
 3380      00
 3381              	.L516:
 3382 14d4 E8000000 		call	__cxa_end_catch
 3382      00
 3383 14d9 4889DF   		movq	%rbx, %rdi
 3384              	.LEHB56:
 3385 14dc E8000000 		call	_Unwind_Resume
 3385      00
 3386              	.LEHE56:
 3387              	.L524:
 3388              	.L533:
 3389 14e1 4889C3   		movq	%rax, %rbx
 3390 14e4 EBEE     		jmp	.L516
 3391              	.L537:
 3392 14e6 E8000000 		call	__cxa_begin_catch
 3392      00
 3393              	.LEHB57:
 3394 14eb E8000000 		call	_ZN8UnitTest11CurrentTest7ResultsEv
 3394      00
 3395 14f0 488B7424 		movq	8(%rsp), %rsi
 3395      08
 3396 14f5 488B38   		movq	(%rax), %rdi
 3397 14f8 BA000000 		movl	$.LC35, %edx
 3397      00
 3398 14fd E8000000 		call	_ZN8UnitTest11TestResults13OnTestFailureERKNS_11TestDetailsEPKc
 3398      00
 3399              	.LEHE57:
 3400              	.LEHB58:
 3401 1502 E8000000 		call	__cxa_end_catch
 3401      00
 3402              	.LEHE58:
 3403 1507 E96CFEFF 		jmp	.L503
 3403      FF
 3404              	.L512:
 3405 150c E8000000 		call	__cxa_begin_catch
 3405      00
 3406 1511 4889C3   		movq	%rax, %rbx
 3407 1514 488B00   		movq	(%rax), %rax
 3408 1517 4889DF   		movq	%rbx, %rdi
 3409 151a FF5010   		call	*16(%rax)
 3410 151d 4889DF   		movq	%rbx, %rdi
 3411 1520 4889C5   		movq	%rax, %rbp
 3412              	.LEHB59:
 3413 1523 E8000000 		call	_ZNK8UnitTest15AssertException10LineNumberEv
 3413      00
 3414 1528 4889DF   		movq	%rbx, %rdi
 3415 152b 4189C4   		movl	%eax, %r12d
 3416 152e E8000000 		call	_ZNK8UnitTest15AssertException8FilenameEv
 3416      00
 3417 1533 4889C1   		movq	%rax, %rcx
 3418 1536 488B4424 		movq	8(%rsp), %rax
 3418      08
 3419 153b 488D7C24 		leaq	32(%rsp), %rdi
 3419      20
 3420 1540 4589E0   		movl	%r12d, %r8d
 3421 1543 488B7008 		movq	8(%rax), %rsi
 3422 1547 488B10   		movq	(%rax), %rdx
 3423 154a E8000000 		call	_ZN8UnitTest11TestDetailsC1EPKcS2_S2_i
 3423      00
 3424 154f E8000000 		call	_ZN8UnitTest11CurrentTest7ResultsEv
 3424      00
 3425 1554 488B38   		movq	(%rax), %rdi
 3426 1557 488D7424 		leaq	32(%rsp), %rsi
 3426      20
 3427 155c 4889EA   		movq	%rbp, %rdx
 3428 155f E8000000 		call	_ZN8UnitTest11TestResults13OnTestFailureERKNS_11TestDetailsEPKc
 3428      00
 3429              	.LEHE59:
 3430 1564 E9F4FEFF 		jmp	.L532
 3430      FF
 3431              	.L526:
 3432 1569 4889C3   		movq	%rax, %rbx
 3433 156c E8000000 		call	__cxa_end_catch
 3433      00
 3434 1571 4889DF   		movq	%rbx, %rdi
 3435              	.LEHB60:
 3436 1574 E8000000 		call	_Unwind_Resume
 3436      00
 3437              	.LEHE60:
 3438              	.L523:
 3439 1579 E963FFFF 		jmp	.L533
 3439      FF
 3440              		.cfi_endproc
 3441              	.LFE1516:
 3442              		.section	.gcc_except_table
 3443 0129 000000   		.align 4
 3444              	.LLSDA1516:
 3445 012c FF       		.byte	0xff
 3446 012d 03       		.byte	0x3
 3447 012e 71       		.uleb128 .LLSDATT1516-.LLSDATTD1516
 3448              	.LLSDATTD1516:
 3449 012f 01       		.byte	0x1
 3450 0130 58       		.uleb128 .LLSDACSE1516-.LLSDACSB1516
 3451              	.LLSDACSB1516:
 3452 0131 2A       		.uleb128 .LEHB45-.LFB1516
 3453 0132 05       		.uleb128 .LEHE45-.LEHB45
 3454 0133 00       		.uleb128 0
 3455 0134 00       		.uleb128 0
 3456 0135 3A       		.uleb128 .LEHB46-.LFB1516
 3457 0136 05       		.uleb128 .LEHE46-.LEHB46
 3458 0137 8C04     		.uleb128 .L521-.LFB1516
 3459 0139 05       		.uleb128 0x5
 3460 013a 63       		.uleb128 .LEHB47-.LFB1516
 3461 013b 05       		.uleb128 .LEHE47-.LEHB47
 3462 013c A002     		.uleb128 .L522-.LFB1516
 3463 013e 07       		.uleb128 0x7
 3464 013f 68       		.uleb128 .LEHB48-.LFB1516
 3465 0140 63       		.uleb128 .LEHE48-.LEHB48
 3466 0141 CC03     		.uleb128 .L528-.LFB1516
 3467 0143 01       		.uleb128 0x1
 3468 0144 D301     		.uleb128 .LEHB49-.LFB1516
 3469 0146 05       		.uleb128 .LEHE49-.LEHB49
 3470 0147 8C04     		.uleb128 .L521-.LFB1516
 3471 0149 05       		.uleb128 0x5
 3472 014a 9B02     		.uleb128 .LEHB50-.LFB1516
 3473 014c 05       		.uleb128 .LEHE50-.LEHB50
 3474 014d A002     		.uleb128 .L522-.LFB1516
 3475 014f 07       		.uleb128 0x7
 3476 0150 DD02     		.uleb128 .LEHB51-.LFB1516
 3477 0152 05       		.uleb128 .LEHE51-.LEHB51
 3478 0153 C104     		.uleb128 .L524-.LFB1516
 3479 0155 00       		.uleb128 0
 3480 0156 FB02     		.uleb128 .LEHB52-.LFB1516
 3481 0158 35       		.uleb128 .LEHE52-.LEHB52
 3482 0159 A404     		.uleb128 .L525-.LFB1516
 3483 015b 00       		.uleb128 0
 3484 015c B803     		.uleb128 .LEHB53-.LFB1516
 3485 015e 05       		.uleb128 .LEHE53-.LEHB53
 3486 015f C104     		.uleb128 .L524-.LFB1516
 3487 0161 00       		.uleb128 0
 3488 0162 D403     		.uleb128 .LEHB54-.LFB1516
 3489 0164 2E       		.uleb128 .LEHE54-.LEHB54
 3490 0165 9404     		.uleb128 .L527-.LFB1516
 3491 0167 07       		.uleb128 0x7
 3492 0168 8204     		.uleb128 .LEHB55-.LFB1516
 3493 016a 05       		.uleb128 .LEHE55-.LEHB55
 3494 016b A002     		.uleb128 .L522-.LFB1516
 3495 016d 07       		.uleb128 0x7
 3496 016e BC04     		.uleb128 .LEHB56-.LFB1516
 3497 0170 05       		.uleb128 .LEHE56-.LEHB56
 3498 0171 00       		.uleb128 0
 3499 0172 00       		.uleb128 0
 3500 0173 CB04     		.uleb128 .LEHB57-.LFB1516
 3501 0175 17       		.uleb128 .LEHE57-.LEHB57
 3502 0176 C905     		.uleb128 .L526-.LFB1516
 3503 0178 00       		.uleb128 0
 3504 0179 E204     		.uleb128 .LEHB58-.LFB1516
 3505 017b 05       		.uleb128 .LEHE58-.LEHB58
 3506 017c 00       		.uleb128 0
 3507 017d 00       		.uleb128 0
 3508 017e 8305     		.uleb128 .LEHB59-.LFB1516
 3509 0180 41       		.uleb128 .LEHE59-.LEHB59
 3510 0181 D905     		.uleb128 .L523-.LFB1516
 3511 0183 00       		.uleb128 0
 3512 0184 D405     		.uleb128 .LEHB60-.LFB1516
 3513 0186 05       		.uleb128 .LEHE60-.LEHB60
 3514 0187 00       		.uleb128 0
 3515 0188 00       		.uleb128 0
 3516              	.LLSDACSE1516:
 3517 0189 03       		.byte	0x3
 3518 018a 00       		.byte	0
 3519 018b 02       		.byte	0x2
 3520 018c 7D       		.byte	0x7d
 3521 018d 01       		.byte	0x1
 3522 018e 7D       		.byte	0x7d
 3523 018f 00       		.byte	0
 3524 0190 7D       		.byte	0x7d
 3525 0191 000000   		.align 4
 3526 0194 00000000 		.long	0
 3527              	
 3528 0198 00000000 		.long	_ZTISt9exception
 3529 019c 00000000 		.long	_ZTIN8UnitTest15AssertExceptionE
 3530              	.LLSDATT1516:
 3531              		.text
 3533              		.section	.text.unlikely
 3534              	.LCOLDE47:
 3535              		.text
 3536              	.LHOTE47:
 3537              		.section	.text.unlikely
 3538              		.align 2
 3539              	.LCOLDB48:
 3540              		.text
 3541              	.LHOTB48:
 3542              		.align 2
 3543 157e 6690     		.p2align 4,,15
 3545              	_ZNK8UnitTest12_GLOBAL__N_169TestDeferredTestReporterFixtureReportTestStartCreatesANewDeferredTest7
 3546              	.LFB1415:
 3547              		.cfi_startproc
 3548              		.cfi_personality 0x3,__gxx_personality_v0
 3549              		.cfi_lsda 0x3,.LLSDA1415
 3550 1580 4157     		pushq	%r15
 3551              		.cfi_def_cfa_offset 16
 3552              		.cfi_offset 15, -16
 3553 1582 4156     		pushq	%r14
 3554              		.cfi_def_cfa_offset 24
 3555              		.cfi_offset 14, -24
 3556 1584 BE000000 		movl	$.LC39, %esi
 3556      00
 3557 1589 4155     		pushq	%r13
 3558              		.cfi_def_cfa_offset 32
 3559              		.cfi_offset 13, -32
 3560 158b 4154     		pushq	%r12
 3561              		.cfi_def_cfa_offset 40
 3562              		.cfi_offset 12, -40
 3563 158d 4C8D6F08 		leaq	8(%rdi), %r13
 3564 1591 55       		pushq	%rbp
 3565              		.cfi_def_cfa_offset 48
 3566              		.cfi_offset 6, -48
 3567 1592 53       		pushq	%rbx
 3568              		.cfi_def_cfa_offset 56
 3569              		.cfi_offset 3, -56
 3570 1593 4881EC08 		subq	$520, %rsp
 3570      020000
 3571              		.cfi_def_cfa_offset 576
 3572 159a 488D4424 		leaq	32(%rsp), %rax
 3572      20
 3573 159f 48897C24 		movq	%rdi, 8(%rsp)
 3573      08
 3574 15a4 48C74424 		movq	$0, 40(%rsp)
 3574      28000000 
 3574      00
 3575 15ad 64488B14 		movq	%fs:40, %rdx
 3575      25280000 
 3575      00
 3576 15b6 48899424 		movq	%rdx, 504(%rsp)
 3576      F8010000 
 3577 15be 31D2     		xorl	%edx, %edx
 3578 15c0 488D7820 		leaq	32(%rax), %rdi
 3579 15c4 488D5424 		leaq	31(%rsp), %rdx
 3579      1F
 3580 15c9 48C74424 		movq	$0, 48(%rsp)
 3580      30000000 
 3580      00
 3581 15d2 48C74424 		movq	$0, 56(%rsp)
 3581      38000000 
 3581      00
 3582 15db 48C74424 		movq	$_ZTVN8UnitTest12_GLOBAL__N_124MockDeferredTestReporterE+16, 32(%rsp)
 3582      20000000 
 3582      00
 3583              	.LEHB61:
 3584 15e4 E8000000 		call	_ZNSsC1EPKcRKSaIcE
 3584      00
 3585              	.LEHE61:
 3586 15e9 488D4424 		leaq	32(%rsp), %rax
 3586      20
 3587 15ee 488D5424 		leaq	31(%rsp), %rdx
 3587      1F
 3588 15f3 BE000000 		movl	$.LC40, %esi
 3588      00
 3589 15f8 488D7828 		leaq	40(%rax), %rdi
 3590              	.LEHB62:
 3591 15fc E8000000 		call	_ZNSsC1EPKcRKSaIcE
 3591      00
 3592              	.LEHE62:
 3593 1601 488D4424 		leaq	32(%rsp), %rax
 3593      20
 3594 1606 488D5424 		leaq	31(%rsp), %rdx
 3594      1F
 3595 160b BE000000 		movl	$.LC41, %esi
 3595      00
 3596 1610 488D7830 		leaq	48(%rax), %rdi
 3597              	.LEHB63:
 3598 1614 E8000000 		call	_ZNSsC1EPKcRKSaIcE
 3598      00
 3599              	.LEHE63:
 3600 1619 488D4424 		leaq	32(%rsp), %rax
 3600      20
 3601 161e 488B4C24 		movq	80(%rsp), %rcx
 3601      50
 3602 1623 488B5424 		movq	72(%rsp), %rdx
 3602      48
 3603 1628 488B7424 		movq	64(%rsp), %rsi
 3603      40
 3604 162d 41B80C00 		movl	$12, %r8d
 3604      0000
 3605 1633 C7442458 		movl	$12, 88(%rsp)
 3605      0C000000 
 3606 163b 488D7840 		leaq	64(%rax), %rdi
 3607              	.LEHB64:
 3608 163f E8000000 		call	_ZN8UnitTest11TestDetailsC1EPKcS2_S2_i
 3608      00
 3609              	.LEHE64:
 3610 1644 488D7C24 		leaq	32(%rsp), %rdi
 3610      20
 3611 1649 4C89EE   		movq	%r13, %rsi
 3612 164c 4C89AC24 		movq	%r13, 128(%rsp)
 3612      80000000 
 3613              	.LEHB65:
 3614 1654 E847FCFF 		call	_ZN8UnitTest11ExecuteTestINS_12_GLOBAL__N_171DeferredTestReporterFixtureReportTestStartCreate
 3614      FF
 3615              	.LEHE65:
 3616 1659 488B4424 		movq	80(%rsp), %rax
 3616      50
 3617 165e 488D78E8 		leaq	-24(%rax), %rdi
 3618 1662 4881FF00 		cmpq	$_ZNSs4_Rep20_S_empty_rep_storageE, %rdi
 3618      000000
 3619 1669 0F857402 		jne	.L645
 3619      0000
 3620              	.L549:
 3621 166f 488B4424 		movq	72(%rsp), %rax
 3621      48
 3622 1674 488D78E8 		leaq	-24(%rax), %rdi
 3623 1678 4881FF00 		cmpq	$_ZNSs4_Rep20_S_empty_rep_storageE, %rdi
 3623      000000
 3624 167f 0F858B02 		jne	.L646
 3624      0000
 3625              	.L554:
 3626 1685 488B4424 		movq	64(%rsp), %rax
 3626      40
 3627 168a 488D78E8 		leaq	-24(%rax), %rdi
 3628 168e 4881FF00 		cmpq	$_ZNSs4_Rep20_S_empty_rep_storageE, %rdi
 3628      000000
 3629 1695 0F851702 		jne	.L647
 3629      0000
 3630              	.L559:
 3631 169b 488B6C24 		movq	48(%rsp), %rbp
 3631      30
 3632 16a0 4C8B7424 		movq	40(%rsp), %r14
 3632      28
 3633 16a5 48C74424 		movq	$_ZTVN8UnitTest20DeferredTestReporterE+16, 32(%rsp)
 3633      20000000 
 3633      00
 3634 16ae 4C39F5   		cmpq	%r14, %rbp
 3635 16b1 0F84CA00 		je	.L563
 3635      0000
 3636 16b7 41BC0000 		movl	$_ZL28__gthrw___pthread_key_createPjPFvPvE, %r12d
 3636      0000
 3637 16bd 0F1F00   		.p2align 4,,10
 3638              		.p2align 3
 3639              	.L592:
 3640 16c0 4D8B7E20 		movq	32(%r14), %r15
 3641 16c4 498B5E18 		movq	24(%r14), %rbx
 3642 16c8 4939DF   		cmpq	%rbx, %r15
 3643 16cb 7457     		je	.L564
 3644 16cd 4D85E4   		testq	%r12, %r12
 3645 16d0 7517     		jne	.L628
 3646 16d2 E9160100 		jmp	.L570
 3646      00
 3647 16d7 660F1F84 		.p2align 4,,10
 3647      00000000 
 3647      00
 3648              		.p2align 3
 3649              	.L573:
 3650 16e0 4883C310 		addq	$16, %rbx
 3651 16e4 4939DF   		cmpq	%rbx, %r15
 3652 16e7 7437     		je	.L571
 3653              	.L628:
 3654 16e9 488B4308 		movq	8(%rbx), %rax
 3655 16ed 488D78E8 		leaq	-24(%rax), %rdi
 3656 16f1 4881FF00 		cmpq	$_ZNSs4_Rep20_S_empty_rep_storageE, %rdi
 3656      000000
 3657 16f8 74E6     		je	.L573
 3658 16fa B9FFFFFF 		movl	$-1, %ecx
 3658      FF
 3659 16ff F00FC148 		lock xaddl	%ecx, -8(%rax)
 3659      F8
 3660 1704 85C9     		testl	%ecx, %ecx
 3661 1706 7FD8     		jg	.L573
 3662 1708 488D7424 		leaq	31(%rsp), %rsi
 3662      1F
 3663 170d 4883C310 		addq	$16, %rbx
 3664 1711 E8000000 		call	_ZNSs4_Rep10_M_destroyERKSaIcE
 3664      00
 3665 1716 4939DF   		cmpq	%rbx, %r15
 3666 1719 75CE     		jne	.L628
 3667 171b 0F1F4400 		.p2align 4,,10
 3667      00
 3668              		.p2align 3
 3669              	.L571:
 3670 1720 4D8B7E18 		movq	24(%r14), %r15
 3671              	.L564:
 3672 1724 4D85FF   		testq	%r15, %r15
 3673 1727 7408     		je	.L576
 3674 1729 4C89FF   		movq	%r15, %rdi
 3675 172c E8000000 		call	_ZdlPv
 3675      00
 3676              	.L576:
 3677 1731 498B4610 		movq	16(%r14), %rax
 3678 1735 488D78E8 		leaq	-24(%rax), %rdi
 3679 1739 4881FF00 		cmpq	$_ZNSs4_Rep20_S_empty_rep_storageE, %rdi
 3679      000000
 3680 1740 0F851A01 		jne	.L648
 3680      0000
 3681              	.L578:
 3682 1746 498B4608 		movq	8(%r14), %rax
 3683 174a 488D78E8 		leaq	-24(%rax), %rdi
 3684 174e 4881FF00 		cmpq	$_ZNSs4_Rep20_S_empty_rep_storageE, %rdi
 3684      000000
 3685 1755 0F85D500 		jne	.L649
 3685      0000
 3686              	.L583:
 3687 175b 498B06   		movq	(%r14), %rax
 3688 175e 488D78E8 		leaq	-24(%rax), %rdi
 3689 1762 4881FF00 		cmpq	$_ZNSs4_Rep20_S_empty_rep_storageE, %rdi
 3689      000000
 3690 1769 0F859100 		jne	.L650
 3690      0000
 3691              	.L588:
 3692 176f 4983C638 		addq	$56, %r14
 3693 1773 4C39F5   		cmpq	%r14, %rbp
 3694 1776 0F8544FF 		jne	.L592
 3694      FFFF
 3695 177c 488B6C24 		movq	40(%rsp), %rbp
 3695      28
 3696              	.L563:
 3697 1781 4885ED   		testq	%rbp, %rbp
 3698 1784 7408     		je	.L593
 3699 1786 4889EF   		movq	%rbp, %rdi
 3700 1789 E8000000 		call	_ZdlPv
 3700      00
 3701              	.L593:
 3702 178e 488D7C24 		leaq	32(%rsp), %rdi
 3702      20
 3703              	.LEHB66:
 3704 1793 E8000000 		call	_ZN8UnitTest12TestReporterD2Ev
 3704      00
 3705              	.LEHE66:
 3706              	.L538:
 3707 1798 488B8424 		movq	504(%rsp), %rax
 3707      F8010000 
 3708 17a0 64483304 		xorq	%fs:40, %rax
 3708      25280000 
 3708      00
 3709 17a9 0F85F903 		jne	.L651
 3709      0000
 3710 17af 4881C408 		addq	$520, %rsp
 3710      020000
 3711              		.cfi_remember_state
 3712              		.cfi_def_cfa_offset 56
 3713 17b6 5B       		popq	%rbx
 3714              		.cfi_def_cfa_offset 48
 3715 17b7 5D       		popq	%rbp
 3716              		.cfi_def_cfa_offset 40
 3717 17b8 415C     		popq	%r12
 3718              		.cfi_def_cfa_offset 32
 3719 17ba 415D     		popq	%r13
 3720              		.cfi_def_cfa_offset 24
 3721 17bc 415E     		popq	%r14
 3722              		.cfi_def_cfa_offset 16
 3723 17be 415F     		popq	%r15
 3724              		.cfi_def_cfa_offset 8
 3725 17c0 C3       		ret
 3726              		.p2align 4,,10
 3727 17c1 0F1F8000 		.p2align 3
 3727      000000
 3728              	.L652:
 3729              		.cfi_restore_state
 3730 17c8 8B48F8   		movl	-8(%rax), %ecx
 3731 17cb 8D71FF   		leal	-1(%rcx), %esi
 3732 17ce 85C9     		testl	%ecx, %ecx
 3733 17d0 8970F8   		movl	%esi, -8(%rax)
 3734 17d3 7F0B     		jg	.L568
 3735 17d5 488D7424 		leaq	31(%rsp), %rsi
 3735      1F
 3736 17da E8000000 		call	_ZNSs4_Rep10_M_destroyERKSaIcE
 3736      00
 3737 17df 90       		.p2align 4,,10
 3738              		.p2align 3
 3739              	.L568:
 3740 17e0 4883C310 		addq	$16, %rbx
 3741 17e4 4939DF   		cmpq	%rbx, %r15
 3742 17e7 0F8433FF 		je	.L571
 3742      FFFF
 3743              	.L570:
 3744 17ed 488B4308 		movq	8(%rbx), %rax
 3745 17f1 488D78E8 		leaq	-24(%rax), %rdi
 3746 17f5 4881FF00 		cmpq	$_ZNSs4_Rep20_S_empty_rep_storageE, %rdi
 3746      000000
 3747 17fc 74E2     		je	.L568
 3748 17fe EBC8     		jmp	.L652
 3749              		.p2align 4,,10
 3750              		.p2align 3
 3751              	.L650:
 3752 1800 4D85E4   		testq	%r12, %r12
 3753 1803 0F847F00 		je	.L589
 3753      0000
 3754 1809 B9FFFFFF 		movl	$-1, %ecx
 3754      FF
 3755 180e F00FC148 		lock xaddl	%ecx, -8(%rax)
 3755      F8
 3756 1813 89C8     		movl	%ecx, %eax
 3757              	.L590:
 3758 1815 85C0     		testl	%eax, %eax
 3759 1817 0F8F52FF 		jg	.L588
 3759      FFFF
 3760 181d 488D7424 		leaq	31(%rsp), %rsi
 3760      1F
 3761 1822 E8000000 		call	_ZNSs4_Rep10_M_destroyERKSaIcE
 3761      00
 3762 1827 E943FFFF 		jmp	.L588
 3762      FF
 3763 182c 0F1F4000 		.p2align 4,,10
 3764              		.p2align 3
 3765              	.L649:
 3766 1830 4D85E4   		testq	%r12, %r12
 3767 1833 7470     		je	.L584
 3768 1835 B9FFFFFF 		movl	$-1, %ecx
 3768      FF
 3769 183a F00FC148 		lock xaddl	%ecx, -8(%rax)
 3769      F8
 3770 183f 89C8     		movl	%ecx, %eax
 3771              	.L585:
 3772 1841 85C0     		testl	%eax, %eax
 3773 1843 0F8F12FF 		jg	.L583
 3773      FFFF
 3774 1849 488D7424 		leaq	31(%rsp), %rsi
 3774      1F
 3775 184e E8000000 		call	_ZNSs4_Rep10_M_destroyERKSaIcE
 3775      00
 3776 1853 E903FFFF 		jmp	.L583
 3776      FF
 3777 1858 0F1F8400 		.p2align 4,,10
 3777      00000000 
 3778              		.p2align 3
 3779              	.L648:
 3780 1860 4D85E4   		testq	%r12, %r12
 3781 1863 7433     		je	.L579
 3782 1865 B9FFFFFF 		movl	$-1, %ecx
 3782      FF
 3783 186a F00FC148 		lock xaddl	%ecx, -8(%rax)
 3783      F8
 3784 186f 89C8     		movl	%ecx, %eax
 3785              	.L580:
 3786 1871 85C0     		testl	%eax, %eax
 3787 1873 0F8FCDFE 		jg	.L578
 3787      FFFF
 3788 1879 488D7424 		leaq	31(%rsp), %rsi
 3788      1F
 3789 187e E8000000 		call	_ZNSs4_Rep10_M_destroyERKSaIcE
 3789      00
 3790 1883 E9BEFEFF 		jmp	.L578
 3790      FF
 3791              	.L589:
 3792 1888 8B48F8   		movl	-8(%rax), %ecx
 3793 188b 8D71FF   		leal	-1(%rcx), %esi
 3794 188e 8970F8   		movl	%esi, -8(%rax)
 3795 1891 89C8     		movl	%ecx, %eax
 3796 1893 E97DFFFF 		jmp	.L590
 3796      FF
 3797              	.L579:
 3798 1898 8B48F8   		movl	-8(%rax), %ecx
 3799 189b 8D71FF   		leal	-1(%rcx), %esi
 3800 189e 8970F8   		movl	%esi, -8(%rax)
 3801 18a1 89C8     		movl	%ecx, %eax
 3802 18a3 EBCC     		jmp	.L580
 3803              	.L584:
 3804 18a5 8B48F8   		movl	-8(%rax), %ecx
 3805 18a8 8D71FF   		leal	-1(%rcx), %esi
 3806 18ab 8970F8   		movl	%esi, -8(%rax)
 3807 18ae 89C8     		movl	%ecx, %eax
 3808 18b0 EB8F     		jmp	.L585
 3809              	.L647:
 3810 18b2 BA000000 		movl	$_ZL28__gthrw___pthread_key_createPjPFvPvE, %edx
 3810      00
 3811 18b7 4885D2   		testq	%rdx, %rdx
 3812 18ba 0F849700 		je	.L560
 3812      0000
 3813 18c0 BAFFFFFF 		movl	$-1, %edx
 3813      FF
 3814 18c5 F00FC150 		lock xaddl	%edx, -8(%rax)
 3814      F8
 3815 18ca 89D0     		movl	%edx, %eax
 3816              	.L561:
 3817 18cc 85C0     		testl	%eax, %eax
 3818 18ce 0F8FC7FD 		jg	.L559
 3818      FFFF
 3819 18d4 488D7424 		leaq	31(%rsp), %rsi
 3819      1F
 3820 18d9 E8000000 		call	_ZNSs4_Rep10_M_destroyERKSaIcE
 3820      00
 3821 18de E9B8FDFF 		jmp	.L559
 3821      FF
 3822              	.L645:
 3823 18e3 BA000000 		movl	$_ZL28__gthrw___pthread_key_createPjPFvPvE, %edx
 3823      00
 3824 18e8 4885D2   		testq	%rdx, %rdx
 3825 18eb 745D     		je	.L550
 3826 18ed BAFFFFFF 		movl	$-1, %edx
 3826      FF
 3827 18f2 F00FC150 		lock xaddl	%edx, -8(%rax)
 3827      F8
 3828 18f7 89D0     		movl	%edx, %eax
 3829              	.L551:
 3830 18f9 85C0     		testl	%eax, %eax
 3831 18fb 0F8F6EFD 		jg	.L549
 3831      FFFF
 3832 1901 488D7424 		leaq	31(%rsp), %rsi
 3832      1F
 3833 1906 E8000000 		call	_ZNSs4_Rep10_M_destroyERKSaIcE
 3833      00
 3834 190b E95FFDFF 		jmp	.L549
 3834      FF
 3835              	.L646:
 3836 1910 BA000000 		movl	$_ZL28__gthrw___pthread_key_createPjPFvPvE, %edx
 3836      00
 3837 1915 4885D2   		testq	%rdx, %rdx
 3838 1918 7423     		je	.L555
 3839 191a BAFFFFFF 		movl	$-1, %edx
 3839      FF
 3840 191f F00FC150 		lock xaddl	%edx, -8(%rax)
 3840      F8
 3841 1924 89D0     		movl	%edx, %eax
 3842              	.L556:
 3843 1926 85C0     		testl	%eax, %eax
 3844 1928 0F8F57FD 		jg	.L554
 3844      FFFF
 3845 192e 488D7424 		leaq	31(%rsp), %rsi
 3845      1F
 3846 1933 E8000000 		call	_ZNSs4_Rep10_M_destroyERKSaIcE
 3846      00
 3847 1938 E948FDFF 		jmp	.L554
 3847      FF
 3848              	.L555:
 3849 193d 8B50F8   		movl	-8(%rax), %edx
 3850 1940 8D4AFF   		leal	-1(%rdx), %ecx
 3851 1943 8948F8   		movl	%ecx, -8(%rax)
 3852 1946 89D0     		movl	%edx, %eax
 3853 1948 EBDC     		jmp	.L556
 3854              	.L550:
 3855 194a 8B50F8   		movl	-8(%rax), %edx
 3856 194d 8D4AFF   		leal	-1(%rdx), %ecx
 3857 1950 8948F8   		movl	%ecx, -8(%rax)
 3858 1953 89D0     		movl	%edx, %eax
 3859 1955 EBA2     		jmp	.L551
 3860              	.L560:
 3861 1957 8B50F8   		movl	-8(%rax), %edx
 3862 195a 8D4AFF   		leal	-1(%rdx), %ecx
 3863 195d 8948F8   		movl	%ecx, -8(%rax)
 3864 1960 89D0     		movl	%edx, %eax
 3865 1962 E965FFFF 		jmp	.L561
 3865      FF
 3866              	.L608:
 3867 1967 4889C7   		movq	%rax, %rdi
 3868 196a BB010000 		movl	$1, %ebx
 3868      00
 3869              	.L547:
 3870 196f 4883FA01 		cmpq	$1, %rdx
 3871 1973 0F847001 		je	.L598
 3871      0000
 3872 1979 4883FA02 		cmpq	$2, %rdx
 3873 197d 0F852601 		jne	.L653
 3873      0000
 3874 1983 E8000000 		call	__cxa_begin_catch
 3874      00
 3875 1988 488DBC24 		leaq	144(%rsp), %rdi
 3875      90000000 
 3876 1990 4889C3   		movq	%rax, %rbx
 3877              	.LEHB67:
 3878 1993 E8000000 		call	_ZN8UnitTest15MemoryOutStreamC1Ev
 3878      00
 3879              	.LEHE67:
 3880 1998 488B03   		movq	(%rbx), %rax
 3881 199b 4889DF   		movq	%rbx, %rdi
 3882 199e FF5010   		call	*16(%rax)
 3883 19a1 488DBC24 		leaq	144(%rsp), %rdi
 3883      90000000 
 3884 19a9 BE000000 		movl	$.LC34, %esi
 3884      00
 3885 19ae 4889C3   		movq	%rax, %rbx
 3886              	.LEHB68:
 3887 19b1 E8000000 		call	_ZStlsISt11char_traitsIcEERSt13basic_ostreamIcT_ES5_PKc
 3887      00
 3888 19b6 4889C7   		movq	%rax, %rdi
 3889 19b9 4889DE   		movq	%rbx, %rsi
 3890 19bc E8000000 		call	_ZStlsISt11char_traitsIcEERSt13basic_ostreamIcT_ES5_PKc
 3890      00
 3891 19c1 488DBC24 		leaq	144(%rsp), %rdi
 3891      90000000 
 3892 19c9 E8000000 		call	_ZNK8UnitTest15MemoryOutStream7GetTextEv
 3892      00
 3893 19ce 4889C3   		movq	%rax, %rbx
 3894 19d1 E8000000 		call	_ZN8UnitTest11CurrentTest7ResultsEv
 3894      00
 3895 19d6 488B38   		movq	(%rax), %rdi
 3896 19d9 4889DA   		movq	%rbx, %rdx
 3897 19dc 4C89EE   		movq	%r13, %rsi
 3898 19df E8000000 		call	_ZN8UnitTest11TestResults13OnTestFailureERKNS_11TestDetailsEPKc
 3898      00
 3899              	.LEHE68:
 3900 19e4 488DBC24 		leaq	144(%rsp), %rdi
 3900      90000000 
 3901              	.LEHB69:
 3902 19ec E8000000 		call	_ZN8UnitTest15MemoryOutStreamD1Ev
 3902      00
 3903              	.LEHE69:
 3904              	.L640:
 3905 19f1 E8000000 		call	__cxa_end_catch
 3905      00
 3906 19f6 E99DFDFF 		jmp	.L538
 3906      FF
 3907              	.L617:
 3908 19fb 4889C3   		movq	%rax, %rbx
 3909 19fe 488B4424 		movq	80(%rsp), %rax
 3909      50
 3910 1a03 4889D5   		movq	%rdx, %rbp
 3911 1a06 488D78E8 		leaq	-24(%rax), %rdi
 3912 1a0a 4881FF00 		cmpq	$_ZNSs4_Rep20_S_empty_rep_storageE, %rdi
 3912      000000
 3913 1a11 740A     		je	.L542
 3914 1a13 488D7424 		leaq	31(%rsp), %rsi
 3914      1F
 3915 1a18 E8000000 		call	_ZNSs4_Rep10_M_disposeERKSaIcE.part.1
 3915      00
 3916              	.L542:
 3917 1a1d 488B4424 		movq	72(%rsp), %rax
 3917      48
 3918 1a22 488D78E8 		leaq	-24(%rax), %rdi
 3919 1a26 4881FF00 		cmpq	$_ZNSs4_Rep20_S_empty_rep_storageE, %rdi
 3919      000000
 3920 1a2d 740A     		je	.L544
 3921 1a2f 488D7424 		leaq	31(%rsp), %rsi
 3921      1F
 3922 1a34 E8000000 		call	_ZNSs4_Rep10_M_disposeERKSaIcE.part.1
 3922      00
 3923              	.L544:
 3924 1a39 488B4424 		movq	64(%rsp), %rax
 3924      40
 3925 1a3e 488D78E8 		leaq	-24(%rax), %rdi
 3926 1a42 4881FF00 		cmpq	$_ZNSs4_Rep20_S_empty_rep_storageE, %rdi
 3926      000000
 3927 1a49 740A     		je	.L546
 3928 1a4b 488D7424 		leaq	31(%rsp), %rsi
 3928      1F
 3929 1a50 E8000000 		call	_ZNSs4_Rep10_M_disposeERKSaIcE.part.1
 3929      00
 3930              	.L546:
 3931 1a55 488D7C24 		leaq	40(%rsp), %rdi
 3931      28
 3932 1a5a 48C74424 		movq	$_ZTVN8UnitTest20DeferredTestReporterE+16, 32(%rsp)
 3932      20000000 
 3932      00
 3933 1a63 E8000000 		call	_ZNSt6vectorIN8UnitTest18DeferredTestResultESaIS1_EED1Ev
 3933      00
 3934 1a68 488D7C24 		leaq	32(%rsp), %rdi
 3934      20
 3935 1a6d E8000000 		call	_ZN8UnitTest12TestReporterD2Ev
 3935      00
 3936 1a72 4889DF   		movq	%rbx, %rdi
 3937 1a75 4889EA   		movq	%rbp, %rdx
 3938 1a78 31DB     		xorl	%ebx, %ebx
 3939 1a7a E9F0FEFF 		jmp	.L547
 3939      FF
 3940              	.L616:
 3941 1a7f 4889C3   		movq	%rax, %rbx
 3942 1a82 4889D5   		movq	%rdx, %rbp
 3943 1a85 EB96     		jmp	.L542
 3944              	.L612:
 3945 1a87 488DBC24 		leaq	144(%rsp), %rdi
 3945      90000000 
 3946 1a8f 4889C3   		movq	%rax, %rbx
 3947 1a92 E8000000 		call	_ZN8UnitTest15MemoryOutStreamD1Ev
 3947      00
 3948              	.L602:
 3949 1a97 E8000000 		call	__cxa_end_catch
 3949      00
 3950 1a9c 4889DF   		movq	%rbx, %rdi
 3951              	.LEHB70:
 3952 1a9f E8000000 		call	_Unwind_Resume
 3952      00
 3953              	.LEHE70:
 3954              	.L611:
 3955              	.L641:
 3956 1aa4 4889C3   		movq	%rax, %rbx
 3957 1aa7 EBEE     		jmp	.L602
 3958              	.L653:
 3959 1aa9 E8000000 		call	__cxa_begin_catch
 3959      00
 3960 1aae 84DB     		testb	%bl, %bl
 3961 1ab0 BA2E0000 		movl	$46, %edx
 3961      00
 3962 1ab5 4C89EE   		movq	%r13, %rsi
 3963 1ab8 488D7C24 		leaq	32(%rsp), %rdi
 3963      20
 3964 1abd 0F849400 		je	.L605
 3964      0000
 3965              	.LEHB71:
 3966 1ac3 E8000000 		call	_ZN8UnitTest11TestDetailsC1ERKS0_i
 3966      00
 3967 1ac8 E8000000 		call	_ZN8UnitTest11CurrentTest7ResultsEv
 3967      00
 3968 1acd 488B38   		movq	(%rax), %rdi
 3969 1ad0 488D7424 		leaq	32(%rsp), %rsi
 3969      20
 3970 1ad5 BA000000 		movl	$.LC42, %edx
 3970      00
 3971 1ada E8000000 		call	_ZN8UnitTest11TestResults13OnTestFailureERKNS_11TestDetailsEPKc
 3971      00
 3972              	.LEHE71:
 3973              	.L606:
 3974              	.LEHB72:
 3975 1adf E8000000 		call	__cxa_end_catch
 3975      00
 3976              	.LEHE72:
 3977 1ae4 E9AFFCFF 		jmp	.L538
 3977      FF
 3978              	.L598:
 3979 1ae9 E8000000 		call	__cxa_begin_catch
 3979      00
 3980 1aee 4889C3   		movq	%rax, %rbx
 3981 1af1 488B00   		movq	(%rax), %rax
 3982 1af4 4889DF   		movq	%rbx, %rdi
 3983 1af7 FF5010   		call	*16(%rax)
 3984 1afa 4889DF   		movq	%rbx, %rdi
 3985 1afd 4889C5   		movq	%rax, %rbp
 3986              	.LEHB73:
 3987 1b00 E8000000 		call	_ZNK8UnitTest15AssertException10LineNumberEv
 3987      00
 3988 1b05 4889DF   		movq	%rbx, %rdi
 3989 1b08 4189C4   		movl	%eax, %r12d
 3990 1b0b E8000000 		call	_ZNK8UnitTest15AssertException8FilenameEv
 3990      00
 3991 1b10 488B7424 		movq	8(%rsp), %rsi
 3991      08
 3992 1b15 488D7C24 		leaq	32(%rsp), %rdi
 3992      20
 3993 1b1a 4589E0   		movl	%r12d, %r8d
 3994 1b1d 4889C1   		movq	%rax, %rcx
 3995 1b20 488B5608 		movq	8(%rsi), %rdx
 3996 1b24 488B7610 		movq	16(%rsi), %rsi
 3997 1b28 E8000000 		call	_ZN8UnitTest11TestDetailsC1EPKcS2_S2_i
 3997      00
 3998 1b2d E8000000 		call	_ZN8UnitTest11CurrentTest7ResultsEv
 3998      00
 3999 1b32 488B38   		movq	(%rax), %rdi
 4000 1b35 488D7424 		leaq	32(%rsp), %rsi
 4000      20
 4001 1b3a 4889EA   		movq	%rbp, %rdx
 4002 1b3d E8000000 		call	_ZN8UnitTest11TestResults13OnTestFailureERKNS_11TestDetailsEPKc
 4002      00
 4003              	.LEHE73:
 4004 1b42 E9AAFEFF 		jmp	.L640
 4004      FF
 4005              	.L613:
 4006 1b47 4889C3   		movq	%rax, %rbx
 4007 1b4a E8000000 		call	__cxa_end_catch
 4007      00
 4008 1b4f 4889DF   		movq	%rbx, %rdi
 4009              	.LEHB74:
 4010 1b52 E8000000 		call	_Unwind_Resume
 4010      00
 4011              	.LEHE74:
 4012              	.L605:
 4013              	.LEHB75:
 4014 1b57 E8000000 		call	_ZN8UnitTest11TestDetailsC1ERKS0_i
 4014      00
 4015 1b5c E8000000 		call	_ZN8UnitTest11CurrentTest7ResultsEv
 4015      00
 4016 1b61 488B38   		movq	(%rax), %rdi
 4017 1b64 488D7424 		leaq	32(%rsp), %rsi
 4017      20
 4018 1b69 BA000000 		movl	$.LC43, %edx
 4018      00
 4019 1b6e E8000000 		call	_ZN8UnitTest11TestResults13OnTestFailureERKNS_11TestDetailsEPKc
 4019      00
 4020              	.LEHE75:
 4021 1b73 E967FFFF 		jmp	.L606
 4021      FF
 4022              	.L610:
 4023 1b78 E927FFFF 		jmp	.L641
 4023      FF
 4024              	.L615:
 4025 1b7d 4889C3   		movq	%rax, %rbx
 4026 1b80 4889D5   		movq	%rdx, %rbp
 4027 1b83 E9B1FEFF 		jmp	.L544
 4027      FF
 4028              	.L609:
 4029 1b88 488D7C24 		leaq	32(%rsp), %rdi
 4029      20
 4030 1b8d 4889C3   		movq	%rax, %rbx
 4031 1b90 4889D5   		movq	%rdx, %rbp
 4032 1b93 E8000000 		call	_ZN8UnitTest12_GLOBAL__N_127DeferredTestReporterFixtureD2Ev
 4032      00
 4033 1b98 4889DF   		movq	%rbx, %rdi
 4034 1b9b 4889EA   		movq	%rbp, %rdx
 4035 1b9e BB010000 		movl	$1, %ebx
 4035      00
 4036 1ba3 E9C7FDFF 		jmp	.L547
 4036      FF
 4037              	.L651:
 4038 1ba8 E8000000 		call	__stack_chk_fail
 4038      00
 4039              	.L614:
 4040 1bad 4889C3   		movq	%rax, %rbx
 4041 1bb0 4889D5   		movq	%rdx, %rbp
 4042 1bb3 E99DFEFF 		jmp	.L546
 4042      FF
 4043              		.cfi_endproc
 4044              	.LFE1415:
 4045              		.section	.gcc_except_table
 4046              		.align 4
 4047              	.LLSDA1415:
 4048 01a0 FF       		.byte	0xff
 4049 01a1 03       		.byte	0x3
 4050 01a2 6D       		.uleb128 .LLSDATT1415-.LLSDATTD1415
 4051              	.LLSDATTD1415:
 4052 01a3 01       		.byte	0x1
 4053 01a4 55       		.uleb128 .LLSDACSE1415-.LLSDACSB1415
 4054              	.LLSDACSB1415:
 4055 01a5 64       		.uleb128 .LEHB61-.LFB1415
 4056 01a6 05       		.uleb128 .LEHE61-.LEHB61
 4057 01a7 AD0C     		.uleb128 .L614-.LFB1415
 4058 01a9 07       		.uleb128 0x7
 4059 01aa 7C       		.uleb128 .LEHB62-.LFB1415
 4060 01ab 05       		.uleb128 .LEHE62-.LEHB62
 4061 01ac FD0B     		.uleb128 .L615-.LFB1415
 4062 01ae 07       		.uleb128 0x7
 4063 01af 9401     		.uleb128 .LEHB63-.LFB1415
 4064 01b1 05       		.uleb128 .LEHE63-.LEHB63
 4065 01b2 FF09     		.uleb128 .L616-.LFB1415
 4066 01b4 07       		.uleb128 0x7
 4067 01b5 BF01     		.uleb128 .LEHB64-.LFB1415
 4068 01b7 05       		.uleb128 .LEHE64-.LEHB64
 4069 01b8 FB08     		.uleb128 .L617-.LFB1415
 4070 01ba 07       		.uleb128 0x7
 4071 01bb D401     		.uleb128 .LEHB65-.LFB1415
 4072 01bd 05       		.uleb128 .LEHE65-.LEHB65
 4073 01be 880C     		.uleb128 .L609-.LFB1415
 4074 01c0 07       		.uleb128 0x7
 4075 01c1 9304     		.uleb128 .LEHB66-.LFB1415
 4076 01c3 05       		.uleb128 .LEHE66-.LEHB66
 4077 01c4 E707     		.uleb128 .L608-.LFB1415
 4078 01c6 05       		.uleb128 0x5
 4079 01c7 9308     		.uleb128 .LEHB67-.LFB1415
 4080 01c9 05       		.uleb128 .LEHE67-.LEHB67
 4081 01ca A40A     		.uleb128 .L611-.LFB1415
 4082 01cc 00       		.uleb128 0
 4083 01cd B108     		.uleb128 .LEHB68-.LFB1415
 4084 01cf 33       		.uleb128 .LEHE68-.LEHB68
 4085 01d0 870A     		.uleb128 .L612-.LFB1415
 4086 01d2 00       		.uleb128 0
 4087 01d3 EC08     		.uleb128 .LEHB69-.LFB1415
 4088 01d5 05       		.uleb128 .LEHE69-.LEHB69
 4089 01d6 A40A     		.uleb128 .L611-.LFB1415
 4090 01d8 00       		.uleb128 0
 4091 01d9 9F0A     		.uleb128 .LEHB70-.LFB1415
 4092 01db 05       		.uleb128 .LEHE70-.LEHB70
 4093 01dc 00       		.uleb128 0
 4094 01dd 00       		.uleb128 0
 4095 01de C30A     		.uleb128 .LEHB71-.LFB1415
 4096 01e0 1C       		.uleb128 .LEHE71-.LEHB71
 4097 01e1 C70B     		.uleb128 .L613-.LFB1415
 4098 01e3 00       		.uleb128 0
 4099 01e4 DF0A     		.uleb128 .LEHB72-.LFB1415
 4100 01e6 05       		.uleb128 .LEHE72-.LEHB72
 4101 01e7 00       		.uleb128 0
 4102 01e8 00       		.uleb128 0
 4103 01e9 800B     		.uleb128 .LEHB73-.LFB1415
 4104 01eb 42       		.uleb128 .LEHE73-.LEHB73
 4105 01ec F80B     		.uleb128 .L610-.LFB1415
 4106 01ee 00       		.uleb128 0
 4107 01ef D20B     		.uleb128 .LEHB74-.LFB1415
 4108 01f1 05       		.uleb128 .LEHE74-.LEHB74
 4109 01f2 00       		.uleb128 0
 4110 01f3 00       		.uleb128 0
 4111 01f4 D70B     		.uleb128 .LEHB75-.LFB1415
 4112 01f6 1C       		.uleb128 .LEHE75-.LEHB75
 4113 01f7 C70B     		.uleb128 .L613-.LFB1415
 4114 01f9 00       		.uleb128 0
 4115              	.LLSDACSE1415:
 4116 01fa 03       		.byte	0x3
 4117 01fb 00       		.byte	0
 4118 01fc 02       		.byte	0x2
 4119 01fd 7D       		.byte	0x7d
 4120 01fe 01       		.byte	0x1
 4121 01ff 7D       		.byte	0x7d
 4122 0200 00       		.byte	0
 4123 0201 7D       		.byte	0x7d
 4124 0202 0000     		.align 4
 4125 0204 00000000 		.long	0
 4126              	
 4127 0208 00000000 		.long	_ZTISt9exception
 4128 020c 00000000 		.long	_ZTIN8UnitTest15AssertExceptionE
 4129              	.LLSDATT1415:
 4130              		.text
 4132              		.section	.text.unlikely
 4133              	.LCOLDE48:
 4134              		.text
 4135              	.LHOTE48:
 4136              		.section	.text.unlikely._ZN8UnitTest10CheckEqualIPKcSsEEvRNS_11TestResultsERKT_RKT0_RKNS_11TestDet
 4137              	.LCOLDB49:
 4138              		.section	.text._ZN8UnitTest10CheckEqualIPKcSsEEvRNS_11TestResultsERKT_RKT0_RKNS_11TestDetailsE,"ax
 4139              	.LHOTB49:
 4140              		.p2align 4,,15
 4141              		.weak	_ZN8UnitTest10CheckEqualIPKcSsEEvRNS_11TestResultsERKT_RKT0_RKNS_11TestDetailsE
 4143              	_ZN8UnitTest10CheckEqualIPKcSsEEvRNS_11TestResultsERKT_RKT0_RKNS_11TestDetailsE:
 4144              	.LFB1522:
 4145              		.cfi_startproc
 4146              		.cfi_personality 0x3,__gxx_personality_v0
 4147              		.cfi_lsda 0x3,.LLSDA1522
 4148 0000 4156     		pushq	%r14
 4149              		.cfi_def_cfa_offset 16
 4150              		.cfi_offset 14, -16
 4151 0002 4155     		pushq	%r13
 4152              		.cfi_def_cfa_offset 24
 4153              		.cfi_offset 13, -24
 4154 0004 4989CD   		movq	%rcx, %r13
 4155 0007 4154     		pushq	%r12
 4156              		.cfi_def_cfa_offset 32
 4157              		.cfi_offset 12, -32
 4158 0009 55       		pushq	%rbp
 4159              		.cfi_def_cfa_offset 40
 4160              		.cfi_offset 6, -40
 4161 000a 4889F5   		movq	%rsi, %rbp
 4162 000d 53       		pushq	%rbx
 4163              		.cfi_def_cfa_offset 48
 4164              		.cfi_offset 3, -48
 4165 000e 4989FC   		movq	%rdi, %r12
 4166 0011 4889D7   		movq	%rdx, %rdi
 4167 0014 4889D3   		movq	%rdx, %rbx
 4168 0017 4881EC80 		subq	$384, %rsp
 4168      010000
 4169              		.cfi_def_cfa_offset 432
 4170 001e 488B36   		movq	(%rsi), %rsi
 4171 0021 64488B04 		movq	%fs:40, %rax
 4171      25280000 
 4171      00
 4172 002a 48898424 		movq	%rax, 376(%rsp)
 4172      78010000 
 4173 0032 31C0     		xorl	%eax, %eax
 4174              	.LEHB76:
 4175 0034 E8000000 		call	_ZNKSs7compareEPKc
 4175      00
 4176              	.LEHE76:
 4177 0039 85C0     		testl	%eax, %eax
 4178 003b 752B     		jne	.L688
 4179              	.L654:
 4180 003d 488B8424 		movq	376(%rsp), %rax
 4180      78010000 
 4181 0045 64483304 		xorq	%fs:40, %rax
 4181      25280000 
 4181      00
 4182 004e 0F85C902 		jne	.L689
 4182      0000
 4183 0054 4881C480 		addq	$384, %rsp
 4183      010000
 4184              		.cfi_remember_state
 4185              		.cfi_def_cfa_offset 48
 4186 005b 5B       		popq	%rbx
 4187              		.cfi_def_cfa_offset 40
 4188 005c 5D       		popq	%rbp
 4189              		.cfi_def_cfa_offset 32
 4190 005d 415C     		popq	%r12
 4191              		.cfi_def_cfa_offset 24
 4192 005f 415D     		popq	%r13
 4193              		.cfi_def_cfa_offset 16
 4194 0061 415E     		popq	%r14
 4195              		.cfi_def_cfa_offset 8
 4196 0063 C3       		ret
 4197              		.p2align 4,,10
 4198 0064 0F1F4000 		.p2align 3
 4199              	.L688:
 4200              		.cfi_restore_state
 4201 0068 4C8D7424 		leaq	112(%rsp), %r14
 4201      70
 4202 006d 4C89F7   		movq	%r14, %rdi
 4203 0070 E8000000 		call	_ZNSt8ios_baseC2Ev
 4203      00
 4204 0075 31F6     		xorl	%esi, %esi
 4205 0077 4C89F7   		movq	%r14, %rdi
 4206 007a 48C78424 		movq	$0, 328(%rsp)
 4206      48010000 
 4206      00000000 
 4207 0086 C6842450 		movb	$0, 336(%rsp)
 4207      01000000 
 4208 008e C6842451 		movb	$0, 337(%rsp)
 4208      01000000 
 4209 0096 48C78424 		movq	$0, 344(%rsp)
 4209      58010000 
 4209      00000000 
 4210 00a2 48C78424 		movq	$0, 352(%rsp)
 4210      60010000 
 4210      00000000 
 4211 00ae 48C78424 		movq	$0, 360(%rsp)
 4211      68010000 
 4211      00000000 
 4212 00ba 48C78424 		movq	$0, 368(%rsp)
 4212      70010000 
 4212      00000000 
 4213 00c6 48C74424 		movq	$_ZTCN8UnitTest15MemoryOutStreamE0_So+24, 16(%rsp)
 4213      10000000 
 4213      00
 4214 00cf 48C74424 		movq	$_ZTCN8UnitTest15MemoryOutStreamE0_So+64, 112(%rsp)
 4214      70000000 
 4214      00
 4215              	.LEHB77:
 4216 00d8 E8000000 		call	_ZNSt9basic_iosIcSt11char_traitsIcEE4initEPSt15basic_streambufIcS1_E
 4216      00
 4217              	.LEHE77:
 4218 00dd 488D7C24 		leaq	80(%rsp), %rdi
 4218      50
 4219 00e2 48C74424 		movq	$_ZTCN8UnitTest15MemoryOutStreamE0_St19basic_ostringstreamIcSt11char_traitsIcESaIcEE+24, 16(%
 4219      10000000 
 4219      00
 4220 00eb 48C74424 		movq	$_ZTCN8UnitTest15MemoryOutStreamE0_St19basic_ostringstreamIcSt11char_traitsIcESaIcEE+64, 112(
 4220      70000000 
 4220      00
 4221 00f4 48C74424 		movq	$_ZTVSt15basic_streambufIcSt11char_traitsIcEE+16, 24(%rsp)
 4221      18000000 
 4221      00
 4222 00fd 48C74424 		movq	$0, 32(%rsp)
 4222      20000000 
 4222      00
 4223 0106 48C74424 		movq	$0, 40(%rsp)
 4223      28000000 
 4223      00
 4224 010f 48C74424 		movq	$0, 48(%rsp)
 4224      30000000 
 4224      00
 4225 0118 48C74424 		movq	$0, 56(%rsp)
 4225      38000000 
 4225      00
 4226 0121 48C74424 		movq	$0, 64(%rsp)
 4226      40000000 
 4226      00
 4227 012a 48C74424 		movq	$0, 72(%rsp)
 4227      48000000 
 4227      00
 4228 0133 E8000000 		call	_ZNSt6localeC1Ev
 4228      00
 4229 0138 488B4424 		movq	16(%rsp), %rax
 4229      10
 4230 013d 488D7C24 		leaq	16(%rsp), %rdi
 4230      10
 4231 0142 488D7424 		leaq	24(%rsp), %rsi
 4231      18
 4232 0147 48C74424 		movq	$_ZTVSt15basic_stringbufIcSt11char_traitsIcESaIcEE+16, 24(%rsp)
 4232      18000000 
 4232      00
 4233 0150 C7442458 		movl	$16, 88(%rsp)
 4233      10000000 
 4234 0158 48C74424 		movq	$_ZNSs4_Rep20_S_empty_rep_storageE+24, 96(%rsp)
 4234      60000000 
 4234      00
 4235 0161 480378E8 		addq	-24(%rax), %rdi
 4236              	.LEHB78:
 4237 0165 E8000000 		call	_ZNSt9basic_iosIcSt11char_traitsIcEE4initEPSt15basic_streambufIcS1_E
 4237      00
 4238              	.LEHE78:
 4239 016a 488D7C24 		leaq	16(%rsp), %rdi
 4239      10
 4240 016f BA090000 		movl	$9, %edx
 4240      00
 4241 0174 BE000000 		movl	$.LC28, %esi
 4241      00
 4242 0179 48C74424 		movq	$_ZTVN8UnitTest15MemoryOutStreamE+24, 16(%rsp)
 4242      10000000 
 4242      00
 4243 0182 48C74424 		movq	$_ZTVN8UnitTest15MemoryOutStreamE+64, 112(%rsp)
 4243      70000000 
 4243      00
 4244 018b 48C74424 		movq	$_ZNSs4_Rep20_S_empty_rep_storageE+24, 104(%rsp)
 4244      68000000 
 4244      00
 4245 0194 488B6D00 		movq	0(%rbp), %rbp
 4246              	.LEHB79:
 4247 0198 E8000000 		call	_ZSt16__ostream_insertIcSt11char_traitsIcEERSt13basic_ostreamIT_T0_ES6_PKS3_l
 4247      00
 4248 019d 4885ED   		testq	%rbp, %rbp
 4249 01a0 0F84DA00 		je	.L690
 4249      0000
 4250 01a6 4889EF   		movq	%rbp, %rdi
 4251 01a9 E8000000 		call	strlen
 4251      00
 4252 01ae 488D7C24 		leaq	16(%rsp), %rdi
 4252      10
 4253 01b3 4889C2   		movq	%rax, %rdx
 4254 01b6 4889EE   		movq	%rbp, %rsi
 4255 01b9 E8000000 		call	_ZSt16__ostream_insertIcSt11char_traitsIcEERSt13basic_ostreamIT_T0_ES6_PKS3_l
 4255      00
 4256              	.L662:
 4257 01be 488D7C24 		leaq	16(%rsp), %rdi
 4257      10
 4258 01c3 BA090000 		movl	$9, %edx
 4258      00
 4259 01c8 BE000000 		movl	$.LC32, %esi
 4259      00
 4260 01cd E8000000 		call	_ZSt16__ostream_insertIcSt11char_traitsIcEERSt13basic_ostreamIT_T0_ES6_PKS3_l
 4260      00
 4261 01d2 488B33   		movq	(%rbx), %rsi
 4262 01d5 488D7C24 		leaq	16(%rsp), %rdi
 4262      10
 4263 01da 488B56E8 		movq	-24(%rsi), %rdx
 4264 01de E8000000 		call	_ZSt16__ostream_insertIcSt11char_traitsIcEERSt13basic_ostreamIT_T0_ES6_PKS3_l
 4264      00
 4265 01e3 488D7C24 		leaq	16(%rsp), %rdi
 4265      10
 4266 01e8 E8000000 		call	_ZNK8UnitTest15MemoryOutStream7GetTextEv
 4266      00
 4267 01ed 4889C2   		movq	%rax, %rdx
 4268 01f0 4C89EE   		movq	%r13, %rsi
 4269 01f3 4C89E7   		movq	%r12, %rdi
 4270 01f6 E8000000 		call	_ZN8UnitTest11TestResults13OnTestFailureERKNS_11TestDetailsEPKc
 4270      00
 4271              	.LEHE79:
 4272 01fb 488B4424 		movq	104(%rsp), %rax
 4272      68
 4273 0200 48C74424 		movq	$_ZTVN8UnitTest15MemoryOutStreamE+24, 16(%rsp)
 4273      10000000 
 4273      00
 4274 0209 48C74424 		movq	$_ZTVN8UnitTest15MemoryOutStreamE+64, 112(%rsp)
 4274      70000000 
 4274      00
 4275 0212 488D78E8 		leaq	-24(%rax), %rdi
 4276 0216 4881FF00 		cmpq	$_ZNSs4_Rep20_S_empty_rep_storageE, %rdi
 4276      000000
 4277 021d 0F857D00 		jne	.L691
 4277      0000
 4278              	.L664:
 4279 0223 488B4424 		movq	96(%rsp), %rax
 4279      60
 4280 0228 48C74424 		movq	$_ZTCN8UnitTest15MemoryOutStreamE0_St19basic_ostringstreamIcSt11char_traitsIcESaIcEE+24, 16(%
 4280      10000000 
 4280      00
 4281 0231 48C74424 		movq	$_ZTCN8UnitTest15MemoryOutStreamE0_St19basic_ostringstreamIcSt11char_traitsIcESaIcEE+64, 112(
 4281      70000000 
 4281      00
 4282 023a 48C74424 		movq	$_ZTVSt15basic_stringbufIcSt11char_traitsIcESaIcEE+16, 24(%rsp)
 4282      18000000 
 4282      00
 4283 0243 488D78E8 		leaq	-24(%rax), %rdi
 4284 0247 4881FF00 		cmpq	$_ZNSs4_Rep20_S_empty_rep_storageE, %rdi
 4284      000000
 4285 024e 0F857C00 		jne	.L692
 4285      0000
 4286              	.L669:
 4287 0254 488D7C24 		leaq	80(%rsp), %rdi
 4287      50
 4288 0259 48C74424 		movq	$_ZTVSt15basic_streambufIcSt11char_traitsIcEE+16, 24(%rsp)
 4288      18000000 
 4288      00
 4289 0262 E8000000 		call	_ZNSt6localeD1Ev
 4289      00
 4290 0267 488D7C24 		leaq	112(%rsp), %rdi
 4290      70
 4291 026c 48C74424 		movq	$_ZTVSt9basic_iosIcSt11char_traitsIcEE+16, 112(%rsp)
 4291      70000000 
 4291      00
 4292              	.LEHB80:
 4293 0275 E8000000 		call	_ZNSt8ios_baseD2Ev
 4293      00
 4294              	.LEHE80:
 4295 027a E9BEFDFF 		jmp	.L654
 4295      FF
 4296 027f 90       		.p2align 4,,10
 4297              		.p2align 3
 4298              	.L690:
 4299 0280 488B4424 		movq	16(%rsp), %rax
 4299      10
 4300 0285 488D7C24 		leaq	16(%rsp), %rdi
 4300      10
 4301 028a 480378E8 		addq	-24(%rax), %rdi
 4302 028e 8B7720   		movl	32(%rdi), %esi
 4303 0291 83CE01   		orl	$1, %esi
 4304              	.LEHB81:
 4305 0294 E8000000 		call	_ZNSt9basic_iosIcSt11char_traitsIcEE5clearESt12_Ios_Iostate
 4305      00
 4306              	.LEHE81:
 4307 0299 E920FFFF 		jmp	.L662
 4307      FF
 4308 029e 6690     		.p2align 4,,10
 4309              		.p2align 3
 4310              	.L691:
 4311 02a0 BA000000 		movl	$_ZL28__gthrw___pthread_key_createPjPFvPvE, %edx
 4311      00
 4312 02a5 4885D2   		testq	%rdx, %rdx
 4313 02a8 7456     		je	.L665
 4314 02aa BAFFFFFF 		movl	$-1, %edx
 4314      FF
 4315 02af F00FC150 		lock xaddl	%edx, -8(%rax)
 4315      F8
 4316 02b4 89D0     		movl	%edx, %eax
 4317              	.L666:
 4318 02b6 85C0     		testl	%eax, %eax
 4319 02b8 0F8F65FF 		jg	.L664
 4319      FFFF
 4320 02be 488D7424 		leaq	15(%rsp), %rsi
 4320      0F
 4321 02c3 E8000000 		call	_ZNSs4_Rep10_M_destroyERKSaIcE
 4321      00
 4322 02c8 E956FFFF 		jmp	.L664
 4322      FF
 4323 02cd 0F1F00   		.p2align 4,,10
 4324              		.p2align 3
 4325              	.L692:
 4326 02d0 BA000000 		movl	$_ZL28__gthrw___pthread_key_createPjPFvPvE, %edx
 4326      00
 4327 02d5 4885D2   		testq	%rdx, %rdx
 4328 02d8 7436     		je	.L670
 4329 02da BAFFFFFF 		movl	$-1, %edx
 4329      FF
 4330 02df F00FC150 		lock xaddl	%edx, -8(%rax)
 4330      F8
 4331 02e4 89D0     		movl	%edx, %eax
 4332              	.L671:
 4333 02e6 85C0     		testl	%eax, %eax
 4334 02e8 0F8F66FF 		jg	.L669
 4334      FFFF
 4335 02ee 488D7424 		leaq	15(%rsp), %rsi
 4335      0F
 4336 02f3 E8000000 		call	_ZNSs4_Rep10_M_destroyERKSaIcE
 4336      00
 4337 02f8 E957FFFF 		jmp	.L669
 4337      FF
 4338 02fd 0F1F00   		.p2align 4,,10
 4339              		.p2align 3
 4340              	.L665:
 4341 0300 8B50F8   		movl	-8(%rax), %edx
 4342 0303 8D4AFF   		leal	-1(%rdx), %ecx
 4343 0306 8948F8   		movl	%ecx, -8(%rax)
 4344 0309 89D0     		movl	%edx, %eax
 4345 030b EBA9     		jmp	.L666
 4346 030d 0F1F00   		.p2align 4,,10
 4347              		.p2align 3
 4348              	.L670:
 4349 0310 8B50F8   		movl	-8(%rax), %edx
 4350 0313 8D4AFF   		leal	-1(%rdx), %ecx
 4351 0316 8948F8   		movl	%ecx, -8(%rax)
 4352 0319 89D0     		movl	%edx, %eax
 4353 031b EBC9     		jmp	.L671
 4354              	.L689:
 4355 031d E8000000 		call	__stack_chk_fail
 4355      00
 4356              	.L676:
 4357 0322 4889C3   		movq	%rax, %rbx
 4358 0325 EB14     		jmp	.L658
 4359              	.L677:
 4360 0327 4889C3   		movq	%rax, %rbx
 4361 032a EB05     		jmp	.L657
 4362              	.L675:
 4363 032c 4889C3   		movq	%rax, %rbx
 4364 032f EB25     		jmp	.L673
 4365              	.L657:
 4366 0331 488D7C24 		leaq	24(%rsp), %rdi
 4366      18
 4367 0336 E8000000 		call	_ZNSt15basic_stringbufIcSt11char_traitsIcESaIcEED1Ev
 4367      00
 4368              	.L658:
 4369 033b 488D7C24 		leaq	112(%rsp), %rdi
 4369      70
 4370 0340 48C74424 		movq	$_ZTVSt9basic_iosIcSt11char_traitsIcEE+16, 112(%rsp)
 4370      70000000 
 4370      00
 4371 0349 E8000000 		call	_ZNSt8ios_baseD2Ev
 4371      00
 4372 034e 4889DF   		movq	%rbx, %rdi
 4373              	.LEHB82:
 4374 0351 E8000000 		call	_Unwind_Resume
 4374      00
 4375              	.LEHE82:
 4376              	.L673:
 4377 0356 488D7C24 		leaq	16(%rsp), %rdi
 4377      10
 4378 035b E8000000 		call	_ZN8UnitTest15MemoryOutStreamD1Ev
 4378      00
 4379 0360 4889DF   		movq	%rbx, %rdi
 4380              	.LEHB83:
 4381 0363 E8000000 		call	_Unwind_Resume
 4381      00
 4382              	.LEHE83:
 4383              		.cfi_endproc
 4384              	.LFE1522:
 4385              		.section	.gcc_except_table
 4386              	.LLSDA1522:
 4387 0210 FF       		.byte	0xff
 4388 0211 FF       		.byte	0xff
 4389 0212 01       		.byte	0x1
 4390 0213 2B       		.uleb128 .LLSDACSE1522-.LLSDACSB1522
 4391              	.LLSDACSB1522:
 4392 0214 34       		.uleb128 .LEHB76-.LFB1522
 4393 0215 05       		.uleb128 .LEHE76-.LEHB76
 4394 0216 00       		.uleb128 0
 4395 0217 00       		.uleb128 0
 4396 0218 D801     		.uleb128 .LEHB77-.LFB1522
 4397 021a 05       		.uleb128 .LEHE77-.LEHB77
 4398 021b A206     		.uleb128 .L676-.LFB1522
 4399 021d 00       		.uleb128 0
 4400 021e E502     		.uleb128 .LEHB78-.LFB1522
 4401 0220 05       		.uleb128 .LEHE78-.LEHB78
 4402 0221 A706     		.uleb128 .L677-.LFB1522
 4403 0223 00       		.uleb128 0
 4404 0224 9803     		.uleb128 .LEHB79-.LFB1522
 4405 0226 63       		.uleb128 .LEHE79-.LEHB79
 4406 0227 AC06     		.uleb128 .L675-.LFB1522
 4407 0229 00       		.uleb128 0
 4408 022a F504     		.uleb128 .LEHB80-.LFB1522
 4409 022c 05       		.uleb128 .LEHE80-.LEHB80
 4410 022d 00       		.uleb128 0
 4411 022e 00       		.uleb128 0
 4412 022f 9405     		.uleb128 .LEHB81-.LFB1522
 4413 0231 05       		.uleb128 .LEHE81-.LEHB81
 4414 0232 AC06     		.uleb128 .L675-.LFB1522
 4415 0234 00       		.uleb128 0
 4416 0235 D106     		.uleb128 .LEHB82-.LFB1522
 4417 0237 05       		.uleb128 .LEHE82-.LEHB82
 4418 0238 00       		.uleb128 0
 4419 0239 00       		.uleb128 0
 4420 023a E306     		.uleb128 .LEHB83-.LFB1522
 4421 023c 05       		.uleb128 .LEHE83-.LEHB83
 4422 023d 00       		.uleb128 0
 4423 023e 00       		.uleb128 0
 4424              	.LLSDACSE1522:
 4425              		.section	.text._ZN8UnitTest10CheckEqualIPKcSsEEvRNS_11TestResultsERKT_RKT0_RKNS_11TestDetailsE,"ax
 4427              		.section	.text.unlikely._ZN8UnitTest10CheckEqualIPKcSsEEvRNS_11TestResultsERKT_RKT0_RKNS_11TestDet
 4428              	.LCOLDE49:
 4429              		.section	.text._ZN8UnitTest10CheckEqualIPKcSsEEvRNS_11TestResultsERKT_RKT0_RKNS_11TestDetailsE,"ax
 4430              	.LHOTE49:
 4431              		.section	.rodata.str1.1
 4432              	.LC50:
 4433 0091 5265616C 		.string	"Real failure message"
 4433      20666169 
 4433      6C757265 
 4433      206D6573 
 4433      73616765 
 4434              		.section	.rodata.str1.8
 4435 0179 00000000 		.align 8
 4435      000000
 4436              	.LC51:
 4437 0180 556E6861 		.string	"Unhandled exception in CHECK_EQUAL(goodStr, failure.second)"
 4437      6E646C65 
 4437      64206578 
 4437      63657074 
 4437      696F6E20 
 4438              		.section	.text.unlikely
 4439              	.LCOLDB52:
 4440              		.text
 4441              	.LHOTB52:
 4442 1bb8 0F1F8400 		.p2align 4,,15
 4442      00000000 
 4444              	_ZN8UnitTest11ExecuteTestINS_12_GLOBAL__N_178DeferredTestReporterFixtureDeferredTestReporterTakesCo
 4445              	.LFB1530:
 4446              		.cfi_startproc
 4447              		.cfi_personality 0x3,__gxx_personality_v0
 4448              		.cfi_lsda 0x3,.LLSDA1530
 4449 1bc0 4154     		pushq	%r12
 4450              		.cfi_def_cfa_offset 16
 4451              		.cfi_offset 12, -16
 4452 1bc2 55       		pushq	%rbp
 4453              		.cfi_def_cfa_offset 24
 4454              		.cfi_offset 6, -24
 4455 1bc3 53       		pushq	%rbx
 4456              		.cfi_def_cfa_offset 32
 4457              		.cfi_offset 3, -32
 4458 1bc4 4889F3   		movq	%rsi, %rbx
 4459 1bc7 4881ECE0 		subq	$1760, %rsp
 4459      060000
 4460              		.cfi_def_cfa_offset 1792
 4461 1bce 48893C24 		movq	%rdi, (%rsp)
 4462 1bd2 48897424 		movq	%rsi, 8(%rsp)
 4462      08
 4463 1bd7 64488B04 		movq	%fs:40, %rax
 4463      25280000 
 4463      00
 4464 1be0 48898424 		movq	%rax, 1752(%rsp)
 4464      D8060000 
 4465 1be8 31C0     		xorl	%eax, %eax
 4466              	.LEHB84:
 4467 1bea E8000000 		call	_ZN8UnitTest11CurrentTest7DetailsEv
 4467      00
 4468              	.LEHE84:
 4469 1bef 488DBC24 		leaq	496(%rsp), %rdi
 4469      F0010000 
 4470 1bf7 488918   		movq	%rbx, (%rax)
 4471              	.LEHB85:
 4472 1bfa E8000000 		call	_ZN8UnitTest16SignalTranslatorC1Ev
 4472      00
 4473              	.LEHE85:
 4474 1bff 488B3D00 		movq	_ZN8UnitTest16SignalTranslator12s_jumpTargetE(%rip), %rdi
 4474      000000
 4475 1c06 BE010000 		movl	$1, %esi
 4475      00
 4476 1c0b E8000000 		call	__sigsetjmp
 4476      00
 4477 1c10 85C0     		testl	%eax, %eax
 4478 1c12 0F855001 		jne	.L728
 4478      0000
 4479 1c18 488B2C24 		movq	(%rsp), %rbp
 4480 1c1c 488D5D40 		leaq	64(%rbp), %rbx
 4481 1c20 4889EF   		movq	%rbp, %rdi
 4482 1c23 4889DE   		movq	%rbx, %rsi
 4483              	.LEHB86:
 4484 1c26 E8000000 		call	_ZN8UnitTest20DeferredTestReporter15ReportTestStartERKNS_11TestDetailsE
 4484      00
 4485 1c2b 48B85265 		movabsq	$7593462736166675794, %rax
 4485      616C2066 
 4485      6169
 4486 1c35 488D9424 		leaq	1616(%rsp), %rdx
 4486      50060000 
 4487 1c3d 4889DE   		movq	%rbx, %rsi
 4488 1c40 48898424 		movq	%rax, 1616(%rsp)
 4488      50060000 
 4489 1c48 4889EF   		movq	%rbp, %rdi
 4490 1c4b 48B86C75 		movabsq	$8315172272917869932, %rax
 4490      7265206D 
 4490      6573
 4491 1c55 48C74424 		movq	$.LC50, 24(%rsp)
 4491      18000000 
 4491      00
 4492 1c5e 48898424 		movq	%rax, 1624(%rsp)
 4492      58060000 
 4493 1c66 C7842460 		movl	$1701273971, 1632(%rsp)
 4493      06000073 
 4493      616765
 4494 1c71 C6842464 		movb	$0, 1636(%rsp)
 4494      06000000 
 4495 1c79 E8000000 		call	_ZN8UnitTest20DeferredTestReporter13ReportFailureERKNS_11TestDetailsEPKc
 4495      00
 4496 1c7e 48B8426F 		movabsq	$7018332749566537538, %rax
 4496      67757320 
 4496      6661
 4497 1c88 4889EF   		movq	%rbp, %rdi
 4498 1c8b C7842460 		movl	$1734439795, 1632(%rsp)
 4498      06000073 
 4498      736167
 4499 1c96 48898424 		movq	%rax, 1616(%rsp)
 4499      50060000 
 4500 1c9e 48B8696C 		movabsq	$7308533390376266857, %rax
 4500      75726520 
 4500      6D65
 4501 1ca8 48898424 		movq	%rax, 1624(%rsp)
 4501      58060000 
 4502 1cb0 B8650000 		movl	$101, %eax
 4502      00
 4503 1cb5 66898424 		movw	%ax, 1636(%rsp)
 4503      64060000 
 4504 1cbd E8000000 		call	_ZN8UnitTest20DeferredTestReporter10GetResultsEv
 4504      00
 4505              	.LEHE86:
 4506 1cc2 488B08   		movq	(%rax), %rcx
 4507 1cc5 488B4008 		movq	8(%rax), %rax
 4508 1cc9 48BAB76D 		movabsq	$7905747460161236407, %rdx
 4508      DBB66DDB 
 4508      B66D
 4509 1cd3 4829C8   		subq	%rcx, %rax
 4510 1cd6 48C1F803 		sarq	$3, %rax
 4511 1cda 480FAFC2 		imulq	%rdx, %rax
 4512 1cde 4885C0   		testq	%rax, %rax
 4513 1ce1 0F844801 		je	.L729
 4513      0000
 4514 1ce7 488B5918 		movq	24(%rcx), %rbx
 4515 1ceb 488B4120 		movq	32(%rcx), %rax
 4516 1cef 4829D8   		subq	%rbx, %rax
 4517 1cf2 48C1F804 		sarq	$4, %rax
 4518 1cf6 4885C0   		testq	%rax, %rax
 4519 1cf9 0F844301 		je	.L730
 4519      0000
 4520              	.LEHB87:
 4521 1cff E8000000 		call	_ZN8UnitTest11CurrentTest7DetailsEv
 4521      00
 4522 1d04 488B30   		movq	(%rax), %rsi
 4523 1d07 488D7C24 		leaq	96(%rsp), %rdi
 4523      60
 4524 1d0c BA720000 		movl	$114, %edx
 4524      00
 4525 1d11 E8000000 		call	_ZN8UnitTest11TestDetailsC1ERKS0_i
 4525      00
 4526 1d16 4883C308 		addq	$8, %rbx
 4527 1d1a E8000000 		call	_ZN8UnitTest11CurrentTest7ResultsEv
 4527      00
 4528 1d1f 488B38   		movq	(%rax), %rdi
 4529 1d22 488D4C24 		leaq	96(%rsp), %rcx
 4529      60
 4530 1d27 488D7424 		leaq	24(%rsp), %rsi
 4530      18
 4531 1d2c 4889DA   		movq	%rbx, %rdx
 4532 1d2f E8000000 		call	_ZN8UnitTest10CheckEqualIPKcSsEEvRNS_11TestResultsERKT_RKT0_RKNS_11TestDetailsE
 4532      00
 4533              	.LEHE87:
 4534              	.L702:
 4535 1d34 488DBC24 		leaq	496(%rsp), %rdi
 4535      F0010000 
 4536              	.LEHB88:
 4537 1d3c E8000000 		call	_ZN8UnitTest16SignalTranslatorD1Ev
 4537      00
 4538              	.LEHE88:
 4539              	.L693:
 4540 1d41 488B8424 		movq	1752(%rsp), %rax
 4540      D8060000 
 4541 1d49 64483304 		xorq	%fs:40, %rax
 4541      25280000 
 4541      00
 4542 1d52 0F85E500 		jne	.L731
 4542      0000
 4543 1d58 4881C4E0 		addq	$1760, %rsp
 4543      060000
 4544              		.cfi_remember_state
 4545              		.cfi_def_cfa_offset 32
 4546 1d5f 5B       		popq	%rbx
 4547              		.cfi_def_cfa_offset 24
 4548 1d60 5D       		popq	%rbp
 4549              		.cfi_def_cfa_offset 16
 4550 1d61 415C     		popq	%r12
 4551              		.cfi_def_cfa_offset 8
 4552 1d63 C3       		ret
 4553              		.p2align 4,,10
 4554 1d64 0F1F4000 		.p2align 3
 4555              	.L728:
 4556              		.cfi_restore_state
 4557 1d68 BF080000 		movl	$8, %edi
 4557      00
 4558 1d6d E8000000 		call	__cxa_allocate_exception
 4558      00
 4559 1d72 31D2     		xorl	%edx, %edx
 4560 1d74 48C70000 		movq	$.LC23, (%rax)
 4560      000000
 4561 1d7b BE000000 		movl	$_ZTIPKc, %esi
 4561      00
 4562 1d80 4889C7   		movq	%rax, %rdi
 4563              	.LEHB89:
 4564 1d83 E8000000 		call	__cxa_throw
 4564      00
 4565              	.LEHE89:
 4566              	.L715:
 4567 1d88 4889C3   		movq	%rax, %rbx
 4568 1d8b 4889D5   		movq	%rdx, %rbp
 4569              	.L700:
 4570 1d8e 488DBC24 		leaq	496(%rsp), %rdi
 4570      F0010000 
 4571 1d96 E8000000 		call	_ZN8UnitTest16SignalTranslatorD1Ev
 4571      00
 4572 1d9b 4889DF   		movq	%rbx, %rdi
 4573 1d9e 4889EA   		movq	%rbp, %rdx
 4574              	.L703:
 4575 1da1 4883FA01 		cmpq	$1, %rdx
 4576 1da5 0F844501 		je	.L705
 4576      0000
 4577 1dab 4883FA02 		cmpq	$2, %rdx
 4578 1daf 0F851501 		jne	.L732
 4578      0000
 4579 1db5 E8000000 		call	__cxa_begin_catch
 4579      00
 4580 1dba 488DBC24 		leaq	128(%rsp), %rdi
 4580      80000000 
 4581 1dc2 4889C3   		movq	%rax, %rbx
 4582              	.LEHB90:
 4583 1dc5 E8000000 		call	_ZN8UnitTest15MemoryOutStreamC1Ev
 4583      00
 4584              	.LEHE90:
 4585 1dca 488B03   		movq	(%rbx), %rax
 4586 1dcd 4889DF   		movq	%rbx, %rdi
 4587 1dd0 FF5010   		call	*16(%rax)
 4588 1dd3 488DBC24 		leaq	128(%rsp), %rdi
 4588      80000000 
 4589 1ddb BE000000 		movl	$.LC34, %esi
 4589      00
 4590 1de0 4889C3   		movq	%rax, %rbx
 4591              	.LEHB91:
 4592 1de3 E8000000 		call	_ZStlsISt11char_traitsIcEERSt13basic_ostreamIcT_ES5_PKc
 4592      00
 4593 1de8 4889C7   		movq	%rax, %rdi
 4594 1deb 4889DE   		movq	%rbx, %rsi
 4595 1dee E8000000 		call	_ZStlsISt11char_traitsIcEERSt13basic_ostreamIcT_ES5_PKc
 4595      00
 4596 1df3 488DBC24 		leaq	128(%rsp), %rdi
 4596      80000000 
 4597 1dfb E8000000 		call	_ZNK8UnitTest15MemoryOutStream7GetTextEv
 4597      00
 4598 1e00 4889C3   		movq	%rax, %rbx
 4599 1e03 E8000000 		call	_ZN8UnitTest11CurrentTest7ResultsEv
 4599      00
 4600 1e08 488B7424 		movq	8(%rsp), %rsi
 4600      08
 4601 1e0d 488B38   		movq	(%rax), %rdi
 4602 1e10 4889DA   		movq	%rbx, %rdx
 4603 1e13 E8000000 		call	_ZN8UnitTest11TestResults13OnTestFailureERKNS_11TestDetailsEPKc
 4603      00
 4604              	.LEHE91:
 4605 1e18 488DBC24 		leaq	128(%rsp), %rdi
 4605      80000000 
 4606              	.LEHB92:
 4607 1e20 E8000000 		call	_ZN8UnitTest15MemoryOutStreamD1Ev
 4607      00
 4608              	.LEHE92:
 4609              	.L725:
 4610 1e25 E8000000 		call	__cxa_end_catch
 4610      00
 4611 1e2a E912FFFF 		jmp	.L693
 4611      FF
 4612              	.L729:
 4613 1e2f 31D2     		xorl	%edx, %edx
 4614 1e31 31F6     		xorl	%esi, %esi
 4615 1e33 BF000000 		movl	$.LC25, %edi
 4615      00
 4616              	.LEHB93:
 4617 1e38 E8000000 		call	_ZSt24__throw_out_of_range_fmtPKcz
 4617      00
 4618              	.L731:
 4619 1e3d E8000000 		call	__stack_chk_fail
 4619      00
 4620              	.L730:
 4621 1e42 31D2     		xorl	%edx, %edx
 4622 1e44 31F6     		xorl	%esi, %esi
 4623 1e46 BF000000 		movl	$.LC25, %edi
 4623      00
 4624 1e4b E8000000 		call	_ZSt24__throw_out_of_range_fmtPKcz
 4624      00
 4625              	.LEHE93:
 4626              	.L721:
 4627 1e50 4889C7   		movq	%rax, %rdi
 4628 1e53 E8000000 		call	__cxa_begin_catch
 4628      00
 4629              	.LEHB94:
 4630 1e58 E8000000 		call	_ZN8UnitTest11CurrentTest7DetailsEv
 4630      00
 4631 1e5d 488B30   		movq	(%rax), %rsi
 4632 1e60 488D7C24 		leaq	64(%rsp), %rdi
 4632      40
 4633 1e65 BA720000 		movl	$114, %edx
 4633      00
 4634 1e6a E8000000 		call	_ZN8UnitTest11TestDetailsC1ERKS0_i
 4634      00
 4635 1e6f E8000000 		call	_ZN8UnitTest11CurrentTest7ResultsEv
 4635      00
 4636 1e74 488B38   		movq	(%rax), %rdi
 4637 1e77 488D7424 		leaq	64(%rsp), %rsi
 4637      40
 4638 1e7c BA000000 		movl	$.LC51, %edx
 4638      00
 4639 1e81 E8000000 		call	_ZN8UnitTest11TestResults13OnTestFailureERKNS_11TestDetailsEPKc
 4639      00
 4640              	.LEHE94:
 4641              	.LEHB95:
 4642 1e86 E8000000 		call	__cxa_end_catch
 4642      00
 4643              	.LEHE95:
 4644 1e8b E9A4FEFF 		jmp	.L702
 4644      FF
 4645              	.L714:
 4646 1e90 4889C7   		movq	%rax, %rdi
 4647 1e93 E909FFFF 		jmp	.L703
 4647      FF
 4648              	.L720:
 4649 1e98 4889C3   		movq	%rax, %rbx
 4650 1e9b 4889D5   		movq	%rdx, %rbp
 4651 1e9e E8000000 		call	__cxa_end_catch
 4651      00
 4652 1ea3 E9E6FEFF 		jmp	.L700
 4652      FF
 4653              	.L718:
 4654 1ea8 488DBC24 		leaq	128(%rsp), %rdi
 4654      80000000 
 4655 1eb0 4889C3   		movq	%rax, %rbx
 4656 1eb3 E8000000 		call	_ZN8UnitTest15MemoryOutStreamD1Ev
 4656      00
 4657              	.L709:
 4658 1eb8 E8000000 		call	__cxa_end_catch
 4658      00
 4659 1ebd 4889DF   		movq	%rbx, %rdi
 4660              	.LEHB96:
 4661 1ec0 E8000000 		call	_Unwind_Resume
 4661      00
 4662              	.LEHE96:
 4663              	.L717:
 4664              	.L726:
 4665 1ec5 4889C3   		movq	%rax, %rbx
 4666 1ec8 EBEE     		jmp	.L709
 4667              	.L732:
 4668 1eca E8000000 		call	__cxa_begin_catch
 4668      00
 4669              	.LEHB97:
 4670 1ecf E8000000 		call	_ZN8UnitTest11CurrentTest7ResultsEv
 4670      00
 4671 1ed4 488B7424 		movq	8(%rsp), %rsi
 4671      08
 4672 1ed9 488B38   		movq	(%rax), %rdi
 4673 1edc BA000000 		movl	$.LC35, %edx
 4673      00
 4674 1ee1 E8000000 		call	_ZN8UnitTest11TestResults13OnTestFailureERKNS_11TestDetailsEPKc
 4674      00
 4675              	.LEHE97:
 4676              	.LEHB98:
 4677 1ee6 E8000000 		call	__cxa_end_catch
 4677      00
 4678              	.LEHE98:
 4679 1eeb E951FEFF 		jmp	.L693
 4679      FF
 4680              	.L705:
 4681 1ef0 E8000000 		call	__cxa_begin_catch
 4681      00
 4682 1ef5 4889C3   		movq	%rax, %rbx
 4683 1ef8 488B00   		movq	(%rax), %rax
 4684 1efb 4889DF   		movq	%rbx, %rdi
 4685 1efe FF5010   		call	*16(%rax)
 4686 1f01 4889DF   		movq	%rbx, %rdi
 4687 1f04 4889C5   		movq	%rax, %rbp
 4688              	.LEHB99:
 4689 1f07 E8000000 		call	_ZNK8UnitTest15AssertException10LineNumberEv
 4689      00
 4690 1f0c 4889DF   		movq	%rbx, %rdi
 4691 1f0f 4189C4   		movl	%eax, %r12d
 4692 1f12 E8000000 		call	_ZNK8UnitTest15AssertException8FilenameEv
 4692      00
 4693 1f17 4889C1   		movq	%rax, %rcx
 4694 1f1a 488B4424 		movq	8(%rsp), %rax
 4694      08
 4695 1f1f 488D7C24 		leaq	32(%rsp), %rdi
 4695      20
 4696 1f24 4589E0   		movl	%r12d, %r8d
 4697 1f27 488B7008 		movq	8(%rax), %rsi
 4698 1f2b 488B10   		movq	(%rax), %rdx
 4699 1f2e E8000000 		call	_ZN8UnitTest11TestDetailsC1EPKcS2_S2_i
 4699      00
 4700 1f33 E8000000 		call	_ZN8UnitTest11CurrentTest7ResultsEv
 4700      00
 4701 1f38 488B38   		movq	(%rax), %rdi
 4702 1f3b 488D7424 		leaq	32(%rsp), %rsi
 4702      20
 4703 1f40 4889EA   		movq	%rbp, %rdx
 4704 1f43 E8000000 		call	_ZN8UnitTest11TestResults13OnTestFailureERKNS_11TestDetailsEPKc
 4704      00
 4705              	.LEHE99:
 4706 1f48 E9D8FEFF 		jmp	.L725
 4706      FF
 4707              	.L719:
 4708 1f4d 4889C3   		movq	%rax, %rbx
 4709 1f50 E8000000 		call	__cxa_end_catch
 4709      00
 4710 1f55 4889DF   		movq	%rbx, %rdi
 4711              	.LEHB100:
 4712 1f58 E8000000 		call	_Unwind_Resume
 4712      00
 4713              	.LEHE100:
 4714              	.L716:
 4715 1f5d E963FFFF 		jmp	.L726
 4715      FF
 4716              		.cfi_endproc
 4717              	.LFE1530:
 4718              		.section	.gcc_except_table
 4719 023f 00       		.align 4
 4720              	.LLSDA1530:
 4721 0240 FF       		.byte	0xff
 4722 0241 03       		.byte	0x3
 4723 0242 79       		.uleb128 .LLSDATT1530-.LLSDATTD1530
 4724              	.LLSDATTD1530:
 4725 0243 01       		.byte	0x1
 4726 0244 60       		.uleb128 .LLSDACSE1530-.LLSDACSB1530
 4727              	.LLSDACSB1530:
 4728 0245 2A       		.uleb128 .LEHB84-.LFB1530
 4729 0246 05       		.uleb128 .LEHE84-.LEHB84
 4730 0247 00       		.uleb128 0
 4731 0248 00       		.uleb128 0
 4732 0249 3A       		.uleb128 .LEHB85-.LFB1530
 4733 024a 05       		.uleb128 .LEHE85-.LEHB85
 4734 024b D005     		.uleb128 .L714-.LFB1530
 4735 024d 05       		.uleb128 0x5
 4736 024e 66       		.uleb128 .LEHB86-.LFB1530
 4737 024f 9C01     		.uleb128 .LEHE86-.LEHB86
 4738 0251 C803     		.uleb128 .L715-.LFB1530
 4739 0253 07       		.uleb128 0x7
 4740 0254 BF02     		.uleb128 .LEHB87-.LFB1530
 4741 0256 35       		.uleb128 .LEHE87-.LEHB87
 4742 0257 9005     		.uleb128 .L721-.LFB1530
 4743 0259 01       		.uleb128 0x1
 4744 025a FC02     		.uleb128 .LEHB88-.LFB1530
 4745 025c 05       		.uleb128 .LEHE88-.LEHB88
 4746 025d D005     		.uleb128 .L714-.LFB1530
 4747 025f 05       		.uleb128 0x5
 4748 0260 C303     		.uleb128 .LEHB89-.LFB1530
 4749 0262 05       		.uleb128 .LEHE89-.LEHB89
 4750 0263 C803     		.uleb128 .L715-.LFB1530
 4751 0265 07       		.uleb128 0x7
 4752 0266 8504     		.uleb128 .LEHB90-.LFB1530
 4753 0268 05       		.uleb128 .LEHE90-.LEHB90
 4754 0269 8506     		.uleb128 .L717-.LFB1530
 4755 026b 00       		.uleb128 0
 4756 026c A304     		.uleb128 .LEHB91-.LFB1530
 4757 026e 35       		.uleb128 .LEHE91-.LEHB91
 4758 026f E805     		.uleb128 .L718-.LFB1530
 4759 0271 00       		.uleb128 0
 4760 0272 E004     		.uleb128 .LEHB92-.LFB1530
 4761 0274 05       		.uleb128 .LEHE92-.LEHB92
 4762 0275 8506     		.uleb128 .L717-.LFB1530
 4763 0277 00       		.uleb128 0
 4764 0278 F804     		.uleb128 .LEHB93-.LFB1530
 4765 027a 18       		.uleb128 .LEHE93-.LEHB93
 4766 027b C803     		.uleb128 .L715-.LFB1530
 4767 027d 07       		.uleb128 0x7
 4768 027e 9805     		.uleb128 .LEHB94-.LFB1530
 4769 0280 2E       		.uleb128 .LEHE94-.LEHB94
 4770 0281 D805     		.uleb128 .L720-.LFB1530
 4771 0283 07       		.uleb128 0x7
 4772 0284 C605     		.uleb128 .LEHB95-.LFB1530
 4773 0286 05       		.uleb128 .LEHE95-.LEHB95
 4774 0287 C803     		.uleb128 .L715-.LFB1530
 4775 0289 07       		.uleb128 0x7
 4776 028a 8006     		.uleb128 .LEHB96-.LFB1530
 4777 028c 05       		.uleb128 .LEHE96-.LEHB96
 4778 028d 00       		.uleb128 0
 4779 028e 00       		.uleb128 0
 4780 028f 8F06     		.uleb128 .LEHB97-.LFB1530
 4781 0291 17       		.uleb128 .LEHE97-.LEHB97
 4782 0292 8D07     		.uleb128 .L719-.LFB1530
 4783 0294 00       		.uleb128 0
 4784 0295 A606     		.uleb128 .LEHB98-.LFB1530
 4785 0297 05       		.uleb128 .LEHE98-.LEHB98
 4786 0298 00       		.uleb128 0
 4787 0299 00       		.uleb128 0
 4788 029a C706     		.uleb128 .LEHB99-.LFB1530
 4789 029c 41       		.uleb128 .LEHE99-.LEHB99
 4790 029d 9D07     		.uleb128 .L716-.LFB1530
 4791 029f 00       		.uleb128 0
 4792 02a0 9807     		.uleb128 .LEHB100-.LFB1530
 4793 02a2 05       		.uleb128 .LEHE100-.LEHB100
 4794 02a3 00       		.uleb128 0
 4795 02a4 00       		.uleb128 0
 4796              	.LLSDACSE1530:
 4797 02a5 03       		.byte	0x3
 4798 02a6 00       		.byte	0
 4799 02a7 02       		.byte	0x2
 4800 02a8 7D       		.byte	0x7d
 4801 02a9 01       		.byte	0x1
 4802 02aa 7D       		.byte	0x7d
 4803 02ab 00       		.byte	0
 4804 02ac 7D       		.byte	0x7d
 4805 02ad 000000   		.align 4
 4806 02b0 00000000 		.long	0
 4807              	
 4808 02b4 00000000 		.long	_ZTISt9exception
 4809 02b8 00000000 		.long	_ZTIN8UnitTest15AssertExceptionE
 4810              	.LLSDATT1530:
 4811              		.text
 4813              		.section	.text.unlikely
 4814              	.LCOLDE52:
 4815              		.text
 4816              	.LHOTE52:
 4817              		.section	.text.unlikely
 4818              		.align 2
 4819              	.LCOLDB53:
 4820              		.text
 4821              	.LHOTB53:
 4822              		.align 2
 4823 1f62 0F1F4000 		.p2align 4,,15
 4823      662E0F1F 
 4823      84000000 
 4823      0000
 4825              	_ZNK8UnitTest12_GLOBAL__N_176TestDeferredTestReporterFixtureDeferredTestReporterTakesCopyOfFailureM
 4826              	.LFB1470:
 4827              		.cfi_startproc
 4828              		.cfi_personality 0x3,__gxx_personality_v0
 4829              		.cfi_lsda 0x3,.LLSDA1470
 4830 1f70 4157     		pushq	%r15
 4831              		.cfi_def_cfa_offset 16
 4832              		.cfi_offset 15, -16
 4833 1f72 4156     		pushq	%r14
 4834              		.cfi_def_cfa_offset 24
 4835              		.cfi_offset 14, -24
 4836 1f74 BE000000 		movl	$.LC39, %esi
 4836      00
 4837 1f79 4155     		pushq	%r13
 4838              		.cfi_def_cfa_offset 32
 4839              		.cfi_offset 13, -32
 4840 1f7b 4154     		pushq	%r12
 4841              		.cfi_def_cfa_offset 40
 4842              		.cfi_offset 12, -40
 4843 1f7d 4C8D6F08 		leaq	8(%rdi), %r13
 4844 1f81 55       		pushq	%rbp
 4845              		.cfi_def_cfa_offset 48
 4846              		.cfi_offset 6, -48
 4847 1f82 53       		pushq	%rbx
 4848              		.cfi_def_cfa_offset 56
 4849              		.cfi_offset 3, -56
 4850 1f83 4881EC08 		subq	$520, %rsp
 4850      020000
 4851              		.cfi_def_cfa_offset 576
 4852 1f8a 488D4424 		leaq	32(%rsp), %rax
 4852      20
 4853 1f8f 48897C24 		movq	%rdi, 8(%rsp)
 4853      08
 4854 1f94 48C74424 		movq	$0, 40(%rsp)
 4854      28000000 
 4854      00
 4855 1f9d 64488B14 		movq	%fs:40, %rdx
 4855      25280000 
 4855      00
 4856 1fa6 48899424 		movq	%rdx, 504(%rsp)
 4856      F8010000 
 4857 1fae 31D2     		xorl	%edx, %edx
 4858 1fb0 488D7820 		leaq	32(%rax), %rdi
 4859 1fb4 488D5424 		leaq	31(%rsp), %rdx
 4859      1F
 4860 1fb9 48C74424 		movq	$0, 48(%rsp)
 4860      30000000 
 4860      00
 4861 1fc2 48C74424 		movq	$0, 56(%rsp)
 4861      38000000 
 4861      00
 4862 1fcb 48C74424 		movq	$_ZTVN8UnitTest12_GLOBAL__N_124MockDeferredTestReporterE+16, 32(%rsp)
 4862      20000000 
 4862      00
 4863              	.LEHB101:
 4864 1fd4 E8000000 		call	_ZNSsC1EPKcRKSaIcE
 4864      00
 4865              	.LEHE101:
 4866 1fd9 488D4424 		leaq	32(%rsp), %rax
 4866      20
 4867 1fde 488D5424 		leaq	31(%rsp), %rdx
 4867      1F
 4868 1fe3 BE000000 		movl	$.LC40, %esi
 4868      00
 4869 1fe8 488D7828 		leaq	40(%rax), %rdi
 4870              	.LEHB102:
 4871 1fec E8000000 		call	_ZNSsC1EPKcRKSaIcE
 4871      00
 4872              	.LEHE102:
 4873 1ff1 488D4424 		leaq	32(%rsp), %rax
 4873      20
 4874 1ff6 488D5424 		leaq	31(%rsp), %rdx
 4874      1F
 4875 1ffb BE000000 		movl	$.LC41, %esi
 4875      00
 4876 2000 488D7830 		leaq	48(%rax), %rdi
 4877              	.LEHB103:
 4878 2004 E8000000 		call	_ZNSsC1EPKcRKSaIcE
 4878      00
 4879              	.LEHE103:
 4880 2009 488D4424 		leaq	32(%rsp), %rax
 4880      20
 4881 200e 488B4C24 		movq	80(%rsp), %rcx
 4881      50
 4882 2013 488B5424 		movq	72(%rsp), %rdx
 4882      48
 4883 2018 488B7424 		movq	64(%rsp), %rsi
 4883      40
 4884 201d 41B80C00 		movl	$12, %r8d
 4884      0000
 4885 2023 C7442458 		movl	$12, 88(%rsp)
 4885      0C000000 
 4886 202b 488D7840 		leaq	64(%rax), %rdi
 4887              	.LEHB104:
 4888 202f E8000000 		call	_ZN8UnitTest11TestDetailsC1EPKcS2_S2_i
 4888      00
 4889              	.LEHE104:
 4890 2034 488D7C24 		leaq	32(%rsp), %rdi
 4890      20
 4891 2039 4C89EE   		movq	%r13, %rsi
 4892 203c 4C89AC24 		movq	%r13, 128(%rsp)
 4892      80000000 
 4893              	.LEHB105:
 4894 2044 E877FBFF 		call	_ZN8UnitTest11ExecuteTestINS_12_GLOBAL__N_178DeferredTestReporterFixtureDeferredTestReporterT
 4894      FF
 4895              	.LEHE105:
 4896 2049 488B4424 		movq	80(%rsp), %rax
 4896      50
 4897 204e 488D78E8 		leaq	-24(%rax), %rdi
 4898 2052 4881FF00 		cmpq	$_ZNSs4_Rep20_S_empty_rep_storageE, %rdi
 4898      000000
 4899 2059 0F857402 		jne	.L840
 4899      0000
 4900              	.L744:
 4901 205f 488B4424 		movq	72(%rsp), %rax
 4901      48
 4902 2064 488D78E8 		leaq	-24(%rax), %rdi
 4903 2068 4881FF00 		cmpq	$_ZNSs4_Rep20_S_empty_rep_storageE, %rdi
 4903      000000
 4904 206f 0F858B02 		jne	.L841
 4904      0000
 4905              	.L749:
 4906 2075 488B4424 		movq	64(%rsp), %rax
 4906      40
 4907 207a 488D78E8 		leaq	-24(%rax), %rdi
 4908 207e 4881FF00 		cmpq	$_ZNSs4_Rep20_S_empty_rep_storageE, %rdi
 4908      000000
 4909 2085 0F851702 		jne	.L842
 4909      0000
 4910              	.L754:
 4911 208b 488B6C24 		movq	48(%rsp), %rbp
 4911      30
 4912 2090 4C8B7424 		movq	40(%rsp), %r14
 4912      28
 4913 2095 48C74424 		movq	$_ZTVN8UnitTest20DeferredTestReporterE+16, 32(%rsp)
 4913      20000000 
 4913      00
 4914 209e 4C39F5   		cmpq	%r14, %rbp
 4915 20a1 0F84CA00 		je	.L758
 4915      0000
 4916 20a7 41BC0000 		movl	$_ZL28__gthrw___pthread_key_createPjPFvPvE, %r12d
 4916      0000
 4917 20ad 0F1F00   		.p2align 4,,10
 4918              		.p2align 3
 4919              	.L787:
 4920 20b0 4D8B7E20 		movq	32(%r14), %r15
 4921 20b4 498B5E18 		movq	24(%r14), %rbx
 4922 20b8 4939DF   		cmpq	%rbx, %r15
 4923 20bb 7457     		je	.L759
 4924 20bd 4D85E4   		testq	%r12, %r12
 4925 20c0 7517     		jne	.L823
 4926 20c2 E9160100 		jmp	.L765
 4926      00
 4927 20c7 660F1F84 		.p2align 4,,10
 4927      00000000 
 4927      00
 4928              		.p2align 3
 4929              	.L768:
 4930 20d0 4883C310 		addq	$16, %rbx
 4931 20d4 4939DF   		cmpq	%rbx, %r15
 4932 20d7 7437     		je	.L766
 4933              	.L823:
 4934 20d9 488B4308 		movq	8(%rbx), %rax
 4935 20dd 488D78E8 		leaq	-24(%rax), %rdi
 4936 20e1 4881FF00 		cmpq	$_ZNSs4_Rep20_S_empty_rep_storageE, %rdi
 4936      000000
 4937 20e8 74E6     		je	.L768
 4938 20ea B9FFFFFF 		movl	$-1, %ecx
 4938      FF
 4939 20ef F00FC148 		lock xaddl	%ecx, -8(%rax)
 4939      F8
 4940 20f4 85C9     		testl	%ecx, %ecx
 4941 20f6 7FD8     		jg	.L768
 4942 20f8 488D7424 		leaq	31(%rsp), %rsi
 4942      1F
 4943 20fd 4883C310 		addq	$16, %rbx
 4944 2101 E8000000 		call	_ZNSs4_Rep10_M_destroyERKSaIcE
 4944      00
 4945 2106 4939DF   		cmpq	%rbx, %r15
 4946 2109 75CE     		jne	.L823
 4947 210b 0F1F4400 		.p2align 4,,10
 4947      00
 4948              		.p2align 3
 4949              	.L766:
 4950 2110 4D8B7E18 		movq	24(%r14), %r15
 4951              	.L759:
 4952 2114 4D85FF   		testq	%r15, %r15
 4953 2117 7408     		je	.L771
 4954 2119 4C89FF   		movq	%r15, %rdi
 4955 211c E8000000 		call	_ZdlPv
 4955      00
 4956              	.L771:
 4957 2121 498B4610 		movq	16(%r14), %rax
 4958 2125 488D78E8 		leaq	-24(%rax), %rdi
 4959 2129 4881FF00 		cmpq	$_ZNSs4_Rep20_S_empty_rep_storageE, %rdi
 4959      000000
 4960 2130 0F851A01 		jne	.L843
 4960      0000
 4961              	.L773:
 4962 2136 498B4608 		movq	8(%r14), %rax
 4963 213a 488D78E8 		leaq	-24(%rax), %rdi
 4964 213e 4881FF00 		cmpq	$_ZNSs4_Rep20_S_empty_rep_storageE, %rdi
 4964      000000
 4965 2145 0F85D500 		jne	.L844
 4965      0000
 4966              	.L778:
 4967 214b 498B06   		movq	(%r14), %rax
 4968 214e 488D78E8 		leaq	-24(%rax), %rdi
 4969 2152 4881FF00 		cmpq	$_ZNSs4_Rep20_S_empty_rep_storageE, %rdi
 4969      000000
 4970 2159 0F859100 		jne	.L845
 4970      0000
 4971              	.L783:
 4972 215f 4983C638 		addq	$56, %r14
 4973 2163 4C39F5   		cmpq	%r14, %rbp
 4974 2166 0F8544FF 		jne	.L787
 4974      FFFF
 4975 216c 488B6C24 		movq	40(%rsp), %rbp
 4975      28
 4976              	.L758:
 4977 2171 4885ED   		testq	%rbp, %rbp
 4978 2174 7408     		je	.L788
 4979 2176 4889EF   		movq	%rbp, %rdi
 4980 2179 E8000000 		call	_ZdlPv
 4980      00
 4981              	.L788:
 4982 217e 488D7C24 		leaq	32(%rsp), %rdi
 4982      20
 4983              	.LEHB106:
 4984 2183 E8000000 		call	_ZN8UnitTest12TestReporterD2Ev
 4984      00
 4985              	.LEHE106:
 4986              	.L733:
 4987 2188 488B8424 		movq	504(%rsp), %rax
 4987      F8010000 
 4988 2190 64483304 		xorq	%fs:40, %rax
 4988      25280000 
 4988      00
 4989 2199 0F85F903 		jne	.L846
 4989      0000
 4990 219f 4881C408 		addq	$520, %rsp
 4990      020000
 4991              		.cfi_remember_state
 4992              		.cfi_def_cfa_offset 56
 4993 21a6 5B       		popq	%rbx
 4994              		.cfi_def_cfa_offset 48
 4995 21a7 5D       		popq	%rbp
 4996              		.cfi_def_cfa_offset 40
 4997 21a8 415C     		popq	%r12
 4998              		.cfi_def_cfa_offset 32
 4999 21aa 415D     		popq	%r13
 5000              		.cfi_def_cfa_offset 24
 5001 21ac 415E     		popq	%r14
 5002              		.cfi_def_cfa_offset 16
 5003 21ae 415F     		popq	%r15
 5004              		.cfi_def_cfa_offset 8
 5005 21b0 C3       		ret
 5006              		.p2align 4,,10
 5007 21b1 0F1F8000 		.p2align 3
 5007      000000
 5008              	.L847:
 5009              		.cfi_restore_state
 5010 21b8 8B48F8   		movl	-8(%rax), %ecx
 5011 21bb 8D71FF   		leal	-1(%rcx), %esi
 5012 21be 85C9     		testl	%ecx, %ecx
 5013 21c0 8970F8   		movl	%esi, -8(%rax)
 5014 21c3 7F0B     		jg	.L763
 5015 21c5 488D7424 		leaq	31(%rsp), %rsi
 5015      1F
 5016 21ca E8000000 		call	_ZNSs4_Rep10_M_destroyERKSaIcE
 5016      00
 5017 21cf 90       		.p2align 4,,10
 5018              		.p2align 3
 5019              	.L763:
 5020 21d0 4883C310 		addq	$16, %rbx
 5021 21d4 4939DF   		cmpq	%rbx, %r15
 5022 21d7 0F8433FF 		je	.L766
 5022      FFFF
 5023              	.L765:
 5024 21dd 488B4308 		movq	8(%rbx), %rax
 5025 21e1 488D78E8 		leaq	-24(%rax), %rdi
 5026 21e5 4881FF00 		cmpq	$_ZNSs4_Rep20_S_empty_rep_storageE, %rdi
 5026      000000
 5027 21ec 74E2     		je	.L763
 5028 21ee EBC8     		jmp	.L847
 5029              		.p2align 4,,10
 5030              		.p2align 3
 5031              	.L845:
 5032 21f0 4D85E4   		testq	%r12, %r12
 5033 21f3 0F847F00 		je	.L784
 5033      0000
 5034 21f9 B9FFFFFF 		movl	$-1, %ecx
 5034      FF
 5035 21fe F00FC148 		lock xaddl	%ecx, -8(%rax)
 5035      F8
 5036 2203 89C8     		movl	%ecx, %eax
 5037              	.L785:
 5038 2205 85C0     		testl	%eax, %eax
 5039 2207 0F8F52FF 		jg	.L783
 5039      FFFF
 5040 220d 488D7424 		leaq	31(%rsp), %rsi
 5040      1F
 5041 2212 E8000000 		call	_ZNSs4_Rep10_M_destroyERKSaIcE
 5041      00
 5042 2217 E943FFFF 		jmp	.L783
 5042      FF
 5043 221c 0F1F4000 		.p2align 4,,10
 5044              		.p2align 3
 5045              	.L844:
 5046 2220 4D85E4   		testq	%r12, %r12
 5047 2223 7470     		je	.L779
 5048 2225 B9FFFFFF 		movl	$-1, %ecx
 5048      FF
 5049 222a F00FC148 		lock xaddl	%ecx, -8(%rax)
 5049      F8
 5050 222f 89C8     		movl	%ecx, %eax
 5051              	.L780:
 5052 2231 85C0     		testl	%eax, %eax
 5053 2233 0F8F12FF 		jg	.L778
 5053      FFFF
 5054 2239 488D7424 		leaq	31(%rsp), %rsi
 5054      1F
 5055 223e E8000000 		call	_ZNSs4_Rep10_M_destroyERKSaIcE
 5055      00
 5056 2243 E903FFFF 		jmp	.L778
 5056      FF
 5057 2248 0F1F8400 		.p2align 4,,10
 5057      00000000 
 5058              		.p2align 3
 5059              	.L843:
 5060 2250 4D85E4   		testq	%r12, %r12
 5061 2253 7433     		je	.L774
 5062 2255 B9FFFFFF 		movl	$-1, %ecx
 5062      FF
 5063 225a F00FC148 		lock xaddl	%ecx, -8(%rax)
 5063      F8
 5064 225f 89C8     		movl	%ecx, %eax
 5065              	.L775:
 5066 2261 85C0     		testl	%eax, %eax
 5067 2263 0F8FCDFE 		jg	.L773
 5067      FFFF
 5068 2269 488D7424 		leaq	31(%rsp), %rsi
 5068      1F
 5069 226e E8000000 		call	_ZNSs4_Rep10_M_destroyERKSaIcE
 5069      00
 5070 2273 E9BEFEFF 		jmp	.L773
 5070      FF
 5071              	.L784:
 5072 2278 8B48F8   		movl	-8(%rax), %ecx
 5073 227b 8D71FF   		leal	-1(%rcx), %esi
 5074 227e 8970F8   		movl	%esi, -8(%rax)
 5075 2281 89C8     		movl	%ecx, %eax
 5076 2283 E97DFFFF 		jmp	.L785
 5076      FF
 5077              	.L774:
 5078 2288 8B48F8   		movl	-8(%rax), %ecx
 5079 228b 8D71FF   		leal	-1(%rcx), %esi
 5080 228e 8970F8   		movl	%esi, -8(%rax)
 5081 2291 89C8     		movl	%ecx, %eax
 5082 2293 EBCC     		jmp	.L775
 5083              	.L779:
 5084 2295 8B48F8   		movl	-8(%rax), %ecx
 5085 2298 8D71FF   		leal	-1(%rcx), %esi
 5086 229b 8970F8   		movl	%esi, -8(%rax)
 5087 229e 89C8     		movl	%ecx, %eax
 5088 22a0 EB8F     		jmp	.L780
 5089              	.L842:
 5090 22a2 BA000000 		movl	$_ZL28__gthrw___pthread_key_createPjPFvPvE, %edx
 5090      00
 5091 22a7 4885D2   		testq	%rdx, %rdx
 5092 22aa 0F849700 		je	.L755
 5092      0000
 5093 22b0 BAFFFFFF 		movl	$-1, %edx
 5093      FF
 5094 22b5 F00FC150 		lock xaddl	%edx, -8(%rax)
 5094      F8
 5095 22ba 89D0     		movl	%edx, %eax
 5096              	.L756:
 5097 22bc 85C0     		testl	%eax, %eax
 5098 22be 0F8FC7FD 		jg	.L754
 5098      FFFF
 5099 22c4 488D7424 		leaq	31(%rsp), %rsi
 5099      1F
 5100 22c9 E8000000 		call	_ZNSs4_Rep10_M_destroyERKSaIcE
 5100      00
 5101 22ce E9B8FDFF 		jmp	.L754
 5101      FF
 5102              	.L840:
 5103 22d3 BA000000 		movl	$_ZL28__gthrw___pthread_key_createPjPFvPvE, %edx
 5103      00
 5104 22d8 4885D2   		testq	%rdx, %rdx
 5105 22db 745D     		je	.L745
 5106 22dd BAFFFFFF 		movl	$-1, %edx
 5106      FF
 5107 22e2 F00FC150 		lock xaddl	%edx, -8(%rax)
 5107      F8
 5108 22e7 89D0     		movl	%edx, %eax
 5109              	.L746:
 5110 22e9 85C0     		testl	%eax, %eax
 5111 22eb 0F8F6EFD 		jg	.L744
 5111      FFFF
 5112 22f1 488D7424 		leaq	31(%rsp), %rsi
 5112      1F
 5113 22f6 E8000000 		call	_ZNSs4_Rep10_M_destroyERKSaIcE
 5113      00
 5114 22fb E95FFDFF 		jmp	.L744
 5114      FF
 5115              	.L841:
 5116 2300 BA000000 		movl	$_ZL28__gthrw___pthread_key_createPjPFvPvE, %edx
 5116      00
 5117 2305 4885D2   		testq	%rdx, %rdx
 5118 2308 7423     		je	.L750
 5119 230a BAFFFFFF 		movl	$-1, %edx
 5119      FF
 5120 230f F00FC150 		lock xaddl	%edx, -8(%rax)
 5120      F8
 5121 2314 89D0     		movl	%edx, %eax
 5122              	.L751:
 5123 2316 85C0     		testl	%eax, %eax
 5124 2318 0F8F57FD 		jg	.L749
 5124      FFFF
 5125 231e 488D7424 		leaq	31(%rsp), %rsi
 5125      1F
 5126 2323 E8000000 		call	_ZNSs4_Rep10_M_destroyERKSaIcE
 5126      00
 5127 2328 E948FDFF 		jmp	.L749
 5127      FF
 5128              	.L750:
 5129 232d 8B50F8   		movl	-8(%rax), %edx
 5130 2330 8D4AFF   		leal	-1(%rdx), %ecx
 5131 2333 8948F8   		movl	%ecx, -8(%rax)
 5132 2336 89D0     		movl	%edx, %eax
 5133 2338 EBDC     		jmp	.L751
 5134              	.L745:
 5135 233a 8B50F8   		movl	-8(%rax), %edx
 5136 233d 8D4AFF   		leal	-1(%rdx), %ecx
 5137 2340 8948F8   		movl	%ecx, -8(%rax)
 5138 2343 89D0     		movl	%edx, %eax
 5139 2345 EBA2     		jmp	.L746
 5140              	.L755:
 5141 2347 8B50F8   		movl	-8(%rax), %edx
 5142 234a 8D4AFF   		leal	-1(%rdx), %ecx
 5143 234d 8948F8   		movl	%ecx, -8(%rax)
 5144 2350 89D0     		movl	%edx, %eax
 5145 2352 E965FFFF 		jmp	.L756
 5145      FF
 5146              	.L803:
 5147 2357 4889C7   		movq	%rax, %rdi
 5148 235a BB010000 		movl	$1, %ebx
 5148      00
 5149              	.L742:
 5150 235f 4883FA01 		cmpq	$1, %rdx
 5151 2363 0F847001 		je	.L793
 5151      0000
 5152 2369 4883FA02 		cmpq	$2, %rdx
 5153 236d 0F852601 		jne	.L848
 5153      0000
 5154 2373 E8000000 		call	__cxa_begin_catch
 5154      00
 5155 2378 488DBC24 		leaq	144(%rsp), %rdi
 5155      90000000 
 5156 2380 4889C3   		movq	%rax, %rbx
 5157              	.LEHB107:
 5158 2383 E8000000 		call	_ZN8UnitTest15MemoryOutStreamC1Ev
 5158      00
 5159              	.LEHE107:
 5160 2388 488B03   		movq	(%rbx), %rax
 5161 238b 4889DF   		movq	%rbx, %rdi
 5162 238e FF5010   		call	*16(%rax)
 5163 2391 488DBC24 		leaq	144(%rsp), %rdi
 5163      90000000 
 5164 2399 BE000000 		movl	$.LC34, %esi
 5164      00
 5165 239e 4889C3   		movq	%rax, %rbx
 5166              	.LEHB108:
 5167 23a1 E8000000 		call	_ZStlsISt11char_traitsIcEERSt13basic_ostreamIcT_ES5_PKc
 5167      00
 5168 23a6 4889C7   		movq	%rax, %rdi
 5169 23a9 4889DE   		movq	%rbx, %rsi
 5170 23ac E8000000 		call	_ZStlsISt11char_traitsIcEERSt13basic_ostreamIcT_ES5_PKc
 5170      00
 5171 23b1 488DBC24 		leaq	144(%rsp), %rdi
 5171      90000000 
 5172 23b9 E8000000 		call	_ZNK8UnitTest15MemoryOutStream7GetTextEv
 5172      00
 5173 23be 4889C3   		movq	%rax, %rbx
 5174 23c1 E8000000 		call	_ZN8UnitTest11CurrentTest7ResultsEv
 5174      00
 5175 23c6 488B38   		movq	(%rax), %rdi
 5176 23c9 4889DA   		movq	%rbx, %rdx
 5177 23cc 4C89EE   		movq	%r13, %rsi
 5178 23cf E8000000 		call	_ZN8UnitTest11TestResults13OnTestFailureERKNS_11TestDetailsEPKc
 5178      00
 5179              	.LEHE108:
 5180 23d4 488DBC24 		leaq	144(%rsp), %rdi
 5180      90000000 
 5181              	.LEHB109:
 5182 23dc E8000000 		call	_ZN8UnitTest15MemoryOutStreamD1Ev
 5182      00
 5183              	.LEHE109:
 5184              	.L835:
 5185 23e1 E8000000 		call	__cxa_end_catch
 5185      00
 5186 23e6 E99DFDFF 		jmp	.L733
 5186      FF
 5187              	.L812:
 5188 23eb 4889C3   		movq	%rax, %rbx
 5189 23ee 488B4424 		movq	80(%rsp), %rax
 5189      50
 5190 23f3 4889D5   		movq	%rdx, %rbp
 5191 23f6 488D78E8 		leaq	-24(%rax), %rdi
 5192 23fa 4881FF00 		cmpq	$_ZNSs4_Rep20_S_empty_rep_storageE, %rdi
 5192      000000
 5193 2401 740A     		je	.L737
 5194 2403 488D7424 		leaq	31(%rsp), %rsi
 5194      1F
 5195 2408 E8000000 		call	_ZNSs4_Rep10_M_disposeERKSaIcE.part.1
 5195      00
 5196              	.L737:
 5197 240d 488B4424 		movq	72(%rsp), %rax
 5197      48
 5198 2412 488D78E8 		leaq	-24(%rax), %rdi
 5199 2416 4881FF00 		cmpq	$_ZNSs4_Rep20_S_empty_rep_storageE, %rdi
 5199      000000
 5200 241d 740A     		je	.L739
 5201 241f 488D7424 		leaq	31(%rsp), %rsi
 5201      1F
 5202 2424 E8000000 		call	_ZNSs4_Rep10_M_disposeERKSaIcE.part.1
 5202      00
 5203              	.L739:
 5204 2429 488B4424 		movq	64(%rsp), %rax
 5204      40
 5205 242e 488D78E8 		leaq	-24(%rax), %rdi
 5206 2432 4881FF00 		cmpq	$_ZNSs4_Rep20_S_empty_rep_storageE, %rdi
 5206      000000
 5207 2439 740A     		je	.L741
 5208 243b 488D7424 		leaq	31(%rsp), %rsi
 5208      1F
 5209 2440 E8000000 		call	_ZNSs4_Rep10_M_disposeERKSaIcE.part.1
 5209      00
 5210              	.L741:
 5211 2445 488D7C24 		leaq	40(%rsp), %rdi
 5211      28
 5212 244a 48C74424 		movq	$_ZTVN8UnitTest20DeferredTestReporterE+16, 32(%rsp)
 5212      20000000 
 5212      00
 5213 2453 E8000000 		call	_ZNSt6vectorIN8UnitTest18DeferredTestResultESaIS1_EED1Ev
 5213      00
 5214 2458 488D7C24 		leaq	32(%rsp), %rdi
 5214      20
 5215 245d E8000000 		call	_ZN8UnitTest12TestReporterD2Ev
 5215      00
 5216 2462 4889DF   		movq	%rbx, %rdi
 5217 2465 4889EA   		movq	%rbp, %rdx
 5218 2468 31DB     		xorl	%ebx, %ebx
 5219 246a E9F0FEFF 		jmp	.L742
 5219      FF
 5220              	.L811:
 5221 246f 4889C3   		movq	%rax, %rbx
 5222 2472 4889D5   		movq	%rdx, %rbp
 5223 2475 EB96     		jmp	.L737
 5224              	.L807:
 5225 2477 488DBC24 		leaq	144(%rsp), %rdi
 5225      90000000 
 5226 247f 4889C3   		movq	%rax, %rbx
 5227 2482 E8000000 		call	_ZN8UnitTest15MemoryOutStreamD1Ev
 5227      00
 5228              	.L797:
 5229 2487 E8000000 		call	__cxa_end_catch
 5229      00
 5230 248c 4889DF   		movq	%rbx, %rdi
 5231              	.LEHB110:
 5232 248f E8000000 		call	_Unwind_Resume
 5232      00
 5233              	.LEHE110:
 5234              	.L806:
 5235              	.L836:
 5236 2494 4889C3   		movq	%rax, %rbx
 5237 2497 EBEE     		jmp	.L797
 5238              	.L848:
 5239 2499 E8000000 		call	__cxa_begin_catch
 5239      00
 5240 249e 84DB     		testb	%bl, %bl
 5241 24a0 BA620000 		movl	$98, %edx
 5241      00
 5242 24a5 4C89EE   		movq	%r13, %rsi
 5243 24a8 488D7C24 		leaq	32(%rsp), %rdi
 5243      20
 5244 24ad 0F849400 		je	.L800
 5244      0000
 5245              	.LEHB111:
 5246 24b3 E8000000 		call	_ZN8UnitTest11TestDetailsC1ERKS0_i
 5246      00
 5247 24b8 E8000000 		call	_ZN8UnitTest11CurrentTest7ResultsEv
 5247      00
 5248 24bd 488B38   		movq	(%rax), %rdi
 5249 24c0 488D7424 		leaq	32(%rsp), %rsi
 5249      20
 5250 24c5 BA000000 		movl	$.LC42, %edx
 5250      00
 5251 24ca E8000000 		call	_ZN8UnitTest11TestResults13OnTestFailureERKNS_11TestDetailsEPKc
 5251      00
 5252              	.LEHE111:
 5253              	.L801:
 5254              	.LEHB112:
 5255 24cf E8000000 		call	__cxa_end_catch
 5255      00
 5256              	.LEHE112:
 5257 24d4 E9AFFCFF 		jmp	.L733
 5257      FF
 5258              	.L793:
 5259 24d9 E8000000 		call	__cxa_begin_catch
 5259      00
 5260 24de 4889C3   		movq	%rax, %rbx
 5261 24e1 488B00   		movq	(%rax), %rax
 5262 24e4 4889DF   		movq	%rbx, %rdi
 5263 24e7 FF5010   		call	*16(%rax)
 5264 24ea 4889DF   		movq	%rbx, %rdi
 5265 24ed 4889C5   		movq	%rax, %rbp
 5266              	.LEHB113:
 5267 24f0 E8000000 		call	_ZNK8UnitTest15AssertException10LineNumberEv
 5267      00
 5268 24f5 4889DF   		movq	%rbx, %rdi
 5269 24f8 4189C4   		movl	%eax, %r12d
 5270 24fb E8000000 		call	_ZNK8UnitTest15AssertException8FilenameEv
 5270      00
 5271 2500 488B7424 		movq	8(%rsp), %rsi
 5271      08
 5272 2505 488D7C24 		leaq	32(%rsp), %rdi
 5272      20
 5273 250a 4589E0   		movl	%r12d, %r8d
 5274 250d 4889C1   		movq	%rax, %rcx
 5275 2510 488B5608 		movq	8(%rsi), %rdx
 5276 2514 488B7610 		movq	16(%rsi), %rsi
 5277 2518 E8000000 		call	_ZN8UnitTest11TestDetailsC1EPKcS2_S2_i
 5277      00
 5278 251d E8000000 		call	_ZN8UnitTest11CurrentTest7ResultsEv
 5278      00
 5279 2522 488B38   		movq	(%rax), %rdi
 5280 2525 488D7424 		leaq	32(%rsp), %rsi
 5280      20
 5281 252a 4889EA   		movq	%rbp, %rdx
 5282 252d E8000000 		call	_ZN8UnitTest11TestResults13OnTestFailureERKNS_11TestDetailsEPKc
 5282      00
 5283              	.LEHE113:
 5284 2532 E9AAFEFF 		jmp	.L835
 5284      FF
 5285              	.L808:
 5286 2537 4889C3   		movq	%rax, %rbx
 5287 253a E8000000 		call	__cxa_end_catch
 5287      00
 5288 253f 4889DF   		movq	%rbx, %rdi
 5289              	.LEHB114:
 5290 2542 E8000000 		call	_Unwind_Resume
 5290      00
 5291              	.LEHE114:
 5292              	.L800:
 5293              	.LEHB115:
 5294 2547 E8000000 		call	_ZN8UnitTest11TestDetailsC1ERKS0_i
 5294      00
 5295 254c E8000000 		call	_ZN8UnitTest11CurrentTest7ResultsEv
 5295      00
 5296 2551 488B38   		movq	(%rax), %rdi
 5297 2554 488D7424 		leaq	32(%rsp), %rsi
 5297      20
 5298 2559 BA000000 		movl	$.LC43, %edx
 5298      00
 5299 255e E8000000 		call	_ZN8UnitTest11TestResults13OnTestFailureERKNS_11TestDetailsEPKc
 5299      00
 5300              	.LEHE115:
 5301 2563 E967FFFF 		jmp	.L801
 5301      FF
 5302              	.L805:
 5303 2568 E927FFFF 		jmp	.L836
 5303      FF
 5304              	.L810:
 5305 256d 4889C3   		movq	%rax, %rbx
 5306 2570 4889D5   		movq	%rdx, %rbp
 5307 2573 E9B1FEFF 		jmp	.L739
 5307      FF
 5308              	.L804:
 5309 2578 488D7C24 		leaq	32(%rsp), %rdi
 5309      20
 5310 257d 4889C3   		movq	%rax, %rbx
 5311 2580 4889D5   		movq	%rdx, %rbp
 5312 2583 E8000000 		call	_ZN8UnitTest12_GLOBAL__N_127DeferredTestReporterFixtureD2Ev
 5312      00
 5313 2588 4889DF   		movq	%rbx, %rdi
 5314 258b 4889EA   		movq	%rbp, %rdx
 5315 258e BB010000 		movl	$1, %ebx
 5315      00
 5316 2593 E9C7FDFF 		jmp	.L742
 5316      FF
 5317              	.L846:
 5318 2598 E8000000 		call	__stack_chk_fail
 5318      00
 5319              	.L809:
 5320 259d 4889C3   		movq	%rax, %rbx
 5321 25a0 4889D5   		movq	%rdx, %rbp
 5322 25a3 E99DFEFF 		jmp	.L741
 5322      FF
 5323              		.cfi_endproc
 5324              	.LFE1470:
 5325              		.section	.gcc_except_table
 5326              		.align 4
 5327              	.LLSDA1470:
 5328 02bc FF       		.byte	0xff
 5329 02bd 03       		.byte	0x3
 5330 02be 6D       		.uleb128 .LLSDATT1470-.LLSDATTD1470
 5331              	.LLSDATTD1470:
 5332 02bf 01       		.byte	0x1
 5333 02c0 55       		.uleb128 .LLSDACSE1470-.LLSDACSB1470
 5334              	.LLSDACSB1470:
 5335 02c1 64       		.uleb128 .LEHB101-.LFB1470
 5336 02c2 05       		.uleb128 .LEHE101-.LEHB101
 5337 02c3 AD0C     		.uleb128 .L809-.LFB1470
 5338 02c5 07       		.uleb128 0x7
 5339 02c6 7C       		.uleb128 .LEHB102-.LFB1470
 5340 02c7 05       		.uleb128 .LEHE102-.LEHB102
 5341 02c8 FD0B     		.uleb128 .L810-.LFB1470
 5342 02ca 07       		.uleb128 0x7
 5343 02cb 9401     		.uleb128 .LEHB103-.LFB1470
 5344 02cd 05       		.uleb128 .LEHE103-.LEHB103
 5345 02ce FF09     		.uleb128 .L811-.LFB1470
 5346 02d0 07       		.uleb128 0x7
 5347 02d1 BF01     		.uleb128 .LEHB104-.LFB1470
 5348 02d3 05       		.uleb128 .LEHE104-.LEHB104
 5349 02d4 FB08     		.uleb128 .L812-.LFB1470
 5350 02d6 07       		.uleb128 0x7
 5351 02d7 D401     		.uleb128 .LEHB105-.LFB1470
 5352 02d9 05       		.uleb128 .LEHE105-.LEHB105
 5353 02da 880C     		.uleb128 .L804-.LFB1470
 5354 02dc 07       		.uleb128 0x7
 5355 02dd 9304     		.uleb128 .LEHB106-.LFB1470
 5356 02df 05       		.uleb128 .LEHE106-.LEHB106
 5357 02e0 E707     		.uleb128 .L803-.LFB1470
 5358 02e2 05       		.uleb128 0x5
 5359 02e3 9308     		.uleb128 .LEHB107-.LFB1470
 5360 02e5 05       		.uleb128 .LEHE107-.LEHB107
 5361 02e6 A40A     		.uleb128 .L806-.LFB1470
 5362 02e8 00       		.uleb128 0
 5363 02e9 B108     		.uleb128 .LEHB108-.LFB1470
 5364 02eb 33       		.uleb128 .LEHE108-.LEHB108
 5365 02ec 870A     		.uleb128 .L807-.LFB1470
 5366 02ee 00       		.uleb128 0
 5367 02ef EC08     		.uleb128 .LEHB109-.LFB1470
 5368 02f1 05       		.uleb128 .LEHE109-.LEHB109
 5369 02f2 A40A     		.uleb128 .L806-.LFB1470
 5370 02f4 00       		.uleb128 0
 5371 02f5 9F0A     		.uleb128 .LEHB110-.LFB1470
 5372 02f7 05       		.uleb128 .LEHE110-.LEHB110
 5373 02f8 00       		.uleb128 0
 5374 02f9 00       		.uleb128 0
 5375 02fa C30A     		.uleb128 .LEHB111-.LFB1470
 5376 02fc 1C       		.uleb128 .LEHE111-.LEHB111
 5377 02fd C70B     		.uleb128 .L808-.LFB1470
 5378 02ff 00       		.uleb128 0
 5379 0300 DF0A     		.uleb128 .LEHB112-.LFB1470
 5380 0302 05       		.uleb128 .LEHE112-.LEHB112
 5381 0303 00       		.uleb128 0
 5382 0304 00       		.uleb128 0
 5383 0305 800B     		.uleb128 .LEHB113-.LFB1470
 5384 0307 42       		.uleb128 .LEHE113-.LEHB113
 5385 0308 F80B     		.uleb128 .L805-.LFB1470
 5386 030a 00       		.uleb128 0
 5387 030b D20B     		.uleb128 .LEHB114-.LFB1470
 5388 030d 05       		.uleb128 .LEHE114-.LEHB114
 5389 030e 00       		.uleb128 0
 5390 030f 00       		.uleb128 0
 5391 0310 D70B     		.uleb128 .LEHB115-.LFB1470
 5392 0312 1C       		.uleb128 .LEHE115-.LEHB115
 5393 0313 C70B     		.uleb128 .L808-.LFB1470
 5394 0315 00       		.uleb128 0
 5395              	.LLSDACSE1470:
 5396 0316 03       		.byte	0x3
 5397 0317 00       		.byte	0
 5398 0318 02       		.byte	0x2
 5399 0319 7D       		.byte	0x7d
 5400 031a 01       		.byte	0x1
 5401 031b 7D       		.byte	0x7d
 5402 031c 00       		.byte	0
 5403 031d 7D       		.byte	0x7d
 5404 031e 0000     		.align 4
 5405 0320 00000000 		.long	0
 5406              	
 5407 0324 00000000 		.long	_ZTISt9exception
 5408 0328 00000000 		.long	_ZTIN8UnitTest15AssertExceptionE
 5409              	.LLSDATT1470:
 5410              		.text
 5412              		.section	.text.unlikely
 5413              	.LCOLDE53:
 5414              		.text
 5415              	.LHOTE53:
 5416              		.section	.rodata.str1.1
 5417              	.LC54:
 5418 00a6 6661696C 		.string	"failure"
 5418      75726500 
 5419              	.LC55:
 5420 00ae 72657375 		.string	"result.failed == true"
 5420      6C742E66 
 5420      61696C65 
 5420      64203D3D 
 5420      20747275 
 5421              		.section	.rodata.str1.8
 5422 01bc 00000000 		.align 8
 5423              	.LC56:
 5424 01c0 556E6861 		.string	"Unhandled exception in CHECK(result.failed == true)"
 5424      6E646C65 
 5424      64206578 
 5424      63657074 
 5424      696F6E20 
 5425 01f4 00000000 		.align 8
 5426              	.LC57:
 5427 01f8 556E6861 		.string	"Unhandled exception in CHECK_EQUAL(fileName.c_str(), result.failureFile)"
 5427      6E646C65 
 5427      64206578 
 5427      63657074 
 5427      696F6E20 
 5428              		.section	.text.unlikely
 5429              	.LCOLDB58:
 5430              		.text
 5431              	.LHOTB58:
 5432 25a8 0F1F8400 		.p2align 4,,15
 5432      00000000 
 5434              	_ZN8UnitTest11ExecuteTestINS_12_GLOBAL__N_165DeferredTestReporterFixtureReportFailureSavesFailureDe
 5435              	.LFB1525:
 5436              		.cfi_startproc
 5437              		.cfi_personality 0x3,__gxx_personality_v0
 5438              		.cfi_lsda 0x3,.LLSDA1525
 5439 25b0 4154     		pushq	%r12
 5440              		.cfi_def_cfa_offset 16
 5441              		.cfi_offset 12, -16
 5442 25b2 55       		pushq	%rbp
 5443              		.cfi_def_cfa_offset 24
 5444              		.cfi_offset 6, -24
 5445 25b3 53       		pushq	%rbx
 5446              		.cfi_def_cfa_offset 32
 5447              		.cfi_offset 3, -32
 5448 25b4 4889F3   		movq	%rsi, %rbx
 5449 25b7 4881ECA0 		subq	$1696, %rsp
 5449      060000
 5450              		.cfi_def_cfa_offset 1728
 5451 25be 48893C24 		movq	%rdi, (%rsp)
 5452 25c2 48897424 		movq	%rsi, 8(%rsp)
 5452      08
 5453 25c7 64488B04 		movq	%fs:40, %rax
 5453      25280000 
 5453      00
 5454 25d0 48898424 		movq	%rax, 1688(%rsp)
 5454      98060000 
 5455 25d8 31C0     		xorl	%eax, %eax
 5456              	.LEHB116:
 5457 25da E8000000 		call	_ZN8UnitTest11CurrentTest7DetailsEv
 5457      00
 5458              	.LEHE116:
 5459 25df 488DBC24 		leaq	560(%rsp), %rdi
 5459      30020000 
 5460 25e7 488918   		movq	%rbx, (%rax)
 5461              	.LEHB117:
 5462 25ea E8000000 		call	_ZN8UnitTest16SignalTranslatorC1Ev
 5462      00
 5463              	.LEHE117:
 5464 25ef 488B3D00 		movq	_ZN8UnitTest16SignalTranslator12s_jumpTargetE(%rip), %rdi
 5464      000000
 5465 25f6 BE010000 		movl	$1, %esi
 5465      00
 5466 25fb E8000000 		call	__sigsetjmp
 5466      00
 5467 2600 85C0     		testl	%eax, %eax
 5468 2602 0F850001 		jne	.L889
 5468      0000
 5469 2608 488B2C24 		movq	(%rsp), %rbp
 5470 260c 488D5D40 		leaq	64(%rbp), %rbx
 5471 2610 4889EF   		movq	%rbp, %rdi
 5472 2613 4889DE   		movq	%rbx, %rsi
 5473              	.LEHB118:
 5474 2616 E8000000 		call	_ZN8UnitTest20DeferredTestReporter15ReportTestStartERKNS_11TestDetailsE
 5474      00
 5475 261b BA000000 		movl	$.LC54, %edx
 5475      00
 5476 2620 4889DE   		movq	%rbx, %rsi
 5477 2623 4889EF   		movq	%rbp, %rdi
 5478 2626 E8000000 		call	_ZN8UnitTest20DeferredTestReporter13ReportFailureERKNS_11TestDetailsEPKc
 5478      00
 5479 262b 4889EF   		movq	%rbp, %rdi
 5480 262e E8000000 		call	_ZN8UnitTest20DeferredTestReporter10GetResultsEv
 5480      00
 5481              	.LEHE118:
 5482 2633 488B18   		movq	(%rax), %rbx
 5483 2636 488B4008 		movq	8(%rax), %rax
 5484 263a 48BAB76D 		movabsq	$7905747460161236407, %rdx
 5484      DBB66DDB 
 5484      B66D
 5485 2644 4829D8   		subq	%rbx, %rax
 5486 2647 48C1F803 		sarq	$3, %rax
 5487 264b 480FAFC2 		imulq	%rdx, %rax
 5488 264f 4885C0   		testq	%rax, %rax
 5489 2652 0F847701 		je	.L890
 5489      0000
 5490 2658 807B3400 		cmpb	$0, 52(%rbx)
 5491 265c 7534     		jne	.L854
 5492              	.LEHB119:
 5493 265e E8000000 		call	_ZN8UnitTest11CurrentTest7DetailsEv
 5493      00
 5494 2663 488B30   		movq	(%rax), %rsi
 5495 2666 488DBC24 		leaq	160(%rsp), %rdi
 5495      A0000000 
 5496 266e BA4F0000 		movl	$79, %edx
 5496      00
 5497 2673 E8000000 		call	_ZN8UnitTest11TestDetailsC1ERKS0_i
 5497      00
 5498 2678 E8000000 		call	_ZN8UnitTest11CurrentTest7ResultsEv
 5498      00
 5499 267d 488B38   		movq	(%rax), %rdi
 5500 2680 488DB424 		leaq	160(%rsp), %rsi
 5500      A0000000 
 5501 2688 BA000000 		movl	$.LC55, %edx
 5501      00
 5502 268d E8000000 		call	_ZN8UnitTest11TestResults13OnTestFailureERKNS_11TestDetailsEPKc
 5502      00
 5503              	.LEHE119:
 5504              	.L854:
 5505              	.LEHB120:
 5506 2692 E8000000 		call	_ZN8UnitTest11CurrentTest7DetailsEv
 5506      00
 5507 2697 488B30   		movq	(%rax), %rsi
 5508 269a 488D7C24 		leaq	96(%rsp), %rdi
 5508      60
 5509 269f BA500000 		movl	$80, %edx
 5509      00
 5510 26a4 E8000000 		call	_ZN8UnitTest11TestDetailsC1ERKS0_i
 5510      00
 5511 26a9 488B0424 		movq	(%rsp), %rax
 5512 26ad 4883C310 		addq	$16, %rbx
 5513 26b1 488B4030 		movq	48(%rax), %rax
 5514 26b5 48894424 		movq	%rax, 24(%rsp)
 5514      18
 5515 26ba E8000000 		call	_ZN8UnitTest11CurrentTest7ResultsEv
 5515      00
 5516 26bf 488B38   		movq	(%rax), %rdi
 5517 26c2 488D4C24 		leaq	96(%rsp), %rcx
 5517      60
 5518 26c7 488D7424 		leaq	24(%rsp), %rsi
 5518      18
 5519 26cc 4889DA   		movq	%rbx, %rdx
 5520 26cf E8000000 		call	_ZN8UnitTest10CheckEqualIPKcSsEEvRNS_11TestResultsERKT_RKT0_RKNS_11TestDetailsE
 5520      00
 5521              	.LEHE120:
 5522              	.L855:
 5523 26d4 488DBC24 		leaq	560(%rsp), %rdi
 5523      30020000 
 5524              	.LEHB121:
 5525 26dc E8000000 		call	_ZN8UnitTest16SignalTranslatorD1Ev
 5525      00
 5526              	.LEHE121:
 5527              	.L849:
 5528 26e1 488B8424 		movq	1688(%rsp), %rax
 5528      98060000 
 5529 26e9 64483304 		xorq	%fs:40, %rax
 5529      25280000 
 5529      00
 5530 26f2 0F85E500 		jne	.L891
 5530      0000
 5531 26f8 4881C4A0 		addq	$1696, %rsp
 5531      060000
 5532              		.cfi_remember_state
 5533              		.cfi_def_cfa_offset 32
 5534 26ff 5B       		popq	%rbx
 5535              		.cfi_def_cfa_offset 24
 5536 2700 5D       		popq	%rbp
 5537              		.cfi_def_cfa_offset 16
 5538 2701 415C     		popq	%r12
 5539              		.cfi_def_cfa_offset 8
 5540 2703 C3       		ret
 5541              		.p2align 4,,10
 5542 2704 0F1F4000 		.p2align 3
 5543              	.L889:
 5544              		.cfi_restore_state
 5545 2708 BF080000 		movl	$8, %edi
 5545      00
 5546 270d E8000000 		call	__cxa_allocate_exception
 5546      00
 5547 2712 31D2     		xorl	%edx, %edx
 5548 2714 48C70000 		movq	$.LC23, (%rax)
 5548      000000
 5549 271b BE000000 		movl	$_ZTIPKc, %esi
 5549      00
 5550 2720 4889C7   		movq	%rax, %rdi
 5551              	.LEHB122:
 5552 2723 E8000000 		call	__cxa_throw
 5552      00
 5553              	.LEHE122:
 5554              	.L874:
 5555 2728 4889C3   		movq	%rax, %rbx
 5556 272b 4889D5   		movq	%rdx, %rbp
 5557              	.L857:
 5558 272e 488DBC24 		leaq	560(%rsp), %rdi
 5558      30020000 
 5559 2736 E8000000 		call	_ZN8UnitTest16SignalTranslatorD1Ev
 5559      00
 5560 273b 4889DF   		movq	%rbx, %rdi
 5561 273e 4889EA   		movq	%rbp, %rdx
 5562              	.L862:
 5563 2741 4883FA01 		cmpq	$1, %rdx
 5564 2745 0F848D01 		je	.L864
 5564      0000
 5565 274b 4883FA02 		cmpq	$2, %rdx
 5566 274f 0F855D01 		jne	.L892
 5566      0000
 5567 2755 E8000000 		call	__cxa_begin_catch
 5567      00
 5568 275a 488DBC24 		leaq	192(%rsp), %rdi
 5568      C0000000 
 5569 2762 4889C3   		movq	%rax, %rbx
 5570              	.LEHB123:
 5571 2765 E8000000 		call	_ZN8UnitTest15MemoryOutStreamC1Ev
 5571      00
 5572              	.LEHE123:
 5573 276a 488B03   		movq	(%rbx), %rax
 5574 276d 4889DF   		movq	%rbx, %rdi
 5575 2770 FF5010   		call	*16(%rax)
 5576 2773 488DBC24 		leaq	192(%rsp), %rdi
 5576      C0000000 
 5577 277b BE000000 		movl	$.LC34, %esi
 5577      00
 5578 2780 4889C3   		movq	%rax, %rbx
 5579              	.LEHB124:
 5580 2783 E8000000 		call	_ZStlsISt11char_traitsIcEERSt13basic_ostreamIcT_ES5_PKc
 5580      00
 5581 2788 4889C7   		movq	%rax, %rdi
 5582 278b 4889DE   		movq	%rbx, %rsi
 5583 278e E8000000 		call	_ZStlsISt11char_traitsIcEERSt13basic_ostreamIcT_ES5_PKc
 5583      00
 5584 2793 488DBC24 		leaq	192(%rsp), %rdi
 5584      C0000000 
 5585 279b E8000000 		call	_ZNK8UnitTest15MemoryOutStream7GetTextEv
 5585      00
 5586 27a0 4889C3   		movq	%rax, %rbx
 5587 27a3 E8000000 		call	_ZN8UnitTest11CurrentTest7ResultsEv
 5587      00
 5588 27a8 488B7424 		movq	8(%rsp), %rsi
 5588      08
 5589 27ad 488B38   		movq	(%rax), %rdi
 5590 27b0 4889DA   		movq	%rbx, %rdx
 5591 27b3 E8000000 		call	_ZN8UnitTest11TestResults13OnTestFailureERKNS_11TestDetailsEPKc
 5591      00
 5592              	.LEHE124:
 5593 27b8 488DBC24 		leaq	192(%rsp), %rdi
 5593      C0000000 
 5594              	.LEHB125:
 5595 27c0 E8000000 		call	_ZN8UnitTest15MemoryOutStreamD1Ev
 5595      00
 5596              	.LEHE125:
 5597              	.L886:
 5598 27c5 E8000000 		call	__cxa_end_catch
 5598      00
 5599 27ca E912FFFF 		jmp	.L849
 5599      FF
 5600              	.L890:
 5601 27cf 31D2     		xorl	%edx, %edx
 5602 27d1 31F6     		xorl	%esi, %esi
 5603 27d3 BF000000 		movl	$.LC25, %edi
 5603      00
 5604              	.LEHB126:
 5605 27d8 E8000000 		call	_ZSt24__throw_out_of_range_fmtPKcz
 5605      00
 5606              	.LEHE126:
 5607              	.L891:
 5608 27dd E8000000 		call	__stack_chk_fail
 5608      00
 5609              	.L882:
 5610 27e2 4889C7   		movq	%rax, %rdi
 5611 27e5 E8000000 		call	__cxa_begin_catch
 5611      00
 5612              	.LEHB127:
 5613 27ea E8000000 		call	_ZN8UnitTest11CurrentTest7DetailsEv
 5613      00
 5614 27ef 488B30   		movq	(%rax), %rsi
 5615 27f2 488DBC24 		leaq	128(%rsp), %rdi
 5615      80000000 
 5616 27fa BA4F0000 		movl	$79, %edx
 5616      00
 5617 27ff E8000000 		call	_ZN8UnitTest11TestDetailsC1ERKS0_i
 5617      00
 5618 2804 E8000000 		call	_ZN8UnitTest11CurrentTest7ResultsEv
 5618      00
 5619 2809 488B38   		movq	(%rax), %rdi
 5620 280c 488DB424 		leaq	128(%rsp), %rsi
 5620      80000000 
 5621 2814 BA000000 		movl	$.LC56, %edx
 5621      00
 5622 2819 E8000000 		call	_ZN8UnitTest11TestResults13OnTestFailureERKNS_11TestDetailsEPKc
 5622      00
 5623              	.LEHE127:
 5624              	.LEHB128:
 5625 281e E8000000 		call	__cxa_end_catch
 5625      00
 5626              	.LEHE128:
 5627 2823 E96AFEFF 		jmp	.L854
 5627      FF
 5628              	.L880:
 5629 2828 4889C7   		movq	%rax, %rdi
 5630 282b E8000000 		call	__cxa_begin_catch
 5630      00
 5631              	.LEHB129:
 5632 2830 E8000000 		call	_ZN8UnitTest11CurrentTest7DetailsEv
 5632      00
 5633 2835 488B30   		movq	(%rax), %rsi
 5634 2838 488D7C24 		leaq	64(%rsp), %rdi
 5634      40
 5635 283d BA500000 		movl	$80, %edx
 5635      00
 5636 2842 E8000000 		call	_ZN8UnitTest11TestDetailsC1ERKS0_i
 5636      00
 5637 2847 E8000000 		call	_ZN8UnitTest11CurrentTest7ResultsEv
 5637      00
 5638 284c 488B38   		movq	(%rax), %rdi
 5639 284f 488D7424 		leaq	64(%rsp), %rsi
 5639      40
 5640 2854 BA000000 		movl	$.LC57, %edx
 5640      00
 5641 2859 E8000000 		call	_ZN8UnitTest11TestResults13OnTestFailureERKNS_11TestDetailsEPKc
 5641      00
 5642              	.LEHE129:
 5643              	.LEHB130:
 5644 285e E8000000 		call	__cxa_end_catch
 5644      00
 5645              	.LEHE130:
 5646 2863 E96CFEFF 		jmp	.L855
 5646      FF
 5647              	.L873:
 5648 2868 4889C7   		movq	%rax, %rdi
 5649 286b E9D1FEFF 		jmp	.L862
 5649      FF
 5650              	.L881:
 5651 2870 4889C3   		movq	%rax, %rbx
 5652 2873 4889D5   		movq	%rdx, %rbp
 5653 2876 E8000000 		call	__cxa_end_catch
 5653      00
 5654 287b E9AEFEFF 		jmp	.L857
 5654      FF
 5655              	.L879:
 5656 2880 4889C3   		movq	%rax, %rbx
 5657 2883 4889D5   		movq	%rdx, %rbp
 5658 2886 E8000000 		call	__cxa_end_catch
 5658      00
 5659 288b E99EFEFF 		jmp	.L857
 5659      FF
 5660              	.L877:
 5661 2890 488DBC24 		leaq	192(%rsp), %rdi
 5661      C0000000 
 5662 2898 4889C3   		movq	%rax, %rbx
 5663 289b E8000000 		call	_ZN8UnitTest15MemoryOutStreamD1Ev
 5663      00
 5664              	.L868:
 5665 28a0 E8000000 		call	__cxa_end_catch
 5665      00
 5666 28a5 4889DF   		movq	%rbx, %rdi
 5667              	.LEHB131:
 5668 28a8 E8000000 		call	_Unwind_Resume
 5668      00
 5669              	.LEHE131:
 5670              	.L876:
 5671              	.L887:
 5672 28ad 4889C3   		movq	%rax, %rbx
 5673 28b0 EBEE     		jmp	.L868
 5674              	.L892:
 5675 28b2 E8000000 		call	__cxa_begin_catch
 5675      00
 5676              	.LEHB132:
 5677 28b7 E8000000 		call	_ZN8UnitTest11CurrentTest7ResultsEv
 5677      00
 5678 28bc 488B7424 		movq	8(%rsp), %rsi
 5678      08
 5679 28c1 488B38   		movq	(%rax), %rdi
 5680 28c4 BA000000 		movl	$.LC35, %edx
 5680      00
 5681 28c9 E8000000 		call	_ZN8UnitTest11TestResults13OnTestFailureERKNS_11TestDetailsEPKc
 5681      00
 5682              	.LEHE132:
 5683              	.LEHB133:
 5684 28ce E8000000 		call	__cxa_end_catch
 5684      00
 5685              	.LEHE133:
 5686 28d3 E909FEFF 		jmp	.L849
 5686      FF
 5687              	.L864:
 5688 28d8 E8000000 		call	__cxa_begin_catch
 5688      00
 5689 28dd 4889C3   		movq	%rax, %rbx
 5690 28e0 488B00   		movq	(%rax), %rax
 5691 28e3 4889DF   		movq	%rbx, %rdi
 5692 28e6 FF5010   		call	*16(%rax)
 5693 28e9 4889DF   		movq	%rbx, %rdi
 5694 28ec 4889C5   		movq	%rax, %rbp
 5695              	.LEHB134:
 5696 28ef E8000000 		call	_ZNK8UnitTest15AssertException10LineNumberEv
 5696      00
 5697 28f4 4889DF   		movq	%rbx, %rdi
 5698 28f7 4189C4   		movl	%eax, %r12d
 5699 28fa E8000000 		call	_ZNK8UnitTest15AssertException8FilenameEv
 5699      00
 5700 28ff 4889C1   		movq	%rax, %rcx
 5701 2902 488B4424 		movq	8(%rsp), %rax
 5701      08
 5702 2907 488D7C24 		leaq	32(%rsp), %rdi
 5702      20
 5703 290c 4589E0   		movl	%r12d, %r8d
 5704 290f 488B7008 		movq	8(%rax), %rsi
 5705 2913 488B10   		movq	(%rax), %rdx
 5706 2916 E8000000 		call	_ZN8UnitTest11TestDetailsC1EPKcS2_S2_i
 5706      00
 5707 291b E8000000 		call	_ZN8UnitTest11CurrentTest7ResultsEv
 5707      00
 5708 2920 488B38   		movq	(%rax), %rdi
 5709 2923 488D7424 		leaq	32(%rsp), %rsi
 5709      20
 5710 2928 4889EA   		movq	%rbp, %rdx
 5711 292b E8000000 		call	_ZN8UnitTest11TestResults13OnTestFailureERKNS_11TestDetailsEPKc
 5711      00
 5712              	.LEHE134:
 5713 2930 E990FEFF 		jmp	.L886
 5713      FF
 5714              	.L878:
 5715 2935 4889C3   		movq	%rax, %rbx
 5716 2938 E8000000 		call	__cxa_end_catch
 5716      00
 5717 293d 4889DF   		movq	%rbx, %rdi
 5718              	.LEHB135:
 5719 2940 E8000000 		call	_Unwind_Resume
 5719      00
 5720              	.LEHE135:
 5721              	.L875:
 5722 2945 E963FFFF 		jmp	.L887
 5722      FF
 5723              		.cfi_endproc
 5724              	.LFE1525:
 5725              		.section	.gcc_except_table
 5726              		.align 4
 5727              	.LLSDA1525:
 5728 032c FF       		.byte	0xff
 5729 032d 03       		.byte	0x3
 5730 032e 8801     		.uleb128 .LLSDATT1525-.LLSDATTD1525
 5731              	.LLSDATTD1525:
 5732 0330 01       		.byte	0x1
 5733 0331 71       		.uleb128 .LLSDACSE1525-.LLSDACSB1525
 5734              	.LLSDACSB1525:
 5735 0332 2A       		.uleb128 .LEHB116-.LFB1525
 5736 0333 05       		.uleb128 .LEHE116-.LEHB116
 5737 0334 00       		.uleb128 0
 5738 0335 00       		.uleb128 0
 5739 0336 3A       		.uleb128 .LEHB117-.LFB1525
 5740 0337 05       		.uleb128 .LEHE117-.LEHB117
 5741 0338 B805     		.uleb128 .L873-.LFB1525
 5742 033a 05       		.uleb128 0x5
 5743 033b 66       		.uleb128 .LEHB118-.LFB1525
 5744 033c 1D       		.uleb128 .LEHE118-.LEHB118
 5745 033d F802     		.uleb128 .L874-.LFB1525
 5746 033f 07       		.uleb128 0x7
 5747 0340 AE01     		.uleb128 .LEHB119-.LFB1525
 5748 0342 34       		.uleb128 .LEHE119-.LEHB119
 5749 0343 B204     		.uleb128 .L882-.LFB1525
 5750 0345 01       		.uleb128 0x1
 5751 0346 E201     		.uleb128 .LEHB120-.LFB1525
 5752 0348 42       		.uleb128 .LEHE120-.LEHB120
 5753 0349 F804     		.uleb128 .L880-.LFB1525
 5754 034b 01       		.uleb128 0x1
 5755 034c AC02     		.uleb128 .LEHB121-.LFB1525
 5756 034e 05       		.uleb128 .LEHE121-.LEHB121
 5757 034f B805     		.uleb128 .L873-.LFB1525
 5758 0351 05       		.uleb128 0x5
 5759 0352 F302     		.uleb128 .LEHB122-.LFB1525
 5760 0354 05       		.uleb128 .LEHE122-.LEHB122
 5761 0355 F802     		.uleb128 .L874-.LFB1525
 5762 0357 07       		.uleb128 0x7
 5763 0358 B503     		.uleb128 .LEHB123-.LFB1525
 5764 035a 05       		.uleb128 .LEHE123-.LEHB123
 5765 035b FD05     		.uleb128 .L876-.LFB1525
 5766 035d 00       		.uleb128 0
 5767 035e D303     		.uleb128 .LEHB124-.LFB1525
 5768 0360 35       		.uleb128 .LEHE124-.LEHB124
 5769 0361 E005     		.uleb128 .L877-.LFB1525
 5770 0363 00       		.uleb128 0
 5771 0364 9004     		.uleb128 .LEHB125-.LFB1525
 5772 0366 05       		.uleb128 .LEHE125-.LEHB125
 5773 0367 FD05     		.uleb128 .L876-.LFB1525
 5774 0369 00       		.uleb128 0
 5775 036a A804     		.uleb128 .LEHB126-.LFB1525
 5776 036c 05       		.uleb128 .LEHE126-.LEHB126
 5777 036d F802     		.uleb128 .L874-.LFB1525
 5778 036f 07       		.uleb128 0x7
 5779 0370 BA04     		.uleb128 .LEHB127-.LFB1525
 5780 0372 34       		.uleb128 .LEHE127-.LEHB127
 5781 0373 C005     		.uleb128 .L881-.LFB1525
 5782 0375 07       		.uleb128 0x7
 5783 0376 EE04     		.uleb128 .LEHB128-.LFB1525
 5784 0378 05       		.uleb128 .LEHE128-.LEHB128
 5785 0379 F802     		.uleb128 .L874-.LFB1525
 5786 037b 07       		.uleb128 0x7
 5787 037c 8005     		.uleb128 .LEHB129-.LFB1525
 5788 037e 2E       		.uleb128 .LEHE129-.LEHB129
 5789 037f D005     		.uleb128 .L879-.LFB1525
 5790 0381 07       		.uleb128 0x7
 5791 0382 AE05     		.uleb128 .LEHB130-.LFB1525
 5792 0384 05       		.uleb128 .LEHE130-.LEHB130
 5793 0385 F802     		.uleb128 .L874-.LFB1525
 5794 0387 07       		.uleb128 0x7
 5795 0388 F805     		.uleb128 .LEHB131-.LFB1525
 5796 038a 05       		.uleb128 .LEHE131-.LEHB131
 5797 038b 00       		.uleb128 0
 5798 038c 00       		.uleb128 0
 5799 038d 8706     		.uleb128 .LEHB132-.LFB1525
 5800 038f 17       		.uleb128 .LEHE132-.LEHB132
 5801 0390 8507     		.uleb128 .L878-.LFB1525
 5802 0392 00       		.uleb128 0
 5803 0393 9E06     		.uleb128 .LEHB133-.LFB1525
 5804 0395 05       		.uleb128 .LEHE133-.LEHB133
 5805 0396 00       		.uleb128 0
 5806 0397 00       		.uleb128 0
 5807 0398 BF06     		.uleb128 .LEHB134-.LFB1525
 5808 039a 41       		.uleb128 .LEHE134-.LEHB134
 5809 039b 9507     		.uleb128 .L875-.LFB1525
 5810 039d 00       		.uleb128 0
 5811 039e 9007     		.uleb128 .LEHB135-.LFB1525
 5812 03a0 05       		.uleb128 .LEHE135-.LEHB135
 5813 03a1 00       		.uleb128 0
 5814 03a2 00       		.uleb128 0
 5815              	.LLSDACSE1525:
 5816 03a3 03       		.byte	0x3
 5817 03a4 00       		.byte	0
 5818 03a5 02       		.byte	0x2
 5819 03a6 7D       		.byte	0x7d
 5820 03a7 01       		.byte	0x1
 5821 03a8 7D       		.byte	0x7d
 5822 03a9 00       		.byte	0
 5823 03aa 7D       		.byte	0x7d
 5824 03ab 00       		.align 4
 5825 03ac 00000000 		.long	0
 5826              	
 5827 03b0 00000000 		.long	_ZTISt9exception
 5828 03b4 00000000 		.long	_ZTIN8UnitTest15AssertExceptionE
 5829              	.LLSDATT1525:
 5830              		.text
 5832              		.section	.text.unlikely
 5833              	.LCOLDE58:
 5834              		.text
 5835              	.LHOTE58:
 5836              		.section	.text.unlikely
 5837              		.align 2
 5838              	.LCOLDB59:
 5839              		.text
 5840              	.LHOTB59:
 5841              		.align 2
 5842 294a 660F1F44 		.p2align 4,,15
 5842      0000
 5844              	_ZNK8UnitTest12_GLOBAL__N_163TestDeferredTestReporterFixtureReportFailureSavesFailureDetails7RunImp
 5845              	.LFB1448:
 5846              		.cfi_startproc
 5847              		.cfi_personality 0x3,__gxx_personality_v0
 5848              		.cfi_lsda 0x3,.LLSDA1448
 5849 2950 4157     		pushq	%r15
 5850              		.cfi_def_cfa_offset 16
 5851              		.cfi_offset 15, -16
 5852 2952 4156     		pushq	%r14
 5853              		.cfi_def_cfa_offset 24
 5854              		.cfi_offset 14, -24
 5855 2954 BE000000 		movl	$.LC39, %esi
 5855      00
 5856 2959 4155     		pushq	%r13
 5857              		.cfi_def_cfa_offset 32
 5858              		.cfi_offset 13, -32
 5859 295b 4154     		pushq	%r12
 5860              		.cfi_def_cfa_offset 40
 5861              		.cfi_offset 12, -40
 5862 295d 4C8D6F08 		leaq	8(%rdi), %r13
 5863 2961 55       		pushq	%rbp
 5864              		.cfi_def_cfa_offset 48
 5865              		.cfi_offset 6, -48
 5866 2962 53       		pushq	%rbx
 5867              		.cfi_def_cfa_offset 56
 5868              		.cfi_offset 3, -56
 5869 2963 4881EC08 		subq	$520, %rsp
 5869      020000
 5870              		.cfi_def_cfa_offset 576
 5871 296a 488D4424 		leaq	32(%rsp), %rax
 5871      20
 5872 296f 48897C24 		movq	%rdi, 8(%rsp)
 5872      08
 5873 2974 48C74424 		movq	$0, 40(%rsp)
 5873      28000000 
 5873      00
 5874 297d 64488B14 		movq	%fs:40, %rdx
 5874      25280000 
 5874      00
 5875 2986 48899424 		movq	%rdx, 504(%rsp)
 5875      F8010000 
 5876 298e 31D2     		xorl	%edx, %edx
 5877 2990 488D7820 		leaq	32(%rax), %rdi
 5878 2994 488D5424 		leaq	31(%rsp), %rdx
 5878      1F
 5879 2999 48C74424 		movq	$0, 48(%rsp)
 5879      30000000 
 5879      00
 5880 29a2 48C74424 		movq	$0, 56(%rsp)
 5880      38000000 
 5880      00
 5881 29ab 48C74424 		movq	$_ZTVN8UnitTest12_GLOBAL__N_124MockDeferredTestReporterE+16, 32(%rsp)
 5881      20000000 
 5881      00
 5882              	.LEHB136:
 5883 29b4 E8000000 		call	_ZNSsC1EPKcRKSaIcE
 5883      00
 5884              	.LEHE136:
 5885 29b9 488D4424 		leaq	32(%rsp), %rax
 5885      20
 5886 29be 488D5424 		leaq	31(%rsp), %rdx
 5886      1F
 5887 29c3 BE000000 		movl	$.LC40, %esi
 5887      00
 5888 29c8 488D7828 		leaq	40(%rax), %rdi
 5889              	.LEHB137:
 5890 29cc E8000000 		call	_ZNSsC1EPKcRKSaIcE
 5890      00
 5891              	.LEHE137:
 5892 29d1 488D4424 		leaq	32(%rsp), %rax
 5892      20
 5893 29d6 488D5424 		leaq	31(%rsp), %rdx
 5893      1F
 5894 29db BE000000 		movl	$.LC41, %esi
 5894      00
 5895 29e0 488D7830 		leaq	48(%rax), %rdi
 5896              	.LEHB138:
 5897 29e4 E8000000 		call	_ZNSsC1EPKcRKSaIcE
 5897      00
 5898              	.LEHE138:
 5899 29e9 488D4424 		leaq	32(%rsp), %rax
 5899      20
 5900 29ee 488B4C24 		movq	80(%rsp), %rcx
 5900      50
 5901 29f3 488B5424 		movq	72(%rsp), %rdx
 5901      48
 5902 29f8 488B7424 		movq	64(%rsp), %rsi
 5902      40
 5903 29fd 41B80C00 		movl	$12, %r8d
 5903      0000
 5904 2a03 C7442458 		movl	$12, 88(%rsp)
 5904      0C000000 
 5905 2a0b 488D7840 		leaq	64(%rax), %rdi
 5906              	.LEHB139:
 5907 2a0f E8000000 		call	_ZN8UnitTest11TestDetailsC1EPKcS2_S2_i
 5907      00
 5908              	.LEHE139:
 5909 2a14 488D7C24 		leaq	32(%rsp), %rdi
 5909      20
 5910 2a19 4C89EE   		movq	%r13, %rsi
 5911 2a1c 4C89AC24 		movq	%r13, 128(%rsp)
 5911      80000000 
 5912              	.LEHB140:
 5913 2a24 E887FBFF 		call	_ZN8UnitTest11ExecuteTestINS_12_GLOBAL__N_165DeferredTestReporterFixtureReportFailureSavesFai
 5913      FF
 5914              	.LEHE140:
 5915 2a29 488B4424 		movq	80(%rsp), %rax
 5915      50
 5916 2a2e 488D78E8 		leaq	-24(%rax), %rdi
 5917 2a32 4881FF00 		cmpq	$_ZNSs4_Rep20_S_empty_rep_storageE, %rdi
 5917      000000
 5918 2a39 0F857402 		jne	.L1000
 5918      0000
 5919              	.L904:
 5920 2a3f 488B4424 		movq	72(%rsp), %rax
 5920      48
 5921 2a44 488D78E8 		leaq	-24(%rax), %rdi
 5922 2a48 4881FF00 		cmpq	$_ZNSs4_Rep20_S_empty_rep_storageE, %rdi
 5922      000000
 5923 2a4f 0F858B02 		jne	.L1001
 5923      0000
 5924              	.L909:
 5925 2a55 488B4424 		movq	64(%rsp), %rax
 5925      40
 5926 2a5a 488D78E8 		leaq	-24(%rax), %rdi
 5927 2a5e 4881FF00 		cmpq	$_ZNSs4_Rep20_S_empty_rep_storageE, %rdi
 5927      000000
 5928 2a65 0F851702 		jne	.L1002
 5928      0000
 5929              	.L914:
 5930 2a6b 488B6C24 		movq	48(%rsp), %rbp
 5930      30
 5931 2a70 4C8B7424 		movq	40(%rsp), %r14
 5931      28
 5932 2a75 48C74424 		movq	$_ZTVN8UnitTest20DeferredTestReporterE+16, 32(%rsp)
 5932      20000000 
 5932      00
 5933 2a7e 4C39F5   		cmpq	%r14, %rbp
 5934 2a81 0F84CA00 		je	.L918
 5934      0000
 5935 2a87 41BC0000 		movl	$_ZL28__gthrw___pthread_key_createPjPFvPvE, %r12d
 5935      0000
 5936 2a8d 0F1F00   		.p2align 4,,10
 5937              		.p2align 3
 5938              	.L947:
 5939 2a90 4D8B7E20 		movq	32(%r14), %r15
 5940 2a94 498B5E18 		movq	24(%r14), %rbx
 5941 2a98 4939DF   		cmpq	%rbx, %r15
 5942 2a9b 7457     		je	.L919
 5943 2a9d 4D85E4   		testq	%r12, %r12
 5944 2aa0 7517     		jne	.L983
 5945 2aa2 E9160100 		jmp	.L925
 5945      00
 5946 2aa7 660F1F84 		.p2align 4,,10
 5946      00000000 
 5946      00
 5947              		.p2align 3
 5948              	.L928:
 5949 2ab0 4883C310 		addq	$16, %rbx
 5950 2ab4 4939DF   		cmpq	%rbx, %r15
 5951 2ab7 7437     		je	.L926
 5952              	.L983:
 5953 2ab9 488B4308 		movq	8(%rbx), %rax
 5954 2abd 488D78E8 		leaq	-24(%rax), %rdi
 5955 2ac1 4881FF00 		cmpq	$_ZNSs4_Rep20_S_empty_rep_storageE, %rdi
 5955      000000
 5956 2ac8 74E6     		je	.L928
 5957 2aca B9FFFFFF 		movl	$-1, %ecx
 5957      FF
 5958 2acf F00FC148 		lock xaddl	%ecx, -8(%rax)
 5958      F8
 5959 2ad4 85C9     		testl	%ecx, %ecx
 5960 2ad6 7FD8     		jg	.L928
 5961 2ad8 488D7424 		leaq	31(%rsp), %rsi
 5961      1F
 5962 2add 4883C310 		addq	$16, %rbx
 5963 2ae1 E8000000 		call	_ZNSs4_Rep10_M_destroyERKSaIcE
 5963      00
 5964 2ae6 4939DF   		cmpq	%rbx, %r15
 5965 2ae9 75CE     		jne	.L983
 5966 2aeb 0F1F4400 		.p2align 4,,10
 5966      00
 5967              		.p2align 3
 5968              	.L926:
 5969 2af0 4D8B7E18 		movq	24(%r14), %r15
 5970              	.L919:
 5971 2af4 4D85FF   		testq	%r15, %r15
 5972 2af7 7408     		je	.L931
 5973 2af9 4C89FF   		movq	%r15, %rdi
 5974 2afc E8000000 		call	_ZdlPv
 5974      00
 5975              	.L931:
 5976 2b01 498B4610 		movq	16(%r14), %rax
 5977 2b05 488D78E8 		leaq	-24(%rax), %rdi
 5978 2b09 4881FF00 		cmpq	$_ZNSs4_Rep20_S_empty_rep_storageE, %rdi
 5978      000000
 5979 2b10 0F851A01 		jne	.L1003
 5979      0000
 5980              	.L933:
 5981 2b16 498B4608 		movq	8(%r14), %rax
 5982 2b1a 488D78E8 		leaq	-24(%rax), %rdi
 5983 2b1e 4881FF00 		cmpq	$_ZNSs4_Rep20_S_empty_rep_storageE, %rdi
 5983      000000
 5984 2b25 0F85D500 		jne	.L1004
 5984      0000
 5985              	.L938:
 5986 2b2b 498B06   		movq	(%r14), %rax
 5987 2b2e 488D78E8 		leaq	-24(%rax), %rdi
 5988 2b32 4881FF00 		cmpq	$_ZNSs4_Rep20_S_empty_rep_storageE, %rdi
 5988      000000
 5989 2b39 0F859100 		jne	.L1005
 5989      0000
 5990              	.L943:
 5991 2b3f 4983C638 		addq	$56, %r14
 5992 2b43 4C39F5   		cmpq	%r14, %rbp
 5993 2b46 0F8544FF 		jne	.L947
 5993      FFFF
 5994 2b4c 488B6C24 		movq	40(%rsp), %rbp
 5994      28
 5995              	.L918:
 5996 2b51 4885ED   		testq	%rbp, %rbp
 5997 2b54 7408     		je	.L948
 5998 2b56 4889EF   		movq	%rbp, %rdi
 5999 2b59 E8000000 		call	_ZdlPv
 5999      00
 6000              	.L948:
 6001 2b5e 488D7C24 		leaq	32(%rsp), %rdi
 6001      20
 6002              	.LEHB141:
 6003 2b63 E8000000 		call	_ZN8UnitTest12TestReporterD2Ev
 6003      00
 6004              	.LEHE141:
 6005              	.L893:
 6006 2b68 488B8424 		movq	504(%rsp), %rax
 6006      F8010000 
 6007 2b70 64483304 		xorq	%fs:40, %rax
 6007      25280000 
 6007      00
 6008 2b79 0F85F903 		jne	.L1006
 6008      0000
 6009 2b7f 4881C408 		addq	$520, %rsp
 6009      020000
 6010              		.cfi_remember_state
 6011              		.cfi_def_cfa_offset 56
 6012 2b86 5B       		popq	%rbx
 6013              		.cfi_def_cfa_offset 48
 6014 2b87 5D       		popq	%rbp
 6015              		.cfi_def_cfa_offset 40
 6016 2b88 415C     		popq	%r12
 6017              		.cfi_def_cfa_offset 32
 6018 2b8a 415D     		popq	%r13
 6019              		.cfi_def_cfa_offset 24
 6020 2b8c 415E     		popq	%r14
 6021              		.cfi_def_cfa_offset 16
 6022 2b8e 415F     		popq	%r15
 6023              		.cfi_def_cfa_offset 8
 6024 2b90 C3       		ret
 6025              		.p2align 4,,10
 6026 2b91 0F1F8000 		.p2align 3
 6026      000000
 6027              	.L1007:
 6028              		.cfi_restore_state
 6029 2b98 8B48F8   		movl	-8(%rax), %ecx
 6030 2b9b 8D71FF   		leal	-1(%rcx), %esi
 6031 2b9e 85C9     		testl	%ecx, %ecx
 6032 2ba0 8970F8   		movl	%esi, -8(%rax)
 6033 2ba3 7F0B     		jg	.L923
 6034 2ba5 488D7424 		leaq	31(%rsp), %rsi
 6034      1F
 6035 2baa E8000000 		call	_ZNSs4_Rep10_M_destroyERKSaIcE
 6035      00
 6036 2baf 90       		.p2align 4,,10
 6037              		.p2align 3
 6038              	.L923:
 6039 2bb0 4883C310 		addq	$16, %rbx
 6040 2bb4 4939DF   		cmpq	%rbx, %r15
 6041 2bb7 0F8433FF 		je	.L926
 6041      FFFF
 6042              	.L925:
 6043 2bbd 488B4308 		movq	8(%rbx), %rax
 6044 2bc1 488D78E8 		leaq	-24(%rax), %rdi
 6045 2bc5 4881FF00 		cmpq	$_ZNSs4_Rep20_S_empty_rep_storageE, %rdi
 6045      000000
 6046 2bcc 74E2     		je	.L923
 6047 2bce EBC8     		jmp	.L1007
 6048              		.p2align 4,,10
 6049              		.p2align 3
 6050              	.L1005:
 6051 2bd0 4D85E4   		testq	%r12, %r12
 6052 2bd3 0F847F00 		je	.L944
 6052      0000
 6053 2bd9 B9FFFFFF 		movl	$-1, %ecx
 6053      FF
 6054 2bde F00FC148 		lock xaddl	%ecx, -8(%rax)
 6054      F8
 6055 2be3 89C8     		movl	%ecx, %eax
 6056              	.L945:
 6057 2be5 85C0     		testl	%eax, %eax
 6058 2be7 0F8F52FF 		jg	.L943
 6058      FFFF
 6059 2bed 488D7424 		leaq	31(%rsp), %rsi
 6059      1F
 6060 2bf2 E8000000 		call	_ZNSs4_Rep10_M_destroyERKSaIcE
 6060      00
 6061 2bf7 E943FFFF 		jmp	.L943
 6061      FF
 6062 2bfc 0F1F4000 		.p2align 4,,10
 6063              		.p2align 3
 6064              	.L1004:
 6065 2c00 4D85E4   		testq	%r12, %r12
 6066 2c03 7470     		je	.L939
 6067 2c05 B9FFFFFF 		movl	$-1, %ecx
 6067      FF
 6068 2c0a F00FC148 		lock xaddl	%ecx, -8(%rax)
 6068      F8
 6069 2c0f 89C8     		movl	%ecx, %eax
 6070              	.L940:
 6071 2c11 85C0     		testl	%eax, %eax
 6072 2c13 0F8F12FF 		jg	.L938
 6072      FFFF
 6073 2c19 488D7424 		leaq	31(%rsp), %rsi
 6073      1F
 6074 2c1e E8000000 		call	_ZNSs4_Rep10_M_destroyERKSaIcE
 6074      00
 6075 2c23 E903FFFF 		jmp	.L938
 6075      FF
 6076 2c28 0F1F8400 		.p2align 4,,10
 6076      00000000 
 6077              		.p2align 3
 6078              	.L1003:
 6079 2c30 4D85E4   		testq	%r12, %r12
 6080 2c33 7433     		je	.L934
 6081 2c35 B9FFFFFF 		movl	$-1, %ecx
 6081      FF
 6082 2c3a F00FC148 		lock xaddl	%ecx, -8(%rax)
 6082      F8
 6083 2c3f 89C8     		movl	%ecx, %eax
 6084              	.L935:
 6085 2c41 85C0     		testl	%eax, %eax
 6086 2c43 0F8FCDFE 		jg	.L933
 6086      FFFF
 6087 2c49 488D7424 		leaq	31(%rsp), %rsi
 6087      1F
 6088 2c4e E8000000 		call	_ZNSs4_Rep10_M_destroyERKSaIcE
 6088      00
 6089 2c53 E9BEFEFF 		jmp	.L933
 6089      FF
 6090              	.L944:
 6091 2c58 8B48F8   		movl	-8(%rax), %ecx
 6092 2c5b 8D71FF   		leal	-1(%rcx), %esi
 6093 2c5e 8970F8   		movl	%esi, -8(%rax)
 6094 2c61 89C8     		movl	%ecx, %eax
 6095 2c63 E97DFFFF 		jmp	.L945
 6095      FF
 6096              	.L934:
 6097 2c68 8B48F8   		movl	-8(%rax), %ecx
 6098 2c6b 8D71FF   		leal	-1(%rcx), %esi
 6099 2c6e 8970F8   		movl	%esi, -8(%rax)
 6100 2c71 89C8     		movl	%ecx, %eax
 6101 2c73 EBCC     		jmp	.L935
 6102              	.L939:
 6103 2c75 8B48F8   		movl	-8(%rax), %ecx
 6104 2c78 8D71FF   		leal	-1(%rcx), %esi
 6105 2c7b 8970F8   		movl	%esi, -8(%rax)
 6106 2c7e 89C8     		movl	%ecx, %eax
 6107 2c80 EB8F     		jmp	.L940
 6108              	.L1002:
 6109 2c82 BA000000 		movl	$_ZL28__gthrw___pthread_key_createPjPFvPvE, %edx
 6109      00
 6110 2c87 4885D2   		testq	%rdx, %rdx
 6111 2c8a 0F849700 		je	.L915
 6111      0000
 6112 2c90 BAFFFFFF 		movl	$-1, %edx
 6112      FF
 6113 2c95 F00FC150 		lock xaddl	%edx, -8(%rax)
 6113      F8
 6114 2c9a 89D0     		movl	%edx, %eax
 6115              	.L916:
 6116 2c9c 85C0     		testl	%eax, %eax
 6117 2c9e 0F8FC7FD 		jg	.L914
 6117      FFFF
 6118 2ca4 488D7424 		leaq	31(%rsp), %rsi
 6118      1F
 6119 2ca9 E8000000 		call	_ZNSs4_Rep10_M_destroyERKSaIcE
 6119      00
 6120 2cae E9B8FDFF 		jmp	.L914
 6120      FF
 6121              	.L1000:
 6122 2cb3 BA000000 		movl	$_ZL28__gthrw___pthread_key_createPjPFvPvE, %edx
 6122      00
 6123 2cb8 4885D2   		testq	%rdx, %rdx
 6124 2cbb 745D     		je	.L905
 6125 2cbd BAFFFFFF 		movl	$-1, %edx
 6125      FF
 6126 2cc2 F00FC150 		lock xaddl	%edx, -8(%rax)
 6126      F8
 6127 2cc7 89D0     		movl	%edx, %eax
 6128              	.L906:
 6129 2cc9 85C0     		testl	%eax, %eax
 6130 2ccb 0F8F6EFD 		jg	.L904
 6130      FFFF
 6131 2cd1 488D7424 		leaq	31(%rsp), %rsi
 6131      1F
 6132 2cd6 E8000000 		call	_ZNSs4_Rep10_M_destroyERKSaIcE
 6132      00
 6133 2cdb E95FFDFF 		jmp	.L904
 6133      FF
 6134              	.L1001:
 6135 2ce0 BA000000 		movl	$_ZL28__gthrw___pthread_key_createPjPFvPvE, %edx
 6135      00
 6136 2ce5 4885D2   		testq	%rdx, %rdx
 6137 2ce8 7423     		je	.L910
 6138 2cea BAFFFFFF 		movl	$-1, %edx
 6138      FF
 6139 2cef F00FC150 		lock xaddl	%edx, -8(%rax)
 6139      F8
 6140 2cf4 89D0     		movl	%edx, %eax
 6141              	.L911:
 6142 2cf6 85C0     		testl	%eax, %eax
 6143 2cf8 0F8F57FD 		jg	.L909
 6143      FFFF
 6144 2cfe 488D7424 		leaq	31(%rsp), %rsi
 6144      1F
 6145 2d03 E8000000 		call	_ZNSs4_Rep10_M_destroyERKSaIcE
 6145      00
 6146 2d08 E948FDFF 		jmp	.L909
 6146      FF
 6147              	.L910:
 6148 2d0d 8B50F8   		movl	-8(%rax), %edx
 6149 2d10 8D4AFF   		leal	-1(%rdx), %ecx
 6150 2d13 8948F8   		movl	%ecx, -8(%rax)
 6151 2d16 89D0     		movl	%edx, %eax
 6152 2d18 EBDC     		jmp	.L911
 6153              	.L905:
 6154 2d1a 8B50F8   		movl	-8(%rax), %edx
 6155 2d1d 8D4AFF   		leal	-1(%rdx), %ecx
 6156 2d20 8948F8   		movl	%ecx, -8(%rax)
 6157 2d23 89D0     		movl	%edx, %eax
 6158 2d25 EBA2     		jmp	.L906
 6159              	.L915:
 6160 2d27 8B50F8   		movl	-8(%rax), %edx
 6161 2d2a 8D4AFF   		leal	-1(%rdx), %ecx
 6162 2d2d 8948F8   		movl	%ecx, -8(%rax)
 6163 2d30 89D0     		movl	%edx, %eax
 6164 2d32 E965FFFF 		jmp	.L916
 6164      FF
 6165              	.L963:
 6166 2d37 4889C7   		movq	%rax, %rdi
 6167 2d3a BB010000 		movl	$1, %ebx
 6167      00
 6168              	.L902:
 6169 2d3f 4883FA01 		cmpq	$1, %rdx
 6170 2d43 0F847001 		je	.L953
 6170      0000
 6171 2d49 4883FA02 		cmpq	$2, %rdx
 6172 2d4d 0F852601 		jne	.L1008
 6172      0000
 6173 2d53 E8000000 		call	__cxa_begin_catch
 6173      00
 6174 2d58 488DBC24 		leaq	144(%rsp), %rdi
 6174      90000000 
 6175 2d60 4889C3   		movq	%rax, %rbx
 6176              	.LEHB142:
 6177 2d63 E8000000 		call	_ZN8UnitTest15MemoryOutStreamC1Ev
 6177      00
 6178              	.LEHE142:
 6179 2d68 488B03   		movq	(%rbx), %rax
 6180 2d6b 4889DF   		movq	%rbx, %rdi
 6181 2d6e FF5010   		call	*16(%rax)
 6182 2d71 488DBC24 		leaq	144(%rsp), %rdi
 6182      90000000 
 6183 2d79 BE000000 		movl	$.LC34, %esi
 6183      00
 6184 2d7e 4889C3   		movq	%rax, %rbx
 6185              	.LEHB143:
 6186 2d81 E8000000 		call	_ZStlsISt11char_traitsIcEERSt13basic_ostreamIcT_ES5_PKc
 6186      00
 6187 2d86 4889C7   		movq	%rax, %rdi
 6188 2d89 4889DE   		movq	%rbx, %rsi
 6189 2d8c E8000000 		call	_ZStlsISt11char_traitsIcEERSt13basic_ostreamIcT_ES5_PKc
 6189      00
 6190 2d91 488DBC24 		leaq	144(%rsp), %rdi
 6190      90000000 
 6191 2d99 E8000000 		call	_ZNK8UnitTest15MemoryOutStream7GetTextEv
 6191      00
 6192 2d9e 4889C3   		movq	%rax, %rbx
 6193 2da1 E8000000 		call	_ZN8UnitTest11CurrentTest7ResultsEv
 6193      00
 6194 2da6 488B38   		movq	(%rax), %rdi
 6195 2da9 4889DA   		movq	%rbx, %rdx
 6196 2dac 4C89EE   		movq	%r13, %rsi
 6197 2daf E8000000 		call	_ZN8UnitTest11TestResults13OnTestFailureERKNS_11TestDetailsEPKc
 6197      00
 6198              	.LEHE143:
 6199 2db4 488DBC24 		leaq	144(%rsp), %rdi
 6199      90000000 
 6200              	.LEHB144:
 6201 2dbc E8000000 		call	_ZN8UnitTest15MemoryOutStreamD1Ev
 6201      00
 6202              	.LEHE144:
 6203              	.L995:
 6204 2dc1 E8000000 		call	__cxa_end_catch
 6204      00
 6205 2dc6 E99DFDFF 		jmp	.L893
 6205      FF
 6206              	.L972:
 6207 2dcb 4889C3   		movq	%rax, %rbx
 6208 2dce 488B4424 		movq	80(%rsp), %rax
 6208      50
 6209 2dd3 4889D5   		movq	%rdx, %rbp
 6210 2dd6 488D78E8 		leaq	-24(%rax), %rdi
 6211 2dda 4881FF00 		cmpq	$_ZNSs4_Rep20_S_empty_rep_storageE, %rdi
 6211      000000
 6212 2de1 740A     		je	.L897
 6213 2de3 488D7424 		leaq	31(%rsp), %rsi
 6213      1F
 6214 2de8 E8000000 		call	_ZNSs4_Rep10_M_disposeERKSaIcE.part.1
 6214      00
 6215              	.L897:
 6216 2ded 488B4424 		movq	72(%rsp), %rax
 6216      48
 6217 2df2 488D78E8 		leaq	-24(%rax), %rdi
 6218 2df6 4881FF00 		cmpq	$_ZNSs4_Rep20_S_empty_rep_storageE, %rdi
 6218      000000
 6219 2dfd 740A     		je	.L899
 6220 2dff 488D7424 		leaq	31(%rsp), %rsi
 6220      1F
 6221 2e04 E8000000 		call	_ZNSs4_Rep10_M_disposeERKSaIcE.part.1
 6221      00
 6222              	.L899:
 6223 2e09 488B4424 		movq	64(%rsp), %rax
 6223      40
 6224 2e0e 488D78E8 		leaq	-24(%rax), %rdi
 6225 2e12 4881FF00 		cmpq	$_ZNSs4_Rep20_S_empty_rep_storageE, %rdi
 6225      000000
 6226 2e19 740A     		je	.L901
 6227 2e1b 488D7424 		leaq	31(%rsp), %rsi
 6227      1F
 6228 2e20 E8000000 		call	_ZNSs4_Rep10_M_disposeERKSaIcE.part.1
 6228      00
 6229              	.L901:
 6230 2e25 488D7C24 		leaq	40(%rsp), %rdi
 6230      28
 6231 2e2a 48C74424 		movq	$_ZTVN8UnitTest20DeferredTestReporterE+16, 32(%rsp)
 6231      20000000 
 6231      00
 6232 2e33 E8000000 		call	_ZNSt6vectorIN8UnitTest18DeferredTestResultESaIS1_EED1Ev
 6232      00
 6233 2e38 488D7C24 		leaq	32(%rsp), %rdi
 6233      20
 6234 2e3d E8000000 		call	_ZN8UnitTest12TestReporterD2Ev
 6234      00
 6235 2e42 4889DF   		movq	%rbx, %rdi
 6236 2e45 4889EA   		movq	%rbp, %rdx
 6237 2e48 31DB     		xorl	%ebx, %ebx
 6238 2e4a E9F0FEFF 		jmp	.L902
 6238      FF
 6239              	.L971:
 6240 2e4f 4889C3   		movq	%rax, %rbx
 6241 2e52 4889D5   		movq	%rdx, %rbp
 6242 2e55 EB96     		jmp	.L897
 6243              	.L967:
 6244 2e57 488DBC24 		leaq	144(%rsp), %rdi
 6244      90000000 
 6245 2e5f 4889C3   		movq	%rax, %rbx
 6246 2e62 E8000000 		call	_ZN8UnitTest15MemoryOutStreamD1Ev
 6246      00
 6247              	.L957:
 6248 2e67 E8000000 		call	__cxa_end_catch
 6248      00
 6249 2e6c 4889DF   		movq	%rbx, %rdi
 6250              	.LEHB145:
 6251 2e6f E8000000 		call	_Unwind_Resume
 6251      00
 6252              	.LEHE145:
 6253              	.L966:
 6254              	.L996:
 6255 2e74 4889C3   		movq	%rax, %rbx
 6256 2e77 EBEE     		jmp	.L957
 6257              	.L1008:
 6258 2e79 E8000000 		call	__cxa_begin_catch
 6258      00
 6259 2e7e 84DB     		testb	%bl, %bl
 6260 2e80 BA470000 		movl	$71, %edx
 6260      00
 6261 2e85 4C89EE   		movq	%r13, %rsi
 6262 2e88 488D7C24 		leaq	32(%rsp), %rdi
 6262      20
 6263 2e8d 0F849400 		je	.L960
 6263      0000
 6264              	.LEHB146:
 6265 2e93 E8000000 		call	_ZN8UnitTest11TestDetailsC1ERKS0_i
 6265      00
 6266 2e98 E8000000 		call	_ZN8UnitTest11CurrentTest7ResultsEv
 6266      00
 6267 2e9d 488B38   		movq	(%rax), %rdi
 6268 2ea0 488D7424 		leaq	32(%rsp), %rsi
 6268      20
 6269 2ea5 BA000000 		movl	$.LC42, %edx
 6269      00
 6270 2eaa E8000000 		call	_ZN8UnitTest11TestResults13OnTestFailureERKNS_11TestDetailsEPKc
 6270      00
 6271              	.LEHE146:
 6272              	.L961:
 6273              	.LEHB147:
 6274 2eaf E8000000 		call	__cxa_end_catch
 6274      00
 6275              	.LEHE147:
 6276 2eb4 E9AFFCFF 		jmp	.L893
 6276      FF
 6277              	.L953:
 6278 2eb9 E8000000 		call	__cxa_begin_catch
 6278      00
 6279 2ebe 4889C3   		movq	%rax, %rbx
 6280 2ec1 488B00   		movq	(%rax), %rax
 6281 2ec4 4889DF   		movq	%rbx, %rdi
 6282 2ec7 FF5010   		call	*16(%rax)
 6283 2eca 4889DF   		movq	%rbx, %rdi
 6284 2ecd 4889C5   		movq	%rax, %rbp
 6285              	.LEHB148:
 6286 2ed0 E8000000 		call	_ZNK8UnitTest15AssertException10LineNumberEv
 6286      00
 6287 2ed5 4889DF   		movq	%rbx, %rdi
 6288 2ed8 4189C4   		movl	%eax, %r12d
 6289 2edb E8000000 		call	_ZNK8UnitTest15AssertException8FilenameEv
 6289      00
 6290 2ee0 488B7424 		movq	8(%rsp), %rsi
 6290      08
 6291 2ee5 488D7C24 		leaq	32(%rsp), %rdi
 6291      20
 6292 2eea 4589E0   		movl	%r12d, %r8d
 6293 2eed 4889C1   		movq	%rax, %rcx
 6294 2ef0 488B5608 		movq	8(%rsi), %rdx
 6295 2ef4 488B7610 		movq	16(%rsi), %rsi
 6296 2ef8 E8000000 		call	_ZN8UnitTest11TestDetailsC1EPKcS2_S2_i
 6296      00
 6297 2efd E8000000 		call	_ZN8UnitTest11CurrentTest7ResultsEv
 6297      00
 6298 2f02 488B38   		movq	(%rax), %rdi
 6299 2f05 488D7424 		leaq	32(%rsp), %rsi
 6299      20
 6300 2f0a 4889EA   		movq	%rbp, %rdx
 6301 2f0d E8000000 		call	_ZN8UnitTest11TestResults13OnTestFailureERKNS_11TestDetailsEPKc
 6301      00
 6302              	.LEHE148:
 6303 2f12 E9AAFEFF 		jmp	.L995
 6303      FF
 6304              	.L968:
 6305 2f17 4889C3   		movq	%rax, %rbx
 6306 2f1a E8000000 		call	__cxa_end_catch
 6306      00
 6307 2f1f 4889DF   		movq	%rbx, %rdi
 6308              	.LEHB149:
 6309 2f22 E8000000 		call	_Unwind_Resume
 6309      00
 6310              	.LEHE149:
 6311              	.L960:
 6312              	.LEHB150:
 6313 2f27 E8000000 		call	_ZN8UnitTest11TestDetailsC1ERKS0_i
 6313      00
 6314 2f2c E8000000 		call	_ZN8UnitTest11CurrentTest7ResultsEv
 6314      00
 6315 2f31 488B38   		movq	(%rax), %rdi
 6316 2f34 488D7424 		leaq	32(%rsp), %rsi
 6316      20
 6317 2f39 BA000000 		movl	$.LC43, %edx
 6317      00
 6318 2f3e E8000000 		call	_ZN8UnitTest11TestResults13OnTestFailureERKNS_11TestDetailsEPKc
 6318      00
 6319              	.LEHE150:
 6320 2f43 E967FFFF 		jmp	.L961
 6320      FF
 6321              	.L965:
 6322 2f48 E927FFFF 		jmp	.L996
 6322      FF
 6323              	.L970:
 6324 2f4d 4889C3   		movq	%rax, %rbx
 6325 2f50 4889D5   		movq	%rdx, %rbp
 6326 2f53 E9B1FEFF 		jmp	.L899
 6326      FF
 6327              	.L964:
 6328 2f58 488D7C24 		leaq	32(%rsp), %rdi
 6328      20
 6329 2f5d 4889C3   		movq	%rax, %rbx
 6330 2f60 4889D5   		movq	%rdx, %rbp
 6331 2f63 E8000000 		call	_ZN8UnitTest12_GLOBAL__N_127DeferredTestReporterFixtureD2Ev
 6331      00
 6332 2f68 4889DF   		movq	%rbx, %rdi
 6333 2f6b 4889EA   		movq	%rbp, %rdx
 6334 2f6e BB010000 		movl	$1, %ebx
 6334      00
 6335 2f73 E9C7FDFF 		jmp	.L902
 6335      FF
 6336              	.L1006:
 6337 2f78 E8000000 		call	__stack_chk_fail
 6337      00
 6338              	.L969:
 6339 2f7d 4889C3   		movq	%rax, %rbx
 6340 2f80 4889D5   		movq	%rdx, %rbp
 6341 2f83 E99DFEFF 		jmp	.L901
 6341      FF
 6342              		.cfi_endproc
 6343              	.LFE1448:
 6344              		.section	.gcc_except_table
 6345              		.align 4
 6346              	.LLSDA1448:
 6347 03b8 FF       		.byte	0xff
 6348 03b9 03       		.byte	0x3
 6349 03ba 6D       		.uleb128 .LLSDATT1448-.LLSDATTD1448
 6350              	.LLSDATTD1448:
 6351 03bb 01       		.byte	0x1
 6352 03bc 55       		.uleb128 .LLSDACSE1448-.LLSDACSB1448
 6353              	.LLSDACSB1448:
 6354 03bd 64       		.uleb128 .LEHB136-.LFB1448
 6355 03be 05       		.uleb128 .LEHE136-.LEHB136
 6356 03bf AD0C     		.uleb128 .L969-.LFB1448
 6357 03c1 07       		.uleb128 0x7
 6358 03c2 7C       		.uleb128 .LEHB137-.LFB1448
 6359 03c3 05       		.uleb128 .LEHE137-.LEHB137
 6360 03c4 FD0B     		.uleb128 .L970-.LFB1448
 6361 03c6 07       		.uleb128 0x7
 6362 03c7 9401     		.uleb128 .LEHB138-.LFB1448
 6363 03c9 05       		.uleb128 .LEHE138-.LEHB138
 6364 03ca FF09     		.uleb128 .L971-.LFB1448
 6365 03cc 07       		.uleb128 0x7
 6366 03cd BF01     		.uleb128 .LEHB139-.LFB1448
 6367 03cf 05       		.uleb128 .LEHE139-.LEHB139
 6368 03d0 FB08     		.uleb128 .L972-.LFB1448
 6369 03d2 07       		.uleb128 0x7
 6370 03d3 D401     		.uleb128 .LEHB140-.LFB1448
 6371 03d5 05       		.uleb128 .LEHE140-.LEHB140
 6372 03d6 880C     		.uleb128 .L964-.LFB1448
 6373 03d8 07       		.uleb128 0x7
 6374 03d9 9304     		.uleb128 .LEHB141-.LFB1448
 6375 03db 05       		.uleb128 .LEHE141-.LEHB141
 6376 03dc E707     		.uleb128 .L963-.LFB1448
 6377 03de 05       		.uleb128 0x5
 6378 03df 9308     		.uleb128 .LEHB142-.LFB1448
 6379 03e1 05       		.uleb128 .LEHE142-.LEHB142
 6380 03e2 A40A     		.uleb128 .L966-.LFB1448
 6381 03e4 00       		.uleb128 0
 6382 03e5 B108     		.uleb128 .LEHB143-.LFB1448
 6383 03e7 33       		.uleb128 .LEHE143-.LEHB143
 6384 03e8 870A     		.uleb128 .L967-.LFB1448
 6385 03ea 00       		.uleb128 0
 6386 03eb EC08     		.uleb128 .LEHB144-.LFB1448
 6387 03ed 05       		.uleb128 .LEHE144-.LEHB144
 6388 03ee A40A     		.uleb128 .L966-.LFB1448
 6389 03f0 00       		.uleb128 0
 6390 03f1 9F0A     		.uleb128 .LEHB145-.LFB1448
 6391 03f3 05       		.uleb128 .LEHE145-.LEHB145
 6392 03f4 00       		.uleb128 0
 6393 03f5 00       		.uleb128 0
 6394 03f6 C30A     		.uleb128 .LEHB146-.LFB1448
 6395 03f8 1C       		.uleb128 .LEHE146-.LEHB146
 6396 03f9 C70B     		.uleb128 .L968-.LFB1448
 6397 03fb 00       		.uleb128 0
 6398 03fc DF0A     		.uleb128 .LEHB147-.LFB1448
 6399 03fe 05       		.uleb128 .LEHE147-.LEHB147
 6400 03ff 00       		.uleb128 0
 6401 0400 00       		.uleb128 0
 6402 0401 800B     		.uleb128 .LEHB148-.LFB1448
 6403 0403 42       		.uleb128 .LEHE148-.LEHB148
 6404 0404 F80B     		.uleb128 .L965-.LFB1448
 6405 0406 00       		.uleb128 0
 6406 0407 D20B     		.uleb128 .LEHB149-.LFB1448
 6407 0409 05       		.uleb128 .LEHE149-.LEHB149
 6408 040a 00       		.uleb128 0
 6409 040b 00       		.uleb128 0
 6410 040c D70B     		.uleb128 .LEHB150-.LFB1448
 6411 040e 1C       		.uleb128 .LEHE150-.LEHB150
 6412 040f C70B     		.uleb128 .L968-.LFB1448
 6413 0411 00       		.uleb128 0
 6414              	.LLSDACSE1448:
 6415 0412 03       		.byte	0x3
 6416 0413 00       		.byte	0
 6417 0414 02       		.byte	0x2
 6418 0415 7D       		.byte	0x7d
 6419 0416 01       		.byte	0x1
 6420 0417 7D       		.byte	0x7d
 6421 0418 00       		.byte	0
 6422 0419 7D       		.byte	0x7d
 6423 041a 0000     		.align 4
 6424 041c 00000000 		.long	0
 6425              	
 6426 0420 00000000 		.long	_ZTISt9exception
 6427 0424 00000000 		.long	_ZTIN8UnitTest15AssertExceptionE
 6428              	.LLSDATT1448:
 6429              		.text
 6431              		.section	.text.unlikely
 6432              	.LCOLDE59:
 6433              		.text
 6434              	.LHOTE59:
 6435              		.section	.rodata.str1.8
 6436 0241 00000000 		.align 8
 6436      000000
 6437              	.LC60:
 6438 0248 556E6861 		.string	"Unhandled exception in CHECK_EQUAL(testName.c_str(), result.testName)"
 6438      6E646C65 
 6438      64206578 
 6438      63657074 
 6438      696F6E20 
 6439 028e 0000     		.align 8
 6440              	.LC61:
 6441 0290 556E6861 		.string	"Unhandled exception in CHECK_EQUAL(testSuite.c_str(), result.suiteName)"
 6441      6E646C65 
 6441      64206578 
 6441      63657074 
 6441      696F6E20 
 6442              		.section	.text.unlikely
 6443              	.LCOLDB62:
 6444              		.text
 6445              	.LHOTB62:
 6446 2f88 0F1F8400 		.p2align 4,,15
 6446      00000000 
 6448              	_ZN8UnitTest11ExecuteTestINS_12_GLOBAL__N_172DeferredTestReporterFixtureReportTestStartCapturesTest
 6449              	.LFB1520:
 6450              		.cfi_startproc
 6451              		.cfi_personality 0x3,__gxx_personality_v0
 6452              		.cfi_lsda 0x3,.LLSDA1520
 6453 2f90 4154     		pushq	%r12
 6454              		.cfi_def_cfa_offset 16
 6455              		.cfi_offset 12, -16
 6456 2f92 55       		pushq	%rbp
 6457              		.cfi_def_cfa_offset 24
 6458              		.cfi_offset 6, -24
 6459 2f93 53       		pushq	%rbx
 6460              		.cfi_def_cfa_offset 32
 6461              		.cfi_offset 3, -32
 6462 2f94 4889F3   		movq	%rsi, %rbx
 6463 2f97 4881ECA0 		subq	$1696, %rsp
 6463      060000
 6464              		.cfi_def_cfa_offset 1728
 6465 2f9e 48893C24 		movq	%rdi, (%rsp)
 6466 2fa2 48897424 		movq	%rsi, 8(%rsp)
 6466      08
 6467 2fa7 64488B04 		movq	%fs:40, %rax
 6467      25280000 
 6467      00
 6468 2fb0 48898424 		movq	%rax, 1688(%rsp)
 6468      98060000 
 6469 2fb8 31C0     		xorl	%eax, %eax
 6470              	.LEHB151:
 6471 2fba E8000000 		call	_ZN8UnitTest11CurrentTest7DetailsEv
 6471      00
 6472              	.LEHE151:
 6473 2fbf 488DBC24 		leaq	560(%rsp), %rdi
 6473      30020000 
 6474 2fc7 488918   		movq	%rbx, (%rax)
 6475              	.LEHB152:
 6476 2fca E8000000 		call	_ZN8UnitTest16SignalTranslatorC1Ev
 6476      00
 6477              	.LEHE152:
 6478 2fcf 488B3D00 		movq	_ZN8UnitTest16SignalTranslator12s_jumpTargetE(%rip), %rdi
 6478      000000
 6479 2fd6 BE010000 		movl	$1, %esi
 6479      00
 6480 2fdb E8000000 		call	__sigsetjmp
 6480      00
 6481 2fe0 85C0     		testl	%eax, %eax
 6482 2fe2 0F85F800 		jne	.L1047
 6482      0000
 6483 2fe8 488B1C24 		movq	(%rsp), %rbx
 6484 2fec 488D7340 		leaq	64(%rbx), %rsi
 6485 2ff0 4889DF   		movq	%rbx, %rdi
 6486              	.LEHB153:
 6487 2ff3 E8000000 		call	_ZN8UnitTest20DeferredTestReporter15ReportTestStartERKNS_11TestDetailsE
 6487      00
 6488 2ff8 4889DF   		movq	%rbx, %rdi
 6489 2ffb E8000000 		call	_ZN8UnitTest20DeferredTestReporter10GetResultsEv
 6489      00
 6490              	.LEHE153:
 6491 3000 488B18   		movq	(%rax), %rbx
 6492 3003 488B4008 		movq	8(%rax), %rax
 6493 3007 48B9B76D 		movabsq	$7905747460161236407, %rcx
 6493      DBB66DDB 
 6493      B66D
 6494 3011 4829D8   		subq	%rbx, %rax
 6495 3014 48C1F803 		sarq	$3, %rax
 6496 3018 480FAFC1 		imulq	%rcx, %rax
 6497 301c 4885C0   		testq	%rax, %rax
 6498 301f 0F848201 		je	.L1048
 6498      0000
 6499              	.LEHB154:
 6500 3025 E8000000 		call	_ZN8UnitTest11CurrentTest7DetailsEv
 6500      00
 6501 302a 488B30   		movq	(%rax), %rsi
 6502 302d 488DBC24 		leaq	160(%rsp), %rdi
 6502      A0000000 
 6503 3035 BA390000 		movl	$57, %edx
 6503      00
 6504 303a E8000000 		call	_ZN8UnitTest11TestDetailsC1ERKS0_i
 6504      00
 6505 303f 488B0424 		movq	(%rsp), %rax
 6506 3043 488D6B08 		leaq	8(%rbx), %rbp
 6507 3047 488B4020 		movq	32(%rax), %rax
 6508 304b 48894424 		movq	%rax, 24(%rsp)
 6508      18
 6509 3050 E8000000 		call	_ZN8UnitTest11CurrentTest7ResultsEv
 6509      00
 6510 3055 488B38   		movq	(%rax), %rdi
 6511 3058 488D8C24 		leaq	160(%rsp), %rcx
 6511      A0000000 
 6512 3060 488D7424 		leaq	24(%rsp), %rsi
 6512      18
 6513 3065 4889EA   		movq	%rbp, %rdx
 6514 3068 E8000000 		call	_ZN8UnitTest10CheckEqualIPKcSsEEvRNS_11TestResultsERKT_RKT0_RKNS_11TestDetailsE
 6514      00
 6515              	.LEHE154:
 6516              	.L1017:
 6517              	.LEHB155:
 6518 306d E8000000 		call	_ZN8UnitTest11CurrentTest7DetailsEv
 6518      00
 6519 3072 488B30   		movq	(%rax), %rsi
 6520 3075 488D7C24 		leaq	96(%rsp), %rdi
 6520      60
 6521 307a BA3A0000 		movl	$58, %edx
 6521      00
 6522 307f E8000000 		call	_ZN8UnitTest11TestDetailsC1ERKS0_i
 6522      00
 6523 3084 488B0424 		movq	(%rsp), %rax
 6524 3088 488B4028 		movq	40(%rax), %rax
 6525 308c 48894424 		movq	%rax, 16(%rsp)
 6525      10
 6526 3091 E8000000 		call	_ZN8UnitTest11CurrentTest7ResultsEv
 6526      00
 6527 3096 488B38   		movq	(%rax), %rdi
 6528 3099 488D4C24 		leaq	96(%rsp), %rcx
 6528      60
 6529 309e 488D7424 		leaq	16(%rsp), %rsi
 6529      10
 6530 30a3 4889DA   		movq	%rbx, %rdx
 6531 30a6 E8000000 		call	_ZN8UnitTest10CheckEqualIPKcSsEEvRNS_11TestResultsERKT_RKT0_RKNS_11TestDetailsE
 6531      00
 6532              	.LEHE155:
 6533              	.L1013:
 6534 30ab 488DBC24 		leaq	560(%rsp), %rdi
 6534      30020000 
 6535              	.LEHB156:
 6536 30b3 E8000000 		call	_ZN8UnitTest16SignalTranslatorD1Ev
 6536      00
 6537              	.LEHE156:
 6538              	.L1009:
 6539 30b8 488B8424 		movq	1688(%rsp), %rax
 6539      98060000 
 6540 30c0 64483304 		xorq	%fs:40, %rax
 6540      25280000 
 6540      00
 6541 30c9 0F85E600 		jne	.L1049
 6541      0000
 6542 30cf 4881C4A0 		addq	$1696, %rsp
 6542      060000
 6543              		.cfi_remember_state
 6544              		.cfi_def_cfa_offset 32
 6545 30d6 5B       		popq	%rbx
 6546              		.cfi_def_cfa_offset 24
 6547 30d7 5D       		popq	%rbp
 6548              		.cfi_def_cfa_offset 16
 6549 30d8 415C     		popq	%r12
 6550              		.cfi_def_cfa_offset 8
 6551 30da C3       		ret
 6552 30db 0F1F4400 		.p2align 4,,10
 6552      00
 6553              		.p2align 3
 6554              	.L1047:
 6555              		.cfi_restore_state
 6556 30e0 BF080000 		movl	$8, %edi
 6556      00
 6557 30e5 E8000000 		call	__cxa_allocate_exception
 6557      00
 6558 30ea 31D2     		xorl	%edx, %edx
 6559 30ec 48C70000 		movq	$.LC23, (%rax)
 6559      000000
 6560 30f3 BE000000 		movl	$_ZTIPKc, %esi
 6560      00
 6561 30f8 4889C7   		movq	%rax, %rdi
 6562              	.LEHB157:
 6563 30fb E8000000 		call	__cxa_throw
 6563      00
 6564              	.LEHE157:
 6565              	.L1032:
 6566 3100 4889C3   		movq	%rax, %rbx
 6567 3103 4889D5   		movq	%rdx, %rbp
 6568              	.L1015:
 6569 3106 488DBC24 		leaq	560(%rsp), %rdi
 6569      30020000 
 6570 310e E8000000 		call	_ZN8UnitTest16SignalTranslatorD1Ev
 6570      00
 6571 3113 4889DF   		movq	%rbx, %rdi
 6572 3116 4889EA   		movq	%rbp, %rdx
 6573              	.L1020:
 6574 3119 4883FA01 		cmpq	$1, %rdx
 6575 311d 0F848D01 		je	.L1022
 6575      0000
 6576 3123 4883FA02 		cmpq	$2, %rdx
 6577 3127 0F855D01 		jne	.L1050
 6577      0000
 6578 312d E8000000 		call	__cxa_begin_catch
 6578      00
 6579 3132 488DBC24 		leaq	192(%rsp), %rdi
 6579      C0000000 
 6580 313a 4889C3   		movq	%rax, %rbx
 6581              	.LEHB158:
 6582 313d E8000000 		call	_ZN8UnitTest15MemoryOutStreamC1Ev
 6582      00
 6583              	.LEHE158:
 6584 3142 488B03   		movq	(%rbx), %rax
 6585 3145 4889DF   		movq	%rbx, %rdi
 6586 3148 FF5010   		call	*16(%rax)
 6587 314b 488DBC24 		leaq	192(%rsp), %rdi
 6587      C0000000 
 6588 3153 BE000000 		movl	$.LC34, %esi
 6588      00
 6589 3158 4889C3   		movq	%rax, %rbx
 6590              	.LEHB159:
 6591 315b E8000000 		call	_ZStlsISt11char_traitsIcEERSt13basic_ostreamIcT_ES5_PKc
 6591      00
 6592 3160 4889C7   		movq	%rax, %rdi
 6593 3163 4889DE   		movq	%rbx, %rsi
 6594 3166 E8000000 		call	_ZStlsISt11char_traitsIcEERSt13basic_ostreamIcT_ES5_PKc
 6594      00
 6595 316b 488DBC24 		leaq	192(%rsp), %rdi
 6595      C0000000 
 6596 3173 E8000000 		call	_ZNK8UnitTest15MemoryOutStream7GetTextEv
 6596      00
 6597 3178 4889C3   		movq	%rax, %rbx
 6598 317b E8000000 		call	_ZN8UnitTest11CurrentTest7ResultsEv
 6598      00
 6599 3180 488B7424 		movq	8(%rsp), %rsi
 6599      08
 6600 3185 488B38   		movq	(%rax), %rdi
 6601 3188 4889DA   		movq	%rbx, %rdx
 6602 318b E8000000 		call	_ZN8UnitTest11TestResults13OnTestFailureERKNS_11TestDetailsEPKc
 6602      00
 6603              	.LEHE159:
 6604 3190 488DBC24 		leaq	192(%rsp), %rdi
 6604      C0000000 
 6605              	.LEHB160:
 6606 3198 E8000000 		call	_ZN8UnitTest15MemoryOutStreamD1Ev
 6606      00
 6607              	.LEHE160:
 6608              	.L1044:
 6609 319d E8000000 		call	__cxa_end_catch
 6609      00
 6610 31a2 E911FFFF 		jmp	.L1009
 6610      FF
 6611              	.L1048:
 6612 31a7 31D2     		xorl	%edx, %edx
 6613 31a9 31F6     		xorl	%esi, %esi
 6614 31ab BF000000 		movl	$.LC25, %edi
 6614      00
 6615              	.LEHB161:
 6616 31b0 E8000000 		call	_ZSt24__throw_out_of_range_fmtPKcz
 6616      00
 6617              	.LEHE161:
 6618              	.L1049:
 6619 31b5 E8000000 		call	__stack_chk_fail
 6619      00
 6620              	.L1040:
 6621 31ba 4889C7   		movq	%rax, %rdi
 6622 31bd E8000000 		call	__cxa_begin_catch
 6622      00
 6623              	.LEHB162:
 6624 31c2 E8000000 		call	_ZN8UnitTest11CurrentTest7DetailsEv
 6624      00
 6625 31c7 488B30   		movq	(%rax), %rsi
 6626 31ca 488DBC24 		leaq	128(%rsp), %rdi
 6626      80000000 
 6627 31d2 BA390000 		movl	$57, %edx
 6627      00
 6628 31d7 E8000000 		call	_ZN8UnitTest11TestDetailsC1ERKS0_i
 6628      00
 6629 31dc E8000000 		call	_ZN8UnitTest11CurrentTest7ResultsEv
 6629      00
 6630 31e1 488B38   		movq	(%rax), %rdi
 6631 31e4 488DB424 		leaq	128(%rsp), %rsi
 6631      80000000 
 6632 31ec BA000000 		movl	$.LC60, %edx
 6632      00
 6633 31f1 E8000000 		call	_ZN8UnitTest11TestResults13OnTestFailureERKNS_11TestDetailsEPKc
 6633      00
 6634              	.LEHE162:
 6635              	.LEHB163:
 6636 31f6 E8000000 		call	__cxa_end_catch
 6636      00
 6637              	.LEHE163:
 6638 31fb E96DFEFF 		jmp	.L1017
 6638      FF
 6639              	.L1038:
 6640 3200 4889C7   		movq	%rax, %rdi
 6641 3203 E8000000 		call	__cxa_begin_catch
 6641      00
 6642              	.LEHB164:
 6643 3208 E8000000 		call	_ZN8UnitTest11CurrentTest7DetailsEv
 6643      00
 6644 320d 488B30   		movq	(%rax), %rsi
 6645 3210 488D7C24 		leaq	64(%rsp), %rdi
 6645      40
 6646 3215 BA3A0000 		movl	$58, %edx
 6646      00
 6647 321a E8000000 		call	_ZN8UnitTest11TestDetailsC1ERKS0_i
 6647      00
 6648 321f E8000000 		call	_ZN8UnitTest11CurrentTest7ResultsEv
 6648      00
 6649 3224 488B38   		movq	(%rax), %rdi
 6650 3227 488D7424 		leaq	64(%rsp), %rsi
 6650      40
 6651 322c BA000000 		movl	$.LC61, %edx
 6651      00
 6652 3231 E8000000 		call	_ZN8UnitTest11TestResults13OnTestFailureERKNS_11TestDetailsEPKc
 6652      00
 6653              	.LEHE164:
 6654              	.LEHB165:
 6655 3236 E8000000 		call	__cxa_end_catch
 6655      00
 6656              	.LEHE165:
 6657 323b E96BFEFF 		jmp	.L1013
 6657      FF
 6658              	.L1031:
 6659 3240 4889C7   		movq	%rax, %rdi
 6660 3243 E9D1FEFF 		jmp	.L1020
 6660      FF
 6661              	.L1039:
 6662 3248 4889C3   		movq	%rax, %rbx
 6663 324b 4889D5   		movq	%rdx, %rbp
 6664 324e E8000000 		call	__cxa_end_catch
 6664      00
 6665 3253 E9AEFEFF 		jmp	.L1015
 6665      FF
 6666              	.L1037:
 6667 3258 4889C3   		movq	%rax, %rbx
 6668 325b 4889D5   		movq	%rdx, %rbp
 6669 325e E8000000 		call	__cxa_end_catch
 6669      00
 6670 3263 E99EFEFF 		jmp	.L1015
 6670      FF
 6671              	.L1035:
 6672 3268 488DBC24 		leaq	192(%rsp), %rdi
 6672      C0000000 
 6673 3270 4889C3   		movq	%rax, %rbx
 6674 3273 E8000000 		call	_ZN8UnitTest15MemoryOutStreamD1Ev
 6674      00
 6675              	.L1026:
 6676 3278 E8000000 		call	__cxa_end_catch
 6676      00
 6677 327d 4889DF   		movq	%rbx, %rdi
 6678              	.LEHB166:
 6679 3280 E8000000 		call	_Unwind_Resume
 6679      00
 6680              	.LEHE166:
 6681              	.L1034:
 6682              	.L1045:
 6683 3285 4889C3   		movq	%rax, %rbx
 6684 3288 EBEE     		jmp	.L1026
 6685              	.L1050:
 6686 328a E8000000 		call	__cxa_begin_catch
 6686      00
 6687              	.LEHB167:
 6688 328f E8000000 		call	_ZN8UnitTest11CurrentTest7ResultsEv
 6688      00
 6689 3294 488B7424 		movq	8(%rsp), %rsi
 6689      08
 6690 3299 488B38   		movq	(%rax), %rdi
 6691 329c BA000000 		movl	$.LC35, %edx
 6691      00
 6692 32a1 E8000000 		call	_ZN8UnitTest11TestResults13OnTestFailureERKNS_11TestDetailsEPKc
 6692      00
 6693              	.LEHE167:
 6694              	.LEHB168:
 6695 32a6 E8000000 		call	__cxa_end_catch
 6695      00
 6696              	.LEHE168:
 6697 32ab E908FEFF 		jmp	.L1009
 6697      FF
 6698              	.L1022:
 6699 32b0 E8000000 		call	__cxa_begin_catch
 6699      00
 6700 32b5 4889C3   		movq	%rax, %rbx
 6701 32b8 488B00   		movq	(%rax), %rax
 6702 32bb 4889DF   		movq	%rbx, %rdi
 6703 32be FF5010   		call	*16(%rax)
 6704 32c1 4889DF   		movq	%rbx, %rdi
 6705 32c4 4889C5   		movq	%rax, %rbp
 6706              	.LEHB169:
 6707 32c7 E8000000 		call	_ZNK8UnitTest15AssertException10LineNumberEv
 6707      00
 6708 32cc 4889DF   		movq	%rbx, %rdi
 6709 32cf 4189C4   		movl	%eax, %r12d
 6710 32d2 E8000000 		call	_ZNK8UnitTest15AssertException8FilenameEv
 6710      00
 6711 32d7 4889C1   		movq	%rax, %rcx
 6712 32da 488B4424 		movq	8(%rsp), %rax
 6712      08
 6713 32df 488D7C24 		leaq	32(%rsp), %rdi
 6713      20
 6714 32e4 4589E0   		movl	%r12d, %r8d
 6715 32e7 488B7008 		movq	8(%rax), %rsi
 6716 32eb 488B10   		movq	(%rax), %rdx
 6717 32ee E8000000 		call	_ZN8UnitTest11TestDetailsC1EPKcS2_S2_i
 6717      00
 6718 32f3 E8000000 		call	_ZN8UnitTest11CurrentTest7ResultsEv
 6718      00
 6719 32f8 488B38   		movq	(%rax), %rdi
 6720 32fb 488D7424 		leaq	32(%rsp), %rsi
 6720      20
 6721 3300 4889EA   		movq	%rbp, %rdx
 6722 3303 E8000000 		call	_ZN8UnitTest11TestResults13OnTestFailureERKNS_11TestDetailsEPKc
 6722      00
 6723              	.LEHE169:
 6724 3308 E990FEFF 		jmp	.L1044
 6724      FF
 6725              	.L1036:
 6726 330d 4889C3   		movq	%rax, %rbx
 6727 3310 E8000000 		call	__cxa_end_catch
 6727      00
 6728 3315 4889DF   		movq	%rbx, %rdi
 6729              	.LEHB170:
 6730 3318 E8000000 		call	_Unwind_Resume
 6730      00
 6731              	.LEHE170:
 6732              	.L1033:
 6733 331d E963FFFF 		jmp	.L1045
 6733      FF
 6734              		.cfi_endproc
 6735              	.LFE1520:
 6736              		.section	.gcc_except_table
 6737              		.align 4
 6738              	.LLSDA1520:
 6739 0428 FF       		.byte	0xff
 6740 0429 03       		.byte	0x3
 6741 042a 8801     		.uleb128 .LLSDATT1520-.LLSDATTD1520
 6742              	.LLSDATTD1520:
 6743 042c 01       		.byte	0x1
 6744 042d 71       		.uleb128 .LLSDACSE1520-.LLSDACSB1520
 6745              	.LLSDACSB1520:
 6746 042e 2A       		.uleb128 .LEHB151-.LFB1520
 6747 042f 05       		.uleb128 .LEHE151-.LEHB151
 6748 0430 00       		.uleb128 0
 6749 0431 00       		.uleb128 0
 6750 0432 3A       		.uleb128 .LEHB152-.LFB1520
 6751 0433 05       		.uleb128 .LEHE152-.LEHB152
 6752 0434 B005     		.uleb128 .L1031-.LFB1520
 6753 0436 05       		.uleb128 0x5
 6754 0437 63       		.uleb128 .LEHB153-.LFB1520
 6755 0438 0D       		.uleb128 .LEHE153-.LEHB153
 6756 0439 F002     		.uleb128 .L1032-.LFB1520
 6757 043b 07       		.uleb128 0x7
 6758 043c 9501     		.uleb128 .LEHB154-.LFB1520
 6759 043e 48       		.uleb128 .LEHE154-.LEHB154
 6760 043f AA04     		.uleb128 .L1040-.LFB1520
 6761 0441 01       		.uleb128 0x1
 6762 0442 DD01     		.uleb128 .LEHB155-.LFB1520
 6763 0444 3E       		.uleb128 .LEHE155-.LEHB155
 6764 0445 F004     		.uleb128 .L1038-.LFB1520
 6765 0447 01       		.uleb128 0x1
 6766 0448 A302     		.uleb128 .LEHB156-.LFB1520
 6767 044a 05       		.uleb128 .LEHE156-.LEHB156
 6768 044b B005     		.uleb128 .L1031-.LFB1520
 6769 044d 05       		.uleb128 0x5
 6770 044e EB02     		.uleb128 .LEHB157-.LFB1520
 6771 0450 05       		.uleb128 .LEHE157-.LEHB157
 6772 0451 F002     		.uleb128 .L1032-.LFB1520
 6773 0453 07       		.uleb128 0x7
 6774 0454 AD03     		.uleb128 .LEHB158-.LFB1520
 6775 0456 05       		.uleb128 .LEHE158-.LEHB158
 6776 0457 F505     		.uleb128 .L1034-.LFB1520
 6777 0459 00       		.uleb128 0
 6778 045a CB03     		.uleb128 .LEHB159-.LFB1520
 6779 045c 35       		.uleb128 .LEHE159-.LEHB159
 6780 045d D805     		.uleb128 .L1035-.LFB1520
 6781 045f 00       		.uleb128 0
 6782 0460 8804     		.uleb128 .LEHB160-.LFB1520
 6783 0462 05       		.uleb128 .LEHE160-.LEHB160
 6784 0463 F505     		.uleb128 .L1034-.LFB1520
 6785 0465 00       		.uleb128 0
 6786 0466 A004     		.uleb128 .LEHB161-.LFB1520
 6787 0468 05       		.uleb128 .LEHE161-.LEHB161
 6788 0469 F002     		.uleb128 .L1032-.LFB1520
 6789 046b 07       		.uleb128 0x7
 6790 046c B204     		.uleb128 .LEHB162-.LFB1520
 6791 046e 34       		.uleb128 .LEHE162-.LEHB162
 6792 046f B805     		.uleb128 .L1039-.LFB1520
 6793 0471 07       		.uleb128 0x7
 6794 0472 E604     		.uleb128 .LEHB163-.LFB1520
 6795 0474 05       		.uleb128 .LEHE163-.LEHB163
 6796 0475 F002     		.uleb128 .L1032-.LFB1520
 6797 0477 07       		.uleb128 0x7
 6798 0478 F804     		.uleb128 .LEHB164-.LFB1520
 6799 047a 2E       		.uleb128 .LEHE164-.LEHB164
 6800 047b C805     		.uleb128 .L1037-.LFB1520
 6801 047d 07       		.uleb128 0x7
 6802 047e A605     		.uleb128 .LEHB165-.LFB1520
 6803 0480 05       		.uleb128 .LEHE165-.LEHB165
 6804 0481 F002     		.uleb128 .L1032-.LFB1520
 6805 0483 07       		.uleb128 0x7
 6806 0484 F005     		.uleb128 .LEHB166-.LFB1520
 6807 0486 05       		.uleb128 .LEHE166-.LEHB166
 6808 0487 00       		.uleb128 0
 6809 0488 00       		.uleb128 0
 6810 0489 FF05     		.uleb128 .LEHB167-.LFB1520
 6811 048b 17       		.uleb128 .LEHE167-.LEHB167
 6812 048c FD06     		.uleb128 .L1036-.LFB1520
 6813 048e 00       		.uleb128 0
 6814 048f 9606     		.uleb128 .LEHB168-.LFB1520
 6815 0491 05       		.uleb128 .LEHE168-.LEHB168
 6816 0492 00       		.uleb128 0
 6817 0493 00       		.uleb128 0
 6818 0494 B706     		.uleb128 .LEHB169-.LFB1520
 6819 0496 41       		.uleb128 .LEHE169-.LEHB169
 6820 0497 8D07     		.uleb128 .L1033-.LFB1520
 6821 0499 00       		.uleb128 0
 6822 049a 8807     		.uleb128 .LEHB170-.LFB1520
 6823 049c 05       		.uleb128 .LEHE170-.LEHB170
 6824 049d 00       		.uleb128 0
 6825 049e 00       		.uleb128 0
 6826              	.LLSDACSE1520:
 6827 049f 03       		.byte	0x3
 6828 04a0 00       		.byte	0
 6829 04a1 02       		.byte	0x2
 6830 04a2 7D       		.byte	0x7d
 6831 04a3 01       		.byte	0x1
 6832 04a4 7D       		.byte	0x7d
 6833 04a5 00       		.byte	0
 6834 04a6 7D       		.byte	0x7d
 6835 04a7 00       		.align 4
 6836 04a8 00000000 		.long	0
 6837              	
 6838 04ac 00000000 		.long	_ZTISt9exception
 6839 04b0 00000000 		.long	_ZTIN8UnitTest15AssertExceptionE
 6840              	.LLSDATT1520:
 6841              		.text
 6843              		.section	.text.unlikely
 6844              	.LCOLDE62:
 6845              		.text
 6846              	.LHOTE62:
 6847              		.section	.text.unlikely
 6848              		.align 2
 6849              	.LCOLDB63:
 6850              		.text
 6851              	.LHOTB63:
 6852              		.align 2
 6853 3322 0F1F4000 		.p2align 4,,15
 6853      662E0F1F 
 6853      84000000 
 6853      0000
 6855              	_ZNK8UnitTest12_GLOBAL__N_170TestDeferredTestReporterFixtureReportTestStartCapturesTestNameAndSuite
 6856              	.LFB1426:
 6857              		.cfi_startproc
 6858              		.cfi_personality 0x3,__gxx_personality_v0
 6859              		.cfi_lsda 0x3,.LLSDA1426
 6860 3330 4157     		pushq	%r15
 6861              		.cfi_def_cfa_offset 16
 6862              		.cfi_offset 15, -16
 6863 3332 4156     		pushq	%r14
 6864              		.cfi_def_cfa_offset 24
 6865              		.cfi_offset 14, -24
 6866 3334 BE000000 		movl	$.LC39, %esi
 6866      00
 6867 3339 4155     		pushq	%r13
 6868              		.cfi_def_cfa_offset 32
 6869              		.cfi_offset 13, -32
 6870 333b 4154     		pushq	%r12
 6871              		.cfi_def_cfa_offset 40
 6872              		.cfi_offset 12, -40
 6873 333d 4C8D6F08 		leaq	8(%rdi), %r13
 6874 3341 55       		pushq	%rbp
 6875              		.cfi_def_cfa_offset 48
 6876              		.cfi_offset 6, -48
 6877 3342 53       		pushq	%rbx
 6878              		.cfi_def_cfa_offset 56
 6879              		.cfi_offset 3, -56
 6880 3343 4881EC08 		subq	$520, %rsp
 6880      020000
 6881              		.cfi_def_cfa_offset 576
 6882 334a 488D4424 		leaq	32(%rsp), %rax
 6882      20
 6883 334f 48897C24 		movq	%rdi, 8(%rsp)
 6883      08
 6884 3354 48C74424 		movq	$0, 40(%rsp)
 6884      28000000 
 6884      00
 6885 335d 64488B14 		movq	%fs:40, %rdx
 6885      25280000 
 6885      00
 6886 3366 48899424 		movq	%rdx, 504(%rsp)
 6886      F8010000 
 6887 336e 31D2     		xorl	%edx, %edx
 6888 3370 488D7820 		leaq	32(%rax), %rdi
 6889 3374 488D5424 		leaq	31(%rsp), %rdx
 6889      1F
 6890 3379 48C74424 		movq	$0, 48(%rsp)
 6890      30000000 
 6890      00
 6891 3382 48C74424 		movq	$0, 56(%rsp)
 6891      38000000 
 6891      00
 6892 338b 48C74424 		movq	$_ZTVN8UnitTest12_GLOBAL__N_124MockDeferredTestReporterE+16, 32(%rsp)
 6892      20000000 
 6892      00
 6893              	.LEHB171:
 6894 3394 E8000000 		call	_ZNSsC1EPKcRKSaIcE
 6894      00
 6895              	.LEHE171:
 6896 3399 488D4424 		leaq	32(%rsp), %rax
 6896      20
 6897 339e 488D5424 		leaq	31(%rsp), %rdx
 6897      1F
 6898 33a3 BE000000 		movl	$.LC40, %esi
 6898      00
 6899 33a8 488D7828 		leaq	40(%rax), %rdi
 6900              	.LEHB172:
 6901 33ac E8000000 		call	_ZNSsC1EPKcRKSaIcE
 6901      00
 6902              	.LEHE172:
 6903 33b1 488D4424 		leaq	32(%rsp), %rax
 6903      20
 6904 33b6 488D5424 		leaq	31(%rsp), %rdx
 6904      1F
 6905 33bb BE000000 		movl	$.LC41, %esi
 6905      00
 6906 33c0 488D7830 		leaq	48(%rax), %rdi
 6907              	.LEHB173:
 6908 33c4 E8000000 		call	_ZNSsC1EPKcRKSaIcE
 6908      00
 6909              	.LEHE173:
 6910 33c9 488D4424 		leaq	32(%rsp), %rax
 6910      20
 6911 33ce 488B4C24 		movq	80(%rsp), %rcx
 6911      50
 6912 33d3 488B5424 		movq	72(%rsp), %rdx
 6912      48
 6913 33d8 488B7424 		movq	64(%rsp), %rsi
 6913      40
 6914 33dd 41B80C00 		movl	$12, %r8d
 6914      0000
 6915 33e3 C7442458 		movl	$12, 88(%rsp)
 6915      0C000000 
 6916 33eb 488D7840 		leaq	64(%rax), %rdi
 6917              	.LEHB174:
 6918 33ef E8000000 		call	_ZN8UnitTest11TestDetailsC1EPKcS2_S2_i
 6918      00
 6919              	.LEHE174:
 6920 33f4 488D7C24 		leaq	32(%rsp), %rdi
 6920      20
 6921 33f9 4C89EE   		movq	%r13, %rsi
 6922 33fc 4C89AC24 		movq	%r13, 128(%rsp)
 6922      80000000 
 6923              	.LEHB175:
 6924 3404 E887FBFF 		call	_ZN8UnitTest11ExecuteTestINS_12_GLOBAL__N_172DeferredTestReporterFixtureReportTestStartCaptur
 6924      FF
 6925              	.LEHE175:
 6926 3409 488B4424 		movq	80(%rsp), %rax
 6926      50
 6927 340e 488D78E8 		leaq	-24(%rax), %rdi
 6928 3412 4881FF00 		cmpq	$_ZNSs4_Rep20_S_empty_rep_storageE, %rdi
 6928      000000
 6929 3419 0F857402 		jne	.L1158
 6929      0000
 6930              	.L1062:
 6931 341f 488B4424 		movq	72(%rsp), %rax
 6931      48
 6932 3424 488D78E8 		leaq	-24(%rax), %rdi
 6933 3428 4881FF00 		cmpq	$_ZNSs4_Rep20_S_empty_rep_storageE, %rdi
 6933      000000
 6934 342f 0F858B02 		jne	.L1159
 6934      0000
 6935              	.L1067:
 6936 3435 488B4424 		movq	64(%rsp), %rax
 6936      40
 6937 343a 488D78E8 		leaq	-24(%rax), %rdi
 6938 343e 4881FF00 		cmpq	$_ZNSs4_Rep20_S_empty_rep_storageE, %rdi
 6938      000000
 6939 3445 0F851702 		jne	.L1160
 6939      0000
 6940              	.L1072:
 6941 344b 488B6C24 		movq	48(%rsp), %rbp
 6941      30
 6942 3450 4C8B7424 		movq	40(%rsp), %r14
 6942      28
 6943 3455 48C74424 		movq	$_ZTVN8UnitTest20DeferredTestReporterE+16, 32(%rsp)
 6943      20000000 
 6943      00
 6944 345e 4C39F5   		cmpq	%r14, %rbp
 6945 3461 0F84CA00 		je	.L1076
 6945      0000
 6946 3467 41BC0000 		movl	$_ZL28__gthrw___pthread_key_createPjPFvPvE, %r12d
 6946      0000
 6947 346d 0F1F00   		.p2align 4,,10
 6948              		.p2align 3
 6949              	.L1105:
 6950 3470 4D8B7E20 		movq	32(%r14), %r15
 6951 3474 498B5E18 		movq	24(%r14), %rbx
 6952 3478 4939DF   		cmpq	%rbx, %r15
 6953 347b 7457     		je	.L1077
 6954 347d 4D85E4   		testq	%r12, %r12
 6955 3480 7517     		jne	.L1141
 6956 3482 E9160100 		jmp	.L1083
 6956      00
 6957 3487 660F1F84 		.p2align 4,,10
 6957      00000000 
 6957      00
 6958              		.p2align 3
 6959              	.L1086:
 6960 3490 4883C310 		addq	$16, %rbx
 6961 3494 4939DF   		cmpq	%rbx, %r15
 6962 3497 7437     		je	.L1084
 6963              	.L1141:
 6964 3499 488B4308 		movq	8(%rbx), %rax
 6965 349d 488D78E8 		leaq	-24(%rax), %rdi
 6966 34a1 4881FF00 		cmpq	$_ZNSs4_Rep20_S_empty_rep_storageE, %rdi
 6966      000000
 6967 34a8 74E6     		je	.L1086
 6968 34aa B9FFFFFF 		movl	$-1, %ecx
 6968      FF
 6969 34af F00FC148 		lock xaddl	%ecx, -8(%rax)
 6969      F8
 6970 34b4 85C9     		testl	%ecx, %ecx
 6971 34b6 7FD8     		jg	.L1086
 6972 34b8 488D7424 		leaq	31(%rsp), %rsi
 6972      1F
 6973 34bd 4883C310 		addq	$16, %rbx
 6974 34c1 E8000000 		call	_ZNSs4_Rep10_M_destroyERKSaIcE
 6974      00
 6975 34c6 4939DF   		cmpq	%rbx, %r15
 6976 34c9 75CE     		jne	.L1141
 6977 34cb 0F1F4400 		.p2align 4,,10
 6977      00
 6978              		.p2align 3
 6979              	.L1084:
 6980 34d0 4D8B7E18 		movq	24(%r14), %r15
 6981              	.L1077:
 6982 34d4 4D85FF   		testq	%r15, %r15
 6983 34d7 7408     		je	.L1089
 6984 34d9 4C89FF   		movq	%r15, %rdi
 6985 34dc E8000000 		call	_ZdlPv
 6985      00
 6986              	.L1089:
 6987 34e1 498B4610 		movq	16(%r14), %rax
 6988 34e5 488D78E8 		leaq	-24(%rax), %rdi
 6989 34e9 4881FF00 		cmpq	$_ZNSs4_Rep20_S_empty_rep_storageE, %rdi
 6989      000000
 6990 34f0 0F851A01 		jne	.L1161
 6990      0000
 6991              	.L1091:
 6992 34f6 498B4608 		movq	8(%r14), %rax
 6993 34fa 488D78E8 		leaq	-24(%rax), %rdi
 6994 34fe 4881FF00 		cmpq	$_ZNSs4_Rep20_S_empty_rep_storageE, %rdi
 6994      000000
 6995 3505 0F85D500 		jne	.L1162
 6995      0000
 6996              	.L1096:
 6997 350b 498B06   		movq	(%r14), %rax
 6998 350e 488D78E8 		leaq	-24(%rax), %rdi
 6999 3512 4881FF00 		cmpq	$_ZNSs4_Rep20_S_empty_rep_storageE, %rdi
 6999      000000
 7000 3519 0F859100 		jne	.L1163
 7000      0000
 7001              	.L1101:
 7002 351f 4983C638 		addq	$56, %r14
 7003 3523 4C39F5   		cmpq	%r14, %rbp
 7004 3526 0F8544FF 		jne	.L1105
 7004      FFFF
 7005 352c 488B6C24 		movq	40(%rsp), %rbp
 7005      28
 7006              	.L1076:
 7007 3531 4885ED   		testq	%rbp, %rbp
 7008 3534 7408     		je	.L1106
 7009 3536 4889EF   		movq	%rbp, %rdi
 7010 3539 E8000000 		call	_ZdlPv
 7010      00
 7011              	.L1106:
 7012 353e 488D7C24 		leaq	32(%rsp), %rdi
 7012      20
 7013              	.LEHB176:
 7014 3543 E8000000 		call	_ZN8UnitTest12TestReporterD2Ev
 7014      00
 7015              	.LEHE176:
 7016              	.L1051:
 7017 3548 488B8424 		movq	504(%rsp), %rax
 7017      F8010000 
 7018 3550 64483304 		xorq	%fs:40, %rax
 7018      25280000 
 7018      00
 7019 3559 0F85F903 		jne	.L1164
 7019      0000
 7020 355f 4881C408 		addq	$520, %rsp
 7020      020000
 7021              		.cfi_remember_state
 7022              		.cfi_def_cfa_offset 56
 7023 3566 5B       		popq	%rbx
 7024              		.cfi_def_cfa_offset 48
 7025 3567 5D       		popq	%rbp
 7026              		.cfi_def_cfa_offset 40
 7027 3568 415C     		popq	%r12
 7028              		.cfi_def_cfa_offset 32
 7029 356a 415D     		popq	%r13
 7030              		.cfi_def_cfa_offset 24
 7031 356c 415E     		popq	%r14
 7032              		.cfi_def_cfa_offset 16
 7033 356e 415F     		popq	%r15
 7034              		.cfi_def_cfa_offset 8
 7035 3570 C3       		ret
 7036              		.p2align 4,,10
 7037 3571 0F1F8000 		.p2align 3
 7037      000000
 7038              	.L1165:
 7039              		.cfi_restore_state
 7040 3578 8B48F8   		movl	-8(%rax), %ecx
 7041 357b 8D71FF   		leal	-1(%rcx), %esi
 7042 357e 85C9     		testl	%ecx, %ecx
 7043 3580 8970F8   		movl	%esi, -8(%rax)
 7044 3583 7F0B     		jg	.L1081
 7045 3585 488D7424 		leaq	31(%rsp), %rsi
 7045      1F
 7046 358a E8000000 		call	_ZNSs4_Rep10_M_destroyERKSaIcE
 7046      00
 7047 358f 90       		.p2align 4,,10
 7048              		.p2align 3
 7049              	.L1081:
 7050 3590 4883C310 		addq	$16, %rbx
 7051 3594 4939DF   		cmpq	%rbx, %r15
 7052 3597 0F8433FF 		je	.L1084
 7052      FFFF
 7053              	.L1083:
 7054 359d 488B4308 		movq	8(%rbx), %rax
 7055 35a1 488D78E8 		leaq	-24(%rax), %rdi
 7056 35a5 4881FF00 		cmpq	$_ZNSs4_Rep20_S_empty_rep_storageE, %rdi
 7056      000000
 7057 35ac 74E2     		je	.L1081
 7058 35ae EBC8     		jmp	.L1165
 7059              		.p2align 4,,10
 7060              		.p2align 3
 7061              	.L1163:
 7062 35b0 4D85E4   		testq	%r12, %r12
 7063 35b3 0F847F00 		je	.L1102
 7063      0000
 7064 35b9 B9FFFFFF 		movl	$-1, %ecx
 7064      FF
 7065 35be F00FC148 		lock xaddl	%ecx, -8(%rax)
 7065      F8
 7066 35c3 89C8     		movl	%ecx, %eax
 7067              	.L1103:
 7068 35c5 85C0     		testl	%eax, %eax
 7069 35c7 0F8F52FF 		jg	.L1101
 7069      FFFF
 7070 35cd 488D7424 		leaq	31(%rsp), %rsi
 7070      1F
 7071 35d2 E8000000 		call	_ZNSs4_Rep10_M_destroyERKSaIcE
 7071      00
 7072 35d7 E943FFFF 		jmp	.L1101
 7072      FF
 7073 35dc 0F1F4000 		.p2align 4,,10
 7074              		.p2align 3
 7075              	.L1162:
 7076 35e0 4D85E4   		testq	%r12, %r12
 7077 35e3 7470     		je	.L1097
 7078 35e5 B9FFFFFF 		movl	$-1, %ecx
 7078      FF
 7079 35ea F00FC148 		lock xaddl	%ecx, -8(%rax)
 7079      F8
 7080 35ef 89C8     		movl	%ecx, %eax
 7081              	.L1098:
 7082 35f1 85C0     		testl	%eax, %eax
 7083 35f3 0F8F12FF 		jg	.L1096
 7083      FFFF
 7084 35f9 488D7424 		leaq	31(%rsp), %rsi
 7084      1F
 7085 35fe E8000000 		call	_ZNSs4_Rep10_M_destroyERKSaIcE
 7085      00
 7086 3603 E903FFFF 		jmp	.L1096
 7086      FF
 7087 3608 0F1F8400 		.p2align 4,,10
 7087      00000000 
 7088              		.p2align 3
 7089              	.L1161:
 7090 3610 4D85E4   		testq	%r12, %r12
 7091 3613 7433     		je	.L1092
 7092 3615 B9FFFFFF 		movl	$-1, %ecx
 7092      FF
 7093 361a F00FC148 		lock xaddl	%ecx, -8(%rax)
 7093      F8
 7094 361f 89C8     		movl	%ecx, %eax
 7095              	.L1093:
 7096 3621 85C0     		testl	%eax, %eax
 7097 3623 0F8FCDFE 		jg	.L1091
 7097      FFFF
 7098 3629 488D7424 		leaq	31(%rsp), %rsi
 7098      1F
 7099 362e E8000000 		call	_ZNSs4_Rep10_M_destroyERKSaIcE
 7099      00
 7100 3633 E9BEFEFF 		jmp	.L1091
 7100      FF
 7101              	.L1102:
 7102 3638 8B48F8   		movl	-8(%rax), %ecx
 7103 363b 8D71FF   		leal	-1(%rcx), %esi
 7104 363e 8970F8   		movl	%esi, -8(%rax)
 7105 3641 89C8     		movl	%ecx, %eax
 7106 3643 E97DFFFF 		jmp	.L1103
 7106      FF
 7107              	.L1092:
 7108 3648 8B48F8   		movl	-8(%rax), %ecx
 7109 364b 8D71FF   		leal	-1(%rcx), %esi
 7110 364e 8970F8   		movl	%esi, -8(%rax)
 7111 3651 89C8     		movl	%ecx, %eax
 7112 3653 EBCC     		jmp	.L1093
 7113              	.L1097:
 7114 3655 8B48F8   		movl	-8(%rax), %ecx
 7115 3658 8D71FF   		leal	-1(%rcx), %esi
 7116 365b 8970F8   		movl	%esi, -8(%rax)
 7117 365e 89C8     		movl	%ecx, %eax
 7118 3660 EB8F     		jmp	.L1098
 7119              	.L1160:
 7120 3662 BA000000 		movl	$_ZL28__gthrw___pthread_key_createPjPFvPvE, %edx
 7120      00
 7121 3667 4885D2   		testq	%rdx, %rdx
 7122 366a 0F849700 		je	.L1073
 7122      0000
 7123 3670 BAFFFFFF 		movl	$-1, %edx
 7123      FF
 7124 3675 F00FC150 		lock xaddl	%edx, -8(%rax)
 7124      F8
 7125 367a 89D0     		movl	%edx, %eax
 7126              	.L1074:
 7127 367c 85C0     		testl	%eax, %eax
 7128 367e 0F8FC7FD 		jg	.L1072
 7128      FFFF
 7129 3684 488D7424 		leaq	31(%rsp), %rsi
 7129      1F
 7130 3689 E8000000 		call	_ZNSs4_Rep10_M_destroyERKSaIcE
 7130      00
 7131 368e E9B8FDFF 		jmp	.L1072
 7131      FF
 7132              	.L1158:
 7133 3693 BA000000 		movl	$_ZL28__gthrw___pthread_key_createPjPFvPvE, %edx
 7133      00
 7134 3698 4885D2   		testq	%rdx, %rdx
 7135 369b 745D     		je	.L1063
 7136 369d BAFFFFFF 		movl	$-1, %edx
 7136      FF
 7137 36a2 F00FC150 		lock xaddl	%edx, -8(%rax)
 7137      F8
 7138 36a7 89D0     		movl	%edx, %eax
 7139              	.L1064:
 7140 36a9 85C0     		testl	%eax, %eax
 7141 36ab 0F8F6EFD 		jg	.L1062
 7141      FFFF
 7142 36b1 488D7424 		leaq	31(%rsp), %rsi
 7142      1F
 7143 36b6 E8000000 		call	_ZNSs4_Rep10_M_destroyERKSaIcE
 7143      00
 7144 36bb E95FFDFF 		jmp	.L1062
 7144      FF
 7145              	.L1159:
 7146 36c0 BA000000 		movl	$_ZL28__gthrw___pthread_key_createPjPFvPvE, %edx
 7146      00
 7147 36c5 4885D2   		testq	%rdx, %rdx
 7148 36c8 7423     		je	.L1068
 7149 36ca BAFFFFFF 		movl	$-1, %edx
 7149      FF
 7150 36cf F00FC150 		lock xaddl	%edx, -8(%rax)
 7150      F8
 7151 36d4 89D0     		movl	%edx, %eax
 7152              	.L1069:
 7153 36d6 85C0     		testl	%eax, %eax
 7154 36d8 0F8F57FD 		jg	.L1067
 7154      FFFF
 7155 36de 488D7424 		leaq	31(%rsp), %rsi
 7155      1F
 7156 36e3 E8000000 		call	_ZNSs4_Rep10_M_destroyERKSaIcE
 7156      00
 7157 36e8 E948FDFF 		jmp	.L1067
 7157      FF
 7158              	.L1068:
 7159 36ed 8B50F8   		movl	-8(%rax), %edx
 7160 36f0 8D4AFF   		leal	-1(%rdx), %ecx
 7161 36f3 8948F8   		movl	%ecx, -8(%rax)
 7162 36f6 89D0     		movl	%edx, %eax
 7163 36f8 EBDC     		jmp	.L1069
 7164              	.L1063:
 7165 36fa 8B50F8   		movl	-8(%rax), %edx
 7166 36fd 8D4AFF   		leal	-1(%rdx), %ecx
 7167 3700 8948F8   		movl	%ecx, -8(%rax)
 7168 3703 89D0     		movl	%edx, %eax
 7169 3705 EBA2     		jmp	.L1064
 7170              	.L1073:
 7171 3707 8B50F8   		movl	-8(%rax), %edx
 7172 370a 8D4AFF   		leal	-1(%rdx), %ecx
 7173 370d 8948F8   		movl	%ecx, -8(%rax)
 7174 3710 89D0     		movl	%edx, %eax
 7175 3712 E965FFFF 		jmp	.L1074
 7175      FF
 7176              	.L1121:
 7177 3717 4889C7   		movq	%rax, %rdi
 7178 371a BB010000 		movl	$1, %ebx
 7178      00
 7179              	.L1060:
 7180 371f 4883FA01 		cmpq	$1, %rdx
 7181 3723 0F847001 		je	.L1111
 7181      0000
 7182 3729 4883FA02 		cmpq	$2, %rdx
 7183 372d 0F852601 		jne	.L1166
 7183      0000
 7184 3733 E8000000 		call	__cxa_begin_catch
 7184      00
 7185 3738 488DBC24 		leaq	144(%rsp), %rdi
 7185      90000000 
 7186 3740 4889C3   		movq	%rax, %rbx
 7187              	.LEHB177:
 7188 3743 E8000000 		call	_ZN8UnitTest15MemoryOutStreamC1Ev
 7188      00
 7189              	.LEHE177:
 7190 3748 488B03   		movq	(%rbx), %rax
 7191 374b 4889DF   		movq	%rbx, %rdi
 7192 374e FF5010   		call	*16(%rax)
 7193 3751 488DBC24 		leaq	144(%rsp), %rdi
 7193      90000000 
 7194 3759 BE000000 		movl	$.LC34, %esi
 7194      00
 7195 375e 4889C3   		movq	%rax, %rbx
 7196              	.LEHB178:
 7197 3761 E8000000 		call	_ZStlsISt11char_traitsIcEERSt13basic_ostreamIcT_ES5_PKc
 7197      00
 7198 3766 4889C7   		movq	%rax, %rdi
 7199 3769 4889DE   		movq	%rbx, %rsi
 7200 376c E8000000 		call	_ZStlsISt11char_traitsIcEERSt13basic_ostreamIcT_ES5_PKc
 7200      00
 7201 3771 488DBC24 		leaq	144(%rsp), %rdi
 7201      90000000 
 7202 3779 E8000000 		call	_ZNK8UnitTest15MemoryOutStream7GetTextEv
 7202      00
 7203 377e 4889C3   		movq	%rax, %rbx
 7204 3781 E8000000 		call	_ZN8UnitTest11CurrentTest7ResultsEv
 7204      00
 7205 3786 488B38   		movq	(%rax), %rdi
 7206 3789 4889DA   		movq	%rbx, %rdx
 7207 378c 4C89EE   		movq	%r13, %rsi
 7208 378f E8000000 		call	_ZN8UnitTest11TestResults13OnTestFailureERKNS_11TestDetailsEPKc
 7208      00
 7209              	.LEHE178:
 7210 3794 488DBC24 		leaq	144(%rsp), %rdi
 7210      90000000 
 7211              	.LEHB179:
 7212 379c E8000000 		call	_ZN8UnitTest15MemoryOutStreamD1Ev
 7212      00
 7213              	.LEHE179:
 7214              	.L1153:
 7215 37a1 E8000000 		call	__cxa_end_catch
 7215      00
 7216 37a6 E99DFDFF 		jmp	.L1051
 7216      FF
 7217              	.L1130:
 7218 37ab 4889C3   		movq	%rax, %rbx
 7219 37ae 488B4424 		movq	80(%rsp), %rax
 7219      50
 7220 37b3 4889D5   		movq	%rdx, %rbp
 7221 37b6 488D78E8 		leaq	-24(%rax), %rdi
 7222 37ba 4881FF00 		cmpq	$_ZNSs4_Rep20_S_empty_rep_storageE, %rdi
 7222      000000
 7223 37c1 740A     		je	.L1055
 7224 37c3 488D7424 		leaq	31(%rsp), %rsi
 7224      1F
 7225 37c8 E8000000 		call	_ZNSs4_Rep10_M_disposeERKSaIcE.part.1
 7225      00
 7226              	.L1055:
 7227 37cd 488B4424 		movq	72(%rsp), %rax
 7227      48
 7228 37d2 488D78E8 		leaq	-24(%rax), %rdi
 7229 37d6 4881FF00 		cmpq	$_ZNSs4_Rep20_S_empty_rep_storageE, %rdi
 7229      000000
 7230 37dd 740A     		je	.L1057
 7231 37df 488D7424 		leaq	31(%rsp), %rsi
 7231      1F
 7232 37e4 E8000000 		call	_ZNSs4_Rep10_M_disposeERKSaIcE.part.1
 7232      00
 7233              	.L1057:
 7234 37e9 488B4424 		movq	64(%rsp), %rax
 7234      40
 7235 37ee 488D78E8 		leaq	-24(%rax), %rdi
 7236 37f2 4881FF00 		cmpq	$_ZNSs4_Rep20_S_empty_rep_storageE, %rdi
 7236      000000
 7237 37f9 740A     		je	.L1059
 7238 37fb 488D7424 		leaq	31(%rsp), %rsi
 7238      1F
 7239 3800 E8000000 		call	_ZNSs4_Rep10_M_disposeERKSaIcE.part.1
 7239      00
 7240              	.L1059:
 7241 3805 488D7C24 		leaq	40(%rsp), %rdi
 7241      28
 7242 380a 48C74424 		movq	$_ZTVN8UnitTest20DeferredTestReporterE+16, 32(%rsp)
 7242      20000000 
 7242      00
 7243 3813 E8000000 		call	_ZNSt6vectorIN8UnitTest18DeferredTestResultESaIS1_EED1Ev
 7243      00
 7244 3818 488D7C24 		leaq	32(%rsp), %rdi
 7244      20
 7245 381d E8000000 		call	_ZN8UnitTest12TestReporterD2Ev
 7245      00
 7246 3822 4889DF   		movq	%rbx, %rdi
 7247 3825 4889EA   		movq	%rbp, %rdx
 7248 3828 31DB     		xorl	%ebx, %ebx
 7249 382a E9F0FEFF 		jmp	.L1060
 7249      FF
 7250              	.L1129:
 7251 382f 4889C3   		movq	%rax, %rbx
 7252 3832 4889D5   		movq	%rdx, %rbp
 7253 3835 EB96     		jmp	.L1055
 7254              	.L1125:
 7255 3837 488DBC24 		leaq	144(%rsp), %rdi
 7255      90000000 
 7256 383f 4889C3   		movq	%rax, %rbx
 7257 3842 E8000000 		call	_ZN8UnitTest15MemoryOutStreamD1Ev
 7257      00
 7258              	.L1115:
 7259 3847 E8000000 		call	__cxa_end_catch
 7259      00
 7260 384c 4889DF   		movq	%rbx, %rdi
 7261              	.LEHB180:
 7262 384f E8000000 		call	_Unwind_Resume
 7262      00
 7263              	.LEHE180:
 7264              	.L1124:
 7265              	.L1154:
 7266 3854 4889C3   		movq	%rax, %rbx
 7267 3857 EBEE     		jmp	.L1115
 7268              	.L1166:
 7269 3859 E8000000 		call	__cxa_begin_catch
 7269      00
 7270 385e 84DB     		testb	%bl, %bl
 7271 3860 BA340000 		movl	$52, %edx
 7271      00
 7272 3865 4C89EE   		movq	%r13, %rsi
 7273 3868 488D7C24 		leaq	32(%rsp), %rdi
 7273      20
 7274 386d 0F849400 		je	.L1118
 7274      0000
 7275              	.LEHB181:
 7276 3873 E8000000 		call	_ZN8UnitTest11TestDetailsC1ERKS0_i
 7276      00
 7277 3878 E8000000 		call	_ZN8UnitTest11CurrentTest7ResultsEv
 7277      00
 7278 387d 488B38   		movq	(%rax), %rdi
 7279 3880 488D7424 		leaq	32(%rsp), %rsi
 7279      20
 7280 3885 BA000000 		movl	$.LC42, %edx
 7280      00
 7281 388a E8000000 		call	_ZN8UnitTest11TestResults13OnTestFailureERKNS_11TestDetailsEPKc
 7281      00
 7282              	.LEHE181:
 7283              	.L1119:
 7284              	.LEHB182:
 7285 388f E8000000 		call	__cxa_end_catch
 7285      00
 7286              	.LEHE182:
 7287 3894 E9AFFCFF 		jmp	.L1051
 7287      FF
 7288              	.L1111:
 7289 3899 E8000000 		call	__cxa_begin_catch
 7289      00
 7290 389e 4889C3   		movq	%rax, %rbx
 7291 38a1 488B00   		movq	(%rax), %rax
 7292 38a4 4889DF   		movq	%rbx, %rdi
 7293 38a7 FF5010   		call	*16(%rax)
 7294 38aa 4889DF   		movq	%rbx, %rdi
 7295 38ad 4889C5   		movq	%rax, %rbp
 7296              	.LEHB183:
 7297 38b0 E8000000 		call	_ZNK8UnitTest15AssertException10LineNumberEv
 7297      00
 7298 38b5 4889DF   		movq	%rbx, %rdi
 7299 38b8 4189C4   		movl	%eax, %r12d
 7300 38bb E8000000 		call	_ZNK8UnitTest15AssertException8FilenameEv
 7300      00
 7301 38c0 488B7424 		movq	8(%rsp), %rsi
 7301      08
 7302 38c5 488D7C24 		leaq	32(%rsp), %rdi
 7302      20
 7303 38ca 4589E0   		movl	%r12d, %r8d
 7304 38cd 4889C1   		movq	%rax, %rcx
 7305 38d0 488B5608 		movq	8(%rsi), %rdx
 7306 38d4 488B7610 		movq	16(%rsi), %rsi
 7307 38d8 E8000000 		call	_ZN8UnitTest11TestDetailsC1EPKcS2_S2_i
 7307      00
 7308 38dd E8000000 		call	_ZN8UnitTest11CurrentTest7ResultsEv
 7308      00
 7309 38e2 488B38   		movq	(%rax), %rdi
 7310 38e5 488D7424 		leaq	32(%rsp), %rsi
 7310      20
 7311 38ea 4889EA   		movq	%rbp, %rdx
 7312 38ed E8000000 		call	_ZN8UnitTest11TestResults13OnTestFailureERKNS_11TestDetailsEPKc
 7312      00
 7313              	.LEHE183:
 7314 38f2 E9AAFEFF 		jmp	.L1153
 7314      FF
 7315              	.L1126:
 7316 38f7 4889C3   		movq	%rax, %rbx
 7317 38fa E8000000 		call	__cxa_end_catch
 7317      00
 7318 38ff 4889DF   		movq	%rbx, %rdi
 7319              	.LEHB184:
 7320 3902 E8000000 		call	_Unwind_Resume
 7320      00
 7321              	.LEHE184:
 7322              	.L1118:
 7323              	.LEHB185:
 7324 3907 E8000000 		call	_ZN8UnitTest11TestDetailsC1ERKS0_i
 7324      00
 7325 390c E8000000 		call	_ZN8UnitTest11CurrentTest7ResultsEv
 7325      00
 7326 3911 488B38   		movq	(%rax), %rdi
 7327 3914 488D7424 		leaq	32(%rsp), %rsi
 7327      20
 7328 3919 BA000000 		movl	$.LC43, %edx
 7328      00
 7329 391e E8000000 		call	_ZN8UnitTest11TestResults13OnTestFailureERKNS_11TestDetailsEPKc
 7329      00
 7330              	.LEHE185:
 7331 3923 E967FFFF 		jmp	.L1119
 7331      FF
 7332              	.L1123:
 7333 3928 E927FFFF 		jmp	.L1154
 7333      FF
 7334              	.L1128:
 7335 392d 4889C3   		movq	%rax, %rbx
 7336 3930 4889D5   		movq	%rdx, %rbp
 7337 3933 E9B1FEFF 		jmp	.L1057
 7337      FF
 7338              	.L1122:
 7339 3938 488D7C24 		leaq	32(%rsp), %rdi
 7339      20
 7340 393d 4889C3   		movq	%rax, %rbx
 7341 3940 4889D5   		movq	%rdx, %rbp
 7342 3943 E8000000 		call	_ZN8UnitTest12_GLOBAL__N_127DeferredTestReporterFixtureD2Ev
 7342      00
 7343 3948 4889DF   		movq	%rbx, %rdi
 7344 394b 4889EA   		movq	%rbp, %rdx
 7345 394e BB010000 		movl	$1, %ebx
 7345      00
 7346 3953 E9C7FDFF 		jmp	.L1060
 7346      FF
 7347              	.L1164:
 7348 3958 E8000000 		call	__stack_chk_fail
 7348      00
 7349              	.L1127:
 7350 395d 4889C3   		movq	%rax, %rbx
 7351 3960 4889D5   		movq	%rdx, %rbp
 7352 3963 E99DFEFF 		jmp	.L1059
 7352      FF
 7353              		.cfi_endproc
 7354              	.LFE1426:
 7355              		.section	.gcc_except_table
 7356              		.align 4
 7357              	.LLSDA1426:
 7358 04b4 FF       		.byte	0xff
 7359 04b5 03       		.byte	0x3
 7360 04b6 6D       		.uleb128 .LLSDATT1426-.LLSDATTD1426
 7361              	.LLSDATTD1426:
 7362 04b7 01       		.byte	0x1
 7363 04b8 55       		.uleb128 .LLSDACSE1426-.LLSDACSB1426
 7364              	.LLSDACSB1426:
 7365 04b9 64       		.uleb128 .LEHB171-.LFB1426
 7366 04ba 05       		.uleb128 .LEHE171-.LEHB171
 7367 04bb AD0C     		.uleb128 .L1127-.LFB1426
 7368 04bd 07       		.uleb128 0x7
 7369 04be 7C       		.uleb128 .LEHB172-.LFB1426
 7370 04bf 05       		.uleb128 .LEHE172-.LEHB172
 7371 04c0 FD0B     		.uleb128 .L1128-.LFB1426
 7372 04c2 07       		.uleb128 0x7
 7373 04c3 9401     		.uleb128 .LEHB173-.LFB1426
 7374 04c5 05       		.uleb128 .LEHE173-.LEHB173
 7375 04c6 FF09     		.uleb128 .L1129-.LFB1426
 7376 04c8 07       		.uleb128 0x7
 7377 04c9 BF01     		.uleb128 .LEHB174-.LFB1426
 7378 04cb 05       		.uleb128 .LEHE174-.LEHB174
 7379 04cc FB08     		.uleb128 .L1130-.LFB1426
 7380 04ce 07       		.uleb128 0x7
 7381 04cf D401     		.uleb128 .LEHB175-.LFB1426
 7382 04d1 05       		.uleb128 .LEHE175-.LEHB175
 7383 04d2 880C     		.uleb128 .L1122-.LFB1426
 7384 04d4 07       		.uleb128 0x7
 7385 04d5 9304     		.uleb128 .LEHB176-.LFB1426
 7386 04d7 05       		.uleb128 .LEHE176-.LEHB176
 7387 04d8 E707     		.uleb128 .L1121-.LFB1426
 7388 04da 05       		.uleb128 0x5
 7389 04db 9308     		.uleb128 .LEHB177-.LFB1426
 7390 04dd 05       		.uleb128 .LEHE177-.LEHB177
 7391 04de A40A     		.uleb128 .L1124-.LFB1426
 7392 04e0 00       		.uleb128 0
 7393 04e1 B108     		.uleb128 .LEHB178-.LFB1426
 7394 04e3 33       		.uleb128 .LEHE178-.LEHB178
 7395 04e4 870A     		.uleb128 .L1125-.LFB1426
 7396 04e6 00       		.uleb128 0
 7397 04e7 EC08     		.uleb128 .LEHB179-.LFB1426
 7398 04e9 05       		.uleb128 .LEHE179-.LEHB179
 7399 04ea A40A     		.uleb128 .L1124-.LFB1426
 7400 04ec 00       		.uleb128 0
 7401 04ed 9F0A     		.uleb128 .LEHB180-.LFB1426
 7402 04ef 05       		.uleb128 .LEHE180-.LEHB180
 7403 04f0 00       		.uleb128 0
 7404 04f1 00       		.uleb128 0
 7405 04f2 C30A     		.uleb128 .LEHB181-.LFB1426
 7406 04f4 1C       		.uleb128 .LEHE181-.LEHB181
 7407 04f5 C70B     		.uleb128 .L1126-.LFB1426
 7408 04f7 00       		.uleb128 0
 7409 04f8 DF0A     		.uleb128 .LEHB182-.LFB1426
 7410 04fa 05       		.uleb128 .LEHE182-.LEHB182
 7411 04fb 00       		.uleb128 0
 7412 04fc 00       		.uleb128 0
 7413 04fd 800B     		.uleb128 .LEHB183-.LFB1426
 7414 04ff 42       		.uleb128 .LEHE183-.LEHB183
 7415 0500 F80B     		.uleb128 .L1123-.LFB1426
 7416 0502 00       		.uleb128 0
 7417 0503 D20B     		.uleb128 .LEHB184-.LFB1426
 7418 0505 05       		.uleb128 .LEHE184-.LEHB184
 7419 0506 00       		.uleb128 0
 7420 0507 00       		.uleb128 0
 7421 0508 D70B     		.uleb128 .LEHB185-.LFB1426
 7422 050a 1C       		.uleb128 .LEHE185-.LEHB185
 7423 050b C70B     		.uleb128 .L1126-.LFB1426
 7424 050d 00       		.uleb128 0
 7425              	.LLSDACSE1426:
 7426 050e 03       		.byte	0x3
 7427 050f 00       		.byte	0
 7428 0510 02       		.byte	0x2
 7429 0511 7D       		.byte	0x7d
 7430 0512 01       		.byte	0x1
 7431 0513 7D       		.byte	0x7d
 7432 0514 00       		.byte	0
 7433 0515 7D       		.byte	0x7d
 7434 0516 0000     		.align 4
 7435 0518 00000000 		.long	0
 7436              	
 7437 051c 00000000 		.long	_ZTISt9exception
 7438 0520 00000000 		.long	_ZTIN8UnitTest15AssertExceptionE
 7439              	.LLSDATT1426:
 7440              		.text
 7442              		.section	.text.unlikely
 7443              	.LCOLDE63:
 7444              		.text
 7445              	.LHOTE63:
 7446              		.section	.rodata.str1.1
 7447              	.LC64:
 7448 00c4 6661696C 		.string	"failure 1"
 7448      75726520 
 7448      3100
 7449              	.LC65:
 7450 00ce 6661696C 		.string	"failure 2"
 7450      75726520 
 7450      3200
 7451              		.section	.rodata.str1.8
 7452              		.align 8
 7453              	.LC66:
 7454 02d8 556E6861 		.string	"Unhandled exception in CHECK_EQUAL(2, (int)result.failures.size())"
 7454      6E646C65 
 7454      64206578 
 7454      63657074 
 7454      696F6E20 
 7455 031b 00000000 		.align 8
 7455      00
 7456              	.LC67:
 7457 0320 556E6861 		.string	"Unhandled exception in CHECK_EQUAL(failure1, result.failures[0].second)"
 7457      6E646C65 
 7457      64206578 
 7457      63657074 
 7457      696F6E20 
 7458              		.align 8
 7459              	.LC68:
 7460 0368 556E6861 		.string	"Unhandled exception in CHECK_EQUAL(failure2, result.failures[1].second)"
 7460      6E646C65 
 7460      64206578 
 7460      63657074 
 7460      696F6E20 
 7461              		.section	.text.unlikely
 7462              	.LCOLDB69:
 7463              		.text
 7464              	.LHOTB69:
 7465 3968 0F1F8400 		.p2align 4,,15
 7465      00000000 
 7467              	_ZN8UnitTest11ExecuteTestINS_12_GLOBAL__N_184DeferredTestReporterFixtureReportFailureSavesFailureDe
 7468              	.LFB1527:
 7469              		.cfi_startproc
 7470              		.cfi_personality 0x3,__gxx_personality_v0
 7471              		.cfi_lsda 0x3,.LLSDA1527
 7472 3970 4154     		pushq	%r12
 7473              		.cfi_def_cfa_offset 16
 7474              		.cfi_offset 12, -16
 7475 3972 55       		pushq	%rbp
 7476              		.cfi_def_cfa_offset 24
 7477              		.cfi_offset 6, -24
 7478 3973 53       		pushq	%rbx
 7479              		.cfi_def_cfa_offset 32
 7480              		.cfi_offset 3, -32
 7481 3974 4889F3   		movq	%rsi, %rbx
 7482 3977 4881ECF0 		subq	$1776, %rsp
 7482      060000
 7483              		.cfi_def_cfa_offset 1808
 7484 397e 48893C24 		movq	%rdi, (%rsp)
 7485 3982 48897424 		movq	%rsi, 8(%rsp)
 7485      08
 7486 3987 64488B04 		movq	%fs:40, %rax
 7486      25280000 
 7486      00
 7487 3990 48898424 		movq	%rax, 1768(%rsp)
 7487      E8060000 
 7488 3998 31C0     		xorl	%eax, %eax
 7489              	.LEHB186:
 7490 399a E8000000 		call	_ZN8UnitTest11CurrentTest7DetailsEv
 7490      00
 7491              	.LEHE186:
 7492 399f 488DBC24 		leaq	640(%rsp), %rdi
 7492      80020000 
 7493 39a7 488918   		movq	%rbx, (%rax)
 7494              	.LEHB187:
 7495 39aa E8000000 		call	_ZN8UnitTest16SignalTranslatorC1Ev
 7495      00
 7496              	.LEHE187:
 7497 39af 488B3D00 		movq	_ZN8UnitTest16SignalTranslator12s_jumpTargetE(%rip), %rdi
 7497      000000
 7498 39b6 BE010000 		movl	$1, %esi
 7498      00
 7499 39bb E8000000 		call	__sigsetjmp
 7499      00
 7500 39c0 85C0     		testl	%eax, %eax
 7501 39c2 0F857001 		jne	.L1211
 7501      0000
 7502 39c8 488B2C24 		movq	(%rsp), %rbp
 7503 39cc 48C74424 		movq	$.LC64, 32(%rsp)
 7503      20000000 
 7503      00
 7504 39d5 48C74424 		movq	$.LC65, 40(%rsp)
 7504      28000000 
 7504      00
 7505 39de 488D5D40 		leaq	64(%rbp), %rbx
 7506 39e2 4889EF   		movq	%rbp, %rdi
 7507 39e5 4889DE   		movq	%rbx, %rsi
 7508              	.LEHB188:
 7509 39e8 E8000000 		call	_ZN8UnitTest20DeferredTestReporter15ReportTestStartERKNS_11TestDetailsE
 7509      00
 7510 39ed 488B5424 		movq	32(%rsp), %rdx
 7510      20
 7511 39f2 4889DE   		movq	%rbx, %rsi
 7512 39f5 4889EF   		movq	%rbp, %rdi
 7513 39f8 E8000000 		call	_ZN8UnitTest20DeferredTestReporter13ReportFailureERKNS_11TestDetailsEPKc
 7513      00
 7514 39fd 488B5424 		movq	40(%rsp), %rdx
 7514      28
 7515 3a02 4889DE   		movq	%rbx, %rsi
 7516 3a05 4889EF   		movq	%rbp, %rdi
 7517 3a08 E8000000 		call	_ZN8UnitTest20DeferredTestReporter13ReportFailureERKNS_11TestDetailsEPKc
 7517      00
 7518 3a0d 4889EF   		movq	%rbp, %rdi
 7519 3a10 E8000000 		call	_ZN8UnitTest20DeferredTestReporter10GetResultsEv
 7519      00
 7520              	.LEHE188:
 7521 3a15 488B18   		movq	(%rax), %rbx
 7522 3a18 488B4008 		movq	8(%rax), %rax
 7523 3a1c 48BAB76D 		movabsq	$7905747460161236407, %rdx
 7523      DBB66DDB 
 7523      B66D
 7524 3a26 4829D8   		subq	%rbx, %rax
 7525 3a29 48C1F803 		sarq	$3, %rax
 7526 3a2d 480FAFC2 		imulq	%rdx, %rax
 7527 3a31 4885C0   		testq	%rax, %rax
 7528 3a34 0F84C501 		je	.L1212
 7528      0000
 7529              	.LEHB189:
 7530 3a3a E8000000 		call	_ZN8UnitTest11CurrentTest7DetailsEv
 7530      00
 7531 3a3f 488B30   		movq	(%rax), %rsi
 7532 3a42 488DBC24 		leaq	240(%rsp), %rdi
 7532      F0000000 
 7533 3a4a BA5D0000 		movl	$93, %edx
 7533      00
 7534 3a4f E8000000 		call	_ZN8UnitTest11TestDetailsC1ERKS0_i
 7534      00
 7535 3a54 488B4320 		movq	32(%rbx), %rax
 7536 3a58 482B4318 		subq	24(%rbx), %rax
 7537 3a5c C7442418 		movl	$2, 24(%rsp)
 7537      02000000 
 7538 3a64 48C1F804 		sarq	$4, %rax
 7539 3a68 8944241C 		movl	%eax, 28(%rsp)
 7540 3a6c E8000000 		call	_ZN8UnitTest11CurrentTest7ResultsEv
 7540      00
 7541 3a71 488B38   		movq	(%rax), %rdi
 7542 3a74 488D8C24 		leaq	240(%rsp), %rcx
 7542      F0000000 
 7543 3a7c 488D5424 		leaq	28(%rsp), %rdx
 7543      1C
 7544 3a81 488D7424 		leaq	24(%rsp), %rsi
 7544      18
 7545 3a86 E8000000 		call	_ZN8UnitTest10CheckEqualIiiEEvRNS_11TestResultsERKT_RKT0_RKNS_11TestDetailsE
 7545      00
 7546              	.LEHE189:
 7547              	.L1175:
 7548              	.LEHB190:
 7549 3a8b E8000000 		call	_ZN8UnitTest11CurrentTest7DetailsEv
 7549      00
 7550 3a90 488B30   		movq	(%rax), %rsi
 7551 3a93 488DBC24 		leaq	176(%rsp), %rdi
 7551      B0000000 
 7552 3a9b BA5E0000 		movl	$94, %edx
 7552      00
 7553 3aa0 E8000000 		call	_ZN8UnitTest11TestDetailsC1ERKS0_i
 7553      00
 7554 3aa5 488B4318 		movq	24(%rbx), %rax
 7555 3aa9 488D6808 		leaq	8(%rax), %rbp
 7556 3aad E8000000 		call	_ZN8UnitTest11CurrentTest7ResultsEv
 7556      00
 7557 3ab2 488B38   		movq	(%rax), %rdi
 7558 3ab5 488D8C24 		leaq	176(%rsp), %rcx
 7558      B0000000 
 7559 3abd 488D7424 		leaq	32(%rsp), %rsi
 7559      20
 7560 3ac2 4889EA   		movq	%rbp, %rdx
 7561 3ac5 E8000000 		call	_ZN8UnitTest10CheckEqualIPKcSsEEvRNS_11TestResultsERKT_RKT0_RKNS_11TestDetailsE
 7561      00
 7562              	.LEHE190:
 7563              	.L1178:
 7564              	.LEHB191:
 7565 3aca E8000000 		call	_ZN8UnitTest11CurrentTest7DetailsEv
 7565      00
 7566 3acf 488B30   		movq	(%rax), %rsi
 7567 3ad2 488D7C24 		leaq	112(%rsp), %rdi
 7567      70
 7568 3ad7 BA5F0000 		movl	$95, %edx
 7568      00
 7569 3adc E8000000 		call	_ZN8UnitTest11TestDetailsC1ERKS0_i
 7569      00
 7570 3ae1 488B5B18 		movq	24(%rbx), %rbx
 7571 3ae5 4883C318 		addq	$24, %rbx
 7572 3ae9 E8000000 		call	_ZN8UnitTest11CurrentTest7ResultsEv
 7572      00
 7573 3aee 488B38   		movq	(%rax), %rdi
 7574 3af1 488D4C24 		leaq	112(%rsp), %rcx
 7574      70
 7575 3af6 488D7424 		leaq	40(%rsp), %rsi
 7575      28
 7576 3afb 4889DA   		movq	%rbx, %rdx
 7577 3afe E8000000 		call	_ZN8UnitTest10CheckEqualIPKcSsEEvRNS_11TestResultsERKT_RKT0_RKNS_11TestDetailsE
 7577      00
 7578              	.LEHE191:
 7579              	.L1181:
 7580 3b03 488DBC24 		leaq	640(%rsp), %rdi
 7580      80020000 
 7581              	.LEHB192:
 7582 3b0b E8000000 		call	_ZN8UnitTest16SignalTranslatorD1Ev
 7582      00
 7583              	.LEHE192:
 7584              	.L1167:
 7585 3b10 488B8424 		movq	1768(%rsp), %rax
 7585      E8060000 
 7586 3b18 64483304 		xorq	%fs:40, %rax
 7586      25280000 
 7586      00
 7587 3b21 0F85E600 		jne	.L1213
 7587      0000
 7588 3b27 4881C4F0 		addq	$1776, %rsp
 7588      060000
 7589              		.cfi_remember_state
 7590              		.cfi_def_cfa_offset 32
 7591 3b2e 5B       		popq	%rbx
 7592              		.cfi_def_cfa_offset 24
 7593 3b2f 5D       		popq	%rbp
 7594              		.cfi_def_cfa_offset 16
 7595 3b30 415C     		popq	%r12
 7596              		.cfi_def_cfa_offset 8
 7597 3b32 C3       		ret
 7598              		.p2align 4,,10
 7599 3b33 0F1F4400 		.p2align 3
 7599      00
 7600              	.L1211:
 7601              		.cfi_restore_state
 7602 3b38 BF080000 		movl	$8, %edi
 7602      00
 7603 3b3d E8000000 		call	__cxa_allocate_exception
 7603      00
 7604 3b42 31D2     		xorl	%edx, %edx
 7605 3b44 48C70000 		movq	$.LC23, (%rax)
 7605      000000
 7606 3b4b BE000000 		movl	$_ZTIPKc, %esi
 7606      00
 7607 3b50 4889C7   		movq	%rax, %rdi
 7608              	.LEHB193:
 7609 3b53 E8000000 		call	__cxa_throw
 7609      00
 7610              	.LEHE193:
 7611              	.L1194:
 7612 3b58 4889C3   		movq	%rax, %rbx
 7613 3b5b 4889D5   		movq	%rdx, %rbp
 7614              	.L1173:
 7615 3b5e 488DBC24 		leaq	640(%rsp), %rdi
 7615      80020000 
 7616 3b66 E8000000 		call	_ZN8UnitTest16SignalTranslatorD1Ev
 7616      00
 7617 3b6b 4889DF   		movq	%rbx, %rdi
 7618 3b6e 4889EA   		movq	%rbp, %rdx
 7619              	.L1182:
 7620 3b71 4883FA01 		cmpq	$1, %rdx
 7621 3b75 0F84E301 		je	.L1184
 7621      0000
 7622 3b7b 4883FA02 		cmpq	$2, %rdx
 7623 3b7f 0F85B301 		jne	.L1214
 7623      0000
 7624 3b85 E8000000 		call	__cxa_begin_catch
 7624      00
 7625 3b8a 488DBC24 		leaq	272(%rsp), %rdi
 7625      10010000 
 7626 3b92 4889C3   		movq	%rax, %rbx
 7627              	.LEHB194:
 7628 3b95 E8000000 		call	_ZN8UnitTest15MemoryOutStreamC1Ev
 7628      00
 7629              	.LEHE194:
 7630 3b9a 488B03   		movq	(%rbx), %rax
 7631 3b9d 4889DF   		movq	%rbx, %rdi
 7632 3ba0 FF5010   		call	*16(%rax)
 7633 3ba3 488DBC24 		leaq	272(%rsp), %rdi
 7633      10010000 
 7634 3bab BE000000 		movl	$.LC34, %esi
 7634      00
 7635 3bb0 4889C3   		movq	%rax, %rbx
 7636              	.LEHB195:
 7637 3bb3 E8000000 		call	_ZStlsISt11char_traitsIcEERSt13basic_ostreamIcT_ES5_PKc
 7637      00
 7638 3bb8 4889C7   		movq	%rax, %rdi
 7639 3bbb 4889DE   		movq	%rbx, %rsi
 7640 3bbe E8000000 		call	_ZStlsISt11char_traitsIcEERSt13basic_ostreamIcT_ES5_PKc
 7640      00
 7641 3bc3 488DBC24 		leaq	272(%rsp), %rdi
 7641      10010000 
 7642 3bcb E8000000 		call	_ZNK8UnitTest15MemoryOutStream7GetTextEv
 7642      00
 7643 3bd0 4889C3   		movq	%rax, %rbx
 7644 3bd3 E8000000 		call	_ZN8UnitTest11CurrentTest7ResultsEv
 7644      00
 7645 3bd8 488B7424 		movq	8(%rsp), %rsi
 7645      08
 7646 3bdd 488B38   		movq	(%rax), %rdi
 7647 3be0 4889DA   		movq	%rbx, %rdx
 7648 3be3 E8000000 		call	_ZN8UnitTest11TestResults13OnTestFailureERKNS_11TestDetailsEPKc
 7648      00
 7649              	.LEHE195:
 7650 3be8 488DBC24 		leaq	272(%rsp), %rdi
 7650      10010000 
 7651              	.LEHB196:
 7652 3bf0 E8000000 		call	_ZN8UnitTest15MemoryOutStreamD1Ev
 7652      00
 7653              	.LEHE196:
 7654              	.L1208:
 7655 3bf5 E8000000 		call	__cxa_end_catch
 7655      00
 7656 3bfa E911FFFF 		jmp	.L1167
 7656      FF
 7657              	.L1212:
 7658 3bff 31D2     		xorl	%edx, %edx
 7659 3c01 31F6     		xorl	%esi, %esi
 7660 3c03 BF000000 		movl	$.LC25, %edi
 7660      00
 7661              	.LEHB197:
 7662 3c08 E8000000 		call	_ZSt24__throw_out_of_range_fmtPKcz
 7662      00
 7663              	.LEHE197:
 7664              	.L1213:
 7665 3c0d E8000000 		call	__stack_chk_fail
 7665      00
 7666              	.L1204:
 7667 3c12 4889C7   		movq	%rax, %rdi
 7668 3c15 E8000000 		call	__cxa_begin_catch
 7668      00
 7669              	.LEHB198:
 7670 3c1a E8000000 		call	_ZN8UnitTest11CurrentTest7DetailsEv
 7670      00
 7671 3c1f 488B30   		movq	(%rax), %rsi
 7672 3c22 488DBC24 		leaq	208(%rsp), %rdi
 7672      D0000000 
 7673 3c2a BA5D0000 		movl	$93, %edx
 7673      00
 7674 3c2f E8000000 		call	_ZN8UnitTest11TestDetailsC1ERKS0_i
 7674      00
 7675 3c34 E8000000 		call	_ZN8UnitTest11CurrentTest7ResultsEv
 7675      00
 7676 3c39 488B38   		movq	(%rax), %rdi
 7677 3c3c 488DB424 		leaq	208(%rsp), %rsi
 7677      D0000000 
 7678 3c44 BA000000 		movl	$.LC66, %edx
 7678      00
 7679 3c49 E8000000 		call	_ZN8UnitTest11TestResults13OnTestFailureERKNS_11TestDetailsEPKc
 7679      00
 7680              	.LEHE198:
 7681              	.LEHB199:
 7682 3c4e E8000000 		call	__cxa_end_catch
 7682      00
 7683              	.LEHE199:
 7684 3c53 E933FEFF 		jmp	.L1175
 7684      FF
 7685              	.L1202:
 7686 3c58 4889C7   		movq	%rax, %rdi
 7687 3c5b E8000000 		call	__cxa_begin_catch
 7687      00
 7688              	.LEHB200:
 7689 3c60 E8000000 		call	_ZN8UnitTest11CurrentTest7DetailsEv
 7689      00
 7690 3c65 488B30   		movq	(%rax), %rsi
 7691 3c68 488DBC24 		leaq	144(%rsp), %rdi
 7691      90000000 
 7692 3c70 BA5E0000 		movl	$94, %edx
 7692      00
 7693 3c75 E8000000 		call	_ZN8UnitTest11TestDetailsC1ERKS0_i
 7693      00
 7694 3c7a E8000000 		call	_ZN8UnitTest11CurrentTest7ResultsEv
 7694      00
 7695 3c7f 488B38   		movq	(%rax), %rdi
 7696 3c82 488DB424 		leaq	144(%rsp), %rsi
 7696      90000000 
 7697 3c8a BA000000 		movl	$.LC67, %edx
 7697      00
 7698 3c8f E8000000 		call	_ZN8UnitTest11TestResults13OnTestFailureERKNS_11TestDetailsEPKc
 7698      00
 7699              	.LEHE200:
 7700              	.LEHB201:
 7701 3c94 E8000000 		call	__cxa_end_catch
 7701      00
 7702              	.LEHE201:
 7703 3c99 E92CFEFF 		jmp	.L1178
 7703      FF
 7704              	.L1203:
 7705 3c9e 4889C3   		movq	%rax, %rbx
 7706 3ca1 4889D5   		movq	%rdx, %rbp
 7707 3ca4 E8000000 		call	__cxa_end_catch
 7707      00
 7708 3ca9 E9B0FEFF 		jmp	.L1173
 7708      FF
 7709              	.L1201:
 7710 3cae 4889C3   		movq	%rax, %rbx
 7711 3cb1 4889D5   		movq	%rdx, %rbp
 7712 3cb4 E8000000 		call	__cxa_end_catch
 7712      00
 7713 3cb9 E9A0FEFF 		jmp	.L1173
 7713      FF
 7714              	.L1200:
 7715 3cbe 4889C7   		movq	%rax, %rdi
 7716 3cc1 E8000000 		call	__cxa_begin_catch
 7716      00
 7717              	.LEHB202:
 7718 3cc6 E8000000 		call	_ZN8UnitTest11CurrentTest7DetailsEv
 7718      00
 7719 3ccb 488B30   		movq	(%rax), %rsi
 7720 3cce 488D7C24 		leaq	80(%rsp), %rdi
 7720      50
 7721 3cd3 BA5F0000 		movl	$95, %edx
 7721      00
 7722 3cd8 E8000000 		call	_ZN8UnitTest11TestDetailsC1ERKS0_i
 7722      00
 7723 3cdd E8000000 		call	_ZN8UnitTest11CurrentTest7ResultsEv
 7723      00
 7724 3ce2 488B38   		movq	(%rax), %rdi
 7725 3ce5 488D7424 		leaq	80(%rsp), %rsi
 7725      50
 7726 3cea BA000000 		movl	$.LC68, %edx
 7726      00
 7727 3cef E8000000 		call	_ZN8UnitTest11TestResults13OnTestFailureERKNS_11TestDetailsEPKc
 7727      00
 7728              	.LEHE202:
 7729              	.LEHB203:
 7730 3cf4 E8000000 		call	__cxa_end_catch
 7730      00
 7731              	.LEHE203:
 7732 3cf9 E905FEFF 		jmp	.L1181
 7732      FF
 7733              	.L1193:
 7734 3cfe 4889C7   		movq	%rax, %rdi
 7735 3d01 E96BFEFF 		jmp	.L1182
 7735      FF
 7736              	.L1199:
 7737 3d06 4889C3   		movq	%rax, %rbx
 7738 3d09 4889D5   		movq	%rdx, %rbp
 7739 3d0c E8000000 		call	__cxa_end_catch
 7739      00
 7740 3d11 E948FEFF 		jmp	.L1173
 7740      FF
 7741              	.L1197:
 7742 3d16 488DBC24 		leaq	272(%rsp), %rdi
 7742      10010000 
 7743 3d1e 4889C3   		movq	%rax, %rbx
 7744 3d21 E8000000 		call	_ZN8UnitTest15MemoryOutStreamD1Ev
 7744      00
 7745              	.L1188:
 7746 3d26 E8000000 		call	__cxa_end_catch
 7746      00
 7747 3d2b 4889DF   		movq	%rbx, %rdi
 7748              	.LEHB204:
 7749 3d2e E8000000 		call	_Unwind_Resume
 7749      00
 7750              	.LEHE204:
 7751              	.L1196:
 7752              	.L1209:
 7753 3d33 4889C3   		movq	%rax, %rbx
 7754 3d36 EBEE     		jmp	.L1188
 7755              	.L1214:
 7756 3d38 E8000000 		call	__cxa_begin_catch
 7756      00
 7757              	.LEHB205:
 7758 3d3d E8000000 		call	_ZN8UnitTest11CurrentTest7ResultsEv
 7758      00
 7759 3d42 488B7424 		movq	8(%rsp), %rsi
 7759      08
 7760 3d47 488B38   		movq	(%rax), %rdi
 7761 3d4a BA000000 		movl	$.LC35, %edx
 7761      00
 7762 3d4f E8000000 		call	_ZN8UnitTest11TestResults13OnTestFailureERKNS_11TestDetailsEPKc
 7762      00
 7763              	.LEHE205:
 7764              	.LEHB206:
 7765 3d54 E8000000 		call	__cxa_end_catch
 7765      00
 7766              	.LEHE206:
 7767 3d59 E9B2FDFF 		jmp	.L1167
 7767      FF
 7768              	.L1184:
 7769 3d5e E8000000 		call	__cxa_begin_catch
 7769      00
 7770 3d63 4889C3   		movq	%rax, %rbx
 7771 3d66 488B00   		movq	(%rax), %rax
 7772 3d69 4889DF   		movq	%rbx, %rdi
 7773 3d6c FF5010   		call	*16(%rax)
 7774 3d6f 4889DF   		movq	%rbx, %rdi
 7775 3d72 4889C5   		movq	%rax, %rbp
 7776              	.LEHB207:
 7777 3d75 E8000000 		call	_ZNK8UnitTest15AssertException10LineNumberEv
 7777      00
 7778 3d7a 4889DF   		movq	%rbx, %rdi
 7779 3d7d 4189C4   		movl	%eax, %r12d
 7780 3d80 E8000000 		call	_ZNK8UnitTest15AssertException8FilenameEv
 7780      00
 7781 3d85 4889C1   		movq	%rax, %rcx
 7782 3d88 488B4424 		movq	8(%rsp), %rax
 7782      08
 7783 3d8d 488D7C24 		leaq	48(%rsp), %rdi
 7783      30
 7784 3d92 4589E0   		movl	%r12d, %r8d
 7785 3d95 488B7008 		movq	8(%rax), %rsi
 7786 3d99 488B10   		movq	(%rax), %rdx
 7787 3d9c E8000000 		call	_ZN8UnitTest11TestDetailsC1EPKcS2_S2_i
 7787      00
 7788 3da1 E8000000 		call	_ZN8UnitTest11CurrentTest7ResultsEv
 7788      00
 7789 3da6 488B38   		movq	(%rax), %rdi
 7790 3da9 488D7424 		leaq	48(%rsp), %rsi
 7790      30
 7791 3dae 4889EA   		movq	%rbp, %rdx
 7792 3db1 E8000000 		call	_ZN8UnitTest11TestResults13OnTestFailureERKNS_11TestDetailsEPKc
 7792      00
 7793              	.LEHE207:
 7794 3db6 E93AFEFF 		jmp	.L1208
 7794      FF
 7795              	.L1198:
 7796 3dbb 4889C3   		movq	%rax, %rbx
 7797 3dbe E8000000 		call	__cxa_end_catch
 7797      00
 7798 3dc3 4889DF   		movq	%rbx, %rdi
 7799              	.LEHB208:
 7800 3dc6 E8000000 		call	_Unwind_Resume
 7800      00
 7801              	.LEHE208:
 7802              	.L1195:
 7803 3dcb E963FFFF 		jmp	.L1209
 7803      FF
 7804              		.cfi_endproc
 7805              	.LFE1527:
 7806              		.section	.gcc_except_table
 7807              		.align 4
 7808              	.LLSDA1527:
 7809 0524 FF       		.byte	0xff
 7810 0525 03       		.byte	0x3
 7811 0526 9C01     		.uleb128 .LLSDATT1527-.LLSDATTD1527
 7812              	.LLSDATTD1527:
 7813 0528 01       		.byte	0x1
 7814 0529 8301     		.uleb128 .LLSDACSE1527-.LLSDACSB1527
 7815              	.LLSDACSB1527:
 7816 052b 2A       		.uleb128 .LEHB186-.LFB1527
 7817 052c 05       		.uleb128 .LEHE186-.LEHB186
 7818 052d 00       		.uleb128 0
 7819 052e 00       		.uleb128 0
 7820 052f 3A       		.uleb128 .LEHB187-.LFB1527
 7821 0530 05       		.uleb128 .LEHE187-.LEHB187
 7822 0531 8E07     		.uleb128 .L1193-.LFB1527
 7823 0533 05       		.uleb128 0x5
 7824 0534 78       		.uleb128 .LEHB188-.LFB1527
 7825 0535 2D       		.uleb128 .LEHE188-.LEHB188
 7826 0536 E803     		.uleb128 .L1194-.LFB1527
 7827 0538 07       		.uleb128 0x7
 7828 0539 CA01     		.uleb128 .LEHB189-.LFB1527
 7829 053b 51       		.uleb128 .LEHE189-.LEHB189
 7830 053c A205     		.uleb128 .L1204-.LFB1527
 7831 053e 01       		.uleb128 0x1
 7832 053f 9B02     		.uleb128 .LEHB190-.LFB1527
 7833 0541 3F       		.uleb128 .LEHE190-.LEHB190
 7834 0542 E805     		.uleb128 .L1202-.LFB1527
 7835 0544 01       		.uleb128 0x1
 7836 0545 DA02     		.uleb128 .LEHB191-.LFB1527
 7837 0547 39       		.uleb128 .LEHE191-.LEHB191
 7838 0548 CE06     		.uleb128 .L1200-.LFB1527
 7839 054a 01       		.uleb128 0x1
 7840 054b 9B03     		.uleb128 .LEHB192-.LFB1527
 7841 054d 05       		.uleb128 .LEHE192-.LEHB192
 7842 054e 8E07     		.uleb128 .L1193-.LFB1527
 7843 0550 05       		.uleb128 0x5
 7844 0551 E303     		.uleb128 .LEHB193-.LFB1527
 7845 0553 05       		.uleb128 .LEHE193-.LEHB193
 7846 0554 E803     		.uleb128 .L1194-.LFB1527
 7847 0556 07       		.uleb128 0x7
 7848 0557 A504     		.uleb128 .LEHB194-.LFB1527
 7849 0559 05       		.uleb128 .LEHE194-.LEHB194
 7850 055a C307     		.uleb128 .L1196-.LFB1527
 7851 055c 00       		.uleb128 0
 7852 055d C304     		.uleb128 .LEHB195-.LFB1527
 7853 055f 35       		.uleb128 .LEHE195-.LEHB195
 7854 0560 A607     		.uleb128 .L1197-.LFB1527
 7855 0562 00       		.uleb128 0
 7856 0563 8005     		.uleb128 .LEHB196-.LFB1527
 7857 0565 05       		.uleb128 .LEHE196-.LEHB196
 7858 0566 C307     		.uleb128 .L1196-.LFB1527
 7859 0568 00       		.uleb128 0
 7860 0569 9805     		.uleb128 .LEHB197-.LFB1527
 7861 056b 05       		.uleb128 .LEHE197-.LEHB197
 7862 056c E803     		.uleb128 .L1194-.LFB1527
 7863 056e 07       		.uleb128 0x7
 7864 056f AA05     		.uleb128 .LEHB198-.LFB1527
 7865 0571 34       		.uleb128 .LEHE198-.LEHB198
 7866 0572 AE06     		.uleb128 .L1203-.LFB1527
 7867 0574 07       		.uleb128 0x7
 7868 0575 DE05     		.uleb128 .LEHB199-.LFB1527
 7869 0577 05       		.uleb128 .LEHE199-.LEHB199
 7870 0578 E803     		.uleb128 .L1194-.LFB1527
 7871 057a 07       		.uleb128 0x7
 7872 057b F005     		.uleb128 .LEHB200-.LFB1527
 7873 057d 34       		.uleb128 .LEHE200-.LEHB200
 7874 057e BE06     		.uleb128 .L1201-.LFB1527
 7875 0580 07       		.uleb128 0x7
 7876 0581 A406     		.uleb128 .LEHB201-.LFB1527
 7877 0583 05       		.uleb128 .LEHE201-.LEHB201
 7878 0584 E803     		.uleb128 .L1194-.LFB1527
 7879 0586 07       		.uleb128 0x7
 7880 0587 D606     		.uleb128 .LEHB202-.LFB1527
 7881 0589 2E       		.uleb128 .LEHE202-.LEHB202
 7882 058a 9607     		.uleb128 .L1199-.LFB1527
 7883 058c 07       		.uleb128 0x7
 7884 058d 8407     		.uleb128 .LEHB203-.LFB1527
 7885 058f 05       		.uleb128 .LEHE203-.LEHB203
 7886 0590 E803     		.uleb128 .L1194-.LFB1527
 7887 0592 07       		.uleb128 0x7
 7888 0593 BE07     		.uleb128 .LEHB204-.LFB1527
 7889 0595 05       		.uleb128 .LEHE204-.LEHB204
 7890 0596 00       		.uleb128 0
 7891 0597 00       		.uleb128 0
 7892 0598 CD07     		.uleb128 .LEHB205-.LFB1527
 7893 059a 17       		.uleb128 .LEHE205-.LEHB205
 7894 059b CB08     		.uleb128 .L1198-.LFB1527
 7895 059d 00       		.uleb128 0
 7896 059e E407     		.uleb128 .LEHB206-.LFB1527
 7897 05a0 05       		.uleb128 .LEHE206-.LEHB206
 7898 05a1 00       		.uleb128 0
 7899 05a2 00       		.uleb128 0
 7900 05a3 8508     		.uleb128 .LEHB207-.LFB1527
 7901 05a5 41       		.uleb128 .LEHE207-.LEHB207
 7902 05a6 DB08     		.uleb128 .L1195-.LFB1527
 7903 05a8 00       		.uleb128 0
 7904 05a9 D608     		.uleb128 .LEHB208-.LFB1527
 7905 05ab 05       		.uleb128 .LEHE208-.LEHB208
 7906 05ac 00       		.uleb128 0
 7907 05ad 00       		.uleb128 0
 7908              	.LLSDACSE1527:
 7909 05ae 03       		.byte	0x3
 7910 05af 00       		.byte	0
 7911 05b0 02       		.byte	0x2
 7912 05b1 7D       		.byte	0x7d
 7913 05b2 01       		.byte	0x1
 7914 05b3 7D       		.byte	0x7d
 7915 05b4 00       		.byte	0
 7916 05b5 7D       		.byte	0x7d
 7917 05b6 0000     		.align 4
 7918 05b8 00000000 		.long	0
 7919              	
 7920 05bc 00000000 		.long	_ZTISt9exception
 7921 05c0 00000000 		.long	_ZTIN8UnitTest15AssertExceptionE
 7922              	.LLSDATT1527:
 7923              		.text
 7925              		.section	.text.unlikely
 7926              	.LCOLDE69:
 7927              		.text
 7928              	.LHOTE69:
 7929              		.section	.text.unlikely
 7930              		.align 2
 7931              	.LCOLDB70:
 7932              		.text
 7933              	.LHOTB70:
 7934              		.align 2
 7935              		.p2align 4,,15
 7937              	_ZNK8UnitTest12_GLOBAL__N_182TestDeferredTestReporterFixtureReportFailureSavesFailureDetailsForMult
 7938              	.LFB1459:
 7939              		.cfi_startproc
 7940              		.cfi_personality 0x3,__gxx_personality_v0
 7941              		.cfi_lsda 0x3,.LLSDA1459
 7942 3dd0 4157     		pushq	%r15
 7943              		.cfi_def_cfa_offset 16
 7944              		.cfi_offset 15, -16
 7945 3dd2 4156     		pushq	%r14
 7946              		.cfi_def_cfa_offset 24
 7947              		.cfi_offset 14, -24
 7948 3dd4 BE000000 		movl	$.LC39, %esi
 7948      00
 7949 3dd9 4155     		pushq	%r13
 7950              		.cfi_def_cfa_offset 32
 7951              		.cfi_offset 13, -32
 7952 3ddb 4154     		pushq	%r12
 7953              		.cfi_def_cfa_offset 40
 7954              		.cfi_offset 12, -40
 7955 3ddd 4C8D6F08 		leaq	8(%rdi), %r13
 7956 3de1 55       		pushq	%rbp
 7957              		.cfi_def_cfa_offset 48
 7958              		.cfi_offset 6, -48
 7959 3de2 53       		pushq	%rbx
 7960              		.cfi_def_cfa_offset 56
 7961              		.cfi_offset 3, -56
 7962 3de3 4881EC08 		subq	$520, %rsp
 7962      020000
 7963              		.cfi_def_cfa_offset 576
 7964 3dea 488D4424 		leaq	32(%rsp), %rax
 7964      20
 7965 3def 48897C24 		movq	%rdi, 8(%rsp)
 7965      08
 7966 3df4 48C74424 		movq	$0, 40(%rsp)
 7966      28000000 
 7966      00
 7967 3dfd 64488B14 		movq	%fs:40, %rdx
 7967      25280000 
 7967      00
 7968 3e06 48899424 		movq	%rdx, 504(%rsp)
 7968      F8010000 
 7969 3e0e 31D2     		xorl	%edx, %edx
 7970 3e10 488D7820 		leaq	32(%rax), %rdi
 7971 3e14 488D5424 		leaq	31(%rsp), %rdx
 7971      1F
 7972 3e19 48C74424 		movq	$0, 48(%rsp)
 7972      30000000 
 7972      00
 7973 3e22 48C74424 		movq	$0, 56(%rsp)
 7973      38000000 
 7973      00
 7974 3e2b 48C74424 		movq	$_ZTVN8UnitTest12_GLOBAL__N_124MockDeferredTestReporterE+16, 32(%rsp)
 7974      20000000 
 7974      00
 7975              	.LEHB209:
 7976 3e34 E8000000 		call	_ZNSsC1EPKcRKSaIcE
 7976      00
 7977              	.LEHE209:
 7978 3e39 488D4424 		leaq	32(%rsp), %rax
 7978      20
 7979 3e3e 488D5424 		leaq	31(%rsp), %rdx
 7979      1F
 7980 3e43 BE000000 		movl	$.LC40, %esi
 7980      00
 7981 3e48 488D7828 		leaq	40(%rax), %rdi
 7982              	.LEHB210:
 7983 3e4c E8000000 		call	_ZNSsC1EPKcRKSaIcE
 7983      00
 7984              	.LEHE210:
 7985 3e51 488D4424 		leaq	32(%rsp), %rax
 7985      20
 7986 3e56 488D5424 		leaq	31(%rsp), %rdx
 7986      1F
 7987 3e5b BE000000 		movl	$.LC41, %esi
 7987      00
 7988 3e60 488D7830 		leaq	48(%rax), %rdi
 7989              	.LEHB211:
 7990 3e64 E8000000 		call	_ZNSsC1EPKcRKSaIcE
 7990      00
 7991              	.LEHE211:
 7992 3e69 488D4424 		leaq	32(%rsp), %rax
 7992      20
 7993 3e6e 488B4C24 		movq	80(%rsp), %rcx
 7993      50
 7994 3e73 488B5424 		movq	72(%rsp), %rdx
 7994      48
 7995 3e78 488B7424 		movq	64(%rsp), %rsi
 7995      40
 7996 3e7d 41B80C00 		movl	$12, %r8d
 7996      0000
 7997 3e83 C7442458 		movl	$12, 88(%rsp)
 7997      0C000000 
 7998 3e8b 488D7840 		leaq	64(%rax), %rdi
 7999              	.LEHB212:
 8000 3e8f E8000000 		call	_ZN8UnitTest11TestDetailsC1EPKcS2_S2_i
 8000      00
 8001              	.LEHE212:
 8002 3e94 488D7C24 		leaq	32(%rsp), %rdi
 8002      20
 8003 3e99 4C89EE   		movq	%r13, %rsi
 8004 3e9c 4C89AC24 		movq	%r13, 128(%rsp)
 8004      80000000 
 8005              	.LEHB213:
 8006 3ea4 E8C7FAFF 		call	_ZN8UnitTest11ExecuteTestINS_12_GLOBAL__N_184DeferredTestReporterFixtureReportFailureSavesFai
 8006      FF
 8007              	.LEHE213:
 8008 3ea9 488B4424 		movq	80(%rsp), %rax
 8008      50
 8009 3eae 488D78E8 		leaq	-24(%rax), %rdi
 8010 3eb2 4881FF00 		cmpq	$_ZNSs4_Rep20_S_empty_rep_storageE, %rdi
 8010      000000
 8011 3eb9 0F857402 		jne	.L1322
 8011      0000
 8012              	.L1226:
 8013 3ebf 488B4424 		movq	72(%rsp), %rax
 8013      48
 8014 3ec4 488D78E8 		leaq	-24(%rax), %rdi
 8015 3ec8 4881FF00 		cmpq	$_ZNSs4_Rep20_S_empty_rep_storageE, %rdi
 8015      000000
 8016 3ecf 0F858B02 		jne	.L1323
 8016      0000
 8017              	.L1231:
 8018 3ed5 488B4424 		movq	64(%rsp), %rax
 8018      40
 8019 3eda 488D78E8 		leaq	-24(%rax), %rdi
 8020 3ede 4881FF00 		cmpq	$_ZNSs4_Rep20_S_empty_rep_storageE, %rdi
 8020      000000
 8021 3ee5 0F851702 		jne	.L1324
 8021      0000
 8022              	.L1236:
 8023 3eeb 488B6C24 		movq	48(%rsp), %rbp
 8023      30
 8024 3ef0 4C8B7424 		movq	40(%rsp), %r14
 8024      28
 8025 3ef5 48C74424 		movq	$_ZTVN8UnitTest20DeferredTestReporterE+16, 32(%rsp)
 8025      20000000 
 8025      00
 8026 3efe 4C39F5   		cmpq	%r14, %rbp
 8027 3f01 0F84CA00 		je	.L1240
 8027      0000
 8028 3f07 41BC0000 		movl	$_ZL28__gthrw___pthread_key_createPjPFvPvE, %r12d
 8028      0000
 8029 3f0d 0F1F00   		.p2align 4,,10
 8030              		.p2align 3
 8031              	.L1269:
 8032 3f10 4D8B7E20 		movq	32(%r14), %r15
 8033 3f14 498B5E18 		movq	24(%r14), %rbx
 8034 3f18 4939DF   		cmpq	%rbx, %r15
 8035 3f1b 7457     		je	.L1241
 8036 3f1d 4D85E4   		testq	%r12, %r12
 8037 3f20 7517     		jne	.L1305
 8038 3f22 E9160100 		jmp	.L1247
 8038      00
 8039 3f27 660F1F84 		.p2align 4,,10
 8039      00000000 
 8039      00
 8040              		.p2align 3
 8041              	.L1250:
 8042 3f30 4883C310 		addq	$16, %rbx
 8043 3f34 4939DF   		cmpq	%rbx, %r15
 8044 3f37 7437     		je	.L1248
 8045              	.L1305:
 8046 3f39 488B4308 		movq	8(%rbx), %rax
 8047 3f3d 488D78E8 		leaq	-24(%rax), %rdi
 8048 3f41 4881FF00 		cmpq	$_ZNSs4_Rep20_S_empty_rep_storageE, %rdi
 8048      000000
 8049 3f48 74E6     		je	.L1250
 8050 3f4a B9FFFFFF 		movl	$-1, %ecx
 8050      FF
 8051 3f4f F00FC148 		lock xaddl	%ecx, -8(%rax)
 8051      F8
 8052 3f54 85C9     		testl	%ecx, %ecx
 8053 3f56 7FD8     		jg	.L1250
 8054 3f58 488D7424 		leaq	31(%rsp), %rsi
 8054      1F
 8055 3f5d 4883C310 		addq	$16, %rbx
 8056 3f61 E8000000 		call	_ZNSs4_Rep10_M_destroyERKSaIcE
 8056      00
 8057 3f66 4939DF   		cmpq	%rbx, %r15
 8058 3f69 75CE     		jne	.L1305
 8059 3f6b 0F1F4400 		.p2align 4,,10
 8059      00
 8060              		.p2align 3
 8061              	.L1248:
 8062 3f70 4D8B7E18 		movq	24(%r14), %r15
 8063              	.L1241:
 8064 3f74 4D85FF   		testq	%r15, %r15
 8065 3f77 7408     		je	.L1253
 8066 3f79 4C89FF   		movq	%r15, %rdi
 8067 3f7c E8000000 		call	_ZdlPv
 8067      00
 8068              	.L1253:
 8069 3f81 498B4610 		movq	16(%r14), %rax
 8070 3f85 488D78E8 		leaq	-24(%rax), %rdi
 8071 3f89 4881FF00 		cmpq	$_ZNSs4_Rep20_S_empty_rep_storageE, %rdi
 8071      000000
 8072 3f90 0F851A01 		jne	.L1325
 8072      0000
 8073              	.L1255:
 8074 3f96 498B4608 		movq	8(%r14), %rax
 8075 3f9a 488D78E8 		leaq	-24(%rax), %rdi
 8076 3f9e 4881FF00 		cmpq	$_ZNSs4_Rep20_S_empty_rep_storageE, %rdi
 8076      000000
 8077 3fa5 0F85D500 		jne	.L1326
 8077      0000
 8078              	.L1260:
 8079 3fab 498B06   		movq	(%r14), %rax
 8080 3fae 488D78E8 		leaq	-24(%rax), %rdi
 8081 3fb2 4881FF00 		cmpq	$_ZNSs4_Rep20_S_empty_rep_storageE, %rdi
 8081      000000
 8082 3fb9 0F859100 		jne	.L1327
 8082      0000
 8083              	.L1265:
 8084 3fbf 4983C638 		addq	$56, %r14
 8085 3fc3 4C39F5   		cmpq	%r14, %rbp
 8086 3fc6 0F8544FF 		jne	.L1269
 8086      FFFF
 8087 3fcc 488B6C24 		movq	40(%rsp), %rbp
 8087      28
 8088              	.L1240:
 8089 3fd1 4885ED   		testq	%rbp, %rbp
 8090 3fd4 7408     		je	.L1270
 8091 3fd6 4889EF   		movq	%rbp, %rdi
 8092 3fd9 E8000000 		call	_ZdlPv
 8092      00
 8093              	.L1270:
 8094 3fde 488D7C24 		leaq	32(%rsp), %rdi
 8094      20
 8095              	.LEHB214:
 8096 3fe3 E8000000 		call	_ZN8UnitTest12TestReporterD2Ev
 8096      00
 8097              	.LEHE214:
 8098              	.L1215:
 8099 3fe8 488B8424 		movq	504(%rsp), %rax
 8099      F8010000 
 8100 3ff0 64483304 		xorq	%fs:40, %rax
 8100      25280000 
 8100      00
 8101 3ff9 0F85F903 		jne	.L1328
 8101      0000
 8102 3fff 4881C408 		addq	$520, %rsp
 8102      020000
 8103              		.cfi_remember_state
 8104              		.cfi_def_cfa_offset 56
 8105 4006 5B       		popq	%rbx
 8106              		.cfi_def_cfa_offset 48
 8107 4007 5D       		popq	%rbp
 8108              		.cfi_def_cfa_offset 40
 8109 4008 415C     		popq	%r12
 8110              		.cfi_def_cfa_offset 32
 8111 400a 415D     		popq	%r13
 8112              		.cfi_def_cfa_offset 24
 8113 400c 415E     		popq	%r14
 8114              		.cfi_def_cfa_offset 16
 8115 400e 415F     		popq	%r15
 8116              		.cfi_def_cfa_offset 8
 8117 4010 C3       		ret
 8118              		.p2align 4,,10
 8119 4011 0F1F8000 		.p2align 3
 8119      000000
 8120              	.L1329:
 8121              		.cfi_restore_state
 8122 4018 8B48F8   		movl	-8(%rax), %ecx
 8123 401b 8D71FF   		leal	-1(%rcx), %esi
 8124 401e 85C9     		testl	%ecx, %ecx
 8125 4020 8970F8   		movl	%esi, -8(%rax)
 8126 4023 7F0B     		jg	.L1245
 8127 4025 488D7424 		leaq	31(%rsp), %rsi
 8127      1F
 8128 402a E8000000 		call	_ZNSs4_Rep10_M_destroyERKSaIcE
 8128      00
 8129 402f 90       		.p2align 4,,10
 8130              		.p2align 3
 8131              	.L1245:
 8132 4030 4883C310 		addq	$16, %rbx
 8133 4034 4939DF   		cmpq	%rbx, %r15
 8134 4037 0F8433FF 		je	.L1248
 8134      FFFF
 8135              	.L1247:
 8136 403d 488B4308 		movq	8(%rbx), %rax
 8137 4041 488D78E8 		leaq	-24(%rax), %rdi
 8138 4045 4881FF00 		cmpq	$_ZNSs4_Rep20_S_empty_rep_storageE, %rdi
 8138      000000
 8139 404c 74E2     		je	.L1245
 8140 404e EBC8     		jmp	.L1329
 8141              		.p2align 4,,10
 8142              		.p2align 3
 8143              	.L1327:
 8144 4050 4D85E4   		testq	%r12, %r12
 8145 4053 0F847F00 		je	.L1266
 8145      0000
 8146 4059 B9FFFFFF 		movl	$-1, %ecx
 8146      FF
 8147 405e F00FC148 		lock xaddl	%ecx, -8(%rax)
 8147      F8
 8148 4063 89C8     		movl	%ecx, %eax
 8149              	.L1267:
 8150 4065 85C0     		testl	%eax, %eax
 8151 4067 0F8F52FF 		jg	.L1265
 8151      FFFF
 8152 406d 488D7424 		leaq	31(%rsp), %rsi
 8152      1F
 8153 4072 E8000000 		call	_ZNSs4_Rep10_M_destroyERKSaIcE
 8153      00
 8154 4077 E943FFFF 		jmp	.L1265
 8154      FF
 8155 407c 0F1F4000 		.p2align 4,,10
 8156              		.p2align 3
 8157              	.L1326:
 8158 4080 4D85E4   		testq	%r12, %r12
 8159 4083 7470     		je	.L1261
 8160 4085 B9FFFFFF 		movl	$-1, %ecx
 8160      FF
 8161 408a F00FC148 		lock xaddl	%ecx, -8(%rax)
 8161      F8
 8162 408f 89C8     		movl	%ecx, %eax
 8163              	.L1262:
 8164 4091 85C0     		testl	%eax, %eax
 8165 4093 0F8F12FF 		jg	.L1260
 8165      FFFF
 8166 4099 488D7424 		leaq	31(%rsp), %rsi
 8166      1F
 8167 409e E8000000 		call	_ZNSs4_Rep10_M_destroyERKSaIcE
 8167      00
 8168 40a3 E903FFFF 		jmp	.L1260
 8168      FF
 8169 40a8 0F1F8400 		.p2align 4,,10
 8169      00000000 
 8170              		.p2align 3
 8171              	.L1325:
 8172 40b0 4D85E4   		testq	%r12, %r12
 8173 40b3 7433     		je	.L1256
 8174 40b5 B9FFFFFF 		movl	$-1, %ecx
 8174      FF
 8175 40ba F00FC148 		lock xaddl	%ecx, -8(%rax)
 8175      F8
 8176 40bf 89C8     		movl	%ecx, %eax
 8177              	.L1257:
 8178 40c1 85C0     		testl	%eax, %eax
 8179 40c3 0F8FCDFE 		jg	.L1255
 8179      FFFF
 8180 40c9 488D7424 		leaq	31(%rsp), %rsi
 8180      1F
 8181 40ce E8000000 		call	_ZNSs4_Rep10_M_destroyERKSaIcE
 8181      00
 8182 40d3 E9BEFEFF 		jmp	.L1255
 8182      FF
 8183              	.L1266:
 8184 40d8 8B48F8   		movl	-8(%rax), %ecx
 8185 40db 8D71FF   		leal	-1(%rcx), %esi
 8186 40de 8970F8   		movl	%esi, -8(%rax)
 8187 40e1 89C8     		movl	%ecx, %eax
 8188 40e3 E97DFFFF 		jmp	.L1267
 8188      FF
 8189              	.L1256:
 8190 40e8 8B48F8   		movl	-8(%rax), %ecx
 8191 40eb 8D71FF   		leal	-1(%rcx), %esi
 8192 40ee 8970F8   		movl	%esi, -8(%rax)
 8193 40f1 89C8     		movl	%ecx, %eax
 8194 40f3 EBCC     		jmp	.L1257
 8195              	.L1261:
 8196 40f5 8B48F8   		movl	-8(%rax), %ecx
 8197 40f8 8D71FF   		leal	-1(%rcx), %esi
 8198 40fb 8970F8   		movl	%esi, -8(%rax)
 8199 40fe 89C8     		movl	%ecx, %eax
 8200 4100 EB8F     		jmp	.L1262
 8201              	.L1324:
 8202 4102 BA000000 		movl	$_ZL28__gthrw___pthread_key_createPjPFvPvE, %edx
 8202      00
 8203 4107 4885D2   		testq	%rdx, %rdx
 8204 410a 0F849700 		je	.L1237
 8204      0000
 8205 4110 BAFFFFFF 		movl	$-1, %edx
 8205      FF
 8206 4115 F00FC150 		lock xaddl	%edx, -8(%rax)
 8206      F8
 8207 411a 89D0     		movl	%edx, %eax
 8208              	.L1238:
 8209 411c 85C0     		testl	%eax, %eax
 8210 411e 0F8FC7FD 		jg	.L1236
 8210      FFFF
 8211 4124 488D7424 		leaq	31(%rsp), %rsi
 8211      1F
 8212 4129 E8000000 		call	_ZNSs4_Rep10_M_destroyERKSaIcE
 8212      00
 8213 412e E9B8FDFF 		jmp	.L1236
 8213      FF
 8214              	.L1322:
 8215 4133 BA000000 		movl	$_ZL28__gthrw___pthread_key_createPjPFvPvE, %edx
 8215      00
 8216 4138 4885D2   		testq	%rdx, %rdx
 8217 413b 745D     		je	.L1227
 8218 413d BAFFFFFF 		movl	$-1, %edx
 8218      FF
 8219 4142 F00FC150 		lock xaddl	%edx, -8(%rax)
 8219      F8
 8220 4147 89D0     		movl	%edx, %eax
 8221              	.L1228:
 8222 4149 85C0     		testl	%eax, %eax
 8223 414b 0F8F6EFD 		jg	.L1226
 8223      FFFF
 8224 4151 488D7424 		leaq	31(%rsp), %rsi
 8224      1F
 8225 4156 E8000000 		call	_ZNSs4_Rep10_M_destroyERKSaIcE
 8225      00
 8226 415b E95FFDFF 		jmp	.L1226
 8226      FF
 8227              	.L1323:
 8228 4160 BA000000 		movl	$_ZL28__gthrw___pthread_key_createPjPFvPvE, %edx
 8228      00
 8229 4165 4885D2   		testq	%rdx, %rdx
 8230 4168 7423     		je	.L1232
 8231 416a BAFFFFFF 		movl	$-1, %edx
 8231      FF
 8232 416f F00FC150 		lock xaddl	%edx, -8(%rax)
 8232      F8
 8233 4174 89D0     		movl	%edx, %eax
 8234              	.L1233:
 8235 4176 85C0     		testl	%eax, %eax
 8236 4178 0F8F57FD 		jg	.L1231
 8236      FFFF
 8237 417e 488D7424 		leaq	31(%rsp), %rsi
 8237      1F
 8238 4183 E8000000 		call	_ZNSs4_Rep10_M_destroyERKSaIcE
 8238      00
 8239 4188 E948FDFF 		jmp	.L1231
 8239      FF
 8240              	.L1232:
 8241 418d 8B50F8   		movl	-8(%rax), %edx
 8242 4190 8D4AFF   		leal	-1(%rdx), %ecx
 8243 4193 8948F8   		movl	%ecx, -8(%rax)
 8244 4196 89D0     		movl	%edx, %eax
 8245 4198 EBDC     		jmp	.L1233
 8246              	.L1227:
 8247 419a 8B50F8   		movl	-8(%rax), %edx
 8248 419d 8D4AFF   		leal	-1(%rdx), %ecx
 8249 41a0 8948F8   		movl	%ecx, -8(%rax)
 8250 41a3 89D0     		movl	%edx, %eax
 8251 41a5 EBA2     		jmp	.L1228
 8252              	.L1237:
 8253 41a7 8B50F8   		movl	-8(%rax), %edx
 8254 41aa 8D4AFF   		leal	-1(%rdx), %ecx
 8255 41ad 8948F8   		movl	%ecx, -8(%rax)
 8256 41b0 89D0     		movl	%edx, %eax
 8257 41b2 E965FFFF 		jmp	.L1238
 8257      FF
 8258              	.L1285:
 8259 41b7 4889C7   		movq	%rax, %rdi
 8260 41ba BB010000 		movl	$1, %ebx
 8260      00
 8261              	.L1224:
 8262 41bf 4883FA01 		cmpq	$1, %rdx
 8263 41c3 0F847001 		je	.L1275
 8263      0000
 8264 41c9 4883FA02 		cmpq	$2, %rdx
 8265 41cd 0F852601 		jne	.L1330
 8265      0000
 8266 41d3 E8000000 		call	__cxa_begin_catch
 8266      00
 8267 41d8 488DBC24 		leaq	144(%rsp), %rdi
 8267      90000000 
 8268 41e0 4889C3   		movq	%rax, %rbx
 8269              	.LEHB215:
 8270 41e3 E8000000 		call	_ZN8UnitTest15MemoryOutStreamC1Ev
 8270      00
 8271              	.LEHE215:
 8272 41e8 488B03   		movq	(%rbx), %rax
 8273 41eb 4889DF   		movq	%rbx, %rdi
 8274 41ee FF5010   		call	*16(%rax)
 8275 41f1 488DBC24 		leaq	144(%rsp), %rdi
 8275      90000000 
 8276 41f9 BE000000 		movl	$.LC34, %esi
 8276      00
 8277 41fe 4889C3   		movq	%rax, %rbx
 8278              	.LEHB216:
 8279 4201 E8000000 		call	_ZStlsISt11char_traitsIcEERSt13basic_ostreamIcT_ES5_PKc
 8279      00
 8280 4206 4889C7   		movq	%rax, %rdi
 8281 4209 4889DE   		movq	%rbx, %rsi
 8282 420c E8000000 		call	_ZStlsISt11char_traitsIcEERSt13basic_ostreamIcT_ES5_PKc
 8282      00
 8283 4211 488DBC24 		leaq	144(%rsp), %rdi
 8283      90000000 
 8284 4219 E8000000 		call	_ZNK8UnitTest15MemoryOutStream7GetTextEv
 8284      00
 8285 421e 4889C3   		movq	%rax, %rbx
 8286 4221 E8000000 		call	_ZN8UnitTest11CurrentTest7ResultsEv
 8286      00
 8287 4226 488B38   		movq	(%rax), %rdi
 8288 4229 4889DA   		movq	%rbx, %rdx
 8289 422c 4C89EE   		movq	%r13, %rsi
 8290 422f E8000000 		call	_ZN8UnitTest11TestResults13OnTestFailureERKNS_11TestDetailsEPKc
 8290      00
 8291              	.LEHE216:
 8292 4234 488DBC24 		leaq	144(%rsp), %rdi
 8292      90000000 
 8293              	.LEHB217:
 8294 423c E8000000 		call	_ZN8UnitTest15MemoryOutStreamD1Ev
 8294      00
 8295              	.LEHE217:
 8296              	.L1317:
 8297 4241 E8000000 		call	__cxa_end_catch
 8297      00
 8298 4246 E99DFDFF 		jmp	.L1215
 8298      FF
 8299              	.L1294:
 8300 424b 4889C3   		movq	%rax, %rbx
 8301 424e 488B4424 		movq	80(%rsp), %rax
 8301      50
 8302 4253 4889D5   		movq	%rdx, %rbp
 8303 4256 488D78E8 		leaq	-24(%rax), %rdi
 8304 425a 4881FF00 		cmpq	$_ZNSs4_Rep20_S_empty_rep_storageE, %rdi
 8304      000000
 8305 4261 740A     		je	.L1219
 8306 4263 488D7424 		leaq	31(%rsp), %rsi
 8306      1F
 8307 4268 E8000000 		call	_ZNSs4_Rep10_M_disposeERKSaIcE.part.1
 8307      00
 8308              	.L1219:
 8309 426d 488B4424 		movq	72(%rsp), %rax
 8309      48
 8310 4272 488D78E8 		leaq	-24(%rax), %rdi
 8311 4276 4881FF00 		cmpq	$_ZNSs4_Rep20_S_empty_rep_storageE, %rdi
 8311      000000
 8312 427d 740A     		je	.L1221
 8313 427f 488D7424 		leaq	31(%rsp), %rsi
 8313      1F
 8314 4284 E8000000 		call	_ZNSs4_Rep10_M_disposeERKSaIcE.part.1
 8314      00
 8315              	.L1221:
 8316 4289 488B4424 		movq	64(%rsp), %rax
 8316      40
 8317 428e 488D78E8 		leaq	-24(%rax), %rdi
 8318 4292 4881FF00 		cmpq	$_ZNSs4_Rep20_S_empty_rep_storageE, %rdi
 8318      000000
 8319 4299 740A     		je	.L1223
 8320 429b 488D7424 		leaq	31(%rsp), %rsi
 8320      1F
 8321 42a0 E8000000 		call	_ZNSs4_Rep10_M_disposeERKSaIcE.part.1
 8321      00
 8322              	.L1223:
 8323 42a5 488D7C24 		leaq	40(%rsp), %rdi
 8323      28
 8324 42aa 48C74424 		movq	$_ZTVN8UnitTest20DeferredTestReporterE+16, 32(%rsp)
 8324      20000000 
 8324      00
 8325 42b3 E8000000 		call	_ZNSt6vectorIN8UnitTest18DeferredTestResultESaIS1_EED1Ev
 8325      00
 8326 42b8 488D7C24 		leaq	32(%rsp), %rdi
 8326      20
 8327 42bd E8000000 		call	_ZN8UnitTest12TestReporterD2Ev
 8327      00
 8328 42c2 4889DF   		movq	%rbx, %rdi
 8329 42c5 4889EA   		movq	%rbp, %rdx
 8330 42c8 31DB     		xorl	%ebx, %ebx
 8331 42ca E9F0FEFF 		jmp	.L1224
 8331      FF
 8332              	.L1293:
 8333 42cf 4889C3   		movq	%rax, %rbx
 8334 42d2 4889D5   		movq	%rdx, %rbp
 8335 42d5 EB96     		jmp	.L1219
 8336              	.L1289:
 8337 42d7 488DBC24 		leaq	144(%rsp), %rdi
 8337      90000000 
 8338 42df 4889C3   		movq	%rax, %rbx
 8339 42e2 E8000000 		call	_ZN8UnitTest15MemoryOutStreamD1Ev
 8339      00
 8340              	.L1279:
 8341 42e7 E8000000 		call	__cxa_end_catch
 8341      00
 8342 42ec 4889DF   		movq	%rbx, %rdi
 8343              	.LEHB218:
 8344 42ef E8000000 		call	_Unwind_Resume
 8344      00
 8345              	.LEHE218:
 8346              	.L1288:
 8347              	.L1318:
 8348 42f4 4889C3   		movq	%rax, %rbx
 8349 42f7 EBEE     		jmp	.L1279
 8350              	.L1330:
 8351 42f9 E8000000 		call	__cxa_begin_catch
 8351      00
 8352 42fe 84DB     		testb	%bl, %bl
 8353 4300 BA530000 		movl	$83, %edx
 8353      00
 8354 4305 4C89EE   		movq	%r13, %rsi
 8355 4308 488D7C24 		leaq	32(%rsp), %rdi
 8355      20
 8356 430d 0F849400 		je	.L1282
 8356      0000
 8357              	.LEHB219:
 8358 4313 E8000000 		call	_ZN8UnitTest11TestDetailsC1ERKS0_i
 8358      00
 8359 4318 E8000000 		call	_ZN8UnitTest11CurrentTest7ResultsEv
 8359      00
 8360 431d 488B38   		movq	(%rax), %rdi
 8361 4320 488D7424 		leaq	32(%rsp), %rsi
 8361      20
 8362 4325 BA000000 		movl	$.LC42, %edx
 8362      00
 8363 432a E8000000 		call	_ZN8UnitTest11TestResults13OnTestFailureERKNS_11TestDetailsEPKc
 8363      00
 8364              	.LEHE219:
 8365              	.L1283:
 8366              	.LEHB220:
 8367 432f E8000000 		call	__cxa_end_catch
 8367      00
 8368              	.LEHE220:
 8369 4334 E9AFFCFF 		jmp	.L1215
 8369      FF
 8370              	.L1275:
 8371 4339 E8000000 		call	__cxa_begin_catch
 8371      00
 8372 433e 4889C3   		movq	%rax, %rbx
 8373 4341 488B00   		movq	(%rax), %rax
 8374 4344 4889DF   		movq	%rbx, %rdi
 8375 4347 FF5010   		call	*16(%rax)
 8376 434a 4889DF   		movq	%rbx, %rdi
 8377 434d 4889C5   		movq	%rax, %rbp
 8378              	.LEHB221:
 8379 4350 E8000000 		call	_ZNK8UnitTest15AssertException10LineNumberEv
 8379      00
 8380 4355 4889DF   		movq	%rbx, %rdi
 8381 4358 4189C4   		movl	%eax, %r12d
 8382 435b E8000000 		call	_ZNK8UnitTest15AssertException8FilenameEv
 8382      00
 8383 4360 488B7424 		movq	8(%rsp), %rsi
 8383      08
 8384 4365 488D7C24 		leaq	32(%rsp), %rdi
 8384      20
 8385 436a 4589E0   		movl	%r12d, %r8d
 8386 436d 4889C1   		movq	%rax, %rcx
 8387 4370 488B5608 		movq	8(%rsi), %rdx
 8388 4374 488B7610 		movq	16(%rsi), %rsi
 8389 4378 E8000000 		call	_ZN8UnitTest11TestDetailsC1EPKcS2_S2_i
 8389      00
 8390 437d E8000000 		call	_ZN8UnitTest11CurrentTest7ResultsEv
 8390      00
 8391 4382 488B38   		movq	(%rax), %rdi
 8392 4385 488D7424 		leaq	32(%rsp), %rsi
 8392      20
 8393 438a 4889EA   		movq	%rbp, %rdx
 8394 438d E8000000 		call	_ZN8UnitTest11TestResults13OnTestFailureERKNS_11TestDetailsEPKc
 8394      00
 8395              	.LEHE221:
 8396 4392 E9AAFEFF 		jmp	.L1317
 8396      FF
 8397              	.L1290:
 8398 4397 4889C3   		movq	%rax, %rbx
 8399 439a E8000000 		call	__cxa_end_catch
 8399      00
 8400 439f 4889DF   		movq	%rbx, %rdi
 8401              	.LEHB222:
 8402 43a2 E8000000 		call	_Unwind_Resume
 8402      00
 8403              	.LEHE222:
 8404              	.L1282:
 8405              	.LEHB223:
 8406 43a7 E8000000 		call	_ZN8UnitTest11TestDetailsC1ERKS0_i
 8406      00
 8407 43ac E8000000 		call	_ZN8UnitTest11CurrentTest7ResultsEv
 8407      00
 8408 43b1 488B38   		movq	(%rax), %rdi
 8409 43b4 488D7424 		leaq	32(%rsp), %rsi
 8409      20
 8410 43b9 BA000000 		movl	$.LC43, %edx
 8410      00
 8411 43be E8000000 		call	_ZN8UnitTest11TestResults13OnTestFailureERKNS_11TestDetailsEPKc
 8411      00
 8412              	.LEHE223:
 8413 43c3 E967FFFF 		jmp	.L1283
 8413      FF
 8414              	.L1287:
 8415 43c8 E927FFFF 		jmp	.L1318
 8415      FF
 8416              	.L1292:
 8417 43cd 4889C3   		movq	%rax, %rbx
 8418 43d0 4889D5   		movq	%rdx, %rbp
 8419 43d3 E9B1FEFF 		jmp	.L1221
 8419      FF
 8420              	.L1286:
 8421 43d8 488D7C24 		leaq	32(%rsp), %rdi
 8421      20
 8422 43dd 4889C3   		movq	%rax, %rbx
 8423 43e0 4889D5   		movq	%rdx, %rbp
 8424 43e3 E8000000 		call	_ZN8UnitTest12_GLOBAL__N_127DeferredTestReporterFixtureD2Ev
 8424      00
 8425 43e8 4889DF   		movq	%rbx, %rdi
 8426 43eb 4889EA   		movq	%rbp, %rdx
 8427 43ee BB010000 		movl	$1, %ebx
 8427      00
 8428 43f3 E9C7FDFF 		jmp	.L1224
 8428      FF
 8429              	.L1328:
 8430 43f8 E8000000 		call	__stack_chk_fail
 8430      00
 8431              	.L1291:
 8432 43fd 4889C3   		movq	%rax, %rbx
 8433 4400 4889D5   		movq	%rdx, %rbp
 8434 4403 E99DFEFF 		jmp	.L1223
 8434      FF
 8435              		.cfi_endproc
 8436              	.LFE1459:
 8437              		.section	.gcc_except_table
 8438              		.align 4
 8439              	.LLSDA1459:
 8440 05c4 FF       		.byte	0xff
 8441 05c5 03       		.byte	0x3
 8442 05c6 6D       		.uleb128 .LLSDATT1459-.LLSDATTD1459
 8443              	.LLSDATTD1459:
 8444 05c7 01       		.byte	0x1
 8445 05c8 55       		.uleb128 .LLSDACSE1459-.LLSDACSB1459
 8446              	.LLSDACSB1459:
 8447 05c9 64       		.uleb128 .LEHB209-.LFB1459
 8448 05ca 05       		.uleb128 .LEHE209-.LEHB209
 8449 05cb AD0C     		.uleb128 .L1291-.LFB1459
 8450 05cd 07       		.uleb128 0x7
 8451 05ce 7C       		.uleb128 .LEHB210-.LFB1459
 8452 05cf 05       		.uleb128 .LEHE210-.LEHB210
 8453 05d0 FD0B     		.uleb128 .L1292-.LFB1459
 8454 05d2 07       		.uleb128 0x7
 8455 05d3 9401     		.uleb128 .LEHB211-.LFB1459
 8456 05d5 05       		.uleb128 .LEHE211-.LEHB211
 8457 05d6 FF09     		.uleb128 .L1293-.LFB1459
 8458 05d8 07       		.uleb128 0x7
 8459 05d9 BF01     		.uleb128 .LEHB212-.LFB1459
 8460 05db 05       		.uleb128 .LEHE212-.LEHB212
 8461 05dc FB08     		.uleb128 .L1294-.LFB1459
 8462 05de 07       		.uleb128 0x7
 8463 05df D401     		.uleb128 .LEHB213-.LFB1459
 8464 05e1 05       		.uleb128 .LEHE213-.LEHB213
 8465 05e2 880C     		.uleb128 .L1286-.LFB1459
 8466 05e4 07       		.uleb128 0x7
 8467 05e5 9304     		.uleb128 .LEHB214-.LFB1459
 8468 05e7 05       		.uleb128 .LEHE214-.LEHB214
 8469 05e8 E707     		.uleb128 .L1285-.LFB1459
 8470 05ea 05       		.uleb128 0x5
 8471 05eb 9308     		.uleb128 .LEHB215-.LFB1459
 8472 05ed 05       		.uleb128 .LEHE215-.LEHB215
 8473 05ee A40A     		.uleb128 .L1288-.LFB1459
 8474 05f0 00       		.uleb128 0
 8475 05f1 B108     		.uleb128 .LEHB216-.LFB1459
 8476 05f3 33       		.uleb128 .LEHE216-.LEHB216
 8477 05f4 870A     		.uleb128 .L1289-.LFB1459
 8478 05f6 00       		.uleb128 0
 8479 05f7 EC08     		.uleb128 .LEHB217-.LFB1459
 8480 05f9 05       		.uleb128 .LEHE217-.LEHB217
 8481 05fa A40A     		.uleb128 .L1288-.LFB1459
 8482 05fc 00       		.uleb128 0
 8483 05fd 9F0A     		.uleb128 .LEHB218-.LFB1459
 8484 05ff 05       		.uleb128 .LEHE218-.LEHB218
 8485 0600 00       		.uleb128 0
 8486 0601 00       		.uleb128 0
 8487 0602 C30A     		.uleb128 .LEHB219-.LFB1459
 8488 0604 1C       		.uleb128 .LEHE219-.LEHB219
 8489 0605 C70B     		.uleb128 .L1290-.LFB1459
 8490 0607 00       		.uleb128 0
 8491 0608 DF0A     		.uleb128 .LEHB220-.LFB1459
 8492 060a 05       		.uleb128 .LEHE220-.LEHB220
 8493 060b 00       		.uleb128 0
 8494 060c 00       		.uleb128 0
 8495 060d 800B     		.uleb128 .LEHB221-.LFB1459
 8496 060f 42       		.uleb128 .LEHE221-.LEHB221
 8497 0610 F80B     		.uleb128 .L1287-.LFB1459
 8498 0612 00       		.uleb128 0
 8499 0613 D20B     		.uleb128 .LEHB222-.LFB1459
 8500 0615 05       		.uleb128 .LEHE222-.LEHB222
 8501 0616 00       		.uleb128 0
 8502 0617 00       		.uleb128 0
 8503 0618 D70B     		.uleb128 .LEHB223-.LFB1459
 8504 061a 1C       		.uleb128 .LEHE223-.LEHB223
 8505 061b C70B     		.uleb128 .L1290-.LFB1459
 8506 061d 00       		.uleb128 0
 8507              	.LLSDACSE1459:
 8508 061e 03       		.byte	0x3
 8509 061f 00       		.byte	0
 8510 0620 02       		.byte	0x2
 8511 0621 7D       		.byte	0x7d
 8512 0622 01       		.byte	0x1
 8513 0623 7D       		.byte	0x7d
 8514 0624 00       		.byte	0
 8515 0625 7D       		.byte	0x7d
 8516 0626 0000     		.align 4
 8517 0628 00000000 		.long	0
 8518              	
 8519 062c 00000000 		.long	_ZTISt9exception
 8520 0630 00000000 		.long	_ZTIN8UnitTest15AssertExceptionE
 8521              	.LLSDATT1459:
 8522              		.text
 8524              		.section	.text.unlikely
 8525              	.LCOLDE70:
 8526              		.text
 8527              	.LHOTE70:
 8528              		.section	.rodata.str1.1
 8529              	.LC71:
 8530 00d8 54657374 		.string	"TestDeferredTestReporter.cpp"
 8530      44656665 
 8530      72726564 
 8530      54657374 
 8530      5265706F 
 8531              	.LC72:
 8532 00f5 44656661 		.string	"DefaultSuite"
 8532      756C7453 
 8532      75697465 
 8532      00
 8533              		.section	.rodata.str1.8
 8534              		.align 8
 8535              	.LC73:
 8536 03b0 5265706F 		.string	"ReportTestStartCreatesANewDeferredTest"
 8536      72745465 
 8536      73745374 
 8536      61727443 
 8536      72656174 
 8537 03d7 00       		.align 8
 8538              	.LC74:
 8539 03d8 5265706F 		.string	"ReportTestStartCapturesTestNameAndSuite"
 8539      72745465 
 8539      73745374 
 8539      61727443 
 8539      61707475 
 8540              		.section	.rodata.str1.1
 8541              	.LC75:
 8542 0102 5265706F 		.string	"ReportTestEndCapturesTestTime"
 8542      72745465 
 8542      7374456E 
 8542      64436170 
 8542      74757265 
 8543              		.section	.rodata.str1.8
 8544              		.align 8
 8545              	.LC76:
 8546 0400 5265706F 		.string	"ReportFailureSavesFailureDetails"
 8546      72744661 
 8546      696C7572 
 8546      65536176 
 8546      65734661 
 8547 0421 00000000 		.align 8
 8547      000000
 8548              	.LC77:
 8549 0428 5265706F 		.string	"ReportFailureSavesFailureDetailsForMultipleFailures"
 8549      72744661 
 8549      696C7572 
 8549      65536176 
 8549      65734661 
 8550 045c 00000000 		.align 8
 8551              	.LC78:
 8552 0460 44656665 		.string	"DeferredTestReporterTakesCopyOfFailureMessage"
 8552      72726564 
 8552      54657374 
 8552      5265706F 
 8552      72746572 
 8553              		.section	.text.unlikely
 8554              	.LCOLDB79:
 8555              		.section	.text.startup,"ax",@progbits
 8556              	.LHOTB79:
 8557              		.p2align 4,,15
 8559              	_GLOBAL__sub_I_TestDeferredTestReporter.cpp:
 8560              	.LFB1681:
 8561              		.cfi_startproc
 8562 0000 4883EC08 		subq	$8, %rsp
 8563              		.cfi_def_cfa_offset 16
 8564 0004 41B82E00 		movl	$46, %r8d
 8564      0000
 8565 000a B9000000 		movl	$.LC71, %ecx
 8565      00
 8566 000f BA000000 		movl	$.LC72, %edx
 8566      00
 8567 0014 BE000000 		movl	$.LC73, %esi
 8567      00
 8568 0019 BF000000 		movl	$_ZN8UnitTest12_GLOBAL__N_177testDeferredTestReporterFixtureReportTestStartCreatesANewDeferre
 8568      00
 8569 001e E8000000 		call	_ZN8UnitTest4TestC2EPKcS2_S2_i
 8569      00
 8570 0023 BA000000 		movl	$__dso_handle, %edx
 8570      00
 8571 0028 BE000000 		movl	$_ZN8UnitTest12_GLOBAL__N_177testDeferredTestReporterFixtureReportTestStartCreatesANewDeferre
 8571      00
 8572 002d BF000000 		movl	$_ZN8UnitTest12_GLOBAL__N_169TestDeferredTestReporterFixtureReportTestStartCreatesANewDeferre
 8572      00
 8573 0032 48C70500 		movq	$_ZTVN8UnitTest12_GLOBAL__N_169TestDeferredTestReporterFixtureReportTestStartCreatesANewDefer
 8573      00000000 
 8573      000000
 8574 003d E8000000 		call	__cxa_atexit
 8574      00
 8575 0042 E8000000 		call	_ZN8UnitTest4Test11GetTestListEv
 8575      00
 8576 0047 BA000000 		movl	$_ZN8UnitTest12_GLOBAL__N_177testDeferredTestReporterFixtureReportTestStartCreatesANewDeferre
 8576      00
 8577 004c 4889C6   		movq	%rax, %rsi
 8578 004f BF000000 		movl	$_ZN8UnitTest12_GLOBAL__N_170adderDeferredTestReporterFixtureReportTestStartCreatesANewDeferr
 8578      00
 8579 0054 E8000000 		call	_ZN8UnitTest9ListAdderC1ERNS_8TestListEPNS_4TestE
 8579      00
 8580 0059 41B83400 		movl	$52, %r8d
 8580      0000
 8581 005f B9000000 		movl	$.LC71, %ecx
 8581      00
 8582 0064 BA000000 		movl	$.LC72, %edx
 8582      00
 8583 0069 BE000000 		movl	$.LC74, %esi
 8583      00
 8584 006e BF000000 		movl	$_ZN8UnitTest12_GLOBAL__N_178testDeferredTestReporterFixtureReportTestStartCapturesTestNameAn
 8584      00
 8585 0073 E8000000 		call	_ZN8UnitTest4TestC2EPKcS2_S2_i
 8585      00
 8586 0078 BA000000 		movl	$__dso_handle, %edx
 8586      00
 8587 007d BE000000 		movl	$_ZN8UnitTest12_GLOBAL__N_178testDeferredTestReporterFixtureReportTestStartCapturesTestNameAn
 8587      00
 8588 0082 BF000000 		movl	$_ZN8UnitTest12_GLOBAL__N_170TestDeferredTestReporterFixtureReportTestStartCapturesTestNameAn
 8588      00
 8589 0087 48C70500 		movq	$_ZTVN8UnitTest12_GLOBAL__N_170TestDeferredTestReporterFixtureReportTestStartCapturesTestName
 8589      00000000 
 8589      000000
 8590 0092 E8000000 		call	__cxa_atexit
 8590      00
 8591 0097 E8000000 		call	_ZN8UnitTest4Test11GetTestListEv
 8591      00
 8592 009c BA000000 		movl	$_ZN8UnitTest12_GLOBAL__N_178testDeferredTestReporterFixtureReportTestStartCapturesTestNameAn
 8592      00
 8593 00a1 4889C6   		movq	%rax, %rsi
 8594 00a4 BF000000 		movl	$_ZN8UnitTest12_GLOBAL__N_171adderDeferredTestReporterFixtureReportTestStartCapturesTestNameA
 8594      00
 8595 00a9 E8000000 		call	_ZN8UnitTest9ListAdderC1ERNS_8TestListEPNS_4TestE
 8595      00
 8596 00ae 41B83D00 		movl	$61, %r8d
 8596      0000
 8597 00b4 B9000000 		movl	$.LC71, %ecx
 8597      00
 8598 00b9 BA000000 		movl	$.LC72, %edx
 8598      00
 8599 00be BE000000 		movl	$.LC75, %esi
 8599      00
 8600 00c3 BF000000 		movl	$_ZN8UnitTest12_GLOBAL__N_168testDeferredTestReporterFixtureReportTestEndCapturesTestTimeInst
 8600      00
 8601 00c8 E8000000 		call	_ZN8UnitTest4TestC2EPKcS2_S2_i
 8601      00
 8602 00cd BA000000 		movl	$__dso_handle, %edx
 8602      00
 8603 00d2 BE000000 		movl	$_ZN8UnitTest12_GLOBAL__N_168testDeferredTestReporterFixtureReportTestEndCapturesTestTimeInst
 8603      00
 8604 00d7 BF000000 		movl	$_ZN8UnitTest12_GLOBAL__N_160TestDeferredTestReporterFixtureReportTestEndCapturesTestTimeD1Ev
 8604      00
 8605 00dc 48C70500 		movq	$_ZTVN8UnitTest12_GLOBAL__N_160TestDeferredTestReporterFixtureReportTestEndCapturesTestTimeE+
 8605      00000000 
 8605      000000
 8606 00e7 E8000000 		call	__cxa_atexit
 8606      00
 8607 00ec E8000000 		call	_ZN8UnitTest4Test11GetTestListEv
 8607      00
 8608 00f1 BA000000 		movl	$_ZN8UnitTest12_GLOBAL__N_168testDeferredTestReporterFixtureReportTestEndCapturesTestTimeInst
 8608      00
 8609 00f6 4889C6   		movq	%rax, %rsi
 8610 00f9 BF000000 		movl	$_ZN8UnitTest12_GLOBAL__N_161adderDeferredTestReporterFixtureReportTestEndCapturesTestTimeE, 
 8610      00
 8611 00fe E8000000 		call	_ZN8UnitTest9ListAdderC1ERNS_8TestListEPNS_4TestE
 8611      00
 8612 0103 41B84700 		movl	$71, %r8d
 8612      0000
 8613 0109 B9000000 		movl	$.LC71, %ecx
 8613      00
 8614 010e BA000000 		movl	$.LC72, %edx
 8614      00
 8615 0113 BE000000 		movl	$.LC76, %esi
 8615      00
 8616 0118 BF000000 		movl	$_ZN8UnitTest12_GLOBAL__N_171testDeferredTestReporterFixtureReportFailureSavesFailureDetailsI
 8616      00
 8617 011d E8000000 		call	_ZN8UnitTest4TestC2EPKcS2_S2_i
 8617      00
 8618 0122 BA000000 		movl	$__dso_handle, %edx
 8618      00
 8619 0127 BE000000 		movl	$_ZN8UnitTest12_GLOBAL__N_171testDeferredTestReporterFixtureReportFailureSavesFailureDetailsI
 8619      00
 8620 012c BF000000 		movl	$_ZN8UnitTest12_GLOBAL__N_163TestDeferredTestReporterFixtureReportFailureSavesFailureDetailsD
 8620      00
 8621 0131 48C70500 		movq	$_ZTVN8UnitTest12_GLOBAL__N_163TestDeferredTestReporterFixtureReportFailureSavesFailureDetail
 8621      00000000 
 8621      000000
 8622 013c E8000000 		call	__cxa_atexit
 8622      00
 8623 0141 E8000000 		call	_ZN8UnitTest4Test11GetTestListEv
 8623      00
 8624 0146 BA000000 		movl	$_ZN8UnitTest12_GLOBAL__N_171testDeferredTestReporterFixtureReportFailureSavesFailureDetailsI
 8624      00
 8625 014b 4889C6   		movq	%rax, %rsi
 8626 014e BF000000 		movl	$_ZN8UnitTest12_GLOBAL__N_164adderDeferredTestReporterFixtureReportFailureSavesFailureDetails
 8626      00
 8627 0153 E8000000 		call	_ZN8UnitTest9ListAdderC1ERNS_8TestListEPNS_4TestE
 8627      00
 8628 0158 41B85300 		movl	$83, %r8d
 8628      0000
 8629 015e B9000000 		movl	$.LC71, %ecx
 8629      00
 8630 0163 BA000000 		movl	$.LC72, %edx
 8630      00
 8631 0168 BE000000 		movl	$.LC77, %esi
 8631      00
 8632 016d BF000000 		movl	$_ZN8UnitTest12_GLOBAL__N_190testDeferredTestReporterFixtureReportFailureSavesFailureDetailsF
 8632      00
 8633 0172 E8000000 		call	_ZN8UnitTest4TestC2EPKcS2_S2_i
 8633      00
 8634 0177 BA000000 		movl	$__dso_handle, %edx
 8634      00
 8635 017c BE000000 		movl	$_ZN8UnitTest12_GLOBAL__N_190testDeferredTestReporterFixtureReportFailureSavesFailureDetailsF
 8635      00
 8636 0181 BF000000 		movl	$_ZN8UnitTest12_GLOBAL__N_182TestDeferredTestReporterFixtureReportFailureSavesFailureDetailsF
 8636      00
 8637 0186 48C70500 		movq	$_ZTVN8UnitTest12_GLOBAL__N_182TestDeferredTestReporterFixtureReportFailureSavesFailureDetail
 8637      00000000 
 8637      000000
 8638 0191 E8000000 		call	__cxa_atexit
 8638      00
 8639 0196 E8000000 		call	_ZN8UnitTest4Test11GetTestListEv
 8639      00
 8640 019b BA000000 		movl	$_ZN8UnitTest12_GLOBAL__N_190testDeferredTestReporterFixtureReportFailureSavesFailureDetailsF
 8640      00
 8641 01a0 4889C6   		movq	%rax, %rsi
 8642 01a3 BF000000 		movl	$_ZN8UnitTest12_GLOBAL__N_183adderDeferredTestReporterFixtureReportFailureSavesFailureDetails
 8642      00
 8643 01a8 E8000000 		call	_ZN8UnitTest9ListAdderC1ERNS_8TestListEPNS_4TestE
 8643      00
 8644 01ad 41B86200 		movl	$98, %r8d
 8644      0000
 8645 01b3 B9000000 		movl	$.LC71, %ecx
 8645      00
 8646 01b8 BA000000 		movl	$.LC72, %edx
 8646      00
 8647 01bd BE000000 		movl	$.LC78, %esi
 8647      00
 8648 01c2 BF000000 		movl	$_ZN8UnitTest12_GLOBAL__N_184testDeferredTestReporterFixtureDeferredTestReporterTakesCopyOfFa
 8648      00
 8649 01c7 E8000000 		call	_ZN8UnitTest4TestC2EPKcS2_S2_i
 8649      00
 8650 01cc BA000000 		movl	$__dso_handle, %edx
 8650      00
 8651 01d1 BE000000 		movl	$_ZN8UnitTest12_GLOBAL__N_184testDeferredTestReporterFixtureDeferredTestReporterTakesCopyOfFa
 8651      00
 8652 01d6 BF000000 		movl	$_ZN8UnitTest12_GLOBAL__N_176TestDeferredTestReporterFixtureDeferredTestReporterTakesCopyOfFa
 8652      00
 8653 01db 48C70500 		movq	$_ZTVN8UnitTest12_GLOBAL__N_176TestDeferredTestReporterFixtureDeferredTestReporterTakesCopyOf
 8653      00000000 
 8653      000000
 8654 01e6 E8000000 		call	__cxa_atexit
 8654      00
 8655 01eb E8000000 		call	_ZN8UnitTest4Test11GetTestListEv
 8655      00
 8656 01f0 BA000000 		movl	$_ZN8UnitTest12_GLOBAL__N_184testDeferredTestReporterFixtureDeferredTestReporterTakesCopyOfFa
 8656      00
 8657 01f5 4889C6   		movq	%rax, %rsi
 8658 01f8 BF000000 		movl	$_ZN8UnitTest12_GLOBAL__N_177adderDeferredTestReporterFixtureDeferredTestReporterTakesCopyOfF
 8658      00
 8659 01fd 4883C408 		addq	$8, %rsp
 8660              		.cfi_def_cfa_offset 8
 8661 0201 E9000000 		jmp	_ZN8UnitTest9ListAdderC1ERNS_8TestListEPNS_4TestE
 8661      00
 8662              		.cfi_endproc
 8663              	.LFE1681:
 8665              		.section	.text.unlikely
 8666              	.LCOLDE79:
 8667              		.section	.text.startup
 8668              	.LHOTE79:
 8669              		.section	.init_array,"aw"
 8670              		.align 8
 8671 0000 00000000 		.quad	_GLOBAL__sub_I_TestDeferredTestReporter.cpp
 8671      00000000 
 8672              		.section	.rodata
 8673              		.align 32
 8676              	_ZTSN8UnitTest12_GLOBAL__N_124MockDeferredTestReporterE:
 8677 0000 2A4E3855 		.string	"*N8UnitTest12_GLOBAL__N_124MockDeferredTestReporterE"
 8677      6E697454 
 8677      65737431 
 8677      325F474C 
 8677      4F42414C 
 8678 0035 00000000 		.align 64
 8678      00000000 
 8678      000000
 8681              	_ZTSN8UnitTest12_GLOBAL__N_169TestDeferredTestReporterFixtureReportTestStartCreatesANewDeferredTest
 8682 0040 2A4E3855 		.string	"*N8UnitTest12_GLOBAL__N_169TestDeferredTestReporterFixtureReportTestStartCreatesANewDefer
 8682      6E697454 
 8682      65737431 
 8682      325F474C 
 8682      4F42414C 
 8683 00a2 00000000 		.align 64
 8683      00000000 
 8683      00000000 
 8683      00000000 
 8683      00000000 
 8686              	_ZTSN8UnitTest12_GLOBAL__N_170TestDeferredTestReporterFixtureReportTestStartCapturesTestNameAndSuit
 8687 00c0 2A4E3855 		.string	"*N8UnitTest12_GLOBAL__N_170TestDeferredTestReporterFixtureReportTestStartCapturesTestName
 8687      6E697454 
 8687      65737431 
 8687      325F474C 
 8687      4F42414C 
 8688 0123 00000000 		.align 64
 8688      00000000 
 8688      00000000 
 8688      00000000 
 8688      00000000 
 8691              	_ZTSN8UnitTest12_GLOBAL__N_160TestDeferredTestReporterFixtureReportTestEndCapturesTestTimeE:
 8692 0140 2A4E3855 		.string	"*N8UnitTest12_GLOBAL__N_160TestDeferredTestReporterFixtureReportTestEndCapturesTestTimeE"
 8692      6E697454 
 8692      65737431 
 8692      325F474C 
 8692      4F42414C 
 8693 0199 00000000 		.align 64
 8693      00000000 
 8693      00000000 
 8693      00000000 
 8693      00000000 
 8696              	_ZTSN8UnitTest12_GLOBAL__N_163TestDeferredTestReporterFixtureReportFailureSavesFailureDetailsE:
 8697 01c0 2A4E3855 		.string	"*N8UnitTest12_GLOBAL__N_163TestDeferredTestReporterFixtureReportFailureSavesFailureDetail
 8697      6E697454 
 8697      65737431 
 8697      325F474C 
 8697      4F42414C 
 8698 021c 00000000 		.align 64
 8698      00000000 
 8698      00000000 
 8698      00000000 
 8698      00000000 
 8701              	_ZTSN8UnitTest12_GLOBAL__N_182TestDeferredTestReporterFixtureReportFailureSavesFailureDetailsForMul
 8702 0240 2A4E3855 		.string	"*N8UnitTest12_GLOBAL__N_182TestDeferredTestReporterFixtureReportFailureSavesFailureDetail
 8702      6E697454 
 8702      65737431 
 8702      325F474C 
 8702      4F42414C 
 8703 02af 00000000 		.align 64
 8703      00000000 
 8703      00000000 
 8703      00000000 
 8703      00
 8706              	_ZTSN8UnitTest12_GLOBAL__N_176TestDeferredTestReporterFixtureDeferredTestReporterTakesCopyOfFailure
 8707 02c0 2A4E3855 		.string	"*N8UnitTest12_GLOBAL__N_176TestDeferredTestReporterFixtureDeferredTestReporterTakesCopyOf
 8707      6E697454 
 8707      65737431 
 8707      325F474C 
 8707      4F42414C 
 8708 0329 00000000 		.align 16
 8708      000000
 8711              	_ZTIN8UnitTest12_GLOBAL__N_176TestDeferredTestReporterFixtureDeferredTestReporterTakesCopyOfFailure
 8712 0330 00000000 		.quad	_ZTVN10__cxxabiv120__si_class_type_infoE+16
 8712      00000000 
 8713 0338 00000000 		.quad	_ZTSN8UnitTest12_GLOBAL__N_176TestDeferredTestReporterFixtureDeferredTestReporterTakesCopyOf
 8713      00000000 
 8714 0340 00000000 		.quad	_ZTIN8UnitTest4TestE
 8714      00000000 
 8715 0348 00000000 		.align 16
 8715      00000000 
 8718              	_ZTIN8UnitTest12_GLOBAL__N_182TestDeferredTestReporterFixtureReportFailureSavesFailureDetailsForMul
 8719 0350 00000000 		.quad	_ZTVN10__cxxabiv120__si_class_type_infoE+16
 8719      00000000 
 8720 0358 00000000 		.quad	_ZTSN8UnitTest12_GLOBAL__N_182TestDeferredTestReporterFixtureReportFailureSavesFailureDetail
 8720      00000000 
 8721 0360 00000000 		.quad	_ZTIN8UnitTest4TestE
 8721      00000000 
 8722 0368 00000000 		.align 16
 8722      00000000 
 8725              	_ZTIN8UnitTest12_GLOBAL__N_163TestDeferredTestReporterFixtureReportFailureSavesFailureDetailsE:
 8726 0370 00000000 		.quad	_ZTVN10__cxxabiv120__si_class_type_infoE+16
 8726      00000000 
 8727 0378 00000000 		.quad	_ZTSN8UnitTest12_GLOBAL__N_163TestDeferredTestReporterFixtureReportFailureSavesFailureDetail
 8727      00000000 
 8728 0380 00000000 		.quad	_ZTIN8UnitTest4TestE
 8728      00000000 
 8729 0388 00000000 		.align 16
 8729      00000000 
 8732              	_ZTIN8UnitTest12_GLOBAL__N_160TestDeferredTestReporterFixtureReportTestEndCapturesTestTimeE:
 8733 0390 00000000 		.quad	_ZTVN10__cxxabiv120__si_class_type_infoE+16
 8733      00000000 
 8734 0398 00000000 		.quad	_ZTSN8UnitTest12_GLOBAL__N_160TestDeferredTestReporterFixtureReportTestEndCapturesTestTimeE
 8734      00000000 
 8735 03a0 00000000 		.quad	_ZTIN8UnitTest4TestE
 8735      00000000 
 8736 03a8 00000000 		.align 16
 8736      00000000 
 8739              	_ZTIN8UnitTest12_GLOBAL__N_170TestDeferredTestReporterFixtureReportTestStartCapturesTestNameAndSuit
 8740 03b0 00000000 		.quad	_ZTVN10__cxxabiv120__si_class_type_infoE+16
 8740      00000000 
 8741 03b8 00000000 		.quad	_ZTSN8UnitTest12_GLOBAL__N_170TestDeferredTestReporterFixtureReportTestStartCapturesTestName
 8741      00000000 
 8742 03c0 00000000 		.quad	_ZTIN8UnitTest4TestE
 8742      00000000 
 8743 03c8 00000000 		.align 16
 8743      00000000 
 8746              	_ZTIN8UnitTest12_GLOBAL__N_169TestDeferredTestReporterFixtureReportTestStartCreatesANewDeferredTest
 8747 03d0 00000000 		.quad	_ZTVN10__cxxabiv120__si_class_type_infoE+16
 8747      00000000 
 8748 03d8 00000000 		.quad	_ZTSN8UnitTest12_GLOBAL__N_169TestDeferredTestReporterFixtureReportTestStartCreatesANewDefer
 8748      00000000 
 8749 03e0 00000000 		.quad	_ZTIN8UnitTest4TestE
 8749      00000000 
 8750 03e8 00000000 		.align 16
 8750      00000000 
 8753              	_ZTIN8UnitTest12_GLOBAL__N_124MockDeferredTestReporterE:
 8754 03f0 00000000 		.quad	_ZTVN10__cxxabiv120__si_class_type_infoE+16
 8754      00000000 
 8755 03f8 00000000 		.quad	_ZTSN8UnitTest12_GLOBAL__N_124MockDeferredTestReporterE
 8755      00000000 
 8756 0400 00000000 		.quad	_ZTIN8UnitTest20DeferredTestReporterE
 8756      00000000 
 8757              		.weak	_ZTIN8UnitTest15MemoryOutStreamE
 8758              		.section	.rodata._ZTIN8UnitTest15MemoryOutStreamE,"aG",@progbits,_ZTIN8UnitTest15MemoryOutStreamE,
 8759              		.align 16
 8762              	_ZTIN8UnitTest15MemoryOutStreamE:
 8763 0000 00000000 		.quad	_ZTVN10__cxxabiv120__si_class_type_infoE+16
 8763      00000000 
 8764 0008 00000000 		.quad	_ZTSN8UnitTest15MemoryOutStreamE
 8764      00000000 
 8765 0010 00000000 		.quad	_ZTISt19basic_ostringstreamIcSt11char_traitsIcESaIcEE
 8765      00000000 
 8766              		.weak	_ZTSN8UnitTest15MemoryOutStreamE
 8767              		.section	.rodata._ZTSN8UnitTest15MemoryOutStreamE,"aG",@progbits,_ZTSN8UnitTest15MemoryOutStreamE,
 8768              		.align 16
 8771              	_ZTSN8UnitTest15MemoryOutStreamE:
 8772 0000 4E38556E 		.string	"N8UnitTest15MemoryOutStreamE"
 8772      69745465 
 8772      73743135 
 8772      4D656D6F 
 8772      72794F75 
 8773              		.hidden	_ZTCN8UnitTest15MemoryOutStreamE0_So
 8774              		.weak	_ZTCN8UnitTest15MemoryOutStreamE0_So
 8775              		.section	.rodata._ZTCN8UnitTest15MemoryOutStreamE0_So,"aG",@progbits,_ZTVN8UnitTest15MemoryOutStre
 8776              		.align 64
 8779              	_ZTCN8UnitTest15MemoryOutStreamE0_So:
 8780 0000 60000000 		.quad	96
 8780      00000000 
 8781 0008 00000000 		.quad	0
 8781      00000000 
 8782 0010 00000000 		.quad	_ZTISo
 8782      00000000 
 8783 0018 00000000 		.quad	0
 8783      00000000 
 8784 0020 00000000 		.quad	0
 8784      00000000 
 8785 0028 A0FFFFFF 		.quad	-96
 8785      FFFFFFFF 
 8786 0030 A0FFFFFF 		.quad	-96
 8786      FFFFFFFF 
 8787 0038 00000000 		.quad	_ZTISo
 8787      00000000 
 8788 0040 00000000 		.quad	0
 8788      00000000 
 8789 0048 00000000 		.quad	0
 8789      00000000 
 8790              		.hidden	_ZTCN8UnitTest15MemoryOutStreamE0_St19basic_ostringstreamIcSt11char_traitsIcESaIcEE
 8791              		.weak	_ZTCN8UnitTest15MemoryOutStreamE0_St19basic_ostringstreamIcSt11char_traitsIcESaIcEE
 8792              		.section	.rodata._ZTCN8UnitTest15MemoryOutStreamE0_St19basic_ostringstreamIcSt11char_traitsIcESaIc
 8793              		.align 64
 8796              	_ZTCN8UnitTest15MemoryOutStreamE0_St19basic_ostringstreamIcSt11char_traitsIcESaIcEE:
 8797 0000 60000000 		.quad	96
 8797      00000000 
 8798 0008 00000000 		.quad	0
 8798      00000000 
 8799 0010 00000000 		.quad	_ZTISt19basic_ostringstreamIcSt11char_traitsIcESaIcEE
 8799      00000000 
 8800 0018 00000000 		.quad	0
 8800      00000000 
 8801 0020 00000000 		.quad	0
 8801      00000000 
 8802 0028 A0FFFFFF 		.quad	-96
 8802      FFFFFFFF 
 8803 0030 A0FFFFFF 		.quad	-96
 8803      FFFFFFFF 
 8804 0038 00000000 		.quad	_ZTISt19basic_ostringstreamIcSt11char_traitsIcESaIcEE
 8804      00000000 
 8805 0040 00000000 		.quad	0
 8805      00000000 
 8806 0048 00000000 		.quad	0
 8806      00000000 
 8807              		.weak	_ZTTN8UnitTest15MemoryOutStreamE
 8808              		.section	.rodata._ZTTN8UnitTest15MemoryOutStreamE,"aG",@progbits,_ZTVN8UnitTest15MemoryOutStreamE,
 8809              		.align 32
 8812              	_ZTTN8UnitTest15MemoryOutStreamE:
 8813 0000 00000000 		.quad	_ZTVN8UnitTest15MemoryOutStreamE+24
 8813      00000000 
 8814 0008 00000000 		.quad	_ZTCN8UnitTest15MemoryOutStreamE0_St19basic_ostringstreamIcSt11char_traitsIcESaIcEE+24
 8814      00000000 
 8815 0010 00000000 		.quad	_ZTCN8UnitTest15MemoryOutStreamE0_So+24
 8815      00000000 
 8816 0018 00000000 		.quad	_ZTCN8UnitTest15MemoryOutStreamE0_So+64
 8816      00000000 
 8817 0020 00000000 		.quad	_ZTCN8UnitTest15MemoryOutStreamE0_St19basic_ostringstreamIcSt11char_traitsIcESaIcEE+64
 8817      00000000 
 8818 0028 00000000 		.quad	_ZTVN8UnitTest15MemoryOutStreamE+64
 8818      00000000 
 8819              		.weak	_ZTVN8UnitTest15MemoryOutStreamE
 8820              		.section	.rodata._ZTVN8UnitTest15MemoryOutStreamE,"aG",@progbits,_ZTVN8UnitTest15MemoryOutStreamE,
 8821              		.align 64
 8824              	_ZTVN8UnitTest15MemoryOutStreamE:
 8825 0000 60000000 		.quad	96
 8825      00000000 
 8826 0008 00000000 		.quad	0
 8826      00000000 
 8827 0010 00000000 		.quad	_ZTIN8UnitTest15MemoryOutStreamE
 8827      00000000 
 8828 0018 00000000 		.quad	_ZN8UnitTest15MemoryOutStreamD1Ev
 8828      00000000 
 8829 0020 00000000 		.quad	_ZN8UnitTest15MemoryOutStreamD0Ev
 8829      00000000 
 8830 0028 A0FFFFFF 		.quad	-96
 8830      FFFFFFFF 
 8831 0030 A0FFFFFF 		.quad	-96
 8831      FFFFFFFF 
 8832 0038 00000000 		.quad	_ZTIN8UnitTest15MemoryOutStreamE
 8832      00000000 
 8833 0040 00000000 		.quad	_ZTv0_n24_N8UnitTest15MemoryOutStreamD1Ev
 8833      00000000 
 8834 0048 00000000 		.quad	_ZTv0_n24_N8UnitTest15MemoryOutStreamD0Ev
 8834      00000000 
 8835              		.section	.rodata
 8836 0408 00000000 		.align 64
 8836      00000000 
 8836      00000000 
 8836      00000000 
 8836      00000000 
 8839              	_ZTVN8UnitTest12_GLOBAL__N_124MockDeferredTestReporterE:
 8840 0440 00000000 		.quad	0
 8840      00000000 
 8841 0448 00000000 		.quad	_ZTIN8UnitTest12_GLOBAL__N_124MockDeferredTestReporterE
 8841      00000000 
 8842 0450 00000000 		.quad	_ZN8UnitTest12_GLOBAL__N_124MockDeferredTestReporterD1Ev
 8842      00000000 
 8843 0458 00000000 		.quad	_ZN8UnitTest12_GLOBAL__N_124MockDeferredTestReporterD0Ev
 8843      00000000 
 8844 0460 00000000 		.quad	_ZN8UnitTest20DeferredTestReporter15ReportTestStartERKNS_11TestDetailsE
 8844      00000000 
 8845 0468 00000000 		.quad	_ZN8UnitTest20DeferredTestReporter13ReportFailureERKNS_11TestDetailsEPKc
 8845      00000000 
 8846 0470 00000000 		.quad	_ZN8UnitTest20DeferredTestReporter16ReportTestFinishERKNS_11TestDetailsEf
 8846      00000000 
 8847 0478 00000000 		.quad	_ZN8UnitTest12_GLOBAL__N_124MockDeferredTestReporter13ReportSummaryEiiif
 8847      00000000 
 8848              		.align 32
 8851              	_ZTVN8UnitTest12_GLOBAL__N_169TestDeferredTestReporterFixtureReportTestStartCreatesANewDeferredTest
 8852 0480 00000000 		.quad	0
 8852      00000000 
 8853 0488 00000000 		.quad	_ZTIN8UnitTest12_GLOBAL__N_169TestDeferredTestReporterFixtureReportTestStartCreatesANewDefer
 8853      00000000 
 8854 0490 00000000 		.quad	_ZN8UnitTest12_GLOBAL__N_169TestDeferredTestReporterFixtureReportTestStartCreatesANewDeferre
 8854      00000000 
 8855 0498 00000000 		.quad	_ZN8UnitTest12_GLOBAL__N_169TestDeferredTestReporterFixtureReportTestStartCreatesANewDeferre
 8855      00000000 
 8856 04a0 00000000 		.quad	_ZNK8UnitTest12_GLOBAL__N_169TestDeferredTestReporterFixtureReportTestStartCreatesANewDeferr
 8856      00000000 
 8857 04a8 00000000 		.align 32
 8857      00000000 
 8857      00000000 
 8857      00000000 
 8857      00000000 
 8860              	_ZTVN8UnitTest12_GLOBAL__N_170TestDeferredTestReporterFixtureReportTestStartCapturesTestNameAndSuit
 8861 04c0 00000000 		.quad	0
 8861      00000000 
 8862 04c8 00000000 		.quad	_ZTIN8UnitTest12_GLOBAL__N_170TestDeferredTestReporterFixtureReportTestStartCapturesTestName
 8862      00000000 
 8863 04d0 00000000 		.quad	_ZN8UnitTest12_GLOBAL__N_170TestDeferredTestReporterFixtureReportTestStartCapturesTestNameAn
 8863      00000000 
 8864 04d8 00000000 		.quad	_ZN8UnitTest12_GLOBAL__N_170TestDeferredTestReporterFixtureReportTestStartCapturesTestNameAn
 8864      00000000 
 8865 04e0 00000000 		.quad	_ZNK8UnitTest12_GLOBAL__N_170TestDeferredTestReporterFixtureReportTestStartCapturesTestNameA
 8865      00000000 
 8866 04e8 00000000 		.align 32
 8866      00000000 
 8866      00000000 
 8866      00000000 
 8866      00000000 
 8869              	_ZTVN8UnitTest12_GLOBAL__N_160TestDeferredTestReporterFixtureReportTestEndCapturesTestTimeE:
 8870 0500 00000000 		.quad	0
 8870      00000000 
 8871 0508 00000000 		.quad	_ZTIN8UnitTest12_GLOBAL__N_160TestDeferredTestReporterFixtureReportTestEndCapturesTestTimeE
 8871      00000000 
 8872 0510 00000000 		.quad	_ZN8UnitTest12_GLOBAL__N_160TestDeferredTestReporterFixtureReportTestEndCapturesTestTimeD1Ev
 8872      00000000 
 8873 0518 00000000 		.quad	_ZN8UnitTest12_GLOBAL__N_160TestDeferredTestReporterFixtureReportTestEndCapturesTestTimeD0Ev
 8873      00000000 
 8874 0520 00000000 		.quad	_ZNK8UnitTest12_GLOBAL__N_160TestDeferredTestReporterFixtureReportTestEndCapturesTestTime7Ru
 8874      00000000 
 8875 0528 00000000 		.align 32
 8875      00000000 
 8875      00000000 
 8875      00000000 
 8875      00000000 
 8878              	_ZTVN8UnitTest12_GLOBAL__N_163TestDeferredTestReporterFixtureReportFailureSavesFailureDetailsE:
 8879 0540 00000000 		.quad	0
 8879      00000000 
 8880 0548 00000000 		.quad	_ZTIN8UnitTest12_GLOBAL__N_163TestDeferredTestReporterFixtureReportFailureSavesFailureDetail
 8880      00000000 
 8881 0550 00000000 		.quad	_ZN8UnitTest12_GLOBAL__N_163TestDeferredTestReporterFixtureReportFailureSavesFailureDetailsD
 8881      00000000 
 8882 0558 00000000 		.quad	_ZN8UnitTest12_GLOBAL__N_163TestDeferredTestReporterFixtureReportFailureSavesFailureDetailsD
 8882      00000000 
 8883 0560 00000000 		.quad	_ZNK8UnitTest12_GLOBAL__N_163TestDeferredTestReporterFixtureReportFailureSavesFailureDetails
 8883      00000000 
 8884 0568 00000000 		.align 32
 8884      00000000 
 8884      00000000 
 8884      00000000 
 8884      00000000 
 8887              	_ZTVN8UnitTest12_GLOBAL__N_182TestDeferredTestReporterFixtureReportFailureSavesFailureDetailsForMul
 8888 0580 00000000 		.quad	0
 8888      00000000 
 8889 0588 00000000 		.quad	_ZTIN8UnitTest12_GLOBAL__N_182TestDeferredTestReporterFixtureReportFailureSavesFailureDetail
 8889      00000000 
 8890 0590 00000000 		.quad	_ZN8UnitTest12_GLOBAL__N_182TestDeferredTestReporterFixtureReportFailureSavesFailureDetailsF
 8890      00000000 
 8891 0598 00000000 		.quad	_ZN8UnitTest12_GLOBAL__N_182TestDeferredTestReporterFixtureReportFailureSavesFailureDetailsF
 8891      00000000 
 8892 05a0 00000000 		.quad	_ZNK8UnitTest12_GLOBAL__N_182TestDeferredTestReporterFixtureReportFailureSavesFailureDetails
 8892      00000000 
 8893 05a8 00000000 		.align 32
 8893      00000000 
 8893      00000000 
 8893      00000000 
 8893      00000000 
 8896              	_ZTVN8UnitTest12_GLOBAL__N_176TestDeferredTestReporterFixtureDeferredTestReporterTakesCopyOfFailure
 8897 05c0 00000000 		.quad	0
 8897      00000000 
 8898 05c8 00000000 		.quad	_ZTIN8UnitTest12_GLOBAL__N_176TestDeferredTestReporterFixtureDeferredTestReporterTakesCopyOf
 8898      00000000 
 8899 05d0 00000000 		.quad	_ZN8UnitTest12_GLOBAL__N_176TestDeferredTestReporterFixtureDeferredTestReporterTakesCopyOfFa
 8899      00000000 
 8900 05d8 00000000 		.quad	_ZN8UnitTest12_GLOBAL__N_176TestDeferredTestReporterFixtureDeferredTestReporterTakesCopyOfFa
 8900      00000000 
 8901 05e0 00000000 		.quad	_ZNK8UnitTest12_GLOBAL__N_176TestDeferredTestReporterFixtureDeferredTestReporterTakesCopyOfF
 8901      00000000 
 8902              		.local	_ZN8UnitTest12_GLOBAL__N_177adderDeferredTestReporterFixtureDeferredTestReporterTakesCopyOf
 8903              		.comm	_ZN8UnitTest12_GLOBAL__N_177adderDeferredTestReporterFixtureDeferredTestReporterTakesCopyOfF
 8904              		.local	_ZN8UnitTest12_GLOBAL__N_184testDeferredTestReporterFixtureDeferredTestReporterTakesCopyOfF
 8905              		.comm	_ZN8UnitTest12_GLOBAL__N_184testDeferredTestReporterFixtureDeferredTestReporterTakesCopyOfFa
 8906              		.local	_ZN8UnitTest12_GLOBAL__N_183adderDeferredTestReporterFixtureReportFailureSavesFailureDetail
 8907              		.comm	_ZN8UnitTest12_GLOBAL__N_183adderDeferredTestReporterFixtureReportFailureSavesFailureDetails
 8908              		.local	_ZN8UnitTest12_GLOBAL__N_190testDeferredTestReporterFixtureReportFailureSavesFailureDetails
 8909              		.comm	_ZN8UnitTest12_GLOBAL__N_190testDeferredTestReporterFixtureReportFailureSavesFailureDetailsF
 8910              		.local	_ZN8UnitTest12_GLOBAL__N_164adderDeferredTestReporterFixtureReportFailureSavesFailureDetail
 8911              		.comm	_ZN8UnitTest12_GLOBAL__N_164adderDeferredTestReporterFixtureReportFailureSavesFailureDetails
 8912              		.local	_ZN8UnitTest12_GLOBAL__N_171testDeferredTestReporterFixtureReportFailureSavesFailureDetails
 8913              		.comm	_ZN8UnitTest12_GLOBAL__N_171testDeferredTestReporterFixtureReportFailureSavesFailureDetailsI
 8914              		.local	_ZN8UnitTest12_GLOBAL__N_161adderDeferredTestReporterFixtureReportTestEndCapturesTestTimeE
 8915              		.comm	_ZN8UnitTest12_GLOBAL__N_161adderDeferredTestReporterFixtureReportTestEndCapturesTestTimeE,1
 8916              		.local	_ZN8UnitTest12_GLOBAL__N_168testDeferredTestReporterFixtureReportTestEndCapturesTestTimeIns
 8917              		.comm	_ZN8UnitTest12_GLOBAL__N_168testDeferredTestReporterFixtureReportTestEndCapturesTestTimeInst
 8918              		.local	_ZN8UnitTest12_GLOBAL__N_171adderDeferredTestReporterFixtureReportTestStartCapturesTestName
 8919              		.comm	_ZN8UnitTest12_GLOBAL__N_171adderDeferredTestReporterFixtureReportTestStartCapturesTestNameA
 8920              		.local	_ZN8UnitTest12_GLOBAL__N_178testDeferredTestReporterFixtureReportTestStartCapturesTestNameA
 8921              		.comm	_ZN8UnitTest12_GLOBAL__N_178testDeferredTestReporterFixtureReportTestStartCapturesTestNameAn
 8922              		.local	_ZN8UnitTest12_GLOBAL__N_170adderDeferredTestReporterFixtureReportTestStartCreatesANewDefer
 8923              		.comm	_ZN8UnitTest12_GLOBAL__N_170adderDeferredTestReporterFixtureReportTestStartCreatesANewDeferr
 8924              		.local	_ZN8UnitTest12_GLOBAL__N_177testDeferredTestReporterFixtureReportTestStartCreatesANewDeferr
 8925              		.comm	_ZN8UnitTest12_GLOBAL__N_177testDeferredTestReporterFixtureReportTestStartCreatesANewDeferre
 8926              		.weakref	_ZL28__gthrw___pthread_key_createPjPFvPvE,__pthread_key_create
 8927              		.section	.rodata.cst4,"aM",@progbits,4
 8928              		.align 4
 8929              	.LC24:
 8930 0000 66E6F642 		.long	1123477094
 8931              		.align 4
 8932              	.LC26:
 8933 0004 59E6F642 		.long	1123477081
 8934              		.align 4
 8935              	.LC27:
 8936 0008 73E6F642 		.long	1123477107
 8937              		.section	.rodata.cst8,"aM",@progbits,8
 8938              		.align 8
 8939              	.LC29:
 8940 0000 000000C0 		.long	3221225472
 8941 0004 CCDC5E40 		.long	1079958732
 8942              		.align 8
 8943              	.LC31:
 8944 0008 000000E0 		.long	3758096384
 8945 000c E2361A3F 		.long	1058682594
 8946              		.hidden	__dso_handle
 8947              		.ident	"GCC: (Ubuntu 4.9.2-10ubuntu13) 4.9.2"
 8948              		.section	.note.GNU-stack,"",@progbits
DEFINED SYMBOLS
                            *ABS*:0000000000000000 TestDeferredTestReporter.cpp
     /tmp/cc4rUz5K.s:10     .text:0000000000000000 _ZN8UnitTest12_GLOBAL__N_124MockDeferredTestReporter13ReportSummaryEiiif
     /tmp/cc4rUz5K.s:29     .text:0000000000000010 _ZN8UnitTest12_GLOBAL__N_176TestDeferredTestReporterFixtureDeferredTestReporterTakesCopyOfFailureMessageD2Ev
     /tmp/cc4rUz5K.s:8896   .rodata:00000000000005c0 _ZTVN8UnitTest12_GLOBAL__N_176TestDeferredTestReporterFixtureDeferredTestReporterTakesCopyOfFailureMessageE
     /tmp/cc4rUz5K.s:29     .text:0000000000000010 _ZN8UnitTest12_GLOBAL__N_176TestDeferredTestReporterFixtureDeferredTestReporterTakesCopyOfFailureMessageD1Ev
     /tmp/cc4rUz5K.s:50     .text:0000000000000020 _ZN8UnitTest12_GLOBAL__N_182TestDeferredTestReporterFixtureReportFailureSavesFailureDetailsForMultipleFailuresD2Ev
     /tmp/cc4rUz5K.s:8887   .rodata:0000000000000580 _ZTVN8UnitTest12_GLOBAL__N_182TestDeferredTestReporterFixtureReportFailureSavesFailureDetailsForMultipleFailuresE
     /tmp/cc4rUz5K.s:50     .text:0000000000000020 _ZN8UnitTest12_GLOBAL__N_182TestDeferredTestReporterFixtureReportFailureSavesFailureDetailsForMultipleFailuresD1Ev
     /tmp/cc4rUz5K.s:71     .text:0000000000000030 _ZN8UnitTest12_GLOBAL__N_163TestDeferredTestReporterFixtureReportFailureSavesFailureDetailsD2Ev
     /tmp/cc4rUz5K.s:8878   .rodata:0000000000000540 _ZTVN8UnitTest12_GLOBAL__N_163TestDeferredTestReporterFixtureReportFailureSavesFailureDetailsE
     /tmp/cc4rUz5K.s:71     .text:0000000000000030 _ZN8UnitTest12_GLOBAL__N_163TestDeferredTestReporterFixtureReportFailureSavesFailureDetailsD1Ev
     /tmp/cc4rUz5K.s:92     .text:0000000000000040 _ZN8UnitTest12_GLOBAL__N_160TestDeferredTestReporterFixtureReportTestEndCapturesTestTimeD2Ev
     /tmp/cc4rUz5K.s:8869   .rodata:0000000000000500 _ZTVN8UnitTest12_GLOBAL__N_160TestDeferredTestReporterFixtureReportTestEndCapturesTestTimeE
     /tmp/cc4rUz5K.s:92     .text:0000000000000040 _ZN8UnitTest12_GLOBAL__N_160TestDeferredTestReporterFixtureReportTestEndCapturesTestTimeD1Ev
     /tmp/cc4rUz5K.s:113    .text:0000000000000050 _ZN8UnitTest12_GLOBAL__N_170TestDeferredTestReporterFixtureReportTestStartCapturesTestNameAndSuiteD2Ev
     /tmp/cc4rUz5K.s:8860   .rodata:00000000000004c0 _ZTVN8UnitTest12_GLOBAL__N_170TestDeferredTestReporterFixtureReportTestStartCapturesTestNameAndSuiteE
     /tmp/cc4rUz5K.s:113    .text:0000000000000050 _ZN8UnitTest12_GLOBAL__N_170TestDeferredTestReporterFixtureReportTestStartCapturesTestNameAndSuiteD1Ev
     /tmp/cc4rUz5K.s:134    .text:0000000000000060 _ZN8UnitTest12_GLOBAL__N_169TestDeferredTestReporterFixtureReportTestStartCreatesANewDeferredTestD2Ev
     /tmp/cc4rUz5K.s:8851   .rodata:0000000000000480 _ZTVN8UnitTest12_GLOBAL__N_169TestDeferredTestReporterFixtureReportTestStartCreatesANewDeferredTestE
     /tmp/cc4rUz5K.s:134    .text:0000000000000060 _ZN8UnitTest12_GLOBAL__N_169TestDeferredTestReporterFixtureReportTestStartCreatesANewDeferredTestD1Ev
     /tmp/cc4rUz5K.s:155    .text:0000000000000070 _ZN8UnitTest12_GLOBAL__N_176TestDeferredTestReporterFixtureDeferredTestReporterTakesCopyOfFailureMessageD0Ev
     /tmp/cc4rUz5K.s:183    .text:0000000000000090 _ZN8UnitTest12_GLOBAL__N_182TestDeferredTestReporterFixtureReportFailureSavesFailureDetailsForMultipleFailuresD0Ev
     /tmp/cc4rUz5K.s:211    .text:00000000000000b0 _ZN8UnitTest12_GLOBAL__N_163TestDeferredTestReporterFixtureReportFailureSavesFailureDetailsD0Ev
     /tmp/cc4rUz5K.s:239    .text:00000000000000d0 _ZN8UnitTest12_GLOBAL__N_160TestDeferredTestReporterFixtureReportTestEndCapturesTestTimeD0Ev
     /tmp/cc4rUz5K.s:267    .text:00000000000000f0 _ZN8UnitTest12_GLOBAL__N_170TestDeferredTestReporterFixtureReportTestStartCapturesTestNameAndSuiteD0Ev
     /tmp/cc4rUz5K.s:295    .text:0000000000000110 _ZN8UnitTest12_GLOBAL__N_169TestDeferredTestReporterFixtureReportTestStartCreatesANewDeferredTestD0Ev
     /tmp/cc4rUz5K.s:321    .text.unlikely:0000000000000000 _ZNSs4_Rep10_M_disposeERKSaIcE.part.1
     /tmp/cc4rUz5K.s:354    .text._ZN8UnitTest15MemoryOutStreamD1Ev:0000000000000000 _ZN8UnitTest15MemoryOutStreamD1Ev
     /tmp/cc4rUz5K.s:8824   .rodata._ZTVN8UnitTest15MemoryOutStreamE:0000000000000000 _ZTVN8UnitTest15MemoryOutStreamE
     /tmp/cc4rUz5K.s:8796   .rodata._ZTCN8UnitTest15MemoryOutStreamE0_St19basic_ostringstreamIcSt11char_traitsIcESaIcEE:0000000000000000 _ZTCN8UnitTest15MemoryOutStreamE0_St19basic_ostringstreamIcSt11char_traitsIcESaIcEE
     /tmp/cc4rUz5K.s:458    .text._ZN8UnitTest15MemoryOutStreamD1Ev:0000000000000130 _ZTv0_n24_N8UnitTest15MemoryOutStreamD1Ev
     /tmp/cc4rUz5K.s:478    .text._ZN8UnitTest15MemoryOutStreamD0Ev:0000000000000000 _ZN8UnitTest15MemoryOutStreamD0Ev
     /tmp/cc4rUz5K.s:584    .text._ZN8UnitTest15MemoryOutStreamD0Ev:0000000000000130 _ZTv0_n24_N8UnitTest15MemoryOutStreamD0Ev
     /tmp/cc4rUz5K.s:603    .text:0000000000000130 _ZN8UnitTest12_GLOBAL__N_124MockDeferredTestReporterD2Ev
     /tmp/cc4rUz5K.s:603    .text:0000000000000130 _ZN8UnitTest12_GLOBAL__N_124MockDeferredTestReporterD1Ev
     /tmp/cc4rUz5K.s:821    .text:0000000000000380 _ZN8UnitTest12_GLOBAL__N_124MockDeferredTestReporterD0Ev
     /tmp/cc4rUz5K.s:1038   .text.unlikely:0000000000000028 _ZN8UnitTest12_GLOBAL__N_127DeferredTestReporterFixtureD2Ev
     /tmp/cc4rUz5K.s:1277   .text._ZNSt15basic_stringbufIcSt11char_traitsIcESaIcEED2Ev:0000000000000000 _ZNSt15basic_stringbufIcSt11char_traitsIcESaIcEED2Ev
     /tmp/cc4rUz5K.s:1277   .text._ZNSt15basic_stringbufIcSt11char_traitsIcESaIcEED2Ev:0000000000000000 _ZNSt15basic_stringbufIcSt11char_traitsIcESaIcEED1Ev
     /tmp/cc4rUz5K.s:1351   .text._ZN8UnitTest15MemoryOutStreamC1Ev:0000000000000000 _ZN8UnitTest15MemoryOutStreamC1Ev
     /tmp/cc4rUz5K.s:8779   .rodata._ZTCN8UnitTest15MemoryOutStreamE0_So:0000000000000000 _ZTCN8UnitTest15MemoryOutStreamE0_So
     /tmp/cc4rUz5K.s:1501   .text:00000000000005d0 _ZN8UnitTest11ExecuteTestINS_12_GLOBAL__N_162DeferredTestReporterFixtureReportTestEndCapturesTestTimeHelperEEEvRT_RKNS_11TestDetailsE
     /tmp/cc4rUz5K.s:2039   .text._ZNSt15basic_stringbufIcSt11char_traitsIcESaIcEED0Ev:0000000000000000 _ZNSt15basic_stringbufIcSt11char_traitsIcESaIcEED0Ev
     /tmp/cc4rUz5K.s:2113   .text._ZNSt6vectorIN8UnitTest18DeferredTestResultESaIS1_EED2Ev:0000000000000000 _ZNSt6vectorIN8UnitTest18DeferredTestResultESaIS1_EED2Ev
     /tmp/cc4rUz5K.s:2113   .text._ZNSt6vectorIN8UnitTest18DeferredTestResultESaIS1_EED2Ev:0000000000000000 _ZNSt6vectorIN8UnitTest18DeferredTestResultESaIS1_EED1Ev
     /tmp/cc4rUz5K.s:2343   .text:0000000000000c60 _ZNK8UnitTest12_GLOBAL__N_160TestDeferredTestReporterFixtureReportTestEndCapturesTestTime7RunImplEv
     /tmp/cc4rUz5K.s:8839   .rodata:0000000000000440 _ZTVN8UnitTest12_GLOBAL__N_124MockDeferredTestReporterE
     /tmp/cc4rUz5K.s:2941   .text._ZN8UnitTest10CheckEqualIiiEEvRNS_11TestResultsERKT_RKT0_RKNS_11TestDetailsE:0000000000000000 _ZN8UnitTest10CheckEqualIiiEEvRNS_11TestResultsERKT_RKT0_RKNS_11TestDetailsE
     /tmp/cc4rUz5K.s:3206   .text:00000000000012a0 _ZN8UnitTest11ExecuteTestINS_12_GLOBAL__N_171DeferredTestReporterFixtureReportTestStartCreatesANewDeferredTestHelperEEEvRT_RKNS_11TestDetailsE
     /tmp/cc4rUz5K.s:3545   .text:0000000000001580 _ZNK8UnitTest12_GLOBAL__N_169TestDeferredTestReporterFixtureReportTestStartCreatesANewDeferredTest7RunImplEv
     /tmp/cc4rUz5K.s:4143   .text._ZN8UnitTest10CheckEqualIPKcSsEEvRNS_11TestResultsERKT_RKT0_RKNS_11TestDetailsE:0000000000000000 _ZN8UnitTest10CheckEqualIPKcSsEEvRNS_11TestResultsERKT_RKT0_RKNS_11TestDetailsE
     /tmp/cc4rUz5K.s:4444   .text:0000000000001bc0 _ZN8UnitTest11ExecuteTestINS_12_GLOBAL__N_178DeferredTestReporterFixtureDeferredTestReporterTakesCopyOfFailureMessageHelperEEEvRT_RKNS_11TestDetailsE
     /tmp/cc4rUz5K.s:4825   .text:0000000000001f70 _ZNK8UnitTest12_GLOBAL__N_176TestDeferredTestReporterFixtureDeferredTestReporterTakesCopyOfFailureMessage7RunImplEv
     /tmp/cc4rUz5K.s:5434   .text:00000000000025b0 _ZN8UnitTest11ExecuteTestINS_12_GLOBAL__N_165DeferredTestReporterFixtureReportFailureSavesFailureDetailsHelperEEEvRT_RKNS_11TestDetailsE
     /tmp/cc4rUz5K.s:5844   .text:0000000000002950 _ZNK8UnitTest12_GLOBAL__N_163TestDeferredTestReporterFixtureReportFailureSavesFailureDetails7RunImplEv
     /tmp/cc4rUz5K.s:6448   .text:0000000000002f90 _ZN8UnitTest11ExecuteTestINS_12_GLOBAL__N_172DeferredTestReporterFixtureReportTestStartCapturesTestNameAndSuiteHelperEEEvRT_RKNS_11TestDetailsE
     /tmp/cc4rUz5K.s:6855   .text:0000000000003330 _ZNK8UnitTest12_GLOBAL__N_170TestDeferredTestReporterFixtureReportTestStartCapturesTestNameAndSuite7RunImplEv
     /tmp/cc4rUz5K.s:7467   .text:0000000000003970 _ZN8UnitTest11ExecuteTestINS_12_GLOBAL__N_184DeferredTestReporterFixtureReportFailureSavesFailureDetailsForMultipleFailuresHelperEEEvRT_RKNS_11TestDetailsE
     /tmp/cc4rUz5K.s:7937   .text:0000000000003dd0 _ZNK8UnitTest12_GLOBAL__N_182TestDeferredTestReporterFixtureReportFailureSavesFailureDetailsForMultipleFailures7RunImplEv
     /tmp/cc4rUz5K.s:8559   .text.startup:0000000000000000 _GLOBAL__sub_I_TestDeferredTestReporter.cpp
     /tmp/cc4rUz5K.s:8925   .bss:0000000000000160 _ZN8UnitTest12_GLOBAL__N_177testDeferredTestReporterFixtureReportTestStartCreatesANewDeferredTestInstanceE
     /tmp/cc4rUz5K.s:8921   .bss:0000000000000158 _ZN8UnitTest12_GLOBAL__N_170adderDeferredTestReporterFixtureReportTestStartCreatesANewDeferredTestE
     /tmp/cc4rUz5K.s:8921   .bss:0000000000000120 _ZN8UnitTest12_GLOBAL__N_178testDeferredTestReporterFixtureReportTestStartCapturesTestNameAndSuiteInstanceE
     /tmp/cc4rUz5K.s:8917   .bss:0000000000000118 _ZN8UnitTest12_GLOBAL__N_171adderDeferredTestReporterFixtureReportTestStartCapturesTestNameAndSuiteE
     /tmp/cc4rUz5K.s:8917   .bss:00000000000000e0 _ZN8UnitTest12_GLOBAL__N_168testDeferredTestReporterFixtureReportTestEndCapturesTestTimeInstanceE
     /tmp/cc4rUz5K.s:8913   .bss:00000000000000d8 _ZN8UnitTest12_GLOBAL__N_161adderDeferredTestReporterFixtureReportTestEndCapturesTestTimeE
     /tmp/cc4rUz5K.s:8913   .bss:00000000000000a0 _ZN8UnitTest12_GLOBAL__N_171testDeferredTestReporterFixtureReportFailureSavesFailureDetailsInstanceE
     /tmp/cc4rUz5K.s:8909   .bss:0000000000000098 _ZN8UnitTest12_GLOBAL__N_164adderDeferredTestReporterFixtureReportFailureSavesFailureDetailsE
     /tmp/cc4rUz5K.s:8909   .bss:0000000000000060 _ZN8UnitTest12_GLOBAL__N_190testDeferredTestReporterFixtureReportFailureSavesFailureDetailsForMultipleFailuresInstanceE
     /tmp/cc4rUz5K.s:8905   .bss:0000000000000058 _ZN8UnitTest12_GLOBAL__N_183adderDeferredTestReporterFixtureReportFailureSavesFailureDetailsForMultipleFailuresE
     /tmp/cc4rUz5K.s:8905   .bss:0000000000000020 _ZN8UnitTest12_GLOBAL__N_184testDeferredTestReporterFixtureDeferredTestReporterTakesCopyOfFailureMessageInstanceE
                             .bss:0000000000000000 _ZN8UnitTest12_GLOBAL__N_177adderDeferredTestReporterFixtureDeferredTestReporterTakesCopyOfFailureMessageE
     /tmp/cc4rUz5K.s:8676   .rodata:0000000000000000 _ZTSN8UnitTest12_GLOBAL__N_124MockDeferredTestReporterE
     /tmp/cc4rUz5K.s:8681   .rodata:0000000000000040 _ZTSN8UnitTest12_GLOBAL__N_169TestDeferredTestReporterFixtureReportTestStartCreatesANewDeferredTestE
     /tmp/cc4rUz5K.s:8686   .rodata:00000000000000c0 _ZTSN8UnitTest12_GLOBAL__N_170TestDeferredTestReporterFixtureReportTestStartCapturesTestNameAndSuiteE
     /tmp/cc4rUz5K.s:8691   .rodata:0000000000000140 _ZTSN8UnitTest12_GLOBAL__N_160TestDeferredTestReporterFixtureReportTestEndCapturesTestTimeE
     /tmp/cc4rUz5K.s:8696   .rodata:00000000000001c0 _ZTSN8UnitTest12_GLOBAL__N_163TestDeferredTestReporterFixtureReportFailureSavesFailureDetailsE
     /tmp/cc4rUz5K.s:8701   .rodata:0000000000000240 _ZTSN8UnitTest12_GLOBAL__N_182TestDeferredTestReporterFixtureReportFailureSavesFailureDetailsForMultipleFailuresE
     /tmp/cc4rUz5K.s:8706   .rodata:00000000000002c0 _ZTSN8UnitTest12_GLOBAL__N_176TestDeferredTestReporterFixtureDeferredTestReporterTakesCopyOfFailureMessageE
     /tmp/cc4rUz5K.s:8711   .rodata:0000000000000330 _ZTIN8UnitTest12_GLOBAL__N_176TestDeferredTestReporterFixtureDeferredTestReporterTakesCopyOfFailureMessageE
     /tmp/cc4rUz5K.s:8718   .rodata:0000000000000350 _ZTIN8UnitTest12_GLOBAL__N_182TestDeferredTestReporterFixtureReportFailureSavesFailureDetailsForMultipleFailuresE
     /tmp/cc4rUz5K.s:8725   .rodata:0000000000000370 _ZTIN8UnitTest12_GLOBAL__N_163TestDeferredTestReporterFixtureReportFailureSavesFailureDetailsE
     /tmp/cc4rUz5K.s:8732   .rodata:0000000000000390 _ZTIN8UnitTest12_GLOBAL__N_160TestDeferredTestReporterFixtureReportTestEndCapturesTestTimeE
     /tmp/cc4rUz5K.s:8739   .rodata:00000000000003b0 _ZTIN8UnitTest12_GLOBAL__N_170TestDeferredTestReporterFixtureReportTestStartCapturesTestNameAndSuiteE
     /tmp/cc4rUz5K.s:8746   .rodata:00000000000003d0 _ZTIN8UnitTest12_GLOBAL__N_169TestDeferredTestReporterFixtureReportTestStartCreatesANewDeferredTestE
     /tmp/cc4rUz5K.s:8753   .rodata:00000000000003f0 _ZTIN8UnitTest12_GLOBAL__N_124MockDeferredTestReporterE
     /tmp/cc4rUz5K.s:8762   .rodata._ZTIN8UnitTest15MemoryOutStreamE:0000000000000000 _ZTIN8UnitTest15MemoryOutStreamE
     /tmp/cc4rUz5K.s:8771   .rodata._ZTSN8UnitTest15MemoryOutStreamE:0000000000000000 _ZTSN8UnitTest15MemoryOutStreamE
     /tmp/cc4rUz5K.s:8812   .rodata._ZTTN8UnitTest15MemoryOutStreamE:0000000000000000 _ZTTN8UnitTest15MemoryOutStreamE
     /tmp/cc4rUz5K.s:8929   .rodata.cst4:0000000000000000 .LC24
     /tmp/cc4rUz5K.s:8932   .rodata.cst4:0000000000000004 .LC26
     /tmp/cc4rUz5K.s:8935   .rodata.cst4:0000000000000008 .LC27
     /tmp/cc4rUz5K.s:8939   .rodata.cst8:0000000000000000 .LC29
     /tmp/cc4rUz5K.s:8943   .rodata.cst8:0000000000000008 .LC31
                           .group:0000000000000000 _ZNSt15basic_stringbufIcSt11char_traitsIcESaIcEED5Ev
                           .group:0000000000000000 _ZNSt6vectorIN8UnitTest18DeferredTestResultESaIS1_EED5Ev

UNDEFINED SYMBOLS
_ZN8UnitTest4TestD2Ev
_ZdlPv
_ZNSs4_Rep10_M_destroyERKSaIcE
_ZNSs4_Rep20_S_empty_rep_storageE
_ZTVSt15basic_stringbufIcSt11char_traitsIcESaIcEE
_ZTVSt15basic_streambufIcSt11char_traitsIcEE
_ZNSt6localeD1Ev
_ZTVSt9basic_iosIcSt11char_traitsIcEE
_ZNSt8ios_baseD2Ev
__stack_chk_fail
_ZTVN8UnitTest20DeferredTestReporterE
_ZN8UnitTest12TestReporterD2Ev
__gxx_personality_v0
_ZNSt8ios_baseC2Ev
_ZNSt9basic_iosIcSt11char_traitsIcEE4initEPSt15basic_streambufIcS1_E
_ZNSt6localeC1Ev
_Unwind_Resume
_ZN8UnitTest11CurrentTest7DetailsEv
_ZN8UnitTest16SignalTranslatorC1Ev
_ZN8UnitTest16SignalTranslator12s_jumpTargetE
__sigsetjmp
_ZN8UnitTest20DeferredTestReporter15ReportTestStartERKNS_11TestDetailsE
_ZN8UnitTest20DeferredTestReporter16ReportTestFinishERKNS_11TestDetailsEf
_ZN8UnitTest20DeferredTestReporter10GetResultsEv
_ZN8UnitTest11TestDetailsC1ERKS0_i
_ZN8UnitTest11CurrentTest7ResultsEv
_ZN8UnitTest16SignalTranslatorD1Ev
__cxa_allocate_exception
_ZTIPKc
__cxa_throw
_ZSt16__ostream_insertIcSt11char_traitsIcEERSt13basic_ostreamIT_T0_ES6_PKS3_l
_ZNSo9_M_insertIdEERSoT_
_ZNK8UnitTest15MemoryOutStream7GetTextEv
_ZN8UnitTest11TestResults13OnTestFailureERKNS_11TestDetailsEPKc
__cxa_begin_catch
_ZStlsISt11char_traitsIcEERSt13basic_ostreamIcT_ES5_PKc
__cxa_end_catch
_ZSt24__throw_out_of_range_fmtPKcz
_ZNK8UnitTest15AssertException10LineNumberEv
_ZNK8UnitTest15AssertException8FilenameEv
_ZN8UnitTest11TestDetailsC1EPKcS2_S2_i
_ZTISt9exception
_ZTIN8UnitTest15AssertExceptionE
_ZNSsC1EPKcRKSaIcE
_ZNSolsEi
_ZNKSs7compareEPKc
strlen
_ZNSt9basic_iosIcSt11char_traitsIcEE5clearESt12_Ios_Iostate
_ZN8UnitTest20DeferredTestReporter13ReportFailureERKNS_11TestDetailsEPKc
_ZN8UnitTest4TestC2EPKcS2_S2_i
__dso_handle
__cxa_atexit
_ZN8UnitTest4Test11GetTestListEv
_ZN8UnitTest9ListAdderC1ERNS_8TestListEPNS_4TestE
_ZTVN10__cxxabiv120__si_class_type_infoE
_ZTIN8UnitTest4TestE
_ZTIN8UnitTest20DeferredTestReporterE
_ZTISt19basic_ostringstreamIcSt11char_traitsIcESaIcEE
_ZTISo
__pthread_key_create
