   1              		.file	"TestXmlTestReporter.cpp"
   2              		.section	.text.unlikely,"ax",@progbits
   3              		.align 2
   4              	.LCOLDB0:
   5              		.text
   6              	.LHOTB0:
   7              		.align 2
   8              		.p2align 4,,15
  10              	_ZN12_GLOBAL__N_142TestXmlTestReporterFixtureMultipleFailuresD2Ev:
  11              	.LFB1573:
  12              		.cfi_startproc
  13 0000 48C70700 		movq	$_ZTVN12_GLOBAL__N_142TestXmlTestReporterFixtureMultipleFailuresE+16, (%rdi)
  13      000000
  14 0007 E9000000 		jmp	_ZN8UnitTest4TestD2Ev
  14      00
  15              		.cfi_endproc
  16              	.LFE1573:
  18              		.section	.text.unlikely
  19              	.LCOLDE0:
  20              		.text
  21              	.LHOTE0:
  22              		.set	_ZN12_GLOBAL__N_142TestXmlTestReporterFixtureMultipleFailuresD1Ev,_ZN12_GLOBAL__N_142TestXmlT
  23              		.section	.text.unlikely
  24              		.align 2
  25              	.LCOLDB1:
  26              		.text
  27              	.LHOTB1:
  28              		.align 2
  29 000c 0F1F4000 		.p2align 4,,15
  31              	_ZN12_GLOBAL__N_149TestXmlTestReporterFixtureOneFailureAndOneSuccessD2Ev:
  32              	.LFB1577:
  33              		.cfi_startproc
  34 0010 48C70700 		movq	$_ZTVN12_GLOBAL__N_149TestXmlTestReporterFixtureOneFailureAndOneSuccessE+16, (%rdi)
  34      000000
  35 0017 E9000000 		jmp	_ZN8UnitTest4TestD2Ev
  35      00
  36              		.cfi_endproc
  37              	.LFE1577:
  39              		.section	.text.unlikely
  40              	.LCOLDE1:
  41              		.text
  42              	.LHOTE1:
  43              		.set	_ZN12_GLOBAL__N_149TestXmlTestReporterFixtureOneFailureAndOneSuccessD1Ev,_ZN12_GLOBAL__N_149T
  44              		.section	.text.unlikely
  45              		.align 2
  46              	.LCOLDB2:
  47              		.text
  48              	.LHOTB2:
  49              		.align 2
  50 001c 0F1F4000 		.p2align 4,,15
  52              	_ZN12_GLOBAL__N_152TestXmlTestReporterFixtureFailureMessageIsXMLEscapedD2Ev:
  53              	.LFB1581:
  54              		.cfi_startproc
  55 0020 48C70700 		movq	$_ZTVN12_GLOBAL__N_152TestXmlTestReporterFixtureFailureMessageIsXMLEscapedE+16, (%rdi)
  55      000000
  56 0027 E9000000 		jmp	_ZN8UnitTest4TestD2Ev
  56      00
  57              		.cfi_endproc
  58              	.LFE1581:
  60              		.section	.text.unlikely
  61              	.LCOLDE2:
  62              		.text
  63              	.LHOTE2:
  64              		.set	_ZN12_GLOBAL__N_152TestXmlTestReporterFixtureFailureMessageIsXMLEscapedD1Ev,_ZN12_GLOBAL__N_1
  65              		.section	.text.unlikely
  66              		.align 2
  67              	.LCOLDB3:
  68              		.text
  69              	.LHOTB3:
  70              		.align 2
  71 002c 0F1F4000 		.p2align 4,,15
  73              	_ZN12_GLOBAL__N_161TestXmlTestReporterFixtureSingleFailedTestReportSummaryFormatD2Ev:
  74              	.LFB1585:
  75              		.cfi_startproc
  76 0030 48C70700 		movq	$_ZTVN12_GLOBAL__N_161TestXmlTestReporterFixtureSingleFailedTestReportSummaryFormatE+16, (%rd
  76      000000
  77 0037 E9000000 		jmp	_ZN8UnitTest4TestD2Ev
  77      00
  78              		.cfi_endproc
  79              	.LFE1585:
  81              		.section	.text.unlikely
  82              	.LCOLDE3:
  83              		.text
  84              	.LHOTE3:
  85              		.set	_ZN12_GLOBAL__N_161TestXmlTestReporterFixtureSingleFailedTestReportSummaryFormatD1Ev,_ZN12_GL
  86              		.section	.text.unlikely
  87              		.align 2
  88              	.LCOLDB4:
  89              		.text
  90              	.LHOTB4:
  91              		.align 2
  92 003c 0F1F4000 		.p2align 4,,15
  94              	_ZN12_GLOBAL__N_165TestXmlTestReporterFixtureSingleSuccessfulTestReportSummaryFormatD2Ev:
  95              	.LFB1589:
  96              		.cfi_startproc
  97 0040 48C70700 		movq	$_ZTVN12_GLOBAL__N_165TestXmlTestReporterFixtureSingleSuccessfulTestReportSummaryFormatE+16, 
  97      000000
  98 0047 E9000000 		jmp	_ZN8UnitTest4TestD2Ev
  98      00
  99              		.cfi_endproc
 100              	.LFE1589:
 102              		.section	.text.unlikely
 103              	.LCOLDE4:
 104              		.text
 105              	.LHOTE4:
 106              		.set	_ZN12_GLOBAL__N_165TestXmlTestReporterFixtureSingleSuccessfulTestReportSummaryFormatD1Ev,_ZN1
 107              		.section	.text.unlikely
 108              		.align 2
 109              	.LCOLDB5:
 110              		.text
 111              	.LHOTB5:
 112              		.align 2
 113 004c 0F1F4000 		.p2align 4,,15
 115              	_ZN12_GLOBAL__N_150TestXmlTestReporterFixtureEmptyReportSummaryFormatD2Ev:
 116              	.LFB1593:
 117              		.cfi_startproc
 118 0050 48C70700 		movq	$_ZTVN12_GLOBAL__N_150TestXmlTestReporterFixtureEmptyReportSummaryFormatE+16, (%rdi)
 118      000000
 119 0057 E9000000 		jmp	_ZN8UnitTest4TestD2Ev
 119      00
 120              		.cfi_endproc
 121              	.LFE1593:
 123              		.section	.text.unlikely
 124              	.LCOLDE5:
 125              		.text
 126              	.LHOTE5:
 127              		.set	_ZN12_GLOBAL__N_150TestXmlTestReporterFixtureEmptyReportSummaryFormatD1Ev,_ZN12_GLOBAL__N_150
 128              		.section	.text.unlikely
 129              		.align 2
 130              	.LCOLDB6:
 131              		.text
 132              	.LHOTB6:
 133              		.align 2
 134 005c 0F1F4000 		.p2align 4,,15
 136              	_ZN12_GLOBAL__N_166TestXmlTestReporterFixtureOutputIsCachedUntilReportSummaryIsCalledD2Ev:
 137              	.LFB1597:
 138              		.cfi_startproc
 139 0060 48C70700 		movq	$_ZTVN12_GLOBAL__N_166TestXmlTestReporterFixtureOutputIsCachedUntilReportSummaryIsCalledE+16,
 139      000000
 140 0067 E9000000 		jmp	_ZN8UnitTest4TestD2Ev
 140      00
 141              		.cfi_endproc
 142              	.LFE1597:
 144              		.section	.text.unlikely
 145              	.LCOLDE6:
 146              		.text
 147              	.LHOTE6:
 148              		.set	_ZN12_GLOBAL__N_166TestXmlTestReporterFixtureOutputIsCachedUntilReportSummaryIsCalledD1Ev,_ZN
 149              		.section	.text.unlikely
 150              		.align 2
 151              	.LCOLDB7:
 152              		.text
 153              	.LHOTB7:
 154              		.align 2
 155 006c 0F1F4000 		.p2align 4,,15
 157              	_ZN12_GLOBAL__N_154TestXmlTestReporterFixtureMultipleCharactersAreEscapedD2Ev:
 158              	.LFB1601:
 159              		.cfi_startproc
 160 0070 48C70700 		movq	$_ZTVN12_GLOBAL__N_154TestXmlTestReporterFixtureMultipleCharactersAreEscapedE+16, (%rdi)
 160      000000
 161 0077 E9000000 		jmp	_ZN8UnitTest4TestD2Ev
 161      00
 162              		.cfi_endproc
 163              	.LFE1601:
 165              		.section	.text.unlikely
 166              	.LCOLDE7:
 167              		.text
 168              	.LHOTE7:
 169              		.set	_ZN12_GLOBAL__N_154TestXmlTestReporterFixtureMultipleCharactersAreEscapedD1Ev,_ZN12_GLOBAL__N
 170              		.section	.text.unlikely
 171              		.align 2
 172              	.LCOLDB8:
 173              		.text
 174              	.LHOTB8:
 175              		.align 2
 176 007c 0F1F4000 		.p2align 4,,15
 178              	_ZN12_GLOBAL__N_142TestXmlTestReporterFixtureMultipleFailuresD0Ev:
 179              	.LFB1575:
 180              		.cfi_startproc
 181 0080 53       		pushq	%rbx
 182              		.cfi_def_cfa_offset 16
 183              		.cfi_offset 3, -16
 184 0081 4889FB   		movq	%rdi, %rbx
 185 0084 48C70700 		movq	$_ZTVN12_GLOBAL__N_142TestXmlTestReporterFixtureMultipleFailuresE+16, (%rdi)
 185      000000
 186 008b E8000000 		call	_ZN8UnitTest4TestD2Ev
 186      00
 187 0090 4889DF   		movq	%rbx, %rdi
 188 0093 5B       		popq	%rbx
 189              		.cfi_def_cfa_offset 8
 190 0094 E9000000 		jmp	_ZdlPv
 190      00
 191              		.cfi_endproc
 192              	.LFE1575:
 194              		.section	.text.unlikely
 195              	.LCOLDE8:
 196              		.text
 197              	.LHOTE8:
 198              		.section	.text.unlikely
 199              		.align 2
 200              	.LCOLDB9:
 201              		.text
 202              	.LHOTB9:
 203 0099 90       		.align 2
 204 009a 660F1F44 		.p2align 4,,15
 204      0000
 206              	_ZN12_GLOBAL__N_149TestXmlTestReporterFixtureOneFailureAndOneSuccessD0Ev:
 207              	.LFB1579:
 208              		.cfi_startproc
 209 00a0 53       		pushq	%rbx
 210              		.cfi_def_cfa_offset 16
 211              		.cfi_offset 3, -16
 212 00a1 4889FB   		movq	%rdi, %rbx
 213 00a4 48C70700 		movq	$_ZTVN12_GLOBAL__N_149TestXmlTestReporterFixtureOneFailureAndOneSuccessE+16, (%rdi)
 213      000000
 214 00ab E8000000 		call	_ZN8UnitTest4TestD2Ev
 214      00
 215 00b0 4889DF   		movq	%rbx, %rdi
 216 00b3 5B       		popq	%rbx
 217              		.cfi_def_cfa_offset 8
 218 00b4 E9000000 		jmp	_ZdlPv
 218      00
 219              		.cfi_endproc
 220              	.LFE1579:
 222              		.section	.text.unlikely
 223              	.LCOLDE9:
 224              		.text
 225              	.LHOTE9:
 226              		.section	.text.unlikely
 227              		.align 2
 228              	.LCOLDB10:
 229              		.text
 230              	.LHOTB10:
 231 00b9 90       		.align 2
 232 00ba 660F1F44 		.p2align 4,,15
 232      0000
 234              	_ZN12_GLOBAL__N_152TestXmlTestReporterFixtureFailureMessageIsXMLEscapedD0Ev:
 235              	.LFB1583:
 236              		.cfi_startproc
 237 00c0 53       		pushq	%rbx
 238              		.cfi_def_cfa_offset 16
 239              		.cfi_offset 3, -16
 240 00c1 4889FB   		movq	%rdi, %rbx
 241 00c4 48C70700 		movq	$_ZTVN12_GLOBAL__N_152TestXmlTestReporterFixtureFailureMessageIsXMLEscapedE+16, (%rdi)
 241      000000
 242 00cb E8000000 		call	_ZN8UnitTest4TestD2Ev
 242      00
 243 00d0 4889DF   		movq	%rbx, %rdi
 244 00d3 5B       		popq	%rbx
 245              		.cfi_def_cfa_offset 8
 246 00d4 E9000000 		jmp	_ZdlPv
 246      00
 247              		.cfi_endproc
 248              	.LFE1583:
 250              		.section	.text.unlikely
 251              	.LCOLDE10:
 252              		.text
 253              	.LHOTE10:
 254              		.section	.text.unlikely
 255              		.align 2
 256              	.LCOLDB11:
 257              		.text
 258              	.LHOTB11:
 259 00d9 90       		.align 2
 260 00da 660F1F44 		.p2align 4,,15
 260      0000
 262              	_ZN12_GLOBAL__N_161TestXmlTestReporterFixtureSingleFailedTestReportSummaryFormatD0Ev:
 263              	.LFB1587:
 264              		.cfi_startproc
 265 00e0 53       		pushq	%rbx
 266              		.cfi_def_cfa_offset 16
 267              		.cfi_offset 3, -16
 268 00e1 4889FB   		movq	%rdi, %rbx
 269 00e4 48C70700 		movq	$_ZTVN12_GLOBAL__N_161TestXmlTestReporterFixtureSingleFailedTestReportSummaryFormatE+16, (%rd
 269      000000
 270 00eb E8000000 		call	_ZN8UnitTest4TestD2Ev
 270      00
 271 00f0 4889DF   		movq	%rbx, %rdi
 272 00f3 5B       		popq	%rbx
 273              		.cfi_def_cfa_offset 8
 274 00f4 E9000000 		jmp	_ZdlPv
 274      00
 275              		.cfi_endproc
 276              	.LFE1587:
 278              		.section	.text.unlikely
 279              	.LCOLDE11:
 280              		.text
 281              	.LHOTE11:
 282              		.section	.text.unlikely
 283              		.align 2
 284              	.LCOLDB12:
 285              		.text
 286              	.LHOTB12:
 287 00f9 90       		.align 2
 288 00fa 660F1F44 		.p2align 4,,15
 288      0000
 290              	_ZN12_GLOBAL__N_165TestXmlTestReporterFixtureSingleSuccessfulTestReportSummaryFormatD0Ev:
 291              	.LFB1591:
 292              		.cfi_startproc
 293 0100 53       		pushq	%rbx
 294              		.cfi_def_cfa_offset 16
 295              		.cfi_offset 3, -16
 296 0101 4889FB   		movq	%rdi, %rbx
 297 0104 48C70700 		movq	$_ZTVN12_GLOBAL__N_165TestXmlTestReporterFixtureSingleSuccessfulTestReportSummaryFormatE+16, 
 297      000000
 298 010b E8000000 		call	_ZN8UnitTest4TestD2Ev
 298      00
 299 0110 4889DF   		movq	%rbx, %rdi
 300 0113 5B       		popq	%rbx
 301              		.cfi_def_cfa_offset 8
 302 0114 E9000000 		jmp	_ZdlPv
 302      00
 303              		.cfi_endproc
 304              	.LFE1591:
 306              		.section	.text.unlikely
 307              	.LCOLDE12:
 308              		.text
 309              	.LHOTE12:
 310              		.section	.text.unlikely
 311              		.align 2
 312              	.LCOLDB13:
 313              		.text
 314              	.LHOTB13:
 315 0119 90       		.align 2
 316 011a 660F1F44 		.p2align 4,,15
 316      0000
 318              	_ZN12_GLOBAL__N_150TestXmlTestReporterFixtureEmptyReportSummaryFormatD0Ev:
 319              	.LFB1595:
 320              		.cfi_startproc
 321 0120 53       		pushq	%rbx
 322              		.cfi_def_cfa_offset 16
 323              		.cfi_offset 3, -16
 324 0121 4889FB   		movq	%rdi, %rbx
 325 0124 48C70700 		movq	$_ZTVN12_GLOBAL__N_150TestXmlTestReporterFixtureEmptyReportSummaryFormatE+16, (%rdi)
 325      000000
 326 012b E8000000 		call	_ZN8UnitTest4TestD2Ev
 326      00
 327 0130 4889DF   		movq	%rbx, %rdi
 328 0133 5B       		popq	%rbx
 329              		.cfi_def_cfa_offset 8
 330 0134 E9000000 		jmp	_ZdlPv
 330      00
 331              		.cfi_endproc
 332              	.LFE1595:
 334              		.section	.text.unlikely
 335              	.LCOLDE13:
 336              		.text
 337              	.LHOTE13:
 338              		.section	.text.unlikely
 339              		.align 2
 340              	.LCOLDB14:
 341              		.text
 342              	.LHOTB14:
 343 0139 90       		.align 2
 344 013a 660F1F44 		.p2align 4,,15
 344      0000
 346              	_ZN12_GLOBAL__N_166TestXmlTestReporterFixtureOutputIsCachedUntilReportSummaryIsCalledD0Ev:
 347              	.LFB1599:
 348              		.cfi_startproc
 349 0140 53       		pushq	%rbx
 350              		.cfi_def_cfa_offset 16
 351              		.cfi_offset 3, -16
 352 0141 4889FB   		movq	%rdi, %rbx
 353 0144 48C70700 		movq	$_ZTVN12_GLOBAL__N_166TestXmlTestReporterFixtureOutputIsCachedUntilReportSummaryIsCalledE+16,
 353      000000
 354 014b E8000000 		call	_ZN8UnitTest4TestD2Ev
 354      00
 355 0150 4889DF   		movq	%rbx, %rdi
 356 0153 5B       		popq	%rbx
 357              		.cfi_def_cfa_offset 8
 358 0154 E9000000 		jmp	_ZdlPv
 358      00
 359              		.cfi_endproc
 360              	.LFE1599:
 362              		.section	.text.unlikely
 363              	.LCOLDE14:
 364              		.text
 365              	.LHOTE14:
 366              		.section	.text.unlikely
 367              		.align 2
 368              	.LCOLDB15:
 369              		.text
 370              	.LHOTB15:
 371 0159 90       		.align 2
 372 015a 660F1F44 		.p2align 4,,15
 372      0000
 374              	_ZN12_GLOBAL__N_154TestXmlTestReporterFixtureMultipleCharactersAreEscapedD0Ev:
 375              	.LFB1603:
 376              		.cfi_startproc
 377 0160 53       		pushq	%rbx
 378              		.cfi_def_cfa_offset 16
 379              		.cfi_offset 3, -16
 380 0161 4889FB   		movq	%rdi, %rbx
 381 0164 48C70700 		movq	$_ZTVN12_GLOBAL__N_154TestXmlTestReporterFixtureMultipleCharactersAreEscapedE+16, (%rdi)
 381      000000
 382 016b E8000000 		call	_ZN8UnitTest4TestD2Ev
 382      00
 383 0170 4889DF   		movq	%rbx, %rdi
 384 0173 5B       		popq	%rbx
 385              		.cfi_def_cfa_offset 8
 386 0174 E9000000 		jmp	_ZdlPv
 386      00
 387              		.cfi_endproc
 388              	.LFE1603:
 390              		.section	.text.unlikely
 391              	.LCOLDE15:
 392              		.text
 393              	.LHOTE15:
 394              		.section	.text.unlikely
 395              		.align 2
 396              	.LCOLDB16:
 397              	.LHOTB16:
 398              		.align 2
 400              	_ZNSs4_Rep10_M_disposeERKSaIcE.part.5:
 401              	.LFB1677:
 402              		.cfi_startproc
 403 0000 B8000000 		movl	$_ZL28__gthrw___pthread_key_createPjPFvPvE, %eax
 403      00
 404 0005 4885C0   		testq	%rax, %rax
 405 0008 740A     		je	.L26
 406 000a 83C8FF   		orl	$-1, %eax
 407 000d F00FC147 		lock xaddl	%eax, 16(%rdi)
 407      10
 408 0012 EB09     		jmp	.L27
 409              	.L26:
 410 0014 8B4710   		movl	16(%rdi), %eax
 411 0017 8D50FF   		leal	-1(%rax), %edx
 412 001a 895710   		movl	%edx, 16(%rdi)
 413              	.L27:
 414 001d 85C0     		testl	%eax, %eax
 415 001f 7F05     		jg	.L25
 416 0021 E9000000 		jmp	_ZNSs4_Rep10_M_destroyERKSaIcE
 416      00
 417              	.L25:
 418 0026 C3       		ret
 419              		.cfi_endproc
 420              	.LFE1677:
 422              	.LCOLDE16:
 423              	.LHOTE16:
 424              		.section	.text.unlikely._ZN8UnitTest15MemoryOutStreamD1Ev,"axG",@progbits,_ZN8UnitTest15MemoryOutS
 425              		.align 2
 426              	.LCOLDB17:
 427              		.section	.text._ZN8UnitTest15MemoryOutStreamD1Ev,"axG",@progbits,_ZN8UnitTest15MemoryOutStreamD1Ev
 428              	.LHOTB17:
 429              		.align 2
 430              		.p2align 4,,15
 431              		.weak	_ZN8UnitTest15MemoryOutStreamD1Ev
 433              	_ZN8UnitTest15MemoryOutStreamD1Ev:
 434              	.LFB1606:
 435              		.cfi_startproc
 436 0000 53       		pushq	%rbx
 437              		.cfi_def_cfa_offset 16
 438              		.cfi_offset 3, -16
 439 0001 4889FB   		movq	%rdi, %rbx
 440 0004 4883EC10 		subq	$16, %rsp
 441              		.cfi_def_cfa_offset 32
 442 0008 48C70700 		movq	$_ZTVN8UnitTest15MemoryOutStreamE+24, (%rdi)
 442      000000
 443 000f 48C74760 		movq	$_ZTVN8UnitTest15MemoryOutStreamE+64, 96(%rdi)
 443      00000000 
 444 0017 64488B04 		movq	%fs:40, %rax
 444      25280000 
 444      00
 445 0020 48894424 		movq	%rax, 8(%rsp)
 445      08
 446 0025 31C0     		xorl	%eax, %eax
 447 0027 488B4758 		movq	88(%rdi), %rax
 448 002b 488D78E8 		leaq	-24(%rax), %rdi
 449 002f 4881FF00 		cmpq	$_ZNSs4_Rep20_S_empty_rep_storageE, %rdi
 449      000000
 450 0036 7568     		jne	.L43
 451              	.L32:
 452 0038 488B4350 		movq	80(%rbx), %rax
 453 003c 48C70300 		movq	$_ZTCN8UnitTest15MemoryOutStreamE0_St19basic_ostringstreamIcSt11char_traitsIcESaIcEE+24, (%rb
 453      000000
 454 0043 48C74360 		movq	$_ZTCN8UnitTest15MemoryOutStreamE0_St19basic_ostringstreamIcSt11char_traitsIcESaIcEE+64, 96(%
 454      00000000 
 455 004b 48C74308 		movq	$_ZTVSt15basic_stringbufIcSt11char_traitsIcESaIcEE+16, 8(%rbx)
 455      00000000 
 456 0053 488D78E8 		leaq	-24(%rax), %rdi
 457 0057 4881FF00 		cmpq	$_ZNSs4_Rep20_S_empty_rep_storageE, %rdi
 457      000000
 458 005e 7570     		jne	.L44
 459              	.L37:
 460 0060 488D7B40 		leaq	64(%rbx), %rdi
 461 0064 48C74308 		movq	$_ZTVSt15basic_streambufIcSt11char_traitsIcEE+16, 8(%rbx)
 461      00000000 
 462 006c E8000000 		call	_ZNSt6localeD1Ev
 462      00
 463 0071 488D7B60 		leaq	96(%rbx), %rdi
 464 0075 48C74360 		movq	$_ZTVSt9basic_iosIcSt11char_traitsIcEE+16, 96(%rbx)
 464      00000000 
 465 007d E8000000 		call	_ZNSt8ios_baseD2Ev
 465      00
 466 0082 488B4424 		movq	8(%rsp), %rax
 466      08
 467 0087 64483304 		xorq	%fs:40, %rax
 467      25280000 
 467      00
 468 0090 0F858700 		jne	.L45
 468      0000
 469 0096 4883C410 		addq	$16, %rsp
 470              		.cfi_remember_state
 471              		.cfi_def_cfa_offset 16
 472 009a 5B       		popq	%rbx
 473              		.cfi_def_cfa_offset 8
 474 009b C3       		ret
 475 009c 0F1F4000 		.p2align 4,,10
 476              		.p2align 3
 477              	.L43:
 478              		.cfi_restore_state
 479 00a0 BA000000 		movl	$_ZL28__gthrw___pthread_key_createPjPFvPvE, %edx
 479      00
 480 00a5 4885D2   		testq	%rdx, %rdx
 481 00a8 7466     		je	.L33
 482 00aa BAFFFFFF 		movl	$-1, %edx
 482      FF
 483 00af F00FC150 		lock xaddl	%edx, -8(%rax)
 483      F8
 484 00b4 89D0     		movl	%edx, %eax
 485              	.L34:
 486 00b6 85C0     		testl	%eax, %eax
 487 00b8 0F8F7AFF 		jg	.L32
 487      FFFF
 488 00be 488D7424 		leaq	7(%rsp), %rsi
 488      07
 489 00c3 E8000000 		call	_ZNSs4_Rep10_M_destroyERKSaIcE
 489      00
 490 00c8 E96BFFFF 		jmp	.L32
 490      FF
 491 00cd 0F1F00   		.p2align 4,,10
 492              		.p2align 3
 493              	.L44:
 494 00d0 BA000000 		movl	$_ZL28__gthrw___pthread_key_createPjPFvPvE, %edx
 494      00
 495 00d5 4885D2   		testq	%rdx, %rdx
 496 00d8 7426     		je	.L38
 497 00da BAFFFFFF 		movl	$-1, %edx
 497      FF
 498 00df F00FC150 		lock xaddl	%edx, -8(%rax)
 498      F8
 499 00e4 89D0     		movl	%edx, %eax
 500              	.L39:
 501 00e6 85C0     		testl	%eax, %eax
 502 00e8 0F8F72FF 		jg	.L37
 502      FFFF
 503 00ee 488D7424 		leaq	7(%rsp), %rsi
 503      07
 504 00f3 E8000000 		call	_ZNSs4_Rep10_M_destroyERKSaIcE
 504      00
 505 00f8 E963FFFF 		jmp	.L37
 505      FF
 506 00fd 0F1F00   		.p2align 4,,10
 507              		.p2align 3
 508              	.L38:
 509 0100 8B50F8   		movl	-8(%rax), %edx
 510 0103 8D4AFF   		leal	-1(%rdx), %ecx
 511 0106 8948F8   		movl	%ecx, -8(%rax)
 512 0109 89D0     		movl	%edx, %eax
 513 010b EBD9     		jmp	.L39
 514 010d 0F1F00   		.p2align 4,,10
 515              		.p2align 3
 516              	.L33:
 517 0110 8B50F8   		movl	-8(%rax), %edx
 518 0113 8D4AFF   		leal	-1(%rdx), %ecx
 519 0116 8948F8   		movl	%ecx, -8(%rax)
 520 0119 89D0     		movl	%edx, %eax
 521 011b EB99     		jmp	.L34
 522              	.L45:
 523 011d E8000000 		call	__stack_chk_fail
 523      00
 524              		.cfi_endproc
 525              	.LFE1606:
 527              		.section	.text.unlikely._ZN8UnitTest15MemoryOutStreamD1Ev,"axG",@progbits,_ZN8UnitTest15MemoryOutS
 528              	.LCOLDE17:
 529              		.section	.text._ZN8UnitTest15MemoryOutStreamD1Ev,"axG",@progbits,_ZN8UnitTest15MemoryOutStreamD1Ev
 530              	.LHOTE17:
 531              		.set	.LTHUNK0,_ZN8UnitTest15MemoryOutStreamD1Ev
 532              	.LCOLDB18:
 533              	.LHOTB18:
 534 0122 0F1F4000 		.p2align 4,,15
 534      662E0F1F 
 534      84000000 
 534      0000
 535              		.weak	_ZTv0_n24_N8UnitTest15MemoryOutStreamD1Ev
 537              	_ZTv0_n24_N8UnitTest15MemoryOutStreamD1Ev:
 538              	.LFB1701:
 539              		.cfi_startproc
 540 0130 4C8B17   		movq	(%rdi), %r10
 541 0133 49037AE8 		addq	-24(%r10), %rdi
 542 0137 E9C4FEFF 		jmp	.LTHUNK0
 542      FF
 543              		.cfi_endproc
 544              	.LFE1701:
 546              	.LCOLDE18:
 547              	.LHOTE18:
 548              		.section	.text.unlikely._ZN8UnitTest15MemoryOutStreamD0Ev,"axG",@progbits,_ZN8UnitTest15MemoryOutS
 549              		.align 2
 550              	.LCOLDB19:
 551              		.section	.text._ZN8UnitTest15MemoryOutStreamD0Ev,"axG",@progbits,_ZN8UnitTest15MemoryOutStreamD0Ev
 552              	.LHOTB19:
 553              		.align 2
 554              		.p2align 4,,15
 555              		.weak	_ZN8UnitTest15MemoryOutStreamD0Ev
 557              	_ZN8UnitTest15MemoryOutStreamD0Ev:
 558              	.LFB1607:
 559              		.cfi_startproc
 560 0000 53       		pushq	%rbx
 561              		.cfi_def_cfa_offset 16
 562              		.cfi_offset 3, -16
 563 0001 4889FB   		movq	%rdi, %rbx
 564 0004 4883EC10 		subq	$16, %rsp
 565              		.cfi_def_cfa_offset 32
 566 0008 48C70700 		movq	$_ZTVN8UnitTest15MemoryOutStreamE+24, (%rdi)
 566      000000
 567 000f 48C74760 		movq	$_ZTVN8UnitTest15MemoryOutStreamE+64, 96(%rdi)
 567      00000000 
 568 0017 64488B04 		movq	%fs:40, %rax
 568      25280000 
 568      00
 569 0020 48894424 		movq	%rax, 8(%rsp)
 569      08
 570 0025 31C0     		xorl	%eax, %eax
 571 0027 488B4758 		movq	88(%rdi), %rax
 572 002b 488D78E8 		leaq	-24(%rax), %rdi
 573 002f 4881FF00 		cmpq	$_ZNSs4_Rep20_S_empty_rep_storageE, %rdi
 573      000000
 574 0036 7570     		jne	.L59
 575              	.L48:
 576 0038 488B4350 		movq	80(%rbx), %rax
 577 003c 48C70300 		movq	$_ZTCN8UnitTest15MemoryOutStreamE0_St19basic_ostringstreamIcSt11char_traitsIcESaIcEE+24, (%rb
 577      000000
 578 0043 48C74360 		movq	$_ZTCN8UnitTest15MemoryOutStreamE0_St19basic_ostringstreamIcSt11char_traitsIcESaIcEE+64, 96(%
 578      00000000 
 579 004b 48C74308 		movq	$_ZTVSt15basic_stringbufIcSt11char_traitsIcESaIcEE+16, 8(%rbx)
 579      00000000 
 580 0053 488D78E8 		leaq	-24(%rax), %rdi
 581 0057 4881FF00 		cmpq	$_ZNSs4_Rep20_S_empty_rep_storageE, %rdi
 581      000000
 582 005e 7578     		jne	.L60
 583              	.L53:
 584 0060 488D7B40 		leaq	64(%rbx), %rdi
 585 0064 48C74308 		movq	$_ZTVSt15basic_streambufIcSt11char_traitsIcEE+16, 8(%rbx)
 585      00000000 
 586 006c E8000000 		call	_ZNSt6localeD1Ev
 586      00
 587 0071 488D7B60 		leaq	96(%rbx), %rdi
 588 0075 48C74360 		movq	$_ZTVSt9basic_iosIcSt11char_traitsIcEE+16, 96(%rbx)
 588      00000000 
 589 007d E8000000 		call	_ZNSt8ios_baseD2Ev
 589      00
 590 0082 4889DF   		movq	%rbx, %rdi
 591 0085 E8000000 		call	_ZdlPv
 591      00
 592 008a 488B4424 		movq	8(%rsp), %rax
 592      08
 593 008f 64483304 		xorq	%fs:40, %rax
 593      25280000 
 593      00
 594 0098 0F858700 		jne	.L61
 594      0000
 595 009e 4883C410 		addq	$16, %rsp
 596              		.cfi_remember_state
 597              		.cfi_def_cfa_offset 16
 598 00a2 5B       		popq	%rbx
 599              		.cfi_def_cfa_offset 8
 600 00a3 C3       		ret
 601              		.p2align 4,,10
 602 00a4 0F1F4000 		.p2align 3
 603              	.L59:
 604              		.cfi_restore_state
 605 00a8 BA000000 		movl	$_ZL28__gthrw___pthread_key_createPjPFvPvE, %edx
 605      00
 606 00ad 4885D2   		testq	%rdx, %rdx
 607 00b0 7466     		je	.L49
 608 00b2 BAFFFFFF 		movl	$-1, %edx
 608      FF
 609 00b7 F00FC150 		lock xaddl	%edx, -8(%rax)
 609      F8
 610 00bc 89D0     		movl	%edx, %eax
 611              	.L50:
 612 00be 85C0     		testl	%eax, %eax
 613 00c0 0F8F72FF 		jg	.L48
 613      FFFF
 614 00c6 488D7424 		leaq	7(%rsp), %rsi
 614      07
 615 00cb E8000000 		call	_ZNSs4_Rep10_M_destroyERKSaIcE
 615      00
 616 00d0 E963FFFF 		jmp	.L48
 616      FF
 617              		.p2align 4,,10
 618 00d5 0F1F00   		.p2align 3
 619              	.L60:
 620 00d8 BA000000 		movl	$_ZL28__gthrw___pthread_key_createPjPFvPvE, %edx
 620      00
 621 00dd 4885D2   		testq	%rdx, %rdx
 622 00e0 7426     		je	.L54
 623 00e2 BAFFFFFF 		movl	$-1, %edx
 623      FF
 624 00e7 F00FC150 		lock xaddl	%edx, -8(%rax)
 624      F8
 625 00ec 89D0     		movl	%edx, %eax
 626              	.L55:
 627 00ee 85C0     		testl	%eax, %eax
 628 00f0 0F8F6AFF 		jg	.L53
 628      FFFF
 629 00f6 488D7424 		leaq	7(%rsp), %rsi
 629      07
 630 00fb E8000000 		call	_ZNSs4_Rep10_M_destroyERKSaIcE
 630      00
 631 0100 E95BFFFF 		jmp	.L53
 631      FF
 632              		.p2align 4,,10
 633 0105 0F1F00   		.p2align 3
 634              	.L54:
 635 0108 8B50F8   		movl	-8(%rax), %edx
 636 010b 8D4AFF   		leal	-1(%rdx), %ecx
 637 010e 8948F8   		movl	%ecx, -8(%rax)
 638 0111 89D0     		movl	%edx, %eax
 639 0113 EBD9     		jmp	.L55
 640              		.p2align 4,,10
 641 0115 0F1F00   		.p2align 3
 642              	.L49:
 643 0118 8B50F8   		movl	-8(%rax), %edx
 644 011b 8D4AFF   		leal	-1(%rdx), %ecx
 645 011e 8948F8   		movl	%ecx, -8(%rax)
 646 0121 89D0     		movl	%edx, %eax
 647 0123 EB99     		jmp	.L50
 648              	.L61:
 649 0125 E8000000 		call	__stack_chk_fail
 649      00
 650              		.cfi_endproc
 651              	.LFE1607:
 653              		.section	.text.unlikely._ZN8UnitTest15MemoryOutStreamD0Ev,"axG",@progbits,_ZN8UnitTest15MemoryOutS
 654              	.LCOLDE19:
 655              		.section	.text._ZN8UnitTest15MemoryOutStreamD0Ev,"axG",@progbits,_ZN8UnitTest15MemoryOutStreamD0Ev
 656              	.LHOTE19:
 657              		.set	.LTHUNK1,_ZN8UnitTest15MemoryOutStreamD0Ev
 658              	.LCOLDB20:
 659              	.LHOTB20:
 660 012a 660F1F44 		.p2align 4,,15
 660      0000
 661              		.weak	_ZTv0_n24_N8UnitTest15MemoryOutStreamD0Ev
 663              	_ZTv0_n24_N8UnitTest15MemoryOutStreamD0Ev:
 664              	.LFB1702:
 665              		.cfi_startproc
 666 0130 4C8B17   		movq	(%rdi), %r10
 667 0133 49037AE8 		addq	-24(%r10), %rdi
 668 0137 E9C4FEFF 		jmp	.LTHUNK1
 668      FF
 669              		.cfi_endproc
 670              	.LFE1702:
 672              	.LCOLDE20:
 673              	.LHOTE20:
 674              		.section	.text.unlikely
 675 0027 90       		.align 2
 676              	.LCOLDB21:
 677              	.LHOTB21:
 678              		.align 2
 680              	_ZN12_GLOBAL__N_122XmlTestReporterFixtureD2Ev:
 681              	.LFB1368:
 682              		.cfi_startproc
 683              		.cfi_personality 0x3,__gxx_personality_v0
 684              		.cfi_lsda 0x3,.LLSDA1368
 685 0028 4156     		pushq	%r14
 686              		.cfi_def_cfa_offset 16
 687              		.cfi_offset 14, -16
 688 002a 4155     		pushq	%r13
 689              		.cfi_def_cfa_offset 24
 690              		.cfi_offset 13, -24
 691 002c 4154     		pushq	%r12
 692              		.cfi_def_cfa_offset 32
 693              		.cfi_offset 12, -32
 694 002e 55       		pushq	%rbp
 695              		.cfi_def_cfa_offset 40
 696              		.cfi_offset 6, -40
 697 002f 4989FC   		movq	%rdi, %r12
 698 0032 53       		pushq	%rbx
 699              		.cfi_def_cfa_offset 48
 700              		.cfi_offset 3, -48
 701 0033 4883EC10 		subq	$16, %rsp
 702              		.cfi_def_cfa_offset 64
 703 0037 4C8BAF70 		movq	368(%rdi), %r13
 703      010000
 704 003e 4C8BB768 		movq	360(%rdi), %r14
 704      010000
 705 0045 64488B04 		movq	%fs:40, %rax
 705      25280000 
 705      00
 706 004e 48894424 		movq	%rax, 8(%rsp)
 706      08
 707 0053 31C0     		xorl	%eax, %eax
 708 0055 48C78760 		movq	$_ZTVN8UnitTest20DeferredTestReporterE+16, 352(%rdi)
 708      01000000 
 708      000000
 709              	.L63:
 710 0060 4D39F5   		cmpq	%r14, %r13
 711 0063 0F842901 		je	.L107
 711      0000
 712 0069 498B6E20 		movq	32(%r14), %rbp
 713 006d 498B5E18 		movq	24(%r14), %rbx
 714              	.L64:
 715 0071 4839EB   		cmpq	%rbp, %rbx
 716 0074 7446     		je	.L108
 717 0076 488B4308 		movq	8(%rbx), %rax
 718 007a 488D78E8 		leaq	-24(%rax), %rdi
 719 007e 4881FF00 		cmpq	$_ZNSs4_Rep20_S_empty_rep_storageE, %rdi
 719      000000
 720 0085 742F     		je	.L97
 721 0087 BA000000 		movl	$_ZL28__gthrw___pthread_key_createPjPFvPvE, %edx
 721      00
 722 008c 4885D2   		testq	%rdx, %rdx
 723 008f 740C     		je	.L67
 724 0091 83CAFF   		orl	$-1, %edx
 725 0094 F00FC150 		lock xaddl	%edx, -8(%rax)
 725      F8
 726 0099 89D0     		movl	%edx, %eax
 727 009b EB0B     		jmp	.L68
 728              	.L67:
 729 009d 8B50F8   		movl	-8(%rax), %edx
 730 00a0 8D4AFF   		leal	-1(%rdx), %ecx
 731 00a3 8948F8   		movl	%ecx, -8(%rax)
 732 00a6 89D0     		movl	%edx, %eax
 733              	.L68:
 734 00a8 85C0     		testl	%eax, %eax
 735 00aa 7F0A     		jg	.L97
 736 00ac 488D7424 		leaq	7(%rsp), %rsi
 736      07
 737 00b1 E8000000 		call	_ZNSs4_Rep10_M_destroyERKSaIcE
 737      00
 738              	.L97:
 739 00b6 4883C310 		addq	$16, %rbx
 740 00ba EBB5     		jmp	.L64
 741              	.L108:
 742 00bc 498B7E18 		movq	24(%r14), %rdi
 743 00c0 4885FF   		testq	%rdi, %rdi
 744 00c3 7405     		je	.L71
 745 00c5 E8000000 		call	_ZdlPv
 745      00
 746              	.L71:
 747 00ca 498B4610 		movq	16(%r14), %rax
 748 00ce 488D78E8 		leaq	-24(%rax), %rdi
 749 00d2 4881FF00 		cmpq	$_ZNSs4_Rep20_S_empty_rep_storageE, %rdi
 749      000000
 750 00d9 742F     		je	.L73
 751 00db BA000000 		movl	$_ZL28__gthrw___pthread_key_createPjPFvPvE, %edx
 751      00
 752 00e0 4885D2   		testq	%rdx, %rdx
 753 00e3 740C     		je	.L74
 754 00e5 83CAFF   		orl	$-1, %edx
 755 00e8 F00FC150 		lock xaddl	%edx, -8(%rax)
 755      F8
 756 00ed 89D0     		movl	%edx, %eax
 757 00ef EB0B     		jmp	.L75
 758              	.L74:
 759 00f1 8B50F8   		movl	-8(%rax), %edx
 760 00f4 8D4AFF   		leal	-1(%rdx), %ecx
 761 00f7 8948F8   		movl	%ecx, -8(%rax)
 762 00fa 89D0     		movl	%edx, %eax
 763              	.L75:
 764 00fc 85C0     		testl	%eax, %eax
 765 00fe 7F0A     		jg	.L73
 766 0100 488D7424 		leaq	7(%rsp), %rsi
 766      07
 767 0105 E8000000 		call	_ZNSs4_Rep10_M_destroyERKSaIcE
 767      00
 768              	.L73:
 769 010a 498B4608 		movq	8(%r14), %rax
 770 010e 488D78E8 		leaq	-24(%rax), %rdi
 771 0112 4881FF00 		cmpq	$_ZNSs4_Rep20_S_empty_rep_storageE, %rdi
 771      000000
 772 0119 742F     		je	.L78
 773 011b BA000000 		movl	$_ZL28__gthrw___pthread_key_createPjPFvPvE, %edx
 773      00
 774 0120 4885D2   		testq	%rdx, %rdx
 775 0123 740C     		je	.L79
 776 0125 83CAFF   		orl	$-1, %edx
 777 0128 F00FC150 		lock xaddl	%edx, -8(%rax)
 777      F8
 778 012d 89D0     		movl	%edx, %eax
 779 012f EB0B     		jmp	.L80
 780              	.L79:
 781 0131 8B50F8   		movl	-8(%rax), %edx
 782 0134 8D4AFF   		leal	-1(%rdx), %ecx
 783 0137 8948F8   		movl	%ecx, -8(%rax)
 784 013a 89D0     		movl	%edx, %eax
 785              	.L80:
 786 013c 85C0     		testl	%eax, %eax
 787 013e 7F0A     		jg	.L78
 788 0140 488D7424 		leaq	7(%rsp), %rsi
 788      07
 789 0145 E8000000 		call	_ZNSs4_Rep10_M_destroyERKSaIcE
 789      00
 790              	.L78:
 791 014a 498B06   		movq	(%r14), %rax
 792 014d 488D78E8 		leaq	-24(%rax), %rdi
 793 0151 4881FF00 		cmpq	$_ZNSs4_Rep20_S_empty_rep_storageE, %rdi
 793      000000
 794 0158 742F     		je	.L98
 795 015a BA000000 		movl	$_ZL28__gthrw___pthread_key_createPjPFvPvE, %edx
 795      00
 796 015f 4885D2   		testq	%rdx, %rdx
 797 0162 740C     		je	.L84
 798 0164 83CAFF   		orl	$-1, %edx
 799 0167 F00FC150 		lock xaddl	%edx, -8(%rax)
 799      F8
 800 016c 89D0     		movl	%edx, %eax
 801 016e EB0B     		jmp	.L85
 802              	.L84:
 803 0170 8B50F8   		movl	-8(%rax), %edx
 804 0173 8D4AFF   		leal	-1(%rdx), %ecx
 805 0176 8948F8   		movl	%ecx, -8(%rax)
 806 0179 89D0     		movl	%edx, %eax
 807              	.L85:
 808 017b 85C0     		testl	%eax, %eax
 809 017d 7F0A     		jg	.L98
 810 017f 488D7424 		leaq	7(%rsp), %rsi
 810      07
 811 0184 E8000000 		call	_ZNSs4_Rep10_M_destroyERKSaIcE
 811      00
 812              	.L98:
 813 0189 4983C638 		addq	$56, %r14
 814 018d E9CEFEFF 		jmp	.L63
 814      FF
 815              	.L107:
 816 0192 498BBC24 		movq	360(%r12), %rdi
 816      68010000 
 817 019a 4885FF   		testq	%rdi, %rdi
 818 019d 7405     		je	.L88
 819 019f E8000000 		call	_ZdlPv
 819      00
 820              	.L88:
 821 01a4 498DBC24 		leaq	352(%r12), %rdi
 821      60010000 
 822              	.LEHB0:
 823 01ac E8000000 		call	_ZN8UnitTest12TestReporterD2Ev
 823      00
 824              	.LEHE0:
 825 01b1 498B4424 		movq	80(%r12), %rax
 825      50
 826 01b6 49C70424 		movq	$_ZTVSt19basic_ostringstreamIcSt11char_traitsIcESaIcEE+24, (%r12)
 826      00000000 
 827 01be 49C74424 		movq	$_ZTVSt19basic_ostringstreamIcSt11char_traitsIcESaIcEE+64, 88(%r12)
 827      58000000 
 827      00
 828 01c7 49C74424 		movq	$_ZTVSt15basic_stringbufIcSt11char_traitsIcESaIcEE+16, 8(%r12)
 828      08000000 
 828      00
 829 01d0 488D78E8 		leaq	-24(%rax), %rdi
 830 01d4 4881FF00 		cmpq	$_ZNSs4_Rep20_S_empty_rep_storageE, %rdi
 830      000000
 831 01db 742F     		je	.L90
 832 01dd BA000000 		movl	$_ZL28__gthrw___pthread_key_createPjPFvPvE, %edx
 832      00
 833 01e2 4885D2   		testq	%rdx, %rdx
 834 01e5 740C     		je	.L91
 835 01e7 83CAFF   		orl	$-1, %edx
 836 01ea F00FC150 		lock xaddl	%edx, -8(%rax)
 836      F8
 837 01ef 89D0     		movl	%edx, %eax
 838 01f1 EB0B     		jmp	.L92
 839              	.L91:
 840 01f3 8B50F8   		movl	-8(%rax), %edx
 841 01f6 8D4AFF   		leal	-1(%rdx), %ecx
 842 01f9 8948F8   		movl	%ecx, -8(%rax)
 843 01fc 89D0     		movl	%edx, %eax
 844              	.L92:
 845 01fe 85C0     		testl	%eax, %eax
 846 0200 7F0A     		jg	.L90
 847 0202 488D7424 		leaq	7(%rsp), %rsi
 847      07
 848 0207 E8000000 		call	_ZNSs4_Rep10_M_destroyERKSaIcE
 848      00
 849              	.L90:
 850 020c 498D7C24 		leaq	64(%r12), %rdi
 850      40
 851 0211 49C74424 		movq	$_ZTVSt15basic_streambufIcSt11char_traitsIcEE+16, 8(%r12)
 851      08000000 
 851      00
 852 021a E8000000 		call	_ZNSt6localeD1Ev
 852      00
 853 021f 488B0500 		movq	_ZTTSt19basic_ostringstreamIcSt11char_traitsIcESaIcEE+8(%rip), %rax
 853      000000
 854 0226 488B1500 		movq	_ZTTSt19basic_ostringstreamIcSt11char_traitsIcESaIcEE+16(%rip), %rdx
 854      000000
 855 022d 498D7C24 		leaq	88(%r12), %rdi
 855      58
 856 0232 488B40E8 		movq	-24(%rax), %rax
 857 0236 49891404 		movq	%rdx, (%r12,%rax)
 858 023a 49C74424 		movq	$_ZTVSt9basic_iosIcSt11char_traitsIcEE+16, 88(%r12)
 858      58000000 
 858      00
 859              	.LEHB1:
 860 0243 E8000000 		call	_ZNSt8ios_baseD2Ev
 860      00
 861              	.LEHE1:
 862 0248 488B4424 		movq	8(%rsp), %rax
 862      08
 863 024d 64483304 		xorq	%fs:40, %rax
 863      25280000 
 863      00
 864 0256 7418     		je	.L95
 865 0258 E8000000 		call	__stack_chk_fail
 865      00
 866              	.L96:
 867 025d 4889C3   		movq	%rax, %rbx
 868              	.L94:
 869 0260 4C89E7   		movq	%r12, %rdi
 870 0263 E8000000 		call	_ZNSt19basic_ostringstreamIcSt11char_traitsIcESaIcEED1Ev
 870      00
 871 0268 4889DF   		movq	%rbx, %rdi
 872              	.LEHB2:
 873 026b E8000000 		call	_Unwind_Resume
 873      00
 874              	.LEHE2:
 875              	.L95:
 876 0270 4883C410 		addq	$16, %rsp
 877              		.cfi_def_cfa_offset 48
 878 0274 5B       		popq	%rbx
 879              		.cfi_def_cfa_offset 40
 880 0275 5D       		popq	%rbp
 881              		.cfi_def_cfa_offset 32
 882 0276 415C     		popq	%r12
 883              		.cfi_def_cfa_offset 24
 884 0278 415D     		popq	%r13
 885              		.cfi_def_cfa_offset 16
 886 027a 415E     		popq	%r14
 887              		.cfi_def_cfa_offset 8
 888 027c C3       		ret
 889              		.cfi_endproc
 890              	.LFE1368:
 891              		.globl	__gxx_personality_v0
 892              		.section	.gcc_except_table,"a",@progbits
 893              	.LLSDA1368:
 894 0000 FF       		.byte	0xff
 895 0001 FF       		.byte	0xff
 896 0002 01       		.byte	0x1
 897 0003 10       		.uleb128 .LLSDACSE1368-.LLSDACSB1368
 898              	.LLSDACSB1368:
 899 0004 8403     		.uleb128 .LEHB0-.LFB1368
 900 0006 05       		.uleb128 .LEHE0-.LEHB0
 901 0007 B504     		.uleb128 .L96-.LFB1368
 902 0009 00       		.uleb128 0
 903 000a 9B04     		.uleb128 .LEHB1-.LFB1368
 904 000c 05       		.uleb128 .LEHE1-.LEHB1
 905 000d 00       		.uleb128 0
 906 000e 00       		.uleb128 0
 907 000f C304     		.uleb128 .LEHB2-.LFB1368
 908 0011 05       		.uleb128 .LEHE2-.LEHB2
 909 0012 00       		.uleb128 0
 910 0013 00       		.uleb128 0
 911              	.LLSDACSE1368:
 912              		.section	.text.unlikely
 914              	.LCOLDE21:
 915              	.LHOTE21:
 916              		.section	.text.unlikely._ZNSt15basic_stringbufIcSt11char_traitsIcESaIcEED2Ev,"axG",@progbits,_ZNSt
 917              		.align 2
 918              	.LCOLDB22:
 919              		.section	.text._ZNSt15basic_stringbufIcSt11char_traitsIcESaIcEED2Ev,"axG",@progbits,_ZNSt15basic_s
 920              	.LHOTB22:
 921              		.align 2
 922              		.p2align 4,,15
 923              		.weak	_ZNSt15basic_stringbufIcSt11char_traitsIcESaIcEED2Ev
 925              	_ZNSt15basic_stringbufIcSt11char_traitsIcESaIcEED2Ev:
 926              	.LFB1466:
 927              		.cfi_startproc
 928 0000 53       		pushq	%rbx
 929              		.cfi_def_cfa_offset 16
 930              		.cfi_offset 3, -16
 931 0001 4889FB   		movq	%rdi, %rbx
 932 0004 4883EC10 		subq	$16, %rsp
 933              		.cfi_def_cfa_offset 32
 934 0008 48C70700 		movq	$_ZTVSt15basic_stringbufIcSt11char_traitsIcESaIcEE+16, (%rdi)
 934      000000
 935 000f 64488B04 		movq	%fs:40, %rax
 935      25280000 
 935      00
 936 0018 48894424 		movq	%rax, 8(%rsp)
 936      08
 937 001d 31C0     		xorl	%eax, %eax
 938 001f 488B4748 		movq	72(%rdi), %rax
 939 0023 488D78E8 		leaq	-24(%rax), %rdi
 940 0027 4881FF00 		cmpq	$_ZNSs4_Rep20_S_empty_rep_storageE, %rdi
 940      000000
 941 002e 7530     		jne	.L117
 942              	.L111:
 943 0030 488D7B38 		leaq	56(%rbx), %rdi
 944 0034 48C70300 		movq	$_ZTVSt15basic_streambufIcSt11char_traitsIcEE+16, (%rbx)
 944      000000
 945 003b E8000000 		call	_ZNSt6localeD1Ev
 945      00
 946 0040 488B4424 		movq	8(%rsp), %rax
 946      08
 947 0045 64483304 		xorq	%fs:40, %rax
 947      25280000 
 947      00
 948 004e 754D     		jne	.L118
 949 0050 4883C410 		addq	$16, %rsp
 950              		.cfi_remember_state
 951              		.cfi_def_cfa_offset 16
 952 0054 5B       		popq	%rbx
 953              		.cfi_def_cfa_offset 8
 954 0055 C3       		ret
 955 0056 662E0F1F 		.p2align 4,,10
 955      84000000 
 955      0000
 956              		.p2align 3
 957              	.L117:
 958              		.cfi_restore_state
 959 0060 BA000000 		movl	$_ZL28__gthrw___pthread_key_createPjPFvPvE, %edx
 959      00
 960 0065 4885D2   		testq	%rdx, %rdx
 961 0068 7426     		je	.L112
 962 006a BAFFFFFF 		movl	$-1, %edx
 962      FF
 963 006f F00FC150 		lock xaddl	%edx, -8(%rax)
 963      F8
 964 0074 89D0     		movl	%edx, %eax
 965              	.L113:
 966 0076 85C0     		testl	%eax, %eax
 967 0078 7FB6     		jg	.L111
 968 007a 488D7424 		leaq	7(%rsp), %rsi
 968      07
 969 007f E8000000 		call	_ZNSs4_Rep10_M_destroyERKSaIcE
 969      00
 970 0084 EBAA     		jmp	.L111
 971 0086 662E0F1F 		.p2align 4,,10
 971      84000000 
 971      0000
 972              		.p2align 3
 973              	.L112:
 974 0090 8B50F8   		movl	-8(%rax), %edx
 975 0093 8D4AFF   		leal	-1(%rdx), %ecx
 976 0096 8948F8   		movl	%ecx, -8(%rax)
 977 0099 89D0     		movl	%edx, %eax
 978 009b EBD9     		jmp	.L113
 979              	.L118:
 980 009d E8000000 		call	__stack_chk_fail
 980      00
 981              		.cfi_endproc
 982              	.LFE1466:
 984              		.section	.text.unlikely._ZNSt15basic_stringbufIcSt11char_traitsIcESaIcEED2Ev,"axG",@progbits,_ZNSt
 985              	.LCOLDE22:
 986              		.section	.text._ZNSt15basic_stringbufIcSt11char_traitsIcESaIcEED2Ev,"axG",@progbits,_ZNSt15basic_s
 987              	.LHOTE22:
 988              		.weak	_ZNSt15basic_stringbufIcSt11char_traitsIcESaIcEED1Ev
 989              		.set	_ZNSt15basic_stringbufIcSt11char_traitsIcESaIcEED1Ev,_ZNSt15basic_stringbufIcSt11char_traitsI
 990              		.section	.text.unlikely._ZN8UnitTest15MemoryOutStreamC1Ev,"axG",@progbits,_ZN8UnitTest15MemoryOutS
 991              		.align 2
 992              	.LCOLDB23:
 993              		.section	.text._ZN8UnitTest15MemoryOutStreamC1Ev,"axG",@progbits,_ZN8UnitTest15MemoryOutStreamC1Ev
 994              	.LHOTB23:
 995              		.align 2
 996              		.p2align 4,,15
 997              		.weak	_ZN8UnitTest15MemoryOutStreamC1Ev
 999              	_ZN8UnitTest15MemoryOutStreamC1Ev:
 1000              	.LFB1080:
 1001              		.cfi_startproc
 1002              		.cfi_personality 0x3,__gxx_personality_v0
 1003              		.cfi_lsda 0x3,.LLSDA1080
 1004 0000 4155     		pushq	%r13
 1005              		.cfi_def_cfa_offset 16
 1006              		.cfi_offset 13, -16
 1007 0002 4154     		pushq	%r12
 1008              		.cfi_def_cfa_offset 24
 1009              		.cfi_offset 12, -24
 1010 0004 55       		pushq	%rbp
 1011              		.cfi_def_cfa_offset 32
 1012              		.cfi_offset 6, -32
 1013 0005 488D6F60 		leaq	96(%rdi), %rbp
 1014 0009 53       		pushq	%rbx
 1015              		.cfi_def_cfa_offset 40
 1016              		.cfi_offset 3, -40
 1017 000a 4889FB   		movq	%rdi, %rbx
 1018 000d 4883EC08 		subq	$8, %rsp
 1019              		.cfi_def_cfa_offset 48
 1020 0011 4889EF   		movq	%rbp, %rdi
 1021 0014 E8000000 		call	_ZNSt8ios_baseC2Ev
 1021      00
 1022 0019 48C78338 		movq	$0, 312(%rbx)
 1022      01000000 
 1022      000000
 1023 0024 C6834001 		movb	$0, 320(%rbx)
 1023      000000
 1024 002b 31F6     		xorl	%esi, %esi
 1025 002d C6834101 		movb	$0, 321(%rbx)
 1025      000000
 1026 0034 48C78348 		movq	$0, 328(%rbx)
 1026      01000000 
 1026      000000
 1027 003f 4889EF   		movq	%rbp, %rdi
 1028 0042 48C78350 		movq	$0, 336(%rbx)
 1028      01000000 
 1028      000000
 1029 004d 48C78358 		movq	$0, 344(%rbx)
 1029      01000000 
 1029      000000
 1030 0058 48C78360 		movq	$0, 352(%rbx)
 1030      01000000 
 1030      000000
 1031 0063 48C70300 		movq	$_ZTCN8UnitTest15MemoryOutStreamE0_So+24, (%rbx)
 1031      000000
 1032 006a 48C74360 		movq	$_ZTCN8UnitTest15MemoryOutStreamE0_So+64, 96(%rbx)
 1032      00000000 
 1033              	.LEHB3:
 1034 0072 E8000000 		call	_ZNSt9basic_iosIcSt11char_traitsIcEE4initEPSt15basic_streambufIcS1_E
 1034      00
 1035              	.LEHE3:
 1036 0077 488D7B40 		leaq	64(%rbx), %rdi
 1037 007b 48C70300 		movq	$_ZTCN8UnitTest15MemoryOutStreamE0_St19basic_ostringstreamIcSt11char_traitsIcESaIcEE+24, (%rb
 1037      000000
 1038 0082 48C74360 		movq	$_ZTCN8UnitTest15MemoryOutStreamE0_St19basic_ostringstreamIcSt11char_traitsIcESaIcEE+64, 96(%
 1038      00000000 
 1039 008a 48C74308 		movq	$_ZTVSt15basic_streambufIcSt11char_traitsIcEE+16, 8(%rbx)
 1039      00000000 
 1040 0092 48C74310 		movq	$0, 16(%rbx)
 1040      00000000 
 1041 009a 4C8D6308 		leaq	8(%rbx), %r12
 1042 009e 48C74318 		movq	$0, 24(%rbx)
 1042      00000000 
 1043 00a6 48C74320 		movq	$0, 32(%rbx)
 1043      00000000 
 1044 00ae 48C74328 		movq	$0, 40(%rbx)
 1044      00000000 
 1045 00b6 48C74330 		movq	$0, 48(%rbx)
 1045      00000000 
 1046 00be 48C74338 		movq	$0, 56(%rbx)
 1046      00000000 
 1047 00c6 E8000000 		call	_ZNSt6localeC1Ev
 1047      00
 1048 00cb 488B03   		movq	(%rbx), %rax
 1049 00ce 4889DF   		movq	%rbx, %rdi
 1050 00d1 48C74308 		movq	$_ZTVSt15basic_stringbufIcSt11char_traitsIcESaIcEE+16, 8(%rbx)
 1050      00000000 
 1051 00d9 C7434810 		movl	$16, 72(%rbx)
 1051      000000
 1052 00e0 48C74350 		movq	$_ZNSs4_Rep20_S_empty_rep_storageE+24, 80(%rbx)
 1052      00000000 
 1053 00e8 4C89E6   		movq	%r12, %rsi
 1054 00eb 480378E8 		addq	-24(%rax), %rdi
 1055              	.LEHB4:
 1056 00ef E8000000 		call	_ZNSt9basic_iosIcSt11char_traitsIcEE4initEPSt15basic_streambufIcS1_E
 1056      00
 1057              	.LEHE4:
 1058 00f4 48C70300 		movq	$_ZTVN8UnitTest15MemoryOutStreamE+24, (%rbx)
 1058      000000
 1059 00fb 48C74360 		movq	$_ZTVN8UnitTest15MemoryOutStreamE+64, 96(%rbx)
 1059      00000000 
 1060 0103 48C74358 		movq	$_ZNSs4_Rep20_S_empty_rep_storageE+24, 88(%rbx)
 1060      00000000 
 1061 010b 4883C408 		addq	$8, %rsp
 1062              		.cfi_remember_state
 1063              		.cfi_def_cfa_offset 40
 1064 010f 5B       		popq	%rbx
 1065              		.cfi_def_cfa_offset 32
 1066 0110 5D       		popq	%rbp
 1067              		.cfi_def_cfa_offset 24
 1068 0111 415C     		popq	%r12
 1069              		.cfi_def_cfa_offset 16
 1070 0113 415D     		popq	%r13
 1071              		.cfi_def_cfa_offset 8
 1072 0115 C3       		ret
 1073              	.L123:
 1074              		.cfi_restore_state
 1075 0116 4989C4   		movq	%rax, %r12
 1076 0119 EB0E     		jmp	.L122
 1077              	.L124:
 1078 011b 4989C5   		movq	%rax, %r13
 1079              	.L121:
 1080 011e 4C89E7   		movq	%r12, %rdi
 1081 0121 4D89EC   		movq	%r13, %r12
 1082 0124 E8000000 		call	_ZNSt15basic_stringbufIcSt11char_traitsIcESaIcEED1Ev
 1082      00
 1083              	.L122:
 1084 0129 4889EF   		movq	%rbp, %rdi
 1085 012c 48C74360 		movq	$_ZTVSt9basic_iosIcSt11char_traitsIcEE+16, 96(%rbx)
 1085      00000000 
 1086 0134 E8000000 		call	_ZNSt8ios_baseD2Ev
 1086      00
 1087 0139 4C89E7   		movq	%r12, %rdi
 1088              	.LEHB5:
 1089 013c E8000000 		call	_Unwind_Resume
 1089      00
 1090              	.LEHE5:
 1091              		.cfi_endproc
 1092              	.LFE1080:
 1093              		.section	.gcc_except_table
 1094              	.LLSDA1080:
 1095 0014 FF       		.byte	0xff
 1096 0015 FF       		.byte	0xff
 1097 0016 01       		.byte	0x1
 1098 0017 10       		.uleb128 .LLSDACSE1080-.LLSDACSB1080
 1099              	.LLSDACSB1080:
 1100 0018 72       		.uleb128 .LEHB3-.LFB1080
 1101 0019 05       		.uleb128 .LEHE3-.LEHB3
 1102 001a 9602     		.uleb128 .L123-.LFB1080
 1103 001c 00       		.uleb128 0
 1104 001d EF01     		.uleb128 .LEHB4-.LFB1080
 1105 001f 05       		.uleb128 .LEHE4-.LEHB4
 1106 0020 9B02     		.uleb128 .L124-.LFB1080
 1107 0022 00       		.uleb128 0
 1108 0023 BC02     		.uleb128 .LEHB5-.LFB1080
 1109 0025 05       		.uleb128 .LEHE5-.LEHB5
 1110 0026 00       		.uleb128 0
 1111 0027 00       		.uleb128 0
 1112              	.LLSDACSE1080:
 1113              		.section	.text._ZN8UnitTest15MemoryOutStreamC1Ev,"axG",@progbits,_ZN8UnitTest15MemoryOutStreamC1Ev
 1115              		.section	.text.unlikely._ZN8UnitTest15MemoryOutStreamC1Ev,"axG",@progbits,_ZN8UnitTest15MemoryOutS
 1116              	.LCOLDE23:
 1117              		.section	.text._ZN8UnitTest15MemoryOutStreamC1Ev,"axG",@progbits,_ZN8UnitTest15MemoryOutStreamC1Ev
 1118              	.LHOTE23:
 1119              		.section	.rodata.str1.1,"aMS",@progbits,1
 1120              	.LC24:
 1121 0000 556E6861 		.string	"Unhandled system exception"
 1121      6E646C65 
 1121      64207379 
 1121      7374656D 
 1121      20657863 
 1122              	.LC25:
 1123 001b 00       		.string	""
 1124              	.LC26:
 1125 001c 6D657373 		.string	"message"
 1125      61676500 
 1126              	.LC28:
 1127 0024 6F757470 		.string	"output.str().empty()"
 1127      75742E73 
 1127      74722829 
 1127      2E656D70 
 1127      74792829 
 1128              	.LC29:
 1129 0039 216F7574 		.string	"!output.str().empty()"
 1129      7075742E 
 1129      73747228 
 1129      292E656D 
 1129      70747928 
 1130              		.section	.rodata.str1.8,"aMS",@progbits,1
 1131              		.align 8
 1132              	.LC30:
 1133 0000 556E6861 		.string	"Unhandled exception in CHECK(output.str().empty())"
 1133      6E646C65 
 1133      64206578 
 1133      63657074 
 1133      696F6E20 
 1134 0033 00000000 		.align 8
 1134      00
 1135              	.LC31:
 1136 0038 556E6861 		.string	"Unhandled exception in CHECK(!output.str().empty())"
 1136      6E646C65 
 1136      64206578 
 1136      63657074 
 1136      696F6E20 
 1137              		.section	.rodata.str1.1
 1138              	.LC32:
 1139 004f 556E6861 		.string	"Unhandled exception: "
 1139      6E646C65 
 1139      64206578 
 1139      63657074 
 1139      696F6E3A 
 1140              	.LC33:
 1141 0065 556E6861 		.string	"Unhandled exception: Crash!"
 1141      6E646C65 
 1141      64206578 
 1141      63657074 
 1141      696F6E3A 
 1142              		.section	.rodata.str1.8
 1143 006c 00000000 		.align 8
 1144              	.LC34:
 1145 0070 62617369 		.string	"basic_string::_S_construct null not valid"
 1145      635F7374 
 1145      72696E67 
 1145      3A3A5F53 
 1145      5F636F6E 
 1146              		.section	.text.unlikely
 1147              	.LCOLDB35:
 1148              		.text
 1149              	.LHOTB35:
 1150 0179 0F1F8000 		.p2align 4,,15
 1150      000000
 1152              	_ZN8UnitTest11ExecuteTestIN12_GLOBAL__N_168XmlTestReporterFixtureOutputIsCachedUntilReportSummaryIs
 1153              	.LFB1489:
 1154              		.cfi_startproc
 1155              		.cfi_personality 0x3,__gxx_personality_v0
 1156              		.cfi_lsda 0x3,.LLSDA1489
 1157 0180 4155     		pushq	%r13
 1158              		.cfi_def_cfa_offset 16
 1159              		.cfi_offset 13, -16
 1160 0182 4154     		pushq	%r12
 1161              		.cfi_def_cfa_offset 24
 1162              		.cfi_offset 12, -24
 1163 0184 55       		pushq	%rbp
 1164              		.cfi_def_cfa_offset 32
 1165              		.cfi_offset 6, -32
 1166 0185 53       		pushq	%rbx
 1167              		.cfi_def_cfa_offset 40
 1168              		.cfi_offset 3, -40
 1169 0186 4889F3   		movq	%rsi, %rbx
 1170 0189 4881EC28 		subq	$1832, %rsp
 1170      070000
 1171              		.cfi_def_cfa_offset 1872
 1172 0190 48893C24 		movq	%rdi, (%rsp)
 1173 0194 48897424 		movq	%rsi, 8(%rsp)
 1173      08
 1174 0199 64488B04 		movq	%fs:40, %rax
 1174      25280000 
 1174      00
 1175 01a2 48898424 		movq	%rax, 1816(%rsp)
 1175      18070000 
 1176 01aa 31C0     		xorl	%eax, %eax
 1177              	.LEHB6:
 1178 01ac E8000000 		call	_ZN8UnitTest11CurrentTest7DetailsEv
 1178      00
 1179              	.LEHE6:
 1180 01b1 488DBC24 		leaq	688(%rsp), %rdi
 1180      B0020000 
 1181 01b9 488918   		movq	%rbx, (%rax)
 1182              	.LEHB7:
 1183 01bc E8000000 		call	_ZN8UnitTest16SignalTranslatorC1Ev
 1183      00
 1184              	.LEHE7:
 1185 01c1 488B3D00 		movq	_ZN8UnitTest16SignalTranslator12s_jumpTargetE(%rip), %rdi
 1185      000000
 1186 01c8 BE010000 		movl	$1, %esi
 1186      00
 1187 01cd E8000000 		call	__sigsetjmp
 1187      00
 1188 01d2 85C0     		testl	%eax, %eax
 1189 01d4 0F85A600 		jne	.L269
 1189      0000
 1190 01da B9000000 		movl	$.LC25, %ecx
 1190      00
 1191 01df 488DBC24 		leaq	160(%rsp), %rdi
 1191      A0000000 
 1192 01e7 4531C0   		xorl	%r8d, %r8d
 1193 01ea 4889CA   		movq	%rcx, %rdx
 1194 01ed 4889CE   		movq	%rcx, %rsi
 1195              	.LEHB8:
 1196 01f0 E8000000 		call	_ZN8UnitTest11TestDetailsC1EPKcS2_S2_i
 1196      00
 1197 01f5 488B2C24 		movq	(%rsp), %rbp
 1198 01f9 488DB424 		leaq	160(%rsp), %rsi
 1198      A0000000 
 1199 0201 488D9D60 		leaq	352(%rbp), %rbx
 1199      010000
 1200 0208 4889DF   		movq	%rbx, %rdi
 1201 020b E8000000 		call	_ZN8UnitTest20DeferredTestReporter15ReportTestStartERKNS_11TestDetailsE
 1201      00
 1202 0210 488DB424 		leaq	160(%rsp), %rsi
 1202      A0000000 
 1203 0218 BA000000 		movl	$.LC26, %edx
 1203      00
 1204 021d 4889DF   		movq	%rbx, %rdi
 1205 0220 E8000000 		call	_ZN8UnitTest20DeferredTestReporter13ReportFailureERKNS_11TestDetailsEPKc
 1205      00
 1206 0225 488DB424 		leaq	160(%rsp), %rsi
 1206      A0000000 
 1207 022d F30F1005 		movss	.LC27(%rip), %xmm0
 1207      00000000 
 1208 0235 4889DF   		movq	%rbx, %rdi
 1209 0238 E8000000 		call	_ZN8UnitTest20DeferredTestReporter16ReportTestFinishERKNS_11TestDetailsEf
 1209      00
 1210              	.LEHE8:
 1211 023d 488B4530 		movq	48(%rbp), %rax
 1212 0241 48C74424 		movq	$_ZNSs4_Rep20_S_empty_rep_storageE+24, 48(%rsp)
 1212      30000000 
 1212      00
 1213 024a 4885C0   		testq	%rax, %rax
 1214 024d 0F846D02 		je	.L132
 1214      0000
 1215 0253 488B7D20 		movq	32(%rbp), %rdi
 1216 0257 4839F8   		cmpq	%rdi, %rax
 1217 025a 7644     		jbe	.L133
 1218 025c 488B1424 		movq	(%rsp), %rdx
 1219 0260 4C8B6228 		movq	40(%rdx), %r12
 1220 0264 4C39E0   		cmpq	%r12, %rax
 1221 0267 0F84EB01 		je	.L229
 1221      0000
 1222 026d 4D85E4   		testq	%r12, %r12
 1223 0270 0F850304 		jne	.L270
 1223      0000
 1224 0276 BF000000 		movl	$.LC34, %edi
 1224      00
 1225              	.LEHB9:
 1226 027b E8000000 		call	_ZSt19__throw_logic_errorPKc
 1226      00
 1227              	.LEHE9:
 1228              		.p2align 4,,10
 1229              		.p2align 3
 1230              	.L269:
 1231 0280 BF080000 		movl	$8, %edi
 1231      00
 1232 0285 E8000000 		call	__cxa_allocate_exception
 1232      00
 1233 028a 31D2     		xorl	%edx, %edx
 1234 028c 48C70000 		movq	$.LC24, (%rax)
 1234      000000
 1235 0293 BE000000 		movl	$_ZTIPKc, %esi
 1235      00
 1236 0298 4889C7   		movq	%rax, %rdi
 1237              	.LEHB10:
 1238 029b E8000000 		call	__cxa_throw
 1238      00
 1239              	.LEHE10:
 1240              		.p2align 4,,10
 1241              		.p2align 3
 1242              	.L133:
 1243 02a0 488B0424 		movq	(%rsp), %rax
 1244 02a4 4C8B6028 		movq	40(%rax), %r12
 1245 02a8 4C39E7   		cmpq	%r12, %rdi
 1246 02ab 0F84E700 		je	.L230
 1246      0000
 1247 02b1 4D85E4   		testq	%r12, %r12
 1248 02b4 0F856F03 		jne	.L147
 1248      0000
 1249 02ba 4885FF   		testq	%rdi, %rdi
 1250 02bd 0F846603 		je	.L147
 1250      0000
 1251 02c3 BF000000 		movl	$.LC34, %edi
 1251      00
 1252              	.LEHB11:
 1253 02c8 E8000000 		call	_ZSt19__throw_logic_errorPKc
 1253      00
 1254              	.LEHE11:
 1255              	.L234:
 1256 02cd 4889C3   		movq	%rax, %rbx
 1257 02d0 4889D5   		movq	%rdx, %rbp
 1258              	.L212:
 1259 02d3 488DBC24 		leaq	688(%rsp), %rdi
 1259      B0020000 
 1260 02db E8000000 		call	_ZN8UnitTest16SignalTranslatorD1Ev
 1260      00
 1261 02e0 4889DF   		movq	%rbx, %rdi
 1262 02e3 4889EA   		movq	%rbp, %rdx
 1263              	.L214:
 1264 02e6 4883FA01 		cmpq	$1, %rdx
 1265 02ea 0F848708 		je	.L216
 1265      0000
 1266 02f0 4883FA02 		cmpq	$2, %rdx
 1267 02f4 0F855708 		jne	.L271
 1267      0000
 1268 02fa E8000000 		call	__cxa_begin_catch
 1268      00
 1269 02ff 488DBC24 		leaq	320(%rsp), %rdi
 1269      40010000 
 1270 0307 4889C3   		movq	%rax, %rbx
 1271              	.LEHB12:
 1272 030a E8000000 		call	_ZN8UnitTest15MemoryOutStreamC1Ev
 1272      00
 1273              	.LEHE12:
 1274 030f 488B03   		movq	(%rbx), %rax
 1275 0312 4889DF   		movq	%rbx, %rdi
 1276 0315 FF5010   		call	*16(%rax)
 1277 0318 488DBC24 		leaq	320(%rsp), %rdi
 1277      40010000 
 1278 0320 BE000000 		movl	$.LC32, %esi
 1278      00
 1279 0325 4889C3   		movq	%rax, %rbx
 1280              	.LEHB13:
 1281 0328 E8000000 		call	_ZStlsISt11char_traitsIcEERSt13basic_ostreamIcT_ES5_PKc
 1281      00
 1282 032d 4889C7   		movq	%rax, %rdi
 1283 0330 4889DE   		movq	%rbx, %rsi
 1284 0333 E8000000 		call	_ZStlsISt11char_traitsIcEERSt13basic_ostreamIcT_ES5_PKc
 1284      00
 1285 0338 488DBC24 		leaq	320(%rsp), %rdi
 1285      40010000 
 1286 0340 E8000000 		call	_ZNK8UnitTest15MemoryOutStream7GetTextEv
 1286      00
 1287 0345 4889C3   		movq	%rax, %rbx
 1288 0348 E8000000 		call	_ZN8UnitTest11CurrentTest7ResultsEv
 1288      00
 1289 034d 488B7424 		movq	8(%rsp), %rsi
 1289      08
 1290 0352 488B38   		movq	(%rax), %rdi
 1291 0355 4889DA   		movq	%rbx, %rdx
 1292 0358 E8000000 		call	_ZN8UnitTest11TestResults13OnTestFailureERKNS_11TestDetailsEPKc
 1292      00
 1293              	.LEHE13:
 1294 035d 488DBC24 		leaq	320(%rsp), %rdi
 1294      40010000 
 1295              	.LEHB14:
 1296 0365 E8000000 		call	_ZN8UnitTest15MemoryOutStreamD1Ev
 1296      00
 1297              	.LEHE14:
 1298              	.L258:
 1299 036a E8000000 		call	__cxa_end_catch
 1299      00
 1300 036f 90       		.p2align 4,,10
 1301              		.p2align 3
 1302              	.L129:
 1303 0370 488B8424 		movq	1816(%rsp), %rax
 1303      18070000 
 1304 0378 64483304 		xorq	%fs:40, %rax
 1304      25280000 
 1304      00
 1305 0381 0F85D106 		jne	.L272
 1305      0000
 1306 0387 4881C428 		addq	$1832, %rsp
 1306      070000
 1307              		.cfi_remember_state
 1308              		.cfi_def_cfa_offset 40
 1309 038e 5B       		popq	%rbx
 1310              		.cfi_def_cfa_offset 32
 1311 038f 5D       		popq	%rbp
 1312              		.cfi_def_cfa_offset 24
 1313 0390 415C     		popq	%r12
 1314              		.cfi_def_cfa_offset 16
 1315 0392 415D     		popq	%r13
 1316              		.cfi_def_cfa_offset 8
 1317 0394 C3       		ret
 1318              		.p2align 4,,10
 1319 0395 0F1F00   		.p2align 3
 1320              	.L230:
 1321              		.cfi_restore_state
 1322 0398 B9000000 		movl	$_ZNSs4_Rep20_S_empty_rep_storageE+24, %ecx
 1322      00
 1323 039d 0F1F00   		.p2align 4,,10
 1324              		.p2align 3
 1325              	.L144:
 1326 03a0 488D7424 		leaq	64(%rsp), %rsi
 1326      40
 1327 03a5 488D7C24 		leaq	48(%rsp), %rdi
 1327      30
 1328 03aa 48894C24 		movq	%rcx, 64(%rsp)
 1328      40
 1329              	.LEHB15:
 1330 03af E8000000 		call	_ZNSs6assignERKSs
 1330      00
 1331              	.LEHE15:
 1332 03b4 488B4424 		movq	64(%rsp), %rax
 1332      40
 1333 03b9 488D78E8 		leaq	-24(%rax), %rdi
 1334 03bd 4881FF00 		cmpq	$_ZNSs4_Rep20_S_empty_rep_storageE, %rdi
 1334      000000
 1335 03c4 0F85BE05 		jne	.L273
 1335      0000
 1336              	.L140:
 1337 03ca 488B4424 		movq	48(%rsp), %rax
 1337      30
 1338 03cf 488D78E8 		leaq	-24(%rax), %rdi
 1339 03d3 488B68E8 		movq	-24(%rax), %rbp
 1340 03d7 4881FF00 		cmpq	$_ZNSs4_Rep20_S_empty_rep_storageE, %rdi
 1340      000000
 1341 03de 0F85BC04 		jne	.L164
 1341      0000
 1342              	.L169:
 1343 03e4 4885ED   		testq	%rbp, %rbp
 1344 03e7 0F850302 		jne	.L274
 1344      0000
 1345              	.L170:
 1346 03ed F30F1005 		movss	.LC27(%rip), %xmm0
 1346      00000000 
 1347 03f5 B9010000 		movl	$1, %ecx
 1347      00
 1348 03fa BA010000 		movl	$1, %edx
 1348      00
 1349 03ff BE010000 		movl	$1, %esi
 1349      00
 1350 0404 4889DF   		movq	%rbx, %rdi
 1351              	.LEHB16:
 1352 0407 E8000000 		call	_ZN8UnitTest15XmlTestReporter13ReportSummaryEiiif
 1352      00
 1353              	.LEHE16:
 1354 040c 488B0C24 		movq	(%rsp), %rcx
 1355 0410 48C74424 		movq	$_ZNSs4_Rep20_S_empty_rep_storageE+24, 32(%rsp)
 1355      20000000 
 1355      00
 1356 0419 488B4130 		movq	48(%rcx), %rax
 1357 041d 4885C0   		testq	%rax, %rax
 1358 0420 0F840A05 		je	.L171
 1358      0000
 1359 0426 488B7920 		movq	32(%rcx), %rdi
 1360 042a 4839F8   		cmpq	%rdi, %rax
 1361 042d 0F868D01 		jbe	.L172
 1361      0000
 1362 0433 488B6928 		movq	40(%rcx), %rbp
 1363 0437 4839E8   		cmpq	%rbp, %rax
 1364 043a 0F84E004 		je	.L231
 1364      0000
 1365 0440 4885ED   		testq	%rbp, %rbp
 1366 0443 0F858302 		jne	.L275
 1366      0000
 1367 0449 BF000000 		movl	$.LC34, %edi
 1367      00
 1368              	.LEHB17:
 1369 044e E8000000 		call	_ZSt19__throw_logic_errorPKc
 1369      00
 1370              	.LEHE17:
 1371              		.p2align 4,,10
 1372 0453 0F1F4400 		.p2align 3
 1372      00
 1373              	.L229:
 1374 0458 B9000000 		movl	$_ZNSs4_Rep20_S_empty_rep_storageE+24, %ecx
 1374      00
 1375 045d 0F1F00   		.p2align 4,,10
 1376              		.p2align 3
 1377              	.L134:
 1378 0460 488D7424 		leaq	80(%rsp), %rsi
 1378      50
 1379 0465 488D7C24 		leaq	48(%rsp), %rdi
 1379      30
 1380 046a 48894C24 		movq	%rcx, 80(%rsp)
 1380      50
 1381              	.LEHB18:
 1382 046f E8000000 		call	_ZNSs6assignERKSs
 1382      00
 1383              	.LEHE18:
 1384 0474 488B4424 		movq	80(%rsp), %rax
 1384      50
 1385 0479 488D78E8 		leaq	-24(%rax), %rdi
 1386 047d 4881FF00 		cmpq	$_ZNSs4_Rep20_S_empty_rep_storageE, %rdi
 1386      000000
 1387 0484 0F8440FF 		je	.L140
 1387      FFFF
 1388 048a BA000000 		movl	$_ZL28__gthrw___pthread_key_createPjPFvPvE, %edx
 1388      00
 1389 048f 4885D2   		testq	%rdx, %rdx
 1390 0492 0F84B005 		je	.L141
 1390      0000
 1391 0498 BAFFFFFF 		movl	$-1, %edx
 1391      FF
 1392 049d F00FC150 		lock xaddl	%edx, -8(%rax)
 1392      F8
 1393 04a2 89D0     		movl	%edx, %eax
 1394              	.L142:
 1395 04a4 85C0     		testl	%eax, %eax
 1396 04a6 0F8F1EFF 		jg	.L140
 1396      FFFF
 1397 04ac 488D7424 		leaq	22(%rsp), %rsi
 1397      16
 1398 04b1 E8000000 		call	_ZNSs4_Rep10_M_destroyERKSaIcE
 1398      00
 1399 04b6 E90FFFFF 		jmp	.L140
 1399      FF
 1400 04bb 0F1F4400 		.p2align 4,,10
 1400      00
 1401              		.p2align 3
 1402              	.L132:
 1403 04c0 488B0424 		movq	(%rsp), %rax
 1404 04c4 488D7C24 		leaq	48(%rsp), %rdi
 1404      30
 1405 04c9 488D7050 		leaq	80(%rax), %rsi
 1406              	.LEHB19:
 1407 04cd E8000000 		call	_ZNSs6assignERKSs
 1407      00
 1408              	.LEHE19:
 1409 04d2 E9F3FEFF 		jmp	.L140
 1409      FF
 1410              	.L243:
 1411 04d7 4889C5   		movq	%rax, %rbp
 1412              	.L156:
 1413 04da 488B4424 		movq	48(%rsp), %rax
 1413      30
 1414 04df 488D78E8 		leaq	-24(%rax), %rdi
 1415 04e3 4881FF00 		cmpq	$_ZNSs4_Rep20_S_empty_rep_storageE, %rdi
 1415      000000
 1416 04ea 740A     		je	.L163
 1417 04ec 488D7424 		leaq	18(%rsp), %rsi
 1417      12
 1418 04f1 E8000000 		call	_ZNSs4_Rep10_M_disposeERKSaIcE.part.5
 1418      00
 1419              	.L163:
 1420 04f6 4889E8   		movq	%rbp, %rax
 1421              	.L162:
 1422 04f9 4889C7   		movq	%rax, %rdi
 1423 04fc E8000000 		call	__cxa_begin_catch
 1423      00
 1424              	.LEHB20:
 1425 0501 E8000000 		call	_ZN8UnitTest11CurrentTest7DetailsEv
 1425      00
 1426 0506 488B30   		movq	(%rax), %rsi
 1427 0509 488DBC24 		leaq	256(%rsp), %rdi
 1427      00010000 
 1428 0511 BA3E0000 		movl	$62, %edx
 1428      00
 1429 0516 E8000000 		call	_ZN8UnitTest11TestDetailsC1ERKS0_i
 1429      00
 1430 051b E8000000 		call	_ZN8UnitTest11CurrentTest7ResultsEv
 1430      00
 1431 0520 488B38   		movq	(%rax), %rdi
 1432 0523 488DB424 		leaq	256(%rsp), %rsi
 1432      00010000 
 1433 052b BA000000 		movl	$.LC30, %edx
 1433      00
 1434 0530 E8000000 		call	_ZN8UnitTest11TestResults13OnTestFailureERKNS_11TestDetailsEPKc
 1434      00
 1435              	.LEHE20:
 1436              	.LEHB21:
 1437 0535 E8000000 		call	__cxa_end_catch
 1437      00
 1438              	.LEHE21:
 1439 053a E9AEFEFF 		jmp	.L170
 1439      FF
 1440              	.L246:
 1441 053f 4889C3   		movq	%rax, %rbx
 1442              	.L195:
 1443 0542 488B4424 		movq	32(%rsp), %rax
 1443      20
 1444 0547 488D78E8 		leaq	-24(%rax), %rdi
 1445 054b 4881FF00 		cmpq	$_ZNSs4_Rep20_S_empty_rep_storageE, %rdi
 1445      000000
 1446 0552 740A     		je	.L202
 1447 0554 488D7424 		leaq	25(%rsp), %rsi
 1447      19
 1448 0559 E8000000 		call	_ZNSs4_Rep10_M_disposeERKSaIcE.part.5
 1448      00
 1449              	.L202:
 1450 055e 4889D8   		movq	%rbx, %rax
 1451              	.L201:
 1452 0561 4889C7   		movq	%rax, %rdi
 1453 0564 E8000000 		call	__cxa_begin_catch
 1453      00
 1454              	.LEHB22:
 1455 0569 E8000000 		call	_ZN8UnitTest11CurrentTest7DetailsEv
 1455      00
 1456 056e 488B30   		movq	(%rax), %rsi
 1457 0571 488DBC24 		leaq	192(%rsp), %rdi
 1457      C0000000 
 1458 0579 BA410000 		movl	$65, %edx
 1458      00
 1459 057e E8000000 		call	_ZN8UnitTest11TestDetailsC1ERKS0_i
 1459      00
 1460 0583 E8000000 		call	_ZN8UnitTest11CurrentTest7ResultsEv
 1460      00
 1461 0588 488B38   		movq	(%rax), %rdi
 1462 058b 488DB424 		leaq	192(%rsp), %rsi
 1462      C0000000 
 1463 0593 BA000000 		movl	$.LC31, %edx
 1463      00
 1464 0598 E8000000 		call	_ZN8UnitTest11TestResults13OnTestFailureERKNS_11TestDetailsEPKc
 1464      00
 1465              	.LEHE22:
 1466              	.LEHB23:
 1467 059d E8000000 		call	__cxa_end_catch
 1467      00
 1468              	.LEHE23:
 1469              		.p2align 4,,10
 1470 05a2 660F1F44 		.p2align 3
 1470      0000
 1471              	.L209:
 1472 05a8 488DBC24 		leaq	688(%rsp), %rdi
 1472      B0020000 
 1473              	.LEHB24:
 1474 05b0 E8000000 		call	_ZN8UnitTest16SignalTranslatorD1Ev
 1474      00
 1475              	.LEHE24:
 1476 05b5 E9B6FDFF 		jmp	.L129
 1476      FF
 1477 05ba 660F1F44 		.p2align 4,,10
 1477      0000
 1478              		.p2align 3
 1479              	.L172:
 1480 05c0 488B0424 		movq	(%rsp), %rax
 1481 05c4 488B6828 		movq	40(%rax), %rbp
 1482 05c8 4839EF   		cmpq	%rbp, %rdi
 1483 05cb 0F843F03 		je	.L232
 1483      0000
 1484 05d1 4885ED   		testq	%rbp, %rbp
 1485 05d4 0F85B401 		jne	.L186
 1485      0000
 1486 05da 4885FF   		testq	%rdi, %rdi
 1487 05dd 0F84AB01 		je	.L186
 1487      0000
 1488 05e3 BF000000 		movl	$.LC34, %edi
 1488      00
 1489              	.LEHB25:
 1490 05e8 E8000000 		call	_ZSt19__throw_logic_errorPKc
 1490      00
 1491              	.LEHE25:
 1492 05ed 0F1F00   		.p2align 4,,10
 1493              		.p2align 3
 1494              	.L274:
 1495              	.LEHB26:
 1496 05f0 E8000000 		call	_ZN8UnitTest11CurrentTest7DetailsEv
 1496      00
 1497 05f5 488B30   		movq	(%rax), %rsi
 1498 05f8 488DBC24 		leaq	288(%rsp), %rdi
 1498      20010000 
 1499 0600 BA3E0000 		movl	$62, %edx
 1499      00
 1500 0605 E8000000 		call	_ZN8UnitTest11TestDetailsC1ERKS0_i
 1500      00
 1501 060a E8000000 		call	_ZN8UnitTest11CurrentTest7ResultsEv
 1501      00
 1502 060f 488B38   		movq	(%rax), %rdi
 1503 0612 488DB424 		leaq	288(%rsp), %rsi
 1503      20010000 
 1504 061a BA000000 		movl	$.LC28, %edx
 1504      00
 1505 061f E8000000 		call	_ZN8UnitTest11TestResults13OnTestFailureERKNS_11TestDetailsEPKc
 1505      00
 1506              	.LEHE26:
 1507 0624 E9C4FDFF 		jmp	.L170
 1507      FF
 1508              	.L147:
 1509 0629 488D5424 		leaq	23(%rsp), %rdx
 1509      17
 1510 062e 4C29E7   		subq	%r12, %rdi
 1511 0631 31F6     		xorl	%esi, %esi
 1512 0633 4889FD   		movq	%rdi, %rbp
 1513              	.LEHB27:
 1514 0636 E8000000 		call	_ZNSs4_Rep9_S_createEmmRKSaIcE
 1514      00
 1515 063b 4883FD01 		cmpq	$1, %rbp
 1516 063f 4989C5   		movq	%rax, %r13
 1517 0642 488D4818 		leaq	24(%rax), %rcx
 1518 0646 0F85DC01 		jne	.L148
 1518      0000
 1519 064c 410FB604 		movzbl	(%r12), %eax
 1519      24
 1520 0651 41884518 		movb	%al, 24(%r13)
 1521              	.L149:
 1522 0655 4981FD00 		cmpq	$_ZNSs4_Rep20_S_empty_rep_storageE, %r13
 1522      000000
 1523 065c 0F843EFD 		je	.L144
 1523      FFFF
 1524 0662 41C74510 		movl	$0, 16(%r13)
 1524      00000000 
 1525 066a 49896D00 		movq	%rbp, 0(%r13)
 1526 066e 41C6442D 		movb	$0, 24(%r13,%rbp)
 1526      1800
 1527 0674 E927FDFF 		jmp	.L144
 1527      FF
 1528              	.L270:
 1529 0679 4C29E0   		subq	%r12, %rax
 1530 067c 488D5424 		leaq	24(%rsp), %rdx
 1530      18
 1531 0681 31F6     		xorl	%esi, %esi
 1532 0683 4889C7   		movq	%rax, %rdi
 1533 0686 4889C5   		movq	%rax, %rbp
 1534 0689 E8000000 		call	_ZNSs4_Rep9_S_createEmmRKSaIcE
 1534      00
 1535              	.LEHE27:
 1536 068e 4883FD01 		cmpq	$1, %rbp
 1537 0692 4989C5   		movq	%rax, %r13
 1538 0695 488D4818 		leaq	24(%rax), %rcx
 1539 0699 0F85A101 		jne	.L137
 1539      0000
 1540 069f 410FB604 		movzbl	(%r12), %eax
 1540      24
 1541 06a4 41884518 		movb	%al, 24(%r13)
 1542              	.L138:
 1543 06a8 4981FD00 		cmpq	$_ZNSs4_Rep20_S_empty_rep_storageE, %r13
 1543      000000
 1544 06af 0F84ABFD 		je	.L134
 1544      FFFF
 1545 06b5 41C74510 		movl	$0, 16(%r13)
 1545      00000000 
 1546 06bd 49896D00 		movq	%rbp, 0(%r13)
 1547 06c1 41C6442D 		movb	$0, 24(%r13,%rbp)
 1547      1800
 1548 06c7 E994FDFF 		jmp	.L134
 1548      FF
 1549              	.L275:
 1550 06cc 4829E8   		subq	%rbp, %rax
 1551 06cf 488D5424 		leaq	31(%rsp), %rdx
 1551      1F
 1552 06d4 31F6     		xorl	%esi, %esi
 1553 06d6 4889C7   		movq	%rax, %rdi
 1554 06d9 4889C3   		movq	%rax, %rbx
 1555              	.LEHB28:
 1556 06dc E8000000 		call	_ZNSs4_Rep9_S_createEmmRKSaIcE
 1556      00
 1557              	.LEHE28:
 1558 06e1 4883FB01 		cmpq	$1, %rbx
 1559 06e5 4989C4   		movq	%rax, %r12
 1560 06e8 488D4818 		leaq	24(%rax), %rcx
 1561 06ec 0F858E01 		jne	.L176
 1561      0000
 1562 06f2 0FB64500 		movzbl	0(%rbp), %eax
 1563 06f6 41884424 		movb	%al, 24(%r12)
 1563      18
 1564              	.L177:
 1565 06fb 4981FC00 		cmpq	$_ZNSs4_Rep20_S_empty_rep_storageE, %r12
 1565      000000
 1566 0702 0F85D802 		jne	.L276
 1566      0000
 1567              	.L173:
 1568 0708 488D7424 		leaq	112(%rsp), %rsi
 1568      70
 1569 070d 488D7C24 		leaq	32(%rsp), %rdi
 1569      20
 1570 0712 48894C24 		movq	%rcx, 112(%rsp)
 1570      70
 1571              	.LEHB29:
 1572 0717 E8000000 		call	_ZNSs6assignERKSs
 1572      00
 1573              	.LEHE29:
 1574 071c 488B4424 		movq	112(%rsp), %rax
 1574      70
 1575 0721 488D78E8 		leaq	-24(%rax), %rdi
 1576 0725 4881FF00 		cmpq	$_ZNSs4_Rep20_S_empty_rep_storageE, %rdi
 1576      000000
 1577 072c 0F851E02 		jne	.L277
 1577      0000
 1578              	.L179:
 1579 0732 488B4424 		movq	32(%rsp), %rax
 1579      20
 1580 0737 488D78E8 		leaq	-24(%rax), %rdi
 1581 073b 488B58E8 		movq	-24(%rax), %rbx
 1582 073f 4881FF00 		cmpq	$_ZNSs4_Rep20_S_empty_rep_storageE, %rdi
 1582      000000
 1583 0746 0F858C01 		jne	.L203
 1583      0000
 1584              	.L208:
 1585 074c 4885DB   		testq	%rbx, %rbx
 1586 074f 0F8553FE 		jne	.L209
 1586      FFFF
 1587              	.LEHB30:
 1588 0755 E8000000 		call	_ZN8UnitTest11CurrentTest7DetailsEv
 1588      00
 1589 075a 488B30   		movq	(%rax), %rsi
 1590 075d 488DBC24 		leaq	224(%rsp), %rdi
 1590      E0000000 
 1591 0765 BA410000 		movl	$65, %edx
 1591      00
 1592 076a E8000000 		call	_ZN8UnitTest11TestDetailsC1ERKS0_i
 1592      00
 1593 076f E8000000 		call	_ZN8UnitTest11CurrentTest7ResultsEv
 1593      00
 1594 0774 488B38   		movq	(%rax), %rdi
 1595 0777 488DB424 		leaq	224(%rsp), %rsi
 1595      E0000000 
 1596 077f BA000000 		movl	$.LC29, %edx
 1596      00
 1597 0784 E8000000 		call	_ZN8UnitTest11TestResults13OnTestFailureERKNS_11TestDetailsEPKc
 1597      00
 1598              	.LEHE30:
 1599 0789 E91AFEFF 		jmp	.L209
 1599      FF
 1600              	.L186:
 1601 078e 4889FB   		movq	%rdi, %rbx
 1602 0791 488D5424 		leaq	30(%rsp), %rdx
 1602      1E
 1603 0796 31F6     		xorl	%esi, %esi
 1604 0798 4829EB   		subq	%rbp, %rbx
 1605 079b 4889DF   		movq	%rbx, %rdi
 1606              	.LEHB31:
 1607 079e E8000000 		call	_ZNSs4_Rep9_S_createEmmRKSaIcE
 1607      00
 1608              	.LEHE31:
 1609 07a3 4883FB01 		cmpq	$1, %rbx
 1610 07a7 4989C4   		movq	%rax, %r12
 1611 07aa 488D4818 		leaq	24(%rax), %rcx
 1612 07ae 0F85AC00 		jne	.L187
 1612      0000
 1613 07b4 0FB64500 		movzbl	0(%rbp), %eax
 1614 07b8 41884424 		movb	%al, 24(%r12)
 1614      18
 1615              	.L188:
 1616 07bd 4981FC00 		cmpq	$_ZNSs4_Rep20_S_empty_rep_storageE, %r12
 1616      000000
 1617 07c4 0F853602 		jne	.L278
 1617      0000
 1618              	.L183:
 1619 07ca 488D7424 		leaq	96(%rsp), %rsi
 1619      60
 1620 07cf 488D7C24 		leaq	32(%rsp), %rdi
 1620      20
 1621 07d4 48894C24 		movq	%rcx, 96(%rsp)
 1621      60
 1622              	.LEHB32:
 1623 07d9 E8000000 		call	_ZNSs6assignERKSs
 1623      00
 1624              	.LEHE32:
 1625 07de 488B4424 		movq	96(%rsp), %rax
 1625      60
 1626 07e3 488D78E8 		leaq	-24(%rax), %rdi
 1627 07e7 4881FF00 		cmpq	$_ZNSs4_Rep20_S_empty_rep_storageE, %rdi
 1627      000000
 1628 07ee 0F843EFF 		je	.L179
 1628      FFFF
 1629 07f4 BA000000 		movl	$_ZL28__gthrw___pthread_key_createPjPFvPvE, %edx
 1629      00
 1630 07f9 4885D2   		testq	%rdx, %rdx
 1631 07fc 0F842602 		je	.L190
 1631      0000
 1632 0802 BAFFFFFF 		movl	$-1, %edx
 1632      FF
 1633 0807 F00FC150 		lock xaddl	%edx, -8(%rax)
 1633      F8
 1634 080c 89D0     		movl	%edx, %eax
 1635              	.L191:
 1636 080e 85C0     		testl	%eax, %eax
 1637 0810 0F8F1CFF 		jg	.L179
 1637      FFFF
 1638 0816 488D7424 		leaq	28(%rsp), %rsi
 1638      1C
 1639 081b E8000000 		call	_ZNSs4_Rep10_M_destroyERKSaIcE
 1639      00
 1640 0820 E90DFFFF 		jmp	.L179
 1640      FF
 1641              		.p2align 4,,10
 1642 0825 0F1F00   		.p2align 3
 1643              	.L148:
 1644 0828 4889CF   		movq	%rcx, %rdi
 1645 082b 4889EA   		movq	%rbp, %rdx
 1646 082e 4C89E6   		movq	%r12, %rsi
 1647 0831 E8000000 		call	memcpy
 1647      00
 1648 0836 4889C1   		movq	%rax, %rcx
 1649 0839 E917FEFF 		jmp	.L149
 1649      FF
 1650 083e 6690     		.p2align 4,,10
 1651              		.p2align 3
 1652              	.L137:
 1653 0840 4889CF   		movq	%rcx, %rdi
 1654 0843 4889EA   		movq	%rbp, %rdx
 1655 0846 4C89E6   		movq	%r12, %rsi
 1656 0849 E8000000 		call	memcpy
 1656      00
 1657 084e 4889C1   		movq	%rax, %rcx
 1658 0851 E952FEFF 		jmp	.L138
 1658      FF
 1659 0856 662E0F1F 		.p2align 4,,10
 1659      84000000 
 1659      0000
 1660              		.p2align 3
 1661              	.L187:
 1662 0860 4889CF   		movq	%rcx, %rdi
 1663 0863 4889DA   		movq	%rbx, %rdx
 1664 0866 4889EE   		movq	%rbp, %rsi
 1665 0869 E8000000 		call	memcpy
 1665      00
 1666 086e 4889C1   		movq	%rax, %rcx
 1667 0871 E947FFFF 		jmp	.L188
 1667      FF
 1668 0876 662E0F1F 		.p2align 4,,10
 1668      84000000 
 1668      0000
 1669              		.p2align 3
 1670              	.L176:
 1671 0880 4889CF   		movq	%rcx, %rdi
 1672 0883 4889DA   		movq	%rbx, %rdx
 1673 0886 4889EE   		movq	%rbp, %rsi
 1674 0889 E8000000 		call	memcpy
 1674      00
 1675 088e 4889C1   		movq	%rax, %rcx
 1676 0891 E965FEFF 		jmp	.L177
 1676      FF
 1677 0896 662E0F1F 		.p2align 4,,10
 1677      84000000 
 1677      0000
 1678              		.p2align 3
 1679              	.L164:
 1680 08a0 BA000000 		movl	$_ZL28__gthrw___pthread_key_createPjPFvPvE, %edx
 1680      00
 1681 08a5 4885D2   		testq	%rdx, %rdx
 1682 08a8 0F842201 		je	.L167
 1682      0000
 1683 08ae BAFFFFFF 		movl	$-1, %edx
 1683      FF
 1684 08b3 F00FC150 		lock xaddl	%edx, -8(%rax)
 1684      F8
 1685 08b8 89D0     		movl	%edx, %eax
 1686              	.L168:
 1687 08ba 85C0     		testl	%eax, %eax
 1688 08bc 0F8F22FB 		jg	.L169
 1688      FFFF
 1689 08c2 488D7424 		leaq	17(%rsp), %rsi
 1689      11
 1690 08c7 E8000000 		call	_ZNSs4_Rep10_M_destroyERKSaIcE
 1690      00
 1691 08cc E913FBFF 		jmp	.L169
 1691      FF
 1692              		.p2align 4,,10
 1693 08d1 0F1F8000 		.p2align 3
 1693      000000
 1694              	.L203:
 1695 08d8 BA000000 		movl	$_ZL28__gthrw___pthread_key_createPjPFvPvE, %edx
 1695      00
 1696 08dd 4885D2   		testq	%rdx, %rdx
 1697 08e0 0F84DA00 		je	.L206
 1697      0000
 1698 08e6 BAFFFFFF 		movl	$-1, %edx
 1698      FF
 1699 08eb F00FC150 		lock xaddl	%edx, -8(%rax)
 1699      F8
 1700 08f0 89D0     		movl	%edx, %eax
 1701              	.L207:
 1702 08f2 85C0     		testl	%eax, %eax
 1703 08f4 0F8F52FE 		jg	.L208
 1703      FFFF
 1704 08fa 488D7424 		leaq	16(%rsp), %rsi
 1704      10
 1705 08ff E8000000 		call	_ZNSs4_Rep10_M_destroyERKSaIcE
 1705      00
 1706 0904 E943FEFF 		jmp	.L208
 1706      FF
 1707 0909 0F1F8000 		.p2align 4,,10
 1707      000000
 1708              		.p2align 3
 1709              	.L232:
 1710 0910 B9000000 		movl	$_ZNSs4_Rep20_S_empty_rep_storageE+24, %ecx
 1710      00
 1711 0915 E9B0FEFF 		jmp	.L183
 1711      FF
 1712 091a 660F1F44 		.p2align 4,,10
 1712      0000
 1713              		.p2align 3
 1714              	.L231:
 1715 0920 B9000000 		movl	$_ZNSs4_Rep20_S_empty_rep_storageE+24, %ecx
 1715      00
 1716 0925 E9DEFDFF 		jmp	.L173
 1716      FF
 1717 092a 660F1F44 		.p2align 4,,10
 1717      0000
 1718              		.p2align 3
 1719              	.L171:
 1720 0930 4889CE   		movq	%rcx, %rsi
 1721 0933 488D7C24 		leaq	32(%rsp), %rdi
 1721      20
 1722 0938 4883C650 		addq	$80, %rsi
 1723              	.LEHB33:
 1724 093c E8000000 		call	_ZNSs6assignERKSs
 1724      00
 1725              	.LEHE33:
 1726 0941 E9ECFDFF 		jmp	.L179
 1726      FF
 1727 0946 662E0F1F 		.p2align 4,,10
 1727      84000000 
 1727      0000
 1728              		.p2align 3
 1729              	.L277:
 1730 0950 BA000000 		movl	$_ZL28__gthrw___pthread_key_createPjPFvPvE, %edx
 1730      00
 1731 0955 4885D2   		testq	%rdx, %rdx
 1732 0958 0F84DA00 		je	.L180
 1732      0000
 1733 095e BAFFFFFF 		movl	$-1, %edx
 1733      FF
 1734 0963 F00FC150 		lock xaddl	%edx, -8(%rax)
 1734      F8
 1735 0968 89D0     		movl	%edx, %eax
 1736              	.L181:
 1737 096a 85C0     		testl	%eax, %eax
 1738 096c 0F8FC0FD 		jg	.L179
 1738      FFFF
 1739 0972 488D7424 		leaq	29(%rsp), %rsi
 1739      1D
 1740 0977 E8000000 		call	_ZNSs4_Rep10_M_destroyERKSaIcE
 1740      00
 1741 097c E9B1FDFF 		jmp	.L179
 1741      FF
 1742              		.p2align 4,,10
 1743 0981 0F1F8000 		.p2align 3
 1743      000000
 1744              	.L273:
 1745 0988 BA000000 		movl	$_ZL28__gthrw___pthread_key_createPjPFvPvE, %edx
 1745      00
 1746 098d 4885D2   		testq	%rdx, %rdx
 1747 0990 0F848200 		je	.L151
 1747      0000
 1748 0996 BAFFFFFF 		movl	$-1, %edx
 1748      FF
 1749 099b F00FC150 		lock xaddl	%edx, -8(%rax)
 1749      F8
 1750 09a0 89D0     		movl	%edx, %eax
 1751              	.L152:
 1752 09a2 85C0     		testl	%eax, %eax
 1753 09a4 0F8F20FA 		jg	.L140
 1753      FFFF
 1754 09aa 488D7424 		leaq	21(%rsp), %rsi
 1754      15
 1755 09af E8000000 		call	_ZNSs4_Rep10_M_destroyERKSaIcE
 1755      00
 1756 09b4 E911FAFF 		jmp	.L140
 1756      FF
 1757 09b9 0F1F8000 		.p2align 4,,10
 1757      000000
 1758              		.p2align 3
 1759              	.L206:
 1760 09c0 8B50F8   		movl	-8(%rax), %edx
 1761 09c3 8D4AFF   		leal	-1(%rdx), %ecx
 1762 09c6 8948F8   		movl	%ecx, -8(%rax)
 1763 09c9 89D0     		movl	%edx, %eax
 1764 09cb E922FFFF 		jmp	.L207
 1764      FF
 1765              		.p2align 4,,10
 1766              		.p2align 3
 1767              	.L167:
 1768 09d0 8B50F8   		movl	-8(%rax), %edx
 1769 09d3 8D4AFF   		leal	-1(%rdx), %ecx
 1770 09d6 8948F8   		movl	%ecx, -8(%rax)
 1771 09d9 89D0     		movl	%edx, %eax
 1772 09db E9DAFEFF 		jmp	.L168
 1772      FF
 1773              		.p2align 4,,10
 1774              		.p2align 3
 1775              	.L276:
 1776 09e0 41C74424 		movl	$0, 16(%r12)
 1776      10000000 
 1776      00
 1777 09e9 49891C24 		movq	%rbx, (%r12)
 1778 09ed 41C6441C 		movb	$0, 24(%r12,%rbx)
 1778      1800
 1779 09f3 E910FDFF 		jmp	.L173
 1779      FF
 1780 09f8 0F1F8400 		.p2align 4,,10
 1780      00000000 
 1781              		.p2align 3
 1782              	.L278:
 1783 0a00 41C74424 		movl	$0, 16(%r12)
 1783      10000000 
 1783      00
 1784 0a09 49891C24 		movq	%rbx, (%r12)
 1785 0a0d 41C6441C 		movb	$0, 24(%r12,%rbx)
 1785      1800
 1786 0a13 E9B2FDFF 		jmp	.L183
 1786      FF
 1787              	.L151:
 1788 0a18 8B50F8   		movl	-8(%rax), %edx
 1789 0a1b 8D4AFF   		leal	-1(%rdx), %ecx
 1790 0a1e 8948F8   		movl	%ecx, -8(%rax)
 1791 0a21 89D0     		movl	%edx, %eax
 1792 0a23 E97AFFFF 		jmp	.L152
 1792      FF
 1793              	.L190:
 1794 0a28 8B50F8   		movl	-8(%rax), %edx
 1795 0a2b 8D4AFF   		leal	-1(%rdx), %ecx
 1796 0a2e 8948F8   		movl	%ecx, -8(%rax)
 1797 0a31 89D0     		movl	%edx, %eax
 1798 0a33 E9D6FDFF 		jmp	.L191
 1798      FF
 1799              	.L180:
 1800 0a38 8B50F8   		movl	-8(%rax), %edx
 1801 0a3b 8D4AFF   		leal	-1(%rdx), %ecx
 1802 0a3e 8948F8   		movl	%ecx, -8(%rax)
 1803 0a41 89D0     		movl	%edx, %eax
 1804 0a43 E922FFFF 		jmp	.L181
 1804      FF
 1805              	.L141:
 1806 0a48 8B50F8   		movl	-8(%rax), %edx
 1807 0a4b 8D4AFF   		leal	-1(%rdx), %ecx
 1808 0a4e 8948F8   		movl	%ecx, -8(%rax)
 1809 0a51 89D0     		movl	%edx, %eax
 1810 0a53 E94CFAFF 		jmp	.L142
 1810      FF
 1811              	.L272:
 1812 0a58 E8000000 		call	__stack_chk_fail
 1812      00
 1813              	.L233:
 1814 0a5d 4889C7   		movq	%rax, %rdi
 1815 0a60 E981F8FF 		jmp	.L214
 1815      FF
 1816              	.L239:
 1817 0a65 4889C3   		movq	%rax, %rbx
 1818 0a68 4889D5   		movq	%rdx, %rbp
 1819 0a6b E8000000 		call	__cxa_end_catch
 1819      00
 1820 0a70 E95EF8FF 		jmp	.L212
 1820      FF
 1821              	.L247:
 1822 0a75 4889C3   		movq	%rax, %rbx
 1823 0a78 488B4424 		movq	96(%rsp), %rax
 1823      60
 1824 0a7d 488D78E8 		leaq	-24(%rax), %rdi
 1825 0a81 4881FF00 		cmpq	$_ZNSs4_Rep20_S_empty_rep_storageE, %rdi
 1825      000000
 1826 0a88 0F84B4FA 		je	.L195
 1826      FFFF
 1827 0a8e 488D7424 		leaq	26(%rsp), %rsi
 1827      1A
 1828 0a93 E8000000 		call	_ZNSs4_Rep10_M_disposeERKSaIcE.part.5
 1828      00
 1829 0a98 E9A5FAFF 		jmp	.L195
 1829      FF
 1830              	.L241:
 1831 0a9d 4889C3   		movq	%rax, %rbx
 1832 0aa0 4889D5   		movq	%rdx, %rbp
 1833 0aa3 E8000000 		call	__cxa_end_catch
 1833      00
 1834 0aa8 E926F8FF 		jmp	.L212
 1834      FF
 1835              	.L242:
 1836 0aad E947FAFF 		jmp	.L162
 1836      FF
 1837              	.L248:
 1838 0ab2 4889C3   		movq	%rax, %rbx
 1839 0ab5 488B4424 		movq	112(%rsp), %rax
 1839      70
 1840 0aba 488D78E8 		leaq	-24(%rax), %rdi
 1841 0abe 4881FF00 		cmpq	$_ZNSs4_Rep20_S_empty_rep_storageE, %rdi
 1841      000000
 1842 0ac5 0F8477FA 		je	.L195
 1842      FFFF
 1843 0acb 488D7424 		leaq	27(%rsp), %rsi
 1843      1B
 1844 0ad0 E8000000 		call	_ZNSs4_Rep10_M_disposeERKSaIcE.part.5
 1844      00
 1845 0ad5 E968FAFF 		jmp	.L195
 1845      FF
 1846              	.L240:
 1847 0ada E982FAFF 		jmp	.L201
 1847      FF
 1848              	.L244:
 1849 0adf 4889C5   		movq	%rax, %rbp
 1850 0ae2 488B4424 		movq	64(%rsp), %rax
 1850      40
 1851 0ae7 488D78E8 		leaq	-24(%rax), %rdi
 1852 0aeb 4881FF00 		cmpq	$_ZNSs4_Rep20_S_empty_rep_storageE, %rdi
 1852      000000
 1853 0af2 0F84E2F9 		je	.L156
 1853      FFFF
 1854 0af8 488D7424 		leaq	19(%rsp), %rsi
 1854      13
 1855 0afd E8000000 		call	_ZNSs4_Rep10_M_disposeERKSaIcE.part.5
 1855      00
 1856 0b02 E9D3F9FF 		jmp	.L156
 1856      FF
 1857              	.L245:
 1858 0b07 4889C5   		movq	%rax, %rbp
 1859 0b0a 488B4424 		movq	80(%rsp), %rax
 1859      50
 1860 0b0f 488D78E8 		leaq	-24(%rax), %rdi
 1861 0b13 4881FF00 		cmpq	$_ZNSs4_Rep20_S_empty_rep_storageE, %rdi
 1861      000000
 1862 0b1a 0F84BAF9 		je	.L156
 1862      FFFF
 1863 0b20 488D7424 		leaq	20(%rsp), %rsi
 1863      14
 1864 0b25 E8000000 		call	_ZNSs4_Rep10_M_disposeERKSaIcE.part.5
 1864      00
 1865 0b2a E9ABF9FF 		jmp	.L156
 1865      FF
 1866              	.L237:
 1867 0b2f 488DBC24 		leaq	320(%rsp), %rdi
 1867      40010000 
 1868 0b37 4889C3   		movq	%rax, %rbx
 1869 0b3a E8000000 		call	_ZN8UnitTest15MemoryOutStreamD1Ev
 1869      00
 1870              	.L220:
 1871 0b3f E8000000 		call	__cxa_end_catch
 1871      00
 1872 0b44 4889DF   		movq	%rbx, %rdi
 1873              	.LEHB34:
 1874 0b47 E8000000 		call	_Unwind_Resume
 1874      00
 1875              	.LEHE34:
 1876              	.L236:
 1877              	.L259:
 1878 0b4c 4889C3   		movq	%rax, %rbx
 1879 0b4f EBEE     		jmp	.L220
 1880              	.L271:
 1881 0b51 E8000000 		call	__cxa_begin_catch
 1881      00
 1882              	.LEHB35:
 1883 0b56 E8000000 		call	_ZN8UnitTest11CurrentTest7ResultsEv
 1883      00
 1884 0b5b 488B7424 		movq	8(%rsp), %rsi
 1884      08
 1885 0b60 488B38   		movq	(%rax), %rdi
 1886 0b63 BA000000 		movl	$.LC33, %edx
 1886      00
 1887 0b68 E8000000 		call	_ZN8UnitTest11TestResults13OnTestFailureERKNS_11TestDetailsEPKc
 1887      00
 1888              	.LEHE35:
 1889              	.LEHB36:
 1890 0b6d E8000000 		call	__cxa_end_catch
 1890      00
 1891              	.LEHE36:
 1892 0b72 E9F9F7FF 		jmp	.L129
 1892      FF
 1893              	.L216:
 1894 0b77 E8000000 		call	__cxa_begin_catch
 1894      00
 1895 0b7c 4889C3   		movq	%rax, %rbx
 1896 0b7f 488B00   		movq	(%rax), %rax
 1897 0b82 4889DF   		movq	%rbx, %rdi
 1898 0b85 FF5010   		call	*16(%rax)
 1899 0b88 4889DF   		movq	%rbx, %rdi
 1900 0b8b 4889C5   		movq	%rax, %rbp
 1901              	.LEHB37:
 1902 0b8e E8000000 		call	_ZNK8UnitTest15AssertException10LineNumberEv
 1902      00
 1903 0b93 4889DF   		movq	%rbx, %rdi
 1904 0b96 4189C4   		movl	%eax, %r12d
 1905 0b99 E8000000 		call	_ZNK8UnitTest15AssertException8FilenameEv
 1905      00
 1906 0b9e 4889C1   		movq	%rax, %rcx
 1907 0ba1 488B4424 		movq	8(%rsp), %rax
 1907      08
 1908 0ba6 488DBC24 		leaq	128(%rsp), %rdi
 1908      80000000 
 1909 0bae 4589E0   		movl	%r12d, %r8d
 1910 0bb1 488B7008 		movq	8(%rax), %rsi
 1911 0bb5 488B10   		movq	(%rax), %rdx
 1912 0bb8 E8000000 		call	_ZN8UnitTest11TestDetailsC1EPKcS2_S2_i
 1912      00
 1913 0bbd E8000000 		call	_ZN8UnitTest11CurrentTest7ResultsEv
 1913      00
 1914 0bc2 488B38   		movq	(%rax), %rdi
 1915 0bc5 488DB424 		leaq	128(%rsp), %rsi
 1915      80000000 
 1916 0bcd 4889EA   		movq	%rbp, %rdx
 1917 0bd0 E8000000 		call	_ZN8UnitTest11TestResults13OnTestFailureERKNS_11TestDetailsEPKc
 1917      00
 1918              	.LEHE37:
 1919 0bd5 E990F7FF 		jmp	.L258
 1919      FF
 1920              	.L238:
 1921 0bda 4889C3   		movq	%rax, %rbx
 1922 0bdd E8000000 		call	__cxa_end_catch
 1922      00
 1923 0be2 4889DF   		movq	%rbx, %rdi
 1924              	.LEHB38:
 1925 0be5 E8000000 		call	_Unwind_Resume
 1925      00
 1926              	.LEHE38:
 1927              	.L235:
 1928 0bea E95DFFFF 		jmp	.L259
 1928      FF
 1929              		.cfi_endproc
 1930              	.LFE1489:
 1931              		.section	.gcc_except_table
 1932              		.align 4
 1933              	.LLSDA1489:
 1934 0028 FF       		.byte	0xff
 1935 0029 03       		.byte	0x3
 1936 002a D801     		.uleb128 .LLSDATT1489-.LLSDATTD1489
 1937              	.LLSDATTD1489:
 1938 002c 01       		.byte	0x1
 1939 002d BF01     		.uleb128 .LLSDACSE1489-.LLSDACSB1489
 1940              	.LLSDACSB1489:
 1941 002f 2C       		.uleb128 .LEHB6-.LFB1489
 1942 0030 05       		.uleb128 .LEHE6-.LEHB6
 1943 0031 00       		.uleb128 0
 1944 0032 00       		.uleb128 0
 1945 0033 3C       		.uleb128 .LEHB7-.LFB1489
 1946 0034 05       		.uleb128 .LEHE7-.LEHB7
 1947 0035 DD11     		.uleb128 .L233-.LFB1489
 1948 0037 05       		.uleb128 0x5
 1949 0038 70       		.uleb128 .LEHB8-.LFB1489
 1950 0039 4D       		.uleb128 .LEHE8-.LEHB8
 1951 003a CD02     		.uleb128 .L234-.LFB1489
 1952 003c 07       		.uleb128 0x7
 1953 003d FB01     		.uleb128 .LEHB9-.LFB1489
 1954 003f 05       		.uleb128 .LEHE9-.LEHB9
 1955 0040 D706     		.uleb128 .L243-.LFB1489
 1956 0042 01       		.uleb128 0x1
 1957 0043 9B02     		.uleb128 .LEHB10-.LFB1489
 1958 0045 05       		.uleb128 .LEHE10-.LEHB10
 1959 0046 CD02     		.uleb128 .L234-.LFB1489
 1960 0048 07       		.uleb128 0x7
 1961 0049 C802     		.uleb128 .LEHB11-.LFB1489
 1962 004b 05       		.uleb128 .LEHE11-.LEHB11
 1963 004c D706     		.uleb128 .L243-.LFB1489
 1964 004e 01       		.uleb128 0x1
 1965 004f 8A03     		.uleb128 .LEHB12-.LFB1489
 1966 0051 05       		.uleb128 .LEHE12-.LEHB12
 1967 0052 CC13     		.uleb128 .L236-.LFB1489
 1968 0054 00       		.uleb128 0
 1969 0055 A803     		.uleb128 .LEHB13-.LFB1489
 1970 0057 35       		.uleb128 .LEHE13-.LEHB13
 1971 0058 AF13     		.uleb128 .L237-.LFB1489
 1972 005a 00       		.uleb128 0
 1973 005b E503     		.uleb128 .LEHB14-.LFB1489
 1974 005d 05       		.uleb128 .LEHE14-.LEHB14
 1975 005e CC13     		.uleb128 .L236-.LFB1489
 1976 0060 00       		.uleb128 0
 1977 0061 AF04     		.uleb128 .LEHB15-.LFB1489
 1978 0063 05       		.uleb128 .LEHE15-.LEHB15
 1979 0064 DF12     		.uleb128 .L244-.LFB1489
 1980 0066 01       		.uleb128 0x1
 1981 0067 8705     		.uleb128 .LEHB16-.LFB1489
 1982 0069 05       		.uleb128 .LEHE16-.LEHB16
 1983 006a CD02     		.uleb128 .L234-.LFB1489
 1984 006c 07       		.uleb128 0x7
 1985 006d CE05     		.uleb128 .LEHB17-.LFB1489
 1986 006f 05       		.uleb128 .LEHE17-.LEHB17
 1987 0070 BF07     		.uleb128 .L246-.LFB1489
 1988 0072 01       		.uleb128 0x1
 1989 0073 EF05     		.uleb128 .LEHB18-.LFB1489
 1990 0075 05       		.uleb128 .LEHE18-.LEHB18
 1991 0076 8713     		.uleb128 .L245-.LFB1489
 1992 0078 01       		.uleb128 0x1
 1993 0079 CD06     		.uleb128 .LEHB19-.LFB1489
 1994 007b 05       		.uleb128 .LEHE19-.LEHB19
 1995 007c D706     		.uleb128 .L243-.LFB1489
 1996 007e 01       		.uleb128 0x1
 1997 007f 8107     		.uleb128 .LEHB20-.LFB1489
 1998 0081 34       		.uleb128 .LEHE20-.LEHB20
 1999 0082 9D12     		.uleb128 .L241-.LFB1489
 2000 0084 07       		.uleb128 0x7
 2001 0085 B507     		.uleb128 .LEHB21-.LFB1489
 2002 0087 05       		.uleb128 .LEHE21-.LEHB21
 2003 0088 CD02     		.uleb128 .L234-.LFB1489
 2004 008a 07       		.uleb128 0x7
 2005 008b E907     		.uleb128 .LEHB22-.LFB1489
 2006 008d 34       		.uleb128 .LEHE22-.LEHB22
 2007 008e E511     		.uleb128 .L239-.LFB1489
 2008 0090 07       		.uleb128 0x7
 2009 0091 9D08     		.uleb128 .LEHB23-.LFB1489
 2010 0093 05       		.uleb128 .LEHE23-.LEHB23
 2011 0094 CD02     		.uleb128 .L234-.LFB1489
 2012 0096 07       		.uleb128 0x7
 2013 0097 B008     		.uleb128 .LEHB24-.LFB1489
 2014 0099 05       		.uleb128 .LEHE24-.LEHB24
 2015 009a DD11     		.uleb128 .L233-.LFB1489
 2016 009c 05       		.uleb128 0x5
 2017 009d E808     		.uleb128 .LEHB25-.LFB1489
 2018 009f 05       		.uleb128 .LEHE25-.LEHB25
 2019 00a0 BF07     		.uleb128 .L246-.LFB1489
 2020 00a2 01       		.uleb128 0x1
 2021 00a3 F008     		.uleb128 .LEHB26-.LFB1489
 2022 00a5 34       		.uleb128 .LEHE26-.LEHB26
 2023 00a6 AD12     		.uleb128 .L242-.LFB1489
 2024 00a8 01       		.uleb128 0x1
 2025 00a9 B609     		.uleb128 .LEHB27-.LFB1489
 2026 00ab 58       		.uleb128 .LEHE27-.LEHB27
 2027 00ac D706     		.uleb128 .L243-.LFB1489
 2028 00ae 01       		.uleb128 0x1
 2029 00af DC0A     		.uleb128 .LEHB28-.LFB1489
 2030 00b1 05       		.uleb128 .LEHE28-.LEHB28
 2031 00b2 BF07     		.uleb128 .L246-.LFB1489
 2032 00b4 01       		.uleb128 0x1
 2033 00b5 970B     		.uleb128 .LEHB29-.LFB1489
 2034 00b7 05       		.uleb128 .LEHE29-.LEHB29
 2035 00b8 B212     		.uleb128 .L248-.LFB1489
 2036 00ba 01       		.uleb128 0x1
 2037 00bb D50B     		.uleb128 .LEHB30-.LFB1489
 2038 00bd 34       		.uleb128 .LEHE30-.LEHB30
 2039 00be DA12     		.uleb128 .L240-.LFB1489
 2040 00c0 01       		.uleb128 0x1
 2041 00c1 9E0C     		.uleb128 .LEHB31-.LFB1489
 2042 00c3 05       		.uleb128 .LEHE31-.LEHB31
 2043 00c4 BF07     		.uleb128 .L246-.LFB1489
 2044 00c6 01       		.uleb128 0x1
 2045 00c7 D90C     		.uleb128 .LEHB32-.LFB1489
 2046 00c9 05       		.uleb128 .LEHE32-.LEHB32
 2047 00ca F511     		.uleb128 .L247-.LFB1489
 2048 00cc 01       		.uleb128 0x1
 2049 00cd BC0F     		.uleb128 .LEHB33-.LFB1489
 2050 00cf 05       		.uleb128 .LEHE33-.LEHB33
 2051 00d0 BF07     		.uleb128 .L246-.LFB1489
 2052 00d2 01       		.uleb128 0x1
 2053 00d3 C713     		.uleb128 .LEHB34-.LFB1489
 2054 00d5 05       		.uleb128 .LEHE34-.LEHB34
 2055 00d6 00       		.uleb128 0
 2056 00d7 00       		.uleb128 0
 2057 00d8 D613     		.uleb128 .LEHB35-.LFB1489
 2058 00da 17       		.uleb128 .LEHE35-.LEHB35
 2059 00db DA14     		.uleb128 .L238-.LFB1489
 2060 00dd 00       		.uleb128 0
 2061 00de ED13     		.uleb128 .LEHB36-.LFB1489
 2062 00e0 05       		.uleb128 .LEHE36-.LEHB36
 2063 00e1 00       		.uleb128 0
 2064 00e2 00       		.uleb128 0
 2065 00e3 8E14     		.uleb128 .LEHB37-.LFB1489
 2066 00e5 47       		.uleb128 .LEHE37-.LEHB37
 2067 00e6 EA14     		.uleb128 .L235-.LFB1489
 2068 00e8 00       		.uleb128 0
 2069 00e9 E514     		.uleb128 .LEHB38-.LFB1489
 2070 00eb 05       		.uleb128 .LEHE38-.LEHB38
 2071 00ec 00       		.uleb128 0
 2072 00ed 00       		.uleb128 0
 2073              	.LLSDACSE1489:
 2074 00ee 03       		.byte	0x3
 2075 00ef 00       		.byte	0
 2076 00f0 02       		.byte	0x2
 2077 00f1 7D       		.byte	0x7d
 2078 00f2 01       		.byte	0x1
 2079 00f3 7D       		.byte	0x7d
 2080 00f4 00       		.byte	0
 2081 00f5 7D       		.byte	0x7d
 2082 00f6 0000     		.align 4
 2083 00f8 00000000 		.long	0
 2084              	
 2085 00fc 00000000 		.long	_ZTISt9exception
 2086 0100 00000000 		.long	_ZTIN8UnitTest15AssertExceptionE
 2087              	.LLSDATT1489:
 2088              		.text
 2090              		.section	.text.unlikely
 2091              	.LCOLDE35:
 2092              		.text
 2093              	.LHOTE35:
 2094              		.section	.rodata.str1.8
 2095 009a 00000000 		.align 8
 2095      0000
 2096              	.LC36:
 2097 00a0 556E6861 		.string	"Unhandled exception while destroying fixture XmlTestReporterFixture"
 2097      6E646C65 
 2097      64206578 
 2097      63657074 
 2097      696F6E20 
 2098 00e4 00000000 		.align 8
 2099              	.LC37:
 2100 00e8 556E6861 		.string	"Unhandled exception while constructing fixture XmlTestReporterFixture"
 2100      6E646C65 
 2100      64206578 
 2100      63657074 
 2100      696F6E20 
 2101              		.section	.text.unlikely
 2102 027d 90       		.align 2
 2103              	.LCOLDB38:
 2104              		.text
 2105              	.LHOTB38:
 2106 0bef 90       		.align 2
 2107              		.p2align 4,,15
 2109              	_ZNK12_GLOBAL__N_166TestXmlTestReporterFixtureOutputIsCachedUntilReportSummaryIsCalled7RunImplEv:
 2110              	.LFB1386:
 2111              		.cfi_startproc
 2112              		.cfi_personality 0x3,__gxx_personality_v0
 2113              		.cfi_lsda 0x3,.LLSDA1386
 2114 0bf0 4157     		pushq	%r15
 2115              		.cfi_def_cfa_offset 16
 2116              		.cfi_offset 15, -16
 2117 0bf2 4156     		pushq	%r14
 2118              		.cfi_def_cfa_offset 24
 2119              		.cfi_offset 14, -24
 2120 0bf4 4155     		pushq	%r13
 2121              		.cfi_def_cfa_offset 32
 2122              		.cfi_offset 13, -32
 2123 0bf6 4154     		pushq	%r12
 2124              		.cfi_def_cfa_offset 40
 2125              		.cfi_offset 12, -40
 2126 0bf8 4C8D6F08 		leaq	8(%rdi), %r13
 2127 0bfc 55       		pushq	%rbp
 2128              		.cfi_def_cfa_offset 48
 2129              		.cfi_offset 6, -48
 2130 0bfd 53       		pushq	%rbx
 2131              		.cfi_def_cfa_offset 56
 2132              		.cfi_offset 3, -56
 2133 0bfe 4881ECD8 		subq	$472, %rsp
 2133      010000
 2134              		.cfi_def_cfa_offset 528
 2135 0c05 48897C24 		movq	%rdi, 8(%rsp)
 2135      08
 2136 0c0a 488DBC24 		leaq	136(%rsp), %rdi
 2136      88000000 
 2137 0c12 64488B0C 		movq	%fs:40, %rcx
 2137      25280000 
 2137      00
 2138 0c1b 48898C24 		movq	%rcx, 456(%rsp)
 2138      C8010000 
 2139 0c23 31C9     		xorl	%ecx, %ecx
 2140 0c25 E8000000 		call	_ZNSt8ios_baseC2Ev
 2140      00
 2141 0c2a 4C8B2500 		movq	_ZTTSt19basic_ostringstreamIcSt11char_traitsIcESaIcEE+8(%rip), %r12
 2141      000000
 2142 0c31 C6842468 		movb	$0, 360(%rsp)
 2142      01000000 
 2143 0c39 488D7C24 		leaq	48(%rsp), %rdi
 2143      30
 2144 0c3e 488B0500 		movq	_ZTTSt19basic_ostringstreamIcSt11char_traitsIcESaIcEE+16(%rip), %rax
 2144      000000
 2145 0c45 48C78424 		movq	$_ZTVSt9basic_iosIcSt11char_traitsIcEE+16, 136(%rsp)
 2145      88000000 
 2145      00000000 
 2146 0c51 31F6     		xorl	%esi, %esi
 2147 0c53 48C78424 		movq	$0, 352(%rsp)
 2147      60010000 
 2147      00000000 
 2148 0c5f C6842469 		movb	$0, 361(%rsp)
 2148      01000000 
 2149 0c67 49037C24 		addq	-24(%r12), %rdi
 2149      E8
 2150 0c6c 48C78424 		movq	$0, 368(%rsp)
 2150      70010000 
 2150      00000000 
 2151 0c78 48C78424 		movq	$0, 376(%rsp)
 2151      78010000 
 2151      00000000 
 2152 0c84 48C78424 		movq	$0, 384(%rsp)
 2152      80010000 
 2152      00000000 
 2153 0c90 48C78424 		movq	$0, 392(%rsp)
 2153      88010000 
 2153      00000000 
 2154 0c9c 4C896424 		movq	%r12, 48(%rsp)
 2154      30
 2155 0ca1 488907   		movq	%rax, (%rdi)
 2156              	.LEHB39:
 2157 0ca4 E8000000 		call	_ZNSt9basic_iosIcSt11char_traitsIcEE4initEPSt15basic_streambufIcS1_E
 2157      00
 2158              	.LEHE39:
 2159 0ca9 488D7C24 		leaq	112(%rsp), %rdi
 2159      70
 2160 0cae 48C74424 		movq	$_ZTVSt19basic_ostringstreamIcSt11char_traitsIcESaIcEE+24, 48(%rsp)
 2160      30000000 
 2160      00
 2161 0cb7 48C78424 		movq	$_ZTVSt19basic_ostringstreamIcSt11char_traitsIcESaIcEE+64, 136(%rsp)
 2161      88000000 
 2161      00000000 
 2162 0cc3 48C74424 		movq	$_ZTVSt15basic_streambufIcSt11char_traitsIcEE+16, 56(%rsp)
 2162      38000000 
 2162      00
 2163 0ccc 48C74424 		movq	$0, 64(%rsp)
 2163      40000000 
 2163      00
 2164 0cd5 48C74424 		movq	$0, 72(%rsp)
 2164      48000000 
 2164      00
 2165 0cde 48C74424 		movq	$0, 80(%rsp)
 2165      50000000 
 2165      00
 2166 0ce7 48C74424 		movq	$0, 88(%rsp)
 2166      58000000 
 2166      00
 2167 0cf0 48C74424 		movq	$0, 96(%rsp)
 2167      60000000 
 2167      00
 2168 0cf9 48C74424 		movq	$0, 104(%rsp)
 2168      68000000 
 2168      00
 2169 0d02 E8000000 		call	_ZNSt6localeC1Ev
 2169      00
 2170 0d07 488D4424 		leaq	48(%rsp), %rax
 2170      30
 2171 0d0c 488D7424 		leaq	56(%rsp), %rsi
 2171      38
 2172 0d11 48C74424 		movq	$_ZTVSt15basic_stringbufIcSt11char_traitsIcESaIcEE+16, 56(%rsp)
 2172      38000000 
 2172      00
 2173 0d1a C7442478 		movl	$16, 120(%rsp)
 2173      10000000 
 2174 0d22 48C78424 		movq	$_ZNSs4_Rep20_S_empty_rep_storageE+24, 128(%rsp)
 2174      80000000 
 2174      00000000 
 2175 0d2e 488D7858 		leaq	88(%rax), %rdi
 2176              	.LEHB40:
 2177 0d32 E8000000 		call	_ZNSt9basic_iosIcSt11char_traitsIcEE4initEPSt15basic_streambufIcS1_E
 2177      00
 2178              	.LEHE40:
 2179 0d37 488D4424 		leaq	48(%rsp), %rax
 2179      30
 2180 0d3c 488DB860 		leaq	352(%rax), %rdi
 2180      010000
 2181 0d43 4889C6   		movq	%rax, %rsi
 2182              	.LEHB41:
 2183 0d46 E8000000 		call	_ZN8UnitTest15XmlTestReporterC1ERSo
 2183      00
 2184              	.LEHE41:
 2185 0d4b 488D7C24 		leaq	48(%rsp), %rdi
 2185      30
 2186 0d50 4C89EE   		movq	%r13, %rsi
 2187 0d53 4C89AC24 		movq	%r13, 440(%rsp)
 2187      B8010000 
 2188              	.LEHB42:
 2189 0d5b E820F4FF 		call	_ZN8UnitTest11ExecuteTestIN12_GLOBAL__N_168XmlTestReporterFixtureOutputIsCachedUntilReportSum
 2189      FF
 2190              	.LEHE42:
 2191 0d60 488BAC24 		movq	416(%rsp), %rbp
 2191      A0010000 
 2192 0d68 4C8BB424 		movq	408(%rsp), %r14
 2192      98010000 
 2193 0d70 48C78424 		movq	$_ZTVN8UnitTest20DeferredTestReporterE+16, 400(%rsp)
 2193      90010000 
 2193      00000000 
 2194 0d7c 4C39F5   		cmpq	%r14, %rbp
 2195 0d7f 0F84C700 		je	.L286
 2195      0000
 2196              		.p2align 4,,10
 2197 0d85 0F1F00   		.p2align 3
 2198              	.L315:
 2199 0d88 4D8B7E20 		movq	32(%r14), %r15
 2200 0d8c 498B5E18 		movq	24(%r14), %rbx
 2201 0d90 4939DF   		cmpq	%rbx, %r15
 2202 0d93 7457     		je	.L287
 2203 0d95 B8000000 		movl	$_ZL28__gthrw___pthread_key_createPjPFvPvE, %eax
 2203      00
 2204 0d9a 4885C0   		testq	%rax, %rax
 2205 0d9d 7512     		jne	.L351
 2206 0d9f E9990100 		jmp	.L293
 2206      00
 2207              		.p2align 4,,10
 2208 0da4 0F1F4000 		.p2align 3
 2209              	.L296:
 2210 0da8 4883C310 		addq	$16, %rbx
 2211 0dac 4939DF   		cmpq	%rbx, %r15
 2212 0daf 7437     		je	.L294
 2213              	.L351:
 2214 0db1 488B4308 		movq	8(%rbx), %rax
 2215 0db5 488D78E8 		leaq	-24(%rax), %rdi
 2216 0db9 4881FF00 		cmpq	$_ZNSs4_Rep20_S_empty_rep_storageE, %rdi
 2216      000000
 2217 0dc0 74E6     		je	.L296
 2218 0dc2 BEFFFFFF 		movl	$-1, %esi
 2218      FF
 2219 0dc7 F00FC170 		lock xaddl	%esi, -8(%rax)
 2219      F8
 2220 0dcc 85F6     		testl	%esi, %esi
 2221 0dce 7FD8     		jg	.L296
 2222 0dd0 488D7424 		leaq	16(%rsp), %rsi
 2222      10
 2223 0dd5 4883C310 		addq	$16, %rbx
 2224 0dd9 E8000000 		call	_ZNSs4_Rep10_M_destroyERKSaIcE
 2224      00
 2225 0dde 4939DF   		cmpq	%rbx, %r15
 2226 0de1 75CE     		jne	.L351
 2227              		.p2align 4,,10
 2228 0de3 0F1F4400 		.p2align 3
 2228      00
 2229              	.L294:
 2230 0de8 4D8B7E18 		movq	24(%r14), %r15
 2231              	.L287:
 2232 0dec 4D85FF   		testq	%r15, %r15
 2233 0def 7408     		je	.L299
 2234 0df1 4C89FF   		movq	%r15, %rdi
 2235 0df4 E8000000 		call	_ZdlPv
 2235      00
 2236              	.L299:
 2237 0df9 498B4610 		movq	16(%r14), %rax
 2238 0dfd 488D78E8 		leaq	-24(%rax), %rdi
 2239 0e01 4881FF00 		cmpq	$_ZNSs4_Rep20_S_empty_rep_storageE, %rdi
 2239      000000
 2240 0e08 0F85AA01 		jne	.L367
 2240      0000
 2241              	.L301:
 2242 0e0e 498B4608 		movq	8(%r14), %rax
 2243 0e12 488D78E8 		leaq	-24(%rax), %rdi
 2244 0e16 4881FF00 		cmpq	$_ZNSs4_Rep20_S_empty_rep_storageE, %rdi
 2244      000000
 2245 0e1d 0F856501 		jne	.L368
 2245      0000
 2246              	.L306:
 2247 0e23 498B06   		movq	(%r14), %rax
 2248 0e26 488D78E8 		leaq	-24(%rax), %rdi
 2249 0e2a 4881FF00 		cmpq	$_ZNSs4_Rep20_S_empty_rep_storageE, %rdi
 2249      000000
 2250 0e31 0F851901 		jne	.L369
 2250      0000
 2251              	.L311:
 2252 0e37 4983C638 		addq	$56, %r14
 2253 0e3b 4C39F5   		cmpq	%r14, %rbp
 2254 0e3e 0F8544FF 		jne	.L315
 2254      FFFF
 2255 0e44 488BAC24 		movq	408(%rsp), %rbp
 2255      98010000 
 2256              	.L286:
 2257 0e4c 4885ED   		testq	%rbp, %rbp
 2258 0e4f 7408     		je	.L316
 2259 0e51 4889EF   		movq	%rbp, %rdi
 2260 0e54 E8000000 		call	_ZdlPv
 2260      00
 2261              	.L316:
 2262 0e59 488D4424 		leaq	48(%rsp), %rax
 2262      30
 2263 0e5e 488DB860 		leaq	352(%rax), %rdi
 2263      010000
 2264              	.LEHB43:
 2265 0e65 E8000000 		call	_ZN8UnitTest12TestReporterD2Ev
 2265      00
 2266              	.LEHE43:
 2267 0e6a 488B8424 		movq	128(%rsp), %rax
 2267      80000000 
 2268 0e72 48C74424 		movq	$_ZTVSt19basic_ostringstreamIcSt11char_traitsIcESaIcEE+24, 48(%rsp)
 2268      30000000 
 2268      00
 2269 0e7b 48C78424 		movq	$_ZTVSt19basic_ostringstreamIcSt11char_traitsIcESaIcEE+64, 136(%rsp)
 2269      88000000 
 2269      00000000 
 2270 0e87 48C74424 		movq	$_ZTVSt15basic_stringbufIcSt11char_traitsIcESaIcEE+16, 56(%rsp)
 2270      38000000 
 2270      00
 2271 0e90 488D78E8 		leaq	-24(%rax), %rdi
 2272 0e94 4881FF00 		cmpq	$_ZNSs4_Rep20_S_empty_rep_storageE, %rdi
 2272      000000
 2273 0e9b 0F856E01 		jne	.L370
 2273      0000
 2274              	.L318:
 2275 0ea1 488D7C24 		leaq	112(%rsp), %rdi
 2275      70
 2276 0ea6 48C74424 		movq	$_ZTVSt15basic_streambufIcSt11char_traitsIcEE+16, 56(%rsp)
 2276      38000000 
 2276      00
 2277 0eaf E8000000 		call	_ZNSt6localeD1Ev
 2277      00
 2278 0eb4 498B4424 		movq	-24(%r12), %rax
 2278      E8
 2279 0eb9 488B0D00 		movq	_ZTTSt19basic_ostringstreamIcSt11char_traitsIcESaIcEE+16(%rip), %rcx
 2279      000000
 2280 0ec0 4C896424 		movq	%r12, 48(%rsp)
 2280      30
 2281 0ec5 48894C04 		movq	%rcx, 48(%rsp,%rax)
 2281      30
 2282 0eca 488D4424 		leaq	48(%rsp), %rax
 2282      30
 2283 0ecf 48C78424 		movq	$_ZTVSt9basic_iosIcSt11char_traitsIcEE+16, 136(%rsp)
 2283      88000000 
 2283      00000000 
 2284 0edb 488D7858 		leaq	88(%rax), %rdi
 2285              	.LEHB44:
 2286 0edf E8000000 		call	_ZNSt8ios_baseD2Ev
 2286      00
 2287              	.LEHE44:
 2288              	.L279:
 2289 0ee4 488B8424 		movq	456(%rsp), %rax
 2289      C8010000 
 2290 0eec 64483304 		xorq	%fs:40, %rax
 2290      25280000 
 2290      00
 2291 0ef5 0F85E901 		jne	.L371
 2291      0000
 2292 0efb 4881C4D8 		addq	$472, %rsp
 2292      010000
 2293              		.cfi_remember_state
 2294              		.cfi_def_cfa_offset 56
 2295 0f02 5B       		popq	%rbx
 2296              		.cfi_def_cfa_offset 48
 2297 0f03 5D       		popq	%rbp
 2298              		.cfi_def_cfa_offset 40
 2299 0f04 415C     		popq	%r12
 2300              		.cfi_def_cfa_offset 32
 2301 0f06 415D     		popq	%r13
 2302              		.cfi_def_cfa_offset 24
 2303 0f08 415E     		popq	%r14
 2304              		.cfi_def_cfa_offset 16
 2305 0f0a 415F     		popq	%r15
 2306              		.cfi_def_cfa_offset 8
 2307 0f0c C3       		ret
 2308 0f0d 0F1F00   		.p2align 4,,10
 2309              		.p2align 3
 2310              	.L372:
 2311              		.cfi_restore_state
 2312 0f10 8B70F8   		movl	-8(%rax), %esi
 2313 0f13 448D46FF 		leal	-1(%rsi), %r8d
 2314 0f17 85F6     		testl	%esi, %esi
 2315 0f19 448940F8 		movl	%r8d, -8(%rax)
 2316 0f1d 7F11     		jg	.L291
 2317 0f1f 488D7424 		leaq	16(%rsp), %rsi
 2317      10
 2318 0f24 E8000000 		call	_ZNSs4_Rep10_M_destroyERKSaIcE
 2318      00
 2319 0f29 0F1F8000 		.p2align 4,,10
 2319      000000
 2320              		.p2align 3
 2321              	.L291:
 2322 0f30 4883C310 		addq	$16, %rbx
 2323 0f34 4939DF   		cmpq	%rbx, %r15
 2324 0f37 0F84ABFE 		je	.L294
 2324      FFFF
 2325              	.L293:
 2326 0f3d 488B4308 		movq	8(%rbx), %rax
 2327 0f41 488D78E8 		leaq	-24(%rax), %rdi
 2328 0f45 4881FF00 		cmpq	$_ZNSs4_Rep20_S_empty_rep_storageE, %rdi
 2328      000000
 2329 0f4c 74E2     		je	.L291
 2330 0f4e EBC0     		jmp	.L372
 2331              		.p2align 4,,10
 2332              		.p2align 3
 2333              	.L369:
 2334 0f50 BA000000 		movl	$_ZL28__gthrw___pthread_key_createPjPFvPvE, %edx
 2334      00
 2335 0f55 4885D2   		testq	%rdx, %rdx
 2336 0f58 0F848700 		je	.L312
 2336      0000
 2337 0f5e BAFFFFFF 		movl	$-1, %edx
 2337      FF
 2338 0f63 F00FC150 		lock xaddl	%edx, -8(%rax)
 2338      F8
 2339 0f68 89D0     		movl	%edx, %eax
 2340              	.L313:
 2341 0f6a 85C0     		testl	%eax, %eax
 2342 0f6c 0F8FC5FE 		jg	.L311
 2342      FFFF
 2343 0f72 488D7424 		leaq	16(%rsp), %rsi
 2343      10
 2344 0f77 E8000000 		call	_ZNSs4_Rep10_M_destroyERKSaIcE
 2344      00
 2345 0f7c E9B6FEFF 		jmp	.L311
 2345      FF
 2346              		.p2align 4,,10
 2347 0f81 0F1F8000 		.p2align 3
 2347      000000
 2348              	.L368:
 2349 0f88 BA000000 		movl	$_ZL28__gthrw___pthread_key_createPjPFvPvE, %edx
 2349      00
 2350 0f8d 4885D2   		testq	%rdx, %rdx
 2351 0f90 7470     		je	.L307
 2352 0f92 BAFFFFFF 		movl	$-1, %edx
 2352      FF
 2353 0f97 F00FC150 		lock xaddl	%edx, -8(%rax)
 2353      F8
 2354 0f9c 89D0     		movl	%edx, %eax
 2355              	.L308:
 2356 0f9e 85C0     		testl	%eax, %eax
 2357 0fa0 0F8F7DFE 		jg	.L306
 2357      FFFF
 2358 0fa6 488D7424 		leaq	16(%rsp), %rsi
 2358      10
 2359 0fab E8000000 		call	_ZNSs4_Rep10_M_destroyERKSaIcE
 2359      00
 2360 0fb0 E96EFEFF 		jmp	.L306
 2360      FF
 2361              		.p2align 4,,10
 2362 0fb5 0F1F00   		.p2align 3
 2363              	.L367:
 2364 0fb8 BA000000 		movl	$_ZL28__gthrw___pthread_key_createPjPFvPvE, %edx
 2364      00
 2365 0fbd 4885D2   		testq	%rdx, %rdx
 2366 0fc0 7433     		je	.L302
 2367 0fc2 BAFFFFFF 		movl	$-1, %edx
 2367      FF
 2368 0fc7 F00FC150 		lock xaddl	%edx, -8(%rax)
 2368      F8
 2369 0fcc 89D0     		movl	%edx, %eax
 2370              	.L303:
 2371 0fce 85C0     		testl	%eax, %eax
 2372 0fd0 0F8F38FE 		jg	.L301
 2372      FFFF
 2373 0fd6 488D7424 		leaq	16(%rsp), %rsi
 2373      10
 2374 0fdb E8000000 		call	_ZNSs4_Rep10_M_destroyERKSaIcE
 2374      00
 2375 0fe0 E929FEFF 		jmp	.L301
 2375      FF
 2376              	.L312:
 2377 0fe5 8B50F8   		movl	-8(%rax), %edx
 2378 0fe8 8D72FF   		leal	-1(%rdx), %esi
 2379 0feb 8970F8   		movl	%esi, -8(%rax)
 2380 0fee 89D0     		movl	%edx, %eax
 2381 0ff0 E975FFFF 		jmp	.L313
 2381      FF
 2382              	.L302:
 2383 0ff5 8B50F8   		movl	-8(%rax), %edx
 2384 0ff8 8D72FF   		leal	-1(%rdx), %esi
 2385 0ffb 8970F8   		movl	%esi, -8(%rax)
 2386 0ffe 89D0     		movl	%edx, %eax
 2387 1000 EBCC     		jmp	.L303
 2388              	.L307:
 2389 1002 8B50F8   		movl	-8(%rax), %edx
 2390 1005 8D72FF   		leal	-1(%rdx), %esi
 2391 1008 8970F8   		movl	%esi, -8(%rax)
 2392 100b 89D0     		movl	%edx, %eax
 2393 100d EB8F     		jmp	.L308
 2394              	.L370:
 2395 100f BA000000 		movl	$_ZL28__gthrw___pthread_key_createPjPFvPvE, %edx
 2395      00
 2396 1014 4885D2   		testq	%rdx, %rdx
 2397 1017 7423     		je	.L319
 2398 1019 BAFFFFFF 		movl	$-1, %edx
 2398      FF
 2399 101e F00FC150 		lock xaddl	%edx, -8(%rax)
 2399      F8
 2400 1023 89D0     		movl	%edx, %eax
 2401              	.L320:
 2402 1025 85C0     		testl	%eax, %eax
 2403 1027 0F8F74FE 		jg	.L318
 2403      FFFF
 2404 102d 488D7424 		leaq	16(%rsp), %rsi
 2404      10
 2405 1032 E8000000 		call	_ZNSs4_Rep10_M_destroyERKSaIcE
 2405      00
 2406 1037 E965FEFF 		jmp	.L318
 2406      FF
 2407              	.L319:
 2408 103c 8B50F8   		movl	-8(%rax), %edx
 2409 103f 8D4AFF   		leal	-1(%rdx), %ecx
 2410 1042 8948F8   		movl	%ecx, -8(%rax)
 2411 1045 89D0     		movl	%edx, %eax
 2412 1047 EBDC     		jmp	.L320
 2413              	.L346:
 2414 1049 488D7C24 		leaq	48(%rsp), %rdi
 2414      30
 2415 104e 4889C3   		movq	%rax, %rbx
 2416 1051 4889D5   		movq	%rdx, %rbp
 2417 1054 E8000000 		call	_ZNSt19basic_ostringstreamIcSt11char_traitsIcESaIcEED1Ev
 2417      00
 2418 1059 4889DF   		movq	%rbx, %rdi
 2419 105c 4889EA   		movq	%rbp, %rdx
 2420 105f BB010000 		movl	$1, %ebx
 2420      00
 2421              	.L283:
 2422 1064 4883FA01 		cmpq	$1, %rdx
 2423 1068 0F84E800 		je	.L328
 2423      0000
 2424 106e 4883FA02 		cmpq	$2, %rdx
 2425 1072 0F859D00 		jne	.L373
 2425      0000
 2426 1078 E8000000 		call	__cxa_begin_catch
 2426      00
 2427 107d 488D7C24 		leaq	48(%rsp), %rdi
 2427      30
 2428 1082 4889C3   		movq	%rax, %rbx
 2429              	.LEHB45:
 2430 1085 E8000000 		call	_ZN8UnitTest15MemoryOutStreamC1Ev
 2430      00
 2431              	.LEHE45:
 2432 108a 488B03   		movq	(%rbx), %rax
 2433 108d 4889DF   		movq	%rbx, %rdi
 2434 1090 FF5010   		call	*16(%rax)
 2435 1093 488D7C24 		leaq	48(%rsp), %rdi
 2435      30
 2436 1098 BE000000 		movl	$.LC32, %esi
 2436      00
 2437 109d 4889C3   		movq	%rax, %rbx
 2438              	.LEHB46:
 2439 10a0 E8000000 		call	_ZStlsISt11char_traitsIcEERSt13basic_ostreamIcT_ES5_PKc
 2439      00
 2440 10a5 4889C7   		movq	%rax, %rdi
 2441 10a8 4889DE   		movq	%rbx, %rsi
 2442 10ab E8000000 		call	_ZStlsISt11char_traitsIcEERSt13basic_ostreamIcT_ES5_PKc
 2442      00
 2443 10b0 488D7C24 		leaq	48(%rsp), %rdi
 2443      30
 2444 10b5 E8000000 		call	_ZNK8UnitTest15MemoryOutStream7GetTextEv
 2444      00
 2445 10ba 4889C3   		movq	%rax, %rbx
 2446 10bd E8000000 		call	_ZN8UnitTest11CurrentTest7ResultsEv
 2446      00
 2447 10c2 488B38   		movq	(%rax), %rdi
 2448 10c5 4889DA   		movq	%rbx, %rdx
 2449 10c8 4C89EE   		movq	%r13, %rsi
 2450 10cb E8000000 		call	_ZN8UnitTest11TestResults13OnTestFailureERKNS_11TestDetailsEPKc
 2450      00
 2451              	.LEHE46:
 2452 10d0 488D7C24 		leaq	48(%rsp), %rdi
 2452      30
 2453              	.LEHB47:
 2454 10d5 E8000000 		call	_ZN8UnitTest15MemoryOutStreamD1Ev
 2454      00
 2455              	.LEHE47:
 2456              	.L361:
 2457 10da E8000000 		call	__cxa_end_catch
 2457      00
 2458 10df E900FEFF 		jmp	.L279
 2458      FF
 2459              	.L371:
 2460 10e4 E8000000 		call	__stack_chk_fail
 2460      00
 2461              	.L337:
 2462 10e9 4889C7   		movq	%rax, %rdi
 2463 10ec BB010000 		movl	$1, %ebx
 2463      00
 2464 10f1 E96EFFFF 		jmp	.L283
 2464      FF
 2465              	.L341:
 2466 10f6 488D7C24 		leaq	48(%rsp), %rdi
 2466      30
 2467 10fb 4889C3   		movq	%rax, %rbx
 2468 10fe E8000000 		call	_ZN8UnitTest15MemoryOutStreamD1Ev
 2468      00
 2469              	.L332:
 2470 1103 E8000000 		call	__cxa_end_catch
 2470      00
 2471 1108 4889DF   		movq	%rbx, %rdi
 2472              	.LEHB48:
 2473 110b E8000000 		call	_Unwind_Resume
 2473      00
 2474              	.LEHE48:
 2475              	.L340:
 2476              	.L362:
 2477 1110 4889C3   		movq	%rax, %rbx
 2478 1113 EBEE     		jmp	.L332
 2479              	.L373:
 2480 1115 E8000000 		call	__cxa_begin_catch
 2480      00
 2481 111a 84DB     		testb	%bl, %bl
 2482 111c 488D5C24 		leaq	16(%rsp), %rbx
 2482      10
 2483 1121 BA370000 		movl	$55, %edx
 2483      00
 2484 1126 4C89EE   		movq	%r13, %rsi
 2485 1129 4889DF   		movq	%rbx, %rdi
 2486 112c 0F849300 		je	.L334
 2486      0000
 2487              	.LEHB49:
 2488 1132 E8000000 		call	_ZN8UnitTest11TestDetailsC1ERKS0_i
 2488      00
 2489 1137 E8000000 		call	_ZN8UnitTest11CurrentTest7ResultsEv
 2489      00
 2490 113c 488B38   		movq	(%rax), %rdi
 2491 113f BA000000 		movl	$.LC36, %edx
 2491      00
 2492 1144 4889DE   		movq	%rbx, %rsi
 2493 1147 E8000000 		call	_ZN8UnitTest11TestResults13OnTestFailureERKNS_11TestDetailsEPKc
 2493      00
 2494              	.LEHE49:
 2495              	.L335:
 2496              	.LEHB50:
 2497 114c E8000000 		call	__cxa_end_catch
 2497      00
 2498              	.LEHE50:
 2499 1151 E98EFDFF 		jmp	.L279
 2499      FF
 2500              	.L328:
 2501 1156 E8000000 		call	__cxa_begin_catch
 2501      00
 2502 115b 4889C3   		movq	%rax, %rbx
 2503 115e 488B00   		movq	(%rax), %rax
 2504 1161 4889DF   		movq	%rbx, %rdi
 2505 1164 FF5010   		call	*16(%rax)
 2506 1167 4889DF   		movq	%rbx, %rdi
 2507 116a 4889C5   		movq	%rax, %rbp
 2508              	.LEHB51:
 2509 116d E8000000 		call	_ZNK8UnitTest15AssertException10LineNumberEv
 2509      00
 2510 1172 4889DF   		movq	%rbx, %rdi
 2511 1175 4189C4   		movl	%eax, %r12d
 2512 1178 E8000000 		call	_ZNK8UnitTest15AssertException8FilenameEv
 2512      00
 2513 117d 488B4C24 		movq	8(%rsp), %rcx
 2513      08
 2514 1182 488D5C24 		leaq	16(%rsp), %rbx
 2514      10
 2515 1187 4589E0   		movl	%r12d, %r8d
 2516 118a 4889DF   		movq	%rbx, %rdi
 2517 118d 488B5108 		movq	8(%rcx), %rdx
 2518 1191 488B7110 		movq	16(%rcx), %rsi
 2519 1195 4889C1   		movq	%rax, %rcx
 2520 1198 E8000000 		call	_ZN8UnitTest11TestDetailsC1EPKcS2_S2_i
 2520      00
 2521 119d E8000000 		call	_ZN8UnitTest11CurrentTest7ResultsEv
 2521      00
 2522 11a2 488B38   		movq	(%rax), %rdi
 2523 11a5 4889EA   		movq	%rbp, %rdx
 2524 11a8 4889DE   		movq	%rbx, %rsi
 2525 11ab E8000000 		call	_ZN8UnitTest11TestResults13OnTestFailureERKNS_11TestDetailsEPKc
 2525      00
 2526              	.LEHE51:
 2527 11b0 E925FFFF 		jmp	.L361
 2527      FF
 2528              	.L342:
 2529 11b5 4889C3   		movq	%rax, %rbx
 2530 11b8 E8000000 		call	__cxa_end_catch
 2530      00
 2531 11bd 4889DF   		movq	%rbx, %rdi
 2532              	.LEHB52:
 2533 11c0 E8000000 		call	_Unwind_Resume
 2533      00
 2534              	.LEHE52:
 2535              	.L334:
 2536              	.LEHB53:
 2537 11c5 E8000000 		call	_ZN8UnitTest11TestDetailsC1ERKS0_i
 2537      00
 2538 11ca E8000000 		call	_ZN8UnitTest11CurrentTest7ResultsEv
 2538      00
 2539 11cf 488B38   		movq	(%rax), %rdi
 2540 11d2 BA000000 		movl	$.LC37, %edx
 2540      00
 2541 11d7 4889DE   		movq	%rbx, %rsi
 2542 11da E8000000 		call	_ZN8UnitTest11TestResults13OnTestFailureERKNS_11TestDetailsEPKc
 2542      00
 2543              	.LEHE53:
 2544 11df E968FFFF 		jmp	.L335
 2544      FF
 2545              	.L339:
 2546 11e4 E927FFFF 		jmp	.L362
 2546      FF
 2547              	.L338:
 2548 11e9 488D7C24 		leaq	48(%rsp), %rdi
 2548      30
 2549 11ee 4889C3   		movq	%rax, %rbx
 2550 11f1 4889D5   		movq	%rdx, %rbp
 2551 11f4 E8000000 		call	_ZN12_GLOBAL__N_122XmlTestReporterFixtureD2Ev
 2551      00
 2552 11f9 4889DF   		movq	%rbx, %rdi
 2553 11fc 4889EA   		movq	%rbp, %rdx
 2554 11ff BB010000 		movl	$1, %ebx
 2554      00
 2555 1204 E95BFEFF 		jmp	.L283
 2555      FF
 2556              	.L343:
 2557 1209 488D7C24 		leaq	48(%rsp), %rdi
 2557      30
 2558 120e 4889C3   		movq	%rax, %rbx
 2559 1211 4889D5   		movq	%rdx, %rbp
 2560 1214 E8000000 		call	_ZNSt19basic_ostringstreamIcSt11char_traitsIcESaIcEED1Ev
 2560      00
 2561 1219 4889DF   		movq	%rbx, %rdi
 2562 121c 4889EA   		movq	%rbp, %rdx
 2563 121f 31DB     		xorl	%ebx, %ebx
 2564 1221 E93EFEFF 		jmp	.L283
 2564      FF
 2565              	.L345:
 2566 1226 488D7C24 		leaq	56(%rsp), %rdi
 2566      38
 2567 122b 4889C3   		movq	%rax, %rbx
 2568 122e 4889D5   		movq	%rdx, %rbp
 2569 1231 E8000000 		call	_ZNSt15basic_stringbufIcSt11char_traitsIcESaIcEED1Ev
 2569      00
 2570 1236 498B4424 		movq	-24(%r12), %rax
 2570      E8
 2571 123b 488B0D00 		movq	_ZTTSt19basic_ostringstreamIcSt11char_traitsIcESaIcEE+16(%rip), %rcx
 2571      000000
 2572 1242 4C896424 		movq	%r12, 48(%rsp)
 2572      30
 2573 1247 48894C04 		movq	%rcx, 48(%rsp,%rax)
 2573      30
 2574              	.L282:
 2575 124c 488DBC24 		leaq	136(%rsp), %rdi
 2575      88000000 
 2576 1254 48C78424 		movq	$_ZTVSt9basic_iosIcSt11char_traitsIcEE+16, 136(%rsp)
 2576      88000000 
 2576      00000000 
 2577 1260 E8000000 		call	_ZNSt8ios_baseD2Ev
 2577      00
 2578 1265 4889DF   		movq	%rbx, %rdi
 2579 1268 4889EA   		movq	%rbp, %rdx
 2580 126b 31DB     		xorl	%ebx, %ebx
 2581 126d E9F2FDFF 		jmp	.L283
 2581      FF
 2582              	.L344:
 2583 1272 4889C3   		movq	%rax, %rbx
 2584 1275 4889D5   		movq	%rdx, %rbp
 2585 1278 EBD2     		jmp	.L282
 2586              		.cfi_endproc
 2587              	.LFE1386:
 2588              		.section	.gcc_except_table
 2589              		.align 4
 2590              	.LLSDA1386:
 2591 0104 FF       		.byte	0xff
 2592 0105 03       		.byte	0x3
 2593 0106 6D       		.uleb128 .LLSDATT1386-.LLSDATTD1386
 2594              	.LLSDATTD1386:
 2595 0107 01       		.byte	0x1
 2596 0108 57       		.uleb128 .LLSDACSE1386-.LLSDACSB1386
 2597              	.LLSDACSB1386:
 2598 0109 B401     		.uleb128 .LEHB39-.LFB1386
 2599 010b 05       		.uleb128 .LEHE39-.LEHB39
 2600 010c 820D     		.uleb128 .L344-.LFB1386
 2601 010e 07       		.uleb128 0x7
 2602 010f C202     		.uleb128 .LEHB40-.LFB1386
 2603 0111 05       		.uleb128 .LEHE40-.LEHB40
 2604 0112 B60C     		.uleb128 .L345-.LFB1386
 2605 0114 07       		.uleb128 0x7
 2606 0115 D602     		.uleb128 .LEHB41-.LFB1386
 2607 0117 05       		.uleb128 .LEHE41-.LEHB41
 2608 0118 990C     		.uleb128 .L343-.LFB1386
 2609 011a 07       		.uleb128 0x7
 2610 011b EB02     		.uleb128 .LEHB42-.LFB1386
 2611 011d 05       		.uleb128 .LEHE42-.LEHB42
 2612 011e F90B     		.uleb128 .L338-.LFB1386
 2613 0120 07       		.uleb128 0x7
 2614 0121 F504     		.uleb128 .LEHB43-.LFB1386
 2615 0123 05       		.uleb128 .LEHE43-.LEHB43
 2616 0124 D908     		.uleb128 .L346-.LFB1386
 2617 0126 07       		.uleb128 0x7
 2618 0127 EF05     		.uleb128 .LEHB44-.LFB1386
 2619 0129 05       		.uleb128 .LEHE44-.LEHB44
 2620 012a F909     		.uleb128 .L337-.LFB1386
 2621 012c 05       		.uleb128 0x5
 2622 012d 9509     		.uleb128 .LEHB45-.LFB1386
 2623 012f 05       		.uleb128 .LEHE45-.LEHB45
 2624 0130 A00A     		.uleb128 .L340-.LFB1386
 2625 0132 00       		.uleb128 0
 2626 0133 B009     		.uleb128 .LEHB46-.LFB1386
 2627 0135 30       		.uleb128 .LEHE46-.LEHB46
 2628 0136 860A     		.uleb128 .L341-.LFB1386
 2629 0138 00       		.uleb128 0
 2630 0139 E509     		.uleb128 .LEHB47-.LFB1386
 2631 013b 05       		.uleb128 .LEHE47-.LEHB47
 2632 013c A00A     		.uleb128 .L340-.LFB1386
 2633 013e 00       		.uleb128 0
 2634 013f 9B0A     		.uleb128 .LEHB48-.LFB1386
 2635 0141 05       		.uleb128 .LEHE48-.LEHB48
 2636 0142 00       		.uleb128 0
 2637 0143 00       		.uleb128 0
 2638 0144 C20A     		.uleb128 .LEHB49-.LFB1386
 2639 0146 1A       		.uleb128 .LEHE49-.LEHB49
 2640 0147 C50B     		.uleb128 .L342-.LFB1386
 2641 0149 00       		.uleb128 0
 2642 014a DC0A     		.uleb128 .LEHB50-.LFB1386
 2643 014c 05       		.uleb128 .LEHE50-.LEHB50
 2644 014d 00       		.uleb128 0
 2645 014e 00       		.uleb128 0
 2646 014f FD0A     		.uleb128 .LEHB51-.LFB1386
 2647 0151 43       		.uleb128 .LEHE51-.LEHB51
 2648 0152 F40B     		.uleb128 .L339-.LFB1386
 2649 0154 00       		.uleb128 0
 2650 0155 D00B     		.uleb128 .LEHB52-.LFB1386
 2651 0157 05       		.uleb128 .LEHE52-.LEHB52
 2652 0158 00       		.uleb128 0
 2653 0159 00       		.uleb128 0
 2654 015a D50B     		.uleb128 .LEHB53-.LFB1386
 2655 015c 1A       		.uleb128 .LEHE53-.LEHB53
 2656 015d C50B     		.uleb128 .L342-.LFB1386
 2657 015f 00       		.uleb128 0
 2658              	.LLSDACSE1386:
 2659 0160 03       		.byte	0x3
 2660 0161 00       		.byte	0
 2661 0162 02       		.byte	0x2
 2662 0163 7D       		.byte	0x7d
 2663 0164 01       		.byte	0x1
 2664 0165 7D       		.byte	0x7d
 2665 0166 00       		.byte	0
 2666 0167 7D       		.byte	0x7d
 2667              		.align 4
 2668 0168 00000000 		.long	0
 2669              	
 2670 016c 00000000 		.long	_ZTISt9exception
 2671 0170 00000000 		.long	_ZTIN8UnitTest15AssertExceptionE
 2672              	.LLSDATT1386:
 2673              		.text
 2675              		.section	.text.unlikely
 2676              	.LCOLDE38:
 2677              		.text
 2678              	.LHOTE38:
 2679              		.section	.text.unlikely._ZNSt15basic_stringbufIcSt11char_traitsIcESaIcEED0Ev,"axG",@progbits,_ZNSt
 2680              		.align 2
 2681              	.LCOLDB39:
 2682              		.section	.text._ZNSt15basic_stringbufIcSt11char_traitsIcESaIcEED0Ev,"axG",@progbits,_ZNSt15basic_s
 2683              	.LHOTB39:
 2684              		.align 2
 2685              		.p2align 4,,15
 2686              		.weak	_ZNSt15basic_stringbufIcSt11char_traitsIcESaIcEED0Ev
 2688              	_ZNSt15basic_stringbufIcSt11char_traitsIcESaIcEED0Ev:
 2689              	.LFB1468:
 2690              		.cfi_startproc
 2691 0000 53       		pushq	%rbx
 2692              		.cfi_def_cfa_offset 16
 2693              		.cfi_offset 3, -16
 2694 0001 4889FB   		movq	%rdi, %rbx
 2695 0004 4883EC10 		subq	$16, %rsp
 2696              		.cfi_def_cfa_offset 32
 2697 0008 48C70700 		movq	$_ZTVSt15basic_stringbufIcSt11char_traitsIcESaIcEE+16, (%rdi)
 2697      000000
 2698 000f 64488B04 		movq	%fs:40, %rax
 2698      25280000 
 2698      00
 2699 0018 48894424 		movq	%rax, 8(%rsp)
 2699      08
 2700 001d 31C0     		xorl	%eax, %eax
 2701 001f 488B4748 		movq	72(%rdi), %rax
 2702 0023 488D78E8 		leaq	-24(%rax), %rdi
 2703 0027 4881FF00 		cmpq	$_ZNSs4_Rep20_S_empty_rep_storageE, %rdi
 2703      000000
 2704 002e 7530     		jne	.L382
 2705              	.L376:
 2706 0030 488D7B38 		leaq	56(%rbx), %rdi
 2707 0034 48C70300 		movq	$_ZTVSt15basic_streambufIcSt11char_traitsIcEE+16, (%rbx)
 2707      000000
 2708 003b E8000000 		call	_ZNSt6localeD1Ev
 2708      00
 2709 0040 4889DF   		movq	%rbx, %rdi
 2710 0043 E8000000 		call	_ZdlPv
 2710      00
 2711 0048 488B4424 		movq	8(%rsp), %rax
 2711      08
 2712 004d 64483304 		xorq	%fs:40, %rax
 2712      25280000 
 2712      00
 2713 0056 7545     		jne	.L383
 2714 0058 4883C410 		addq	$16, %rsp
 2715              		.cfi_remember_state
 2716              		.cfi_def_cfa_offset 16
 2717 005c 5B       		popq	%rbx
 2718              		.cfi_def_cfa_offset 8
 2719 005d C3       		ret
 2720 005e 6690     		.p2align 4,,10
 2721              		.p2align 3
 2722              	.L382:
 2723              		.cfi_restore_state
 2724 0060 BA000000 		movl	$_ZL28__gthrw___pthread_key_createPjPFvPvE, %edx
 2724      00
 2725 0065 4885D2   		testq	%rdx, %rdx
 2726 0068 7426     		je	.L377
 2727 006a BAFFFFFF 		movl	$-1, %edx
 2727      FF
 2728 006f F00FC150 		lock xaddl	%edx, -8(%rax)
 2728      F8
 2729 0074 89D0     		movl	%edx, %eax
 2730              	.L378:
 2731 0076 85C0     		testl	%eax, %eax
 2732 0078 7FB6     		jg	.L376
 2733 007a 488D7424 		leaq	7(%rsp), %rsi
 2733      07
 2734 007f E8000000 		call	_ZNSs4_Rep10_M_destroyERKSaIcE
 2734      00
 2735 0084 EBAA     		jmp	.L376
 2736 0086 662E0F1F 		.p2align 4,,10
 2736      84000000 
 2736      0000
 2737              		.p2align 3
 2738              	.L377:
 2739 0090 8B50F8   		movl	-8(%rax), %edx
 2740 0093 8D4AFF   		leal	-1(%rdx), %ecx
 2741 0096 8948F8   		movl	%ecx, -8(%rax)
 2742 0099 89D0     		movl	%edx, %eax
 2743 009b EBD9     		jmp	.L378
 2744              	.L383:
 2745 009d E8000000 		call	__stack_chk_fail
 2745      00
 2746              		.cfi_endproc
 2747              	.LFE1468:
 2749              		.section	.text.unlikely._ZNSt15basic_stringbufIcSt11char_traitsIcESaIcEED0Ev,"axG",@progbits,_ZNSt
 2750              	.LCOLDE39:
 2751              		.section	.text._ZNSt15basic_stringbufIcSt11char_traitsIcESaIcEED0Ev,"axG",@progbits,_ZNSt15basic_s
 2752              	.LHOTE39:
 2753              		.section	.rodata.str1.1
 2754              	.LC40:
 2755 0081 45787065 		.string	"Expected "
 2755      63746564 
 2755      2000
 2756              	.LC41:
 2757 008b 20627574 		.string	" but was "
 2757      20776173 
 2757      2000
 2758              		.section	.text.unlikely._ZN8UnitTest10CheckEqualIPKcSsEEvRNS_11TestResultsERKT_RKT0_RKNS_11TestDet
 2759              	.LCOLDB42:
 2760              		.section	.text._ZN8UnitTest10CheckEqualIPKcSsEEvRNS_11TestResultsERKT_RKT0_RKNS_11TestDetailsE,"ax
 2761              	.LHOTB42:
 2762              		.p2align 4,,15
 2763              		.weak	_ZN8UnitTest10CheckEqualIPKcSsEEvRNS_11TestResultsERKT_RKT0_RKNS_11TestDetailsE
 2765              	_ZN8UnitTest10CheckEqualIPKcSsEEvRNS_11TestResultsERKT_RKT0_RKNS_11TestDetailsE:
 2766              	.LFB1488:
 2767              		.cfi_startproc
 2768              		.cfi_personality 0x3,__gxx_personality_v0
 2769              		.cfi_lsda 0x3,.LLSDA1488
 2770 0000 4156     		pushq	%r14
 2771              		.cfi_def_cfa_offset 16
 2772              		.cfi_offset 14, -16
 2773 0002 4155     		pushq	%r13
 2774              		.cfi_def_cfa_offset 24
 2775              		.cfi_offset 13, -24
 2776 0004 4989CD   		movq	%rcx, %r13
 2777 0007 4154     		pushq	%r12
 2778              		.cfi_def_cfa_offset 32
 2779              		.cfi_offset 12, -32
 2780 0009 55       		pushq	%rbp
 2781              		.cfi_def_cfa_offset 40
 2782              		.cfi_offset 6, -40
 2783 000a 4889F5   		movq	%rsi, %rbp
 2784 000d 53       		pushq	%rbx
 2785              		.cfi_def_cfa_offset 48
 2786              		.cfi_offset 3, -48
 2787 000e 4989FC   		movq	%rdi, %r12
 2788 0011 4889D7   		movq	%rdx, %rdi
 2789 0014 4889D3   		movq	%rdx, %rbx
 2790 0017 4881EC80 		subq	$384, %rsp
 2790      010000
 2791              		.cfi_def_cfa_offset 432
 2792 001e 488B36   		movq	(%rsi), %rsi
 2793 0021 64488B04 		movq	%fs:40, %rax
 2793      25280000 
 2793      00
 2794 002a 48898424 		movq	%rax, 376(%rsp)
 2794      78010000 
 2795 0032 31C0     		xorl	%eax, %eax
 2796              	.LEHB54:
 2797 0034 E8000000 		call	_ZNKSs7compareEPKc
 2797      00
 2798              	.LEHE54:
 2799 0039 85C0     		testl	%eax, %eax
 2800 003b 752B     		jne	.L418
 2801              	.L384:
 2802 003d 488B8424 		movq	376(%rsp), %rax
 2802      78010000 
 2803 0045 64483304 		xorq	%fs:40, %rax
 2803      25280000 
 2803      00
 2804 004e 0F85C902 		jne	.L419
 2804      0000
 2805 0054 4881C480 		addq	$384, %rsp
 2805      010000
 2806              		.cfi_remember_state
 2807              		.cfi_def_cfa_offset 48
 2808 005b 5B       		popq	%rbx
 2809              		.cfi_def_cfa_offset 40
 2810 005c 5D       		popq	%rbp
 2811              		.cfi_def_cfa_offset 32
 2812 005d 415C     		popq	%r12
 2813              		.cfi_def_cfa_offset 24
 2814 005f 415D     		popq	%r13
 2815              		.cfi_def_cfa_offset 16
 2816 0061 415E     		popq	%r14
 2817              		.cfi_def_cfa_offset 8
 2818 0063 C3       		ret
 2819              		.p2align 4,,10
 2820 0064 0F1F4000 		.p2align 3
 2821              	.L418:
 2822              		.cfi_restore_state
 2823 0068 4C8D7424 		leaq	112(%rsp), %r14
 2823      70
 2824 006d 4C89F7   		movq	%r14, %rdi
 2825 0070 E8000000 		call	_ZNSt8ios_baseC2Ev
 2825      00
 2826 0075 31F6     		xorl	%esi, %esi
 2827 0077 4C89F7   		movq	%r14, %rdi
 2828 007a 48C78424 		movq	$0, 328(%rsp)
 2828      48010000 
 2828      00000000 
 2829 0086 C6842450 		movb	$0, 336(%rsp)
 2829      01000000 
 2830 008e C6842451 		movb	$0, 337(%rsp)
 2830      01000000 
 2831 0096 48C78424 		movq	$0, 344(%rsp)
 2831      58010000 
 2831      00000000 
 2832 00a2 48C78424 		movq	$0, 352(%rsp)
 2832      60010000 
 2832      00000000 
 2833 00ae 48C78424 		movq	$0, 360(%rsp)
 2833      68010000 
 2833      00000000 
 2834 00ba 48C78424 		movq	$0, 368(%rsp)
 2834      70010000 
 2834      00000000 
 2835 00c6 48C74424 		movq	$_ZTCN8UnitTest15MemoryOutStreamE0_So+24, 16(%rsp)
 2835      10000000 
 2835      00
 2836 00cf 48C74424 		movq	$_ZTCN8UnitTest15MemoryOutStreamE0_So+64, 112(%rsp)
 2836      70000000 
 2836      00
 2837              	.LEHB55:
 2838 00d8 E8000000 		call	_ZNSt9basic_iosIcSt11char_traitsIcEE4initEPSt15basic_streambufIcS1_E
 2838      00
 2839              	.LEHE55:
 2840 00dd 488D7C24 		leaq	80(%rsp), %rdi
 2840      50
 2841 00e2 48C74424 		movq	$_ZTCN8UnitTest15MemoryOutStreamE0_St19basic_ostringstreamIcSt11char_traitsIcESaIcEE+24, 16(%
 2841      10000000 
 2841      00
 2842 00eb 48C74424 		movq	$_ZTCN8UnitTest15MemoryOutStreamE0_St19basic_ostringstreamIcSt11char_traitsIcESaIcEE+64, 112(
 2842      70000000 
 2842      00
 2843 00f4 48C74424 		movq	$_ZTVSt15basic_streambufIcSt11char_traitsIcEE+16, 24(%rsp)
 2843      18000000 
 2843      00
 2844 00fd 48C74424 		movq	$0, 32(%rsp)
 2844      20000000 
 2844      00
 2845 0106 48C74424 		movq	$0, 40(%rsp)
 2845      28000000 
 2845      00
 2846 010f 48C74424 		movq	$0, 48(%rsp)
 2846      30000000 
 2846      00
 2847 0118 48C74424 		movq	$0, 56(%rsp)
 2847      38000000 
 2847      00
 2848 0121 48C74424 		movq	$0, 64(%rsp)
 2848      40000000 
 2848      00
 2849 012a 48C74424 		movq	$0, 72(%rsp)
 2849      48000000 
 2849      00
 2850 0133 E8000000 		call	_ZNSt6localeC1Ev
 2850      00
 2851 0138 488B4424 		movq	16(%rsp), %rax
 2851      10
 2852 013d 488D7C24 		leaq	16(%rsp), %rdi
 2852      10
 2853 0142 488D7424 		leaq	24(%rsp), %rsi
 2853      18
 2854 0147 48C74424 		movq	$_ZTVSt15basic_stringbufIcSt11char_traitsIcESaIcEE+16, 24(%rsp)
 2854      18000000 
 2854      00
 2855 0150 C7442458 		movl	$16, 88(%rsp)
 2855      10000000 
 2856 0158 48C74424 		movq	$_ZNSs4_Rep20_S_empty_rep_storageE+24, 96(%rsp)
 2856      60000000 
 2856      00
 2857 0161 480378E8 		addq	-24(%rax), %rdi
 2858              	.LEHB56:
 2859 0165 E8000000 		call	_ZNSt9basic_iosIcSt11char_traitsIcEE4initEPSt15basic_streambufIcS1_E
 2859      00
 2860              	.LEHE56:
 2861 016a 488D7C24 		leaq	16(%rsp), %rdi
 2861      10
 2862 016f BA090000 		movl	$9, %edx
 2862      00
 2863 0174 BE000000 		movl	$.LC40, %esi
 2863      00
 2864 0179 48C74424 		movq	$_ZTVN8UnitTest15MemoryOutStreamE+24, 16(%rsp)
 2864      10000000 
 2864      00
 2865 0182 48C74424 		movq	$_ZTVN8UnitTest15MemoryOutStreamE+64, 112(%rsp)
 2865      70000000 
 2865      00
 2866 018b 48C74424 		movq	$_ZNSs4_Rep20_S_empty_rep_storageE+24, 104(%rsp)
 2866      68000000 
 2866      00
 2867 0194 488B6D00 		movq	0(%rbp), %rbp
 2868              	.LEHB57:
 2869 0198 E8000000 		call	_ZSt16__ostream_insertIcSt11char_traitsIcEERSt13basic_ostreamIT_T0_ES6_PKS3_l
 2869      00
 2870 019d 4885ED   		testq	%rbp, %rbp
 2871 01a0 0F84DA00 		je	.L420
 2871      0000
 2872 01a6 4889EF   		movq	%rbp, %rdi
 2873 01a9 E8000000 		call	strlen
 2873      00
 2874 01ae 488D7C24 		leaq	16(%rsp), %rdi
 2874      10
 2875 01b3 4889C2   		movq	%rax, %rdx
 2876 01b6 4889EE   		movq	%rbp, %rsi
 2877 01b9 E8000000 		call	_ZSt16__ostream_insertIcSt11char_traitsIcEERSt13basic_ostreamIT_T0_ES6_PKS3_l
 2877      00
 2878              	.L392:
 2879 01be 488D7C24 		leaq	16(%rsp), %rdi
 2879      10
 2880 01c3 BA090000 		movl	$9, %edx
 2880      00
 2881 01c8 BE000000 		movl	$.LC41, %esi
 2881      00
 2882 01cd E8000000 		call	_ZSt16__ostream_insertIcSt11char_traitsIcEERSt13basic_ostreamIT_T0_ES6_PKS3_l
 2882      00
 2883 01d2 488B33   		movq	(%rbx), %rsi
 2884 01d5 488D7C24 		leaq	16(%rsp), %rdi
 2884      10
 2885 01da 488B56E8 		movq	-24(%rsi), %rdx
 2886 01de E8000000 		call	_ZSt16__ostream_insertIcSt11char_traitsIcEERSt13basic_ostreamIT_T0_ES6_PKS3_l
 2886      00
 2887 01e3 488D7C24 		leaq	16(%rsp), %rdi
 2887      10
 2888 01e8 E8000000 		call	_ZNK8UnitTest15MemoryOutStream7GetTextEv
 2888      00
 2889 01ed 4889C2   		movq	%rax, %rdx
 2890 01f0 4C89EE   		movq	%r13, %rsi
 2891 01f3 4C89E7   		movq	%r12, %rdi
 2892 01f6 E8000000 		call	_ZN8UnitTest11TestResults13OnTestFailureERKNS_11TestDetailsEPKc
 2892      00
 2893              	.LEHE57:
 2894 01fb 488B4424 		movq	104(%rsp), %rax
 2894      68
 2895 0200 48C74424 		movq	$_ZTVN8UnitTest15MemoryOutStreamE+24, 16(%rsp)
 2895      10000000 
 2895      00
 2896 0209 48C74424 		movq	$_ZTVN8UnitTest15MemoryOutStreamE+64, 112(%rsp)
 2896      70000000 
 2896      00
 2897 0212 488D78E8 		leaq	-24(%rax), %rdi
 2898 0216 4881FF00 		cmpq	$_ZNSs4_Rep20_S_empty_rep_storageE, %rdi
 2898      000000
 2899 021d 0F857D00 		jne	.L421
 2899      0000
 2900              	.L394:
 2901 0223 488B4424 		movq	96(%rsp), %rax
 2901      60
 2902 0228 48C74424 		movq	$_ZTCN8UnitTest15MemoryOutStreamE0_St19basic_ostringstreamIcSt11char_traitsIcESaIcEE+24, 16(%
 2902      10000000 
 2902      00
 2903 0231 48C74424 		movq	$_ZTCN8UnitTest15MemoryOutStreamE0_St19basic_ostringstreamIcSt11char_traitsIcESaIcEE+64, 112(
 2903      70000000 
 2903      00
 2904 023a 48C74424 		movq	$_ZTVSt15basic_stringbufIcSt11char_traitsIcESaIcEE+16, 24(%rsp)
 2904      18000000 
 2904      00
 2905 0243 488D78E8 		leaq	-24(%rax), %rdi
 2906 0247 4881FF00 		cmpq	$_ZNSs4_Rep20_S_empty_rep_storageE, %rdi
 2906      000000
 2907 024e 0F857C00 		jne	.L422
 2907      0000
 2908              	.L399:
 2909 0254 488D7C24 		leaq	80(%rsp), %rdi
 2909      50
 2910 0259 48C74424 		movq	$_ZTVSt15basic_streambufIcSt11char_traitsIcEE+16, 24(%rsp)
 2910      18000000 
 2910      00
 2911 0262 E8000000 		call	_ZNSt6localeD1Ev
 2911      00
 2912 0267 488D7C24 		leaq	112(%rsp), %rdi
 2912      70
 2913 026c 48C74424 		movq	$_ZTVSt9basic_iosIcSt11char_traitsIcEE+16, 112(%rsp)
 2913      70000000 
 2913      00
 2914              	.LEHB58:
 2915 0275 E8000000 		call	_ZNSt8ios_baseD2Ev
 2915      00
 2916              	.LEHE58:
 2917 027a E9BEFDFF 		jmp	.L384
 2917      FF
 2918 027f 90       		.p2align 4,,10
 2919              		.p2align 3
 2920              	.L420:
 2921 0280 488B4424 		movq	16(%rsp), %rax
 2921      10
 2922 0285 488D7C24 		leaq	16(%rsp), %rdi
 2922      10
 2923 028a 480378E8 		addq	-24(%rax), %rdi
 2924 028e 8B7720   		movl	32(%rdi), %esi
 2925 0291 83CE01   		orl	$1, %esi
 2926              	.LEHB59:
 2927 0294 E8000000 		call	_ZNSt9basic_iosIcSt11char_traitsIcEE5clearESt12_Ios_Iostate
 2927      00
 2928              	.LEHE59:
 2929 0299 E920FFFF 		jmp	.L392
 2929      FF
 2930 029e 6690     		.p2align 4,,10
 2931              		.p2align 3
 2932              	.L421:
 2933 02a0 BA000000 		movl	$_ZL28__gthrw___pthread_key_createPjPFvPvE, %edx
 2933      00
 2934 02a5 4885D2   		testq	%rdx, %rdx
 2935 02a8 7456     		je	.L395
 2936 02aa BAFFFFFF 		movl	$-1, %edx
 2936      FF
 2937 02af F00FC150 		lock xaddl	%edx, -8(%rax)
 2937      F8
 2938 02b4 89D0     		movl	%edx, %eax
 2939              	.L396:
 2940 02b6 85C0     		testl	%eax, %eax
 2941 02b8 0F8F65FF 		jg	.L394
 2941      FFFF
 2942 02be 488D7424 		leaq	15(%rsp), %rsi
 2942      0F
 2943 02c3 E8000000 		call	_ZNSs4_Rep10_M_destroyERKSaIcE
 2943      00
 2944 02c8 E956FFFF 		jmp	.L394
 2944      FF
 2945 02cd 0F1F00   		.p2align 4,,10
 2946              		.p2align 3
 2947              	.L422:
 2948 02d0 BA000000 		movl	$_ZL28__gthrw___pthread_key_createPjPFvPvE, %edx
 2948      00
 2949 02d5 4885D2   		testq	%rdx, %rdx
 2950 02d8 7436     		je	.L400
 2951 02da BAFFFFFF 		movl	$-1, %edx
 2951      FF
 2952 02df F00FC150 		lock xaddl	%edx, -8(%rax)
 2952      F8
 2953 02e4 89D0     		movl	%edx, %eax
 2954              	.L401:
 2955 02e6 85C0     		testl	%eax, %eax
 2956 02e8 0F8F66FF 		jg	.L399
 2956      FFFF
 2957 02ee 488D7424 		leaq	15(%rsp), %rsi
 2957      0F
 2958 02f3 E8000000 		call	_ZNSs4_Rep10_M_destroyERKSaIcE
 2958      00
 2959 02f8 E957FFFF 		jmp	.L399
 2959      FF
 2960 02fd 0F1F00   		.p2align 4,,10
 2961              		.p2align 3
 2962              	.L395:
 2963 0300 8B50F8   		movl	-8(%rax), %edx
 2964 0303 8D4AFF   		leal	-1(%rdx), %ecx
 2965 0306 8948F8   		movl	%ecx, -8(%rax)
 2966 0309 89D0     		movl	%edx, %eax
 2967 030b EBA9     		jmp	.L396
 2968 030d 0F1F00   		.p2align 4,,10
 2969              		.p2align 3
 2970              	.L400:
 2971 0310 8B50F8   		movl	-8(%rax), %edx
 2972 0313 8D4AFF   		leal	-1(%rdx), %ecx
 2973 0316 8948F8   		movl	%ecx, -8(%rax)
 2974 0319 89D0     		movl	%edx, %eax
 2975 031b EBC9     		jmp	.L401
 2976              	.L419:
 2977 031d E8000000 		call	__stack_chk_fail
 2977      00
 2978              	.L406:
 2979 0322 4889C3   		movq	%rax, %rbx
 2980 0325 EB14     		jmp	.L388
 2981              	.L407:
 2982 0327 4889C3   		movq	%rax, %rbx
 2983 032a EB05     		jmp	.L387
 2984              	.L405:
 2985 032c 4889C3   		movq	%rax, %rbx
 2986 032f EB25     		jmp	.L403
 2987              	.L387:
 2988 0331 488D7C24 		leaq	24(%rsp), %rdi
 2988      18
 2989 0336 E8000000 		call	_ZNSt15basic_stringbufIcSt11char_traitsIcESaIcEED1Ev
 2989      00
 2990              	.L388:
 2991 033b 488D7C24 		leaq	112(%rsp), %rdi
 2991      70
 2992 0340 48C74424 		movq	$_ZTVSt9basic_iosIcSt11char_traitsIcEE+16, 112(%rsp)
 2992      70000000 
 2992      00
 2993 0349 E8000000 		call	_ZNSt8ios_baseD2Ev
 2993      00
 2994 034e 4889DF   		movq	%rbx, %rdi
 2995              	.LEHB60:
 2996 0351 E8000000 		call	_Unwind_Resume
 2996      00
 2997              	.LEHE60:
 2998              	.L403:
 2999 0356 488D7C24 		leaq	16(%rsp), %rdi
 2999      10
 3000 035b E8000000 		call	_ZN8UnitTest15MemoryOutStreamD1Ev
 3000      00
 3001 0360 4889DF   		movq	%rbx, %rdi
 3002              	.LEHB61:
 3003 0363 E8000000 		call	_Unwind_Resume
 3003      00
 3004              	.LEHE61:
 3005              		.cfi_endproc
 3006              	.LFE1488:
 3007              		.section	.gcc_except_table
 3008              	.LLSDA1488:
 3009 0174 FF       		.byte	0xff
 3010 0175 FF       		.byte	0xff
 3011 0176 01       		.byte	0x1
 3012 0177 2B       		.uleb128 .LLSDACSE1488-.LLSDACSB1488
 3013              	.LLSDACSB1488:
 3014 0178 34       		.uleb128 .LEHB54-.LFB1488
 3015 0179 05       		.uleb128 .LEHE54-.LEHB54
 3016 017a 00       		.uleb128 0
 3017 017b 00       		.uleb128 0
 3018 017c D801     		.uleb128 .LEHB55-.LFB1488
 3019 017e 05       		.uleb128 .LEHE55-.LEHB55
 3020 017f A206     		.uleb128 .L406-.LFB1488
 3021 0181 00       		.uleb128 0
 3022 0182 E502     		.uleb128 .LEHB56-.LFB1488
 3023 0184 05       		.uleb128 .LEHE56-.LEHB56
 3024 0185 A706     		.uleb128 .L407-.LFB1488
 3025 0187 00       		.uleb128 0
 3026 0188 9803     		.uleb128 .LEHB57-.LFB1488
 3027 018a 63       		.uleb128 .LEHE57-.LEHB57
 3028 018b AC06     		.uleb128 .L405-.LFB1488
 3029 018d 00       		.uleb128 0
 3030 018e F504     		.uleb128 .LEHB58-.LFB1488
 3031 0190 05       		.uleb128 .LEHE58-.LEHB58
 3032 0191 00       		.uleb128 0
 3033 0192 00       		.uleb128 0
 3034 0193 9405     		.uleb128 .LEHB59-.LFB1488
 3035 0195 05       		.uleb128 .LEHE59-.LEHB59
 3036 0196 AC06     		.uleb128 .L405-.LFB1488
 3037 0198 00       		.uleb128 0
 3038 0199 D106     		.uleb128 .LEHB60-.LFB1488
 3039 019b 05       		.uleb128 .LEHE60-.LEHB60
 3040 019c 00       		.uleb128 0
 3041 019d 00       		.uleb128 0
 3042 019e E306     		.uleb128 .LEHB61-.LFB1488
 3043 01a0 05       		.uleb128 .LEHE61-.LEHB61
 3044 01a1 00       		.uleb128 0
 3045 01a2 00       		.uleb128 0
 3046              	.LLSDACSE1488:
 3047              		.section	.text._ZN8UnitTest10CheckEqualIPKcSsEEvRNS_11TestResultsERKT_RKT0_RKNS_11TestDetailsE,"ax
 3049              		.section	.text.unlikely._ZN8UnitTest10CheckEqualIPKcSsEEvRNS_11TestResultsERKT_RKT0_RKNS_11TestDet
 3050              	.LCOLDE42:
 3051              		.section	.text._ZN8UnitTest10CheckEqualIPKcSsEEvRNS_11TestResultsERKT_RKT0_RKNS_11TestDetailsE,"ax
 3052              	.LHOTE42:
 3053              		.section	.rodata.str1.1
 3054              	.LC43:
 3055 0095 6661696C 		.string	"fail.h"
 3055      2E6800
 3056              	.LC44:
 3057 009c 73756974 		.string	"suite"
 3057      6500
 3058              	.LC45:
 3059 00a2 4661696C 		.string	"FailedTest"
 3059      65645465 
 3059      737400
 3060              	.LC46:
 3061 00ad 65787065 		.string	"expected 1 but was 2"
 3061      63746564 
 3061      20312062 
 3061      75742077 
 3061      61732032 
 3062              	.LC47:
 3063 00c2 65787065 		.string	"expected one but was two"
 3063      63746564 
 3063      206F6E65 
 3063      20627574 
 3063      20776173 
 3064              		.section	.rodata.str1.8
 3065 012e 0000     		.align 8
 3066              	.LC50:
 3067 0130 3C3F786D 		.ascii	"<?xml version=\"1.0\""
 3067      6C207665 
 3067      7273696F 
 3067      6E3D2231 
 3067      2E3022
 3068 0143 3F3E3C75 		.string	"?><unittest-results tests=\"1\" failedtests=\"1\" failures=\"2\" time=\"1.1\"><test suite
 3068      6E697474 
 3068      6573742D 
 3068      72657375 
 3068      6C747320 
 3069 0244 00000000 		.align 8
 3070              	.LC51:
 3071 0248 556E6861 		.string	"Unhandled exception in CHECK_EQUAL(expected, output.str())"
 3071      6E646C65 
 3071      64206578 
 3071      63657074 
 3071      696F6E20 
 3072              		.section	.text.unlikely
 3073              	.LCOLDB52:
 3074              		.text
 3075              	.LHOTB52:
 3076 127a 660F1F44 		.p2align 4,,15
 3076      0000
 3078              	_ZN8UnitTest11ExecuteTestIN12_GLOBAL__N_144XmlTestReporterFixtureMultipleFailuresHelperEEEvRT_RKNS_
 3079              	.LFB1497:
 3080              		.cfi_startproc
 3081              		.cfi_personality 0x3,__gxx_personality_v0
 3082              		.cfi_lsda 0x3,.LLSDA1497
 3083 1280 4154     		pushq	%r12
 3084              		.cfi_def_cfa_offset 16
 3085              		.cfi_offset 12, -16
 3086 1282 55       		pushq	%rbp
 3087              		.cfi_def_cfa_offset 24
 3088              		.cfi_offset 6, -24
 3089 1283 53       		pushq	%rbx
 3090              		.cfi_def_cfa_offset 32
 3091              		.cfi_offset 3, -32
 3092 1284 4889F3   		movq	%rsi, %rbx
 3093 1287 4881ECD0 		subq	$1744, %rsp
 3093      060000
 3094              		.cfi_def_cfa_offset 1776
 3095 128e 48893C24 		movq	%rdi, (%rsp)
 3096 1292 48897424 		movq	%rsi, 8(%rsp)
 3096      08
 3097 1297 64488B04 		movq	%fs:40, %rax
 3097      25280000 
 3097      00
 3098 12a0 48898424 		movq	%rax, 1736(%rsp)
 3098      C8060000 
 3099 12a8 31C0     		xorl	%eax, %eax
 3100              	.LEHB62:
 3101 12aa E8000000 		call	_ZN8UnitTest11CurrentTest7DetailsEv
 3101      00
 3102              	.LEHE62:
 3103 12af 488DBC24 		leaq	608(%rsp), %rdi
 3103      60020000 
 3104 12b7 488918   		movq	%rbx, (%rax)
 3105              	.LEHB63:
 3106 12ba E8000000 		call	_ZN8UnitTest16SignalTranslatorC1Ev
 3106      00
 3107              	.LEHE63:
 3108 12bf 488B3D00 		movq	_ZN8UnitTest16SignalTranslator12s_jumpTargetE(%rip), %rdi
 3108      000000
 3109 12c6 BE010000 		movl	$1, %esi
 3109      00
 3110 12cb E8000000 		call	__sigsetjmp
 3110      00
 3111 12d0 85C0     		testl	%eax, %eax
 3112 12d2 0F852001 		jne	.L508
 3112      0000
 3113 12d8 488D7C24 		leaq	112(%rsp), %rdi
 3113      70
 3114 12dd 41B80100 		movl	$1, %r8d
 3114      0000
 3115 12e3 B9000000 		movl	$.LC43, %ecx
 3115      00
 3116 12e8 BA000000 		movl	$.LC44, %edx
 3116      00
 3117 12ed BE000000 		movl	$.LC45, %esi
 3117      00
 3118              	.LEHB64:
 3119 12f2 E8000000 		call	_ZN8UnitTest11TestDetailsC1EPKcS2_S2_i
 3119      00
 3120 12f7 488DBC24 		leaq	144(%rsp), %rdi
 3120      90000000 
 3121 12ff 41B81F00 		movl	$31, %r8d
 3121      0000
 3122 1305 B9000000 		movl	$.LC43, %ecx
 3122      00
 3123 130a BA000000 		movl	$.LC44, %edx
 3123      00
 3124 130f BE000000 		movl	$.LC45, %esi
 3124      00
 3125 1314 E8000000 		call	_ZN8UnitTest11TestDetailsC1EPKcS2_S2_i
 3125      00
 3126 1319 488B2C24 		movq	(%rsp), %rbp
 3127 131d 488D7424 		leaq	112(%rsp), %rsi
 3127      70
 3128 1322 488D9D60 		leaq	352(%rbp), %rbx
 3128      010000
 3129 1329 4889DF   		movq	%rbx, %rdi
 3130 132c E8000000 		call	_ZN8UnitTest20DeferredTestReporter15ReportTestStartERKNS_11TestDetailsE
 3130      00
 3131 1331 488D7424 		leaq	112(%rsp), %rsi
 3131      70
 3132 1336 BA000000 		movl	$.LC46, %edx
 3132      00
 3133 133b 4889DF   		movq	%rbx, %rdi
 3134 133e E8000000 		call	_ZN8UnitTest20DeferredTestReporter13ReportFailureERKNS_11TestDetailsEPKc
 3134      00
 3135 1343 488DB424 		leaq	144(%rsp), %rsi
 3135      90000000 
 3136 134b BA000000 		movl	$.LC47, %edx
 3136      00
 3137 1350 4889DF   		movq	%rbx, %rdi
 3138 1353 E8000000 		call	_ZN8UnitTest20DeferredTestReporter13ReportFailureERKNS_11TestDetailsEPKc
 3138      00
 3139 1358 488D7424 		leaq	112(%rsp), %rsi
 3139      70
 3140 135d F30F1005 		movss	.LC48(%rip), %xmm0
 3140      00000000 
 3141 1365 4889DF   		movq	%rbx, %rdi
 3142 1368 E8000000 		call	_ZN8UnitTest20DeferredTestReporter16ReportTestFinishERKNS_11TestDetailsEf
 3142      00
 3143 136d F30F1005 		movss	.LC49(%rip), %xmm0
 3143      00000000 
 3144 1375 B9020000 		movl	$2, %ecx
 3144      00
 3145 137a BA010000 		movl	$1, %edx
 3145      00
 3146 137f BE010000 		movl	$1, %esi
 3146      00
 3147 1384 4889DF   		movq	%rbx, %rdi
 3148 1387 E8000000 		call	_ZN8UnitTest15XmlTestReporter13ReportSummaryEiiif
 3148      00
 3149              	.LEHE64:
 3150 138c 48C74424 		movq	$.LC50, 72(%rsp)
 3150      48000000 
 3150      00
 3151              	.LEHB65:
 3152 1395 E8000000 		call	_ZN8UnitTest11CurrentTest7DetailsEv
 3152      00
 3153 139a 488B30   		movq	(%rax), %rsi
 3154 139d 488DBC24 		leaq	208(%rsp), %rdi
 3154      D0000000 
 3155 13a5 BAB40000 		movl	$180, %edx
 3155      00
 3156 13aa E8000000 		call	_ZN8UnitTest11TestDetailsC1ERKS0_i
 3156      00
 3157              	.LEHE65:
 3158 13af 488B4530 		movq	48(%rbp), %rax
 3159 13b3 48C74424 		movq	$_ZNSs4_Rep20_S_empty_rep_storageE+24, 32(%rsp)
 3159      20000000 
 3159      00
 3160 13bc 4885C0   		testq	%rax, %rax
 3161 13bf 0F843B02 		je	.L426
 3161      0000
 3162 13c5 488B7D20 		movq	32(%rbp), %rdi
 3163 13c9 4839F8   		cmpq	%rdi, %rax
 3164 13cc 7652     		jbe	.L427
 3165 13ce 488B0C24 		movq	(%rsp), %rcx
 3166 13d2 488B6928 		movq	40(%rcx), %rbp
 3167 13d6 4839E8   		cmpq	%rbp, %rax
 3168 13d9 0F84B901 		je	.L482
 3168      0000
 3169 13df 4885ED   		testq	%rbp, %rbp
 3170 13e2 0F859802 		jne	.L509
 3170      0000
 3171 13e8 BF000000 		movl	$.LC34, %edi
 3171      00
 3172              	.LEHB66:
 3173 13ed E8000000 		call	_ZSt19__throw_logic_errorPKc
 3173      00
 3174              	.LEHE66:
 3175              		.p2align 4,,10
 3176 13f2 660F1F44 		.p2align 3
 3176      0000
 3177              	.L508:
 3178 13f8 BF080000 		movl	$8, %edi
 3178      00
 3179 13fd E8000000 		call	__cxa_allocate_exception
 3179      00
 3180 1402 31D2     		xorl	%edx, %edx
 3181 1404 48C70000 		movq	$.LC24, (%rax)
 3181      000000
 3182 140b BE000000 		movl	$_ZTIPKc, %esi
 3182      00
 3183 1410 4889C7   		movq	%rax, %rdi
 3184              	.LEHB67:
 3185 1413 E8000000 		call	__cxa_throw
 3185      00
 3186              	.LEHE67:
 3187 1418 0F1F8400 		.p2align 4,,10
 3187      00000000 
 3188              		.p2align 3
 3189              	.L427:
 3190 1420 488B0424 		movq	(%rsp), %rax
 3191 1424 488B6828 		movq	40(%rax), %rbp
 3192 1428 4839EF   		cmpq	%rbp, %rdi
 3193 142b 0F84E700 		je	.L483
 3193      0000
 3194 1431 4885ED   		testq	%rbp, %rbp
 3195 1434 0F859602 		jne	.L441
 3195      0000
 3196 143a 4885FF   		testq	%rdi, %rdi
 3197 143d 0F848D02 		je	.L441
 3197      0000
 3198 1443 BF000000 		movl	$.LC34, %edi
 3198      00
 3199              	.LEHB68:
 3200 1448 E8000000 		call	_ZSt19__throw_logic_errorPKc
 3200      00
 3201              	.LEHE68:
 3202              	.L485:
 3203 144d 4889C3   		movq	%rax, %rbx
 3204 1450 4889D5   		movq	%rdx, %rbp
 3205              	.L468:
 3206 1453 488DBC24 		leaq	608(%rsp), %rdi
 3206      60020000 
 3207 145b E8000000 		call	_ZN8UnitTest16SignalTranslatorD1Ev
 3207      00
 3208 1460 4889DF   		movq	%rbx, %rdi
 3209 1463 4889EA   		movq	%rbp, %rdx
 3210              	.L469:
 3211 1466 4883FA01 		cmpq	$1, %rdx
 3212 146a 0F845404 		je	.L471
 3212      0000
 3213 1470 4883FA02 		cmpq	$2, %rdx
 3214 1474 0F852404 		jne	.L510
 3214      0000
 3215 147a E8000000 		call	__cxa_begin_catch
 3215      00
 3216 147f 488DBC24 		leaq	240(%rsp), %rdi
 3216      F0000000 
 3217 1487 4889C3   		movq	%rax, %rbx
 3218              	.LEHB69:
 3219 148a E8000000 		call	_ZN8UnitTest15MemoryOutStreamC1Ev
 3219      00
 3220              	.LEHE69:
 3221 148f 488B03   		movq	(%rbx), %rax
 3222 1492 4889DF   		movq	%rbx, %rdi
 3223 1495 FF5010   		call	*16(%rax)
 3224 1498 488DBC24 		leaq	240(%rsp), %rdi
 3224      F0000000 
 3225 14a0 BE000000 		movl	$.LC32, %esi
 3225      00
 3226 14a5 4889C3   		movq	%rax, %rbx
 3227              	.LEHB70:
 3228 14a8 E8000000 		call	_ZStlsISt11char_traitsIcEERSt13basic_ostreamIcT_ES5_PKc
 3228      00
 3229 14ad 4889C7   		movq	%rax, %rdi
 3230 14b0 4889DE   		movq	%rbx, %rsi
 3231 14b3 E8000000 		call	_ZStlsISt11char_traitsIcEERSt13basic_ostreamIcT_ES5_PKc
 3231      00
 3232 14b8 488DBC24 		leaq	240(%rsp), %rdi
 3232      F0000000 
 3233 14c0 E8000000 		call	_ZNK8UnitTest15MemoryOutStream7GetTextEv
 3233      00
 3234 14c5 4889C3   		movq	%rax, %rbx
 3235 14c8 E8000000 		call	_ZN8UnitTest11CurrentTest7ResultsEv
 3235      00
 3236 14cd 488B7424 		movq	8(%rsp), %rsi
 3236      08
 3237 14d2 488B38   		movq	(%rax), %rdi
 3238 14d5 4889DA   		movq	%rbx, %rdx
 3239 14d8 E8000000 		call	_ZN8UnitTest11TestResults13OnTestFailureERKNS_11TestDetailsEPKc
 3239      00
 3240              	.LEHE70:
 3241 14dd 488DBC24 		leaq	240(%rsp), %rdi
 3241      F0000000 
 3242              	.LEHB71:
 3243 14e5 E8000000 		call	_ZN8UnitTest15MemoryOutStreamD1Ev
 3243      00
 3244              	.LEHE71:
 3245              	.L502:
 3246 14ea E8000000 		call	__cxa_end_catch
 3246      00
 3247 14ef 90       		.p2align 4,,10
 3248              		.p2align 3
 3249              	.L423:
 3250 14f0 488B8424 		movq	1736(%rsp), %rax
 3250      C8060000 
 3251 14f8 64483304 		xorq	%fs:40, %rax
 3251      25280000 
 3251      00
 3252 1501 0F85DB02 		jne	.L511
 3252      0000
 3253 1507 4881C4D0 		addq	$1744, %rsp
 3253      060000
 3254              		.cfi_remember_state
 3255              		.cfi_def_cfa_offset 32
 3256 150e 5B       		popq	%rbx
 3257              		.cfi_def_cfa_offset 24
 3258 150f 5D       		popq	%rbp
 3259              		.cfi_def_cfa_offset 16
 3260 1510 415C     		popq	%r12
 3261              		.cfi_def_cfa_offset 8
 3262 1512 C3       		ret
 3263              		.p2align 4,,10
 3264 1513 0F1F4400 		.p2align 3
 3264      00
 3265              	.L483:
 3266              		.cfi_restore_state
 3267 1518 B9000000 		movl	$_ZNSs4_Rep20_S_empty_rep_storageE+24, %ecx
 3267      00
 3268 151d 0F1F00   		.p2align 4,,10
 3269              		.p2align 3
 3270              	.L438:
 3271 1520 488D7424 		leaq	48(%rsp), %rsi
 3271      30
 3272 1525 488D7C24 		leaq	32(%rsp), %rdi
 3272      20
 3273 152a 48894C24 		movq	%rcx, 48(%rsp)
 3273      30
 3274              	.LEHB72:
 3275 152f E8000000 		call	_ZNSs6assignERKSs
 3275      00
 3276              	.LEHE72:
 3277 1534 488B4424 		movq	48(%rsp), %rax
 3277      30
 3278 1539 488D78E8 		leaq	-24(%rax), %rdi
 3279 153d 4881FF00 		cmpq	$_ZNSs4_Rep20_S_empty_rep_storageE, %rdi
 3279      000000
 3280 1544 0F853E02 		jne	.L512
 3280      0000
 3281              	.L434:
 3282              	.LEHB73:
 3283 154a E8000000 		call	_ZN8UnitTest11CurrentTest7ResultsEv
 3283      00
 3284 154f 488B38   		movq	(%rax), %rdi
 3285 1552 488D8C24 		leaq	208(%rsp), %rcx
 3285      D0000000 
 3286 155a 488D5424 		leaq	32(%rsp), %rdx
 3286      20
 3287 155f 488D7424 		leaq	72(%rsp), %rsi
 3287      48
 3288 1564 E8000000 		call	_ZN8UnitTest10CheckEqualIPKcSsEEvRNS_11TestResultsERKT_RKT0_RKNS_11TestDetailsE
 3288      00
 3289              	.LEHE73:
 3290 1569 488B4424 		movq	32(%rsp), %rax
 3290      20
 3291 156e 488D78E8 		leaq	-24(%rax), %rdi
 3292 1572 4881FF00 		cmpq	$_ZNSs4_Rep20_S_empty_rep_storageE, %rdi
 3292      000000
 3293 1579 0F85D901 		jne	.L513
 3293      0000
 3294              	.L459:
 3295 157f 488DBC24 		leaq	608(%rsp), %rdi
 3295      60020000 
 3296              	.LEHB74:
 3297 1587 E8000000 		call	_ZN8UnitTest16SignalTranslatorD1Ev
 3297      00
 3298              	.LEHE74:
 3299 158c E95FFFFF 		jmp	.L423
 3299      FF
 3300              		.p2align 4,,10
 3301 1591 0F1F8000 		.p2align 3
 3301      000000
 3302              	.L482:
 3303 1598 B9000000 		movl	$_ZNSs4_Rep20_S_empty_rep_storageE+24, %ecx
 3303      00
 3304 159d 0F1F00   		.p2align 4,,10
 3305              		.p2align 3
 3306              	.L428:
 3307 15a0 488D7424 		leaq	64(%rsp), %rsi
 3307      40
 3308 15a5 488D7C24 		leaq	32(%rsp), %rdi
 3308      20
 3309 15aa 48894C24 		movq	%rcx, 64(%rsp)
 3309      40
 3310              	.LEHB75:
 3311 15af E8000000 		call	_ZNSs6assignERKSs
 3311      00
 3312              	.LEHE75:
 3313 15b4 488B4424 		movq	64(%rsp), %rax
 3313      40
 3314 15b9 488D78E8 		leaq	-24(%rax), %rdi
 3315 15bd 4881FF00 		cmpq	$_ZNSs4_Rep20_S_empty_rep_storageE, %rdi
 3315      000000
 3316 15c4 7484     		je	.L434
 3317 15c6 BA000000 		movl	$_ZL28__gthrw___pthread_key_createPjPFvPvE, %edx
 3317      00
 3318 15cb 4885D2   		testq	%rdx, %rdx
 3319 15ce 0F84F101 		je	.L435
 3319      0000
 3320 15d4 BAFFFFFF 		movl	$-1, %edx
 3320      FF
 3321 15d9 F00FC150 		lock xaddl	%edx, -8(%rax)
 3321      F8
 3322 15de 89D0     		movl	%edx, %eax
 3323              	.L436:
 3324 15e0 85C0     		testl	%eax, %eax
 3325 15e2 0F8F62FF 		jg	.L434
 3325      FFFF
 3326 15e8 488D7424 		leaq	29(%rsp), %rsi
 3326      1D
 3327 15ed E8000000 		call	_ZNSs4_Rep10_M_destroyERKSaIcE
 3327      00
 3328 15f2 E953FFFF 		jmp	.L434
 3328      FF
 3329 15f7 660F1F84 		.p2align 4,,10
 3329      00000000 
 3329      00
 3330              		.p2align 3
 3331              	.L426:
 3332 1600 488B3424 		movq	(%rsp), %rsi
 3333 1604 488D7C24 		leaq	32(%rsp), %rdi
 3333      20
 3334 1609 4883C650 		addq	$80, %rsi
 3335              	.LEHB76:
 3336 160d E8000000 		call	_ZNSs6assignERKSs
 3336      00
 3337              	.LEHE76:
 3338 1612 E933FFFF 		jmp	.L434
 3338      FF
 3339              	.L493:
 3340 1617 4889C3   		movq	%rax, %rbx
 3341              	.L450:
 3342 161a 488B4424 		movq	32(%rsp), %rax
 3342      20
 3343 161f 488D78E8 		leaq	-24(%rax), %rdi
 3344 1623 4881FF00 		cmpq	$_ZNSs4_Rep20_S_empty_rep_storageE, %rdi
 3344      000000
 3345 162a 740A     		je	.L466
 3346 162c 488D7424 		leaq	25(%rsp), %rsi
 3346      19
 3347 1631 E8000000 		call	_ZNSs4_Rep10_M_disposeERKSaIcE.part.5
 3347      00
 3348              	.L466:
 3349 1636 4889D8   		movq	%rbx, %rax
 3350              	.L456:
 3351 1639 4889C7   		movq	%rax, %rdi
 3352 163c E8000000 		call	__cxa_begin_catch
 3352      00
 3353              	.LEHB77:
 3354 1641 E8000000 		call	_ZN8UnitTest11CurrentTest7DetailsEv
 3354      00
 3355 1646 488B30   		movq	(%rax), %rsi
 3356 1649 488DBC24 		leaq	176(%rsp), %rdi
 3356      B0000000 
 3357 1651 BAB40000 		movl	$180, %edx
 3357      00
 3358 1656 E8000000 		call	_ZN8UnitTest11TestDetailsC1ERKS0_i
 3358      00
 3359 165b E8000000 		call	_ZN8UnitTest11CurrentTest7ResultsEv
 3359      00
 3360 1660 488B38   		movq	(%rax), %rdi
 3361 1663 488DB424 		leaq	176(%rsp), %rsi
 3361      B0000000 
 3362 166b BA000000 		movl	$.LC51, %edx
 3362      00
 3363 1670 E8000000 		call	_ZN8UnitTest11TestResults13OnTestFailureERKNS_11TestDetailsEPKc
 3363      00
 3364              	.LEHE77:
 3365              	.LEHB78:
 3366 1675 E8000000 		call	__cxa_end_catch
 3366      00
 3367              	.LEHE78:
 3368 167a E900FFFF 		jmp	.L459
 3368      FF
 3369 167f 90       		.p2align 4,,10
 3370              		.p2align 3
 3371              	.L509:
 3372 1680 4829E8   		subq	%rbp, %rax
 3373 1683 488D5424 		leaq	31(%rsp), %rdx
 3373      1F
 3374 1688 31F6     		xorl	%esi, %esi
 3375 168a 4889C7   		movq	%rax, %rdi
 3376 168d 4889C3   		movq	%rax, %rbx
 3377              	.LEHB79:
 3378 1690 E8000000 		call	_ZNSs4_Rep9_S_createEmmRKSaIcE
 3378      00
 3379 1695 4883FB01 		cmpq	$1, %rbx
 3380 1699 4989C4   		movq	%rax, %r12
 3381 169c 488D4818 		leaq	24(%rax), %rcx
 3382 16a0 757E     		jne	.L431
 3383 16a2 0FB64500 		movzbl	0(%rbp), %eax
 3384 16a6 41884424 		movb	%al, 24(%r12)
 3384      18
 3385              	.L432:
 3386 16ab 4981FC00 		cmpq	$_ZNSs4_Rep20_S_empty_rep_storageE, %r12
 3386      000000
 3387 16b2 0F84E8FE 		je	.L428
 3387      FFFF
 3388 16b8 41C74424 		movl	$0, 16(%r12)
 3388      10000000 
 3388      00
 3389 16c1 49891C24 		movq	%rbx, (%r12)
 3390 16c5 41C6441C 		movb	$0, 24(%r12,%rbx)
 3390      1800
 3391 16cb E9D0FEFF 		jmp	.L428
 3391      FF
 3392              	.L441:
 3393 16d0 4889FB   		movq	%rdi, %rbx
 3394 16d3 488D5424 		leaq	30(%rsp), %rdx
 3394      1E
 3395 16d8 31F6     		xorl	%esi, %esi
 3396 16da 4829EB   		subq	%rbp, %rbx
 3397 16dd 4889DF   		movq	%rbx, %rdi
 3398 16e0 E8000000 		call	_ZNSs4_Rep9_S_createEmmRKSaIcE
 3398      00
 3399              	.LEHE79:
 3400 16e5 4883FB01 		cmpq	$1, %rbx
 3401 16e9 4989C4   		movq	%rax, %r12
 3402 16ec 488D4818 		leaq	24(%rax), %rcx
 3403 16f0 754E     		jne	.L442
 3404 16f2 0FB64500 		movzbl	0(%rbp), %eax
 3405 16f6 41884424 		movb	%al, 24(%r12)
 3405      18
 3406              	.L443:
 3407 16fb 4981FC00 		cmpq	$_ZNSs4_Rep20_S_empty_rep_storageE, %r12
 3407      000000
 3408 1702 0F8418FE 		je	.L438
 3408      FFFF
 3409 1708 41C74424 		movl	$0, 16(%r12)
 3409      10000000 
 3409      00
 3410 1711 49891C24 		movq	%rbx, (%r12)
 3411 1715 41C6441C 		movb	$0, 24(%r12,%rbx)
 3411      1800
 3412 171b E900FEFF 		jmp	.L438
 3412      FF
 3413              		.p2align 4,,10
 3414              		.p2align 3
 3415              	.L431:
 3416 1720 4889CF   		movq	%rcx, %rdi
 3417 1723 4889DA   		movq	%rbx, %rdx
 3418 1726 4889EE   		movq	%rbp, %rsi
 3419 1729 E8000000 		call	memcpy
 3419      00
 3420 172e 4889C1   		movq	%rax, %rcx
 3421 1731 E975FFFF 		jmp	.L432
 3421      FF
 3422 1736 662E0F1F 		.p2align 4,,10
 3422      84000000 
 3422      0000
 3423              		.p2align 3
 3424              	.L442:
 3425 1740 4889CF   		movq	%rcx, %rdi
 3426 1743 4889DA   		movq	%rbx, %rdx
 3427 1746 4889EE   		movq	%rbp, %rsi
 3428 1749 E8000000 		call	memcpy
 3428      00
 3429 174e 4889C1   		movq	%rax, %rcx
 3430 1751 EBA8     		jmp	.L443
 3431              		.p2align 4,,10
 3432 1753 0F1F4400 		.p2align 3
 3432      00
 3433              	.L513:
 3434 1758 BA000000 		movl	$_ZL28__gthrw___pthread_key_createPjPFvPvE, %edx
 3434      00
 3435 175d 4885D2   		testq	%rdx, %rdx
 3436 1760 7456     		je	.L460
 3437 1762 BAFFFFFF 		movl	$-1, %edx
 3437      FF
 3438 1767 F00FC150 		lock xaddl	%edx, -8(%rax)
 3438      F8
 3439 176c 89D0     		movl	%edx, %eax
 3440              	.L461:
 3441 176e 85C0     		testl	%eax, %eax
 3442 1770 0F8F09FE 		jg	.L459
 3442      FFFF
 3443 1776 488D7424 		leaq	24(%rsp), %rsi
 3443      18
 3444 177b E8000000 		call	_ZNSs4_Rep10_M_destroyERKSaIcE
 3444      00
 3445 1780 E9FAFDFF 		jmp	.L459
 3445      FF
 3446              		.p2align 4,,10
 3447 1785 0F1F00   		.p2align 3
 3448              	.L512:
 3449 1788 BA000000 		movl	$_ZL28__gthrw___pthread_key_createPjPFvPvE, %edx
 3449      00
 3450 178d 4885D2   		testq	%rdx, %rdx
 3451 1790 7443     		je	.L445
 3452 1792 BAFFFFFF 		movl	$-1, %edx
 3452      FF
 3453 1797 F00FC150 		lock xaddl	%edx, -8(%rax)
 3453      F8
 3454 179c 89D0     		movl	%edx, %eax
 3455              	.L446:
 3456 179e 85C0     		testl	%eax, %eax
 3457 17a0 0F8FA4FD 		jg	.L434
 3457      FFFF
 3458 17a6 488D7424 		leaq	28(%rsp), %rsi
 3458      1C
 3459 17ab E8000000 		call	_ZNSs4_Rep10_M_destroyERKSaIcE
 3459      00
 3460 17b0 E995FDFF 		jmp	.L434
 3460      FF
 3461              		.p2align 4,,10
 3462 17b5 0F1F00   		.p2align 3
 3463              	.L460:
 3464 17b8 8B50F8   		movl	-8(%rax), %edx
 3465 17bb 8D4AFF   		leal	-1(%rdx), %ecx
 3466 17be 8948F8   		movl	%ecx, -8(%rax)
 3467 17c1 89D0     		movl	%edx, %eax
 3468 17c3 EBA9     		jmp	.L461
 3469              	.L435:
 3470 17c5 8B50F8   		movl	-8(%rax), %edx
 3471 17c8 8D4AFF   		leal	-1(%rdx), %ecx
 3472 17cb 8948F8   		movl	%ecx, -8(%rax)
 3473 17ce 89D0     		movl	%edx, %eax
 3474 17d0 E90BFEFF 		jmp	.L436
 3474      FF
 3475              	.L445:
 3476 17d5 8B50F8   		movl	-8(%rax), %edx
 3477 17d8 8D4AFF   		leal	-1(%rdx), %ecx
 3478 17db 8948F8   		movl	%ecx, -8(%rax)
 3479 17de 89D0     		movl	%edx, %eax
 3480 17e0 EBBC     		jmp	.L446
 3481              	.L511:
 3482 17e2 E8000000 		call	__stack_chk_fail
 3482      00
 3483              	.L490:
 3484 17e7 4889C3   		movq	%rax, %rbx
 3485 17ea 4889D5   		movq	%rdx, %rbp
 3486 17ed E8000000 		call	__cxa_end_catch
 3486      00
 3487 17f2 E95CFCFF 		jmp	.L468
 3487      FF
 3488              	.L484:
 3489 17f7 4889C7   		movq	%rax, %rdi
 3490 17fa E967FCFF 		jmp	.L469
 3490      FF
 3491              	.L494:
 3492 17ff 4889C3   		movq	%rax, %rbx
 3493 1802 488B4424 		movq	48(%rsp), %rax
 3493      30
 3494 1807 488D78E8 		leaq	-24(%rax), %rdi
 3495 180b 4881FF00 		cmpq	$_ZNSs4_Rep20_S_empty_rep_storageE, %rdi
 3495      000000
 3496 1812 0F8402FE 		je	.L450
 3496      FFFF
 3497 1818 488D7424 		leaq	26(%rsp), %rsi
 3497      1A
 3498 181d E8000000 		call	_ZNSs4_Rep10_M_disposeERKSaIcE.part.5
 3498      00
 3499 1822 E9F3FDFF 		jmp	.L450
 3499      FF
 3500              	.L491:
 3501 1827 E90DFEFF 		jmp	.L456
 3501      FF
 3502              	.L492:
 3503 182c 4889C3   		movq	%rax, %rbx
 3504 182f 488B4424 		movq	32(%rsp), %rax
 3504      20
 3505 1834 488D78E8 		leaq	-24(%rax), %rdi
 3506 1838 4881FF00 		cmpq	$_ZNSs4_Rep20_S_empty_rep_storageE, %rdi
 3506      000000
 3507 183f 0F84F1FD 		je	.L466
 3507      FFFF
 3508 1845 488D7424 		leaq	23(%rsp), %rsi
 3508      17
 3509 184a E8000000 		call	_ZNSs4_Rep10_M_disposeERKSaIcE.part.5
 3509      00
 3510 184f E9E2FDFF 		jmp	.L466
 3510      FF
 3511              	.L495:
 3512 1854 4889C3   		movq	%rax, %rbx
 3513 1857 488B4424 		movq	64(%rsp), %rax
 3513      40
 3514 185c 488D78E8 		leaq	-24(%rax), %rdi
 3515 1860 4881FF00 		cmpq	$_ZNSs4_Rep20_S_empty_rep_storageE, %rdi
 3515      000000
 3516 1867 0F84ADFD 		je	.L450
 3516      FFFF
 3517 186d 488D7424 		leaq	27(%rsp), %rsi
 3517      1B
 3518 1872 E8000000 		call	_ZNSs4_Rep10_M_disposeERKSaIcE.part.5
 3518      00
 3519 1877 E99EFDFF 		jmp	.L450
 3519      FF
 3520              	.L488:
 3521 187c 488DBC24 		leaq	240(%rsp), %rdi
 3521      F0000000 
 3522 1884 4889C3   		movq	%rax, %rbx
 3523 1887 E8000000 		call	_ZN8UnitTest15MemoryOutStreamD1Ev
 3523      00
 3524              	.L475:
 3525 188c E8000000 		call	__cxa_end_catch
 3525      00
 3526 1891 4889DF   		movq	%rbx, %rdi
 3527              	.LEHB80:
 3528 1894 E8000000 		call	_Unwind_Resume
 3528      00
 3529              	.LEHE80:
 3530              	.L487:
 3531              	.L503:
 3532 1899 4889C3   		movq	%rax, %rbx
 3533 189c EBEE     		jmp	.L475
 3534              	.L510:
 3535 189e E8000000 		call	__cxa_begin_catch
 3535      00
 3536              	.LEHB81:
 3537 18a3 E8000000 		call	_ZN8UnitTest11CurrentTest7ResultsEv
 3537      00
 3538 18a8 488B7424 		movq	8(%rsp), %rsi
 3538      08
 3539 18ad 488B38   		movq	(%rax), %rdi
 3540 18b0 BA000000 		movl	$.LC33, %edx
 3540      00
 3541 18b5 E8000000 		call	_ZN8UnitTest11TestResults13OnTestFailureERKNS_11TestDetailsEPKc
 3541      00
 3542              	.LEHE81:
 3543              	.LEHB82:
 3544 18ba E8000000 		call	__cxa_end_catch
 3544      00
 3545              	.LEHE82:
 3546 18bf E92CFCFF 		jmp	.L423
 3546      FF
 3547              	.L471:
 3548 18c4 E8000000 		call	__cxa_begin_catch
 3548      00
 3549 18c9 4889C3   		movq	%rax, %rbx
 3550 18cc 488B00   		movq	(%rax), %rax
 3551 18cf 4889DF   		movq	%rbx, %rdi
 3552 18d2 FF5010   		call	*16(%rax)
 3553 18d5 4889DF   		movq	%rbx, %rdi
 3554 18d8 4889C5   		movq	%rax, %rbp
 3555              	.LEHB83:
 3556 18db E8000000 		call	_ZNK8UnitTest15AssertException10LineNumberEv
 3556      00
 3557 18e0 4889DF   		movq	%rbx, %rdi
 3558 18e3 4189C4   		movl	%eax, %r12d
 3559 18e6 E8000000 		call	_ZNK8UnitTest15AssertException8FilenameEv
 3559      00
 3560 18eb 4889C1   		movq	%rax, %rcx
 3561 18ee 488B4424 		movq	8(%rsp), %rax
 3561      08
 3562 18f3 488D7C24 		leaq	80(%rsp), %rdi
 3562      50
 3563 18f8 4589E0   		movl	%r12d, %r8d
 3564 18fb 488B7008 		movq	8(%rax), %rsi
 3565 18ff 488B10   		movq	(%rax), %rdx
 3566 1902 E8000000 		call	_ZN8UnitTest11TestDetailsC1EPKcS2_S2_i
 3566      00
 3567 1907 E8000000 		call	_ZN8UnitTest11CurrentTest7ResultsEv
 3567      00
 3568 190c 488B38   		movq	(%rax), %rdi
 3569 190f 488D7424 		leaq	80(%rsp), %rsi
 3569      50
 3570 1914 4889EA   		movq	%rbp, %rdx
 3571 1917 E8000000 		call	_ZN8UnitTest11TestResults13OnTestFailureERKNS_11TestDetailsEPKc
 3571      00
 3572              	.LEHE83:
 3573 191c E9C9FBFF 		jmp	.L502
 3573      FF
 3574              	.L489:
 3575 1921 4889C3   		movq	%rax, %rbx
 3576 1924 E8000000 		call	__cxa_end_catch
 3576      00
 3577 1929 4889DF   		movq	%rbx, %rdi
 3578              	.LEHB84:
 3579 192c E8000000 		call	_Unwind_Resume
 3579      00
 3580              	.LEHE84:
 3581              	.L486:
 3582 1931 E963FFFF 		jmp	.L503
 3582      FF
 3583              		.cfi_endproc
 3584              	.LFE1497:
 3585              		.section	.gcc_except_table
 3586 01a3 00       		.align 4
 3587              	.LLSDA1497:
 3588 01a4 FF       		.byte	0xff
 3589 01a5 03       		.byte	0x3
 3590 01a6 9C01     		.uleb128 .LLSDATT1497-.LLSDATTD1497
 3591              	.LLSDATTD1497:
 3592 01a8 01       		.byte	0x1
 3593 01a9 8401     		.uleb128 .LLSDACSE1497-.LLSDACSB1497
 3594              	.LLSDACSB1497:
 3595 01ab 2A       		.uleb128 .LEHB62-.LFB1497
 3596 01ac 05       		.uleb128 .LEHE62-.LEHB62
 3597 01ad 00       		.uleb128 0
 3598 01ae 00       		.uleb128 0
 3599 01af 3A       		.uleb128 .LEHB63-.LFB1497
 3600 01b0 05       		.uleb128 .LEHE63-.LEHB63
 3601 01b1 F70A     		.uleb128 .L484-.LFB1497
 3602 01b3 05       		.uleb128 0x5
 3603 01b4 72       		.uleb128 .LEHB64-.LFB1497
 3604 01b5 9A01     		.uleb128 .LEHE64-.LEHB64
 3605 01b7 CD03     		.uleb128 .L485-.LFB1497
 3606 01b9 07       		.uleb128 0x7
 3607 01ba 9502     		.uleb128 .LEHB65-.LFB1497
 3608 01bc 1A       		.uleb128 .LEHE65-.LEHB65
 3609 01bd A70B     		.uleb128 .L491-.LFB1497
 3610 01bf 01       		.uleb128 0x1
 3611 01c0 ED02     		.uleb128 .LEHB66-.LFB1497
 3612 01c2 05       		.uleb128 .LEHE66-.LEHB66
 3613 01c3 9707     		.uleb128 .L493-.LFB1497
 3614 01c5 01       		.uleb128 0x1
 3615 01c6 9303     		.uleb128 .LEHB67-.LFB1497
 3616 01c8 05       		.uleb128 .LEHE67-.LEHB67
 3617 01c9 CD03     		.uleb128 .L485-.LFB1497
 3618 01cb 07       		.uleb128 0x7
 3619 01cc C803     		.uleb128 .LEHB68-.LFB1497
 3620 01ce 05       		.uleb128 .LEHE68-.LEHB68
 3621 01cf 9707     		.uleb128 .L493-.LFB1497
 3622 01d1 01       		.uleb128 0x1
 3623 01d2 8A04     		.uleb128 .LEHB69-.LFB1497
 3624 01d4 05       		.uleb128 .LEHE69-.LEHB69
 3625 01d5 990C     		.uleb128 .L487-.LFB1497
 3626 01d7 00       		.uleb128 0
 3627 01d8 A804     		.uleb128 .LEHB70-.LFB1497
 3628 01da 35       		.uleb128 .LEHE70-.LEHB70
 3629 01db FC0B     		.uleb128 .L488-.LFB1497
 3630 01dd 00       		.uleb128 0
 3631 01de E504     		.uleb128 .LEHB71-.LFB1497
 3632 01e0 05       		.uleb128 .LEHE71-.LEHB71
 3633 01e1 990C     		.uleb128 .L487-.LFB1497
 3634 01e3 00       		.uleb128 0
 3635 01e4 AF05     		.uleb128 .LEHB72-.LFB1497
 3636 01e6 05       		.uleb128 .LEHE72-.LEHB72
 3637 01e7 FF0A     		.uleb128 .L494-.LFB1497
 3638 01e9 01       		.uleb128 0x1
 3639 01ea CA05     		.uleb128 .LEHB73-.LFB1497
 3640 01ec 1F       		.uleb128 .LEHE73-.LEHB73
 3641 01ed AC0B     		.uleb128 .L492-.LFB1497
 3642 01ef 01       		.uleb128 0x1
 3643 01f0 8706     		.uleb128 .LEHB74-.LFB1497
 3644 01f2 05       		.uleb128 .LEHE74-.LEHB74
 3645 01f3 F70A     		.uleb128 .L484-.LFB1497
 3646 01f5 05       		.uleb128 0x5
 3647 01f6 AF06     		.uleb128 .LEHB75-.LFB1497
 3648 01f8 05       		.uleb128 .LEHE75-.LEHB75
 3649 01f9 D40B     		.uleb128 .L495-.LFB1497
 3650 01fb 01       		.uleb128 0x1
 3651 01fc 8D07     		.uleb128 .LEHB76-.LFB1497
 3652 01fe 05       		.uleb128 .LEHE76-.LEHB76
 3653 01ff 9707     		.uleb128 .L493-.LFB1497
 3654 0201 01       		.uleb128 0x1
 3655 0202 C107     		.uleb128 .LEHB77-.LFB1497
 3656 0204 34       		.uleb128 .LEHE77-.LEHB77
 3657 0205 E70A     		.uleb128 .L490-.LFB1497
 3658 0207 07       		.uleb128 0x7
 3659 0208 F507     		.uleb128 .LEHB78-.LFB1497
 3660 020a 05       		.uleb128 .LEHE78-.LEHB78
 3661 020b CD03     		.uleb128 .L485-.LFB1497
 3662 020d 07       		.uleb128 0x7
 3663 020e 9008     		.uleb128 .LEHB79-.LFB1497
 3664 0210 55       		.uleb128 .LEHE79-.LEHB79
 3665 0211 9707     		.uleb128 .L493-.LFB1497
 3666 0213 01       		.uleb128 0x1
 3667 0214 940C     		.uleb128 .LEHB80-.LFB1497
 3668 0216 05       		.uleb128 .LEHE80-.LEHB80
 3669 0217 00       		.uleb128 0
 3670 0218 00       		.uleb128 0
 3671 0219 A30C     		.uleb128 .LEHB81-.LFB1497
 3672 021b 17       		.uleb128 .LEHE81-.LEHB81
 3673 021c A10D     		.uleb128 .L489-.LFB1497
 3674 021e 00       		.uleb128 0
 3675 021f BA0C     		.uleb128 .LEHB82-.LFB1497
 3676 0221 05       		.uleb128 .LEHE82-.LEHB82
 3677 0222 00       		.uleb128 0
 3678 0223 00       		.uleb128 0
 3679 0224 DB0C     		.uleb128 .LEHB83-.LFB1497
 3680 0226 41       		.uleb128 .LEHE83-.LEHB83
 3681 0227 B10D     		.uleb128 .L486-.LFB1497
 3682 0229 00       		.uleb128 0
 3683 022a AC0D     		.uleb128 .LEHB84-.LFB1497
 3684 022c 05       		.uleb128 .LEHE84-.LEHB84
 3685 022d 00       		.uleb128 0
 3686 022e 00       		.uleb128 0
 3687              	.LLSDACSE1497:
 3688 022f 03       		.byte	0x3
 3689 0230 00       		.byte	0
 3690 0231 02       		.byte	0x2
 3691 0232 7D       		.byte	0x7d
 3692 0233 01       		.byte	0x1
 3693 0234 7D       		.byte	0x7d
 3694 0235 00       		.byte	0
 3695 0236 7D       		.byte	0x7d
 3696 0237 00       		.align 4
 3697 0238 00000000 		.long	0
 3698              	
 3699 023c 00000000 		.long	_ZTISt9exception
 3700 0240 00000000 		.long	_ZTIN8UnitTest15AssertExceptionE
 3701              	.LLSDATT1497:
 3702              		.text
 3704              		.section	.text.unlikely
 3705              	.LCOLDE52:
 3706              		.text
 3707              	.LHOTE52:
 3708              		.section	.text.unlikely
 3709              		.align 2
 3710              	.LCOLDB53:
 3711              		.text
 3712              	.LHOTB53:
 3713              		.align 2
 3714 1936 662E0F1F 		.p2align 4,,15
 3714      84000000 
 3714      0000
 3716              	_ZNK12_GLOBAL__N_142TestXmlTestReporterFixtureMultipleFailures7RunImplEv:
 3717              	.LFB1452:
 3718              		.cfi_startproc
 3719              		.cfi_personality 0x3,__gxx_personality_v0
 3720              		.cfi_lsda 0x3,.LLSDA1452
 3721 1940 4157     		pushq	%r15
 3722              		.cfi_def_cfa_offset 16
 3723              		.cfi_offset 15, -16
 3724 1942 4156     		pushq	%r14
 3725              		.cfi_def_cfa_offset 24
 3726              		.cfi_offset 14, -24
 3727 1944 4155     		pushq	%r13
 3728              		.cfi_def_cfa_offset 32
 3729              		.cfi_offset 13, -32
 3730 1946 4154     		pushq	%r12
 3731              		.cfi_def_cfa_offset 40
 3732              		.cfi_offset 12, -40
 3733 1948 4C8D6F08 		leaq	8(%rdi), %r13
 3734 194c 55       		pushq	%rbp
 3735              		.cfi_def_cfa_offset 48
 3736              		.cfi_offset 6, -48
 3737 194d 53       		pushq	%rbx
 3738              		.cfi_def_cfa_offset 56
 3739              		.cfi_offset 3, -56
 3740 194e 4881ECD8 		subq	$472, %rsp
 3740      010000
 3741              		.cfi_def_cfa_offset 528
 3742 1955 48897C24 		movq	%rdi, 8(%rsp)
 3742      08
 3743 195a 488DBC24 		leaq	136(%rsp), %rdi
 3743      88000000 
 3744 1962 64488B0C 		movq	%fs:40, %rcx
 3744      25280000 
 3744      00
 3745 196b 48898C24 		movq	%rcx, 456(%rsp)
 3745      C8010000 
 3746 1973 31C9     		xorl	%ecx, %ecx
 3747 1975 E8000000 		call	_ZNSt8ios_baseC2Ev
 3747      00
 3748 197a 4C8B2500 		movq	_ZTTSt19basic_ostringstreamIcSt11char_traitsIcESaIcEE+8(%rip), %r12
 3748      000000
 3749 1981 C6842468 		movb	$0, 360(%rsp)
 3749      01000000 
 3750 1989 488D7C24 		leaq	48(%rsp), %rdi
 3750      30
 3751 198e 488B0500 		movq	_ZTTSt19basic_ostringstreamIcSt11char_traitsIcESaIcEE+16(%rip), %rax
 3751      000000
 3752 1995 48C78424 		movq	$_ZTVSt9basic_iosIcSt11char_traitsIcEE+16, 136(%rsp)
 3752      88000000 
 3752      00000000 
 3753 19a1 31F6     		xorl	%esi, %esi
 3754 19a3 48C78424 		movq	$0, 352(%rsp)
 3754      60010000 
 3754      00000000 
 3755 19af C6842469 		movb	$0, 361(%rsp)
 3755      01000000 
 3756 19b7 49037C24 		addq	-24(%r12), %rdi
 3756      E8
 3757 19bc 48C78424 		movq	$0, 368(%rsp)
 3757      70010000 
 3757      00000000 
 3758 19c8 48C78424 		movq	$0, 376(%rsp)
 3758      78010000 
 3758      00000000 
 3759 19d4 48C78424 		movq	$0, 384(%rsp)
 3759      80010000 
 3759      00000000 
 3760 19e0 48C78424 		movq	$0, 392(%rsp)
 3760      88010000 
 3760      00000000 
 3761 19ec 4C896424 		movq	%r12, 48(%rsp)
 3761      30
 3762 19f1 488907   		movq	%rax, (%rdi)
 3763              	.LEHB85:
 3764 19f4 E8000000 		call	_ZNSt9basic_iosIcSt11char_traitsIcEE4initEPSt15basic_streambufIcS1_E
 3764      00
 3765              	.LEHE85:
 3766 19f9 488D7C24 		leaq	112(%rsp), %rdi
 3766      70
 3767 19fe 48C74424 		movq	$_ZTVSt19basic_ostringstreamIcSt11char_traitsIcESaIcEE+24, 48(%rsp)
 3767      30000000 
 3767      00
 3768 1a07 48C78424 		movq	$_ZTVSt19basic_ostringstreamIcSt11char_traitsIcESaIcEE+64, 136(%rsp)
 3768      88000000 
 3768      00000000 
 3769 1a13 48C74424 		movq	$_ZTVSt15basic_streambufIcSt11char_traitsIcEE+16, 56(%rsp)
 3769      38000000 
 3769      00
 3770 1a1c 48C74424 		movq	$0, 64(%rsp)
 3770      40000000 
 3770      00
 3771 1a25 48C74424 		movq	$0, 72(%rsp)
 3771      48000000 
 3771      00
 3772 1a2e 48C74424 		movq	$0, 80(%rsp)
 3772      50000000 
 3772      00
 3773 1a37 48C74424 		movq	$0, 88(%rsp)
 3773      58000000 
 3773      00
 3774 1a40 48C74424 		movq	$0, 96(%rsp)
 3774      60000000 
 3774      00
 3775 1a49 48C74424 		movq	$0, 104(%rsp)
 3775      68000000 
 3775      00
 3776 1a52 E8000000 		call	_ZNSt6localeC1Ev
 3776      00
 3777 1a57 488D4424 		leaq	48(%rsp), %rax
 3777      30
 3778 1a5c 488D7424 		leaq	56(%rsp), %rsi
 3778      38
 3779 1a61 48C74424 		movq	$_ZTVSt15basic_stringbufIcSt11char_traitsIcESaIcEE+16, 56(%rsp)
 3779      38000000 
 3779      00
 3780 1a6a C7442478 		movl	$16, 120(%rsp)
 3780      10000000 
 3781 1a72 48C78424 		movq	$_ZNSs4_Rep20_S_empty_rep_storageE+24, 128(%rsp)
 3781      80000000 
 3781      00000000 
 3782 1a7e 488D7858 		leaq	88(%rax), %rdi
 3783              	.LEHB86:
 3784 1a82 E8000000 		call	_ZNSt9basic_iosIcSt11char_traitsIcEE4initEPSt15basic_streambufIcS1_E
 3784      00
 3785              	.LEHE86:
 3786 1a87 488D4424 		leaq	48(%rsp), %rax
 3786      30
 3787 1a8c 488DB860 		leaq	352(%rax), %rdi
 3787      010000
 3788 1a93 4889C6   		movq	%rax, %rsi
 3789              	.LEHB87:
 3790 1a96 E8000000 		call	_ZN8UnitTest15XmlTestReporterC1ERSo
 3790      00
 3791              	.LEHE87:
 3792 1a9b 488D7C24 		leaq	48(%rsp), %rdi
 3792      30
 3793 1aa0 4C89EE   		movq	%r13, %rsi
 3794 1aa3 4C89AC24 		movq	%r13, 440(%rsp)
 3794      B8010000 
 3795              	.LEHB88:
 3796 1aab E8D0F7FF 		call	_ZN8UnitTest11ExecuteTestIN12_GLOBAL__N_144XmlTestReporterFixtureMultipleFailuresHelperEEEvRT
 3796      FF
 3797              	.LEHE88:
 3798 1ab0 488BAC24 		movq	416(%rsp), %rbp
 3798      A0010000 
 3799 1ab8 4C8BB424 		movq	408(%rsp), %r14
 3799      98010000 
 3800 1ac0 48C78424 		movq	$_ZTVN8UnitTest20DeferredTestReporterE+16, 400(%rsp)
 3800      90010000 
 3800      00000000 
 3801 1acc 4C39F5   		cmpq	%r14, %rbp
 3802 1acf 0F84C700 		je	.L521
 3802      0000
 3803              		.p2align 4,,10
 3804 1ad5 0F1F00   		.p2align 3
 3805              	.L550:
 3806 1ad8 4D8B7E20 		movq	32(%r14), %r15
 3807 1adc 498B5E18 		movq	24(%r14), %rbx
 3808 1ae0 4939DF   		cmpq	%rbx, %r15
 3809 1ae3 7457     		je	.L522
 3810 1ae5 B8000000 		movl	$_ZL28__gthrw___pthread_key_createPjPFvPvE, %eax
 3810      00
 3811 1aea 4885C0   		testq	%rax, %rax
 3812 1aed 7512     		jne	.L586
 3813 1aef E9990100 		jmp	.L528
 3813      00
 3814              		.p2align 4,,10
 3815 1af4 0F1F4000 		.p2align 3
 3816              	.L531:
 3817 1af8 4883C310 		addq	$16, %rbx
 3818 1afc 4939DF   		cmpq	%rbx, %r15
 3819 1aff 7437     		je	.L529
 3820              	.L586:
 3821 1b01 488B4308 		movq	8(%rbx), %rax
 3822 1b05 488D78E8 		leaq	-24(%rax), %rdi
 3823 1b09 4881FF00 		cmpq	$_ZNSs4_Rep20_S_empty_rep_storageE, %rdi
 3823      000000
 3824 1b10 74E6     		je	.L531
 3825 1b12 BEFFFFFF 		movl	$-1, %esi
 3825      FF
 3826 1b17 F00FC170 		lock xaddl	%esi, -8(%rax)
 3826      F8
 3827 1b1c 85F6     		testl	%esi, %esi
 3828 1b1e 7FD8     		jg	.L531
 3829 1b20 488D7424 		leaq	16(%rsp), %rsi
 3829      10
 3830 1b25 4883C310 		addq	$16, %rbx
 3831 1b29 E8000000 		call	_ZNSs4_Rep10_M_destroyERKSaIcE
 3831      00
 3832 1b2e 4939DF   		cmpq	%rbx, %r15
 3833 1b31 75CE     		jne	.L586
 3834              		.p2align 4,,10
 3835 1b33 0F1F4400 		.p2align 3
 3835      00
 3836              	.L529:
 3837 1b38 4D8B7E18 		movq	24(%r14), %r15
 3838              	.L522:
 3839 1b3c 4D85FF   		testq	%r15, %r15
 3840 1b3f 7408     		je	.L534
 3841 1b41 4C89FF   		movq	%r15, %rdi
 3842 1b44 E8000000 		call	_ZdlPv
 3842      00
 3843              	.L534:
 3844 1b49 498B4610 		movq	16(%r14), %rax
 3845 1b4d 488D78E8 		leaq	-24(%rax), %rdi
 3846 1b51 4881FF00 		cmpq	$_ZNSs4_Rep20_S_empty_rep_storageE, %rdi
 3846      000000
 3847 1b58 0F85AA01 		jne	.L602
 3847      0000
 3848              	.L536:
 3849 1b5e 498B4608 		movq	8(%r14), %rax
 3850 1b62 488D78E8 		leaq	-24(%rax), %rdi
 3851 1b66 4881FF00 		cmpq	$_ZNSs4_Rep20_S_empty_rep_storageE, %rdi
 3851      000000
 3852 1b6d 0F856501 		jne	.L603
 3852      0000
 3853              	.L541:
 3854 1b73 498B06   		movq	(%r14), %rax
 3855 1b76 488D78E8 		leaq	-24(%rax), %rdi
 3856 1b7a 4881FF00 		cmpq	$_ZNSs4_Rep20_S_empty_rep_storageE, %rdi
 3856      000000
 3857 1b81 0F851901 		jne	.L604
 3857      0000
 3858              	.L546:
 3859 1b87 4983C638 		addq	$56, %r14
 3860 1b8b 4C39F5   		cmpq	%r14, %rbp
 3861 1b8e 0F8544FF 		jne	.L550
 3861      FFFF
 3862 1b94 488BAC24 		movq	408(%rsp), %rbp
 3862      98010000 
 3863              	.L521:
 3864 1b9c 4885ED   		testq	%rbp, %rbp
 3865 1b9f 7408     		je	.L551
 3866 1ba1 4889EF   		movq	%rbp, %rdi
 3867 1ba4 E8000000 		call	_ZdlPv
 3867      00
 3868              	.L551:
 3869 1ba9 488D4424 		leaq	48(%rsp), %rax
 3869      30
 3870 1bae 488DB860 		leaq	352(%rax), %rdi
 3870      010000
 3871              	.LEHB89:
 3872 1bb5 E8000000 		call	_ZN8UnitTest12TestReporterD2Ev
 3872      00
 3873              	.LEHE89:
 3874 1bba 488B8424 		movq	128(%rsp), %rax
 3874      80000000 
 3875 1bc2 48C74424 		movq	$_ZTVSt19basic_ostringstreamIcSt11char_traitsIcESaIcEE+24, 48(%rsp)
 3875      30000000 
 3875      00
 3876 1bcb 48C78424 		movq	$_ZTVSt19basic_ostringstreamIcSt11char_traitsIcESaIcEE+64, 136(%rsp)
 3876      88000000 
 3876      00000000 
 3877 1bd7 48C74424 		movq	$_ZTVSt15basic_stringbufIcSt11char_traitsIcESaIcEE+16, 56(%rsp)
 3877      38000000 
 3877      00
 3878 1be0 488D78E8 		leaq	-24(%rax), %rdi
 3879 1be4 4881FF00 		cmpq	$_ZNSs4_Rep20_S_empty_rep_storageE, %rdi
 3879      000000
 3880 1beb 0F856E01 		jne	.L605
 3880      0000
 3881              	.L553:
 3882 1bf1 488D7C24 		leaq	112(%rsp), %rdi
 3882      70
 3883 1bf6 48C74424 		movq	$_ZTVSt15basic_streambufIcSt11char_traitsIcEE+16, 56(%rsp)
 3883      38000000 
 3883      00
 3884 1bff E8000000 		call	_ZNSt6localeD1Ev
 3884      00
 3885 1c04 498B4424 		movq	-24(%r12), %rax
 3885      E8
 3886 1c09 488B0D00 		movq	_ZTTSt19basic_ostringstreamIcSt11char_traitsIcESaIcEE+16(%rip), %rcx
 3886      000000
 3887 1c10 4C896424 		movq	%r12, 48(%rsp)
 3887      30
 3888 1c15 48894C04 		movq	%rcx, 48(%rsp,%rax)
 3888      30
 3889 1c1a 488D4424 		leaq	48(%rsp), %rax
 3889      30
 3890 1c1f 48C78424 		movq	$_ZTVSt9basic_iosIcSt11char_traitsIcEE+16, 136(%rsp)
 3890      88000000 
 3890      00000000 
 3891 1c2b 488D7858 		leaq	88(%rax), %rdi
 3892              	.LEHB90:
 3893 1c2f E8000000 		call	_ZNSt8ios_baseD2Ev
 3893      00
 3894              	.LEHE90:
 3895              	.L514:
 3896 1c34 488B8424 		movq	456(%rsp), %rax
 3896      C8010000 
 3897 1c3c 64483304 		xorq	%fs:40, %rax
 3897      25280000 
 3897      00
 3898 1c45 0F85E901 		jne	.L606
 3898      0000
 3899 1c4b 4881C4D8 		addq	$472, %rsp
 3899      010000
 3900              		.cfi_remember_state
 3901              		.cfi_def_cfa_offset 56
 3902 1c52 5B       		popq	%rbx
 3903              		.cfi_def_cfa_offset 48
 3904 1c53 5D       		popq	%rbp
 3905              		.cfi_def_cfa_offset 40
 3906 1c54 415C     		popq	%r12
 3907              		.cfi_def_cfa_offset 32
 3908 1c56 415D     		popq	%r13
 3909              		.cfi_def_cfa_offset 24
 3910 1c58 415E     		popq	%r14
 3911              		.cfi_def_cfa_offset 16
 3912 1c5a 415F     		popq	%r15
 3913              		.cfi_def_cfa_offset 8
 3914 1c5c C3       		ret
 3915 1c5d 0F1F00   		.p2align 4,,10
 3916              		.p2align 3
 3917              	.L607:
 3918              		.cfi_restore_state
 3919 1c60 8B70F8   		movl	-8(%rax), %esi
 3920 1c63 448D46FF 		leal	-1(%rsi), %r8d
 3921 1c67 85F6     		testl	%esi, %esi
 3922 1c69 448940F8 		movl	%r8d, -8(%rax)
 3923 1c6d 7F11     		jg	.L526
 3924 1c6f 488D7424 		leaq	16(%rsp), %rsi
 3924      10
 3925 1c74 E8000000 		call	_ZNSs4_Rep10_M_destroyERKSaIcE
 3925      00
 3926 1c79 0F1F8000 		.p2align 4,,10
 3926      000000
 3927              		.p2align 3
 3928              	.L526:
 3929 1c80 4883C310 		addq	$16, %rbx
 3930 1c84 4939DF   		cmpq	%rbx, %r15
 3931 1c87 0F84ABFE 		je	.L529
 3931      FFFF
 3932              	.L528:
 3933 1c8d 488B4308 		movq	8(%rbx), %rax
 3934 1c91 488D78E8 		leaq	-24(%rax), %rdi
 3935 1c95 4881FF00 		cmpq	$_ZNSs4_Rep20_S_empty_rep_storageE, %rdi
 3935      000000
 3936 1c9c 74E2     		je	.L526
 3937 1c9e EBC0     		jmp	.L607
 3938              		.p2align 4,,10
 3939              		.p2align 3
 3940              	.L604:
 3941 1ca0 BA000000 		movl	$_ZL28__gthrw___pthread_key_createPjPFvPvE, %edx
 3941      00
 3942 1ca5 4885D2   		testq	%rdx, %rdx
 3943 1ca8 0F848700 		je	.L547
 3943      0000
 3944 1cae BAFFFFFF 		movl	$-1, %edx
 3944      FF
 3945 1cb3 F00FC150 		lock xaddl	%edx, -8(%rax)
 3945      F8
 3946 1cb8 89D0     		movl	%edx, %eax
 3947              	.L548:
 3948 1cba 85C0     		testl	%eax, %eax
 3949 1cbc 0F8FC5FE 		jg	.L546
 3949      FFFF
 3950 1cc2 488D7424 		leaq	16(%rsp), %rsi
 3950      10
 3951 1cc7 E8000000 		call	_ZNSs4_Rep10_M_destroyERKSaIcE
 3951      00
 3952 1ccc E9B6FEFF 		jmp	.L546
 3952      FF
 3953              		.p2align 4,,10
 3954 1cd1 0F1F8000 		.p2align 3
 3954      000000
 3955              	.L603:
 3956 1cd8 BA000000 		movl	$_ZL28__gthrw___pthread_key_createPjPFvPvE, %edx
 3956      00
 3957 1cdd 4885D2   		testq	%rdx, %rdx
 3958 1ce0 7470     		je	.L542
 3959 1ce2 BAFFFFFF 		movl	$-1, %edx
 3959      FF
 3960 1ce7 F00FC150 		lock xaddl	%edx, -8(%rax)
 3960      F8
 3961 1cec 89D0     		movl	%edx, %eax
 3962              	.L543:
 3963 1cee 85C0     		testl	%eax, %eax
 3964 1cf0 0F8F7DFE 		jg	.L541
 3964      FFFF
 3965 1cf6 488D7424 		leaq	16(%rsp), %rsi
 3965      10
 3966 1cfb E8000000 		call	_ZNSs4_Rep10_M_destroyERKSaIcE
 3966      00
 3967 1d00 E96EFEFF 		jmp	.L541
 3967      FF
 3968              		.p2align 4,,10
 3969 1d05 0F1F00   		.p2align 3
 3970              	.L602:
 3971 1d08 BA000000 		movl	$_ZL28__gthrw___pthread_key_createPjPFvPvE, %edx
 3971      00
 3972 1d0d 4885D2   		testq	%rdx, %rdx
 3973 1d10 7433     		je	.L537
 3974 1d12 BAFFFFFF 		movl	$-1, %edx
 3974      FF
 3975 1d17 F00FC150 		lock xaddl	%edx, -8(%rax)
 3975      F8
 3976 1d1c 89D0     		movl	%edx, %eax
 3977              	.L538:
 3978 1d1e 85C0     		testl	%eax, %eax
 3979 1d20 0F8F38FE 		jg	.L536
 3979      FFFF
 3980 1d26 488D7424 		leaq	16(%rsp), %rsi
 3980      10
 3981 1d2b E8000000 		call	_ZNSs4_Rep10_M_destroyERKSaIcE
 3981      00
 3982 1d30 E929FEFF 		jmp	.L536
 3982      FF
 3983              	.L547:
 3984 1d35 8B50F8   		movl	-8(%rax), %edx
 3985 1d38 8D72FF   		leal	-1(%rdx), %esi
 3986 1d3b 8970F8   		movl	%esi, -8(%rax)
 3987 1d3e 89D0     		movl	%edx, %eax
 3988 1d40 E975FFFF 		jmp	.L548
 3988      FF
 3989              	.L537:
 3990 1d45 8B50F8   		movl	-8(%rax), %edx
 3991 1d48 8D72FF   		leal	-1(%rdx), %esi
 3992 1d4b 8970F8   		movl	%esi, -8(%rax)
 3993 1d4e 89D0     		movl	%edx, %eax
 3994 1d50 EBCC     		jmp	.L538
 3995              	.L542:
 3996 1d52 8B50F8   		movl	-8(%rax), %edx
 3997 1d55 8D72FF   		leal	-1(%rdx), %esi
 3998 1d58 8970F8   		movl	%esi, -8(%rax)
 3999 1d5b 89D0     		movl	%edx, %eax
 4000 1d5d EB8F     		jmp	.L543
 4001              	.L605:
 4002 1d5f BA000000 		movl	$_ZL28__gthrw___pthread_key_createPjPFvPvE, %edx
 4002      00
 4003 1d64 4885D2   		testq	%rdx, %rdx
 4004 1d67 7423     		je	.L554
 4005 1d69 BAFFFFFF 		movl	$-1, %edx
 4005      FF
 4006 1d6e F00FC150 		lock xaddl	%edx, -8(%rax)
 4006      F8
 4007 1d73 89D0     		movl	%edx, %eax
 4008              	.L555:
 4009 1d75 85C0     		testl	%eax, %eax
 4010 1d77 0F8F74FE 		jg	.L553
 4010      FFFF
 4011 1d7d 488D7424 		leaq	16(%rsp), %rsi
 4011      10
 4012 1d82 E8000000 		call	_ZNSs4_Rep10_M_destroyERKSaIcE
 4012      00
 4013 1d87 E965FEFF 		jmp	.L553
 4013      FF
 4014              	.L554:
 4015 1d8c 8B50F8   		movl	-8(%rax), %edx
 4016 1d8f 8D4AFF   		leal	-1(%rdx), %ecx
 4017 1d92 8948F8   		movl	%ecx, -8(%rax)
 4018 1d95 89D0     		movl	%edx, %eax
 4019 1d97 EBDC     		jmp	.L555
 4020              	.L581:
 4021 1d99 488D7C24 		leaq	48(%rsp), %rdi
 4021      30
 4022 1d9e 4889C3   		movq	%rax, %rbx
 4023 1da1 4889D5   		movq	%rdx, %rbp
 4024 1da4 E8000000 		call	_ZNSt19basic_ostringstreamIcSt11char_traitsIcESaIcEED1Ev
 4024      00
 4025 1da9 4889DF   		movq	%rbx, %rdi
 4026 1dac 4889EA   		movq	%rbp, %rdx
 4027 1daf BB010000 		movl	$1, %ebx
 4027      00
 4028              	.L518:
 4029 1db4 4883FA01 		cmpq	$1, %rdx
 4030 1db8 0F84E800 		je	.L563
 4030      0000
 4031 1dbe 4883FA02 		cmpq	$2, %rdx
 4032 1dc2 0F859D00 		jne	.L608
 4032      0000
 4033 1dc8 E8000000 		call	__cxa_begin_catch
 4033      00
 4034 1dcd 488D7C24 		leaq	48(%rsp), %rdi
 4034      30
 4035 1dd2 4889C3   		movq	%rax, %rbx
 4036              	.LEHB91:
 4037 1dd5 E8000000 		call	_ZN8UnitTest15MemoryOutStreamC1Ev
 4037      00
 4038              	.LEHE91:
 4039 1dda 488B03   		movq	(%rbx), %rax
 4040 1ddd 4889DF   		movq	%rbx, %rdi
 4041 1de0 FF5010   		call	*16(%rax)
 4042 1de3 488D7C24 		leaq	48(%rsp), %rdi
 4042      30
 4043 1de8 BE000000 		movl	$.LC32, %esi
 4043      00
 4044 1ded 4889C3   		movq	%rax, %rbx
 4045              	.LEHB92:
 4046 1df0 E8000000 		call	_ZStlsISt11char_traitsIcEERSt13basic_ostreamIcT_ES5_PKc
 4046      00
 4047 1df5 4889C7   		movq	%rax, %rdi
 4048 1df8 4889DE   		movq	%rbx, %rsi
 4049 1dfb E8000000 		call	_ZStlsISt11char_traitsIcEERSt13basic_ostreamIcT_ES5_PKc
 4049      00
 4050 1e00 488D7C24 		leaq	48(%rsp), %rdi
 4050      30
 4051 1e05 E8000000 		call	_ZNK8UnitTest15MemoryOutStream7GetTextEv
 4051      00
 4052 1e0a 4889C3   		movq	%rax, %rbx
 4053 1e0d E8000000 		call	_ZN8UnitTest11CurrentTest7ResultsEv
 4053      00
 4054 1e12 488B38   		movq	(%rax), %rdi
 4055 1e15 4889DA   		movq	%rbx, %rdx
 4056 1e18 4C89EE   		movq	%r13, %rsi
 4057 1e1b E8000000 		call	_ZN8UnitTest11TestResults13OnTestFailureERKNS_11TestDetailsEPKc
 4057      00
 4058              	.LEHE92:
 4059 1e20 488D7C24 		leaq	48(%rsp), %rdi
 4059      30
 4060              	.LEHB93:
 4061 1e25 E8000000 		call	_ZN8UnitTest15MemoryOutStreamD1Ev
 4061      00
 4062              	.LEHE93:
 4063              	.L596:
 4064 1e2a E8000000 		call	__cxa_end_catch
 4064      00
 4065 1e2f E900FEFF 		jmp	.L514
 4065      FF
 4066              	.L606:
 4067 1e34 E8000000 		call	__stack_chk_fail
 4067      00
 4068              	.L572:
 4069 1e39 4889C7   		movq	%rax, %rdi
 4070 1e3c BB010000 		movl	$1, %ebx
 4070      00
 4071 1e41 E96EFFFF 		jmp	.L518
 4071      FF
 4072              	.L576:
 4073 1e46 488D7C24 		leaq	48(%rsp), %rdi
 4073      30
 4074 1e4b 4889C3   		movq	%rax, %rbx
 4075 1e4e E8000000 		call	_ZN8UnitTest15MemoryOutStreamD1Ev
 4075      00
 4076              	.L567:
 4077 1e53 E8000000 		call	__cxa_end_catch
 4077      00
 4078 1e58 4889DF   		movq	%rbx, %rdi
 4079              	.LEHB94:
 4080 1e5b E8000000 		call	_Unwind_Resume
 4080      00
 4081              	.LEHE94:
 4082              	.L575:
 4083              	.L597:
 4084 1e60 4889C3   		movq	%rax, %rbx
 4085 1e63 EBEE     		jmp	.L567
 4086              	.L608:
 4087 1e65 E8000000 		call	__cxa_begin_catch
 4087      00
 4088 1e6a 84DB     		testb	%bl, %bl
 4089 1e6c 488D5C24 		leaq	16(%rsp), %rbx
 4089      10
 4090 1e71 BA9F0000 		movl	$159, %edx
 4090      00
 4091 1e76 4C89EE   		movq	%r13, %rsi
 4092 1e79 4889DF   		movq	%rbx, %rdi
 4093 1e7c 0F849300 		je	.L569
 4093      0000
 4094              	.LEHB95:
 4095 1e82 E8000000 		call	_ZN8UnitTest11TestDetailsC1ERKS0_i
 4095      00
 4096 1e87 E8000000 		call	_ZN8UnitTest11CurrentTest7ResultsEv
 4096      00
 4097 1e8c 488B38   		movq	(%rax), %rdi
 4098 1e8f BA000000 		movl	$.LC36, %edx
 4098      00
 4099 1e94 4889DE   		movq	%rbx, %rsi
 4100 1e97 E8000000 		call	_ZN8UnitTest11TestResults13OnTestFailureERKNS_11TestDetailsEPKc
 4100      00
 4101              	.LEHE95:
 4102              	.L570:
 4103              	.LEHB96:
 4104 1e9c E8000000 		call	__cxa_end_catch
 4104      00
 4105              	.LEHE96:
 4106 1ea1 E98EFDFF 		jmp	.L514
 4106      FF
 4107              	.L563:
 4108 1ea6 E8000000 		call	__cxa_begin_catch
 4108      00
 4109 1eab 4889C3   		movq	%rax, %rbx
 4110 1eae 488B00   		movq	(%rax), %rax
 4111 1eb1 4889DF   		movq	%rbx, %rdi
 4112 1eb4 FF5010   		call	*16(%rax)
 4113 1eb7 4889DF   		movq	%rbx, %rdi
 4114 1eba 4889C5   		movq	%rax, %rbp
 4115              	.LEHB97:
 4116 1ebd E8000000 		call	_ZNK8UnitTest15AssertException10LineNumberEv
 4116      00
 4117 1ec2 4889DF   		movq	%rbx, %rdi
 4118 1ec5 4189C4   		movl	%eax, %r12d
 4119 1ec8 E8000000 		call	_ZNK8UnitTest15AssertException8FilenameEv
 4119      00
 4120 1ecd 488B4C24 		movq	8(%rsp), %rcx
 4120      08
 4121 1ed2 488D5C24 		leaq	16(%rsp), %rbx
 4121      10
 4122 1ed7 4589E0   		movl	%r12d, %r8d
 4123 1eda 4889DF   		movq	%rbx, %rdi
 4124 1edd 488B5108 		movq	8(%rcx), %rdx
 4125 1ee1 488B7110 		movq	16(%rcx), %rsi
 4126 1ee5 4889C1   		movq	%rax, %rcx
 4127 1ee8 E8000000 		call	_ZN8UnitTest11TestDetailsC1EPKcS2_S2_i
 4127      00
 4128 1eed E8000000 		call	_ZN8UnitTest11CurrentTest7ResultsEv
 4128      00
 4129 1ef2 488B38   		movq	(%rax), %rdi
 4130 1ef5 4889EA   		movq	%rbp, %rdx
 4131 1ef8 4889DE   		movq	%rbx, %rsi
 4132 1efb E8000000 		call	_ZN8UnitTest11TestResults13OnTestFailureERKNS_11TestDetailsEPKc
 4132      00
 4133              	.LEHE97:
 4134 1f00 E925FFFF 		jmp	.L596
 4134      FF
 4135              	.L577:
 4136 1f05 4889C3   		movq	%rax, %rbx
 4137 1f08 E8000000 		call	__cxa_end_catch
 4137      00
 4138 1f0d 4889DF   		movq	%rbx, %rdi
 4139              	.LEHB98:
 4140 1f10 E8000000 		call	_Unwind_Resume
 4140      00
 4141              	.LEHE98:
 4142              	.L569:
 4143              	.LEHB99:
 4144 1f15 E8000000 		call	_ZN8UnitTest11TestDetailsC1ERKS0_i
 4144      00
 4145 1f1a E8000000 		call	_ZN8UnitTest11CurrentTest7ResultsEv
 4145      00
 4146 1f1f 488B38   		movq	(%rax), %rdi
 4147 1f22 BA000000 		movl	$.LC37, %edx
 4147      00
 4148 1f27 4889DE   		movq	%rbx, %rsi
 4149 1f2a E8000000 		call	_ZN8UnitTest11TestResults13OnTestFailureERKNS_11TestDetailsEPKc
 4149      00
 4150              	.LEHE99:
 4151 1f2f E968FFFF 		jmp	.L570
 4151      FF
 4152              	.L574:
 4153 1f34 E927FFFF 		jmp	.L597
 4153      FF
 4154              	.L573:
 4155 1f39 488D7C24 		leaq	48(%rsp), %rdi
 4155      30
 4156 1f3e 4889C3   		movq	%rax, %rbx
 4157 1f41 4889D5   		movq	%rdx, %rbp
 4158 1f44 E8000000 		call	_ZN12_GLOBAL__N_122XmlTestReporterFixtureD2Ev
 4158      00
 4159 1f49 4889DF   		movq	%rbx, %rdi
 4160 1f4c 4889EA   		movq	%rbp, %rdx
 4161 1f4f BB010000 		movl	$1, %ebx
 4161      00
 4162 1f54 E95BFEFF 		jmp	.L518
 4162      FF
 4163              	.L578:
 4164 1f59 488D7C24 		leaq	48(%rsp), %rdi
 4164      30
 4165 1f5e 4889C3   		movq	%rax, %rbx
 4166 1f61 4889D5   		movq	%rdx, %rbp
 4167 1f64 E8000000 		call	_ZNSt19basic_ostringstreamIcSt11char_traitsIcESaIcEED1Ev
 4167      00
 4168 1f69 4889DF   		movq	%rbx, %rdi
 4169 1f6c 4889EA   		movq	%rbp, %rdx
 4170 1f6f 31DB     		xorl	%ebx, %ebx
 4171 1f71 E93EFEFF 		jmp	.L518
 4171      FF
 4172              	.L580:
 4173 1f76 488D7C24 		leaq	56(%rsp), %rdi
 4173      38
 4174 1f7b 4889C3   		movq	%rax, %rbx
 4175 1f7e 4889D5   		movq	%rdx, %rbp
 4176 1f81 E8000000 		call	_ZNSt15basic_stringbufIcSt11char_traitsIcESaIcEED1Ev
 4176      00
 4177 1f86 498B4424 		movq	-24(%r12), %rax
 4177      E8
 4178 1f8b 488B0D00 		movq	_ZTTSt19basic_ostringstreamIcSt11char_traitsIcESaIcEE+16(%rip), %rcx
 4178      000000
 4179 1f92 4C896424 		movq	%r12, 48(%rsp)
 4179      30
 4180 1f97 48894C04 		movq	%rcx, 48(%rsp,%rax)
 4180      30
 4181              	.L517:
 4182 1f9c 488DBC24 		leaq	136(%rsp), %rdi
 4182      88000000 
 4183 1fa4 48C78424 		movq	$_ZTVSt9basic_iosIcSt11char_traitsIcEE+16, 136(%rsp)
 4183      88000000 
 4183      00000000 
 4184 1fb0 E8000000 		call	_ZNSt8ios_baseD2Ev
 4184      00
 4185 1fb5 4889DF   		movq	%rbx, %rdi
 4186 1fb8 4889EA   		movq	%rbp, %rdx
 4187 1fbb 31DB     		xorl	%ebx, %ebx
 4188 1fbd E9F2FDFF 		jmp	.L518
 4188      FF
 4189              	.L579:
 4190 1fc2 4889C3   		movq	%rax, %rbx
 4191 1fc5 4889D5   		movq	%rdx, %rbp
 4192 1fc8 EBD2     		jmp	.L517
 4193              		.cfi_endproc
 4194              	.LFE1452:
 4195              		.section	.gcc_except_table
 4196              		.align 4
 4197              	.LLSDA1452:
 4198 0244 FF       		.byte	0xff
 4199 0245 03       		.byte	0x3
 4200 0246 6D       		.uleb128 .LLSDATT1452-.LLSDATTD1452
 4201              	.LLSDATTD1452:
 4202 0247 01       		.byte	0x1
 4203 0248 57       		.uleb128 .LLSDACSE1452-.LLSDACSB1452
 4204              	.LLSDACSB1452:
 4205 0249 B401     		.uleb128 .LEHB85-.LFB1452
 4206 024b 05       		.uleb128 .LEHE85-.LEHB85
 4207 024c 820D     		.uleb128 .L579-.LFB1452
 4208 024e 07       		.uleb128 0x7
 4209 024f C202     		.uleb128 .LEHB86-.LFB1452
 4210 0251 05       		.uleb128 .LEHE86-.LEHB86
 4211 0252 B60C     		.uleb128 .L580-.LFB1452
 4212 0254 07       		.uleb128 0x7
 4213 0255 D602     		.uleb128 .LEHB87-.LFB1452
 4214 0257 05       		.uleb128 .LEHE87-.LEHB87
 4215 0258 990C     		.uleb128 .L578-.LFB1452
 4216 025a 07       		.uleb128 0x7
 4217 025b EB02     		.uleb128 .LEHB88-.LFB1452
 4218 025d 05       		.uleb128 .LEHE88-.LEHB88
 4219 025e F90B     		.uleb128 .L573-.LFB1452
 4220 0260 07       		.uleb128 0x7
 4221 0261 F504     		.uleb128 .LEHB89-.LFB1452
 4222 0263 05       		.uleb128 .LEHE89-.LEHB89
 4223 0264 D908     		.uleb128 .L581-.LFB1452
 4224 0266 07       		.uleb128 0x7
 4225 0267 EF05     		.uleb128 .LEHB90-.LFB1452
 4226 0269 05       		.uleb128 .LEHE90-.LEHB90
 4227 026a F909     		.uleb128 .L572-.LFB1452
 4228 026c 05       		.uleb128 0x5
 4229 026d 9509     		.uleb128 .LEHB91-.LFB1452
 4230 026f 05       		.uleb128 .LEHE91-.LEHB91
 4231 0270 A00A     		.uleb128 .L575-.LFB1452
 4232 0272 00       		.uleb128 0
 4233 0273 B009     		.uleb128 .LEHB92-.LFB1452
 4234 0275 30       		.uleb128 .LEHE92-.LEHB92
 4235 0276 860A     		.uleb128 .L576-.LFB1452
 4236 0278 00       		.uleb128 0
 4237 0279 E509     		.uleb128 .LEHB93-.LFB1452
 4238 027b 05       		.uleb128 .LEHE93-.LEHB93
 4239 027c A00A     		.uleb128 .L575-.LFB1452
 4240 027e 00       		.uleb128 0
 4241 027f 9B0A     		.uleb128 .LEHB94-.LFB1452
 4242 0281 05       		.uleb128 .LEHE94-.LEHB94
 4243 0282 00       		.uleb128 0
 4244 0283 00       		.uleb128 0
 4245 0284 C20A     		.uleb128 .LEHB95-.LFB1452
 4246 0286 1A       		.uleb128 .LEHE95-.LEHB95
 4247 0287 C50B     		.uleb128 .L577-.LFB1452
 4248 0289 00       		.uleb128 0
 4249 028a DC0A     		.uleb128 .LEHB96-.LFB1452
 4250 028c 05       		.uleb128 .LEHE96-.LEHB96
 4251 028d 00       		.uleb128 0
 4252 028e 00       		.uleb128 0
 4253 028f FD0A     		.uleb128 .LEHB97-.LFB1452
 4254 0291 43       		.uleb128 .LEHE97-.LEHB97
 4255 0292 F40B     		.uleb128 .L574-.LFB1452
 4256 0294 00       		.uleb128 0
 4257 0295 D00B     		.uleb128 .LEHB98-.LFB1452
 4258 0297 05       		.uleb128 .LEHE98-.LEHB98
 4259 0298 00       		.uleb128 0
 4260 0299 00       		.uleb128 0
 4261 029a D50B     		.uleb128 .LEHB99-.LFB1452
 4262 029c 1A       		.uleb128 .LEHE99-.LEHB99
 4263 029d C50B     		.uleb128 .L577-.LFB1452
 4264 029f 00       		.uleb128 0
 4265              	.LLSDACSE1452:
 4266 02a0 03       		.byte	0x3
 4267 02a1 00       		.byte	0
 4268 02a2 02       		.byte	0x2
 4269 02a3 7D       		.byte	0x7d
 4270 02a4 01       		.byte	0x1
 4271 02a5 7D       		.byte	0x7d
 4272 02a6 00       		.byte	0
 4273 02a7 7D       		.byte	0x7d
 4274              		.align 4
 4275 02a8 00000000 		.long	0
 4276              	
 4277 02ac 00000000 		.long	_ZTISt9exception
 4278 02b0 00000000 		.long	_ZTIN8UnitTest15AssertExceptionE
 4279              	.LLSDATT1452:
 4280              		.text
 4282              		.section	.text.unlikely
 4283              	.LCOLDE53:
 4284              		.text
 4285              	.LHOTE53:
 4286              		.section	.rodata.str1.1
 4287              	.LC54:
 4288 00db 53756363 		.string	"SucceededTest"
 4288      65656465 
 4288      64546573 
 4288      7400
 4289              		.section	.rodata.str1.8
 4290 0283 00000000 		.align 8
 4290      00
 4291              	.LC55:
 4292 0288 3C3F786D 		.ascii	"<?xml versio"
 4292      6C207665 
 4292      7273696F 
 4293 0294 6E3D2231 		.string	"n=\"1.0\"?><unittest-results tests=\"2\" failedtests=\"1\" failures=\"1\" time=\"1.1\"><t
 4293      2E30223F 
 4293      3E3C756E 
 4293      69747465 
 4293      73742D72 
 4294              		.section	.text.unlikely
 4295              	.LCOLDB56:
 4296              		.text
 4297              	.LHOTB56:
 4298 1fca 660F1F44 		.p2align 4,,15
 4298      0000
 4300              	_ZN8UnitTest11ExecuteTestIN12_GLOBAL__N_151XmlTestReporterFixtureOneFailureAndOneSuccessHelperEEEvR
 4301              	.LFB1496:
 4302              		.cfi_startproc
 4303              		.cfi_personality 0x3,__gxx_personality_v0
 4304              		.cfi_lsda 0x3,.LLSDA1496
 4305 1fd0 4154     		pushq	%r12
 4306              		.cfi_def_cfa_offset 16
 4307              		.cfi_offset 12, -16
 4308 1fd2 55       		pushq	%rbp
 4309              		.cfi_def_cfa_offset 24
 4310              		.cfi_offset 6, -24
 4311 1fd3 53       		pushq	%rbx
 4312              		.cfi_def_cfa_offset 32
 4313              		.cfi_offset 3, -32
 4314 1fd4 4889F3   		movq	%rsi, %rbx
 4315 1fd7 4881ECD0 		subq	$1744, %rsp
 4315      060000
 4316              		.cfi_def_cfa_offset 1776
 4317 1fde 48893C24 		movq	%rdi, (%rsp)
 4318 1fe2 48897424 		movq	%rsi, 8(%rsp)
 4318      08
 4319 1fe7 64488B04 		movq	%fs:40, %rax
 4319      25280000 
 4319      00
 4320 1ff0 48898424 		movq	%rax, 1736(%rsp)
 4320      C8060000 
 4321 1ff8 31C0     		xorl	%eax, %eax
 4322              	.LEHB100:
 4323 1ffa E8000000 		call	_ZN8UnitTest11CurrentTest7DetailsEv
 4323      00
 4324              	.LEHE100:
 4325 1fff 488DBC24 		leaq	608(%rsp), %rdi
 4325      60020000 
 4326 2007 488918   		movq	%rbx, (%rax)
 4327              	.LEHB101:
 4328 200a E8000000 		call	_ZN8UnitTest16SignalTranslatorC1Ev
 4328      00
 4329              	.LEHE101:
 4330 200f 488B3D00 		movq	_ZN8UnitTest16SignalTranslator12s_jumpTargetE(%rip), %rdi
 4330      000000
 4331 2016 BE010000 		movl	$1, %esi
 4331      00
 4332 201b E8000000 		call	__sigsetjmp
 4332      00
 4333 2020 85C0     		testl	%eax, %eax
 4334 2022 0F853001 		jne	.L694
 4334      0000
 4335 2028 488D7C24 		leaq	112(%rsp), %rdi
 4335      70
 4336 202d 41B80100 		movl	$1, %r8d
 4336      0000
 4337 2033 B9000000 		movl	$.LC43, %ecx
 4337      00
 4338 2038 BA000000 		movl	$.LC44, %edx
 4338      00
 4339 203d BE000000 		movl	$.LC45, %esi
 4339      00
 4340              	.LEHB102:
 4341 2042 E8000000 		call	_ZN8UnitTest11TestDetailsC1EPKcS2_S2_i
 4341      00
 4342 2047 488B2C24 		movq	(%rsp), %rbp
 4343 204b 488D7424 		leaq	112(%rsp), %rsi
 4343      70
 4344 2050 488D9D60 		leaq	352(%rbp), %rbx
 4344      010000
 4345 2057 4889DF   		movq	%rbx, %rdi
 4346 205a E8000000 		call	_ZN8UnitTest20DeferredTestReporter15ReportTestStartERKNS_11TestDetailsE
 4346      00
 4347 205f 488D7424 		leaq	112(%rsp), %rsi
 4347      70
 4348 2064 BA000000 		movl	$.LC46, %edx
 4348      00
 4349 2069 4889DF   		movq	%rbx, %rdi
 4350 206c E8000000 		call	_ZN8UnitTest20DeferredTestReporter13ReportFailureERKNS_11TestDetailsEPKc
 4350      00
 4351 2071 488D7424 		leaq	112(%rsp), %rsi
 4351      70
 4352 2076 F30F1005 		movss	.LC48(%rip), %xmm0
 4352      00000000 
 4353 207e 4889DF   		movq	%rbx, %rdi
 4354 2081 E8000000 		call	_ZN8UnitTest20DeferredTestReporter16ReportTestFinishERKNS_11TestDetailsEf
 4354      00
 4355 2086 488DBC24 		leaq	144(%rsp), %rdi
 4355      90000000 
 4356 208e 4531C0   		xorl	%r8d, %r8d
 4357 2091 B9000000 		movl	$.LC25, %ecx
 4357      00
 4358 2096 BA000000 		movl	$.LC44, %edx
 4358      00
 4359 209b BE000000 		movl	$.LC54, %esi
 4359      00
 4360 20a0 E8000000 		call	_ZN8UnitTest11TestDetailsC1EPKcS2_S2_i
 4360      00
 4361 20a5 488DB424 		leaq	144(%rsp), %rsi
 4361      90000000 
 4362 20ad 4889DF   		movq	%rbx, %rdi
 4363 20b0 E8000000 		call	_ZN8UnitTest20DeferredTestReporter15ReportTestStartERKNS_11TestDetailsE
 4363      00
 4364 20b5 488DB424 		leaq	144(%rsp), %rsi
 4364      90000000 
 4365 20bd F30F1005 		movss	.LC27(%rip), %xmm0
 4365      00000000 
 4366 20c5 4889DF   		movq	%rbx, %rdi
 4367 20c8 E8000000 		call	_ZN8UnitTest20DeferredTestReporter16ReportTestFinishERKNS_11TestDetailsEf
 4367      00
 4368 20cd F30F1005 		movss	.LC49(%rip), %xmm0
 4368      00000000 
 4369 20d5 B9010000 		movl	$1, %ecx
 4369      00
 4370 20da BA010000 		movl	$1, %edx
 4370      00
 4371 20df BE020000 		movl	$2, %esi
 4371      00
 4372 20e4 4889DF   		movq	%rbx, %rdi
 4373 20e7 E8000000 		call	_ZN8UnitTest15XmlTestReporter13ReportSummaryEiiif
 4373      00
 4374              	.LEHE102:
 4375 20ec 48C74424 		movq	$.LC55, 72(%rsp)
 4375      48000000 
 4375      00
 4376              	.LEHB103:
 4377 20f5 E8000000 		call	_ZN8UnitTest11CurrentTest7DetailsEv
 4377      00
 4378 20fa 488B30   		movq	(%rax), %rsi
 4379 20fd 488DBC24 		leaq	208(%rsp), %rdi
 4379      D0000000 
 4380 2105 BA9C0000 		movl	$156, %edx
 4380      00
 4381 210a E8000000 		call	_ZN8UnitTest11TestDetailsC1ERKS0_i
 4381      00
 4382              	.LEHE103:
 4383 210f 488B4530 		movq	48(%rbp), %rax
 4384 2113 48C74424 		movq	$_ZNSs4_Rep20_S_empty_rep_storageE+24, 32(%rsp)
 4384      20000000 
 4384      00
 4385 211c 4885C0   		testq	%rax, %rax
 4386 211f 0F843B02 		je	.L612
 4386      0000
 4387 2125 488B7D20 		movq	32(%rbp), %rdi
 4388 2129 4839F8   		cmpq	%rdi, %rax
 4389 212c 7652     		jbe	.L613
 4390 212e 488B0C24 		movq	(%rsp), %rcx
 4391 2132 488B6928 		movq	40(%rcx), %rbp
 4392 2136 4839E8   		cmpq	%rbp, %rax
 4393 2139 0F84B901 		je	.L668
 4393      0000
 4394 213f 4885ED   		testq	%rbp, %rbp
 4395 2142 0F859802 		jne	.L695
 4395      0000
 4396 2148 BF000000 		movl	$.LC34, %edi
 4396      00
 4397              	.LEHB104:
 4398 214d E8000000 		call	_ZSt19__throw_logic_errorPKc
 4398      00
 4399              	.LEHE104:
 4400              		.p2align 4,,10
 4401 2152 660F1F44 		.p2align 3
 4401      0000
 4402              	.L694:
 4403 2158 BF080000 		movl	$8, %edi
 4403      00
 4404 215d E8000000 		call	__cxa_allocate_exception
 4404      00
 4405 2162 31D2     		xorl	%edx, %edx
 4406 2164 48C70000 		movq	$.LC24, (%rax)
 4406      000000
 4407 216b BE000000 		movl	$_ZTIPKc, %esi
 4407      00
 4408 2170 4889C7   		movq	%rax, %rdi
 4409              	.LEHB105:
 4410 2173 E8000000 		call	__cxa_throw
 4410      00
 4411              	.LEHE105:
 4412 2178 0F1F8400 		.p2align 4,,10
 4412      00000000 
 4413              		.p2align 3
 4414              	.L613:
 4415 2180 488B0424 		movq	(%rsp), %rax
 4416 2184 488B6828 		movq	40(%rax), %rbp
 4417 2188 4839EF   		cmpq	%rbp, %rdi
 4418 218b 0F84E700 		je	.L669
 4418      0000
 4419 2191 4885ED   		testq	%rbp, %rbp
 4420 2194 0F859602 		jne	.L627
 4420      0000
 4421 219a 4885FF   		testq	%rdi, %rdi
 4422 219d 0F848D02 		je	.L627
 4422      0000
 4423 21a3 BF000000 		movl	$.LC34, %edi
 4423      00
 4424              	.LEHB106:
 4425 21a8 E8000000 		call	_ZSt19__throw_logic_errorPKc
 4425      00
 4426              	.LEHE106:
 4427              	.L671:
 4428 21ad 4889C3   		movq	%rax, %rbx
 4429 21b0 4889D5   		movq	%rdx, %rbp
 4430              	.L654:
 4431 21b3 488DBC24 		leaq	608(%rsp), %rdi
 4431      60020000 
 4432 21bb E8000000 		call	_ZN8UnitTest16SignalTranslatorD1Ev
 4432      00
 4433 21c0 4889DF   		movq	%rbx, %rdi
 4434 21c3 4889EA   		movq	%rbp, %rdx
 4435              	.L655:
 4436 21c6 4883FA01 		cmpq	$1, %rdx
 4437 21ca 0F845404 		je	.L657
 4437      0000
 4438 21d0 4883FA02 		cmpq	$2, %rdx
 4439 21d4 0F852404 		jne	.L696
 4439      0000
 4440 21da E8000000 		call	__cxa_begin_catch
 4440      00
 4441 21df 488DBC24 		leaq	240(%rsp), %rdi
 4441      F0000000 
 4442 21e7 4889C3   		movq	%rax, %rbx
 4443              	.LEHB107:
 4444 21ea E8000000 		call	_ZN8UnitTest15MemoryOutStreamC1Ev
 4444      00
 4445              	.LEHE107:
 4446 21ef 488B03   		movq	(%rbx), %rax
 4447 21f2 4889DF   		movq	%rbx, %rdi
 4448 21f5 FF5010   		call	*16(%rax)
 4449 21f8 488DBC24 		leaq	240(%rsp), %rdi
 4449      F0000000 
 4450 2200 BE000000 		movl	$.LC32, %esi
 4450      00
 4451 2205 4889C3   		movq	%rax, %rbx
 4452              	.LEHB108:
 4453 2208 E8000000 		call	_ZStlsISt11char_traitsIcEERSt13basic_ostreamIcT_ES5_PKc
 4453      00
 4454 220d 4889C7   		movq	%rax, %rdi
 4455 2210 4889DE   		movq	%rbx, %rsi
 4456 2213 E8000000 		call	_ZStlsISt11char_traitsIcEERSt13basic_ostreamIcT_ES5_PKc
 4456      00
 4457 2218 488DBC24 		leaq	240(%rsp), %rdi
 4457      F0000000 
 4458 2220 E8000000 		call	_ZNK8UnitTest15MemoryOutStream7GetTextEv
 4458      00
 4459 2225 4889C3   		movq	%rax, %rbx
 4460 2228 E8000000 		call	_ZN8UnitTest11CurrentTest7ResultsEv
 4460      00
 4461 222d 488B7424 		movq	8(%rsp), %rsi
 4461      08
 4462 2232 488B38   		movq	(%rax), %rdi
 4463 2235 4889DA   		movq	%rbx, %rdx
 4464 2238 E8000000 		call	_ZN8UnitTest11TestResults13OnTestFailureERKNS_11TestDetailsEPKc
 4464      00
 4465              	.LEHE108:
 4466 223d 488DBC24 		leaq	240(%rsp), %rdi
 4466      F0000000 
 4467              	.LEHB109:
 4468 2245 E8000000 		call	_ZN8UnitTest15MemoryOutStreamD1Ev
 4468      00
 4469              	.LEHE109:
 4470              	.L688:
 4471 224a E8000000 		call	__cxa_end_catch
 4471      00
 4472 224f 90       		.p2align 4,,10
 4473              		.p2align 3
 4474              	.L609:
 4475 2250 488B8424 		movq	1736(%rsp), %rax
 4475      C8060000 
 4476 2258 64483304 		xorq	%fs:40, %rax
 4476      25280000 
 4476      00
 4477 2261 0F85DB02 		jne	.L697
 4477      0000
 4478 2267 4881C4D0 		addq	$1744, %rsp
 4478      060000
 4479              		.cfi_remember_state
 4480              		.cfi_def_cfa_offset 32
 4481 226e 5B       		popq	%rbx
 4482              		.cfi_def_cfa_offset 24
 4483 226f 5D       		popq	%rbp
 4484              		.cfi_def_cfa_offset 16
 4485 2270 415C     		popq	%r12
 4486              		.cfi_def_cfa_offset 8
 4487 2272 C3       		ret
 4488              		.p2align 4,,10
 4489 2273 0F1F4400 		.p2align 3
 4489      00
 4490              	.L669:
 4491              		.cfi_restore_state
 4492 2278 B9000000 		movl	$_ZNSs4_Rep20_S_empty_rep_storageE+24, %ecx
 4492      00
 4493 227d 0F1F00   		.p2align 4,,10
 4494              		.p2align 3
 4495              	.L624:
 4496 2280 488D7424 		leaq	48(%rsp), %rsi
 4496      30
 4497 2285 488D7C24 		leaq	32(%rsp), %rdi
 4497      20
 4498 228a 48894C24 		movq	%rcx, 48(%rsp)
 4498      30
 4499              	.LEHB110:
 4500 228f E8000000 		call	_ZNSs6assignERKSs
 4500      00
 4501              	.LEHE110:
 4502 2294 488B4424 		movq	48(%rsp), %rax
 4502      30
 4503 2299 488D78E8 		leaq	-24(%rax), %rdi
 4504 229d 4881FF00 		cmpq	$_ZNSs4_Rep20_S_empty_rep_storageE, %rdi
 4504      000000
 4505 22a4 0F853E02 		jne	.L698
 4505      0000
 4506              	.L620:
 4507              	.LEHB111:
 4508 22aa E8000000 		call	_ZN8UnitTest11CurrentTest7ResultsEv
 4508      00
 4509 22af 488B38   		movq	(%rax), %rdi
 4510 22b2 488D8C24 		leaq	208(%rsp), %rcx
 4510      D0000000 
 4511 22ba 488D5424 		leaq	32(%rsp), %rdx
 4511      20
 4512 22bf 488D7424 		leaq	72(%rsp), %rsi
 4512      48
 4513 22c4 E8000000 		call	_ZN8UnitTest10CheckEqualIPKcSsEEvRNS_11TestResultsERKT_RKT0_RKNS_11TestDetailsE
 4513      00
 4514              	.LEHE111:
 4515 22c9 488B4424 		movq	32(%rsp), %rax
 4515      20
 4516 22ce 488D78E8 		leaq	-24(%rax), %rdi
 4517 22d2 4881FF00 		cmpq	$_ZNSs4_Rep20_S_empty_rep_storageE, %rdi
 4517      000000
 4518 22d9 0F85D901 		jne	.L699
 4518      0000
 4519              	.L645:
 4520 22df 488DBC24 		leaq	608(%rsp), %rdi
 4520      60020000 
 4521              	.LEHB112:
 4522 22e7 E8000000 		call	_ZN8UnitTest16SignalTranslatorD1Ev
 4522      00
 4523              	.LEHE112:
 4524 22ec E95FFFFF 		jmp	.L609
 4524      FF
 4525              		.p2align 4,,10
 4526 22f1 0F1F8000 		.p2align 3
 4526      000000
 4527              	.L668:
 4528 22f8 B9000000 		movl	$_ZNSs4_Rep20_S_empty_rep_storageE+24, %ecx
 4528      00
 4529 22fd 0F1F00   		.p2align 4,,10
 4530              		.p2align 3
 4531              	.L614:
 4532 2300 488D7424 		leaq	64(%rsp), %rsi
 4532      40
 4533 2305 488D7C24 		leaq	32(%rsp), %rdi
 4533      20
 4534 230a 48894C24 		movq	%rcx, 64(%rsp)
 4534      40
 4535              	.LEHB113:
 4536 230f E8000000 		call	_ZNSs6assignERKSs
 4536      00
 4537              	.LEHE113:
 4538 2314 488B4424 		movq	64(%rsp), %rax
 4538      40
 4539 2319 488D78E8 		leaq	-24(%rax), %rdi
 4540 231d 4881FF00 		cmpq	$_ZNSs4_Rep20_S_empty_rep_storageE, %rdi
 4540      000000
 4541 2324 7484     		je	.L620
 4542 2326 BA000000 		movl	$_ZL28__gthrw___pthread_key_createPjPFvPvE, %edx
 4542      00
 4543 232b 4885D2   		testq	%rdx, %rdx
 4544 232e 0F84F101 		je	.L621
 4544      0000
 4545 2334 BAFFFFFF 		movl	$-1, %edx
 4545      FF
 4546 2339 F00FC150 		lock xaddl	%edx, -8(%rax)
 4546      F8
 4547 233e 89D0     		movl	%edx, %eax
 4548              	.L622:
 4549 2340 85C0     		testl	%eax, %eax
 4550 2342 0F8F62FF 		jg	.L620
 4550      FFFF
 4551 2348 488D7424 		leaq	29(%rsp), %rsi
 4551      1D
 4552 234d E8000000 		call	_ZNSs4_Rep10_M_destroyERKSaIcE
 4552      00
 4553 2352 E953FFFF 		jmp	.L620
 4553      FF
 4554 2357 660F1F84 		.p2align 4,,10
 4554      00000000 
 4554      00
 4555              		.p2align 3
 4556              	.L612:
 4557 2360 488B3424 		movq	(%rsp), %rsi
 4558 2364 488D7C24 		leaq	32(%rsp), %rdi
 4558      20
 4559 2369 4883C650 		addq	$80, %rsi
 4560              	.LEHB114:
 4561 236d E8000000 		call	_ZNSs6assignERKSs
 4561      00
 4562              	.LEHE114:
 4563 2372 E933FFFF 		jmp	.L620
 4563      FF
 4564              	.L679:
 4565 2377 4889C3   		movq	%rax, %rbx
 4566              	.L636:
 4567 237a 488B4424 		movq	32(%rsp), %rax
 4567      20
 4568 237f 488D78E8 		leaq	-24(%rax), %rdi
 4569 2383 4881FF00 		cmpq	$_ZNSs4_Rep20_S_empty_rep_storageE, %rdi
 4569      000000
 4570 238a 740A     		je	.L652
 4571 238c 488D7424 		leaq	25(%rsp), %rsi
 4571      19
 4572 2391 E8000000 		call	_ZNSs4_Rep10_M_disposeERKSaIcE.part.5
 4572      00
 4573              	.L652:
 4574 2396 4889D8   		movq	%rbx, %rax
 4575              	.L642:
 4576 2399 4889C7   		movq	%rax, %rdi
 4577 239c E8000000 		call	__cxa_begin_catch
 4577      00
 4578              	.LEHB115:
 4579 23a1 E8000000 		call	_ZN8UnitTest11CurrentTest7DetailsEv
 4579      00
 4580 23a6 488B30   		movq	(%rax), %rsi
 4581 23a9 488DBC24 		leaq	176(%rsp), %rdi
 4581      B0000000 
 4582 23b1 BA9C0000 		movl	$156, %edx
 4582      00
 4583 23b6 E8000000 		call	_ZN8UnitTest11TestDetailsC1ERKS0_i
 4583      00
 4584 23bb E8000000 		call	_ZN8UnitTest11CurrentTest7ResultsEv
 4584      00
 4585 23c0 488B38   		movq	(%rax), %rdi
 4586 23c3 488DB424 		leaq	176(%rsp), %rsi
 4586      B0000000 
 4587 23cb BA000000 		movl	$.LC51, %edx
 4587      00
 4588 23d0 E8000000 		call	_ZN8UnitTest11TestResults13OnTestFailureERKNS_11TestDetailsEPKc
 4588      00
 4589              	.LEHE115:
 4590              	.LEHB116:
 4591 23d5 E8000000 		call	__cxa_end_catch
 4591      00
 4592              	.LEHE116:
 4593 23da E900FFFF 		jmp	.L645
 4593      FF
 4594 23df 90       		.p2align 4,,10
 4595              		.p2align 3
 4596              	.L695:
 4597 23e0 4829E8   		subq	%rbp, %rax
 4598 23e3 488D5424 		leaq	31(%rsp), %rdx
 4598      1F
 4599 23e8 31F6     		xorl	%esi, %esi
 4600 23ea 4889C7   		movq	%rax, %rdi
 4601 23ed 4889C3   		movq	%rax, %rbx
 4602              	.LEHB117:
 4603 23f0 E8000000 		call	_ZNSs4_Rep9_S_createEmmRKSaIcE
 4603      00
 4604 23f5 4883FB01 		cmpq	$1, %rbx
 4605 23f9 4989C4   		movq	%rax, %r12
 4606 23fc 488D4818 		leaq	24(%rax), %rcx
 4607 2400 757E     		jne	.L617
 4608 2402 0FB64500 		movzbl	0(%rbp), %eax
 4609 2406 41884424 		movb	%al, 24(%r12)
 4609      18
 4610              	.L618:
 4611 240b 4981FC00 		cmpq	$_ZNSs4_Rep20_S_empty_rep_storageE, %r12
 4611      000000
 4612 2412 0F84E8FE 		je	.L614
 4612      FFFF
 4613 2418 41C74424 		movl	$0, 16(%r12)
 4613      10000000 
 4613      00
 4614 2421 49891C24 		movq	%rbx, (%r12)
 4615 2425 41C6441C 		movb	$0, 24(%r12,%rbx)
 4615      1800
 4616 242b E9D0FEFF 		jmp	.L614
 4616      FF
 4617              	.L627:
 4618 2430 4889FB   		movq	%rdi, %rbx
 4619 2433 488D5424 		leaq	30(%rsp), %rdx
 4619      1E
 4620 2438 31F6     		xorl	%esi, %esi
 4621 243a 4829EB   		subq	%rbp, %rbx
 4622 243d 4889DF   		movq	%rbx, %rdi
 4623 2440 E8000000 		call	_ZNSs4_Rep9_S_createEmmRKSaIcE
 4623      00
 4624              	.LEHE117:
 4625 2445 4883FB01 		cmpq	$1, %rbx
 4626 2449 4989C4   		movq	%rax, %r12
 4627 244c 488D4818 		leaq	24(%rax), %rcx
 4628 2450 754E     		jne	.L628
 4629 2452 0FB64500 		movzbl	0(%rbp), %eax
 4630 2456 41884424 		movb	%al, 24(%r12)
 4630      18
 4631              	.L629:
 4632 245b 4981FC00 		cmpq	$_ZNSs4_Rep20_S_empty_rep_storageE, %r12
 4632      000000
 4633 2462 0F8418FE 		je	.L624
 4633      FFFF
 4634 2468 41C74424 		movl	$0, 16(%r12)
 4634      10000000 
 4634      00
 4635 2471 49891C24 		movq	%rbx, (%r12)
 4636 2475 41C6441C 		movb	$0, 24(%r12,%rbx)
 4636      1800
 4637 247b E900FEFF 		jmp	.L624
 4637      FF
 4638              		.p2align 4,,10
 4639              		.p2align 3
 4640              	.L617:
 4641 2480 4889CF   		movq	%rcx, %rdi
 4642 2483 4889DA   		movq	%rbx, %rdx
 4643 2486 4889EE   		movq	%rbp, %rsi
 4644 2489 E8000000 		call	memcpy
 4644      00
 4645 248e 4889C1   		movq	%rax, %rcx
 4646 2491 E975FFFF 		jmp	.L618
 4646      FF
 4647 2496 662E0F1F 		.p2align 4,,10
 4647      84000000 
 4647      0000
 4648              		.p2align 3
 4649              	.L628:
 4650 24a0 4889CF   		movq	%rcx, %rdi
 4651 24a3 4889DA   		movq	%rbx, %rdx
 4652 24a6 4889EE   		movq	%rbp, %rsi
 4653 24a9 E8000000 		call	memcpy
 4653      00
 4654 24ae 4889C1   		movq	%rax, %rcx
 4655 24b1 EBA8     		jmp	.L629
 4656              		.p2align 4,,10
 4657 24b3 0F1F4400 		.p2align 3
 4657      00
 4658              	.L699:
 4659 24b8 BA000000 		movl	$_ZL28__gthrw___pthread_key_createPjPFvPvE, %edx
 4659      00
 4660 24bd 4885D2   		testq	%rdx, %rdx
 4661 24c0 7456     		je	.L646
 4662 24c2 BAFFFFFF 		movl	$-1, %edx
 4662      FF
 4663 24c7 F00FC150 		lock xaddl	%edx, -8(%rax)
 4663      F8
 4664 24cc 89D0     		movl	%edx, %eax
 4665              	.L647:
 4666 24ce 85C0     		testl	%eax, %eax
 4667 24d0 0F8F09FE 		jg	.L645
 4667      FFFF
 4668 24d6 488D7424 		leaq	24(%rsp), %rsi
 4668      18
 4669 24db E8000000 		call	_ZNSs4_Rep10_M_destroyERKSaIcE
 4669      00
 4670 24e0 E9FAFDFF 		jmp	.L645
 4670      FF
 4671              		.p2align 4,,10
 4672 24e5 0F1F00   		.p2align 3
 4673              	.L698:
 4674 24e8 BA000000 		movl	$_ZL28__gthrw___pthread_key_createPjPFvPvE, %edx
 4674      00
 4675 24ed 4885D2   		testq	%rdx, %rdx
 4676 24f0 7443     		je	.L631
 4677 24f2 BAFFFFFF 		movl	$-1, %edx
 4677      FF
 4678 24f7 F00FC150 		lock xaddl	%edx, -8(%rax)
 4678      F8
 4679 24fc 89D0     		movl	%edx, %eax
 4680              	.L632:
 4681 24fe 85C0     		testl	%eax, %eax
 4682 2500 0F8FA4FD 		jg	.L620
 4682      FFFF
 4683 2506 488D7424 		leaq	28(%rsp), %rsi
 4683      1C
 4684 250b E8000000 		call	_ZNSs4_Rep10_M_destroyERKSaIcE
 4684      00
 4685 2510 E995FDFF 		jmp	.L620
 4685      FF
 4686              		.p2align 4,,10
 4687 2515 0F1F00   		.p2align 3
 4688              	.L646:
 4689 2518 8B50F8   		movl	-8(%rax), %edx
 4690 251b 8D4AFF   		leal	-1(%rdx), %ecx
 4691 251e 8948F8   		movl	%ecx, -8(%rax)
 4692 2521 89D0     		movl	%edx, %eax
 4693 2523 EBA9     		jmp	.L647
 4694              	.L621:
 4695 2525 8B50F8   		movl	-8(%rax), %edx
 4696 2528 8D4AFF   		leal	-1(%rdx), %ecx
 4697 252b 8948F8   		movl	%ecx, -8(%rax)
 4698 252e 89D0     		movl	%edx, %eax
 4699 2530 E90BFEFF 		jmp	.L622
 4699      FF
 4700              	.L631:
 4701 2535 8B50F8   		movl	-8(%rax), %edx
 4702 2538 8D4AFF   		leal	-1(%rdx), %ecx
 4703 253b 8948F8   		movl	%ecx, -8(%rax)
 4704 253e 89D0     		movl	%edx, %eax
 4705 2540 EBBC     		jmp	.L632
 4706              	.L697:
 4707 2542 E8000000 		call	__stack_chk_fail
 4707      00
 4708              	.L676:
 4709 2547 4889C3   		movq	%rax, %rbx
 4710 254a 4889D5   		movq	%rdx, %rbp
 4711 254d E8000000 		call	__cxa_end_catch
 4711      00
 4712 2552 E95CFCFF 		jmp	.L654
 4712      FF
 4713              	.L670:
 4714 2557 4889C7   		movq	%rax, %rdi
 4715 255a E967FCFF 		jmp	.L655
 4715      FF
 4716              	.L680:
 4717 255f 4889C3   		movq	%rax, %rbx
 4718 2562 488B4424 		movq	48(%rsp), %rax
 4718      30
 4719 2567 488D78E8 		leaq	-24(%rax), %rdi
 4720 256b 4881FF00 		cmpq	$_ZNSs4_Rep20_S_empty_rep_storageE, %rdi
 4720      000000
 4721 2572 0F8402FE 		je	.L636
 4721      FFFF
 4722 2578 488D7424 		leaq	26(%rsp), %rsi
 4722      1A
 4723 257d E8000000 		call	_ZNSs4_Rep10_M_disposeERKSaIcE.part.5
 4723      00
 4724 2582 E9F3FDFF 		jmp	.L636
 4724      FF
 4725              	.L677:
 4726 2587 E90DFEFF 		jmp	.L642
 4726      FF
 4727              	.L678:
 4728 258c 4889C3   		movq	%rax, %rbx
 4729 258f 488B4424 		movq	32(%rsp), %rax
 4729      20
 4730 2594 488D78E8 		leaq	-24(%rax), %rdi
 4731 2598 4881FF00 		cmpq	$_ZNSs4_Rep20_S_empty_rep_storageE, %rdi
 4731      000000
 4732 259f 0F84F1FD 		je	.L652
 4732      FFFF
 4733 25a5 488D7424 		leaq	23(%rsp), %rsi
 4733      17
 4734 25aa E8000000 		call	_ZNSs4_Rep10_M_disposeERKSaIcE.part.5
 4734      00
 4735 25af E9E2FDFF 		jmp	.L652
 4735      FF
 4736              	.L681:
 4737 25b4 4889C3   		movq	%rax, %rbx
 4738 25b7 488B4424 		movq	64(%rsp), %rax
 4738      40
 4739 25bc 488D78E8 		leaq	-24(%rax), %rdi
 4740 25c0 4881FF00 		cmpq	$_ZNSs4_Rep20_S_empty_rep_storageE, %rdi
 4740      000000
 4741 25c7 0F84ADFD 		je	.L636
 4741      FFFF
 4742 25cd 488D7424 		leaq	27(%rsp), %rsi
 4742      1B
 4743 25d2 E8000000 		call	_ZNSs4_Rep10_M_disposeERKSaIcE.part.5
 4743      00
 4744 25d7 E99EFDFF 		jmp	.L636
 4744      FF
 4745              	.L674:
 4746 25dc 488DBC24 		leaq	240(%rsp), %rdi
 4746      F0000000 
 4747 25e4 4889C3   		movq	%rax, %rbx
 4748 25e7 E8000000 		call	_ZN8UnitTest15MemoryOutStreamD1Ev
 4748      00
 4749              	.L661:
 4750 25ec E8000000 		call	__cxa_end_catch
 4750      00
 4751 25f1 4889DF   		movq	%rbx, %rdi
 4752              	.LEHB118:
 4753 25f4 E8000000 		call	_Unwind_Resume
 4753      00
 4754              	.LEHE118:
 4755              	.L673:
 4756              	.L689:
 4757 25f9 4889C3   		movq	%rax, %rbx
 4758 25fc EBEE     		jmp	.L661
 4759              	.L696:
 4760 25fe E8000000 		call	__cxa_begin_catch
 4760      00
 4761              	.LEHB119:
 4762 2603 E8000000 		call	_ZN8UnitTest11CurrentTest7ResultsEv
 4762      00
 4763 2608 488B7424 		movq	8(%rsp), %rsi
 4763      08
 4764 260d 488B38   		movq	(%rax), %rdi
 4765 2610 BA000000 		movl	$.LC33, %edx
 4765      00
 4766 2615 E8000000 		call	_ZN8UnitTest11TestResults13OnTestFailureERKNS_11TestDetailsEPKc
 4766      00
 4767              	.LEHE119:
 4768              	.LEHB120:
 4769 261a E8000000 		call	__cxa_end_catch
 4769      00
 4770              	.LEHE120:
 4771 261f E92CFCFF 		jmp	.L609
 4771      FF
 4772              	.L657:
 4773 2624 E8000000 		call	__cxa_begin_catch
 4773      00
 4774 2629 4889C3   		movq	%rax, %rbx
 4775 262c 488B00   		movq	(%rax), %rax
 4776 262f 4889DF   		movq	%rbx, %rdi
 4777 2632 FF5010   		call	*16(%rax)
 4778 2635 4889DF   		movq	%rbx, %rdi
 4779 2638 4889C5   		movq	%rax, %rbp
 4780              	.LEHB121:
 4781 263b E8000000 		call	_ZNK8UnitTest15AssertException10LineNumberEv
 4781      00
 4782 2640 4889DF   		movq	%rbx, %rdi
 4783 2643 4189C4   		movl	%eax, %r12d
 4784 2646 E8000000 		call	_ZNK8UnitTest15AssertException8FilenameEv
 4784      00
 4785 264b 4889C1   		movq	%rax, %rcx
 4786 264e 488B4424 		movq	8(%rsp), %rax
 4786      08
 4787 2653 488D7C24 		leaq	80(%rsp), %rdi
 4787      50
 4788 2658 4589E0   		movl	%r12d, %r8d
 4789 265b 488B7008 		movq	8(%rax), %rsi
 4790 265f 488B10   		movq	(%rax), %rdx
 4791 2662 E8000000 		call	_ZN8UnitTest11TestDetailsC1EPKcS2_S2_i
 4791      00
 4792 2667 E8000000 		call	_ZN8UnitTest11CurrentTest7ResultsEv
 4792      00
 4793 266c 488B38   		movq	(%rax), %rdi
 4794 266f 488D7424 		leaq	80(%rsp), %rsi
 4794      50
 4795 2674 4889EA   		movq	%rbp, %rdx
 4796 2677 E8000000 		call	_ZN8UnitTest11TestResults13OnTestFailureERKNS_11TestDetailsEPKc
 4796      00
 4797              	.LEHE121:
 4798 267c E9C9FBFF 		jmp	.L688
 4798      FF
 4799              	.L675:
 4800 2681 4889C3   		movq	%rax, %rbx
 4801 2684 E8000000 		call	__cxa_end_catch
 4801      00
 4802 2689 4889DF   		movq	%rbx, %rdi
 4803              	.LEHB122:
 4804 268c E8000000 		call	_Unwind_Resume
 4804      00
 4805              	.LEHE122:
 4806              	.L672:
 4807 2691 E963FFFF 		jmp	.L689
 4807      FF
 4808              		.cfi_endproc
 4809              	.LFE1496:
 4810              		.section	.gcc_except_table
 4811              		.align 4
 4812              	.LLSDA1496:
 4813 02b4 FF       		.byte	0xff
 4814 02b5 03       		.byte	0x3
 4815 02b6 9C01     		.uleb128 .LLSDATT1496-.LLSDATTD1496
 4816              	.LLSDATTD1496:
 4817 02b8 01       		.byte	0x1
 4818 02b9 8401     		.uleb128 .LLSDACSE1496-.LLSDACSB1496
 4819              	.LLSDACSB1496:
 4820 02bb 2A       		.uleb128 .LEHB100-.LFB1496
 4821 02bc 05       		.uleb128 .LEHE100-.LEHB100
 4822 02bd 00       		.uleb128 0
 4823 02be 00       		.uleb128 0
 4824 02bf 3A       		.uleb128 .LEHB101-.LFB1496
 4825 02c0 05       		.uleb128 .LEHE101-.LEHB101
 4826 02c1 870B     		.uleb128 .L670-.LFB1496
 4827 02c3 05       		.uleb128 0x5
 4828 02c4 72       		.uleb128 .LEHB102-.LFB1496
 4829 02c5 AA01     		.uleb128 .LEHE102-.LEHB102
 4830 02c7 DD03     		.uleb128 .L671-.LFB1496
 4831 02c9 07       		.uleb128 0x7
 4832 02ca A502     		.uleb128 .LEHB103-.LFB1496
 4833 02cc 1A       		.uleb128 .LEHE103-.LEHB103
 4834 02cd B70B     		.uleb128 .L677-.LFB1496
 4835 02cf 01       		.uleb128 0x1
 4836 02d0 FD02     		.uleb128 .LEHB104-.LFB1496
 4837 02d2 05       		.uleb128 .LEHE104-.LEHB104
 4838 02d3 A707     		.uleb128 .L679-.LFB1496
 4839 02d5 01       		.uleb128 0x1
 4840 02d6 A303     		.uleb128 .LEHB105-.LFB1496
 4841 02d8 05       		.uleb128 .LEHE105-.LEHB105
 4842 02d9 DD03     		.uleb128 .L671-.LFB1496
 4843 02db 07       		.uleb128 0x7
 4844 02dc D803     		.uleb128 .LEHB106-.LFB1496
 4845 02de 05       		.uleb128 .LEHE106-.LEHB106
 4846 02df A707     		.uleb128 .L679-.LFB1496
 4847 02e1 01       		.uleb128 0x1
 4848 02e2 9A04     		.uleb128 .LEHB107-.LFB1496
 4849 02e4 05       		.uleb128 .LEHE107-.LEHB107
 4850 02e5 A90C     		.uleb128 .L673-.LFB1496
 4851 02e7 00       		.uleb128 0
 4852 02e8 B804     		.uleb128 .LEHB108-.LFB1496
 4853 02ea 35       		.uleb128 .LEHE108-.LEHB108
 4854 02eb 8C0C     		.uleb128 .L674-.LFB1496
 4855 02ed 00       		.uleb128 0
 4856 02ee F504     		.uleb128 .LEHB109-.LFB1496
 4857 02f0 05       		.uleb128 .LEHE109-.LEHB109
 4858 02f1 A90C     		.uleb128 .L673-.LFB1496
 4859 02f3 00       		.uleb128 0
 4860 02f4 BF05     		.uleb128 .LEHB110-.LFB1496
 4861 02f6 05       		.uleb128 .LEHE110-.LEHB110
 4862 02f7 8F0B     		.uleb128 .L680-.LFB1496
 4863 02f9 01       		.uleb128 0x1
 4864 02fa DA05     		.uleb128 .LEHB111-.LFB1496
 4865 02fc 1F       		.uleb128 .LEHE111-.LEHB111
 4866 02fd BC0B     		.uleb128 .L678-.LFB1496
 4867 02ff 01       		.uleb128 0x1
 4868 0300 9706     		.uleb128 .LEHB112-.LFB1496
 4869 0302 05       		.uleb128 .LEHE112-.LEHB112
 4870 0303 870B     		.uleb128 .L670-.LFB1496
 4871 0305 05       		.uleb128 0x5
 4872 0306 BF06     		.uleb128 .LEHB113-.LFB1496
 4873 0308 05       		.uleb128 .LEHE113-.LEHB113
 4874 0309 E40B     		.uleb128 .L681-.LFB1496
 4875 030b 01       		.uleb128 0x1
 4876 030c 9D07     		.uleb128 .LEHB114-.LFB1496
 4877 030e 05       		.uleb128 .LEHE114-.LEHB114
 4878 030f A707     		.uleb128 .L679-.LFB1496
 4879 0311 01       		.uleb128 0x1
 4880 0312 D107     		.uleb128 .LEHB115-.LFB1496
 4881 0314 34       		.uleb128 .LEHE115-.LEHB115
 4882 0315 F70A     		.uleb128 .L676-.LFB1496
 4883 0317 07       		.uleb128 0x7
 4884 0318 8508     		.uleb128 .LEHB116-.LFB1496
 4885 031a 05       		.uleb128 .LEHE116-.LEHB116
 4886 031b DD03     		.uleb128 .L671-.LFB1496
 4887 031d 07       		.uleb128 0x7
 4888 031e A008     		.uleb128 .LEHB117-.LFB1496
 4889 0320 55       		.uleb128 .LEHE117-.LEHB117
 4890 0321 A707     		.uleb128 .L679-.LFB1496
 4891 0323 01       		.uleb128 0x1
 4892 0324 A40C     		.uleb128 .LEHB118-.LFB1496
 4893 0326 05       		.uleb128 .LEHE118-.LEHB118
 4894 0327 00       		.uleb128 0
 4895 0328 00       		.uleb128 0
 4896 0329 B30C     		.uleb128 .LEHB119-.LFB1496
 4897 032b 17       		.uleb128 .LEHE119-.LEHB119
 4898 032c B10D     		.uleb128 .L675-.LFB1496
 4899 032e 00       		.uleb128 0
 4900 032f CA0C     		.uleb128 .LEHB120-.LFB1496
 4901 0331 05       		.uleb128 .LEHE120-.LEHB120
 4902 0332 00       		.uleb128 0
 4903 0333 00       		.uleb128 0
 4904 0334 EB0C     		.uleb128 .LEHB121-.LFB1496
 4905 0336 41       		.uleb128 .LEHE121-.LEHB121
 4906 0337 C10D     		.uleb128 .L672-.LFB1496
 4907 0339 00       		.uleb128 0
 4908 033a BC0D     		.uleb128 .LEHB122-.LFB1496
 4909 033c 05       		.uleb128 .LEHE122-.LEHB122
 4910 033d 00       		.uleb128 0
 4911 033e 00       		.uleb128 0
 4912              	.LLSDACSE1496:
 4913 033f 03       		.byte	0x3
 4914 0340 00       		.byte	0
 4915 0341 02       		.byte	0x2
 4916 0342 7D       		.byte	0x7d
 4917 0343 01       		.byte	0x1
 4918 0344 7D       		.byte	0x7d
 4919 0345 00       		.byte	0
 4920 0346 7D       		.byte	0x7d
 4921 0347 00       		.align 4
 4922 0348 00000000 		.long	0
 4923              	
 4924 034c 00000000 		.long	_ZTISt9exception
 4925 0350 00000000 		.long	_ZTIN8UnitTest15AssertExceptionE
 4926              	.LLSDATT1496:
 4927              		.text
 4929              		.section	.text.unlikely
 4930              	.LCOLDE56:
 4931              		.text
 4932              	.LHOTE56:
 4933              		.section	.text.unlikely
 4934              		.align 2
 4935              	.LCOLDB57:
 4936              		.text
 4937              	.LHOTB57:
 4938              		.align 2
 4939 2696 662E0F1F 		.p2align 4,,15
 4939      84000000 
 4939      0000
 4941              	_ZNK12_GLOBAL__N_149TestXmlTestReporterFixtureOneFailureAndOneSuccess7RunImplEv:
 4942              	.LFB1441:
 4943              		.cfi_startproc
 4944              		.cfi_personality 0x3,__gxx_personality_v0
 4945              		.cfi_lsda 0x3,.LLSDA1441
 4946 26a0 4157     		pushq	%r15
 4947              		.cfi_def_cfa_offset 16
 4948              		.cfi_offset 15, -16
 4949 26a2 4156     		pushq	%r14
 4950              		.cfi_def_cfa_offset 24
 4951              		.cfi_offset 14, -24
 4952 26a4 4155     		pushq	%r13
 4953              		.cfi_def_cfa_offset 32
 4954              		.cfi_offset 13, -32
 4955 26a6 4154     		pushq	%r12
 4956              		.cfi_def_cfa_offset 40
 4957              		.cfi_offset 12, -40
 4958 26a8 4C8D6F08 		leaq	8(%rdi), %r13
 4959 26ac 55       		pushq	%rbp
 4960              		.cfi_def_cfa_offset 48
 4961              		.cfi_offset 6, -48
 4962 26ad 53       		pushq	%rbx
 4963              		.cfi_def_cfa_offset 56
 4964              		.cfi_offset 3, -56
 4965 26ae 4881ECD8 		subq	$472, %rsp
 4965      010000
 4966              		.cfi_def_cfa_offset 528
 4967 26b5 48897C24 		movq	%rdi, 8(%rsp)
 4967      08
 4968 26ba 488DBC24 		leaq	136(%rsp), %rdi
 4968      88000000 
 4969 26c2 64488B0C 		movq	%fs:40, %rcx
 4969      25280000 
 4969      00
 4970 26cb 48898C24 		movq	%rcx, 456(%rsp)
 4970      C8010000 
 4971 26d3 31C9     		xorl	%ecx, %ecx
 4972 26d5 E8000000 		call	_ZNSt8ios_baseC2Ev
 4972      00
 4973 26da 4C8B2500 		movq	_ZTTSt19basic_ostringstreamIcSt11char_traitsIcESaIcEE+8(%rip), %r12
 4973      000000
 4974 26e1 C6842468 		movb	$0, 360(%rsp)
 4974      01000000 
 4975 26e9 488D7C24 		leaq	48(%rsp), %rdi
 4975      30
 4976 26ee 488B0500 		movq	_ZTTSt19basic_ostringstreamIcSt11char_traitsIcESaIcEE+16(%rip), %rax
 4976      000000
 4977 26f5 48C78424 		movq	$_ZTVSt9basic_iosIcSt11char_traitsIcEE+16, 136(%rsp)
 4977      88000000 
 4977      00000000 
 4978 2701 31F6     		xorl	%esi, %esi
 4979 2703 48C78424 		movq	$0, 352(%rsp)
 4979      60010000 
 4979      00000000 
 4980 270f C6842469 		movb	$0, 361(%rsp)
 4980      01000000 
 4981 2717 49037C24 		addq	-24(%r12), %rdi
 4981      E8
 4982 271c 48C78424 		movq	$0, 368(%rsp)
 4982      70010000 
 4982      00000000 
 4983 2728 48C78424 		movq	$0, 376(%rsp)
 4983      78010000 
 4983      00000000 
 4984 2734 48C78424 		movq	$0, 384(%rsp)
 4984      80010000 
 4984      00000000 
 4985 2740 48C78424 		movq	$0, 392(%rsp)
 4985      88010000 
 4985      00000000 
 4986 274c 4C896424 		movq	%r12, 48(%rsp)
 4986      30
 4987 2751 488907   		movq	%rax, (%rdi)
 4988              	.LEHB123:
 4989 2754 E8000000 		call	_ZNSt9basic_iosIcSt11char_traitsIcEE4initEPSt15basic_streambufIcS1_E
 4989      00
 4990              	.LEHE123:
 4991 2759 488D7C24 		leaq	112(%rsp), %rdi
 4991      70
 4992 275e 48C74424 		movq	$_ZTVSt19basic_ostringstreamIcSt11char_traitsIcESaIcEE+24, 48(%rsp)
 4992      30000000 
 4992      00
 4993 2767 48C78424 		movq	$_ZTVSt19basic_ostringstreamIcSt11char_traitsIcESaIcEE+64, 136(%rsp)
 4993      88000000 
 4993      00000000 
 4994 2773 48C74424 		movq	$_ZTVSt15basic_streambufIcSt11char_traitsIcEE+16, 56(%rsp)
 4994      38000000 
 4994      00
 4995 277c 48C74424 		movq	$0, 64(%rsp)
 4995      40000000 
 4995      00
 4996 2785 48C74424 		movq	$0, 72(%rsp)
 4996      48000000 
 4996      00
 4997 278e 48C74424 		movq	$0, 80(%rsp)
 4997      50000000 
 4997      00
 4998 2797 48C74424 		movq	$0, 88(%rsp)
 4998      58000000 
 4998      00
 4999 27a0 48C74424 		movq	$0, 96(%rsp)
 4999      60000000 
 4999      00
 5000 27a9 48C74424 		movq	$0, 104(%rsp)
 5000      68000000 
 5000      00
 5001 27b2 E8000000 		call	_ZNSt6localeC1Ev
 5001      00
 5002 27b7 488D4424 		leaq	48(%rsp), %rax
 5002      30
 5003 27bc 488D7424 		leaq	56(%rsp), %rsi
 5003      38
 5004 27c1 48C74424 		movq	$_ZTVSt15basic_stringbufIcSt11char_traitsIcESaIcEE+16, 56(%rsp)
 5004      38000000 
 5004      00
 5005 27ca C7442478 		movl	$16, 120(%rsp)
 5005      10000000 
 5006 27d2 48C78424 		movq	$_ZNSs4_Rep20_S_empty_rep_storageE+24, 128(%rsp)
 5006      80000000 
 5006      00000000 
 5007 27de 488D7858 		leaq	88(%rax), %rdi
 5008              	.LEHB124:
 5009 27e2 E8000000 		call	_ZNSt9basic_iosIcSt11char_traitsIcEE4initEPSt15basic_streambufIcS1_E
 5009      00
 5010              	.LEHE124:
 5011 27e7 488D4424 		leaq	48(%rsp), %rax
 5011      30
 5012 27ec 488DB860 		leaq	352(%rax), %rdi
 5012      010000
 5013 27f3 4889C6   		movq	%rax, %rsi
 5014              	.LEHB125:
 5015 27f6 E8000000 		call	_ZN8UnitTest15XmlTestReporterC1ERSo
 5015      00
 5016              	.LEHE125:
 5017 27fb 488D7C24 		leaq	48(%rsp), %rdi
 5017      30
 5018 2800 4C89EE   		movq	%r13, %rsi
 5019 2803 4C89AC24 		movq	%r13, 440(%rsp)
 5019      B8010000 
 5020              	.LEHB126:
 5021 280b E8C0F7FF 		call	_ZN8UnitTest11ExecuteTestIN12_GLOBAL__N_151XmlTestReporterFixtureOneFailureAndOneSuccessHelpe
 5021      FF
 5022              	.LEHE126:
 5023 2810 488BAC24 		movq	416(%rsp), %rbp
 5023      A0010000 
 5024 2818 4C8BB424 		movq	408(%rsp), %r14
 5024      98010000 
 5025 2820 48C78424 		movq	$_ZTVN8UnitTest20DeferredTestReporterE+16, 400(%rsp)
 5025      90010000 
 5025      00000000 
 5026 282c 4C39F5   		cmpq	%r14, %rbp
 5027 282f 0F84C700 		je	.L707
 5027      0000
 5028              		.p2align 4,,10
 5029 2835 0F1F00   		.p2align 3
 5030              	.L736:
 5031 2838 4D8B7E20 		movq	32(%r14), %r15
 5032 283c 498B5E18 		movq	24(%r14), %rbx
 5033 2840 4939DF   		cmpq	%rbx, %r15
 5034 2843 7457     		je	.L708
 5035 2845 B8000000 		movl	$_ZL28__gthrw___pthread_key_createPjPFvPvE, %eax
 5035      00
 5036 284a 4885C0   		testq	%rax, %rax
 5037 284d 7512     		jne	.L772
 5038 284f E9990100 		jmp	.L714
 5038      00
 5039              		.p2align 4,,10
 5040 2854 0F1F4000 		.p2align 3
 5041              	.L717:
 5042 2858 4883C310 		addq	$16, %rbx
 5043 285c 4939DF   		cmpq	%rbx, %r15
 5044 285f 7437     		je	.L715
 5045              	.L772:
 5046 2861 488B4308 		movq	8(%rbx), %rax
 5047 2865 488D78E8 		leaq	-24(%rax), %rdi
 5048 2869 4881FF00 		cmpq	$_ZNSs4_Rep20_S_empty_rep_storageE, %rdi
 5048      000000
 5049 2870 74E6     		je	.L717
 5050 2872 BEFFFFFF 		movl	$-1, %esi
 5050      FF
 5051 2877 F00FC170 		lock xaddl	%esi, -8(%rax)
 5051      F8
 5052 287c 85F6     		testl	%esi, %esi
 5053 287e 7FD8     		jg	.L717
 5054 2880 488D7424 		leaq	16(%rsp), %rsi
 5054      10
 5055 2885 4883C310 		addq	$16, %rbx
 5056 2889 E8000000 		call	_ZNSs4_Rep10_M_destroyERKSaIcE
 5056      00
 5057 288e 4939DF   		cmpq	%rbx, %r15
 5058 2891 75CE     		jne	.L772
 5059              		.p2align 4,,10
 5060 2893 0F1F4400 		.p2align 3
 5060      00
 5061              	.L715:
 5062 2898 4D8B7E18 		movq	24(%r14), %r15
 5063              	.L708:
 5064 289c 4D85FF   		testq	%r15, %r15
 5065 289f 7408     		je	.L720
 5066 28a1 4C89FF   		movq	%r15, %rdi
 5067 28a4 E8000000 		call	_ZdlPv
 5067      00
 5068              	.L720:
 5069 28a9 498B4610 		movq	16(%r14), %rax
 5070 28ad 488D78E8 		leaq	-24(%rax), %rdi
 5071 28b1 4881FF00 		cmpq	$_ZNSs4_Rep20_S_empty_rep_storageE, %rdi
 5071      000000
 5072 28b8 0F85AA01 		jne	.L788
 5072      0000
 5073              	.L722:
 5074 28be 498B4608 		movq	8(%r14), %rax
 5075 28c2 488D78E8 		leaq	-24(%rax), %rdi
 5076 28c6 4881FF00 		cmpq	$_ZNSs4_Rep20_S_empty_rep_storageE, %rdi
 5076      000000
 5077 28cd 0F856501 		jne	.L789
 5077      0000
 5078              	.L727:
 5079 28d3 498B06   		movq	(%r14), %rax
 5080 28d6 488D78E8 		leaq	-24(%rax), %rdi
 5081 28da 4881FF00 		cmpq	$_ZNSs4_Rep20_S_empty_rep_storageE, %rdi
 5081      000000
 5082 28e1 0F851901 		jne	.L790
 5082      0000
 5083              	.L732:
 5084 28e7 4983C638 		addq	$56, %r14
 5085 28eb 4C39F5   		cmpq	%r14, %rbp
 5086 28ee 0F8544FF 		jne	.L736
 5086      FFFF
 5087 28f4 488BAC24 		movq	408(%rsp), %rbp
 5087      98010000 
 5088              	.L707:
 5089 28fc 4885ED   		testq	%rbp, %rbp
 5090 28ff 7408     		je	.L737
 5091 2901 4889EF   		movq	%rbp, %rdi
 5092 2904 E8000000 		call	_ZdlPv
 5092      00
 5093              	.L737:
 5094 2909 488D4424 		leaq	48(%rsp), %rax
 5094      30
 5095 290e 488DB860 		leaq	352(%rax), %rdi
 5095      010000
 5096              	.LEHB127:
 5097 2915 E8000000 		call	_ZN8UnitTest12TestReporterD2Ev
 5097      00
 5098              	.LEHE127:
 5099 291a 488B8424 		movq	128(%rsp), %rax
 5099      80000000 
 5100 2922 48C74424 		movq	$_ZTVSt19basic_ostringstreamIcSt11char_traitsIcESaIcEE+24, 48(%rsp)
 5100      30000000 
 5100      00
 5101 292b 48C78424 		movq	$_ZTVSt19basic_ostringstreamIcSt11char_traitsIcESaIcEE+64, 136(%rsp)
 5101      88000000 
 5101      00000000 
 5102 2937 48C74424 		movq	$_ZTVSt15basic_stringbufIcSt11char_traitsIcESaIcEE+16, 56(%rsp)
 5102      38000000 
 5102      00
 5103 2940 488D78E8 		leaq	-24(%rax), %rdi
 5104 2944 4881FF00 		cmpq	$_ZNSs4_Rep20_S_empty_rep_storageE, %rdi
 5104      000000
 5105 294b 0F856E01 		jne	.L791
 5105      0000
 5106              	.L739:
 5107 2951 488D7C24 		leaq	112(%rsp), %rdi
 5107      70
 5108 2956 48C74424 		movq	$_ZTVSt15basic_streambufIcSt11char_traitsIcEE+16, 56(%rsp)
 5108      38000000 
 5108      00
 5109 295f E8000000 		call	_ZNSt6localeD1Ev
 5109      00
 5110 2964 498B4424 		movq	-24(%r12), %rax
 5110      E8
 5111 2969 488B0D00 		movq	_ZTTSt19basic_ostringstreamIcSt11char_traitsIcESaIcEE+16(%rip), %rcx
 5111      000000
 5112 2970 4C896424 		movq	%r12, 48(%rsp)
 5112      30
 5113 2975 48894C04 		movq	%rcx, 48(%rsp,%rax)
 5113      30
 5114 297a 488D4424 		leaq	48(%rsp), %rax
 5114      30
 5115 297f 48C78424 		movq	$_ZTVSt9basic_iosIcSt11char_traitsIcEE+16, 136(%rsp)
 5115      88000000 
 5115      00000000 
 5116 298b 488D7858 		leaq	88(%rax), %rdi
 5117              	.LEHB128:
 5118 298f E8000000 		call	_ZNSt8ios_baseD2Ev
 5118      00
 5119              	.LEHE128:
 5120              	.L700:
 5121 2994 488B8424 		movq	456(%rsp), %rax
 5121      C8010000 
 5122 299c 64483304 		xorq	%fs:40, %rax
 5122      25280000 
 5122      00
 5123 29a5 0F85E901 		jne	.L792
 5123      0000
 5124 29ab 4881C4D8 		addq	$472, %rsp
 5124      010000
 5125              		.cfi_remember_state
 5126              		.cfi_def_cfa_offset 56
 5127 29b2 5B       		popq	%rbx
 5128              		.cfi_def_cfa_offset 48
 5129 29b3 5D       		popq	%rbp
 5130              		.cfi_def_cfa_offset 40
 5131 29b4 415C     		popq	%r12
 5132              		.cfi_def_cfa_offset 32
 5133 29b6 415D     		popq	%r13
 5134              		.cfi_def_cfa_offset 24
 5135 29b8 415E     		popq	%r14
 5136              		.cfi_def_cfa_offset 16
 5137 29ba 415F     		popq	%r15
 5138              		.cfi_def_cfa_offset 8
 5139 29bc C3       		ret
 5140 29bd 0F1F00   		.p2align 4,,10
 5141              		.p2align 3
 5142              	.L793:
 5143              		.cfi_restore_state
 5144 29c0 8B70F8   		movl	-8(%rax), %esi
 5145 29c3 448D46FF 		leal	-1(%rsi), %r8d
 5146 29c7 85F6     		testl	%esi, %esi
 5147 29c9 448940F8 		movl	%r8d, -8(%rax)
 5148 29cd 7F11     		jg	.L712
 5149 29cf 488D7424 		leaq	16(%rsp), %rsi
 5149      10
 5150 29d4 E8000000 		call	_ZNSs4_Rep10_M_destroyERKSaIcE
 5150      00
 5151 29d9 0F1F8000 		.p2align 4,,10
 5151      000000
 5152              		.p2align 3
 5153              	.L712:
 5154 29e0 4883C310 		addq	$16, %rbx
 5155 29e4 4939DF   		cmpq	%rbx, %r15
 5156 29e7 0F84ABFE 		je	.L715
 5156      FFFF
 5157              	.L714:
 5158 29ed 488B4308 		movq	8(%rbx), %rax
 5159 29f1 488D78E8 		leaq	-24(%rax), %rdi
 5160 29f5 4881FF00 		cmpq	$_ZNSs4_Rep20_S_empty_rep_storageE, %rdi
 5160      000000
 5161 29fc 74E2     		je	.L712
 5162 29fe EBC0     		jmp	.L793
 5163              		.p2align 4,,10
 5164              		.p2align 3
 5165              	.L790:
 5166 2a00 BA000000 		movl	$_ZL28__gthrw___pthread_key_createPjPFvPvE, %edx
 5166      00
 5167 2a05 4885D2   		testq	%rdx, %rdx
 5168 2a08 0F848700 		je	.L733
 5168      0000
 5169 2a0e BAFFFFFF 		movl	$-1, %edx
 5169      FF
 5170 2a13 F00FC150 		lock xaddl	%edx, -8(%rax)
 5170      F8
 5171 2a18 89D0     		movl	%edx, %eax
 5172              	.L734:
 5173 2a1a 85C0     		testl	%eax, %eax
 5174 2a1c 0F8FC5FE 		jg	.L732
 5174      FFFF
 5175 2a22 488D7424 		leaq	16(%rsp), %rsi
 5175      10
 5176 2a27 E8000000 		call	_ZNSs4_Rep10_M_destroyERKSaIcE
 5176      00
 5177 2a2c E9B6FEFF 		jmp	.L732
 5177      FF
 5178              		.p2align 4,,10
 5179 2a31 0F1F8000 		.p2align 3
 5179      000000
 5180              	.L789:
 5181 2a38 BA000000 		movl	$_ZL28__gthrw___pthread_key_createPjPFvPvE, %edx
 5181      00
 5182 2a3d 4885D2   		testq	%rdx, %rdx
 5183 2a40 7470     		je	.L728
 5184 2a42 BAFFFFFF 		movl	$-1, %edx
 5184      FF
 5185 2a47 F00FC150 		lock xaddl	%edx, -8(%rax)
 5185      F8
 5186 2a4c 89D0     		movl	%edx, %eax
 5187              	.L729:
 5188 2a4e 85C0     		testl	%eax, %eax
 5189 2a50 0F8F7DFE 		jg	.L727
 5189      FFFF
 5190 2a56 488D7424 		leaq	16(%rsp), %rsi
 5190      10
 5191 2a5b E8000000 		call	_ZNSs4_Rep10_M_destroyERKSaIcE
 5191      00
 5192 2a60 E96EFEFF 		jmp	.L727
 5192      FF
 5193              		.p2align 4,,10
 5194 2a65 0F1F00   		.p2align 3
 5195              	.L788:
 5196 2a68 BA000000 		movl	$_ZL28__gthrw___pthread_key_createPjPFvPvE, %edx
 5196      00
 5197 2a6d 4885D2   		testq	%rdx, %rdx
 5198 2a70 7433     		je	.L723
 5199 2a72 BAFFFFFF 		movl	$-1, %edx
 5199      FF
 5200 2a77 F00FC150 		lock xaddl	%edx, -8(%rax)
 5200      F8
 5201 2a7c 89D0     		movl	%edx, %eax
 5202              	.L724:
 5203 2a7e 85C0     		testl	%eax, %eax
 5204 2a80 0F8F38FE 		jg	.L722
 5204      FFFF
 5205 2a86 488D7424 		leaq	16(%rsp), %rsi
 5205      10
 5206 2a8b E8000000 		call	_ZNSs4_Rep10_M_destroyERKSaIcE
 5206      00
 5207 2a90 E929FEFF 		jmp	.L722
 5207      FF
 5208              	.L733:
 5209 2a95 8B50F8   		movl	-8(%rax), %edx
 5210 2a98 8D72FF   		leal	-1(%rdx), %esi
 5211 2a9b 8970F8   		movl	%esi, -8(%rax)
 5212 2a9e 89D0     		movl	%edx, %eax
 5213 2aa0 E975FFFF 		jmp	.L734
 5213      FF
 5214              	.L723:
 5215 2aa5 8B50F8   		movl	-8(%rax), %edx
 5216 2aa8 8D72FF   		leal	-1(%rdx), %esi
 5217 2aab 8970F8   		movl	%esi, -8(%rax)
 5218 2aae 89D0     		movl	%edx, %eax
 5219 2ab0 EBCC     		jmp	.L724
 5220              	.L728:
 5221 2ab2 8B50F8   		movl	-8(%rax), %edx
 5222 2ab5 8D72FF   		leal	-1(%rdx), %esi
 5223 2ab8 8970F8   		movl	%esi, -8(%rax)
 5224 2abb 89D0     		movl	%edx, %eax
 5225 2abd EB8F     		jmp	.L729
 5226              	.L791:
 5227 2abf BA000000 		movl	$_ZL28__gthrw___pthread_key_createPjPFvPvE, %edx
 5227      00
 5228 2ac4 4885D2   		testq	%rdx, %rdx
 5229 2ac7 7423     		je	.L740
 5230 2ac9 BAFFFFFF 		movl	$-1, %edx
 5230      FF
 5231 2ace F00FC150 		lock xaddl	%edx, -8(%rax)
 5231      F8
 5232 2ad3 89D0     		movl	%edx, %eax
 5233              	.L741:
 5234 2ad5 85C0     		testl	%eax, %eax
 5235 2ad7 0F8F74FE 		jg	.L739
 5235      FFFF
 5236 2add 488D7424 		leaq	16(%rsp), %rsi
 5236      10
 5237 2ae2 E8000000 		call	_ZNSs4_Rep10_M_destroyERKSaIcE
 5237      00
 5238 2ae7 E965FEFF 		jmp	.L739
 5238      FF
 5239              	.L740:
 5240 2aec 8B50F8   		movl	-8(%rax), %edx
 5241 2aef 8D4AFF   		leal	-1(%rdx), %ecx
 5242 2af2 8948F8   		movl	%ecx, -8(%rax)
 5243 2af5 89D0     		movl	%edx, %eax
 5244 2af7 EBDC     		jmp	.L741
 5245              	.L767:
 5246 2af9 488D7C24 		leaq	48(%rsp), %rdi
 5246      30
 5247 2afe 4889C3   		movq	%rax, %rbx
 5248 2b01 4889D5   		movq	%rdx, %rbp
 5249 2b04 E8000000 		call	_ZNSt19basic_ostringstreamIcSt11char_traitsIcESaIcEED1Ev
 5249      00
 5250 2b09 4889DF   		movq	%rbx, %rdi
 5251 2b0c 4889EA   		movq	%rbp, %rdx
 5252 2b0f BB010000 		movl	$1, %ebx
 5252      00
 5253              	.L704:
 5254 2b14 4883FA01 		cmpq	$1, %rdx
 5255 2b18 0F84E800 		je	.L749
 5255      0000
 5256 2b1e 4883FA02 		cmpq	$2, %rdx
 5257 2b22 0F859D00 		jne	.L794
 5257      0000
 5258 2b28 E8000000 		call	__cxa_begin_catch
 5258      00
 5259 2b2d 488D7C24 		leaq	48(%rsp), %rdi
 5259      30
 5260 2b32 4889C3   		movq	%rax, %rbx
 5261              	.LEHB129:
 5262 2b35 E8000000 		call	_ZN8UnitTest15MemoryOutStreamC1Ev
 5262      00
 5263              	.LEHE129:
 5264 2b3a 488B03   		movq	(%rbx), %rax
 5265 2b3d 4889DF   		movq	%rbx, %rdi
 5266 2b40 FF5010   		call	*16(%rax)
 5267 2b43 488D7C24 		leaq	48(%rsp), %rdi
 5267      30
 5268 2b48 BE000000 		movl	$.LC32, %esi
 5268      00
 5269 2b4d 4889C3   		movq	%rax, %rbx
 5270              	.LEHB130:
 5271 2b50 E8000000 		call	_ZStlsISt11char_traitsIcEERSt13basic_ostreamIcT_ES5_PKc
 5271      00
 5272 2b55 4889C7   		movq	%rax, %rdi
 5273 2b58 4889DE   		movq	%rbx, %rsi
 5274 2b5b E8000000 		call	_ZStlsISt11char_traitsIcEERSt13basic_ostreamIcT_ES5_PKc
 5274      00
 5275 2b60 488D7C24 		leaq	48(%rsp), %rdi
 5275      30
 5276 2b65 E8000000 		call	_ZNK8UnitTest15MemoryOutStream7GetTextEv
 5276      00
 5277 2b6a 4889C3   		movq	%rax, %rbx
 5278 2b6d E8000000 		call	_ZN8UnitTest11CurrentTest7ResultsEv
 5278      00
 5279 2b72 488B38   		movq	(%rax), %rdi
 5280 2b75 4889DA   		movq	%rbx, %rdx
 5281 2b78 4C89EE   		movq	%r13, %rsi
 5282 2b7b E8000000 		call	_ZN8UnitTest11TestResults13OnTestFailureERKNS_11TestDetailsEPKc
 5282      00
 5283              	.LEHE130:
 5284 2b80 488D7C24 		leaq	48(%rsp), %rdi
 5284      30
 5285              	.LEHB131:
 5286 2b85 E8000000 		call	_ZN8UnitTest15MemoryOutStreamD1Ev
 5286      00
 5287              	.LEHE131:
 5288              	.L782:
 5289 2b8a E8000000 		call	__cxa_end_catch
 5289      00
 5290 2b8f E900FEFF 		jmp	.L700
 5290      FF
 5291              	.L792:
 5292 2b94 E8000000 		call	__stack_chk_fail
 5292      00
 5293              	.L758:
 5294 2b99 4889C7   		movq	%rax, %rdi
 5295 2b9c BB010000 		movl	$1, %ebx
 5295      00
 5296 2ba1 E96EFFFF 		jmp	.L704
 5296      FF
 5297              	.L762:
 5298 2ba6 488D7C24 		leaq	48(%rsp), %rdi
 5298      30
 5299 2bab 4889C3   		movq	%rax, %rbx
 5300 2bae E8000000 		call	_ZN8UnitTest15MemoryOutStreamD1Ev
 5300      00
 5301              	.L753:
 5302 2bb3 E8000000 		call	__cxa_end_catch
 5302      00
 5303 2bb8 4889DF   		movq	%rbx, %rdi
 5304              	.LEHB132:
 5305 2bbb E8000000 		call	_Unwind_Resume
 5305      00
 5306              	.LEHE132:
 5307              	.L761:
 5308              	.L783:
 5309 2bc0 4889C3   		movq	%rax, %rbx
 5310 2bc3 EBEE     		jmp	.L753
 5311              	.L794:
 5312 2bc5 E8000000 		call	__cxa_begin_catch
 5312      00
 5313 2bca 84DB     		testb	%bl, %bl
 5314 2bcc 488D5C24 		leaq	16(%rsp), %rbx
 5314      10
 5315 2bd1 BA870000 		movl	$135, %edx
 5315      00
 5316 2bd6 4C89EE   		movq	%r13, %rsi
 5317 2bd9 4889DF   		movq	%rbx, %rdi
 5318 2bdc 0F849300 		je	.L755
 5318      0000
 5319              	.LEHB133:
 5320 2be2 E8000000 		call	_ZN8UnitTest11TestDetailsC1ERKS0_i
 5320      00
 5321 2be7 E8000000 		call	_ZN8UnitTest11CurrentTest7ResultsEv
 5321      00
 5322 2bec 488B38   		movq	(%rax), %rdi
 5323 2bef BA000000 		movl	$.LC36, %edx
 5323      00
 5324 2bf4 4889DE   		movq	%rbx, %rsi
 5325 2bf7 E8000000 		call	_ZN8UnitTest11TestResults13OnTestFailureERKNS_11TestDetailsEPKc
 5325      00
 5326              	.LEHE133:
 5327              	.L756:
 5328              	.LEHB134:
