   1              		.file	"core.c"
   2              		.section	.rodata.str1.8,"aMS",@progbits,1
   3              		.align 8
   4              	.LC0:
   5 0000 43616E6E 		.string	"Cannot allocate memory for buffer"
   5      6F742061 
   5      6C6C6F63 
   5      61746520 
   5      6D656D6F 
   6              		.section	.text.unlikely,"ax",@progbits
   7              	.LCOLDB1:
   8              		.text
   9              	.LHOTB1:
  10              		.p2align 4,,15
  11              		.globl	bufInitialise
  13              	bufInitialise:
  14              	.LFB47:
  15              		.cfi_startproc
  16 0000 4156     		pushq	%r14
  17              		.cfi_def_cfa_offset 16
  18              		.cfi_offset 14, -16
  19 0002 4155     		pushq	%r13
  20              		.cfi_def_cfa_offset 24
  21              		.cfi_offset 13, -24
  22 0004 4989CE   		movq	%rcx, %r14
  23 0007 4154     		pushq	%r12
  24              		.cfi_def_cfa_offset 32
  25              		.cfi_offset 12, -32
  26 0009 55       		pushq	%rbp
  27              		.cfi_def_cfa_offset 40
  28              		.cfi_offset 6, -40
  29 000a 4889FD   		movq	%rdi, %rbp
  30 000d 53       		pushq	%rbx
  31              		.cfi_def_cfa_offset 48
  32              		.cfi_offset 3, -48
  33 000e 89F3     		movl	%esi, %ebx
  34 0010 885510   		movb	%dl, 16(%rbp)
  35 0013 4889DF   		movq	%rbx, %rdi
  36 0016 4189D5   		movl	%edx, %r13d
  37 0019 E8000000 		call	malloc@PLT
  37      00
  38 001e 4885C0   		testq	%rax, %rax
  39 0021 48894500 		movq	%rax, 0(%rbp)
  40 0025 7439     		je	.L8
  41 0027 4989DC   		movq	%rbx, %r12
  42 002a 4801C3   		addq	%rax, %rbx
  43 002d 4839D8   		cmpq	%rbx, %rax
  44 0030 7312     		jnb	.L5
  45 0032 4889DA   		movq	%rbx, %rdx
  46 0035 410FB6F5 		movzbl	%r13b, %esi
  47 0039 4889C7   		movq	%rax, %rdi
  48 003c 4829C2   		subq	%rax, %rdx
  49 003f E8000000 		call	memset@PLT
  49      00
  50              	.L5:
  51 0044 4489650C 		movl	%r12d, 12(%rbp)
  52 0048 C7450800 		movl	$0, 8(%rbp)
  52      000000
  53 004f 31C0     		xorl	%eax, %eax
  54              	.L3:
  55 0051 5B       		popq	%rbx
  56              		.cfi_remember_state
  57              		.cfi_def_cfa_offset 40
  58 0052 5D       		popq	%rbp
  59              		.cfi_def_cfa_offset 32
  60 0053 415C     		popq	%r12
  61              		.cfi_def_cfa_offset 24
  62 0055 415D     		popq	%r13
  63              		.cfi_def_cfa_offset 16
  64 0057 415E     		popq	%r14
  65              		.cfi_def_cfa_offset 8
  66 0059 C3       		ret
  67 005a 660F1F44 		.p2align 4,,10
  67      0000
  68              		.p2align 3
  69              	.L8:
  70              		.cfi_restore_state
  71 0060 488D3500 		leaq	.LC0(%rip), %rsi
  71      000000
  72 0067 4C89F7   		movq	%r14, %rdi
  73 006a E8000000 		call	errRender@PLT
  73      00
  74 006f B8010000 		movl	$1, %eax
  74      00
  75 0074 EBDB     		jmp	.L3
  76              		.cfi_endproc
  77              	.LFE47:
  79              		.section	.text.unlikely
  80              	.LCOLDE1:
  81              		.text
  82              	.LHOTE1:
  83              		.section	.text.unlikely
  84              	.LCOLDB2:
  85              		.text
  86              	.LHOTB2:
  87 0076 662E0F1F 		.p2align 4,,15
  87      84000000 
  87      0000
  88              		.globl	bufDestroy
  90              	bufDestroy:
  91              	.LFB48:
  92              		.cfi_startproc
  93 0080 53       		pushq	%rbx
  94              		.cfi_def_cfa_offset 16
  95              		.cfi_offset 3, -16
  96 0081 4889FB   		movq	%rdi, %rbx
  97 0084 488B3F   		movq	(%rdi), %rdi
  98 0087 E8000000 		call	free@PLT
  98      00
  99 008c 48C70300 		movq	$0, (%rbx)
  99      000000
 100 0093 C7430C00 		movl	$0, 12(%rbx)
 100      000000
 101 009a C7430800 		movl	$0, 8(%rbx)
 101      000000
 102 00a1 C6431000 		movb	$0, 16(%rbx)
 103 00a5 5B       		popq	%rbx
 104              		.cfi_def_cfa_offset 8
 105 00a6 C3       		ret
 106              		.cfi_endproc
 107              	.LFE48:
 109              		.section	.text.unlikely
 110              	.LCOLDE2:
 111              		.text
 112              	.LHOTE2:
 113              		.section	.text.unlikely
 114              	.LCOLDB3:
 115              		.text
 116              	.LHOTB3:
 117 00a7 660F1F84 		.p2align 4,,15
 117      00000000 
 117      00
 118              		.globl	bufDeepCopy
 120              	bufDeepCopy:
 121              	.LFB49:
 122              		.cfi_startproc
 123 00b0 4154     		pushq	%r12
 124              		.cfi_def_cfa_offset 16
 125              		.cfi_offset 12, -16
 126 00b2 55       		pushq	%rbp
 127              		.cfi_def_cfa_offset 24
 128              		.cfi_offset 6, -24
 129 00b3 4989D4   		movq	%rdx, %r12
 130 00b6 53       		pushq	%rbx
 131              		.cfi_def_cfa_offset 32
 132              		.cfi_offset 3, -32
 133 00b7 4889FB   		movq	%rdi, %rbx
 134 00ba 488B3F   		movq	(%rdi), %rdi
 135 00bd 4889F5   		movq	%rsi, %rbp
 136 00c0 4885FF   		testq	%rdi, %rdi
 137 00c3 0F845F03 		je	.L15
 137      0000
 138 00c9 8B460C   		movl	12(%rsi), %eax
 139 00cc 39430C   		cmpl	%eax, 12(%rbx)
 140 00cf 0F823B03 		jb	.L83
 140      0000
 141              	.L14:
 142 00d5 8B5508   		movl	8(%rbp), %edx
 143 00d8 0FB64510 		movzbl	16(%rbp), %eax
 144 00dc 488B7500 		movq	0(%rbp), %rsi
 145 00e0 895308   		movl	%edx, 8(%rbx)
 146 00e3 884310   		movb	%al, 16(%rbx)
 147 00e6 E8000000 		call	memcpy@PLT
 147      00
 148 00eb 448B4B08 		movl	8(%rbx), %r9d
 149 00ef 4C8B1B   		movq	(%rbx), %r11
 150 00f2 8B7B0C   		movl	12(%rbx), %edi
 151 00f5 4B8D140B 		leaq	(%r11,%r9), %rdx
 152 00f9 4C01DF   		addq	%r11, %rdi
 153 00fc 4839FA   		cmpq	%rdi, %rdx
 154 00ff 0F83D602 		jnb	.L26
 154      0000
 155 0105 488D7201 		leaq	1(%rdx), %rsi
 156 0109 4989FA   		movq	%rdi, %r10
 157 010c 488D6B10 		leaq	16(%rbx), %rbp
 158 0110 4929F2   		subq	%rsi, %r10
 159 0113 4889F0   		movq	%rsi, %rax
 160 0116 4B8D4C0A 		leaq	1(%r10,%r9), %rcx
 160      01
 161 011b 4D8D4201 		leaq	1(%r10), %r8
 162 011f 4C01D9   		addq	%r11, %rcx
 163 0122 4839E9   		cmpq	%rbp, %rcx
 164 0125 488D4B11 		leaq	17(%rbx), %rcx
 165 0129 400F96C5 		setbe	%bpl
 166 012d 4839CA   		cmpq	%rcx, %rdx
 167 0130 0F93C1   		setnb	%cl
 168 0133 4008CD   		orb	%cl, %bpl
 169 0136 0F84B002 		je	.L27
 169      0000
 170 013c 4983F816 		cmpq	$22, %r8
 171 0140 0F86A602 		jbe	.L27
 171      0000
 172 0146 4889D6   		movq	%rdx, %rsi
 173 0149 48F7DE   		negq	%rsi
 174 014c 83E60F   		andl	$15, %esi
 175 014f 4939F0   		cmpq	%rsi, %r8
 176 0152 4889F1   		movq	%rsi, %rcx
 177 0155 490F46C8 		cmovbe	%r8, %rcx
 178 0159 4885C9   		testq	%rcx, %rcx
 179 015c 0F849E02 		je	.L29
 179      0000
 180 0162 0FB67310 		movzbl	16(%rbx), %esi
 181 0166 4883F901 		cmpq	$1, %rcx
 182 016a 408832   		movb	%sil, (%rdx)
 183 016d 0F840E01 		je	.L19
 183      0000
 184 0173 0FB67310 		movzbl	16(%rbx), %esi
 185 0177 4883F902 		cmpq	$2, %rcx
 186 017b 488D4202 		leaq	2(%rdx), %rax
 187 017f 40887201 		movb	%sil, 1(%rdx)
 188 0183 0F84F800 		je	.L19
 188      0000
 189 0189 0FB67310 		movzbl	16(%rbx), %esi
 190 018d 4883F903 		cmpq	$3, %rcx
 191 0191 488D4203 		leaq	3(%rdx), %rax
 192 0195 40887202 		movb	%sil, 2(%rdx)
 193 0199 0F84E200 		je	.L19
 193      0000
 194 019f 0FB67310 		movzbl	16(%rbx), %esi
 195 01a3 4883F904 		cmpq	$4, %rcx
 196 01a7 488D4204 		leaq	4(%rdx), %rax
 197 01ab 40887203 		movb	%sil, 3(%rdx)
 198 01af 0F84CC00 		je	.L19
 198      0000
 199 01b5 0FB67310 		movzbl	16(%rbx), %esi
 200 01b9 4883F905 		cmpq	$5, %rcx
 201 01bd 488D4205 		leaq	5(%rdx), %rax
 202 01c1 40887204 		movb	%sil, 4(%rdx)
 203 01c5 0F84B600 		je	.L19
 203      0000
 204 01cb 0FB67310 		movzbl	16(%rbx), %esi
 205 01cf 4883F906 		cmpq	$6, %rcx
 206 01d3 488D4206 		leaq	6(%rdx), %rax
 207 01d7 40887205 		movb	%sil, 5(%rdx)
 208 01db 0F84A000 		je	.L19
 208      0000
 209 01e1 0FB67310 		movzbl	16(%rbx), %esi
 210 01e5 4883F907 		cmpq	$7, %rcx
 211 01e9 488D4207 		leaq	7(%rdx), %rax
 212 01ed 40887206 		movb	%sil, 6(%rdx)
 213 01f1 0F848A00 		je	.L19
 213      0000
 214 01f7 0FB67310 		movzbl	16(%rbx), %esi
 215 01fb 4883F908 		cmpq	$8, %rcx
 216 01ff 488D4208 		leaq	8(%rdx), %rax
 217 0203 40887207 		movb	%sil, 7(%rdx)
 218 0207 7478     		je	.L19
 219 0209 0FB67310 		movzbl	16(%rbx), %esi
 220 020d 4883F909 		cmpq	$9, %rcx
 221 0211 488D4209 		leaq	9(%rdx), %rax
 222 0215 40887208 		movb	%sil, 8(%rdx)
 223 0219 7466     		je	.L19
 224 021b 0FB67310 		movzbl	16(%rbx), %esi
 225 021f 4883F90A 		cmpq	$10, %rcx
 226 0223 488D420A 		leaq	10(%rdx), %rax
 227 0227 40887209 		movb	%sil, 9(%rdx)
 228 022b 7454     		je	.L19
 229 022d 0FB67310 		movzbl	16(%rbx), %esi
 230 0231 4883F90B 		cmpq	$11, %rcx
 231 0235 488D420B 		leaq	11(%rdx), %rax
 232 0239 4088720A 		movb	%sil, 10(%rdx)
 233 023d 7442     		je	.L19
 234 023f 0FB67310 		movzbl	16(%rbx), %esi
 235 0243 4883F90C 		cmpq	$12, %rcx
 236 0247 488D420C 		leaq	12(%rdx), %rax
 237 024b 4088720B 		movb	%sil, 11(%rdx)
 238 024f 7430     		je	.L19
 239 0251 0FB67310 		movzbl	16(%rbx), %esi
 240 0255 4883F90D 		cmpq	$13, %rcx
 241 0259 488D420D 		leaq	13(%rdx), %rax
 242 025d 4088720C 		movb	%sil, 12(%rdx)
 243 0261 741E     		je	.L19
 244 0263 0FB67310 		movzbl	16(%rbx), %esi
 245 0267 4883F90F 		cmpq	$15, %rcx
 246 026b 488D420E 		leaq	14(%rdx), %rax
 247 026f 4088720D 		movb	%sil, 13(%rdx)
 248 0273 750C     		jne	.L19
 249 0275 0FB67310 		movzbl	16(%rbx), %esi
 250 0279 488D420F 		leaq	15(%rdx), %rax
 251 027d 4088720E 		movb	%sil, 14(%rdx)
 252              	.L19:
 253 0281 4929C8   		subq	%rcx, %r8
 254 0284 4C89D2   		movq	%r10, %rdx
 255 0287 498D70F0 		leaq	-16(%r8), %rsi
 256 028b 4829CA   		subq	%rcx, %rdx
 257 028e 48C1EE04 		shrq	$4, %rsi
 258 0292 4883C601 		addq	$1, %rsi
 259 0296 4889F5   		movq	%rsi, %rbp
 260 0299 48C1E504 		salq	$4, %rbp
 261 029d 4883FA0E 		cmpq	$14, %rdx
 262 02a1 763A     		jbe	.L21
 263 02a3 0FB65310 		movzbl	16(%rbx), %edx
 264 02a7 4C01C9   		addq	%r9, %rcx
 265 02aa 4C01D9   		addq	%r11, %rcx
 266 02ad 660F6EC2 		movd	%edx, %xmm0
 267 02b1 31D2     		xorl	%edx, %edx
 268 02b3 660F60C0 		punpcklbw	%xmm0, %xmm0
 269 02b7 660F61C0 		punpcklwd	%xmm0, %xmm0
 270 02bb 660F70C0 		pshufd	$0, %xmm0, %xmm0
 270      00
 271              	.L22:
 272 02c0 4883C201 		addq	$1, %rdx
 273 02c4 4883C110 		addq	$16, %rcx
 274 02c8 0F2941F0 		movaps	%xmm0, -16(%rcx)
 275 02cc 4839D6   		cmpq	%rdx, %rsi
 276 02cf 77EF     		ja	.L22
 277 02d1 4801E8   		addq	%rbp, %rax
 278 02d4 4939E8   		cmpq	%rbp, %r8
 279 02d7 0F84FE00 		je	.L26
 279      0000
 280              	.L21:
 281 02dd 0FB65310 		movzbl	16(%rbx), %edx
 282 02e1 8810     		movb	%dl, (%rax)
 283 02e3 488D5001 		leaq	1(%rax), %rdx
 284 02e7 4839D7   		cmpq	%rdx, %rdi
 285 02ea 0F86EB00 		jbe	.L26
 285      0000
 286 02f0 0FB65310 		movzbl	16(%rbx), %edx
 287 02f4 885001   		movb	%dl, 1(%rax)
 288 02f7 488D5002 		leaq	2(%rax), %rdx
 289 02fb 4839D7   		cmpq	%rdx, %rdi
 290 02fe 0F86D700 		jbe	.L26
 290      0000
 291 0304 0FB65310 		movzbl	16(%rbx), %edx
 292 0308 885002   		movb	%dl, 2(%rax)
 293 030b 488D5003 		leaq	3(%rax), %rdx
 294 030f 4839D7   		cmpq	%rdx, %rdi
 295 0312 0F86C300 		jbe	.L26
 295      0000
 296 0318 0FB65310 		movzbl	16(%rbx), %edx
 297 031c 885003   		movb	%dl, 3(%rax)
 298 031f 488D5004 		leaq	4(%rax), %rdx
 299 0323 4839D7   		cmpq	%rdx, %rdi
 300 0326 0F86AF00 		jbe	.L26
 300      0000
 301 032c 0FB65310 		movzbl	16(%rbx), %edx
 302 0330 885004   		movb	%dl, 4(%rax)
 303 0333 488D5005 		leaq	5(%rax), %rdx
 304 0337 4839D7   		cmpq	%rdx, %rdi
 305 033a 0F869B00 		jbe	.L26
 305      0000
 306 0340 0FB65310 		movzbl	16(%rbx), %edx
 307 0344 885005   		movb	%dl, 5(%rax)
 308 0347 488D5006 		leaq	6(%rax), %rdx
 309 034b 4839D7   		cmpq	%rdx, %rdi
 310 034e 0F868700 		jbe	.L26
 310      0000
 311 0354 0FB65310 		movzbl	16(%rbx), %edx
 312 0358 885006   		movb	%dl, 6(%rax)
 313 035b 488D5007 		leaq	7(%rax), %rdx
 314 035f 4839D7   		cmpq	%rdx, %rdi
 315 0362 7677     		jbe	.L26
 316 0364 0FB65310 		movzbl	16(%rbx), %edx
 317 0368 885007   		movb	%dl, 7(%rax)
 318 036b 488D5008 		leaq	8(%rax), %rdx
 319 036f 4839D7   		cmpq	%rdx, %rdi
 320 0372 7667     		jbe	.L26
 321 0374 0FB65310 		movzbl	16(%rbx), %edx
 322 0378 885008   		movb	%dl, 8(%rax)
 323 037b 488D5009 		leaq	9(%rax), %rdx
 324 037f 4839D7   		cmpq	%rdx, %rdi
 325 0382 7657     		jbe	.L26
 326 0384 0FB65310 		movzbl	16(%rbx), %edx
 327 0388 885009   		movb	%dl, 9(%rax)
 328 038b 488D500A 		leaq	10(%rax), %rdx
 329 038f 4839D7   		cmpq	%rdx, %rdi
 330 0392 7647     		jbe	.L26
 331 0394 0FB65310 		movzbl	16(%rbx), %edx
 332 0398 88500A   		movb	%dl, 10(%rax)
 333 039b 488D500B 		leaq	11(%rax), %rdx
 334 039f 4839D7   		cmpq	%rdx, %rdi
 335 03a2 7637     		jbe	.L26
 336 03a4 0FB65310 		movzbl	16(%rbx), %edx
 337 03a8 88500B   		movb	%dl, 11(%rax)
 338 03ab 488D500C 		leaq	12(%rax), %rdx
 339 03af 4839D7   		cmpq	%rdx, %rdi
 340 03b2 7627     		jbe	.L26
 341 03b4 0FB65310 		movzbl	16(%rbx), %edx
 342 03b8 88500C   		movb	%dl, 12(%rax)
 343 03bb 488D500D 		leaq	13(%rax), %rdx
 344 03bf 4839D7   		cmpq	%rdx, %rdi
 345 03c2 7617     		jbe	.L26
 346 03c4 0FB65310 		movzbl	16(%rbx), %edx
 347 03c8 88500D   		movb	%dl, 13(%rax)
 348 03cb 488D500E 		leaq	14(%rax), %rdx
 349 03cf 4839D7   		cmpq	%rdx, %rdi
 350 03d2 7607     		jbe	.L26
 351 03d4 0FB65310 		movzbl	16(%rbx), %edx
 352 03d8 88500E   		movb	%dl, 14(%rax)
 353              	.L26:
 354 03db 31C0     		xorl	%eax, %eax
 355              	.L16:
 356 03dd 5B       		popq	%rbx
 357              		.cfi_remember_state
 358              		.cfi_def_cfa_offset 24
 359 03de 5D       		popq	%rbp
 360              		.cfi_def_cfa_offset 16
 361 03df 415C     		popq	%r12
 362              		.cfi_def_cfa_offset 8
 363 03e1 C3       		ret
 364              		.p2align 4,,10
 365 03e2 660F1F44 		.p2align 3
 365      0000
 366              	.L84:
 367              		.cfi_restore_state
 368 03e8 4883C601 		addq	$1, %rsi
 369              	.L27:
 370 03ec 0FB64310 		movzbl	16(%rbx), %eax
 371 03f0 4839FE   		cmpq	%rdi, %rsi
 372 03f3 8846FF   		movb	%al, -1(%rsi)
 373 03f6 75F0     		jne	.L84
 374 03f8 EBE1     		jmp	.L26
 375 03fa 660F1F44 		.p2align 4,,10
 375      0000
 376              		.p2align 3
 377              	.L29:
 378 0400 4889D0   		movq	%rdx, %rax
 379 0403 E979FEFF 		jmp	.L19
 379      FF
 380 0408 0F1F8400 		.p2align 4,,10
 380      00000000 
 381              		.p2align 3
 382              	.L83:
 383 0410 4889DF   		movq	%rbx, %rdi
 384 0413 E8000000 		call	bufDestroy@PLT
 384      00
 385 0418 488B3B   		movq	(%rbx), %rdi
 386 041b 4885FF   		testq	%rdi, %rdi
 387 041e 0F85B1FC 		jne	.L14
 387      FFFF
 388              		.p2align 4,,10
 389 0424 0F1F4000 		.p2align 3
 390              	.L15:
 391 0428 8B7D0C   		movl	12(%rbp), %edi
 392 042b 897B0C   		movl	%edi, 12(%rbx)
 393 042e E8000000 		call	malloc@PLT
 393      00
 394 0433 4885C0   		testq	%rax, %rax
 395 0436 488903   		movq	%rax, (%rbx)
 396 0439 7408     		je	.L13
 397 043b 4889C7   		movq	%rax, %rdi
 398 043e E992FCFF 		jmp	.L14
 398      FF
 399              	.L13:
 400 0443 488D3500 		leaq	.LC0(%rip), %rsi
 400      000000
 401 044a 31C0     		xorl	%eax, %eax
 402 044c 4C89E7   		movq	%r12, %rdi
 403 044f E8000000 		call	errRender@PLT
 403      00
 404 0454 B8010000 		movl	$1, %eax
 404      00
 405 0459 EB82     		jmp	.L16
 406              		.cfi_endproc
 407              	.LFE49:
 409              		.section	.text.unlikely
 410              	.LCOLDE3:
 411              		.text
 412              	.LHOTE3:
 413              		.section	.text.unlikely
 414              	.LCOLDB4:
 415              		.text
 416              	.LHOTB4:
 417 045b 0F1F4400 		.p2align 4,,15
 417      00
 418              		.globl	bufSwap
 420              	bufSwap:
 421              	.LFB50:
 422              		.cfi_startproc
 423 0460 4C8B0E   		movq	(%rsi), %r9
 424 0463 4C8B07   		movq	(%rdi), %r8
 425 0466 8B4F08   		movl	8(%rdi), %ecx
 426 0469 8B570C   		movl	12(%rdi), %edx
 427 046c 0FB64710 		movzbl	16(%rdi), %eax
 428 0470 4C890F   		movq	%r9, (%rdi)
 429 0473 448B4E08 		movl	8(%rsi), %r9d
 430 0477 44894F08 		movl	%r9d, 8(%rdi)
 431 047b 448B4E0C 		movl	12(%rsi), %r9d
 432 047f 44894F0C 		movl	%r9d, 12(%rdi)
 433 0483 440FB64E 		movzbl	16(%rsi), %r9d
 433      10
 434 0488 44884F10 		movb	%r9b, 16(%rdi)
 435 048c 4C8906   		movq	%r8, (%rsi)
 436 048f 894E08   		movl	%ecx, 8(%rsi)
 437 0492 89560C   		movl	%edx, 12(%rsi)
 438 0495 884610   		movb	%al, 16(%rsi)
 439 0498 C3       		ret
 440              		.cfi_endproc
 441              	.LFE50:
 443              		.section	.text.unlikely
 444              	.LCOLDE4:
 445              		.text
 446              	.LHOTE4:
 447              		.section	.text.unlikely
 448              	.LCOLDB5:
 449              		.text
 450              	.LHOTB5:
 451 0499 0F1F8000 		.p2align 4,,15
 451      000000
 452              		.globl	bufZeroLength
 454              	bufZeroLength:
 455              	.LFB51:
 456              		.cfi_startproc
 457 04a0 8B570C   		movl	12(%rdi), %edx
 458 04a3 31C0     		xorl	%eax, %eax
 459 04a5 C7470800 		movl	$0, 8(%rdi)
 459      000000
 460 04ac 85D2     		testl	%edx, %edx
 461 04ae 7415     		je	.L86
 462              		.p2align 4,,10
 463              		.p2align 3
 464              	.L90:
 465 04b0 0FB67710 		movzbl	16(%rdi), %esi
 466 04b4 488B0F   		movq	(%rdi), %rcx
 467 04b7 89C2     		movl	%eax, %edx
 468 04b9 83C001   		addl	$1, %eax
 469 04bc 40883411 		movb	%sil, (%rcx,%rdx)
 470 04c0 39470C   		cmpl	%eax, 12(%rdi)
 471 04c3 77EB     		ja	.L90
 472              	.L86:
 473 04c5 F3C3     		rep ret
 474              		.cfi_endproc
 475              	.LFE51:
 477              		.section	.text.unlikely
 478              	.LCOLDE5:
 479              		.text
 480              	.LHOTE5:
 481              		.section	.rodata.str1.8
 482 0022 00000000 		.align 8
 482      0000
 483              	.LC6:
 484 0028 43616E6E 		.string	"Cannot reallocate memory for buffer"
 484      6F742072 
 484      65616C6C 
 484      6F636174 
 484      65206D65 
 485              		.section	.text.unlikely
 486              	.LCOLDB7:
 487              		.text
 488              	.LHOTB7:
 489 04c7 660F1F84 		.p2align 4,,15
 489      00000000 
 489      00
 490              		.globl	bufAppendByte
 492              	bufAppendByte:
 493              	.LFB53:
 494              		.cfi_startproc
 495 04d0 4156     		pushq	%r14
 496              		.cfi_def_cfa_offset 16
 497              		.cfi_offset 14, -16
 498 04d2 4155     		pushq	%r13
 499              		.cfi_def_cfa_offset 24
 500              		.cfi_offset 13, -24
 501 04d4 4189F5   		movl	%esi, %r13d
 502 04d7 4154     		pushq	%r12
 503              		.cfi_def_cfa_offset 32
 504              		.cfi_offset 12, -32
 505 04d9 55       		pushq	%rbp
 506              		.cfi_def_cfa_offset 40
 507              		.cfi_offset 6, -40
 508 04da 4889FD   		movq	%rdi, %rbp
 509 04dd 53       		pushq	%rbx
 510              		.cfi_def_cfa_offset 48
 511              		.cfi_offset 3, -48
 512 04de 4883EC10 		subq	$16, %rsp
 513              		.cfi_def_cfa_offset 64
 514 04e2 8B4F08   		movl	8(%rdi), %ecx
 515 04e5 8B5F0C   		movl	12(%rdi), %ebx
 516 04e8 448D6101 		leal	1(%rcx), %r12d
 517 04ec 4139DC   		cmpl	%ebx, %r12d
 518 04ef 771F     		ja	.L95
 519 04f1 488B07   		movq	(%rdi), %rax
 520              	.L94:
 521 04f4 44882C08 		movb	%r13b, (%rax,%rcx)
 522 04f8 83450801 		addl	$1, 8(%rbp)
 523 04fc 31C0     		xorl	%eax, %eax
 524              	.L97:
 525 04fe 4883C410 		addq	$16, %rsp
 526              		.cfi_remember_state
 527              		.cfi_def_cfa_offset 48
 528 0502 5B       		popq	%rbx
 529              		.cfi_def_cfa_offset 40
 530 0503 5D       		popq	%rbp
 531              		.cfi_def_cfa_offset 32
 532 0504 415C     		popq	%r12
 533              		.cfi_def_cfa_offset 24
 534 0506 415D     		popq	%r13
 535              		.cfi_def_cfa_offset 16
 536 0508 415E     		popq	%r14
 537              		.cfi_def_cfa_offset 8
 538 050a C3       		ret
 539 050b 0F1F4400 		.p2align 4,,10
 539      00
 540              		.p2align 3
 541              	.L95:
 542              		.cfi_restore_state
 543 0510 01DB     		addl	%ebx, %ebx
 544 0512 4139DC   		cmpl	%ebx, %r12d
 545 0515 77F9     		ja	.L95
 546 0517 488B7D00 		movq	0(%rbp), %rdi
 547 051b 4189DE   		movl	%ebx, %r14d
 548 051e 48895424 		movq	%rdx, 8(%rsp)
 548      08
 549 0523 4C89F6   		movq	%r14, %rsi
 550 0526 E8000000 		call	realloc@PLT
 550      00
 551 052b 4885C0   		testq	%rax, %rax
 552 052e 48894500 		movq	%rax, 0(%rbp)
 553 0532 488B5424 		movq	8(%rsp), %rdx
 553      08
 554 0537 0F841D03 		je	.L164
 554      0000
 555 053d 4A8D1420 		leaq	(%rax,%r12), %rdx
 556 0541 4A8D3430 		leaq	(%rax,%r14), %rsi
 557 0545 895D0C   		movl	%ebx, 12(%rbp)
 558 0548 4839F2   		cmpq	%rsi, %rdx
 559 054b 0F83EA02 		jnb	.L162
 559      0000
 560 0551 488D4A01 		leaq	1(%rdx), %rcx
 561 0555 4989F1   		movq	%rsi, %r9
 562 0558 4C8D5D10 		leaq	16(%rbp), %r11
 563 055c 4929C9   		subq	%rcx, %r9
 564 055f 4889CF   		movq	%rcx, %rdi
 565 0562 4F8D540C 		leaq	1(%r12,%r9), %r10
 565      01
 566 0567 4D8D4101 		leaq	1(%r9), %r8
 567 056b 4901C2   		addq	%rax, %r10
 568 056e 4D39D3   		cmpq	%r10, %r11
 569 0571 4C8D5511 		leaq	17(%rbp), %r10
 570 0575 410F93C3 		setnb	%r11b
 571 0579 4C39D2   		cmpq	%r10, %rdx
 572 057c 410F93C2 		setnb	%r10b
 573 0580 4508D3   		orb	%r10b, %r11b
 574 0583 0F84C302 		je	.L107
 574      0000
 575 0589 4983F816 		cmpq	$22, %r8
 576 058d 0F86B902 		jbe	.L107
 576      0000
 577 0593 4889D1   		movq	%rdx, %rcx
 578 0596 48F7D9   		negq	%rcx
 579 0599 83E10F   		andl	$15, %ecx
 580 059c 4939C8   		cmpq	%rcx, %r8
 581 059f 490F46C8 		cmovbe	%r8, %rcx
 582 05a3 4885C9   		testq	%rcx, %rcx
 583 05a6 0F843101 		je	.L100
 583      0000
 584 05ac 440FB655 		movzbl	16(%rbp), %r10d
 584      10
 585 05b1 4883F901 		cmpq	$1, %rcx
 586 05b5 448812   		movb	%r10b, (%rdx)
 587 05b8 0F841C01 		je	.L101
 587      0000
 588 05be 440FB655 		movzbl	16(%rbp), %r10d
 588      10
 589 05c3 4883F902 		cmpq	$2, %rcx
 590 05c7 488D7A02 		leaq	2(%rdx), %rdi
 591 05cb 44885201 		movb	%r10b, 1(%rdx)
 592 05cf 0F840501 		je	.L101
 592      0000
 593 05d5 440FB655 		movzbl	16(%rbp), %r10d
 593      10
 594 05da 4883F903 		cmpq	$3, %rcx
 595 05de 488D7A03 		leaq	3(%rdx), %rdi
 596 05e2 44885202 		movb	%r10b, 2(%rdx)
 597 05e6 0F84EE00 		je	.L101
 597      0000
 598 05ec 440FB655 		movzbl	16(%rbp), %r10d
 598      10
 599 05f1 4883F904 		cmpq	$4, %rcx
 600 05f5 488D7A04 		leaq	4(%rdx), %rdi
 601 05f9 44885203 		movb	%r10b, 3(%rdx)
 602 05fd 0F84D700 		je	.L101
 602      0000
 603 0603 440FB655 		movzbl	16(%rbp), %r10d
 603      10
 604 0608 4883F905 		cmpq	$5, %rcx
 605 060c 488D7A05 		leaq	5(%rdx), %rdi
 606 0610 44885204 		movb	%r10b, 4(%rdx)
 607 0614 0F84C000 		je	.L101
 607      0000
 608 061a 440FB655 		movzbl	16(%rbp), %r10d
 608      10
 609 061f 4883F906 		cmpq	$6, %rcx
 610 0623 488D7A06 		leaq	6(%rdx), %rdi
 611 0627 44885205 		movb	%r10b, 5(%rdx)
 612 062b 0F84A900 		je	.L101
 612      0000
 613 0631 440FB655 		movzbl	16(%rbp), %r10d
 613      10
 614 0636 4883F907 		cmpq	$7, %rcx
 615 063a 488D7A07 		leaq	7(%rdx), %rdi
 616 063e 44885206 		movb	%r10b, 6(%rdx)
 617 0642 0F849200 		je	.L101
 617      0000
 618 0648 440FB655 		movzbl	16(%rbp), %r10d
 618      10
 619 064d 4883F908 		cmpq	$8, %rcx
 620 0651 488D7A08 		leaq	8(%rdx), %rdi
 621 0655 44885207 		movb	%r10b, 7(%rdx)
 622 0659 747F     		je	.L101
 623 065b 440FB655 		movzbl	16(%rbp), %r10d
 623      10
 624 0660 4883F909 		cmpq	$9, %rcx
 625 0664 488D7A09 		leaq	9(%rdx), %rdi
 626 0668 44885208 		movb	%r10b, 8(%rdx)
 627 066c 746C     		je	.L101
 628 066e 440FB655 		movzbl	16(%rbp), %r10d
 628      10
 629 0673 4883F90A 		cmpq	$10, %rcx
 630 0677 488D7A0A 		leaq	10(%rdx), %rdi
 631 067b 44885209 		movb	%r10b, 9(%rdx)
 632 067f 7459     		je	.L101
 633 0681 440FB655 		movzbl	16(%rbp), %r10d
 633      10
 634 0686 4883F90B 		cmpq	$11, %rcx
 635 068a 488D7A0B 		leaq	11(%rdx), %rdi
 636 068e 4488520A 		movb	%r10b, 10(%rdx)
 637 0692 7446     		je	.L101
 638 0694 440FB655 		movzbl	16(%rbp), %r10d
 638      10
 639 0699 4883F90C 		cmpq	$12, %rcx
 640 069d 488D7A0C 		leaq	12(%rdx), %rdi
 641 06a1 4488520B 		movb	%r10b, 11(%rdx)
 642 06a5 7433     		je	.L101
 643 06a7 440FB655 		movzbl	16(%rbp), %r10d
 643      10
 644 06ac 4883F90D 		cmpq	$13, %rcx
 645 06b0 488D7A0D 		leaq	13(%rdx), %rdi
 646 06b4 4488520C 		movb	%r10b, 12(%rdx)
 647 06b8 7420     		je	.L101
 648 06ba 440FB655 		movzbl	16(%rbp), %r10d
 648      10
 649 06bf 4883F90F 		cmpq	$15, %rcx
 650 06c3 488D7A0E 		leaq	14(%rdx), %rdi
 651 06c7 4488520D 		movb	%r10b, 13(%rdx)
 652 06cb 750D     		jne	.L101
 653 06cd 440FB655 		movzbl	16(%rbp), %r10d
 653      10
 654 06d2 488D7A0F 		leaq	15(%rdx), %rdi
 655 06d6 4488520E 		movb	%r10b, 14(%rdx)
 656              	.L101:
 657 06da 4889FA   		movq	%rdi, %rdx
 658              	.L100:
 659 06dd 4929C8   		subq	%rcx, %r8
 660 06e0 4C89CF   		movq	%r9, %rdi
 661 06e3 4D8D50F0 		leaq	-16(%r8), %r10
 662 06e7 4829CF   		subq	%rcx, %rdi
 663 06ea 49C1EA04 		shrq	$4, %r10
 664 06ee 4983C201 		addq	$1, %r10
 665 06f2 4D89D3   		movq	%r10, %r11
 666 06f5 49C1E304 		salq	$4, %r11
 667 06f9 4883FF0E 		cmpq	$14, %rdi
 668 06fd 763A     		jbe	.L102
 669 06ff 0FB67D10 		movzbl	16(%rbp), %edi
 670 0703 4901CC   		addq	%rcx, %r12
 671 0706 31C9     		xorl	%ecx, %ecx
 672 0708 4C01E0   		addq	%r12, %rax
 673 070b 660F6EC7 		movd	%edi, %xmm0
 674 070f 660F60C0 		punpcklbw	%xmm0, %xmm0
 675 0713 660F61C0 		punpcklwd	%xmm0, %xmm0
 676 0717 660F70C0 		pshufd	$0, %xmm0, %xmm0
 676      00
 677              	.L103:
 678 071c 4883C101 		addq	$1, %rcx
 679 0720 4883C010 		addq	$16, %rax
 680 0724 0F2940F0 		movaps	%xmm0, -16(%rax)
 681 0728 4939CA   		cmpq	%rcx, %r10
 682 072b 77EF     		ja	.L103
 683 072d 4C01DA   		addq	%r11, %rdx
 684 0730 4D39D8   		cmpq	%r11, %r8
 685 0733 0F84FE00 		je	.L108
 685      0000
 686              	.L102:
 687 0739 0FB64510 		movzbl	16(%rbp), %eax
 688 073d 8802     		movb	%al, (%rdx)
 689 073f 488D4201 		leaq	1(%rdx), %rax
 690 0743 4839C6   		cmpq	%rax, %rsi
 691 0746 0F86EB00 		jbe	.L108
 691      0000
 692 074c 0FB64510 		movzbl	16(%rbp), %eax
 693 0750 884201   		movb	%al, 1(%rdx)
 694 0753 488D4202 		leaq	2(%rdx), %rax
 695 0757 4839C6   		cmpq	%rax, %rsi
 696 075a 0F86D700 		jbe	.L108
 696      0000
 697 0760 0FB64510 		movzbl	16(%rbp), %eax
 698 0764 884202   		movb	%al, 2(%rdx)
 699 0767 488D4203 		leaq	3(%rdx), %rax
 700 076b 4839C6   		cmpq	%rax, %rsi
 701 076e 0F86C300 		jbe	.L108
 701      0000
 702 0774 0FB64510 		movzbl	16(%rbp), %eax
 703 0778 884203   		movb	%al, 3(%rdx)
 704 077b 488D4204 		leaq	4(%rdx), %rax
 705 077f 4839C6   		cmpq	%rax, %rsi
 706 0782 0F86AF00 		jbe	.L108
 706      0000
 707 0788 0FB64510 		movzbl	16(%rbp), %eax
 708 078c 884204   		movb	%al, 4(%rdx)
 709 078f 488D4205 		leaq	5(%rdx), %rax
 710 0793 4839C6   		cmpq	%rax, %rsi
 711 0796 0F869B00 		jbe	.L108
 711      0000
 712 079c 0FB64510 		movzbl	16(%rbp), %eax
 713 07a0 884205   		movb	%al, 5(%rdx)
 714 07a3 488D4206 		leaq	6(%rdx), %rax
 715 07a7 4839C6   		cmpq	%rax, %rsi
 716 07aa 0F868700 		jbe	.L108
 716      0000
 717 07b0 0FB64510 		movzbl	16(%rbp), %eax
 718 07b4 884206   		movb	%al, 6(%rdx)
 719 07b7 488D4207 		leaq	7(%rdx), %rax
 720 07bb 4839C6   		cmpq	%rax, %rsi
 721 07be 7677     		jbe	.L108
 722 07c0 0FB64510 		movzbl	16(%rbp), %eax
 723 07c4 884207   		movb	%al, 7(%rdx)
 724 07c7 488D4208 		leaq	8(%rdx), %rax
 725 07cb 4839C6   		cmpq	%rax, %rsi
 726 07ce 7667     		jbe	.L108
 727 07d0 0FB64510 		movzbl	16(%rbp), %eax
 728 07d4 884208   		movb	%al, 8(%rdx)
 729 07d7 488D4209 		leaq	9(%rdx), %rax
 730 07db 4839C6   		cmpq	%rax, %rsi
 731 07de 7657     		jbe	.L108
 732 07e0 0FB64510 		movzbl	16(%rbp), %eax
 733 07e4 884209   		movb	%al, 9(%rdx)
 734 07e7 488D420A 		leaq	10(%rdx), %rax
 735 07eb 4839C6   		cmpq	%rax, %rsi
 736 07ee 7647     		jbe	.L108
 737 07f0 0FB64510 		movzbl	16(%rbp), %eax
 738 07f4 88420A   		movb	%al, 10(%rdx)
 739 07f7 488D420B 		leaq	11(%rdx), %rax
 740 07fb 4839C6   		cmpq	%rax, %rsi
 741 07fe 7637     		jbe	.L108
 742 0800 0FB64510 		movzbl	16(%rbp), %eax
 743 0804 88420B   		movb	%al, 11(%rdx)
 744 0807 488D420C 		leaq	12(%rdx), %rax
 745 080b 4839C6   		cmpq	%rax, %rsi
 746 080e 7627     		jbe	.L108
 747 0810 0FB64510 		movzbl	16(%rbp), %eax
 748 0814 88420C   		movb	%al, 12(%rdx)
 749 0817 488D420D 		leaq	13(%rdx), %rax
 750 081b 4839C6   		cmpq	%rax, %rsi
 751 081e 7617     		jbe	.L108
 752 0820 0FB64510 		movzbl	16(%rbp), %eax
 753 0824 88420D   		movb	%al, 13(%rdx)
 754 0827 488D420E 		leaq	14(%rdx), %rax
 755 082b 4839C6   		cmpq	%rax, %rsi
 756 082e 7607     		jbe	.L108
 757 0830 0FB64510 		movzbl	16(%rbp), %eax
 758 0834 88420E   		movb	%al, 14(%rdx)
 759              	.L108:
 760 0837 488B4500 		movq	0(%rbp), %rax
 761              	.L162:
 762 083b 8B4D08   		movl	8(%rbp), %ecx
 763 083e E9B1FCFF 		jmp	.L94
 763      FF
 764              		.p2align 4,,10
 765 0843 0F1F4400 		.p2align 3
 765      00
 766              	.L165:
 767 0848 4883C101 		addq	$1, %rcx
 768              	.L107:
 769 084c 0FB64510 		movzbl	16(%rbp), %eax
 770 0850 4839F1   		cmpq	%rsi, %rcx
 771 0853 8841FF   		movb	%al, -1(%rcx)
 772 0856 75F0     		jne	.L165
 773 0858 EBDD     		jmp	.L108
 774              	.L164:
 775 085a 488D3500 		leaq	.LC6(%rip), %rsi
 775      000000
 776 0861 4889D7   		movq	%rdx, %rdi
 777 0864 E8000000 		call	errRender@PLT
 777      00
 778 0869 B8010000 		movl	$1, %eax
 778      00
 779 086e E98BFCFF 		jmp	.L97
 779      FF
 780              		.cfi_endproc
 781              	.LFE53:
 783              		.section	.text.unlikely
 784              	.LCOLDE7:
 785              		.text
 786              	.LHOTE7:
 787              		.section	.text.unlikely
 788              	.LCOLDB8:
 789              		.text
 790              	.LHOTB8:
 791 0873 0F1F0066 		.p2align 4,,15
 791      2E0F1F84 
 791      00000000 
 791      00
 792              		.globl	bufAppendWordLE
 794              	bufAppendWordLE:
 795              	.LFB54:
 796              		.cfi_startproc
 797 0880 4156     		pushq	%r14
 798              		.cfi_def_cfa_offset 16
 799              		.cfi_offset 14, -16
 800 0882 4155     		pushq	%r13
 801              		.cfi_def_cfa_offset 24
 802              		.cfi_offset 13, -24
 803 0884 4189F5   		movl	%esi, %r13d
 804 0887 4154     		pushq	%r12
 805              		.cfi_def_cfa_offset 32
 806              		.cfi_offset 12, -32
 807 0889 55       		pushq	%rbp
 808              		.cfi_def_cfa_offset 40
 809              		.cfi_offset 6, -40
 810 088a 53       		pushq	%rbx
 811              		.cfi_def_cfa_offset 48
 812              		.cfi_offset 3, -48
 813 088b 4889FB   		movq	%rdi, %rbx
 814 088e 4883EC20 		subq	$32, %rsp
 815              		.cfi_def_cfa_offset 80
 816 0892 8B4F08   		movl	8(%rdi), %ecx
 817 0895 8B6F0C   		movl	12(%rdi), %ebp
 818 0898 64488B04 		movq	%fs:40, %rax
 818      25280000 
 818      00
 819 08a1 48894424 		movq	%rax, 24(%rsp)
 819      18
 820 08a6 31C0     		xorl	%eax, %eax
 821 08a8 448D6102 		leal	2(%rcx), %r12d
 822 08ac 4139EC   		cmpl	%ebp, %r12d
 823 08af 773F     		ja	.L169
 824 08b1 488B07   		movq	(%rdi), %rax
 825              	.L168:
 826 08b4 44882C08 		movb	%r13b, (%rax,%rcx)
 827 08b8 8B5308   		movl	8(%rbx), %edx
 828 08bb 4489E8   		movl	%r13d, %eax
 829 08be 488B0B   		movq	(%rbx), %rcx
 830 08c1 0FB6C4   		movzbl	%ah, %eax
 831 08c4 88441101 		movb	%al, 1(%rcx,%rdx)
 832 08c8 83430802 		addl	$2, 8(%rbx)
 833 08cc 31C0     		xorl	%eax, %eax
 834              	.L171:
 835 08ce 488B7C24 		movq	24(%rsp), %rdi
 835      18
 836 08d3 6448333C 		xorq	%fs:40, %rdi
 836      25280000 
 836      00
 837 08dc 0F856903 		jne	.L239
 837      0000
 838 08e2 4883C420 		addq	$32, %rsp
 839              		.cfi_remember_state
 840              		.cfi_def_cfa_offset 48
 841 08e6 5B       		popq	%rbx
 842              		.cfi_def_cfa_offset 40
 843 08e7 5D       		popq	%rbp
 844              		.cfi_def_cfa_offset 32
 845 08e8 415C     		popq	%r12
 846              		.cfi_def_cfa_offset 24
 847 08ea 415D     		popq	%r13
 848              		.cfi_def_cfa_offset 16
 849 08ec 415E     		popq	%r14
 850              		.cfi_def_cfa_offset 8
 851 08ee C3       		ret
 852 08ef 90       		.p2align 4,,10
 853              		.p2align 3
 854              	.L169:
 855              		.cfi_restore_state
 856 08f0 01ED     		addl	%ebp, %ebp
 857 08f2 4139EC   		cmpl	%ebp, %r12d
 858 08f5 77F9     		ja	.L169
 859 08f7 488B3B   		movq	(%rbx), %rdi
 860 08fa 4189EE   		movl	%ebp, %r14d
 861 08fd 48895424 		movq	%rdx, 8(%rsp)
 861      08
 862 0902 4C89F6   		movq	%r14, %rsi
 863 0905 E8000000 		call	realloc@PLT
 863      00
 864 090a 4885C0   		testq	%rax, %rax
 865 090d 488903   		movq	%rax, (%rbx)
 866 0910 488B5424 		movq	8(%rsp), %rdx
 866      08
 867 0915 0F841703 		je	.L240
 867      0000
 868 091b 4A8D1420 		leaq	(%rax,%r12), %rdx
 869 091f 4A8D3430 		leaq	(%rax,%r14), %rsi
 870 0923 896B0C   		movl	%ebp, 12(%rbx)
 871 0926 4839F2   		cmpq	%rsi, %rdx
 872 0929 0F83E902 		jnb	.L237
 872      0000
 873 092f 488D4A01 		leaq	1(%rdx), %rcx
 874 0933 4989F1   		movq	%rsi, %r9
 875 0936 4C8D5B10 		leaq	16(%rbx), %r11
 876 093a 4929C9   		subq	%rcx, %r9
 877 093d 4889CF   		movq	%rcx, %rdi
 878 0940 4F8D540C 		leaq	1(%r12,%r9), %r10
 878      01
 879 0945 4D8D4101 		leaq	1(%r9), %r8
 880 0949 4901C2   		addq	%rax, %r10
 881 094c 4D39D3   		cmpq	%r10, %r11
 882 094f 4C8D5311 		leaq	17(%rbx), %r10
 883 0953 410F93C3 		setnb	%r11b
 884 0957 4C39D2   		cmpq	%r10, %rdx
 885 095a 410F93C2 		setnb	%r10b
 886 095e 4508D3   		orb	%r10b, %r11b
 887 0961 0F84BD02 		je	.L181
 887      0000
 888 0967 4983F816 		cmpq	$22, %r8
 889 096b 0F86B302 		jbe	.L181
 889      0000
 890 0971 4889D1   		movq	%rdx, %rcx
 891 0974 48F7D9   		negq	%rcx
 892 0977 83E10F   		andl	$15, %ecx
 893 097a 4939C8   		cmpq	%rcx, %r8
 894 097d 490F46C8 		cmovbe	%r8, %rcx
 895 0981 4885C9   		testq	%rcx, %rcx
 896 0984 0F843101 		je	.L174
 896      0000
 897 098a 440FB653 		movzbl	16(%rbx), %r10d
 897      10
 898 098f 4883F901 		cmpq	$1, %rcx
 899 0993 448812   		movb	%r10b, (%rdx)
 900 0996 0F841C01 		je	.L175
 900      0000
 901 099c 440FB653 		movzbl	16(%rbx), %r10d
 901      10
 902 09a1 4883F902 		cmpq	$2, %rcx
 903 09a5 488D7A02 		leaq	2(%rdx), %rdi
 904 09a9 44885201 		movb	%r10b, 1(%rdx)
 905 09ad 0F840501 		je	.L175
 905      0000
 906 09b3 440FB653 		movzbl	16(%rbx), %r10d
 906      10
 907 09b8 4883F903 		cmpq	$3, %rcx
 908 09bc 488D7A03 		leaq	3(%rdx), %rdi
 909 09c0 44885202 		movb	%r10b, 2(%rdx)
 910 09c4 0F84EE00 		je	.L175
 910      0000
 911 09ca 440FB653 		movzbl	16(%rbx), %r10d
 911      10
 912 09cf 4883F904 		cmpq	$4, %rcx
 913 09d3 488D7A04 		leaq	4(%rdx), %rdi
 914 09d7 44885203 		movb	%r10b, 3(%rdx)
 915 09db 0F84D700 		je	.L175
 915      0000
 916 09e1 440FB653 		movzbl	16(%rbx), %r10d
 916      10
 917 09e6 4883F905 		cmpq	$5, %rcx
 918 09ea 488D7A05 		leaq	5(%rdx), %rdi
 919 09ee 44885204 		movb	%r10b, 4(%rdx)
 920 09f2 0F84C000 		je	.L175
 920      0000
 921 09f8 440FB653 		movzbl	16(%rbx), %r10d
 921      10
 922 09fd 4883F906 		cmpq	$6, %rcx
 923 0a01 488D7A06 		leaq	6(%rdx), %rdi
 924 0a05 44885205 		movb	%r10b, 5(%rdx)
 925 0a09 0F84A900 		je	.L175
 925      0000
 926 0a0f 440FB653 		movzbl	16(%rbx), %r10d
 926      10
 927 0a14 4883F907 		cmpq	$7, %rcx
 928 0a18 488D7A07 		leaq	7(%rdx), %rdi
 929 0a1c 44885206 		movb	%r10b, 6(%rdx)
 930 0a20 0F849200 		je	.L175
 930      0000
 931 0a26 440FB653 		movzbl	16(%rbx), %r10d
 931      10
 932 0a2b 4883F908 		cmpq	$8, %rcx
 933 0a2f 488D7A08 		leaq	8(%rdx), %rdi
 934 0a33 44885207 		movb	%r10b, 7(%rdx)
 935 0a37 747F     		je	.L175
 936 0a39 440FB653 		movzbl	16(%rbx), %r10d
 936      10
 937 0a3e 4883F909 		cmpq	$9, %rcx
 938 0a42 488D7A09 		leaq	9(%rdx), %rdi
 939 0a46 44885208 		movb	%r10b, 8(%rdx)
 940 0a4a 746C     		je	.L175
 941 0a4c 440FB653 		movzbl	16(%rbx), %r10d
 941      10
 942 0a51 4883F90A 		cmpq	$10, %rcx
 943 0a55 488D7A0A 		leaq	10(%rdx), %rdi
 944 0a59 44885209 		movb	%r10b, 9(%rdx)
 945 0a5d 7459     		je	.L175
 946 0a5f 440FB653 		movzbl	16(%rbx), %r10d
 946      10
 947 0a64 4883F90B 		cmpq	$11, %rcx
 948 0a68 488D7A0B 		leaq	11(%rdx), %rdi
 949 0a6c 4488520A 		movb	%r10b, 10(%rdx)
 950 0a70 7446     		je	.L175
 951 0a72 440FB653 		movzbl	16(%rbx), %r10d
 951      10
 952 0a77 4883F90C 		cmpq	$12, %rcx
 953 0a7b 488D7A0C 		leaq	12(%rdx), %rdi
 954 0a7f 4488520B 		movb	%r10b, 11(%rdx)
 955 0a83 7433     		je	.L175
 956 0a85 440FB653 		movzbl	16(%rbx), %r10d
 956      10
 957 0a8a 4883F90D 		cmpq	$13, %rcx
 958 0a8e 488D7A0D 		leaq	13(%rdx), %rdi
 959 0a92 4488520C 		movb	%r10b, 12(%rdx)
 960 0a96 7420     		je	.L175
 961 0a98 440FB653 		movzbl	16(%rbx), %r10d
 961      10
 962 0a9d 4883F90F 		cmpq	$15, %rcx
 963 0aa1 488D7A0E 		leaq	14(%rdx), %rdi
 964 0aa5 4488520D 		movb	%r10b, 13(%rdx)
 965 0aa9 750D     		jne	.L175
 966 0aab 440FB653 		movzbl	16(%rbx), %r10d
 966      10
 967 0ab0 488D7A0F 		leaq	15(%rdx), %rdi
 968 0ab4 4488520E 		movb	%r10b, 14(%rdx)
 969              	.L175:
 970 0ab8 4889FA   		movq	%rdi, %rdx
 971              	.L174:
 972 0abb 4929C8   		subq	%rcx, %r8
 973 0abe 4C89CF   		movq	%r9, %rdi
 974 0ac1 4D8D50F0 		leaq	-16(%r8), %r10
 975 0ac5 4829CF   		subq	%rcx, %rdi
 976 0ac8 49C1EA04 		shrq	$4, %r10
 977 0acc 4983C201 		addq	$1, %r10
 978 0ad0 4D89D3   		movq	%r10, %r11
 979 0ad3 49C1E304 		salq	$4, %r11
 980 0ad7 4883FF0E 		cmpq	$14, %rdi
 981 0adb 763A     		jbe	.L176
 982 0add 0FB67B10 		movzbl	16(%rbx), %edi
 983 0ae1 4901CC   		addq	%rcx, %r12
 984 0ae4 31C9     		xorl	%ecx, %ecx
 985 0ae6 4C01E0   		addq	%r12, %rax
 986 0ae9 660F6EC7 		movd	%edi, %xmm0
 987 0aed 660F60C0 		punpcklbw	%xmm0, %xmm0
 988 0af1 660F61C0 		punpcklwd	%xmm0, %xmm0
 989 0af5 660F70C0 		pshufd	$0, %xmm0, %xmm0
 989      00
 990              	.L177:
 991 0afa 4883C101 		addq	$1, %rcx
 992 0afe 4883C010 		addq	$16, %rax
 993 0b02 0F2940F0 		movaps	%xmm0, -16(%rax)
 994 0b06 4939CA   		cmpq	%rcx, %r10
 995 0b09 77EF     		ja	.L177
 996 0b0b 4C01DA   		addq	%r11, %rdx
 997 0b0e 4D39D8   		cmpq	%r11, %r8
 998 0b11 0F84FE00 		je	.L182
 998      0000
 999              	.L176:
 1000 0b17 0FB64310 		movzbl	16(%rbx), %eax
 1001 0b1b 8802     		movb	%al, (%rdx)
 1002 0b1d 488D4201 		leaq	1(%rdx), %rax
 1003 0b21 4839C6   		cmpq	%rax, %rsi
 1004 0b24 0F86EB00 		jbe	.L182
 1004      0000
 1005 0b2a 0FB64310 		movzbl	16(%rbx), %eax
 1006 0b2e 884201   		movb	%al, 1(%rdx)
 1007 0b31 488D4202 		leaq	2(%rdx), %rax
 1008 0b35 4839C6   		cmpq	%rax, %rsi
 1009 0b38 0F86D700 		jbe	.L182
 1009      0000
 1010 0b3e 0FB64310 		movzbl	16(%rbx), %eax
 1011 0b42 884202   		movb	%al, 2(%rdx)
 1012 0b45 488D4203 		leaq	3(%rdx), %rax
 1013 0b49 4839C6   		cmpq	%rax, %rsi
 1014 0b4c 0F86C300 		jbe	.L182
 1014      0000
 1015 0b52 0FB64310 		movzbl	16(%rbx), %eax
 1016 0b56 884203   		movb	%al, 3(%rdx)
 1017 0b59 488D4204 		leaq	4(%rdx), %rax
 1018 0b5d 4839C6   		cmpq	%rax, %rsi
 1019 0b60 0F86AF00 		jbe	.L182
 1019      0000
 1020 0b66 0FB64310 		movzbl	16(%rbx), %eax
 1021 0b6a 884204   		movb	%al, 4(%rdx)
 1022 0b6d 488D4205 		leaq	5(%rdx), %rax
 1023 0b71 4839C6   		cmpq	%rax, %rsi
 1024 0b74 0F869B00 		jbe	.L182
 1024      0000
 1025 0b7a 0FB64310 		movzbl	16(%rbx), %eax
 1026 0b7e 884205   		movb	%al, 5(%rdx)
 1027 0b81 488D4206 		leaq	6(%rdx), %rax
 1028 0b85 4839C6   		cmpq	%rax, %rsi
 1029 0b88 0F868700 		jbe	.L182
 1029      0000
 1030 0b8e 0FB64310 		movzbl	16(%rbx), %eax
 1031 0b92 884206   		movb	%al, 6(%rdx)
 1032 0b95 488D4207 		leaq	7(%rdx), %rax
 1033 0b99 4839C6   		cmpq	%rax, %rsi
 1034 0b9c 7677     		jbe	.L182
 1035 0b9e 0FB64310 		movzbl	16(%rbx), %eax
 1036 0ba2 884207   		movb	%al, 7(%rdx)
 1037 0ba5 488D4208 		leaq	8(%rdx), %rax
 1038 0ba9 4839C6   		cmpq	%rax, %rsi
 1039 0bac 7667     		jbe	.L182
 1040 0bae 0FB64310 		movzbl	16(%rbx), %eax
 1041 0bb2 884208   		movb	%al, 8(%rdx)
 1042 0bb5 488D4209 		leaq	9(%rdx), %rax
 1043 0bb9 4839C6   		cmpq	%rax, %rsi
 1044 0bbc 7657     		jbe	.L182
 1045 0bbe 0FB64310 		movzbl	16(%rbx), %eax
 1046 0bc2 884209   		movb	%al, 9(%rdx)
 1047 0bc5 488D420A 		leaq	10(%rdx), %rax
 1048 0bc9 4839C6   		cmpq	%rax, %rsi
 1049 0bcc 7647     		jbe	.L182
 1050 0bce 0FB64310 		movzbl	16(%rbx), %eax
 1051 0bd2 88420A   		movb	%al, 10(%rdx)
 1052 0bd5 488D420B 		leaq	11(%rdx), %rax
 1053 0bd9 4839C6   		cmpq	%rax, %rsi
 1054 0bdc 7637     		jbe	.L182
 1055 0bde 0FB64310 		movzbl	16(%rbx), %eax
 1056 0be2 88420B   		movb	%al, 11(%rdx)
 1057 0be5 488D420C 		leaq	12(%rdx), %rax
 1058 0be9 4839C6   		cmpq	%rax, %rsi
 1059 0bec 7627     		jbe	.L182
 1060 0bee 0FB64310 		movzbl	16(%rbx), %eax
 1061 0bf2 88420C   		movb	%al, 12(%rdx)
 1062 0bf5 488D420D 		leaq	13(%rdx), %rax
 1063 0bf9 4839C6   		cmpq	%rax, %rsi
 1064 0bfc 7617     		jbe	.L182
 1065 0bfe 0FB64310 		movzbl	16(%rbx), %eax
 1066 0c02 88420D   		movb	%al, 13(%rdx)
 1067 0c05 488D420E 		leaq	14(%rdx), %rax
 1068 0c09 4839C6   		cmpq	%rax, %rsi
 1069 0c0c 7607     		jbe	.L182
 1070 0c0e 0FB64310 		movzbl	16(%rbx), %eax
 1071 0c12 88420E   		movb	%al, 14(%rdx)
 1072              	.L182:
 1073 0c15 488B03   		movq	(%rbx), %rax
 1074              	.L237:
 1075 0c18 8B4B08   		movl	8(%rbx), %ecx
 1076 0c1b E994FCFF 		jmp	.L168
 1076      FF
 1077              		.p2align 4,,10
 1078              		.p2align 3
 1079              	.L241:
 1080 0c20 4883C101 		addq	$1, %rcx
 1081              	.L181:
 1082 0c24 0FB64310 		movzbl	16(%rbx), %eax
 1083 0c28 4839F1   		cmpq	%rsi, %rcx
 1084 0c2b 8841FF   		movb	%al, -1(%rcx)
 1085 0c2e 75F0     		jne	.L241
 1086 0c30 EBE3     		jmp	.L182
 1087              	.L240:
 1088 0c32 488D3500 		leaq	.LC6(%rip), %rsi
 1088      000000
 1089 0c39 4889D7   		movq	%rdx, %rdi
 1090 0c3c E8000000 		call	errRender@PLT
 1090      00
 1091 0c41 B8010000 		movl	$1, %eax
 1091      00
 1092 0c46 E983FCFF 		jmp	.L171
 1092      FF
 1093              	.L239:
 1094 0c4b E8000000 		call	__stack_chk_fail@PLT
 1094      00
 1095              		.cfi_endproc
 1096              	.LFE54:
 1098              		.section	.text.unlikely
 1099              	.LCOLDE8:
 1100              		.text
 1101              	.LHOTE8:
 1102              		.section	.text.unlikely
 1103              	.LCOLDB9:
 1104              		.text
 1105              	.LHOTB9:
 1106              		.p2align 4,,15
 1107              		.globl	bufAppendWordBE
 1109              	bufAppendWordBE:
 1110              	.LFB55:
 1111              		.cfi_startproc
 1112 0c50 4156     		pushq	%r14
 1113              		.cfi_def_cfa_offset 16
 1114              		.cfi_offset 14, -16
 1115 0c52 4155     		pushq	%r13
 1116              		.cfi_def_cfa_offset 24
 1117              		.cfi_offset 13, -24
 1118 0c54 4189F5   		movl	%esi, %r13d
 1119 0c57 4154     		pushq	%r12
 1120              		.cfi_def_cfa_offset 32
 1121              		.cfi_offset 12, -32
 1122 0c59 55       		pushq	%rbp
 1123              		.cfi_def_cfa_offset 40
 1124              		.cfi_offset 6, -40
 1125 0c5a 53       		pushq	%rbx
 1126              		.cfi_def_cfa_offset 48
 1127              		.cfi_offset 3, -48
 1128 0c5b 4889FB   		movq	%rdi, %rbx
 1129 0c5e 4883EC20 		subq	$32, %rsp
 1130              		.cfi_def_cfa_offset 80
 1131 0c62 8B4F08   		movl	8(%rdi), %ecx
 1132 0c65 8B6F0C   		movl	12(%rdi), %ebp
 1133 0c68 64488B04 		movq	%fs:40, %rax
 1133      25280000 
 1133      00
 1134 0c71 48894424 		movq	%rax, 24(%rsp)
 1134      18
 1135 0c76 31C0     		xorl	%eax, %eax
 1136 0c78 448D6102 		leal	2(%rcx), %r12d
 1137 0c7c 4139EC   		cmpl	%ebp, %r12d
 1138 0c7f 773F     		ja	.L245
 1139 0c81 488B07   		movq	(%rdi), %rax
 1140              	.L244:
 1141 0c84 4489EA   		movl	%r13d, %edx
 1142 0c87 0FB6D6   		movzbl	%dh, %edx
 1143 0c8a 881408   		movb	%dl, (%rax,%rcx)
 1144 0c8d 8B4308   		movl	8(%rbx), %eax
 1145 0c90 488B13   		movq	(%rbx), %rdx
 1146 0c93 44886C02 		movb	%r13b, 1(%rdx,%rax)
 1146      01
 1147 0c98 83430802 		addl	$2, 8(%rbx)
 1148 0c9c 31C0     		xorl	%eax, %eax
 1149              	.L247:
 1150 0c9e 488B7C24 		movq	24(%rsp), %rdi
 1150      18
 1151 0ca3 6448333C 		xorq	%fs:40, %rdi
 1151      25280000 
 1151      00
 1152 0cac 0F856903 		jne	.L315
 1152      0000
 1153 0cb2 4883C420 		addq	$32, %rsp
 1154              		.cfi_remember_state
 1155              		.cfi_def_cfa_offset 48
 1156 0cb6 5B       		popq	%rbx
 1157              		.cfi_def_cfa_offset 40
 1158 0cb7 5D       		popq	%rbp
 1159              		.cfi_def_cfa_offset 32
 1160 0cb8 415C     		popq	%r12
 1161              		.cfi_def_cfa_offset 24
 1162 0cba 415D     		popq	%r13
 1163              		.cfi_def_cfa_offset 16
 1164 0cbc 415E     		popq	%r14
 1165              		.cfi_def_cfa_offset 8
 1166 0cbe C3       		ret
 1167 0cbf 90       		.p2align 4,,10
 1168              		.p2align 3
 1169              	.L245:
 1170              		.cfi_restore_state
 1171 0cc0 01ED     		addl	%ebp, %ebp
 1172 0cc2 4139EC   		cmpl	%ebp, %r12d
 1173 0cc5 77F9     		ja	.L245
 1174 0cc7 488B3B   		movq	(%rbx), %rdi
 1175 0cca 4189EE   		movl	%ebp, %r14d
 1176 0ccd 48895424 		movq	%rdx, 8(%rsp)
 1176      08
 1177 0cd2 4C89F6   		movq	%r14, %rsi
 1178 0cd5 E8000000 		call	realloc@PLT
 1178      00
 1179 0cda 4885C0   		testq	%rax, %rax
 1180 0cdd 488903   		movq	%rax, (%rbx)
 1181 0ce0 488B5424 		movq	8(%rsp), %rdx
 1181      08
 1182 0ce5 0F841703 		je	.L316
 1182      0000
 1183 0ceb 4A8D1420 		leaq	(%rax,%r12), %rdx
 1184 0cef 4A8D3430 		leaq	(%rax,%r14), %rsi
 1185 0cf3 896B0C   		movl	%ebp, 12(%rbx)
 1186 0cf6 4839F2   		cmpq	%rsi, %rdx
 1187 0cf9 0F83E902 		jnb	.L313
 1187      0000
 1188 0cff 488D4A01 		leaq	1(%rdx), %rcx
 1189 0d03 4989F1   		movq	%rsi, %r9
 1190 0d06 4C8D5B10 		leaq	16(%rbx), %r11
 1191 0d0a 4929C9   		subq	%rcx, %r9
 1192 0d0d 4889CF   		movq	%rcx, %rdi
 1193 0d10 4F8D540C 		leaq	1(%r12,%r9), %r10
 1193      01
 1194 0d15 4D8D4101 		leaq	1(%r9), %r8
 1195 0d19 4901C2   		addq	%rax, %r10
 1196 0d1c 4D39D3   		cmpq	%r10, %r11
 1197 0d1f 4C8D5311 		leaq	17(%rbx), %r10
 1198 0d23 410F93C3 		setnb	%r11b
 1199 0d27 4C39D2   		cmpq	%r10, %rdx
 1200 0d2a 410F93C2 		setnb	%r10b
 1201 0d2e 4508D3   		orb	%r10b, %r11b
 1202 0d31 0F84BD02 		je	.L257
 1202      0000
 1203 0d37 4983F816 		cmpq	$22, %r8
 1204 0d3b 0F86B302 		jbe	.L257
 1204      0000
 1205 0d41 4889D1   		movq	%rdx, %rcx
 1206 0d44 48F7D9   		negq	%rcx
 1207 0d47 83E10F   		andl	$15, %ecx
 1208 0d4a 4939C8   		cmpq	%rcx, %r8
 1209 0d4d 490F46C8 		cmovbe	%r8, %rcx
 1210 0d51 4885C9   		testq	%rcx, %rcx
 1211 0d54 0F843101 		je	.L250
 1211      0000
 1212 0d5a 440FB653 		movzbl	16(%rbx), %r10d
 1212      10
 1213 0d5f 4883F901 		cmpq	$1, %rcx
 1214 0d63 448812   		movb	%r10b, (%rdx)
 1215 0d66 0F841C01 		je	.L251
 1215      0000
 1216 0d6c 440FB653 		movzbl	16(%rbx), %r10d
 1216      10
 1217 0d71 4883F902 		cmpq	$2, %rcx
 1218 0d75 488D7A02 		leaq	2(%rdx), %rdi
 1219 0d79 44885201 		movb	%r10b, 1(%rdx)
 1220 0d7d 0F840501 		je	.L251
 1220      0000
 1221 0d83 440FB653 		movzbl	16(%rbx), %r10d
 1221      10
 1222 0d88 4883F903 		cmpq	$3, %rcx
 1223 0d8c 488D7A03 		leaq	3(%rdx), %rdi
 1224 0d90 44885202 		movb	%r10b, 2(%rdx)
 1225 0d94 0F84EE00 		je	.L251
 1225      0000
 1226 0d9a 440FB653 		movzbl	16(%rbx), %r10d
 1226      10
 1227 0d9f 4883F904 		cmpq	$4, %rcx
 1228 0da3 488D7A04 		leaq	4(%rdx), %rdi
 1229 0da7 44885203 		movb	%r10b, 3(%rdx)
 1230 0dab 0F84D700 		je	.L251
 1230      0000
 1231 0db1 440FB653 		movzbl	16(%rbx), %r10d
 1231      10
 1232 0db6 4883F905 		cmpq	$5, %rcx
 1233 0dba 488D7A05 		leaq	5(%rdx), %rdi
 1234 0dbe 44885204 		movb	%r10b, 4(%rdx)
 1235 0dc2 0F84C000 		je	.L251
 1235      0000
 1236 0dc8 440FB653 		movzbl	16(%rbx), %r10d
 1236      10
 1237 0dcd 4883F906 		cmpq	$6, %rcx
 1238 0dd1 488D7A06 		leaq	6(%rdx), %rdi
 1239 0dd5 44885205 		movb	%r10b, 5(%rdx)
 1240 0dd9 0F84A900 		je	.L251
 1240      0000
 1241 0ddf 440FB653 		movzbl	16(%rbx), %r10d
 1241      10
 1242 0de4 4883F907 		cmpq	$7, %rcx
 1243 0de8 488D7A07 		leaq	7(%rdx), %rdi
 1244 0dec 44885206 		movb	%r10b, 6(%rdx)
 1245 0df0 0F849200 		je	.L251
 1245      0000
 1246 0df6 440FB653 		movzbl	16(%rbx), %r10d
 1246      10
 1247 0dfb 4883F908 		cmpq	$8, %rcx
 1248 0dff 488D7A08 		leaq	8(%rdx), %rdi
 1249 0e03 44885207 		movb	%r10b, 7(%rdx)
 1250 0e07 747F     		je	.L251
 1251 0e09 440FB653 		movzbl	16(%rbx), %r10d
 1251      10
 1252 0e0e 4883F909 		cmpq	$9, %rcx
 1253 0e12 488D7A09 		leaq	9(%rdx), %rdi
 1254 0e16 44885208 		movb	%r10b, 8(%rdx)
 1255 0e1a 746C     		je	.L251
 1256 0e1c 440FB653 		movzbl	16(%rbx), %r10d
 1256      10
 1257 0e21 4883F90A 		cmpq	$10, %rcx
 1258 0e25 488D7A0A 		leaq	10(%rdx), %rdi
 1259 0e29 44885209 		movb	%r10b, 9(%rdx)
 1260 0e2d 7459     		je	.L251
 1261 0e2f 440FB653 		movzbl	16(%rbx), %r10d
 1261      10
 1262 0e34 4883F90B 		cmpq	$11, %rcx
 1263 0e38 488D7A0B 		leaq	11(%rdx), %rdi
 1264 0e3c 4488520A 		movb	%r10b, 10(%rdx)
 1265 0e40 7446     		je	.L251
 1266 0e42 440FB653 		movzbl	16(%rbx), %r10d
 1266      10
 1267 0e47 4883F90C 		cmpq	$12, %rcx
 1268 0e4b 488D7A0C 		leaq	12(%rdx), %rdi
 1269 0e4f 4488520B 		movb	%r10b, 11(%rdx)
 1270 0e53 7433     		je	.L251
 1271 0e55 440FB653 		movzbl	16(%rbx), %r10d
 1271      10
 1272 0e5a 4883F90D 		cmpq	$13, %rcx
 1273 0e5e 488D7A0D 		leaq	13(%rdx), %rdi
 1274 0e62 4488520C 		movb	%r10b, 12(%rdx)
 1275 0e66 7420     		je	.L251
 1276 0e68 440FB653 		movzbl	16(%rbx), %r10d
 1276      10
 1277 0e6d 4883F90F 		cmpq	$15, %rcx
 1278 0e71 488D7A0E 		leaq	14(%rdx), %rdi
 1279 0e75 4488520D 		movb	%r10b, 13(%rdx)
 1280 0e79 750D     		jne	.L251
 1281 0e7b 440FB653 		movzbl	16(%rbx), %r10d
 1281      10
 1282 0e80 488D7A0F 		leaq	15(%rdx), %rdi
 1283 0e84 4488520E 		movb	%r10b, 14(%rdx)
 1284              	.L251:
 1285 0e88 4889FA   		movq	%rdi, %rdx
 1286              	.L250:
 1287 0e8b 4929C8   		subq	%rcx, %r8
 1288 0e8e 4C89CF   		movq	%r9, %rdi
 1289 0e91 4D8D50F0 		leaq	-16(%r8), %r10
 1290 0e95 4829CF   		subq	%rcx, %rdi
 1291 0e98 49C1EA04 		shrq	$4, %r10
 1292 0e9c 4983C201 		addq	$1, %r10
 1293 0ea0 4D89D3   		movq	%r10, %r11
 1294 0ea3 49C1E304 		salq	$4, %r11
 1295 0ea7 4883FF0E 		cmpq	$14, %rdi
 1296 0eab 763A     		jbe	.L252
 1297 0ead 0FB67B10 		movzbl	16(%rbx), %edi
 1298 0eb1 4901CC   		addq	%rcx, %r12
 1299 0eb4 31C9     		xorl	%ecx, %ecx
 1300 0eb6 4C01E0   		addq	%r12, %rax
 1301 0eb9 660F6EC7 		movd	%edi, %xmm0
 1302 0ebd 660F60C0 		punpcklbw	%xmm0, %xmm0
 1303 0ec1 660F61C0 		punpcklwd	%xmm0, %xmm0
 1304 0ec5 660F70C0 		pshufd	$0, %xmm0, %xmm0
 1304      00
 1305              	.L253:
 1306 0eca 4883C101 		addq	$1, %rcx
 1307 0ece 4883C010 		addq	$16, %rax
 1308 0ed2 0F2940F0 		movaps	%xmm0, -16(%rax)
 1309 0ed6 4939CA   		cmpq	%rcx, %r10
 1310 0ed9 77EF     		ja	.L253
 1311 0edb 4C01DA   		addq	%r11, %rdx
 1312 0ede 4D39D8   		cmpq	%r11, %r8
 1313 0ee1 0F84FE00 		je	.L258
 1313      0000
 1314              	.L252:
 1315 0ee7 0FB64310 		movzbl	16(%rbx), %eax
 1316 0eeb 8802     		movb	%al, (%rdx)
 1317 0eed 488D4201 		leaq	1(%rdx), %rax
 1318 0ef1 4839C6   		cmpq	%rax, %rsi
 1319 0ef4 0F86EB00 		jbe	.L258
 1319      0000
 1320 0efa 0FB64310 		movzbl	16(%rbx), %eax
 1321 0efe 884201   		movb	%al, 1(%rdx)
 1322 0f01 488D4202 		leaq	2(%rdx), %rax
 1323 0f05 4839C6   		cmpq	%rax, %rsi
 1324 0f08 0F86D700 		jbe	.L258
 1324      0000
 1325 0f0e 0FB64310 		movzbl	16(%rbx), %eax
 1326 0f12 884202   		movb	%al, 2(%rdx)
 1327 0f15 488D4203 		leaq	3(%rdx), %rax
 1328 0f19 4839C6   		cmpq	%rax, %rsi
 1329 0f1c 0F86C300 		jbe	.L258
 1329      0000
 1330 0f22 0FB64310 		movzbl	16(%rbx), %eax
 1331 0f26 884203   		movb	%al, 3(%rdx)
 1332 0f29 488D4204 		leaq	4(%rdx), %rax
 1333 0f2d 4839C6   		cmpq	%rax, %rsi
 1334 0f30 0F86AF00 		jbe	.L258
 1334      0000
 1335 0f36 0FB64310 		movzbl	16(%rbx), %eax
 1336 0f3a 884204   		movb	%al, 4(%rdx)
 1337 0f3d 488D4205 		leaq	5(%rdx), %rax
 1338 0f41 4839C6   		cmpq	%rax, %rsi
 1339 0f44 0F869B00 		jbe	.L258
 1339      0000
 1340 0f4a 0FB64310 		movzbl	16(%rbx), %eax
 1341 0f4e 884205   		movb	%al, 5(%rdx)
 1342 0f51 488D4206 		leaq	6(%rdx), %rax
 1343 0f55 4839C6   		cmpq	%rax, %rsi
 1344 0f58 0F868700 		jbe	.L258
 1344      0000
 1345 0f5e 0FB64310 		movzbl	16(%rbx), %eax
 1346 0f62 884206   		movb	%al, 6(%rdx)
 1347 0f65 488D4207 		leaq	7(%rdx), %rax
 1348 0f69 4839C6   		cmpq	%rax, %rsi
 1349 0f6c 7677     		jbe	.L258
 1350 0f6e 0FB64310 		movzbl	16(%rbx), %eax
 1351 0f72 884207   		movb	%al, 7(%rdx)
 1352 0f75 488D4208 		leaq	8(%rdx), %rax
 1353 0f79 4839C6   		cmpq	%rax, %rsi
 1354 0f7c 7667     		jbe	.L258
 1355 0f7e 0FB64310 		movzbl	16(%rbx), %eax
 1356 0f82 884208   		movb	%al, 8(%rdx)
 1357 0f85 488D4209 		leaq	9(%rdx), %rax
 1358 0f89 4839C6   		cmpq	%rax, %rsi
 1359 0f8c 7657     		jbe	.L258
 1360 0f8e 0FB64310 		movzbl	16(%rbx), %eax
 1361 0f92 884209   		movb	%al, 9(%rdx)
 1362 0f95 488D420A 		leaq	10(%rdx), %rax
 1363 0f99 4839C6   		cmpq	%rax, %rsi
 1364 0f9c 7647     		jbe	.L258
 1365 0f9e 0FB64310 		movzbl	16(%rbx), %eax
 1366 0fa2 88420A   		movb	%al, 10(%rdx)
 1367 0fa5 488D420B 		leaq	11(%rdx), %rax
 1368 0fa9 4839C6   		cmpq	%rax, %rsi
 1369 0fac 7637     		jbe	.L258
 1370 0fae 0FB64310 		movzbl	16(%rbx), %eax
 1371 0fb2 88420B   		movb	%al, 11(%rdx)
 1372 0fb5 488D420C 		leaq	12(%rdx), %rax
 1373 0fb9 4839C6   		cmpq	%rax, %rsi
 1374 0fbc 7627     		jbe	.L258
 1375 0fbe 0FB64310 		movzbl	16(%rbx), %eax
 1376 0fc2 88420C   		movb	%al, 12(%rdx)
 1377 0fc5 488D420D 		leaq	13(%rdx), %rax
 1378 0fc9 4839C6   		cmpq	%rax, %rsi
 1379 0fcc 7617     		jbe	.L258
 1380 0fce 0FB64310 		movzbl	16(%rbx), %eax
 1381 0fd2 88420D   		movb	%al, 13(%rdx)
 1382 0fd5 488D420E 		leaq	14(%rdx), %rax
 1383 0fd9 4839C6   		cmpq	%rax, %rsi
 1384 0fdc 7607     		jbe	.L258
 1385 0fde 0FB64310 		movzbl	16(%rbx), %eax
 1386 0fe2 88420E   		movb	%al, 14(%rdx)
 1387              	.L258:
 1388 0fe5 488B03   		movq	(%rbx), %rax
 1389              	.L313:
 1390 0fe8 8B4B08   		movl	8(%rbx), %ecx
 1391 0feb E994FCFF 		jmp	.L244
 1391      FF
 1392              		.p2align 4,,10
 1393              		.p2align 3
 1394              	.L317:
 1395 0ff0 4883C101 		addq	$1, %rcx
 1396              	.L257:
 1397 0ff4 0FB64310 		movzbl	16(%rbx), %eax
 1398 0ff8 4839F1   		cmpq	%rsi, %rcx
 1399 0ffb 8841FF   		movb	%al, -1(%rcx)
 1400 0ffe 75F0     		jne	.L317
 1401 1000 EBE3     		jmp	.L258
 1402              	.L316:
 1403 1002 488D3500 		leaq	.LC6(%rip), %rsi
 1403      000000
 1404 1009 4889D7   		movq	%rdx, %rdi
 1405 100c E8000000 		call	errRender@PLT
 1405      00
 1406 1011 B8010000 		movl	$1, %eax
 1406      00
 1407 1016 E983FCFF 		jmp	.L247
 1407      FF
 1408              	.L315:
 1409 101b E8000000 		call	__stack_chk_fail@PLT
 1409      00
 1410              		.cfi_endproc
 1411              	.LFE55:
 1413              		.section	.text.unlikely
 1414              	.LCOLDE9:
 1415              		.text
 1416              	.LHOTE9:
 1417              		.section	.text.unlikely
 1418              	.LCOLDB10:
 1419              		.text
 1420              	.LHOTB10:
 1421              		.p2align 4,,15
 1422              		.globl	bufAppendLongLE
 1424              	bufAppendLongLE:
 1425              	.LFB56:
 1426              		.cfi_startproc
 1427 1020 4156     		pushq	%r14
 1428              		.cfi_def_cfa_offset 16
 1429              		.cfi_offset 14, -16
 1430 1022 4155     		pushq	%r13
 1431              		.cfi_def_cfa_offset 24
 1432              		.cfi_offset 13, -24
 1433 1024 4189F5   		movl	%esi, %r13d
 1434 1027 4154     		pushq	%r12
 1435              		.cfi_def_cfa_offset 32
 1436              		.cfi_offset 12, -32
 1437 1029 55       		pushq	%rbp
 1438              		.cfi_def_cfa_offset 40
 1439              		.cfi_offset 6, -40
 1440 102a 53       		pushq	%rbx
 1441              		.cfi_def_cfa_offset 48
 1442              		.cfi_offset 3, -48
 1443 102b 4889FB   		movq	%rdi, %rbx
 1444 102e 4883EC20 		subq	$32, %rsp
 1445              		.cfi_def_cfa_offset 80
 1446 1032 8B4F08   		movl	8(%rdi), %ecx
 1447 1035 8B6F0C   		movl	12(%rdi), %ebp
 1448 1038 64488B04 		movq	%fs:40, %rax
 1448      25280000 
 1448      00
 1449 1041 48894424 		movq	%rax, 24(%rsp)
 1449      18
 1450 1046 31C0     		xorl	%eax, %eax
 1451 1048 448D6104 		leal	4(%rcx), %r12d
 1452 104c 4139EC   		cmpl	%ebp, %r12d
 1453 104f 775F     		ja	.L321
 1454 1051 488B07   		movq	(%rdi), %rax
 1455              	.L320:
 1456 1054 44882C08 		movb	%r13b, (%rax,%rcx)
 1457 1058 8B4308   		movl	8(%rbx), %eax
 1458 105b 4489E9   		movl	%r13d, %ecx
 1459 105e 488B13   		movq	(%rbx), %rdx
 1460 1061 0FB6CD   		movzbl	%ch, %ecx
 1461 1064 4489EE   		movl	%r13d, %esi
 1462 1067 C1EE18   		shrl	$24, %esi
 1463 106a 884C0201 		movb	%cl, 1(%rdx,%rax)
 1464 106e 8B4308   		movl	8(%rbx), %eax
 1465 1071 4489E9   		movl	%r13d, %ecx
 1466 1074 488B13   		movq	(%rbx), %rdx
 1467 1077 C1E910   		shrl	$16, %ecx
 1468 107a 884C0202 		movb	%cl, 2(%rdx,%rax)
 1469 107e 8B4308   		movl	8(%rbx), %eax
 1470 1081 488B13   		movq	(%rbx), %rdx
 1471 1084 40887402 		movb	%sil, 3(%rdx,%rax)
 1471      03
 1472 1089 83430804 		addl	$4, 8(%rbx)
 1473 108d 31C0     		xorl	%eax, %eax
 1474              	.L323:
 1475 108f 488B7C24 		movq	24(%rsp), %rdi
 1475      18
 1476 1094 6448333C 		xorq	%fs:40, %rdi
 1476      25280000 
 1476      00
 1477 109d 0F856803 		jne	.L391
 1477      0000
 1478 10a3 4883C420 		addq	$32, %rsp
 1479              		.cfi_remember_state
 1480              		.cfi_def_cfa_offset 48
 1481 10a7 5B       		popq	%rbx
 1482              		.cfi_def_cfa_offset 40
 1483 10a8 5D       		popq	%rbp
 1484              		.cfi_def_cfa_offset 32
 1485 10a9 415C     		popq	%r12
 1486              		.cfi_def_cfa_offset 24
 1487 10ab 415D     		popq	%r13
 1488              		.cfi_def_cfa_offset 16
 1489 10ad 415E     		popq	%r14
 1490              		.cfi_def_cfa_offset 8
 1491 10af C3       		ret
 1492              		.p2align 4,,10
 1493              		.p2align 3
 1494              	.L321:
 1495              		.cfi_restore_state
 1496 10b0 01ED     		addl	%ebp, %ebp
 1497 10b2 4139EC   		cmpl	%ebp, %r12d
 1498 10b5 77F9     		ja	.L321
 1499 10b7 488B3B   		movq	(%rbx), %rdi
 1500 10ba 4189EE   		movl	%ebp, %r14d
 1501 10bd 48895424 		movq	%rdx, 8(%rsp)
 1501      08
 1502 10c2 4C89F6   		movq	%r14, %rsi
 1503 10c5 E8000000 		call	realloc@PLT
 1503      00
 1504 10ca 4885C0   		testq	%rax, %rax
 1505 10cd 488903   		movq	%rax, (%rbx)
 1506 10d0 488B5424 		movq	8(%rsp), %rdx
 1506      08
 1507 10d5 0F841703 		je	.L392
 1507      0000
 1508 10db 4A8D1420 		leaq	(%rax,%r12), %rdx
 1509 10df 4A8D3430 		leaq	(%rax,%r14), %rsi
 1510 10e3 896B0C   		movl	%ebp, 12(%rbx)
 1511 10e6 4839F2   		cmpq	%rsi, %rdx
 1512 10e9 0F83E902 		jnb	.L389
 1512      0000
 1513 10ef 488D4A01 		leaq	1(%rdx), %rcx
 1514 10f3 4989F1   		movq	%rsi, %r9
 1515 10f6 4C8D5B10 		leaq	16(%rbx), %r11
 1516 10fa 4929C9   		subq	%rcx, %r9
 1517 10fd 4889CF   		movq	%rcx, %rdi
 1518 1100 4F8D540C 		leaq	1(%r12,%r9), %r10
 1518      01
 1519 1105 4D8D4101 		leaq	1(%r9), %r8
 1520 1109 4901C2   		addq	%rax, %r10
 1521 110c 4D39D3   		cmpq	%r10, %r11
 1522 110f 4C8D5311 		leaq	17(%rbx), %r10
 1523 1113 410F93C3 		setnb	%r11b
 1524 1117 4C39D2   		cmpq	%r10, %rdx
 1525 111a 410F93C2 		setnb	%r10b
 1526 111e 4508D3   		orb	%r10b, %r11b
 1527 1121 0F84BD02 		je	.L333
 1527      0000
 1528 1127 4983F816 		cmpq	$22, %r8
 1529 112b 0F86B302 		jbe	.L333
 1529      0000
 1530 1131 4889D1   		movq	%rdx, %rcx
 1531 1134 48F7D9   		negq	%rcx
 1532 1137 83E10F   		andl	$15, %ecx
 1533 113a 4939C8   		cmpq	%rcx, %r8
 1534 113d 490F46C8 		cmovbe	%r8, %rcx
 1535 1141 4885C9   		testq	%rcx, %rcx
 1536 1144 0F843101 		je	.L326
 1536      0000
 1537 114a 440FB653 		movzbl	16(%rbx), %r10d
 1537      10
 1538 114f 4883F901 		cmpq	$1, %rcx
 1539 1153 448812   		movb	%r10b, (%rdx)
 1540 1156 0F841C01 		je	.L327
 1540      0000
 1541 115c 440FB653 		movzbl	16(%rbx), %r10d
 1541      10
 1542 1161 4883F902 		cmpq	$2, %rcx
 1543 1165 488D7A02 		leaq	2(%rdx), %rdi
 1544 1169 44885201 		movb	%r10b, 1(%rdx)
 1545 116d 0F840501 		je	.L327
 1545      0000
 1546 1173 440FB653 		movzbl	16(%rbx), %r10d
 1546      10
 1547 1178 4883F903 		cmpq	$3, %rcx
 1548 117c 488D7A03 		leaq	3(%rdx), %rdi
 1549 1180 44885202 		movb	%r10b, 2(%rdx)
 1550 1184 0F84EE00 		je	.L327
 1550      0000
 1551 118a 440FB653 		movzbl	16(%rbx), %r10d
 1551      10
 1552 118f 4883F904 		cmpq	$4, %rcx
 1553 1193 488D7A04 		leaq	4(%rdx), %rdi
 1554 1197 44885203 		movb	%r10b, 3(%rdx)
 1555 119b 0F84D700 		je	.L327
 1555      0000
 1556 11a1 440FB653 		movzbl	16(%rbx), %r10d
 1556      10
 1557 11a6 4883F905 		cmpq	$5, %rcx
 1558 11aa 488D7A05 		leaq	5(%rdx), %rdi
 1559 11ae 44885204 		movb	%r10b, 4(%rdx)
 1560 11b2 0F84C000 		je	.L327
 1560      0000
 1561 11b8 440FB653 		movzbl	16(%rbx), %r10d
 1561      10
 1562 11bd 4883F906 		cmpq	$6, %rcx
 1563 11c1 488D7A06 		leaq	6(%rdx), %rdi
 1564 11c5 44885205 		movb	%r10b, 5(%rdx)
 1565 11c9 0F84A900 		je	.L327
 1565      0000
 1566 11cf 440FB653 		movzbl	16(%rbx), %r10d
 1566      10
 1567 11d4 4883F907 		cmpq	$7, %rcx
 1568 11d8 488D7A07 		leaq	7(%rdx), %rdi
 1569 11dc 44885206 		movb	%r10b, 6(%rdx)
 1570 11e0 0F849200 		je	.L327
 1570      0000
 1571 11e6 440FB653 		movzbl	16(%rbx), %r10d
 1571      10
 1572 11eb 4883F908 		cmpq	$8, %rcx
 1573 11ef 488D7A08 		leaq	8(%rdx), %rdi
 1574 11f3 44885207 		movb	%r10b, 7(%rdx)
 1575 11f7 747F     		je	.L327
 1576 11f9 440FB653 		movzbl	16(%rbx), %r10d
 1576      10
 1577 11fe 4883F909 		cmpq	$9, %rcx
 1578 1202 488D7A09 		leaq	9(%rdx), %rdi
 1579 1206 44885208 		movb	%r10b, 8(%rdx)
 1580 120a 746C     		je	.L327
 1581 120c 440FB653 		movzbl	16(%rbx), %r10d
 1581      10
 1582 1211 4883F90A 		cmpq	$10, %rcx
 1583 1215 488D7A0A 		leaq	10(%rdx), %rdi
 1584 1219 44885209 		movb	%r10b, 9(%rdx)
 1585 121d 7459     		je	.L327
 1586 121f 440FB653 		movzbl	16(%rbx), %r10d
 1586      10
 1587 1224 4883F90B 		cmpq	$11, %rcx
 1588 1228 488D7A0B 		leaq	11(%rdx), %rdi
 1589 122c 4488520A 		movb	%r10b, 10(%rdx)
 1590 1230 7446     		je	.L327
 1591 1232 440FB653 		movzbl	16(%rbx), %r10d
 1591      10
 1592 1237 4883F90C 		cmpq	$12, %rcx
 1593 123b 488D7A0C 		leaq	12(%rdx), %rdi
 1594 123f 4488520B 		movb	%r10b, 11(%rdx)
 1595 1243 7433     		je	.L327
 1596 1245 440FB653 		movzbl	16(%rbx), %r10d
 1596      10
 1597 124a 4883F90D 		cmpq	$13, %rcx
 1598 124e 488D7A0D 		leaq	13(%rdx), %rdi
 1599 1252 4488520C 		movb	%r10b, 12(%rdx)
 1600 1256 7420     		je	.L327
 1601 1258 440FB653 		movzbl	16(%rbx), %r10d
 1601      10
 1602 125d 4883F90F 		cmpq	$15, %rcx
 1603 1261 488D7A0E 		leaq	14(%rdx), %rdi
 1604 1265 4488520D 		movb	%r10b, 13(%rdx)
 1605 1269 750D     		jne	.L327
 1606 126b 440FB653 		movzbl	16(%rbx), %r10d
 1606      10
 1607 1270 488D7A0F 		leaq	15(%rdx), %rdi
 1608 1274 4488520E 		movb	%r10b, 14(%rdx)
 1609              	.L327:
 1610 1278 4889FA   		movq	%rdi, %rdx
 1611              	.L326:
 1612 127b 4929C8   		subq	%rcx, %r8
 1613 127e 4C89CF   		movq	%r9, %rdi
 1614 1281 4D8D50F0 		leaq	-16(%r8), %r10
 1615 1285 4829CF   		subq	%rcx, %rdi
 1616 1288 49C1EA04 		shrq	$4, %r10
 1617 128c 4983C201 		addq	$1, %r10
 1618 1290 4D89D3   		movq	%r10, %r11
 1619 1293 49C1E304 		salq	$4, %r11
 1620 1297 4883FF0E 		cmpq	$14, %rdi
 1621 129b 763A     		jbe	.L328
 1622 129d 0FB67B10 		movzbl	16(%rbx), %edi
 1623 12a1 4901CC   		addq	%rcx, %r12
 1624 12a4 31C9     		xorl	%ecx, %ecx
 1625 12a6 4C01E0   		addq	%r12, %rax
 1626 12a9 660F6EC7 		movd	%edi, %xmm0
 1627 12ad 660F60C0 		punpcklbw	%xmm0, %xmm0
 1628 12b1 660F61C0 		punpcklwd	%xmm0, %xmm0
 1629 12b5 660F70C0 		pshufd	$0, %xmm0, %xmm0
 1629      00
 1630              	.L329:
 1631 12ba 4883C101 		addq	$1, %rcx
 1632 12be 4883C010 		addq	$16, %rax
 1633 12c2 0F2940F0 		movaps	%xmm0, -16(%rax)
 1634 12c6 4939CA   		cmpq	%rcx, %r10
 1635 12c9 77EF     		ja	.L329
 1636 12cb 4C01DA   		addq	%r11, %rdx
 1637 12ce 4D39D8   		cmpq	%r11, %r8
 1638 12d1 0F84FE00 		je	.L334
 1638      0000
 1639              	.L328:
 1640 12d7 0FB64310 		movzbl	16(%rbx), %eax
 1641 12db 8802     		movb	%al, (%rdx)
 1642 12dd 488D4201 		leaq	1(%rdx), %rax
 1643 12e1 4839C6   		cmpq	%rax, %rsi
 1644 12e4 0F86EB00 		jbe	.L334
 1644      0000
 1645 12ea 0FB64310 		movzbl	16(%rbx), %eax
 1646 12ee 884201   		movb	%al, 1(%rdx)
 1647 12f1 488D4202 		leaq	2(%rdx), %rax
 1648 12f5 4839C6   		cmpq	%rax, %rsi
 1649 12f8 0F86D700 		jbe	.L334
 1649      0000
 1650 12fe 0FB64310 		movzbl	16(%rbx), %eax
 1651 1302 884202   		movb	%al, 2(%rdx)
 1652 1305 488D4203 		leaq	3(%rdx), %rax
 1653 1309 4839C6   		cmpq	%rax, %rsi
 1654 130c 0F86C300 		jbe	.L334
 1654      0000
 1655 1312 0FB64310 		movzbl	16(%rbx), %eax
 1656 1316 884203   		movb	%al, 3(%rdx)
 1657 1319 488D4204 		leaq	4(%rdx), %rax
 1658 131d 4839C6   		cmpq	%rax, %rsi
 1659 1320 0F86AF00 		jbe	.L334
 1659      0000
 1660 1326 0FB64310 		movzbl	16(%rbx), %eax
 1661 132a 884204   		movb	%al, 4(%rdx)
 1662 132d 488D4205 		leaq	5(%rdx), %rax
 1663 1331 4839C6   		cmpq	%rax, %rsi
 1664 1334 0F869B00 		jbe	.L334
 1664      0000
 1665 133a 0FB64310 		movzbl	16(%rbx), %eax
 1666 133e 884205   		movb	%al, 5(%rdx)
 1667 1341 488D4206 		leaq	6(%rdx), %rax
 1668 1345 4839C6   		cmpq	%rax, %rsi
 1669 1348 0F868700 		jbe	.L334
 1669      0000
 1670 134e 0FB64310 		movzbl	16(%rbx), %eax
 1671 1352 884206   		movb	%al, 6(%rdx)
 1672 1355 488D4207 		leaq	7(%rdx), %rax
 1673 1359 4839C6   		cmpq	%rax, %rsi
 1674 135c 7677     		jbe	.L334
 1675 135e 0FB64310 		movzbl	16(%rbx), %eax
 1676 1362 884207   		movb	%al, 7(%rdx)
 1677 1365 488D4208 		leaq	8(%rdx), %rax
 1678 1369 4839C6   		cmpq	%rax, %rsi
 1679 136c 7667     		jbe	.L334
 1680 136e 0FB64310 		movzbl	16(%rbx), %eax
 1681 1372 884208   		movb	%al, 8(%rdx)
 1682 1375 488D4209 		leaq	9(%rdx), %rax
 1683 1379 4839C6   		cmpq	%rax, %rsi
 1684 137c 7657     		jbe	.L334
 1685 137e 0FB64310 		movzbl	16(%rbx), %eax
 1686 1382 884209   		movb	%al, 9(%rdx)
 1687 1385 488D420A 		leaq	10(%rdx), %rax
 1688 1389 4839C6   		cmpq	%rax, %rsi
 1689 138c 7647     		jbe	.L334
 1690 138e 0FB64310 		movzbl	16(%rbx), %eax
 1691 1392 88420A   		movb	%al, 10(%rdx)
 1692 1395 488D420B 		leaq	11(%rdx), %rax
 1693 1399 4839C6   		cmpq	%rax, %rsi
 1694 139c 7637     		jbe	.L334
 1695 139e 0FB64310 		movzbl	16(%rbx), %eax
 1696 13a2 88420B   		movb	%al, 11(%rdx)
 1697 13a5 488D420C 		leaq	12(%rdx), %rax
 1698 13a9 4839C6   		cmpq	%rax, %rsi
 1699 13ac 7627     		jbe	.L334
 1700 13ae 0FB64310 		movzbl	16(%rbx), %eax
 1701 13b2 88420C   		movb	%al, 12(%rdx)
 1702 13b5 488D420D 		leaq	13(%rdx), %rax
 1703 13b9 4839C6   		cmpq	%rax, %rsi
 1704 13bc 7617     		jbe	.L334
 1705 13be 0FB64310 		movzbl	16(%rbx), %eax
 1706 13c2 88420D   		movb	%al, 13(%rdx)
 1707 13c5 488D420E 		leaq	14(%rdx), %rax
 1708 13c9 4839C6   		cmpq	%rax, %rsi
 1709 13cc 7607     		jbe	.L334
 1710 13ce 0FB64310 		movzbl	16(%rbx), %eax
 1711 13d2 88420E   		movb	%al, 14(%rdx)
 1712              	.L334:
 1713 13d5 488B03   		movq	(%rbx), %rax
 1714              	.L389:
 1715 13d8 8B4B08   		movl	8(%rbx), %ecx
 1716 13db E974FCFF 		jmp	.L320
 1716      FF
 1717              		.p2align 4,,10
 1718              		.p2align 3
 1719              	.L393:
 1720 13e0 4883C101 		addq	$1, %rcx
 1721              	.L333:
 1722 13e4 0FB64310 		movzbl	16(%rbx), %eax
 1723 13e8 4839F1   		cmpq	%rsi, %rcx
 1724 13eb 8841FF   		movb	%al, -1(%rcx)
 1725 13ee 75F0     		jne	.L393
 1726 13f0 EBE3     		jmp	.L334
 1727              	.L392:
 1728 13f2 488D3500 		leaq	.LC6(%rip), %rsi
 1728      000000
 1729 13f9 4889D7   		movq	%rdx, %rdi
 1730 13fc E8000000 		call	errRender@PLT
 1730      00
 1731 1401 B8010000 		movl	$1, %eax
 1731      00
 1732 1406 E984FCFF 		jmp	.L323
 1732      FF
 1733              	.L391:
 1734 140b E8000000 		call	__stack_chk_fail@PLT
 1734      00
 1735              		.cfi_endproc
 1736              	.LFE56:
 1738              		.section	.text.unlikely
 1739              	.LCOLDE10:
 1740              		.text
 1741              	.LHOTE10:
 1742              		.section	.text.unlikely
 1743              	.LCOLDB11:
 1744              		.text
 1745              	.LHOTB11:
 1746              		.p2align 4,,15
 1747              		.globl	bufAppendLongBE
 1749              	bufAppendLongBE:
 1750              	.LFB57:
 1751              		.cfi_startproc
 1752 1410 4156     		pushq	%r14
 1753              		.cfi_def_cfa_offset 16
 1754              		.cfi_offset 14, -16
 1755 1412 4155     		pushq	%r13
 1756              		.cfi_def_cfa_offset 24
 1757              		.cfi_offset 13, -24
 1758 1414 4189F5   		movl	%esi, %r13d
 1759 1417 4154     		pushq	%r12
 1760              		.cfi_def_cfa_offset 32
 1761              		.cfi_offset 12, -32
 1762 1419 55       		pushq	%rbp
 1763              		.cfi_def_cfa_offset 40
 1764              		.cfi_offset 6, -40
 1765 141a 53       		pushq	%rbx
 1766              		.cfi_def_cfa_offset 48
 1767              		.cfi_offset 3, -48
 1768 141b 4889FB   		movq	%rdi, %rbx
 1769 141e 4883EC20 		subq	$32, %rsp
 1770              		.cfi_def_cfa_offset 80
 1771 1422 8B4F08   		movl	8(%rdi), %ecx
 1772 1425 8B6F0C   		movl	12(%rdi), %ebp
 1773 1428 64488B04 		movq	%fs:40, %rax
 1773      25280000 
 1773      00
 1774 1431 48894424 		movq	%rax, 24(%rsp)
 1774      18
 1775 1436 31C0     		xorl	%eax, %eax
 1776 1438 448D6104 		leal	4(%rcx), %r12d
 1777 143c 4139EC   		cmpl	%ebp, %r12d
 1778 143f 775F     		ja	.L397
 1779 1441 488B07   		movq	(%rdi), %rax
 1780              	.L396:
 1781 1444 4489EA   		movl	%r13d, %edx
 1782 1447 C1EA18   		shrl	$24, %edx
 1783 144a 881408   		movb	%dl, (%rax,%rcx)
 1784 144d 8B4308   		movl	8(%rbx), %eax
 1785 1450 4489E9   		movl	%r13d, %ecx
 1786 1453 488B13   		movq	(%rbx), %rdx
 1787 1456 C1E910   		shrl	$16, %ecx
 1788 1459 884C0201 		movb	%cl, 1(%rdx,%rax)
 1789 145d 8B4308   		movl	8(%rbx), %eax
 1790 1460 4489E9   		movl	%r13d, %ecx
 1791 1463 488B13   		movq	(%rbx), %rdx
 1792 1466 0FB6CD   		movzbl	%ch, %ecx
 1793 1469 884C0202 		movb	%cl, 2(%rdx,%rax)
 1794 146d 8B4308   		movl	8(%rbx), %eax
 1795 1470 488B13   		movq	(%rbx), %rdx
 1796 1473 44886C02 		movb	%r13b, 3(%rdx,%rax)
 1796      03
 1797 1478 83430804 		addl	$4, 8(%rbx)
 1798 147c 31C0     		xorl	%eax, %eax
 1799              	.L399:
 1800 147e 488B7C24 		movq	24(%rsp), %rdi
 1800      18
 1801 1483 6448333C 		xorq	%fs:40, %rdi
 1801      25280000 
 1801      00
 1802 148c 0F856903 		jne	.L467
 1802      0000
 1803 1492 4883C420 		addq	$32, %rsp
 1804              		.cfi_remember_state
 1805              		.cfi_def_cfa_offset 48
 1806 1496 5B       		popq	%rbx
 1807              		.cfi_def_cfa_offset 40
 1808 1497 5D       		popq	%rbp
 1809              		.cfi_def_cfa_offset 32
 1810 1498 415C     		popq	%r12
 1811              		.cfi_def_cfa_offset 24
 1812 149a 415D     		popq	%r13
 1813              		.cfi_def_cfa_offset 16
 1814 149c 415E     		popq	%r14
 1815              		.cfi_def_cfa_offset 8
 1816 149e C3       		ret
 1817 149f 90       		.p2align 4,,10
 1818              		.p2align 3
 1819              	.L397:
 1820              		.cfi_restore_state
 1821 14a0 01ED     		addl	%ebp, %ebp
 1822 14a2 4139EC   		cmpl	%ebp, %r12d
 1823 14a5 77F9     		ja	.L397
 1824 14a7 488B3B   		movq	(%rbx), %rdi
 1825 14aa 4189EE   		movl	%ebp, %r14d
 1826 14ad 48895424 		movq	%rdx, 8(%rsp)
 1826      08
 1827 14b2 4C89F6   		movq	%r14, %rsi
 1828 14b5 E8000000 		call	realloc@PLT
 1828      00
 1829 14ba 4885C0   		testq	%rax, %rax
 1830 14bd 488903   		movq	%rax, (%rbx)
 1831 14c0 488B5424 		movq	8(%rsp), %rdx
 1831      08
 1832 14c5 0F841703 		je	.L468
 1832      0000
 1833 14cb 4A8D1420 		leaq	(%rax,%r12), %rdx
 1834 14cf 4A8D3430 		leaq	(%rax,%r14), %rsi
 1835 14d3 896B0C   		movl	%ebp, 12(%rbx)
 1836 14d6 4839F2   		cmpq	%rsi, %rdx
 1837 14d9 0F83E902 		jnb	.L465
 1837      0000
 1838 14df 488D4A01 		leaq	1(%rdx), %rcx
 1839 14e3 4989F1   		movq	%rsi, %r9
 1840 14e6 4C8D5B10 		leaq	16(%rbx), %r11
 1841 14ea 4929C9   		subq	%rcx, %r9
 1842 14ed 4889CF   		movq	%rcx, %rdi
 1843 14f0 4F8D540C 		leaq	1(%r12,%r9), %r10
 1843      01
 1844 14f5 4D8D4101 		leaq	1(%r9), %r8
 1845 14f9 4901C2   		addq	%rax, %r10
 1846 14fc 4D39D3   		cmpq	%r10, %r11
 1847 14ff 4C8D5311 		leaq	17(%rbx), %r10
 1848 1503 410F93C3 		setnb	%r11b
 1849 1507 4C39D2   		cmpq	%r10, %rdx
 1850 150a 410F93C2 		setnb	%r10b
 1851 150e 4508D3   		orb	%r10b, %r11b
 1852 1511 0F84BD02 		je	.L409
 1852      0000
 1853 1517 4983F816 		cmpq	$22, %r8
 1854 151b 0F86B302 		jbe	.L409
 1854      0000
 1855 1521 4889D1   		movq	%rdx, %rcx
 1856 1524 48F7D9   		negq	%rcx
 1857 1527 83E10F   		andl	$15, %ecx
 1858 152a 4939C8   		cmpq	%rcx, %r8
 1859 152d 490F46C8 		cmovbe	%r8, %rcx
 1860 1531 4885C9   		testq	%rcx, %rcx
 1861 1534 0F843101 		je	.L402
 1861      0000
 1862 153a 440FB653 		movzbl	16(%rbx), %r10d
 1862      10
 1863 153f 4883F901 		cmpq	$1, %rcx
 1864 1543 448812   		movb	%r10b, (%rdx)
 1865 1546 0F841C01 		je	.L403
 1865      0000
 1866 154c 440FB653 		movzbl	16(%rbx), %r10d
 1866      10
 1867 1551 4883F902 		cmpq	$2, %rcx
 1868 1555 488D7A02 		leaq	2(%rdx), %rdi
 1869 1559 44885201 		movb	%r10b, 1(%rdx)
 1870 155d 0F840501 		je	.L403
 1870      0000
 1871 1563 440FB653 		movzbl	16(%rbx), %r10d
 1871      10
 1872 1568 4883F903 		cmpq	$3, %rcx
 1873 156c 488D7A03 		leaq	3(%rdx), %rdi
 1874 1570 44885202 		movb	%r10b, 2(%rdx)
 1875 1574 0F84EE00 		je	.L403
 1875      0000
 1876 157a 440FB653 		movzbl	16(%rbx), %r10d
 1876      10
 1877 157f 4883F904 		cmpq	$4, %rcx
 1878 1583 488D7A04 		leaq	4(%rdx), %rdi
 1879 1587 44885203 		movb	%r10b, 3(%rdx)
 1880 158b 0F84D700 		je	.L403
 1880      0000
 1881 1591 440FB653 		movzbl	16(%rbx), %r10d
 1881      10
 1882 1596 4883F905 		cmpq	$5, %rcx
 1883 159a 488D7A05 		leaq	5(%rdx), %rdi
 1884 159e 44885204 		movb	%r10b, 4(%rdx)
 1885 15a2 0F84C000 		je	.L403
 1885      0000
 1886 15a8 440FB653 		movzbl	16(%rbx), %r10d
 1886      10
 1887 15ad 4883F906 		cmpq	$6, %rcx
 1888 15b1 488D7A06 		leaq	6(%rdx), %rdi
 1889 15b5 44885205 		movb	%r10b, 5(%rdx)
 1890 15b9 0F84A900 		je	.L403
 1890      0000
 1891 15bf 440FB653 		movzbl	16(%rbx), %r10d
 1891      10
 1892 15c4 4883F907 		cmpq	$7, %rcx
 1893 15c8 488D7A07 		leaq	7(%rdx), %rdi
 1894 15cc 44885206 		movb	%r10b, 6(%rdx)
 1895 15d0 0F849200 		je	.L403
 1895      0000
 1896 15d6 440FB653 		movzbl	16(%rbx), %r10d
 1896      10
 1897 15db 4883F908 		cmpq	$8, %rcx
 1898 15df 488D7A08 		leaq	8(%rdx), %rdi
 1899 15e3 44885207 		movb	%r10b, 7(%rdx)
 1900 15e7 747F     		je	.L403
 1901 15e9 440FB653 		movzbl	16(%rbx), %r10d
 1901      10
 1902 15ee 4883F909 		cmpq	$9, %rcx
 1903 15f2 488D7A09 		leaq	9(%rdx), %rdi
 1904 15f6 44885208 		movb	%r10b, 8(%rdx)
 1905 15fa 746C     		je	.L403
 1906 15fc 440FB653 		movzbl	16(%rbx), %r10d
 1906      10
 1907 1601 4883F90A 		cmpq	$10, %rcx
 1908 1605 488D7A0A 		leaq	10(%rdx), %rdi
 1909 1609 44885209 		movb	%r10b, 9(%rdx)
 1910 160d 7459     		je	.L403
 1911 160f 440FB653 		movzbl	16(%rbx), %r10d
 1911      10
 1912 1614 4883F90B 		cmpq	$11, %rcx
 1913 1618 488D7A0B 		leaq	11(%rdx), %rdi
 1914 161c 4488520A 		movb	%r10b, 10(%rdx)
 1915 1620 7446     		je	.L403
 1916 1622 440FB653 		movzbl	16(%rbx), %r10d
 1916      10
 1917 1627 4883F90C 		cmpq	$12, %rcx
 1918 162b 488D7A0C 		leaq	12(%rdx), %rdi
 1919 162f 4488520B 		movb	%r10b, 11(%rdx)
 1920 1633 7433     		je	.L403
 1921 1635 440FB653 		movzbl	16(%rbx), %r10d
 1921      10
 1922 163a 4883F90D 		cmpq	$13, %rcx
 1923 163e 488D7A0D 		leaq	13(%rdx), %rdi
 1924 1642 4488520C 		movb	%r10b, 12(%rdx)
 1925 1646 7420     		je	.L403
 1926 1648 440FB653 		movzbl	16(%rbx), %r10d
 1926      10
 1927 164d 4883F90F 		cmpq	$15, %rcx
 1928 1651 488D7A0E 		leaq	14(%rdx), %rdi
 1929 1655 4488520D 		movb	%r10b, 13(%rdx)
 1930 1659 750D     		jne	.L403
 1931 165b 440FB653 		movzbl	16(%rbx), %r10d
 1931      10
 1932 1660 488D7A0F 		leaq	15(%rdx), %rdi
 1933 1664 4488520E 		movb	%r10b, 14(%rdx)
 1934              	.L403:
 1935 1668 4889FA   		movq	%rdi, %rdx
 1936              	.L402:
 1937 166b 4929C8   		subq	%rcx, %r8
 1938 166e 4C89CF   		movq	%r9, %rdi
 1939 1671 4D8D50F0 		leaq	-16(%r8), %r10
 1940 1675 4829CF   		subq	%rcx, %rdi
 1941 1678 49C1EA04 		shrq	$4, %r10
 1942 167c 4983C201 		addq	$1, %r10
 1943 1680 4D89D3   		movq	%r10, %r11
 1944 1683 49C1E304 		salq	$4, %r11
 1945 1687 4883FF0E 		cmpq	$14, %rdi
 1946 168b 763A     		jbe	.L404
 1947 168d 0FB67B10 		movzbl	16(%rbx), %edi
 1948 1691 4901CC   		addq	%rcx, %r12
 1949 1694 31C9     		xorl	%ecx, %ecx
 1950 1696 4C01E0   		addq	%r12, %rax
 1951 1699 660F6EC7 		movd	%edi, %xmm0
 1952 169d 660F60C0 		punpcklbw	%xmm0, %xmm0
 1953 16a1 660F61C0 		punpcklwd	%xmm0, %xmm0
 1954 16a5 660F70C0 		pshufd	$0, %xmm0, %xmm0
 1954      00
 1955              	.L405:
 1956 16aa 4883C101 		addq	$1, %rcx
 1957 16ae 4883C010 		addq	$16, %rax
 1958 16b2 0F2940F0 		movaps	%xmm0, -16(%rax)
 1959 16b6 4939CA   		cmpq	%rcx, %r10
 1960 16b9 77EF     		ja	.L405
 1961 16bb 4C01DA   		addq	%r11, %rdx
 1962 16be 4D39D8   		cmpq	%r11, %r8
 1963 16c1 0F84FE00 		je	.L410
 1963      0000
 1964              	.L404:
 1965 16c7 0FB64310 		movzbl	16(%rbx), %eax
 1966 16cb 8802     		movb	%al, (%rdx)
 1967 16cd 488D4201 		leaq	1(%rdx), %rax
 1968 16d1 4839C6   		cmpq	%rax, %rsi
 1969 16d4 0F86EB00 		jbe	.L410
 1969      0000
 1970 16da 0FB64310 		movzbl	16(%rbx), %eax
 1971 16de 884201   		movb	%al, 1(%rdx)
 1972 16e1 488D4202 		leaq	2(%rdx), %rax
 1973 16e5 4839C6   		cmpq	%rax, %rsi
 1974 16e8 0F86D700 		jbe	.L410
 1974      0000
 1975 16ee 0FB64310 		movzbl	16(%rbx), %eax
 1976 16f2 884202   		movb	%al, 2(%rdx)
 1977 16f5 488D4203 		leaq	3(%rdx), %rax
 1978 16f9 4839C6   		cmpq	%rax, %rsi
 1979 16fc 0F86C300 		jbe	.L410
 1979      0000
 1980 1702 0FB64310 		movzbl	16(%rbx), %eax
 1981 1706 884203   		movb	%al, 3(%rdx)
 1982 1709 488D4204 		leaq	4(%rdx), %rax
 1983 170d 4839C6   		cmpq	%rax, %rsi
 1984 1710 0F86AF00 		jbe	.L410
 1984      0000
 1985 1716 0FB64310 		movzbl	16(%rbx), %eax
 1986 171a 884204   		movb	%al, 4(%rdx)
 1987 171d 488D4205 		leaq	5(%rdx), %rax
 1988 1721 4839C6   		cmpq	%rax, %rsi
 1989 1724 0F869B00 		jbe	.L410
 1989      0000
 1990 172a 0FB64310 		movzbl	16(%rbx), %eax
 1991 172e 884205   		movb	%al, 5(%rdx)
 1992 1731 488D4206 		leaq	6(%rdx), %rax
 1993 1735 4839C6   		cmpq	%rax, %rsi
 1994 1738 0F868700 		jbe	.L410
 1994      0000
 1995 173e 0FB64310 		movzbl	16(%rbx), %eax
 1996 1742 884206   		movb	%al, 6(%rdx)
 1997 1745 488D4207 		leaq	7(%rdx), %rax
 1998 1749 4839C6   		cmpq	%rax, %rsi
 1999 174c 7677     		jbe	.L410
 2000 174e 0FB64310 		movzbl	16(%rbx), %eax
 2001 1752 884207   		movb	%al, 7(%rdx)
 2002 1755 488D4208 		leaq	8(%rdx), %rax
 2003 1759 4839C6   		cmpq	%rax, %rsi
 2004 175c 7667     		jbe	.L410
 2005 175e 0FB64310 		movzbl	16(%rbx), %eax
 2006 1762 884208   		movb	%al, 8(%rdx)
 2007 1765 488D4209 		leaq	9(%rdx), %rax
 2008 1769 4839C6   		cmpq	%rax, %rsi
 2009 176c 7657     		jbe	.L410
 2010 176e 0FB64310 		movzbl	16(%rbx), %eax
 2011 1772 884209   		movb	%al, 9(%rdx)
 2012 1775 488D420A 		leaq	10(%rdx), %rax
 2013 1779 4839C6   		cmpq	%rax, %rsi
 2014 177c 7647     		jbe	.L410
 2015 177e 0FB64310 		movzbl	16(%rbx), %eax
 2016 1782 88420A   		movb	%al, 10(%rdx)
 2017 1785 488D420B 		leaq	11(%rdx), %rax
 2018 1789 4839C6   		cmpq	%rax, %rsi
 2019 178c 7637     		jbe	.L410
 2020 178e 0FB64310 		movzbl	16(%rbx), %eax
 2021 1792 88420B   		movb	%al, 11(%rdx)
 2022 1795 488D420C 		leaq	12(%rdx), %rax
 2023 1799 4839C6   		cmpq	%rax, %rsi
 2024 179c 7627     		jbe	.L410
 2025 179e 0FB64310 		movzbl	16(%rbx), %eax
 2026 17a2 88420C   		movb	%al, 12(%rdx)
 2027 17a5 488D420D 		leaq	13(%rdx), %rax
 2028 17a9 4839C6   		cmpq	%rax, %rsi
 2029 17ac 7617     		jbe	.L410
 2030 17ae 0FB64310 		movzbl	16(%rbx), %eax
 2031 17b2 88420D   		movb	%al, 13(%rdx)
 2032 17b5 488D420E 		leaq	14(%rdx), %rax
 2033 17b9 4839C6   		cmpq	%rax, %rsi
 2034 17bc 7607     		jbe	.L410
 2035 17be 0FB64310 		movzbl	16(%rbx), %eax
 2036 17c2 88420E   		movb	%al, 14(%rdx)
 2037              	.L410:
 2038 17c5 488B03   		movq	(%rbx), %rax
 2039              	.L465:
 2040 17c8 8B4B08   		movl	8(%rbx), %ecx
 2041 17cb E974FCFF 		jmp	.L396
 2041      FF
 2042              		.p2align 4,,10
 2043              		.p2align 3
 2044              	.L469:
 2045 17d0 4883C101 		addq	$1, %rcx
 2046              	.L409:
 2047 17d4 0FB64310 		movzbl	16(%rbx), %eax
 2048 17d8 4839F1   		cmpq	%rsi, %rcx
 2049 17db 8841FF   		movb	%al, -1(%rcx)
 2050 17de 75F0     		jne	.L469
 2051 17e0 EBE3     		jmp	.L410
 2052              	.L468:
 2053 17e2 488D3500 		leaq	.LC6(%rip), %rsi
 2053      000000
 2054 17e9 4889D7   		movq	%rdx, %rdi
 2055 17ec E8000000 		call	errRender@PLT
 2055      00
 2056 17f1 B8010000 		movl	$1, %eax
 2056      00
 2057 17f6 E983FCFF 		jmp	.L399
 2057      FF
 2058              	.L467:
 2059 17fb E8000000 		call	__stack_chk_fail@PLT
 2059      00
 2060              		.cfi_endproc
 2061              	.LFE57:
 2063              		.section	.text.unlikely
 2064              	.LCOLDE11:
 2065              		.text
 2066              	.LHOTE11:
 2067              		.section	.text.unlikely
 2068              	.LCOLDB12:
 2069              		.text
 2070              	.LHOTB12:
 2071              		.p2align 4,,15
 2072              		.globl	bufAppendConst
 2074              	bufAppendConst:
 2075              	.LFB58:
 2076              		.cfi_startproc
 2077 1800 4156     		pushq	%r14
 2078              		.cfi_def_cfa_offset 16
 2079              		.cfi_offset 14, -16
 2080 1802 4155     		pushq	%r13
 2081              		.cfi_def_cfa_offset 24
 2082              		.cfi_offset 13, -24
 2083 1804 4189F5   		movl	%esi, %r13d
 2084 1807 4154     		pushq	%r12
 2085              		.cfi_def_cfa_offset 32
 2086              		.cfi_offset 12, -32
 2087 1809 55       		pushq	%rbp
 2088              		.cfi_def_cfa_offset 40
 2089              		.cfi_offset 6, -40
 2090 180a 4889FD   		movq	%rdi, %rbp
 2091 180d 53       		pushq	%rbx
 2092              		.cfi_def_cfa_offset 48
 2093              		.cfi_offset 3, -48
 2094 180e 4883EC10 		subq	$16, %rsp
 2095              		.cfi_def_cfa_offset 64
 2096 1812 8B4708   		movl	8(%rdi), %eax
 2097 1815 8B5F0C   		movl	12(%rdi), %ebx
 2098 1818 448D2402 		leal	(%rdx,%rax), %r12d
 2099 181c 4139DC   		cmpl	%ebx, %r12d
 2100 181f 7727     		ja	.L472
 2101 1821 89C7     		movl	%eax, %edi
 2102 1823 48037D00 		addq	0(%rbp), %rdi
 2103 1827 89D2     		movl	%edx, %edx
 2104 1829 400FB6F6 		movzbl	%sil, %esi
 2105              	.L486:
 2106 182d E8000000 		call	memset@PLT
 2106      00
 2107 1832 44896508 		movl	%r12d, 8(%rbp)
 2108 1836 31C0     		xorl	%eax, %eax
 2109              	.L539:
 2110 1838 4883C410 		addq	$16, %rsp
 2111              		.cfi_remember_state
 2112              		.cfi_def_cfa_offset 48
 2113 183c 5B       		popq	%rbx
 2114              		.cfi_def_cfa_offset 40
 2115 183d 5D       		popq	%rbp
 2116              		.cfi_def_cfa_offset 32
 2117 183e 415C     		popq	%r12
 2118              		.cfi_def_cfa_offset 24
 2119 1840 415D     		popq	%r13
 2120              		.cfi_def_cfa_offset 16
 2121 1842 415E     		popq	%r14
 2122              		.cfi_def_cfa_offset 8
 2123 1844 C3       		ret
 2124              		.p2align 4,,10
 2125 1845 0F1F00   		.p2align 3
 2126              	.L472:
 2127              		.cfi_restore_state
 2128 1848 01DB     		addl	%ebx, %ebx
 2129 184a 4139DC   		cmpl	%ebx, %r12d
 2130 184d 77F9     		ja	.L472
 2131 184f 488B7D00 		movq	0(%rbp), %rdi
 2132 1853 4189DE   		movl	%ebx, %r14d
 2133 1856 48894C24 		movq	%rcx, 8(%rsp)
 2133      08
 2134 185b 4C89F6   		movq	%r14, %rsi
 2135 185e 89542404 		movl	%edx, 4(%rsp)
 2136 1862 E8000000 		call	realloc@PLT
 2136      00
 2137 1867 4885C0   		testq	%rax, %rax
 2138 186a 48894500 		movq	%rax, 0(%rbp)
 2139 186e 8B542404 		movl	4(%rsp), %edx
 2140 1872 488B4C24 		movq	8(%rsp), %rcx
 2140      08
 2141 1877 0F841D03 		je	.L543
 2141      0000
 2142 187d 4489E7   		movl	%r12d, %edi
 2143 1880 4E8D0430 		leaq	(%rax,%r14), %r8
 2144 1884 895D0C   		movl	%ebx, 12(%rbp)
 2145 1887 488D0C38 		leaq	(%rax,%rdi), %rcx
 2146 188b 4C39C1   		cmpq	%r8, %rcx
 2147 188e 0F83DD02 		jnb	.L475
 2147      0000
 2148 1894 488D7101 		leaq	1(%rcx), %rsi
 2149 1898 4D89C6   		movq	%r8, %r14
 2150 189b 488D5D10 		leaq	16(%rbp), %rbx
 2151 189f 4929F6   		subq	%rsi, %r14
 2152 18a2 4989F2   		movq	%rsi, %r10
 2153 18a5 4E8D4C37 		leaq	1(%rdi,%r14), %r9
 2153      01
 2154 18aa 4D8D5E01 		leaq	1(%r14), %r11
 2155 18ae 4901C1   		addq	%rax, %r9
 2156 18b1 4C39CB   		cmpq	%r9, %rbx
 2157 18b4 4C8D4D11 		leaq	17(%rbp), %r9
 2158 18b8 0F93C3   		setnb	%bl
 2159 18bb 4C39C9   		cmpq	%r9, %rcx
 2160 18be 410F93C1 		setnb	%r9b
 2161 18c2 4408CB   		orb	%r9b, %bl
 2162 18c5 0F84C102 		je	.L484
 2162      0000
 2163 18cb 4983FB16 		cmpq	$22, %r11
 2164 18cf 0F86B702 		jbe	.L484
 2164      0000
 2165 18d5 4989C9   		movq	%rcx, %r9
 2166 18d8 49F7D9   		negq	%r9
 2167 18db 4183E10F 		andl	$15, %r9d
 2168 18df 4D39CB   		cmpq	%r9, %r11
 2169 18e2 4D0F46CB 		cmovbe	%r11, %r9
 2170 18e6 4D85C9   		testq	%r9, %r9
 2171 18e9 0F842201 		je	.L477
 2171      0000
 2172 18ef 0FB67510 		movzbl	16(%rbp), %esi
 2173 18f3 4983F901 		cmpq	$1, %r9
 2174 18f7 408831   		movb	%sil, (%rcx)
 2175 18fa 0F840E01 		je	.L478
 2175      0000
 2176 1900 0FB67510 		movzbl	16(%rbp), %esi
 2177 1904 4983F902 		cmpq	$2, %r9
 2178 1908 4C8D5102 		leaq	2(%rcx), %r10
 2179 190c 40887101 		movb	%sil, 1(%rcx)
 2180 1910 0F84F800 		je	.L478
 2180      0000
 2181 1916 0FB67510 		movzbl	16(%rbp), %esi
 2182 191a 4983F903 		cmpq	$3, %r9
 2183 191e 4C8D5103 		leaq	3(%rcx), %r10
 2184 1922 40887102 		movb	%sil, 2(%rcx)
 2185 1926 0F84E200 		je	.L478
 2185      0000
 2186 192c 0FB67510 		movzbl	16(%rbp), %esi
 2187 1930 4983F904 		cmpq	$4, %r9
 2188 1934 4C8D5104 		leaq	4(%rcx), %r10
 2189 1938 40887103 		movb	%sil, 3(%rcx)
 2190 193c 0F84CC00 		je	.L478
 2190      0000
 2191 1942 0FB67510 		movzbl	16(%rbp), %esi
 2192 1946 4983F905 		cmpq	$5, %r9
 2193 194a 4C8D5105 		leaq	5(%rcx), %r10
 2194 194e 40887104 		movb	%sil, 4(%rcx)
 2195 1952 0F84B600 		je	.L478
 2195      0000
 2196 1958 0FB67510 		movzbl	16(%rbp), %esi
 2197 195c 4983F906 		cmpq	$6, %r9
 2198 1960 4C8D5106 		leaq	6(%rcx), %r10
 2199 1964 40887105 		movb	%sil, 5(%rcx)
 2200 1968 0F84A000 		je	.L478
 2200      0000
 2201 196e 0FB67510 		movzbl	16(%rbp), %esi
 2202 1972 4983F907 		cmpq	$7, %r9
 2203 1976 4C8D5107 		leaq	7(%rcx), %r10
 2204 197a 40887106 		movb	%sil, 6(%rcx)
 2205 197e 0F848A00 		je	.L478
 2205      0000
 2206 1984 0FB67510 		movzbl	16(%rbp), %esi
 2207 1988 4983F908 		cmpq	$8, %r9
 2208 198c 4C8D5108 		leaq	8(%rcx), %r10
 2209 1990 40887107 		movb	%sil, 7(%rcx)
 2210 1994 7478     		je	.L478
 2211 1996 0FB67510 		movzbl	16(%rbp), %esi
 2212 199a 4983F909 		cmpq	$9, %r9
 2213 199e 4C8D5109 		leaq	9(%rcx), %r10
 2214 19a2 40887108 		movb	%sil, 8(%rcx)
 2215 19a6 7466     		je	.L478
 2216 19a8 0FB67510 		movzbl	16(%rbp), %esi
 2217 19ac 4983F90A 		cmpq	$10, %r9
 2218 19b0 4C8D510A 		leaq	10(%rcx), %r10
 2219 19b4 40887109 		movb	%sil, 9(%rcx)
 2220 19b8 7454     		je	.L478
 2221 19ba 0FB67510 		movzbl	16(%rbp), %esi
 2222 19be 4983F90B 		cmpq	$11, %r9
 2223 19c2 4C8D510B 		leaq	11(%rcx), %r10
 2224 19c6 4088710A 		movb	%sil, 10(%rcx)
 2225 19ca 7442     		je	.L478
 2226 19cc 0FB67510 		movzbl	16(%rbp), %esi
 2227 19d0 4983F90C 		cmpq	$12, %r9
 2228 19d4 4C8D510C 		leaq	12(%rcx), %r10
 2229 19d8 4088710B 		movb	%sil, 11(%rcx)
 2230 19dc 7430     		je	.L478
 2231 19de 0FB67510 		movzbl	16(%rbp), %esi
 2232 19e2 4983F90D 		cmpq	$13, %r9
 2233 19e6 4C8D510D 		leaq	13(%rcx), %r10
 2234 19ea 4088710C 		movb	%sil, 12(%rcx)
 2235 19ee 741E     		je	.L478
 2236 19f0 0FB67510 		movzbl	16(%rbp), %esi
 2237 19f4 4983F90F 		cmpq	$15, %r9
 2238 19f8 4C8D510E 		leaq	14(%rcx), %r10
 2239 19fc 4088710D 		movb	%sil, 13(%rcx)
 2240 1a00 750C     		jne	.L478
 2241 1a02 0FB67510 		movzbl	16(%rbp), %esi
 2242 1a06 4C8D510F 		leaq	15(%rcx), %r10
 2243 1a0a 4088710E 		movb	%sil, 14(%rcx)
 2244              	.L478:
 2245 1a0e 4C89D1   		movq	%r10, %rcx
 2246              	.L477:
 2247 1a11 4C89DE   		movq	%r11, %rsi
 2248 1a14 4D29CE   		subq	%r9, %r14
 2249 1a17 4C29CE   		subq	%r9, %rsi
 2250 1a1a 4C8D5EF0 		leaq	-16(%rsi), %r11
 2251 1a1e 49C1EB04 		shrq	$4, %r11
 2252 1a22 4983C301 		addq	$1, %r11
 2253 1a26 4C89DB   		movq	%r11, %rbx
 2254 1a29 48C1E304 		salq	$4, %rbx
 2255 1a2d 4983FE0E 		cmpq	$14, %r14
 2256 1a31 763C     		jbe	.L479
 2257 1a33 440FB655 		movzbl	16(%rbp), %r10d
 2257      10
 2258 1a38 4901F9   		addq	%rdi, %r9
 2259 1a3b 31FF     		xorl	%edi, %edi
 2260 1a3d 4C01C8   		addq	%r9, %rax
 2261 1a40 66410F6E 		movd	%r10d, %xmm0
 2261      C2
 2262 1a45 660F60C0 		punpcklbw	%xmm0, %xmm0
 2263 1a49 660F61C0 		punpcklwd	%xmm0, %xmm0
 2264 1a4d 660F70C0 		pshufd	$0, %xmm0, %xmm0
 2264      00
 2265              	.L480:
 2266 1a52 4883C701 		addq	$1, %rdi
 2267 1a56 4883C010 		addq	$16, %rax
 2268 1a5a 0F2940F0 		movaps	%xmm0, -16(%rax)
 2269 1a5e 4939FB   		cmpq	%rdi, %r11
 2270 1a61 77EF     		ja	.L480
 2271 1a63 4801D9   		addq	%rbx, %rcx
 2272 1a66 4839DE   		cmpq	%rbx, %rsi
 2273 1a69 0F84FE00 		je	.L485
 2273      0000
 2274              	.L479:
 2275 1a6f 0FB64510 		movzbl	16(%rbp), %eax
 2276 1a73 8801     		movb	%al, (%rcx)
 2277 1a75 488D4101 		leaq	1(%rcx), %rax
 2278 1a79 4939C0   		cmpq	%rax, %r8
 2279 1a7c 0F86EB00 		jbe	.L485
 2279      0000
 2280 1a82 0FB64510 		movzbl	16(%rbp), %eax
 2281 1a86 884101   		movb	%al, 1(%rcx)
 2282 1a89 488D4102 		leaq	2(%rcx), %rax
 2283 1a8d 4939C0   		cmpq	%rax, %r8
 2284 1a90 0F86D700 		jbe	.L485
 2284      0000
 2285 1a96 0FB64510 		movzbl	16(%rbp), %eax
 2286 1a9a 884102   		movb	%al, 2(%rcx)
 2287 1a9d 488D4103 		leaq	3(%rcx), %rax
 2288 1aa1 4939C0   		cmpq	%rax, %r8
 2289 1aa4 0F86C300 		jbe	.L485
 2289      0000
 2290 1aaa 0FB64510 		movzbl	16(%rbp), %eax
 2291 1aae 884103   		movb	%al, 3(%rcx)
 2292 1ab1 488D4104 		leaq	4(%rcx), %rax
 2293 1ab5 4939C0   		cmpq	%rax, %r8
 2294 1ab8 0F86AF00 		jbe	.L485
 2294      0000
 2295 1abe 0FB64510 		movzbl	16(%rbp), %eax
 2296 1ac2 884104   		movb	%al, 4(%rcx)
 2297 1ac5 488D4105 		leaq	5(%rcx), %rax
 2298 1ac9 4939C0   		cmpq	%rax, %r8
 2299 1acc 0F869B00 		jbe	.L485
 2299      0000
 2300 1ad2 0FB64510 		movzbl	16(%rbp), %eax
 2301 1ad6 884105   		movb	%al, 5(%rcx)
 2302 1ad9 488D4106 		leaq	6(%rcx), %rax
 2303 1add 4939C0   		cmpq	%rax, %r8
 2304 1ae0 0F868700 		jbe	.L485
 2304      0000
 2305 1ae6 0FB64510 		movzbl	16(%rbp), %eax
 2306 1aea 884106   		movb	%al, 6(%rcx)
 2307 1aed 488D4107 		leaq	7(%rcx), %rax
 2308 1af1 4939C0   		cmpq	%rax, %r8
 2309 1af4 7677     		jbe	.L485
 2310 1af6 0FB64510 		movzbl	16(%rbp), %eax
 2311 1afa 884107   		movb	%al, 7(%rcx)
 2312 1afd 488D4108 		leaq	8(%rcx), %rax
 2313 1b01 4939C0   		cmpq	%rax, %r8
 2314 1b04 7667     		jbe	.L485
 2315 1b06 0FB64510 		movzbl	16(%rbp), %eax
 2316 1b0a 884108   		movb	%al, 8(%rcx)
 2317 1b0d 488D4109 		leaq	9(%rcx), %rax
 2318 1b11 4939C0   		cmpq	%rax, %r8
 2319 1b14 7657     		jbe	.L485
 2320 1b16 0FB64510 		movzbl	16(%rbp), %eax
 2321 1b1a 884109   		movb	%al, 9(%rcx)
 2322 1b1d 488D410A 		leaq	10(%rcx), %rax
 2323 1b21 4939C0   		cmpq	%rax, %r8
 2324 1b24 7647     		jbe	.L485
 2325 1b26 0FB64510 		movzbl	16(%rbp), %eax
 2326 1b2a 88410A   		movb	%al, 10(%rcx)
 2327 1b2d 488D410B 		leaq	11(%rcx), %rax
 2328 1b31 4939C0   		cmpq	%rax, %r8
 2329 1b34 7637     		jbe	.L485
 2330 1b36 0FB64510 		movzbl	16(%rbp), %eax
 2331 1b3a 88410B   		movb	%al, 11(%rcx)
 2332 1b3d 488D410C 		leaq	12(%rcx), %rax
 2333 1b41 4939C0   		cmpq	%rax, %r8
 2334 1b44 7627     		jbe	.L485
 2335 1b46 0FB64510 		movzbl	16(%rbp), %eax
 2336 1b4a 88410C   		movb	%al, 12(%rcx)
 2337 1b4d 488D410D 		leaq	13(%rcx), %rax
 2338 1b51 4939C0   		cmpq	%rax, %r8
 2339 1b54 7617     		jbe	.L485
 2340 1b56 0FB64510 		movzbl	16(%rbp), %eax
 2341 1b5a 88410D   		movb	%al, 13(%rcx)
 2342 1b5d 488D410E 		leaq	14(%rcx), %rax
 2343 1b61 4939C0   		cmpq	%rax, %r8
 2344 1b64 7607     		jbe	.L485
 2345 1b66 0FB64510 		movzbl	16(%rbp), %eax
 2346 1b6a 88410E   		movb	%al, 14(%rcx)
 2347              	.L485:
 2348 1b6d 488B4500 		movq	0(%rbp), %rax
 2349              	.L475:
 2350 1b71 8B4D08   		movl	8(%rbp), %ecx
 2351 1b74 410FB6F5 		movzbl	%r13b, %esi
 2352 1b78 488D3C08 		leaq	(%rax,%rcx), %rdi
 2353 1b7c E9ACFCFF 		jmp	.L486
 2353      FF
 2354              		.p2align 4,,10
 2355 1b81 0F1F8000 		.p2align 3
 2355      000000
 2356              	.L544:
 2357 1b88 4883C601 		addq	$1, %rsi
 2358              	.L484:
 2359 1b8c 0FB64510 		movzbl	16(%rbp), %eax
 2360 1b90 4C39C6   		cmpq	%r8, %rsi
 2361 1b93 8846FF   		movb	%al, -1(%rsi)
 2362 1b96 75F0     		jne	.L544
 2363 1b98 EBD3     		jmp	.L485
 2364              	.L543:
 2365 1b9a 488D3500 		leaq	.LC6(%rip), %rsi
 2365      000000
 2366 1ba1 4889CF   		movq	%rcx, %rdi
 2367 1ba4 E8000000 		call	errRender@PLT
 2367      00
 2368 1ba9 B8010000 		movl	$1, %eax
 2368      00
 2369 1bae E985FCFF 		jmp	.L539
 2369      FF
 2370              		.cfi_endproc
 2371              	.LFE58:
 2373              		.section	.text.unlikely
 2374              	.LCOLDE12:
 2375              		.text
 2376              	.LHOTE12:
 2377              		.section	.text.unlikely
 2378              	.LCOLDB13:
 2379              		.text
 2380              	.LHOTB13:
 2381 1bb3 0F1F0066 		.p2align 4,,15
 2381      2E0F1F84 
 2381      00000000 
 2381      00
 2382              		.globl	bufAppendBlock
 2384              	bufAppendBlock:
 2385              	.LFB59:
 2386              		.cfi_startproc
 2387 1bc0 4157     		pushq	%r15
 2388              		.cfi_def_cfa_offset 16
 2389              		.cfi_offset 15, -16
 2390 1bc2 4156     		pushq	%r14
 2391              		.cfi_def_cfa_offset 24
 2392              		.cfi_offset 14, -24
 2393 1bc4 4189D6   		movl	%edx, %r14d
 2394 1bc7 4155     		pushq	%r13
 2395              		.cfi_def_cfa_offset 32
 2396              		.cfi_offset 13, -32
 2397 1bc9 4154     		pushq	%r12
 2398              		.cfi_def_cfa_offset 40
 2399              		.cfi_offset 12, -40
 2400 1bcb 4989F5   		movq	%rsi, %r13
 2401 1bce 55       		pushq	%rbp
 2402              		.cfi_def_cfa_offset 48
 2403              		.cfi_offset 6, -48
 2404 1bcf 53       		pushq	%rbx
 2405              		.cfi_def_cfa_offset 56
 2406              		.cfi_offset 3, -56
 2407 1bd0 4889FD   		movq	%rdi, %rbp
 2408 1bd3 4883EC18 		subq	$24, %rsp
 2409              		.cfi_def_cfa_offset 80
 2410 1bd7 448B4708 		movl	8(%rdi), %r8d
 2411 1bdb 8B5F0C   		movl	12(%rdi), %ebx
 2412 1bde 468D2402 		leal	(%rdx,%r8), %r12d
 2413 1be2 4139DC   		cmpl	%ebx, %r12d
 2414 1be5 7729     		ja	.L548
 2415 1be7 488B3F   		movq	(%rdi), %rdi
 2416              	.L547:
 2417 1bea 4C01C7   		addq	%r8, %rdi
 2418 1bed 4489F2   		movl	%r14d, %edx
 2419 1bf0 4C89EE   		movq	%r13, %rsi
 2420 1bf3 E8000000 		call	memcpy@PLT
 2420      00
 2421 1bf8 44896508 		movl	%r12d, 8(%rbp)
 2422 1bfc 31C0     		xorl	%eax, %eax
 2423              	.L550:
 2424 1bfe 4883C418 		addq	$24, %rsp
 2425              		.cfi_remember_state
 2426              		.cfi_def_cfa_offset 56
 2427 1c02 5B       		popq	%rbx
 2428              		.cfi_def_cfa_offset 48
 2429 1c03 5D       		popq	%rbp
 2430              		.cfi_def_cfa_offset 40
 2431 1c04 415C     		popq	%r12
 2432              		.cfi_def_cfa_offset 32
 2433 1c06 415D     		popq	%r13
 2434              		.cfi_def_cfa_offset 24
 2435 1c08 415E     		popq	%r14
 2436              		.cfi_def_cfa_offset 16
 2437 1c0a 415F     		popq	%r15
 2438              		.cfi_def_cfa_offset 8
 2439 1c0c C3       		ret
 2440 1c0d 0F1F00   		.p2align 4,,10
 2441              		.p2align 3
 2442              	.L548:
 2443              		.cfi_restore_state
 2444 1c10 01DB     		addl	%ebx, %ebx
 2445 1c12 4139DC   		cmpl	%ebx, %r12d
 2446 1c15 77F9     		ja	.L548
 2447 1c17 488B7D00 		movq	0(%rbp), %rdi
 2448 1c1b 4189DF   		movl	%ebx, %r15d
 2449 1c1e 48894C24 		movq	%rcx, 8(%rsp)
 2449      08
 2450 1c23 4C89FE   		movq	%r15, %rsi
 2451 1c26 E8000000 		call	realloc@PLT
 2451      00
 2452 1c2b 4885C0   		testq	%rax, %rax
 2453 1c2e 48894500 		movq	%rax, 0(%rbp)
 2454 1c32 488B4C24 		movq	8(%rsp), %rcx
 2454      08
 2455 1c37 0F840503 		je	.L616
 2455      0000
 2456 1c3d 4589E1   		movl	%r12d, %r9d
 2457 1c40 4A8D3C38 		leaq	(%rax,%r15), %rdi
 2458 1c44 895D0C   		movl	%ebx, 12(%rbp)
 2459 1c47 4A8D0C08 		leaq	(%rax,%r9), %rcx
 2460 1c4b 4839F9   		cmpq	%rdi, %rcx
 2461 1c4e 0F830703 		jnb	.L617
 2461      0000
 2462 1c54 488D5101 		leaq	1(%rcx), %rdx
 2463 1c58 4889FB   		movq	%rdi, %rbx
 2464 1c5b 4C8D5D10 		leaq	16(%rbp), %r11
 2465 1c5f 4829D3   		subq	%rdx, %rbx
 2466 1c62 4889D6   		movq	%rdx, %rsi
 2467 1c65 4D8D4419 		leaq	1(%r9,%rbx), %r8
 2467      01
 2468 1c6a 4C8D5301 		leaq	1(%rbx), %r10
 2469 1c6e 4901C0   		addq	%rax, %r8
 2470 1c71 4D39C3   		cmpq	%r8, %r11
 2471 1c74 4C8D4511 		leaq	17(%rbp), %r8
 2472 1c78 410F93C3 		setnb	%r11b
 2473 1c7c 4C39C1   		cmpq	%r8, %rcx
 2474 1c7f 410F93C0 		setnb	%r8b
 2475 1c83 4508C3   		orb	%r8b, %r11b
 2476 1c86 0F84A802 		je	.L560
 2476      0000
 2477 1c8c 4983FA16 		cmpq	$22, %r10
 2478 1c90 0F869E02 		jbe	.L560
 2478      0000
 2479 1c96 4989C8   		movq	%rcx, %r8
 2480 1c99 49F7D8   		negq	%r8
 2481 1c9c 4183E00F 		andl	$15, %r8d
 2482 1ca0 4D39C2   		cmpq	%r8, %r10
 2483 1ca3 4D0F46C2 		cmovbe	%r10, %r8
 2484 1ca7 4D85C0   		testq	%r8, %r8
 2485 1caa 0F841301 		je	.L553
 2485      0000
 2486 1cb0 0FB65510 		movzbl	16(%rbp), %edx
 2487 1cb4 4983F801 		cmpq	$1, %r8
 2488 1cb8 8811     		movb	%dl, (%rcx)
 2489 1cba 0F840001 		je	.L554
 2489      0000
 2490 1cc0 0FB65510 		movzbl	16(%rbp), %edx
 2491 1cc4 4983F802 		cmpq	$2, %r8
 2492 1cc8 488D7102 		leaq	2(%rcx), %rsi
 2493 1ccc 885101   		movb	%dl, 1(%rcx)
 2494 1ccf 0F84EB00 		je	.L554
 2494      0000
 2495 1cd5 0FB65510 		movzbl	16(%rbp), %edx
 2496 1cd9 4983F803 		cmpq	$3, %r8
 2497 1cdd 488D7103 		leaq	3(%rcx), %rsi
 2498 1ce1 885102   		movb	%dl, 2(%rcx)
 2499 1ce4 0F84D600 		je	.L554
 2499      0000
 2500 1cea 0FB65510 		movzbl	16(%rbp), %edx
 2501 1cee 4983F804 		cmpq	$4, %r8
 2502 1cf2 488D7104 		leaq	4(%rcx), %rsi
 2503 1cf6 885103   		movb	%dl, 3(%rcx)
 2504 1cf9 0F84C100 		je	.L554
 2504      0000
 2505 1cff 0FB65510 		movzbl	16(%rbp), %edx
 2506 1d03 4983F805 		cmpq	$5, %r8
 2507 1d07 488D7105 		leaq	5(%rcx), %rsi
 2508 1d0b 885104   		movb	%dl, 4(%rcx)
 2509 1d0e 0F84AC00 		je	.L554
 2509      0000
 2510 1d14 0FB65510 		movzbl	16(%rbp), %edx
 2511 1d18 4983F806 		cmpq	$6, %r8
 2512 1d1c 488D7106 		leaq	6(%rcx), %rsi
 2513 1d20 885105   		movb	%dl, 5(%rcx)
 2514 1d23 0F849700 		je	.L554
 2514      0000
 2515 1d29 0FB65510 		movzbl	16(%rbp), %edx
 2516 1d2d 4983F807 		cmpq	$7, %r8
 2517 1d31 488D7107 		leaq	7(%rcx), %rsi
 2518 1d35 885106   		movb	%dl, 6(%rcx)
 2519 1d38 0F848200 		je	.L554
 2519      0000
 2520 1d3e 0FB65510 		movzbl	16(%rbp), %edx
 2521 1d42 4983F808 		cmpq	$8, %r8
 2522 1d46 488D7108 		leaq	8(%rcx), %rsi
 2523 1d4a 885107   		movb	%dl, 7(%rcx)
 2524 1d4d 7471     		je	.L554
 2525 1d4f 0FB65510 		movzbl	16(%rbp), %edx
 2526 1d53 4983F809 		cmpq	$9, %r8
 2527 1d57 488D7109 		leaq	9(%rcx), %rsi
 2528 1d5b 885108   		movb	%dl, 8(%rcx)
 2529 1d5e 7460     		je	.L554
 2530 1d60 0FB65510 		movzbl	16(%rbp), %edx
 2531 1d64 4983F80A 		cmpq	$10, %r8
 2532 1d68 488D710A 		leaq	10(%rcx), %rsi
 2533 1d6c 885109   		movb	%dl, 9(%rcx)
 2534 1d6f 744F     		je	.L554
 2535 1d71 0FB65510 		movzbl	16(%rbp), %edx
 2536 1d75 4983F80B 		cmpq	$11, %r8
 2537 1d79 488D710B 		leaq	11(%rcx), %rsi
 2538 1d7d 88510A   		movb	%dl, 10(%rcx)
 2539 1d80 743E     		je	.L554
 2540 1d82 0FB65510 		movzbl	16(%rbp), %edx
 2541 1d86 4983F80C 		cmpq	$12, %r8
 2542 1d8a 488D710C 		leaq	12(%rcx), %rsi
 2543 1d8e 88510B   		movb	%dl, 11(%rcx)
 2544 1d91 742D     		je	.L554
 2545 1d93 0FB65510 		movzbl	16(%rbp), %edx
 2546 1d97 4983F80D 		cmpq	$13, %r8
 2547 1d9b 488D710D 		leaq	13(%rcx), %rsi
 2548 1d9f 88510C   		movb	%dl, 12(%rcx)
 2549 1da2 741C     		je	.L554
 2550 1da4 0FB65510 		movzbl	16(%rbp), %edx
 2551 1da8 4983F80F 		cmpq	$15, %r8
 2552 1dac 488D710E 		leaq	14(%rcx), %rsi
 2553 1db0 88510D   		movb	%dl, 13(%rcx)
 2554 1db3 750B     		jne	.L554
 2555 1db5 0FB65510 		movzbl	16(%rbp), %edx
 2556 1db9 488D710F 		leaq	15(%rcx), %rsi
 2557 1dbd 88510E   		movb	%dl, 14(%rcx)
 2558              	.L554:
 2559 1dc0 4889F1   		movq	%rsi, %rcx
 2560              	.L553:
 2561 1dc3 4C89D2   		movq	%r10, %rdx
 2562 1dc6 4C29C3   		subq	%r8, %rbx
 2563 1dc9 4C29C2   		subq	%r8, %rdx
 2564 1dcc 4C8D52F0 		leaq	-16(%rdx), %r10
 2565 1dd0 49C1EA04 		shrq	$4, %r10
 2566 1dd4 4983C201 		addq	$1, %r10
 2567 1dd8 4D89D3   		movq	%r10, %r11
 2568 1ddb 49C1E304 		salq	$4, %r11
 2569 1ddf 4883FB0E 		cmpq	$14, %rbx
 2570 1de3 763A     		jbe	.L555
 2571 1de5 0FB67510 		movzbl	16(%rbp), %esi
 2572 1de9 4D01C8   		addq	%r9, %r8
 2573 1dec 4C01C0   		addq	%r8, %rax
 2574 1def 660F6EC6 		movd	%esi, %xmm0
 2575 1df3 31F6     		xorl	%esi, %esi
 2576 1df5 660F60C0 		punpcklbw	%xmm0, %xmm0
 2577 1df9 660F61C0 		punpcklwd	%xmm0, %xmm0
 2578 1dfd 660F70C0 		pshufd	$0, %xmm0, %xmm0
 2578      00
 2579              	.L556:
 2580 1e02 4883C601 		addq	$1, %rsi
 2581 1e06 4883C010 		addq	$16, %rax
 2582 1e0a 0F2940F0 		movaps	%xmm0, -16(%rax)
 2583 1e0e 4939F2   		cmpq	%rsi, %r10
 2584 1e11 77EF     		ja	.L556
 2585 1e13 4C01D9   		addq	%r11, %rcx
 2586 1e16 4C39DA   		cmpq	%r11, %rdx
 2587 1e19 0F84FE00 		je	.L561
 2587      0000
 2588              	.L555:
 2589 1e1f 0FB64510 		movzbl	16(%rbp), %eax
 2590 1e23 8801     		movb	%al, (%rcx)
 2591 1e25 488D4101 		leaq	1(%rcx), %rax
 2592 1e29 4839C7   		cmpq	%rax, %rdi
 2593 1e2c 0F86EB00 		jbe	.L561
 2593      0000
 2594 1e32 0FB64510 		movzbl	16(%rbp), %eax
 2595 1e36 884101   		movb	%al, 1(%rcx)
 2596 1e39 488D4102 		leaq	2(%rcx), %rax
 2597 1e3d 4839C7   		cmpq	%rax, %rdi
 2598 1e40 0F86D700 		jbe	.L561
 2598      0000
 2599 1e46 0FB64510 		movzbl	16(%rbp), %eax
 2600 1e4a 884102   		movb	%al, 2(%rcx)
 2601 1e4d 488D4103 		leaq	3(%rcx), %rax
 2602 1e51 4839C7   		cmpq	%rax, %rdi
 2603 1e54 0F86C300 		jbe	.L561
 2603      0000
 2604 1e5a 0FB64510 		movzbl	16(%rbp), %eax
 2605 1e5e 884103   		movb	%al, 3(%rcx)
 2606 1e61 488D4104 		leaq	4(%rcx), %rax
 2607 1e65 4839C7   		cmpq	%rax, %rdi
 2608 1e68 0F86AF00 		jbe	.L561
 2608      0000
 2609 1e6e 0FB64510 		movzbl	16(%rbp), %eax
 2610 1e72 884104   		movb	%al, 4(%rcx)
 2611 1e75 488D4105 		leaq	5(%rcx), %rax
 2612 1e79 4839C7   		cmpq	%rax, %rdi
 2613 1e7c 0F869B00 		jbe	.L561
 2613      0000
 2614 1e82 0FB64510 		movzbl	16(%rbp), %eax
 2615 1e86 884105   		movb	%al, 5(%rcx)
 2616 1e89 488D4106 		leaq	6(%rcx), %rax
 2617 1e8d 4839C7   		cmpq	%rax, %rdi
 2618 1e90 0F868700 		jbe	.L561
 2618      0000
 2619 1e96 0FB64510 		movzbl	16(%rbp), %eax
 2620 1e9a 884106   		movb	%al, 6(%rcx)
 2621 1e9d 488D4107 		leaq	7(%rcx), %rax
 2622 1ea1 4839C7   		cmpq	%rax, %rdi
 2623 1ea4 7677     		jbe	.L561
 2624 1ea6 0FB64510 		movzbl	16(%rbp), %eax
 2625 1eaa 884107   		movb	%al, 7(%rcx)
 2626 1ead 488D4108 		leaq	8(%rcx), %rax
 2627 1eb1 4839C7   		cmpq	%rax, %rdi
 2628 1eb4 7667     		jbe	.L561
 2629 1eb6 0FB64510 		movzbl	16(%rbp), %eax
 2630 1eba 884108   		movb	%al, 8(%rcx)
 2631 1ebd 488D4109 		leaq	9(%rcx), %rax
 2632 1ec1 4839C7   		cmpq	%rax, %rdi
 2633 1ec4 7657     		jbe	.L561
 2634 1ec6 0FB64510 		movzbl	16(%rbp), %eax
 2635 1eca 884109   		movb	%al, 9(%rcx)
 2636 1ecd 488D410A 		leaq	10(%rcx), %rax
 2637 1ed1 4839C7   		cmpq	%rax, %rdi
 2638 1ed4 7647     		jbe	.L561
 2639 1ed6 0FB64510 		movzbl	16(%rbp), %eax
 2640 1eda 88410A   		movb	%al, 10(%rcx)
 2641 1edd 488D410B 		leaq	11(%rcx), %rax
 2642 1ee1 4839C7   		cmpq	%rax, %rdi
 2643 1ee4 7637     		jbe	.L561
 2644 1ee6 0FB64510 		movzbl	16(%rbp), %eax
 2645 1eea 88410B   		movb	%al, 11(%rcx)
 2646 1eed 488D410C 		leaq	12(%rcx), %rax
 2647 1ef1 4839C7   		cmpq	%rax, %rdi
 2648 1ef4 7627     		jbe	.L561
 2649 1ef6 0FB64510 		movzbl	16(%rbp), %eax
 2650 1efa 88410C   		movb	%al, 12(%rcx)
 2651 1efd 488D410D 		leaq	13(%rcx), %rax
 2652 1f01 4839C7   		cmpq	%rax, %rdi
 2653 1f04 7617     		jbe	.L561
 2654 1f06 0FB64510 		movzbl	16(%rbp), %eax
 2655 1f0a 88410D   		movb	%al, 13(%rcx)
 2656 1f0d 488D410E 		leaq	14(%rcx), %rax
 2657 1f11 4839C7   		cmpq	%rax, %rdi
 2658 1f14 7607     		jbe	.L561
 2659 1f16 0FB64510 		movzbl	16(%rbp), %eax
 2660 1f1a 88410E   		movb	%al, 14(%rcx)
 2661              	.L561:
 2662 1f1d 488B7D00 		movq	0(%rbp), %rdi
 2663 1f21 448B4508 		movl	8(%rbp), %r8d
 2664 1f25 E9C0FCFF 		jmp	.L547
 2664      FF
 2665 1f2a 660F1F44 		.p2align 4,,10
 2665      0000
 2666              		.p2align 3
 2667              	.L618:
 2668 1f30 4883C201 		addq	$1, %rdx
 2669              	.L560:
 2670 1f34 0FB64510 		movzbl	16(%rbp), %eax
 2671 1f38 4839FA   		cmpq	%rdi, %rdx
 2672 1f3b 8842FF   		movb	%al, -1(%rdx)
 2673 1f3e 75F0     		jne	.L618
 2674 1f40 EBDB     		jmp	.L561
 2675              	.L616:
 2676 1f42 488D3500 		leaq	.LC6(%rip), %rsi
 2676      000000
 2677 1f49 4889CF   		movq	%rcx, %rdi
 2678 1f4c E8000000 		call	errRender@PLT
 2678      00
 2679 1f51 B8010000 		movl	$1, %eax
 2679      00
 2680 1f56 E9A3FCFF 		jmp	.L550
 2680      FF
 2681              	.L617:
 2682 1f5b 448B4508 		movl	8(%rbp), %r8d
 2683 1f5f 4889C7   		movq	%rax, %rdi
 2684 1f62 E983FCFF 		jmp	.L547
 2684      FF
 2685              		.cfi_endproc
 2686              	.LFE59:
 2688              		.section	.text.unlikely
 2689              	.LCOLDE13:
 2690              		.text
 2691              	.LHOTE13:
 2692              		.section	.rodata.str1.1,"aMS",@progbits,1
 2693              	.LC14:
 2694 0000 62756657 		.string	"bufWriteByte()"
 2694      72697465 
 2694      42797465 
 2694      282900
 2695              		.section	.text.unlikely
 2696              	.LCOLDB15:
 2697              		.text
 2698              	.LHOTB15:
 2699 1f67 660F1F84 		.p2align 4,,15
 2699      00000000 
 2699      00
 2700              		.globl	bufWriteByte
 2702              	bufWriteByte:
 2703              	.LFB61:
 2704              		.cfi_startproc
 2705 1f70 4156     		pushq	%r14
 2706              		.cfi_def_cfa_offset 16
 2707              		.cfi_offset 14, -16
 2708 1f72 4155     		pushq	%r13
 2709              		.cfi_def_cfa_offset 24
 2710              		.cfi_offset 13, -24
 2711 1f74 4154     		pushq	%r12
 2712              		.cfi_def_cfa_offset 32
 2713              		.cfi_offset 12, -32
 2714 1f76 55       		pushq	%rbp
 2715              		.cfi_def_cfa_offset 40
 2716              		.cfi_offset 6, -40
 2717 1f77 89F5     		movl	%esi, %ebp
 2718 1f79 53       		pushq	%rbx
 2719              		.cfi_def_cfa_offset 48
 2720              		.cfi_offset 3, -48
 2721 1f7a 448D6D01 		leal	1(%rbp), %r13d
 2722 1f7e 4889FB   		movq	%rdi, %rbx
 2723 1f81 4883EC10 		subq	$16, %rsp
 2724              		.cfi_def_cfa_offset 64
 2725 1f85 8B7708   		movl	8(%rdi), %esi
 2726 1f88 39F5     		cmpl	%esi, %ebp
 2727 1f8a 732C     		jnb	.L801
 2728 1f8c 4139F5   		cmpl	%esi, %r13d
 2729 1f8f 0F863B0A 		jbe	.L649
 2729      0000
 2730 1f95 448B670C 		movl	12(%rdi), %r12d
 2731 1f99 4539E5   		cmpl	%r12d, %r13d
 2732 1f9c 0F879E06 		ja	.L652
 2732      0000
 2733              	.L663:
 2734 1fa2 488B03   		movq	(%rbx), %rax
 2735              	.L651:
 2736 1fa5 44896B08 		movl	%r13d, 8(%rbx)
 2737 1fa9 4801C5   		addq	%rax, %rbp
 2738 1fac E9170300 		jmp	.L648
 2738      00
 2739              		.p2align 4,,10
 2740 1fb1 0F1F8000 		.p2align 3
 2740      000000
 2741              	.L801:
 2742 1fb8 448B670C 		movl	12(%rdi), %r12d
 2743 1fbc 4539E5   		cmpl	%r12d, %r13d
 2744 1fbf 0F871B03 		ja	.L623
 2744      0000
 2745 1fc5 488B07   		movq	(%rdi), %rax
 2746              	.L622:
 2747 1fc8 4189F0   		movl	%esi, %r8d
 2748 1fcb 4C8D0C28 		leaq	(%rax,%rbp), %r9
 2749 1fcf 4A8D3C00 		leaq	(%rax,%r8), %rdi
 2750 1fd3 4C39CF   		cmpq	%r9, %rdi
 2751 1fd6 0F83340A 		jnb	.L665
 2751      0000
 2752 1fdc 4C8D5701 		leaq	1(%rdi), %r10
 2753 1fe0 4D89CE   		movq	%r9, %r14
 2754 1fe3 4C8D6310 		leaq	16(%rbx), %r12
 2755 1fe7 4D29D6   		subq	%r10, %r14
 2756 1fea 4C89D1   		movq	%r10, %rcx
 2757 1fed 4B8D7406 		leaq	1(%r14,%r8), %rsi
 2757      01
 2758 1ff2 4D8D5E01 		leaq	1(%r14), %r11
 2759 1ff6 4801C6   		addq	%rax, %rsi
 2760 1ff9 4939F4   		cmpq	%rsi, %r12
 2761 1ffc 488D7311 		leaq	17(%rbx), %rsi
 2762 2000 410F93C4 		setnb	%r12b
 2763 2004 4839F7   		cmpq	%rsi, %rdi
 2764 2007 400F93C6 		setnb	%sil
 2765 200b 4108F4   		orb	%sil, %r12b
 2766 200e 0F841006 		je	.L646
 2766      0000
 2767 2014 4983FB16 		cmpq	$22, %r11
 2768 2018 0F860606 		jbe	.L646
 2768      0000
 2769 201e 4889FE   		movq	%rdi, %rsi
 2770 2021 48F7DE   		negq	%rsi
 2771 2024 83E60F   		andl	$15, %esi
 2772 2027 4939F3   		cmpq	%rsi, %r11
 2773 202a 490F46F3 		cmovbe	%r11, %rsi
 2774 202e 4885F6   		testq	%rsi, %rsi
 2775 2031 0F84A909 		je	.L666
 2775      0000
 2776 2037 440FB653 		movzbl	16(%rbx), %r10d
 2776      10
 2777 203c 4883FE01 		cmpq	$1, %rsi
 2778 2040 448817   		movb	%r10b, (%rdi)
 2779 2043 0F841C01 		je	.L639
 2779      0000
 2780 2049 440FB653 		movzbl	16(%rbx), %r10d
 2780      10
 2781 204e 4883FE02 		cmpq	$2, %rsi
 2782 2052 488D4F02 		leaq	2(%rdi), %rcx
 2783 2056 44885701 		movb	%r10b, 1(%rdi)
 2784 205a 0F840501 		je	.L639
 2784      0000
 2785 2060 440FB653 		movzbl	16(%rbx), %r10d
 2785      10
 2786 2065 4883FE03 		cmpq	$3, %rsi
 2787 2069 488D4F03 		leaq	3(%rdi), %rcx
 2788 206d 44885702 		movb	%r10b, 2(%rdi)
 2789 2071 0F84EE00 		je	.L639
 2789      0000
 2790 2077 440FB653 		movzbl	16(%rbx), %r10d
 2790      10
 2791 207c 4883FE04 		cmpq	$4, %rsi
 2792 2080 488D4F04 		leaq	4(%rdi), %rcx
 2793 2084 44885703 		movb	%r10b, 3(%rdi)
 2794 2088 0F84D700 		je	.L639
 2794      0000
 2795 208e 440FB653 		movzbl	16(%rbx), %r10d
 2795      10
 2796 2093 4883FE05 		cmpq	$5, %rsi
 2797 2097 488D4F05 		leaq	5(%rdi), %rcx
 2798 209b 44885704 		movb	%r10b, 4(%rdi)
 2799 209f 0F84C000 		je	.L639
 2799      0000
 2800 20a5 440FB653 		movzbl	16(%rbx), %r10d
 2800      10
 2801 20aa 4883FE06 		cmpq	$6, %rsi
 2802 20ae 488D4F06 		leaq	6(%rdi), %rcx
 2803 20b2 44885705 		movb	%r10b, 5(%rdi)
 2804 20b6 0F84A900 		je	.L639
 2804      0000
 2805 20bc 440FB653 		movzbl	16(%rbx), %r10d
 2805      10
 2806 20c1 4883FE07 		cmpq	$7, %rsi
 2807 20c5 488D4F07 		leaq	7(%rdi), %rcx
 2808 20c9 44885706 		movb	%r10b, 6(%rdi)
 2809 20cd 0F849200 		je	.L639
 2809      0000
 2810 20d3 440FB653 		movzbl	16(%rbx), %r10d
 2810      10
 2811 20d8 4883FE08 		cmpq	$8, %rsi
 2812 20dc 488D4F08 		leaq	8(%rdi), %rcx
 2813 20e0 44885707 		movb	%r10b, 7(%rdi)
 2814 20e4 747F     		je	.L639
 2815 20e6 440FB653 		movzbl	16(%rbx), %r10d
 2815      10
 2816 20eb 4883FE09 		cmpq	$9, %rsi
 2817 20ef 488D4F09 		leaq	9(%rdi), %rcx
 2818 20f3 44885708 		movb	%r10b, 8(%rdi)
 2819 20f7 746C     		je	.L639
 2820 20f9 440FB653 		movzbl	16(%rbx), %r10d
 2820      10
 2821 20fe 4883FE0A 		cmpq	$10, %rsi
 2822 2102 488D4F0A 		leaq	10(%rdi), %rcx
 2823 2106 44885709 		movb	%r10b, 9(%rdi)
 2824 210a 7459     		je	.L639
 2825 210c 440FB653 		movzbl	16(%rbx), %r10d
 2825      10
 2826 2111 4883FE0B 		cmpq	$11, %rsi
 2827 2115 488D4F0B 		leaq	11(%rdi), %rcx
 2828 2119 4488570A 		movb	%r10b, 10(%rdi)
 2829 211d 7446     		je	.L639
 2830 211f 440FB653 		movzbl	16(%rbx), %r10d
 2830      10
 2831 2124 4883FE0C 		cmpq	$12, %rsi
 2832 2128 488D4F0C 		leaq	12(%rdi), %rcx
 2833 212c 4488570B 		movb	%r10b, 11(%rdi)
 2834 2130 7433     		je	.L639
 2835 2132 440FB653 		movzbl	16(%rbx), %r10d
 2835      10
 2836 2137 4883FE0D 		cmpq	$13, %rsi
 2837 213b 488D4F0D 		leaq	13(%rdi), %rcx
 2838 213f 4488570C 		movb	%r10b, 12(%rdi)
 2839 2143 7420     		je	.L639
 2840 2145 440FB653 		movzbl	16(%rbx), %r10d
 2840      10
 2841 214a 4883FE0F 		cmpq	$15, %rsi
 2842 214e 488D4F0E 		leaq	14(%rdi), %rcx
 2843 2152 4488570D 		movb	%r10b, 13(%rdi)
 2844 2156 750D     		jne	.L639
 2845 2158 440FB653 		movzbl	16(%rbx), %r10d
 2845      10
 2846 215d 488D4F0F 		leaq	15(%rdi), %rcx
 2847 2161 4488570E 		movb	%r10b, 14(%rdi)
 2848              	.L639:
 2849 2165 4C89DF   		movq	%r11, %rdi
 2850 2168 4929F6   		subq	%rsi, %r14
 2851 216b 4829F7   		subq	%rsi, %rdi
 2852 216e 4C8D5FF0 		leaq	-16(%rdi), %r11
 2853 2172 49C1EB04 		shrq	$4, %r11
 2854 2176 4983C301 		addq	$1, %r11
 2855 217a 4D89DC   		movq	%r11, %r12
 2856 217d 49C1E404 		salq	$4, %r12
 2857 2181 4983FE0E 		cmpq	$14, %r14
 2858 2185 763C     		jbe	.L641
 2859 2187 440FB653 		movzbl	16(%rbx), %r10d
 2859      10
 2860 218c 4C01C6   		addq	%r8, %rsi
 2861 218f 4801C6   		addq	%rax, %rsi
 2862 2192 31C0     		xorl	%eax, %eax
 2863 2194 66410F6E 		movd	%r10d, %xmm0
 2863      C2
 2864 2199 660F60C0 		punpcklbw	%xmm0, %xmm0
 2865 219d 660F61C0 		punpcklwd	%xmm0, %xmm0
 2866 21a1 660F70C0 		pshufd	$0, %xmm0, %xmm0
 2866      00
 2867              	.L642:
 2868 21a6 4883C001 		addq	$1, %rax
 2869 21aa 4883C610 		addq	$16, %rsi
 2870 21ae 0F2946F0 		movaps	%xmm0, -16(%rsi)
 2871 21b2 4939C3   		cmpq	%rax, %r11
 2872 21b5 77EF     		ja	.L642
 2873 21b7 4C01E1   		addq	%r12, %rcx
 2874 21ba 4C39E7   		cmpq	%r12, %rdi
 2875 21bd 0F84FE00 		je	.L647
 2875      0000
 2876              	.L641:
 2877 21c3 0FB64310 		movzbl	16(%rbx), %eax
 2878 21c7 8801     		movb	%al, (%rcx)
 2879 21c9 488D4101 		leaq	1(%rcx), %rax
 2880 21cd 4939C1   		cmpq	%rax, %r9
 2881 21d0 0F86EB00 		jbe	.L647
 2881      0000
 2882 21d6 0FB64310 		movzbl	16(%rbx), %eax
 2883 21da 884101   		movb	%al, 1(%rcx)
 2884 21dd 488D4102 		leaq	2(%rcx), %rax
 2885 21e1 4939C1   		cmpq	%rax, %r9
 2886 21e4 0F86D700 		jbe	.L647
 2886      0000
 2887 21ea 0FB64310 		movzbl	16(%rbx), %eax
 2888 21ee 884102   		movb	%al, 2(%rcx)
 2889 21f1 488D4103 		leaq	3(%rcx), %rax
 2890 21f5 4939C1   		cmpq	%rax, %r9
 2891 21f8 0F86C300 		jbe	.L647
 2891      0000
 2892 21fe 0FB64310 		movzbl	16(%rbx), %eax
 2893 2202 884103   		movb	%al, 3(%rcx)
 2894 2205 488D4104 		leaq	4(%rcx), %rax
 2895 2209 4939C1   		cmpq	%rax, %r9
 2896 220c 0F86AF00 		jbe	.L647
 2896      0000
 2897 2212 0FB64310 		movzbl	16(%rbx), %eax
 2898 2216 884104   		movb	%al, 4(%rcx)
 2899 2219 488D4105 		leaq	5(%rcx), %rax
 2900 221d 4939C1   		cmpq	%rax, %r9
 2901 2220 0F869B00 		jbe	.L647
 2901      0000
 2902 2226 0FB64310 		movzbl	16(%rbx), %eax
 2903 222a 884105   		movb	%al, 5(%rcx)
 2904 222d 488D4106 		leaq	6(%rcx), %rax
 2905 2231 4939C1   		cmpq	%rax, %r9
 2906 2234 0F868700 		jbe	.L647
 2906      0000
 2907 223a 0FB64310 		movzbl	16(%rbx), %eax
 2908 223e 884106   		movb	%al, 6(%rcx)
 2909 2241 488D4107 		leaq	7(%rcx), %rax
 2910 2245 4939C1   		cmpq	%rax, %r9
 2911 2248 7677     		jbe	.L647
 2912 224a 0FB64310 		movzbl	16(%rbx), %eax
 2913 224e 884107   		movb	%al, 7(%rcx)
 2914 2251 488D4108 		leaq	8(%rcx), %rax
 2915 2255 4939C1   		cmpq	%rax, %r9
 2916 2258 7667     		jbe	.L647
 2917 225a 0FB64310 		movzbl	16(%rbx), %eax
 2918 225e 884108   		movb	%al, 8(%rcx)
 2919 2261 488D4109 		leaq	9(%rcx), %rax
 2920 2265 4939C1   		cmpq	%rax, %r9
 2921 2268 7657     		jbe	.L647
 2922 226a 0FB64310 		movzbl	16(%rbx), %eax
 2923 226e 884109   		movb	%al, 9(%rcx)
 2924 2271 488D410A 		leaq	10(%rcx), %rax
 2925 2275 4939C1   		cmpq	%rax, %r9
 2926 2278 7647     		jbe	.L647
 2927 227a 0FB64310 		movzbl	16(%rbx), %eax
 2928 227e 88410A   		movb	%al, 10(%rcx)
 2929 2281 488D410B 		leaq	11(%rcx), %rax
 2930 2285 4939C1   		cmpq	%rax, %r9
 2931 2288 7637     		jbe	.L647
 2932 228a 0FB64310 		movzbl	16(%rbx), %eax
 2933 228e 88410B   		movb	%al, 11(%rcx)
 2934 2291 488D410C 		leaq	12(%rcx), %rax
 2935 2295 4939C1   		cmpq	%rax, %r9
 2936 2298 7627     		jbe	.L647
 2937 229a 0FB64310 		movzbl	16(%rbx), %eax
 2938 229e 88410C   		movb	%al, 12(%rcx)
 2939 22a1 488D410D 		leaq	13(%rcx), %rax
 2940 22a5 4939C1   		cmpq	%rax, %r9
 2941 22a8 7617     		jbe	.L647
 2942 22aa 0FB64310 		movzbl	16(%rbx), %eax
 2943 22ae 88410D   		movb	%al, 13(%rcx)
 2944 22b1 488D410E 		leaq	14(%rcx), %rax
 2945 22b5 4939C1   		cmpq	%rax, %r9
 2946 22b8 7607     		jbe	.L647
 2947 22ba 0FB64310 		movzbl	16(%rbx), %eax
 2948 22be 88410E   		movb	%al, 14(%rcx)
 2949              	.L647:
 2950 22c1 48032B   		addq	(%rbx), %rbp
 2951              	.L637:
 2952 22c4 44896B08 		movl	%r13d, 8(%rbx)
 2953              	.L648:
 2954 22c8 885500   		movb	%dl, 0(%rbp)
 2955 22cb 31C0     		xorl	%eax, %eax
 2956              	.L625:
 2957              	.L792:
 2958 22cd 4883C410 		addq	$16, %rsp
 2959              		.cfi_remember_state
 2960              		.cfi_def_cfa_offset 48
 2961 22d1 5B       		popq	%rbx
 2962              		.cfi_def_cfa_offset 40
 2963 22d2 5D       		popq	%rbp
 2964              		.cfi_def_cfa_offset 32
 2965 22d3 415C     		popq	%r12
 2966              		.cfi_def_cfa_offset 24
 2967 22d5 415D     		popq	%r13
 2968              		.cfi_def_cfa_offset 16
 2969 22d7 415E     		popq	%r14
 2970              		.cfi_def_cfa_offset 8
 2971 22d9 C3       		ret
 2972 22da 660F1F44 		.p2align 4,,10
 2972      0000
 2973              		.p2align 3
 2974              	.L623:
 2975              		.cfi_restore_state
 2976 22e0 4501E4   		addl	%r12d, %r12d
 2977 22e3 4539E5   		cmpl	%r12d, %r13d
 2978 22e6 77F8     		ja	.L623
 2979 22e8 488B3B   		movq	(%rbx), %rdi
 2980 22eb 4589E6   		movl	%r12d, %r14d
 2981 22ee 48894C24 		movq	%rcx, 8(%rsp)
 2981      08
 2982 22f3 4C89F6   		movq	%r14, %rsi
 2983 22f6 891424   		movl	%edx, (%rsp)
 2984 22f9 E8000000 		call	realloc@PLT
 2984      00
 2985 22fe 4885C0   		testq	%rax, %rax
 2986 2301 488903   		movq	%rax, (%rbx)
 2987 2304 8B1424   		movl	(%rsp), %edx
 2988 2307 488B4C24 		movq	8(%rsp), %rcx
 2988      08
 2989 230c 0F842607 		je	.L653
 2989      0000
 2990 2312 4589EA   		movl	%r13d, %r10d
 2991 2315 4E8D0430 		leaq	(%rax,%r14), %r8
 2992 2319 4489630C 		movl	%r12d, 12(%rbx)
 2993 231d 4A8D3C10 		leaq	(%rax,%r10), %rdi
 2994 2321 4C39C7   		cmpq	%r8, %rdi
 2995 2324 0F83E402 		jnb	.L797
 2995      0000
 2996 232a 4C8D4F01 		leaq	1(%rdi), %r9
 2997 232e 4D89C6   		movq	%r8, %r14
 2998 2331 4C8D6310 		leaq	16(%rbx), %r12
 2999 2335 4D29CE   		subq	%r9, %r14
 3000 2338 4C89C9   		movq	%r9, %rcx
 3001 233b 4F8D5C32 		leaq	1(%r10,%r14), %r11
 3001      01
 3002 2340 498D7601 		leaq	1(%r14), %rsi
 3003 2344 4901C3   		addq	%rax, %r11
 3004 2347 4D39E3   		cmpq	%r12, %r11
 3005 234a 4C8D5B11 		leaq	17(%rbx), %r11
 3006 234e 410F96C4 		setbe	%r12b
 3007 2352 4C39DF   		cmpq	%r11, %rdi
 3008 2355 410F93C3 		setnb	%r11b
 3009 2359 4508DC   		orb	%r11b, %r12b
 3010 235c 0F845206 		je	.L635
 3010      0000
 3011 2362 4883FE16 		cmpq	$22, %rsi
 3012 2366 0F864806 		jbe	.L635
 3012      0000
 3013 236c 4989F9   		movq	%rdi, %r9
 3014 236f 49F7D9   		negq	%r9
 3015 2372 4183E10F 		andl	$15, %r9d
 3016 2376 4C39CE   		cmpq	%r9, %rsi
 3017 2379 4C0F46CE 		cmovbe	%rsi, %r9
 3018 237d 4D85C9   		testq	%r9, %r9
 3019 2380 0F849A06 		je	.L664
 3019      0000
 3020 2386 440FB65B 		movzbl	16(%rbx), %r11d
 3020      10
 3021 238b 4983F901 		cmpq	$1, %r9
 3022 238f 44881F   		movb	%r11b, (%rdi)
 3023 2392 0F841C01 		je	.L628
 3023      0000
 3024 2398 440FB65B 		movzbl	16(%rbx), %r11d
 3024      10
 3025 239d 4983F902 		cmpq	$2, %r9
 3026 23a1 488D4F02 		leaq	2(%rdi), %rcx
 3027 23a5 44885F01 		movb	%r11b, 1(%rdi)
 3028 23a9 0F840501 		je	.L628
 3028      0000
 3029 23af 440FB65B 		movzbl	16(%rbx), %r11d
 3029      10
 3030 23b4 4983F903 		cmpq	$3, %r9
 3031 23b8 488D4F03 		leaq	3(%rdi), %rcx
 3032 23bc 44885F02 		movb	%r11b, 2(%rdi)
 3033 23c0 0F84EE00 		je	.L628
 3033      0000
 3034 23c6 440FB65B 		movzbl	16(%rbx), %r11d
 3034      10
 3035 23cb 4983F904 		cmpq	$4, %r9
 3036 23cf 488D4F04 		leaq	4(%rdi), %rcx
 3037 23d3 44885F03 		movb	%r11b, 3(%rdi)
 3038 23d7 0F84D700 		je	.L628
 3038      0000
 3039 23dd 440FB65B 		movzbl	16(%rbx), %r11d
 3039      10
 3040 23e2 4983F905 		cmpq	$5, %r9
 3041 23e6 488D4F05 		leaq	5(%rdi), %rcx
 3042 23ea 44885F04 		movb	%r11b, 4(%rdi)
 3043 23ee 0F84C000 		je	.L628
 3043      0000
 3044 23f4 440FB65B 		movzbl	16(%rbx), %r11d
 3044      10
 3045 23f9 4983F906 		cmpq	$6, %r9
 3046 23fd 488D4F06 		leaq	6(%rdi), %rcx
 3047 2401 44885F05 		movb	%r11b, 5(%rdi)
 3048 2405 0F84A900 		je	.L628
 3048      0000
 3049 240b 440FB65B 		movzbl	16(%rbx), %r11d
 3049      10
 3050 2410 4983F907 		cmpq	$7, %r9
 3051 2414 488D4F07 		leaq	7(%rdi), %rcx
 3052 2418 44885F06 		movb	%r11b, 6(%rdi)
 3053 241c 0F849200 		je	.L628
 3053      0000
 3054 2422 440FB65B 		movzbl	16(%rbx), %r11d
 3054      10
 3055 2427 4983F908 		cmpq	$8, %r9
 3056 242b 488D4F08 		leaq	8(%rdi), %rcx
 3057 242f 44885F07 		movb	%r11b, 7(%rdi)
 3058 2433 747F     		je	.L628
 3059 2435 440FB65B 		movzbl	16(%rbx), %r11d
 3059      10
 3060 243a 4983F909 		cmpq	$9, %r9
 3061 243e 488D4F09 		leaq	9(%rdi), %rcx
 3062 2442 44885F08 		movb	%r11b, 8(%rdi)
 3063 2446 746C     		je	.L628
 3064 2448 440FB65B 		movzbl	16(%rbx), %r11d
 3064      10
 3065 244d 4983F90A 		cmpq	$10, %r9
 3066 2451 488D4F0A 		leaq	10(%rdi), %rcx
 3067 2455 44885F09 		movb	%r11b, 9(%rdi)
 3068 2459 7459     		je	.L628
 3069 245b 440FB65B 		movzbl	16(%rbx), %r11d
 3069      10
 3070 2460 4983F90B 		cmpq	$11, %r9
 3071 2464 488D4F0B 		leaq	11(%rdi), %rcx
 3072 2468 44885F0A 		movb	%r11b, 10(%rdi)
 3073 246c 7446     		je	.L628
 3074 246e 440FB65B 		movzbl	16(%rbx), %r11d
 3074      10
 3075 2473 4983F90C 		cmpq	$12, %r9
 3076 2477 488D4F0C 		leaq	12(%rdi), %rcx
 3077 247b 44885F0B 		movb	%r11b, 11(%rdi)
 3078 247f 7433     		je	.L628
 3079 2481 440FB65B 		movzbl	16(%rbx), %r11d
 3079      10
 3080 2486 4983F90D 		cmpq	$13, %r9
 3081 248a 488D4F0D 		leaq	13(%rdi), %rcx
 3082 248e 44885F0C 		movb	%r11b, 12(%rdi)
 3083 2492 7420     		je	.L628
 3084 2494 440FB65B 		movzbl	16(%rbx), %r11d
 3084      10
 3085 2499 4983F90F 		cmpq	$15, %r9
 3086 249d 488D4F0E 		leaq	14(%rdi), %rcx
 3087 24a1 44885F0D 		movb	%r11b, 13(%rdi)
 3088 24a5 750D     		jne	.L628
 3089 24a7 440FB65B 		movzbl	16(%rbx), %r11d
 3089      10
 3090 24ac 488D4F0F 		leaq	15(%rdi), %rcx
 3091 24b0 44885F0E 		movb	%r11b, 14(%rdi)
 3092              	.L628:
 3093 24b4 4C29CE   		subq	%r9, %rsi
 3094 24b7 4D29CE   		subq	%r9, %r14
 3095 24ba 4C8D5EF0 		leaq	-16(%rsi), %r11
 3096 24be 49C1EB04 		shrq	$4, %r11
 3097 24c2 4983C301 		addq	$1, %r11
 3098 24c6 4D89DC   		movq	%r11, %r12
 3099 24c9 49C1E404 		salq	$4, %r12
 3100 24cd 4983FE0E 		cmpq	$14, %r14
 3101 24d1 763A     		jbe	.L630
 3102 24d3 0FB67B10 		movzbl	16(%rbx), %edi
 3103 24d7 4D01D1   		addq	%r10, %r9
 3104 24da 4C01C8   		addq	%r9, %rax
 3105 24dd 660F6EC7 		movd	%edi, %xmm0
 3106 24e1 31FF     		xorl	%edi, %edi
 3107 24e3 660F60C0 		punpcklbw	%xmm0, %xmm0
 3108 24e7 660F61C0 		punpcklwd	%xmm0, %xmm0
 3109 24eb 660F70C0 		pshufd	$0, %xmm0, %xmm0
 3109      00
 3110              	.L631:
 3111 24f0 4883C701 		addq	$1, %rdi
 3112 24f4 4883C010 		addq	$16, %rax
 3113 24f8 0F2940F0 		movaps	%xmm0, -16(%rax)
 3114 24fc 4C39DF   		cmpq	%r11, %rdi
 3115 24ff 72EF     		jb	.L631
 3116 2501 4C01E1   		addq	%r12, %rcx
 3117 2504 4C39E6   		cmpq	%r12, %rsi
 3118 2507 0F84FE00 		je	.L636
 3118      0000
 3119              	.L630:
 3120 250d 0FB64310 		movzbl	16(%rbx), %eax
 3121 2511 8801     		movb	%al, (%rcx)
 3122 2513 488D4101 		leaq	1(%rcx), %rax
 3123 2517 4939C0   		cmpq	%rax, %r8
 3124 251a 0F86EB00 		jbe	.L636
 3124      0000
 3125 2520 0FB64310 		movzbl	16(%rbx), %eax
 3126 2524 884101   		movb	%al, 1(%rcx)
 3127 2527 488D4102 		leaq	2(%rcx), %rax
 3128 252b 4939C0   		cmpq	%rax, %r8
 3129 252e 0F86D700 		jbe	.L636
 3129      0000
 3130 2534 0FB64310 		movzbl	16(%rbx), %eax
 3131 2538 884102   		movb	%al, 2(%rcx)
 3132 253b 488D4103 		leaq	3(%rcx), %rax
 3133 253f 4939C0   		cmpq	%rax, %r8
 3134 2542 0F86C300 		jbe	.L636
 3134      0000
 3135 2548 0FB64310 		movzbl	16(%rbx), %eax
 3136 254c 884103   		movb	%al, 3(%rcx)
 3137 254f 488D4104 		leaq	4(%rcx), %rax
 3138 2553 4939C0   		cmpq	%rax, %r8
 3139 2556 0F86AF00 		jbe	.L636
 3139      0000
 3140 255c 0FB64310 		movzbl	16(%rbx), %eax
 3141 2560 884104   		movb	%al, 4(%rcx)
 3142 2563 488D4105 		leaq	5(%rcx), %rax
 3143 2567 4939C0   		cmpq	%rax, %r8
 3144 256a 0F869B00 		jbe	.L636
 3144      0000
 3145 2570 0FB64310 		movzbl	16(%rbx), %eax
 3146 2574 884105   		movb	%al, 5(%rcx)
 3147 2577 488D4106 		leaq	6(%rcx), %rax
 3148 257b 4939C0   		cmpq	%rax, %r8
 3149 257e 0F868700 		jbe	.L636
 3149      0000
 3150 2584 0FB64310 		movzbl	16(%rbx), %eax
 3151 2588 884106   		movb	%al, 6(%rcx)
 3152 258b 488D4107 		leaq	7(%rcx), %rax
 3153 258f 4939C0   		cmpq	%rax, %r8
 3154 2592 7677     		jbe	.L636
 3155 2594 0FB64310 		movzbl	16(%rbx), %eax
 3156 2598 884107   		movb	%al, 7(%rcx)
 3157 259b 488D4108 		leaq	8(%rcx), %rax
 3158 259f 4939C0   		cmpq	%rax, %r8
 3159 25a2 7667     		jbe	.L636
 3160 25a4 0FB64310 		movzbl	16(%rbx), %eax
 3161 25a8 884108   		movb	%al, 8(%rcx)
 3162 25ab 488D4109 		leaq	9(%rcx), %rax
 3163 25af 4939C0   		cmpq	%rax, %r8
 3164 25b2 7657     		jbe	.L636
 3165 25b4 0FB64310 		movzbl	16(%rbx), %eax
 3166 25b8 884109   		movb	%al, 9(%rcx)
 3167 25bb 488D410A 		leaq	10(%rcx), %rax
 3168 25bf 4939C0   		cmpq	%rax, %r8
 3169 25c2 7647     		jbe	.L636
 3170 25c4 0FB64310 		movzbl	16(%rbx), %eax
 3171 25c8 88410A   		movb	%al, 10(%rcx)
 3172 25cb 488D410B 		leaq	11(%rcx), %rax
 3173 25cf 4939C0   		cmpq	%rax, %r8
 3174 25d2 7637     		jbe	.L636
 3175 25d4 0FB64310 		movzbl	16(%rbx), %eax
 3176 25d8 88410B   		movb	%al, 11(%rcx)
 3177 25db 488D410C 		leaq	12(%rcx), %rax
 3178 25df 4939C0   		cmpq	%rax, %r8
 3179 25e2 7627     		jbe	.L636
 3180 25e4 0FB64310 		movzbl	16(%rbx), %eax
 3181 25e8 88410C   		movb	%al, 12(%rcx)
 3182 25eb 488D410D 		leaq	13(%rcx), %rax
 3183 25ef 4939C0   		cmpq	%rax, %r8
 3184 25f2 7617     		jbe	.L636
 3185 25f4 0FB64310 		movzbl	16(%rbx), %eax
 3186 25f8 88410D   		movb	%al, 13(%rcx)
 3187 25fb 488D410E 		leaq	14(%rcx), %rax
 3188 25ff 4939C0   		cmpq	%rax, %r8
 3189 2602 7607     		jbe	.L636
 3190 2604 0FB64310 		movzbl	16(%rbx), %eax
 3191 2608 88410E   		movb	%al, 14(%rcx)
 3192              	.L636:
 3193 260b 488B03   		movq	(%rbx), %rax
 3194              	.L797:
 3195 260e 8B7308   		movl	8(%rbx), %esi
 3196 2611 E9B2F9FF 		jmp	.L622
 3196      FF
 3197 2616 662E0F1F 		.p2align 4,,10
 3197      84000000 
 3197      0000
 3198              		.p2align 3
 3199              	.L802:
 3200 2620 4983C201 		addq	$1, %r10
 3201              	.L646:
 3202 2624 0FB64310 		movzbl	16(%rbx), %eax
 3203 2628 4D39CA   		cmpq	%r9, %r10
 3204 262b 418842FF 		movb	%al, -1(%r10)
 3205 262f 75EF     		jne	.L802
 3206 2631 E98BFCFF 		jmp	.L647
 3206      FF
 3207 2636 662E0F1F 		.p2align 4,,10
 3207      84000000 
 3207      0000
 3208              		.p2align 3
 3209              	.L652:
 3210 2640 4501E4   		addl	%r12d, %r12d
 3211 2643 4539E5   		cmpl	%r12d, %r13d
 3212 2646 77F8     		ja	.L652
 3213 2648 488B3B   		movq	(%rbx), %rdi
 3214 264b 4589E6   		movl	%r12d, %r14d
 3215 264e 48890C24 		movq	%rcx, (%rsp)
 3216 2652 4C89F6   		movq	%r14, %rsi
 3217 2655 89542408 		movl	%edx, 8(%rsp)
 3218 2659 E8000000 		call	realloc@PLT
 3218      00
 3219 265e 4885C0   		testq	%rax, %rax
 3220 2661 488903   		movq	%rax, (%rbx)
 3221 2664 488B0C24 		movq	(%rsp), %rcx
 3222 2668 0F84CA03 		je	.L653
 3222      0000
 3223 266e 4589EA   		movl	%r13d, %r10d
 3224 2671 4A8D3430 		leaq	(%rax,%r14), %rsi
 3225 2675 4489630C 		movl	%r12d, 12(%rbx)
 3226 2679 4A8D0C10 		leaq	(%rax,%r10), %rcx
 3227 267d 8B542408 		movl	8(%rsp), %edx
 3228 2681 4839F1   		cmpq	%rsi, %rcx
 3229 2684 0F831BF9 		jnb	.L651
 3229      FFFF
 3230 268a 4C8D4101 		leaq	1(%rcx), %r8
 3231 268e 4989F6   		movq	%rsi, %r14
 3232 2691 4C8D5B10 		leaq	16(%rbx), %r11
 3233 2695 4D29C6   		subq	%r8, %r14
 3234 2698 4B8D7C32 		leaq	1(%r10,%r14), %rdi
 3234      01
 3235 269d 4D8D4E01 		leaq	1(%r14), %r9
 3236 26a1 4801C7   		addq	%rax, %rdi
 3237 26a4 4C39DF   		cmpq	%r11, %rdi
 3238 26a7 488D7B11 		leaq	17(%rbx), %rdi
 3239 26ab 410F96C3 		setbe	%r11b
 3240 26af 4839F9   		cmpq	%rdi, %rcx
 3241 26b2 400F93C7 		setnb	%dil
 3242 26b6 4108FB   		orb	%dil, %r11b
 3243 26b9 0F843503 		je	.L662
 3243      0000
 3244 26bf 4983F916 		cmpq	$22, %r9
 3245 26c3 0F862B03 		jbe	.L662
 3245      0000
 3246 26c9 4889CF   		movq	%rcx, %rdi
 3247 26cc 48F7DF   		negq	%rdi
 3248 26cf 83E70F   		andl	$15, %edi
 3249 26d2 4939F9   		cmpq	%rdi, %r9
 3250 26d5 490F46F9 		cmovbe	%r9, %rdi
 3251 26d9 4885FF   		testq	%rdi, %rdi
 3252 26dc 0F844A01 		je	.L655
 3252      0000
 3253 26e2 440FB65B 		movzbl	16(%rbx), %r11d
 3253      10
 3254 26e7 4883FF01 		cmpq	$1, %rdi
 3255 26eb 448819   		movb	%r11b, (%rcx)
 3256 26ee 0F847603 		je	.L668
 3256      0000
 3257 26f4 440FB643 		movzbl	16(%rbx), %r8d
 3257      10
 3258 26f9 4883FF02 		cmpq	$2, %rdi
 3259 26fd 4C8D5902 		leaq	2(%rcx), %r11
 3260 2701 44884101 		movb	%r8b, 1(%rcx)
 3261 2705 0F842503 		je	.L681
 3261      0000
 3262 270b 440FB643 		movzbl	16(%rbx), %r8d
 3262      10
 3263 2710 4883FF03 		cmpq	$3, %rdi
 3264 2714 4C8D5903 		leaq	3(%rcx), %r11
 3265 2718 44884102 		movb	%r8b, 2(%rcx)
 3266 271c 0F840E03 		je	.L681
 3266      0000
 3267 2722 440FB643 		movzbl	16(%rbx), %r8d
 3267      10
 3268 2727 4883FF04 		cmpq	$4, %rdi
 3269 272b 4C8D5904 		leaq	4(%rcx), %r11
 3270 272f 44884103 		movb	%r8b, 3(%rcx)
 3271 2733 0F84F702 		je	.L681
 3271      0000
 3272 2739 440FB643 		movzbl	16(%rbx), %r8d
 3272      10
 3273 273e 4883FF05 		cmpq	$5, %rdi
 3274 2742 4C8D5905 		leaq	5(%rcx), %r11
 3275 2746 44884104 		movb	%r8b, 4(%rcx)
 3276 274a 0F84E002 		je	.L681
 3276      0000
 3277 2750 440FB643 		movzbl	16(%rbx), %r8d
 3277      10
 3278 2755 4883FF06 		cmpq	$6, %rdi
 3279 2759 4C8D5906 		leaq	6(%rcx), %r11
 3280 275d 44884105 		movb	%r8b, 5(%rcx)
 3281 2761 0F84C902 		je	.L681
 3281      0000
 3282 2767 440FB643 		movzbl	16(%rbx), %r8d
 3282      10
 3283 276c 4883FF07 		cmpq	$7, %rdi
 3284 2770 4C8D5907 		leaq	7(%rcx), %r11
 3285 2774 44884106 		movb	%r8b, 6(%rcx)
 3286 2778 0F84B202 		je	.L681
 3286      0000
 3287 277e 440FB643 		movzbl	16(%rbx), %r8d
 3287      10
 3288 2783 4883FF08 		cmpq	$8, %rdi
 3289 2787 4C8D5908 		leaq	8(%rcx), %r11
 3290 278b 44884107 		movb	%r8b, 7(%rcx)
 3291 278f 0F849B02 		je	.L681
 3291      0000
 3292 2795 440FB643 		movzbl	16(%rbx), %r8d
 3292      10
 3293 279a 4883FF09 		cmpq	$9, %rdi
 3294 279e 4C8D5909 		leaq	9(%rcx), %r11
 3295 27a2 44884108 		movb	%r8b, 8(%rcx)
 3296 27a6 0F848402 		je	.L681
 3296      0000
 3297 27ac 440FB643 		movzbl	16(%rbx), %r8d
 3297      10
 3298 27b1 4883FF0A 		cmpq	$10, %rdi
 3299 27b5 4C8D590A 		leaq	10(%rcx), %r11
 3300 27b9 44884109 		movb	%r8b, 9(%rcx)
 3301 27bd 0F846D02 		je	.L681
 3301      0000
 3302 27c3 440FB643 		movzbl	16(%rbx), %r8d
 3302      10
 3303 27c8 4883FF0B 		cmpq	$11, %rdi
 3304 27cc 4C8D590B 		leaq	11(%rcx), %r11
 3305 27d0 4488410A 		movb	%r8b, 10(%rcx)
 3306 27d4 0F845602 		je	.L681
 3306      0000
 3307 27da 440FB643 		movzbl	16(%rbx), %r8d
 3307      10
 3308 27df 4883FF0C 		cmpq	$12, %rdi
 3309 27e3 4C8D590C 		leaq	12(%rcx), %r11
 3310 27e7 4488410B 		movb	%r8b, 11(%rcx)
 3311 27eb 0F843F02 		je	.L681
 3311      0000
 3312 27f1 440FB643 		movzbl	16(%rbx), %r8d
 3312      10
 3313 27f6 4883FF0D 		cmpq	$13, %rdi
 3314 27fa 4C8D590D 		leaq	13(%rcx), %r11
 3315 27fe 4488410C 		movb	%r8b, 12(%rcx)
 3316 2802 0F842802 		je	.L681
 3316      0000
 3317 2808 440FB643 		movzbl	16(%rbx), %r8d
 3317      10
 3318 280d 4883FF0F 		cmpq	$15, %rdi
 3319 2811 4C8D590E 		leaq	14(%rcx), %r11
 3320 2815 4488410D 		movb	%r8b, 13(%rcx)
 3321 2819 0F851102 		jne	.L681
 3321      0000
 3322 281f 440FB643 		movzbl	16(%rbx), %r8d
 3322      10
 3323 2824 4883C10F 		addq	$15, %rcx
 3324 2828 448841FF 		movb	%r8b, -1(%rcx)
 3325              	.L655:
 3326 282c 4929F9   		subq	%rdi, %r9
 3327 282f 4929FE   		subq	%rdi, %r14
 3328 2832 4D8D59F0 		leaq	-16(%r9), %r11
 3329 2836 49C1EB04 		shrq	$4, %r11
 3330 283a 4983C301 		addq	$1, %r11
 3331 283e 4D89DC   		movq	%r11, %r12
 3332 2841 49C1E404 		salq	$4, %r12
 3333 2845 4983FE0E 		cmpq	$14, %r14
 3334 2849 763C     		jbe	.L657
 3335 284b 440FB643 		movzbl	16(%rbx), %r8d
 3335      10
 3336 2850 4C01D7   		addq	%r10, %rdi
 3337 2853 4801F8   		addq	%rdi, %rax
 3338 2856 31FF     		xorl	%edi, %edi
 3339 2858 66410F6E 		movd	%r8d, %xmm0
 3339      C0
 3340 285d 660F60C0 		punpcklbw	%xmm0, %xmm0
 3341 2861 660F61C0 		punpcklwd	%xmm0, %xmm0
 3342 2865 660F70C0 		pshufd	$0, %xmm0, %xmm0
 3342      00
 3343              	.L658:
 3344 286a 4883C701 		addq	$1, %rdi
 3345 286e 4883C010 		addq	$16, %rax
 3346 2872 0F2940F0 		movaps	%xmm0, -16(%rax)
 3347 2876 4C39DF   		cmpq	%r11, %rdi
 3348 2879 72EF     		jb	.L658
 3349 287b 4C01E1   		addq	%r12, %rcx
 3350 287e 4D39E1   		cmpq	%r12, %r9
 3351 2881 0F841BF7 		je	.L663
 3351      FFFF
 3352              	.L657:
 3353 2887 0FB64310 		movzbl	16(%rbx), %eax
 3354 288b 8801     		movb	%al, (%rcx)
 3355 288d 488D4101 		leaq	1(%rcx), %rax
 3356 2891 4839C6   		cmpq	%rax, %rsi
 3357 2894 0F8608F7 		jbe	.L663
 3357      FFFF
 3358 289a 0FB64310 		movzbl	16(%rbx), %eax
 3359 289e 884101   		movb	%al, 1(%rcx)
 3360 28a1 488D4102 		leaq	2(%rcx), %rax
 3361 28a5 4839C6   		cmpq	%rax, %rsi
 3362 28a8 0F86F4F6 		jbe	.L663
 3362      FFFF
 3363 28ae 0FB64310 		movzbl	16(%rbx), %eax
 3364 28b2 884102   		movb	%al, 2(%rcx)
 3365 28b5 488D4103 		leaq	3(%rcx), %rax
 3366 28b9 4839C6   		cmpq	%rax, %rsi
 3367 28bc 0F86E0F6 		jbe	.L663
 3367      FFFF
 3368 28c2 0FB64310 		movzbl	16(%rbx), %eax
 3369 28c6 884103   		movb	%al, 3(%rcx)
 3370 28c9 488D4104 		leaq	4(%rcx), %rax
 3371 28cd 4839C6   		cmpq	%rax, %rsi
 3372 28d0 0F86CCF6 		jbe	.L663
 3372      FFFF
 3373 28d6 0FB64310 		movzbl	16(%rbx), %eax
 3374 28da 884104   		movb	%al, 4(%rcx)
 3375 28dd 488D4105 		leaq	5(%rcx), %rax
 3376 28e1 4839C6   		cmpq	%rax, %rsi
 3377 28e4 0F86B8F6 		jbe	.L663
 3377      FFFF
 3378 28ea 0FB64310 		movzbl	16(%rbx), %eax
 3379 28ee 884105   		movb	%al, 5(%rcx)
 3380 28f1 488D4106 		leaq	6(%rcx), %rax
 3381 28f5 4839C6   		cmpq	%rax, %rsi
 3382 28f8 0F86A4F6 		jbe	.L663
 3382      FFFF
 3383 28fe 0FB64310 		movzbl	16(%rbx), %eax
 3384 2902 884106   		movb	%al, 6(%rcx)
 3385 2905 488D4107 		leaq	7(%rcx), %rax
 3386 2909 4839C6   		cmpq	%rax, %rsi
 3387 290c 0F8690F6 		jbe	.L663
 3387      FFFF
 3388 2912 0FB64310 		movzbl	16(%rbx), %eax
 3389 2916 884107   		movb	%al, 7(%rcx)
 3390 2919 488D4108 		leaq	8(%rcx), %rax
 3391 291d 4839C6   		cmpq	%rax, %rsi
 3392 2920 0F867CF6 		jbe	.L663
 3392      FFFF
 3393 2926 0FB64310 		movzbl	16(%rbx), %eax
 3394 292a 884108   		movb	%al, 8(%rcx)
 3395 292d 488D4109 		leaq	9(%rcx), %rax
 3396 2931 4839C6   		cmpq	%rax, %rsi
 3397 2934 0F8668F6 		jbe	.L663
 3397      FFFF
 3398 293a 0FB64310 		movzbl	16(%rbx), %eax
 3399 293e 884109   		movb	%al, 9(%rcx)
 3400 2941 488D410A 		leaq	10(%rcx), %rax
 3401 2945 4839C6   		cmpq	%rax, %rsi
 3402 2948 0F8654F6 		jbe	.L663
 3402      FFFF
 3403 294e 0FB64310 		movzbl	16(%rbx), %eax
 3404 2952 88410A   		movb	%al, 10(%rcx)
 3405 2955 488D410B 		leaq	11(%rcx), %rax
 3406 2959 4839C6   		cmpq	%rax, %rsi
 3407 295c 0F8640F6 		jbe	.L663
 3407      FFFF
 3408 2962 0FB64310 		movzbl	16(%rbx), %eax
 3409 2966 88410B   		movb	%al, 11(%rcx)
 3410 2969 488D410C 		leaq	12(%rcx), %rax
 3411 296d 4839C6   		cmpq	%rax, %rsi
 3412 2970 0F862CF6 		jbe	.L663
 3412      FFFF
 3413 2976 0FB64310 		movzbl	16(%rbx), %eax
 3414 297a 88410C   		movb	%al, 12(%rcx)
 3415 297d 488D410D 		leaq	13(%rcx), %rax
 3416 2981 4839C6   		cmpq	%rax, %rsi
 3417 2984 0F8618F6 		jbe	.L663
 3417      FFFF
 3418 298a 0FB64310 		movzbl	16(%rbx), %eax
 3419 298e 88410D   		movb	%al, 13(%rcx)
 3420 2991 488D410E 		leaq	14(%rcx), %rax
 3421 2995 4839C6   		cmpq	%rax, %rsi
 3422 2998 0F8604F6 		jbe	.L663
 3422      FFFF
 3423 299e 0FB64310 		movzbl	16(%rbx), %eax
 3424 29a2 88410E   		movb	%al, 14(%rcx)
 3425 29a5 E9F8F5FF 		jmp	.L663
 3425      FF
 3426 29aa 660F1F44 		.p2align 4,,10
 3426      0000
 3427              		.p2align 3
 3428              	.L803:
 3429 29b0 4983C101 		addq	$1, %r9
 3430              	.L635:
 3431 29b4 0FB64310 		movzbl	16(%rbx), %eax
 3432 29b8 4D39C1   		cmpq	%r8, %r9
 3433 29bb 418841FF 		movb	%al, -1(%r9)
 3434 29bf 75EF     		jne	.L803
 3435 29c1 E945FCFF 		jmp	.L636
 3435      FF
 3436 29c6 662E0F1F 		.p2align 4,,10
 3436      84000000 
 3436      0000
 3437              		.p2align 3
 3438              	.L649:
 3439 29d0 48032F   		addq	(%rdi), %rbp
 3440 29d3 E9F0F8FF 		jmp	.L648
 3440      FF
 3441 29d8 0F1F8400 		.p2align 4,,10
 3441      00000000 
 3442              		.p2align 3
 3443              	.L666:
 3444 29e0 4889F9   		movq	%rdi, %rcx
 3445 29e3 E97DF7FF 		jmp	.L639
 3445      FF
 3446 29e8 0F1F8400 		.p2align 4,,10
 3446      00000000 
 3447              		.p2align 3
 3448              	.L804:
 3449 29f0 4983C001 		addq	$1, %r8
 3450              	.L662:
 3451 29f4 0FB64310 		movzbl	16(%rbx), %eax
 3452 29f8 4939F0   		cmpq	%rsi, %r8
 3453 29fb 418840FF 		movb	%al, -1(%r8)
 3454 29ff 75EF     		jne	.L804
 3455 2a01 E99CF5FF 		jmp	.L663
 3455      FF
 3456 2a06 662E0F1F 		.p2align 4,,10
 3456      84000000 
 3456      0000
 3457              		.p2align 3
 3458              	.L665:
 3459 2a10 4C89CD   		movq	%r9, %rbp
 3460 2a13 E9ACF8FF 		jmp	.L637
 3460      FF
 3461 2a18 0F1F8400 		.p2align 4,,10
 3461      00000000 
 3462              		.p2align 3
 3463              	.L664:
 3464 2a20 4889F9   		movq	%rdi, %rcx
 3465 2a23 E98CFAFF 		jmp	.L628
 3465      FF
 3466 2a28 0F1F8400 		.p2align 4,,10
 3466      00000000 
 3467              		.p2align 3
 3468              	.L681:
 3469 2a30 4C89D9   		movq	%r11, %rcx
 3470 2a33 E9F4FDFF 		jmp	.L655
 3470      FF
 3471              	.L653:
 3472 2a38 488D3500 		leaq	.LC6(%rip), %rsi
 3472      000000
 3473 2a3f 4889CF   		movq	%rcx, %rdi
 3474 2a42 31C0     		xorl	%eax, %eax
 3475 2a44 48890C24 		movq	%rcx, (%rsp)
 3476 2a48 E8000000 		call	errRender@PLT
 3476      00
 3477 2a4d 488B0C24 		movq	(%rsp), %rcx
 3478 2a51 488D3500 		leaq	.LC14(%rip), %rsi
 3478      000000
 3479 2a58 4889CF   		movq	%rcx, %rdi
 3480 2a5b E8000000 		call	errPrefix@PLT
 3480      00
 3481 2a60 B8010000 		movl	$1, %eax
 3481      00
 3482 2a65 E963F8FF 		jmp	.L792
 3482      FF
 3483              	.L668:
 3484 2a6a 4C89C1   		movq	%r8, %rcx
 3485 2a6d E9BAFDFF 		jmp	.L655
 3485      FF
 3486              		.cfi_endproc
 3487              	.LFE61:
 3489              		.section	.text.unlikely
 3490              	.LCOLDE15:
 3491              		.text
 3492              	.LHOTE15:
 3493              		.section	.rodata.str1.1
 3494              	.LC16:
 3495 000f 62756657 		.string	"bufWriteWordLE()"
 3495      72697465 
 3495      576F7264 
 3495      4C452829 
 3495      00
 3496              		.section	.text.unlikely
 3497              	.LCOLDB17:
 3498              		.text
 3499              	.LHOTB17:
 3500 2a72 0F1F4000 		.p2align 4,,15
 3500      662E0F1F 
 3500      84000000 
 3500      0000
 3501              		.globl	bufWriteWordLE
 3503              	bufWriteWordLE:
 3504              	.LFB62:
 3505              		.cfi_startproc
 3506 2a80 4156     		pushq	%r14
 3507              		.cfi_def_cfa_offset 16
 3508              		.cfi_offset 14, -16
 3509 2a82 4155     		pushq	%r13
 3510              		.cfi_def_cfa_offset 24
 3511              		.cfi_offset 13, -24
 3512 2a84 4154     		pushq	%r12
 3513              		.cfi_def_cfa_offset 32
 3514              		.cfi_offset 12, -32
 3515 2a86 55       		pushq	%rbp
 3516              		.cfi_def_cfa_offset 40
 3517              		.cfi_offset 6, -40
 3518 2a87 89F5     		movl	%esi, %ebp
 3519 2a89 53       		pushq	%rbx
 3520              		.cfi_def_cfa_offset 48
 3521              		.cfi_offset 3, -48
 3522 2a8a 448D6D02 		leal	2(%rbp), %r13d
 3523 2a8e 4889FB   		movq	%rdi, %rbx
 3524 2a91 4883EC20 		subq	$32, %rsp
 3525              		.cfi_def_cfa_offset 80
 3526 2a95 8B7708   		movl	8(%rdi), %esi
 3527 2a98 64488B04 		movq	%fs:40, %rax
 3527      25280000 
 3527      00
 3528 2aa1 48894424 		movq	%rax, 24(%rsp)
 3528      18
 3529 2aa6 31C0     		xorl	%eax, %eax
 3530 2aa8 39F5     		cmpl	%esi, %ebp
 3531 2aaa 732C     		jnb	.L989
 3532 2aac 4139F5   		cmpl	%esi, %r13d
 3533 2aaf 0F865B0A 		jbe	.L835
 3533      0000
 3534 2ab5 448B670C 		movl	12(%rdi), %r12d
 3535 2ab9 4539E5   		cmpl	%r12d, %r13d
 3536 2abc 0F87BE06 		ja	.L838
 3536      0000
 3537              	.L849:
 3538 2ac2 4C8B03   		movq	(%rbx), %r8
 3539              	.L837:
 3540 2ac5 44896B08 		movl	%r13d, 8(%rbx)
 3541 2ac9 4901E8   		addq	%rbp, %r8
 3542 2acc E91A0300 		jmp	.L834
 3542      00
 3543              		.p2align 4,,10
 3544 2ad1 0F1F8000 		.p2align 3
 3544      000000
 3545              	.L989:
 3546 2ad8 448B670C 		movl	12(%rdi), %r12d
 3547 2adc 4539E5   		cmpl	%r12d, %r13d
 3548 2adf 0F873B03 		ja	.L809
 3548      0000
 3549 2ae5 488B07   		movq	(%rdi), %rax
 3550              	.L808:
 3551 2ae8 4189F1   		movl	%esi, %r9d
 3552 2aeb 4C8D0428 		leaq	(%rax,%rbp), %r8
 3553 2aef 4A8D3C08 		leaq	(%rax,%r9), %rdi
 3554 2af3 4C39C7   		cmpq	%r8, %rdi
 3555 2af6 0F83EB02 		jnb	.L823
 3555      0000
 3556 2afc 4C8D5701 		leaq	1(%rdi), %r10
 3557 2b00 4D89C6   		movq	%r8, %r14
 3558 2b03 4C8D6310 		leaq	16(%rbx), %r12
 3559 2b07 4D29D6   		subq	%r10, %r14
 3560 2b0a 4C89D1   		movq	%r10, %rcx
 3561 2b0d 4B8D740E 		leaq	1(%r14,%r9), %rsi
 3561      01
 3562 2b12 4D8D5E01 		leaq	1(%r14), %r11
 3563 2b16 4801C6   		addq	%rax, %rsi
 3564 2b19 4C39E6   		cmpq	%r12, %rsi
 3565 2b1c 488D7311 		leaq	17(%rbx), %rsi
 3566 2b20 410F96C4 		setbe	%r12b
 3567 2b24 4839F7   		cmpq	%rsi, %rdi
 3568 2b27 400F93C6 		setnb	%sil
 3569 2b2b 4108F4   		orb	%sil, %r12b
 3570 2b2e 0F843006 		je	.L832
 3570      0000
 3571 2b34 4983FB16 		cmpq	$22, %r11
 3572 2b38 0F862606 		jbe	.L832
 3572      0000
 3573 2b3e 4889FE   		movq	%rdi, %rsi
 3574 2b41 48F7DE   		negq	%rsi
 3575 2b44 83E60F   		andl	$15, %esi
 3576 2b47 4939F3   		cmpq	%rsi, %r11
 3577 2b4a 490F46F3 		cmovbe	%r11, %rsi
 3578 2b4e 4885F6   		testq	%rsi, %rsi
 3579 2b51 0F84C909 		je	.L853
 3579      0000
 3580 2b57 440FB653 		movzbl	16(%rbx), %r10d
 3580      10
 3581 2b5c 4883FE01 		cmpq	$1, %rsi
 3582 2b60 448817   		movb	%r10b, (%rdi)
 3583 2b63 0F841C01 		je	.L825
 3583      0000
 3584 2b69 440FB653 		movzbl	16(%rbx), %r10d
 3584      10
 3585 2b6e 4883FE02 		cmpq	$2, %rsi
 3586 2b72 488D4F02 		leaq	2(%rdi), %rcx
 3587 2b76 44885701 		movb	%r10b, 1(%rdi)
 3588 2b7a 0F840501 		je	.L825
 3588      0000
 3589 2b80 440FB653 		movzbl	16(%rbx), %r10d
 3589      10
 3590 2b85 4883FE03 		cmpq	$3, %rsi
 3591 2b89 488D4F03 		leaq	3(%rdi), %rcx
 3592 2b8d 44885702 		movb	%r10b, 2(%rdi)
 3593 2b91 0F84EE00 		je	.L825
 3593      0000
 3594 2b97 440FB653 		movzbl	16(%rbx), %r10d
 3594      10
 3595 2b9c 4883FE04 		cmpq	$4, %rsi
 3596 2ba0 488D4F04 		leaq	4(%rdi), %rcx
 3597 2ba4 44885703 		movb	%r10b, 3(%rdi)
 3598 2ba8 0F84D700 		je	.L825
 3598      0000
 3599 2bae 440FB653 		movzbl	16(%rbx), %r10d
 3599      10
 3600 2bb3 4883FE05 		cmpq	$5, %rsi
 3601 2bb7 488D4F05 		leaq	5(%rdi), %rcx
 3602 2bbb 44885704 		movb	%r10b, 4(%rdi)
 3603 2bbf 0F84C000 		je	.L825
 3603      0000
 3604 2bc5 440FB653 		movzbl	16(%rbx), %r10d
 3604      10
 3605 2bca 4883FE06 		cmpq	$6, %rsi
 3606 2bce 488D4F06 		leaq	6(%rdi), %rcx
 3607 2bd2 44885705 		movb	%r10b, 5(%rdi)
 3608 2bd6 0F84A900 		je	.L825
 3608      0000
 3609 2bdc 440FB653 		movzbl	16(%rbx), %r10d
 3609      10
 3610 2be1 4883FE07 		cmpq	$7, %rsi
 3611 2be5 488D4F07 		leaq	7(%rdi), %rcx
 3612 2be9 44885706 		movb	%r10b, 6(%rdi)
 3613 2bed 0F849200 		je	.L825
 3613      0000
 3614 2bf3 440FB653 		movzbl	16(%rbx), %r10d
 3614      10
 3615 2bf8 4883FE08 		cmpq	$8, %rsi
 3616 2bfc 488D4F08 		leaq	8(%rdi), %rcx
 3617 2c00 44885707 		movb	%r10b, 7(%rdi)
 3618 2c04 747F     		je	.L825
 3619 2c06 440FB653 		movzbl	16(%rbx), %r10d
 3619      10
 3620 2c0b 4883FE09 		cmpq	$9, %rsi
 3621 2c0f 488D4F09 		leaq	9(%rdi), %rcx
 3622 2c13 44885708 		movb	%r10b, 8(%rdi)
 3623 2c17 746C     		je	.L825
 3624 2c19 440FB653 		movzbl	16(%rbx), %r10d
 3624      10
 3625 2c1e 4883FE0A 		cmpq	$10, %rsi
 3626 2c22 488D4F0A 		leaq	10(%rdi), %rcx
 3627 2c26 44885709 		movb	%r10b, 9(%rdi)
 3628 2c2a 7459     		je	.L825
 3629 2c2c 440FB653 		movzbl	16(%rbx), %r10d
 3629      10
 3630 2c31 4883FE0B 		cmpq	$11, %rsi
 3631 2c35 488D4F0B 		leaq	11(%rdi), %rcx
 3632 2c39 4488570A 		movb	%r10b, 10(%rdi)
 3633 2c3d 7446     		je	.L825
 3634 2c3f 440FB653 		movzbl	16(%rbx), %r10d
 3634      10
 3635 2c44 4883FE0C 		cmpq	$12, %rsi
 3636 2c48 488D4F0C 		leaq	12(%rdi), %rcx
 3637 2c4c 4488570B 		movb	%r10b, 11(%rdi)
 3638 2c50 7433     		je	.L825
 3639 2c52 440FB653 		movzbl	16(%rbx), %r10d
 3639      10
 3640 2c57 4883FE0D 		cmpq	$13, %rsi
 3641 2c5b 488D4F0D 		leaq	13(%rdi), %rcx
 3642 2c5f 4488570C 		movb	%r10b, 12(%rdi)
 3643 2c63 7420     		je	.L825
 3644 2c65 440FB653 		movzbl	16(%rbx), %r10d
 3644      10
 3645 2c6a 4883FE0F 		cmpq	$15, %rsi
 3646 2c6e 488D4F0E 		leaq	14(%rdi), %rcx
 3647 2c72 4488570D 		movb	%r10b, 13(%rdi)
 3648 2c76 750D     		jne	.L825
 3649 2c78 440FB653 		movzbl	16(%rbx), %r10d
 3649      10
 3650 2c7d 488D4F0F 		leaq	15(%rdi), %rcx
 3651 2c81 4488570E 		movb	%r10b, 14(%rdi)
 3652              	.L825:
 3653 2c85 4C89DF   		movq	%r11, %rdi
 3654 2c88 4929F6   		subq	%rsi, %r14
 3655 2c8b 4829F7   		subq	%rsi, %rdi
 3656 2c8e 4C8D5FF0 		leaq	-16(%rdi), %r11
 3657 2c92 49C1EB04 		shrq	$4, %r11
 3658 2c96 4983C301 		addq	$1, %r11
 3659 2c9a 4D89DC   		movq	%r11, %r12
 3660 2c9d 49C1E404 		salq	$4, %r12
 3661 2ca1 4983FE0E 		cmpq	$14, %r14
 3662 2ca5 763C     		jbe	.L827
 3663 2ca7 440FB653 		movzbl	16(%rbx), %r10d
 3663      10
 3664 2cac 4C01CE   		addq	%r9, %rsi
 3665 2caf 4801C6   		addq	%rax, %rsi
 3666 2cb2 31C0     		xorl	%eax, %eax
 3667 2cb4 66410F6E 		movd	%r10d, %xmm0
 3667      C2
 3668 2cb9 660F60C0 		punpcklbw	%xmm0, %xmm0
 3669 2cbd 660F61C0 		punpcklwd	%xmm0, %xmm0
 3670 2cc1 660F70C0 		pshufd	$0, %xmm0, %xmm0
 3670      00
 3671              	.L828:
 3672 2cc6 4883C001 		addq	$1, %rax
 3673 2cca 4883C610 		addq	$16, %rsi
 3674 2cce 0F2946F0 		movaps	%xmm0, -16(%rsi)
 3675 2cd2 4939C3   		cmpq	%rax, %r11
 3676 2cd5 77EF     		ja	.L828
 3677 2cd7 4C01E1   		addq	%r12, %rcx
 3678 2cda 4C39E7   		cmpq	%r12, %rdi
 3679 2cdd 0F84FE00 		je	.L833
 3679      0000
 3680              	.L827:
 3681 2ce3 0FB64310 		movzbl	16(%rbx), %eax
 3682 2ce7 8801     		movb	%al, (%rcx)
 3683 2ce9 488D4101 		leaq	1(%rcx), %rax
 3684 2ced 4939C0   		cmpq	%rax, %r8
 3685 2cf0 0F86EB00 		jbe	.L833
 3685      0000
 3686 2cf6 0FB64310 		movzbl	16(%rbx), %eax
 3687 2cfa 884101   		movb	%al, 1(%rcx)
 3688 2cfd 488D4102 		leaq	2(%rcx), %rax
 3689 2d01 4939C0   		cmpq	%rax, %r8
 3690 2d04 0F86D700 		jbe	.L833
 3690      0000
 3691 2d0a 0FB64310 		movzbl	16(%rbx), %eax
 3692 2d0e 884102   		movb	%al, 2(%rcx)
 3693 2d11 488D4103 		leaq	3(%rcx), %rax
 3694 2d15 4939C0   		cmpq	%rax, %r8
 3695 2d18 0F86C300 		jbe	.L833
 3695      0000
 3696 2d1e 0FB64310 		movzbl	16(%rbx), %eax
 3697 2d22 884103   		movb	%al, 3(%rcx)
 3698 2d25 488D4104 		leaq	4(%rcx), %rax
 3699 2d29 4939C0   		cmpq	%rax, %r8
 3700 2d2c 0F86AF00 		jbe	.L833
 3700      0000
 3701 2d32 0FB64310 		movzbl	16(%rbx), %eax
 3702 2d36 884104   		movb	%al, 4(%rcx)
 3703 2d39 488D4105 		leaq	5(%rcx), %rax
 3704 2d3d 4939C0   		cmpq	%rax, %r8
 3705 2d40 0F869B00 		jbe	.L833
 3705      0000
 3706 2d46 0FB64310 		movzbl	16(%rbx), %eax
 3707 2d4a 884105   		movb	%al, 5(%rcx)
 3708 2d4d 488D4106 		leaq	6(%rcx), %rax
 3709 2d51 4939C0   		cmpq	%rax, %r8
 3710 2d54 0F868700 		jbe	.L833
 3710      0000
 3711 2d5a 0FB64310 		movzbl	16(%rbx), %eax
 3712 2d5e 884106   		movb	%al, 6(%rcx)
 3713 2d61 488D4107 		leaq	7(%rcx), %rax
 3714 2d65 4939C0   		cmpq	%rax, %r8
 3715 2d68 7677     		jbe	.L833
 3716 2d6a 0FB64310 		movzbl	16(%rbx), %eax
 3717 2d6e 884107   		movb	%al, 7(%rcx)
 3718 2d71 488D4108 		leaq	8(%rcx), %rax
 3719 2d75 4939C0   		cmpq	%rax, %r8
 3720 2d78 7667     		jbe	.L833
 3721 2d7a 0FB64310 		movzbl	16(%rbx), %eax
 3722 2d7e 884108   		movb	%al, 8(%rcx)
 3723 2d81 488D4109 		leaq	9(%rcx), %rax
 3724 2d85 4939C0   		cmpq	%rax, %r8
 3725 2d88 7657     		jbe	.L833
 3726 2d8a 0FB64310 		movzbl	16(%rbx), %eax
 3727 2d8e 884109   		movb	%al, 9(%rcx)
 3728 2d91 488D410A 		leaq	10(%rcx), %rax
 3729 2d95 4939C0   		cmpq	%rax, %r8
 3730 2d98 7647     		jbe	.L833
 3731 2d9a 0FB64310 		movzbl	16(%rbx), %eax
 3732 2d9e 88410A   		movb	%al, 10(%rcx)
 3733 2da1 488D410B 		leaq	11(%rcx), %rax
 3734 2da5 4939C0   		cmpq	%rax, %r8
 3735 2da8 7637     		jbe	.L833
 3736 2daa 0FB64310 		movzbl	16(%rbx), %eax
 3737 2dae 88410B   		movb	%al, 11(%rcx)
 3738 2db1 488D410C 		leaq	12(%rcx), %rax
 3739 2db5 4939C0   		cmpq	%rax, %r8
 3740 2db8 7627     		jbe	.L833
 3741 2dba 0FB64310 		movzbl	16(%rbx), %eax
 3742 2dbe 88410C   		movb	%al, 12(%rcx)
 3743 2dc1 488D410D 		leaq	13(%rcx), %rax
 3744 2dc5 4939C0   		cmpq	%rax, %r8
 3745 2dc8 7617     		jbe	.L833
 3746 2dca 0FB64310 		movzbl	16(%rbx), %eax
 3747 2dce 88410D   		movb	%al, 13(%rcx)
 3748 2dd1 488D410E 		leaq	14(%rcx), %rax
 3749 2dd5 4939C0   		cmpq	%rax, %r8
 3750 2dd8 7607     		jbe	.L833
 3751 2dda 0FB64310 		movzbl	16(%rbx), %eax
 3752 2dde 88410E   		movb	%al, 14(%rcx)
 3753              	.L833:
 3754 2de1 4989E8   		movq	%rbp, %r8
 3755 2de4 4C0303   		addq	(%rbx), %r8
 3756              	.L823:
 3757 2de7 44896B08 		movl	%r13d, 8(%rbx)
 3758              	.L834:
 3759 2deb 418810   		movb	%dl, (%r8)
 3760 2dee 488B03   		movq	(%rbx), %rax
 3761 2df1 0FB6D6   		movzbl	%dh, %edx
 3762 2df4 88542801 		movb	%dl, 1(%rax,%rbp)
 3763 2df8 31C0     		xorl	%eax, %eax
 3764              	.L811:
 3765 2dfa 488B5424 		movq	24(%rsp), %rdx
 3765      18
 3766 2dff 64483314 		xorq	%fs:40, %rdx
 3766      25280000 
 3766      00
 3767 2e08 0F859407 		jne	.L990
 3767      0000
 3768 2e0e 4883C420 		addq	$32, %rsp
 3769              		.cfi_remember_state
 3770              		.cfi_def_cfa_offset 48
 3771 2e12 5B       		popq	%rbx
 3772              		.cfi_def_cfa_offset 40
 3773 2e13 5D       		popq	%rbp
 3774              		.cfi_def_cfa_offset 32
 3775 2e14 415C     		popq	%r12
 3776              		.cfi_def_cfa_offset 24
 3777 2e16 415D     		popq	%r13
 3778              		.cfi_def_cfa_offset 16
 3779 2e18 415E     		popq	%r14
 3780              		.cfi_def_cfa_offset 8
 3781 2e1a C3       		ret
 3782 2e1b 0F1F4400 		.p2align 4,,10
 3782      00
 3783              		.p2align 3
 3784              	.L809:
 3785              		.cfi_restore_state
 3786 2e20 4501E4   		addl	%r12d, %r12d
 3787 2e23 4539E5   		cmpl	%r12d, %r13d
 3788 2e26 77F8     		ja	.L809
 3789 2e28 488B3B   		movq	(%rbx), %rdi
 3790 2e2b 4589E6   		movl	%r12d, %r14d
 3791 2e2e 48894C24 		movq	%rcx, 8(%rsp)
 3791      08
 3792 2e33 4C89F6   		movq	%r14, %rsi
 3793 2e36 891424   		movl	%edx, (%rsp)
 3794 2e39 E8000000 		call	realloc@PLT
 3794      00
 3795 2e3e 4885C0   		testq	%rax, %rax
 3796 2e41 488903   		movq	%rax, (%rbx)
 3797 2e44 8B1424   		movl	(%rsp), %edx
 3798 2e47 488B4C24 		movq	8(%rsp), %rcx
 3798      08
 3799 2e4c 0F841607 		je	.L839
 3799      0000
 3800 2e52 4589EA   		movl	%r13d, %r10d
 3801 2e55 4E8D0430 		leaq	(%rax,%r14), %r8
 3802 2e59 4489630C 		movl	%r12d, 12(%rbx)
 3803 2e5d 4A8D3C10 		leaq	(%rax,%r10), %rdi
 3804 2e61 4C39C7   		cmpq	%r8, %rdi
 3805 2e64 0F83E402 		jnb	.L984
 3805      0000
 3806 2e6a 4C8D4F01 		leaq	1(%rdi), %r9
 3807 2e6e 4D89C6   		movq	%r8, %r14
 3808 2e71 4C8D6310 		leaq	16(%rbx), %r12
 3809 2e75 4D29CE   		subq	%r9, %r14
 3810 2e78 4C89C9   		movq	%r9, %rcx
 3811 2e7b 4F8D5C32 		leaq	1(%r10,%r14), %r11
 3811      01
 3812 2e80 498D7601 		leaq	1(%r14), %rsi
 3813 2e84 4901C3   		addq	%rax, %r11
 3814 2e87 4D39E3   		cmpq	%r12, %r11
 3815 2e8a 4C8D5B11 		leaq	17(%rbx), %r11
 3816 2e8e 410F96C4 		setbe	%r12b
 3817 2e92 4C39DF   		cmpq	%r11, %rdi
 3818 2e95 410F93C3 		setnb	%r11b
 3819 2e99 4508DC   		orb	%r11b, %r12b
 3820 2e9c 0F845206 		je	.L821
 3820      0000
 3821 2ea2 4883FE16 		cmpq	$22, %rsi
 3822 2ea6 0F864806 		jbe	.L821
 3822      0000
 3823 2eac 4989F9   		movq	%rdi, %r9
 3824 2eaf 49F7D9   		negq	%r9
 3825 2eb2 4183E10F 		andl	$15, %r9d
 3826 2eb6 4C39CE   		cmpq	%r9, %rsi
 3827 2eb9 4C0F46CE 		cmovbe	%rsi, %r9
 3828 2ebd 4D85C9   		testq	%r9, %r9
 3829 2ec0 0F848A06 		je	.L851
 3829      0000
 3830 2ec6 440FB65B 		movzbl	16(%rbx), %r11d
 3830      10
 3831 2ecb 4983F901 		cmpq	$1, %r9
 3832 2ecf 44881F   		movb	%r11b, (%rdi)
 3833 2ed2 0F841C01 		je	.L814
 3833      0000
 3834 2ed8 440FB65B 		movzbl	16(%rbx), %r11d
 3834      10
 3835 2edd 4983F902 		cmpq	$2, %r9
 3836 2ee1 488D4F02 		leaq	2(%rdi), %rcx
 3837 2ee5 44885F01 		movb	%r11b, 1(%rdi)
 3838 2ee9 0F840501 		je	.L814
 3838      0000
 3839 2eef 440FB65B 		movzbl	16(%rbx), %r11d
 3839      10
 3840 2ef4 4983F903 		cmpq	$3, %r9
 3841 2ef8 488D4F03 		leaq	3(%rdi), %rcx
 3842 2efc 44885F02 		movb	%r11b, 2(%rdi)
 3843 2f00 0F84EE00 		je	.L814
 3843      0000
 3844 2f06 440FB65B 		movzbl	16(%rbx), %r11d
 3844      10
 3845 2f0b 4983F904 		cmpq	$4, %r9
 3846 2f0f 488D4F04 		leaq	4(%rdi), %rcx
 3847 2f13 44885F03 		movb	%r11b, 3(%rdi)
 3848 2f17 0F84D700 		je	.L814
 3848      0000
 3849 2f1d 440FB65B 		movzbl	16(%rbx), %r11d
 3849      10
 3850 2f22 4983F905 		cmpq	$5, %r9
 3851 2f26 488D4F05 		leaq	5(%rdi), %rcx
 3852 2f2a 44885F04 		movb	%r11b, 4(%rdi)
 3853 2f2e 0F84C000 		je	.L814
 3853      0000
 3854 2f34 440FB65B 		movzbl	16(%rbx), %r11d
 3854      10
 3855 2f39 4983F906 		cmpq	$6, %r9
 3856 2f3d 488D4F06 		leaq	6(%rdi), %rcx
 3857 2f41 44885F05 		movb	%r11b, 5(%rdi)
 3858 2f45 0F84A900 		je	.L814
 3858      0000
 3859 2f4b 440FB65B 		movzbl	16(%rbx), %r11d
 3859      10
 3860 2f50 4983F907 		cmpq	$7, %r9
 3861 2f54 488D4F07 		leaq	7(%rdi), %rcx
 3862 2f58 44885F06 		movb	%r11b, 6(%rdi)
 3863 2f5c 0F849200 		je	.L814
 3863      0000
 3864 2f62 440FB65B 		movzbl	16(%rbx), %r11d
 3864      10
 3865 2f67 4983F908 		cmpq	$8, %r9
 3866 2f6b 488D4F08 		leaq	8(%rdi), %rcx
 3867 2f6f 44885F07 		movb	%r11b, 7(%rdi)
 3868 2f73 747F     		je	.L814
 3869 2f75 440FB65B 		movzbl	16(%rbx), %r11d
 3869      10
 3870 2f7a 4983F909 		cmpq	$9, %r9
 3871 2f7e 488D4F09 		leaq	9(%rdi), %rcx
 3872 2f82 44885F08 		movb	%r11b, 8(%rdi)
 3873 2f86 746C     		je	.L814
 3874 2f88 440FB65B 		movzbl	16(%rbx), %r11d
 3874      10
 3875 2f8d 4983F90A 		cmpq	$10, %r9
 3876 2f91 488D4F0A 		leaq	10(%rdi), %rcx
 3877 2f95 44885F09 		movb	%r11b, 9(%rdi)
 3878 2f99 7459     		je	.L814
 3879 2f9b 440FB65B 		movzbl	16(%rbx), %r11d
 3879      10
 3880 2fa0 4983F90B 		cmpq	$11, %r9
 3881 2fa4 488D4F0B 		leaq	11(%rdi), %rcx
 3882 2fa8 44885F0A 		movb	%r11b, 10(%rdi)
 3883 2fac 7446     		je	.L814
 3884 2fae 440FB65B 		movzbl	16(%rbx), %r11d
 3884      10
 3885 2fb3 4983F90C 		cmpq	$12, %r9
 3886 2fb7 488D4F0C 		leaq	12(%rdi), %rcx
 3887 2fbb 44885F0B 		movb	%r11b, 11(%rdi)
 3888 2fbf 7433     		je	.L814
 3889 2fc1 440FB65B 		movzbl	16(%rbx), %r11d
 3889      10
 3890 2fc6 4983F90D 		cmpq	$13, %r9
 3891 2fca 488D4F0D 		leaq	13(%rdi), %rcx
 3892 2fce 44885F0C 		movb	%r11b, 12(%rdi)
 3893 2fd2 7420     		je	.L814
 3894 2fd4 440FB65B 		movzbl	16(%rbx), %r11d
 3894      10
 3895 2fd9 4983F90F 		cmpq	$15, %r9
 3896 2fdd 488D4F0E 		leaq	14(%rdi), %rcx
 3897 2fe1 44885F0D 		movb	%r11b, 13(%rdi)
 3898 2fe5 750D     		jne	.L814
 3899 2fe7 440FB65B 		movzbl	16(%rbx), %r11d
 3899      10
 3900 2fec 488D4F0F 		leaq	15(%rdi), %rcx
 3901 2ff0 44885F0E 		movb	%r11b, 14(%rdi)
 3902              	.L814:
 3903 2ff4 4C29CE   		subq	%r9, %rsi
 3904 2ff7 4D29CE   		subq	%r9, %r14
 3905 2ffa 4C8D5EF0 		leaq	-16(%rsi), %r11
 3906 2ffe 49C1EB04 		shrq	$4, %r11
 3907 3002 4983C301 		addq	$1, %r11
 3908 3006 4D89DC   		movq	%r11, %r12
 3909 3009 49C1E404 		salq	$4, %r12
 3910 300d 4983FE0E 		cmpq	$14, %r14
 3911 3011 763A     		jbe	.L816
 3912 3013 0FB67B10 		movzbl	16(%rbx), %edi
 3913 3017 4D01D1   		addq	%r10, %r9
 3914 301a 4C01C8   		addq	%r9, %rax
 3915 301d 660F6EC7 		movd	%edi, %xmm0
 3916 3021 31FF     		xorl	%edi, %edi
 3917 3023 660F60C0 		punpcklbw	%xmm0, %xmm0
 3918 3027 660F61C0 		punpcklwd	%xmm0, %xmm0
 3919 302b 660F70C0 		pshufd	$0, %xmm0, %xmm0
 3919      00
 3920              	.L817:
 3921 3030 4883C701 		addq	$1, %rdi
 3922 3034 4883C010 		addq	$16, %rax
 3923 3038 0F2940F0 		movaps	%xmm0, -16(%rax)
 3924 303c 4C39DF   		cmpq	%r11, %rdi
 3925 303f 72EF     		jb	.L817
 3926 3041 4C01E1   		addq	%r12, %rcx
 3927 3044 4C39E6   		cmpq	%r12, %rsi
 3928 3047 0F84FE00 		je	.L822
 3928      0000
 3929              	.L816:
 3930 304d 0FB64310 		movzbl	16(%rbx), %eax
 3931 3051 8801     		movb	%al, (%rcx)
 3932 3053 488D4101 		leaq	1(%rcx), %rax
 3933 3057 4939C0   		cmpq	%rax, %r8
 3934 305a 0F86EB00 		jbe	.L822
 3934      0000
 3935 3060 0FB64310 		movzbl	16(%rbx), %eax
 3936 3064 884101   		movb	%al, 1(%rcx)
 3937 3067 488D4102 		leaq	2(%rcx), %rax
 3938 306b 4939C0   		cmpq	%rax, %r8
 3939 306e 0F86D700 		jbe	.L822
 3939      0000
 3940 3074 0FB64310 		movzbl	16(%rbx), %eax
 3941 3078 884102   		movb	%al, 2(%rcx)
 3942 307b 488D4103 		leaq	3(%rcx), %rax
 3943 307f 4939C0   		cmpq	%rax, %r8
 3944 3082 0F86C300 		jbe	.L822
 3944      0000
 3945 3088 0FB64310 		movzbl	16(%rbx), %eax
 3946 308c 884103   		movb	%al, 3(%rcx)
 3947 308f 488D4104 		leaq	4(%rcx), %rax
 3948 3093 4939C0   		cmpq	%rax, %r8
 3949 3096 0F86AF00 		jbe	.L822
 3949      0000
 3950 309c 0FB64310 		movzbl	16(%rbx), %eax
 3951 30a0 884104   		movb	%al, 4(%rcx)
 3952 30a3 488D4105 		leaq	5(%rcx), %rax
 3953 30a7 4939C0   		cmpq	%rax, %r8
 3954 30aa 0F869B00 		jbe	.L822
 3954      0000
 3955 30b0 0FB64310 		movzbl	16(%rbx), %eax
 3956 30b4 884105   		movb	%al, 5(%rcx)
 3957 30b7 488D4106 		leaq	6(%rcx), %rax
 3958 30bb 4939C0   		cmpq	%rax, %r8
 3959 30be 0F868700 		jbe	.L822
 3959      0000
 3960 30c4 0FB64310 		movzbl	16(%rbx), %eax
 3961 30c8 884106   		movb	%al, 6(%rcx)
 3962 30cb 488D4107 		leaq	7(%rcx), %rax
 3963 30cf 4939C0   		cmpq	%rax, %r8
 3964 30d2 7677     		jbe	.L822
 3965 30d4 0FB64310 		movzbl	16(%rbx), %eax
 3966 30d8 884107   		movb	%al, 7(%rcx)
 3967 30db 488D4108 		leaq	8(%rcx), %rax
 3968 30df 4939C0   		cmpq	%rax, %r8
 3969 30e2 7667     		jbe	.L822
 3970 30e4 0FB64310 		movzbl	16(%rbx), %eax
 3971 30e8 884108   		movb	%al, 8(%rcx)
 3972 30eb 488D4109 		leaq	9(%rcx), %rax
 3973 30ef 4939C0   		cmpq	%rax, %r8
 3974 30f2 7657     		jbe	.L822
 3975 30f4 0FB64310 		movzbl	16(%rbx), %eax
 3976 30f8 884109   		movb	%al, 9(%rcx)
 3977 30fb 488D410A 		leaq	10(%rcx), %rax
 3978 30ff 4939C0   		cmpq	%rax, %r8
 3979 3102 7647     		jbe	.L822
 3980 3104 0FB64310 		movzbl	16(%rbx), %eax
 3981 3108 88410A   		movb	%al, 10(%rcx)
 3982 310b 488D410B 		leaq	11(%rcx), %rax
 3983 310f 4939C0   		cmpq	%rax, %r8
 3984 3112 7637     		jbe	.L822
 3985 3114 0FB64310 		movzbl	16(%rbx), %eax
 3986 3118 88410B   		movb	%al, 11(%rcx)
 3987 311b 488D410C 		leaq	12(%rcx), %rax
 3988 311f 4939C0   		cmpq	%rax, %r8
 3989 3122 7627     		jbe	.L822
 3990 3124 0FB64310 		movzbl	16(%rbx), %eax
 3991 3128 88410C   		movb	%al, 12(%rcx)
 3992 312b 488D410D 		leaq	13(%rcx), %rax
 3993 312f 4939C0   		cmpq	%rax, %r8
 3994 3132 7617     		jbe	.L822
 3995 3134 0FB64310 		movzbl	16(%rbx), %eax
 3996 3138 88410D   		movb	%al, 13(%rcx)
 3997 313b 488D410E 		leaq	14(%rcx), %rax
 3998 313f 4939C0   		cmpq	%rax, %r8
 3999 3142 7607     		jbe	.L822
 4000 3144 0FB64310 		movzbl	16(%rbx), %eax
 4001 3148 88410E   		movb	%al, 14(%rcx)
 4002              	.L822:
 4003 314b 488B03   		movq	(%rbx), %rax
 4004              	.L984:
 4005 314e 8B7308   		movl	8(%rbx), %esi
 4006 3151 E992F9FF 		jmp	.L808
 4006      FF
 4007 3156 662E0F1F 		.p2align 4,,10
 4007      84000000 
 4007      0000
 4008              		.p2align 3
 4009              	.L991:
 4010 3160 4983C201 		addq	$1, %r10
 4011              	.L832:
 4012 3164 0FB64310 		movzbl	16(%rbx), %eax
 4013 3168 4D39C2   		cmpq	%r8, %r10
 4014 316b 418842FF 		movb	%al, -1(%r10)
 4015 316f 75EF     		jne	.L991
 4016 3171 E96BFCFF 		jmp	.L833
 4016      FF
 4017 3176 662E0F1F 		.p2align 4,,10
 4017      84000000 
 4017      0000
 4018              		.p2align 3
 4019              	.L838:
 4020 3180 4501E4   		addl	%r12d, %r12d
 4021 3183 4539E5   		cmpl	%r12d, %r13d
 4022 3186 77F8     		ja	.L838
 4023 3188 488B3B   		movq	(%rbx), %rdi
 4024 318b 4589E6   		movl	%r12d, %r14d
 4025 318e 48890C24 		movq	%rcx, (%rsp)
 4026 3192 4C89F6   		movq	%r14, %rsi
 4027 3195 89542408 		movl	%edx, 8(%rsp)
 4028 3199 E8000000 		call	realloc@PLT
 4028      00
 4029 319e 4885C0   		testq	%rax, %rax
 4030 31a1 488903   		movq	%rax, (%rbx)
 4031 31a4 488B0C24 		movq	(%rsp), %rcx
 4032 31a8 0F84BA03 		je	.L839
 4032      0000
 4033 31ae 4589EA   		movl	%r13d, %r10d
 4034 31b1 4A8D3430 		leaq	(%rax,%r14), %rsi
 4035 31b5 4489630C 		movl	%r12d, 12(%rbx)
 4036 31b9 4A8D0C10 		leaq	(%rax,%r10), %rcx
 4037 31bd 8B542408 		movl	8(%rsp), %edx
 4038 31c1 4839F1   		cmpq	%rsi, %rcx
 4039 31c4 0F837C03 		jnb	.L854
 4039      0000
 4040 31ca 4C8D4101 		leaq	1(%rcx), %r8
 4041 31ce 4989F6   		movq	%rsi, %r14
 4042 31d1 4C8D5B10 		leaq	16(%rbx), %r11
 4043 31d5 4D29C6   		subq	%r8, %r14
 4044 31d8 4B8D7C32 		leaq	1(%r10,%r14), %rdi
 4044      01
 4045 31dd 4D8D4E01 		leaq	1(%r14), %r9
 4046 31e1 4801C7   		addq	%rax, %rdi
 4047 31e4 4C39DF   		cmpq	%r11, %rdi
 4048 31e7 488D7B11 		leaq	17(%rbx), %rdi
 4049 31eb 410F96C3 		setbe	%r11b
 4050 31ef 4839F9   		cmpq	%rdi, %rcx
 4051 31f2 400F93C7 		setnb	%dil
 4052 31f6 4108FB   		orb	%dil, %r11b
 4053 31f9 0F843503 		je	.L848
 4053      0000
 4054 31ff 4983F916 		cmpq	$22, %r9
 4055 3203 0F862B03 		jbe	.L848
 4055      0000
 4056 3209 4889CF   		movq	%rcx, %rdi
 4057 320c 48F7DF   		negq	%rdi
 4058 320f 83E70F   		andl	$15, %edi
 4059 3212 4939F9   		cmpq	%rdi, %r9
 4060 3215 490F46F9 		cmovbe	%r9, %rdi
 4061 3219 4885FF   		testq	%rdi, %rdi
 4062 321c 0F844A01 		je	.L841
 4062      0000
 4063 3222 440FB65B 		movzbl	16(%rbx), %r11d
 4063      10
 4064 3227 4883FF01 		cmpq	$1, %rdi
 4065 322b 448819   		movb	%r11b, (%rcx)
 4066 322e 0F846603 		je	.L855
 4066      0000
 4067 3234 440FB643 		movzbl	16(%rbx), %r8d
 4067      10
 4068 3239 4883FF02 		cmpq	$2, %rdi
 4069 323d 4C8D5902 		leaq	2(%rcx), %r11
 4070 3241 44884101 		movb	%r8b, 1(%rcx)
 4071 3245 0F841503 		je	.L868
 4071      0000
 4072 324b 440FB643 		movzbl	16(%rbx), %r8d
 4072      10
 4073 3250 4883FF03 		cmpq	$3, %rdi
 4074 3254 4C8D5903 		leaq	3(%rcx), %r11
 4075 3258 44884102 		movb	%r8b, 2(%rcx)
 4076 325c 0F84FE02 		je	.L868
 4076      0000
 4077 3262 440FB643 		movzbl	16(%rbx), %r8d
 4077      10
 4078 3267 4883FF04 		cmpq	$4, %rdi
 4079 326b 4C8D5904 		leaq	4(%rcx), %r11
 4080 326f 44884103 		movb	%r8b, 3(%rcx)
 4081 3273 0F84E702 		je	.L868
 4081      0000
 4082 3279 440FB643 		movzbl	16(%rbx), %r8d
 4082      10
 4083 327e 4883FF05 		cmpq	$5, %rdi
 4084 3282 4C8D5905 		leaq	5(%rcx), %r11
 4085 3286 44884104 		movb	%r8b, 4(%rcx)
 4086 328a 0F84D002 		je	.L868
 4086      0000
 4087 3290 440FB643 		movzbl	16(%rbx), %r8d
 4087      10
 4088 3295 4883FF06 		cmpq	$6, %rdi
 4089 3299 4C8D5906 		leaq	6(%rcx), %r11
 4090 329d 44884105 		movb	%r8b, 5(%rcx)
 4091 32a1 0F84B902 		je	.L868
 4091      0000
 4092 32a7 440FB643 		movzbl	16(%rbx), %r8d
 4092      10
 4093 32ac 4883FF07 		cmpq	$7, %rdi
 4094 32b0 4C8D5907 		leaq	7(%rcx), %r11
 4095 32b4 44884106 		movb	%r8b, 6(%rcx)
 4096 32b8 0F84A202 		je	.L868
 4096      0000
 4097 32be 440FB643 		movzbl	16(%rbx), %r8d
 4097      10
 4098 32c3 4883FF08 		cmpq	$8, %rdi
 4099 32c7 4C8D5908 		leaq	8(%rcx), %r11
 4100 32cb 44884107 		movb	%r8b, 7(%rcx)
 4101 32cf 0F848B02 		je	.L868
 4101      0000
 4102 32d5 440FB643 		movzbl	16(%rbx), %r8d
 4102      10
 4103 32da 4883FF09 		cmpq	$9, %rdi
 4104 32de 4C8D5909 		leaq	9(%rcx), %r11
 4105 32e2 44884108 		movb	%r8b, 8(%rcx)
 4106 32e6 0F847402 		je	.L868
 4106      0000
 4107 32ec 440FB643 		movzbl	16(%rbx), %r8d
 4107      10
 4108 32f1 4883FF0A 		cmpq	$10, %rdi
 4109 32f5 4C8D590A 		leaq	10(%rcx), %r11
 4110 32f9 44884109 		movb	%r8b, 9(%rcx)
 4111 32fd 0F845D02 		je	.L868
 4111      0000
 4112 3303 440FB643 		movzbl	16(%rbx), %r8d
 4112      10
 4113 3308 4883FF0B 		cmpq	$11, %rdi
 4114 330c 4C8D590B 		leaq	11(%rcx), %r11
 4115 3310 4488410A 		movb	%r8b, 10(%rcx)
 4116 3314 0F844602 		je	.L868
 4116      0000
 4117 331a 440FB643 		movzbl	16(%rbx), %r8d
 4117      10
 4118 331f 4883FF0C 		cmpq	$12, %rdi
 4119 3323 4C8D590C 		leaq	12(%rcx), %r11
 4120 3327 4488410B 		movb	%r8b, 11(%rcx)
 4121 332b 0F842F02 		je	.L868
 4121      0000
 4122 3331 440FB643 		movzbl	16(%rbx), %r8d
 4122      10
 4123 3336 4883FF0D 		cmpq	$13, %rdi
 4124 333a 4C8D590D 		leaq	13(%rcx), %r11
 4125 333e 4488410C 		movb	%r8b, 12(%rcx)
 4126 3342 0F841802 		je	.L868
 4126      0000
 4127 3348 440FB643 		movzbl	16(%rbx), %r8d
 4127      10
 4128 334d 4883FF0F 		cmpq	$15, %rdi
 4129 3351 4C8D590E 		leaq	14(%rcx), %r11
 4130 3355 4488410D 		movb	%r8b, 13(%rcx)
 4131 3359 0F850102 		jne	.L868
 4131      0000
 4132 335f 440FB643 		movzbl	16(%rbx), %r8d
 4132      10
 4133 3364 4883C10F 		addq	$15, %rcx
 4134 3368 448841FF 		movb	%r8b, -1(%rcx)
 4135              	.L841:
 4136 336c 4929F9   		subq	%rdi, %r9
 4137 336f 4929FE   		subq	%rdi, %r14
 4138 3372 4D8D59F0 		leaq	-16(%r9), %r11
 4139 3376 49C1EB04 		shrq	$4, %r11
 4140 337a 4983C301 		addq	$1, %r11
 4141 337e 4D89DC   		movq	%r11, %r12
 4142 3381 49C1E404 		salq	$4, %r12
 4143 3385 4983FE0E 		cmpq	$14, %r14
 4144 3389 763C     		jbe	.L843
 4145 338b 440FB643 		movzbl	16(%rbx), %r8d
 4145      10
 4146 3390 4C01D7   		addq	%r10, %rdi
 4147 3393 4801F8   		addq	%rdi, %rax
 4148 3396 31FF     		xorl	%edi, %edi
 4149 3398 66410F6E 		movd	%r8d, %xmm0
 4149      C0
 4150 339d 660F60C0 		punpcklbw	%xmm0, %xmm0
 4151 33a1 660F61C0 		punpcklwd	%xmm0, %xmm0
 4152 33a5 660F70C0 		pshufd	$0, %xmm0, %xmm0
 4152      00
 4153              	.L844:
 4154 33aa 4883C701 		addq	$1, %rdi
 4155 33ae 4883C010 		addq	$16, %rax
 4156 33b2 0F2940F0 		movaps	%xmm0, -16(%rax)
 4157 33b6 4C39DF   		cmpq	%r11, %rdi
 4158 33b9 72EF     		jb	.L844
 4159 33bb 4C01E1   		addq	%r12, %rcx
 4160 33be 4D39E1   		cmpq	%r12, %r9
 4161 33c1 0F84FBF6 		je	.L849
 4161      FFFF
 4162              	.L843:
 4163 33c7 0FB64310 		movzbl	16(%rbx), %eax
 4164 33cb 8801     		movb	%al, (%rcx)
 4165 33cd 488D4101 		leaq	1(%rcx), %rax
 4166 33d1 4839C6   		cmpq	%rax, %rsi
 4167 33d4 0F86E8F6 		jbe	.L849
 4167      FFFF
 4168 33da 0FB64310 		movzbl	16(%rbx), %eax
 4169 33de 884101   		movb	%al, 1(%rcx)
 4170 33e1 488D4102 		leaq	2(%rcx), %rax
 4171 33e5 4839C6   		cmpq	%rax, %rsi
 4172 33e8 0F86D4F6 		jbe	.L849
 4172      FFFF
 4173 33ee 0FB64310 		movzbl	16(%rbx), %eax
 4174 33f2 884102   		movb	%al, 2(%rcx)
 4175 33f5 488D4103 		leaq	3(%rcx), %rax
 4176 33f9 4839C6   		cmpq	%rax, %rsi
 4177 33fc 0F86C0F6 		jbe	.L849
 4177      FFFF
 4178 3402 0FB64310 		movzbl	16(%rbx), %eax
 4179 3406 884103   		movb	%al, 3(%rcx)
 4180 3409 488D4104 		leaq	4(%rcx), %rax
 4181 340d 4839C6   		cmpq	%rax, %rsi
 4182 3410 0F86ACF6 		jbe	.L849
 4182      FFFF
 4183 3416 0FB64310 		movzbl	16(%rbx), %eax
 4184 341a 884104   		movb	%al, 4(%rcx)
 4185 341d 488D4105 		leaq	5(%rcx), %rax
 4186 3421 4839C6   		cmpq	%rax, %rsi
 4187 3424 0F8698F6 		jbe	.L849
 4187      FFFF
 4188 342a 0FB64310 		movzbl	16(%rbx), %eax
 4189 342e 884105   		movb	%al, 5(%rcx)
 4190 3431 488D4106 		leaq	6(%rcx), %rax
 4191 3435 4839C6   		cmpq	%rax, %rsi
 4192 3438 0F8684F6 		jbe	.L849
 4192      FFFF
 4193 343e 0FB64310 		movzbl	16(%rbx), %eax
 4194 3442 884106   		movb	%al, 6(%rcx)
 4195 3445 488D4107 		leaq	7(%rcx), %rax
 4196 3449 4839C6   		cmpq	%rax, %rsi
 4197 344c 0F8670F6 		jbe	.L849
 4197      FFFF
 4198 3452 0FB64310 		movzbl	16(%rbx), %eax
 4199 3456 884107   		movb	%al, 7(%rcx)
 4200 3459 488D4108 		leaq	8(%rcx), %rax
 4201 345d 4839C6   		cmpq	%rax, %rsi
 4202 3460 0F865CF6 		jbe	.L849
 4202      FFFF
 4203 3466 0FB64310 		movzbl	16(%rbx), %eax
 4204 346a 884108   		movb	%al, 8(%rcx)
 4205 346d 488D4109 		leaq	9(%rcx), %rax
 4206 3471 4839C6   		cmpq	%rax, %rsi
 4207 3474 0F8648F6 		jbe	.L849
 4207      FFFF
 4208 347a 0FB64310 		movzbl	16(%rbx), %eax
 4209 347e 884109   		movb	%al, 9(%rcx)
 4210 3481 488D410A 		leaq	10(%rcx), %rax
 4211 3485 4839C6   		cmpq	%rax, %rsi
 4212 3488 0F8634F6 		jbe	.L849
 4212      FFFF
 4213 348e 0FB64310 		movzbl	16(%rbx), %eax
 4214 3492 88410A   		movb	%al, 10(%rcx)
 4215 3495 488D410B 		leaq	11(%rcx), %rax
 4216 3499 4839C6   		cmpq	%rax, %rsi
 4217 349c 0F8620F6 		jbe	.L849
 4217      FFFF
 4218 34a2 0FB64310 		movzbl	16(%rbx), %eax
 4219 34a6 88410B   		movb	%al, 11(%rcx)
 4220 34a9 488D410C 		leaq	12(%rcx), %rax
 4221 34ad 4839C6   		cmpq	%rax, %rsi
 4222 34b0 0F860CF6 		jbe	.L849
 4222      FFFF
 4223 34b6 0FB64310 		movzbl	16(%rbx), %eax
 4224 34ba 88410C   		movb	%al, 12(%rcx)
 4225 34bd 488D410D 		leaq	13(%rcx), %rax
 4226 34c1 4839C6   		cmpq	%rax, %rsi
 4227 34c4 0F86F8F5 		jbe	.L849
 4227      FFFF
 4228 34ca 0FB64310 		movzbl	16(%rbx), %eax
 4229 34ce 88410D   		movb	%al, 13(%rcx)
 4230 34d1 488D410E 		leaq	14(%rcx), %rax
 4231 34d5 4839C6   		cmpq	%rax, %rsi
 4232 34d8 0F86E4F5 		jbe	.L849
 4232      FFFF
 4233 34de 0FB64310 		movzbl	16(%rbx), %eax
 4234 34e2 88410E   		movb	%al, 14(%rcx)
 4235 34e5 E9D8F5FF 		jmp	.L849
 4235      FF
 4236 34ea 660F1F44 		.p2align 4,,10
 4236      0000
 4237              		.p2align 3
 4238              	.L992:
 4239 34f0 4983C101 		addq	$1, %r9
 4240              	.L821:
 4241 34f4 0FB64310 		movzbl	16(%rbx), %eax
 4242 34f8 4D39C1   		cmpq	%r8, %r9
 4243 34fb 418841FF 		movb	%al, -1(%r9)
 4244 34ff 75EF     		jne	.L992
 4245 3501 E945FCFF 		jmp	.L822
 4245      FF
 4246 3506 662E0F1F 		.p2align 4,,10
 4246      84000000 
 4246      0000
 4247              		.p2align 3
 4248              	.L835:
 4249 3510 4989E8   		movq	%rbp, %r8
 4250 3513 4C0307   		addq	(%rdi), %r8
 4251 3516 E9D0F8FF 		jmp	.L834
 4251      FF
 4252 351b 0F1F4400 		.p2align 4,,10
 4252      00
 4253              		.p2align 3
 4254              	.L853:
 4255 3520 4889F9   		movq	%rdi, %rcx
 4256 3523 E95DF7FF 		jmp	.L825
 4256      FF
 4257 3528 0F1F8400 		.p2align 4,,10
 4257      00000000 
 4258              		.p2align 3
 4259              	.L993:
 4260 3530 4983C001 		addq	$1, %r8
 4261              	.L848:
 4262 3534 0FB64310 		movzbl	16(%rbx), %eax
 4263 3538 4939F0   		cmpq	%rsi, %r8
 4264 353b 418840FF 		movb	%al, -1(%r8)
 4265 353f 75EF     		jne	.L993
 4266 3541 E97CF5FF 		jmp	.L849
 4266      FF
 4267              	.L854:
 4268 3546 4989C0   		movq	%rax, %r8
 4269 3549 E977F5FF 		jmp	.L837
 4269      FF
 4270 354e 6690     		.p2align 4,,10
 4271              		.p2align 3
 4272              	.L851:
 4273 3550 4889F9   		movq	%rdi, %rcx
 4274 3553 E99CFAFF 		jmp	.L814
 4274      FF
 4275 3558 0F1F8400 		.p2align 4,,10
 4275      00000000 
 4276              		.p2align 3
 4277              	.L868:
 4278 3560 4C89D9   		movq	%r11, %rcx
 4279 3563 E904FEFF 		jmp	.L841
 4279      FF
 4280              	.L839:
 4281 3568 488D3500 		leaq	.LC6(%rip), %rsi
 4281      000000
 4282 356f 4889CF   		movq	%rcx, %rdi
 4283 3572 31C0     		xorl	%eax, %eax
 4284 3574 48890C24 		movq	%rcx, (%rsp)
 4285 3578 E8000000 		call	errRender@PLT
 4285      00
 4286 357d 488B0C24 		movq	(%rsp), %rcx
 4287 3581 488D3500 		leaq	.LC16(%rip), %rsi
 4287      000000
 4288 3588 4889CF   		movq	%rcx, %rdi
 4289 358b E8000000 		call	errPrefix@PLT
 4289      00
 4290 3590 B8010000 		movl	$1, %eax
 4290      00
 4291 3595 E960F8FF 		jmp	.L811
 4291      FF
 4292              	.L855:
 4293 359a 4C89C1   		movq	%r8, %rcx
 4294 359d E9CAFDFF 		jmp	.L841
 4294      FF
 4295              	.L990:
 4296 35a2 E8000000 		call	__stack_chk_fail@PLT
 4296      00
 4297              		.cfi_endproc
 4298              	.LFE62:
 4300              		.section	.text.unlikely
 4301              	.LCOLDE17:
 4302              		.text
 4303              	.LHOTE17:
 4304              		.section	.rodata.str1.1
 4305              	.LC18:
 4306 0020 62756657 		.string	"bufWriteWordBE()"
 4306      72697465 
 4306      576F7264 
 4306      42452829 
 4306      00
 4307              		.section	.text.unlikely
 4308              	.LCOLDB19:
 4309              		.text
 4310              	.LHOTB19:
 4311 35a7 660F1F84 		.p2align 4,,15
 4311      00000000 
 4311      00
 4312              		.globl	bufWriteWordBE
 4314              	bufWriteWordBE:
 4315              	.LFB63:
 4316              		.cfi_startproc
 4317 35b0 4156     		pushq	%r14
 4318              		.cfi_def_cfa_offset 16
 4319              		.cfi_offset 14, -16
 4320 35b2 4155     		pushq	%r13
 4321              		.cfi_def_cfa_offset 24
 4322              		.cfi_offset 13, -24
 4323 35b4 4154     		pushq	%r12
 4324              		.cfi_def_cfa_offset 32
 4325              		.cfi_offset 12, -32
 4326 35b6 55       		pushq	%rbp
 4327              		.cfi_def_cfa_offset 40
 4328              		.cfi_offset 6, -40
 4329 35b7 89F5     		movl	%esi, %ebp
 4330 35b9 53       		pushq	%rbx
 4331              		.cfi_def_cfa_offset 48
 4332              		.cfi_offset 3, -48
 4333 35ba 448D6D02 		leal	2(%rbp), %r13d
 4334 35be 4889FB   		movq	%rdi, %rbx
 4335 35c1 4883EC20 		subq	$32, %rsp
 4336              		.cfi_def_cfa_offset 80
 4337 35c5 8B7708   		movl	8(%rdi), %esi
 4338 35c8 64488B04 		movq	%fs:40, %rax
 4338      25280000 
 4338      00
 4339 35d1 48894424 		movq	%rax, 24(%rsp)
 4339      18
 4340 35d6 31C0     		xorl	%eax, %eax
 4341 35d8 39F5     		cmpl	%esi, %ebp
 4342 35da 732C     		jnb	.L1178
 4343 35dc 4139F5   		cmpl	%esi, %r13d
 4344 35df 0F865B0A 		jbe	.L1024
 4344      0000
 4345 35e5 448B670C 		movl	12(%rdi), %r12d
 4346 35e9 4539E5   		cmpl	%r12d, %r13d
 4347 35ec 0F87BE06 		ja	.L1027
 4347      0000
 4348              	.L1038:
 4349 35f2 4C8B03   		movq	(%rbx), %r8
 4350              	.L1026:
 4351 35f5 44896B08 		movl	%r13d, 8(%rbx)
 4352 35f9 4901E8   		addq	%rbp, %r8
 4353 35fc E91A0300 		jmp	.L1023
 4353      00
 4354              		.p2align 4,,10
 4355 3601 0F1F8000 		.p2align 3
 4355      000000
 4356              	.L1178:
 4357 3608 448B670C 		movl	12(%rdi), %r12d
 4358 360c 4539E5   		cmpl	%r12d, %r13d
 4359 360f 0F873B03 		ja	.L998
 4359      0000
 4360 3615 488B07   		movq	(%rdi), %rax
 4361              	.L997:
 4362 3618 4189F1   		movl	%esi, %r9d
 4363 361b 4C8D0428 		leaq	(%rax,%rbp), %r8
 4364 361f 4A8D3C08 		leaq	(%rax,%r9), %rdi
 4365 3623 4C39C7   		cmpq	%r8, %rdi
 4366 3626 0F83EB02 		jnb	.L1012
 4366      0000
 4367 362c 4C8D5701 		leaq	1(%rdi), %r10
 4368 3630 4D89C6   		movq	%r8, %r14
 4369 3633 4C8D6310 		leaq	16(%rbx), %r12
 4370 3637 4D29D6   		subq	%r10, %r14
 4371 363a 4C89D1   		movq	%r10, %rcx
 4372 363d 4B8D740E 		leaq	1(%r14,%r9), %rsi
 4372      01
 4373 3642 4D8D5E01 		leaq	1(%r14), %r11
 4374 3646 4801C6   		addq	%rax, %rsi
 4375 3649 4C39E6   		cmpq	%r12, %rsi
 4376 364c 488D7311 		leaq	17(%rbx), %rsi
 4377 3650 410F96C4 		setbe	%r12b
 4378 3654 4839F7   		cmpq	%rsi, %rdi
 4379 3657 400F93C6 		setnb	%sil
 4380 365b 4108F4   		orb	%sil, %r12b
 4381 365e 0F843006 		je	.L1021
 4381      0000
 4382 3664 4983FB16 		cmpq	$22, %r11
 4383 3668 0F862606 		jbe	.L1021
 4383      0000
 4384 366e 4889FE   		movq	%rdi, %rsi
 4385 3671 48F7DE   		negq	%rsi
 4386 3674 83E60F   		andl	$15, %esi
 4387 3677 4939F3   		cmpq	%rsi, %r11
 4388 367a 490F46F3 		cmovbe	%r11, %rsi
 4389 367e 4885F6   		testq	%rsi, %rsi
 4390 3681 0F84C909 		je	.L1042
 4390      0000
 4391 3687 440FB653 		movzbl	16(%rbx), %r10d
 4391      10
 4392 368c 4883FE01 		cmpq	$1, %rsi
 4393 3690 448817   		movb	%r10b, (%rdi)
 4394 3693 0F841C01 		je	.L1014
 4394      0000
 4395 3699 440FB653 		movzbl	16(%rbx), %r10d
 4395      10
 4396 369e 4883FE02 		cmpq	$2, %rsi
 4397 36a2 488D4F02 		leaq	2(%rdi), %rcx
 4398 36a6 44885701 		movb	%r10b, 1(%rdi)
 4399 36aa 0F840501 		je	.L1014
 4399      0000
 4400 36b0 440FB653 		movzbl	16(%rbx), %r10d
 4400      10
 4401 36b5 4883FE03 		cmpq	$3, %rsi
 4402 36b9 488D4F03 		leaq	3(%rdi), %rcx
 4403 36bd 44885702 		movb	%r10b, 2(%rdi)
 4404 36c1 0F84EE00 		je	.L1014
 4404      0000
 4405 36c7 440FB653 		movzbl	16(%rbx), %r10d
 4405      10
 4406 36cc 4883FE04 		cmpq	$4, %rsi
 4407 36d0 488D4F04 		leaq	4(%rdi), %rcx
 4408 36d4 44885703 		movb	%r10b, 3(%rdi)
 4409 36d8 0F84D700 		je	.L1014
 4409      0000
 4410 36de 440FB653 		movzbl	16(%rbx), %r10d
 4410      10
 4411 36e3 4883FE05 		cmpq	$5, %rsi
 4412 36e7 488D4F05 		leaq	5(%rdi), %rcx
 4413 36eb 44885704 		movb	%r10b, 4(%rdi)
 4414 36ef 0F84C000 		je	.L1014
 4414      0000
 4415 36f5 440FB653 		movzbl	16(%rbx), %r10d
 4415      10
 4416 36fa 4883FE06 		cmpq	$6, %rsi
 4417 36fe 488D4F06 		leaq	6(%rdi), %rcx
 4418 3702 44885705 		movb	%r10b, 5(%rdi)
 4419 3706 0F84A900 		je	.L1014
 4419      0000
 4420 370c 440FB653 		movzbl	16(%rbx), %r10d
 4420      10
 4421 3711 4883FE07 		cmpq	$7, %rsi
 4422 3715 488D4F07 		leaq	7(%rdi), %rcx
 4423 3719 44885706 		movb	%r10b, 6(%rdi)
 4424 371d 0F849200 		je	.L1014
 4424      0000
 4425 3723 440FB653 		movzbl	16(%rbx), %r10d
 4425      10
 4426 3728 4883FE08 		cmpq	$8, %rsi
 4427 372c 488D4F08 		leaq	8(%rdi), %rcx
 4428 3730 44885707 		movb	%r10b, 7(%rdi)
 4429 3734 747F     		je	.L1014
 4430 3736 440FB653 		movzbl	16(%rbx), %r10d
 4430      10
 4431 373b 4883FE09 		cmpq	$9, %rsi
 4432 373f 488D4F09 		leaq	9(%rdi), %rcx
 4433 3743 44885708 		movb	%r10b, 8(%rdi)
 4434 3747 746C     		je	.L1014
 4435 3749 440FB653 		movzbl	16(%rbx), %r10d
 4435      10
 4436 374e 4883FE0A 		cmpq	$10, %rsi
 4437 3752 488D4F0A 		leaq	10(%rdi), %rcx
 4438 3756 44885709 		movb	%r10b, 9(%rdi)
 4439 375a 7459     		je	.L1014
 4440 375c 440FB653 		movzbl	16(%rbx), %r10d
 4440      10
 4441 3761 4883FE0B 		cmpq	$11, %rsi
 4442 3765 488D4F0B 		leaq	11(%rdi), %rcx
 4443 3769 4488570A 		movb	%r10b, 10(%rdi)
 4444 376d 7446     		je	.L1014
 4445 376f 440FB653 		movzbl	16(%rbx), %r10d
 4445      10
 4446 3774 4883FE0C 		cmpq	$12, %rsi
 4447 3778 488D4F0C 		leaq	12(%rdi), %rcx
 4448 377c 4488570B 		movb	%r10b, 11(%rdi)
 4449 3780 7433     		je	.L1014
 4450 3782 440FB653 		movzbl	16(%rbx), %r10d
 4450      10
 4451 3787 4883FE0D 		cmpq	$13, %rsi
 4452 378b 488D4F0D 		leaq	13(%rdi), %rcx
 4453 378f 4488570C 		movb	%r10b, 12(%rdi)
 4454 3793 7420     		je	.L1014
 4455 3795 440FB653 		movzbl	16(%rbx), %r10d
 4455      10
 4456 379a 4883FE0F 		cmpq	$15, %rsi
 4457 379e 488D4F0E 		leaq	14(%rdi), %rcx
 4458 37a2 4488570D 		movb	%r10b, 13(%rdi)
 4459 37a6 750D     		jne	.L1014
 4460 37a8 440FB653 		movzbl	16(%rbx), %r10d
 4460      10
 4461 37ad 488D4F0F 		leaq	15(%rdi), %rcx
 4462 37b1 4488570E 		movb	%r10b, 14(%rdi)
 4463              	.L1014:
 4464 37b5 4C89DF   		movq	%r11, %rdi
 4465 37b8 4929F6   		subq	%rsi, %r14
 4466 37bb 4829F7   		subq	%rsi, %rdi
 4467 37be 4C8D5FF0 		leaq	-16(%rdi), %r11
 4468 37c2 49C1EB04 		shrq	$4, %r11
 4469 37c6 4983C301 		addq	$1, %r11
 4470 37ca 4D89DC   		movq	%r11, %r12
 4471 37cd 49C1E404 		salq	$4, %r12
 4472 37d1 4983FE0E 		cmpq	$14, %r14
 4473 37d5 763C     		jbe	.L1016
 4474 37d7 440FB653 		movzbl	16(%rbx), %r10d
 4474      10
 4475 37dc 4C01CE   		addq	%r9, %rsi
 4476 37df 4801C6   		addq	%rax, %rsi
 4477 37e2 31C0     		xorl	%eax, %eax
 4478 37e4 66410F6E 		movd	%r10d, %xmm0
 4478      C2
 4479 37e9 660F60C0 		punpcklbw	%xmm0, %xmm0
 4480 37ed 660F61C0 		punpcklwd	%xmm0, %xmm0
 4481 37f1 660F70C0 		pshufd	$0, %xmm0, %xmm0
 4481      00
 4482              	.L1017:
 4483 37f6 4883C001 		addq	$1, %rax
 4484 37fa 4883C610 		addq	$16, %rsi
 4485 37fe 0F2946F0 		movaps	%xmm0, -16(%rsi)
 4486 3802 4939C3   		cmpq	%rax, %r11
 4487 3805 77EF     		ja	.L1017
 4488 3807 4C01E1   		addq	%r12, %rcx
 4489 380a 4C39E7   		cmpq	%r12, %rdi
 4490 380d 0F84FE00 		je	.L1022
 4490      0000
 4491              	.L1016:
 4492 3813 0FB64310 		movzbl	16(%rbx), %eax
 4493 3817 8801     		movb	%al, (%rcx)
 4494 3819 488D4101 		leaq	1(%rcx), %rax
 4495 381d 4939C0   		cmpq	%rax, %r8
 4496 3820 0F86EB00 		jbe	.L1022
 4496      0000
 4497 3826 0FB64310 		movzbl	16(%rbx), %eax
 4498 382a 884101   		movb	%al, 1(%rcx)
 4499 382d 488D4102 		leaq	2(%rcx), %rax
 4500 3831 4939C0   		cmpq	%rax, %r8
 4501 3834 0F86D700 		jbe	.L1022
 4501      0000
 4502 383a 0FB64310 		movzbl	16(%rbx), %eax
 4503 383e 884102   		movb	%al, 2(%rcx)
 4504 3841 488D4103 		leaq	3(%rcx), %rax
 4505 3845 4939C0   		cmpq	%rax, %r8
 4506 3848 0F86C300 		jbe	.L1022
 4506      0000
 4507 384e 0FB64310 		movzbl	16(%rbx), %eax
 4508 3852 884103   		movb	%al, 3(%rcx)
 4509 3855 488D4104 		leaq	4(%rcx), %rax
 4510 3859 4939C0   		cmpq	%rax, %r8
 4511 385c 0F86AF00 		jbe	.L1022
 4511      0000
 4512 3862 0FB64310 		movzbl	16(%rbx), %eax
 4513 3866 884104   		movb	%al, 4(%rcx)
 4514 3869 488D4105 		leaq	5(%rcx), %rax
 4515 386d 4939C0   		cmpq	%rax, %r8
 4516 3870 0F869B00 		jbe	.L1022
 4516      0000
 4517 3876 0FB64310 		movzbl	16(%rbx), %eax
 4518 387a 884105   		movb	%al, 5(%rcx)
 4519 387d 488D4106 		leaq	6(%rcx), %rax
 4520 3881 4939C0   		cmpq	%rax, %r8
 4521 3884 0F868700 		jbe	.L1022
 4521      0000
 4522 388a 0FB64310 		movzbl	16(%rbx), %eax
 4523 388e 884106   		movb	%al, 6(%rcx)
 4524 3891 488D4107 		leaq	7(%rcx), %rax
 4525 3895 4939C0   		cmpq	%rax, %r8
 4526 3898 7677     		jbe	.L1022
 4527 389a 0FB64310 		movzbl	16(%rbx), %eax
 4528 389e 884107   		movb	%al, 7(%rcx)
 4529 38a1 488D4108 		leaq	8(%rcx), %rax
 4530 38a5 4939C0   		cmpq	%rax, %r8
 4531 38a8 7667     		jbe	.L1022
 4532 38aa 0FB64310 		movzbl	16(%rbx), %eax
 4533 38ae 884108   		movb	%al, 8(%rcx)
 4534 38b1 488D4109 		leaq	9(%rcx), %rax
 4535 38b5 4939C0   		cmpq	%rax, %r8
 4536 38b8 7657     		jbe	.L1022
 4537 38ba 0FB64310 		movzbl	16(%rbx), %eax
 4538 38be 884109   		movb	%al, 9(%rcx)
 4539 38c1 488D410A 		leaq	10(%rcx), %rax
 4540 38c5 4939C0   		cmpq	%rax, %r8
 4541 38c8 7647     		jbe	.L1022
 4542 38ca 0FB64310 		movzbl	16(%rbx), %eax
 4543 38ce 88410A   		movb	%al, 10(%rcx)
 4544 38d1 488D410B 		leaq	11(%rcx), %rax
 4545 38d5 4939C0   		cmpq	%rax, %r8
 4546 38d8 7637     		jbe	.L1022
 4547 38da 0FB64310 		movzbl	16(%rbx), %eax
 4548 38de 88410B   		movb	%al, 11(%rcx)
 4549 38e1 488D410C 		leaq	12(%rcx), %rax
 4550 38e5 4939C0   		cmpq	%rax, %r8
 4551 38e8 7627     		jbe	.L1022
 4552 38ea 0FB64310 		movzbl	16(%rbx), %eax
 4553 38ee 88410C   		movb	%al, 12(%rcx)
 4554 38f1 488D410D 		leaq	13(%rcx), %rax
 4555 38f5 4939C0   		cmpq	%rax, %r8
 4556 38f8 7617     		jbe	.L1022
 4557 38fa 0FB64310 		movzbl	16(%rbx), %eax
 4558 38fe 88410D   		movb	%al, 13(%rcx)
 4559 3901 488D410E 		leaq	14(%rcx), %rax
 4560 3905 4939C0   		cmpq	%rax, %r8
 4561 3908 7607     		jbe	.L1022
 4562 390a 0FB64310 		movzbl	16(%rbx), %eax
 4563 390e 88410E   		movb	%al, 14(%rcx)
 4564              	.L1022:
 4565 3911 4989E8   		movq	%rbp, %r8
 4566 3914 4C0303   		addq	(%rbx), %r8
 4567              	.L1012:
 4568 3917 44896B08 		movl	%r13d, 8(%rbx)
 4569              	.L1023:
 4570 391b 0FB6C6   		movzbl	%dh, %eax
 4571 391e 418800   		movb	%al, (%r8)
 4572 3921 488B03   		movq	(%rbx), %rax
 4573 3924 88542801 		movb	%dl, 1(%rax,%rbp)
 4574 3928 31C0     		xorl	%eax, %eax
 4575              	.L1000:
 4576 392a 488B5424 		movq	24(%rsp), %rdx
 4576      18
 4577 392f 64483314 		xorq	%fs:40, %rdx
 4577      25280000 
 4577      00
 4578 3938 0F859407 		jne	.L1179
 4578      0000
 4579 393e 4883C420 		addq	$32, %rsp
 4580              		.cfi_remember_state
 4581              		.cfi_def_cfa_offset 48
 4582 3942 5B       		popq	%rbx
 4583              		.cfi_def_cfa_offset 40
 4584 3943 5D       		popq	%rbp
 4585              		.cfi_def_cfa_offset 32
 4586 3944 415C     		popq	%r12
 4587              		.cfi_def_cfa_offset 24
 4588 3946 415D     		popq	%r13
 4589              		.cfi_def_cfa_offset 16
 4590 3948 415E     		popq	%r14
 4591              		.cfi_def_cfa_offset 8
 4592 394a C3       		ret
 4593 394b 0F1F4400 		.p2align 4,,10
 4593      00
 4594              		.p2align 3
 4595              	.L998:
 4596              		.cfi_restore_state
 4597 3950 4501E4   		addl	%r12d, %r12d
 4598 3953 4539E5   		cmpl	%r12d, %r13d
 4599 3956 77F8     		ja	.L998
 4600 3958 488B3B   		movq	(%rbx), %rdi
 4601 395b 4589E6   		movl	%r12d, %r14d
 4602 395e 48894C24 		movq	%rcx, 8(%rsp)
 4602      08
 4603 3963 4C89F6   		movq	%r14, %rsi
 4604 3966 891424   		movl	%edx, (%rsp)
 4605 3969 E8000000 		call	realloc@PLT
 4605      00
 4606 396e 4885C0   		testq	%rax, %rax
 4607 3971 488903   		movq	%rax, (%rbx)
 4608 3974 8B1424   		movl	(%rsp), %edx
 4609 3977 488B4C24 		movq	8(%rsp), %rcx
 4609      08
 4610 397c 0F841607 		je	.L1028
 4610      0000
 4611 3982 4589EA   		movl	%r13d, %r10d
 4612 3985 4E8D0430 		leaq	(%rax,%r14), %r8
 4613 3989 4489630C 		movl	%r12d, 12(%rbx)
 4614 398d 4A8D3C10 		leaq	(%rax,%r10), %rdi
 4615 3991 4C39C7   		cmpq	%r8, %rdi
 4616 3994 0F83E402 		jnb	.L1173
 4616      0000
 4617 399a 4C8D4F01 		leaq	1(%rdi), %r9
 4618 399e 4D89C6   		movq	%r8, %r14
 4619 39a1 4C8D6310 		leaq	16(%rbx), %r12
 4620 39a5 4D29CE   		subq	%r9, %r14
 4621 39a8 4C89C9   		movq	%r9, %rcx
 4622 39ab 4F8D5C32 		leaq	1(%r10,%r14), %r11
 4622      01
 4623 39b0 498D7601 		leaq	1(%r14), %rsi
 4624 39b4 4901C3   		addq	%rax, %r11
 4625 39b7 4D39E3   		cmpq	%r12, %r11
 4626 39ba 4C8D5B11 		leaq	17(%rbx), %r11
 4627 39be 410F96C4 		setbe	%r12b
 4628 39c2 4C39DF   		cmpq	%r11, %rdi
 4629 39c5 410F93C3 		setnb	%r11b
 4630 39c9 4508DC   		orb	%r11b, %r12b
 4631 39cc 0F845206 		je	.L1010
 4631      0000
 4632 39d2 4883FE16 		cmpq	$22, %rsi
 4633 39d6 0F864806 		jbe	.L1010
 4633      0000
 4634 39dc 4989F9   		movq	%rdi, %r9
 4635 39df 49F7D9   		negq	%r9
 4636 39e2 4183E10F 		andl	$15, %r9d
 4637 39e6 4C39CE   		cmpq	%r9, %rsi
 4638 39e9 4C0F46CE 		cmovbe	%rsi, %r9
 4639 39ed 4D85C9   		testq	%r9, %r9
 4640 39f0 0F848A06 		je	.L1040
 4640      0000
 4641 39f6 440FB65B 		movzbl	16(%rbx), %r11d
 4641      10
 4642 39fb 4983F901 		cmpq	$1, %r9
 4643 39ff 44881F   		movb	%r11b, (%rdi)
 4644 3a02 0F841C01 		je	.L1003
 4644      0000
 4645 3a08 440FB65B 		movzbl	16(%rbx), %r11d
 4645      10
 4646 3a0d 4983F902 		cmpq	$2, %r9
 4647 3a11 488D4F02 		leaq	2(%rdi), %rcx
 4648 3a15 44885F01 		movb	%r11b, 1(%rdi)
 4649 3a19 0F840501 		je	.L1003
 4649      0000
 4650 3a1f 440FB65B 		movzbl	16(%rbx), %r11d
 4650      10
 4651 3a24 4983F903 		cmpq	$3, %r9
 4652 3a28 488D4F03 		leaq	3(%rdi), %rcx
 4653 3a2c 44885F02 		movb	%r11b, 2(%rdi)
 4654 3a30 0F84EE00 		je	.L1003
 4654      0000
 4655 3a36 440FB65B 		movzbl	16(%rbx), %r11d
 4655      10
 4656 3a3b 4983F904 		cmpq	$4, %r9
 4657 3a3f 488D4F04 		leaq	4(%rdi), %rcx
 4658 3a43 44885F03 		movb	%r11b, 3(%rdi)
 4659 3a47 0F84D700 		je	.L1003
 4659      0000
 4660 3a4d 440FB65B 		movzbl	16(%rbx), %r11d
 4660      10
 4661 3a52 4983F905 		cmpq	$5, %r9
 4662 3a56 488D4F05 		leaq	5(%rdi), %rcx
 4663 3a5a 44885F04 		movb	%r11b, 4(%rdi)
 4664 3a5e 0F84C000 		je	.L1003
 4664      0000
 4665 3a64 440FB65B 		movzbl	16(%rbx), %r11d
 4665      10
 4666 3a69 4983F906 		cmpq	$6, %r9
 4667 3a6d 488D4F06 		leaq	6(%rdi), %rcx
 4668 3a71 44885F05 		movb	%r11b, 5(%rdi)
 4669 3a75 0F84A900 		je	.L1003
 4669      0000
 4670 3a7b 440FB65B 		movzbl	16(%rbx), %r11d
 4670      10
 4671 3a80 4983F907 		cmpq	$7, %r9
 4672 3a84 488D4F07 		leaq	7(%rdi), %rcx
 4673 3a88 44885F06 		movb	%r11b, 6(%rdi)
 4674 3a8c 0F849200 		je	.L1003
 4674      0000
 4675 3a92 440FB65B 		movzbl	16(%rbx), %r11d
 4675      10
 4676 3a97 4983F908 		cmpq	$8, %r9
 4677 3a9b 488D4F08 		leaq	8(%rdi), %rcx
 4678 3a9f 44885F07 		movb	%r11b, 7(%rdi)
 4679 3aa3 747F     		je	.L1003
 4680 3aa5 440FB65B 		movzbl	16(%rbx), %r11d
 4680      10
 4681 3aaa 4983F909 		cmpq	$9, %r9
 4682 3aae 488D4F09 		leaq	9(%rdi), %rcx
 4683 3ab2 44885F08 		movb	%r11b, 8(%rdi)
 4684 3ab6 746C     		je	.L1003
 4685 3ab8 440FB65B 		movzbl	16(%rbx), %r11d
 4685      10
 4686 3abd 4983F90A 		cmpq	$10, %r9
 4687 3ac1 488D4F0A 		leaq	10(%rdi), %rcx
 4688 3ac5 44885F09 		movb	%r11b, 9(%rdi)
 4689 3ac9 7459     		je	.L1003
 4690 3acb 440FB65B 		movzbl	16(%rbx), %r11d
 4690      10
 4691 3ad0 4983F90B 		cmpq	$11, %r9
 4692 3ad4 488D4F0B 		leaq	11(%rdi), %rcx
 4693 3ad8 44885F0A 		movb	%r11b, 10(%rdi)
 4694 3adc 7446     		je	.L1003
 4695 3ade 440FB65B 		movzbl	16(%rbx), %r11d
 4695      10
 4696 3ae3 4983F90C 		cmpq	$12, %r9
 4697 3ae7 488D4F0C 		leaq	12(%rdi), %rcx
 4698 3aeb 44885F0B 		movb	%r11b, 11(%rdi)
 4699 3aef 7433     		je	.L1003
 4700 3af1 440FB65B 		movzbl	16(%rbx), %r11d
 4700      10
 4701 3af6 4983F90D 		cmpq	$13, %r9
 4702 3afa 488D4F0D 		leaq	13(%rdi), %rcx
 4703 3afe 44885F0C 		movb	%r11b, 12(%rdi)
 4704 3b02 7420     		je	.L1003
 4705 3b04 440FB65B 		movzbl	16(%rbx), %r11d
 4705      10
 4706 3b09 4983F90F 		cmpq	$15, %r9
 4707 3b0d 488D4F0E 		leaq	14(%rdi), %rcx
 4708 3b11 44885F0D 		movb	%r11b, 13(%rdi)
 4709 3b15 750D     		jne	.L1003
 4710 3b17 440FB65B 		movzbl	16(%rbx), %r11d
 4710      10
 4711 3b1c 488D4F0F 		leaq	15(%rdi), %rcx
 4712 3b20 44885F0E 		movb	%r11b, 14(%rdi)
 4713              	.L1003:
 4714 3b24 4C29CE   		subq	%r9, %rsi
 4715 3b27 4D29CE   		subq	%r9, %r14
 4716 3b2a 4C8D5EF0 		leaq	-16(%rsi), %r11
 4717 3b2e 49C1EB04 		shrq	$4, %r11
 4718 3b32 4983C301 		addq	$1, %r11
 4719 3b36 4D89DC   		movq	%r11, %r12
 4720 3b39 49C1E404 		salq	$4, %r12
 4721 3b3d 4983FE0E 		cmpq	$14, %r14
 4722 3b41 763A     		jbe	.L1005
 4723 3b43 0FB67B10 		movzbl	16(%rbx), %edi
 4724 3b47 4D01D1   		addq	%r10, %r9
 4725 3b4a 4C01C8   		addq	%r9, %rax
 4726 3b4d 660F6EC7 		movd	%edi, %xmm0
 4727 3b51 31FF     		xorl	%edi, %edi
 4728 3b53 660F60C0 		punpcklbw	%xmm0, %xmm0
 4729 3b57 660F61C0 		punpcklwd	%xmm0, %xmm0
 4730 3b5b 660F70C0 		pshufd	$0, %xmm0, %xmm0
 4730      00
 4731              	.L1006:
 4732 3b60 4883C701 		addq	$1, %rdi
 4733 3b64 4883C010 		addq	$16, %rax
 4734 3b68 0F2940F0 		movaps	%xmm0, -16(%rax)
 4735 3b6c 4C39DF   		cmpq	%r11, %rdi
 4736 3b6f 72EF     		jb	.L1006
 4737 3b71 4C01E1   		addq	%r12, %rcx
 4738 3b74 4C39E6   		cmpq	%r12, %rsi
 4739 3b77 0F84FE00 		je	.L1011
 4739      0000
 4740              	.L1005:
 4741 3b7d 0FB64310 		movzbl	16(%rbx), %eax
 4742 3b81 8801     		movb	%al, (%rcx)
 4743 3b83 488D4101 		leaq	1(%rcx), %rax
 4744 3b87 4939C0   		cmpq	%rax, %r8
 4745 3b8a 0F86EB00 		jbe	.L1011
 4745      0000
 4746 3b90 0FB64310 		movzbl	16(%rbx), %eax
 4747 3b94 884101   		movb	%al, 1(%rcx)
 4748 3b97 488D4102 		leaq	2(%rcx), %rax
 4749 3b9b 4939C0   		cmpq	%rax, %r8
 4750 3b9e 0F86D700 		jbe	.L1011
 4750      0000
 4751 3ba4 0FB64310 		movzbl	16(%rbx), %eax
 4752 3ba8 884102   		movb	%al, 2(%rcx)
 4753 3bab 488D4103 		leaq	3(%rcx), %rax
 4754 3baf 4939C0   		cmpq	%rax, %r8
 4755 3bb2 0F86C300 		jbe	.L1011
 4755      0000
 4756 3bb8 0FB64310 		movzbl	16(%rbx), %eax
 4757 3bbc 884103   		movb	%al, 3(%rcx)
 4758 3bbf 488D4104 		leaq	4(%rcx), %rax
 4759 3bc3 4939C0   		cmpq	%rax, %r8
 4760 3bc6 0F86AF00 		jbe	.L1011
 4760      0000
 4761 3bcc 0FB64310 		movzbl	16(%rbx), %eax
 4762 3bd0 884104   		movb	%al, 4(%rcx)
 4763 3bd3 488D4105 		leaq	5(%rcx), %rax
 4764 3bd7 4939C0   		cmpq	%rax, %r8
 4765 3bda 0F869B00 		jbe	.L1011
 4765      0000
 4766 3be0 0FB64310 		movzbl	16(%rbx), %eax
 4767 3be4 884105   		movb	%al, 5(%rcx)
 4768 3be7 488D4106 		leaq	6(%rcx), %rax
 4769 3beb 4939C0   		cmpq	%rax, %r8
 4770 3bee 0F868700 		jbe	.L1011
 4770      0000
 4771 3bf4 0FB64310 		movzbl	16(%rbx), %eax
 4772 3bf8 884106   		movb	%al, 6(%rcx)
 4773 3bfb 488D4107 		leaq	7(%rcx), %rax
 4774 3bff 4939C0   		cmpq	%rax, %r8
 4775 3c02 7677     		jbe	.L1011
 4776 3c04 0FB64310 		movzbl	16(%rbx), %eax
 4777 3c08 884107   		movb	%al, 7(%rcx)
 4778 3c0b 488D4108 		leaq	8(%rcx), %rax
 4779 3c0f 4939C0   		cmpq	%rax, %r8
 4780 3c12 7667     		jbe	.L1011
 4781 3c14 0FB64310 		movzbl	16(%rbx), %eax
 4782 3c18 884108   		movb	%al, 8(%rcx)
 4783 3c1b 488D4109 		leaq	9(%rcx), %rax
 4784 3c1f 4939C0   		cmpq	%rax, %r8
 4785 3c22 7657     		jbe	.L1011
 4786 3c24 0FB64310 		movzbl	16(%rbx), %eax
 4787 3c28 884109   		movb	%al, 9(%rcx)
 4788 3c2b 488D410A 		leaq	10(%rcx), %rax
 4789 3c2f 4939C0   		cmpq	%rax, %r8
 4790 3c32 7647     		jbe	.L1011
 4791 3c34 0FB64310 		movzbl	16(%rbx), %eax
 4792 3c38 88410A   		movb	%al, 10(%rcx)
 4793 3c3b 488D410B 		leaq	11(%rcx), %rax
 4794 3c3f 4939C0   		cmpq	%rax, %r8
 4795 3c42 7637     		jbe	.L1011
 4796 3c44 0FB64310 		movzbl	16(%rbx), %eax
 4797 3c48 88410B   		movb	%al, 11(%rcx)
 4798 3c4b 488D410C 		leaq	12(%rcx), %rax
 4799 3c4f 4939C0   		cmpq	%rax, %r8
 4800 3c52 7627     		jbe	.L1011
 4801 3c54 0FB64310 		movzbl	16(%rbx), %eax
 4802 3c58 88410C   		movb	%al, 12(%rcx)
 4803 3c5b 488D410D 		leaq	13(%rcx), %rax
 4804 3c5f 4939C0   		cmpq	%rax, %r8
 4805 3c62 7617     		jbe	.L1011
 4806 3c64 0FB64310 		movzbl	16(%rbx), %eax
 4807 3c68 88410D   		movb	%al, 13(%rcx)
 4808 3c6b 488D410E 		leaq	14(%rcx), %rax
 4809 3c6f 4939C0   		cmpq	%rax, %r8
 4810 3c72 7607     		jbe	.L1011
 4811 3c74 0FB64310 		movzbl	16(%rbx), %eax
 4812 3c78 88410E   		movb	%al, 14(%rcx)
 4813              	.L1011:
 4814 3c7b 488B03   		movq	(%rbx), %rax
 4815              	.L1173:
 4816 3c7e 8B7308   		movl	8(%rbx), %esi
 4817 3c81 E992F9FF 		jmp	.L997
 4817      FF
 4818 3c86 662E0F1F 		.p2align 4,,10
 4818      84000000 
 4818      0000
 4819              		.p2align 3
 4820              	.L1180:
 4821 3c90 4983C201 		addq	$1, %r10
 4822              	.L1021:
 4823 3c94 0FB64310 		movzbl	16(%rbx), %eax
 4824 3c98 4D39C2   		cmpq	%r8, %r10
 4825 3c9b 418842FF 		movb	%al, -1(%r10)
 4826 3c9f 75EF     		jne	.L1180
 4827 3ca1 E96BFCFF 		jmp	.L1022
 4827      FF
 4828 3ca6 662E0F1F 		.p2align 4,,10
 4828      84000000 
 4828      0000
 4829              		.p2align 3
 4830              	.L1027:
 4831 3cb0 4501E4   		addl	%r12d, %r12d
 4832 3cb3 4539E5   		cmpl	%r12d, %r13d
 4833 3cb6 77F8     		ja	.L1027
 4834 3cb8 488B3B   		movq	(%rbx), %rdi
 4835 3cbb 4589E6   		movl	%r12d, %r14d
 4836 3cbe 48890C24 		movq	%rcx, (%rsp)
 4837 3cc2 4C89F6   		movq	%r14, %rsi
 4838 3cc5 89542408 		movl	%edx, 8(%rsp)
 4839 3cc9 E8000000 		call	realloc@PLT
 4839      00
 4840 3cce 4885C0   		testq	%rax, %rax
 4841 3cd1 488903   		movq	%rax, (%rbx)
 4842 3cd4 488B0C24 		movq	(%rsp), %rcx
 4843 3cd8 0F84BA03 		je	.L1028
 4843      0000
 4844 3cde 4589EA   		movl	%r13d, %r10d
 4845 3ce1 4A8D3430 		leaq	(%rax,%r14), %rsi
 4846 3ce5 4489630C 		movl	%r12d, 12(%rbx)
 4847 3ce9 4A8D0C10 		leaq	(%rax,%r10), %rcx
 4848 3ced 8B542408 		movl	8(%rsp), %edx
 4849 3cf1 4839F1   		cmpq	%rsi, %rcx
 4850 3cf4 0F837C03 		jnb	.L1043
 4850      0000
 4851 3cfa 4C8D4101 		leaq	1(%rcx), %r8
 4852 3cfe 4989F6   		movq	%rsi, %r14
 4853 3d01 4C8D5B10 		leaq	16(%rbx), %r11
 4854 3d05 4D29C6   		subq	%r8, %r14
 4855 3d08 4B8D7C32 		leaq	1(%r10,%r14), %rdi
 4855      01
 4856 3d0d 4D8D4E01 		leaq	1(%r14), %r9
 4857 3d11 4801C7   		addq	%rax, %rdi
 4858 3d14 4C39DF   		cmpq	%r11, %rdi
 4859 3d17 488D7B11 		leaq	17(%rbx), %rdi
 4860 3d1b 410F96C3 		setbe	%r11b
 4861 3d1f 4839F9   		cmpq	%rdi, %rcx
 4862 3d22 400F93C7 		setnb	%dil
 4863 3d26 4108FB   		orb	%dil, %r11b
 4864 3d29 0F843503 		je	.L1037
 4864      0000
 4865 3d2f 4983F916 		cmpq	$22, %r9
 4866 3d33 0F862B03 		jbe	.L1037
 4866      0000
 4867 3d39 4889CF   		movq	%rcx, %rdi
 4868 3d3c 48F7DF   		negq	%rdi
 4869 3d3f 83E70F   		andl	$15, %edi
 4870 3d42 4939F9   		cmpq	%rdi, %r9
 4871 3d45 490F46F9 		cmovbe	%r9, %rdi
 4872 3d49 4885FF   		testq	%rdi, %rdi
 4873 3d4c 0F844A01 		je	.L1030
 4873      0000
 4874 3d52 440FB65B 		movzbl	16(%rbx), %r11d
 4874      10
 4875 3d57 4883FF01 		cmpq	$1, %rdi
 4876 3d5b 448819   		movb	%r11b, (%rcx)
 4877 3d5e 0F846603 		je	.L1044
 4877      0000
 4878 3d64 440FB643 		movzbl	16(%rbx), %r8d
 4878      10
 4879 3d69 4883FF02 		cmpq	$2, %rdi
 4880 3d6d 4C8D5902 		leaq	2(%rcx), %r11
 4881 3d71 44884101 		movb	%r8b, 1(%rcx)
 4882 3d75 0F841503 		je	.L1057
 4882      0000
 4883 3d7b 440FB643 		movzbl	16(%rbx), %r8d
 4883      10
 4884 3d80 4883FF03 		cmpq	$3, %rdi
 4885 3d84 4C8D5903 		leaq	3(%rcx), %r11
 4886 3d88 44884102 		movb	%r8b, 2(%rcx)
 4887 3d8c 0F84FE02 		je	.L1057
 4887      0000
 4888 3d92 440FB643 		movzbl	16(%rbx), %r8d
 4888      10
 4889 3d97 4883FF04 		cmpq	$4, %rdi
 4890 3d9b 4C8D5904 		leaq	4(%rcx), %r11
 4891 3d9f 44884103 		movb	%r8b, 3(%rcx)
 4892 3da3 0F84E702 		je	.L1057
 4892      0000
 4893 3da9 440FB643 		movzbl	16(%rbx), %r8d
 4893      10
 4894 3dae 4883FF05 		cmpq	$5, %rdi
 4895 3db2 4C8D5905 		leaq	5(%rcx), %r11
 4896 3db6 44884104 		movb	%r8b, 4(%rcx)
 4897 3dba 0F84D002 		je	.L1057
 4897      0000
 4898 3dc0 440FB643 		movzbl	16(%rbx), %r8d
 4898      10
 4899 3dc5 4883FF06 		cmpq	$6, %rdi
 4900 3dc9 4C8D5906 		leaq	6(%rcx), %r11
 4901 3dcd 44884105 		movb	%r8b, 5(%rcx)
 4902 3dd1 0F84B902 		je	.L1057
 4902      0000
 4903 3dd7 440FB643 		movzbl	16(%rbx), %r8d
 4903      10
 4904 3ddc 4883FF07 		cmpq	$7, %rdi
 4905 3de0 4C8D5907 		leaq	7(%rcx), %r11
 4906 3de4 44884106 		movb	%r8b, 6(%rcx)
 4907 3de8 0F84A202 		je	.L1057
 4907      0000
 4908 3dee 440FB643 		movzbl	16(%rbx), %r8d
 4908      10
 4909 3df3 4883FF08 		cmpq	$8, %rdi
 4910 3df7 4C8D5908 		leaq	8(%rcx), %r11
 4911 3dfb 44884107 		movb	%r8b, 7(%rcx)
 4912 3dff 0F848B02 		je	.L1057
 4912      0000
 4913 3e05 440FB643 		movzbl	16(%rbx), %r8d
 4913      10
 4914 3e0a 4883FF09 		cmpq	$9, %rdi
 4915 3e0e 4C8D5909 		leaq	9(%rcx), %r11
 4916 3e12 44884108 		movb	%r8b, 8(%rcx)
 4917 3e16 0F847402 		je	.L1057
 4917      0000
 4918 3e1c 440FB643 		movzbl	16(%rbx), %r8d
 4918      10
 4919 3e21 4883FF0A 		cmpq	$10, %rdi
 4920 3e25 4C8D590A 		leaq	10(%rcx), %r11
 4921 3e29 44884109 		movb	%r8b, 9(%rcx)
 4922 3e2d 0F845D02 		je	.L1057
 4922      0000
 4923 3e33 440FB643 		movzbl	16(%rbx), %r8d
 4923      10
 4924 3e38 4883FF0B 		cmpq	$11, %rdi
 4925 3e3c 4C8D590B 		leaq	11(%rcx), %r11
 4926 3e40 4488410A 		movb	%r8b, 10(%rcx)
 4927 3e44 0F844602 		je	.L1057
 4927      0000
 4928 3e4a 440FB643 		movzbl	16(%rbx), %r8d
 4928      10
 4929 3e4f 4883FF0C 		cmpq	$12, %rdi
 4930 3e53 4C8D590C 		leaq	12(%rcx), %r11
 4931 3e57 4488410B 		movb	%r8b, 11(%rcx)
 4932 3e5b 0F842F02 		je	.L1057
 4932      0000
 4933 3e61 440FB643 		movzbl	16(%rbx), %r8d
 4933      10
 4934 3e66 4883FF0D 		cmpq	$13, %rdi
 4935 3e6a 4C8D590D 		leaq	13(%rcx), %r11
 4936 3e6e 4488410C 		movb	%r8b, 12(%rcx)
 4937 3e72 0F841802 		je	.L1057
 4937      0000
 4938 3e78 440FB643 		movzbl	16(%rbx), %r8d
 4938      10
 4939 3e7d 4883FF0F 		cmpq	$15, %rdi
 4940 3e81 4C8D590E 		leaq	14(%rcx), %r11
 4941 3e85 4488410D 		movb	%r8b, 13(%rcx)
 4942 3e89 0F850102 		jne	.L1057
 4942      0000
 4943 3e8f 440FB643 		movzbl	16(%rbx), %r8d
 4943      10
 4944 3e94 4883C10F 		addq	$15, %rcx
 4945 3e98 448841FF 		movb	%r8b, -1(%rcx)
 4946              	.L1030:
 4947 3e9c 4929F9   		subq	%rdi, %r9
 4948 3e9f 4929FE   		subq	%rdi, %r14
 4949 3ea2 4D8D59F0 		leaq	-16(%r9), %r11
 4950 3ea6 49C1EB04 		shrq	$4, %r11
 4951 3eaa 4983C301 		addq	$1, %r11
 4952 3eae 4D89DC   		movq	%r11, %r12
 4953 3eb1 49C1E404 		salq	$4, %r12
 4954 3eb5 4983FE0E 		cmpq	$14, %r14
 4955 3eb9 763C     		jbe	.L1032
 4956 3ebb 440FB643 		movzbl	16(%rbx), %r8d
 4956      10
 4957 3ec0 4C01D7   		addq	%r10, %rdi
 4958 3ec3 4801F8   		addq	%rdi, %rax
 4959 3ec6 31FF     		xorl	%edi, %edi
 4960 3ec8 66410F6E 		movd	%r8d, %xmm0
 4960      C0
 4961 3ecd 660F60C0 		punpcklbw	%xmm0, %xmm0
 4962 3ed1 660F61C0 		punpcklwd	%xmm0, %xmm0
 4963 3ed5 660F70C0 		pshufd	$0, %xmm0, %xmm0
 4963      00
 4964              	.L1033:
 4965 3eda 4883C701 		addq	$1, %rdi
 4966 3ede 4883C010 		addq	$16, %rax
 4967 3ee2 0F2940F0 		movaps	%xmm0, -16(%rax)
 4968 3ee6 4C39DF   		cmpq	%r11, %rdi
 4969 3ee9 72EF     		jb	.L1033
 4970 3eeb 4C01E1   		addq	%r12, %rcx
 4971 3eee 4D39E1   		cmpq	%r12, %r9
 4972 3ef1 0F84FBF6 		je	.L1038
 4972      FFFF
 4973              	.L1032:
 4974 3ef7 0FB64310 		movzbl	16(%rbx), %eax
 4975 3efb 8801     		movb	%al, (%rcx)
 4976 3efd 488D4101 		leaq	1(%rcx), %rax
 4977 3f01 4839C6   		cmpq	%rax, %rsi
 4978 3f04 0F86E8F6 		jbe	.L1038
 4978      FFFF
 4979 3f0a 0FB64310 		movzbl	16(%rbx), %eax
 4980 3f0e 884101   		movb	%al, 1(%rcx)
 4981 3f11 488D4102 		leaq	2(%rcx), %rax
 4982 3f15 4839C6   		cmpq	%rax, %rsi
 4983 3f18 0F86D4F6 		jbe	.L1038
 4983      FFFF
 4984 3f1e 0FB64310 		movzbl	16(%rbx), %eax
 4985 3f22 884102   		movb	%al, 2(%rcx)
 4986 3f25 488D4103 		leaq	3(%rcx), %rax
 4987 3f29 4839C6   		cmpq	%rax, %rsi
 4988 3f2c 0F86C0F6 		jbe	.L1038
 4988      FFFF
 4989 3f32 0FB64310 		movzbl	16(%rbx), %eax
 4990 3f36 884103   		movb	%al, 3(%rcx)
 4991 3f39 488D4104 		leaq	4(%rcx), %rax
 4992 3f3d 4839C6   		cmpq	%rax, %rsi
 4993 3f40 0F86ACF6 		jbe	.L1038
 4993      FFFF
 4994 3f46 0FB64310 		movzbl	16(%rbx), %eax
 4995 3f4a 884104   		movb	%al, 4(%rcx)
 4996 3f4d 488D4105 		leaq	5(%rcx), %rax
 4997 3f51 4839C6   		cmpq	%rax, %rsi
 4998 3f54 0F8698F6 		jbe	.L1038
 4998      FFFF
 4999 3f5a 0FB64310 		movzbl	16(%rbx), %eax
 5000 3f5e 884105   		movb	%al, 5(%rcx)
 5001 3f61 488D4106 		leaq	6(%rcx), %rax
 5002 3f65 4839C6   		cmpq	%rax, %rsi
 5003 3f68 0F8684F6 		jbe	.L1038
 5003      FFFF
 5004 3f6e 0FB64310 		movzbl	16(%rbx), %eax
 5005 3f72 884106   		movb	%al, 6(%rcx)
 5006 3f75 488D4107 		leaq	7(%rcx), %rax
 5007 3f79 4839C6   		cmpq	%rax, %rsi
 5008 3f7c 0F8670F6 		jbe	.L1038
 5008      FFFF
 5009 3f82 0FB64310 		movzbl	16(%rbx), %eax
 5010 3f86 884107   		movb	%al, 7(%rcx)
 5011 3f89 488D4108 		leaq	8(%rcx), %rax
 5012 3f8d 4839C6   		cmpq	%rax, %rsi
 5013 3f90 0F865CF6 		jbe	.L1038
 5013      FFFF
 5014 3f96 0FB64310 		movzbl	16(%rbx), %eax
 5015 3f9a 884108   		movb	%al, 8(%rcx)
 5016 3f9d 488D4109 		leaq	9(%rcx), %rax
 5017 3fa1 4839C6   		cmpq	%rax, %rsi
 5018 3fa4 0F8648F6 		jbe	.L1038
 5018      FFFF
 5019 3faa 0FB64310 		movzbl	16(%rbx), %eax
 5020 3fae 884109   		movb	%al, 9(%rcx)
 5021 3fb1 488D410A 		leaq	10(%rcx), %rax
 5022 3fb5 4839C6   		cmpq	%rax, %rsi
 5023 3fb8 0F8634F6 		jbe	.L1038
 5023      FFFF
 5024 3fbe 0FB64310 		movzbl	16(%rbx), %eax
 5025 3fc2 88410A   		movb	%al, 10(%rcx)
 5026 3fc5 488D410B 		leaq	11(%rcx), %rax
 5027 3fc9 4839C6   		cmpq	%rax, %rsi
 5028 3fcc 0F8620F6 		jbe	.L1038
 5028      FFFF
 5029 3fd2 0FB64310 		movzbl	16(%rbx), %eax
 5030 3fd6 88410B   		movb	%al, 11(%rcx)
 5031 3fd9 488D410C 		leaq	12(%rcx), %rax
 5032 3fdd 4839C6   		cmpq	%rax, %rsi
 5033 3fe0 0F860CF6 		jbe	.L1038
 5033      FFFF
 5034 3fe6 0FB64310 		movzbl	16(%rbx), %eax
 5035 3fea 88410C   		movb	%al, 12(%rcx)
 5036 3fed 488D410D 		leaq	13(%rcx), %rax
 5037 3ff1 4839C6   		cmpq	%rax, %rsi
 5038 3ff4 0F86F8F5 		jbe	.L1038
 5038      FFFF
 5039 3ffa 0FB64310 		movzbl	16(%rbx), %eax
 5040 3ffe 88410D   		movb	%al, 13(%rcx)
 5041 4001 488D410E 		leaq	14(%rcx), %rax
 5042 4005 4839C6   		cmpq	%rax, %rsi
 5043 4008 0F86E4F5 		jbe	.L1038
 5043      FFFF
 5044 400e 0FB64310 		movzbl	16(%rbx), %eax
 5045 4012 88410E   		movb	%al, 14(%rcx)
 5046 4015 E9D8F5FF 		jmp	.L1038
 5046      FF
 5047 401a 660F1F44 		.p2align 4,,10
 5047      0000
 5048              		.p2align 3
 5049              	.L1181:
 5050 4020 4983C101 		addq	$1, %r9
 5051              	.L1010:
 5052 4024 0FB64310 		movzbl	16(%rbx), %eax
 5053 4028 4D39C1   		cmpq	%r8, %r9
 5054 402b 418841FF 		movb	%al, -1(%r9)
 5055 402f 75EF     		jne	.L1181
 5056 4031 E945FCFF 		jmp	.L1011
 5056      FF
 5057 4036 662E0F1F 		.p2align 4,,10
 5057      84000000 
 5057      0000
 5058              		.p2align 3
 5059              	.L1024:
 5060 4040 4989E8   		movq	%rbp, %r8
 5061 4043 4C0307   		addq	(%rdi), %r8
 5062 4046 E9D0F8FF 		jmp	.L1023
 5062      FF
 5063 404b 0F1F4400 		.p2align 4,,10
 5063      00
 5064              		.p2align 3
 5065              	.L1042:
 5066 4050 4889F9   		movq	%rdi, %rcx
 5067 4053 E95DF7FF 		jmp	.L1014
 5067      FF
 5068 4058 0F1F8400 		.p2align 4,,10
 5068      00000000 
 5069              		.p2align 3
 5070              	.L1182:
 5071 4060 4983C001 		addq	$1, %r8
 5072              	.L1037:
 5073 4064 0FB64310 		movzbl	16(%rbx), %eax
 5074 4068 4939F0   		cmpq	%rsi, %r8
 5075 406b 418840FF 		movb	%al, -1(%r8)
 5076 406f 75EF     		jne	.L1182
 5077 4071 E97CF5FF 		jmp	.L1038
 5077      FF
 5078              	.L1043:
 5079 4076 4989C0   		movq	%rax, %r8
 5080 4079 E977F5FF 		jmp	.L1026
 5080      FF
 5081 407e 6690     		.p2align 4,,10
 5082              		.p2align 3
 5083              	.L1040:
 5084 4080 4889F9   		movq	%rdi, %rcx
 5085 4083 E99CFAFF 		jmp	.L1003
 5085      FF
 5086 4088 0F1F8400 		.p2align 4,,10
 5086      00000000 
 5087              		.p2align 3
 5088              	.L1057:
 5089 4090 4C89D9   		movq	%r11, %rcx
 5090 4093 E904FEFF 		jmp	.L1030
 5090      FF
 5091              	.L1028:
 5092 4098 488D3500 		leaq	.LC6(%rip), %rsi
 5092      000000
 5093 409f 4889CF   		movq	%rcx, %rdi
 5094 40a2 31C0     		xorl	%eax, %eax
 5095 40a4 48890C24 		movq	%rcx, (%rsp)
 5096 40a8 E8000000 		call	errRender@PLT
 5096      00
 5097 40ad 488B0C24 		movq	(%rsp), %rcx
 5098 40b1 488D3500 		leaq	.LC18(%rip), %rsi
 5098      000000
 5099 40b8 4889CF   		movq	%rcx, %rdi
 5100 40bb E8000000 		call	errPrefix@PLT
 5100      00
 5101 40c0 B8010000 		movl	$1, %eax
 5101      00
 5102 40c5 E960F8FF 		jmp	.L1000
 5102      FF
 5103              	.L1044:
 5104 40ca 4C89C1   		movq	%r8, %rcx
 5105 40cd E9CAFDFF 		jmp	.L1030
 5105      FF
 5106              	.L1179:
 5107 40d2 E8000000 		call	__stack_chk_fail@PLT
 5107      00
 5108              		.cfi_endproc
 5109              	.LFE63:
 5111              		.section	.text.unlikely
 5112              	.LCOLDE19:
 5113              		.text
 5114              	.LHOTE19:
 5115              		.section	.rodata.str1.1
 5116              	.LC20:
 5117 0031 62756657 		.string	"bufWriteLongLE()"
 5117      72697465 
 5117      4C6F6E67 
 5117      4C452829 
 5117      00
 5118              		.section	.text.unlikely
 5119              	.LCOLDB21:
 5120              		.text
 5121              	.LHOTB21:
 5122 40d7 660F1F84 		.p2align 4,,15
 5122      00000000 
 5122      00
 5123              		.globl	bufWriteLongLE
 5125              	bufWriteLongLE:
 5126              	.LFB64:
 5127              		.cfi_startproc
 5128 40e0 4156     		pushq	%r14
 5129              		.cfi_def_cfa_offset 16
 5130              		.cfi_offset 14, -16
 5131 40e2 4155     		pushq	%r13
 5132              		.cfi_def_cfa_offset 24
 5133              		.cfi_offset 13, -24
 5134 40e4 4189F5   		movl	%esi, %r13d
 5135 40e7 4154     		pushq	%r12
 5136              		.cfi_def_cfa_offset 32
 5137              		.cfi_offset 12, -32
 5138 40e9 55       		pushq	%rbp
 5139              		.cfi_def_cfa_offset 40
 5140              		.cfi_offset 6, -40
 5141 40ea 448D6604 		leal	4(%rsi), %r12d
 5142 40ee 53       		pushq	%rbx
 5143              		.cfi_def_cfa_offset 48
 5144              		.cfi_offset 3, -48
 5145 40ef 4889FB   		movq	%rdi, %rbx
 5146 40f2 4883EC20 		subq	$32, %rsp
 5147              		.cfi_def_cfa_offset 80
 5148 40f6 448B4F08 		movl	8(%rdi), %r9d
 5149 40fa 64488B04 		movq	%fs:40, %rax
 5149      25280000 
 5149      00
 5150 4103 48894424 		movq	%rax, 24(%rsp)
 5150      18
 5151 4108 31C0     		xorl	%eax, %eax
 5152 410a 4439CE   		cmpl	%r9d, %esi
 5153 410d 7331     		jnb	.L1367
 5154 410f 4539CC   		cmpl	%r9d, %r12d
 5155 4112 0F86680A 		jbe	.L1213
 5155      0000
 5156 4118 8B6F0C   		movl	12(%rdi), %ebp
 5157 411b 4139EC   		cmpl	%ebp, %r12d
 5158 411e 0F87CC06 		ja	.L1216
 5158      0000
 5159              	.L1227:
 5160 4124 4C8B03   		movq	(%rbx), %r8
 5161              	.L1215:
 5162 4127 4489EE   		movl	%r13d, %esi
 5163 412a 44896308 		movl	%r12d, 8(%rbx)
 5164 412e 4901F0   		addq	%rsi, %r8
 5165 4131 E9210300 		jmp	.L1212
 5165      00
 5166 4136 662E0F1F 		.p2align 4,,10
 5166      84000000 
 5166      0000
 5167              		.p2align 3
 5168              	.L1367:
 5169 4140 8B6F0C   		movl	12(%rdi), %ebp
 5170 4143 4139EC   		cmpl	%ebp, %r12d
 5171 4146 0F875403 		ja	.L1187
 5171      0000
 5172 414c 488B07   		movq	(%rdi), %rax
 5173              	.L1186:
 5174 414f 4589CA   		movl	%r9d, %r10d
 5175 4152 4489EE   		movl	%r13d, %esi
 5176 4155 4A8D3C10 		leaq	(%rax,%r10), %rdi
 5177 4159 4C8D0430 		leaq	(%rax,%rsi), %r8
 5178 415d 4C39C7   		cmpq	%r8, %rdi
 5179 4160 0F83ED02 		jnb	.L1201
 5179      0000
 5180 4166 4C8D5F01 		leaq	1(%rdi), %r11
 5181 416a 4D89C6   		movq	%r8, %r14
 5182 416d 4C8D6B10 		leaq	16(%rbx), %r13
 5183 4171 4D29DE   		subq	%r11, %r14
 5184 4174 4C89D9   		movq	%r11, %rcx
 5185 4177 4F8D4C16 		leaq	1(%r14,%r10), %r9
 5185      01
 5186 417c 498D6E01 		leaq	1(%r14), %rbp
 5187 4180 4901C1   		addq	%rax, %r9
 5188 4183 4D39E9   		cmpq	%r13, %r9
 5189 4186 4C8D4B11 		leaq	17(%rbx), %r9
 5190 418a 410F96C5 		setbe	%r13b
 5191 418e 4C39CF   		cmpq	%r9, %rdi
 5192 4191 410F93C1 		setnb	%r9b
 5193 4195 4508CD   		orb	%r9b, %r13b
 5194 4198 0F843606 		je	.L1210
 5194      0000
 5195 419e 4883FD16 		cmpq	$22, %rbp
 5196 41a2 0F862C06 		jbe	.L1210
 5196      0000
 5197 41a8 4989F9   		movq	%rdi, %r9
 5198 41ab 49F7D9   		negq	%r9
 5199 41ae 4183E10F 		andl	$15, %r9d
 5200 41b2 4C39CD   		cmpq	%r9, %rbp
 5201 41b5 4C0F46CD 		cmovbe	%rbp, %r9
 5202 41b9 4D85C9   		testq	%r9, %r9
 5203 41bc 0F84CE09 		je	.L1231
 5203      0000
 5204 41c2 440FB65B 		movzbl	16(%rbx), %r11d
 5204      10
 5205 41c7 4983F901 		cmpq	$1, %r9
 5206 41cb 44881F   		movb	%r11b, (%rdi)
 5207 41ce 0F841C01 		je	.L1203
 5207      0000
 5208 41d4 440FB65B 		movzbl	16(%rbx), %r11d
 5208      10
 5209 41d9 4983F902 		cmpq	$2, %r9
 5210 41dd 488D4F02 		leaq	2(%rdi), %rcx
 5211 41e1 44885F01 		movb	%r11b, 1(%rdi)
 5212 41e5 0F840501 		je	.L1203
 5212      0000
 5213 41eb 440FB65B 		movzbl	16(%rbx), %r11d
 5213      10
 5214 41f0 4983F903 		cmpq	$3, %r9
 5215 41f4 488D4F03 		leaq	3(%rdi), %rcx
 5216 41f8 44885F02 		movb	%r11b, 2(%rdi)
 5217 41fc 0F84EE00 		je	.L1203
 5217      0000
 5218 4202 440FB65B 		movzbl	16(%rbx), %r11d
 5218      10
 5219 4207 4983F904 		cmpq	$4, %r9
 5220 420b 488D4F04 		leaq	4(%rdi), %rcx
 5221 420f 44885F03 		movb	%r11b, 3(%rdi)
 5222 4213 0F84D700 		je	.L1203
 5222      0000
 5223 4219 440FB65B 		movzbl	16(%rbx), %r11d
 5223      10
 5224 421e 4983F905 		cmpq	$5, %r9
 5225 4222 488D4F05 		leaq	5(%rdi), %rcx
 5226 4226 44885F04 		movb	%r11b, 4(%rdi)
 5227 422a 0F84C000 		je	.L1203
 5227      0000
 5228 4230 440FB65B 		movzbl	16(%rbx), %r11d
 5228      10
 5229 4235 4983F906 		cmpq	$6, %r9
 5230 4239 488D4F06 		leaq	6(%rdi), %rcx
 5231 423d 44885F05 		movb	%r11b, 5(%rdi)
 5232 4241 0F84A900 		je	.L1203
 5232      0000
 5233 4247 440FB65B 		movzbl	16(%rbx), %r11d
 5233      10
 5234 424c 4983F907 		cmpq	$7, %r9
 5235 4250 488D4F07 		leaq	7(%rdi), %rcx
 5236 4254 44885F06 		movb	%r11b, 6(%rdi)
 5237 4258 0F849200 		je	.L1203
 5237      0000
 5238 425e 440FB65B 		movzbl	16(%rbx), %r11d
 5238      10
 5239 4263 4983F908 		cmpq	$8, %r9
 5240 4267 488D4F08 		leaq	8(%rdi), %rcx
 5241 426b 44885F07 		movb	%r11b, 7(%rdi)
 5242 426f 747F     		je	.L1203
 5243 4271 440FB65B 		movzbl	16(%rbx), %r11d
 5243      10
 5244 4276 4983F909 		cmpq	$9, %r9
 5245 427a 488D4F09 		leaq	9(%rdi), %rcx
 5246 427e 44885F08 		movb	%r11b, 8(%rdi)
 5247 4282 746C     		je	.L1203
 5248 4284 440FB65B 		movzbl	16(%rbx), %r11d
 5248      10
 5249 4289 4983F90A 		cmpq	$10, %r9
 5250 428d 488D4F0A 		leaq	10(%rdi), %rcx
 5251 4291 44885F09 		movb	%r11b, 9(%rdi)
 5252 4295 7459     		je	.L1203
 5253 4297 440FB65B 		movzbl	16(%rbx), %r11d
 5253      10
 5254 429c 4983F90B 		cmpq	$11, %r9
 5255 42a0 488D4F0B 		leaq	11(%rdi), %rcx
 5256 42a4 44885F0A 		movb	%r11b, 10(%rdi)
 5257 42a8 7446     		je	.L1203
 5258 42aa 440FB65B 		movzbl	16(%rbx), %r11d
 5258      10
 5259 42af 4983F90C 		cmpq	$12, %r9
 5260 42b3 488D4F0C 		leaq	12(%rdi), %rcx
 5261 42b7 44885F0B 		movb	%r11b, 11(%rdi)
 5262 42bb 7433     		je	.L1203
 5263 42bd 440FB65B 		movzbl	16(%rbx), %r11d
 5263      10
 5264 42c2 4983F90D 		cmpq	$13, %r9
 5265 42c6 488D4F0D 		leaq	13(%rdi), %rcx
 5266 42ca 44885F0C 		movb	%r11b, 12(%rdi)
 5267 42ce 7420     		je	.L1203
 5268 42d0 440FB65B 		movzbl	16(%rbx), %r11d
 5268      10
 5269 42d5 4983F90F 		cmpq	$15, %r9
 5270 42d9 488D4F0E 		leaq	14(%rdi), %rcx
 5271 42dd 44885F0D 		movb	%r11b, 13(%rdi)
 5272 42e1 750D     		jne	.L1203
 5273 42e3 440FB65B 		movzbl	16(%rbx), %r11d
 5273      10
 5274 42e8 488D4F0F 		leaq	15(%rdi), %rcx
 5275 42ec 44885F0E 		movb	%r11b, 14(%rdi)
 5276              	.L1203:
 5277 42f0 4889EF   		movq	%rbp, %rdi
 5278 42f3 4D29CE   		subq	%r9, %r14
 5279 42f6 4C29CF   		subq	%r9, %rdi
 5280 42f9 488D6FF0 		leaq	-16(%rdi), %rbp
 5281 42fd 48C1ED04 		shrq	$4, %rbp
 5282 4301 4883C501 		addq	$1, %rbp
 5283 4305 4989ED   		movq	%rbp, %r13
 5284 4308 49C1E504 		salq	$4, %r13
 5285 430c 4983FE0E 		cmpq	$14, %r14
 5286 4310 763D     		jbe	.L1205
 5287 4312 440FB65B 		movzbl	16(%rbx), %r11d
 5287      10
 5288 4317 4D01D1   		addq	%r10, %r9
 5289 431a 4901C1   		addq	%rax, %r9
 5290 431d 31C0     		xorl	%eax, %eax
 5291 431f 66410F6E 		movd	%r11d, %xmm0
 5291      C3
 5292 4324 660F60C0 		punpcklbw	%xmm0, %xmm0
 5293 4328 660F61C0 		punpcklwd	%xmm0, %xmm0
 5294 432c 660F70C0 		pshufd	$0, %xmm0, %xmm0
 5294      00
 5295              	.L1206:
 5296 4331 4883C001 		addq	$1, %rax
 5297 4335 4983C110 		addq	$16, %r9
 5298 4339 410F2941 		movaps	%xmm0, -16(%r9)
 5298      F0
 5299 433e 4839C5   		cmpq	%rax, %rbp
 5300 4341 77EE     		ja	.L1206
 5301 4343 4C01E9   		addq	%r13, %rcx
 5302 4346 4C39EF   		cmpq	%r13, %rdi
 5303 4349 0F84FE00 		je	.L1211
 5303      0000
 5304              	.L1205:
 5305 434f 0FB64310 		movzbl	16(%rbx), %eax
 5306 4353 8801     		movb	%al, (%rcx)
 5307 4355 488D4101 		leaq	1(%rcx), %rax
 5308 4359 4939C0   		cmpq	%rax, %r8
 5309 435c 0F86EB00 		jbe	.L1211
 5309      0000
 5310 4362 0FB64310 		movzbl	16(%rbx), %eax
 5311 4366 884101   		movb	%al, 1(%rcx)
 5312 4369 488D4102 		leaq	2(%rcx), %rax
 5313 436d 4939C0   		cmpq	%rax, %r8
 5314 4370 0F86D700 		jbe	.L1211
 5314      0000
 5315 4376 0FB64310 		movzbl	16(%rbx), %eax
 5316 437a 884102   		movb	%al, 2(%rcx)
 5317 437d 488D4103 		leaq	3(%rcx), %rax
 5318 4381 4939C0   		cmpq	%rax, %r8
 5319 4384 0F86C300 		jbe	.L1211
 5319      0000
 5320 438a 0FB64310 		movzbl	16(%rbx), %eax
 5321 438e 884103   		movb	%al, 3(%rcx)
 5322 4391 488D4104 		leaq	4(%rcx), %rax
 5323 4395 4939C0   		cmpq	%rax, %r8
 5324 4398 0F86AF00 		jbe	.L1211
 5324      0000
 5325 439e 0FB64310 		movzbl	16(%rbx), %eax
 5326 43a2 884104   		movb	%al, 4(%rcx)
 5327 43a5 488D4105 		leaq	5(%rcx), %rax
 5328 43a9 4939C0   		cmpq	%rax, %r8
 5329 43ac 0F869B00 		jbe	.L1211
 5329      0000
 5330 43b2 0FB64310 		movzbl	16(%rbx), %eax
 5331 43b6 884105   		movb	%al, 5(%rcx)
 5332 43b9 488D4106 		leaq	6(%rcx), %rax
 5333 43bd 4939C0   		cmpq	%rax, %r8
 5334 43c0 0F868700 		jbe	.L1211
 5334      0000
 5335 43c6 0FB64310 		movzbl	16(%rbx), %eax
 5336 43ca 884106   		movb	%al, 6(%rcx)
 5337 43cd 488D4107 		leaq	7(%rcx), %rax
 5338 43d1 4939C0   		cmpq	%rax, %r8
 5339 43d4 7677     		jbe	.L1211
 5340 43d6 0FB64310 		movzbl	16(%rbx), %eax
 5341 43da 884107   		movb	%al, 7(%rcx)
 5342 43dd 488D4108 		leaq	8(%rcx), %rax
 5343 43e1 4939C0   		cmpq	%rax, %r8
 5344 43e4 7667     		jbe	.L1211
 5345 43e6 0FB64310 		movzbl	16(%rbx), %eax
 5346 43ea 884108   		movb	%al, 8(%rcx)
 5347 43ed 488D4109 		leaq	9(%rcx), %rax
 5348 43f1 4939C0   		cmpq	%rax, %r8
 5349 43f4 7657     		jbe	.L1211
 5350 43f6 0FB64310 		movzbl	16(%rbx), %eax
 5351 43fa 884109   		movb	%al, 9(%rcx)
 5352 43fd 488D410A 		leaq	10(%rcx), %rax
 5353 4401 4939C0   		cmpq	%rax, %r8
 5354 4404 7647     		jbe	.L1211
 5355 4406 0FB64310 		movzbl	16(%rbx), %eax
 5356 440a 88410A   		movb	%al, 10(%rcx)
 5357 440d 488D410B 		leaq	11(%rcx), %rax
 5358 4411 4939C0   		cmpq	%rax, %r8
 5359 4414 7637     		jbe	.L1211
 5360 4416 0FB64310 		movzbl	16(%rbx), %eax
 5361 441a 88410B   		movb	%al, 11(%rcx)
 5362 441d 488D410C 		leaq	12(%rcx), %rax
 5363 4421 4939C0   		cmpq	%rax, %r8
 5364 4424 7627     		jbe	.L1211
 5365 4426 0FB64310 		movzbl	16(%rbx), %eax
 5366 442a 88410C   		movb	%al, 12(%rcx)
 5367 442d 488D410D 		leaq	13(%rcx), %rax
 5368 4431 4939C0   		cmpq	%rax, %r8
 5369 4434 7617     		jbe	.L1211
 5370 4436 0FB64310 		movzbl	16(%rbx), %eax
 5371 443a 88410D   		movb	%al, 13(%rcx)
 5372 443d 488D410E 		leaq	14(%rcx), %rax
 5373 4441 4939C0   		cmpq	%rax, %r8
 5374 4444 7607     		jbe	.L1211
 5375 4446 0FB64310 		movzbl	16(%rbx), %eax
 5376 444a 88410E   		movb	%al, 14(%rcx)
 5377              	.L1211:
 5378 444d 4989F0   		movq	%rsi, %r8
 5379 4450 4C0303   		addq	(%rbx), %r8
 5380              	.L1201:
 5381 4453 44896308 		movl	%r12d, 8(%rbx)
 5382              	.L1212:
 5383 4457 418810   		movb	%dl, (%r8)
 5384 445a 488B03   		movq	(%rbx), %rax
 5385 445d 0FB6CE   		movzbl	%dh, %ecx
 5386 4460 884C3001 		movb	%cl, 1(%rax,%rsi)
 5387 4464 488B03   		movq	(%rbx), %rax
 5388 4467 89D1     		movl	%edx, %ecx
 5389 4469 C1E910   		shrl	$16, %ecx
 5390 446c C1EA18   		shrl	$24, %edx
 5391 446f 884C3002 		movb	%cl, 2(%rax,%rsi)
 5392 4473 488B03   		movq	(%rbx), %rax
 5393 4476 88543003 		movb	%dl, 3(%rax,%rsi)
 5394 447a 31C0     		xorl	%eax, %eax
 5395              	.L1189:
 5396 447c 488B7424 		movq	24(%rsp), %rsi
 5396      18
 5397 4481 64483334 		xorq	%fs:40, %rsi
 5397      25280000 
 5397      00
 5398 448a 0F858207 		jne	.L1368
 5398      0000
 5399 4490 4883C420 		addq	$32, %rsp
 5400              		.cfi_remember_state
 5401              		.cfi_def_cfa_offset 48
 5402 4494 5B       		popq	%rbx
 5403              		.cfi_def_cfa_offset 40
 5404 4495 5D       		popq	%rbp
 5405              		.cfi_def_cfa_offset 32
 5406 4496 415C     		popq	%r12
 5407              		.cfi_def_cfa_offset 24
 5408 4498 415D     		popq	%r13
 5409              		.cfi_def_cfa_offset 16
 5410 449a 415E     		popq	%r14
 5411              		.cfi_def_cfa_offset 8
 5412 449c C3       		ret
 5413 449d 0F1F00   		.p2align 4,,10
 5414              		.p2align 3
 5415              	.L1187:
 5416              		.cfi_restore_state
 5417 44a0 01ED     		addl	%ebp, %ebp
 5418 44a2 4139EC   		cmpl	%ebp, %r12d
 5419 44a5 77F9     		ja	.L1187
 5420 44a7 488B3B   		movq	(%rbx), %rdi
 5421 44aa 4189EE   		movl	%ebp, %r14d
 5422 44ad 48894C24 		movq	%rcx, 8(%rsp)
 5422      08
 5423 44b2 4C89F6   		movq	%r14, %rsi
 5424 44b5 891424   		movl	%edx, (%rsp)
 5425 44b8 E8000000 		call	realloc@PLT
 5425      00
 5426 44bd 4885C0   		testq	%rax, %rax
 5427 44c0 488903   		movq	%rax, (%rbx)
 5428 44c3 8B1424   		movl	(%rsp), %edx
 5429 44c6 488B4C24 		movq	8(%rsp), %rcx
 5429      08
 5430 44cb 0F840707 		je	.L1217
 5430      0000
 5431 44d1 4589E1   		movl	%r12d, %r9d
 5432 44d4 4A8D3430 		leaq	(%rax,%r14), %rsi
 5433 44d8 896B0C   		movl	%ebp, 12(%rbx)
 5434 44db 4A8D3C08 		leaq	(%rax,%r9), %rdi
 5435 44df 4839F7   		cmpq	%rsi, %rdi
 5436 44e2 0F83DB02 		jnb	.L1362
 5436      0000
 5437 44e8 4C8D4701 		leaq	1(%rdi), %r8
 5438 44ec 4989F2   		movq	%rsi, %r10
 5439 44ef 4C8D7310 		leaq	16(%rbx), %r14
 5440 44f3 4D29C2   		subq	%r8, %r10
 5441 44f6 4C89C1   		movq	%r8, %rcx
 5442 44f9 4B8D6C11 		leaq	1(%r9,%r10), %rbp
 5442      01
 5443 44fe 4D8D5A01 		leaq	1(%r10), %r11
 5444 4502 4801C5   		addq	%rax, %rbp
 5445 4505 4C39F5   		cmpq	%r14, %rbp
 5446 4508 488D6B11 		leaq	17(%rbx), %rbp
 5447 450c 410F96C6 		setbe	%r14b
 5448 4510 4839EF   		cmpq	%rbp, %rdi
 5449 4513 400F93C5 		setnb	%bpl
 5450 4517 4108EE   		orb	%bpl, %r14b
 5451 451a 0F844406 		je	.L1199
 5451      0000
 5452 4520 4983FB16 		cmpq	$22, %r11
 5453 4524 0F863A06 		jbe	.L1199
 5453      0000
 5454 452a 4989F8   		movq	%rdi, %r8
 5455 452d 49F7D8   		negq	%r8
 5456 4530 4183E00F 		andl	$15, %r8d
 5457 4534 4D39C3   		cmpq	%r8, %r11
 5458 4537 4D0F46C3 		cmovbe	%r11, %r8
 5459 453b 4D85C0   		testq	%r8, %r8
 5460 453e 0F847C06 		je	.L1229
 5460      0000
 5461 4544 0FB66B10 		movzbl	16(%rbx), %ebp
 5462 4548 4983F801 		cmpq	$1, %r8
 5463 454c 40882F   		movb	%bpl, (%rdi)
 5464 454f 0F840E01 		je	.L1192
 5464      0000
 5465 4555 0FB66B10 		movzbl	16(%rbx), %ebp
 5466 4559 4983F802 		cmpq	$2, %r8
 5467 455d 488D4F02 		leaq	2(%rdi), %rcx
 5468 4561 40886F01 		movb	%bpl, 1(%rdi)
 5469 4565 0F84F800 		je	.L1192
 5469      0000
 5470 456b 0FB66B10 		movzbl	16(%rbx), %ebp
 5471 456f 4983F803 		cmpq	$3, %r8
 5472 4573 488D4F03 		leaq	3(%rdi), %rcx
 5473 4577 40886F02 		movb	%bpl, 2(%rdi)
 5474 457b 0F84E200 		je	.L1192
 5474      0000
 5475 4581 0FB66B10 		movzbl	16(%rbx), %ebp
 5476 4585 4983F804 		cmpq	$4, %r8
 5477 4589 488D4F04 		leaq	4(%rdi), %rcx
 5478 458d 40886F03 		movb	%bpl, 3(%rdi)
 5479 4591 0F84CC00 		je	.L1192
 5479      0000
 5480 4597 0FB66B10 		movzbl	16(%rbx), %ebp
 5481 459b 4983F805 		cmpq	$5, %r8
 5482 459f 488D4F05 		leaq	5(%rdi), %rcx
 5483 45a3 40886F04 		movb	%bpl, 4(%rdi)
 5484 45a7 0F84B600 		je	.L1192
 5484      0000
 5485 45ad 0FB66B10 		movzbl	16(%rbx), %ebp
 5486 45b1 4983F806 		cmpq	$6, %r8
 5487 45b5 488D4F06 		leaq	6(%rdi), %rcx
 5488 45b9 40886F05 		movb	%bpl, 5(%rdi)
 5489 45bd 0F84A000 		je	.L1192
 5489      0000
 5490 45c3 0FB66B10 		movzbl	16(%rbx), %ebp
 5491 45c7 4983F807 		cmpq	$7, %r8
 5492 45cb 488D4F07 		leaq	7(%rdi), %rcx
 5493 45cf 40886F06 		movb	%bpl, 6(%rdi)
 5494 45d3 0F848A00 		je	.L1192
 5494      0000
 5495 45d9 0FB66B10 		movzbl	16(%rbx), %ebp
 5496 45dd 4983F808 		cmpq	$8, %r8
 5497 45e1 488D4F08 		leaq	8(%rdi), %rcx
 5498 45e5 40886F07 		movb	%bpl, 7(%rdi)
 5499 45e9 7478     		je	.L1192
 5500 45eb 0FB66B10 		movzbl	16(%rbx), %ebp
 5501 45ef 4983F809 		cmpq	$9, %r8
 5502 45f3 488D4F09 		leaq	9(%rdi), %rcx
 5503 45f7 40886F08 		movb	%bpl, 8(%rdi)
 5504 45fb 7466     		je	.L1192
 5505 45fd 0FB66B10 		movzbl	16(%rbx), %ebp
 5506 4601 4983F80A 		cmpq	$10, %r8
 5507 4605 488D4F0A 		leaq	10(%rdi), %rcx
 5508 4609 40886F09 		movb	%bpl, 9(%rdi)
 5509 460d 7454     		je	.L1192
 5510 460f 0FB66B10 		movzbl	16(%rbx), %ebp
 5511 4613 4983F80B 		cmpq	$11, %r8
 5512 4617 488D4F0B 		leaq	11(%rdi), %rcx
 5513 461b 40886F0A 		movb	%bpl, 10(%rdi)
 5514 461f 7442     		je	.L1192
 5515 4621 0FB66B10 		movzbl	16(%rbx), %ebp
 5516 4625 4983F80C 		cmpq	$12, %r8
 5517 4629 488D4F0C 		leaq	12(%rdi), %rcx
 5518 462d 40886F0B 		movb	%bpl, 11(%rdi)
 5519 4631 7430     		je	.L1192
 5520 4633 0FB66B10 		movzbl	16(%rbx), %ebp
 5521 4637 4983F80D 		cmpq	$13, %r8
 5522 463b 488D4F0D 		leaq	13(%rdi), %rcx
 5523 463f 40886F0C 		movb	%bpl, 12(%rdi)
 5524 4643 741E     		je	.L1192
 5525 4645 0FB66B10 		movzbl	16(%rbx), %ebp
 5526 4649 4983F80F 		cmpq	$15, %r8
 5527 464d 488D4F0E 		leaq	14(%rdi), %rcx
 5528 4651 40886F0D 		movb	%bpl, 13(%rdi)
 5529 4655 750C     		jne	.L1192
 5530 4657 0FB66B10 		movzbl	16(%rbx), %ebp
 5531 465b 488D4F0F 		leaq	15(%rdi), %rcx
 5532 465f 40886F0E 		movb	%bpl, 14(%rdi)
 5533              	.L1192:
 5534 4663 4C89DF   		movq	%r11, %rdi
 5535 4666 4D29C2   		subq	%r8, %r10
 5536 4669 4C29C7   		subq	%r8, %rdi
 5537 466c 4C8D5FF0 		leaq	-16(%rdi), %r11
 5538 4670 49C1EB04 		shrq	$4, %r11
 5539 4674 4983C301 		addq	$1, %r11
 5540 4678 4C89DD   		movq	%r11, %rbp
 5541 467b 48C1E504 		salq	$4, %rbp
 5542 467f 4983FA0E 		cmpq	$14, %r10
 5543 4683 763D     		jbe	.L1194
 5544 4685 440FB653 		movzbl	16(%rbx), %r10d
 5544      10
 5545 468a 4D01C8   		addq	%r9, %r8
 5546 468d 4C01C0   		addq	%r8, %rax
 5547 4690 4531C0   		xorl	%r8d, %r8d
 5548 4693 66410F6E 		movd	%r10d, %xmm0
 5548      C2
 5549 4698 660F60C0 		punpcklbw	%xmm0, %xmm0
 5550 469c 660F61C0 		punpcklwd	%xmm0, %xmm0
 5551 46a0 660F70C0 		pshufd	$0, %xmm0, %xmm0
 5551      00
 5552              	.L1195:
 5553 46a5 4983C001 		addq	$1, %r8
 5554 46a9 4883C010 		addq	$16, %rax
 5555 46ad 0F2940F0 		movaps	%xmm0, -16(%rax)
 5556 46b1 4D39D8   		cmpq	%r11, %r8
 5557 46b4 72EF     		jb	.L1195
 5558 46b6 4801E9   		addq	%rbp, %rcx
 5559 46b9 4839EF   		cmpq	%rbp, %rdi
 5560 46bc 0F84FE00 		je	.L1200
 5560      0000
 5561              	.L1194:
 5562 46c2 0FB64310 		movzbl	16(%rbx), %eax
 5563 46c6 8801     		movb	%al, (%rcx)
 5564 46c8 488D4101 		leaq	1(%rcx), %rax
 5565 46cc 4839C6   		cmpq	%rax, %rsi
 5566 46cf 0F86EB00 		jbe	.L1200
 5566      0000
 5567 46d5 0FB64310 		movzbl	16(%rbx), %eax
 5568 46d9 884101   		movb	%al, 1(%rcx)
 5569 46dc 488D4102 		leaq	2(%rcx), %rax
 5570 46e0 4839C6   		cmpq	%rax, %rsi
 5571 46e3 0F86D700 		jbe	.L1200
 5571      0000
 5572 46e9 0FB64310 		movzbl	16(%rbx), %eax
 5573 46ed 884102   		movb	%al, 2(%rcx)
 5574 46f0 488D4103 		leaq	3(%rcx), %rax
 5575 46f4 4839C6   		cmpq	%rax, %rsi
 5576 46f7 0F86C300 		jbe	.L1200
 5576      0000
 5577 46fd 0FB64310 		movzbl	16(%rbx), %eax
 5578 4701 884103   		movb	%al, 3(%rcx)
 5579 4704 488D4104 		leaq	4(%rcx), %rax
 5580 4708 4839C6   		cmpq	%rax, %rsi
 5581 470b 0F86AF00 		jbe	.L1200
 5581      0000
 5582 4711 0FB64310 		movzbl	16(%rbx), %eax
 5583 4715 884104   		movb	%al, 4(%rcx)
 5584 4718 488D4105 		leaq	5(%rcx), %rax
 5585 471c 4839C6   		cmpq	%rax, %rsi
 5586 471f 0F869B00 		jbe	.L1200
 5586      0000
 5587 4725 0FB64310 		movzbl	16(%rbx), %eax
 5588 4729 884105   		movb	%al, 5(%rcx)
 5589 472c 488D4106 		leaq	6(%rcx), %rax
 5590 4730 4839C6   		cmpq	%rax, %rsi
 5591 4733 0F868700 		jbe	.L1200
 5591      0000
 5592 4739 0FB64310 		movzbl	16(%rbx), %eax
 5593 473d 884106   		movb	%al, 6(%rcx)
 5594 4740 488D4107 		leaq	7(%rcx), %rax
 5595 4744 4839C6   		cmpq	%rax, %rsi
 5596 4747 7677     		jbe	.L1200
 5597 4749 0FB64310 		movzbl	16(%rbx), %eax
 5598 474d 884107   		movb	%al, 7(%rcx)
 5599 4750 488D4108 		leaq	8(%rcx), %rax
 5600 4754 4839C6   		cmpq	%rax, %rsi
 5601 4757 7667     		jbe	.L1200
 5602 4759 0FB64310 		movzbl	16(%rbx), %eax
 5603 475d 884108   		movb	%al, 8(%rcx)
 5604 4760 488D4109 		leaq	9(%rcx), %rax
 5605 4764 4839C6   		cmpq	%rax, %rsi
 5606 4767 7657     		jbe	.L1200
 5607 4769 0FB64310 		movzbl	16(%rbx), %eax
 5608 476d 884109   		movb	%al, 9(%rcx)
 5609 4770 488D410A 		leaq	10(%rcx), %rax
 5610 4774 4839C6   		cmpq	%rax, %rsi
 5611 4777 7647     		jbe	.L1200
 5612 4779 0FB64310 		movzbl	16(%rbx), %eax
 5613 477d 88410A   		movb	%al, 10(%rcx)
 5614 4780 488D410B 		leaq	11(%rcx), %rax
 5615 4784 4839C6   		cmpq	%rax, %rsi
 5616 4787 7637     		jbe	.L1200
 5617 4789 0FB64310 		movzbl	16(%rbx), %eax
 5618 478d 88410B   		movb	%al, 11(%rcx)
 5619 4790 488D410C 		leaq	12(%rcx), %rax
 5620 4794 4839C6   		cmpq	%rax, %rsi
 5621 4797 7627     		jbe	.L1200
 5622 4799 0FB64310 		movzbl	16(%rbx), %eax
 5623 479d 88410C   		movb	%al, 12(%rcx)
 5624 47a0 488D410D 		leaq	13(%rcx), %rax
 5625 47a4 4839C6   		cmpq	%rax, %rsi
 5626 47a7 7617     		jbe	.L1200
 5627 47a9 0FB64310 		movzbl	16(%rbx), %eax
 5628 47ad 88410D   		movb	%al, 13(%rcx)
 5629 47b0 488D410E 		leaq	14(%rcx), %rax
 5630 47b4 4839C6   		cmpq	%rax, %rsi
 5631 47b7 7607     		jbe	.L1200
 5632 47b9 0FB64310 		movzbl	16(%rbx), %eax
 5633 47bd 88410E   		movb	%al, 14(%rcx)
 5634              	.L1200:
 5635 47c0 488B03   		movq	(%rbx), %rax
 5636              	.L1362:
 5637 47c3 448B4B08 		movl	8(%rbx), %r9d
 5638 47c7 E983F9FF 		jmp	.L1186
 5638      FF
 5639 47cc 0F1F4000 		.p2align 4,,10
 5640              		.p2align 3
 5641              	.L1369:
 5642 47d0 4983C301 		addq	$1, %r11
 5643              	.L1210:
 5644 47d4 0FB64310 		movzbl	16(%rbx), %eax
 5645 47d8 4D39C3   		cmpq	%r8, %r11
 5646 47db 418843FF 		movb	%al, -1(%r11)
 5647 47df 75EF     		jne	.L1369
 5648 47e1 E967FCFF 		jmp	.L1211
 5648      FF
 5649 47e6 662E0F1F 		.p2align 4,,10
 5649      84000000 
 5649      0000
 5650              		.p2align 3
 5651              	.L1216:
 5652 47f0 01ED     		addl	%ebp, %ebp
 5653 47f2 4139EC   		cmpl	%ebp, %r12d
 5654 47f5 77F9     		ja	.L1216
 5655 47f7 488B3B   		movq	(%rbx), %rdi
 5656 47fa 4189EE   		movl	%ebp, %r14d
 5657 47fd 48890C24 		movq	%rcx, (%rsp)
 5658 4801 4C89F6   		movq	%r14, %rsi
 5659 4804 89542408 		movl	%edx, 8(%rsp)
 5660 4808 E8000000 		call	realloc@PLT
 5660      00
 5661 480d 4885C0   		testq	%rax, %rax
 5662 4810 488903   		movq	%rax, (%rbx)
 5663 4813 488B0C24 		movq	(%rsp), %rcx
 5664 4817 0F84BB03 		je	.L1217
 5664      0000
 5665 481d 4589E2   		movl	%r12d, %r10d
 5666 4820 4A8D3430 		leaq	(%rax,%r14), %rsi
 5667 4824 896B0C   		movl	%ebp, 12(%rbx)
 5668 4827 4A8D0C10 		leaq	(%rax,%r10), %rcx
 5669 482b 8B542408 		movl	8(%rsp), %edx
 5670 482f 4839F1   		cmpq	%rsi, %rcx
 5671 4832 0F837E03 		jnb	.L1232
 5671      0000
 5672 4838 4C8D4101 		leaq	1(%rcx), %r8
 5673 483c 4989F6   		movq	%rsi, %r14
 5674 483f 4C8D5B10 		leaq	16(%rbx), %r11
 5675 4843 4D29C6   		subq	%r8, %r14
 5676 4846 4B8D7C32 		leaq	1(%r10,%r14), %rdi
 5676      01
 5677 484b 4D8D4E01 		leaq	1(%r14), %r9
 5678 484f 4801C7   		addq	%rax, %rdi
 5679 4852 4C39DF   		cmpq	%r11, %rdi
 5680 4855 488D7B11 		leaq	17(%rbx), %rdi
 5681 4859 410F96C3 		setbe	%r11b
 5682 485d 4839F9   		cmpq	%rdi, %rcx
 5683 4860 400F93C7 		setnb	%dil
 5684 4864 4108FB   		orb	%dil, %r11b
 5685 4867 0F843703 		je	.L1226
 5685      0000
 5686 486d 4983F916 		cmpq	$22, %r9
 5687 4871 0F862D03 		jbe	.L1226
 5687      0000
 5688 4877 4889CF   		movq	%rcx, %rdi
 5689 487a 48F7DF   		negq	%rdi
 5690 487d 83E70F   		andl	$15, %edi
 5691 4880 4939F9   		cmpq	%rdi, %r9
 5692 4883 490F46F9 		cmovbe	%r9, %rdi
 5693 4887 4885FF   		testq	%rdi, %rdi
 5694 488a 0F844A01 		je	.L1219
 5694      0000
 5695 4890 440FB65B 		movzbl	16(%rbx), %r11d
 5695      10
 5696 4895 4883FF01 		cmpq	$1, %rdi
 5697 4899 448819   		movb	%r11b, (%rcx)
 5698 489c 0F846803 		je	.L1233
 5698      0000
 5699 48a2 440FB643 		movzbl	16(%rbx), %r8d
 5699      10
 5700 48a7 4883FF02 		cmpq	$2, %rdi
 5701 48ab 4C8D5902 		leaq	2(%rcx), %r11
 5702 48af 44884101 		movb	%r8b, 1(%rcx)
 5703 48b3 0F841703 		je	.L1246
 5703      0000
 5704 48b9 440FB643 		movzbl	16(%rbx), %r8d
 5704      10
 5705 48be 4883FF03 		cmpq	$3, %rdi
 5706 48c2 4C8D5903 		leaq	3(%rcx), %r11
 5707 48c6 44884102 		movb	%r8b, 2(%rcx)
 5708 48ca 0F840003 		je	.L1246
 5708      0000
 5709 48d0 440FB643 		movzbl	16(%rbx), %r8d
 5709      10
 5710 48d5 4883FF04 		cmpq	$4, %rdi
 5711 48d9 4C8D5904 		leaq	4(%rcx), %r11
 5712 48dd 44884103 		movb	%r8b, 3(%rcx)
 5713 48e1 0F84E902 		je	.L1246
 5713      0000
 5714 48e7 440FB643 		movzbl	16(%rbx), %r8d
 5714      10
 5715 48ec 4883FF05 		cmpq	$5, %rdi
 5716 48f0 4C8D5905 		leaq	5(%rcx), %r11
 5717 48f4 44884104 		movb	%r8b, 4(%rcx)
 5718 48f8 0F84D202 		je	.L1246
 5718      0000
 5719 48fe 440FB643 		movzbl	16(%rbx), %r8d
 5719      10
 5720 4903 4883FF06 		cmpq	$6, %rdi
 5721 4907 4C8D5906 		leaq	6(%rcx), %r11
 5722 490b 44884105 		movb	%r8b, 5(%rcx)
 5723 490f 0F84BB02 		je	.L1246
 5723      0000
 5724 4915 440FB643 		movzbl	16(%rbx), %r8d
 5724      10
 5725 491a 4883FF07 		cmpq	$7, %rdi
 5726 491e 4C8D5907 		leaq	7(%rcx), %r11
 5727 4922 44884106 		movb	%r8b, 6(%rcx)
 5728 4926 0F84A402 		je	.L1246
 5728      0000
 5729 492c 440FB643 		movzbl	16(%rbx), %r8d
 5729      10
 5730 4931 4883FF08 		cmpq	$8, %rdi
 5731 4935 4C8D5908 		leaq	8(%rcx), %r11
 5732 4939 44884107 		movb	%r8b, 7(%rcx)
 5733 493d 0F848D02 		je	.L1246
 5733      0000
 5734 4943 440FB643 		movzbl	16(%rbx), %r8d
 5734      10
 5735 4948 4883FF09 		cmpq	$9, %rdi
 5736 494c 4C8D5909 		leaq	9(%rcx), %r11
 5737 4950 44884108 		movb	%r8b, 8(%rcx)
 5738 4954 0F847602 		je	.L1246
 5738      0000
 5739 495a 440FB643 		movzbl	16(%rbx), %r8d
 5739      10
 5740 495f 4883FF0A 		cmpq	$10, %rdi
 5741 4963 4C8D590A 		leaq	10(%rcx), %r11
 5742 4967 44884109 		movb	%r8b, 9(%rcx)
 5743 496b 0F845F02 		je	.L1246
 5743      0000
 5744 4971 440FB643 		movzbl	16(%rbx), %r8d
 5744      10
 5745 4976 4883FF0B 		cmpq	$11, %rdi
 5746 497a 4C8D590B 		leaq	11(%rcx), %r11
 5747 497e 4488410A 		movb	%r8b, 10(%rcx)
 5748 4982 0F844802 		je	.L1246
 5748      0000
 5749 4988 440FB643 		movzbl	16(%rbx), %r8d
 5749      10
 5750 498d 4883FF0C 		cmpq	$12, %rdi
 5751 4991 4C8D590C 		leaq	12(%rcx), %r11
 5752 4995 4488410B 		movb	%r8b, 11(%rcx)
 5753 4999 0F843102 		je	.L1246
 5753      0000
 5754 499f 440FB643 		movzbl	16(%rbx), %r8d
 5754      10
 5755 49a4 4883FF0D 		cmpq	$13, %rdi
 5756 49a8 4C8D590D 		leaq	13(%rcx), %r11
 5757 49ac 4488410C 		movb	%r8b, 12(%rcx)
 5758 49b0 0F841A02 		je	.L1246
 5758      0000
 5759 49b6 440FB643 		movzbl	16(%rbx), %r8d
 5759      10
 5760 49bb 4883FF0F 		cmpq	$15, %rdi
 5761 49bf 4C8D590E 		leaq	14(%rcx), %r11
 5762 49c3 4488410D 		movb	%r8b, 13(%rcx)
 5763 49c7 0F850302 		jne	.L1246
 5763      0000
 5764 49cd 440FB643 		movzbl	16(%rbx), %r8d
 5764      10
 5765 49d2 4883C10F 		addq	$15, %rcx
 5766 49d6 448841FF 		movb	%r8b, -1(%rcx)
 5767              	.L1219:
 5768 49da 4929F9   		subq	%rdi, %r9
 5769 49dd 4929FE   		subq	%rdi, %r14
 5770 49e0 4D8D59F0 		leaq	-16(%r9), %r11
 5771 49e4 49C1EB04 		shrq	$4, %r11
 5772 49e8 4983C301 		addq	$1, %r11
 5773 49ec 4C89DD   		movq	%r11, %rbp
 5774 49ef 48C1E504 		salq	$4, %rbp
 5775 49f3 4983FE0E 		cmpq	$14, %r14
 5776 49f7 763C     		jbe	.L1221
 5777 49f9 440FB643 		movzbl	16(%rbx), %r8d
 5777      10
 5778 49fe 4C01D7   		addq	%r10, %rdi
 5779 4a01 4801F8   		addq	%rdi, %rax
 5780 4a04 31FF     		xorl	%edi, %edi
 5781 4a06 66410F6E 		movd	%r8d, %xmm0
 5781      C0
 5782 4a0b 660F60C0 		punpcklbw	%xmm0, %xmm0
 5783 4a0f 660F61C0 		punpcklwd	%xmm0, %xmm0
 5784 4a13 660F70C0 		pshufd	$0, %xmm0, %xmm0
 5784      00
 5785              	.L1222:
 5786 4a18 4883C701 		addq	$1, %rdi
 5787 4a1c 4883C010 		addq	$16, %rax
 5788 4a20 0F2940F0 		movaps	%xmm0, -16(%rax)
 5789 4a24 4C39DF   		cmpq	%r11, %rdi
 5790 4a27 72EF     		jb	.L1222
 5791 4a29 4801E9   		addq	%rbp, %rcx
 5792 4a2c 4939E9   		cmpq	%rbp, %r9
 5793 4a2f 0F84EFF6 		je	.L1227
 5793      FFFF
 5794              	.L1221:
 5795 4a35 0FB64310 		movzbl	16(%rbx), %eax
 5796 4a39 8801     		movb	%al, (%rcx)
 5797 4a3b 488D4101 		leaq	1(%rcx), %rax
 5798 4a3f 4839C6   		cmpq	%rax, %rsi
 5799 4a42 0F86DCF6 		jbe	.L1227
 5799      FFFF
 5800 4a48 0FB64310 		movzbl	16(%rbx), %eax
 5801 4a4c 884101   		movb	%al, 1(%rcx)
 5802 4a4f 488D4102 		leaq	2(%rcx), %rax
 5803 4a53 4839C6   		cmpq	%rax, %rsi
 5804 4a56 0F86C8F6 		jbe	.L1227
 5804      FFFF
 5805 4a5c 0FB64310 		movzbl	16(%rbx), %eax
 5806 4a60 884102   		movb	%al, 2(%rcx)
 5807 4a63 488D4103 		leaq	3(%rcx), %rax
 5808 4a67 4839C6   		cmpq	%rax, %rsi
 5809 4a6a 0F86B4F6 		jbe	.L1227
 5809      FFFF
 5810 4a70 0FB64310 		movzbl	16(%rbx), %eax
 5811 4a74 884103   		movb	%al, 3(%rcx)
 5812 4a77 488D4104 		leaq	4(%rcx), %rax
 5813 4a7b 4839C6   		cmpq	%rax, %rsi
 5814 4a7e 0F86A0F6 		jbe	.L1227
 5814      FFFF
 5815 4a84 0FB64310 		movzbl	16(%rbx), %eax
 5816 4a88 884104   		movb	%al, 4(%rcx)
 5817 4a8b 488D4105 		leaq	5(%rcx), %rax
 5818 4a8f 4839C6   		cmpq	%rax, %rsi
 5819 4a92 0F868CF6 		jbe	.L1227
 5819      FFFF
 5820 4a98 0FB64310 		movzbl	16(%rbx), %eax
 5821 4a9c 884105   		movb	%al, 5(%rcx)
 5822 4a9f 488D4106 		leaq	6(%rcx), %rax
 5823 4aa3 4839C6   		cmpq	%rax, %rsi
 5824 4aa6 0F8678F6 		jbe	.L1227
 5824      FFFF
 5825 4aac 0FB64310 		movzbl	16(%rbx), %eax
 5826 4ab0 884106   		movb	%al, 6(%rcx)
 5827 4ab3 488D4107 		leaq	7(%rcx), %rax
 5828 4ab7 4839C6   		cmpq	%rax, %rsi
 5829 4aba 0F8664F6 		jbe	.L1227
 5829      FFFF
 5830 4ac0 0FB64310 		movzbl	16(%rbx), %eax
 5831 4ac4 884107   		movb	%al, 7(%rcx)
 5832 4ac7 488D4108 		leaq	8(%rcx), %rax
 5833 4acb 4839C6   		cmpq	%rax, %rsi
 5834 4ace 0F8650F6 		jbe	.L1227
 5834      FFFF
 5835 4ad4 0FB64310 		movzbl	16(%rbx), %eax
 5836 4ad8 884108   		movb	%al, 8(%rcx)
 5837 4adb 488D4109 		leaq	9(%rcx), %rax
 5838 4adf 4839C6   		cmpq	%rax, %rsi
 5839 4ae2 0F863CF6 		jbe	.L1227
 5839      FFFF
 5840 4ae8 0FB64310 		movzbl	16(%rbx), %eax
 5841 4aec 884109   		movb	%al, 9(%rcx)
 5842 4aef 488D410A 		leaq	10(%rcx), %rax
 5843 4af3 4839C6   		cmpq	%rax, %rsi
 5844 4af6 0F8628F6 		jbe	.L1227
 5844      FFFF
 5845 4afc 0FB64310 		movzbl	16(%rbx), %eax
 5846 4b00 88410A   		movb	%al, 10(%rcx)
 5847 4b03 488D410B 		leaq	11(%rcx), %rax
 5848 4b07 4839C6   		cmpq	%rax, %rsi
 5849 4b0a 0F8614F6 		jbe	.L1227
 5849      FFFF
 5850 4b10 0FB64310 		movzbl	16(%rbx), %eax
 5851 4b14 88410B   		movb	%al, 11(%rcx)
 5852 4b17 488D410C 		leaq	12(%rcx), %rax
 5853 4b1b 4839C6   		cmpq	%rax, %rsi
 5854 4b1e 0F8600F6 		jbe	.L1227
 5854      FFFF
 5855 4b24 0FB64310 		movzbl	16(%rbx), %eax
 5856 4b28 88410C   		movb	%al, 12(%rcx)
 5857 4b2b 488D410D 		leaq	13(%rcx), %rax
 5858 4b2f 4839C6   		cmpq	%rax, %rsi
 5859 4b32 0F86ECF5 		jbe	.L1227
 5859      FFFF
 5860 4b38 0FB64310 		movzbl	16(%rbx), %eax
 5861 4b3c 88410D   		movb	%al, 13(%rcx)
 5862 4b3f 488D410E 		leaq	14(%rcx), %rax
 5863 4b43 4839C6   		cmpq	%rax, %rsi
 5864 4b46 0F86D8F5 		jbe	.L1227
 5864      FFFF
 5865 4b4c 0FB64310 		movzbl	16(%rbx), %eax
 5866 4b50 88410E   		movb	%al, 14(%rcx)
 5867 4b53 E9CCF5FF 		jmp	.L1227
 5867      FF
 5868 4b58 0F1F8400 		.p2align 4,,10
 5868      00000000 
 5869              		.p2align 3
 5870              	.L1370:
 5871 4b60 4983C001 		addq	$1, %r8
 5872              	.L1199:
 5873 4b64 0FB64310 		movzbl	16(%rbx), %eax
 5874 4b68 4939F0   		cmpq	%rsi, %r8
 5875 4b6b 418840FF 		movb	%al, -1(%r8)
 5876 4b6f 75EF     		jne	.L1370
 5877 4b71 E94AFCFF 		jmp	.L1200
 5877      FF
 5878 4b76 662E0F1F 		.p2align 4,,10
 5878      84000000 
 5878      0000
 5879              		.p2align 3
 5880              	.L1213:
 5881 4b80 89F6     		movl	%esi, %esi
 5882 4b82 4989F0   		movq	%rsi, %r8
 5883 4b85 4C0307   		addq	(%rdi), %r8
 5884 4b88 E9CAF8FF 		jmp	.L1212
 5884      FF
 5885 4b8d 0F1F00   		.p2align 4,,10
 5886              		.p2align 3
 5887              	.L1231:
 5888 4b90 4889F9   		movq	%rdi, %rcx
 5889 4b93 E958F7FF 		jmp	.L1203
 5889      FF
 5890 4b98 0F1F8400 		.p2align 4,,10
 5890      00000000 
 5891              		.p2align 3
 5892              	.L1371:
 5893 4ba0 4983C001 		addq	$1, %r8
 5894              	.L1226:
 5895 4ba4 0FB64310 		movzbl	16(%rbx), %eax
 5896 4ba8 4939F0   		cmpq	%rsi, %r8
 5897 4bab 418840FF 		movb	%al, -1(%r8)
 5898 4baf 75EF     		jne	.L1371
 5899 4bb1 E96EF5FF 		jmp	.L1227
 5899      FF
 5900              	.L1232:
 5901 4bb6 4989C0   		movq	%rax, %r8
 5902 4bb9 E969F5FF 		jmp	.L1215
 5902      FF
 5903 4bbe 6690     		.p2align 4,,10
 5904              		.p2align 3
 5905              	.L1229:
 5906 4bc0 4889F9   		movq	%rdi, %rcx
 5907 4bc3 E99BFAFF 		jmp	.L1192
 5907      FF
 5908 4bc8 0F1F8400 		.p2align 4,,10
 5908      00000000 
 5909              		.p2align 3
 5910              	.L1246:
 5911 4bd0 4C89D9   		movq	%r11, %rcx
 5912 4bd3 E902FEFF 		jmp	.L1219
 5912      FF
 5913              	.L1217:
 5914 4bd8 488D3500 		leaq	.LC6(%rip), %rsi
 5914      000000
 5915 4bdf 4889CF   		movq	%rcx, %rdi
 5916 4be2 31C0     		xorl	%eax, %eax
 5917 4be4 48890C24 		movq	%rcx, (%rsp)
 5918 4be8 E8000000 		call	errRender@PLT
 5918      00
 5919 4bed 488B0C24 		movq	(%rsp), %rcx
 5920 4bf1 488D3500 		leaq	.LC20(%rip), %rsi
 5920      000000
 5921 4bf8 4889CF   		movq	%rcx, %rdi
 5922 4bfb E8000000 		call	errPrefix@PLT
 5922      00
 5923 4c00 B8010000 		movl	$1, %eax
 5923      00
 5924 4c05 E972F8FF 		jmp	.L1189
 5924      FF
 5925              	.L1233:
 5926 4c0a 4C89C1   		movq	%r8, %rcx
 5927 4c0d E9C8FDFF 		jmp	.L1219
 5927      FF
 5928              	.L1368:
 5929 4c12 E8000000 		call	__stack_chk_fail@PLT
 5929      00
 5930              		.cfi_endproc
 5931              	.LFE64:
 5933              		.section	.text.unlikely
 5934              	.LCOLDE21:
 5935              		.text
 5936              	.LHOTE21:
 5937              		.section	.rodata.str1.1
 5938              	.LC22:
 5939 0042 62756657 		.string	"bufWriteLongBE()"
 5939      72697465 
 5939      4C6F6E67 
 5939      42452829 
 5939      00
 5940              		.section	.text.unlikely
 5941              	.LCOLDB23:
 5942              		.text
 5943              	.LHOTB23:
 5944 4c17 660F1F84 		.p2align 4,,15
 5944      00000000 
 5944      00
 5945              		.globl	bufWriteLongBE
 5947              	bufWriteLongBE:
 5948              	.LFB65:
 5949              		.cfi_startproc
 5950 4c20 4156     		pushq	%r14
 5951              		.cfi_def_cfa_offset 16
 5952              		.cfi_offset 14, -16
 5953 4c22 4155     		pushq	%r13
 5954              		.cfi_def_cfa_offset 24
 5955              		.cfi_offset 13, -24
 5956 4c24 4189F5   		movl	%esi, %r13d
 5957 4c27 4154     		pushq	%r12
 5958              		.cfi_def_cfa_offset 32
 5959              		.cfi_offset 12, -32
 5960 4c29 55       		pushq	%rbp
 5961              		.cfi_def_cfa_offset 40
 5962              		.cfi_offset 6, -40
 5963 4c2a 448D6604 		leal	4(%rsi), %r12d
 5964 4c2e 53       		pushq	%rbx
 5965              		.cfi_def_cfa_offset 48
 5966              		.cfi_offset 3, -48
 5967 4c2f 4889FB   		movq	%rdi, %rbx
 5968 4c32 4883EC20 		subq	$32, %rsp
 5969              		.cfi_def_cfa_offset 80
 5970 4c36 448B4F08 		movl	8(%rdi), %r9d
 5971 4c3a 64488B04 		movq	%fs:40, %rax
 5971      25280000 
 5971      00
 5972 4c43 48894424 		movq	%rax, 24(%rsp)
 5972      18
 5973 4c48 31C0     		xorl	%eax, %eax
 5974 4c4a 4439CE   		cmpl	%r9d, %esi
 5975 4c4d 7331     		jnb	.L1556
 5976 4c4f 4539CC   		cmpl	%r9d, %r12d
 5977 4c52 0F86680A 		jbe	.L1402
 5977      0000
 5978 4c58 8B6F0C   		movl	12(%rdi), %ebp
 5979 4c5b 4139EC   		cmpl	%ebp, %r12d
 5980 4c5e 0F87CC06 		ja	.L1405
 5980      0000
 5981              	.L1416:
 5982 4c64 4C8B03   		movq	(%rbx), %r8
 5983              	.L1404:
 5984 4c67 4489EE   		movl	%r13d, %esi
 5985 4c6a 44896308 		movl	%r12d, 8(%rbx)
 5986 4c6e 4901F0   		addq	%rsi, %r8
 5987 4c71 E9210300 		jmp	.L1401
 5987      00
 5988 4c76 662E0F1F 		.p2align 4,,10
 5988      84000000 
 5988      0000
 5989              		.p2align 3
 5990              	.L1556:
 5991 4c80 8B6F0C   		movl	12(%rdi), %ebp
 5992 4c83 4139EC   		cmpl	%ebp, %r12d
 5993 4c86 0F875403 		ja	.L1376
 5993      0000
 5994 4c8c 488B07   		movq	(%rdi), %rax
 5995              	.L1375:
 5996 4c8f 4589CA   		movl	%r9d, %r10d
 5997 4c92 4489EE   		movl	%r13d, %esi
 5998 4c95 4A8D3C10 		leaq	(%rax,%r10), %rdi
 5999 4c99 4C8D0430 		leaq	(%rax,%rsi), %r8
 6000 4c9d 4C39C7   		cmpq	%r8, %rdi
 6001 4ca0 0F83ED02 		jnb	.L1390
 6001      0000
 6002 4ca6 4C8D5F01 		leaq	1(%rdi), %r11
 6003 4caa 4D89C6   		movq	%r8, %r14
 6004 4cad 4C8D6B10 		leaq	16(%rbx), %r13
 6005 4cb1 4D29DE   		subq	%r11, %r14
 6006 4cb4 4C89D9   		movq	%r11, %rcx
 6007 4cb7 4F8D4C16 		leaq	1(%r14,%r10), %r9
 6007      01
 6008 4cbc 498D6E01 		leaq	1(%r14), %rbp
 6009 4cc0 4901C1   		addq	%rax, %r9
 6010 4cc3 4D39E9   		cmpq	%r13, %r9
 6011 4cc6 4C8D4B11 		leaq	17(%rbx), %r9
 6012 4cca 410F96C5 		setbe	%r13b
 6013 4cce 4C39CF   		cmpq	%r9, %rdi
 6014 4cd1 410F93C1 		setnb	%r9b
 6015 4cd5 4508CD   		orb	%r9b, %r13b
 6016 4cd8 0F843606 		je	.L1399
 6016      0000
 6017 4cde 4883FD16 		cmpq	$22, %rbp
 6018 4ce2 0F862C06 		jbe	.L1399
 6018      0000
 6019 4ce8 4989F9   		movq	%rdi, %r9
 6020 4ceb 49F7D9   		negq	%r9
 6021 4cee 4183E10F 		andl	$15, %r9d
 6022 4cf2 4C39CD   		cmpq	%r9, %rbp
 6023 4cf5 4C0F46CD 		cmovbe	%rbp, %r9
 6024 4cf9 4D85C9   		testq	%r9, %r9
 6025 4cfc 0F84CE09 		je	.L1420
 6025      0000
 6026 4d02 440FB65B 		movzbl	16(%rbx), %r11d
 6026      10
 6027 4d07 4983F901 		cmpq	$1, %r9
 6028 4d0b 44881F   		movb	%r11b, (%rdi)
 6029 4d0e 0F841C01 		je	.L1392
 6029      0000
 6030 4d14 440FB65B 		movzbl	16(%rbx), %r11d
 6030      10
 6031 4d19 4983F902 		cmpq	$2, %r9
 6032 4d1d 488D4F02 		leaq	2(%rdi), %rcx
 6033 4d21 44885F01 		movb	%r11b, 1(%rdi)
 6034 4d25 0F840501 		je	.L1392
 6034      0000
 6035 4d2b 440FB65B 		movzbl	16(%rbx), %r11d
 6035      10
 6036 4d30 4983F903 		cmpq	$3, %r9
 6037 4d34 488D4F03 		leaq	3(%rdi), %rcx
 6038 4d38 44885F02 		movb	%r11b, 2(%rdi)
 6039 4d3c 0F84EE00 		je	.L1392
 6039      0000
 6040 4d42 440FB65B 		movzbl	16(%rbx), %r11d
 6040      10
 6041 4d47 4983F904 		cmpq	$4, %r9
 6042 4d4b 488D4F04 		leaq	4(%rdi), %rcx
 6043 4d4f 44885F03 		movb	%r11b, 3(%rdi)
 6044 4d53 0F84D700 		je	.L1392
 6044      0000
 6045 4d59 440FB65B 		movzbl	16(%rbx), %r11d
 6045      10
 6046 4d5e 4983F905 		cmpq	$5, %r9
 6047 4d62 488D4F05 		leaq	5(%rdi), %rcx
 6048 4d66 44885F04 		movb	%r11b, 4(%rdi)
 6049 4d6a 0F84C000 		je	.L1392
 6049      0000
 6050 4d70 440FB65B 		movzbl	16(%rbx), %r11d
 6050      10
 6051 4d75 4983F906 		cmpq	$6, %r9
 6052 4d79 488D4F06 		leaq	6(%rdi), %rcx
 6053 4d7d 44885F05 		movb	%r11b, 5(%rdi)
 6054 4d81 0F84A900 		je	.L1392
 6054      0000
 6055 4d87 440FB65B 		movzbl	16(%rbx), %r11d
 6055      10
 6056 4d8c 4983F907 		cmpq	$7, %r9
 6057 4d90 488D4F07 		leaq	7(%rdi), %rcx
 6058 4d94 44885F06 		movb	%r11b, 6(%rdi)
 6059 4d98 0F849200 		je	.L1392
 6059      0000
 6060 4d9e 440FB65B 		movzbl	16(%rbx), %r11d
 6060      10
 6061 4da3 4983F908 		cmpq	$8, %r9
 6062 4da7 488D4F08 		leaq	8(%rdi), %rcx
 6063 4dab 44885F07 		movb	%r11b, 7(%rdi)
 6064 4daf 747F     		je	.L1392
 6065 4db1 440FB65B 		movzbl	16(%rbx), %r11d
 6065      10
 6066 4db6 4983F909 		cmpq	$9, %r9
 6067 4dba 488D4F09 		leaq	9(%rdi), %rcx
 6068 4dbe 44885F08 		movb	%r11b, 8(%rdi)
 6069 4dc2 746C     		je	.L1392
 6070 4dc4 440FB65B 		movzbl	16(%rbx), %r11d
 6070      10
 6071 4dc9 4983F90A 		cmpq	$10, %r9
 6072 4dcd 488D4F0A 		leaq	10(%rdi), %rcx
 6073 4dd1 44885F09 		movb	%r11b, 9(%rdi)
 6074 4dd5 7459     		je	.L1392
 6075 4dd7 440FB65B 		movzbl	16(%rbx), %r11d
 6075      10
 6076 4ddc 4983F90B 		cmpq	$11, %r9
 6077 4de0 488D4F0B 		leaq	11(%rdi), %rcx
 6078 4de4 44885F0A 		movb	%r11b, 10(%rdi)
 6079 4de8 7446     		je	.L1392
 6080 4dea 440FB65B 		movzbl	16(%rbx), %r11d
 6080      10
 6081 4def 4983F90C 		cmpq	$12, %r9
 6082 4df3 488D4F0C 		leaq	12(%rdi), %rcx
 6083 4df7 44885F0B 		movb	%r11b, 11(%rdi)
 6084 4dfb 7433     		je	.L1392
 6085 4dfd 440FB65B 		movzbl	16(%rbx), %r11d
 6085      10
 6086 4e02 4983F90D 		cmpq	$13, %r9
 6087 4e06 488D4F0D 		leaq	13(%rdi), %rcx
 6088 4e0a 44885F0C 		movb	%r11b, 12(%rdi)
 6089 4e0e 7420     		je	.L1392
 6090 4e10 440FB65B 		movzbl	16(%rbx), %r11d
 6090      10
 6091 4e15 4983F90F 		cmpq	$15, %r9
 6092 4e19 488D4F0E 		leaq	14(%rdi), %rcx
 6093 4e1d 44885F0D 		movb	%r11b, 13(%rdi)
 6094 4e21 750D     		jne	.L1392
 6095 4e23 440FB65B 		movzbl	16(%rbx), %r11d
 6095      10
 6096 4e28 488D4F0F 		leaq	15(%rdi), %rcx
 6097 4e2c 44885F0E 		movb	%r11b, 14(%rdi)
 6098              	.L1392:
 6099 4e30 4889EF   		movq	%rbp, %rdi
 6100 4e33 4D29CE   		subq	%r9, %r14
 6101 4e36 4C29CF   		subq	%r9, %rdi
 6102 4e39 488D6FF0 		leaq	-16(%rdi), %rbp
 6103 4e3d 48C1ED04 		shrq	$4, %rbp
 6104 4e41 4883C501 		addq	$1, %rbp
 6105 4e45 4989ED   		movq	%rbp, %r13
 6106 4e48 49C1E504 		salq	$4, %r13
 6107 4e4c 4983FE0E 		cmpq	$14, %r14
 6108 4e50 763D     		jbe	.L1394
 6109 4e52 440FB65B 		movzbl	16(%rbx), %r11d
 6109      10
 6110 4e57 4D01D1   		addq	%r10, %r9
 6111 4e5a 4901C1   		addq	%rax, %r9
 6112 4e5d 31C0     		xorl	%eax, %eax
 6113 4e5f 66410F6E 		movd	%r11d, %xmm0
 6113      C3
 6114 4e64 660F60C0 		punpcklbw	%xmm0, %xmm0
 6115 4e68 660F61C0 		punpcklwd	%xmm0, %xmm0
 6116 4e6c 660F70C0 		pshufd	$0, %xmm0, %xmm0
 6116      00
 6117              	.L1395:
 6118 4e71 4883C001 		addq	$1, %rax
 6119 4e75 4983C110 		addq	$16, %r9
 6120 4e79 410F2941 		movaps	%xmm0, -16(%r9)
 6120      F0
 6121 4e7e 4839C5   		cmpq	%rax, %rbp
 6122 4e81 77EE     		ja	.L1395
 6123 4e83 4C01E9   		addq	%r13, %rcx
 6124 4e86 4C39EF   		cmpq	%r13, %rdi
 6125 4e89 0F84FE00 		je	.L1400
 6125      0000
 6126              	.L1394:
 6127 4e8f 0FB64310 		movzbl	16(%rbx), %eax
 6128 4e93 8801     		movb	%al, (%rcx)
 6129 4e95 488D4101 		leaq	1(%rcx), %rax
 6130 4e99 4939C0   		cmpq	%rax, %r8
 6131 4e9c 0F86EB00 		jbe	.L1400
 6131      0000
 6132 4ea2 0FB64310 		movzbl	16(%rbx), %eax
 6133 4ea6 884101   		movb	%al, 1(%rcx)
 6134 4ea9 488D4102 		leaq	2(%rcx), %rax
 6135 4ead 4939C0   		cmpq	%rax, %r8
 6136 4eb0 0F86D700 		jbe	.L1400
 6136      0000
 6137 4eb6 0FB64310 		movzbl	16(%rbx), %eax
 6138 4eba 884102   		movb	%al, 2(%rcx)
 6139 4ebd 488D4103 		leaq	3(%rcx), %rax
 6140 4ec1 4939C0   		cmpq	%rax, %r8
 6141 4ec4 0F86C300 		jbe	.L1400
 6141      0000
 6142 4eca 0FB64310 		movzbl	16(%rbx), %eax
 6143 4ece 884103   		movb	%al, 3(%rcx)
 6144 4ed1 488D4104 		leaq	4(%rcx), %rax
 6145 4ed5 4939C0   		cmpq	%rax, %r8
 6146 4ed8 0F86AF00 		jbe	.L1400
 6146      0000
 6147 4ede 0FB64310 		movzbl	16(%rbx), %eax
 6148 4ee2 884104   		movb	%al, 4(%rcx)
 6149 4ee5 488D4105 		leaq	5(%rcx), %rax
 6150 4ee9 4939C0   		cmpq	%rax, %r8
 6151 4eec 0F869B00 		jbe	.L1400
 6151      0000
 6152 4ef2 0FB64310 		movzbl	16(%rbx), %eax
 6153 4ef6 884105   		movb	%al, 5(%rcx)
 6154 4ef9 488D4106 		leaq	6(%rcx), %rax
 6155 4efd 4939C0   		cmpq	%rax, %r8
 6156 4f00 0F868700 		jbe	.L1400
 6156      0000
 6157 4f06 0FB64310 		movzbl	16(%rbx), %eax
 6158 4f0a 884106   		movb	%al, 6(%rcx)
 6159 4f0d 488D4107 		leaq	7(%rcx), %rax
 6160 4f11 4939C0   		cmpq	%rax, %r8
 6161 4f14 7677     		jbe	.L1400
 6162 4f16 0FB64310 		movzbl	16(%rbx), %eax
 6163 4f1a 884107   		movb	%al, 7(%rcx)
 6164 4f1d 488D4108 		leaq	8(%rcx), %rax
 6165 4f21 4939C0   		cmpq	%rax, %r8
 6166 4f24 7667     		jbe	.L1400
 6167 4f26 0FB64310 		movzbl	16(%rbx), %eax
 6168 4f2a 884108   		movb	%al, 8(%rcx)
 6169 4f2d 488D4109 		leaq	9(%rcx), %rax
 6170 4f31 4939C0   		cmpq	%rax, %r8
 6171 4f34 7657     		jbe	.L1400
 6172 4f36 0FB64310 		movzbl	16(%rbx), %eax
 6173 4f3a 884109   		movb	%al, 9(%rcx)
 6174 4f3d 488D410A 		leaq	10(%rcx), %rax
 6175 4f41 4939C0   		cmpq	%rax, %r8
 6176 4f44 7647     		jbe	.L1400
 6177 4f46 0FB64310 		movzbl	16(%rbx), %eax
 6178 4f4a 88410A   		movb	%al, 10(%rcx)
 6179 4f4d 488D410B 		leaq	11(%rcx), %rax
 6180 4f51 4939C0   		cmpq	%rax, %r8
 6181 4f54 7637     		jbe	.L1400
