   1              		.file	"XmlTestReporter.cpp"
   2              		.section	.text.unlikely,"ax",@progbits
   3              		.align 2
   4              	.LCOLDB0:
   5              	.LHOTB0:
   6              		.align 2
   8              	_ZNSs4_Rep10_M_disposeERKSaIcE.part.5:
   9              	.LFB1572:
  10              		.cfi_startproc
  11 0000 48833D00 		cmpq	$0, _ZL28__gthrw___pthread_key_createPjPFvPvE@GOTPCREL(%rip)
  11      00000000 
  12 0008 740A     		je	.L2
  13 000a 83C8FF   		orl	$-1, %eax
  14 000d F00FC147 		lock xaddl	%eax, 16(%rdi)
  14      10
  15 0012 EB09     		jmp	.L3
  16              	.L2:
  17 0014 8B4710   		movl	16(%rdi), %eax
  18 0017 8D50FF   		leal	-1(%rax), %edx
  19 001a 895710   		movl	%edx, 16(%rdi)
  20              	.L3:
  21 001d 85C0     		testl	%eax, %eax
  22 001f 7F05     		jg	.L1
  23 0021 E9000000 		jmp	_ZNSs4_Rep10_M_destroyERKSaIcE@PLT
  23      00
  24              	.L1:
  25 0026 C3       		ret
  26              		.cfi_endproc
  27              	.LFE1572:
  29              	.LCOLDE0:
  30              	.LHOTE0:
  31              		.section	.text.unlikely._ZN8UnitTest15XmlTestReporterD2Ev,"axG",@progbits,_ZN8UnitTest15XmlTestRep
  32              		.align 2
  33              	.LCOLDB1:
  34              		.section	.text._ZN8UnitTest15XmlTestReporterD2Ev,"axG",@progbits,_ZN8UnitTest15XmlTestReporterD5Ev
  35              	.LHOTB1:
  36              		.align 2
  37              		.p2align 4,,15
  38              		.weak	_ZN8UnitTest15XmlTestReporterD2Ev
  40              	_ZN8UnitTest15XmlTestReporterD2Ev:
  41              	.LFB1562:
  42              		.cfi_startproc
  43 0000 4157     		pushq	%r15
  44              		.cfi_def_cfa_offset 16
  45              		.cfi_offset 15, -16
  46 0002 4156     		pushq	%r14
  47              		.cfi_def_cfa_offset 24
  48              		.cfi_offset 14, -24
  49 0004 4155     		pushq	%r13
  50              		.cfi_def_cfa_offset 32
  51              		.cfi_offset 13, -32
  52 0006 4154     		pushq	%r12
  53              		.cfi_def_cfa_offset 40
  54              		.cfi_offset 12, -40
  55 0008 4989FD   		movq	%rdi, %r13
  56 000b 55       		pushq	%rbp
  57              		.cfi_def_cfa_offset 48
  58              		.cfi_offset 6, -48
  59 000c 53       		pushq	%rbx
  60              		.cfi_def_cfa_offset 56
  61              		.cfi_offset 3, -56
  62 000d 4883EC28 		subq	$40, %rsp
  63              		.cfi_def_cfa_offset 96
  64 0011 4C8B6710 		movq	16(%rdi), %r12
  65 0015 4C8B7708 		movq	8(%rdi), %r14
  66 0019 64488B04 		movq	%fs:40, %rax
  66      25280000 
  66      00
  67 0022 48894424 		movq	%rax, 24(%rsp)
  67      18
  68 0027 31C0     		xorl	%eax, %eax
  69 0029 488B0500 		movq	_ZTVN8UnitTest20DeferredTestReporterE@GOTPCREL(%rip), %rax
  69      000000
  70 0030 4883C010 		addq	$16, %rax
  71 0034 4D39F4   		cmpq	%r14, %r12
  72 0037 488907   		movq	%rax, (%rdi)
  73 003a 0F84C400 		je	.L7
  73      0000
  74 0040 488D4424 		leaq	23(%rsp), %rax
  74      17
  75 0045 4C8B3D00 		movq	_ZNSs4_Rep20_S_empty_rep_storageE@GOTPCREL(%rip), %r15
  75      000000
  76 004c 48894424 		movq	%rax, 8(%rsp)
  76      08
  77              		.p2align 4,,10
  78 0051 0F1F8000 		.p2align 3
  78      000000
  79              	.L36:
  80 0058 498B6E20 		movq	32(%r14), %rbp
  81 005c 498B5E18 		movq	24(%r14), %rbx
  82 0060 4839DD   		cmpq	%rbx, %rbp
  83 0063 744F     		je	.L8
  84 0065 48833D00 		cmpq	$0, _ZL28__gthrw___pthread_key_createPjPFvPvE@GOTPCREL(%rip)
  84      00000000 
  85 006d 7512     		jne	.L43
  86 006f E9F90000 		jmp	.L14
  86      00
  87              		.p2align 4,,10
  88 0074 0F1F4000 		.p2align 3
  89              	.L17:
  90 0078 4883C310 		addq	$16, %rbx
  91 007c 4839DD   		cmpq	%rbx, %rbp
  92 007f 742F     		je	.L15
  93              	.L43:
  94 0081 488B4308 		movq	8(%rbx), %rax
  95 0085 488D78E8 		leaq	-24(%rax), %rdi
  96 0089 4C39FF   		cmpq	%r15, %rdi
  97 008c 74EA     		je	.L17
  98 008e B9FFFFFF 		movl	$-1, %ecx
  98      FF
  99 0093 F00FC148 		lock xaddl	%ecx, -8(%rax)
  99      F8
 100 0098 85C9     		testl	%ecx, %ecx
 101 009a 7FDC     		jg	.L17
 102 009c 488B7424 		movq	8(%rsp), %rsi
 102      08
 103 00a1 4883C310 		addq	$16, %rbx
 104 00a5 E8000000 		call	_ZNSs4_Rep10_M_destroyERKSaIcE@PLT
 104      00
 105 00aa 4839DD   		cmpq	%rbx, %rbp
 106 00ad 75D2     		jne	.L43
 107 00af 90       		.p2align 4,,10
 108              		.p2align 3
 109              	.L15:
 110 00b0 498B6E18 		movq	24(%r14), %rbp
 111              	.L8:
 112 00b4 4885ED   		testq	%rbp, %rbp
 113 00b7 7408     		je	.L20
 114 00b9 4889EF   		movq	%rbp, %rdi
 115 00bc E8000000 		call	_ZdlPv@PLT
 115      00
 116              	.L20:
 117 00c1 498B4610 		movq	16(%r14), %rax
 118 00c5 488D78E8 		leaq	-24(%rax), %rdi
 119 00c9 4C39FF   		cmpq	%r15, %rdi
 120 00cc 0F851601 		jne	.L51
 120      0000
 121              	.L22:
 122 00d2 498B4608 		movq	8(%r14), %rax
 123 00d6 488D78E8 		leaq	-24(%rax), %rdi
 124 00da 4C39FF   		cmpq	%r15, %rdi
 125 00dd 0F85D500 		jne	.L52
 125      0000
 126              	.L27:
 127 00e3 498B06   		movq	(%r14), %rax
 128 00e6 488D78E8 		leaq	-24(%rax), %rdi
 129 00ea 4C39FF   		cmpq	%r15, %rdi
 130 00ed 0F858D00 		jne	.L53
 130      0000
 131              	.L32:
 132 00f3 4983C638 		addq	$56, %r14
 133 00f7 4D39F4   		cmpq	%r14, %r12
 134 00fa 0F8558FF 		jne	.L36
 134      FFFF
 135 0100 4D8B6508 		movq	8(%r13), %r12
 136              	.L7:
 137 0104 4D85E4   		testq	%r12, %r12
 138 0107 7408     		je	.L37
 139 0109 4C89E7   		movq	%r12, %rdi
 140 010c E8000000 		call	_ZdlPv@PLT
 140      00
 141              	.L37:
 142 0111 4C89EF   		movq	%r13, %rdi
 143 0114 E8000000 		call	_ZN8UnitTest12TestReporterD2Ev@PLT
 143      00
 144 0119 488B4424 		movq	24(%rsp), %rax
 144      18
 145 011e 64483304 		xorq	%fs:40, %rax
 145      25280000 
 145      00
 146 0127 0F851201 		jne	.L54
 146      0000
 147 012d 4883C428 		addq	$40, %rsp
 148              		.cfi_remember_state
 149              		.cfi_def_cfa_offset 56
 150 0131 5B       		popq	%rbx
 151              		.cfi_def_cfa_offset 48
 152 0132 5D       		popq	%rbp
 153              		.cfi_def_cfa_offset 40
 154 0133 415C     		popq	%r12
 155              		.cfi_def_cfa_offset 32
 156 0135 415D     		popq	%r13
 157              		.cfi_def_cfa_offset 24
 158 0137 415E     		popq	%r14
 159              		.cfi_def_cfa_offset 16
 160 0139 415F     		popq	%r15
 161              		.cfi_def_cfa_offset 8
 162 013b C3       		ret
 163 013c 0F1F4000 		.p2align 4,,10
 164              		.p2align 3
 165              	.L55:
 166              		.cfi_restore_state
 167 0140 8B48F8   		movl	-8(%rax), %ecx
 168 0143 8D71FF   		leal	-1(%rcx), %esi
 169 0146 85C9     		testl	%ecx, %ecx
 170 0148 8970F8   		movl	%esi, -8(%rax)
 171 014b 7F13     		jg	.L12
 172 014d 488B7424 		movq	8(%rsp), %rsi
 172      08
 173 0152 E8000000 		call	_ZNSs4_Rep10_M_destroyERKSaIcE@PLT
 173      00
 174 0157 660F1F84 		.p2align 4,,10
 174      00000000 
 174      00
 175              		.p2align 3
 176              	.L12:
 177 0160 4883C310 		addq	$16, %rbx
 178 0164 4839DD   		cmpq	%rbx, %rbp
 179 0167 0F8443FF 		je	.L15
 179      FFFF
 180              	.L14:
 181 016d 488B4308 		movq	8(%rbx), %rax
 182 0171 488D78E8 		leaq	-24(%rax), %rdi
 183 0175 4C39FF   		cmpq	%r15, %rdi
 184 0178 74E6     		je	.L12
 185 017a EBC4     		jmp	.L55
 186 017c 0F1F4000 		.p2align 4,,10
 187              		.p2align 3
 188              	.L53:
 189 0180 48833D00 		cmpq	$0, _ZL28__gthrw___pthread_key_createPjPFvPvE@GOTPCREL(%rip)
 189      00000000 
 190 0188 0F84A100 		je	.L33
 190      0000
 191 018e B9FFFFFF 		movl	$-1, %ecx
 191      FF
 192 0193 F00FC148 		lock xaddl	%ecx, -8(%rax)
 192      F8
 193 0198 89C8     		movl	%ecx, %eax
 194              	.L34:
 195 019a 85C0     		testl	%eax, %eax
 196 019c 0F8F51FF 		jg	.L32
 196      FFFF
 197 01a2 488B7424 		movq	8(%rsp), %rsi
 197      08
 198 01a7 E8000000 		call	_ZNSs4_Rep10_M_destroyERKSaIcE@PLT
 198      00
 199 01ac E942FFFF 		jmp	.L32
 199      FF
 200              		.p2align 4,,10
 201 01b1 0F1F8000 		.p2align 3
 201      000000
 202              	.L52:
 203 01b8 48833D00 		cmpq	$0, _ZL28__gthrw___pthread_key_createPjPFvPvE@GOTPCREL(%rip)
 203      00000000 
 204 01c0 7460     		je	.L28
 205 01c2 B9FFFFFF 		movl	$-1, %ecx
 205      FF
 206 01c7 F00FC148 		lock xaddl	%ecx, -8(%rax)
 206      F8
 207 01cc 89C8     		movl	%ecx, %eax
 208              	.L29:
 209 01ce 85C0     		testl	%eax, %eax
 210 01d0 0F8F0DFF 		jg	.L27
 210      FFFF
 211 01d6 488B7424 		movq	8(%rsp), %rsi
 211      08
 212 01db E8000000 		call	_ZNSs4_Rep10_M_destroyERKSaIcE@PLT
 212      00
 213 01e0 E9FEFEFF 		jmp	.L27
 213      FF
 214              		.p2align 4,,10
 215 01e5 0F1F00   		.p2align 3
 216              	.L51:
 217 01e8 48833D00 		cmpq	$0, _ZL28__gthrw___pthread_key_createPjPFvPvE@GOTPCREL(%rip)
 217      00000000 
 218 01f0 7423     		je	.L23
 219 01f2 B9FFFFFF 		movl	$-1, %ecx
 219      FF
 220 01f7 F00FC148 		lock xaddl	%ecx, -8(%rax)
 220      F8
 221 01fc 89C8     		movl	%ecx, %eax
 222              	.L24:
 223 01fe 85C0     		testl	%eax, %eax
 224 0200 0F8FCCFE 		jg	.L22
 224      FFFF
 225 0206 488B7424 		movq	8(%rsp), %rsi
 225      08
 226 020b E8000000 		call	_ZNSs4_Rep10_M_destroyERKSaIcE@PLT
 226      00
 227 0210 E9BDFEFF 		jmp	.L22
 227      FF
 228              	.L23:
 229 0215 8B48F8   		movl	-8(%rax), %ecx
 230 0218 8D71FF   		leal	-1(%rcx), %esi
 231 021b 8970F8   		movl	%esi, -8(%rax)
 232 021e 89C8     		movl	%ecx, %eax
 233 0220 EBDC     		jmp	.L24
 234              	.L28:
 235 0222 8B48F8   		movl	-8(%rax), %ecx
 236 0225 8D71FF   		leal	-1(%rcx), %esi
 237 0228 8970F8   		movl	%esi, -8(%rax)
 238 022b 89C8     		movl	%ecx, %eax
 239 022d EB9F     		jmp	.L29
 240              	.L33:
 241 022f 8B48F8   		movl	-8(%rax), %ecx
 242 0232 8D71FF   		leal	-1(%rcx), %esi
 243 0235 8970F8   		movl	%esi, -8(%rax)
 244 0238 89C8     		movl	%ecx, %eax
 245 023a E95BFFFF 		jmp	.L34
 245      FF
 246              	.L54:
 247 023f E8000000 		call	__stack_chk_fail@PLT
 247      00
 248              		.cfi_endproc
 249              	.LFE1562:
 251              		.section	.text.unlikely._ZN8UnitTest15XmlTestReporterD2Ev,"axG",@progbits,_ZN8UnitTest15XmlTestRep
 252              	.LCOLDE1:
 253              		.section	.text._ZN8UnitTest15XmlTestReporterD2Ev,"axG",@progbits,_ZN8UnitTest15XmlTestReporterD5Ev
 254              	.LHOTE1:
 255              		.weak	_ZN8UnitTest15XmlTestReporterD1Ev
 256              		.set	_ZN8UnitTest15XmlTestReporterD1Ev,_ZN8UnitTest15XmlTestReporterD2Ev
 257              		.section	.text.unlikely._ZN8UnitTest15XmlTestReporterD0Ev,"axG",@progbits,_ZN8UnitTest15XmlTestRep
 258              		.align 2
 259              	.LCOLDB2:
 260              		.section	.text._ZN8UnitTest15XmlTestReporterD0Ev,"axG",@progbits,_ZN8UnitTest15XmlTestReporterD5Ev
 261              	.LHOTB2:
 262              		.align 2
 263              		.p2align 4,,15
 264              		.weak	_ZN8UnitTest15XmlTestReporterD0Ev
 266              	_ZN8UnitTest15XmlTestReporterD0Ev:
 267              	.LFB1564:
 268              		.cfi_startproc
 269 0000 4157     		pushq	%r15
 270              		.cfi_def_cfa_offset 16
 271              		.cfi_offset 15, -16
 272 0002 4156     		pushq	%r14
 273              		.cfi_def_cfa_offset 24
 274              		.cfi_offset 14, -24
 275 0004 4155     		pushq	%r13
 276              		.cfi_def_cfa_offset 32
 277              		.cfi_offset 13, -32
 278 0006 4154     		pushq	%r12
 279              		.cfi_def_cfa_offset 40
 280              		.cfi_offset 12, -40
 281 0008 4989FD   		movq	%rdi, %r13
 282 000b 55       		pushq	%rbp
 283              		.cfi_def_cfa_offset 48
 284              		.cfi_offset 6, -48
 285 000c 53       		pushq	%rbx
 286              		.cfi_def_cfa_offset 56
 287              		.cfi_offset 3, -56
 288 000d 4883EC28 		subq	$40, %rsp
 289              		.cfi_def_cfa_offset 96
 290 0011 4C8B6710 		movq	16(%rdi), %r12
 291 0015 4C8B7708 		movq	8(%rdi), %r14
 292 0019 64488B04 		movq	%fs:40, %rax
 292      25280000 
 292      00
 293 0022 48894424 		movq	%rax, 24(%rsp)
 293      18
 294 0027 31C0     		xorl	%eax, %eax
 295 0029 488B0500 		movq	_ZTVN8UnitTest20DeferredTestReporterE@GOTPCREL(%rip), %rax
 295      000000
 296 0030 4883C010 		addq	$16, %rax
 297 0034 4D39F4   		cmpq	%r14, %r12
 298 0037 488907   		movq	%rax, (%rdi)
 299 003a 0F84C400 		je	.L57
 299      0000
 300 0040 488D4424 		leaq	23(%rsp), %rax
 300      17
 301 0045 4C8B3D00 		movq	_ZNSs4_Rep20_S_empty_rep_storageE@GOTPCREL(%rip), %r15
 301      000000
 302 004c 48894424 		movq	%rax, 8(%rsp)
 302      08
 303              		.p2align 4,,10
 304 0051 0F1F8000 		.p2align 3
 304      000000
 305              	.L86:
 306 0058 498B6E20 		movq	32(%r14), %rbp
 307 005c 498B5E18 		movq	24(%r14), %rbx
 308 0060 4839DD   		cmpq	%rbx, %rbp
 309 0063 744F     		je	.L58
 310 0065 48833D00 		cmpq	$0, _ZL28__gthrw___pthread_key_createPjPFvPvE@GOTPCREL(%rip)
 310      00000000 
 311 006d 7512     		jne	.L93
 312 006f E9F90000 		jmp	.L64
 312      00
 313              		.p2align 4,,10
 314 0074 0F1F4000 		.p2align 3
 315              	.L67:
 316 0078 4883C310 		addq	$16, %rbx
 317 007c 4839DD   		cmpq	%rbx, %rbp
 318 007f 742F     		je	.L65
 319              	.L93:
 320 0081 488B4308 		movq	8(%rbx), %rax
 321 0085 488D78E8 		leaq	-24(%rax), %rdi
 322 0089 4C39FF   		cmpq	%r15, %rdi
 323 008c 74EA     		je	.L67
 324 008e B9FFFFFF 		movl	$-1, %ecx
 324      FF
 325 0093 F00FC148 		lock xaddl	%ecx, -8(%rax)
 325      F8
 326 0098 85C9     		testl	%ecx, %ecx
 327 009a 7FDC     		jg	.L67
 328 009c 488B7424 		movq	8(%rsp), %rsi
 328      08
 329 00a1 4883C310 		addq	$16, %rbx
 330 00a5 E8000000 		call	_ZNSs4_Rep10_M_destroyERKSaIcE@PLT
 330      00
 331 00aa 4839DD   		cmpq	%rbx, %rbp
 332 00ad 75D2     		jne	.L93
 333 00af 90       		.p2align 4,,10
 334              		.p2align 3
 335              	.L65:
 336 00b0 498B6E18 		movq	24(%r14), %rbp
 337              	.L58:
 338 00b4 4885ED   		testq	%rbp, %rbp
 339 00b7 7408     		je	.L70
 340 00b9 4889EF   		movq	%rbp, %rdi
 341 00bc E8000000 		call	_ZdlPv@PLT
 341      00
 342              	.L70:
 343 00c1 498B4610 		movq	16(%r14), %rax
 344 00c5 488D78E8 		leaq	-24(%rax), %rdi
 345 00c9 4C39FF   		cmpq	%r15, %rdi
 346 00cc 0F851601 		jne	.L101
 346      0000
 347              	.L72:
 348 00d2 498B4608 		movq	8(%r14), %rax
 349 00d6 488D78E8 		leaq	-24(%rax), %rdi
 350 00da 4C39FF   		cmpq	%r15, %rdi
 351 00dd 0F85D500 		jne	.L102
 351      0000
 352              	.L77:
 353 00e3 498B06   		movq	(%r14), %rax
 354 00e6 488D78E8 		leaq	-24(%rax), %rdi
 355 00ea 4C39FF   		cmpq	%r15, %rdi
 356 00ed 0F858D00 		jne	.L103
 356      0000
 357              	.L82:
 358 00f3 4983C638 		addq	$56, %r14
 359 00f7 4D39F4   		cmpq	%r14, %r12
 360 00fa 0F8558FF 		jne	.L86
 360      FFFF
 361 0100 4D8B6508 		movq	8(%r13), %r12
 362              	.L57:
 363 0104 4D85E4   		testq	%r12, %r12
 364 0107 7408     		je	.L87
 365 0109 4C89E7   		movq	%r12, %rdi
 366 010c E8000000 		call	_ZdlPv@PLT
 366      00
 367              	.L87:
 368 0111 4C89EF   		movq	%r13, %rdi
 369 0114 E8000000 		call	_ZN8UnitTest12TestReporterD2Ev@PLT
 369      00
 370 0119 4C89EF   		movq	%r13, %rdi
 371 011c E8000000 		call	_ZdlPv@PLT
 371      00
 372 0121 488B4424 		movq	24(%rsp), %rax
 372      18
 373 0126 64483304 		xorq	%fs:40, %rax
 373      25280000 
 373      00
 374 012f 0F850A01 		jne	.L104
 374      0000
 375 0135 4883C428 		addq	$40, %rsp
 376              		.cfi_remember_state
 377              		.cfi_def_cfa_offset 56
 378 0139 5B       		popq	%rbx
 379              		.cfi_def_cfa_offset 48
 380 013a 5D       		popq	%rbp
 381              		.cfi_def_cfa_offset 40
 382 013b 415C     		popq	%r12
 383              		.cfi_def_cfa_offset 32
 384 013d 415D     		popq	%r13
 385              		.cfi_def_cfa_offset 24
 386 013f 415E     		popq	%r14
 387              		.cfi_def_cfa_offset 16
 388 0141 415F     		popq	%r15
 389              		.cfi_def_cfa_offset 8
 390 0143 C3       		ret
 391              		.p2align 4,,10
 392 0144 0F1F4000 		.p2align 3
 393              	.L105:
 394              		.cfi_restore_state
 395 0148 8B48F8   		movl	-8(%rax), %ecx
 396 014b 8D71FF   		leal	-1(%rcx), %esi
 397 014e 85C9     		testl	%ecx, %ecx
 398 0150 8970F8   		movl	%esi, -8(%rax)
 399 0153 7F0B     		jg	.L62
 400 0155 488B7424 		movq	8(%rsp), %rsi
 400      08
 401 015a E8000000 		call	_ZNSs4_Rep10_M_destroyERKSaIcE@PLT
 401      00
 402 015f 90       		.p2align 4,,10
 403              		.p2align 3
 404              	.L62:
 405 0160 4883C310 		addq	$16, %rbx
 406 0164 4839DD   		cmpq	%rbx, %rbp
 407 0167 0F8443FF 		je	.L65
 407      FFFF
 408              	.L64:
 409 016d 488B4308 		movq	8(%rbx), %rax
 410 0171 488D78E8 		leaq	-24(%rax), %rdi
 411 0175 4C39FF   		cmpq	%r15, %rdi
 412 0178 74E6     		je	.L62
 413 017a EBCC     		jmp	.L105
 414 017c 0F1F4000 		.p2align 4,,10
 415              		.p2align 3
 416              	.L103:
 417 0180 48833D00 		cmpq	$0, _ZL28__gthrw___pthread_key_createPjPFvPvE@GOTPCREL(%rip)
 417      00000000 
 418 0188 0F84A100 		je	.L83
 418      0000
 419 018e B9FFFFFF 		movl	$-1, %ecx
 419      FF
 420 0193 F00FC148 		lock xaddl	%ecx, -8(%rax)
 420      F8
 421 0198 89C8     		movl	%ecx, %eax
 422              	.L84:
 423 019a 85C0     		testl	%eax, %eax
 424 019c 0F8F51FF 		jg	.L82
 424      FFFF
 425 01a2 488B7424 		movq	8(%rsp), %rsi
 425      08
 426 01a7 E8000000 		call	_ZNSs4_Rep10_M_destroyERKSaIcE@PLT
 426      00
 427 01ac E942FFFF 		jmp	.L82
 427      FF
 428              		.p2align 4,,10
 429 01b1 0F1F8000 		.p2align 3
 429      000000
 430              	.L102:
 431 01b8 48833D00 		cmpq	$0, _ZL28__gthrw___pthread_key_createPjPFvPvE@GOTPCREL(%rip)
 431      00000000 
 432 01c0 7460     		je	.L78
 433 01c2 B9FFFFFF 		movl	$-1, %ecx
 433      FF
 434 01c7 F00FC148 		lock xaddl	%ecx, -8(%rax)
 434      F8
 435 01cc 89C8     		movl	%ecx, %eax
 436              	.L79:
 437 01ce 85C0     		testl	%eax, %eax
 438 01d0 0F8F0DFF 		jg	.L77
 438      FFFF
 439 01d6 488B7424 		movq	8(%rsp), %rsi
 439      08
 440 01db E8000000 		call	_ZNSs4_Rep10_M_destroyERKSaIcE@PLT
 440      00
 441 01e0 E9FEFEFF 		jmp	.L77
 441      FF
 442              		.p2align 4,,10
 443 01e5 0F1F00   		.p2align 3
 444              	.L101:
 445 01e8 48833D00 		cmpq	$0, _ZL28__gthrw___pthread_key_createPjPFvPvE@GOTPCREL(%rip)
 445      00000000 
 446 01f0 7423     		je	.L73
 447 01f2 B9FFFFFF 		movl	$-1, %ecx
 447      FF
 448 01f7 F00FC148 		lock xaddl	%ecx, -8(%rax)
 448      F8
 449 01fc 89C8     		movl	%ecx, %eax
 450              	.L74:
 451 01fe 85C0     		testl	%eax, %eax
 452 0200 0F8FCCFE 		jg	.L72
 452      FFFF
 453 0206 488B7424 		movq	8(%rsp), %rsi
 453      08
 454 020b E8000000 		call	_ZNSs4_Rep10_M_destroyERKSaIcE@PLT
 454      00
 455 0210 E9BDFEFF 		jmp	.L72
 455      FF
 456              	.L73:
 457 0215 8B48F8   		movl	-8(%rax), %ecx
 458 0218 8D71FF   		leal	-1(%rcx), %esi
 459 021b 8970F8   		movl	%esi, -8(%rax)
 460 021e 89C8     		movl	%ecx, %eax
 461 0220 EBDC     		jmp	.L74
 462              	.L78:
 463 0222 8B48F8   		movl	-8(%rax), %ecx
 464 0225 8D71FF   		leal	-1(%rcx), %esi
 465 0228 8970F8   		movl	%esi, -8(%rax)
 466 022b 89C8     		movl	%ecx, %eax
 467 022d EB9F     		jmp	.L79
 468              	.L83:
 469 022f 8B48F8   		movl	-8(%rax), %ecx
 470 0232 8D71FF   		leal	-1(%rcx), %esi
 471 0235 8970F8   		movl	%esi, -8(%rax)
 472 0238 89C8     		movl	%ecx, %eax
 473 023a E95BFFFF 		jmp	.L84
 473      FF
 474              	.L104:
 475 023f E8000000 		call	__stack_chk_fail@PLT
 475      00
 476              		.cfi_endproc
 477              	.LFE1564:
 479              		.section	.text.unlikely._ZN8UnitTest15XmlTestReporterD0Ev,"axG",@progbits,_ZN8UnitTest15XmlTestRep
 480              	.LCOLDE2:
 481              		.section	.text._ZN8UnitTest15XmlTestReporterD0Ev,"axG",@progbits,_ZN8UnitTest15XmlTestReporterD5Ev
 482              	.LHOTE2:
 483              		.section	.rodata.str1.1,"aMS",@progbits,1
 484              	.LC3:
 485 0000 2800     		.string	"("
 486              	.LC4:
 487 0002 29203A20 		.string	") : "
 487      00
 488              		.section	.rodata.str1.8,"aMS",@progbits,1
 489              		.align 8
 490              	.LC5:
 491 0000 62617369 		.string	"basic_string::_S_construct null not valid"
 491      635F7374 
 491      72696E67 
 491      3A3A5F53 
 491      5F636F6E 
 492              		.section	.text.unlikely
 493              	.LCOLDB6:
 494              		.text
 495              	.LHOTB6:
 496              		.p2align 4,,15
 498              	_ZN12_GLOBAL__N_119BuildFailureMessageERKSsiS1_:
 499              	.LFB1347:
 500              		.cfi_startproc
 501              		.cfi_personality 0x9b,DW.ref.__gxx_personality_v0
 502              		.cfi_lsda 0x1b,.LLSDA1347
 503 0000 4157     		pushq	%r15
 504              		.cfi_def_cfa_offset 16
 505              		.cfi_offset 15, -16
 506 0002 4156     		pushq	%r14
 507              		.cfi_def_cfa_offset 24
 508              		.cfi_offset 14, -24
 509 0004 4989FE   		movq	%rdi, %r14
 510 0007 4155     		pushq	%r13
 511              		.cfi_def_cfa_offset 32
 512              		.cfi_offset 13, -32
 513 0009 4154     		pushq	%r12
 514              		.cfi_def_cfa_offset 40
 515              		.cfi_offset 12, -40
 516 000b 55       		pushq	%rbp
 517              		.cfi_def_cfa_offset 48
 518              		.cfi_offset 6, -48
 519 000c 53       		pushq	%rbx
 520              		.cfi_def_cfa_offset 56
 521              		.cfi_offset 3, -56
 522 000d 4881ECB8 		subq	$440, %rsp
 522      010000
 523              		.cfi_def_cfa_offset 496
 524 0014 488D5C24 		leaq	64(%rsp), %rbx
 524      40
 525 0019 48897424 		movq	%rsi, 8(%rsp)
 525      08
 526 001e 89542410 		movl	%edx, 16(%rsp)
 527 0022 64488B04 		movq	%fs:40, %rax
 527      25280000 
 527      00
 528 002b 48898424 		movq	%rax, 424(%rsp)
 528      A8010000 
 529 0033 31C0     		xorl	%eax, %eax
 530 0035 488D7B58 		leaq	88(%rbx), %rdi
 531 0039 48894C24 		movq	%rcx, 24(%rsp)
 531      18
 532 003e E8000000 		call	_ZNSt8ios_baseC2Ev@PLT
 532      00
 533 0043 488B0500 		movq	_ZTVSt9basic_iosIcSt11char_traitsIcEE@GOTPCREL(%rip), %rax
 533      000000
 534 004a C6842478 		movb	$0, 376(%rsp)
 534      01000000 
 535 0052 4889DF   		movq	%rbx, %rdi
 536 0055 48C78424 		movq	$0, 368(%rsp)
 536      70010000 
 536      00000000 
 537 0061 C6842479 		movb	$0, 377(%rsp)
 537      01000000 
 538 0069 31F6     		xorl	%esi, %esi
 539 006b 48C78424 		movq	$0, 384(%rsp)
 539      80010000 
 539      00000000 
 540 0077 48C78424 		movq	$0, 392(%rsp)
 540      88010000 
 540      00000000 
 541 0083 4883C010 		addq	$16, %rax
 542 0087 48C78424 		movq	$0, 400(%rsp)
 542      90010000 
 542      00000000 
 543 0093 48C78424 		movq	$0, 408(%rsp)
 543      98010000 
 543      00000000 
 544 009f 48898424 		movq	%rax, 152(%rsp)
 544      98000000 
 545 00a7 488B0500 		movq	_ZTTSt19basic_ostringstreamIcSt11char_traitsIcESaIcEE@GOTPCREL(%rip), %rax
 545      000000
 546 00ae 4C8B6008 		movq	8(%rax), %r12
 547 00b2 4C8B7810 		movq	16(%rax), %r15
 548 00b6 49037C24 		addq	-24(%r12), %rdi
 548      E8
 549 00bb 4C896424 		movq	%r12, 64(%rsp)
 549      40
 550 00c0 4C893F   		movq	%r15, (%rdi)
 551              	.LEHB0:
 552 00c3 E8000000 		call	_ZNSt9basic_iosIcSt11char_traitsIcEE4initEPSt15basic_streambufIcS1_E@PLT
 552      00
 553              	.LEHE0:
 554 00c8 4C8B2D00 		movq	_ZTVSt19basic_ostringstreamIcSt11char_traitsIcESaIcEE@GOTPCREL(%rip), %r13
 554      000000
 555 00cf 488D7B40 		leaq	64(%rbx), %rdi
 556 00d3 48C74424 		movq	$0, 80(%rsp)
 556      50000000 
 556      00
 557 00dc 48C74424 		movq	$0, 88(%rsp)
 557      58000000 
 557      00
 558 00e5 48C74424 		movq	$0, 96(%rsp)
 558      60000000 
 558      00
 559 00ee 48C74424 		movq	$0, 104(%rsp)
 559      68000000 
 559      00
 560 00f7 48C74424 		movq	$0, 112(%rsp)
 560      70000000 
 560      00
 561 0100 498D4518 		leaq	24(%r13), %rax
 562 0104 48C74424 		movq	$0, 120(%rsp)
 562      78000000 
 562      00
 563 010d 48894424 		movq	%rax, 64(%rsp)
 563      40
 564 0112 498D4540 		leaq	64(%r13), %rax
 565 0116 48898424 		movq	%rax, 152(%rsp)
 565      98000000 
 566 011e 488B0500 		movq	_ZTVSt15basic_streambufIcSt11char_traitsIcEE@GOTPCREL(%rip), %rax
 566      000000
 567 0125 4883C010 		addq	$16, %rax
 568 0129 48894424 		movq	%rax, 72(%rsp)
 568      48
 569 012e E8000000 		call	_ZNSt6localeC1Ev@PLT
 569      00
 570 0133 488B0500 		movq	_ZTVSt15basic_stringbufIcSt11char_traitsIcESaIcEE@GOTPCREL(%rip), %rax
 570      000000
 571 013a 488B2D00 		movq	_ZNSs4_Rep20_S_empty_rep_storageE@GOTPCREL(%rip), %rbp
 571      000000
 572 0141 488D7308 		leaq	8(%rbx), %rsi
 573 0145 488D7B58 		leaq	88(%rbx), %rdi
 574 0149 C7842488 		movl	$16, 136(%rsp)
 574      00000010 
 574      000000
 575 0154 4883C010 		addq	$16, %rax
 576 0158 48894424 		movq	%rax, 72(%rsp)
 576      48
 577 015d 488D4518 		leaq	24(%rbp), %rax
 578 0161 48898424 		movq	%rax, 144(%rsp)
 578      90000000 
 579              	.LEHB1:
 580 0169 E8000000 		call	_ZNSt9basic_iosIcSt11char_traitsIcEE4initEPSt15basic_streambufIcS1_E@PLT
 580      00
 581              	.LEHE1:
 582 016e 488B4424 		movq	8(%rsp), %rax
 582      08
 583 0173 4889DF   		movq	%rbx, %rdi
 584 0176 488B30   		movq	(%rax), %rsi
 585 0179 488B56E8 		movq	-24(%rsi), %rdx
 586              	.LEHB2:
 587 017d E8000000 		call	_ZSt16__ostream_insertIcSt11char_traitsIcEERSt13basic_ostreamIT_T0_ES6_PKS3_l@PLT
 587      00
 588 0182 488D3500 		leaq	.LC3(%rip), %rsi
 588      000000
 589 0189 BA010000 		movl	$1, %edx
 589      00
 590 018e 4889C7   		movq	%rax, %rdi
 591 0191 48894424 		movq	%rax, 8(%rsp)
 591      08
 592 0196 E8000000 		call	_ZSt16__ostream_insertIcSt11char_traitsIcEERSt13basic_ostreamIT_T0_ES6_PKS3_l@PLT
 592      00
 593 019b 8B742410 		movl	16(%rsp), %esi
 594 019f 488B7C24 		movq	8(%rsp), %rdi
 594      08
 595 01a4 E8000000 		call	_ZNSolsEi@PLT
 595      00
 596 01a9 488D3500 		leaq	.LC4(%rip), %rsi
 596      000000
 597 01b0 BA040000 		movl	$4, %edx
 597      00
 598 01b5 4889C7   		movq	%rax, %rdi
 599 01b8 48894424 		movq	%rax, 8(%rsp)
 599      08
 600 01bd E8000000 		call	_ZSt16__ostream_insertIcSt11char_traitsIcEERSt13basic_ostreamIT_T0_ES6_PKS3_l@PLT
 600      00
 601 01c2 488B4C24 		movq	24(%rsp), %rcx
 601      18
 602 01c7 488B7C24 		movq	8(%rsp), %rdi
 602      08
 603 01cc 488B31   		movq	(%rcx), %rsi
 604 01cf 488B56E8 		movq	-24(%rsi), %rdx
 605 01d3 E8000000 		call	_ZSt16__ostream_insertIcSt11char_traitsIcEERSt13basic_ostreamIT_T0_ES6_PKS3_l@PLT
 605      00
 606              	.LEHE2:
 607 01d8 488B4424 		movq	112(%rsp), %rax
 607      70
 608 01dd 488D7D18 		leaq	24(%rbp), %rdi
 609 01e1 49893E   		movq	%rdi, (%r14)
 610 01e4 4885C0   		testq	%rax, %rax
 611 01e7 0F84B302 		je	.L115
 611      0000
 612 01ed 488B5424 		movq	96(%rsp), %rdx
 612      60
 613 01f2 4839D0   		cmpq	%rdx, %rax
 614 01f5 7629     		jbe	.L116
 615 01f7 488B4C24 		movq	104(%rsp), %rcx
 615      68
 616 01fc 4839C8   		cmpq	%rcx, %rax
 617 01ff 48894C24 		movq	%rcx, 8(%rsp)
 617      08
 618 0204 0F847602 		je	.L154
 618      0000
 619 020a 4885C9   		testq	%rcx, %rcx
 620 020d 753A     		jne	.L186
 621 020f 488D3D00 		leaq	.LC5(%rip), %rdi
 621      000000
 622              	.LEHB3:
 623 0216 E8000000 		call	_ZSt19__throw_logic_errorPKc@PLT
 623      00
 624 021b 0F1F4400 		.p2align 4,,10
 624      00
 625              		.p2align 3
 626              	.L116:
 627 0220 488B4424 		movq	104(%rsp), %rax
 627      68
 628 0225 4839C2   		cmpq	%rax, %rdx
 629 0228 48894424 		movq	%rax, 8(%rsp)
 629      08
 630 022d 0F845D02 		je	.L155
 630      0000
 631 0233 4885C0   		testq	%rax, %rax
 632 0236 7579     		jne	.L131
 633 0238 4885D2   		testq	%rdx, %rdx
 634 023b 7474     		je	.L131
 635 023d 488D3D00 		leaq	.LC5(%rip), %rdi
 635      000000
 636 0244 E8000000 		call	_ZSt19__throw_logic_errorPKc@PLT
 636      00
 637              	.L186:
 638 0249 482B4424 		subq	8(%rsp), %rax
 638      08
 639 024e 488D5424 		leaq	47(%rsp), %rdx
 639      2F
 640 0253 31F6     		xorl	%esi, %esi
 641 0255 4889C7   		movq	%rax, %rdi
 642 0258 48894424 		movq	%rax, 16(%rsp)
 642      10
 643 025d E8000000 		call	_ZNSs4_Rep9_S_createEmmRKSaIcE@PLT
 643      00
 644              	.LEHE3:
 645 0262 48837C24 		cmpq	$1, 16(%rsp)
 645      1001
 646 0268 4989C0   		movq	%rax, %r8
 647 026b 488D4818 		leaq	24(%rax), %rcx
 648 026f 0F848301 		je	.L187
 648      0000
 649 0275 488B5424 		movq	16(%rsp), %rdx
 649      10
 650 027a 488B7424 		movq	8(%rsp), %rsi
 650      08
 651 027f 4889CF   		movq	%rcx, %rdi
 652 0282 4C894424 		movq	%r8, 24(%rsp)
 652      18
 653 0287 E8000000 		call	memcpy@PLT
 653      00
 654 028c 4C8B4424 		movq	24(%rsp), %r8
 654      18
 655 0291 4889C1   		movq	%rax, %rcx
 656              	.L121:
 657 0294 4939E8   		cmpq	%rbp, %r8
 658 0297 0F857302 		jne	.L188
 658      0000
 659              	.L117:
 660 029d 488D7424 		leaq	48(%rsp), %rsi
 660      30
 661 02a2 4C89F7   		movq	%r14, %rdi
 662 02a5 48894C24 		movq	%rcx, 48(%rsp)
 662      30
 663              	.LEHB4:
 664 02aa E8000000 		call	_ZNSs6assignERKSs@PLT
 664      00
 665              	.LEHE4:
 666 02af EB69     		jmp	.L180
 667              	.L131:
 668 02b1 482B5424 		subq	8(%rsp), %rdx
 668      08
 669 02b6 31F6     		xorl	%esi, %esi
 670 02b8 4889D0   		movq	%rdx, %rax
 671 02bb 488D5424 		leaq	47(%rsp), %rdx
 671      2F
 672 02c0 4889C7   		movq	%rax, %rdi
 673 02c3 48894424 		movq	%rax, 16(%rsp)
 673      10
 674              	.LEHB5:
 675 02c8 E8000000 		call	_ZNSs4_Rep9_S_createEmmRKSaIcE@PLT
 675      00
 676              	.LEHE5:
 677 02cd 48837C24 		cmpq	$1, 16(%rsp)
 677      1001
 678 02d3 4989C0   		movq	%rax, %r8
 679 02d6 488D4818 		leaq	24(%rax), %rcx
 680 02da 0F840001 		je	.L189
 680      0000
 681 02e0 488B5424 		movq	16(%rsp), %rdx
 681      10
 682 02e5 488B7424 		movq	8(%rsp), %rsi
 682      08
 683 02ea 4889CF   		movq	%rcx, %rdi
 684 02ed 4C894424 		movq	%r8, 24(%rsp)
 684      18
 685 02f2 E8000000 		call	memcpy@PLT
 685      00
 686 02f7 4C8B4424 		movq	24(%rsp), %r8
 686      18
 687 02fc 4889C1   		movq	%rax, %rcx
 688              	.L133:
 689 02ff 4939E8   		cmpq	%rbp, %r8
 690 0302 0F85E801 		jne	.L190
 690      0000
 691              	.L128:
 692 0308 488D7424 		leaq	48(%rsp), %rsi
 692      30
 693 030d 4C89F7   		movq	%r14, %rdi
 694 0310 48894C24 		movq	%rcx, 48(%rsp)
 694      30
 695              	.LEHB6:
 696 0315 E8000000 		call	_ZNSs6assignERKSs@PLT
 696      00
 697              	.LEHE6:
 698              	.L180:
 699 031a 488B4424 		movq	48(%rsp), %rax
 699      30
 700 031f 488D78E8 		leaq	-24(%rax), %rdi
 701 0323 4839EF   		cmpq	%rbp, %rdi
 702 0326 0F851C01 		jne	.L191
 702      0000
 703              	.L127:
 704 032c 498D4518 		leaq	24(%r13), %rax
 705 0330 48894424 		movq	%rax, 64(%rsp)
 705      40
 706 0335 498D4540 		leaq	64(%r13), %rax
 707 0339 48898424 		movq	%rax, 152(%rsp)
 707      98000000 
 708 0341 488B0500 		movq	_ZTVSt15basic_stringbufIcSt11char_traitsIcESaIcEE@GOTPCREL(%rip), %rax
 708      000000
 709 0348 4883C010 		addq	$16, %rax
 710 034c 48894424 		movq	%rax, 72(%rsp)
 710      48
 711 0351 488B8424 		movq	144(%rsp), %rax
 711      90000000 
 712 0359 488D78E8 		leaq	-24(%rax), %rdi
 713 035d 4839EF   		cmpq	%rbp, %rdi
 714 0360 0F85AA00 		jne	.L192
 714      0000
 715              	.L147:
 716 0366 488B0500 		movq	_ZTVSt15basic_streambufIcSt11char_traitsIcEE@GOTPCREL(%rip), %rax
 716      000000
 717 036d 488D7B40 		leaq	64(%rbx), %rdi
 718 0371 4883C010 		addq	$16, %rax
 719 0375 48894424 		movq	%rax, 72(%rsp)
 719      48
 720 037a E8000000 		call	_ZNSt6localeD1Ev@PLT
 720      00
 721 037f 498B4424 		movq	-24(%r12), %rax
 721      E8
 722 0384 4C896424 		movq	%r12, 64(%rsp)
 722      40
 723 0389 488D7B58 		leaq	88(%rbx), %rdi
 724 038d 4C897C04 		movq	%r15, 64(%rsp,%rax)
 724      40
 725 0392 488B0500 		movq	_ZTVSt9basic_iosIcSt11char_traitsIcEE@GOTPCREL(%rip), %rax
 725      000000
 726 0399 4883C010 		addq	$16, %rax
 727 039d 48898424 		movq	%rax, 152(%rsp)
 727      98000000 
 728              	.LEHB7:
 729 03a5 E8000000 		call	_ZNSt8ios_baseD2Ev@PLT
 729      00
 730              	.LEHE7:
 731 03aa 488B9C24 		movq	424(%rsp), %rbx
 731      A8010000 
 732 03b2 6448331C 		xorq	%fs:40, %rbx
 732      25280000 
 732      00
 733 03bb 4C89F0   		movq	%r14, %rax
 734 03be 0F857C01 		jne	.L193
 734      0000
 735 03c4 4881C4B8 		addq	$440, %rsp
 735      010000
 736              		.cfi_remember_state
 737              		.cfi_def_cfa_offset 56
 738 03cb 5B       		popq	%rbx
 739              		.cfi_def_cfa_offset 48
 740 03cc 5D       		popq	%rbp
 741              		.cfi_def_cfa_offset 40
 742 03cd 415C     		popq	%r12
 743              		.cfi_def_cfa_offset 32
 744 03cf 415D     		popq	%r13
 745              		.cfi_def_cfa_offset 24
 746 03d1 415E     		popq	%r14
 747              		.cfi_def_cfa_offset 16
 748 03d3 415F     		popq	%r15
 749              		.cfi_def_cfa_offset 8
 750 03d5 C3       		ret
 751 03d6 662E0F1F 		.p2align 4,,10
 751      84000000 
 751      0000
 752              		.p2align 3
 753              	.L189:
 754              		.cfi_restore_state
 755 03e0 488B4424 		movq	8(%rsp), %rax
 755      08
 756 03e5 0FB600   		movzbl	(%rax), %eax
 757 03e8 41884018 		movb	%al, 24(%r8)
 758 03ec E90EFFFF 		jmp	.L133
 758      FF
 759              		.p2align 4,,10
 760 03f1 0F1F8000 		.p2align 3
 760      000000
 761              	.L187:
 762 03f8 488B4424 		movq	8(%rsp), %rax
 762      08
 763 03fd 0FB600   		movzbl	(%rax), %eax
 764 0400 41884018 		movb	%al, 24(%r8)
 765 0404 E98BFEFF 		jmp	.L121
 765      FF
 766 0409 0F1F8000 		.p2align 4,,10
 766      000000
 767              		.p2align 3
 768              	.L192:
 769 0410 48833D00 		cmpq	$0, _ZL28__gthrw___pthread_key_createPjPFvPvE@GOTPCREL(%rip)
 769      00000000 
 770 0418 0F84C200 		je	.L148
 770      0000
 771 041e BAFFFFFF 		movl	$-1, %edx
 771      FF
 772 0423 F00FC150 		lock xaddl	%edx, -8(%rax)
 772      F8
 773 0428 89D0     		movl	%edx, %eax
 774              	.L149:
 775 042a 85C0     		testl	%eax, %eax
 776 042c 0F8F34FF 		jg	.L147
 776      FFFF
 777 0432 488D7424 		leaq	48(%rsp), %rsi
 777      30
 778 0437 E8000000 		call	_ZNSs4_Rep10_M_destroyERKSaIcE@PLT
 778      00
 779 043c E925FFFF 		jmp	.L147
 779      FF
 780              		.p2align 4,,10
 781 0441 0F1F8000 		.p2align 3
 781      000000
 782              	.L191:
 783 0448 48833D00 		cmpq	$0, _ZL28__gthrw___pthread_key_createPjPFvPvE@GOTPCREL(%rip)
 783      00000000 
 784 0450 0F84DA00 		je	.L136
 784      0000
 785 0456 BAFFFFFF 		movl	$-1, %edx
 785      FF
 786 045b F00FC150 		lock xaddl	%edx, -8(%rax)
 786      F8
 787 0460 89D0     		movl	%edx, %eax
 788              	.L137:
 789 0462 85C0     		testl	%eax, %eax
 790 0464 0F8FC2FE 		jg	.L127
 790      FFFF
 791 046a 488D7424 		leaq	46(%rsp), %rsi
 791      2E
 792 046f E8000000 		call	_ZNSs4_Rep10_M_destroyERKSaIcE@PLT
 792      00
 793 0474 E9B3FEFF 		jmp	.L127
 793      FF
 794 0479 0F1F8000 		.p2align 4,,10
 794      000000
 795              		.p2align 3
 796              	.L154:
 797 0480 4889F9   		movq	%rdi, %rcx
 798 0483 E915FEFF 		jmp	.L117
 798      FF
 799 0488 0F1F8400 		.p2align 4,,10
 799      00000000 
 800              		.p2align 3
 801              	.L155:
 802 0490 4889F9   		movq	%rdi, %rcx
 803 0493 E970FEFF 		jmp	.L128
 803      FF
 804 0498 0F1F8400 		.p2align 4,,10
 804      00000000 
 805              		.p2align 3
 806              	.L115:
 807 04a0 488D7350 		leaq	80(%rbx), %rsi
 808 04a4 4C89F7   		movq	%r14, %rdi
 809              	.LEHB8:
 810 04a7 E8000000 		call	_ZNSs6assignERKSs@PLT
 810      00
 811              	.LEHE8:
 812 04ac E97BFEFF 		jmp	.L127
 812      FF
 813              	.L159:
 814 04b1 4989C4   		movq	%rax, %r12
 815              	.L141:
 816 04b4 498B3E   		movq	(%r14), %rdi
 817 04b7 4883EF18 		subq	$24, %rdi
 818 04bb 4839EF   		cmpq	%rbp, %rdi
 819 04be 740A     		je	.L145
 820 04c0 488D7424 		leaq	48(%rsp), %rsi
 820      30
 821 04c5 E8000000 		call	_ZNSs4_Rep10_M_disposeERKSaIcE.part.5
 821      00
 822              	.L145:
 823 04ca 4889DF   		movq	%rbx, %rdi
 824 04cd E8000000 		call	_ZNSt19basic_ostringstreamIcSt11char_traitsIcESaIcEED1Ev@PLT
 824      00
 825 04d2 4C89E7   		movq	%r12, %rdi
 826              	.LEHB9:
 827 04d5 E8000000 		call	_Unwind_Resume@PLT
 827      00
 828              	.LEHE9:
 829 04da 660F1F44 		.p2align 4,,10
 829      0000
 830              		.p2align 3
 831              	.L148:
 832 04e0 8B50F8   		movl	-8(%rax), %edx
 833 04e3 8D4AFF   		leal	-1(%rdx), %ecx
 834 04e6 8948F8   		movl	%ecx, -8(%rax)
 835 04e9 89D0     		movl	%edx, %eax
 836 04eb E93AFFFF 		jmp	.L149
 836      FF
 837              		.p2align 4,,10
 838              		.p2align 3
 839              	.L190:
 840 04f0 488B4424 		movq	16(%rsp), %rax
 840      10
 841 04f5 41C74010 		movl	$0, 16(%r8)
 841      00000000 
 842 04fd 498900   		movq	%rax, (%r8)
 843 0500 41C64400 		movb	$0, 24(%r8,%rax)
 843      1800
 844 0506 E9FDFDFF 		jmp	.L128
 844      FF
 845 050b 0F1F4400 		.p2align 4,,10
 845      00
 846              		.p2align 3
 847              	.L188:
 848 0510 488B4424 		movq	16(%rsp), %rax
 848      10
 849 0515 41C74010 		movl	$0, 16(%r8)
 849      00000000 
 850 051d 498900   		movq	%rax, (%r8)
 851 0520 41C64400 		movb	$0, 24(%r8,%rax)
 851      1800
 852 0526 E972FDFF 		jmp	.L117
 852      FF
 853 052b 0F1F4400 		.p2align 4,,10
 853      00
 854              		.p2align 3
 855              	.L136:
 856 0530 8B50F8   		movl	-8(%rax), %edx
 857 0533 8D4AFF   		leal	-1(%rdx), %ecx
 858 0536 8948F8   		movl	%ecx, -8(%rax)
 859 0539 89D0     		movl	%edx, %eax
 860 053b E922FFFF 		jmp	.L137
 860      FF
 861              	.L193:
 862 0540 E8000000 		call	__stack_chk_fail@PLT
 862      00
 863              	.L160:
 864              	.L175:
 865 0545 4989C4   		movq	%rax, %r12
 866 0548 488B4424 		movq	48(%rsp), %rax
 866      30
 867 054d 488D78E8 		leaq	-24(%rax), %rdi
 868 0551 4839EF   		cmpq	%rbp, %rdi
 869 0554 0F845AFF 		je	.L141
 869      FFFF
 870 055a 488D7424 		leaq	46(%rsp), %rsi
 870      2E
 871 055f E8000000 		call	_ZNSs4_Rep10_M_disposeERKSaIcE.part.5
 871      00
 872 0564 E94BFFFF 		jmp	.L141
 872      FF
 873              	.L157:
 874 0569 4989C5   		movq	%rax, %r13
 875              	.L114:
 876 056c 488B0500 		movq	_ZTVSt9basic_iosIcSt11char_traitsIcEE@GOTPCREL(%rip), %rax
 876      000000
 877 0573 488D7B58 		leaq	88(%rbx), %rdi
 878 0577 4883C010 		addq	$16, %rax
 879 057b 48898424 		movq	%rax, 152(%rsp)
 879      98000000 
 880 0583 E8000000 		call	_ZNSt8ios_baseD2Ev@PLT
 880      00
 881 0588 4C89EF   		movq	%r13, %rdi
 882              	.LEHB10:
 883 058b E8000000 		call	_Unwind_Resume@PLT
 883      00
 884              	.LEHE10:
 885              	.L156:
 886 0590 4989C4   		movq	%rax, %r12
 887 0593 E932FFFF 		jmp	.L145
 887      FF
 888              	.L161:
 889 0598 EBAB     		jmp	.L175
 890              	.L158:
 891 059a 488B9424 		movq	144(%rsp), %rdx
 891      90000000 
 892 05a2 4989C5   		movq	%rax, %r13
 893 05a5 488B0500 		movq	_ZTVSt15basic_stringbufIcSt11char_traitsIcESaIcEE@GOTPCREL(%rip), %rax
 893      000000
 894 05ac 488D7AE8 		leaq	-24(%rdx), %rdi
 895 05b0 4883C010 		addq	$16, %rax
 896 05b4 48894424 		movq	%rax, 72(%rsp)
 896      48
 897 05b9 4839EF   		cmpq	%rbp, %rdi
 898 05bc 752A     		jne	.L194
 899              	.L110:
 900 05be 488B0500 		movq	_ZTVSt15basic_streambufIcSt11char_traitsIcEE@GOTPCREL(%rip), %rax
 900      000000
 901 05c5 488D7B40 		leaq	64(%rbx), %rdi
 902 05c9 4883C010 		addq	$16, %rax
 903 05cd 48894424 		movq	%rax, 72(%rsp)
 903      48
 904 05d2 E8000000 		call	_ZNSt6localeD1Ev@PLT
 904      00
 905 05d7 498B4424 		movq	-24(%r12), %rax
 905      E8
 906 05dc 4C896424 		movq	%r12, 64(%rsp)
 906      40
 907 05e1 4C897C04 		movq	%r15, 64(%rsp,%rax)
 907      40
 908 05e6 EB84     		jmp	.L114
 909              	.L194:
 910 05e8 48833D00 		cmpq	$0, _ZL28__gthrw___pthread_key_createPjPFvPvE@GOTPCREL(%rip)
 910      00000000 
 911 05f0 488D4F10 		leaq	16(%rdi), %rcx
 912 05f4 7417     		je	.L111
 913 05f6 83C8FF   		orl	$-1, %eax
 914 05f9 F00FC101 		lock xaddl	%eax, (%rcx)
 915              	.L112:
 916 05fd 85C0     		testl	%eax, %eax
 917 05ff 7FBD     		jg	.L110
 918 0601 488D7424 		leaq	48(%rsp), %rsi
 918      30
 919 0606 E8000000 		call	_ZNSs4_Rep10_M_destroyERKSaIcE@PLT
 919      00
 920 060b EBB1     		jmp	.L110
 921              	.L111:
 922 060d 8B42F8   		movl	-8(%rdx), %eax
 923 0610 8D48FF   		leal	-1(%rax), %ecx
 924 0613 894AF8   		movl	%ecx, -8(%rdx)
 925 0616 EBE5     		jmp	.L112
 926              		.cfi_endproc
 927              	.LFE1347:
 928              		.globl	__gxx_personality_v0
 929              		.section	.gcc_except_table,"a",@progbits
 930              	.LLSDA1347:
 931 0000 FF       		.byte	0xff
 932 0001 FF       		.byte	0xff
 933 0002 01       		.byte	0x1
 934 0003 3F       		.uleb128 .LLSDACSE1347-.LLSDACSB1347
 935              	.LLSDACSB1347:
 936 0004 C301     		.uleb128 .LEHB0-.LFB1347
 937 0006 05       		.uleb128 .LEHE0-.LEHB0
 938 0007 E90A     		.uleb128 .L157-.LFB1347
 939 0009 00       		.uleb128 0
 940 000a E902     		.uleb128 .LEHB1-.LFB1347
 941 000c 05       		.uleb128 .LEHE1-.LEHB1
 942 000d 9A0B     		.uleb128 .L158-.LFB1347
 943 000f 00       		.uleb128 0
 944 0010 FD02     		.uleb128 .LEHB2-.LFB1347
 945 0012 5B       		.uleb128 .LEHE2-.LEHB2
 946 0013 900B     		.uleb128 .L156-.LFB1347
 947 0015 00       		.uleb128 0
 948 0016 9604     		.uleb128 .LEHB3-.LFB1347
 949 0018 4C       		.uleb128 .LEHE3-.LEHB3
 950 0019 B109     		.uleb128 .L159-.LFB1347
 951 001b 00       		.uleb128 0
 952 001c AA05     		.uleb128 .LEHB4-.LFB1347
 953 001e 05       		.uleb128 .LEHE4-.LEHB4
 954 001f 980B     		.uleb128 .L161-.LFB1347
 955 0021 00       		.uleb128 0
 956 0022 C805     		.uleb128 .LEHB5-.LFB1347
 957 0024 05       		.uleb128 .LEHE5-.LEHB5
 958 0025 B109     		.uleb128 .L159-.LFB1347
 959 0027 00       		.uleb128 0
 960 0028 9506     		.uleb128 .LEHB6-.LFB1347
 961 002a 05       		.uleb128 .LEHE6-.LEHB6
 962 002b C50A     		.uleb128 .L160-.LFB1347
 963 002d 00       		.uleb128 0
 964 002e A507     		.uleb128 .LEHB7-.LFB1347
 965 0030 05       		.uleb128 .LEHE7-.LEHB7
 966 0031 00       		.uleb128 0
 967 0032 00       		.uleb128 0
 968 0033 A709     		.uleb128 .LEHB8-.LFB1347
 969 0035 05       		.uleb128 .LEHE8-.LEHB8
 970 0036 B109     		.uleb128 .L159-.LFB1347
 971 0038 00       		.uleb128 0
 972 0039 D509     		.uleb128 .LEHB9-.LFB1347
 973 003b 05       		.uleb128 .LEHE9-.LEHB9
 974 003c 00       		.uleb128 0
 975 003d 00       		.uleb128 0
 976 003e 8B0B     		.uleb128 .LEHB10-.LFB1347
 977 0040 05       		.uleb128 .LEHE10-.LEHB10
 978 0041 00       		.uleb128 0
 979 0042 00       		.uleb128 0
 980              	.LLSDACSE1347:
 981              		.text
 983              		.section	.text.unlikely
 984              	.LCOLDE6:
 985              		.text
 986              	.LHOTE6:
 987              		.section	.text.unlikely
 988 0027 90       		.align 2
 989              	.LCOLDB7:
 990              		.text
 991              	.LHOTB7:
 992              		.align 2
 993 0618 0F1F8400 		.p2align 4,,15
 993      00000000 
 994              		.globl	_ZN8UnitTest15XmlTestReporterC2ERSo
 996              	_ZN8UnitTest15XmlTestReporterC2ERSo:
 997              	.LFB1359:
 998              		.cfi_startproc
 999 0620 488B0500 		movq	_ZTVN8UnitTest15XmlTestReporterE@GOTPCREL(%rip), %rax
 999      000000
 1000 0627 48C74708 		movq	$0, 8(%rdi)
 1000      00000000 
 1001 062f 48C74710 		movq	$0, 16(%rdi)
 1001      00000000 
 1002 0637 48C74718 		movq	$0, 24(%rdi)
 1002      00000000 
 1003 063f 48897720 		movq	%rsi, 32(%rdi)
 1004 0643 4883C010 		addq	$16, %rax
 1005 0647 488907   		movq	%rax, (%rdi)
 1006 064a C3       		ret
 1007              		.cfi_endproc
 1008              	.LFE1359:
 1010              		.section	.text.unlikely
 1011              	.LCOLDE7:
 1012              		.text
 1013              	.LHOTE7:
 1014              		.globl	_ZN8UnitTest15XmlTestReporterC1ERSo
 1015              		.set	_ZN8UnitTest15XmlTestReporterC1ERSo,_ZN8UnitTest15XmlTestReporterC2ERSo
 1016              		.section	.rodata.str1.1
 1017              	.LC8:
 1018 0007 3C3F786D 		.string	"<?xml version=\"1.0\""
 1018      6C207665 
 1018      7273696F 
 1018      6E3D2231 
 1018      2E302200 
 1019              	.LC9:
 1020 001b 20656E63 		.string	" encoding=\""
 1020      6F64696E 
 1020      673D2200 
 1021              	.LC10:
 1022 0027 2200     		.string	"\""
 1023              	.LC11:
 1024 0029 3F3E00   		.string	"?>"
 1025              		.section	.text.unlikely
 1026              		.align 2
 1027              	.LCOLDB12:
 1028              		.text
 1029              	.LHOTB12:
 1030 064b 90       		.align 2
 1031 064c 0F1F4000 		.p2align 4,,15
 1032              		.globl	_ZN8UnitTest15XmlTestReporter13AddXmlElementERSoPKc
 1034              	_ZN8UnitTest15XmlTestReporter13AddXmlElementERSoPKc:
 1035              	.LFB1362:
 1036              		.cfi_startproc
 1037 0650 55       		pushq	%rbp
 1038              		.cfi_def_cfa_offset 16
 1039              		.cfi_offset 6, -16
 1040 0651 53       		pushq	%rbx
 1041              		.cfi_def_cfa_offset 24
 1042              		.cfi_offset 3, -24
 1043 0652 4889F3   		movq	%rsi, %rbx
 1044 0655 488D3500 		leaq	.LC8(%rip), %rsi
 1044      000000
 1045 065c 4889D5   		movq	%rdx, %rbp
 1046 065f 4889DF   		movq	%rbx, %rdi
 1047 0662 4883EC08 		subq	$8, %rsp
 1048              		.cfi_def_cfa_offset 32
 1049 0666 BA130000 		movl	$19, %edx
 1049      00
 1050 066b E8000000 		call	_ZSt16__ostream_insertIcSt11char_traitsIcEERSt13basic_ostreamIT_T0_ES6_PKS3_l@PLT
 1050      00
 1051 0670 4885ED   		testq	%rbp, %rbp
 1052 0673 743E     		je	.L197
 1053 0675 488D3500 		leaq	.LC9(%rip), %rsi
 1053      000000
 1054 067c BA0B0000 		movl	$11, %edx
 1054      00
 1055 0681 4889DF   		movq	%rbx, %rdi
 1056 0684 E8000000 		call	_ZSt16__ostream_insertIcSt11char_traitsIcEERSt13basic_ostreamIT_T0_ES6_PKS3_l@PLT
 1056      00
 1057 0689 4889EF   		movq	%rbp, %rdi
 1058 068c E8000000 		call	strlen@PLT
 1058      00
 1059 0691 4889EE   		movq	%rbp, %rsi
 1060 0694 4889C2   		movq	%rax, %rdx
 1061 0697 4889DF   		movq	%rbx, %rdi
 1062 069a E8000000 		call	_ZSt16__ostream_insertIcSt11char_traitsIcEERSt13basic_ostreamIT_T0_ES6_PKS3_l@PLT
 1062      00
 1063 069f 488D3500 		leaq	.LC10(%rip), %rsi
 1063      000000
 1064 06a6 BA010000 		movl	$1, %edx
 1064      00
 1065 06ab 4889DF   		movq	%rbx, %rdi
 1066 06ae E8000000 		call	_ZSt16__ostream_insertIcSt11char_traitsIcEERSt13basic_ostreamIT_T0_ES6_PKS3_l@PLT
 1066      00
 1067              	.L197:
 1068 06b3 4883C408 		addq	$8, %rsp
 1069              		.cfi_def_cfa_offset 24
 1070 06b7 4889DF   		movq	%rbx, %rdi
 1071 06ba 488D3500 		leaq	.LC11(%rip), %rsi
 1071      000000
 1072 06c1 5B       		popq	%rbx
 1073              		.cfi_def_cfa_offset 16
 1074 06c2 5D       		popq	%rbp
 1075              		.cfi_def_cfa_offset 8
 1076 06c3 BA020000 		movl	$2, %edx
 1076      00
 1077 06c8 E9000000 		jmp	_ZSt16__ostream_insertIcSt11char_traitsIcEERSt13basic_ostreamIT_T0_ES6_PKS3_l@PLT
 1077      00
 1078              		.cfi_endproc
 1079              	.LFE1362:
 1081              		.section	.text.unlikely
 1082              	.LCOLDE12:
 1083              		.text
 1084              	.LHOTE12:
 1085              		.section	.rodata.str1.1
 1086              	.LC13:
 1087 002c 3C756E69 		.string	"<unittest-results"
 1087      74746573 
 1087      742D7265 
 1087      73756C74 
 1087      7300
 1088              	.LC14:
 1089 003e 20746573 		.string	" tests=\""
 1089      74733D22 
 1089      00
 1090              	.LC15:
 1091 0047 20666169 		.string	" failedtests=\""
 1091      6C656474 
 1091      65737473 
 1091      3D2200
 1092              	.LC16:
 1093 0056 20666169 		.string	" failures=\""
 1093      6C757265 
 1093      733D2200 
 1094              	.LC17:
 1095 0062 2074696D 		.string	" time=\""
 1095      653D2200 
 1096              	.LC18:
 1097 006a 3E00     		.string	">"
 1098              		.section	.text.unlikely
 1099              		.align 2
 1100              	.LCOLDB19:
 1101              		.text
 1102              	.LHOTB19:
 1103 06cd 90       		.align 2
 1104 06ce 6690     		.p2align 4,,15
 1105              		.globl	_ZN8UnitTest15XmlTestReporter12BeginResultsERSoiiif
 1107              	_ZN8UnitTest15XmlTestReporter12BeginResultsERSoiiif:
 1108              	.LFB1363:
 1109              		.cfi_startproc
 1110 06d0 4155     		pushq	%r13
 1111              		.cfi_def_cfa_offset 16
 1112              		.cfi_offset 13, -16
 1113 06d2 4154     		pushq	%r12
 1114              		.cfi_def_cfa_offset 24
 1115              		.cfi_offset 12, -24
 1116 06d4 4189D5   		movl	%edx, %r13d
 1117 06d7 55       		pushq	%rbp
 1118              		.cfi_def_cfa_offset 32
 1119              		.cfi_offset 6, -32
 1120 06d8 53       		pushq	%rbx
 1121              		.cfi_def_cfa_offset 40
 1122              		.cfi_offset 3, -40
 1123 06d9 4889F3   		movq	%rsi, %rbx
 1124 06dc 488D3500 		leaq	.LC13(%rip), %rsi
 1124      000000
 1125 06e3 4889DF   		movq	%rbx, %rdi
 1126 06e6 BA110000 		movl	$17, %edx
 1126      00
 1127 06eb 4883EC18 		subq	$24, %rsp
 1128              		.cfi_def_cfa_offset 64
 1129 06ef 4189CC   		movl	%ecx, %r12d
 1130 06f2 4489C5   		movl	%r8d, %ebp
 1131 06f5 F30F1144 		movss	%xmm0, 12(%rsp)
 1131      240C
 1132 06fb E8000000 		call	_ZSt16__ostream_insertIcSt11char_traitsIcEERSt13basic_ostreamIT_T0_ES6_PKS3_l@PLT
 1132      00
 1133 0700 488D3500 		leaq	.LC14(%rip), %rsi
 1133      000000
 1134 0707 BA080000 		movl	$8, %edx
 1134      00
 1135 070c 4889DF   		movq	%rbx, %rdi
 1136 070f E8000000 		call	_ZSt16__ostream_insertIcSt11char_traitsIcEERSt13basic_ostreamIT_T0_ES6_PKS3_l@PLT
 1136      00
 1137 0714 4489EE   		movl	%r13d, %esi
 1138 0717 4889DF   		movq	%rbx, %rdi
 1139 071a E8000000 		call	_ZNSolsEi@PLT
 1139      00
 1140 071f 488D3500 		leaq	.LC10(%rip), %rsi
 1140      000000
 1141 0726 BA010000 		movl	$1, %edx
 1141      00
 1142 072b 4889C7   		movq	%rax, %rdi
 1143 072e 4889C3   		movq	%rax, %rbx
 1144 0731 E8000000 		call	_ZSt16__ostream_insertIcSt11char_traitsIcEERSt13basic_ostreamIT_T0_ES6_PKS3_l@PLT
 1144      00
 1145 0736 488D3500 		leaq	.LC15(%rip), %rsi
 1145      000000
 1146 073d BA0E0000 		movl	$14, %edx
 1146      00
 1147 0742 4889DF   		movq	%rbx, %rdi
 1148 0745 E8000000 		call	_ZSt16__ostream_insertIcSt11char_traitsIcEERSt13basic_ostreamIT_T0_ES6_PKS3_l@PLT
 1148      00
 1149 074a 4489E6   		movl	%r12d, %esi
 1150 074d 4889DF   		movq	%rbx, %rdi
 1151 0750 E8000000 		call	_ZNSolsEi@PLT
 1151      00
 1152 0755 488D3500 		leaq	.LC10(%rip), %rsi
 1152      000000
 1153 075c BA010000 		movl	$1, %edx
 1153      00
 1154 0761 4889C7   		movq	%rax, %rdi
 1155 0764 4889C3   		movq	%rax, %rbx
 1156 0767 E8000000 		call	_ZSt16__ostream_insertIcSt11char_traitsIcEERSt13basic_ostreamIT_T0_ES6_PKS3_l@PLT
 1156      00
 1157 076c 488D3500 		leaq	.LC16(%rip), %rsi
 1157      000000
 1158 0773 BA0B0000 		movl	$11, %edx
 1158      00
 1159 0778 4889DF   		movq	%rbx, %rdi
 1160 077b E8000000 		call	_ZSt16__ostream_insertIcSt11char_traitsIcEERSt13basic_ostreamIT_T0_ES6_PKS3_l@PLT
 1160      00
 1161 0780 89EE     		movl	%ebp, %esi
 1162 0782 4889DF   		movq	%rbx, %rdi
 1163 0785 E8000000 		call	_ZNSolsEi@PLT
 1163      00
 1164 078a 488D3500 		leaq	.LC10(%rip), %rsi
 1164      000000
 1165 0791 BA010000 		movl	$1, %edx
 1165      00
 1166 0796 4889C7   		movq	%rax, %rdi
 1167 0799 4889C3   		movq	%rax, %rbx
 1168 079c E8000000 		call	_ZSt16__ostream_insertIcSt11char_traitsIcEERSt13basic_ostreamIT_T0_ES6_PKS3_l@PLT
 1168      00
 1169 07a1 488D3500 		leaq	.LC17(%rip), %rsi
 1169      000000
 1170 07a8 BA070000 		movl	$7, %edx
 1170      00
 1171 07ad 4889DF   		movq	%rbx, %rdi
 1172 07b0 E8000000 		call	_ZSt16__ostream_insertIcSt11char_traitsIcEERSt13basic_ostreamIT_T0_ES6_PKS3_l@PLT
 1172      00
 1173 07b5 F30F1044 		movss	12(%rsp), %xmm0
 1173      240C
 1174 07bb 4889DF   		movq	%rbx, %rdi
 1175 07be F30F5AC0 		cvtss2sd	%xmm0, %xmm0
 1176 07c2 E8000000 		call	_ZNSo9_M_insertIdEERSoT_@PLT
 1176      00
 1177 07c7 488D3500 		leaq	.LC10(%rip), %rsi
 1177      000000
 1178 07ce BA010000 		movl	$1, %edx
 1178      00
 1179 07d3 4889C7   		movq	%rax, %rdi
 1180 07d6 4889C3   		movq	%rax, %rbx
 1181 07d9 E8000000 		call	_ZSt16__ostream_insertIcSt11char_traitsIcEERSt13basic_ostreamIT_T0_ES6_PKS3_l@PLT
 1181      00
 1182 07de 4883C418 		addq	$24, %rsp
 1183              		.cfi_def_cfa_offset 40
 1184 07e2 4889DF   		movq	%rbx, %rdi
 1185 07e5 488D3500 		leaq	.LC18(%rip), %rsi
 1185      000000
 1186 07ec 5B       		popq	%rbx
 1187              		.cfi_def_cfa_offset 32
 1188 07ed 5D       		popq	%rbp
 1189              		.cfi_def_cfa_offset 24
 1190 07ee 415C     		popq	%r12
 1191              		.cfi_def_cfa_offset 16
 1192 07f0 415D     		popq	%r13
 1193              		.cfi_def_cfa_offset 8
 1194 07f2 BA010000 		movl	$1, %edx
 1194      00
 1195 07f7 E9000000 		jmp	_ZSt16__ostream_insertIcSt11char_traitsIcEERSt13basic_ostreamIT_T0_ES6_PKS3_l@PLT
 1195      00
 1196              		.cfi_endproc
 1197              	.LFE1363:
 1199              		.section	.text.unlikely
 1200              	.LCOLDE19:
 1201              		.text
 1202              	.LHOTE19:
 1203              		.section	.rodata.str1.1
 1204              	.LC20:
 1205 006c 3C2F756E 		.string	"</unittest-results>"
 1205      69747465 
 1205      73742D72 
 1205      6573756C 
 1205      74733E00 
 1206              		.section	.text.unlikely
 1207              		.align 2
 1208              	.LCOLDB21:
 1209              		.text
 1210              	.LHOTB21:
 1211              		.align 2
 1212 07fc 0F1F4000 		.p2align 4,,15
 1213              		.globl	_ZN8UnitTest15XmlTestReporter10EndResultsERSo
 1215              	_ZN8UnitTest15XmlTestReporter10EndResultsERSo:
 1216              	.LFB1364:
 1217              		.cfi_startproc
 1218 0800 4889F7   		movq	%rsi, %rdi
 1219 0803 488D3500 		leaq	.LC20(%rip), %rsi
 1219      000000
 1220 080a BA130000 		movl	$19, %edx
 1220      00
 1221 080f E9000000 		jmp	_ZSt16__ostream_insertIcSt11char_traitsIcEERSt13basic_ostreamIT_T0_ES6_PKS3_l@PLT
 1221      00
 1222              		.cfi_endproc
 1223              	.LFE1364:
 1225              		.section	.text.unlikely
 1226              	.LCOLDE21:
 1227              		.text
 1228              	.LHOTE21:
 1229              		.section	.rodata.str1.1
 1230              	.LC22:
 1231 0080 3C746573 		.string	"<test"
 1231      7400
 1232              	.LC23:
 1233 0086 20737569 		.string	" suite=\""
 1233      74653D22 
 1233      00
 1234              	.LC24:
 1235 008f 206E616D 		.string	" name=\""
 1235      653D2200 
 1236              		.section	.text.unlikely
 1237              		.align 2
 1238              	.LCOLDB25:
 1239              		.text
 1240              	.LHOTB25:
 1241              		.align 2
 1242 0814 6690662E 		.p2align 4,,15
 1242      0F1F8400 
 1242      00000000 
 1243              		.globl	_ZN8UnitTest15XmlTestReporter9BeginTestERSoRKNS_18DeferredTestResultE
 1245              	_ZN8UnitTest15XmlTestReporter9BeginTestERSoRKNS_18DeferredTestResultE:
 1246              	.LFB1365:
 1247              		.cfi_startproc
 1248 0820 55       		pushq	%rbp
 1249              		.cfi_def_cfa_offset 16
 1250              		.cfi_offset 6, -16
 1251 0821 53       		pushq	%rbx
 1252              		.cfi_def_cfa_offset 24
 1253              		.cfi_offset 3, -24
 1254 0822 4889F3   		movq	%rsi, %rbx
 1255 0825 488D3500 		leaq	.LC22(%rip), %rsi
 1255      000000
 1256 082c 4889D5   		movq	%rdx, %rbp
 1257 082f 4889DF   		movq	%rbx, %rdi
 1258 0832 4883EC18 		subq	$24, %rsp
 1259              		.cfi_def_cfa_offset 48
 1260 0836 F30F104A 		movss	48(%rdx), %xmm1
 1260      30
 1261 083b BA050000 		movl	$5, %edx
 1261      00
 1262 0840 F30F114C 		movss	%xmm1, 12(%rsp)
 1262      240C
 1263 0846 E8000000 		call	_ZSt16__ostream_insertIcSt11char_traitsIcEERSt13basic_ostreamIT_T0_ES6_PKS3_l@PLT
 1263      00
 1264 084b 488D3500 		leaq	.LC23(%rip), %rsi
 1264      000000
 1265 0852 4889DF   		movq	%rbx, %rdi
 1266 0855 BA080000 		movl	$8, %edx
 1266      00
 1267 085a E8000000 		call	_ZSt16__ostream_insertIcSt11char_traitsIcEERSt13basic_ostreamIT_T0_ES6_PKS3_l@PLT
 1267      00
 1268 085f 488B7500 		movq	0(%rbp), %rsi
 1269 0863 4889DF   		movq	%rbx, %rdi
 1270 0866 488B56E8 		movq	-24(%rsi), %rdx
 1271 086a E8000000 		call	_ZSt16__ostream_insertIcSt11char_traitsIcEERSt13basic_ostreamIT_T0_ES6_PKS3_l@PLT
 1271      00
 1272 086f 488D3500 		leaq	.LC10(%rip), %rsi
 1272      000000
 1273 0876 BA010000 		movl	$1, %edx
 1273      00
 1274 087b 4889C7   		movq	%rax, %rdi
 1275 087e 4889C3   		movq	%rax, %rbx
 1276 0881 E8000000 		call	_ZSt16__ostream_insertIcSt11char_traitsIcEERSt13basic_ostreamIT_T0_ES6_PKS3_l@PLT
 1276      00
 1277 0886 488D3500 		leaq	.LC24(%rip), %rsi
 1277      000000
 1278 088d 4889DF   		movq	%rbx, %rdi
 1279 0890 BA070000 		movl	$7, %edx
 1279      00
 1280 0895 E8000000 		call	_ZSt16__ostream_insertIcSt11char_traitsIcEERSt13basic_ostreamIT_T0_ES6_PKS3_l@PLT
 1280      00
 1281 089a 488B7508 		movq	8(%rbp), %rsi
 1282 089e 4889DF   		movq	%rbx, %rdi
 1283 08a1 488B56E8 		movq	-24(%rsi), %rdx
 1284 08a5 E8000000 		call	_ZSt16__ostream_insertIcSt11char_traitsIcEERSt13basic_ostreamIT_T0_ES6_PKS3_l@PLT
 1284      00
 1285 08aa 488D3500 		leaq	.LC10(%rip), %rsi
 1285      000000
 1286 08b1 BA010000 		movl	$1, %edx
 1286      00
 1287 08b6 4889C7   		movq	%rax, %rdi
 1288 08b9 4889C3   		movq	%rax, %rbx
 1289 08bc E8000000 		call	_ZSt16__ostream_insertIcSt11char_traitsIcEERSt13basic_ostreamIT_T0_ES6_PKS3_l@PLT
 1289      00
 1290 08c1 488D3500 		leaq	.LC17(%rip), %rsi
 1290      000000
 1291 08c8 BA070000 		movl	$7, %edx
 1291      00
 1292 08cd 4889DF   		movq	%rbx, %rdi
 1293 08d0 E8000000 		call	_ZSt16__ostream_insertIcSt11char_traitsIcEERSt13basic_ostreamIT_T0_ES6_PKS3_l@PLT
 1293      00
 1294 08d5 660FEFC0 		pxor	%xmm0, %xmm0
 1295 08d9 4889DF   		movq	%rbx, %rdi
 1296 08dc F30F5A44 		cvtss2sd	12(%rsp), %xmm0
 1296      240C
 1297 08e2 E8000000 		call	_ZNSo9_M_insertIdEERSoT_@PLT
 1297      00
 1298 08e7 4883C418 		addq	$24, %rsp
 1299              		.cfi_def_cfa_offset 24
 1300 08eb 488D3500 		leaq	.LC10(%rip), %rsi
 1300      000000
 1301 08f2 BA010000 		movl	$1, %edx
 1301      00
 1302 08f7 5B       		popq	%rbx
 1303              		.cfi_def_cfa_offset 16
 1304 08f8 5D       		popq	%rbp
 1305              		.cfi_def_cfa_offset 8
 1306 08f9 4889C7   		movq	%rax, %rdi
 1307 08fc E9000000 		jmp	_ZSt16__ostream_insertIcSt11char_traitsIcEERSt13basic_ostreamIT_T0_ES6_PKS3_l@PLT
 1307      00
 1308              		.cfi_endproc
 1309              	.LFE1365:
 1311              		.section	.text.unlikely
 1312              	.LCOLDE25:
 1313              		.text
 1314              	.LHOTE25:
 1315              		.section	.rodata.str1.1
 1316              	.LC26:
 1317 0097 3C2F7465 		.string	"</test>"
 1317      73743E00 
 1318              	.LC27:
 1319 009f 2F3E00   		.string	"/>"
 1320              		.section	.text.unlikely
 1321              		.align 2
 1322              	.LCOLDB28:
 1323              		.text
 1324              	.LHOTB28:
 1325 0901 90       		.align 2
 1326 0902 0F1F4000 		.p2align 4,,15
 1326      662E0F1F 
 1326      84000000 
 1326      0000
 1327              		.globl	_ZN8UnitTest15XmlTestReporter7EndTestERSoRKNS_18DeferredTestResultE
 1329              	_ZN8UnitTest15XmlTestReporter7EndTestERSoRKNS_18DeferredTestResultE:
 1330              	.LFB1366:
 1331              		.cfi_startproc
 1332 0910 807A3400 		cmpb	$0, 52(%rdx)
 1333 0914 4889F7   		movq	%rsi, %rdi
 1334 0917 7517     		jne	.L209
 1335 0919 488D3500 		leaq	.LC27(%rip), %rsi
 1335      000000
 1336 0920 BA020000 		movl	$2, %edx
 1336      00
 1337 0925 E9000000 		jmp	_ZSt16__ostream_insertIcSt11char_traitsIcEERSt13basic_ostreamIT_T0_ES6_PKS3_l@PLT
 1337      00
 1338 092a 660F1F44 		.p2align 4,,10
 1338      0000
 1339              		.p2align 3
 1340              	.L209:
 1341 0930 488D3500 		leaq	.LC26(%rip), %rsi
 1341      000000
 1342 0937 BA070000 		movl	$7, %edx
 1342      00
 1343 093c E9000000 		jmp	_ZSt16__ostream_insertIcSt11char_traitsIcEERSt13basic_ostreamIT_T0_ES6_PKS3_l@PLT
 1343      00
 1344              		.cfi_endproc
 1345              	.LFE1366:
 1347              		.section	.text.unlikely
 1348              	.LCOLDE28:
 1349              		.text
 1350              	.LHOTE28:
 1351              		.section	.rodata.str1.1
 1352              	.LC29:
 1353 00a2 26616D70 		.string	"&amp;"
 1353      3B00
 1354              	.LC30:
 1355 00a8 266C743B 		.string	"&lt;"
 1355      00
 1356              	.LC31:
 1357 00ad 2667743B 		.string	"&gt;"
 1357      00
 1358              	.LC32:
 1359 00b2 2661706F 		.string	"&apos;"
 1359      733B00
 1360              	.LC33:
 1361 00b9 2671756F 		.string	"&quot;"
 1361      743B00
 1362              	.LC34:
 1363 00c0 3C666169 		.string	"<failure"
 1363      6C757265 
 1363      00
 1364              	.LC35:
 1365 00c9 206D6573 		.string	" message=\""
 1365      73616765 
 1365      3D2200
 1366              		.section	.text.unlikely
 1367              		.align 2
 1368              	.LCOLDB36:
 1369              		.text
 1370              	.LHOTB36:
 1371 0941 90       		.align 2
 1372 0942 0F1F4000 		.p2align 4,,15
 1372      662E0F1F 
 1372      84000000 
 1372      0000
 1373              		.globl	_ZN8UnitTest15XmlTestReporter10AddFailureERSoRKNS_18DeferredTestResultE
 1375              	_ZN8UnitTest15XmlTestReporter10AddFailureERSoRKNS_18DeferredTestResultE:
 1376              	.LFB1367:
 1377              		.cfi_startproc
 1378              		.cfi_personality 0x9b,DW.ref.__gxx_personality_v0
 1379              		.cfi_lsda 0x1b,.LLSDA1367
 1380 0950 4157     		pushq	%r15
 1381              		.cfi_def_cfa_offset 16
 1382              		.cfi_offset 15, -16
 1383 0952 4156     		pushq	%r14
 1384              		.cfi_def_cfa_offset 24
 1385              		.cfi_offset 14, -24
 1386 0954 4989F7   		movq	%rsi, %r15
 1387 0957 4155     		pushq	%r13
 1388              		.cfi_def_cfa_offset 32
 1389              		.cfi_offset 13, -32
 1390 0959 4154     		pushq	%r12
 1391              		.cfi_def_cfa_offset 40
 1392              		.cfi_offset 12, -40
 1393 095b 488D3500 		leaq	.LC18(%rip), %rsi
 1393      000000
 1394 0962 55       		pushq	%rbp
 1395              		.cfi_def_cfa_offset 48
 1396              		.cfi_offset 6, -48
 1397 0963 53       		pushq	%rbx
 1398              		.cfi_def_cfa_offset 56
 1399              		.cfi_offset 3, -56
 1400 0964 4C89FF   		movq	%r15, %rdi
 1401 0967 4889D3   		movq	%rdx, %rbx
 1402 096a 4881ECA8 		subq	$168, %rsp
 1402      000000
 1403              		.cfi_def_cfa_offset 224
 1404 0971 48895424 		movq	%rdx, 16(%rsp)
 1404      10
 1405 0976 BA010000 		movl	$1, %edx
 1405      00
 1406 097b 64488B04 		movq	%fs:40, %rax
 1406      25280000 
 1406      00
 1407 0984 48898424 		movq	%rax, 152(%rsp)
 1407      98000000 
 1408 098c 31C0     		xorl	%eax, %eax
 1409              	.LEHB11:
 1410 098e E8000000 		call	_ZSt16__ostream_insertIcSt11char_traitsIcEERSt13basic_ostreamIT_T0_ES6_PKS3_l@PLT
 1410      00
 1411 0993 4C8B7318 		movq	24(%rbx), %r14
 1412 0997 4C3B7320 		cmpq	32(%rbx), %r14
 1413 099b 4889D8   		movq	%rbx, %rax
 1414 099e 0F842D03 		je	.L210
 1414      0000
 1415 09a4 488DB424 		leaq	128(%rsp), %rsi
 1415      80000000 
 1416 09ac 4C8B2500 		movq	_ZNSs4_Rep20_S_empty_rep_storageE@GOTPCREL(%rip), %r12
 1416      000000
 1417 09b3 4883C010 		addq	$16, %rax
 1418 09b7 488D5C24 		leaq	64(%rsp), %rbx
 1418      40
 1419 09bc 4C8DAC24 		leaq	144(%rsp), %r13
 1419      90000000 
 1420 09c4 48894424 		movq	%rax, 40(%rsp)
 1420      28
 1421 09c9 48893424 		movq	%rsi, (%rsp)
 1422 09cd 488D7424 		leaq	112(%rsp), %rsi
 1422      70
 1423 09d2 48897424 		movq	%rsi, 8(%rsp)
 1423      08
 1424 09d7 488D7424 		leaq	96(%rsp), %rsi
 1424      60
 1425 09dc 48897424 		movq	%rsi, 24(%rsp)
 1425      18
 1426 09e1 488D7424 		leaq	80(%rsp), %rsi
 1426      50
 1427 09e6 48897424 		movq	%rsi, 32(%rsp)
 1427      20
 1428 09eb 0F1F4400 		.p2align 4,,10
 1428      00
 1429              		.p2align 3
 1430              	.L275:
 1431 09f0 498D7608 		leaq	8(%r14), %rsi
 1432 09f4 4889DF   		movq	%rbx, %rdi
 1433 09f7 E8000000 		call	_ZNSsC1ERKSs@PLT
 1433      00
 1434              	.LEHE11:
 1435 09fc 488B1424 		movq	(%rsp), %rdx
 1436 0a00 488D3500 		leaq	.LC29(%rip), %rsi
 1436      000000
 1437 0a07 4C89EF   		movq	%r13, %rdi
 1438              	.LEHB12:
 1439 0a0a E8000000 		call	_ZNSsC1EPKcRKSaIcE@PLT
 1439      00
 1440              	.LEHE12:
 1441 0a0f 31D2     		xorl	%edx, %edx
 1442 0a11 BE260000 		movl	$38, %esi
 1442      00
 1443 0a16 4889DF   		movq	%rbx, %rdi
 1444              	.LEHB13:
 1445 0a19 E8000000 		call	_ZNKSs4findEcm@PLT
 1445      00
 1446 0a1e EB2D     		jmp	.L305
 1447              		.p2align 4,,10
 1448              		.p2align 3
 1449              	.L295:
 1450 0a20 488B8C24 		movq	144(%rsp), %rcx
 1450      90000000 
 1451 0a28 BA010000 		movl	$1, %edx
 1451      00
 1452 0a2d 4889C6   		movq	%rax, %rsi
 1453 0a30 4889DF   		movq	%rbx, %rdi
 1454 0a33 4C8B41E8 		movq	-24(%rcx), %r8
 1455 0a37 E8000000 		call	_ZNSs7replaceEmmPKcm@PLT
 1455      00
 1456 0a3c 488D5501 		leaq	1(%rbp), %rdx
 1457 0a40 BE260000 		movl	$38, %esi
 1457      00
 1458 0a45 4889DF   		movq	%rbx, %rdi
 1459 0a48 E8000000 		call	_ZNKSs4findEcm@PLT
 1459      00
 1460              	.LEHE13:
 1461              	.L305:
 1462 0a4d 4883F8FF 		cmpq	$-1, %rax
 1463 0a51 4889C5   		movq	%rax, %rbp
 1464 0a54 75CA     		jne	.L295
 1465 0a56 488B8424 		movq	144(%rsp), %rax
 1465      90000000 
 1466 0a5e 488D78E8 		leaq	-24(%rax), %rdi
 1467 0a62 4C39E7   		cmpq	%r12, %rdi
 1468 0a65 0F857803 		jne	.L322
 1468      0000
 1469              	.L217:
 1470 0a6b 488B3C24 		movq	(%rsp), %rdi
 1471 0a6f 488D3500 		leaq	.LC30(%rip), %rsi
 1471      000000
 1472 0a76 4C89EA   		movq	%r13, %rdx
 1473              	.LEHB14:
 1474 0a79 E8000000 		call	_ZNSsC1EPKcRKSaIcE@PLT
 1474      00
 1475              	.LEHE14:
 1476 0a7e 31D2     		xorl	%edx, %edx
 1477 0a80 BE3C0000 		movl	$60, %esi
 1477      00
 1478 0a85 4889DF   		movq	%rbx, %rdi
 1479              	.LEHB15:
 1480 0a88 E8000000 		call	_ZNKSs4findEcm@PLT
 1480      00
 1481 0a8d EB2E     		jmp	.L307
 1482 0a8f 90       		.p2align 4,,10
 1483              		.p2align 3
 1484              	.L294:
 1485 0a90 488B8C24 		movq	128(%rsp), %rcx
 1485      80000000 
 1486 0a98 BA010000 		movl	$1, %edx
 1486      00
 1487 0a9d 4889C6   		movq	%rax, %rsi
 1488 0aa0 4889DF   		movq	%rbx, %rdi
 1489 0aa3 4C8B41E8 		movq	-24(%rcx), %r8
 1490 0aa7 E8000000 		call	_ZNSs7replaceEmmPKcm@PLT
 1490      00
 1491 0aac 488D5501 		leaq	1(%rbp), %rdx
 1492 0ab0 BE3C0000 		movl	$60, %esi
 1492      00
 1493 0ab5 4889DF   		movq	%rbx, %rdi
 1494 0ab8 E8000000 		call	_ZNKSs4findEcm@PLT
 1494      00
 1495              	.LEHE15:
 1496              	.L307:
 1497 0abd 4883F8FF 		cmpq	$-1, %rax
 1498 0ac1 4889C5   		movq	%rax, %rbp
 1499 0ac4 75CA     		jne	.L294
 1500 0ac6 488B8424 		movq	128(%rsp), %rax
 1500      80000000 
 1501 0ace 488D78E8 		leaq	-24(%rax), %rdi
 1502 0ad2 4C39E7   		cmpq	%r12, %rdi
 1503 0ad5 0F853503 		jne	.L323
 1503      0000
 1504              	.L225:
 1505 0adb 488B7C24 		movq	8(%rsp), %rdi
 1505      08
 1506 0ae0 488D3500 		leaq	.LC31(%rip), %rsi
 1506      000000
 1507 0ae7 4C89EA   		movq	%r13, %rdx
 1508              	.LEHB16:
 1509 0aea E8000000 		call	_ZNSsC1EPKcRKSaIcE@PLT
 1509      00
 1510              	.LEHE16:
 1511 0aef 31D2     		xorl	%edx, %edx
 1512 0af1 BE3E0000 		movl	$62, %esi
 1512      00
 1513 0af6 4889DF   		movq	%rbx, %rdi
 1514              	.LEHB17:
 1515 0af9 E8000000 		call	_ZNKSs4findEcm@PLT
 1515      00
 1516 0afe EB2A     		jmp	.L309
 1517              		.p2align 4,,10
 1518              		.p2align 3
 1519              	.L293:
 1520 0b00 488B4C24 		movq	112(%rsp), %rcx
 1520      70
 1521 0b05 BA010000 		movl	$1, %edx
 1521      00
 1522 0b0a 4889C6   		movq	%rax, %rsi
 1523 0b0d 4889DF   		movq	%rbx, %rdi
 1524 0b10 4C8B41E8 		movq	-24(%rcx), %r8
 1525 0b14 E8000000 		call	_ZNSs7replaceEmmPKcm@PLT
 1525      00
 1526 0b19 488D5501 		leaq	1(%rbp), %rdx
 1527 0b1d BE3E0000 		movl	$62, %esi
 1527      00
 1528 0b22 4889DF   		movq	%rbx, %rdi
 1529 0b25 E8000000 		call	_ZNKSs4findEcm@PLT
 1529      00
 1530              	.LEHE17:
 1531              	.L309:
 1532 0b2a 4883F8FF 		cmpq	$-1, %rax
 1533 0b2e 4889C5   		movq	%rax, %rbp
 1534 0b31 75CD     		jne	.L293
 1535 0b33 488B4424 		movq	112(%rsp), %rax
 1535      70
 1536 0b38 488D78E8 		leaq	-24(%rax), %rdi
 1537 0b3c 4C39E7   		cmpq	%r12, %rdi
 1538 0b3f 0F856E02 		jne	.L324
 1538      0000
 1539              	.L233:
 1540 0b45 488B7C24 		movq	24(%rsp), %rdi
 1540      18
 1541 0b4a 488D3500 		leaq	.LC32(%rip), %rsi
 1541      000000
 1542 0b51 4C89EA   		movq	%r13, %rdx
 1543              	.LEHB18:
 1544 0b54 E8000000 		call	_ZNSsC1EPKcRKSaIcE@PLT
 1544      00
 1545              	.LEHE18:
 1546 0b59 31D2     		xorl	%edx, %edx
 1547 0b5b BE270000 		movl	$39, %esi
 1547      00
 1548 0b60 4889DF   		movq	%rbx, %rdi
 1549              	.LEHB19:
 1550 0b63 E8000000 		call	_ZNKSs4findEcm@PLT
 1550      00
 1551 0b68 EB30     		jmp	.L311
 1552 0b6a 660F1F44 		.p2align 4,,10
 1552      0000
 1553              		.p2align 3
 1554              	.L292:
 1555 0b70 488B4C24 		movq	96(%rsp), %rcx
 1555      60
 1556 0b75 BA010000 		movl	$1, %edx
 1556      00
 1557 0b7a 4889C6   		movq	%rax, %rsi
 1558 0b7d 4889DF   		movq	%rbx, %rdi
 1559 0b80 4C8B41E8 		movq	-24(%rcx), %r8
 1560 0b84 E8000000 		call	_ZNSs7replaceEmmPKcm@PLT
 1560      00
 1561 0b89 488D5501 		leaq	1(%rbp), %rdx
 1562 0b8d BE270000 		movl	$39, %esi
 1562      00
 1563 0b92 4889DF   		movq	%rbx, %rdi
 1564 0b95 E8000000 		call	_ZNKSs4findEcm@PLT
 1564      00
 1565              	.LEHE19:
 1566              	.L311:
 1567 0b9a 4883F8FF 		cmpq	$-1, %rax
 1568 0b9e 4889C5   		movq	%rax, %rbp
 1569 0ba1 75CD     		jne	.L292
 1570 0ba3 488B4424 		movq	96(%rsp), %rax
 1570      60
 1571 0ba8 488D78E8 		leaq	-24(%rax), %rdi
 1572 0bac 4C39E7   		cmpq	%r12, %rdi
 1573 0baf 0F85CE01 		jne	.L325
 1573      0000
 1574              	.L241:
 1575 0bb5 488B7C24 		movq	32(%rsp), %rdi
 1575      20
 1576 0bba 488D3500 		leaq	.LC33(%rip), %rsi
 1576      000000
 1577 0bc1 4C89EA   		movq	%r13, %rdx
 1578              	.LEHB20:
 1579 0bc4 E8000000 		call	_ZNSsC1EPKcRKSaIcE@PLT
 1579      00
 1580              	.LEHE20:
 1581 0bc9 31D2     		xorl	%edx, %edx
 1582 0bcb BE220000 		movl	$34, %esi
 1582      00
 1583 0bd0 4889DF   		movq	%rbx, %rdi
 1584              	.LEHB21:
 1585 0bd3 E8000000 		call	_ZNKSs4findEcm@PLT
 1585      00
 1586 0bd8 EB30     		jmp	.L313
 1587 0bda 660F1F44 		.p2align 4,,10
 1587      0000
 1588              		.p2align 3
 1589              	.L291:
 1590 0be0 488B4C24 		movq	80(%rsp), %rcx
 1590      50
 1591 0be5 BA010000 		movl	$1, %edx
 1591      00
 1592 0bea 4889C6   		movq	%rax, %rsi
 1593 0bed 4889DF   		movq	%rbx, %rdi
 1594 0bf0 4C8B41E8 		movq	-24(%rcx), %r8
 1595 0bf4 E8000000 		call	_ZNSs7replaceEmmPKcm@PLT
 1595      00
 1596 0bf9 488D5501 		leaq	1(%rbp), %rdx
 1597 0bfd BE220000 		movl	$34, %esi
 1597      00
 1598 0c02 4889DF   		movq	%rbx, %rdi
 1599 0c05 E8000000 		call	_ZNKSs4findEcm@PLT
 1599      00
 1600              	.LEHE21:
 1601              	.L313:
 1602 0c0a 4883F8FF 		cmpq	$-1, %rax
 1603 0c0e 4889C5   		movq	%rax, %rbp
 1604 0c11 75CD     		jne	.L291
 1605 0c13 488B4424 		movq	80(%rsp), %rax
 1605      50
 1606 0c18 488D78E8 		leaq	-24(%rax), %rdi
 1607 0c1c 4C39E7   		cmpq	%r12, %rdi
 1608 0c1f 0F852E01 		jne	.L326
 1608      0000
 1609              	.L249:
 1610 0c25 418B16   		movl	(%r14), %edx
 1611 0c28 488B7424 		movq	40(%rsp), %rsi
 1611      28
 1612 0c2d 4889D9   		movq	%rbx, %rcx
 1613 0c30 4C89EF   		movq	%r13, %rdi
 1614              	.LEHB22:
 1615 0c33 E8C8F3FF 		call	_ZN12_GLOBAL__N_119BuildFailureMessageERKSsiS1_
 1615      FF
 1616              	.LEHE22:
 1617 0c38 488D3500 		leaq	.LC34(%rip), %rsi
 1617      000000
 1618 0c3f BA080000 		movl	$8, %edx
 1618      00
 1619 0c44 4C89FF   		movq	%r15, %rdi
 1620              	.LEHB23:
 1621 0c47 E8000000 		call	_ZSt16__ostream_insertIcSt11char_traitsIcEERSt13basic_ostreamIT_T0_ES6_PKS3_l@PLT
 1621      00
 1622 0c4c 488D3500 		leaq	.LC35(%rip), %rsi
 1622      000000
 1623 0c53 BA0A0000 		movl	$10, %edx
 1623      00
 1624 0c58 4C89FF   		movq	%r15, %rdi
 1625 0c5b E8000000 		call	_ZSt16__ostream_insertIcSt11char_traitsIcEERSt13basic_ostreamIT_T0_ES6_PKS3_l@PLT
 1625      00
 1626 0c60 488BB424 		movq	144(%rsp), %rsi
 1626      90000000 
 1627 0c68 4C89FF   		movq	%r15, %rdi
 1628 0c6b 488B56E8 		movq	-24(%rsi), %rdx
 1629 0c6f E8000000 		call	_ZSt16__ostream_insertIcSt11char_traitsIcEERSt13basic_ostreamIT_T0_ES6_PKS3_l@PLT
 1629      00
 1630 0c74 488D3500 		leaq	.LC10(%rip), %rsi
 1630      000000
 1631 0c7b BA010000 		movl	$1, %edx
 1631      00
 1632 0c80 4889C7   		movq	%rax, %rdi
 1633 0c83 4889C5   		movq	%rax, %rbp
 1634 0c86 E8000000 		call	_ZSt16__ostream_insertIcSt11char_traitsIcEERSt13basic_ostreamIT_T0_ES6_PKS3_l@PLT
 1634      00
 1635 0c8b 488D3500 		leaq	.LC27(%rip), %rsi
 1635      000000
 1636 0c92 BA020000 		movl	$2, %edx
 1636      00
 1637 0c97 4889EF   		movq	%rbp, %rdi
 1638 0c9a E8000000 		call	_ZSt16__ostream_insertIcSt11char_traitsIcEERSt13basic_ostreamIT_T0_ES6_PKS3_l@PLT
 1638      00
 1639              	.LEHE23:
 1640 0c9f 488B8424 		movq	144(%rsp), %rax
 1640      90000000 
 1641 0ca7 488D78E8 		leaq	-24(%rax), %rdi
 1642 0cab 4C39E7   		cmpq	%r12, %rdi
 1643 0cae 7573     		jne	.L327
 1644              	.L266:
 1645 0cb0 488B4424 		movq	64(%rsp), %rax
 1645      40
 1646 0cb5 488D78E8 		leaq	-24(%rax), %rdi
 1647 0cb9 4C39E7   		cmpq	%r12, %rdi
 1648 0cbc 753C     		jne	.L328
 1649              	.L271:
 1650 0cbe 488B4424 		movq	16(%rsp), %rax
 1650      10
 1651 0cc3 4983C610 		addq	$16, %r14
 1652 0cc7 4C397020 		cmpq	%r14, 32(%rax)
 1653 0ccb 0F851FFD 		jne	.L275
 1653      FFFF
 1654              	.L210:
 1655 0cd1 488B8424 		movq	152(%rsp), %rax
 1655      98000000 
 1656 0cd9 64483304 		xorq	%fs:40, %rax
 1656      25280000 
 1656      00
 1657 0ce2 0F85A402 		jne	.L329
 1657      0000
 1658 0ce8 4881C4A8 		addq	$168, %rsp
 1658      000000
 1659              		.cfi_remember_state
 1660              		.cfi_def_cfa_offset 56
 1661 0cef 5B       		popq	%rbx
 1662              		.cfi_def_cfa_offset 48
 1663 0cf0 5D       		popq	%rbp
 1664              		.cfi_def_cfa_offset 40
 1665 0cf1 415C     		popq	%r12
 1666              		.cfi_def_cfa_offset 32
 1667 0cf3 415D     		popq	%r13
 1668              		.cfi_def_cfa_offset 24
 1669 0cf5 415E     		popq	%r14
 1670              		.cfi_def_cfa_offset 16
 1671 0cf7 415F     		popq	%r15
 1672              		.cfi_def_cfa_offset 8
 1673 0cf9 C3       		ret
 1674              	.L328:
 1675              		.cfi_restore_state
 1676 0cfa 48833D00 		cmpq	$0, _ZL28__gthrw___pthread_key_createPjPFvPvE@GOTPCREL(%rip)
 1676      00000000 
 1677 0d02 0F848F01 		je	.L272
 1677      0000
 1678 0d08 BAFFFFFF 		movl	$-1, %edx
 1678      FF
 1679 0d0d F00FC150 		lock xaddl	%edx, -8(%rax)
 1679      F8
 1680 0d12 89D0     		movl	%edx, %eax
 1681              	.L273:
 1682 0d14 85C0     		testl	%eax, %eax
 1683 0d16 7FA6     		jg	.L271
 1684 0d18 488B3424 		movq	(%rsp), %rsi
 1685 0d1c E8000000 		call	_ZNSs4_Rep10_M_destroyERKSaIcE@PLT
 1685      00
 1686 0d21 EB9B     		jmp	.L271
 1687              	.L327:
 1688 0d23 48833D00 		cmpq	$0, _ZL28__gthrw___pthread_key_createPjPFvPvE@GOTPCREL(%rip)
 1688      00000000 
 1689 0d2b 0F845601 		je	.L267
 1689      0000
 1690 0d31 BAFFFFFF 		movl	$-1, %edx
 1690      FF
 1691 0d36 F00FC150 		lock xaddl	%edx, -8(%rax)
 1691      F8
 1692 0d3b 89D0     		movl	%edx, %eax
 1693              	.L268:
 1694 0d3d 85C0     		testl	%eax, %eax
 1695 0d3f 0F8F6BFF 		jg	.L266
 1695      FFFF
 1696 0d45 488B3424 		movq	(%rsp), %rsi
 1697 0d49 E8000000 		call	_ZNSs4_Rep10_M_destroyERKSaIcE@PLT
 1697      00
 1698 0d4e E95DFFFF 		jmp	.L266
 1698      FF
 1699              	.L326:
 1700 0d53 48833D00 		cmpq	$0, _ZL28__gthrw___pthread_key_createPjPFvPvE@GOTPCREL(%rip)
 1700      00000000 
 1701 0d5b 0F841601 		je	.L250
 1701      0000
 1702 0d61 BAFFFFFF 		movl	$-1, %edx
 1702      FF
 1703 0d66 F00FC150 		lock xaddl	%edx, -8(%rax)
 1703      F8
 1704 0d6b 89D0     		movl	%edx, %eax
 1705              	.L251:
 1706 0d6d 85C0     		testl	%eax, %eax
 1707 0d6f 0F8FB0FE 		jg	.L249
 1707      FFFF
 1708 0d75 488B3424 		movq	(%rsp), %rsi
 1709 0d79 E8000000 		call	_ZNSs4_Rep10_M_destroyERKSaIcE@PLT
 1709      00
 1710 0d7e E9A2FEFF 		jmp	.L249
 1710      FF
 1711              	.L325:
 1712 0d83 48833D00 		cmpq	$0, _ZL28__gthrw___pthread_key_createPjPFvPvE@GOTPCREL(%rip)
 1712      00000000 
 1713 0d8b 0F84D600 		je	.L242
 1713      0000
 1714 0d91 BAFFFFFF 		movl	$-1, %edx
 1714      FF
 1715 0d96 F00FC150 		lock xaddl	%edx, -8(%rax)
 1715      F8
 1716 0d9b 89D0     		movl	%edx, %eax
 1717              	.L243:
 1718 0d9d 85C0     		testl	%eax, %eax
 1719 0d9f 0F8F10FE 		jg	.L241
 1719      FFFF
 1720 0da5 488B3424 		movq	(%rsp), %rsi
 1721 0da9 E8000000 		call	_ZNSs4_Rep10_M_destroyERKSaIcE@PLT
 1721      00
 1722 0dae E902FEFF 		jmp	.L241
 1722      FF
 1723              	.L324:
 1724 0db3 48833D00 		cmpq	$0, _ZL28__gthrw___pthread_key_createPjPFvPvE@GOTPCREL(%rip)
 1724      00000000 
 1725 0dbb 0F849600 		je	.L234
 1725      0000
 1726 0dc1 BAFFFFFF 		movl	$-1, %edx
 1726      FF
 1727 0dc6 F00FC150 		lock xaddl	%edx, -8(%rax)
 1727      F8
 1728 0dcb 89D0     		movl	%edx, %eax
 1729              	.L235:
 1730 0dcd 85C0     		testl	%eax, %eax
 1731 0dcf 0F8F70FD 		jg	.L233
 1731      FFFF
 1732 0dd5 488B3424 		movq	(%rsp), %rsi
 1733 0dd9 E8000000 		call	_ZNSs4_Rep10_M_destroyERKSaIcE@PLT
 1733      00
 1734 0dde E962FDFF 		jmp	.L233
 1734      FF
 1735              	.L322:
 1736 0de3 48833D00 		cmpq	$0, _ZL28__gthrw___pthread_key_createPjPFvPvE@GOTPCREL(%rip)
 1736      00000000 
 1737 0deb 745D     		je	.L218
 1738 0ded BAFFFFFF 		movl	$-1, %edx
 1738      FF
 1739 0df2 F00FC150 		lock xaddl	%edx, -8(%rax)
 1739      F8
 1740 0df7 89D0     		movl	%edx, %eax
 1741              	.L219:
 1742 0df9 85C0     		testl	%eax, %eax
 1743 0dfb 0F8F6AFC 		jg	.L217
 1743      FFFF
 1744 0e01 488B7424 		movq	8(%rsp), %rsi
 1744      08
 1745 0e06 E8000000 		call	_ZNSs4_Rep10_M_destroyERKSaIcE@PLT
 1745      00
 1746 0e0b E95BFCFF 		jmp	.L217
 1746      FF
 1747              	.L323:
 1748 0e10 48833D00 		cmpq	$0, _ZL28__gthrw___pthread_key_createPjPFvPvE@GOTPCREL(%rip)
 1748      00000000 
 1749 0e18 7423     		je	.L226
 1750 0e1a BAFFFFFF 		movl	$-1, %edx
 1750      FF
 1751 0e1f F00FC150 		lock xaddl	%edx, -8(%rax)
 1751      F8
 1752 0e24 89D0     		movl	%edx, %eax
 1753              	.L227:
 1754 0e26 85C0     		testl	%eax, %eax
 1755 0e28 0F8FADFC 		jg	.L225
 1755      FFFF
 1756 0e2e 488B7424 		movq	8(%rsp), %rsi
 1756      08
 1757 0e33 E8000000 		call	_ZNSs4_Rep10_M_destroyERKSaIcE@PLT
 1757      00
 1758 0e38 E99EFCFF 		jmp	.L225
 1758      FF
 1759              	.L226:
 1760 0e3d 8B50F8   		movl	-8(%rax), %edx
 1761 0e40 8D4AFF   		leal	-1(%rdx), %ecx
 1762 0e43 8948F8   		movl	%ecx, -8(%rax)
 1763 0e46 89D0     		movl	%edx, %eax
 1764 0e48 EBDC     		jmp	.L227
 1765              	.L218:
 1766 0e4a 8B50F8   		movl	-8(%rax), %edx
 1767 0e4d 8D4AFF   		leal	-1(%rdx), %ecx
 1768 0e50 8948F8   		movl	%ecx, -8(%rax)
 1769 0e53 89D0     		movl	%edx, %eax
 1770 0e55 EBA2     		jmp	.L219
 1771              	.L234:
 1772 0e57 8B50F8   		movl	-8(%rax), %edx
 1773 0e5a 8D4AFF   		leal	-1(%rdx), %ecx
 1774 0e5d 8948F8   		movl	%ecx, -8(%rax)
 1775 0e60 89D0     		movl	%edx, %eax
 1776 0e62 E966FFFF 		jmp	.L235
 1776      FF
 1777              	.L242:
 1778 0e67 8B50F8   		movl	-8(%rax), %edx
 1779 0e6a 8D4AFF   		leal	-1(%rdx), %ecx
 1780 0e6d 8948F8   		movl	%ecx, -8(%rax)
 1781 0e70 89D0     		movl	%edx, %eax
 1782 0e72 E926FFFF 		jmp	.L243
 1782      FF
 1783              	.L250:
 1784 0e77 8B50F8   		movl	-8(%rax), %edx
 1785 0e7a 8D4AFF   		leal	-1(%rdx), %ecx
 1786 0e7d 8948F8   		movl	%ecx, -8(%rax)
 1787 0e80 89D0     		movl	%edx, %eax
 1788 0e82 E9E6FEFF 		jmp	.L251
 1788      FF
 1789              	.L267:
 1790 0e87 8B50F8   		movl	-8(%rax), %edx
 1791 0e8a 8D4AFF   		leal	-1(%rdx), %ecx
 1792 0e8d 8948F8   		movl	%ecx, -8(%rax)
 1793 0e90 89D0     		movl	%edx, %eax
 1794 0e92 E9A6FEFF 		jmp	.L268
 1794      FF
 1795              	.L272:
 1796 0e97 8B50F8   		movl	-8(%rax), %edx
 1797 0e9a 8D4AFF   		leal	-1(%rdx), %ecx
 1798 0e9d 8948F8   		movl	%ecx, -8(%rax)
 1799 0ea0 89D0     		movl	%edx, %eax
 1800 0ea2 E96DFEFF 		jmp	.L273
 1800      FF
 1801              	.L284:
 1802 0ea7 4889C3   		movq	%rax, %rbx
 1803              	.L255:
 1804 0eaa 488B4424 		movq	64(%rsp), %rax
 1804      40
 1805 0eaf 488D78E8 		leaq	-24(%rax), %rdi
 1806 0eb3 4C39E7   		cmpq	%r12, %rdi
 1807 0eb6 740A     		je	.L280
 1808 0eb8 488D7424 		leaq	63(%rsp), %rsi
 1808      3F
 1809 0ebd E8000000 		call	_ZNSs4_Rep10_M_disposeERKSaIcE.part.5
 1809      00
 1810              	.L280:
 1811 0ec2 4889DF   		movq	%rbx, %rdi
 1812              	.LEHB24:
 1813 0ec5 E8000000 		call	_Unwind_Resume@PLT
 1813      00
 1814              	.LEHE24:
 1815              	.L289:
 1816 0eca 4889C3   		movq	%rax, %rbx
 1817 0ecd 488B8424 		movq	144(%rsp), %rax
 1817      90000000 
 1818 0ed5 488D78E8 		leaq	-24(%rax), %rdi
 1819 0ed9 4C39E7   		cmpq	%r12, %rdi
 1820 0edc 74CC     		je	.L255
 1821              	.L315:
 1822 0ede 488D7424 		leaq	112(%rsp), %rsi
 1822      70
 1823 0ee3 E8000000 		call	_ZNSs4_Rep10_M_disposeERKSaIcE.part.5
 1823      00
 1824 0ee8 EBC0     		jmp	.L255
 1825              	.L288:
 1826 0eea 4889C3   		movq	%rax, %rbx
 1827 0eed 488B8424 		movq	128(%rsp), %rax
 1827      80000000 
 1828 0ef5 488D78E8 		leaq	-24(%rax), %rdi
 1829 0ef9 4C39E7   		cmpq	%r12, %rdi
 1830 0efc 74AC     		je	.L255
 1831 0efe EBDE     		jmp	.L315
 1832              	.L287:
 1833 0f00 4889C3   		movq	%rax, %rbx
 1834 0f03 488B4424 		movq	112(%rsp), %rax
 1834      70
 1835 0f08 488D78E8 		leaq	-24(%rax), %rdi
 1836 0f0c 4C39E7   		cmpq	%r12, %rdi
 1837 0f0f 7499     		je	.L255
 1838              	.L314:
 1839 0f11 488B3424 		movq	(%rsp), %rsi
 1840 0f15 E8000000 		call	_ZNSs4_Rep10_M_disposeERKSaIcE.part.5
 1840      00
 1841 0f1a EB8E     		jmp	.L255
 1842              	.L286:
 1843 0f1c 4889C3   		movq	%rax, %rbx
 1844 0f1f 488B4424 		movq	96(%rsp), %rax
 1844      60
 1845 0f24 488D78E8 		leaq	-24(%rax), %rdi
 1846 0f28 4C39E7   		cmpq	%r12, %rdi
 1847 0f2b 0F8479FF 		je	.L255
 1847      FFFF
 1848 0f31 EBDE     		jmp	.L314
 1849              	.L285:
 1850 0f33 4889C3   		movq	%rax, %rbx
 1851 0f36 488B4424 		movq	80(%rsp), %rax
 1851      50
 1852 0f3b 488D78E8 		leaq	-24(%rax), %rdi
 1853 0f3f 4C39E7   		cmpq	%r12, %rdi
 1854 0f42 0F8462FF 		je	.L255
 1854      FFFF
 1855 0f48 EBC7     		jmp	.L314
 1856              	.L282:
 1857 0f4a 4889C3   		movq	%rax, %rbx
 1858              	.L279:
 1859 0f4d 488B4424 		movq	64(%rsp), %rax
 1859      40
 1860 0f52 488D78E8 		leaq	-24(%rax), %rdi
 1861 0f56 4C39E7   		cmpq	%r12, %rdi
 1862 0f59 0F8463FF 		je	.L280
 1862      FFFF
 1863 0f5f 488B3424 		movq	(%rsp), %rsi
 1864 0f63 E8000000 		call	_ZNSs4_Rep10_M_disposeERKSaIcE.part.5
 1864      00
 1865 0f68 E955FFFF 		jmp	.L280
 1865      FF
 1866              	.L283:
 1867 0f6d 4889C3   		movq	%rax, %rbx
 1868 0f70 488B8424 		movq	144(%rsp), %rax
 1868      90000000 
 1869 0f78 488D78E8 		leaq	-24(%rax), %rdi
 1870 0f7c 4C39E7   		cmpq	%r12, %rdi
 1871 0f7f 74CC     		je	.L279
 1872 0f81 488B3424 		movq	(%rsp), %rsi
 1873 0f85 E8000000 		call	_ZNSs4_Rep10_M_disposeERKSaIcE.part.5
 1873      00
 1874 0f8a EBC1     		jmp	.L279
 1875              	.L329:
 1876 0f8c E8000000 		call	__stack_chk_fail@PLT
 1876      00
 1877              		.cfi_endproc
 1878              	.LFE1367:
 1879              		.section	.gcc_except_table
 1880              	.LLSDA1367:
 1881 0043 FF       		.byte	0xff
 1882 0044 FF       		.byte	0xff
 1883 0045 01       		.byte	0x1
 1884 0046 51       		.uleb128 .LLSDACSE1367-.LLSDACSB1367
 1885              	.LLSDACSB1367:
 1886 0047 3E       		.uleb128 .LEHB11-.LFB1367
 1887 0048 6E       		.uleb128 .LEHE11-.LEHB11
 1888 0049 00       		.uleb128 0
 1889 004a 00       		.uleb128 0
 1890 004b BA01     		.uleb128 .LEHB12-.LFB1367
 1891 004d 05       		.uleb128 .LEHE12-.LEHB12
 1892 004e D70A     		.uleb128 .L284-.LFB1367
 1893 0050 00       		.uleb128 0
 1894 0051 C901     		.uleb128 .LEHB13-.LFB1367
 1895 0053 34       		.uleb128 .LEHE13-.LEHB13
 1896 0054 FA0A     		.uleb128 .L289-.LFB1367
 1897 0056 00       		.uleb128 0
 1898 0057 A902     		.uleb128 .LEHB14-.LFB1367
 1899 0059 05       		.uleb128 .LEHE14-.LEHB14
 1900 005a D70A     		.uleb128 .L284-.LFB1367
 1901 005c 00       		.uleb128 0
 1902 005d B802     		.uleb128 .LEHB15-.LFB1367
 1903 005f 35       		.uleb128 .LEHE15-.LEHB15
 1904 0060 9A0B     		.uleb128 .L288-.LFB1367
 1905 0062 00       		.uleb128 0
 1906 0063 9A03     		.uleb128 .LEHB16-.LFB1367
 1907 0065 05       		.uleb128 .LEHE16-.LEHB16
 1908 0066 D70A     		.uleb128 .L284-.LFB1367
 1909 0068 00       		.uleb128 0
 1910 0069 A903     		.uleb128 .LEHB17-.LFB1367
 1911 006b 31       		.uleb128 .LEHE17-.LEHB17
 1912 006c B00B     		.uleb128 .L287-.LFB1367
 1913 006e 00       		.uleb128 0
 1914 006f 8404     		.uleb128 .LEHB18-.LFB1367
 1915 0071 05       		.uleb128 .LEHE18-.LEHB18
 1916 0072 D70A     		.uleb128 .L284-.LFB1367
 1917 0074 00       		.uleb128 0
 1918 0075 9304     		.uleb128 .LEHB19-.LFB1367
 1919 0077 37       		.uleb128 .LEHE19-.LEHB19
 1920 0078 CC0B     		.uleb128 .L286-.LFB1367
 1921 007a 00       		.uleb128 0
 1922 007b F404     		.uleb128 .LEHB20-.LFB1367
 1923 007d 05       		.uleb128 .LEHE20-.LEHB20
 1924 007e D70A     		.uleb128 .L284-.LFB1367
 1925 0080 00       		.uleb128 0
 1926 0081 8305     		.uleb128 .LEHB21-.LFB1367
 1927 0083 37       		.uleb128 .LEHE21-.LEHB21
 1928 0084 E30B     		.uleb128 .L285-.LFB1367
 1929 0086 00       		.uleb128 0
 1930 0087 E305     		.uleb128 .LEHB22-.LFB1367
 1931 0089 05       		.uleb128 .LEHE22-.LEHB22
 1932 008a FA0B     		.uleb128 .L282-.LFB1367
 1933 008c 00       		.uleb128 0
 1934 008d F705     		.uleb128 .LEHB23-.LFB1367
 1935 008f 58       		.uleb128 .LEHE23-.LEHB23
 1936 0090 9D0C     		.uleb128 .L283-.LFB1367
 1937 0092 00       		.uleb128 0
 1938 0093 F50A     		.uleb128 .LEHB24-.LFB1367
 1939 0095 05       		.uleb128 .LEHE24-.LEHB24
 1940 0096 00       		.uleb128 0
 1941 0097 00       		.uleb128 0
 1942              	.LLSDACSE1367:
 1943              		.text
 1945              		.section	.text.unlikely
 1946              	.LCOLDE36:
 1947              		.text
 1948              	.LHOTE36:
 1949              		.section	.text.unlikely
 1950              		.align 2
 1951              	.LCOLDB37:
 1952              		.text
 1953              	.LHOTB37:
 1954 0f91 90       		.align 2
 1955 0f92 0F1F4000 		.p2align 4,,15
 1955      662E0F1F 
 1955      84000000 
 1955      0000
 1956              		.globl	_ZN8UnitTest15XmlTestReporter13ReportSummaryEiiif
 1958              	_ZN8UnitTest15XmlTestReporter13ReportSummaryEiiif:
 1959              	.LFB1361:
 1960              		.cfi_startproc
 1961 0fa0 4155     		pushq	%r13
 1962              		.cfi_def_cfa_offset 16
 1963              		.cfi_offset 13, -16
 1964 0fa2 4154     		pushq	%r12
 1965              		.cfi_def_cfa_offset 24
 1966              		.cfi_offset 12, -24
 1967 0fa4 4189D4   		movl	%edx, %r12d
 1968 0fa7 55       		pushq	%rbp
 1969              		.cfi_def_cfa_offset 32
 1970              		.cfi_offset 6, -32
 1971 0fa8 53       		pushq	%rbx
 1972              		.cfi_def_cfa_offset 40
 1973              		.cfi_offset 3, -40
 1974 0fa9 89F3     		movl	%esi, %ebx
 1975 0fab 4889FD   		movq	%rdi, %rbp
 1976 0fae 31D2     		xorl	%edx, %edx
 1977 0fb0 4189CD   		movl	%ecx, %r13d
 1978 0fb3 4883EC18 		subq	$24, %rsp
 1979              		.cfi_def_cfa_offset 64
 1980 0fb7 488B7720 		movq	32(%rdi), %rsi
 1981 0fbb F30F1144 		movss	%xmm0, 12(%rsp)
 1981      240C
 1982 0fc1 E8000000 		call	_ZN8UnitTest15XmlTestReporter13AddXmlElementERSoPKc@PLT
 1982      00
 1983 0fc6 488B7520 		movq	32(%rbp), %rsi
 1984 0fca 4489E1   		movl	%r12d, %ecx
 1985 0fcd 89DA     		movl	%ebx, %edx
 1986 0fcf F30F1044 		movss	12(%rsp), %xmm0
 1986      240C
 1987 0fd5 4589E8   		movl	%r13d, %r8d
 1988 0fd8 4889EF   		movq	%rbp, %rdi
 1989 0fdb E8000000 		call	_ZN8UnitTest15XmlTestReporter12BeginResultsERSoiiif@PLT
 1989      00
 1990 0fe0 4889EF   		movq	%rbp, %rdi
 1991 0fe3 E8000000 		call	_ZN8UnitTest20DeferredTestReporter10GetResultsEv@PLT
 1991      00
 1992 0fe8 488B18   		movq	(%rax), %rbx
 1993 0feb 483B5808 		cmpq	8(%rax), %rbx
 1994 0fef 4989C4   		movq	%rax, %r12
 1995 0ff2 7526     		jne	.L335
 1996 0ff4 EB4A     		jmp	.L334
 1997 0ff6 662E0F1F 		.p2align 4,,10
 1997      84000000 
 1997      0000
 1998              		.p2align 3
 1999              	.L332:
 2000 1000 488B7520 		movq	32(%rbp), %rsi
 2001 1004 4889DA   		movq	%rbx, %rdx
 2002 1007 4889EF   		movq	%rbp, %rdi
 2003 100a 4883C338 		addq	$56, %rbx
 2004 100e E8000000 		call	_ZN8UnitTest15XmlTestReporter7EndTestERSoRKNS_18DeferredTestResultE@PLT
 2004      00
 2005 1013 49395C24 		cmpq	%rbx, 8(%r12)
 2005      08
 2006 1018 7426     		je	.L334
 2007              	.L335:
 2008 101a 488B7520 		movq	32(%rbp), %rsi
 2009 101e 4889DA   		movq	%rbx, %rdx
 2010 1021 4889EF   		movq	%rbp, %rdi
 2011 1024 E8000000 		call	_ZN8UnitTest15XmlTestReporter9BeginTestERSoRKNS_18DeferredTestResultE@PLT
 2011      00
 2012 1029 807B3400 		cmpb	$0, 52(%rbx)
 2013 102d 74D1     		je	.L332
 2014 102f 488B7520 		movq	32(%rbp), %rsi
 2015 1033 4889DA   		movq	%rbx, %rdx
 2016 1036 4889EF   		movq	%rbp, %rdi
 2017 1039 E8000000 		call	_ZN8UnitTest15XmlTestReporter10AddFailureERSoRKNS_18DeferredTestResultE@PLT
 2017      00
 2018 103e EBC0     		jmp	.L332
 2019              		.p2align 4,,10
 2020              		.p2align 3
 2021              	.L334:
 2022 1040 488B7520 		movq	32(%rbp), %rsi
 2023 1044 4883C418 		addq	$24, %rsp
 2024              		.cfi_def_cfa_offset 40
 2025 1048 4889EF   		movq	%rbp, %rdi
 2026 104b 5B       		popq	%rbx
 2027              		.cfi_def_cfa_offset 32
 2028 104c 5D       		popq	%rbp
 2029              		.cfi_def_cfa_offset 24
 2030 104d 415C     		popq	%r12
 2031              		.cfi_def_cfa_offset 16
 2032 104f 415D     		popq	%r13
 2033              		.cfi_def_cfa_offset 8
 2034 1051 E9000000 		jmp	_ZN8UnitTest15XmlTestReporter10EndResultsERSo@PLT
 2034      00
 2035              		.cfi_endproc
 2036              	.LFE1361:
 2038              		.section	.text.unlikely
 2039              	.LCOLDE37:
 2040              		.text
 2041              	.LHOTE37:
 2042              		.section	.text.unlikely
 2043              	.LCOLDB38:
 2044              		.section	.text.startup,"ax",@progbits
 2045              	.LHOTB38:
 2046              		.p2align 4,,15
 2048              	_GLOBAL__sub_I_XmlTestReporter.cpp:
 2049              	.LFB1566:
 2050              		.cfi_startproc
 2051 0000 488D3D00 		leaq	_ZStL8__ioinit(%rip), %rdi
 2051      000000
 2052 0007 4883EC08 		subq	$8, %rsp
 2053              		.cfi_def_cfa_offset 16
 2054 000b E8000000 		call	_ZNSt8ios_base4InitC1Ev@PLT
 2054      00
 2055 0010 488B3D00 		movq	_ZNSt8ios_base4InitD1Ev@GOTPCREL(%rip), %rdi
 2055      000000
 2056 0017 488D1500 		leaq	__dso_handle(%rip), %rdx
 2056      000000
 2057 001e 488D3500 		leaq	_ZStL8__ioinit(%rip), %rsi
 2057      000000
 2058 0025 4883C408 		addq	$8, %rsp
 2059              		.cfi_def_cfa_offset 8
 2060 0029 E9000000 		jmp	__cxa_atexit@PLT
 2060      00
 2061              		.cfi_endproc
 2062              	.LFE1566:
 2064              		.section	.text.unlikely
 2065              	.LCOLDE38:
 2066              		.section	.text.startup
 2067              	.LHOTE38:
 2068              		.section	.init_array,"aw"
 2069              		.align 8
 2070 0000 00000000 		.quad	_GLOBAL__sub_I_XmlTestReporter.cpp
 2070      00000000 
 2071              		.weak	_ZTSN8UnitTest15XmlTestReporterE
 2072              		.section	.rodata._ZTSN8UnitTest15XmlTestReporterE,"aG",@progbits,_ZTSN8UnitTest15XmlTestReporterE,
 2073              		.align 16
 2076              	_ZTSN8UnitTest15XmlTestReporterE:
 2077 0000 4E38556E 		.string	"N8UnitTest15XmlTestReporterE"
 2077      69745465 
 2077      73743135 
 2077      586D6C54 
 2077      65737452 
 2078              		.weak	_ZTIN8UnitTest15XmlTestReporterE
 2079              		.section	.data.rel.ro._ZTIN8UnitTest15XmlTestReporterE,"awG",@progbits,_ZTIN8UnitTest15XmlTestRepo
 2080              		.align 16
 2083              	_ZTIN8UnitTest15XmlTestReporterE:
 2084 0000 00000000 		.quad	_ZTVN10__cxxabiv120__si_class_type_infoE+16
 2084      00000000 
 2085 0008 00000000 		.quad	_ZTSN8UnitTest15XmlTestReporterE
 2085      00000000 
 2086 0010 00000000 		.quad	_ZTIN8UnitTest20DeferredTestReporterE
 2086      00000000 
 2087              		.weak	_ZTVN8UnitTest15XmlTestReporterE
 2088              		.section	.data.rel.ro._ZTVN8UnitTest15XmlTestReporterE,"awG",@progbits,_ZTVN8UnitTest15XmlTestRepo
 2089              		.align 64
 2092              	_ZTVN8UnitTest15XmlTestReporterE:
 2093 0000 00000000 		.quad	0
 2093      00000000 
 2094 0008 00000000 		.quad	_ZTIN8UnitTest15XmlTestReporterE
 2094      00000000 
 2095 0010 00000000 		.quad	_ZN8UnitTest15XmlTestReporterD1Ev
 2095      00000000 
 2096 0018 00000000 		.quad	_ZN8UnitTest15XmlTestReporterD0Ev
 2096      00000000 
 2097 0020 00000000 		.quad	_ZN8UnitTest20DeferredTestReporter15ReportTestStartERKNS_11TestDetailsE
 2097      00000000 
 2098 0028 00000000 		.quad	_ZN8UnitTest20DeferredTestReporter13ReportFailureERKNS_11TestDetailsEPKc
 2098      00000000 
 2099 0030 00000000 		.quad	_ZN8UnitTest20DeferredTestReporter16ReportTestFinishERKNS_11TestDetailsEf
 2099      00000000 
 2100 0038 00000000 		.quad	_ZN8UnitTest15XmlTestReporter13ReportSummaryEiiif
 2100      00000000 
 2101              		.local	_ZStL8__ioinit
 2102              		.comm	_ZStL8__ioinit,1,1
 2103              		.weakref	_ZL28__gthrw___pthread_key_createPjPFvPvE,__pthread_key_create
 2104              		.hidden	DW.ref.__gxx_personality_v0
 2105              		.weak	DW.ref.__gxx_personality_v0
 2106              		.section	.data.DW.ref.__gxx_personality_v0,"awG",@progbits,DW.ref.__gxx_personality_v0,comdat
 2107              		.align 8
 2110              	DW.ref.__gxx_personality_v0:
 2111 0000 00000000 		.quad	__gxx_personality_v0
 2111      00000000 
 2112              		.hidden	__dso_handle
 2113              		.ident	"GCC: (Ubuntu 4.9.2-10ubuntu13) 4.9.2"
 2114              		.section	.note.GNU-stack,"",@progbits