   1              		.file	"libsync.c"
   2              		.section	.rodata.str1.8,"aMS",@progbits,1
   3              		.align 8
   4              	.LC0:
   5 0000 73796E63 		.string	"syncBulkEndpoints(): Sync of EP%dOUT->EP%dIN failed after %d fill attempts: %s"
   5      42756C6B 
   5      456E6470 
   5      6F696E74 
   5      7328293A 
   6 004f 00       		.align 8
   7              	.LC1:
   8 0050 73796E63 		.string	"syncBulkEndpoints(): Sync of EP%dOUT->EP%dIN failed after %d drain attempts: %s"
   8      42756C6B 
   8      456E6470 
   8      6F696E74 
   8      7328293A 
   9              		.align 8
  10              	.LC2:
  11 00a0 73796E63 		.string	"syncBulkEndpoints(): Sync of EP%dOUT->EP%dIN read back 0x%08lX instead of the expected 0x
  11      42756C6B 
  11      456E6470 
  11      6F696E74 
  11      7328293A 
  12              		.section	.text.unlikely,"ax",@progbits
  13              	.LCOLDB3:
  14              		.text
  15              	.LHOTB3:
  16              		.p2align 4,,15
  18              	trySync:
  19              	.LFB36:
  20              		.cfi_startproc
  21 0000 4157     		pushq	%r15
  22              		.cfi_def_cfa_offset 16
  23              		.cfi_offset 15, -16
  24 0002 4156     		pushq	%r14
  25              		.cfi_def_cfa_offset 24
  26              		.cfi_offset 14, -24
  27 0004 89D0     		movl	%edx, %eax
  28 0006 4155     		pushq	%r13
  29              		.cfi_def_cfa_offset 32
  30              		.cfi_offset 13, -32
  31 0008 4154     		pushq	%r12
  32              		.cfi_def_cfa_offset 40
  33              		.cfi_offset 12, -40
  34 000a 0C80     		orb	$-128, %al
  35 000c 55       		pushq	%rbp
  36              		.cfi_def_cfa_offset 48
  37              		.cfi_offset 6, -48
  38 000d 53       		pushq	%rbx
  39              		.cfi_def_cfa_offset 56
  40              		.cfi_offset 3, -56
  41 000e 4189F5   		movl	%esi, %r13d
  42 0011 4889FB   		movq	%rdi, %rbx
  43 0014 4881EC28 		subq	$552, %rsp
  43      020000
  44              		.cfi_def_cfa_offset 608
  45 001b 48894C24 		movq	%rcx, 8(%rsp)
  45      08
  46 0020 488D6C24 		leaq	16(%rsp), %rbp
  46      10
  47 0025 89542404 		movl	%edx, 4(%rsp)
  48 0029 64488B0C 		movq	%fs:40, %rcx
  48      25280000 
  48      00
  49 0032 48898C24 		movq	%rcx, 536(%rsp)
  49      18020000 
  50 003a 31C9     		xorl	%ecx, %ecx
  51 003c 890424   		movl	%eax, (%rsp)
  52 003f 90       		.p2align 4,,10
  53              		.p2align 3
  54              	.L2:
  55 0040 8B3424   		movl	(%rsp), %esi
  56 0043 41B86400 		movl	$100, %r8d
  56      0000
  57 0049 B9000200 		movl	$512, %ecx
  57      00
  58 004e 4889EA   		movq	%rbp, %rdx
  59 0051 4889DF   		movq	%rbx, %rdi
  60 0054 E8000000 		call	usb_bulk_read@PLT
  60      00
  61 0059 85C0     		testl	%eax, %eax
  62 005b 7FE3     		jg	.L2
  63 005d 41BE0300 		movl	$3, %r14d
  63      0000
  64 0063 41BC0200 		movl	$2, %r12d
  64      0000
  65 0069 0F1F8000 		.p2align 4,,10
  65      000000
  66              		.p2align 3
  67              	.L3:
  68 0070 C7442410 		movl	$-559030611, 16(%rsp)
  68      ADDEADDE 
  69 0078 4531FF   		xorl	%r15d, %r15d
  70 007b 0F1F4400 		.p2align 4,,10
  70      00
  71              		.p2align 3
  72              	.L4:
  73 0080 41B86400 		movl	$100, %r8d
  73      0000
  74 0086 B9040000 		movl	$4, %ecx
  74      00
  75 008b 4889EA   		movq	%rbp, %rdx
  76 008e 4489EE   		movl	%r13d, %esi
  77 0091 4889DF   		movq	%rbx, %rdi
  78 0094 4183C701 		addl	$1, %r15d
  79 0098 E8000000 		call	usb_bulk_write@PLT
  79      00
  80 009d 4538FC   		cmpb	%r15b, %r12b
  81 00a0 75DE     		jne	.L4
  82 00a2 41B86400 		movl	$100, %r8d
  82      0000
  83 00a8 B9040000 		movl	$4, %ecx
  83      00
  84 00ad 4889EA   		movq	%rbp, %rdx
  85 00b0 4489EE   		movl	%r13d, %esi
  86 00b3 4889DF   		movq	%rbx, %rdi
  87 00b6 C7442410 		movl	$1751212907, 16(%rsp)
  87      6B636168 
  88 00be E8000000 		call	usb_bulk_write@PLT
  88      00
  89 00c3 8B3424   		movl	(%rsp), %esi
  90 00c6 41B86400 		movl	$100, %r8d
  90      0000
  91 00cc B9040000 		movl	$4, %ecx
  91      00
  92 00d1 4889EA   		movq	%rbp, %rdx
  93 00d4 4889DF   		movq	%rbx, %rdi
  94 00d7 E8000000 		call	usb_bulk_read@PLT
  94      00
  95 00dc 85C0     		testl	%eax, %eax
  96 00de 780A     		js	.L5
  97 00e0 817C2410 		cmpl	$-559030611, 16(%rsp)
  97      ADDEADDE 
  98 00e8 7476     		je	.L12
  99              	.L5:
 100 00ea 4180FE0A 		cmpb	$10, %r14b
 101 00ee 7410     		je	.L22
 102 00f0 4183C401 		addl	$1, %r12d
 103 00f4 4183C601 		addl	$1, %r14d
 104 00f8 E973FFFF 		jmp	.L3
 104      FF
 105 00fd 0F1F00   		.p2align 4,,10
 106              		.p2align 3
 107              	.L22:
 108 0100 817C2410 		cmpl	$-559030611, 16(%rsp)
 108      ADDEADDE 
 109 0108 7466     		je	.L16
 110 010a E8000000 		call	usb_strerror@PLT
 110      00
 111 010f 8B4C2404 		movl	4(%rsp), %ecx
 112 0113 488B7C24 		movq	8(%rsp), %rdi
 112      08
 113 0118 488D3500 		leaq	.LC0(%rip), %rsi
 113      000000
 114 011f 4989C1   		movq	%rax, %r9
 115 0122 41B80A00 		movl	$10, %r8d
 115      0000
 116 0128 31C0     		xorl	%eax, %eax
 117 012a 4489EA   		movl	%r13d, %edx
 118 012d E8000000 		call	errRender@PLT
 118      00
 119 0132 B8020000 		movl	$2, %eax
 119      00
 120              	.L8:
 121 0137 488B9C24 		movq	536(%rsp), %rbx
 121      18020000 
 122 013f 6448331C 		xorq	%fs:40, %rbx
 122      25280000 
 122      00
 123 0148 0F85C800 		jne	.L23
 123      0000
 124 014e 4881C428 		addq	$552, %rsp
 124      020000
 125              		.cfi_remember_state
 126              		.cfi_def_cfa_offset 56
 127 0155 5B       		popq	%rbx
 128              		.cfi_def_cfa_offset 48
 129 0156 5D       		popq	%rbp
 130              		.cfi_def_cfa_offset 40
 131 0157 415C     		popq	%r12
 132              		.cfi_def_cfa_offset 32
 133 0159 415D     		popq	%r13
 134              		.cfi_def_cfa_offset 24
 135 015b 415E     		popq	%r14
 136              		.cfi_def_cfa_offset 16
 137 015d 415F     		popq	%r15
 138              		.cfi_def_cfa_offset 8
 139 015f C3       		ret
 140              	.L12:
 141              		.cfi_restore_state
 142 0160 41BE0A00 		movl	$10, %r14d
 142      0000
 143 0166 662E0F1F 		.p2align 4,,10
 143      84000000 
 143      0000
 144              		.p2align 3
 145              	.L16:
 146 0170 8B3424   		movl	(%rsp), %esi
 147 0173 41B86400 		movl	$100, %r8d
 147      0000
 148 0179 4889EA   		movq	%rbp, %rdx
 149 017c B9040000 		movl	$4, %ecx
 149      00
 150 0181 4889DF   		movq	%rbx, %rdi
 151 0184 E8000000 		call	usb_bulk_read@PLT
 151      00
 152 0189 89C2     		movl	%eax, %edx
 153 018b 448B4424 		movl	16(%rsp), %r8d
 153      10
 154 0190 C1EA1F   		shrl	$31, %edx
 155 0193 84D2     		testb	%dl, %dl
 156 0195 7509     		jne	.L15
 157 0197 4181F84B 		cmpl	$1212236619, %r8d
 157      434148
 158 019e 743D     		je	.L14
 159              	.L15:
 160 01a0 4180EE01 		subb	$1, %r14b
 161 01a4 75CA     		jne	.L16
 162 01a6 85C0     		testl	%eax, %eax
 163 01a8 783A     		js	.L24
 164 01aa 4181F84B 		cmpl	$1212236619, %r8d
 164      434148
 165 01b1 742A     		je	.L14
 166 01b3 8B4C2404 		movl	4(%rsp), %ecx
 167 01b7 488B7C24 		movq	8(%rsp), %rdi
 167      08
 168 01bc 488D3500 		leaq	.LC2(%rip), %rsi
 168      000000
 169 01c3 31C0     		xorl	%eax, %eax
 170 01c5 41B94B43 		movl	$1212236619, %r9d
 170      4148
 171 01cb 4489EA   		movl	%r13d, %edx
 172 01ce E8000000 		call	errRender@PLT
 172      00
 173 01d3 B8020000 		movl	$2, %eax
 173      00
 174 01d8 E95AFFFF 		jmp	.L8
 174      FF
 175              	.L14:
 176 01dd 31C0     		xorl	%eax, %eax
 177 01df E953FFFF 		jmp	.L8
 177      FF
 178              	.L24:
 179 01e4 E8000000 		call	usb_strerror@PLT
 179      00
 180 01e9 8B4C2404 		movl	4(%rsp), %ecx
 181 01ed 488B7C24 		movq	8(%rsp), %rdi
 181      08
 182 01f2 488D3500 		leaq	.LC1(%rip), %rsi
 182      000000
 183 01f9 4989C1   		movq	%rax, %r9
 184 01fc 41B80A00 		movl	$10, %r8d
 184      0000
 185 0202 31C0     		xorl	%eax, %eax
 186 0204 4489EA   		movl	%r13d, %edx
 187 0207 E8000000 		call	errRender@PLT
 187      00
 188 020c B8020000 		movl	$2, %eax
 188      00
 189 0211 E921FFFF 		jmp	.L8
 189      FF
 190              	.L23:
 191 0216 E8000000 		call	__stack_chk_fail@PLT
 191      00
 192              		.cfi_endproc
 193              	.LFE36:
 195              		.section	.text.unlikely
 196              	.LCOLDE3:
 197              		.text
 198              	.LHOTE3:
 199              		.section	.rodata.str1.8
 200 00ff 00       		.align 8
 201              	.LC4:
 202 0100 73796E63 		.string	"syncBulkEndpoints(): Unable to enable sync mode: %s"
 202      42756C6B 
 202      456E6470 
 202      6F696E74 
 202      7328293A 
 203              		.section	.text.unlikely
 204              	.LCOLDB5:
 205              		.text
 206              	.LHOTB5:
 207 021b 0F1F4400 		.p2align 4,,15
 207      00
 208              		.globl	syncBulkEndpoints
 210              	syncBulkEndpoints:
 211              	.LFB35:
 212              		.cfi_startproc
 213 0220 4154     		pushq	%r12
 214              		.cfi_def_cfa_offset 16
 215              		.cfi_offset 12, -16
 216 0222 55       		pushq	%rbp
 217              		.cfi_def_cfa_offset 24
 218              		.cfi_offset 6, -24
 219 0223 4531C9   		xorl	%r9d, %r9d
 220 0226 53       		pushq	%rbx
 221              		.cfi_def_cfa_offset 32
 222              		.cfi_offset 3, -32
 223 0227 6A64     		pushq	$100
 224              		.cfi_def_cfa_offset 40
 225 0229 89F3     		movl	%esi, %ebx
 226 022b 6A00     		pushq	$0
 227              		.cfi_def_cfa_offset 48
 228 022d BE400000 		movl	$64, %esi
 228      00
 229 0232 4989D4   		movq	%rdx, %r12
 230 0235 41B80100 		movl	$1, %r8d
 230      0000
 231 023b B9010000 		movl	$1, %ecx
 231      00
 232 0240 BA800000 		movl	$128, %edx
 232      00
 233 0245 4889FD   		movq	%rdi, %rbp
 234 0248 E8000000 		call	usb_control_msg@PLT
 234      00
 235 024d 85C0     		testl	%eax, %eax
 236 024f 5E       		popq	%rsi
 237              		.cfi_def_cfa_offset 40
 238 0250 5F       		popq	%rdi
 239              		.cfi_def_cfa_offset 32
 240 0251 0F888900 		js	.L39
 240      0000
 241 0257 F7C3FDFF 		testl	$-3, %ebx
 241      FFFF
 242 025d 7439     		je	.L28
 243              	.L31:
 244 025f 83EB01   		subl	$1, %ebx
 245 0262 83FB01   		cmpl	$1, %ebx
 246 0265 7659     		jbe	.L40
 247              	.L30:
 248 0267 6A64     		pushq	$100
 249              		.cfi_def_cfa_offset 40
 250 0269 6A00     		pushq	$0
 251              		.cfi_def_cfa_offset 48
 252 026b 31C9     		xorl	%ecx, %ecx
 253 026d 4531C9   		xorl	%r9d, %r9d
 254 0270 BA800000 		movl	$128, %edx
 254      00
 255 0275 41B80100 		movl	$1, %r8d
 255      0000
 256 027b BE400000 		movl	$64, %esi
 256      00
 257 0280 4889EF   		movq	%rbp, %rdi
 258 0283 E8000000 		call	usb_control_msg@PLT
 258      00
 259 0288 85C0     		testl	%eax, %eax
 260 028a 5A       		popq	%rdx
 261              		.cfi_def_cfa_offset 40
 262 028b 59       		popq	%rcx
 263              		.cfi_def_cfa_offset 32
 264 028c 787A     		js	.L32
 265 028e 5B       		popq	%rbx
 266              		.cfi_remember_state
 267              		.cfi_def_cfa_offset 24
 268 028f 31C0     		xorl	%eax, %eax
 269 0291 5D       		popq	%rbp
 270              		.cfi_def_cfa_offset 16
 271 0292 415C     		popq	%r12
 272              		.cfi_def_cfa_offset 8
 273 0294 C3       		ret
 274              		.p2align 4,,10
 275 0295 0F1F00   		.p2align 3
 276              	.L28:
 277              		.cfi_restore_state
 278 0298 4C89E1   		movq	%r12, %rcx
 279 029b BA040000 		movl	$4, %edx
 279      00
 280 02a0 BE020000 		movl	$2, %esi
 280      00
 281 02a5 4889EF   		movq	%rbp, %rdi
 282 02a8 E853FDFF 		call	trySync
 282      FF
 283 02ad 85C0     		testl	%eax, %eax
 284 02af 74AE     		je	.L31
 285 02b1 5B       		popq	%rbx
 286              		.cfi_remember_state
 287              		.cfi_def_cfa_offset 24
 288 02b2 5D       		popq	%rbp
 289              		.cfi_def_cfa_offset 16
 290 02b3 415C     		popq	%r12
 291              		.cfi_def_cfa_offset 8
 292 02b5 C3       		ret
 293 02b6 662E0F1F 		.p2align 4,,10
 293      84000000 
 293      0000
 294              		.p2align 3
 295              	.L40:
 296              		.cfi_restore_state
 297 02c0 4C89E1   		movq	%r12, %rcx
 298 02c3 BA080000 		movl	$8, %edx
 298      00
 299 02c8 BE060000 		movl	$6, %esi
 299      00
 300 02cd 4889EF   		movq	%rbp, %rdi
 301 02d0 E82BFDFF 		call	trySync
 301      FF
 302 02d5 85C0     		testl	%eax, %eax
 303 02d7 748E     		je	.L30
 304 02d9 5B       		popq	%rbx
 305              		.cfi_remember_state
 306              		.cfi_def_cfa_offset 24
 307 02da 5D       		popq	%rbp
 308              		.cfi_def_cfa_offset 16
 309 02db 415C     		popq	%r12
 310              		.cfi_def_cfa_offset 8
 311 02dd C3       		ret
 312 02de 6690     		.p2align 4,,10
 313              		.p2align 3
 314              	.L39:
 315              		.cfi_restore_state
 316 02e0 E8000000 		call	usb_strerror@PLT
 316      00
 317 02e5 488D3500 		leaq	.LC4(%rip), %rsi
 317      000000
 318 02ec 4889C2   		movq	%rax, %rdx
 319 02ef 4C89E7   		movq	%r12, %rdi
 320 02f2 31C0     		xorl	%eax, %eax
 321 02f4 E8000000 		call	errRender@PLT
 321      00
 322 02f9 5B       		popq	%rbx
 323              		.cfi_remember_state
 324              		.cfi_def_cfa_offset 24
 325 02fa B8010000 		movl	$1, %eax
 325      00
 326 02ff 5D       		popq	%rbp
 327              		.cfi_def_cfa_offset 16
 328 0300 415C     		popq	%r12
 329              		.cfi_def_cfa_offset 8
 330 0302 C3       		ret
 331              		.p2align 4,,10
 332 0303 0F1F4400 		.p2align 3
 332      00
 333              	.L32:
 334              		.cfi_restore_state
 335 0308 E8000000 		call	usb_strerror@PLT
 335      00
 336 030d 488D3500 		leaq	.LC4(%rip), %rsi
 336      000000
 337 0314 4889C2   		movq	%rax, %rdx
 338 0317 4C89E7   		movq	%r12, %rdi
 339 031a 31C0     		xorl	%eax, %eax
 340 031c E8000000 		call	errRender@PLT
 340      00
 341 0321 5B       		popq	%rbx
 342              		.cfi_def_cfa_offset 24
 343 0322 B8030000 		movl	$3, %eax
 343      00
 344 0327 5D       		popq	%rbp
 345              		.cfi_def_cfa_offset 16
 346 0328 415C     		popq	%r12
 347              		.cfi_def_cfa_offset 8
 348 032a C3       		ret
 349              		.cfi_endproc
 350              	.LFE35:
 352              		.section	.text.unlikely
 353              	.LCOLDE5:
 354              		.text
 355              	.LHOTE5:
 356              		.ident	"GCC: (Ubuntu 4.9.2-10ubuntu13) 4.9.2"
 357              		.section	.note.GNU-stack,"",@progbits