   1              		.file	"TestTimeConstraintMacro.cpp"
   2              		.text
   3              	.Ltext0:
   4              		.section	.rodata
   5              	.LC0:
   6 0000 44656661 		.string	"DefaultSuite"
   6      756C7453 
   6      75697465 
   6      00
   7              		.section	.text._ZN13UnitTestSuite12GetSuiteNameEv,"axG",@progbits,_ZN13UnitTestSuite12GetSuiteName
   8              		.weak	_ZN13UnitTestSuite12GetSuiteNameEv
  10              	_ZN13UnitTestSuite12GetSuiteNameEv:
  11              	.LFB0:
  12              		.file 1 "../TestSuite.h"
   1:../TestSuite.h **** #ifndef UNITTEST_TESTSUITE_H
   2:../TestSuite.h **** #define UNITTEST_TESTSUITE_H
   3:../TestSuite.h **** 
   4:../TestSuite.h **** namespace UnitTestSuite {
   5:../TestSuite.h **** 
   6:../TestSuite.h ****     inline char const* GetSuiteName ()
   7:../TestSuite.h ****     {
  13              		.loc 1 7 0
  14              		.cfi_startproc
  15 0000 55       		pushq	%rbp
  16              		.cfi_def_cfa_offset 16
  17              		.cfi_offset 6, -16
  18 0001 4889E5   		movq	%rsp, %rbp
  19              		.cfi_def_cfa_register 6
   8:../TestSuite.h ****         return "DefaultSuite";
  20              		.loc 1 8 0
  21 0004 B8000000 		movl	$.LC0, %eax
  21      00
   9:../TestSuite.h ****     }
  22              		.loc 1 9 0
  23 0009 5D       		popq	%rbp
  24              		.cfi_def_cfa 7, 8
  25 000a C3       		ret
  26              		.cfi_endproc
  27              	.LFE0:
  29              		.section	.text._ZN8UnitTest15MemoryOutStreamC1Ev,"axG",@progbits,_ZN8UnitTest15MemoryOutStreamC1Ev
  30              		.align 2
  31              		.weak	_ZN8UnitTest15MemoryOutStreamC1Ev
  33              	_ZN8UnitTest15MemoryOutStreamC1Ev:
  34              	.LFB1053:
  35              		.file 2 "../MemoryOutStream.h"
   1:../MemoryOutStream.h **** #ifndef UNITTEST_MEMORYOUTSTREAM_H
   2:../MemoryOutStream.h **** #define UNITTEST_MEMORYOUTSTREAM_H
   3:../MemoryOutStream.h **** 
   4:../MemoryOutStream.h **** #include "Config.h"
   5:../MemoryOutStream.h **** 
   6:../MemoryOutStream.h **** #ifndef UNITTEST_USE_CUSTOM_STREAMS
   7:../MemoryOutStream.h **** 
   8:../MemoryOutStream.h **** #include <sstream>
   9:../MemoryOutStream.h **** 
  10:../MemoryOutStream.h **** namespace UnitTest
  11:../MemoryOutStream.h **** {
  12:../MemoryOutStream.h **** 
  13:../MemoryOutStream.h **** class MemoryOutStream : public std::ostringstream
  14:../MemoryOutStream.h **** {
  15:../MemoryOutStream.h **** public:
  16:../MemoryOutStream.h ****     MemoryOutStream() {}
  36              		.loc 2 16 0
  37              		.cfi_startproc
  38              		.cfi_personality 0x3,__gxx_personality_v0
  39              		.cfi_lsda 0x3,.LLSDA1053
  40 0000 55       		pushq	%rbp
  41              		.cfi_def_cfa_offset 16
  42              		.cfi_offset 6, -16
  43 0001 4889E5   		movq	%rsp, %rbp
  44              		.cfi_def_cfa_register 6
  45 0004 53       		pushq	%rbx
  46 0005 4883EC18 		subq	$24, %rsp
  47              		.cfi_offset 3, -24
  48 0009 48897DE8 		movq	%rdi, -24(%rbp)
  49              	.LBB2:
  50              		.loc 2 16 0
  51 000d 488B45E8 		movq	-24(%rbp), %rax
  52 0011 4883C060 		addq	$96, %rax
  53 0015 4889C7   		movq	%rax, %rdi
  54              	.LEHB0:
  55 0018 E8000000 		call	_ZNSt9basic_iosIcSt11char_traitsIcEEC2Ev
  55      00
  56              	.LEHE0:
  57 001d B9000000 		movl	$_ZTTN8UnitTest15MemoryOutStreamE+8, %ecx
  57      00
  58 0022 488B45E8 		movq	-24(%rbp), %rax
  59 0026 BA100000 		movl	$16, %edx
  59      00
  60 002b 4889CE   		movq	%rcx, %rsi
  61 002e 4889C7   		movq	%rax, %rdi
  62              	.LEHB1:
  63 0031 E8000000 		call	_ZNSt19basic_ostringstreamIcSt11char_traitsIcESaIcEEC2ESt13_Ios_Openmode
  63      00
  64              	.LEHE1:
  65              		.loc 2 16 0 is_stmt 0 discriminator 9
  66 0036 BA000000 		movl	$_ZTVN8UnitTest15MemoryOutStreamE+24, %edx
  66      00
  67 003b 488B45E8 		movq	-24(%rbp), %rax
  68 003f 488910   		movq	%rdx, (%rax)
  69 0042 BA600000 		movl	$96, %edx
  69      00
  70 0047 488B45E8 		movq	-24(%rbp), %rax
  71 004b 4801D0   		addq	%rdx, %rax
  72 004e BA000000 		movl	$_ZTVN8UnitTest15MemoryOutStreamE+64, %edx
  72      00
  73 0053 488910   		movq	%rdx, (%rax)
  74 0056 488B45E8 		movq	-24(%rbp), %rax
  75 005a 4883C058 		addq	$88, %rax
  76 005e 4889C7   		movq	%rax, %rdi
  77              	.LEHB2:
  78 0061 E8000000 		call	_ZNSsC1Ev
  78      00
  79              	.LEHE2:
  80              	.LBE2:
  81              		.loc 2 16 0
  82 0066 EB37     		jmp	.L8
  83              	.L6:
  84 0068 4889C3   		movq	%rax, %rbx
  85              	.LBB3:
  86 006b BA000000 		movl	$_ZTTN8UnitTest15MemoryOutStreamE+8, %edx
  86      00
  87 0070 488B45E8 		movq	-24(%rbp), %rax
  88 0074 4889D6   		movq	%rdx, %rsi
  89 0077 4889C7   		movq	%rax, %rdi
  90 007a E8000000 		call	_ZNSt19basic_ostringstreamIcSt11char_traitsIcESaIcEED2Ev
  90      00
  91 007f EB03     		jmp	.L5
  92              	.L7:
  93 0081 4889C3   		movq	%rax, %rbx
  94              	.L5:
  95              		.loc 2 16 0 discriminator 28
  96 0084 488B45E8 		movq	-24(%rbp), %rax
  97 0088 4883C060 		addq	$96, %rax
  98 008c 4889C7   		movq	%rax, %rdi
  99 008f E8000000 		call	_ZNSt9basic_iosIcSt11char_traitsIcEED2Ev
  99      00
 100 0094 4889D8   		movq	%rbx, %rax
 101 0097 4889C7   		movq	%rax, %rdi
 102              	.LEHB3:
 103 009a E8000000 		call	_Unwind_Resume
 103      00
 104              	.LEHE3:
 105              	.L8:
 106              	.LBE3:
 107              		.loc 2 16 0
 108 009f 4883C418 		addq	$24, %rsp
 109 00a3 5B       		popq	%rbx
 110 00a4 5D       		popq	%rbp
 111              		.cfi_def_cfa 7, 8
 112 00a5 C3       		ret
 113              		.cfi_endproc
 114              	.LFE1053:
 115              		.globl	__gxx_personality_v0
 116              		.section	.gcc_except_table._ZN8UnitTest15MemoryOutStreamC1Ev,"aG",@progbits,_ZN8UnitTest15MemoryOu
 117              	.LLSDA1053:
 118 0000 FF       		.byte	0xff
 119 0001 FF       		.byte	0xff
 120 0002 01       		.byte	0x1
 121 0003 12       		.uleb128 .LLSDACSE1053-.LLSDACSB1053
 122              	.LLSDACSB1053:
 123 0004 18       		.uleb128 .LEHB0-.LFB1053
 124 0005 05       		.uleb128 .LEHE0-.LEHB0
 125 0006 00       		.uleb128 0
 126 0007 00       		.uleb128 0
 127 0008 31       		.uleb128 .LEHB1-.LFB1053
 128 0009 05       		.uleb128 .LEHE1-.LEHB1
 129 000a 8101     		.uleb128 .L7-.LFB1053
 130 000c 00       		.uleb128 0
 131 000d 61       		.uleb128 .LEHB2-.LFB1053
 132 000e 05       		.uleb128 .LEHE2-.LEHB2
 133 000f 68       		.uleb128 .L6-.LFB1053
 134 0010 00       		.uleb128 0
 135 0011 9A01     		.uleb128 .LEHB3-.LFB1053
 136 0013 05       		.uleb128 .LEHE3-.LEHB3
 137 0014 00       		.uleb128 0
 138 0015 00       		.uleb128 0
 139              	.LLSDACSE1053:
 140              		.section	.text._ZN8UnitTest15MemoryOutStreamC1Ev,"axG",@progbits,_ZN8UnitTest15MemoryOutStreamC1Ev
 142              		.section	.text._ZN8UnitTest12TestReporterC2Ev,"axG",@progbits,_ZN8UnitTest12TestReporterC5Ev,comda
 143              		.align 2
 144              		.weak	_ZN8UnitTest12TestReporterC2Ev
 146              	_ZN8UnitTest12TestReporterC2Ev:
 147              	.LFB1067:
 148              		.file 3 "../TestReporter.h"
   1:../TestReporter.h **** #ifndef UNITTEST_TESTREPORTER_H
   2:../TestReporter.h **** #define UNITTEST_TESTREPORTER_H
   3:../TestReporter.h **** 
   4:../TestReporter.h **** namespace UnitTest {
   5:../TestReporter.h **** 
   6:../TestReporter.h **** class TestDetails;
   7:../TestReporter.h **** 
   8:../TestReporter.h **** class TestReporter
 149              		.loc 3 8 0 is_stmt 1
 150              		.cfi_startproc
 151 0000 55       		pushq	%rbp
 152              		.cfi_def_cfa_offset 16
 153              		.cfi_offset 6, -16
 154 0001 4889E5   		movq	%rsp, %rbp
 155              		.cfi_def_cfa_register 6
 156 0004 48897DF8 		movq	%rdi, -8(%rbp)
 157              	.LBB4:
 158              		.loc 3 8 0
 159 0008 488B45F8 		movq	-8(%rbp), %rax
 160 000c 48C70000 		movq	$_ZTVN8UnitTest12TestReporterE+16, (%rax)
 160      000000
 161              	.LBE4:
 162 0013 5D       		popq	%rbp
 163              		.cfi_def_cfa 7, 8
 164 0014 C3       		ret
 165              		.cfi_endproc
 166              	.LFE1067:
 168              		.weak	_ZN8UnitTest12TestReporterC1Ev
 169              		.set	_ZN8UnitTest12TestReporterC1Ev,_ZN8UnitTest12TestReporterC2Ev
 170              		.section	.text._ZN17RecordingReporterC2Ev,"axG",@progbits,_ZN17RecordingReporterC5Ev,comdat
 171              		.align 2
 172              		.weak	_ZN17RecordingReporterC2Ev
 174              	_ZN17RecordingReporterC2Ev:
 175              	.LFB1069:
 176              		.file 4 "RecordingReporter.h"
   1:RecordingReporter.h **** #ifndef UNITTEST_RECORDINGREPORTER_H
   2:RecordingReporter.h **** #define UNITTEST_RECORDINGREPORTER_H
   3:RecordingReporter.h **** 
   4:RecordingReporter.h **** #include "../TestReporter.h"
   5:RecordingReporter.h **** #include <cstring>
   6:RecordingReporter.h **** 
   7:RecordingReporter.h **** #include "../TestDetails.h"
   8:RecordingReporter.h **** 
   9:RecordingReporter.h **** struct RecordingReporter : public UnitTest::TestReporter
  10:RecordingReporter.h **** {
  11:RecordingReporter.h **** private:
  12:RecordingReporter.h ****     enum { kMaxStringLength = 256 };
  13:RecordingReporter.h **** 
  14:RecordingReporter.h **** public:
  15:RecordingReporter.h ****     RecordingReporter()
 177              		.loc 4 15 0
 178              		.cfi_startproc
 179 0000 55       		pushq	%rbp
 180              		.cfi_def_cfa_offset 16
 181              		.cfi_offset 6, -16
 182 0001 4889E5   		movq	%rsp, %rbp
 183              		.cfi_def_cfa_register 6
 184 0004 4883EC10 		subq	$16, %rsp
 185 0008 48897DF8 		movq	%rdi, -8(%rbp)
 186              	.LBB5:
  16:RecordingReporter.h ****         : testRunCount(0)
  17:RecordingReporter.h ****         , testFailedCount(0)
  18:RecordingReporter.h ****         , lastFailedLine(0)
  19:RecordingReporter.h ****         , testFinishedCount(0)
  20:RecordingReporter.h ****         , lastFinishedTestTime(0)
  21:RecordingReporter.h ****         , summaryTotalTestCount(0)
  22:RecordingReporter.h ****         , summaryFailedTestCount(0)
  23:RecordingReporter.h ****         , summaryFailureCount(0)
  24:RecordingReporter.h ****         , summarySecondsElapsed(0)
 187              		.loc 4 24 0
 188 000c 488B45F8 		movq	-8(%rbp), %rax
 189 0010 4889C7   		movq	%rax, %rdi
 190 0013 E8000000 		call	_ZN8UnitTest12TestReporterC2Ev
 190      00
 191 0018 488B45F8 		movq	-8(%rbp), %rax
 192 001c 48C70000 		movq	$_ZTV17RecordingReporter+16, (%rax)
 192      000000
 193 0023 488B45F8 		movq	-8(%rbp), %rax
 194 0027 C7400800 		movl	$0, 8(%rax)
 194      000000
 195 002e 488B45F8 		movq	-8(%rbp), %rax
 196 0032 C7800C02 		movl	$0, 524(%rax)
 196      00000000 
 196      0000
 197 003c 488B45F8 		movq	-8(%rbp), %rax
 198 0040 C7801003 		movl	$0, 784(%rax)
 198      00000000 
 198      0000
 199 004a 488B45F8 		movq	-8(%rbp), %rax
 200 004e C7801406 		movl	$0, 1556(%rax)
 200      00000000 
 200      0000
 201 0058 488B55F8 		movq	-8(%rbp), %rdx
 202 005c 8B050000 		movl	.LC1(%rip), %eax
 202      0000
 203 0062 89821808 		movl	%eax, 2072(%rdx)
 203      0000
 204 0068 488B45F8 		movq	-8(%rbp), %rax
 205 006c C7801C08 		movl	$0, 2076(%rax)
 205      00000000 
 205      0000
 206 0076 488B45F8 		movq	-8(%rbp), %rax
 207 007a C7802008 		movl	$0, 2080(%rax)
 207      00000000 
 207      0000
 208 0084 488B45F8 		movq	-8(%rbp), %rax
 209 0088 C7802408 		movl	$0, 2084(%rax)
 209      00000000 
 209      0000
 210 0092 488B55F8 		movq	-8(%rbp), %rdx
 211 0096 8B050000 		movl	.LC1(%rip), %eax
 211      0000
 212 009c 89822808 		movl	%eax, 2088(%rdx)
 212      0000
  25:RecordingReporter.h ****     {
  26:RecordingReporter.h ****         lastStartedSuite[0] = '\0';
 213              		.loc 4 26 0
 214 00a2 488B45F8 		movq	-8(%rbp), %rax
 215 00a6 C6400C00 		movb	$0, 12(%rax)
  27:RecordingReporter.h ****         lastStartedTest[0] = '\0';
 216              		.loc 4 27 0
 217 00aa 488B45F8 		movq	-8(%rbp), %rax
 218 00ae C6800C01 		movb	$0, 268(%rax)
 218      000000
  28:RecordingReporter.h ****         lastFailedFile[0] = '\0';
 219              		.loc 4 28 0
 220 00b5 488B45F8 		movq	-8(%rbp), %rax
 221 00b9 C6801002 		movb	$0, 528(%rax)
 221      000000
  29:RecordingReporter.h ****         lastFailedSuite[0] = '\0';
 222              		.loc 4 29 0
 223 00c0 488B45F8 		movq	-8(%rbp), %rax
 224 00c4 C6801403 		movb	$0, 788(%rax)
 224      000000
  30:RecordingReporter.h ****         lastFailedTest[0] = '\0';
 225              		.loc 4 30 0
 226 00cb 488B45F8 		movq	-8(%rbp), %rax
 227 00cf C6801404 		movb	$0, 1044(%rax)
 227      000000
  31:RecordingReporter.h ****         lastFailedMessage[0] = '\0';
 228              		.loc 4 31 0
 229 00d6 488B45F8 		movq	-8(%rbp), %rax
 230 00da C6801405 		movb	$0, 1300(%rax)
 230      000000
  32:RecordingReporter.h ****         lastFinishedSuite[0] = '\0';
 231              		.loc 4 32 0
 232 00e1 488B45F8 		movq	-8(%rbp), %rax
 233 00e5 C6801806 		movb	$0, 1560(%rax)
 233      000000
  33:RecordingReporter.h ****         lastFinishedTest[0] = '\0';
 234              		.loc 4 33 0
 235 00ec 488B45F8 		movq	-8(%rbp), %rax
 236 00f0 C6801807 		movb	$0, 1816(%rax)
 236      000000
 237              	.LBE5:
  34:RecordingReporter.h ****     }
 238              		.loc 4 34 0
 239 00f7 C9       		leave
 240              		.cfi_def_cfa 7, 8
 241 00f8 C3       		ret
 242              		.cfi_endproc
 243              	.LFE1069:
 245              		.weak	_ZN17RecordingReporterC1Ev
 246              		.set	_ZN17RecordingReporterC1Ev,_ZN17RecordingReporterC2Ev
 247              		.section	.text._ZN17RecordingReporter15ReportTestStartERKN8UnitTest11TestDetailsE,"axG",@progbits,
 248              		.align 2
 249              		.weak	_ZN17RecordingReporter15ReportTestStartERKN8UnitTest11TestDetailsE
 251              	_ZN17RecordingReporter15ReportTestStartERKN8UnitTest11TestDetailsE:
 252              	.LFB1071:
  35:RecordingReporter.h **** 
  36:RecordingReporter.h ****     virtual void ReportTestStart(UnitTest::TestDetails const& test)
 253              		.loc 4 36 0
 254              		.cfi_startproc
 255 0000 55       		pushq	%rbp
 256              		.cfi_def_cfa_offset 16
 257              		.cfi_offset 6, -16
 258 0001 4889E5   		movq	%rsp, %rbp
 259              		.cfi_def_cfa_register 6
 260 0004 4883EC10 		subq	$16, %rsp
 261 0008 48897DF8 		movq	%rdi, -8(%rbp)
 262 000c 488975F0 		movq	%rsi, -16(%rbp)
 263              	.LBB6:
  37:RecordingReporter.h ****     {
  38:RecordingReporter.h **** 		using namespace std;
  39:RecordingReporter.h **** 
  40:RecordingReporter.h ****         ++testRunCount;
 264              		.loc 4 40 0
 265 0010 488B45F8 		movq	-8(%rbp), %rax
 266 0014 8B4008   		movl	8(%rax), %eax
 267 0017 8D5001   		leal	1(%rax), %edx
 268 001a 488B45F8 		movq	-8(%rbp), %rax
 269 001e 895008   		movl	%edx, 8(%rax)
  41:RecordingReporter.h ****         strcpy(lastStartedSuite, test.suiteName);
 270              		.loc 4 41 0
 271 0021 488B45F0 		movq	-16(%rbp), %rax
 272 0025 488B00   		movq	(%rax), %rax
 273 0028 488B55F8 		movq	-8(%rbp), %rdx
 274 002c 4883C20C 		addq	$12, %rdx
 275 0030 4889C6   		movq	%rax, %rsi
 276 0033 4889D7   		movq	%rdx, %rdi
 277 0036 E8000000 		call	strcpy
 277      00
  42:RecordingReporter.h ****         strcpy(lastStartedTest, test.testName);
 278              		.loc 4 42 0
 279 003b 488B45F0 		movq	-16(%rbp), %rax
 280 003f 488B4008 		movq	8(%rax), %rax
 281 0043 488B55F8 		movq	-8(%rbp), %rdx
 282 0047 4881C20C 		addq	$268, %rdx
 282      010000
 283 004e 4889C6   		movq	%rax, %rsi
 284 0051 4889D7   		movq	%rdx, %rdi
 285 0054 E8000000 		call	strcpy
 285      00
 286              	.LBE6:
  43:RecordingReporter.h ****     }
 287              		.loc 4 43 0
 288 0059 C9       		leave
 289              		.cfi_def_cfa 7, 8
 290 005a C3       		ret
 291              		.cfi_endproc
 292              	.LFE1071:
 294              		.section	.text._ZN17RecordingReporter13ReportFailureERKN8UnitTest11TestDetailsEPKc,"axG",@progbits
 295              		.align 2
 296              		.weak	_ZN17RecordingReporter13ReportFailureERKN8UnitTest11TestDetailsEPKc
 298              	_ZN17RecordingReporter13ReportFailureERKN8UnitTest11TestDetailsEPKc:
 299              	.LFB1072:
  44:RecordingReporter.h **** 
  45:RecordingReporter.h ****     virtual void ReportFailure(UnitTest::TestDetails const& test, char const* failure)
 300              		.loc 4 45 0
 301              		.cfi_startproc
 302 0000 55       		pushq	%rbp
 303              		.cfi_def_cfa_offset 16
 304              		.cfi_offset 6, -16
 305 0001 4889E5   		movq	%rsp, %rbp
 306              		.cfi_def_cfa_register 6
 307 0004 4883EC20 		subq	$32, %rsp
 308 0008 48897DF8 		movq	%rdi, -8(%rbp)
 309 000c 488975F0 		movq	%rsi, -16(%rbp)
 310 0010 488955E8 		movq	%rdx, -24(%rbp)
 311              	.LBB7:
  46:RecordingReporter.h ****     {
  47:RecordingReporter.h **** 		using namespace std;
  48:RecordingReporter.h **** 
  49:RecordingReporter.h **** 		++testFailedCount;
 312              		.loc 4 49 0
 313 0014 488B45F8 		movq	-8(%rbp), %rax
 314 0018 8B800C02 		movl	524(%rax), %eax
 314      0000
 315 001e 8D5001   		leal	1(%rax), %edx
 316 0021 488B45F8 		movq	-8(%rbp), %rax
 317 0025 89900C02 		movl	%edx, 524(%rax)
 317      0000
  50:RecordingReporter.h ****         strcpy(lastFailedFile, test.filename);
 318              		.loc 4 50 0
 319 002b 488B45F0 		movq	-16(%rbp), %rax
 320 002f 488B4010 		movq	16(%rax), %rax
 321 0033 488B55F8 		movq	-8(%rbp), %rdx
 322 0037 4881C210 		addq	$528, %rdx
 322      020000
 323 003e 4889C6   		movq	%rax, %rsi
 324 0041 4889D7   		movq	%rdx, %rdi
 325 0044 E8000000 		call	strcpy
 325      00
  51:RecordingReporter.h ****         lastFailedLine = test.lineNumber;
 326              		.loc 4 51 0
 327 0049 488B45F0 		movq	-16(%rbp), %rax
 328 004d 8B5018   		movl	24(%rax), %edx
 329 0050 488B45F8 		movq	-8(%rbp), %rax
 330 0054 89901003 		movl	%edx, 784(%rax)
 330      0000
  52:RecordingReporter.h ****         strcpy(lastFailedSuite, test.suiteName);
 331              		.loc 4 52 0
 332 005a 488B45F0 		movq	-16(%rbp), %rax
 333 005e 488B00   		movq	(%rax), %rax
 334 0061 488B55F8 		movq	-8(%rbp), %rdx
 335 0065 4881C214 		addq	$788, %rdx
 335      030000
 336 006c 4889C6   		movq	%rax, %rsi
 337 006f 4889D7   		movq	%rdx, %rdi
 338 0072 E8000000 		call	strcpy
 338      00
  53:RecordingReporter.h ****         strcpy(lastFailedTest, test.testName);
 339              		.loc 4 53 0
 340 0077 488B45F0 		movq	-16(%rbp), %rax
 341 007b 488B4008 		movq	8(%rax), %rax
 342 007f 488B55F8 		movq	-8(%rbp), %rdx
 343 0083 4881C214 		addq	$1044, %rdx
 343      040000
 344 008a 4889C6   		movq	%rax, %rsi
 345 008d 4889D7   		movq	%rdx, %rdi
 346 0090 E8000000 		call	strcpy
 346      00
  54:RecordingReporter.h ****         strcpy(lastFailedMessage, failure);
 347              		.loc 4 54 0
 348 0095 488B45F8 		movq	-8(%rbp), %rax
 349 0099 488D9014 		leaq	1300(%rax), %rdx
 349      050000
 350 00a0 488B45E8 		movq	-24(%rbp), %rax
 351 00a4 4889C6   		movq	%rax, %rsi
 352 00a7 4889D7   		movq	%rdx, %rdi
 353 00aa E8000000 		call	strcpy
 353      00
 354              	.LBE7:
  55:RecordingReporter.h ****     }
 355              		.loc 4 55 0
 356 00af C9       		leave
 357              		.cfi_def_cfa 7, 8
 358 00b0 C3       		ret
 359              		.cfi_endproc
 360              	.LFE1072:
 362              		.section	.text._ZN17RecordingReporter16ReportTestFinishERKN8UnitTest11TestDetailsEf,"axG",@progbit
 363              		.align 2
 364              		.weak	_ZN17RecordingReporter16ReportTestFinishERKN8UnitTest11TestDetailsEf
 366              	_ZN17RecordingReporter16ReportTestFinishERKN8UnitTest11TestDetailsEf:
 367              	.LFB1073:
  56:RecordingReporter.h **** 
  57:RecordingReporter.h ****     virtual void ReportTestFinish(UnitTest::TestDetails const& test, float testDuration)
 368              		.loc 4 57 0
 369              		.cfi_startproc
 370 0000 55       		pushq	%rbp
 371              		.cfi_def_cfa_offset 16
 372              		.cfi_offset 6, -16
 373 0001 4889E5   		movq	%rsp, %rbp
 374              		.cfi_def_cfa_register 6
 375 0004 4883EC20 		subq	$32, %rsp
 376 0008 48897DF8 		movq	%rdi, -8(%rbp)
 377 000c 488975F0 		movq	%rsi, -16(%rbp)
 378 0010 F30F1145 		movss	%xmm0, -20(%rbp)
 378      EC
 379              	.LBB8:
  58:RecordingReporter.h ****     {
  59:RecordingReporter.h **** 		using namespace std;
  60:RecordingReporter.h **** 
  61:RecordingReporter.h **** 		++testFinishedCount;
 380              		.loc 4 61 0
 381 0015 488B45F8 		movq	-8(%rbp), %rax
 382 0019 8B801406 		movl	1556(%rax), %eax
 382      0000
 383 001f 8D5001   		leal	1(%rax), %edx
 384 0022 488B45F8 		movq	-8(%rbp), %rax
 385 0026 89901406 		movl	%edx, 1556(%rax)
 385      0000
  62:RecordingReporter.h ****         strcpy(lastFinishedSuite, test.suiteName);
 386              		.loc 4 62 0
 387 002c 488B45F0 		movq	-16(%rbp), %rax
 388 0030 488B00   		movq	(%rax), %rax
 389 0033 488B55F8 		movq	-8(%rbp), %rdx
 390 0037 4881C218 		addq	$1560, %rdx
 390      060000
 391 003e 4889C6   		movq	%rax, %rsi
 392 0041 4889D7   		movq	%rdx, %rdi
 393 0044 E8000000 		call	strcpy
 393      00
  63:RecordingReporter.h ****         strcpy(lastFinishedTest, test.testName);
 394              		.loc 4 63 0
 395 0049 488B45F0 		movq	-16(%rbp), %rax
 396 004d 488B4008 		movq	8(%rax), %rax
 397 0051 488B55F8 		movq	-8(%rbp), %rdx
 398 0055 4881C218 		addq	$1816, %rdx
 398      070000
 399 005c 4889C6   		movq	%rax, %rsi
 400 005f 4889D7   		movq	%rdx, %rdi
 401 0062 E8000000 		call	strcpy
 401      00
  64:RecordingReporter.h ****         lastFinishedTestTime = testDuration;
 402              		.loc 4 64 0
 403 0067 488B55F8 		movq	-8(%rbp), %rdx
 404 006b 8B45EC   		movl	-20(%rbp), %eax
 405 006e 89821808 		movl	%eax, 2072(%rdx)
 405      0000
 406              	.LBE8:
  65:RecordingReporter.h ****     }
 407              		.loc 4 65 0
 408 0074 C9       		leave
 409              		.cfi_def_cfa 7, 8
 410 0075 C3       		ret
 411              		.cfi_endproc
 412              	.LFE1073:
 414              		.section	.text._ZN17RecordingReporter13ReportSummaryEiiif,"axG",@progbits,_ZN17RecordingReporter13
 415              		.align 2
 416              		.weak	_ZN17RecordingReporter13ReportSummaryEiiif
 418              	_ZN17RecordingReporter13ReportSummaryEiiif:
 419              	.LFB1074:
  66:RecordingReporter.h **** 
  67:RecordingReporter.h ****     virtual void ReportSummary(int totalTestCount, int failedTestCount, int failureCount, float sec
 420              		.loc 4 67 0
 421              		.cfi_startproc
 422 0000 55       		pushq	%rbp
 423              		.cfi_def_cfa_offset 16
 424              		.cfi_offset 6, -16
 425 0001 4889E5   		movq	%rsp, %rbp
 426              		.cfi_def_cfa_register 6
 427 0004 48897DF8 		movq	%rdi, -8(%rbp)
 428 0008 8975F4   		movl	%esi, -12(%rbp)
 429 000b 8955F0   		movl	%edx, -16(%rbp)
 430 000e 894DEC   		movl	%ecx, -20(%rbp)
 431 0011 F30F1145 		movss	%xmm0, -24(%rbp)
 431      E8
  68:RecordingReporter.h ****     {
  69:RecordingReporter.h ****         summaryTotalTestCount = totalTestCount;
 432              		.loc 4 69 0
 433 0016 488B45F8 		movq	-8(%rbp), %rax
 434 001a 8B55F4   		movl	-12(%rbp), %edx
 435 001d 89901C08 		movl	%edx, 2076(%rax)
 435      0000
  70:RecordingReporter.h ****         summaryFailedTestCount = failedTestCount;
 436              		.loc 4 70 0
 437 0023 488B45F8 		movq	-8(%rbp), %rax
 438 0027 8B55F0   		movl	-16(%rbp), %edx
 439 002a 89902008 		movl	%edx, 2080(%rax)
 439      0000
  71:RecordingReporter.h ****         summaryFailureCount = failureCount;
 440              		.loc 4 71 0
 441 0030 488B45F8 		movq	-8(%rbp), %rax
 442 0034 8B55EC   		movl	-20(%rbp), %edx
 443 0037 89902408 		movl	%edx, 2084(%rax)
 443      0000
  72:RecordingReporter.h ****         summarySecondsElapsed = secondsElapsed;
 444              		.loc 4 72 0
 445 003d 488B55F8 		movq	-8(%rbp), %rdx
 446 0041 8B45E8   		movl	-24(%rbp), %eax
 447 0044 89822808 		movl	%eax, 2088(%rdx)
 447      0000
  73:RecordingReporter.h ****     }
 448              		.loc 4 73 0
 449 004a 5D       		popq	%rbp
 450              		.cfi_def_cfa 7, 8
 451 004b C3       		ret
 452              		.cfi_endproc
 453              	.LFE1074:
 455              		.section	.text._ZN17ScopedCurrentTestC2ERN8UnitTest11TestResultsEPKNS0_11TestDetailsE,"axG",@progb
 456              		.align 2
 457              		.weak	_ZN17ScopedCurrentTestC2ERN8UnitTest11TestResultsEPKNS0_11TestDetailsE
 459              	_ZN17ScopedCurrentTestC2ERN8UnitTest11TestResultsEPKNS0_11TestDetailsE:
 460              	.LFB1079:
 461              		.file 5 "ScopedCurrentTest.h"
   1:ScopedCurrentTest.h **** #ifndef UNITTEST_SCOPEDCURRENTTEST_H
   2:ScopedCurrentTest.h **** #define UNITTEST_SCOPEDCURRENTTEST_H
   3:ScopedCurrentTest.h **** 
   4:ScopedCurrentTest.h **** #include "../CurrentTest.h"
   5:ScopedCurrentTest.h **** #include <cstddef>
   6:ScopedCurrentTest.h **** 
   7:ScopedCurrentTest.h **** class ScopedCurrentTest
   8:ScopedCurrentTest.h **** {
   9:ScopedCurrentTest.h **** public:
  10:ScopedCurrentTest.h **** 	ScopedCurrentTest()
  11:ScopedCurrentTest.h **** 		: m_oldTestResults(UnitTest::CurrentTest::Results())
  12:ScopedCurrentTest.h **** 		, m_oldTestDetails(UnitTest::CurrentTest::Details())
  13:ScopedCurrentTest.h **** 	{
  14:ScopedCurrentTest.h **** 	}
  15:ScopedCurrentTest.h **** 
  16:ScopedCurrentTest.h **** 	explicit ScopedCurrentTest(UnitTest::TestResults& newResults, const UnitTest::TestDetails* newDeta
 462              		.loc 5 16 0
 463              		.cfi_startproc
 464 0000 55       		pushq	%rbp
 465              		.cfi_def_cfa_offset 16
 466              		.cfi_offset 6, -16
 467 0001 4889E5   		movq	%rsp, %rbp
 468              		.cfi_def_cfa_register 6
 469 0004 4883EC20 		subq	$32, %rsp
 470 0008 48897DF8 		movq	%rdi, -8(%rbp)
 471 000c 488975F0 		movq	%rsi, -16(%rbp)
 472 0010 488955E8 		movq	%rdx, -24(%rbp)
 473              	.LBB9:
  17:ScopedCurrentTest.h **** 		: m_oldTestResults(UnitTest::CurrentTest::Results())
 474              		.loc 5 17 0
 475 0014 E8000000 		call	_ZN8UnitTest11CurrentTest7ResultsEv
 475      00
  18:ScopedCurrentTest.h **** 		, m_oldTestDetails(UnitTest::CurrentTest::Details())
 476              		.loc 5 18 0
 477 0019 488B10   		movq	(%rax), %rdx
 478 001c 488B45F8 		movq	-8(%rbp), %rax
 479 0020 488910   		movq	%rdx, (%rax)
 480 0023 E8000000 		call	_ZN8UnitTest11CurrentTest7DetailsEv
 480      00
 481 0028 488B10   		movq	(%rax), %rdx
 482 002b 488B45F8 		movq	-8(%rbp), %rax
 483 002f 48895008 		movq	%rdx, 8(%rax)
  19:ScopedCurrentTest.h **** 	{
  20:ScopedCurrentTest.h **** 		UnitTest::CurrentTest::Results() = &newResults;
 484              		.loc 5 20 0
 485 0033 E8000000 		call	_ZN8UnitTest11CurrentTest7ResultsEv
 485      00
 486 0038 4889C2   		movq	%rax, %rdx
 487 003b 488B45F0 		movq	-16(%rbp), %rax
 488 003f 488902   		movq	%rax, (%rdx)
  21:ScopedCurrentTest.h **** 
  22:ScopedCurrentTest.h **** 		if (newDetails != NULL)
 489              		.loc 5 22 0
 490 0042 48837DE8 		cmpq	$0, -24(%rbp)
 490      00
 491 0047 740F     		je	.L15
  23:ScopedCurrentTest.h **** 			UnitTest::CurrentTest::Details() = newDetails;
 492              		.loc 5 23 0
 493 0049 E8000000 		call	_ZN8UnitTest11CurrentTest7DetailsEv
 493      00
 494 004e 4889C2   		movq	%rax, %rdx
 495 0051 488B45E8 		movq	-24(%rbp), %rax
 496 0055 488902   		movq	%rax, (%rdx)
 497              	.L15:
 498              	.LBE9:
  24:ScopedCurrentTest.h **** 	}
 499              		.loc 5 24 0
 500 0058 C9       		leave
 501              		.cfi_def_cfa 7, 8
 502 0059 C3       		ret
 503              		.cfi_endproc
 504              	.LFE1079:
 506              		.weak	_ZN17ScopedCurrentTestC1ERN8UnitTest11TestResultsEPKNS0_11TestDetailsE
 507              		.set	_ZN17ScopedCurrentTestC1ERN8UnitTest11TestResultsEPKNS0_11TestDetailsE,_ZN17ScopedCurrentTest
 508              		.section	.text._ZN17ScopedCurrentTestD2Ev,"axG",@progbits,_ZN17ScopedCurrentTestD5Ev,comdat
 509              		.align 2
 510              		.weak	_ZN17ScopedCurrentTestD2Ev
 512              	_ZN17ScopedCurrentTestD2Ev:
 513              	.LFB1082:
  25:ScopedCurrentTest.h **** 
  26:ScopedCurrentTest.h **** 	~ScopedCurrentTest()
 514              		.loc 5 26 0
 515              		.cfi_startproc
 516 0000 55       		pushq	%rbp
 517              		.cfi_def_cfa_offset 16
 518              		.cfi_offset 6, -16
 519 0001 4889E5   		movq	%rsp, %rbp
 520              		.cfi_def_cfa_register 6
 521 0004 4883EC10 		subq	$16, %rsp
 522 0008 48897DF8 		movq	%rdi, -8(%rbp)
 523              	.LBB10:
  27:ScopedCurrentTest.h **** 	{
  28:ScopedCurrentTest.h **** 		UnitTest::CurrentTest::Results() = m_oldTestResults;
 524              		.loc 5 28 0
 525 000c E8000000 		call	_ZN8UnitTest11CurrentTest7ResultsEv
 525      00
 526 0011 4889C2   		movq	%rax, %rdx
 527 0014 488B45F8 		movq	-8(%rbp), %rax
 528 0018 488B00   		movq	(%rax), %rax
 529 001b 488902   		movq	%rax, (%rdx)
  29:ScopedCurrentTest.h **** 		UnitTest::CurrentTest::Details() = m_oldTestDetails;
 530              		.loc 5 29 0
 531 001e E8000000 		call	_ZN8UnitTest11CurrentTest7DetailsEv
 531      00
 532 0023 4889C2   		movq	%rax, %rdx
 533 0026 488B45F8 		movq	-8(%rbp), %rax
 534 002a 488B4008 		movq	8(%rax), %rax
 535 002e 488902   		movq	%rax, (%rdx)
 536              	.LBE10:
  30:ScopedCurrentTest.h **** 	}
 537              		.loc 5 30 0
 538 0031 C9       		leave
 539              		.cfi_def_cfa 7, 8
 540 0032 C3       		ret
 541              		.cfi_endproc
 542              	.LFE1082:
 544              		.weak	_ZN17ScopedCurrentTestD1Ev
 545              		.set	_ZN17ScopedCurrentTestD1Ev,_ZN17ScopedCurrentTestD2Ev
 546              		.section	.rodata
 547              	.LC2:
 548 000d 54657374 		.string	"TestTimeConstraintMacro.cpp"
 548      54696D65 
 548      436F6E73 
 548      74726169 
 548      6E744D61 
 549 0029 00000000 		.align 8
 549      000000
 550              	.LC3:
 551 0030 54696D65 		.string	"TimeConstraintMacroQualifiesNamespace"
 551      436F6E73 
 551      74726169 
 551      6E744D61 
 551      63726F51 
 552              		.text
 553              		.align 2
 555              	_ZN12_GLOBAL__N_141TestTimeConstraintMacroQualifiesNamespaceC2Ev:
 556              	.LFB1085:
 557              		.file 6 "TestTimeConstraintMacro.cpp"
   1:TestTimeConstraintMacro.cpp **** #include "../UnitTest++.h"
   2:TestTimeConstraintMacro.cpp **** #include "../TimeHelpers.h"
   3:TestTimeConstraintMacro.cpp **** 
   4:TestTimeConstraintMacro.cpp **** #include "RecordingReporter.h"
   5:TestTimeConstraintMacro.cpp **** #include "ScopedCurrentTest.h"
   6:TestTimeConstraintMacro.cpp **** 
   7:TestTimeConstraintMacro.cpp **** namespace {
   8:TestTimeConstraintMacro.cpp **** 
   9:TestTimeConstraintMacro.cpp **** TEST (TimeConstraintMacroQualifiesNamespace)
 558              		.loc 6 9 0
 559              		.cfi_startproc
 560 0000 55       		pushq	%rbp
 561              		.cfi_def_cfa_offset 16
 562              		.cfi_offset 6, -16
 563 0001 4889E5   		movq	%rsp, %rbp
 564              		.cfi_def_cfa_register 6
 565 0004 4883EC10 		subq	$16, %rsp
 566 0008 48897DF8 		movq	%rdi, -8(%rbp)
 567              	.LBB11:
 568              		.loc 6 9 0
 569 000c E8000000 		call	_ZN13UnitTestSuite12GetSuiteNameEv
 569      00
 570 0011 4889C2   		movq	%rax, %rdx
 571 0014 488B45F8 		movq	-8(%rbp), %rax
 572 0018 41B80900 		movl	$9, %r8d
 572      0000
 573 001e B9000000 		movl	$.LC2, %ecx
 573      00
 574 0023 BE000000 		movl	$.LC3, %esi
 574      00
 575 0028 4889C7   		movq	%rax, %rdi
 576 002b E8000000 		call	_ZN8UnitTest4TestC2EPKcS2_S2_i
 576      00
 577 0030 488B45F8 		movq	-8(%rbp), %rax
 578 0034 48C70000 		movq	$_ZTVN12_GLOBAL__N_141TestTimeConstraintMacroQualifiesNamespaceE+16, (%rax)
 578      000000
 579              	.LBE11:
 580 003b C9       		leave
 581              		.cfi_def_cfa 7, 8
 582 003c C3       		ret
 583              		.cfi_endproc
 584              	.LFE1085:
 586              		.local	_ZN12_GLOBAL__N_149testTimeConstraintMacroQualifiesNamespaceInstanceE
 587              		.comm	_ZN12_GLOBAL__N_149testTimeConstraintMacroQualifiesNamespaceInstanceE,56,32
 588              		.local	_ZN12_GLOBAL__N_142adderTimeConstraintMacroQualifiesNamespaceE
 589              		.comm	_ZN12_GLOBAL__N_142adderTimeConstraintMacroQualifiesNamespaceE,1,1
 590 003d 90       		.align 2
 592              	_ZNK12_GLOBAL__N_141TestTimeConstraintMacroQualifiesNamespace7RunImplEv:
 593              	.LFB1087:
  10:TestTimeConstraintMacro.cpp **** {
 594              		.loc 6 10 0
 595              		.cfi_startproc
 596 003e 55       		pushq	%rbp
 597              		.cfi_def_cfa_offset 16
 598              		.cfi_offset 6, -16
 599 003f 4889E5   		movq	%rsp, %rbp
 600              		.cfi_def_cfa_register 6
 601 0042 4883EC60 		subq	$96, %rsp
 602 0046 48897DA8 		movq	%rdi, -88(%rbp)
 603              		.loc 6 10 0
 604 004a 64488B04 		movq	%fs:40, %rax
 604      25280000 
 604      00
 605 0053 488945F8 		movq	%rax, -8(%rbp)
 606 0057 31C0     		xorl	%eax, %eax
 607              	.LBB12:
  11:TestTimeConstraintMacro.cpp ****     // If this compiles without a "using namespace UnitTest;", all is well.
  12:TestTimeConstraintMacro.cpp ****     UNITTEST_TIME_CONSTRAINT(1);
 608              		.loc 6 12 0
 609 0059 488B45A8 		movq	-88(%rbp), %rax
 610 005d 488D4808 		leaq	8(%rax), %rcx
 611 0061 488D45D0 		leaq	-48(%rbp), %rax
 612 0065 BA0C0000 		movl	$12, %edx
 612      00
 613 006a 4889CE   		movq	%rcx, %rsi
 614 006d 4889C7   		movq	%rax, %rdi
 615 0070 E8000000 		call	_ZN8UnitTest11TestDetailsC1ERKS0_i
 615      00
 616 0075 488D55D0 		leaq	-48(%rbp), %rdx
 617 0079 488D45B0 		leaq	-80(%rbp), %rax
 618 007d BE010000 		movl	$1, %esi
 618      00
 619 0082 4889C7   		movq	%rax, %rdi
 620 0085 E8000000 		call	_ZN8UnitTest14TimeConstraintC1EiRKNS_11TestDetailsE
 620      00
 621 008a 488D45B0 		leaq	-80(%rbp), %rax
 622 008e 4889C7   		movq	%rax, %rdi
 623 0091 E8000000 		call	_ZN8UnitTest14TimeConstraintD1Ev
 623      00
 624              	.LBE12:
  13:TestTimeConstraintMacro.cpp **** }
 625              		.loc 6 13 0
 626 0096 488B45F8 		movq	-8(%rbp), %rax
 627 009a 64483304 		xorq	%fs:40, %rax
 627      25280000 
 627      00
 628 00a3 7405     		je	.L21
 629 00a5 E8000000 		call	__stack_chk_fail
 629      00
 630              	.L21:
 631 00aa C9       		leave
 632              		.cfi_def_cfa 7, 8
 633 00ab C3       		ret
 634              		.cfi_endproc
 635              	.LFE1087:
 637              		.section	.rodata
 638 0056 0000     		.align 8
 639              	.LC4:
 640 0058 54696D65 		.string	"TimeConstraintMacroUsesCorrectInfo"
 640      436F6E73 
 640      74726169 
 640      6E744D61 
 640      63726F55 
 641              		.text
 642              		.align 2
 644              	_ZN12_GLOBAL__N_138TestTimeConstraintMacroUsesCorrectInfoC2Ev:
 645              	.LFB1089:
  14:TestTimeConstraintMacro.cpp **** 
  15:TestTimeConstraintMacro.cpp **** TEST (TimeConstraintMacroUsesCorrectInfo)
 646              		.loc 6 15 0
 647              		.cfi_startproc
 648 00ac 55       		pushq	%rbp
 649              		.cfi_def_cfa_offset 16
 650              		.cfi_offset 6, -16
 651 00ad 4889E5   		movq	%rsp, %rbp
 652              		.cfi_def_cfa_register 6
 653 00b0 4883EC10 		subq	$16, %rsp
 654 00b4 48897DF8 		movq	%rdi, -8(%rbp)
 655              	.LBB13:
 656              		.loc 6 15 0
 657 00b8 E8000000 		call	_ZN13UnitTestSuite12GetSuiteNameEv
 657      00
 658 00bd 4889C2   		movq	%rax, %rdx
 659 00c0 488B45F8 		movq	-8(%rbp), %rax
 660 00c4 41B80F00 		movl	$15, %r8d
 660      0000
 661 00ca B9000000 		movl	$.LC2, %ecx
 661      00
 662 00cf BE000000 		movl	$.LC4, %esi
 662      00
 663 00d4 4889C7   		movq	%rax, %rdi
 664 00d7 E8000000 		call	_ZN8UnitTest4TestC2EPKcS2_S2_i
 664      00
 665 00dc 488B45F8 		movq	-8(%rbp), %rax
 666 00e0 48C70000 		movq	$_ZTVN12_GLOBAL__N_138TestTimeConstraintMacroUsesCorrectInfoE+16, (%rax)
 666      000000
 667              	.LBE13:
 668 00e7 C9       		leave
 669              		.cfi_def_cfa 7, 8
 670 00e8 C3       		ret
 671              		.cfi_endproc
 672              	.LFE1089:
 674              		.local	_ZN12_GLOBAL__N_146testTimeConstraintMacroUsesCorrectInfoInstanceE
 675              		.comm	_ZN12_GLOBAL__N_146testTimeConstraintMacroUsesCorrectInfoInstanceE,56,32
 676              		.local	_ZN12_GLOBAL__N_139adderTimeConstraintMacroUsesCorrectInfoE
 677              		.comm	_ZN12_GLOBAL__N_139adderTimeConstraintMacroUsesCorrectInfoE,1,1
 678              		.section	.rodata
 679 007b 00000000 		.align 8
 679      00
 680              	.LC5:
 681 0080 73747273 		.string	"strstr(reporter.lastFailedFile, __FILE__)"
 681      74722872 
 681      65706F72 
 681      7465722E 
 681      6C617374 
 682 00aa 00000000 		.align 8
 682      0000
 683              	.LC6:
 684 00b0 73747273 		.string	"strstr(reporter.lastFailedTest, \"TimeConstraintMacroUsesCorrectInfo\")"
 684      74722872 
 684      65706F72 
 684      7465722E 
 684      6C617374 
 685 00f6 0000     		.align 8
 686              	.LC7:
 687 00f8 556E6861 		.string	"Unhandled exception in CHECK_EQUAL(1, reporter.testFailedCount)"
 687      6E646C65 
 687      64206578 
 687      63657074 
 687      696F6E20 
 688              		.align 8
 689              	.LC8:
 690 0138 556E6861 		.string	"Unhandled exception in CHECK(strstr(reporter.lastFailedFile, __FILE__))"
 690      6E646C65 
 690      64206578 
 690      63657074 
 690      696F6E20 
 691              		.align 8
 692              	.LC9:
 693 0180 556E6861 		.string	"Unhandled exception in CHECK_EQUAL(testLine, reporter.lastFailedLine)"
 693      6E646C65 
 693      64206578 
 693      63657074 
 693      696F6E20 
 694 01c6 0000     		.align 8
 695              	.LC10:
 696 01c8 556E6861 		.string	"Unhandled exception in CHECK(strstr(reporter.lastFailedTest, \"TimeConstraintMacroUsesCor
 696      6E646C65 
 696      64206578 
 696      63657074 
 696      696F6E20 
 697              		.text
 698 00e9 90       		.align 2
 700              	_ZNK12_GLOBAL__N_138TestTimeConstraintMacroUsesCorrectInfo7RunImplEv:
 701              	.LFB1091:
  16:TestTimeConstraintMacro.cpp **** {
 702              		.loc 6 16 0
 703              		.cfi_startproc
 704              		.cfi_personality 0x3,__gxx_personality_v0
 705              		.cfi_lsda 0x3,.LLSDA1091
 706 00ea 55       		pushq	%rbp
 707              		.cfi_def_cfa_offset 16
 708              		.cfi_offset 6, -16
 709 00eb 4889E5   		movq	%rsp, %rbp
 710              		.cfi_def_cfa_register 6
 711 00ee 53       		pushq	%rbx
 712 00ef 4881ECD8 		subq	$2264, %rsp
 712      080000
 713              		.cfi_offset 3, -24
 714 00f6 4889BD28 		movq	%rdi, -2264(%rbp)
 714      F7FFFF
 715              		.loc 6 16 0
 716 00fd 64488B04 		movq	%fs:40, %rax
 716      25280000 
 716      00
 717 0106 488945E8 		movq	%rax, -24(%rbp)
 718 010a 31C0     		xorl	%eax, %eax
 719              	.LBB14:
  17:TestTimeConstraintMacro.cpp ****     int testLine = 0;
 720              		.loc 6 17 0
 721 010c C7853CF7 		movl	$0, -2244(%rbp)
 721      FFFF0000 
 721      0000
  18:TestTimeConstraintMacro.cpp ****     RecordingReporter reporter;
 722              		.loc 6 18 0
 723 0116 488D85B0 		leaq	-2128(%rbp), %rax
 723      F7FFFF
 724 011d 4889C7   		movq	%rax, %rdi
 725 0120 E8000000 		call	_ZN17RecordingReporterC1Ev
 725      00
 726              	.LBB15:
  19:TestTimeConstraintMacro.cpp ****     {
  20:TestTimeConstraintMacro.cpp ****         UnitTest::TestResults testResults(&reporter);
 727              		.loc 6 20 0
 728 0125 488D95B0 		leaq	-2128(%rbp), %rdx
 728      F7FFFF
 729 012c 488D8550 		leaq	-2224(%rbp), %rax
 729      F7FFFF
 730 0133 4889D6   		movq	%rdx, %rsi
 731 0136 4889C7   		movq	%rax, %rdi
 732              	.LEHB4:
 733 0139 E8000000 		call	_ZN8UnitTest11TestResultsC1EPNS_12TestReporterE
 733      00
  21:TestTimeConstraintMacro.cpp **** 		ScopedCurrentTest scopedResults(testResults);
 734              		.loc 6 21 0
 735 013e 488D8D50 		leaq	-2224(%rbp), %rcx
 735      F7FFFF
 736 0145 488D8540 		leaq	-2240(%rbp), %rax
 736      F7FFFF
 737 014c BA000000 		movl	$0, %edx
 737      00
 738 0151 4889CE   		movq	%rcx, %rsi
 739 0154 4889C7   		movq	%rax, %rdi
 740 0157 E8000000 		call	_ZN17ScopedCurrentTestC1ERN8UnitTest11TestResultsEPKNS0_11TestDetailsE
 740      00
 741              	.LEHE4:
  22:TestTimeConstraintMacro.cpp **** 
  23:TestTimeConstraintMacro.cpp ****         UNITTEST_TIME_CONSTRAINT(10); testLine = __LINE__;
 742              		.loc 6 23 0
 743 015c 488B8528 		movq	-2264(%rbp), %rax
 743      F7FFFF
 744 0163 488D4808 		leaq	8(%rax), %rcx
 745 0167 488D8590 		leaq	-2160(%rbp), %rax
 745      F7FFFF
 746 016e BA170000 		movl	$23, %edx
 746      00
 747 0173 4889CE   		movq	%rcx, %rsi
 748 0176 4889C7   		movq	%rax, %rdi
 749              	.LEHB5:
 750 0179 E8000000 		call	_ZN8UnitTest11TestDetailsC1ERKS0_i
 750      00
 751              		.loc 6 23 0 is_stmt 0 discriminator 1
 752 017e 488D9590 		leaq	-2160(%rbp), %rdx
 752      F7FFFF
 753 0185 488D8570 		leaq	-2192(%rbp), %rax
 753      F7FFFF
 754 018c BE0A0000 		movl	$10, %esi
 754      00
 755 0191 4889C7   		movq	%rax, %rdi
 756 0194 E8000000 		call	_ZN8UnitTest14TimeConstraintC1EiRKNS_11TestDetailsE
 756      00
 757              	.LEHE5:
 758              		.loc 6 23 0 discriminator 3
 759 0199 C7853CF7 		movl	$23, -2244(%rbp)
 759      FFFF1700 
 759      0000
  24:TestTimeConstraintMacro.cpp ****         UnitTest::TimeHelpers::SleepMs(20);
 760              		.loc 6 24 0 is_stmt 1 discriminator 3
 761 01a3 BF140000 		movl	$20, %edi
 761      00
 762              	.LEHB6:
 763 01a8 E8000000 		call	_ZN8UnitTest11TimeHelpers7SleepMsEi
 763      00
 764              	.LEHE6:
  23:TestTimeConstraintMacro.cpp ****         UnitTest::TimeHelpers::SleepMs(20);
 765              		.loc 6 23 0
 766 01ad 488D8570 		leaq	-2192(%rbp), %rax
 766      F7FFFF
 767 01b4 4889C7   		movq	%rax, %rdi
 768              	.LEHB7:
 769 01b7 E8000000 		call	_ZN8UnitTest14TimeConstraintD1Ev
 769      00
 770              	.LEHE7:
 771              		.loc 6 24 0
 772 01bc 488D8540 		leaq	-2240(%rbp), %rax
 772      F7FFFF
 773 01c3 4889C7   		movq	%rax, %rdi
 774              	.LEHB8:
 775 01c6 E8000000 		call	_ZN17ScopedCurrentTestD1Ev
 775      00
 776              	.LEHE8:
 777              	.LEHB9:
 778              	.LBE15:
  25:TestTimeConstraintMacro.cpp ****     }
  26:TestTimeConstraintMacro.cpp **** 
  27:TestTimeConstraintMacro.cpp **** 	using namespace std;
  28:TestTimeConstraintMacro.cpp **** 
  29:TestTimeConstraintMacro.cpp ****     CHECK_EQUAL(1, reporter.testFailedCount);
 779              		.loc 6 29 0
 780 01cb E8000000 		call	_ZN8UnitTest11CurrentTest7DetailsEv
 780      00
 781 01d0 488B08   		movq	(%rax), %rcx
 782 01d3 488D8590 		leaq	-2160(%rbp), %rax
 782      F7FFFF
 783 01da BA1D0000 		movl	$29, %edx
 783      00
 784 01df 4889CE   		movq	%rcx, %rsi
 785 01e2 4889C7   		movq	%rax, %rdi
 786 01e5 E8000000 		call	_ZN8UnitTest11TestDetailsC1ERKS0_i
 786      00
 787              		.loc 6 29 0 is_stmt 0 discriminator 2
 788 01ea C78570F7 		movl	$1, -2192(%rbp)
 788      FFFF0100 
 788      0000
 789 01f4 E8000000 		call	_ZN8UnitTest11CurrentTest7ResultsEv
 789      00
 790 01f9 488B00   		movq	(%rax), %rax
 791 01fc 488D9590 		leaq	-2160(%rbp), %rdx
 791      F7FFFF
 792 0203 488D8DB0 		leaq	-2128(%rbp), %rcx
 792      F7FFFF
 793 020a 488DB90C 		leaq	524(%rcx), %rdi
 793      020000
 794 0211 488DB570 		leaq	-2192(%rbp), %rsi
 794      F7FFFF
 795 0218 4889D1   		movq	%rdx, %rcx
 796 021b 4889FA   		movq	%rdi, %rdx
 797 021e 4889C7   		movq	%rax, %rdi
 798 0221 E8000000 		call	_ZN8UnitTest10CheckEqualIiiEEvRNS_11TestResultsERKT_RKT0_RKNS_11TestDetailsE
 798      00
 799              	.LEHE9:
 800              	.L31:
  30:TestTimeConstraintMacro.cpp ****     CHECK(strstr(reporter.lastFailedFile, __FILE__));
 801              		.loc 6 30 0 is_stmt 1
 802 0226 488D85B0 		leaq	-2128(%rbp), %rax
 802      F7FFFF
 803 022d 48051002 		addq	$528, %rax
 803      0000
 804 0233 BE000000 		movl	$.LC2, %esi
 804      00
 805 0238 4889C7   		movq	%rax, %rdi
 806 023b E8000000 		call	strstr
 806      00
 807 0240 4889C7   		movq	%rax, %rdi
 808 0243 E8000000 		call	_ZN8UnitTest5CheckIPcEEbT_
 808      00
 809 0248 83F001   		xorl	$1, %eax
 810 024b 84C0     		testb	%al, %al
 811 024d 743E     		je	.L24
 812              	.LEHB10:
 813              		.loc 6 30 0 is_stmt 0 discriminator 1
 814 024f E8000000 		call	_ZN8UnitTest11CurrentTest7DetailsEv
 814      00
 815 0254 488B08   		movq	(%rax), %rcx
 816 0257 488D8590 		leaq	-2160(%rbp), %rax
 816      F7FFFF
 817 025e BA1E0000 		movl	$30, %edx
 817      00
 818 0263 4889CE   		movq	%rcx, %rsi
 819 0266 4889C7   		movq	%rax, %rdi
 820 0269 E8000000 		call	_ZN8UnitTest11TestDetailsC1ERKS0_i
 820      00
 821              		.loc 6 30 0 discriminator 3
 822 026e E8000000 		call	_ZN8UnitTest11CurrentTest7ResultsEv
 822      00
 823 0273 488B00   		movq	(%rax), %rax
 824 0276 488D8D90 		leaq	-2160(%rbp), %rcx
 824      F7FFFF
 825 027d BA000000 		movl	$.LC5, %edx
 825      00
 826 0282 4889CE   		movq	%rcx, %rsi
 827 0285 4889C7   		movq	%rax, %rdi
 828 0288 E8000000 		call	_ZN8UnitTest11TestResults13OnTestFailureERKNS_11TestDetailsEPKc
 828      00
 829              	.LEHE10:
 830              	.L24:
 831              	.LEHB11:
  31:TestTimeConstraintMacro.cpp ****     CHECK_EQUAL(testLine, reporter.lastFailedLine);
 832              		.loc 6 31 0 is_stmt 1
 833 028d E8000000 		call	_ZN8UnitTest11CurrentTest7DetailsEv
 833      00
 834 0292 488B08   		movq	(%rax), %rcx
 835 0295 488D8590 		leaq	-2160(%rbp), %rax
 835      F7FFFF
 836 029c BA1F0000 		movl	$31, %edx
 836      00
 837 02a1 4889CE   		movq	%rcx, %rsi
 838 02a4 4889C7   		movq	%rax, %rdi
 839 02a7 E8000000 		call	_ZN8UnitTest11TestDetailsC1ERKS0_i
 839      00
 840              		.loc 6 31 0 is_stmt 0 discriminator 2
 841 02ac E8000000 		call	_ZN8UnitTest11CurrentTest7ResultsEv
 841      00
 842 02b1 488B00   		movq	(%rax), %rax
 843 02b4 488D9590 		leaq	-2160(%rbp), %rdx
 843      F7FFFF
 844 02bb 488D8DB0 		leaq	-2128(%rbp), %rcx
 844      F7FFFF
 845 02c2 488DB910 		leaq	784(%rcx), %rdi
 845      030000
 846 02c9 488DB53C 		leaq	-2244(%rbp), %rsi
 846      F7FFFF
 847 02d0 4889D1   		movq	%rdx, %rcx
 848 02d3 4889FA   		movq	%rdi, %rdx
 849 02d6 4889C7   		movq	%rax, %rdi
 850 02d9 E8000000 		call	_ZN8UnitTest10CheckEqualIiiEEvRNS_11TestResultsERKT_RKT0_RKNS_11TestDetailsE
 850      00
 851              	.LEHE11:
 852              	.L36:
  32:TestTimeConstraintMacro.cpp ****     CHECK(strstr(reporter.lastFailedTest, "TimeConstraintMacroUsesCorrectInfo"));
 853              		.loc 6 32 0 is_stmt 1
 854 02de 488D85B0 		leaq	-2128(%rbp), %rax
 854      F7FFFF
 855 02e5 48051404 		addq	$1044, %rax
 855      0000
 856 02eb BE000000 		movl	$.LC4, %esi
 856      00
 857 02f0 4889C7   		movq	%rax, %rdi
 858 02f3 E8000000 		call	strstr
 858      00
 859 02f8 4889C7   		movq	%rax, %rdi
 860 02fb E8000000 		call	_ZN8UnitTest5CheckIPcEEbT_
 860      00
 861 0300 83F001   		xorl	$1, %eax
 862 0303 84C0     		testb	%al, %al
 863 0305 743E     		je	.L25
 864              	.LEHB12:
 865              		.loc 6 32 0 is_stmt 0 discriminator 1
 866 0307 E8000000 		call	_ZN8UnitTest11CurrentTest7DetailsEv
 866      00
 867 030c 488B08   		movq	(%rax), %rcx
 868 030f 488D8590 		leaq	-2160(%rbp), %rax
 868      F7FFFF
 869 0316 BA200000 		movl	$32, %edx
 869      00
 870 031b 4889CE   		movq	%rcx, %rsi
 871 031e 4889C7   		movq	%rax, %rdi
 872 0321 E8000000 		call	_ZN8UnitTest11TestDetailsC1ERKS0_i
 872      00
 873              		.loc 6 32 0 discriminator 4
 874 0326 E8000000 		call	_ZN8UnitTest11CurrentTest7ResultsEv
 874      00
 875 032b 488B00   		movq	(%rax), %rax
 876 032e 488D8D90 		leaq	-2160(%rbp), %rcx
 876      F7FFFF
 877 0335 BA000000 		movl	$.LC6, %edx
 877      00
 878 033a 4889CE   		movq	%rcx, %rsi
 879 033d 4889C7   		movq	%rax, %rdi
 880 0340 E8000000 		call	_ZN8UnitTest11TestResults13OnTestFailureERKNS_11TestDetailsEPKc
 880      00
 881              	.LEHE12:
 882              	.L25:
 883              		.loc 6 32 0 discriminator 9
 884 0345 488D85B0 		leaq	-2128(%rbp), %rax
 884      F7FFFF
 885 034c 4889C7   		movq	%rax, %rdi
 886              	.LEHB13:
 887 034f E8000000 		call	_ZN17RecordingReporterD1Ev
 887      00
 888              	.LEHE13:
 889              	.LBE14:
  33:TestTimeConstraintMacro.cpp **** }
 890              		.loc 6 33 0 is_stmt 1 discriminator 9
 891 0354 488B45E8 		movq	-24(%rbp), %rax
 892 0358 64483304 		xorq	%fs:40, %rax
 892      25280000 
 892      00
 893 0361 0F84C301 		je	.L39
 893      0000
 894 0367 E9B90100 		jmp	.L51
 894      00
 895              	.L41:
 896 036c 4889C3   		movq	%rax, %rbx
 897              	.LBB17:
 898              	.LBB16:
  23:TestTimeConstraintMacro.cpp ****         UnitTest::TimeHelpers::SleepMs(20);
 899              		.loc 6 23 0
 900 036f 488D8570 		leaq	-2192(%rbp), %rax
 900      F7FFFF
 901 0376 4889C7   		movq	%rax, %rdi
 902 0379 E8000000 		call	_ZN8UnitTest14TimeConstraintD1Ev
 902      00
 903 037e EB03     		jmp	.L27
 904              	.L40:
 905 0380 4889C3   		movq	%rax, %rbx
 906              	.L27:
  24:TestTimeConstraintMacro.cpp ****     }
 907              		.loc 6 24 0
 908 0383 488D8540 		leaq	-2240(%rbp), %rax
 908      F7FFFF
 909 038a 4889C7   		movq	%rax, %rdi
 910 038d E8000000 		call	_ZN17ScopedCurrentTestD1Ev
 910      00
 911 0392 E9740100 		jmp	.L28
 911      00
 912              	.L44:
 913 0397 4889C3   		movq	%rax, %rbx
 914              	.LBE16:
  29:TestTimeConstraintMacro.cpp ****     CHECK(strstr(reporter.lastFailedFile, __FILE__));
 915              		.loc 6 29 0
 916 039a E8000000 		call	__cxa_end_catch
 916      00
 917 039f E9670100 		jmp	.L28
 917      00
 918              	.L43:
 919 03a4 4889C7   		movq	%rax, %rdi
 920 03a7 E8000000 		call	__cxa_begin_catch
 920      00
 921              	.LEHB14:
 922 03ac E8000000 		call	_ZN8UnitTest11CurrentTest7DetailsEv
 922      00
 923 03b1 488B08   		movq	(%rax), %rcx
 924 03b4 488D8590 		leaq	-2160(%rbp), %rax
 924      F7FFFF
 925 03bb BA1D0000 		movl	$29, %edx
 925      00
 926 03c0 4889CE   		movq	%rcx, %rsi
 927 03c3 4889C7   		movq	%rax, %rdi
 928 03c6 E8000000 		call	_ZN8UnitTest11TestDetailsC1ERKS0_i
 928      00
  29:TestTimeConstraintMacro.cpp ****     CHECK(strstr(reporter.lastFailedFile, __FILE__));
 929              		.loc 6 29 0 is_stmt 0 discriminator 10
 930 03cb E8000000 		call	_ZN8UnitTest11CurrentTest7ResultsEv
 930      00
 931 03d0 488B00   		movq	(%rax), %rax
 932 03d3 488D8D90 		leaq	-2160(%rbp), %rcx
 932      F7FFFF
 933 03da BA000000 		movl	$.LC7, %edx
 933      00
 934 03df 4889CE   		movq	%rcx, %rsi
 935 03e2 4889C7   		movq	%rax, %rdi
 936 03e5 E8000000 		call	_ZN8UnitTest11TestResults13OnTestFailureERKNS_11TestDetailsEPKc
 936      00
 937              	.LEHE14:
 938              	.LEHB15:
  29:TestTimeConstraintMacro.cpp ****     CHECK(strstr(reporter.lastFailedFile, __FILE__));
 939              		.loc 6 29 0 discriminator 14
 940 03ea E8000000 		call	__cxa_end_catch
 940      00
 941              	.LEHE15:
  29:TestTimeConstraintMacro.cpp ****     CHECK(strstr(reporter.lastFailedFile, __FILE__));
 942              		.loc 6 29 0
 943 03ef E932FEFF 		jmp	.L31
 943      FF
 944              	.L46:
 945 03f4 4889C3   		movq	%rax, %rbx
  30:TestTimeConstraintMacro.cpp ****     CHECK_EQUAL(testLine, reporter.lastFailedLine);
 946              		.loc 6 30 0 is_stmt 1
 947 03f7 E8000000 		call	__cxa_end_catch
 947      00
 948 03fc E90A0100 		jmp	.L28
 948      00
 949              	.L45:
 950 0401 4889C7   		movq	%rax, %rdi
 951 0404 E8000000 		call	__cxa_begin_catch
 951      00
 952              	.LEHB16:
 953 0409 E8000000 		call	_ZN8UnitTest11CurrentTest7DetailsEv
 953      00
 954 040e 488B08   		movq	(%rax), %rcx
 955 0411 488D8590 		leaq	-2160(%rbp), %rax
 955      F7FFFF
 956 0418 BA1E0000 		movl	$30, %edx
 956      00
 957 041d 4889CE   		movq	%rcx, %rsi
 958 0420 4889C7   		movq	%rax, %rdi
 959 0423 E8000000 		call	_ZN8UnitTest11TestDetailsC1ERKS0_i
 959      00
  30:TestTimeConstraintMacro.cpp ****     CHECK_EQUAL(testLine, reporter.lastFailedLine);
 960              		.loc 6 30 0 is_stmt 0 discriminator 11
 961 0428 E8000000 		call	_ZN8UnitTest11CurrentTest7ResultsEv
 961      00
 962 042d 488B00   		movq	(%rax), %rax
 963 0430 488D8D90 		leaq	-2160(%rbp), %rcx
 963      F7FFFF
 964 0437 BA000000 		movl	$.LC8, %edx
 964      00
 965 043c 4889CE   		movq	%rcx, %rsi
 966 043f 4889C7   		movq	%rax, %rdi
 967 0442 E8000000 		call	_ZN8UnitTest11TestResults13OnTestFailureERKNS_11TestDetailsEPKc
 967      00
 968              	.LEHE16:
 969              	.LEHB17:
  30:TestTimeConstraintMacro.cpp ****     CHECK_EQUAL(testLine, reporter.lastFailedLine);
 970              		.loc 6 30 0 discriminator 15
 971 0447 E8000000 		call	__cxa_end_catch
 971      00
 972              	.LEHE17:
  30:TestTimeConstraintMacro.cpp ****     CHECK_EQUAL(testLine, reporter.lastFailedLine);
 973              		.loc 6 30 0
 974 044c E93CFEFF 		jmp	.L24
 974      FF
 975              	.L48:
 976 0451 4889C3   		movq	%rax, %rbx
  31:TestTimeConstraintMacro.cpp ****     CHECK(strstr(reporter.lastFailedTest, "TimeConstraintMacroUsesCorrectInfo"));
 977              		.loc 6 31 0 is_stmt 1
 978 0454 E8000000 		call	__cxa_end_catch
 978      00
 979 0459 E9AD0000 		jmp	.L28
 979      00
 980              	.L47:
 981 045e 4889C7   		movq	%rax, %rdi
 982 0461 E8000000 		call	__cxa_begin_catch
 982      00
 983              	.LEHB18:
 984 0466 E8000000 		call	_ZN8UnitTest11CurrentTest7DetailsEv
 984      00
 985 046b 488B08   		movq	(%rax), %rcx
 986 046e 488D8590 		leaq	-2160(%rbp), %rax
 986      F7FFFF
 987 0475 BA1F0000 		movl	$31, %edx
 987      00
 988 047a 4889CE   		movq	%rcx, %rsi
 989 047d 4889C7   		movq	%rax, %rdi
 990 0480 E8000000 		call	_ZN8UnitTest11TestDetailsC1ERKS0_i
 990      00
  31:TestTimeConstraintMacro.cpp ****     CHECK(strstr(reporter.lastFailedTest, "TimeConstraintMacroUsesCorrectInfo"));
 991              		.loc 6 31 0 is_stmt 0 discriminator 10
 992 0485 E8000000 		call	_ZN8UnitTest11CurrentTest7ResultsEv
 992      00
 993 048a 488B00   		movq	(%rax), %rax
 994 048d 488D8D90 		leaq	-2160(%rbp), %rcx
 994      F7FFFF
 995 0494 BA000000 		movl	$.LC9, %edx
 995      00
 996 0499 4889CE   		movq	%rcx, %rsi
 997 049c 4889C7   		movq	%rax, %rdi
 998 049f E8000000 		call	_ZN8UnitTest11TestResults13OnTestFailureERKNS_11TestDetailsEPKc
 998      00
 999              	.LEHE18:
 1000              	.LEHB19:
  31:TestTimeConstraintMacro.cpp ****     CHECK(strstr(reporter.lastFailedTest, "TimeConstraintMacroUsesCorrectInfo"));
 1001              		.loc 6 31 0 discriminator 14
 1002 04a4 E8000000 		call	__cxa_end_catch
 1002      00
 1003              	.LEHE19:
  31:TestTimeConstraintMacro.cpp ****     CHECK(strstr(reporter.lastFailedTest, "TimeConstraintMacroUsesCorrectInfo"));
 1004              		.loc 6 31 0
 1005 04a9 E930FEFF 		jmp	.L36
 1005      FF
 1006              	.L50:
 1007 04ae 4889C3   		movq	%rax, %rbx
  32:TestTimeConstraintMacro.cpp **** }
 1008              		.loc 6 32 0 is_stmt 1
 1009 04b1 E8000000 		call	__cxa_end_catch
 1009      00
 1010 04b6 EB53     		jmp	.L28
 1011              	.L49:
 1012 04b8 4889C7   		movq	%rax, %rdi
 1013 04bb E8000000 		call	__cxa_begin_catch
 1013      00
 1014              	.LEHB20:
 1015 04c0 E8000000 		call	_ZN8UnitTest11CurrentTest7DetailsEv
 1015      00
 1016 04c5 488B08   		movq	(%rax), %rcx
 1017 04c8 488D8590 		leaq	-2160(%rbp), %rax
 1017      F7FFFF
 1018 04cf BA200000 		movl	$32, %edx
 1018      00
 1019 04d4 4889CE   		movq	%rcx, %rsi
 1020 04d7 4889C7   		movq	%rax, %rdi
 1021 04da E8000000 		call	_ZN8UnitTest11TestDetailsC1ERKS0_i
 1021      00
  32:TestTimeConstraintMacro.cpp **** }
 1022              		.loc 6 32 0 is_stmt 0 discriminator 13
 1023 04df E8000000 		call	_ZN8UnitTest11CurrentTest7ResultsEv
 1023      00
 1024 04e4 488B00   		movq	(%rax), %rax
 1025 04e7 488D8D90 		leaq	-2160(%rbp), %rcx
 1025      F7FFFF
 1026 04ee BA000000 		movl	$.LC10, %edx
 1026      00
 1027 04f3 4889CE   		movq	%rcx, %rsi
 1028 04f6 4889C7   		movq	%rax, %rdi
 1029 04f9 E8000000 		call	_ZN8UnitTest11TestResults13OnTestFailureERKNS_11TestDetailsEPKc
 1029      00
 1030              	.LEHE20:
 1031              	.LEHB21:
  32:TestTimeConstraintMacro.cpp **** }
 1032              		.loc 6 32 0 discriminator 17
 1033 04fe E8000000 		call	__cxa_end_catch
 1033      00
 1034              	.LEHE21:
  32:TestTimeConstraintMacro.cpp **** }
 1035              		.loc 6 32 0
 1036 0503 E93DFEFF 		jmp	.L25
 1036      FF
 1037              	.L42:
 1038 0508 4889C3   		movq	%rax, %rbx
 1039              	.L28:
  32:TestTimeConstraintMacro.cpp **** }
 1040              		.loc 6 32 0 discriminator 18
 1041 050b 488D85B0 		leaq	-2128(%rbp), %rax
 1041      F7FFFF
 1042 0512 4889C7   		movq	%rax, %rdi
 1043 0515 E8000000 		call	_ZN17RecordingReporterD1Ev
 1043      00
 1044 051a 4889D8   		movq	%rbx, %rax
 1045 051d 4889C7   		movq	%rax, %rdi
 1046              	.LEHB22:
 1047 0520 E8000000 		call	_Unwind_Resume
 1047      00
 1048              	.LEHE22:
 1049              	.L51:
 1050              	.LBE17:
 1051              		.loc 6 33 0 is_stmt 1
 1052 0525 E8000000 		call	__stack_chk_fail
 1052      00
 1053              	.L39:
 1054 052a 4881C4D8 		addq	$2264, %rsp
 1054      080000
 1055 0531 5B       		popq	%rbx
 1056 0532 5D       		popq	%rbp
 1057              		.cfi_def_cfa 7, 8
 1058 0533 C3       		ret
 1059              		.cfi_endproc
 1060              	.LFE1091:
 1061              		.section	.gcc_except_table,"a",@progbits
 1062              		.align 4
 1063              	.LLSDA1091:
 1064 0000 FF       		.byte	0xff
 1065 0001 03       		.byte	0x3
 1066 0002 79       		.uleb128 .LLSDATT1091-.LLSDATTD1091
 1067              	.LLSDATTD1091:
 1068 0003 01       		.byte	0x1
 1069 0004 6F       		.uleb128 .LLSDACSE1091-.LLSDACSB1091
 1070              	.LLSDACSB1091:
 1071 0005 4F       		.uleb128 .LEHB4-.LFB1091
 1072 0006 23       		.uleb128 .LEHE4-.LEHB4
 1073 0007 9E08     		.uleb128 .L42-.LFB1091
 1074 0009 00       		.uleb128 0
 1075 000a 8F01     		.uleb128 .LEHB5-.LFB1091
 1076 000c 20       		.uleb128 .LEHE5-.LEHB5
 1077 000d 9605     		.uleb128 .L40-.LFB1091
 1078 000f 00       		.uleb128 0
 1079 0010 BE01     		.uleb128 .LEHB6-.LFB1091
 1080 0012 05       		.uleb128 .LEHE6-.LEHB6
 1081 0013 8205     		.uleb128 .L41-.LFB1091
 1082 0015 00       		.uleb128 0
 1083 0016 CD01     		.uleb128 .LEHB7-.LFB1091
 1084 0018 05       		.uleb128 .LEHE7-.LEHB7
 1085 0019 9605     		.uleb128 .L40-.LFB1091
 1086 001b 00       		.uleb128 0
 1087 001c DC01     		.uleb128 .LEHB8-.LFB1091
 1088 001e 05       		.uleb128 .LEHE8-.LEHB8
 1089 001f 9E08     		.uleb128 .L42-.LFB1091
 1090 0021 00       		.uleb128 0
 1091 0022 E101     		.uleb128 .LEHB9-.LFB1091
 1092 0024 5B       		.uleb128 .LEHE9-.LEHB9
 1093 0025 BA05     		.uleb128 .L43-.LFB1091
 1094 0027 01       		.uleb128 0x1
 1095 0028 E502     		.uleb128 .LEHB10-.LFB1091
 1096 002a 3E       		.uleb128 .LEHE10-.LEHB10
 1097 002b 9706     		.uleb128 .L45-.LFB1091
 1098 002d 01       		.uleb128 0x1
 1099 002e A303     		.uleb128 .LEHB11-.LFB1091
 1100 0030 51       		.uleb128 .LEHE11-.LEHB11
 1101 0031 F406     		.uleb128 .L47-.LFB1091
 1102 0033 01       		.uleb128 0x1
 1103 0034 9D04     		.uleb128 .LEHB12-.LFB1091
 1104 0036 3E       		.uleb128 .LEHE12-.LEHB12
 1105 0037 CE07     		.uleb128 .L49-.LFB1091
 1106 0039 01       		.uleb128 0x1
 1107 003a E504     		.uleb128 .LEHB13-.LFB1091
 1108 003c 05       		.uleb128 .LEHE13-.LEHB13
 1109 003d 00       		.uleb128 0
 1110 003e 00       		.uleb128 0
 1111 003f C205     		.uleb128 .LEHB14-.LFB1091
 1112 0041 3E       		.uleb128 .LEHE14-.LEHB14
 1113 0042 AD05     		.uleb128 .L44-.LFB1091
 1114 0044 00       		.uleb128 0
 1115 0045 8006     		.uleb128 .LEHB15-.LFB1091
 1116 0047 05       		.uleb128 .LEHE15-.LEHB15
 1117 0048 9E08     		.uleb128 .L42-.LFB1091
 1118 004a 00       		.uleb128 0
 1119 004b 9F06     		.uleb128 .LEHB16-.LFB1091
 1120 004d 3E       		.uleb128 .LEHE16-.LEHB16
 1121 004e 8A06     		.uleb128 .L46-.LFB1091
 1122 0050 00       		.uleb128 0
 1123 0051 DD06     		.uleb128 .LEHB17-.LFB1091
 1124 0053 05       		.uleb128 .LEHE17-.LEHB17
 1125 0054 9E08     		.uleb128 .L42-.LFB1091
 1126 0056 00       		.uleb128 0
 1127 0057 FC06     		.uleb128 .LEHB18-.LFB1091
 1128 0059 3E       		.uleb128 .LEHE18-.LEHB18
 1129 005a E706     		.uleb128 .L48-.LFB1091
 1130 005c 00       		.uleb128 0
 1131 005d BA07     		.uleb128 .LEHB19-.LFB1091
 1132 005f 05       		.uleb128 .LEHE19-.LEHB19
 1133 0060 9E08     		.uleb128 .L42-.LFB1091
 1134 0062 00       		.uleb128 0
 1135 0063 D607     		.uleb128 .LEHB20-.LFB1091
 1136 0065 3E       		.uleb128 .LEHE20-.LEHB20
 1137 0066 C407     		.uleb128 .L50-.LFB1091
 1138 0068 00       		.uleb128 0
 1139 0069 9408     		.uleb128 .LEHB21-.LFB1091
 1140 006b 05       		.uleb128 .LEHE21-.LEHB21
 1141 006c 9E08     		.uleb128 .L42-.LFB1091
 1142 006e 00       		.uleb128 0
 1143 006f B608     		.uleb128 .LEHB22-.LFB1091
 1144 0071 05       		.uleb128 .LEHE22-.LEHB22
 1145 0072 00       		.uleb128 0
 1146 0073 00       		.uleb128 0
 1147              	.LLSDACSE1091:
 1148 0074 01       		.byte	0x1
 1149 0075 00       		.byte	0
 1150 0076 0000     		.align 4
 1151 0078 00000000 		.long	0
 1152              	
 1153              	.LLSDATT1091:
 1154              		.text
 1156              		.section	.text._ZN8UnitTest15MemoryOutStreamD1Ev,"axG",@progbits,_ZN8UnitTest15MemoryOutStreamD1Ev
 1157              		.align 2
 1158              		.weak	_ZN8UnitTest15MemoryOutStreamD1Ev
 1160              	_ZN8UnitTest15MemoryOutStreamD1Ev:
 1161              	.LFB1122:
  13:../MemoryOutStream.h **** {
 1162              		.loc 2 13 0
 1163              		.cfi_startproc
 1164              		.cfi_personality 0x3,__gxx_personality_v0
 1165              		.cfi_lsda 0x3,.LLSDA1122
 1166 0000 55       		pushq	%rbp
 1167              		.cfi_def_cfa_offset 16
 1168              		.cfi_offset 6, -16
 1169 0001 4889E5   		movq	%rsp, %rbp
 1170              		.cfi_def_cfa_register 6
 1171 0004 53       		pushq	%rbx
 1172 0005 4883EC18 		subq	$24, %rsp
 1173              		.cfi_offset 3, -24
 1174 0009 48897DE8 		movq	%rdi, -24(%rbp)
 1175              	.LBB18:
  13:../MemoryOutStream.h **** {
 1176              		.loc 2 13 0
 1177 000d BA000000 		movl	$_ZTVN8UnitTest15MemoryOutStreamE+24, %edx
 1177      00
 1178 0012 488B45E8 		movq	-24(%rbp), %rax
 1179 0016 488910   		movq	%rdx, (%rax)
 1180 0019 BA600000 		movl	$96, %edx
 1180      00
 1181 001e 488B45E8 		movq	-24(%rbp), %rax
 1182 0022 4801D0   		addq	%rdx, %rax
 1183 0025 BA000000 		movl	$_ZTVN8UnitTest15MemoryOutStreamE+64, %edx
 1183      00
 1184 002a 488910   		movq	%rdx, (%rax)
 1185 002d 488B45E8 		movq	-24(%rbp), %rax
 1186 0031 4883C058 		addq	$88, %rax
 1187 0035 4889C7   		movq	%rax, %rdi
 1188              	.LEHB23:
 1189 0038 E8000000 		call	_ZNSsD1Ev
 1189      00
 1190              	.LEHE23:
  13:../MemoryOutStream.h **** {
 1191              		.loc 2 13 0 is_stmt 0 discriminator 14
 1192 003d BA000000 		movl	$_ZTTN8UnitTest15MemoryOutStreamE+8, %edx
 1192      00
 1193 0042 488B45E8 		movq	-24(%rbp), %rax
 1194 0046 4889D6   		movq	%rdx, %rsi
 1195 0049 4889C7   		movq	%rax, %rdi
 1196              	.LEHB24:
 1197 004c E8000000 		call	_ZNSt19basic_ostringstreamIcSt11char_traitsIcESaIcEED2Ev
 1197      00
 1198              	.LEHE24:
  13:../MemoryOutStream.h **** {
 1199              		.loc 2 13 0 discriminator 20
 1200 0051 B8020000 		movl	$2, %eax
 1200      00
 1201 0056 85C0     		testl	%eax, %eax
 1202 0058 7410     		je	.L54
  13:../MemoryOutStream.h **** {
 1203              		.loc 2 13 0 discriminator 21
 1204 005a 488B45E8 		movq	-24(%rbp), %rax
 1205 005e 4883C060 		addq	$96, %rax
 1206 0062 4889C7   		movq	%rax, %rdi
 1207              	.LEHB25:
 1208 0065 E8000000 		call	_ZNSt9basic_iosIcSt11char_traitsIcEED2Ev
 1208      00
 1209              	.LEHE25:
 1210              	.L54:
 1211              	.LBE18:
  13:../MemoryOutStream.h **** {
 1212              		.loc 2 13 0 discriminator 24
 1213 006a B8000000 		movl	$0, %eax
 1213      00
 1214 006f 85C0     		testl	%eax, %eax
 1215 0071 744E     		je	.L61
  13:../MemoryOutStream.h **** {
 1216              		.loc 2 13 0 discriminator 25
 1217 0073 488B45E8 		movq	-24(%rbp), %rax
 1218 0077 4889C7   		movq	%rax, %rdi
 1219 007a E8000000 		call	_ZdlPv
 1219      00
 1220 007f EB40     		jmp	.L61
 1221              	.L59:
 1222 0081 4889C3   		movq	%rax, %rbx
 1223              	.LBB19:
  13:../MemoryOutStream.h **** {
 1224              		.loc 2 13 0
 1225 0084 BA000000 		movl	$_ZTTN8UnitTest15MemoryOutStreamE+8, %edx
 1225      00
 1226 0089 488B45E8 		movq	-24(%rbp), %rax
 1227 008d 4889D6   		movq	%rdx, %rsi
 1228 0090 4889C7   		movq	%rax, %rdi
 1229 0093 E8000000 		call	_ZNSt19basic_ostringstreamIcSt11char_traitsIcESaIcEED2Ev
 1229      00
 1230 0098 EB03     		jmp	.L57
 1231              	.L60:
 1232 009a 4889C3   		movq	%rax, %rbx
 1233              	.L57:
  13:../MemoryOutStream.h **** {
 1234              		.loc 2 13 0 discriminator 19
 1235 009d B8020000 		movl	$2, %eax
 1235      00
 1236 00a2 85C0     		testl	%eax, %eax
 1237 00a4 7410     		je	.L58
  13:../MemoryOutStream.h **** {
 1238              		.loc 2 13 0 discriminator 32
 1239 00a6 488B45E8 		movq	-24(%rbp), %rax
 1240 00aa 4883C060 		addq	$96, %rax
 1241 00ae 4889C7   		movq	%rax, %rdi
 1242 00b1 E8000000 		call	_ZNSt9basic_iosIcSt11char_traitsIcEED2Ev
 1242      00
 1243              	.L58:
 1244 00b6 4889D8   		movq	%rbx, %rax
 1245 00b9 4889C7   		movq	%rax, %rdi
 1246              	.LEHB26:
 1247 00bc E8000000 		call	_Unwind_Resume
 1247      00
 1248              	.LEHE26:
 1249              	.L61:
 1250              	.LBE19:
  13:../MemoryOutStream.h **** {
 1251              		.loc 2 13 0
 1252 00c1 4883C418 		addq	$24, %rsp
 1253 00c5 5B       		popq	%rbx
 1254 00c6 5D       		popq	%rbp
 1255              		.cfi_def_cfa 7, 8
 1256 00c7 C3       		ret
 1257              		.cfi_endproc
 1258              	.LFE1122:
 1259              		.section	.gcc_except_table
 1260              	.LLSDA1122:
 1261 007c FF       		.byte	0xff
 1262 007d FF       		.byte	0xff
 1263 007e 01       		.byte	0x1
 1264 007f 13       		.uleb128 .LLSDACSE1122-.LLSDACSB1122
 1265              	.LLSDACSB1122:
 1266 0080 38       		.uleb128 .LEHB23-.LFB1122
 1267 0081 05       		.uleb128 .LEHE23-.LEHB23
 1268 0082 8101     		.uleb128 .L59-.LFB1122
 1269 0084 00       		.uleb128 0
 1270 0085 4C       		.uleb128 .LEHB24-.LFB1122
 1271 0086 05       		.uleb128 .LEHE24-.LEHB24
 1272 0087 9A01     		.uleb128 .L60-.LFB1122
 1273 0089 00       		.uleb128 0
 1274 008a 65       		.uleb128 .LEHB25-.LFB1122
 1275 008b 05       		.uleb128 .LEHE25-.LEHB25
 1276 008c 00       		.uleb128 0
 1277 008d 00       		.uleb128 0
 1278 008e BC01     		.uleb128 .LEHB26-.LFB1122
 1279 0090 05       		.uleb128 .LEHE26-.LEHB26
 1280 0091 00       		.uleb128 0
 1281 0092 00       		.uleb128 0
 1282              	.LLSDACSE1122:
 1283              		.section	.text._ZN8UnitTest15MemoryOutStreamD1Ev,"axG",@progbits,_ZN8UnitTest15MemoryOutStreamD1Ev
 1285              		.set	.LTHUNK0,_ZN8UnitTest15MemoryOutStreamD1Ev
 1286              		.weak	_ZTv0_n24_N8UnitTest15MemoryOutStreamD1Ev
 1288              	_ZTv0_n24_N8UnitTest15MemoryOutStreamD1Ev:
 1289              	.LFB1187:
  13:../MemoryOutStream.h **** {
 1290              		.loc 2 13 0 is_stmt 1
 1291              		.cfi_startproc
 1292 00c8 4C8B17   		movq	(%rdi), %r10
 1293 00cb 49037AE8 		addq	-24(%r10), %rdi
 1294 00cf E92CFFFF 		jmp	.LTHUNK0
 1294      FF
 1295              		.cfi_endproc
 1296              	.LFE1187:
 1298              		.section	.text._ZN8UnitTest15MemoryOutStreamD0Ev,"axG",@progbits,_ZN8UnitTest15MemoryOutStreamD0Ev
 1299              		.align 2
 1300              		.weak	_ZN8UnitTest15MemoryOutStreamD0Ev
 1302              	_ZN8UnitTest15MemoryOutStreamD0Ev:
 1303              	.LFB1123:
  13:../MemoryOutStream.h **** {
 1304              		.loc 2 13 0
 1305              		.cfi_startproc
 1306 0000 55       		pushq	%rbp
 1307              		.cfi_def_cfa_offset 16
 1308              		.cfi_offset 6, -16
 1309 0001 4889E5   		movq	%rsp, %rbp
 1310              		.cfi_def_cfa_register 6
 1311 0004 4883EC10 		subq	$16, %rsp
 1312 0008 48897DF8 		movq	%rdi, -8(%rbp)
  13:../MemoryOutStream.h **** {
 1313              		.loc 2 13 0
 1314 000c 488B45F8 		movq	-8(%rbp), %rax
 1315 0010 4889C7   		movq	%rax, %rdi
 1316 0013 E8000000 		call	_ZN8UnitTest15MemoryOutStreamD1Ev
 1316      00
 1317 0018 488B45F8 		movq	-8(%rbp), %rax
 1318 001c 4889C7   		movq	%rax, %rdi
 1319 001f E8000000 		call	_ZdlPv
 1319      00
 1320 0024 C9       		leave
 1321              		.cfi_def_cfa 7, 8
 1322 0025 C3       		ret
 1323              		.cfi_endproc
 1324              	.LFE1123:
 1326              		.set	.LTHUNK1,_ZN8UnitTest15MemoryOutStreamD0Ev
 1327              		.weak	_ZTv0_n24_N8UnitTest15MemoryOutStreamD0Ev
 1329              	_ZTv0_n24_N8UnitTest15MemoryOutStreamD0Ev:
 1330              	.LFB1188:
  13:../MemoryOutStream.h **** {
 1331              		.loc 2 13 0
 1332              		.cfi_startproc
 1333 0026 4C8B17   		movq	(%rdi), %r10
 1334 0029 49037AE8 		addq	-24(%r10), %rdi
 1335 002d EBD1     		jmp	.LTHUNK1
 1336              		.cfi_endproc
 1337              	.LFE1188:
 1339              		.section	.rodata
 1340              	.LC11:
 1341 022c 45787065 		.string	"Expected "
 1341      63746564 
 1341      2000
 1342              	.LC12:
 1343 0236 20627574 		.string	" but was "
 1343      20776173 
 1343      2000
 1344              		.section	.text._ZN8UnitTest10CheckEqualIiiEEvRNS_11TestResultsERKT_RKT0_RKNS_11TestDetailsE,"axG",
 1345              		.weak	_ZN8UnitTest10CheckEqualIiiEEvRNS_11TestResultsERKT_RKT0_RKNS_11TestDetailsE
 1347              	_ZN8UnitTest10CheckEqualIiiEEvRNS_11TestResultsERKT_RKT0_RKNS_11TestDetailsE:
 1348              	.LFB1119:
 1349              		.file 7 "../Checks.h"
   1:../Checks.h   **** #ifndef UNITTEST_CHECKS_H
   2:../Checks.h   **** #define UNITTEST_CHECKS_H
   3:../Checks.h   **** 
   4:../Checks.h   **** #include "Config.h"
   5:../Checks.h   **** #include "TestResults.h"
   6:../Checks.h   **** #include "MemoryOutStream.h"
   7:../Checks.h   **** 
   8:../Checks.h   **** namespace UnitTest {
   9:../Checks.h   **** 
  10:../Checks.h   **** 
  11:../Checks.h   **** template< typename Value >
  12:../Checks.h   **** bool Check(Value const value)
  13:../Checks.h   **** {
  14:../Checks.h   ****     return !!value; // doing double negative to avoid silly VS warnings
  15:../Checks.h   **** }
  16:../Checks.h   **** 
  17:../Checks.h   **** 
  18:../Checks.h   **** template< typename Expected, typename Actual >
  19:../Checks.h   **** void CheckEqual(TestResults& results, Expected const& expected, Actual const& actual, TestDetails c
 1350              		.loc 7 19 0
 1351              		.cfi_startproc
 1352              		.cfi_personality 0x3,__gxx_personality_v0
 1353              		.cfi_lsda 0x3,.LLSDA1119
 1354 0000 55       		pushq	%rbp
 1355              		.cfi_def_cfa_offset 16
 1356              		.cfi_offset 6, -16
 1357 0001 4889E5   		movq	%rsp, %rbp
 1358              		.cfi_def_cfa_register 6
 1359 0004 4154     		pushq	%r12
 1360 0006 53       		pushq	%rbx
 1361 0007 4881EC90 		subq	$400, %rsp
 1361      010000
 1362              		.cfi_offset 12, -24
 1363              		.cfi_offset 3, -32
 1364 000e 4889BD78 		movq	%rdi, -392(%rbp)
 1364      FEFFFF
 1365 0015 4889B570 		movq	%rsi, -400(%rbp)
 1365      FEFFFF
 1366 001c 48899568 		movq	%rdx, -408(%rbp)
 1366      FEFFFF
 1367 0023 48898D60 		movq	%rcx, -416(%rbp)
 1367      FEFFFF
 1368              		.loc 7 19 0
 1369 002a 64488B04 		movq	%fs:40, %rax
 1369      25280000 
 1369      00
 1370 0033 488945E8 		movq	%rax, -24(%rbp)
 1371 0037 31C0     		xorl	%eax, %eax
 1372              	.LBB20:
 1373              	.LBB21:
  20:../Checks.h   **** {
  21:../Checks.h   ****     if (!(expected == actual))
 1374              		.loc 7 21 0
 1375 0039 488B8570 		movq	-400(%rbp), %rax
 1375      FEFFFF
 1376 0040 8B10     		movl	(%rax), %edx
 1377 0042 488B8568 		movq	-408(%rbp), %rax
 1377      FEFFFF
 1378 0049 8B00     		movl	(%rax), %eax
 1379 004b 39C2     		cmpl	%eax, %edx
 1380 004d 0F849200 		je	.L65
 1380      0000
 1381              	.LBB22:
  22:../Checks.h   ****     {
  23:../Checks.h   ****         UnitTest::MemoryOutStream stream;
 1382              		.loc 7 23 0
 1383 0053 488D8580 		leaq	-384(%rbp), %rax
 1383      FEFFFF
 1384 005a 4889C7   		movq	%rax, %rdi
 1385              	.LEHB27:
 1386 005d E8000000 		call	_ZN8UnitTest15MemoryOutStreamC1Ev
 1386      00
 1387              	.LEHE27:
  24:../Checks.h   ****         stream << "Expected " << expected << " but was " << actual;
 1388              		.loc 7 24 0
 1389 0062 488B8568 		movq	-408(%rbp), %rax
 1389      FEFFFF
 1390 0069 8B18     		movl	(%rax), %ebx
 1391 006b 488B8570 		movq	-400(%rbp), %rax
 1391      FEFFFF
 1392 0072 448B20   		movl	(%rax), %r12d
 1393 0075 488D8580 		leaq	-384(%rbp), %rax
 1393      FEFFFF
 1394 007c BE000000 		movl	$.LC11, %esi
 1394      00
 1395 0081 4889C7   		movq	%rax, %rdi
 1396              	.LEHB28:
 1397 0084 E8000000 		call	_ZStlsISt11char_traitsIcEERSt13basic_ostreamIcT_ES5_PKc
 1397      00
 1398 0089 4489E6   		movl	%r12d, %esi
 1399 008c 4889C7   		movq	%rax, %rdi
 1400 008f E8000000 		call	_ZNSolsEi
 1400      00
 1401              		.loc 7 24 0 is_stmt 0 discriminator 1
 1402 0094 BE000000 		movl	$.LC12, %esi
 1402      00
 1403 0099 4889C7   		movq	%rax, %rdi
 1404 009c E8000000 		call	_ZStlsISt11char_traitsIcEERSt13basic_ostreamIcT_ES5_PKc
 1404      00
 1405              		.loc 7 24 0 discriminator 2
 1406 00a1 89DE     		movl	%ebx, %esi
 1407 00a3 4889C7   		movq	%rax, %rdi
 1408 00a6 E8000000 		call	_ZNSolsEi
 1408      00
  25:../Checks.h   **** 
  26:../Checks.h   ****         results.OnTestFailure(details, stream.GetText());
 1409              		.loc 7 26 0 is_stmt 1
 1410 00ab 488D8580 		leaq	-384(%rbp), %rax
 1410      FEFFFF
 1411 00b2 4889C7   		movq	%rax, %rdi
 1412 00b5 E8000000 		call	_ZNK8UnitTest15MemoryOutStream7GetTextEv
 1412      00
 1413 00ba 4889C2   		movq	%rax, %rdx
 1414 00bd 488B8D60 		movq	-416(%rbp), %rcx
 1414      FEFFFF
 1415 00c4 488B8578 		movq	-392(%rbp), %rax
 1415      FEFFFF
 1416 00cb 4889CE   		movq	%rcx, %rsi
 1417 00ce 4889C7   		movq	%rax, %rdi
 1418 00d1 E8000000 		call	_ZN8UnitTest11TestResults13OnTestFailureERKNS_11TestDetailsEPKc
 1418      00
 1419              	.LEHE28:
 1420              		.loc 7 26 0 is_stmt 0 discriminator 4
 1421 00d6 488D8580 		leaq	-384(%rbp), %rax
 1421      FEFFFF
 1422 00dd 4889C7   		movq	%rax, %rdi
 1423              	.LEHB29:
 1424 00e0 E8000000 		call	_ZN8UnitTest15MemoryOutStreamD1Ev
 1424      00
 1425              	.LEHE29:
 1426              	.L65:
 1427              	.LBE22:
 1428              	.LBE21:
 1429              	.LBE20:
  27:../Checks.h   ****     }
  28:../Checks.h   **** }
 1430              		.loc 7 28 0 is_stmt 1
 1431 00e5 488B45E8 		movq	-24(%rbp), %rax
 1432 00e9 64483304 		xorq	%fs:40, %rax
 1432      25280000 
 1432      00
 1433 00f2 7424     		je	.L67
 1434 00f4 EB1D     		jmp	.L69
 1435              	.L68:
 1436 00f6 4889C3   		movq	%rax, %rbx
 1437              	.LBB25:
 1438              	.LBB24:
 1439              	.LBB23:
  26:../Checks.h   ****     }
 1440              		.loc 7 26 0
 1441 00f9 488D8580 		leaq	-384(%rbp), %rax
 1441      FEFFFF
 1442 0100 4889C7   		movq	%rax, %rdi
 1443 0103 E8000000 		call	_ZN8UnitTest15MemoryOutStreamD1Ev
 1443      00
 1444 0108 4889D8   		movq	%rbx, %rax
 1445 010b 4889C7   		movq	%rax, %rdi
 1446              	.LEHB30:
 1447 010e E8000000 		call	_Unwind_Resume
 1447      00
 1448              	.LEHE30:
 1449              	.L69:
 1450              	.LBE23:
 1451              	.LBE24:
 1452              	.LBE25:
 1453              		.loc 7 28 0
 1454 0113 E8000000 		call	__stack_chk_fail
 1454      00
 1455              	.L67:
 1456 0118 4881C490 		addq	$400, %rsp
 1456      010000
 1457 011f 5B       		popq	%rbx
 1458 0120 415C     		popq	%r12
 1459 0122 5D       		popq	%rbp
 1460              		.cfi_def_cfa 7, 8
 1461 0123 C3       		ret
 1462              		.cfi_endproc
 1463              	.LFE1119:
 1464              		.section	.gcc_except_table
 1465              	.LLSDA1119:
 1466 0093 FF       		.byte	0xff
 1467 0094 FF       		.byte	0xff
 1468 0095 01       		.byte	0x1
 1469 0096 14       		.uleb128 .LLSDACSE1119-.LLSDACSB1119
 1470              	.LLSDACSB1119:
 1471 0097 5D       		.uleb128 .LEHB27-.LFB1119
 1472 0098 05       		.uleb128 .LEHE27-.LEHB27
 1473 0099 00       		.uleb128 0
 1474 009a 00       		.uleb128 0
 1475 009b 8401     		.uleb128 .LEHB28-.LFB1119
 1476 009d 52       		.uleb128 .LEHE28-.LEHB28
 1477 009e F601     		.uleb128 .L68-.LFB1119
 1478 00a0 00       		.uleb128 0
 1479 00a1 E001     		.uleb128 .LEHB29-.LFB1119
 1480 00a3 05       		.uleb128 .LEHE29-.LEHB29
 1481 00a4 00       		.uleb128 0
 1482 00a5 00       		.uleb128 0
 1483 00a6 8E02     		.uleb128 .LEHB30-.LFB1119
 1484 00a8 05       		.uleb128 .LEHE30-.LEHB30
 1485 00a9 00       		.uleb128 0
 1486 00aa 00       		.uleb128 0
 1487              	.LLSDACSE1119:
 1488              		.section	.text._ZN8UnitTest10CheckEqualIiiEEvRNS_11TestResultsERKT_RKT0_RKNS_11TestDetailsE,"axG",
 1490              		.section	.text._ZN8UnitTest5CheckIPcEEbT_,"axG",@progbits,_ZN8UnitTest5CheckIPcEEbT_,comdat
 1491              		.weak	_ZN8UnitTest5CheckIPcEEbT_
 1493              	_ZN8UnitTest5CheckIPcEEbT_:
 1494              	.LFB1124:
  12:../Checks.h   **** {
 1495              		.loc 7 12 0
 1496              		.cfi_startproc
 1497 0000 55       		pushq	%rbp
 1498              		.cfi_def_cfa_offset 16
 1499              		.cfi_offset 6, -16
 1500 0001 4889E5   		movq	%rsp, %rbp
 1501              		.cfi_def_cfa_register 6
 1502 0004 48897DF8 		movq	%rdi, -8(%rbp)
  14:../Checks.h   **** }
 1503              		.loc 7 14 0
 1504 0008 48837DF8 		cmpq	$0, -8(%rbp)
 1504      00
 1505 000d 0F95C0   		setne	%al
  15:../Checks.h   **** 
 1506              		.loc 7 15 0
 1507 0010 5D       		popq	%rbp
 1508              		.cfi_def_cfa 7, 8
 1509 0011 C3       		ret
 1510              		.cfi_endproc
 1511              	.LFE1124:
 1513              		.section	.rodata
 1514              		.align 32
 1517              	_ZTVN12_GLOBAL__N_138TestTimeConstraintMacroUsesCorrectInfoE:
 1518 0240 00000000 		.quad	0
 1518      00000000 
 1519 0248 00000000 		.quad	_ZTIN12_GLOBAL__N_138TestTimeConstraintMacroUsesCorrectInfoE
 1519      00000000 
 1520 0250 00000000 		.quad	_ZN12_GLOBAL__N_138TestTimeConstraintMacroUsesCorrectInfoD1Ev
 1520      00000000 
 1521 0258 00000000 		.quad	_ZN12_GLOBAL__N_138TestTimeConstraintMacroUsesCorrectInfoD0Ev
 1521      00000000 
 1522 0260 00000000 		.quad	_ZNK12_GLOBAL__N_138TestTimeConstraintMacroUsesCorrectInfo7RunImplEv
 1522      00000000 
 1523              		.text
 1524              		.align 2
 1526              	_ZN12_GLOBAL__N_138TestTimeConstraintMacroUsesCorrectInfoD2Ev:
 1527              	.LFB1174:
  15:TestTimeConstraintMacro.cpp **** {
 1528              		.loc 6 15 0
 1529              		.cfi_startproc
 1530 0534 55       		pushq	%rbp
 1531              		.cfi_def_cfa_offset 16
 1532              		.cfi_offset 6, -16
 1533 0535 4889E5   		movq	%rsp, %rbp
 1534              		.cfi_def_cfa_register 6
 1535 0538 4883EC10 		subq	$16, %rsp
 1536 053c 48897DF8 		movq	%rdi, -8(%rbp)
 1537              	.LBB26:
  15:TestTimeConstraintMacro.cpp **** {
 1538              		.loc 6 15 0
 1539 0540 488B45F8 		movq	-8(%rbp), %rax
 1540 0544 48C70000 		movq	$_ZTVN12_GLOBAL__N_138TestTimeConstraintMacroUsesCorrectInfoE+16, (%rax)
 1540      000000
 1541 054b 488B45F8 		movq	-8(%rbp), %rax
 1542 054f 4889C7   		movq	%rax, %rdi
 1543 0552 E8000000 		call	_ZN8UnitTest4TestD2Ev
 1543      00
 1544              	.LBE26:
 1545 0557 B8000000 		movl	$0, %eax
 1545      00
 1546 055c 85C0     		testl	%eax, %eax
 1547 055e 740C     		je	.L72
  15:TestTimeConstraintMacro.cpp **** {
 1548              		.loc 6 15 0 is_stmt 0 discriminator 4
 1549 0560 488B45F8 		movq	-8(%rbp), %rax
 1550 0564 4889C7   		movq	%rax, %rdi
 1551 0567 E8000000 		call	_ZdlPv
 1551      00
 1552              	.L72:
  15:TestTimeConstraintMacro.cpp **** {
 1553              		.loc 6 15 0
 1554 056c C9       		leave
 1555              		.cfi_def_cfa 7, 8
 1556 056d C3       		ret
 1557              		.cfi_endproc
 1558              	.LFE1174:
 1560              		.set	_ZN12_GLOBAL__N_138TestTimeConstraintMacroUsesCorrectInfoD1Ev,_ZN12_GLOBAL__N_138TestTimeCons
 1561              		.align 2
 1563              	_ZN12_GLOBAL__N_138TestTimeConstraintMacroUsesCorrectInfoD0Ev:
 1564              	.LFB1176:
  15:TestTimeConstraintMacro.cpp **** {
 1565              		.loc 6 15 0 is_stmt 1
 1566              		.cfi_startproc
 1567 056e 55       		pushq	%rbp
 1568              		.cfi_def_cfa_offset 16
 1569              		.cfi_offset 6, -16
 1570 056f 4889E5   		movq	%rsp, %rbp
 1571              		.cfi_def_cfa_register 6
 1572 0572 4883EC10 		subq	$16, %rsp
 1573 0576 48897DF8 		movq	%rdi, -8(%rbp)
  15:TestTimeConstraintMacro.cpp **** {
 1574              		.loc 6 15 0
 1575 057a 488B45F8 		movq	-8(%rbp), %rax
 1576 057e 4889C7   		movq	%rax, %rdi
 1577 0581 E8AEFFFF 		call	_ZN12_GLOBAL__N_138TestTimeConstraintMacroUsesCorrectInfoD2Ev
 1577      FF
 1578 0586 488B45F8 		movq	-8(%rbp), %rax
 1579 058a 4889C7   		movq	%rax, %rdi
 1580 058d E8000000 		call	_ZdlPv
 1580      00
 1581 0592 C9       		leave
 1582              		.cfi_def_cfa 7, 8
 1583 0593 C3       		ret
 1584              		.cfi_endproc
 1585              	.LFE1176:
 1587              		.section	.rodata
 1588 0268 00000000 		.align 32
 1588      00000000 
 1588      00000000 
 1588      00000000 
 1588      00000000 
 1591              	_ZTVN12_GLOBAL__N_141TestTimeConstraintMacroQualifiesNamespaceE:
 1592 0280 00000000 		.quad	0
 1592      00000000 
 1593 0288 00000000 		.quad	_ZTIN12_GLOBAL__N_141TestTimeConstraintMacroQualifiesNamespaceE
 1593      00000000 
 1594 0290 00000000 		.quad	_ZN12_GLOBAL__N_141TestTimeConstraintMacroQualifiesNamespaceD1Ev
 1594      00000000 
 1595 0298 00000000 		.quad	_ZN12_GLOBAL__N_141TestTimeConstraintMacroQualifiesNamespaceD0Ev
 1595      00000000 
 1596 02a0 00000000 		.quad	_ZNK12_GLOBAL__N_141TestTimeConstraintMacroQualifiesNamespace7RunImplEv
 1596      00000000 
 1597              		.text
 1598              		.align 2
 1600              	_ZN12_GLOBAL__N_141TestTimeConstraintMacroQualifiesNamespaceD2Ev:
 1601              	.LFB1178:
   9:TestTimeConstraintMacro.cpp **** {
 1602              		.loc 6 9 0
 1603              		.cfi_startproc
 1604 0594 55       		pushq	%rbp
 1605              		.cfi_def_cfa_offset 16
 1606              		.cfi_offset 6, -16
 1607 0595 4889E5   		movq	%rsp, %rbp
 1608              		.cfi_def_cfa_register 6
 1609 0598 4883EC10 		subq	$16, %rsp
 1610 059c 48897DF8 		movq	%rdi, -8(%rbp)
 1611              	.LBB27:
   9:TestTimeConstraintMacro.cpp **** {
 1612              		.loc 6 9 0
 1613 05a0 488B45F8 		movq	-8(%rbp), %rax
 1614 05a4 48C70000 		movq	$_ZTVN12_GLOBAL__N_141TestTimeConstraintMacroQualifiesNamespaceE+16, (%rax)
 1614      000000
 1615 05ab 488B45F8 		movq	-8(%rbp), %rax
 1616 05af 4889C7   		movq	%rax, %rdi
 1617 05b2 E8000000 		call	_ZN8UnitTest4TestD2Ev
 1617      00
 1618              	.LBE27:
 1619 05b7 B8000000 		movl	$0, %eax
 1619      00
 1620 05bc 85C0     		testl	%eax, %eax
 1621 05be 740C     		je	.L77
   9:TestTimeConstraintMacro.cpp **** {
 1622              		.loc 6 9 0 is_stmt 0 discriminator 4
 1623 05c0 488B45F8 		movq	-8(%rbp), %rax
 1624 05c4 4889C7   		movq	%rax, %rdi
 1625 05c7 E8000000 		call	_ZdlPv
 1625      00
 1626              	.L77:
   9:TestTimeConstraintMacro.cpp **** {
 1627              		.loc 6 9 0
 1628 05cc C9       		leave
 1629              		.cfi_def_cfa 7, 8
 1630 05cd C3       		ret
 1631              		.cfi_endproc
 1632              	.LFE1178:
 1634              		.set	_ZN12_GLOBAL__N_141TestTimeConstraintMacroQualifiesNamespaceD1Ev,_ZN12_GLOBAL__N_141TestTimeC
 1635              		.align 2
 1637              	_ZN12_GLOBAL__N_141TestTimeConstraintMacroQualifiesNamespaceD0Ev:
 1638              	.LFB1180:
   9:TestTimeConstraintMacro.cpp **** {
 1639              		.loc 6 9 0 is_stmt 1
 1640              		.cfi_startproc
 1641 05ce 55       		pushq	%rbp
 1642              		.cfi_def_cfa_offset 16
 1643              		.cfi_offset 6, -16
 1644 05cf 4889E5   		movq	%rsp, %rbp
 1645              		.cfi_def_cfa_register 6
 1646 05d2 4883EC10 		subq	$16, %rsp
 1647 05d6 48897DF8 		movq	%rdi, -8(%rbp)
   9:TestTimeConstraintMacro.cpp **** {
 1648              		.loc 6 9 0
 1649 05da 488B45F8 		movq	-8(%rbp), %rax
 1650 05de 4889C7   		movq	%rax, %rdi
 1651 05e1 E8AEFFFF 		call	_ZN12_GLOBAL__N_141TestTimeConstraintMacroQualifiesNamespaceD2Ev
 1651      FF
 1652 05e6 488B45F8 		movq	-8(%rbp), %rax
 1653 05ea 4889C7   		movq	%rax, %rdi
 1654 05ed E8000000 		call	_ZdlPv
 1654      00
 1655 05f2 C9       		leave
 1656              		.cfi_def_cfa 7, 8
 1657 05f3 C3       		ret
 1658              		.cfi_endproc
 1659              	.LFE1180:
 1661              		.weak	_ZTV17RecordingReporter
 1662              		.section	.rodata._ZTV17RecordingReporter,"aG",@progbits,_ZTV17RecordingReporter,comdat
 1663              		.align 64
 1666              	_ZTV17RecordingReporter:
 1667 0000 00000000 		.quad	0
 1667      00000000 
 1668 0008 00000000 		.quad	_ZTI17RecordingReporter
 1668      00000000 
 1669 0010 00000000 		.quad	_ZN17RecordingReporterD1Ev
 1669      00000000 
 1670 0018 00000000 		.quad	_ZN17RecordingReporterD0Ev
 1670      00000000 
 1671 0020 00000000 		.quad	_ZN17RecordingReporter15ReportTestStartERKN8UnitTest11TestDetailsE
 1671      00000000 
 1672 0028 00000000 		.quad	_ZN17RecordingReporter13ReportFailureERKN8UnitTest11TestDetailsEPKc
 1672      00000000 
 1673 0030 00000000 		.quad	_ZN17RecordingReporter16ReportTestFinishERKN8UnitTest11TestDetailsEf
 1673      00000000 
 1674 0038 00000000 		.quad	_ZN17RecordingReporter13ReportSummaryEiiif
 1674      00000000 
 1675              		.section	.text._ZN17RecordingReporterD2Ev,"axG",@progbits,_ZN17RecordingReporterD5Ev,comdat
 1676              		.align 2
 1677              		.weak	_ZN17RecordingReporterD2Ev
 1679              	_ZN17RecordingReporterD2Ev:
 1680              	.LFB1182:
   9:RecordingReporter.h **** {
 1681              		.loc 4 9 0
 1682              		.cfi_startproc
 1683 0000 55       		pushq	%rbp
 1684              		.cfi_def_cfa_offset 16
 1685              		.cfi_offset 6, -16
 1686 0001 4889E5   		movq	%rsp, %rbp
 1687              		.cfi_def_cfa_register 6
 1688 0004 4883EC10 		subq	$16, %rsp
 1689 0008 48897DF8 		movq	%rdi, -8(%rbp)
 1690              	.LBB28:
   9:RecordingReporter.h **** {
 1691              		.loc 4 9 0
 1692 000c 488B45F8 		movq	-8(%rbp), %rax
 1693 0010 48C70000 		movq	$_ZTV17RecordingReporter+16, (%rax)
 1693      000000
 1694 0017 488B45F8 		movq	-8(%rbp), %rax
 1695 001b 4889C7   		movq	%rax, %rdi
 1696 001e E8000000 		call	_ZN8UnitTest12TestReporterD2Ev
 1696      00
 1697              	.LBE28:
 1698 0023 B8000000 		movl	$0, %eax
 1698      00
 1699 0028 85C0     		testl	%eax, %eax
 1700 002a 740C     		je	.L82
   9:RecordingReporter.h **** {
 1701              		.loc 4 9 0 is_stmt 0 discriminator 4
 1702 002c 488B45F8 		movq	-8(%rbp), %rax
 1703 0030 4889C7   		movq	%rax, %rdi
 1704 0033 E8000000 		call	_ZdlPv
 1704      00
 1705              	.L82:
   9:RecordingReporter.h **** {
 1706              		.loc 4 9 0
 1707 0038 C9       		leave
 1708              		.cfi_def_cfa 7, 8
 1709 0039 C3       		ret
 1710              		.cfi_endproc
 1711              	.LFE1182:
 1713              		.weak	_ZN17RecordingReporterD1Ev
 1714              		.set	_ZN17RecordingReporterD1Ev,_ZN17RecordingReporterD2Ev
 1715              		.section	.text._ZN17RecordingReporterD0Ev,"axG",@progbits,_ZN17RecordingReporterD5Ev,comdat
 1716              		.align 2
 1717              		.weak	_ZN17RecordingReporterD0Ev
 1719              	_ZN17RecordingReporterD0Ev:
 1720              	.LFB1184:
   9:RecordingReporter.h **** {
 1721              		.loc 4 9 0 is_stmt 1
 1722              		.cfi_startproc
 1723 0000 55       		pushq	%rbp
 1724              		.cfi_def_cfa_offset 16
 1725              		.cfi_offset 6, -16
 1726 0001 4889E5   		movq	%rsp, %rbp
 1727              		.cfi_def_cfa_register 6
 1728 0004 4883EC10 		subq	$16, %rsp
 1729 0008 48897DF8 		movq	%rdi, -8(%rbp)
   9:RecordingReporter.h **** {
 1730              		.loc 4 9 0
 1731 000c 488B45F8 		movq	-8(%rbp), %rax
 1732 0010 4889C7   		movq	%rax, %rdi
 1733 0013 E8000000 		call	_ZN17RecordingReporterD1Ev
 1733      00
 1734 0018 488B45F8 		movq	-8(%rbp), %rax
 1735 001c 4889C7   		movq	%rax, %rdi
 1736 001f E8000000 		call	_ZdlPv
 1736      00
 1737 0024 C9       		leave
 1738              		.cfi_def_cfa 7, 8
 1739 0025 C3       		ret
 1740              		.cfi_endproc
 1741              	.LFE1184:
 1743              		.weak	_ZTVN8UnitTest15MemoryOutStreamE
 1744              		.section	.rodata._ZTVN8UnitTest15MemoryOutStreamE,"aG",@progbits,_ZTVN8UnitTest15MemoryOutStreamE,
 1745              		.align 64
 1748              	_ZTVN8UnitTest15MemoryOutStreamE:
 1749 0000 60000000 		.quad	96
 1749      00000000 
 1750 0008 00000000 		.quad	0
 1750      00000000 
 1751 0010 00000000 		.quad	_ZTIN8UnitTest15MemoryOutStreamE
 1751      00000000 
 1752 0018 00000000 		.quad	_ZN8UnitTest15MemoryOutStreamD1Ev
 1752      00000000 
 1753 0020 00000000 		.quad	_ZN8UnitTest15MemoryOutStreamD0Ev
 1753      00000000 
 1754 0028 A0FFFFFF 		.quad	-96
 1754      FFFFFFFF 
 1755 0030 A0FFFFFF 		.quad	-96
 1755      FFFFFFFF 
 1756 0038 00000000 		.quad	_ZTIN8UnitTest15MemoryOutStreamE
 1756      00000000 
 1757 0040 00000000 		.quad	_ZTv0_n24_N8UnitTest15MemoryOutStreamD1Ev
 1757      00000000 
 1758 0048 00000000 		.quad	_ZTv0_n24_N8UnitTest15MemoryOutStreamD0Ev
 1758      00000000 
 1759              		.weak	_ZTTN8UnitTest15MemoryOutStreamE
 1760              		.section	.rodata._ZTTN8UnitTest15MemoryOutStreamE,"aG",@progbits,_ZTVN8UnitTest15MemoryOutStreamE,
 1761              		.align 32
 1764              	_ZTTN8UnitTest15MemoryOutStreamE:
 1765 0000 00000000 		.quad	_ZTVN8UnitTest15MemoryOutStreamE+24
 1765      00000000 
 1766 0008 00000000 		.quad	_ZTCN8UnitTest15MemoryOutStreamE0_St19basic_ostringstreamIcSt11char_traitsIcESaIcEE+24
 1766      00000000 
 1767 0010 00000000 		.quad	_ZTCN8UnitTest15MemoryOutStreamE0_So+24
 1767      00000000 
 1768 0018 00000000 		.quad	_ZTCN8UnitTest15MemoryOutStreamE0_So+64
 1768      00000000 
 1769 0020 00000000 		.quad	_ZTCN8UnitTest15MemoryOutStreamE0_St19basic_ostringstreamIcSt11char_traitsIcESaIcEE+64
 1769      00000000 
 1770 0028 00000000 		.quad	_ZTVN8UnitTest15MemoryOutStreamE+64
 1770      00000000 
 1771              		.hidden	_ZTCN8UnitTest15MemoryOutStreamE0_St19basic_ostringstreamIcSt11char_traitsIcESaIcEE
 1772              		.weak	_ZTCN8UnitTest15MemoryOutStreamE0_St19basic_ostringstreamIcSt11char_traitsIcESaIcEE
 1773              		.section	.rodata._ZTCN8UnitTest15MemoryOutStreamE0_St19basic_ostringstreamIcSt11char_traitsIcESaIc
 1774              		.align 64
 1777              	_ZTCN8UnitTest15MemoryOutStreamE0_St19basic_ostringstreamIcSt11char_traitsIcESaIcEE:
 1778 0000 60000000 		.quad	96
 1778      00000000 
 1779 0008 00000000 		.quad	0
 1779      00000000 
 1780 0010 00000000 		.quad	_ZTISt19basic_ostringstreamIcSt11char_traitsIcESaIcEE
 1780      00000000 
 1781 0018 00000000 		.quad	0
 1781      00000000 
 1782 0020 00000000 		.quad	0
 1782      00000000 
 1783 0028 A0FFFFFF 		.quad	-96
 1783      FFFFFFFF 
 1784 0030 A0FFFFFF 		.quad	-96
 1784      FFFFFFFF 
 1785 0038 00000000 		.quad	_ZTISt19basic_ostringstreamIcSt11char_traitsIcESaIcEE
 1785      00000000 
 1786 0040 00000000 		.quad	0
 1786      00000000 
 1787 0048 00000000 		.quad	0
 1787      00000000 
 1788              		.hidden	_ZTCN8UnitTest15MemoryOutStreamE0_So
 1789              		.weak	_ZTCN8UnitTest15MemoryOutStreamE0_So
 1790              		.section	.rodata._ZTCN8UnitTest15MemoryOutStreamE0_So,"aG",@progbits,_ZTVN8UnitTest15MemoryOutStre
 1791              		.align 64
 1794              	_ZTCN8UnitTest15MemoryOutStreamE0_So:
 1795 0000 60000000 		.quad	96
 1795      00000000 
 1796 0008 00000000 		.quad	0
 1796      00000000 
 1797 0010 00000000 		.quad	_ZTISo
 1797      00000000 
 1798 0018 00000000 		.quad	0
 1798      00000000 
 1799 0020 00000000 		.quad	0
 1799      00000000 
 1800 0028 A0FFFFFF 		.quad	-96
 1800      FFFFFFFF 
 1801 0030 A0FFFFFF 		.quad	-96
 1801      FFFFFFFF 
 1802 0038 00000000 		.quad	_ZTISo
 1802      00000000 
 1803 0040 00000000 		.quad	0
 1803      00000000 
 1804 0048 00000000 		.quad	0
 1804      00000000 
 1805              		.weak	_ZTS17RecordingReporter
 1806              		.section	.rodata._ZTS17RecordingReporter,"aG",@progbits,_ZTS17RecordingReporter,comdat
 1807              		.align 16
 1810              	_ZTS17RecordingReporter:
 1811 0000 31375265 		.string	"17RecordingReporter"
 1811      636F7264 
 1811      696E6752 
 1811      65706F72 
 1811      74657200 
 1812              		.weak	_ZTI17RecordingReporter
 1813              		.section	.rodata._ZTI17RecordingReporter,"aG",@progbits,_ZTI17RecordingReporter,comdat
 1814              		.align 16
 1817              	_ZTI17RecordingReporter:
 1818 0000 00000000 		.quad	_ZTVN10__cxxabiv120__si_class_type_infoE+16
 1818      00000000 
 1819 0008 00000000 		.quad	_ZTS17RecordingReporter
 1819      00000000 
 1820 0010 00000000 		.quad	_ZTIN8UnitTest12TestReporterE
 1820      00000000 
 1821              		.weak	_ZTSN8UnitTest15MemoryOutStreamE
 1822              		.section	.rodata._ZTSN8UnitTest15MemoryOutStreamE,"aG",@progbits,_ZTSN8UnitTest15MemoryOutStreamE,
 1823              		.align 16
 1826              	_ZTSN8UnitTest15MemoryOutStreamE:
 1827 0000 4E38556E 		.string	"N8UnitTest15MemoryOutStreamE"
 1827      69745465 
 1827      73743135 
 1827      4D656D6F 
 1827      72794F75 
 1828              		.weak	_ZTIN8UnitTest15MemoryOutStreamE
 1829              		.section	.rodata._ZTIN8UnitTest15MemoryOutStreamE,"aG",@progbits,_ZTIN8UnitTest15MemoryOutStreamE,
 1830              		.align 16
 1833              	_ZTIN8UnitTest15MemoryOutStreamE:
 1834 0000 00000000 		.quad	_ZTVN10__cxxabiv120__si_class_type_infoE+16
 1834      00000000 
 1835 0008 00000000 		.quad	_ZTSN8UnitTest15MemoryOutStreamE
 1835      00000000 
 1836 0010 00000000 		.quad	_ZTISt19basic_ostringstreamIcSt11char_traitsIcESaIcEE
 1836      00000000 
 1837              		.text
 1839              	_Z41__static_initialization_and_destruction_0ii:
 1840              	.LFB1185:
  34:TestTimeConstraintMacro.cpp **** 
  35:TestTimeConstraintMacro.cpp **** }
 1841              		.loc 6 35 0
 1842              		.cfi_startproc
 1843 05f4 55       		pushq	%rbp
 1844              		.cfi_def_cfa_offset 16
 1845              		.cfi_offset 6, -16
 1846 05f5 4889E5   		movq	%rsp, %rbp
 1847              		.cfi_def_cfa_register 6
 1848 05f8 4883EC10 		subq	$16, %rsp
 1849 05fc 897DFC   		movl	%edi, -4(%rbp)
 1850 05ff 8975F8   		movl	%esi, -8(%rbp)
 1851              		.loc 6 35 0
 1852 0602 837DFC01 		cmpl	$1, -4(%rbp)
 1853 0606 7573     		jne	.L87
 1854              		.loc 6 35 0 is_stmt 0 discriminator 1
 1855 0608 817DF8FF 		cmpl	$65535, -8(%rbp)
 1855      FF0000
 1856 060f 756A     		jne	.L87
   9:TestTimeConstraintMacro.cpp **** {
 1857              		.loc 6 9 0 is_stmt 1
 1858 0611 BF000000 		movl	$_ZN12_GLOBAL__N_149testTimeConstraintMacroQualifiesNamespaceInstanceE, %edi
 1858      00
 1859 0616 E8E5F9FF 		call	_ZN12_GLOBAL__N_141TestTimeConstraintMacroQualifiesNamespaceC2Ev
 1859      FF
 1860 061b BA000000 		movl	$__dso_handle, %edx
 1860      00
 1861 0620 BE000000 		movl	$_ZN12_GLOBAL__N_149testTimeConstraintMacroQualifiesNamespaceInstanceE, %esi
 1861      00
 1862 0625 BF000000 		movl	$_ZN12_GLOBAL__N_141TestTimeConstraintMacroQualifiesNamespaceD1Ev, %edi
 1862      00
 1863 062a E8000000 		call	__cxa_atexit
 1863      00
 1864 062f E8000000 		call	_ZN8UnitTest4Test11GetTestListEv
 1864      00
 1865 0634 BA000000 		movl	$_ZN12_GLOBAL__N_149testTimeConstraintMacroQualifiesNamespaceInstanceE, %edx
 1865      00
 1866 0639 4889C6   		movq	%rax, %rsi
 1867 063c BF000000 		movl	$_ZN12_GLOBAL__N_142adderTimeConstraintMacroQualifiesNamespaceE, %edi
 1867      00
 1868 0641 E8000000 		call	_ZN8UnitTest9ListAdderC1ERNS_8TestListEPNS_4TestE
 1868      00
  15:TestTimeConstraintMacro.cpp **** {
 1869              		.loc 6 15 0
 1870 0646 BF000000 		movl	$_ZN12_GLOBAL__N_146testTimeConstraintMacroUsesCorrectInfoInstanceE, %edi
 1870      00
 1871 064b E85CFAFF 		call	_ZN12_GLOBAL__N_138TestTimeConstraintMacroUsesCorrectInfoC2Ev
 1871      FF
 1872 0650 BA000000 		movl	$__dso_handle, %edx
 1872      00
 1873 0655 BE000000 		movl	$_ZN12_GLOBAL__N_146testTimeConstraintMacroUsesCorrectInfoInstanceE, %esi
 1873      00
 1874 065a BF000000 		movl	$_ZN12_GLOBAL__N_138TestTimeConstraintMacroUsesCorrectInfoD1Ev, %edi
 1874      00
 1875 065f E8000000 		call	__cxa_atexit
 1875      00
 1876 0664 E8000000 		call	_ZN8UnitTest4Test11GetTestListEv
 1876      00
 1877 0669 BA000000 		movl	$_ZN12_GLOBAL__N_146testTimeConstraintMacroUsesCorrectInfoInstanceE, %edx
 1877      00
 1878 066e 4889C6   		movq	%rax, %rsi
 1879 0671 BF000000 		movl	$_ZN12_GLOBAL__N_139adderTimeConstraintMacroUsesCorrectInfoE, %edi
 1879      00
 1880 0676 E8000000 		call	_ZN8UnitTest9ListAdderC1ERNS_8TestListEPNS_4TestE
 1880      00
 1881              	.L87:
 1882              		.loc 6 35 0
 1883 067b C9       		leave
 1884              		.cfi_def_cfa 7, 8
 1885 067c C3       		ret
 1886              		.cfi_endproc
 1887              	.LFE1185:
 1889              		.section	.rodata
 1890 02a8 00000000 		.align 16
 1890      00000000 
 1893              	_ZTIN12_GLOBAL__N_141TestTimeConstraintMacroQualifiesNamespaceE:
 1894 02b0 00000000 		.quad	_ZTVN10__cxxabiv120__si_class_type_infoE+16
 1894      00000000 
 1895 02b8 00000000 		.quad	_ZTSN12_GLOBAL__N_141TestTimeConstraintMacroQualifiesNamespaceE
 1895      00000000 
 1896 02c0 00000000 		.quad	_ZTIN8UnitTest4TestE
 1896      00000000 
 1897 02c8 00000000 		.align 16
 1897      00000000 
 1900              	_ZTIN12_GLOBAL__N_138TestTimeConstraintMacroUsesCorrectInfoE:
 1901 02d0 00000000 		.quad	_ZTVN10__cxxabiv120__si_class_type_infoE+16
 1901      00000000 
 1902 02d8 00000000 		.quad	_ZTSN12_GLOBAL__N_138TestTimeConstraintMacroUsesCorrectInfoE
 1902      00000000 
 1903 02e0 00000000 		.quad	_ZTIN8UnitTest4TestE
 1903      00000000 
 1904 02e8 00000000 		.align 32
 1904      00000000 
 1904      00000000 
 1904      00000000 
 1904      00000000 
 1907              	_ZTSN12_GLOBAL__N_138TestTimeConstraintMacroUsesCorrectInfoE:
 1908 0300 2A4E3132 		.string	"*N12_GLOBAL__N_138TestTimeConstraintMacroUsesCorrectInfoE"
 1908      5F474C4F 
 1908      42414C5F 
 1908      5F4E5F31 
 1908      33385465 
 1909 033a 00000000 		.align 32
 1909      0000
 1912              	_ZTSN12_GLOBAL__N_141TestTimeConstraintMacroQualifiesNamespaceE:
 1913 0340 2A4E3132 		.string	"*N12_GLOBAL__N_141TestTimeConstraintMacroQualifiesNamespaceE"
 1913      5F474C4F 
 1913      42414C5F 
 1913      5F4E5F31 
 1913      34315465 
 1914              		.text
 1916              	_GLOBAL__sub_I_TestTimeConstraintMacro.cpp:
 1917              	.LFB1186:
 1918              		.loc 6 35 0
 1919              		.cfi_startproc
 1920 067d 55       		pushq	%rbp
 1921              		.cfi_def_cfa_offset 16
 1922              		.cfi_offset 6, -16
 1923 067e 4889E5   		movq	%rsp, %rbp
 1924              		.cfi_def_cfa_register 6
 1925              		.loc 6 35 0
 1926 0681 BEFFFF00 		movl	$65535, %esi
 1926      00
 1927 0686 BF010000 		movl	$1, %edi
 1927      00
 1928 068b E864FFFF 		call	_Z41__static_initialization_and_destruction_0ii
 1928      FF
 1929 0690 5D       		popq	%rbp
 1930              		.cfi_def_cfa 7, 8
 1931 0691 C3       		ret
 1932              		.cfi_endproc
 1933              	.LFE1186:
 1935              		.section	.init_array,"aw"
 1936              		.align 8
 1937 0000 00000000 		.quad	_GLOBAL__sub_I_TestTimeConstraintMacro.cpp
 1937      00000000 
 1938              		.section	.rodata
 1939 037d 000000   		.align 8
 1942              	_ZZL18__gthread_active_pvE20__gthread_active_ptr:
 1943 0380 00000000 		.quad	_ZL28__gthrw___pthread_key_createPjPFvPvE
 1943      00000000 
 1944              		.weakref	_ZL28__gthrw___pthread_key_createPjPFvPvE,__pthread_key_create
 1945              		.align 4
 1946              	.LC1:
 1947 0388 00000000 		.long	0
 1948              		.text
 1949              	.Letext0:
 1950              		.file 8 "../TestDetails.h"
 1951              		.file 9 "../TestList.h"
 1952              		.file 10 "../TestResults.h"
 1953              		.file 11 "../PosixUtils/TimeHelpers.h"
 1954              		.file 12 "../TimeConstraint.h"
 1955              		.file 13 "<built-in>"
 1956              		.file 14 "/usr/include/stdio.h"
 1957              		.file 15 "/usr/lib/gcc/x86_64-linux-gnu/4.9/include/stddef.h"
 1958              		.file 16 "/usr/include/wchar.h"
 1959              		.file 17 "/usr/include/c++/4.9/cwchar"
 1960              		.file 18 "/usr/include/c++/4.9/bits/char_traits.h"
 1961              		.file 19 "/usr/include/x86_64-linux-gnu/c++/4.9/bits/c++config.h"
 1962              		.file 20 "/usr/include/c++/4.9/clocale"
 1963              		.file 21 "/usr/include/c++/4.9/bits/allocator.h"
 1964              		.file 22 "/usr/include/c++/4.9/bits/basic_string.h"
 1965              		.file 23 "/usr/include/c++/4.9/bits/basic_string.tcc"
 1966              		.file 24 "/usr/include/c++/4.9/bits/stringfwd.h"
 1967              		.file 25 "/usr/include/c++/4.9/cwctype"
 1968              		.file 26 "/usr/include/c++/4.9/cstring"
 1969              		.file 27 "/usr/include/time.h"
 1970              		.file 28 "/usr/include/c++/4.9/debug/debug.h"
 1971              		.file 29 "/usr/include/c++/4.9/bits/predefined_ops.h"
 1972              		.file 30 "/usr/include/c++/4.9/ext/new_allocator.h"
 1973              		.file 31 "/usr/include/c++/4.9/ext/numeric_traits.h"
 1974              		.file 32 "/usr/include/locale.h"
 1975              		.file 33 "/usr/include/x86_64-linux-gnu/bits/types.h"
 1976              		.file 34 "/usr/include/x86_64-linux-gnu/bits/time.h"
 1977              		.file 35 "/usr/include/x86_64-linux-gnu/c++/4.9/bits/atomic_word.h"
 1978              		.file 36 "/usr/include/wctype.h"
 1979              		.file 37 "/usr/include/string.h"
DEFINED SYMBOLS
                            *ABS*:0000000000000000 TestTimeConstraintMacro.cpp
     /tmp/ccj2iTHR.s:10     .text._ZN13UnitTestSuite12GetSuiteNameEv:0000000000000000 _ZN13UnitTestSuite12GetSuiteNameEv
     /tmp/ccj2iTHR.s:33     .text._ZN8UnitTest15MemoryOutStreamC1Ev:0000000000000000 _ZN8UnitTest15MemoryOutStreamC1Ev
     /tmp/ccj2iTHR.s:1764   .rodata._ZTTN8UnitTest15MemoryOutStreamE:0000000000000000 _ZTTN8UnitTest15MemoryOutStreamE
     /tmp/ccj2iTHR.s:1748   .rodata._ZTVN8UnitTest15MemoryOutStreamE:0000000000000000 _ZTVN8UnitTest15MemoryOutStreamE
     /tmp/ccj2iTHR.s:146    .text._ZN8UnitTest12TestReporterC2Ev:0000000000000000 _ZN8UnitTest12TestReporterC2Ev
     /tmp/ccj2iTHR.s:146    .text._ZN8UnitTest12TestReporterC2Ev:0000000000000000 _ZN8UnitTest12TestReporterC1Ev
     /tmp/ccj2iTHR.s:174    .text._ZN17RecordingReporterC2Ev:0000000000000000 _ZN17RecordingReporterC2Ev
     /tmp/ccj2iTHR.s:1666   .rodata._ZTV17RecordingReporter:0000000000000000 _ZTV17RecordingReporter
     /tmp/ccj2iTHR.s:174    .text._ZN17RecordingReporterC2Ev:0000000000000000 _ZN17RecordingReporterC1Ev
     /tmp/ccj2iTHR.s:251    .text._ZN17RecordingReporter15ReportTestStartERKN8UnitTest11TestDetailsE:0000000000000000 _ZN17RecordingReporter15ReportTestStartERKN8UnitTest11TestDetailsE
     /tmp/ccj2iTHR.s:298    .text._ZN17RecordingReporter13ReportFailureERKN8UnitTest11TestDetailsEPKc:0000000000000000 _ZN17RecordingReporter13ReportFailureERKN8UnitTest11TestDetailsEPKc
     /tmp/ccj2iTHR.s:366    .text._ZN17RecordingReporter16ReportTestFinishERKN8UnitTest11TestDetailsEf:0000000000000000 _ZN17RecordingReporter16ReportTestFinishERKN8UnitTest11TestDetailsEf
     /tmp/ccj2iTHR.s:418    .text._ZN17RecordingReporter13ReportSummaryEiiif:0000000000000000 _ZN17RecordingReporter13ReportSummaryEiiif
     /tmp/ccj2iTHR.s:459    .text._ZN17ScopedCurrentTestC2ERN8UnitTest11TestResultsEPKNS0_11TestDetailsE:0000000000000000 _ZN17ScopedCurrentTestC2ERN8UnitTest11TestResultsEPKNS0_11TestDetailsE
     /tmp/ccj2iTHR.s:459    .text._ZN17ScopedCurrentTestC2ERN8UnitTest11TestResultsEPKNS0_11TestDetailsE:0000000000000000 _ZN17ScopedCurrentTestC1ERN8UnitTest11TestResultsEPKNS0_11TestDetailsE
     /tmp/ccj2iTHR.s:512    .text._ZN17ScopedCurrentTestD2Ev:0000000000000000 _ZN17ScopedCurrentTestD2Ev
     /tmp/ccj2iTHR.s:512    .text._ZN17ScopedCurrentTestD2Ev:0000000000000000 _ZN17ScopedCurrentTestD1Ev
     /tmp/ccj2iTHR.s:555    .text:0000000000000000 _ZN12_GLOBAL__N_141TestTimeConstraintMacroQualifiesNamespaceC2Ev
     /tmp/ccj2iTHR.s:1591   .rodata:0000000000000280 _ZTVN12_GLOBAL__N_141TestTimeConstraintMacroQualifiesNamespaceE
     /tmp/ccj2iTHR.s:587    .bss:0000000000000000 _ZN12_GLOBAL__N_149testTimeConstraintMacroQualifiesNamespaceInstanceE
     /tmp/ccj2iTHR.s:587    .bss:0000000000000038 _ZN12_GLOBAL__N_142adderTimeConstraintMacroQualifiesNamespaceE
     /tmp/ccj2iTHR.s:592    .text:000000000000003e _ZNK12_GLOBAL__N_141TestTimeConstraintMacroQualifiesNamespace7RunImplEv
     /tmp/ccj2iTHR.s:644    .text:00000000000000ac _ZN12_GLOBAL__N_138TestTimeConstraintMacroUsesCorrectInfoC2Ev
     /tmp/ccj2iTHR.s:1517   .rodata:0000000000000240 _ZTVN12_GLOBAL__N_138TestTimeConstraintMacroUsesCorrectInfoE
     /tmp/ccj2iTHR.s:675    .bss:0000000000000040 _ZN12_GLOBAL__N_146testTimeConstraintMacroUsesCorrectInfoInstanceE
     /tmp/ccj2iTHR.s:675    .bss:0000000000000078 _ZN12_GLOBAL__N_139adderTimeConstraintMacroUsesCorrectInfoE
     /tmp/ccj2iTHR.s:700    .text:00000000000000ea _ZNK12_GLOBAL__N_138TestTimeConstraintMacroUsesCorrectInfo7RunImplEv
     /tmp/ccj2iTHR.s:1347   .text._ZN8UnitTest10CheckEqualIiiEEvRNS_11TestResultsERKT_RKT0_RKNS_11TestDetailsE:0000000000000000 _ZN8UnitTest10CheckEqualIiiEEvRNS_11TestResultsERKT_RKT0_RKNS_11TestDetailsE
     /tmp/ccj2iTHR.s:1493   .text._ZN8UnitTest5CheckIPcEEbT_:0000000000000000 _ZN8UnitTest5CheckIPcEEbT_
     /tmp/ccj2iTHR.s:1679   .text._ZN17RecordingReporterD2Ev:0000000000000000 _ZN17RecordingReporterD1Ev
     /tmp/ccj2iTHR.s:1160   .text._ZN8UnitTest15MemoryOutStreamD1Ev:0000000000000000 _ZN8UnitTest15MemoryOutStreamD1Ev
     /tmp/ccj2iTHR.s:1288   .text._ZN8UnitTest15MemoryOutStreamD1Ev:00000000000000c8 _ZTv0_n24_N8UnitTest15MemoryOutStreamD1Ev
     /tmp/ccj2iTHR.s:1302   .text._ZN8UnitTest15MemoryOutStreamD0Ev:0000000000000000 _ZN8UnitTest15MemoryOutStreamD0Ev
     /tmp/ccj2iTHR.s:1329   .text._ZN8UnitTest15MemoryOutStreamD0Ev:0000000000000026 _ZTv0_n24_N8UnitTest15MemoryOutStreamD0Ev
     /tmp/ccj2iTHR.s:1900   .rodata:00000000000002d0 _ZTIN12_GLOBAL__N_138TestTimeConstraintMacroUsesCorrectInfoE
     /tmp/ccj2iTHR.s:1526   .text:0000000000000534 _ZN12_GLOBAL__N_138TestTimeConstraintMacroUsesCorrectInfoD1Ev
     /tmp/ccj2iTHR.s:1563   .text:000000000000056e _ZN12_GLOBAL__N_138TestTimeConstraintMacroUsesCorrectInfoD0Ev
     /tmp/ccj2iTHR.s:1526   .text:0000000000000534 _ZN12_GLOBAL__N_138TestTimeConstraintMacroUsesCorrectInfoD2Ev
     /tmp/ccj2iTHR.s:1893   .rodata:00000000000002b0 _ZTIN12_GLOBAL__N_141TestTimeConstraintMacroQualifiesNamespaceE
     /tmp/ccj2iTHR.s:1600   .text:0000000000000594 _ZN12_GLOBAL__N_141TestTimeConstraintMacroQualifiesNamespaceD1Ev
     /tmp/ccj2iTHR.s:1637   .text:00000000000005ce _ZN12_GLOBAL__N_141TestTimeConstraintMacroQualifiesNamespaceD0Ev
     /tmp/ccj2iTHR.s:1600   .text:0000000000000594 _ZN12_GLOBAL__N_141TestTimeConstraintMacroQualifiesNamespaceD2Ev
     /tmp/ccj2iTHR.s:1817   .rodata._ZTI17RecordingReporter:0000000000000000 _ZTI17RecordingReporter
     /tmp/ccj2iTHR.s:1719   .text._ZN17RecordingReporterD0Ev:0000000000000000 _ZN17RecordingReporterD0Ev
     /tmp/ccj2iTHR.s:1679   .text._ZN17RecordingReporterD2Ev:0000000000000000 _ZN17RecordingReporterD2Ev
     /tmp/ccj2iTHR.s:1833   .rodata._ZTIN8UnitTest15MemoryOutStreamE:0000000000000000 _ZTIN8UnitTest15MemoryOutStreamE
     /tmp/ccj2iTHR.s:1777   .rodata._ZTCN8UnitTest15MemoryOutStreamE0_St19basic_ostringstreamIcSt11char_traitsIcESaIcEE:0000000000000000 _ZTCN8UnitTest15MemoryOutStreamE0_St19basic_ostringstreamIcSt11char_traitsIcESaIcEE
     /tmp/ccj2iTHR.s:1794   .rodata._ZTCN8UnitTest15MemoryOutStreamE0_So:0000000000000000 _ZTCN8UnitTest15MemoryOutStreamE0_So
     /tmp/ccj2iTHR.s:1810   .rodata._ZTS17RecordingReporter:0000000000000000 _ZTS17RecordingReporter
     /tmp/ccj2iTHR.s:1826   .rodata._ZTSN8UnitTest15MemoryOutStreamE:0000000000000000 _ZTSN8UnitTest15MemoryOutStreamE
     /tmp/ccj2iTHR.s:1839   .text:00000000000005f4 _Z41__static_initialization_and_destruction_0ii
     /tmp/ccj2iTHR.s:1912   .rodata:0000000000000340 _ZTSN12_GLOBAL__N_141TestTimeConstraintMacroQualifiesNamespaceE
     /tmp/ccj2iTHR.s:1907   .rodata:0000000000000300 _ZTSN12_GLOBAL__N_138TestTimeConstraintMacroUsesCorrectInfoE
     /tmp/ccj2iTHR.s:1916   .text:000000000000067d _GLOBAL__sub_I_TestTimeConstraintMacro.cpp
     /tmp/ccj2iTHR.s:1942   .rodata:0000000000000380 _ZZL18__gthread_active_pvE20__gthread_active_ptr
                           .group:0000000000000000 _ZN8UnitTest12TestReporterC5Ev
                           .group:0000000000000000 _ZN17RecordingReporterC5Ev
                           .group:0000000000000000 _ZN17ScopedCurrentTestC5ERN8UnitTest11TestResultsEPKNS0_11TestDetailsE
                           .group:0000000000000000 _ZN17ScopedCurrentTestD5Ev
                           .group:0000000000000000 _ZN17RecordingReporterD5Ev

UNDEFINED SYMBOLS
__gxx_personality_v0
_ZNSt9basic_iosIcSt11char_traitsIcEEC2Ev
_ZNSt19basic_ostringstreamIcSt11char_traitsIcESaIcEEC2ESt13_Ios_Openmode
_ZNSsC1Ev
_ZNSt19basic_ostringstreamIcSt11char_traitsIcESaIcEED2Ev
_ZNSt9basic_iosIcSt11char_traitsIcEED2Ev
_Unwind_Resume
_ZTVN8UnitTest12TestReporterE
strcpy
_ZN8UnitTest11CurrentTest7ResultsEv
_ZN8UnitTest11CurrentTest7DetailsEv
_ZN8UnitTest4TestC2EPKcS2_S2_i
_ZN8UnitTest11TestDetailsC1ERKS0_i
_ZN8UnitTest14TimeConstraintC1EiRKNS_11TestDetailsE
_ZN8UnitTest14TimeConstraintD1Ev
__stack_chk_fail
_ZN8UnitTest11TestResultsC1EPNS_12TestReporterE
_ZN8UnitTest11TimeHelpers7SleepMsEi
strstr
_ZN8UnitTest11TestResults13OnTestFailureERKNS_11TestDetailsEPKc
__cxa_end_catch
__cxa_begin_catch
_ZNSsD1Ev
_ZdlPv
_ZStlsISt11char_traitsIcEERSt13basic_ostreamIcT_ES5_PKc
_ZNSolsEi
_ZNK8UnitTest15MemoryOutStream7GetTextEv
_ZN8UnitTest4TestD2Ev
_ZN8UnitTest12TestReporterD2Ev
_ZTISt19basic_ostringstreamIcSt11char_traitsIcESaIcEE
_ZTISo
_ZTVN10__cxxabiv120__si_class_type_infoE
_ZTIN8UnitTest12TestReporterE
__dso_handle
__cxa_atexit
_ZN8UnitTest4Test11GetTestListEv
_ZN8UnitTest9ListAdderC1ERNS_8TestListEPNS_4TestE
_ZTIN8UnitTest4TestE
__pthread_key_create
