   1              		.file	"TestTestResults.cpp"
   2              		.text
   3              	.Ltext0:
   4              		.section	.rodata
   5              	.LC0:
   6 0000 44656661 		.string	"DefaultSuite"
   6      756C7453 
   6      75697465 
   6      00
   7              		.section	.text._ZN13UnitTestSuite12GetSuiteNameEv,"axG",@progbits,_ZN13UnitTestSuite12GetSuiteName
   8              		.weak	_ZN13UnitTestSuite12GetSuiteNameEv
  10              	_ZN13UnitTestSuite12GetSuiteNameEv:
  11              	.LFB0:
  12              		.file 1 "../TestSuite.h"
   1:../TestSuite.h **** #ifndef UNITTEST_TESTSUITE_H
   2:../TestSuite.h **** #define UNITTEST_TESTSUITE_H
   3:../TestSuite.h **** 
   4:../TestSuite.h **** namespace UnitTestSuite {
   5:../TestSuite.h **** 
   6:../TestSuite.h ****     inline char const* GetSuiteName ()
   7:../TestSuite.h ****     {
  13              		.loc 1 7 0
  14              		.cfi_startproc
  15 0000 55       		pushq	%rbp
  16              		.cfi_def_cfa_offset 16
  17              		.cfi_offset 6, -16
  18 0001 4889E5   		movq	%rsp, %rbp
  19              		.cfi_def_cfa_register 6
   8:../TestSuite.h ****         return "DefaultSuite";
  20              		.loc 1 8 0
  21 0004 B8000000 		movl	$.LC0, %eax
  21      00
   9:../TestSuite.h ****     }
  22              		.loc 1 9 0
  23 0009 5D       		popq	%rbp
  24              		.cfi_def_cfa 7, 8
  25 000a C3       		ret
  26              		.cfi_endproc
  27              	.LFE0:
  29              		.section	.text._ZN8UnitTest15MemoryOutStreamC1Ev,"axG",@progbits,_ZN8UnitTest15MemoryOutStreamC1Ev
  30              		.align 2
  31              		.weak	_ZN8UnitTest15MemoryOutStreamC1Ev
  33              	_ZN8UnitTest15MemoryOutStreamC1Ev:
  34              	.LFB1053:
  35              		.file 2 "../MemoryOutStream.h"
   1:../MemoryOutStream.h **** #ifndef UNITTEST_MEMORYOUTSTREAM_H
   2:../MemoryOutStream.h **** #define UNITTEST_MEMORYOUTSTREAM_H
   3:../MemoryOutStream.h **** 
   4:../MemoryOutStream.h **** #include "Config.h"
   5:../MemoryOutStream.h **** 
   6:../MemoryOutStream.h **** #ifndef UNITTEST_USE_CUSTOM_STREAMS
   7:../MemoryOutStream.h **** 
   8:../MemoryOutStream.h **** #include <sstream>
   9:../MemoryOutStream.h **** 
  10:../MemoryOutStream.h **** namespace UnitTest
  11:../MemoryOutStream.h **** {
  12:../MemoryOutStream.h **** 
  13:../MemoryOutStream.h **** class MemoryOutStream : public std::ostringstream
  14:../MemoryOutStream.h **** {
  15:../MemoryOutStream.h **** public:
  16:../MemoryOutStream.h ****     MemoryOutStream() {}
  36              		.loc 2 16 0
  37              		.cfi_startproc
  38              		.cfi_personality 0x3,__gxx_personality_v0
  39              		.cfi_lsda 0x3,.LLSDA1053
  40 0000 55       		pushq	%rbp
  41              		.cfi_def_cfa_offset 16
  42              		.cfi_offset 6, -16
  43 0001 4889E5   		movq	%rsp, %rbp
  44              		.cfi_def_cfa_register 6
  45 0004 53       		pushq	%rbx
  46 0005 4883EC18 		subq	$24, %rsp
  47              		.cfi_offset 3, -24
  48 0009 48897DE8 		movq	%rdi, -24(%rbp)
  49              	.LBB2:
  50              		.loc 2 16 0
  51 000d 488B45E8 		movq	-24(%rbp), %rax
  52 0011 4883C060 		addq	$96, %rax
  53 0015 4889C7   		movq	%rax, %rdi
  54              	.LEHB0:
  55 0018 E8000000 		call	_ZNSt9basic_iosIcSt11char_traitsIcEEC2Ev
  55      00
  56              	.LEHE0:
  57 001d B9000000 		movl	$_ZTTN8UnitTest15MemoryOutStreamE+8, %ecx
  57      00
  58 0022 488B45E8 		movq	-24(%rbp), %rax
  59 0026 BA100000 		movl	$16, %edx
  59      00
  60 002b 4889CE   		movq	%rcx, %rsi
  61 002e 4889C7   		movq	%rax, %rdi
  62              	.LEHB1:
  63 0031 E8000000 		call	_ZNSt19basic_ostringstreamIcSt11char_traitsIcESaIcEEC2ESt13_Ios_Openmode
  63      00
  64              	.LEHE1:
  65              		.loc 2 16 0 is_stmt 0 discriminator 9
  66 0036 BA000000 		movl	$_ZTVN8UnitTest15MemoryOutStreamE+24, %edx
  66      00
  67 003b 488B45E8 		movq	-24(%rbp), %rax
  68 003f 488910   		movq	%rdx, (%rax)
  69 0042 BA600000 		movl	$96, %edx
  69      00
  70 0047 488B45E8 		movq	-24(%rbp), %rax
  71 004b 4801D0   		addq	%rdx, %rax
  72 004e BA000000 		movl	$_ZTVN8UnitTest15MemoryOutStreamE+64, %edx
  72      00
  73 0053 488910   		movq	%rdx, (%rax)
  74 0056 488B45E8 		movq	-24(%rbp), %rax
  75 005a 4883C058 		addq	$88, %rax
  76 005e 4889C7   		movq	%rax, %rdi
  77              	.LEHB2:
  78 0061 E8000000 		call	_ZNSsC1Ev
  78      00
  79              	.LEHE2:
  80              	.LBE2:
  81              		.loc 2 16 0
  82 0066 EB37     		jmp	.L8
  83              	.L6:
  84 0068 4889C3   		movq	%rax, %rbx
  85              	.LBB3:
  86 006b BA000000 		movl	$_ZTTN8UnitTest15MemoryOutStreamE+8, %edx
  86      00
  87 0070 488B45E8 		movq	-24(%rbp), %rax
  88 0074 4889D6   		movq	%rdx, %rsi
  89 0077 4889C7   		movq	%rax, %rdi
  90 007a E8000000 		call	_ZNSt19basic_ostringstreamIcSt11char_traitsIcESaIcEED2Ev
  90      00
  91 007f EB03     		jmp	.L5
  92              	.L7:
  93 0081 4889C3   		movq	%rax, %rbx
  94              	.L5:
  95              		.loc 2 16 0 discriminator 28
  96 0084 488B45E8 		movq	-24(%rbp), %rax
  97 0088 4883C060 		addq	$96, %rax
  98 008c 4889C7   		movq	%rax, %rdi
  99 008f E8000000 		call	_ZNSt9basic_iosIcSt11char_traitsIcEED2Ev
  99      00
 100 0094 4889D8   		movq	%rbx, %rax
 101 0097 4889C7   		movq	%rax, %rdi
 102              	.LEHB3:
 103 009a E8000000 		call	_Unwind_Resume
 103      00
 104              	.LEHE3:
 105              	.L8:
 106              	.LBE3:
 107              		.loc 2 16 0
 108 009f 4883C418 		addq	$24, %rsp
 109 00a3 5B       		popq	%rbx
 110 00a4 5D       		popq	%rbp
 111              		.cfi_def_cfa 7, 8
 112 00a5 C3       		ret
 113              		.cfi_endproc
 114              	.LFE1053:
 115              		.globl	__gxx_personality_v0
 116              		.section	.gcc_except_table._ZN8UnitTest15MemoryOutStreamC1Ev,"aG",@progbits,_ZN8UnitTest15MemoryOu
 117              	.LLSDA1053:
 118 0000 FF       		.byte	0xff
 119 0001 FF       		.byte	0xff
 120 0002 01       		.byte	0x1
 121 0003 12       		.uleb128 .LLSDACSE1053-.LLSDACSB1053
 122              	.LLSDACSB1053:
 123 0004 18       		.uleb128 .LEHB0-.LFB1053
 124 0005 05       		.uleb128 .LEHE0-.LEHB0
 125 0006 00       		.uleb128 0
 126 0007 00       		.uleb128 0
 127 0008 31       		.uleb128 .LEHB1-.LFB1053
 128 0009 05       		.uleb128 .LEHE1-.LEHB1
 129 000a 8101     		.uleb128 .L7-.LFB1053
 130 000c 00       		.uleb128 0
 131 000d 61       		.uleb128 .LEHB2-.LFB1053
 132 000e 05       		.uleb128 .LEHE2-.LEHB2
 133 000f 68       		.uleb128 .L6-.LFB1053
 134 0010 00       		.uleb128 0
 135 0011 9A01     		.uleb128 .LEHB3-.LFB1053
 136 0013 05       		.uleb128 .LEHE3-.LEHB3
 137 0014 00       		.uleb128 0
 138 0015 00       		.uleb128 0
 139              	.LLSDACSE1053:
 140              		.section	.text._ZN8UnitTest15MemoryOutStreamC1Ev,"axG",@progbits,_ZN8UnitTest15MemoryOutStreamC1Ev
 142              		.section	.text._ZN8UnitTest12TestReporterC2Ev,"axG",@progbits,_ZN8UnitTest12TestReporterC5Ev,comda
 143              		.align 2
 144              		.weak	_ZN8UnitTest12TestReporterC2Ev
 146              	_ZN8UnitTest12TestReporterC2Ev:
 147              	.LFB1067:
 148              		.file 3 "../TestReporter.h"
   1:../TestReporter.h **** #ifndef UNITTEST_TESTREPORTER_H
   2:../TestReporter.h **** #define UNITTEST_TESTREPORTER_H
   3:../TestReporter.h **** 
   4:../TestReporter.h **** namespace UnitTest {
   5:../TestReporter.h **** 
   6:../TestReporter.h **** class TestDetails;
   7:../TestReporter.h **** 
   8:../TestReporter.h **** class TestReporter
 149              		.loc 3 8 0 is_stmt 1
 150              		.cfi_startproc
 151 0000 55       		pushq	%rbp
 152              		.cfi_def_cfa_offset 16
 153              		.cfi_offset 6, -16
 154 0001 4889E5   		movq	%rsp, %rbp
 155              		.cfi_def_cfa_register 6
 156 0004 48897DF8 		movq	%rdi, -8(%rbp)
 157              	.LBB4:
 158              		.loc 3 8 0
 159 0008 488B45F8 		movq	-8(%rbp), %rax
 160 000c 48C70000 		movq	$_ZTVN8UnitTest12TestReporterE+16, (%rax)
 160      000000
 161              	.LBE4:
 162 0013 5D       		popq	%rbp
 163              		.cfi_def_cfa 7, 8
 164 0014 C3       		ret
 165              		.cfi_endproc
 166              	.LFE1067:
 168              		.weak	_ZN8UnitTest12TestReporterC1Ev
 169              		.set	_ZN8UnitTest12TestReporterC1Ev,_ZN8UnitTest12TestReporterC2Ev
 170              		.section	.text._ZN17RecordingReporterC2Ev,"axG",@progbits,_ZN17RecordingReporterC5Ev,comdat
 171              		.align 2
 172              		.weak	_ZN17RecordingReporterC2Ev
 174              	_ZN17RecordingReporterC2Ev:
 175              	.LFB1069:
 176              		.file 4 "RecordingReporter.h"
   1:RecordingReporter.h **** #ifndef UNITTEST_RECORDINGREPORTER_H
   2:RecordingReporter.h **** #define UNITTEST_RECORDINGREPORTER_H
   3:RecordingReporter.h **** 
   4:RecordingReporter.h **** #include "../TestReporter.h"
   5:RecordingReporter.h **** #include <cstring>
   6:RecordingReporter.h **** 
   7:RecordingReporter.h **** #include "../TestDetails.h"
   8:RecordingReporter.h **** 
   9:RecordingReporter.h **** struct RecordingReporter : public UnitTest::TestReporter
  10:RecordingReporter.h **** {
  11:RecordingReporter.h **** private:
  12:RecordingReporter.h ****     enum { kMaxStringLength = 256 };
  13:RecordingReporter.h **** 
  14:RecordingReporter.h **** public:
  15:RecordingReporter.h ****     RecordingReporter()
 177              		.loc 4 15 0
 178              		.cfi_startproc
 179 0000 55       		pushq	%rbp
 180              		.cfi_def_cfa_offset 16
 181              		.cfi_offset 6, -16
 182 0001 4889E5   		movq	%rsp, %rbp
 183              		.cfi_def_cfa_register 6
 184 0004 4883EC10 		subq	$16, %rsp
 185 0008 48897DF8 		movq	%rdi, -8(%rbp)
 186              	.LBB5:
  16:RecordingReporter.h ****         : testRunCount(0)
  17:RecordingReporter.h ****         , testFailedCount(0)
  18:RecordingReporter.h ****         , lastFailedLine(0)
  19:RecordingReporter.h ****         , testFinishedCount(0)
  20:RecordingReporter.h ****         , lastFinishedTestTime(0)
  21:RecordingReporter.h ****         , summaryTotalTestCount(0)
  22:RecordingReporter.h ****         , summaryFailedTestCount(0)
  23:RecordingReporter.h ****         , summaryFailureCount(0)
  24:RecordingReporter.h ****         , summarySecondsElapsed(0)
 187              		.loc 4 24 0
 188 000c 488B45F8 		movq	-8(%rbp), %rax
 189 0010 4889C7   		movq	%rax, %rdi
 190 0013 E8000000 		call	_ZN8UnitTest12TestReporterC2Ev
 190      00
 191 0018 488B45F8 		movq	-8(%rbp), %rax
 192 001c 48C70000 		movq	$_ZTV17RecordingReporter+16, (%rax)
 192      000000
 193 0023 488B45F8 		movq	-8(%rbp), %rax
 194 0027 C7400800 		movl	$0, 8(%rax)
 194      000000
 195 002e 488B45F8 		movq	-8(%rbp), %rax
 196 0032 C7800C02 		movl	$0, 524(%rax)
 196      00000000 
 196      0000
 197 003c 488B45F8 		movq	-8(%rbp), %rax
 198 0040 C7801003 		movl	$0, 784(%rax)
 198      00000000 
 198      0000
 199 004a 488B45F8 		movq	-8(%rbp), %rax
 200 004e C7801406 		movl	$0, 1556(%rax)
 200      00000000 
 200      0000
 201 0058 488B55F8 		movq	-8(%rbp), %rdx
 202 005c 8B050000 		movl	.LC1(%rip), %eax
 202      0000
 203 0062 89821808 		movl	%eax, 2072(%rdx)
 203      0000
 204 0068 488B45F8 		movq	-8(%rbp), %rax
 205 006c C7801C08 		movl	$0, 2076(%rax)
 205      00000000 
 205      0000
 206 0076 488B45F8 		movq	-8(%rbp), %rax
 207 007a C7802008 		movl	$0, 2080(%rax)
 207      00000000 
 207      0000
 208 0084 488B45F8 		movq	-8(%rbp), %rax
 209 0088 C7802408 		movl	$0, 2084(%rax)
 209      00000000 
 209      0000
 210 0092 488B55F8 		movq	-8(%rbp), %rdx
 211 0096 8B050000 		movl	.LC1(%rip), %eax
 211      0000
 212 009c 89822808 		movl	%eax, 2088(%rdx)
 212      0000
  25:RecordingReporter.h ****     {
  26:RecordingReporter.h ****         lastStartedSuite[0] = '\0';
 213              		.loc 4 26 0
 214 00a2 488B45F8 		movq	-8(%rbp), %rax
 215 00a6 C6400C00 		movb	$0, 12(%rax)
  27:RecordingReporter.h ****         lastStartedTest[0] = '\0';
 216              		.loc 4 27 0
 217 00aa 488B45F8 		movq	-8(%rbp), %rax
 218 00ae C6800C01 		movb	$0, 268(%rax)
 218      000000
  28:RecordingReporter.h ****         lastFailedFile[0] = '\0';
 219              		.loc 4 28 0
 220 00b5 488B45F8 		movq	-8(%rbp), %rax
 221 00b9 C6801002 		movb	$0, 528(%rax)
 221      000000
  29:RecordingReporter.h ****         lastFailedSuite[0] = '\0';
 222              		.loc 4 29 0
 223 00c0 488B45F8 		movq	-8(%rbp), %rax
 224 00c4 C6801403 		movb	$0, 788(%rax)
 224      000000
  30:RecordingReporter.h ****         lastFailedTest[0] = '\0';
 225              		.loc 4 30 0
 226 00cb 488B45F8 		movq	-8(%rbp), %rax
 227 00cf C6801404 		movb	$0, 1044(%rax)
 227      000000
  31:RecordingReporter.h ****         lastFailedMessage[0] = '\0';
 228              		.loc 4 31 0
 229 00d6 488B45F8 		movq	-8(%rbp), %rax
 230 00da C6801405 		movb	$0, 1300(%rax)
 230      000000
  32:RecordingReporter.h ****         lastFinishedSuite[0] = '\0';
 231              		.loc 4 32 0
 232 00e1 488B45F8 		movq	-8(%rbp), %rax
 233 00e5 C6801806 		movb	$0, 1560(%rax)
 233      000000
  33:RecordingReporter.h ****         lastFinishedTest[0] = '\0';
 234              		.loc 4 33 0
 235 00ec 488B45F8 		movq	-8(%rbp), %rax
 236 00f0 C6801807 		movb	$0, 1816(%rax)
 236      000000
 237              	.LBE5:
  34:RecordingReporter.h ****     }
 238              		.loc 4 34 0
 239 00f7 C9       		leave
 240              		.cfi_def_cfa 7, 8
 241 00f8 C3       		ret
 242              		.cfi_endproc
 243              	.LFE1069:
 245              		.weak	_ZN17RecordingReporterC1Ev
 246              		.set	_ZN17RecordingReporterC1Ev,_ZN17RecordingReporterC2Ev
 247              		.section	.text._ZN17RecordingReporter15ReportTestStartERKN8UnitTest11TestDetailsE,"axG",@progbits,
 248              		.align 2
 249              		.weak	_ZN17RecordingReporter15ReportTestStartERKN8UnitTest11TestDetailsE
 251              	_ZN17RecordingReporter15ReportTestStartERKN8UnitTest11TestDetailsE:
 252              	.LFB1071:
  35:RecordingReporter.h **** 
  36:RecordingReporter.h ****     virtual void ReportTestStart(UnitTest::TestDetails const& test)
 253              		.loc 4 36 0
 254              		.cfi_startproc
 255 0000 55       		pushq	%rbp
 256              		.cfi_def_cfa_offset 16
 257              		.cfi_offset 6, -16
 258 0001 4889E5   		movq	%rsp, %rbp
 259              		.cfi_def_cfa_register 6
 260 0004 4883EC10 		subq	$16, %rsp
 261 0008 48897DF8 		movq	%rdi, -8(%rbp)
 262 000c 488975F0 		movq	%rsi, -16(%rbp)
 263              	.LBB6:
  37:RecordingReporter.h ****     {
  38:RecordingReporter.h **** 		using namespace std;
  39:RecordingReporter.h **** 
  40:RecordingReporter.h ****         ++testRunCount;
 264              		.loc 4 40 0
 265 0010 488B45F8 		movq	-8(%rbp), %rax
 266 0014 8B4008   		movl	8(%rax), %eax
 267 0017 8D5001   		leal	1(%rax), %edx
 268 001a 488B45F8 		movq	-8(%rbp), %rax
 269 001e 895008   		movl	%edx, 8(%rax)
  41:RecordingReporter.h ****         strcpy(lastStartedSuite, test.suiteName);
 270              		.loc 4 41 0
 271 0021 488B45F0 		movq	-16(%rbp), %rax
 272 0025 488B00   		movq	(%rax), %rax
 273 0028 488B55F8 		movq	-8(%rbp), %rdx
 274 002c 4883C20C 		addq	$12, %rdx
 275 0030 4889C6   		movq	%rax, %rsi
 276 0033 4889D7   		movq	%rdx, %rdi
 277 0036 E8000000 		call	strcpy
 277      00
  42:RecordingReporter.h ****         strcpy(lastStartedTest, test.testName);
 278              		.loc 4 42 0
 279 003b 488B45F0 		movq	-16(%rbp), %rax
 280 003f 488B4008 		movq	8(%rax), %rax
 281 0043 488B55F8 		movq	-8(%rbp), %rdx
 282 0047 4881C20C 		addq	$268, %rdx
 282      010000
 283 004e 4889C6   		movq	%rax, %rsi
 284 0051 4889D7   		movq	%rdx, %rdi
 285 0054 E8000000 		call	strcpy
 285      00
 286              	.LBE6:
  43:RecordingReporter.h ****     }
 287              		.loc 4 43 0
 288 0059 C9       		leave
 289              		.cfi_def_cfa 7, 8
 290 005a C3       		ret
 291              		.cfi_endproc
 292              	.LFE1071:
 294              		.section	.text._ZN17RecordingReporter13ReportFailureERKN8UnitTest11TestDetailsEPKc,"axG",@progbits
 295              		.align 2
 296              		.weak	_ZN17RecordingReporter13ReportFailureERKN8UnitTest11TestDetailsEPKc
 298              	_ZN17RecordingReporter13ReportFailureERKN8UnitTest11TestDetailsEPKc:
 299              	.LFB1072:
  44:RecordingReporter.h **** 
  45:RecordingReporter.h ****     virtual void ReportFailure(UnitTest::TestDetails const& test, char const* failure)
 300              		.loc 4 45 0
 301              		.cfi_startproc
 302 0000 55       		pushq	%rbp
 303              		.cfi_def_cfa_offset 16
 304              		.cfi_offset 6, -16
 305 0001 4889E5   		movq	%rsp, %rbp
 306              		.cfi_def_cfa_register 6
 307 0004 4883EC20 		subq	$32, %rsp
 308 0008 48897DF8 		movq	%rdi, -8(%rbp)
 309 000c 488975F0 		movq	%rsi, -16(%rbp)
 310 0010 488955E8 		movq	%rdx, -24(%rbp)
 311              	.LBB7:
  46:RecordingReporter.h ****     {
  47:RecordingReporter.h **** 		using namespace std;
  48:RecordingReporter.h **** 
  49:RecordingReporter.h **** 		++testFailedCount;
 312              		.loc 4 49 0
 313 0014 488B45F8 		movq	-8(%rbp), %rax
 314 0018 8B800C02 		movl	524(%rax), %eax
 314      0000
 315 001e 8D5001   		leal	1(%rax), %edx
 316 0021 488B45F8 		movq	-8(%rbp), %rax
 317 0025 89900C02 		movl	%edx, 524(%rax)
 317      0000
  50:RecordingReporter.h ****         strcpy(lastFailedFile, test.filename);
 318              		.loc 4 50 0
 319 002b 488B45F0 		movq	-16(%rbp), %rax
 320 002f 488B4010 		movq	16(%rax), %rax
 321 0033 488B55F8 		movq	-8(%rbp), %rdx
 322 0037 4881C210 		addq	$528, %rdx
 322      020000
 323 003e 4889C6   		movq	%rax, %rsi
 324 0041 4889D7   		movq	%rdx, %rdi
 325 0044 E8000000 		call	strcpy
 325      00
  51:RecordingReporter.h ****         lastFailedLine = test.lineNumber;
 326              		.loc 4 51 0
 327 0049 488B45F0 		movq	-16(%rbp), %rax
 328 004d 8B5018   		movl	24(%rax), %edx
 329 0050 488B45F8 		movq	-8(%rbp), %rax
 330 0054 89901003 		movl	%edx, 784(%rax)
 330      0000
  52:RecordingReporter.h ****         strcpy(lastFailedSuite, test.suiteName);
 331              		.loc 4 52 0
 332 005a 488B45F0 		movq	-16(%rbp), %rax
 333 005e 488B00   		movq	(%rax), %rax
 334 0061 488B55F8 		movq	-8(%rbp), %rdx
 335 0065 4881C214 		addq	$788, %rdx
 335      030000
 336 006c 4889C6   		movq	%rax, %rsi
 337 006f 4889D7   		movq	%rdx, %rdi
 338 0072 E8000000 		call	strcpy
 338      00
  53:RecordingReporter.h ****         strcpy(lastFailedTest, test.testName);
 339              		.loc 4 53 0
 340 0077 488B45F0 		movq	-16(%rbp), %rax
 341 007b 488B4008 		movq	8(%rax), %rax
 342 007f 488B55F8 		movq	-8(%rbp), %rdx
 343 0083 4881C214 		addq	$1044, %rdx
 343      040000
 344 008a 4889C6   		movq	%rax, %rsi
 345 008d 4889D7   		movq	%rdx, %rdi
 346 0090 E8000000 		call	strcpy
 346      00
  54:RecordingReporter.h ****         strcpy(lastFailedMessage, failure);
 347              		.loc 4 54 0
 348 0095 488B45F8 		movq	-8(%rbp), %rax
 349 0099 488D9014 		leaq	1300(%rax), %rdx
 349      050000
 350 00a0 488B45E8 		movq	-24(%rbp), %rax
 351 00a4 4889C6   		movq	%rax, %rsi
 352 00a7 4889D7   		movq	%rdx, %rdi
 353 00aa E8000000 		call	strcpy
 353      00
 354              	.LBE7:
  55:RecordingReporter.h ****     }
 355              		.loc 4 55 0
 356 00af C9       		leave
 357              		.cfi_def_cfa 7, 8
 358 00b0 C3       		ret
 359              		.cfi_endproc
 360              	.LFE1072:
 362              		.section	.text._ZN17RecordingReporter16ReportTestFinishERKN8UnitTest11TestDetailsEf,"axG",@progbit
 363              		.align 2
 364              		.weak	_ZN17RecordingReporter16ReportTestFinishERKN8UnitTest11TestDetailsEf
 366              	_ZN17RecordingReporter16ReportTestFinishERKN8UnitTest11TestDetailsEf:
 367              	.LFB1073:
  56:RecordingReporter.h **** 
  57:RecordingReporter.h ****     virtual void ReportTestFinish(UnitTest::TestDetails const& test, float testDuration)
 368              		.loc 4 57 0
 369              		.cfi_startproc
 370 0000 55       		pushq	%rbp
 371              		.cfi_def_cfa_offset 16
 372              		.cfi_offset 6, -16
 373 0001 4889E5   		movq	%rsp, %rbp
 374              		.cfi_def_cfa_register 6
 375 0004 4883EC20 		subq	$32, %rsp
 376 0008 48897DF8 		movq	%rdi, -8(%rbp)
 377 000c 488975F0 		movq	%rsi, -16(%rbp)
 378 0010 F30F1145 		movss	%xmm0, -20(%rbp)
 378      EC
 379              	.LBB8:
  58:RecordingReporter.h ****     {
  59:RecordingReporter.h **** 		using namespace std;
  60:RecordingReporter.h **** 
  61:RecordingReporter.h **** 		++testFinishedCount;
 380              		.loc 4 61 0
 381 0015 488B45F8 		movq	-8(%rbp), %rax
 382 0019 8B801406 		movl	1556(%rax), %eax
 382      0000
 383 001f 8D5001   		leal	1(%rax), %edx
 384 0022 488B45F8 		movq	-8(%rbp), %rax
 385 0026 89901406 		movl	%edx, 1556(%rax)
 385      0000
  62:RecordingReporter.h ****         strcpy(lastFinishedSuite, test.suiteName);
 386              		.loc 4 62 0
 387 002c 488B45F0 		movq	-16(%rbp), %rax
 388 0030 488B00   		movq	(%rax), %rax
 389 0033 488B55F8 		movq	-8(%rbp), %rdx
 390 0037 4881C218 		addq	$1560, %rdx
 390      060000
 391 003e 4889C6   		movq	%rax, %rsi
 392 0041 4889D7   		movq	%rdx, %rdi
 393 0044 E8000000 		call	strcpy
 393      00
  63:RecordingReporter.h ****         strcpy(lastFinishedTest, test.testName);
 394              		.loc 4 63 0
 395 0049 488B45F0 		movq	-16(%rbp), %rax
 396 004d 488B4008 		movq	8(%rax), %rax
 397 0051 488B55F8 		movq	-8(%rbp), %rdx
 398 0055 4881C218 		addq	$1816, %rdx
 398      070000
 399 005c 4889C6   		movq	%rax, %rsi
 400 005f 4889D7   		movq	%rdx, %rdi
 401 0062 E8000000 		call	strcpy
 401      00
  64:RecordingReporter.h ****         lastFinishedTestTime = testDuration;
 402              		.loc 4 64 0
 403 0067 488B55F8 		movq	-8(%rbp), %rdx
 404 006b 8B45EC   		movl	-20(%rbp), %eax
 405 006e 89821808 		movl	%eax, 2072(%rdx)
 405      0000
 406              	.LBE8:
  65:RecordingReporter.h ****     }
 407              		.loc 4 65 0
 408 0074 C9       		leave
 409              		.cfi_def_cfa 7, 8
 410 0075 C3       		ret
 411              		.cfi_endproc
 412              	.LFE1073:
 414              		.section	.text._ZN17RecordingReporter13ReportSummaryEiiif,"axG",@progbits,_ZN17RecordingReporter13
 415              		.align 2
 416              		.weak	_ZN17RecordingReporter13ReportSummaryEiiif
 418              	_ZN17RecordingReporter13ReportSummaryEiiif:
 419              	.LFB1074:
  66:RecordingReporter.h **** 
  67:RecordingReporter.h ****     virtual void ReportSummary(int totalTestCount, int failedTestCount, int failureCount, float sec
 420              		.loc 4 67 0
 421              		.cfi_startproc
 422 0000 55       		pushq	%rbp
 423              		.cfi_def_cfa_offset 16
 424              		.cfi_offset 6, -16
 425 0001 4889E5   		movq	%rsp, %rbp
 426              		.cfi_def_cfa_register 6
 427 0004 48897DF8 		movq	%rdi, -8(%rbp)
 428 0008 8975F4   		movl	%esi, -12(%rbp)
 429 000b 8955F0   		movl	%edx, -16(%rbp)
 430 000e 894DEC   		movl	%ecx, -20(%rbp)
 431 0011 F30F1145 		movss	%xmm0, -24(%rbp)
 431      E8
  68:RecordingReporter.h ****     {
  69:RecordingReporter.h ****         summaryTotalTestCount = totalTestCount;
 432              		.loc 4 69 0
 433 0016 488B45F8 		movq	-8(%rbp), %rax
 434 001a 8B55F4   		movl	-12(%rbp), %edx
 435 001d 89901C08 		movl	%edx, 2076(%rax)
 435      0000
  70:RecordingReporter.h ****         summaryFailedTestCount = failedTestCount;
 436              		.loc 4 70 0
 437 0023 488B45F8 		movq	-8(%rbp), %rax
 438 0027 8B55F0   		movl	-16(%rbp), %edx
 439 002a 89902008 		movl	%edx, 2080(%rax)
 439      0000
  71:RecordingReporter.h ****         summaryFailureCount = failureCount;
 440              		.loc 4 71 0
 441 0030 488B45F8 		movq	-8(%rbp), %rax
 442 0034 8B55EC   		movl	-20(%rbp), %edx
 443 0037 89902408 		movl	%edx, 2084(%rax)
 443      0000
  72:RecordingReporter.h ****         summarySecondsElapsed = secondsElapsed;
 444              		.loc 4 72 0
 445 003d 488B55F8 		movq	-8(%rbp), %rdx
 446 0041 8B45E8   		movl	-24(%rbp), %eax
 447 0044 89822808 		movl	%eax, 2088(%rdx)
 447      0000
  73:RecordingReporter.h ****     }
 448              		.loc 4 73 0
 449 004a 5D       		popq	%rbp
 450              		.cfi_def_cfa 7, 8
 451 004b C3       		ret
 452              		.cfi_endproc
 453              	.LFE1074:
 455              		.local	_ZN12_GLOBAL__N_1L7detailsE
 456              		.comm	_ZN12_GLOBAL__N_1L7detailsE,32,32
 457              		.section	.rodata
 458              	.LC2:
 459 000d 54657374 		.string	"TestTestResults.cpp"
 459      54657374 
 459      52657375 
 459      6C74732E 
 459      63707000 
 460              	.LC3:
 461 0021 53746172 		.string	"StartsWithNoTestsRun"
 461      74735769 
 461      74684E6F 
 461      54657374 
 461      7352756E 
 462              		.text
 463              		.align 2
 465              	_ZN12_GLOBAL__N_124TestStartsWithNoTestsRunC2Ev:
 466              	.LFB1076:
 467              		.file 5 "TestTestResults.cpp"
   1:TestTestResults.cpp **** #include "../UnitTest++.h"
   2:TestTestResults.cpp **** #include "../TestResults.h"
   3:TestTestResults.cpp **** #include "RecordingReporter.h"
   4:TestTestResults.cpp **** 
   5:TestTestResults.cpp **** using namespace UnitTest;
   6:TestTestResults.cpp **** 
   7:TestTestResults.cpp **** namespace {
   8:TestTestResults.cpp **** 
   9:TestTestResults.cpp **** TestDetails const details("testname", "suitename", "filename", 123);
  10:TestTestResults.cpp **** 
  11:TestTestResults.cpp **** 
  12:TestTestResults.cpp **** TEST(StartsWithNoTestsRun)
 468              		.loc 5 12 0
 469              		.cfi_startproc
 470 0000 55       		pushq	%rbp
 471              		.cfi_def_cfa_offset 16
 472              		.cfi_offset 6, -16
 473 0001 4889E5   		movq	%rsp, %rbp
 474              		.cfi_def_cfa_register 6
 475 0004 4883EC10 		subq	$16, %rsp
 476 0008 48897DF8 		movq	%rdi, -8(%rbp)
 477              	.LBB9:
 478              		.loc 5 12 0
 479 000c E8000000 		call	_ZN13UnitTestSuite12GetSuiteNameEv
 479      00
 480 0011 4889C2   		movq	%rax, %rdx
 481 0014 488B45F8 		movq	-8(%rbp), %rax
 482 0018 41B80C00 		movl	$12, %r8d
 482      0000
 483 001e B9000000 		movl	$.LC2, %ecx
 483      00
 484 0023 BE000000 		movl	$.LC3, %esi
 484      00
 485 0028 4889C7   		movq	%rax, %rdi
 486 002b E8000000 		call	_ZN8UnitTest4TestC2EPKcS2_S2_i
 486      00
 487 0030 488B45F8 		movq	-8(%rbp), %rax
 488 0034 48C70000 		movq	$_ZTVN12_GLOBAL__N_124TestStartsWithNoTestsRunE+16, (%rax)
 488      000000
 489              	.LBE9:
 490 003b C9       		leave
 491              		.cfi_def_cfa 7, 8
 492 003c C3       		ret
 493              		.cfi_endproc
 494              	.LFE1076:
 496              		.local	_ZN12_GLOBAL__N_132testStartsWithNoTestsRunInstanceE
 497              		.comm	_ZN12_GLOBAL__N_132testStartsWithNoTestsRunInstanceE,56,32
 498              		.local	_ZN12_GLOBAL__N_125adderStartsWithNoTestsRunE
 499              		.comm	_ZN12_GLOBAL__N_125adderStartsWithNoTestsRunE,1,1
 500              		.section	.rodata
 501 0036 0000     		.align 8
 502              	.LC4:
 503 0038 556E6861 		.string	"Unhandled exception in CHECK_EQUAL(0, results.GetTotalTestCount())"
 503      6E646C65 
 503      64206578 
 503      63657074 
 503      696F6E20 
 504              		.text
 505 003d 90       		.align 2
 507              	_ZNK12_GLOBAL__N_124TestStartsWithNoTestsRun7RunImplEv:
 508              	.LFB1078:
  13:TestTestResults.cpp **** {
 509              		.loc 5 13 0
 510              		.cfi_startproc
 511              		.cfi_personality 0x3,__gxx_personality_v0
 512              		.cfi_lsda 0x3,.LLSDA1078
 513 003e 55       		pushq	%rbp
 514              		.cfi_def_cfa_offset 16
 515              		.cfi_offset 6, -16
 516 003f 4889E5   		movq	%rsp, %rbp
 517              		.cfi_def_cfa_register 6
 518 0042 53       		pushq	%rbx
 519 0043 4883EC78 		subq	$120, %rsp
 520              		.cfi_offset 3, -24
 521 0047 48897D88 		movq	%rdi, -120(%rbp)
 522              		.loc 5 13 0
 523 004b 64488B04 		movq	%fs:40, %rax
 523      25280000 
 523      00
 524 0054 488945E8 		movq	%rax, -24(%rbp)
 525 0058 31C0     		xorl	%eax, %eax
 526              	.LBB10:
  14:TestTestResults.cpp ****     TestResults results;
 527              		.loc 5 14 0
 528 005a 488D45A0 		leaq	-96(%rbp), %rax
 529 005e BE000000 		movl	$0, %esi
 529      00
 530 0063 4889C7   		movq	%rax, %rdi
 531              	.LEHB4:
 532 0066 E8000000 		call	_ZN8UnitTest11TestResultsC1EPNS_12TestReporterE
 532      00
 533              	.LEHE4:
 534              	.LEHB5:
  15:TestTestResults.cpp ****     CHECK_EQUAL (0, results.GetTotalTestCount());
 535              		.loc 5 15 0
 536 006b E8000000 		call	_ZN8UnitTest11CurrentTest7DetailsEv
 536      00
 537 0070 488B08   		movq	(%rax), %rcx
 538 0073 488D45C0 		leaq	-64(%rbp), %rax
 539 0077 BA0F0000 		movl	$15, %edx
 539      00
 540 007c 4889CE   		movq	%rcx, %rsi
 541 007f 4889C7   		movq	%rax, %rdi
 542 0082 E8000000 		call	_ZN8UnitTest11TestDetailsC1ERKS0_i
 542      00
 543              		.loc 5 15 0 is_stmt 0 discriminator 2
 544 0087 488D45A0 		leaq	-96(%rbp), %rax
 545 008b 4889C7   		movq	%rax, %rdi
 546 008e E8000000 		call	_ZNK8UnitTest11TestResults17GetTotalTestCountEv
 546      00
 547 0093 89459C   		movl	%eax, -100(%rbp)
 548 0096 C7459800 		movl	$0, -104(%rbp)
 548      000000
 549 009d E8000000 		call	_ZN8UnitTest11CurrentTest7ResultsEv
 549      00
 550              		.loc 5 15 0 discriminator 4
 551 00a2 488B00   		movq	(%rax), %rax
 552 00a5 488D4DC0 		leaq	-64(%rbp), %rcx
 553 00a9 488D559C 		leaq	-100(%rbp), %rdx
 554 00ad 488D7598 		leaq	-104(%rbp), %rsi
 555 00b1 4889C7   		movq	%rax, %rdi
 556 00b4 E8000000 		call	_ZN8UnitTest10CheckEqualIiiEEvRNS_11TestResultsERKT_RKT0_RKNS_11TestDetailsE
 556      00
 557              	.LEHE5:
 558              	.LBE10:
  16:TestTestResults.cpp **** }
 559              		.loc 5 16 0 is_stmt 1
 560 00b9 EB58     		jmp	.L23
 561              	.L22:
 562 00bb 4889C3   		movq	%rax, %rbx
 563              	.LBB11:
  15:TestTestResults.cpp ****     CHECK_EQUAL (0, results.GetTotalTestCount());
 564              		.loc 5 15 0
 565 00be E8000000 		call	__cxa_end_catch
 565      00
 566 00c3 4889D8   		movq	%rbx, %rax
 567 00c6 4889C7   		movq	%rax, %rdi
 568              	.LEHB6:
 569 00c9 E8000000 		call	_Unwind_Resume
 569      00
 570              	.LEHE6:
 571              	.L21:
 572 00ce 4889C7   		movq	%rax, %rdi
 573 00d1 E8000000 		call	__cxa_begin_catch
 573      00
 574              	.LEHB7:
 575 00d6 E8000000 		call	_ZN8UnitTest11CurrentTest7DetailsEv
 575      00
 576 00db 488B08   		movq	(%rax), %rcx
 577 00de 488D45C0 		leaq	-64(%rbp), %rax
 578 00e2 BA0F0000 		movl	$15, %edx
 578      00
 579 00e7 4889CE   		movq	%rcx, %rsi
 580 00ea 4889C7   		movq	%rax, %rdi
 581 00ed E8000000 		call	_ZN8UnitTest11TestDetailsC1ERKS0_i
 581      00
  15:TestTestResults.cpp ****     CHECK_EQUAL (0, results.GetTotalTestCount());
 582              		.loc 5 15 0 is_stmt 0 discriminator 12
 583 00f2 E8000000 		call	_ZN8UnitTest11CurrentTest7ResultsEv
 583      00
 584 00f7 488B00   		movq	(%rax), %rax
 585 00fa 488D4DC0 		leaq	-64(%rbp), %rcx
 586 00fe BA000000 		movl	$.LC4, %edx
 586      00
 587 0103 4889CE   		movq	%rcx, %rsi
 588 0106 4889C7   		movq	%rax, %rdi
 589 0109 E8000000 		call	_ZN8UnitTest11TestResults13OnTestFailureERKNS_11TestDetailsEPKc
 589      00
 590              	.LEHE7:
 591              	.LEHB8:
  15:TestTestResults.cpp ****     CHECK_EQUAL (0, results.GetTotalTestCount());
 592              		.loc 5 15 0 discriminator 16
 593 010e E8000000 		call	__cxa_end_catch
 593      00
 594              	.LEHE8:
 595              	.L23:
 596              	.LBE11:
 597              		.loc 5 16 0 is_stmt 1
 598 0113 90       		nop
 599 0114 488B45E8 		movq	-24(%rbp), %rax
 600 0118 64483304 		xorq	%fs:40, %rax
 600      25280000 
 600      00
 601 0121 7405     		je	.L20
 602 0123 E8000000 		call	__stack_chk_fail
 602      00
 603              	.L20:
 604 0128 4883C478 		addq	$120, %rsp
 605 012c 5B       		popq	%rbx
 606 012d 5D       		popq	%rbp
 607              		.cfi_def_cfa 7, 8
 608 012e C3       		ret
 609              		.cfi_endproc
 610              	.LFE1078:
 611              		.section	.gcc_except_table,"a",@progbits
 612              		.align 4
 613              	.LLSDA1078:
 614 0000 FF       		.byte	0xff
 615 0001 03       		.byte	0x3
 616 0002 21       		.uleb128 .LLSDATT1078-.LLSDATTD1078
 617              	.LLSDATTD1078:
 618 0003 01       		.byte	0x1
 619 0004 18       		.uleb128 .LLSDACSE1078-.LLSDACSB1078
 620              	.LLSDACSB1078:
 621 0005 28       		.uleb128 .LEHB4-.LFB1078
 622 0006 05       		.uleb128 .LEHE4-.LEHB4
 623 0007 00       		.uleb128 0
 624 0008 00       		.uleb128 0
 625 0009 2D       		.uleb128 .LEHB5-.LFB1078
 626 000a 4E       		.uleb128 .LEHE5-.LEHB5
 627 000b 9001     		.uleb128 .L21-.LFB1078
 628 000d 01       		.uleb128 0x1
 629 000e 8B01     		.uleb128 .LEHB6-.LFB1078
 630 0010 05       		.uleb128 .LEHE6-.LEHB6
 631 0011 00       		.uleb128 0
 632 0012 00       		.uleb128 0
 633 0013 9801     		.uleb128 .LEHB7-.LFB1078
 634 0015 38       		.uleb128 .LEHE7-.LEHB7
 635 0016 7D       		.uleb128 .L22-.LFB1078
 636 0017 00       		.uleb128 0
 637 0018 D001     		.uleb128 .LEHB8-.LFB1078
 638 001a 05       		.uleb128 .LEHE8-.LEHB8
 639 001b 00       		.uleb128 0
 640 001c 00       		.uleb128 0
 641              	.LLSDACSE1078:
 642 001d 01       		.byte	0x1
 643 001e 00       		.byte	0
 644 001f 00       		.align 4
 645 0020 00000000 		.long	0
 646              	
 647              	.LLSDATT1078:
 648              		.text
 650              		.section	.rodata
 651              	.LC5:
 652 007b 5265636F 		.string	"RecordsNumbersOfTests"
 652      7264734E 
 652      756D6265 
 652      72734F66 
 652      54657374 
 653              		.text
 654 012f 90       		.align 2
 656              	_ZN12_GLOBAL__N_125TestRecordsNumbersOfTestsC2Ev:
 657              	.LFB1080:
  17:TestTestResults.cpp **** 
  18:TestTestResults.cpp **** TEST(RecordsNumbersOfTests)
 658              		.loc 5 18 0
 659              		.cfi_startproc
 660 0130 55       		pushq	%rbp
 661              		.cfi_def_cfa_offset 16
 662              		.cfi_offset 6, -16
 663 0131 4889E5   		movq	%rsp, %rbp
 664              		.cfi_def_cfa_register 6
 665 0134 4883EC10 		subq	$16, %rsp
 666 0138 48897DF8 		movq	%rdi, -8(%rbp)
 667              	.LBB12:
 668              		.loc 5 18 0
 669 013c E8000000 		call	_ZN13UnitTestSuite12GetSuiteNameEv
 669      00
 670 0141 4889C2   		movq	%rax, %rdx
 671 0144 488B45F8 		movq	-8(%rbp), %rax
 672 0148 41B81200 		movl	$18, %r8d
 672      0000
 673 014e B9000000 		movl	$.LC2, %ecx
 673      00
 674 0153 BE000000 		movl	$.LC5, %esi
 674      00
 675 0158 4889C7   		movq	%rax, %rdi
 676 015b E8000000 		call	_ZN8UnitTest4TestC2EPKcS2_S2_i
 676      00
 677 0160 488B45F8 		movq	-8(%rbp), %rax
 678 0164 48C70000 		movq	$_ZTVN12_GLOBAL__N_125TestRecordsNumbersOfTestsE+16, (%rax)
 678      000000
 679              	.LBE12:
 680 016b C9       		leave
 681              		.cfi_def_cfa 7, 8
 682 016c C3       		ret
 683              		.cfi_endproc
 684              	.LFE1080:
 686              		.local	_ZN12_GLOBAL__N_133testRecordsNumbersOfTestsInstanceE
 687              		.comm	_ZN12_GLOBAL__N_133testRecordsNumbersOfTestsInstanceE,56,32
 688              		.local	_ZN12_GLOBAL__N_126adderRecordsNumbersOfTestsE
 689              		.comm	_ZN12_GLOBAL__N_126adderRecordsNumbersOfTestsE,1,1
 690              		.section	.rodata
 691 0091 00000000 		.align 8
 691      000000
 692              	.LC6:
 693 0098 556E6861 		.string	"Unhandled exception in CHECK_EQUAL(3, results.GetTotalTestCount())"
 693      6E646C65 
 693      64206578 
 693      63657074 
 693      696F6E20 
 694              		.text
 695 016d 90       		.align 2
 697              	_ZNK12_GLOBAL__N_125TestRecordsNumbersOfTests7RunImplEv:
 698              	.LFB1082:
  19:TestTestResults.cpp **** {
 699              		.loc 5 19 0
 700              		.cfi_startproc
 701              		.cfi_personality 0x3,__gxx_personality_v0
 702              		.cfi_lsda 0x3,.LLSDA1082
 703 016e 55       		pushq	%rbp
 704              		.cfi_def_cfa_offset 16
 705              		.cfi_offset 6, -16
 706 016f 4889E5   		movq	%rsp, %rbp
 707              		.cfi_def_cfa_register 6
 708 0172 53       		pushq	%rbx
 709 0173 4883EC78 		subq	$120, %rsp
 710              		.cfi_offset 3, -24
 711 0177 48897D88 		movq	%rdi, -120(%rbp)
 712              		.loc 5 19 0
 713 017b 64488B04 		movq	%fs:40, %rax
 713      25280000 
 713      00
 714 0184 488945E8 		movq	%rax, -24(%rbp)
 715 0188 31C0     		xorl	%eax, %eax
 716              	.LBB13:
  20:TestTestResults.cpp ****     TestResults results;
 717              		.loc 5 20 0
 718 018a 488D45A0 		leaq	-96(%rbp), %rax
 719 018e BE000000 		movl	$0, %esi
 719      00
 720 0193 4889C7   		movq	%rax, %rdi
 721              	.LEHB9:
 722 0196 E8000000 		call	_ZN8UnitTest11TestResultsC1EPNS_12TestReporterE
 722      00
  21:TestTestResults.cpp ****     results.OnTestStart(details);
 723              		.loc 5 21 0
 724 019b 488D45A0 		leaq	-96(%rbp), %rax
 725 019f BE000000 		movl	$_ZN12_GLOBAL__N_1L7detailsE, %esi
 725      00
 726 01a4 4889C7   		movq	%rax, %rdi
 727 01a7 E8000000 		call	_ZN8UnitTest11TestResults11OnTestStartERKNS_11TestDetailsE
 727      00
  22:TestTestResults.cpp ****     results.OnTestStart(details);
 728              		.loc 5 22 0
 729 01ac 488D45A0 		leaq	-96(%rbp), %rax
 730 01b0 BE000000 		movl	$_ZN12_GLOBAL__N_1L7detailsE, %esi
 730      00
 731 01b5 4889C7   		movq	%rax, %rdi
 732 01b8 E8000000 		call	_ZN8UnitTest11TestResults11OnTestStartERKNS_11TestDetailsE
 732      00
  23:TestTestResults.cpp ****     results.OnTestStart(details);
 733              		.loc 5 23 0
 734 01bd 488D45A0 		leaq	-96(%rbp), %rax
 735 01c1 BE000000 		movl	$_ZN12_GLOBAL__N_1L7detailsE, %esi
 735      00
 736 01c6 4889C7   		movq	%rax, %rdi
 737 01c9 E8000000 		call	_ZN8UnitTest11TestResults11OnTestStartERKNS_11TestDetailsE
 737      00
 738              	.LEHE9:
 739              	.LEHB10:
  24:TestTestResults.cpp ****     CHECK_EQUAL(3, results.GetTotalTestCount());
 740              		.loc 5 24 0
 741 01ce E8000000 		call	_ZN8UnitTest11CurrentTest7DetailsEv
 741      00
 742 01d3 488B08   		movq	(%rax), %rcx
 743 01d6 488D45C0 		leaq	-64(%rbp), %rax
 744 01da BA180000 		movl	$24, %edx
 744      00
 745 01df 4889CE   		movq	%rcx, %rsi
 746 01e2 4889C7   		movq	%rax, %rdi
 747 01e5 E8000000 		call	_ZN8UnitTest11TestDetailsC1ERKS0_i
 747      00
 748              		.loc 5 24 0 is_stmt 0 discriminator 2
 749 01ea 488D45A0 		leaq	-96(%rbp), %rax
 750 01ee 4889C7   		movq	%rax, %rdi
 751 01f1 E8000000 		call	_ZNK8UnitTest11TestResults17GetTotalTestCountEv
 751      00
 752 01f6 89459C   		movl	%eax, -100(%rbp)
 753 01f9 C7459803 		movl	$3, -104(%rbp)
 753      000000
 754 0200 E8000000 		call	_ZN8UnitTest11CurrentTest7ResultsEv
 754      00
 755              		.loc 5 24 0 discriminator 4
 756 0205 488B00   		movq	(%rax), %rax
 757 0208 488D4DC0 		leaq	-64(%rbp), %rcx
 758 020c 488D559C 		leaq	-100(%rbp), %rdx
 759 0210 488D7598 		leaq	-104(%rbp), %rsi
 760 0214 4889C7   		movq	%rax, %rdi
 761 0217 E8000000 		call	_ZN8UnitTest10CheckEqualIiiEEvRNS_11TestResultsERKT_RKT0_RKNS_11TestDetailsE
 761      00
 762              	.LEHE10:
 763              	.LBE13:
  25:TestTestResults.cpp **** }
 764              		.loc 5 25 0 is_stmt 1
 765 021c EB58     		jmp	.L32
 766              	.L31:
 767 021e 4889C3   		movq	%rax, %rbx
 768              	.LBB14:
  24:TestTestResults.cpp ****     CHECK_EQUAL(3, results.GetTotalTestCount());
 769              		.loc 5 24 0
 770 0221 E8000000 		call	__cxa_end_catch
 770      00
 771 0226 4889D8   		movq	%rbx, %rax
 772 0229 4889C7   		movq	%rax, %rdi
 773              	.LEHB11:
 774 022c E8000000 		call	_Unwind_Resume
 774      00
 775              	.LEHE11:
 776              	.L30:
 777 0231 4889C7   		movq	%rax, %rdi
 778 0234 E8000000 		call	__cxa_begin_catch
 778      00
 779              	.LEHB12:
 780 0239 E8000000 		call	_ZN8UnitTest11CurrentTest7DetailsEv
 780      00
 781 023e 488B08   		movq	(%rax), %rcx
 782 0241 488D45C0 		leaq	-64(%rbp), %rax
 783 0245 BA180000 		movl	$24, %edx
 783      00
 784 024a 4889CE   		movq	%rcx, %rsi
 785 024d 4889C7   		movq	%rax, %rdi
 786 0250 E8000000 		call	_ZN8UnitTest11TestDetailsC1ERKS0_i
 786      00
  24:TestTestResults.cpp ****     CHECK_EQUAL(3, results.GetTotalTestCount());
 787              		.loc 5 24 0 is_stmt 0 discriminator 12
 788 0255 E8000000 		call	_ZN8UnitTest11CurrentTest7ResultsEv
 788      00
 789 025a 488B00   		movq	(%rax), %rax
 790 025d 488D4DC0 		leaq	-64(%rbp), %rcx
 791 0261 BA000000 		movl	$.LC6, %edx
 791      00
 792 0266 4889CE   		movq	%rcx, %rsi
 793 0269 4889C7   		movq	%rax, %rdi
 794 026c E8000000 		call	_ZN8UnitTest11TestResults13OnTestFailureERKNS_11TestDetailsEPKc
 794      00
 795              	.LEHE12:
 796              	.LEHB13:
  24:TestTestResults.cpp ****     CHECK_EQUAL(3, results.GetTotalTestCount());
 797              		.loc 5 24 0 discriminator 16
 798 0271 E8000000 		call	__cxa_end_catch
 798      00
 799              	.LEHE13:
 800              	.L32:
 801              	.LBE14:
 802              		.loc 5 25 0 is_stmt 1
 803 0276 90       		nop
 804 0277 488B45E8 		movq	-24(%rbp), %rax
 805 027b 64483304 		xorq	%fs:40, %rax
 805      25280000 
 805      00
 806 0284 7405     		je	.L29
 807 0286 E8000000 		call	__stack_chk_fail
 807      00
 808              	.L29:
 809 028b 4883C478 		addq	$120, %rsp
 810 028f 5B       		popq	%rbx
 811 0290 5D       		popq	%rbp
 812              		.cfi_def_cfa 7, 8
 813 0291 C3       		ret
 814              		.cfi_endproc
 815              	.LFE1082:
 816              		.section	.gcc_except_table
 817              		.align 4
 818              	.LLSDA1082:
 819 0024 FF       		.byte	0xff
 820 0025 03       		.byte	0x3
 821 0026 21       		.uleb128 .LLSDATT1082-.LLSDATTD1082
 822              	.LLSDATTD1082:
 823 0027 01       		.byte	0x1
 824 0028 19       		.uleb128 .LLSDACSE1082-.LLSDACSB1082
 825              	.LLSDACSB1082:
 826 0029 28       		.uleb128 .LEHB9-.LFB1082
 827 002a 38       		.uleb128 .LEHE9-.LEHB9
 828 002b 00       		.uleb128 0
 829 002c 00       		.uleb128 0
 830 002d 60       		.uleb128 .LEHB10-.LFB1082
 831 002e 4E       		.uleb128 .LEHE10-.LEHB10
 832 002f C301     		.uleb128 .L30-.LFB1082
 833 0031 01       		.uleb128 0x1
 834 0032 BE01     		.uleb128 .LEHB11-.LFB1082
 835 0034 05       		.uleb128 .LEHE11-.LEHB11
 836 0035 00       		.uleb128 0
 837 0036 00       		.uleb128 0
 838 0037 CB01     		.uleb128 .LEHB12-.LFB1082
 839 0039 38       		.uleb128 .LEHE12-.LEHB12
 840 003a B001     		.uleb128 .L31-.LFB1082
 841 003c 00       		.uleb128 0
 842 003d 8302     		.uleb128 .LEHB13-.LFB1082
 843 003f 05       		.uleb128 .LEHE13-.LEHB13
 844 0040 00       		.uleb128 0
 845 0041 00       		.uleb128 0
 846              	.LLSDACSE1082:
 847 0042 01       		.byte	0x1
 848 0043 00       		.byte	0
 849              		.align 4
 850 0044 00000000 		.long	0
 851              	
 852              	.LLSDATT1082:
 853              		.text
 855              		.section	.rodata
 856              	.LC7:
 857 00db 53746172 		.string	"StartsWithNoTestsFailing"
 857      74735769 
 857      74684E6F 
 857      54657374 
 857      73466169 
 858              		.text
 859              		.align 2
 861              	_ZN12_GLOBAL__N_128TestStartsWithNoTestsFailingC2Ev:
 862              	.LFB1084:
  26:TestTestResults.cpp **** 
  27:TestTestResults.cpp **** TEST(StartsWithNoTestsFailing)
 863              		.loc 5 27 0
 864              		.cfi_startproc
 865 0292 55       		pushq	%rbp
 866              		.cfi_def_cfa_offset 16
 867              		.cfi_offset 6, -16
 868 0293 4889E5   		movq	%rsp, %rbp
 869              		.cfi_def_cfa_register 6
 870 0296 4883EC10 		subq	$16, %rsp
 871 029a 48897DF8 		movq	%rdi, -8(%rbp)
 872              	.LBB15:
 873              		.loc 5 27 0
 874 029e E8000000 		call	_ZN13UnitTestSuite12GetSuiteNameEv
 874      00
 875 02a3 4889C2   		movq	%rax, %rdx
 876 02a6 488B45F8 		movq	-8(%rbp), %rax
 877 02aa 41B81B00 		movl	$27, %r8d
 877      0000
 878 02b0 B9000000 		movl	$.LC2, %ecx
 878      00
 879 02b5 BE000000 		movl	$.LC7, %esi
 879      00
 880 02ba 4889C7   		movq	%rax, %rdi
 881 02bd E8000000 		call	_ZN8UnitTest4TestC2EPKcS2_S2_i
 881      00
 882 02c2 488B45F8 		movq	-8(%rbp), %rax
 883 02c6 48C70000 		movq	$_ZTVN12_GLOBAL__N_128TestStartsWithNoTestsFailingE+16, (%rax)
 883      000000
 884              	.LBE15:
 885 02cd C9       		leave
 886              		.cfi_def_cfa 7, 8
 887 02ce C3       		ret
 888              		.cfi_endproc
 889              	.LFE1084:
 891              		.local	_ZN12_GLOBAL__N_136testStartsWithNoTestsFailingInstanceE
 892              		.comm	_ZN12_GLOBAL__N_136testStartsWithNoTestsFailingInstanceE,56,32
 893              		.local	_ZN12_GLOBAL__N_129adderStartsWithNoTestsFailingE
 894              		.comm	_ZN12_GLOBAL__N_129adderStartsWithNoTestsFailingE,1,1
 895              		.section	.rodata
 896 00f4 00000000 		.align 8
 897              	.LC8:
 898 00f8 556E6861 		.string	"Unhandled exception in CHECK_EQUAL(0, results.GetFailureCount())"
 898      6E646C65 
 898      64206578 
 898      63657074 
 898      696F6E20 
 899              		.text
 900 02cf 90       		.align 2
 902              	_ZNK12_GLOBAL__N_128TestStartsWithNoTestsFailing7RunImplEv:
 903              	.LFB1086:
  28:TestTestResults.cpp **** {
 904              		.loc 5 28 0
 905              		.cfi_startproc
 906              		.cfi_personality 0x3,__gxx_personality_v0
 907              		.cfi_lsda 0x3,.LLSDA1086
 908 02d0 55       		pushq	%rbp
 909              		.cfi_def_cfa_offset 16
 910              		.cfi_offset 6, -16
 911 02d1 4889E5   		movq	%rsp, %rbp
 912              		.cfi_def_cfa_register 6
 913 02d4 53       		pushq	%rbx
 914 02d5 4883EC78 		subq	$120, %rsp
 915              		.cfi_offset 3, -24
 916 02d9 48897D88 		movq	%rdi, -120(%rbp)
 917              		.loc 5 28 0
 918 02dd 64488B04 		movq	%fs:40, %rax
 918      25280000 
 918      00
 919 02e6 488945E8 		movq	%rax, -24(%rbp)
 920 02ea 31C0     		xorl	%eax, %eax
 921              	.LBB16:
  29:TestTestResults.cpp ****     TestResults results;
 922              		.loc 5 29 0
 923 02ec 488D45A0 		leaq	-96(%rbp), %rax
 924 02f0 BE000000 		movl	$0, %esi
 924      00
 925 02f5 4889C7   		movq	%rax, %rdi
 926              	.LEHB14:
 927 02f8 E8000000 		call	_ZN8UnitTest11TestResultsC1EPNS_12TestReporterE
 927      00
 928              	.LEHE14:
 929              	.LEHB15:
  30:TestTestResults.cpp ****     CHECK_EQUAL (0, results.GetFailureCount());
 930              		.loc 5 30 0
 931 02fd E8000000 		call	_ZN8UnitTest11CurrentTest7DetailsEv
 931      00
 932 0302 488B08   		movq	(%rax), %rcx
 933 0305 488D45C0 		leaq	-64(%rbp), %rax
 934 0309 BA1E0000 		movl	$30, %edx
 934      00
 935 030e 4889CE   		movq	%rcx, %rsi
 936 0311 4889C7   		movq	%rax, %rdi
 937 0314 E8000000 		call	_ZN8UnitTest11TestDetailsC1ERKS0_i
 937      00
 938              		.loc 5 30 0 is_stmt 0 discriminator 2
 939 0319 488D45A0 		leaq	-96(%rbp), %rax
 940 031d 4889C7   		movq	%rax, %rdi
 941 0320 E8000000 		call	_ZNK8UnitTest11TestResults15GetFailureCountEv
 941      00
 942 0325 89459C   		movl	%eax, -100(%rbp)
 943 0328 C7459800 		movl	$0, -104(%rbp)
 943      000000
 944 032f E8000000 		call	_ZN8UnitTest11CurrentTest7ResultsEv
 944      00
 945              		.loc 5 30 0 discriminator 4
 946 0334 488B00   		movq	(%rax), %rax
 947 0337 488D4DC0 		leaq	-64(%rbp), %rcx
 948 033b 488D559C 		leaq	-100(%rbp), %rdx
 949 033f 488D7598 		leaq	-104(%rbp), %rsi
 950 0343 4889C7   		movq	%rax, %rdi
 951 0346 E8000000 		call	_ZN8UnitTest10CheckEqualIiiEEvRNS_11TestResultsERKT_RKT0_RKNS_11TestDetailsE
 951      00
 952              	.LEHE15:
 953              	.LBE16:
  31:TestTestResults.cpp **** }
 954              		.loc 5 31 0 is_stmt 1
 955 034b EB58     		jmp	.L41
 956              	.L40:
 957 034d 4889C3   		movq	%rax, %rbx
 958              	.LBB17:
  30:TestTestResults.cpp ****     CHECK_EQUAL (0, results.GetFailureCount());
 959              		.loc 5 30 0
 960 0350 E8000000 		call	__cxa_end_catch
 960      00
 961 0355 4889D8   		movq	%rbx, %rax
 962 0358 4889C7   		movq	%rax, %rdi
 963              	.LEHB16:
 964 035b E8000000 		call	_Unwind_Resume
 964      00
 965              	.LEHE16:
 966              	.L39:
 967 0360 4889C7   		movq	%rax, %rdi
 968 0363 E8000000 		call	__cxa_begin_catch
 968      00
 969              	.LEHB17:
 970 0368 E8000000 		call	_ZN8UnitTest11CurrentTest7DetailsEv
 970      00
 971 036d 488B08   		movq	(%rax), %rcx
 972 0370 488D45C0 		leaq	-64(%rbp), %rax
 973 0374 BA1E0000 		movl	$30, %edx
 973      00
 974 0379 4889CE   		movq	%rcx, %rsi
 975 037c 4889C7   		movq	%rax, %rdi
 976 037f E8000000 		call	_ZN8UnitTest11TestDetailsC1ERKS0_i
 976      00
  30:TestTestResults.cpp ****     CHECK_EQUAL (0, results.GetFailureCount());
 977              		.loc 5 30 0 is_stmt 0 discriminator 12
 978 0384 E8000000 		call	_ZN8UnitTest11CurrentTest7ResultsEv
 978      00
 979 0389 488B00   		movq	(%rax), %rax
 980 038c 488D4DC0 		leaq	-64(%rbp), %rcx
 981 0390 BA000000 		movl	$.LC8, %edx
 981      00
 982 0395 4889CE   		movq	%rcx, %rsi
 983 0398 4889C7   		movq	%rax, %rdi
 984 039b E8000000 		call	_ZN8UnitTest11TestResults13OnTestFailureERKNS_11TestDetailsEPKc
 984      00
 985              	.LEHE17:
 986              	.LEHB18:
  30:TestTestResults.cpp ****     CHECK_EQUAL (0, results.GetFailureCount());
 987              		.loc 5 30 0 discriminator 16
 988 03a0 E8000000 		call	__cxa_end_catch
 988      00
 989              	.LEHE18:
 990              	.L41:
 991              	.LBE17:
 992              		.loc 5 31 0 is_stmt 1
 993 03a5 90       		nop
 994 03a6 488B45E8 		movq	-24(%rbp), %rax
 995 03aa 64483304 		xorq	%fs:40, %rax
 995      25280000 
 995      00
 996 03b3 7405     		je	.L38
 997 03b5 E8000000 		call	__stack_chk_fail
 997      00
 998              	.L38:
 999 03ba 4883C478 		addq	$120, %rsp
 1000 03be 5B       		popq	%rbx
 1001 03bf 5D       		popq	%rbp
 1002              		.cfi_def_cfa 7, 8
 1003 03c0 C3       		ret
 1004              		.cfi_endproc
 1005              	.LFE1086:
 1006              		.section	.gcc_except_table
 1007              		.align 4
 1008              	.LLSDA1086:
 1009 0048 FF       		.byte	0xff
 1010 0049 03       		.byte	0x3
 1011 004a 21       		.uleb128 .LLSDATT1086-.LLSDATTD1086
 1012              	.LLSDATTD1086:
 1013 004b 01       		.byte	0x1
 1014 004c 18       		.uleb128 .LLSDACSE1086-.LLSDACSB1086
 1015              	.LLSDACSB1086:
 1016 004d 28       		.uleb128 .LEHB14-.LFB1086
 1017 004e 05       		.uleb128 .LEHE14-.LEHB14
 1018 004f 00       		.uleb128 0
 1019 0050 00       		.uleb128 0
 1020 0051 2D       		.uleb128 .LEHB15-.LFB1086
 1021 0052 4E       		.uleb128 .LEHE15-.LEHB15
 1022 0053 9001     		.uleb128 .L39-.LFB1086
 1023 0055 01       		.uleb128 0x1
 1024 0056 8B01     		.uleb128 .LEHB16-.LFB1086
 1025 0058 05       		.uleb128 .LEHE16-.LEHB16
 1026 0059 00       		.uleb128 0
 1027 005a 00       		.uleb128 0
 1028 005b 9801     		.uleb128 .LEHB17-.LFB1086
 1029 005d 38       		.uleb128 .LEHE17-.LEHB17
 1030 005e 7D       		.uleb128 .L40-.LFB1086
 1031 005f 00       		.uleb128 0
 1032 0060 D001     		.uleb128 .LEHB18-.LFB1086
 1033 0062 05       		.uleb128 .LEHE18-.LEHB18
 1034 0063 00       		.uleb128 0
 1035 0064 00       		.uleb128 0
 1036              	.LLSDACSE1086:
 1037 0065 01       		.byte	0x1
 1038 0066 00       		.byte	0
 1039 0067 00       		.align 4
 1040 0068 00000000 		.long	0
 1041              	
 1042              	.LLSDATT1086:
 1043              		.text
 1045              		.section	.rodata
 1046              	.LC9:
 1047 0139 5265636F 		.string	"RecordsNumberOfFailures"
 1047      7264734E 
 1047      756D6265 
 1047      724F6646 
 1047      61696C75 
 1048              		.text
 1049 03c1 90       		.align 2
 1051              	_ZN12_GLOBAL__N_127TestRecordsNumberOfFailuresC2Ev:
 1052              	.LFB1088:
  32:TestTestResults.cpp **** 
  33:TestTestResults.cpp **** TEST(RecordsNumberOfFailures)
 1053              		.loc 5 33 0
 1054              		.cfi_startproc
 1055 03c2 55       		pushq	%rbp
 1056              		.cfi_def_cfa_offset 16
 1057              		.cfi_offset 6, -16
 1058 03c3 4889E5   		movq	%rsp, %rbp
 1059              		.cfi_def_cfa_register 6
 1060 03c6 4883EC10 		subq	$16, %rsp
 1061 03ca 48897DF8 		movq	%rdi, -8(%rbp)
 1062              	.LBB18:
 1063              		.loc 5 33 0
 1064 03ce E8000000 		call	_ZN13UnitTestSuite12GetSuiteNameEv
 1064      00
 1065 03d3 4889C2   		movq	%rax, %rdx
 1066 03d6 488B45F8 		movq	-8(%rbp), %rax
 1067 03da 41B82100 		movl	$33, %r8d
 1067      0000
 1068 03e0 B9000000 		movl	$.LC2, %ecx
 1068      00
 1069 03e5 BE000000 		movl	$.LC9, %esi
 1069      00
 1070 03ea 4889C7   		movq	%rax, %rdi
 1071 03ed E8000000 		call	_ZN8UnitTest4TestC2EPKcS2_S2_i
 1071      00
 1072 03f2 488B45F8 		movq	-8(%rbp), %rax
 1073 03f6 48C70000 		movq	$_ZTVN12_GLOBAL__N_127TestRecordsNumberOfFailuresE+16, (%rax)
 1073      000000
 1074              	.LBE18:
 1075 03fd C9       		leave
 1076              		.cfi_def_cfa 7, 8
 1077 03fe C3       		ret
 1078              		.cfi_endproc
 1079              	.LFE1088:
 1081              		.local	_ZN12_GLOBAL__N_135testRecordsNumberOfFailuresInstanceE
 1082              		.comm	_ZN12_GLOBAL__N_135testRecordsNumberOfFailuresInstanceE,56,32
 1083              		.local	_ZN12_GLOBAL__N_128adderRecordsNumberOfFailuresE
 1084              		.comm	_ZN12_GLOBAL__N_128adderRecordsNumberOfFailuresE,1,1
 1085              		.section	.rodata
 1086              	.LC10:
 1087 0151 00       		.string	""
 1088 0152 00000000 		.align 8
 1088      0000
 1089              	.LC11:
 1090 0158 556E6861 		.string	"Unhandled exception in CHECK_EQUAL(2, results.GetFailureCount())"
 1090      6E646C65 
 1090      64206578 
 1090      63657074 
 1090      696F6E20 
 1091              		.text
 1092 03ff 90       		.align 2
 1094              	_ZNK12_GLOBAL__N_127TestRecordsNumberOfFailures7RunImplEv:
 1095              	.LFB1090:
  34:TestTestResults.cpp **** {
 1096              		.loc 5 34 0
 1097              		.cfi_startproc
 1098              		.cfi_personality 0x3,__gxx_personality_v0
 1099              		.cfi_lsda 0x3,.LLSDA1090
 1100 0400 55       		pushq	%rbp
 1101              		.cfi_def_cfa_offset 16
 1102              		.cfi_offset 6, -16
 1103 0401 4889E5   		movq	%rsp, %rbp
 1104              		.cfi_def_cfa_register 6
 1105 0404 53       		pushq	%rbx
 1106 0405 4883EC78 		subq	$120, %rsp
 1107              		.cfi_offset 3, -24
 1108 0409 48897D88 		movq	%rdi, -120(%rbp)
 1109              		.loc 5 34 0
 1110 040d 64488B04 		movq	%fs:40, %rax
 1110      25280000 
 1110      00
 1111 0416 488945E8 		movq	%rax, -24(%rbp)
 1112 041a 31C0     		xorl	%eax, %eax
 1113              	.LBB19:
  35:TestTestResults.cpp ****     TestResults results;
 1114              		.loc 5 35 0
 1115 041c 488D45A0 		leaq	-96(%rbp), %rax
 1116 0420 BE000000 		movl	$0, %esi
 1116      00
 1117 0425 4889C7   		movq	%rax, %rdi
 1118              	.LEHB19:
 1119 0428 E8000000 		call	_ZN8UnitTest11TestResultsC1EPNS_12TestReporterE
 1119      00
  36:TestTestResults.cpp ****     results.OnTestFailure(details, "");
 1120              		.loc 5 36 0
 1121 042d 488D45A0 		leaq	-96(%rbp), %rax
 1122 0431 BA000000 		movl	$.LC10, %edx
 1122      00
 1123 0436 BE000000 		movl	$_ZN12_GLOBAL__N_1L7detailsE, %esi
 1123      00
 1124 043b 4889C7   		movq	%rax, %rdi
 1125 043e E8000000 		call	_ZN8UnitTest11TestResults13OnTestFailureERKNS_11TestDetailsEPKc
 1125      00
  37:TestTestResults.cpp ****     results.OnTestFailure(details, "");
 1126              		.loc 5 37 0
 1127 0443 488D45A0 		leaq	-96(%rbp), %rax
 1128 0447 BA000000 		movl	$.LC10, %edx
 1128      00
 1129 044c BE000000 		movl	$_ZN12_GLOBAL__N_1L7detailsE, %esi
 1129      00
 1130 0451 4889C7   		movq	%rax, %rdi
 1131 0454 E8000000 		call	_ZN8UnitTest11TestResults13OnTestFailureERKNS_11TestDetailsEPKc
 1131      00
 1132              	.LEHE19:
 1133              	.LEHB20:
  38:TestTestResults.cpp ****     CHECK_EQUAL(2, results.GetFailureCount());
 1134              		.loc 5 38 0
 1135 0459 E8000000 		call	_ZN8UnitTest11CurrentTest7DetailsEv
 1135      00
 1136 045e 488B08   		movq	(%rax), %rcx
 1137 0461 488D45C0 		leaq	-64(%rbp), %rax
 1138 0465 BA260000 		movl	$38, %edx
 1138      00
 1139 046a 4889CE   		movq	%rcx, %rsi
 1140 046d 4889C7   		movq	%rax, %rdi
 1141 0470 E8000000 		call	_ZN8UnitTest11TestDetailsC1ERKS0_i
 1141      00
 1142              		.loc 5 38 0 is_stmt 0 discriminator 2
 1143 0475 488D45A0 		leaq	-96(%rbp), %rax
 1144 0479 4889C7   		movq	%rax, %rdi
 1145 047c E8000000 		call	_ZNK8UnitTest11TestResults15GetFailureCountEv
 1145      00
 1146 0481 89459C   		movl	%eax, -100(%rbp)
 1147 0484 C7459802 		movl	$2, -104(%rbp)
 1147      000000
 1148 048b E8000000 		call	_ZN8UnitTest11CurrentTest7ResultsEv
 1148      00
 1149              		.loc 5 38 0 discriminator 4
 1150 0490 488B00   		movq	(%rax), %rax
 1151 0493 488D4DC0 		leaq	-64(%rbp), %rcx
 1152 0497 488D559C 		leaq	-100(%rbp), %rdx
 1153 049b 488D7598 		leaq	-104(%rbp), %rsi
 1154 049f 4889C7   		movq	%rax, %rdi
 1155 04a2 E8000000 		call	_ZN8UnitTest10CheckEqualIiiEEvRNS_11TestResultsERKT_RKT0_RKNS_11TestDetailsE
 1155      00
 1156              	.LEHE20:
 1157              	.LBE19:
  39:TestTestResults.cpp **** }
 1158              		.loc 5 39 0 is_stmt 1
 1159 04a7 EB58     		jmp	.L50
 1160              	.L49:
 1161 04a9 4889C3   		movq	%rax, %rbx
 1162              	.LBB20:
  38:TestTestResults.cpp ****     CHECK_EQUAL(2, results.GetFailureCount());
 1163              		.loc 5 38 0
 1164 04ac E8000000 		call	__cxa_end_catch
 1164      00
 1165 04b1 4889D8   		movq	%rbx, %rax
 1166 04b4 4889C7   		movq	%rax, %rdi
 1167              	.LEHB21:
 1168 04b7 E8000000 		call	_Unwind_Resume
 1168      00
 1169              	.LEHE21:
 1170              	.L48:
 1171 04bc 4889C7   		movq	%rax, %rdi
 1172 04bf E8000000 		call	__cxa_begin_catch
 1172      00
 1173              	.LEHB22:
 1174 04c4 E8000000 		call	_ZN8UnitTest11CurrentTest7DetailsEv
 1174      00
 1175 04c9 488B08   		movq	(%rax), %rcx
 1176 04cc 488D45C0 		leaq	-64(%rbp), %rax
 1177 04d0 BA260000 		movl	$38, %edx
 1177      00
 1178 04d5 4889CE   		movq	%rcx, %rsi
 1179 04d8 4889C7   		movq	%rax, %rdi
 1180 04db E8000000 		call	_ZN8UnitTest11TestDetailsC1ERKS0_i
 1180      00
  38:TestTestResults.cpp ****     CHECK_EQUAL(2, results.GetFailureCount());
 1181              		.loc 5 38 0 is_stmt 0 discriminator 12
 1182 04e0 E8000000 		call	_ZN8UnitTest11CurrentTest7ResultsEv
 1182      00
 1183 04e5 488B00   		movq	(%rax), %rax
 1184 04e8 488D4DC0 		leaq	-64(%rbp), %rcx
 1185 04ec BA000000 		movl	$.LC11, %edx
 1185      00
 1186 04f1 4889CE   		movq	%rcx, %rsi
 1187 04f4 4889C7   		movq	%rax, %rdi
 1188 04f7 E8000000 		call	_ZN8UnitTest11TestResults13OnTestFailureERKNS_11TestDetailsEPKc
 1188      00
 1189              	.LEHE22:
 1190              	.LEHB23:
  38:TestTestResults.cpp ****     CHECK_EQUAL(2, results.GetFailureCount());
 1191              		.loc 5 38 0 discriminator 16
 1192 04fc E8000000 		call	__cxa_end_catch
 1192      00
 1193              	.LEHE23:
 1194              	.L50:
 1195              	.LBE20:
 1196              		.loc 5 39 0 is_stmt 1
 1197 0501 90       		nop
 1198 0502 488B45E8 		movq	-24(%rbp), %rax
 1199 0506 64483304 		xorq	%fs:40, %rax
 1199      25280000 
 1199      00
 1200 050f 7405     		je	.L47
 1201 0511 E8000000 		call	__stack_chk_fail
 1201      00
 1202              	.L47:
 1203 0516 4883C478 		addq	$120, %rsp
 1204 051a 5B       		popq	%rbx
 1205 051b 5D       		popq	%rbp
 1206              		.cfi_def_cfa 7, 8
 1207 051c C3       		ret
 1208              		.cfi_endproc
 1209              	.LFE1090:
 1210              		.section	.gcc_except_table
 1211              		.align 4
 1212              	.LLSDA1090:
 1213 006c FF       		.byte	0xff
 1214 006d 03       		.byte	0x3
 1215 006e 21       		.uleb128 .LLSDATT1090-.LLSDATTD1090
 1216              	.LLSDATTD1090:
 1217 006f 01       		.byte	0x1
 1218 0070 19       		.uleb128 .LLSDACSE1090-.LLSDACSB1090
 1219              	.LLSDACSB1090:
 1220 0071 28       		.uleb128 .LEHB19-.LFB1090
 1221 0072 31       		.uleb128 .LEHE19-.LEHB19
 1222 0073 00       		.uleb128 0
 1223 0074 00       		.uleb128 0
 1224 0075 59       		.uleb128 .LEHB20-.LFB1090
 1225 0076 4E       		.uleb128 .LEHE20-.LEHB20
 1226 0077 BC01     		.uleb128 .L48-.LFB1090
 1227 0079 01       		.uleb128 0x1
 1228 007a B701     		.uleb128 .LEHB21-.LFB1090
 1229 007c 05       		.uleb128 .LEHE21-.LEHB21
 1230 007d 00       		.uleb128 0
 1231 007e 00       		.uleb128 0
 1232 007f C401     		.uleb128 .LEHB22-.LFB1090
 1233 0081 38       		.uleb128 .LEHE22-.LEHB22
 1234 0082 A901     		.uleb128 .L49-.LFB1090
 1235 0084 00       		.uleb128 0
 1236 0085 FC01     		.uleb128 .LEHB23-.LFB1090
 1237 0087 05       		.uleb128 .LEHE23-.LEHB23
 1238 0088 00       		.uleb128 0
 1239 0089 00       		.uleb128 0
 1240              	.LLSDACSE1090:
 1241 008a 01       		.byte	0x1
 1242 008b 00       		.byte	0
 1243              		.align 4
 1244 008c 00000000 		.long	0
 1245              	
 1246              	.LLSDATT1090:
 1247              		.text
 1249              		.section	.rodata
 1250              	.LC12:
 1251 0199 5265636F 		.string	"RecordsNumberOfFailedTests"
 1251      7264734E 
 1251      756D6265 
 1251      724F6646 
 1251      61696C65 
 1252              		.text
 1253 051d 90       		.align 2
 1255              	_ZN12_GLOBAL__N_130TestRecordsNumberOfFailedTestsC2Ev:
 1256              	.LFB1092:
  40:TestTestResults.cpp **** 
  41:TestTestResults.cpp **** TEST(RecordsNumberOfFailedTests)
 1257              		.loc 5 41 0
 1258              		.cfi_startproc
 1259 051e 55       		pushq	%rbp
 1260              		.cfi_def_cfa_offset 16
 1261              		.cfi_offset 6, -16
 1262 051f 4889E5   		movq	%rsp, %rbp
 1263              		.cfi_def_cfa_register 6
 1264 0522 4883EC10 		subq	$16, %rsp
 1265 0526 48897DF8 		movq	%rdi, -8(%rbp)
 1266              	.LBB21:
 1267              		.loc 5 41 0
 1268 052a E8000000 		call	_ZN13UnitTestSuite12GetSuiteNameEv
 1268      00
 1269 052f 4889C2   		movq	%rax, %rdx
 1270 0532 488B45F8 		movq	-8(%rbp), %rax
 1271 0536 41B82900 		movl	$41, %r8d
 1271      0000
 1272 053c B9000000 		movl	$.LC2, %ecx
 1272      00
 1273 0541 BE000000 		movl	$.LC12, %esi
 1273      00
 1274 0546 4889C7   		movq	%rax, %rdi
 1275 0549 E8000000 		call	_ZN8UnitTest4TestC2EPKcS2_S2_i
 1275      00
 1276 054e 488B45F8 		movq	-8(%rbp), %rax
 1277 0552 48C70000 		movq	$_ZTVN12_GLOBAL__N_130TestRecordsNumberOfFailedTestsE+16, (%rax)
 1277      000000
 1278              	.LBE21:
 1279 0559 C9       		leave
 1280              		.cfi_def_cfa 7, 8
 1281 055a C3       		ret
 1282              		.cfi_endproc
 1283              	.LFE1092:
 1285              		.local	_ZN12_GLOBAL__N_138testRecordsNumberOfFailedTestsInstanceE
 1286              		.comm	_ZN12_GLOBAL__N_138testRecordsNumberOfFailedTestsInstanceE,56,32
 1287              		.local	_ZN12_GLOBAL__N_131adderRecordsNumberOfFailedTestsE
 1288              		.comm	_ZN12_GLOBAL__N_131adderRecordsNumberOfFailedTestsE,1,1
 1289              		.section	.rodata
 1290 01b4 00000000 		.align 8
 1291              	.LC13:
 1292 01b8 556E6861 		.string	"Unhandled exception in CHECK_EQUAL(2, results.GetFailedTestCount())"
 1292      6E646C65 
 1292      64206578 
 1292      63657074 
 1292      696F6E20 
 1293              		.text
 1294 055b 90       		.align 2
 1296              	_ZNK12_GLOBAL__N_130TestRecordsNumberOfFailedTests7RunImplEv:
 1297              	.LFB1094:
  42:TestTestResults.cpp **** {
 1298              		.loc 5 42 0
 1299              		.cfi_startproc
 1300              		.cfi_personality 0x3,__gxx_personality_v0
 1301              		.cfi_lsda 0x3,.LLSDA1094
 1302 055c 55       		pushq	%rbp
 1303              		.cfi_def_cfa_offset 16
 1304              		.cfi_offset 6, -16
 1305 055d 4889E5   		movq	%rsp, %rbp
 1306              		.cfi_def_cfa_register 6
 1307 0560 53       		pushq	%rbx
 1308 0561 4883EC78 		subq	$120, %rsp
 1309              		.cfi_offset 3, -24
 1310 0565 48897D88 		movq	%rdi, -120(%rbp)
 1311              		.loc 5 42 0
 1312 0569 64488B04 		movq	%fs:40, %rax
 1312      25280000 
 1312      00
 1313 0572 488945E8 		movq	%rax, -24(%rbp)
 1314 0576 31C0     		xorl	%eax, %eax
 1315              	.LBB22:
  43:TestTestResults.cpp ****     TestResults results;
 1316              		.loc 5 43 0
 1317 0578 488D45A0 		leaq	-96(%rbp), %rax
 1318 057c BE000000 		movl	$0, %esi
 1318      00
 1319 0581 4889C7   		movq	%rax, %rdi
 1320              	.LEHB24:
 1321 0584 E8000000 		call	_ZN8UnitTest11TestResultsC1EPNS_12TestReporterE
 1321      00
  44:TestTestResults.cpp **** 
  45:TestTestResults.cpp ****     results.OnTestStart(details);
 1322              		.loc 5 45 0
 1323 0589 488D45A0 		leaq	-96(%rbp), %rax
 1324 058d BE000000 		movl	$_ZN12_GLOBAL__N_1L7detailsE, %esi
 1324      00
 1325 0592 4889C7   		movq	%rax, %rdi
 1326 0595 E8000000 		call	_ZN8UnitTest11TestResults11OnTestStartERKNS_11TestDetailsE
 1326      00
  46:TestTestResults.cpp ****     results.OnTestFailure(details, "");
 1327              		.loc 5 46 0
 1328 059a 488D45A0 		leaq	-96(%rbp), %rax
 1329 059e BA000000 		movl	$.LC10, %edx
 1329      00
 1330 05a3 BE000000 		movl	$_ZN12_GLOBAL__N_1L7detailsE, %esi
 1330      00
 1331 05a8 4889C7   		movq	%rax, %rdi
 1332 05ab E8000000 		call	_ZN8UnitTest11TestResults13OnTestFailureERKNS_11TestDetailsEPKc
 1332      00
  47:TestTestResults.cpp ****     results.OnTestFinish(details, 0);
 1333              		.loc 5 47 0
 1334 05b0 488D45A0 		leaq	-96(%rbp), %rax
 1335 05b4 660FEFC0 		pxor	%xmm0, %xmm0
 1336 05b8 BE000000 		movl	$_ZN12_GLOBAL__N_1L7detailsE, %esi
 1336      00
 1337 05bd 4889C7   		movq	%rax, %rdi
 1338 05c0 E8000000 		call	_ZN8UnitTest11TestResults12OnTestFinishERKNS_11TestDetailsEf
 1338      00
  48:TestTestResults.cpp **** 
  49:TestTestResults.cpp ****     results.OnTestStart(details);
 1339              		.loc 5 49 0
 1340 05c5 488D45A0 		leaq	-96(%rbp), %rax
 1341 05c9 BE000000 		movl	$_ZN12_GLOBAL__N_1L7detailsE, %esi
 1341      00
 1342 05ce 4889C7   		movq	%rax, %rdi
 1343 05d1 E8000000 		call	_ZN8UnitTest11TestResults11OnTestStartERKNS_11TestDetailsE
 1343      00
  50:TestTestResults.cpp ****     results.OnTestFailure(details, "");
 1344              		.loc 5 50 0
 1345 05d6 488D45A0 		leaq	-96(%rbp), %rax
 1346 05da BA000000 		movl	$.LC10, %edx
 1346      00
 1347 05df BE000000 		movl	$_ZN12_GLOBAL__N_1L7detailsE, %esi
 1347      00
 1348 05e4 4889C7   		movq	%rax, %rdi
 1349 05e7 E8000000 		call	_ZN8UnitTest11TestResults13OnTestFailureERKNS_11TestDetailsEPKc
 1349      00
  51:TestTestResults.cpp ****     results.OnTestFailure(details, "");
 1350              		.loc 5 51 0
 1351 05ec 488D45A0 		leaq	-96(%rbp), %rax
 1352 05f0 BA000000 		movl	$.LC10, %edx
 1352      00
 1353 05f5 BE000000 		movl	$_ZN12_GLOBAL__N_1L7detailsE, %esi
 1353      00
 1354 05fa 4889C7   		movq	%rax, %rdi
 1355 05fd E8000000 		call	_ZN8UnitTest11TestResults13OnTestFailureERKNS_11TestDetailsEPKc
 1355      00
  52:TestTestResults.cpp ****     results.OnTestFailure(details, "");
 1356              		.loc 5 52 0
 1357 0602 488D45A0 		leaq	-96(%rbp), %rax
 1358 0606 BA000000 		movl	$.LC10, %edx
 1358      00
 1359 060b BE000000 		movl	$_ZN12_GLOBAL__N_1L7detailsE, %esi
 1359      00
 1360 0610 4889C7   		movq	%rax, %rdi
 1361 0613 E8000000 		call	_ZN8UnitTest11TestResults13OnTestFailureERKNS_11TestDetailsEPKc
 1361      00
  53:TestTestResults.cpp ****     results.OnTestFinish(details, 0);
 1362              		.loc 5 53 0
 1363 0618 488D45A0 		leaq	-96(%rbp), %rax
 1364 061c 660FEFC0 		pxor	%xmm0, %xmm0
 1365 0620 BE000000 		movl	$_ZN12_GLOBAL__N_1L7detailsE, %esi
 1365      00
 1366 0625 4889C7   		movq	%rax, %rdi
 1367 0628 E8000000 		call	_ZN8UnitTest11TestResults12OnTestFinishERKNS_11TestDetailsEf
 1367      00
 1368              	.LEHE24:
 1369              	.LEHB25:
  54:TestTestResults.cpp **** 
  55:TestTestResults.cpp ****     CHECK_EQUAL (2, results.GetFailedTestCount());
 1370              		.loc 5 55 0
 1371 062d E8000000 		call	_ZN8UnitTest11CurrentTest7DetailsEv
 1371      00
 1372 0632 488B08   		movq	(%rax), %rcx
 1373 0635 488D45C0 		leaq	-64(%rbp), %rax
 1374 0639 BA370000 		movl	$55, %edx
 1374      00
 1375 063e 4889CE   		movq	%rcx, %rsi
 1376 0641 4889C7   		movq	%rax, %rdi
 1377 0644 E8000000 		call	_ZN8UnitTest11TestDetailsC1ERKS0_i
 1377      00
 1378              		.loc 5 55 0 is_stmt 0 discriminator 2
 1379 0649 488D45A0 		leaq	-96(%rbp), %rax
 1380 064d 4889C7   		movq	%rax, %rdi
 1381 0650 E8000000 		call	_ZNK8UnitTest11TestResults18GetFailedTestCountEv
 1381      00
 1382 0655 89459C   		movl	%eax, -100(%rbp)
 1383 0658 C7459802 		movl	$2, -104(%rbp)
 1383      000000
 1384 065f E8000000 		call	_ZN8UnitTest11CurrentTest7ResultsEv
 1384      00
 1385              		.loc 5 55 0 discriminator 4
 1386 0664 488B00   		movq	(%rax), %rax
 1387 0667 488D4DC0 		leaq	-64(%rbp), %rcx
 1388 066b 488D559C 		leaq	-100(%rbp), %rdx
 1389 066f 488D7598 		leaq	-104(%rbp), %rsi
 1390 0673 4889C7   		movq	%rax, %rdi
 1391 0676 E8000000 		call	_ZN8UnitTest10CheckEqualIiiEEvRNS_11TestResultsERKT_RKT0_RKNS_11TestDetailsE
 1391      00
 1392              	.LEHE25:
 1393              	.LBE22:
  56:TestTestResults.cpp **** }
 1394              		.loc 5 56 0 is_stmt 1
 1395 067b EB58     		jmp	.L59
 1396              	.L58:
 1397 067d 4889C3   		movq	%rax, %rbx
 1398              	.LBB23:
  55:TestTestResults.cpp **** }
 1399              		.loc 5 55 0
 1400 0680 E8000000 		call	__cxa_end_catch
 1400      00
 1401 0685 4889D8   		movq	%rbx, %rax
 1402 0688 4889C7   		movq	%rax, %rdi
 1403              	.LEHB26:
 1404 068b E8000000 		call	_Unwind_Resume
 1404      00
 1405              	.LEHE26:
 1406              	.L57:
 1407 0690 4889C7   		movq	%rax, %rdi
 1408 0693 E8000000 		call	__cxa_begin_catch
 1408      00
 1409              	.LEHB27:
 1410 0698 E8000000 		call	_ZN8UnitTest11CurrentTest7DetailsEv
 1410      00
 1411 069d 488B08   		movq	(%rax), %rcx
 1412 06a0 488D45C0 		leaq	-64(%rbp), %rax
 1413 06a4 BA370000 		movl	$55, %edx
 1413      00
 1414 06a9 4889CE   		movq	%rcx, %rsi
 1415 06ac 4889C7   		movq	%rax, %rdi
 1416 06af E8000000 		call	_ZN8UnitTest11TestDetailsC1ERKS0_i
 1416      00
  55:TestTestResults.cpp **** }
 1417              		.loc 5 55 0 is_stmt 0 discriminator 12
 1418 06b4 E8000000 		call	_ZN8UnitTest11CurrentTest7ResultsEv
 1418      00
 1419 06b9 488B00   		movq	(%rax), %rax
 1420 06bc 488D4DC0 		leaq	-64(%rbp), %rcx
 1421 06c0 BA000000 		movl	$.LC13, %edx
 1421      00
 1422 06c5 4889CE   		movq	%rcx, %rsi
 1423 06c8 4889C7   		movq	%rax, %rdi
 1424 06cb E8000000 		call	_ZN8UnitTest11TestResults13OnTestFailureERKNS_11TestDetailsEPKc
 1424      00
 1425              	.LEHE27:
 1426              	.LEHB28:
  55:TestTestResults.cpp **** }
 1427              		.loc 5 55 0 discriminator 16
 1428 06d0 E8000000 		call	__cxa_end_catch
 1428      00
 1429              	.LEHE28:
 1430              	.L59:
 1431              	.LBE23:
 1432              		.loc 5 56 0 is_stmt 1
 1433 06d5 90       		nop
 1434 06d6 488B45E8 		movq	-24(%rbp), %rax
 1435 06da 64483304 		xorq	%fs:40, %rax
 1435      25280000 
 1435      00
 1436 06e3 7405     		je	.L56
 1437 06e5 E8000000 		call	__stack_chk_fail
 1437      00
 1438              	.L56:
 1439 06ea 4883C478 		addq	$120, %rsp
 1440 06ee 5B       		popq	%rbx
 1441 06ef 5D       		popq	%rbp
 1442              		.cfi_def_cfa 7, 8
 1443 06f0 C3       		ret
 1444              		.cfi_endproc
 1445              	.LFE1094:
 1446              		.section	.gcc_except_table
 1447              		.align 4
 1448              	.LLSDA1094:
 1449 0090 FF       		.byte	0xff
 1450 0091 03       		.byte	0x3
 1451 0092 25       		.uleb128 .LLSDATT1094-.LLSDATTD1094
 1452              	.LLSDATTD1094:
 1453 0093 01       		.byte	0x1
 1454 0094 1B       		.uleb128 .LLSDACSE1094-.LLSDACSB1094
 1455              	.LLSDACSB1094:
 1456 0095 28       		.uleb128 .LEHB24-.LFB1094
 1457 0096 A901     		.uleb128 .LEHE24-.LEHB24
 1458 0098 00       		.uleb128 0
 1459 0099 00       		.uleb128 0
 1460 009a D101     		.uleb128 .LEHB25-.LFB1094
 1461 009c 4E       		.uleb128 .LEHE25-.LEHB25
 1462 009d B402     		.uleb128 .L57-.LFB1094
 1463 009f 01       		.uleb128 0x1
 1464 00a0 AF02     		.uleb128 .LEHB26-.LFB1094
 1465 00a2 05       		.uleb128 .LEHE26-.LEHB26
 1466 00a3 00       		.uleb128 0
 1467 00a4 00       		.uleb128 0
 1468 00a5 BC02     		.uleb128 .LEHB27-.LFB1094
 1469 00a7 38       		.uleb128 .LEHE27-.LEHB27
 1470 00a8 A102     		.uleb128 .L58-.LFB1094
 1471 00aa 00       		.uleb128 0
 1472 00ab F402     		.uleb128 .LEHB28-.LFB1094
 1473 00ad 05       		.uleb128 .LEHE28-.LEHB28
 1474 00ae 00       		.uleb128 0
 1475 00af 00       		.uleb128 0
 1476              	.LLSDACSE1094:
 1477 00b0 01       		.byte	0x1
 1478 00b1 00       		.byte	0
 1479 00b2 0000     		.align 4
 1480 00b4 00000000 		.long	0
 1481              	
 1482              	.LLSDATT1094:
 1483              		.text
 1485              		.section	.rodata
 1486 01fc 00000000 		.align 8
 1487              	.LC14:
 1488 0200 4E6F7469 		.string	"NotifiesReporterOfTestStartWithCorrectInfo"
 1488      66696573 
 1488      5265706F 
 1488      72746572 
 1488      4F665465 
 1489              		.text
 1490 06f1 90       		.align 2
 1492              	_ZN12_GLOBAL__N_146TestNotifiesReporterOfTestStartWithCorrectInfoC2Ev:
 1493              	.LFB1096:
  57:TestTestResults.cpp **** 
  58:TestTestResults.cpp **** TEST(NotifiesReporterOfTestStartWithCorrectInfo)
 1494              		.loc 5 58 0
 1495              		.cfi_startproc
 1496 06f2 55       		pushq	%rbp
 1497              		.cfi_def_cfa_offset 16
 1498              		.cfi_offset 6, -16
 1499 06f3 4889E5   		movq	%rsp, %rbp
 1500              		.cfi_def_cfa_register 6
 1501 06f6 4883EC10 		subq	$16, %rsp
 1502 06fa 48897DF8 		movq	%rdi, -8(%rbp)
 1503              	.LBB24:
 1504              		.loc 5 58 0
 1505 06fe E8000000 		call	_ZN13UnitTestSuite12GetSuiteNameEv
 1505      00
 1506 0703 4889C2   		movq	%rax, %rdx
 1507 0706 488B45F8 		movq	-8(%rbp), %rax
 1508 070a 41B83A00 		movl	$58, %r8d
 1508      0000
 1509 0710 B9000000 		movl	$.LC2, %ecx
 1509      00
 1510 0715 BE000000 		movl	$.LC14, %esi
 1510      00
 1511 071a 4889C7   		movq	%rax, %rdi
 1512 071d E8000000 		call	_ZN8UnitTest4TestC2EPKcS2_S2_i
 1512      00
 1513 0722 488B45F8 		movq	-8(%rbp), %rax
 1514 0726 48C70000 		movq	$_ZTVN12_GLOBAL__N_146TestNotifiesReporterOfTestStartWithCorrectInfoE+16, (%rax)
 1514      000000
 1515              	.LBE24:
 1516 072d C9       		leave
 1517              		.cfi_def_cfa 7, 8
 1518 072e C3       		ret
 1519              		.cfi_endproc
 1520              	.LFE1096:
 1522              		.local	_ZN12_GLOBAL__N_154testNotifiesReporterOfTestStartWithCorrectInfoInstanceE
 1523              		.comm	_ZN12_GLOBAL__N_154testNotifiesReporterOfTestStartWithCorrectInfoInstanceE,56,32
 1524              		.local	_ZN12_GLOBAL__N_147adderNotifiesReporterOfTestStartWithCorrectInfoE
 1525              		.comm	_ZN12_GLOBAL__N_147adderNotifiesReporterOfTestStartWithCorrectInfoE,1,1
 1526              		.section	.rodata
 1527              	.LC15:
 1528 022b 73756974 		.string	"suitename"
 1528      656E616D 
 1528      6500
 1529              	.LC16:
 1530 0235 74657374 		.string	"testname"
 1530      6E616D65 
 1530      00
 1531 023e 0000     		.align 8
 1532              	.LC17:
 1533 0240 556E6861 		.string	"Unhandled exception in CHECK_EQUAL(1, reporter.testRunCount)"
 1533      6E646C65 
 1533      64206578 
 1533      63657074 
 1533      696F6E20 
 1534 027d 000000   		.align 8
 1535              	.LC18:
 1536 0280 556E6861 		.string	"Unhandled exception in CHECK_EQUAL(\"suitename\", reporter.lastStartedSuite)"
 1536      6E646C65 
 1536      64206578 
 1536      63657074 
 1536      696F6E20 
 1537 02cb 00000000 		.align 8
 1537      00
 1538              	.LC19:
 1539 02d0 556E6861 		.string	"Unhandled exception in CHECK_EQUAL(\"testname\", reporter.lastStartedTest)"
 1539      6E646C65 
 1539      64206578 
 1539      63657074 
 1539      696F6E20 
 1540              		.text
 1541 072f 90       		.align 2
 1543              	_ZNK12_GLOBAL__N_146TestNotifiesReporterOfTestStartWithCorrectInfo7RunImplEv:
 1544              	.LFB1098:
  59:TestTestResults.cpp **** {
 1545              		.loc 5 59 0
 1546              		.cfi_startproc
 1547              		.cfi_personality 0x3,__gxx_personality_v0
 1548              		.cfi_lsda 0x3,.LLSDA1098
 1549 0730 55       		pushq	%rbp
 1550              		.cfi_def_cfa_offset 16
 1551              		.cfi_offset 6, -16
 1552 0731 4889E5   		movq	%rsp, %rbp
 1553              		.cfi_def_cfa_register 6
 1554 0734 53       		pushq	%rbx
 1555 0735 4881ECA8 		subq	$2216, %rsp
 1555      080000
 1556              		.cfi_offset 3, -24
 1557 073c 4889BD58 		movq	%rdi, -2216(%rbp)
 1557      F7FFFF
 1558              		.loc 5 59 0
 1559 0743 64488B04 		movq	%fs:40, %rax
 1559      25280000 
 1559      00
 1560 074c 488945E8 		movq	%rax, -24(%rbp)
 1561 0750 31C0     		xorl	%eax, %eax
 1562              	.LBB25:
  60:TestTestResults.cpp ****     RecordingReporter reporter;
 1563              		.loc 5 60 0
 1564 0752 488D85B0 		leaq	-2128(%rbp), %rax
 1564      F7FFFF
 1565 0759 4889C7   		movq	%rax, %rdi
 1566 075c E8000000 		call	_ZN17RecordingReporterC1Ev
 1566      00
  61:TestTestResults.cpp ****     TestResults results(&reporter);
 1567              		.loc 5 61 0
 1568 0761 488D95B0 		leaq	-2128(%rbp), %rdx
 1568      F7FFFF
 1569 0768 488D8570 		leaq	-2192(%rbp), %rax
 1569      F7FFFF
 1570 076f 4889D6   		movq	%rdx, %rsi
 1571 0772 4889C7   		movq	%rax, %rdi
 1572              	.LEHB29:
 1573 0775 E8000000 		call	_ZN8UnitTest11TestResultsC1EPNS_12TestReporterE
 1573      00
  62:TestTestResults.cpp ****     results.OnTestStart(details);
 1574              		.loc 5 62 0
 1575 077a 488D8570 		leaq	-2192(%rbp), %rax
 1575      F7FFFF
 1576 0781 BE000000 		movl	$_ZN12_GLOBAL__N_1L7detailsE, %esi
 1576      00
 1577 0786 4889C7   		movq	%rax, %rdi
 1578 0789 E8000000 		call	_ZN8UnitTest11TestResults11OnTestStartERKNS_11TestDetailsE
 1578      00
 1579              	.LEHE29:
 1580              	.LEHB30:
  63:TestTestResults.cpp **** 
  64:TestTestResults.cpp ****     CHECK_EQUAL (1, reporter.testRunCount);
 1581              		.loc 5 64 0
 1582 078e E8000000 		call	_ZN8UnitTest11CurrentTest7DetailsEv
 1582      00
 1583 0793 488B08   		movq	(%rax), %rcx
 1584 0796 488D8590 		leaq	-2160(%rbp), %rax
 1584      F7FFFF
 1585 079d BA400000 		movl	$64, %edx
 1585      00
 1586 07a2 4889CE   		movq	%rcx, %rsi
 1587 07a5 4889C7   		movq	%rax, %rdi
 1588 07a8 E8000000 		call	_ZN8UnitTest11TestDetailsC1ERKS0_i
 1588      00
 1589              		.loc 5 64 0 is_stmt 0 discriminator 2
 1590 07ad C7856CF7 		movl	$1, -2196(%rbp)
 1590      FFFF0100 
 1590      0000
 1591 07b7 E8000000 		call	_ZN8UnitTest11CurrentTest7ResultsEv
 1591      00
 1592 07bc 488B00   		movq	(%rax), %rax
 1593 07bf 488D9590 		leaq	-2160(%rbp), %rdx
 1593      F7FFFF
 1594 07c6 488D8DB0 		leaq	-2128(%rbp), %rcx
 1594      F7FFFF
 1595 07cd 488D7908 		leaq	8(%rcx), %rdi
 1596 07d1 488DB56C 		leaq	-2196(%rbp), %rsi
 1596      F7FFFF
 1597 07d8 4889D1   		movq	%rdx, %rcx
 1598 07db 4889FA   		movq	%rdi, %rdx
 1599 07de 4889C7   		movq	%rax, %rdi
 1600 07e1 E8000000 		call	_ZN8UnitTest10CheckEqualIiiEEvRNS_11TestResultsERKT_RKT0_RKNS_11TestDetailsE
 1600      00
 1601              	.LEHE30:
 1602              	.L65:
 1603              	.LEHB31:
  65:TestTestResults.cpp ****     CHECK_EQUAL ("suitename", reporter.lastStartedSuite);
 1604              		.loc 5 65 0 is_stmt 1
 1605 07e6 E8000000 		call	_ZN8UnitTest11CurrentTest7DetailsEv
 1605      00
 1606 07eb 488B08   		movq	(%rax), %rcx
 1607 07ee 488D8590 		leaq	-2160(%rbp), %rax
 1607      F7FFFF
 1608 07f5 BA410000 		movl	$65, %edx
 1608      00
 1609 07fa 4889CE   		movq	%rcx, %rsi
 1610 07fd 4889C7   		movq	%rax, %rdi
 1611 0800 E8000000 		call	_ZN8UnitTest11TestDetailsC1ERKS0_i
 1611      00
 1612              		.loc 5 65 0 is_stmt 0 discriminator 2
 1613 0805 E8000000 		call	_ZN8UnitTest11CurrentTest7ResultsEv
 1613      00
 1614 080a 488B00   		movq	(%rax), %rax
 1615 080d 488D9590 		leaq	-2160(%rbp), %rdx
 1615      F7FFFF
 1616 0814 488D8DB0 		leaq	-2128(%rbp), %rcx
 1616      F7FFFF
 1617 081b 488D710C 		leaq	12(%rcx), %rsi
 1618 081f 4889D1   		movq	%rdx, %rcx
 1619 0822 4889F2   		movq	%rsi, %rdx
 1620 0825 BE000000 		movl	$.LC15, %esi
 1620      00
 1621 082a 4889C7   		movq	%rax, %rdi
 1622 082d E8000000 		call	_ZN8UnitTest10CheckEqualERNS_11TestResultsEPKcPcRKNS_11TestDetailsE
 1622      00
 1623              	.LEHE31:
 1624              	.L68:
 1625              	.LEHB32:
  66:TestTestResults.cpp ****     CHECK_EQUAL ("testname", reporter.lastStartedTest);
 1626              		.loc 5 66 0 is_stmt 1
 1627 0832 E8000000 		call	_ZN8UnitTest11CurrentTest7DetailsEv
 1627      00
 1628 0837 488B08   		movq	(%rax), %rcx
 1629 083a 488D8590 		leaq	-2160(%rbp), %rax
 1629      F7FFFF
 1630 0841 BA420000 		movl	$66, %edx
 1630      00
 1631 0846 4889CE   		movq	%rcx, %rsi
 1632 0849 4889C7   		movq	%rax, %rdi
 1633 084c E8000000 		call	_ZN8UnitTest11TestDetailsC1ERKS0_i
 1633      00
 1634              		.loc 5 66 0 is_stmt 0 discriminator 2
 1635 0851 E8000000 		call	_ZN8UnitTest11CurrentTest7ResultsEv
 1635      00
 1636 0856 488B00   		movq	(%rax), %rax
 1637 0859 488D9590 		leaq	-2160(%rbp), %rdx
 1637      F7FFFF
 1638 0860 488D8DB0 		leaq	-2128(%rbp), %rcx
 1638      F7FFFF
 1639 0867 488DB10C 		leaq	268(%rcx), %rsi
 1639      010000
 1640 086e 4889D1   		movq	%rdx, %rcx
 1641 0871 4889F2   		movq	%rsi, %rdx
 1642 0874 BE000000 		movl	$.LC16, %esi
 1642      00
 1643 0879 4889C7   		movq	%rax, %rdi
 1644 087c E8000000 		call	_ZN8UnitTest10CheckEqualERNS_11TestResultsEPKcPcRKNS_11TestDetailsE
 1644      00
 1645              	.LEHE32:
 1646              	.L71:
 1647              		.loc 5 66 0 discriminator 7
 1648 0881 488D85B0 		leaq	-2128(%rbp), %rax
 1648      F7FFFF
 1649 0888 4889C7   		movq	%rax, %rdi
 1650              	.LEHB33:
 1651 088b E8000000 		call	_ZN17RecordingReporterD1Ev
 1651      00
 1652              	.LEHE33:
 1653              	.LBE25:
  67:TestTestResults.cpp **** }
 1654              		.loc 5 67 0 is_stmt 1 discriminator 7
 1655 0890 488B45E8 		movq	-24(%rbp), %rax
 1656 0894 64483304 		xorq	%fs:40, %rax
 1656      25280000 
 1656      00
 1657 089d 0F843B01 		je	.L72
 1657      0000
 1658 08a3 E9310100 		jmp	.L80
 1658      00
 1659              	.L75:
 1660 08a8 4889C3   		movq	%rax, %rbx
 1661              	.LBB26:
  64:TestTestResults.cpp ****     CHECK_EQUAL ("suitename", reporter.lastStartedSuite);
 1662              		.loc 5 64 0
 1663 08ab E8000000 		call	__cxa_end_catch
 1663      00
 1664 08b0 E90A0100 		jmp	.L63
 1664      00
 1665              	.L74:
 1666 08b5 4889C7   		movq	%rax, %rdi
 1667 08b8 E8000000 		call	__cxa_begin_catch
 1667      00
 1668              	.LEHB34:
 1669 08bd E8000000 		call	_ZN8UnitTest11CurrentTest7DetailsEv
 1669      00
 1670 08c2 488B08   		movq	(%rax), %rcx
 1671 08c5 488D8590 		leaq	-2160(%rbp), %rax
 1671      F7FFFF
 1672 08cc BA400000 		movl	$64, %edx
 1672      00
 1673 08d1 4889CE   		movq	%rcx, %rsi
 1674 08d4 4889C7   		movq	%rax, %rdi
 1675 08d7 E8000000 		call	_ZN8UnitTest11TestDetailsC1ERKS0_i
 1675      00
  64:TestTestResults.cpp ****     CHECK_EQUAL ("suitename", reporter.lastStartedSuite);
 1676              		.loc 5 64 0 is_stmt 0 discriminator 10
 1677 08dc E8000000 		call	_ZN8UnitTest11CurrentTest7ResultsEv
 1677      00
 1678 08e1 488B00   		movq	(%rax), %rax
 1679 08e4 488D8D90 		leaq	-2160(%rbp), %rcx
 1679      F7FFFF
 1680 08eb BA000000 		movl	$.LC17, %edx
 1680      00
 1681 08f0 4889CE   		movq	%rcx, %rsi
 1682 08f3 4889C7   		movq	%rax, %rdi
 1683 08f6 E8000000 		call	_ZN8UnitTest11TestResults13OnTestFailureERKNS_11TestDetailsEPKc
 1683      00
 1684              	.LEHE34:
 1685              	.LEHB35:
  64:TestTestResults.cpp ****     CHECK_EQUAL ("suitename", reporter.lastStartedSuite);
 1686              		.loc 5 64 0 discriminator 14
 1687 08fb E8000000 		call	__cxa_end_catch
 1687      00
 1688              	.LEHE35:
  64:TestTestResults.cpp ****     CHECK_EQUAL ("suitename", reporter.lastStartedSuite);
 1689              		.loc 5 64 0
 1690 0900 E9E1FEFF 		jmp	.L65
 1690      FF
 1691              	.L77:
 1692 0905 4889C3   		movq	%rax, %rbx
  65:TestTestResults.cpp ****     CHECK_EQUAL ("testname", reporter.lastStartedTest);
 1693              		.loc 5 65 0 is_stmt 1
 1694 0908 E8000000 		call	__cxa_end_catch
 1694      00
 1695 090d E9AD0000 		jmp	.L63
 1695      00
 1696              	.L76:
 1697 0912 4889C7   		movq	%rax, %rdi
 1698 0915 E8000000 		call	__cxa_begin_catch
 1698      00
 1699              	.LEHB36:
 1700 091a E8000000 		call	_ZN8UnitTest11CurrentTest7DetailsEv
 1700      00
 1701 091f 488B08   		movq	(%rax), %rcx
 1702 0922 488D8590 		leaq	-2160(%rbp), %rax
 1702      F7FFFF
 1703 0929 BA410000 		movl	$65, %edx
 1703      00
 1704 092e 4889CE   		movq	%rcx, %rsi
 1705 0931 4889C7   		movq	%rax, %rdi
 1706 0934 E8000000 		call	_ZN8UnitTest11TestDetailsC1ERKS0_i
 1706      00
  65:TestTestResults.cpp ****     CHECK_EQUAL ("testname", reporter.lastStartedTest);
 1707              		.loc 5 65 0 is_stmt 0 discriminator 10
 1708 0939 E8000000 		call	_ZN8UnitTest11CurrentTest7ResultsEv
 1708      00
 1709 093e 488B00   		movq	(%rax), %rax
 1710 0941 488D8D90 		leaq	-2160(%rbp), %rcx
 1710      F7FFFF
 1711 0948 BA000000 		movl	$.LC18, %edx
 1711      00
 1712 094d 4889CE   		movq	%rcx, %rsi
 1713 0950 4889C7   		movq	%rax, %rdi
 1714 0953 E8000000 		call	_ZN8UnitTest11TestResults13OnTestFailureERKNS_11TestDetailsEPKc
 1714      00
 1715              	.LEHE36:
 1716              	.LEHB37:
  65:TestTestResults.cpp ****     CHECK_EQUAL ("testname", reporter.lastStartedTest);
 1717              		.loc 5 65 0 discriminator 14
 1718 0958 E8000000 		call	__cxa_end_catch
 1718      00
 1719              	.LEHE37:
  65:TestTestResults.cpp ****     CHECK_EQUAL ("testname", reporter.lastStartedTest);
 1720              		.loc 5 65 0
 1721 095d E9D0FEFF 		jmp	.L68
 1721      FF
 1722              	.L79:
 1723 0962 4889C3   		movq	%rax, %rbx
  66:TestTestResults.cpp **** }
 1724              		.loc 5 66 0 is_stmt 1
 1725 0965 E8000000 		call	__cxa_end_catch
 1725      00
 1726 096a EB53     		jmp	.L63
 1727              	.L78:
 1728 096c 4889C7   		movq	%rax, %rdi
 1729 096f E8000000 		call	__cxa_begin_catch
 1729      00
 1730              	.LEHB38:
 1731 0974 E8000000 		call	_ZN8UnitTest11CurrentTest7DetailsEv
 1731      00
 1732 0979 488B08   		movq	(%rax), %rcx
 1733 097c 488D8590 		leaq	-2160(%rbp), %rax
 1733      F7FFFF
 1734 0983 BA420000 		movl	$66, %edx
 1734      00
 1735 0988 4889CE   		movq	%rcx, %rsi
 1736 098b 4889C7   		movq	%rax, %rdi
 1737 098e E8000000 		call	_ZN8UnitTest11TestDetailsC1ERKS0_i
 1737      00
  66:TestTestResults.cpp **** }
 1738              		.loc 5 66 0 is_stmt 0 discriminator 11
 1739 0993 E8000000 		call	_ZN8UnitTest11CurrentTest7ResultsEv
 1739      00
 1740 0998 488B00   		movq	(%rax), %rax
 1741 099b 488D8D90 		leaq	-2160(%rbp), %rcx
 1741      F7FFFF
 1742 09a2 BA000000 		movl	$.LC19, %edx
 1742      00
 1743 09a7 4889CE   		movq	%rcx, %rsi
 1744 09aa 4889C7   		movq	%rax, %rdi
 1745 09ad E8000000 		call	_ZN8UnitTest11TestResults13OnTestFailureERKNS_11TestDetailsEPKc
 1745      00
 1746              	.LEHE38:
 1747              	.LEHB39:
  66:TestTestResults.cpp **** }
 1748              		.loc 5 66 0 discriminator 15
 1749 09b2 E8000000 		call	__cxa_end_catch
 1749      00
 1750              	.LEHE39:
  66:TestTestResults.cpp **** }
 1751              		.loc 5 66 0
 1752 09b7 E9C5FEFF 		jmp	.L71
 1752      FF
 1753              	.L73:
 1754 09bc 4889C3   		movq	%rax, %rbx
 1755              	.L63:
  66:TestTestResults.cpp **** }
 1756              		.loc 5 66 0 discriminator 16
 1757 09bf 488D85B0 		leaq	-2128(%rbp), %rax
 1757      F7FFFF
 1758 09c6 4889C7   		movq	%rax, %rdi
 1759 09c9 E8000000 		call	_ZN17RecordingReporterD1Ev
 1759      00
 1760 09ce 4889D8   		movq	%rbx, %rax
 1761 09d1 4889C7   		movq	%rax, %rdi
 1762              	.LEHB40:
 1763 09d4 E8000000 		call	_Unwind_Resume
 1763      00
 1764              	.LEHE40:
 1765              	.L80:
 1766              	.LBE26:
 1767              		.loc 5 67 0 is_stmt 1
 1768 09d9 E8000000 		call	__stack_chk_fail
 1768      00
 1769              	.L72:
 1770 09de 4881C4A8 		addq	$2216, %rsp
 1770      080000
 1771 09e5 5B       		popq	%rbx
 1772 09e6 5D       		popq	%rbp
 1773              		.cfi_def_cfa 7, 8
 1774 09e7 C3       		ret
 1775              		.cfi_endproc
 1776              	.LFE1098:
 1777              		.section	.gcc_except_table
 1778              		.align 4
 1779              	.LLSDA1098:
 1780 00b8 FF       		.byte	0xff
 1781 00b9 03       		.byte	0x3
 1782 00ba 4D       		.uleb128 .LLSDATT1098-.LLSDATTD1098
 1783              	.LLSDATTD1098:
 1784 00bb 01       		.byte	0x1
 1785 00bc 44       		.uleb128 .LLSDACSE1098-.LLSDACSB1098
 1786              	.LLSDACSB1098:
 1787 00bd 45       		.uleb128 .LEHB29-.LFB1098
 1788 00be 19       		.uleb128 .LEHE29-.LEHB29
 1789 00bf 8C05     		.uleb128 .L73-.LFB1098
 1790 00c1 00       		.uleb128 0
 1791 00c2 5E       		.uleb128 .LEHB30-.LFB1098
 1792 00c3 58       		.uleb128 .LEHE30-.LEHB30
 1793 00c4 8503     		.uleb128 .L74-.LFB1098
 1794 00c6 01       		.uleb128 0x1
 1795 00c7 B601     		.uleb128 .LEHB31-.LFB1098
 1796 00c9 4C       		.uleb128 .LEHE31-.LEHB31
 1797 00ca E203     		.uleb128 .L76-.LFB1098
 1798 00cc 01       		.uleb128 0x1
 1799 00cd 8202     		.uleb128 .LEHB32-.LFB1098
 1800 00cf 4F       		.uleb128 .LEHE32-.LEHB32
 1801 00d0 BC04     		.uleb128 .L78-.LFB1098
 1802 00d2 01       		.uleb128 0x1
 1803 00d3 DB02     		.uleb128 .LEHB33-.LFB1098
 1804 00d5 05       		.uleb128 .LEHE33-.LEHB33
 1805 00d6 00       		.uleb128 0
 1806 00d7 00       		.uleb128 0
 1807 00d8 8D03     		.uleb128 .LEHB34-.LFB1098
 1808 00da 3E       		.uleb128 .LEHE34-.LEHB34
 1809 00db F802     		.uleb128 .L75-.LFB1098
 1810 00dd 00       		.uleb128 0
 1811 00de CB03     		.uleb128 .LEHB35-.LFB1098
 1812 00e0 05       		.uleb128 .LEHE35-.LEHB35
 1813 00e1 8C05     		.uleb128 .L73-.LFB1098
 1814 00e3 00       		.uleb128 0
 1815 00e4 EA03     		.uleb128 .LEHB36-.LFB1098
 1816 00e6 3E       		.uleb128 .LEHE36-.LEHB36
 1817 00e7 D503     		.uleb128 .L77-.LFB1098
 1818 00e9 00       		.uleb128 0
 1819 00ea A804     		.uleb128 .LEHB37-.LFB1098
 1820 00ec 05       		.uleb128 .LEHE37-.LEHB37
 1821 00ed 8C05     		.uleb128 .L73-.LFB1098
 1822 00ef 00       		.uleb128 0
 1823 00f0 C404     		.uleb128 .LEHB38-.LFB1098
 1824 00f2 3E       		.uleb128 .LEHE38-.LEHB38
 1825 00f3 B204     		.uleb128 .L79-.LFB1098
 1826 00f5 00       		.uleb128 0
 1827 00f6 8205     		.uleb128 .LEHB39-.LFB1098
 1828 00f8 05       		.uleb128 .LEHE39-.LEHB39
 1829 00f9 8C05     		.uleb128 .L73-.LFB1098
 1830 00fb 00       		.uleb128 0
 1831 00fc A405     		.uleb128 .LEHB40-.LFB1098
 1832 00fe 05       		.uleb128 .LEHE40-.LEHB40
 1833 00ff 00       		.uleb128 0
 1834 0100 00       		.uleb128 0
 1835              	.LLSDACSE1098:
 1836 0101 01       		.byte	0x1
 1837 0102 00       		.byte	0
 1838 0103 00       		.align 4
 1839 0104 00000000 		.long	0
 1840              	
 1841              	.LLSDATT1098:
 1842              		.text
 1844              		.section	.rodata
 1845 0319 00000000 		.align 8
 1845      000000
 1846              	.LC20:
 1847 0320 4E6F7469 		.string	"NotifiesReporterOfTestFailureWithCorrectInfo"
 1847      66696573 
 1847      5265706F 
 1847      72746572 
 1847      4F665465 
 1848              		.text
 1849              		.align 2
 1851              	_ZN12_GLOBAL__N_148TestNotifiesReporterOfTestFailureWithCorrectInfoC2Ev:
 1852              	.LFB1100:
  68:TestTestResults.cpp **** 
  69:TestTestResults.cpp **** TEST(NotifiesReporterOfTestFailureWithCorrectInfo)
 1853              		.loc 5 69 0
 1854              		.cfi_startproc
 1855 09e8 55       		pushq	%rbp
 1856              		.cfi_def_cfa_offset 16
 1857              		.cfi_offset 6, -16
 1858 09e9 4889E5   		movq	%rsp, %rbp
 1859              		.cfi_def_cfa_register 6
 1860 09ec 4883EC10 		subq	$16, %rsp
 1861 09f0 48897DF8 		movq	%rdi, -8(%rbp)
 1862              	.LBB27:
 1863              		.loc 5 69 0
 1864 09f4 E8000000 		call	_ZN13UnitTestSuite12GetSuiteNameEv
 1864      00
 1865 09f9 4889C2   		movq	%rax, %rdx
 1866 09fc 488B45F8 		movq	-8(%rbp), %rax
 1867 0a00 41B84500 		movl	$69, %r8d
 1867      0000
 1868 0a06 B9000000 		movl	$.LC2, %ecx
 1868      00
 1869 0a0b BE000000 		movl	$.LC20, %esi
 1869      00
 1870 0a10 4889C7   		movq	%rax, %rdi
 1871 0a13 E8000000 		call	_ZN8UnitTest4TestC2EPKcS2_S2_i
 1871      00
 1872 0a18 488B45F8 		movq	-8(%rbp), %rax
 1873 0a1c 48C70000 		movq	$_ZTVN12_GLOBAL__N_148TestNotifiesReporterOfTestFailureWithCorrectInfoE+16, (%rax)
 1873      000000
 1874              	.LBE27:
 1875 0a23 C9       		leave
 1876              		.cfi_def_cfa 7, 8
 1877 0a24 C3       		ret
 1878              		.cfi_endproc
 1879              	.LFE1100:
 1881              		.local	_ZN12_GLOBAL__N_156testNotifiesReporterOfTestFailureWithCorrectInfoInstanceE
 1882              		.comm	_ZN12_GLOBAL__N_156testNotifiesReporterOfTestFailureWithCorrectInfoInstanceE,56,32
 1883              		.local	_ZN12_GLOBAL__N_149adderNotifiesReporterOfTestFailureWithCorrectInfoE
 1884              		.comm	_ZN12_GLOBAL__N_149adderNotifiesReporterOfTestFailureWithCorrectInfoE,1,1
 1885              		.section	.rodata
 1886              	.LC21:
 1887 034d 6661696C 		.string	"failurestring"
 1887      75726573 
 1887      7472696E 
 1887      6700
 1888              	.LC22:
 1889 035b 66696C65 		.string	"filename"
 1889      6E616D65 
 1889      00
 1890 0364 00000000 		.align 8
 1891              	.LC23:
 1892 0368 556E6861 		.string	"Unhandled exception in CHECK_EQUAL(1, reporter.testFailedCount)"
 1892      6E646C65 
 1892      64206578 
 1892      63657074 
 1892      696F6E20 
 1893              		.align 8
 1894              	.LC24:
 1895 03a8 556E6861 		.string	"Unhandled exception in CHECK_EQUAL(\"filename\", reporter.lastFailedFile)"
 1895      6E646C65 
 1895      64206578 
 1895      63657074 
 1895      696F6E20 
 1896              		.align 8
 1897              	.LC25:
 1898 03f0 556E6861 		.string	"Unhandled exception in CHECK_EQUAL(123, reporter.lastFailedLine)"
 1898      6E646C65 
 1898      64206578 
 1898      63657074 
 1898      696F6E20 
 1899 0431 00000000 		.align 8
 1899      000000
 1900              	.LC26:
 1901 0438 556E6861 		.string	"Unhandled exception in CHECK_EQUAL(\"suitename\", reporter.lastFailedSuite)"
 1901      6E646C65 
 1901      64206578 
 1901      63657074 
 1901      696F6E20 
 1902 0482 00000000 		.align 8
 1902      0000
 1903              	.LC27:
 1904 0488 556E6861 		.string	"Unhandled exception in CHECK_EQUAL(\"testname\", reporter.lastFailedTest)"
 1904      6E646C65 
 1904      64206578 
 1904      63657074 
 1904      696F6E20 
 1905              		.align 8
 1906              	.LC28:
 1907 04d0 556E6861 		.string	"Unhandled exception in CHECK_EQUAL(\"failurestring\", reporter.lastFailedMessage)"
 1907      6E646C65 
 1907      64206578 
 1907      63657074 
 1907      696F6E20 
 1908              		.text
 1909 0a25 90       		.align 2
 1911              	_ZNK12_GLOBAL__N_148TestNotifiesReporterOfTestFailureWithCorrectInfo7RunImplEv:
 1912              	.LFB1102:
  70:TestTestResults.cpp **** {
 1913              		.loc 5 70 0
 1914              		.cfi_startproc
 1915              		.cfi_personality 0x3,__gxx_personality_v0
 1916              		.cfi_lsda 0x3,.LLSDA1102
 1917 0a26 55       		pushq	%rbp
 1918              		.cfi_def_cfa_offset 16
 1919              		.cfi_offset 6, -16
 1920 0a27 4889E5   		movq	%rsp, %rbp
 1921              		.cfi_def_cfa_register 6
 1922 0a2a 53       		pushq	%rbx
 1923 0a2b 4881ECA8 		subq	$2216, %rsp
 1923      080000
 1924              		.cfi_offset 3, -24
 1925 0a32 4889BD58 		movq	%rdi, -2216(%rbp)
 1925      F7FFFF
 1926              		.loc 5 70 0
 1927 0a39 64488B04 		movq	%fs:40, %rax
 1927      25280000 
 1927      00
 1928 0a42 488945E8 		movq	%rax, -24(%rbp)
 1929 0a46 31C0     		xorl	%eax, %eax
 1930              	.LBB28:
  71:TestTestResults.cpp ****     RecordingReporter reporter;
 1931              		.loc 5 71 0
 1932 0a48 488D85B0 		leaq	-2128(%rbp), %rax
 1932      F7FFFF
 1933 0a4f 4889C7   		movq	%rax, %rdi
 1934 0a52 E8000000 		call	_ZN17RecordingReporterC1Ev
 1934      00
  72:TestTestResults.cpp ****     TestResults results(&reporter);
 1935              		.loc 5 72 0
 1936 0a57 488D95B0 		leaq	-2128(%rbp), %rdx
 1936      F7FFFF
 1937 0a5e 488D8570 		leaq	-2192(%rbp), %rax
 1937      F7FFFF
 1938 0a65 4889D6   		movq	%rdx, %rsi
 1939 0a68 4889C7   		movq	%rax, %rdi
 1940              	.LEHB41:
 1941 0a6b E8000000 		call	_ZN8UnitTest11TestResultsC1EPNS_12TestReporterE
 1941      00
  73:TestTestResults.cpp **** 
  74:TestTestResults.cpp ****     results.OnTestFailure(details, "failurestring");
 1942              		.loc 5 74 0
 1943 0a70 488D8570 		leaq	-2192(%rbp), %rax
 1943      F7FFFF
 1944 0a77 BA000000 		movl	$.LC21, %edx
 1944      00
 1945 0a7c BE000000 		movl	$_ZN12_GLOBAL__N_1L7detailsE, %esi
 1945      00
 1946 0a81 4889C7   		movq	%rax, %rdi
 1947 0a84 E8000000 		call	_ZN8UnitTest11TestResults13OnTestFailureERKNS_11TestDetailsEPKc
 1947      00
 1948              	.LEHE41:
 1949              	.LEHB42:
  75:TestTestResults.cpp ****     CHECK_EQUAL (1, reporter.testFailedCount);
 1950              		.loc 5 75 0
 1951 0a89 E8000000 		call	_ZN8UnitTest11CurrentTest7DetailsEv
 1951      00
 1952 0a8e 488B08   		movq	(%rax), %rcx
 1953 0a91 488D8590 		leaq	-2160(%rbp), %rax
 1953      F7FFFF
 1954 0a98 BA4B0000 		movl	$75, %edx
 1954      00
 1955 0a9d 4889CE   		movq	%rcx, %rsi
 1956 0aa0 4889C7   		movq	%rax, %rdi
 1957 0aa3 E8000000 		call	_ZN8UnitTest11TestDetailsC1ERKS0_i
 1957      00
 1958              		.loc 5 75 0 is_stmt 0 discriminator 2
 1959 0aa8 C7856CF7 		movl	$1, -2196(%rbp)
 1959      FFFF0100 
 1959      0000
 1960 0ab2 E8000000 		call	_ZN8UnitTest11CurrentTest7ResultsEv
 1960      00
 1961 0ab7 488B00   		movq	(%rax), %rax
 1962 0aba 488D9590 		leaq	-2160(%rbp), %rdx
 1962      F7FFFF
 1963 0ac1 488D8DB0 		leaq	-2128(%rbp), %rcx
 1963      F7FFFF
 1964 0ac8 488DB90C 		leaq	524(%rcx), %rdi
 1964      020000
 1965 0acf 488DB56C 		leaq	-2196(%rbp), %rsi
 1965      F7FFFF
 1966 0ad6 4889D1   		movq	%rdx, %rcx
 1967 0ad9 4889FA   		movq	%rdi, %rdx
 1968 0adc 4889C7   		movq	%rax, %rdi
 1969 0adf E8000000 		call	_ZN8UnitTest10CheckEqualIiiEEvRNS_11TestResultsERKT_RKT0_RKNS_11TestDetailsE
 1969      00
 1970              	.LEHE42:
 1971              	.L86:
 1972              	.LEHB43:
  76:TestTestResults.cpp ****     CHECK_EQUAL ("filename", reporter.lastFailedFile);
 1973              		.loc 5 76 0 is_stmt 1
 1974 0ae4 E8000000 		call	_ZN8UnitTest11CurrentTest7DetailsEv
 1974      00
 1975 0ae9 488B08   		movq	(%rax), %rcx
 1976 0aec 488D8590 		leaq	-2160(%rbp), %rax
 1976      F7FFFF
 1977 0af3 BA4C0000 		movl	$76, %edx
 1977      00
 1978 0af8 4889CE   		movq	%rcx, %rsi
 1979 0afb 4889C7   		movq	%rax, %rdi
 1980 0afe E8000000 		call	_ZN8UnitTest11TestDetailsC1ERKS0_i
 1980      00
 1981              		.loc 5 76 0 is_stmt 0 discriminator 2
 1982 0b03 E8000000 		call	_ZN8UnitTest11CurrentTest7ResultsEv
 1982      00
 1983 0b08 488B00   		movq	(%rax), %rax
 1984 0b0b 488D9590 		leaq	-2160(%rbp), %rdx
 1984      F7FFFF
 1985 0b12 488D8DB0 		leaq	-2128(%rbp), %rcx
 1985      F7FFFF
 1986 0b19 488DB110 		leaq	528(%rcx), %rsi
 1986      020000
 1987 0b20 4889D1   		movq	%rdx, %rcx
 1988 0b23 4889F2   		movq	%rsi, %rdx
 1989 0b26 BE000000 		movl	$.LC22, %esi
 1989      00
 1990 0b2b 4889C7   		movq	%rax, %rdi
 1991 0b2e E8000000 		call	_ZN8UnitTest10CheckEqualERNS_11TestResultsEPKcPcRKNS_11TestDetailsE
 1991      00
 1992              	.LEHE43:
 1993              	.L89:
 1994              	.LEHB44:
  77:TestTestResults.cpp ****     CHECK_EQUAL (123, reporter.lastFailedLine);
 1995              		.loc 5 77 0 is_stmt 1
 1996 0b33 E8000000 		call	_ZN8UnitTest11CurrentTest7DetailsEv
 1996      00
 1997 0b38 488B08   		movq	(%rax), %rcx
 1998 0b3b 488D8590 		leaq	-2160(%rbp), %rax
 1998      F7FFFF
 1999 0b42 BA4D0000 		movl	$77, %edx
 1999      00
 2000 0b47 4889CE   		movq	%rcx, %rsi
 2001 0b4a 4889C7   		movq	%rax, %rdi
 2002 0b4d E8000000 		call	_ZN8UnitTest11TestDetailsC1ERKS0_i
 2002      00
 2003              		.loc 5 77 0 is_stmt 0 discriminator 2
 2004 0b52 C7856CF7 		movl	$123, -2196(%rbp)
 2004      FFFF7B00 
 2004      0000
 2005 0b5c E8000000 		call	_ZN8UnitTest11CurrentTest7ResultsEv
 2005      00
 2006 0b61 488B00   		movq	(%rax), %rax
 2007 0b64 488D9590 		leaq	-2160(%rbp), %rdx
 2007      F7FFFF
 2008 0b6b 488D8DB0 		leaq	-2128(%rbp), %rcx
 2008      F7FFFF
 2009 0b72 488DB910 		leaq	784(%rcx), %rdi
 2009      030000
 2010 0b79 488DB56C 		leaq	-2196(%rbp), %rsi
 2010      F7FFFF
 2011 0b80 4889D1   		movq	%rdx, %rcx
 2012 0b83 4889FA   		movq	%rdi, %rdx
 2013 0b86 4889C7   		movq	%rax, %rdi
 2014 0b89 E8000000 		call	_ZN8UnitTest10CheckEqualIiiEEvRNS_11TestResultsERKT_RKT0_RKNS_11TestDetailsE
 2014      00
 2015              	.LEHE44:
 2016              	.L92:
 2017              	.LEHB45:
  78:TestTestResults.cpp ****     CHECK_EQUAL ("suitename", reporter.lastFailedSuite);
 2018              		.loc 5 78 0 is_stmt 1
 2019 0b8e E8000000 		call	_ZN8UnitTest11CurrentTest7DetailsEv
 2019      00
 2020 0b93 488B08   		movq	(%rax), %rcx
 2021 0b96 488D8590 		leaq	-2160(%rbp), %rax
 2021      F7FFFF
 2022 0b9d BA4E0000 		movl	$78, %edx
 2022      00
 2023 0ba2 4889CE   		movq	%rcx, %rsi
 2024 0ba5 4889C7   		movq	%rax, %rdi
 2025 0ba8 E8000000 		call	_ZN8UnitTest11TestDetailsC1ERKS0_i
 2025      00
 2026              		.loc 5 78 0 is_stmt 0 discriminator 2
 2027 0bad E8000000 		call	_ZN8UnitTest11CurrentTest7ResultsEv
 2027      00
 2028 0bb2 488B00   		movq	(%rax), %rax
 2029 0bb5 488D9590 		leaq	-2160(%rbp), %rdx
 2029      F7FFFF
 2030 0bbc 488D8DB0 		leaq	-2128(%rbp), %rcx
 2030      F7FFFF
 2031 0bc3 488DB114 		leaq	788(%rcx), %rsi
 2031      030000
 2032 0bca 4889D1   		movq	%rdx, %rcx
 2033 0bcd 4889F2   		movq	%rsi, %rdx
 2034 0bd0 BE000000 		movl	$.LC15, %esi
 2034      00
 2035 0bd5 4889C7   		movq	%rax, %rdi
 2036 0bd8 E8000000 		call	_ZN8UnitTest10CheckEqualERNS_11TestResultsEPKcPcRKNS_11TestDetailsE
 2036      00
 2037              	.LEHE45:
 2038              	.L95:
 2039              	.LEHB46:
  79:TestTestResults.cpp ****     CHECK_EQUAL ("testname", reporter.lastFailedTest);
 2040              		.loc 5 79 0 is_stmt 1
 2041 0bdd E8000000 		call	_ZN8UnitTest11CurrentTest7DetailsEv
 2041      00
 2042 0be2 488B08   		movq	(%rax), %rcx
 2043 0be5 488D8590 		leaq	-2160(%rbp), %rax
 2043      F7FFFF
 2044 0bec BA4F0000 		movl	$79, %edx
 2044      00
 2045 0bf1 4889CE   		movq	%rcx, %rsi
 2046 0bf4 4889C7   		movq	%rax, %rdi
 2047 0bf7 E8000000 		call	_ZN8UnitTest11TestDetailsC1ERKS0_i
 2047      00
 2048              		.loc 5 79 0 is_stmt 0 discriminator 2
 2049 0bfc E8000000 		call	_ZN8UnitTest11CurrentTest7ResultsEv
 2049      00
 2050 0c01 488B00   		movq	(%rax), %rax
 2051 0c04 488D9590 		leaq	-2160(%rbp), %rdx
 2051      F7FFFF
 2052 0c0b 488D8DB0 		leaq	-2128(%rbp), %rcx
 2052      F7FFFF
 2053 0c12 488DB114 		leaq	1044(%rcx), %rsi
 2053      040000
 2054 0c19 4889D1   		movq	%rdx, %rcx
 2055 0c1c 4889F2   		movq	%rsi, %rdx
 2056 0c1f BE000000 		movl	$.LC16, %esi
 2056      00
 2057 0c24 4889C7   		movq	%rax, %rdi
 2058 0c27 E8000000 		call	_ZN8UnitTest10CheckEqualERNS_11TestResultsEPKcPcRKNS_11TestDetailsE
 2058      00
 2059              	.LEHE46:
 2060              	.L98:
 2061              	.LEHB47:
  80:TestTestResults.cpp ****     CHECK_EQUAL ("failurestring", reporter.lastFailedMessage);
 2062              		.loc 5 80 0 is_stmt 1
 2063 0c2c E8000000 		call	_ZN8UnitTest11CurrentTest7DetailsEv
 2063      00
 2064 0c31 488B08   		movq	(%rax), %rcx
 2065 0c34 488D8590 		leaq	-2160(%rbp), %rax
 2065      F7FFFF
 2066 0c3b BA500000 		movl	$80, %edx
 2066      00
 2067 0c40 4889CE   		movq	%rcx, %rsi
 2068 0c43 4889C7   		movq	%rax, %rdi
 2069 0c46 E8000000 		call	_ZN8UnitTest11TestDetailsC1ERKS0_i
 2069      00
 2070              		.loc 5 80 0 is_stmt 0 discriminator 2
 2071 0c4b E8000000 		call	_ZN8UnitTest11CurrentTest7ResultsEv
 2071      00
 2072 0c50 488B00   		movq	(%rax), %rax
 2073 0c53 488D9590 		leaq	-2160(%rbp), %rdx
 2073      F7FFFF
 2074 0c5a 488D8DB0 		leaq	-2128(%rbp), %rcx
 2074      F7FFFF
 2075 0c61 488DB114 		leaq	1300(%rcx), %rsi
 2075      050000
 2076 0c68 4889D1   		movq	%rdx, %rcx
 2077 0c6b 4889F2   		movq	%rsi, %rdx
 2078 0c6e BE000000 		movl	$.LC21, %esi
 2078      00
 2079 0c73 4889C7   		movq	%rax, %rdi
 2080 0c76 E8000000 		call	_ZN8UnitTest10CheckEqualERNS_11TestResultsEPKcPcRKNS_11TestDetailsE
 2080      00
 2081              	.LEHE47:
 2082              	.L101:
 2083              		.loc 5 80 0 discriminator 7
 2084 0c7b 488D85B0 		leaq	-2128(%rbp), %rax
 2084      F7FFFF
 2085 0c82 4889C7   		movq	%rax, %rdi
 2086              	.LEHB48:
 2087 0c85 E8000000 		call	_ZN17RecordingReporterD1Ev
 2087      00
 2088              	.LEHE48:
 2089              	.LBE28:
  81:TestTestResults.cpp **** }
 2090              		.loc 5 81 0 is_stmt 1 discriminator 7
 2091 0c8a 488B45E8 		movq	-24(%rbp), %rax
 2092 0c8e 64483304 		xorq	%fs:40, %rax
 2092      25280000 
 2092      00
 2093 0c97 0F845202 		je	.L102
 2093      0000
 2094 0c9d E9480200 		jmp	.L116
 2094      00
 2095              	.L105:
 2096 0ca2 4889C3   		movq	%rax, %rbx
 2097              	.LBB29:
  75:TestTestResults.cpp ****     CHECK_EQUAL ("filename", reporter.lastFailedFile);
 2098              		.loc 5 75 0
 2099 0ca5 E8000000 		call	__cxa_end_catch
 2099      00
 2100 0caa E9210200 		jmp	.L84
 2100      00
 2101              	.L104:
 2102 0caf 4889C7   		movq	%rax, %rdi
 2103 0cb2 E8000000 		call	__cxa_begin_catch
 2103      00
 2104              	.LEHB49:
 2105 0cb7 E8000000 		call	_ZN8UnitTest11CurrentTest7DetailsEv
 2105      00
 2106 0cbc 488B08   		movq	(%rax), %rcx
 2107 0cbf 488D8590 		leaq	-2160(%rbp), %rax
 2107      F7FFFF
 2108 0cc6 BA4B0000 		movl	$75, %edx
 2108      00
 2109 0ccb 4889CE   		movq	%rcx, %rsi
 2110 0cce 4889C7   		movq	%rax, %rdi
 2111 0cd1 E8000000 		call	_ZN8UnitTest11TestDetailsC1ERKS0_i
 2111      00
  75:TestTestResults.cpp ****     CHECK_EQUAL ("filename", reporter.lastFailedFile);
 2112              		.loc 5 75 0 is_stmt 0 discriminator 10
 2113 0cd6 E8000000 		call	_ZN8UnitTest11CurrentTest7ResultsEv
 2113      00
 2114 0cdb 488B00   		movq	(%rax), %rax
 2115 0cde 488D8D90 		leaq	-2160(%rbp), %rcx
 2115      F7FFFF
 2116 0ce5 BA000000 		movl	$.LC23, %edx
 2116      00
 2117 0cea 4889CE   		movq	%rcx, %rsi
 2118 0ced 4889C7   		movq	%rax, %rdi
 2119 0cf0 E8000000 		call	_ZN8UnitTest11TestResults13OnTestFailureERKNS_11TestDetailsEPKc
 2119      00
 2120              	.LEHE49:
 2121              	.LEHB50:
  75:TestTestResults.cpp ****     CHECK_EQUAL ("filename", reporter.lastFailedFile);
 2122              		.loc 5 75 0 discriminator 14
 2123 0cf5 E8000000 		call	__cxa_end_catch
 2123      00
 2124              	.LEHE50:
  75:TestTestResults.cpp ****     CHECK_EQUAL ("filename", reporter.lastFailedFile);
 2125              		.loc 5 75 0
 2126 0cfa E9E5FDFF 		jmp	.L86
 2126      FF
 2127              	.L107:
 2128 0cff 4889C3   		movq	%rax, %rbx
  76:TestTestResults.cpp ****     CHECK_EQUAL (123, reporter.lastFailedLine);
 2129              		.loc 5 76 0 is_stmt 1
 2130 0d02 E8000000 		call	__cxa_end_catch
 2130      00
 2131 0d07 E9C40100 		jmp	.L84
 2131      00
 2132              	.L106:
 2133 0d0c 4889C7   		movq	%rax, %rdi
 2134 0d0f E8000000 		call	__cxa_begin_catch
 2134      00
 2135              	.LEHB51:
 2136 0d14 E8000000 		call	_ZN8UnitTest11CurrentTest7DetailsEv
 2136      00
 2137 0d19 488B08   		movq	(%rax), %rcx
 2138 0d1c 488D8590 		leaq	-2160(%rbp), %rax
 2138      F7FFFF
 2139 0d23 BA4C0000 		movl	$76, %edx
 2139      00
 2140 0d28 4889CE   		movq	%rcx, %rsi
 2141 0d2b 4889C7   		movq	%rax, %rdi
 2142 0d2e E8000000 		call	_ZN8UnitTest11TestDetailsC1ERKS0_i
 2142      00
  76:TestTestResults.cpp ****     CHECK_EQUAL (123, reporter.lastFailedLine);
 2143              		.loc 5 76 0 is_stmt 0 discriminator 10
 2144 0d33 E8000000 		call	_ZN8UnitTest11CurrentTest7ResultsEv
 2144      00
 2145 0d38 488B00   		movq	(%rax), %rax
 2146 0d3b 488D8D90 		leaq	-2160(%rbp), %rcx
 2146      F7FFFF
 2147 0d42 BA000000 		movl	$.LC24, %edx
 2147      00
 2148 0d47 4889CE   		movq	%rcx, %rsi
 2149 0d4a 4889C7   		movq	%rax, %rdi
 2150 0d4d E8000000 		call	_ZN8UnitTest11TestResults13OnTestFailureERKNS_11TestDetailsEPKc
 2150      00
 2151              	.LEHE51:
 2152              	.LEHB52:
  76:TestTestResults.cpp ****     CHECK_EQUAL (123, reporter.lastFailedLine);
 2153              		.loc 5 76 0 discriminator 14
 2154 0d52 E8000000 		call	__cxa_end_catch
 2154      00
 2155              	.LEHE52:
  76:TestTestResults.cpp ****     CHECK_EQUAL (123, reporter.lastFailedLine);
 2156              		.loc 5 76 0
 2157 0d57 E9D7FDFF 		jmp	.L89
 2157      FF
 2158              	.L109:
 2159 0d5c 4889C3   		movq	%rax, %rbx
  77:TestTestResults.cpp ****     CHECK_EQUAL ("suitename", reporter.lastFailedSuite);
 2160              		.loc 5 77 0 is_stmt 1
 2161 0d5f E8000000 		call	__cxa_end_catch
 2161      00
 2162 0d64 E9670100 		jmp	.L84
 2162      00
 2163              	.L108:
 2164 0d69 4889C7   		movq	%rax, %rdi
 2165 0d6c E8000000 		call	__cxa_begin_catch
 2165      00
 2166              	.LEHB53:
 2167 0d71 E8000000 		call	_ZN8UnitTest11CurrentTest7DetailsEv
 2167      00
 2168 0d76 488B08   		movq	(%rax), %rcx
 2169 0d79 488D8590 		leaq	-2160(%rbp), %rax
 2169      F7FFFF
 2170 0d80 BA4D0000 		movl	$77, %edx
 2170      00
 2171 0d85 4889CE   		movq	%rcx, %rsi
 2172 0d88 4889C7   		movq	%rax, %rdi
 2173 0d8b E8000000 		call	_ZN8UnitTest11TestDetailsC1ERKS0_i
 2173      00
  77:TestTestResults.cpp ****     CHECK_EQUAL ("suitename", reporter.lastFailedSuite);
 2174              		.loc 5 77 0 is_stmt 0 discriminator 10
 2175 0d90 E8000000 		call	_ZN8UnitTest11CurrentTest7ResultsEv
 2175      00
 2176 0d95 488B00   		movq	(%rax), %rax
 2177 0d98 488D8D90 		leaq	-2160(%rbp), %rcx
 2177      F7FFFF
 2178 0d9f BA000000 		movl	$.LC25, %edx
 2178      00
 2179 0da4 4889CE   		movq	%rcx, %rsi
 2180 0da7 4889C7   		movq	%rax, %rdi
 2181 0daa E8000000 		call	_ZN8UnitTest11TestResults13OnTestFailureERKNS_11TestDetailsEPKc
 2181      00
 2182              	.LEHE53:
 2183              	.LEHB54:
  77:TestTestResults.cpp ****     CHECK_EQUAL ("suitename", reporter.lastFailedSuite);
 2184              		.loc 5 77 0 discriminator 14
 2185 0daf E8000000 		call	__cxa_end_catch
 2185      00
 2186              	.LEHE54:
  77:TestTestResults.cpp ****     CHECK_EQUAL ("suitename", reporter.lastFailedSuite);
 2187              		.loc 5 77 0
 2188 0db4 E9D5FDFF 		jmp	.L92
 2188      FF
 2189              	.L111:
 2190 0db9 4889C3   		movq	%rax, %rbx
  78:TestTestResults.cpp ****     CHECK_EQUAL ("testname", reporter.lastFailedTest);
 2191              		.loc 5 78 0 is_stmt 1
 2192 0dbc E8000000 		call	__cxa_end_catch
 2192      00
 2193 0dc1 E90A0100 		jmp	.L84
 2193      00
 2194              	.L110:
 2195 0dc6 4889C7   		movq	%rax, %rdi
 2196 0dc9 E8000000 		call	__cxa_begin_catch
 2196      00
 2197              	.LEHB55:
 2198 0dce E8000000 		call	_ZN8UnitTest11CurrentTest7DetailsEv
 2198      00
 2199 0dd3 488B08   		movq	(%rax), %rcx
 2200 0dd6 488D8590 		leaq	-2160(%rbp), %rax
 2200      F7FFFF
 2201 0ddd BA4E0000 		movl	$78, %edx
 2201      00
 2202 0de2 4889CE   		movq	%rcx, %rsi
 2203 0de5 4889C7   		movq	%rax, %rdi
 2204 0de8 E8000000 		call	_ZN8UnitTest11TestDetailsC1ERKS0_i
 2204      00
  78:TestTestResults.cpp ****     CHECK_EQUAL ("testname", reporter.lastFailedTest);
 2205              		.loc 5 78 0 is_stmt 0 discriminator 10
 2206 0ded E8000000 		call	_ZN8UnitTest11CurrentTest7ResultsEv
 2206      00
 2207 0df2 488B00   		movq	(%rax), %rax
 2208 0df5 488D8D90 		leaq	-2160(%rbp), %rcx
 2208      F7FFFF
 2209 0dfc BA000000 		movl	$.LC26, %edx
 2209      00
 2210 0e01 4889CE   		movq	%rcx, %rsi
 2211 0e04 4889C7   		movq	%rax, %rdi
 2212 0e07 E8000000 		call	_ZN8UnitTest11TestResults13OnTestFailureERKNS_11TestDetailsEPKc
 2212      00
 2213              	.LEHE55:
 2214              	.LEHB56:
  78:TestTestResults.cpp ****     CHECK_EQUAL ("testname", reporter.lastFailedTest);
 2215              		.loc 5 78 0 discriminator 14
 2216 0e0c E8000000 		call	__cxa_end_catch
 2216      00
 2217              	.LEHE56:
  78:TestTestResults.cpp ****     CHECK_EQUAL ("testname", reporter.lastFailedTest);
 2218              		.loc 5 78 0
 2219 0e11 E9C7FDFF 		jmp	.L95
 2219      FF
 2220              	.L113:
 2221 0e16 4889C3   		movq	%rax, %rbx
  79:TestTestResults.cpp ****     CHECK_EQUAL ("failurestring", reporter.lastFailedMessage);
 2222              		.loc 5 79 0 is_stmt 1
 2223 0e19 E8000000 		call	__cxa_end_catch
 2223      00
 2224 0e1e E9AD0000 		jmp	.L84
 2224      00
 2225              	.L112:
 2226 0e23 4889C7   		movq	%rax, %rdi
 2227 0e26 E8000000 		call	__cxa_begin_catch
 2227      00
 2228              	.LEHB57:
 2229 0e2b E8000000 		call	_ZN8UnitTest11CurrentTest7DetailsEv
 2229      00
 2230 0e30 488B08   		movq	(%rax), %rcx
 2231 0e33 488D8590 		leaq	-2160(%rbp), %rax
 2231      F7FFFF
 2232 0e3a BA4F0000 		movl	$79, %edx
 2232      00
 2233 0e3f 4889CE   		movq	%rcx, %rsi
 2234 0e42 4889C7   		movq	%rax, %rdi
 2235 0e45 E8000000 		call	_ZN8UnitTest11TestDetailsC1ERKS0_i
 2235      00
  79:TestTestResults.cpp ****     CHECK_EQUAL ("failurestring", reporter.lastFailedMessage);
 2236              		.loc 5 79 0 is_stmt 0 discriminator 10
 2237 0e4a E8000000 		call	_ZN8UnitTest11CurrentTest7ResultsEv
 2237      00
 2238 0e4f 488B00   		movq	(%rax), %rax
 2239 0e52 488D8D90 		leaq	-2160(%rbp), %rcx
 2239      F7FFFF
 2240 0e59 BA000000 		movl	$.LC27, %edx
 2240      00
 2241 0e5e 4889CE   		movq	%rcx, %rsi
 2242 0e61 4889C7   		movq	%rax, %rdi
 2243 0e64 E8000000 		call	_ZN8UnitTest11TestResults13OnTestFailureERKNS_11TestDetailsEPKc
 2243      00
 2244              	.LEHE57:
 2245              	.LEHB58:
  79:TestTestResults.cpp ****     CHECK_EQUAL ("failurestring", reporter.lastFailedMessage);
 2246              		.loc 5 79 0 discriminator 14
 2247 0e69 E8000000 		call	__cxa_end_catch
 2247      00
 2248              	.LEHE58:
  79:TestTestResults.cpp ****     CHECK_EQUAL ("failurestring", reporter.lastFailedMessage);
 2249              		.loc 5 79 0
 2250 0e6e E9B9FDFF 		jmp	.L98
 2250      FF
 2251              	.L115:
 2252 0e73 4889C3   		movq	%rax, %rbx
  80:TestTestResults.cpp **** }
 2253              		.loc 5 80 0 is_stmt 1
 2254 0e76 E8000000 		call	__cxa_end_catch
 2254      00
 2255 0e7b EB53     		jmp	.L84
 2256              	.L114:
 2257 0e7d 4889C7   		movq	%rax, %rdi
 2258 0e80 E8000000 		call	__cxa_begin_catch
 2258      00
 2259              	.LEHB59:
 2260 0e85 E8000000 		call	_ZN8UnitTest11CurrentTest7DetailsEv
 2260      00
 2261 0e8a 488B08   		movq	(%rax), %rcx
 2262 0e8d 488D8590 		leaq	-2160(%rbp), %rax
 2262      F7FFFF
 2263 0e94 BA500000 		movl	$80, %edx
 2263      00
 2264 0e99 4889CE   		movq	%rcx, %rsi
 2265 0e9c 4889C7   		movq	%rax, %rdi
 2266 0e9f E8000000 		call	_ZN8UnitTest11TestDetailsC1ERKS0_i
 2266      00
  80:TestTestResults.cpp **** }
 2267              		.loc 5 80 0 is_stmt 0 discriminator 11
 2268 0ea4 E8000000 		call	_ZN8UnitTest11CurrentTest7ResultsEv
 2268      00
 2269 0ea9 488B00   		movq	(%rax), %rax
 2270 0eac 488D8D90 		leaq	-2160(%rbp), %rcx
 2270      F7FFFF
 2271 0eb3 BA000000 		movl	$.LC28, %edx
 2271      00
 2272 0eb8 4889CE   		movq	%rcx, %rsi
 2273 0ebb 4889C7   		movq	%rax, %rdi
 2274 0ebe E8000000 		call	_ZN8UnitTest11TestResults13OnTestFailureERKNS_11TestDetailsEPKc
 2274      00
 2275              	.LEHE59:
 2276              	.LEHB60:
  80:TestTestResults.cpp **** }
 2277              		.loc 5 80 0 discriminator 15
 2278 0ec3 E8000000 		call	__cxa_end_catch
 2278      00
 2279              	.LEHE60:
  80:TestTestResults.cpp **** }
 2280              		.loc 5 80 0
 2281 0ec8 E9AEFDFF 		jmp	.L101
 2281      FF
 2282              	.L103:
 2283 0ecd 4889C3   		movq	%rax, %rbx
 2284              	.L84:
  80:TestTestResults.cpp **** }
 2285              		.loc 5 80 0 discriminator 16
 2286 0ed0 488D85B0 		leaq	-2128(%rbp), %rax
 2286      F7FFFF
 2287 0ed7 4889C7   		movq	%rax, %rdi
 2288 0eda E8000000 		call	_ZN17RecordingReporterD1Ev
 2288      00
 2289 0edf 4889D8   		movq	%rbx, %rax
 2290 0ee2 4889C7   		movq	%rax, %rdi
 2291              	.LEHB61:
 2292 0ee5 E8000000 		call	_Unwind_Resume
 2292      00
 2293              	.LEHE61:
 2294              	.L116:
 2295              	.LBE29:
 2296              		.loc 5 81 0 is_stmt 1
 2297 0eea E8000000 		call	__stack_chk_fail
 2297      00
 2298              	.L102:
 2299 0eef 4881C4A8 		addq	$2216, %rsp
 2299      080000
 2300 0ef6 5B       		popq	%rbx
 2301 0ef7 5D       		popq	%rbp
 2302              		.cfi_def_cfa 7, 8
 2303 0ef8 C3       		ret
 2304              		.cfi_endproc
 2305              	.LFE1102:
 2306              		.section	.gcc_except_table
 2307              		.align 4
 2308              	.LLSDA1102:
 2309 0108 FF       		.byte	0xff
 2310 0109 03       		.byte	0x3
 2311 010a 8401     		.uleb128 .LLSDATT1102-.LLSDATTD1102
 2312              	.LLSDATTD1102:
 2313 010c 01       		.byte	0x1
 2314 010d 7A       		.uleb128 .LLSDACSE1102-.LLSDACSB1102
 2315              	.LLSDACSB1102:
 2316 010e 45       		.uleb128 .LEHB41-.LFB1102
 2317 010f 1E       		.uleb128 .LEHE41-.LEHB41
 2318 0110 A709     		.uleb128 .L103-.LFB1102
 2319 0112 00       		.uleb128 0
 2320 0113 63       		.uleb128 .LEHB42-.LFB1102
 2321 0114 5B       		.uleb128 .LEHE42-.LEHB42
 2322 0115 8905     		.uleb128 .L104-.LFB1102
 2323 0117 01       		.uleb128 0x1
 2324 0118 BE01     		.uleb128 .LEHB43-.LFB1102
 2325 011a 4F       		.uleb128 .LEHE43-.LEHB43
 2326 011b E605     		.uleb128 .L106-.LFB1102
 2327 011d 01       		.uleb128 0x1
 2328 011e 8D02     		.uleb128 .LEHB44-.LFB1102
 2329 0120 5B       		.uleb128 .LEHE44-.LEHB44
 2330 0121 C306     		.uleb128 .L108-.LFB1102
 2331 0123 01       		.uleb128 0x1
 2332 0124 E802     		.uleb128 .LEHB45-.LFB1102
 2333 0126 4F       		.uleb128 .LEHE45-.LEHB45
 2334 0127 A007     		.uleb128 .L110-.LFB1102
 2335 0129 01       		.uleb128 0x1
 2336 012a B703     		.uleb128 .LEHB46-.LFB1102
 2337 012c 4F       		.uleb128 .LEHE46-.LEHB46
 2338 012d FD07     		.uleb128 .L112-.LFB1102
 2339 012f 01       		.uleb128 0x1
 2340 0130 8604     		.uleb128 .LEHB47-.LFB1102
 2341 0132 4F       		.uleb128 .LEHE47-.LEHB47
 2342 0133 D708     		.uleb128 .L114-.LFB1102
 2343 0135 01       		.uleb128 0x1
 2344 0136 DF04     		.uleb128 .LEHB48-.LFB1102
 2345 0138 05       		.uleb128 .LEHE48-.LEHB48
 2346 0139 00       		.uleb128 0
 2347 013a 00       		.uleb128 0
 2348 013b 9105     		.uleb128 .LEHB49-.LFB1102
 2349 013d 3E       		.uleb128 .LEHE49-.LEHB49
 2350 013e FC04     		.uleb128 .L105-.LFB1102
 2351 0140 00       		.uleb128 0
 2352 0141 CF05     		.uleb128 .LEHB50-.LFB1102
 2353 0143 05       		.uleb128 .LEHE50-.LEHB50
 2354 0144 A709     		.uleb128 .L103-.LFB1102
 2355 0146 00       		.uleb128 0
 2356 0147 EE05     		.uleb128 .LEHB51-.LFB1102
 2357 0149 3E       		.uleb128 .LEHE51-.LEHB51
 2358 014a D905     		.uleb128 .L107-.LFB1102
 2359 014c 00       		.uleb128 0
 2360 014d AC06     		.uleb128 .LEHB52-.LFB1102
 2361 014f 05       		.uleb128 .LEHE52-.LEHB52
 2362 0150 A709     		.uleb128 .L103-.LFB1102
 2363 0152 00       		.uleb128 0
 2364 0153 CB06     		.uleb128 .LEHB53-.LFB1102
 2365 0155 3E       		.uleb128 .LEHE53-.LEHB53
 2366 0156 B606     		.uleb128 .L109-.LFB1102
 2367 0158 00       		.uleb128 0
 2368 0159 8907     		.uleb128 .LEHB54-.LFB1102
 2369 015b 05       		.uleb128 .LEHE54-.LEHB54
 2370 015c A709     		.uleb128 .L103-.LFB1102
 2371 015e 00       		.uleb128 0
 2372 015f A807     		.uleb128 .LEHB55-.LFB1102
 2373 0161 3E       		.uleb128 .LEHE55-.LEHB55
 2374 0162 9307     		.uleb128 .L111-.LFB1102
 2375 0164 00       		.uleb128 0
 2376 0165 E607     		.uleb128 .LEHB56-.LFB1102
 2377 0167 05       		.uleb128 .LEHE56-.LEHB56
 2378 0168 A709     		.uleb128 .L103-.LFB1102
 2379 016a 00       		.uleb128 0
 2380 016b 8508     		.uleb128 .LEHB57-.LFB1102
 2381 016d 3E       		.uleb128 .LEHE57-.LEHB57
 2382 016e F007     		.uleb128 .L113-.LFB1102
 2383 0170 00       		.uleb128 0
 2384 0171 C308     		.uleb128 .LEHB58-.LFB1102
 2385 0173 05       		.uleb128 .LEHE58-.LEHB58
 2386 0174 A709     		.uleb128 .L103-.LFB1102
 2387 0176 00       		.uleb128 0
 2388 0177 DF08     		.uleb128 .LEHB59-.LFB1102
 2389 0179 3E       		.uleb128 .LEHE59-.LEHB59
 2390 017a CD08     		.uleb128 .L115-.LFB1102
 2391 017c 00       		.uleb128 0
 2392 017d 9D09     		.uleb128 .LEHB60-.LFB1102
 2393 017f 05       		.uleb128 .LEHE60-.LEHB60
 2394 0180 A709     		.uleb128 .L103-.LFB1102
 2395 0182 00       		.uleb128 0
 2396 0183 BF09     		.uleb128 .LEHB61-.LFB1102
 2397 0185 05       		.uleb128 .LEHE61-.LEHB61
 2398 0186 00       		.uleb128 0
 2399 0187 00       		.uleb128 0
 2400              	.LLSDACSE1102:
 2401 0188 01       		.byte	0x1
 2402 0189 00       		.byte	0
 2403 018a 0000     		.align 4
 2404 018c 00000000 		.long	0
 2405              	
 2406              	.LLSDATT1102:
 2407              		.text
 2409              		.section	.rodata
 2410              		.align 8
 2411              	.LC29:
 2412 0520 4E6F7469 		.string	"NotifiesReporterOfCheckFailureWithCorrectInfo"
 2412      66696573 
 2412      5265706F 
 2412      72746572 
 2412      4F664368 
 2413              		.text
 2414 0ef9 90       		.align 2
 2416              	_ZN12_GLOBAL__N_149TestNotifiesReporterOfCheckFailureWithCorrectInfoC2Ev:
 2417              	.LFB1104:
  82:TestTestResults.cpp **** 
  83:TestTestResults.cpp **** TEST(NotifiesReporterOfCheckFailureWithCorrectInfo)
 2418              		.loc 5 83 0
 2419              		.cfi_startproc
 2420 0efa 55       		pushq	%rbp
 2421              		.cfi_def_cfa_offset 16
 2422              		.cfi_offset 6, -16
 2423 0efb 4889E5   		movq	%rsp, %rbp
 2424              		.cfi_def_cfa_register 6
 2425 0efe 4883EC10 		subq	$16, %rsp
 2426 0f02 48897DF8 		movq	%rdi, -8(%rbp)
 2427              	.LBB30:
 2428              		.loc 5 83 0
 2429 0f06 E8000000 		call	_ZN13UnitTestSuite12GetSuiteNameEv
 2429      00
 2430 0f0b 4889C2   		movq	%rax, %rdx
 2431 0f0e 488B45F8 		movq	-8(%rbp), %rax
 2432 0f12 41B85300 		movl	$83, %r8d
 2432      0000
 2433 0f18 B9000000 		movl	$.LC2, %ecx
 2433      00
 2434 0f1d BE000000 		movl	$.LC29, %esi
 2434      00
 2435 0f22 4889C7   		movq	%rax, %rdi
 2436 0f25 E8000000 		call	_ZN8UnitTest4TestC2EPKcS2_S2_i
 2436      00
 2437 0f2a 488B45F8 		movq	-8(%rbp), %rax
 2438 0f2e 48C70000 		movq	$_ZTVN12_GLOBAL__N_149TestNotifiesReporterOfCheckFailureWithCorrectInfoE+16, (%rax)
 2438      000000
 2439              	.LBE30:
 2440 0f35 C9       		leave
 2441              		.cfi_def_cfa 7, 8
 2442 0f36 C3       		ret
 2443              		.cfi_endproc
 2444              	.LFE1104:
 2446              		.local	_ZN12_GLOBAL__N_157testNotifiesReporterOfCheckFailureWithCorrectInfoInstanceE
 2447              		.comm	_ZN12_GLOBAL__N_157testNotifiesReporterOfCheckFailureWithCorrectInfoInstanceE,56,32
 2448              		.local	_ZN12_GLOBAL__N_150adderNotifiesReporterOfCheckFailureWithCorrectInfoE
 2449              		.comm	_ZN12_GLOBAL__N_150adderNotifiesReporterOfCheckFailureWithCorrectInfoE,1,1
 2450 0f37 90       		.align 2
 2452              	_ZNK12_GLOBAL__N_149TestNotifiesReporterOfCheckFailureWithCorrectInfo7RunImplEv:
 2453              	.LFB1106:
  84:TestTestResults.cpp **** {
 2454              		.loc 5 84 0
 2455              		.cfi_startproc
 2456              		.cfi_personality 0x3,__gxx_personality_v0
 2457              		.cfi_lsda 0x3,.LLSDA1106
 2458 0f38 55       		pushq	%rbp
 2459              		.cfi_def_cfa_offset 16
 2460              		.cfi_offset 6, -16
 2461 0f39 4889E5   		movq	%rsp, %rbp
 2462              		.cfi_def_cfa_register 6
 2463 0f3c 53       		pushq	%rbx
 2464 0f3d 4881ECA8 		subq	$2216, %rsp
 2464      080000
 2465              		.cfi_offset 3, -24
 2466 0f44 4889BD58 		movq	%rdi, -2216(%rbp)
 2466      F7FFFF
 2467              		.loc 5 84 0
 2468 0f4b 64488B04 		movq	%fs:40, %rax
 2468      25280000 
 2468      00
 2469 0f54 488945E8 		movq	%rax, -24(%rbp)
 2470 0f58 31C0     		xorl	%eax, %eax
 2471              	.LBB31:
  85:TestTestResults.cpp ****     RecordingReporter reporter;
 2472              		.loc 5 85 0
 2473 0f5a 488D85B0 		leaq	-2128(%rbp), %rax
 2473      F7FFFF
 2474 0f61 4889C7   		movq	%rax, %rdi
 2475 0f64 E8000000 		call	_ZN17RecordingReporterC1Ev
 2475      00
  86:TestTestResults.cpp ****     TestResults results(&reporter);
 2476              		.loc 5 86 0
 2477 0f69 488D95B0 		leaq	-2128(%rbp), %rdx
 2477      F7FFFF
 2478 0f70 488D8570 		leaq	-2192(%rbp), %rax
 2478      F7FFFF
 2479 0f77 4889D6   		movq	%rdx, %rsi
 2480 0f7a 4889C7   		movq	%rax, %rdi
 2481              	.LEHB62:
 2482 0f7d E8000000 		call	_ZN8UnitTest11TestResultsC1EPNS_12TestReporterE
 2482      00
  87:TestTestResults.cpp **** 
  88:TestTestResults.cpp ****     results.OnTestFailure(details, "failurestring");
 2483              		.loc 5 88 0
 2484 0f82 488D8570 		leaq	-2192(%rbp), %rax
 2484      F7FFFF
 2485 0f89 BA000000 		movl	$.LC21, %edx
 2485      00
 2486 0f8e BE000000 		movl	$_ZN12_GLOBAL__N_1L7detailsE, %esi
 2486      00
 2487 0f93 4889C7   		movq	%rax, %rdi
 2488 0f96 E8000000 		call	_ZN8UnitTest11TestResults13OnTestFailureERKNS_11TestDetailsEPKc
 2488      00
 2489              	.LEHE62:
 2490              	.LEHB63:
  89:TestTestResults.cpp ****     CHECK_EQUAL (1, reporter.testFailedCount);
 2491              		.loc 5 89 0
 2492 0f9b E8000000 		call	_ZN8UnitTest11CurrentTest7DetailsEv
 2492      00
 2493 0fa0 488B08   		movq	(%rax), %rcx
 2494 0fa3 488D8590 		leaq	-2160(%rbp), %rax
 2494      F7FFFF
 2495 0faa BA590000 		movl	$89, %edx
 2495      00
 2496 0faf 4889CE   		movq	%rcx, %rsi
 2497 0fb2 4889C7   		movq	%rax, %rdi
 2498 0fb5 E8000000 		call	_ZN8UnitTest11TestDetailsC1ERKS0_i
 2498      00
 2499              		.loc 5 89 0 is_stmt 0 discriminator 2
 2500 0fba C7856CF7 		movl	$1, -2196(%rbp)
 2500      FFFF0100 
 2500      0000
 2501 0fc4 E8000000 		call	_ZN8UnitTest11CurrentTest7ResultsEv
 2501      00
 2502 0fc9 488B00   		movq	(%rax), %rax
 2503 0fcc 488D9590 		leaq	-2160(%rbp), %rdx
 2503      F7FFFF
 2504 0fd3 488D8DB0 		leaq	-2128(%rbp), %rcx
 2504      F7FFFF
 2505 0fda 488DB90C 		leaq	524(%rcx), %rdi
 2505      020000
 2506 0fe1 488DB56C 		leaq	-2196(%rbp), %rsi
 2506      F7FFFF
 2507 0fe8 4889D1   		movq	%rdx, %rcx
 2508 0feb 4889FA   		movq	%rdi, %rdx
 2509 0fee 4889C7   		movq	%rax, %rdi
 2510 0ff1 E8000000 		call	_ZN8UnitTest10CheckEqualIiiEEvRNS_11TestResultsERKT_RKT0_RKNS_11TestDetailsE
 2510      00
 2511              	.LEHE63:
 2512              	.L122:
 2513              	.LEHB64:
  90:TestTestResults.cpp **** 
  91:TestTestResults.cpp ****     CHECK_EQUAL ("filename", reporter.lastFailedFile);
 2514              		.loc 5 91 0 is_stmt 1
 2515 0ff6 E8000000 		call	_ZN8UnitTest11CurrentTest7DetailsEv
 2515      00
 2516 0ffb 488B08   		movq	(%rax), %rcx
 2517 0ffe 488D8590 		leaq	-2160(%rbp), %rax
 2517      F7FFFF
 2518 1005 BA5B0000 		movl	$91, %edx
 2518      00
 2519 100a 4889CE   		movq	%rcx, %rsi
 2520 100d 4889C7   		movq	%rax, %rdi
 2521 1010 E8000000 		call	_ZN8UnitTest11TestDetailsC1ERKS0_i
 2521      00
 2522              		.loc 5 91 0 is_stmt 0 discriminator 2
 2523 1015 E8000000 		call	_ZN8UnitTest11CurrentTest7ResultsEv
 2523      00
 2524 101a 488B00   		movq	(%rax), %rax
 2525 101d 488D9590 		leaq	-2160(%rbp), %rdx
 2525      F7FFFF
 2526 1024 488D8DB0 		leaq	-2128(%rbp), %rcx
 2526      F7FFFF
 2527 102b 488DB110 		leaq	528(%rcx), %rsi
 2527      020000
 2528 1032 4889D1   		movq	%rdx, %rcx
 2529 1035 4889F2   		movq	%rsi, %rdx
 2530 1038 BE000000 		movl	$.LC22, %esi
 2530      00
 2531 103d 4889C7   		movq	%rax, %rdi
 2532 1040 E8000000 		call	_ZN8UnitTest10CheckEqualERNS_11TestResultsEPKcPcRKNS_11TestDetailsE
 2532      00
 2533              	.LEHE64:
 2534              	.L125:
 2535              	.LEHB65:
  92:TestTestResults.cpp ****     CHECK_EQUAL (123, reporter.lastFailedLine);
 2536              		.loc 5 92 0 is_stmt 1
 2537 1045 E8000000 		call	_ZN8UnitTest11CurrentTest7DetailsEv
 2537      00
 2538 104a 488B08   		movq	(%rax), %rcx
 2539 104d 488D8590 		leaq	-2160(%rbp), %rax
 2539      F7FFFF
 2540 1054 BA5C0000 		movl	$92, %edx
 2540      00
 2541 1059 4889CE   		movq	%rcx, %rsi
 2542 105c 4889C7   		movq	%rax, %rdi
 2543 105f E8000000 		call	_ZN8UnitTest11TestDetailsC1ERKS0_i
 2543      00
 2544              		.loc 5 92 0 is_stmt 0 discriminator 2
 2545 1064 C7856CF7 		movl	$123, -2196(%rbp)
 2545      FFFF7B00 
 2545      0000
 2546 106e E8000000 		call	_ZN8UnitTest11CurrentTest7ResultsEv
 2546      00
 2547 1073 488B00   		movq	(%rax), %rax
 2548 1076 488D9590 		leaq	-2160(%rbp), %rdx
 2548      F7FFFF
 2549 107d 488D8DB0 		leaq	-2128(%rbp), %rcx
 2549      F7FFFF
 2550 1084 488DB910 		leaq	784(%rcx), %rdi
 2550      030000
 2551 108b 488DB56C 		leaq	-2196(%rbp), %rsi
 2551      F7FFFF
 2552 1092 4889D1   		movq	%rdx, %rcx
 2553 1095 4889FA   		movq	%rdi, %rdx
 2554 1098 4889C7   		movq	%rax, %rdi
 2555 109b E8000000 		call	_ZN8UnitTest10CheckEqualIiiEEvRNS_11TestResultsERKT_RKT0_RKNS_11TestDetailsE
 2555      00
 2556              	.LEHE65:
 2557              	.L128:
 2558              	.LEHB66:
  93:TestTestResults.cpp ****     CHECK_EQUAL ("testname", reporter.lastFailedTest);
 2559              		.loc 5 93 0 is_stmt 1
 2560 10a0 E8000000 		call	_ZN8UnitTest11CurrentTest7DetailsEv
 2560      00
 2561 10a5 488B08   		movq	(%rax), %rcx
 2562 10a8 488D8590 		leaq	-2160(%rbp), %rax
 2562      F7FFFF
 2563 10af BA5D0000 		movl	$93, %edx
 2563      00
 2564 10b4 4889CE   		movq	%rcx, %rsi
 2565 10b7 4889C7   		movq	%rax, %rdi
 2566 10ba E8000000 		call	_ZN8UnitTest11TestDetailsC1ERKS0_i
 2566      00
 2567              		.loc 5 93 0 is_stmt 0 discriminator 2
 2568 10bf E8000000 		call	_ZN8UnitTest11CurrentTest7ResultsEv
 2568      00
 2569 10c4 488B00   		movq	(%rax), %rax
 2570 10c7 488D9590 		leaq	-2160(%rbp), %rdx
 2570      F7FFFF
 2571 10ce 488D8DB0 		leaq	-2128(%rbp), %rcx
 2571      F7FFFF
 2572 10d5 488DB114 		leaq	1044(%rcx), %rsi
 2572      040000
 2573 10dc 4889D1   		movq	%rdx, %rcx
 2574 10df 4889F2   		movq	%rsi, %rdx
 2575 10e2 BE000000 		movl	$.LC16, %esi
 2575      00
 2576 10e7 4889C7   		movq	%rax, %rdi
 2577 10ea E8000000 		call	_ZN8UnitTest10CheckEqualERNS_11TestResultsEPKcPcRKNS_11TestDetailsE
 2577      00
 2578              	.LEHE66:
 2579              	.L131:
 2580              	.LEHB67:
  94:TestTestResults.cpp ****     CHECK_EQUAL ("suitename", reporter.lastFailedSuite);
 2581              		.loc 5 94 0 is_stmt 1
 2582 10ef E8000000 		call	_ZN8UnitTest11CurrentTest7DetailsEv
 2582      00
 2583 10f4 488B08   		movq	(%rax), %rcx
 2584 10f7 488D8590 		leaq	-2160(%rbp), %rax
 2584      F7FFFF
 2585 10fe BA5E0000 		movl	$94, %edx
 2585      00
 2586 1103 4889CE   		movq	%rcx, %rsi
 2587 1106 4889C7   		movq	%rax, %rdi
 2588 1109 E8000000 		call	_ZN8UnitTest11TestDetailsC1ERKS0_i
 2588      00
 2589              		.loc 5 94 0 is_stmt 0 discriminator 2
 2590 110e E8000000 		call	_ZN8UnitTest11CurrentTest7ResultsEv
 2590      00
 2591 1113 488B00   		movq	(%rax), %rax
 2592 1116 488D9590 		leaq	-2160(%rbp), %rdx
 2592      F7FFFF
 2593 111d 488D8DB0 		leaq	-2128(%rbp), %rcx
 2593      F7FFFF
 2594 1124 488DB114 		leaq	788(%rcx), %rsi
 2594      030000
 2595 112b 4889D1   		movq	%rdx, %rcx
 2596 112e 4889F2   		movq	%rsi, %rdx
 2597 1131 BE000000 		movl	$.LC15, %esi
 2597      00
 2598 1136 4889C7   		movq	%rax, %rdi
 2599 1139 E8000000 		call	_ZN8UnitTest10CheckEqualERNS_11TestResultsEPKcPcRKNS_11TestDetailsE
 2599      00
 2600              	.LEHE67:
 2601              	.L134:
 2602              	.LEHB68:
  95:TestTestResults.cpp ****     CHECK_EQUAL ("failurestring", reporter.lastFailedMessage);
 2603              		.loc 5 95 0 is_stmt 1
 2604 113e E8000000 		call	_ZN8UnitTest11CurrentTest7DetailsEv
 2604      00
 2605 1143 488B08   		movq	(%rax), %rcx
 2606 1146 488D8590 		leaq	-2160(%rbp), %rax
 2606      F7FFFF
 2607 114d BA5F0000 		movl	$95, %edx
 2607      00
 2608 1152 4889CE   		movq	%rcx, %rsi
 2609 1155 4889C7   		movq	%rax, %rdi
 2610 1158 E8000000 		call	_ZN8UnitTest11TestDetailsC1ERKS0_i
 2610      00
 2611              		.loc 5 95 0 is_stmt 0 discriminator 2
 2612 115d E8000000 		call	_ZN8UnitTest11CurrentTest7ResultsEv
 2612      00
 2613 1162 488B00   		movq	(%rax), %rax
 2614 1165 488D9590 		leaq	-2160(%rbp), %rdx
 2614      F7FFFF
 2615 116c 488D8DB0 		leaq	-2128(%rbp), %rcx
 2615      F7FFFF
 2616 1173 488DB114 		leaq	1300(%rcx), %rsi
 2616      050000
 2617 117a 4889D1   		movq	%rdx, %rcx
 2618 117d 4889F2   		movq	%rsi, %rdx
 2619 1180 BE000000 		movl	$.LC21, %esi
 2619      00
 2620 1185 4889C7   		movq	%rax, %rdi
 2621 1188 E8000000 		call	_ZN8UnitTest10CheckEqualERNS_11TestResultsEPKcPcRKNS_11TestDetailsE
 2621      00
 2622              	.LEHE68:
 2623              	.L137:
 2624              		.loc 5 95 0 discriminator 7
 2625 118d 488D85B0 		leaq	-2128(%rbp), %rax
 2625      F7FFFF
 2626 1194 4889C7   		movq	%rax, %rdi
 2627              	.LEHB69:
 2628 1197 E8000000 		call	_ZN17RecordingReporterD1Ev
 2628      00
 2629              	.LEHE69:
 2630              	.LBE31:
  96:TestTestResults.cpp **** }
 2631              		.loc 5 96 0 is_stmt 1 discriminator 7
 2632 119c 488B45E8 		movq	-24(%rbp), %rax
 2633 11a0 64483304 		xorq	%fs:40, %rax
 2633      25280000 
 2633      00
 2634 11a9 0F845202 		je	.L138
 2634      0000
 2635 11af E9480200 		jmp	.L152
 2635      00
 2636              	.L141:
 2637 11b4 4889C3   		movq	%rax, %rbx
 2638              	.LBB32:
  89:TestTestResults.cpp **** 
 2639              		.loc 5 89 0
 2640 11b7 E8000000 		call	__cxa_end_catch
 2640      00
 2641 11bc E9210200 		jmp	.L120
 2641      00
 2642              	.L140:
 2643 11c1 4889C7   		movq	%rax, %rdi
 2644 11c4 E8000000 		call	__cxa_begin_catch
 2644      00
 2645              	.LEHB70:
 2646 11c9 E8000000 		call	_ZN8UnitTest11CurrentTest7DetailsEv
 2646      00
 2647 11ce 488B08   		movq	(%rax), %rcx
 2648 11d1 488D8590 		leaq	-2160(%rbp), %rax
 2648      F7FFFF
 2649 11d8 BA590000 		movl	$89, %edx
 2649      00
 2650 11dd 4889CE   		movq	%rcx, %rsi
 2651 11e0 4889C7   		movq	%rax, %rdi
 2652 11e3 E8000000 		call	_ZN8UnitTest11TestDetailsC1ERKS0_i
 2652      00
  89:TestTestResults.cpp **** 
 2653              		.loc 5 89 0 is_stmt 0 discriminator 10
 2654 11e8 E8000000 		call	_ZN8UnitTest11CurrentTest7ResultsEv
 2654      00
 2655 11ed 488B00   		movq	(%rax), %rax
 2656 11f0 488D8D90 		leaq	-2160(%rbp), %rcx
 2656      F7FFFF
 2657 11f7 BA000000 		movl	$.LC23, %edx
 2657      00
 2658 11fc 4889CE   		movq	%rcx, %rsi
 2659 11ff 4889C7   		movq	%rax, %rdi
 2660 1202 E8000000 		call	_ZN8UnitTest11TestResults13OnTestFailureERKNS_11TestDetailsEPKc
 2660      00
 2661              	.LEHE70:
 2662              	.LEHB71:
  89:TestTestResults.cpp **** 
 2663              		.loc 5 89 0 discriminator 14
 2664 1207 E8000000 		call	__cxa_end_catch
 2664      00
 2665              	.LEHE71:
  89:TestTestResults.cpp **** 
 2666              		.loc 5 89 0
 2667 120c E9E5FDFF 		jmp	.L122
 2667      FF
 2668              	.L143:
 2669 1211 4889C3   		movq	%rax, %rbx
  91:TestTestResults.cpp ****     CHECK_EQUAL (123, reporter.lastFailedLine);
 2670              		.loc 5 91 0 is_stmt 1
 2671 1214 E8000000 		call	__cxa_end_catch
 2671      00
 2672 1219 E9C40100 		jmp	.L120
 2672      00
 2673              	.L142:
 2674 121e 4889C7   		movq	%rax, %rdi
 2675 1221 E8000000 		call	__cxa_begin_catch
 2675      00
 2676              	.LEHB72:
 2677 1226 E8000000 		call	_ZN8UnitTest11CurrentTest7DetailsEv
 2677      00
 2678 122b 488B08   		movq	(%rax), %rcx
 2679 122e 488D8590 		leaq	-2160(%rbp), %rax
 2679      F7FFFF
 2680 1235 BA5B0000 		movl	$91, %edx
 2680      00
 2681 123a 4889CE   		movq	%rcx, %rsi
 2682 123d 4889C7   		movq	%rax, %rdi
 2683 1240 E8000000 		call	_ZN8UnitTest11TestDetailsC1ERKS0_i
 2683      00
  91:TestTestResults.cpp ****     CHECK_EQUAL (123, reporter.lastFailedLine);
 2684              		.loc 5 91 0 is_stmt 0 discriminator 10
 2685 1245 E8000000 		call	_ZN8UnitTest11CurrentTest7ResultsEv
 2685      00
 2686 124a 488B00   		movq	(%rax), %rax
 2687 124d 488D8D90 		leaq	-2160(%rbp), %rcx
 2687      F7FFFF
 2688 1254 BA000000 		movl	$.LC24, %edx
 2688      00
 2689 1259 4889CE   		movq	%rcx, %rsi
 2690 125c 4889C7   		movq	%rax, %rdi
 2691 125f E8000000 		call	_ZN8UnitTest11TestResults13OnTestFailureERKNS_11TestDetailsEPKc
 2691      00
 2692              	.LEHE72:
 2693              	.LEHB73:
  91:TestTestResults.cpp ****     CHECK_EQUAL (123, reporter.lastFailedLine);
 2694              		.loc 5 91 0 discriminator 14
 2695 1264 E8000000 		call	__cxa_end_catch
 2695      00
 2696              	.LEHE73:
  91:TestTestResults.cpp ****     CHECK_EQUAL (123, reporter.lastFailedLine);
 2697              		.loc 5 91 0
 2698 1269 E9D7FDFF 		jmp	.L125
 2698      FF
 2699              	.L145:
 2700 126e 4889C3   		movq	%rax, %rbx
  92:TestTestResults.cpp ****     CHECK_EQUAL ("testname", reporter.lastFailedTest);
 2701              		.loc 5 92 0 is_stmt 1
 2702 1271 E8000000 		call	__cxa_end_catch
 2702      00
 2703 1276 E9670100 		jmp	.L120
 2703      00
 2704              	.L144:
 2705 127b 4889C7   		movq	%rax, %rdi
 2706 127e E8000000 		call	__cxa_begin_catch
 2706      00
 2707              	.LEHB74:
 2708 1283 E8000000 		call	_ZN8UnitTest11CurrentTest7DetailsEv
 2708      00
 2709 1288 488B08   		movq	(%rax), %rcx
 2710 128b 488D8590 		leaq	-2160(%rbp), %rax
 2710      F7FFFF
 2711 1292 BA5C0000 		movl	$92, %edx
 2711      00
 2712 1297 4889CE   		movq	%rcx, %rsi
 2713 129a 4889C7   		movq	%rax, %rdi
 2714 129d E8000000 		call	_ZN8UnitTest11TestDetailsC1ERKS0_i
 2714      00
  92:TestTestResults.cpp ****     CHECK_EQUAL ("testname", reporter.lastFailedTest);
 2715              		.loc 5 92 0 is_stmt 0 discriminator 10
 2716 12a2 E8000000 		call	_ZN8UnitTest11CurrentTest7ResultsEv
 2716      00
 2717 12a7 488B00   		movq	(%rax), %rax
 2718 12aa 488D8D90 		leaq	-2160(%rbp), %rcx
 2718      F7FFFF
 2719 12b1 BA000000 		movl	$.LC25, %edx
 2719      00
 2720 12b6 4889CE   		movq	%rcx, %rsi
 2721 12b9 4889C7   		movq	%rax, %rdi
 2722 12bc E8000000 		call	_ZN8UnitTest11TestResults13OnTestFailureERKNS_11TestDetailsEPKc
 2722      00
 2723              	.LEHE74:
 2724              	.LEHB75:
  92:TestTestResults.cpp ****     CHECK_EQUAL ("testname", reporter.lastFailedTest);
 2725              		.loc 5 92 0 discriminator 14
 2726 12c1 E8000000 		call	__cxa_end_catch
 2726      00
 2727              	.LEHE75:
  92:TestTestResults.cpp ****     CHECK_EQUAL ("testname", reporter.lastFailedTest);
 2728              		.loc 5 92 0
 2729 12c6 E9D5FDFF 		jmp	.L128
 2729      FF
 2730              	.L147:
 2731 12cb 4889C3   		movq	%rax, %rbx
  93:TestTestResults.cpp ****     CHECK_EQUAL ("suitename", reporter.lastFailedSuite);
 2732              		.loc 5 93 0 is_stmt 1
 2733 12ce E8000000 		call	__cxa_end_catch
 2733      00
 2734 12d3 E90A0100 		jmp	.L120
 2734      00
 2735              	.L146:
 2736 12d8 4889C7   		movq	%rax, %rdi
 2737 12db E8000000 		call	__cxa_begin_catch
 2737      00
 2738              	.LEHB76:
 2739 12e0 E8000000 		call	_ZN8UnitTest11CurrentTest7DetailsEv
 2739      00
 2740 12e5 488B08   		movq	(%rax), %rcx
 2741 12e8 488D8590 		leaq	-2160(%rbp), %rax
 2741      F7FFFF
 2742 12ef BA5D0000 		movl	$93, %edx
 2742      00
 2743 12f4 4889CE   		movq	%rcx, %rsi
 2744 12f7 4889C7   		movq	%rax, %rdi
 2745 12fa E8000000 		call	_ZN8UnitTest11TestDetailsC1ERKS0_i
 2745      00
  93:TestTestResults.cpp ****     CHECK_EQUAL ("suitename", reporter.lastFailedSuite);
 2746              		.loc 5 93 0 is_stmt 0 discriminator 10
 2747 12ff E8000000 		call	_ZN8UnitTest11CurrentTest7ResultsEv
 2747      00
 2748 1304 488B00   		movq	(%rax), %rax
 2749 1307 488D8D90 		leaq	-2160(%rbp), %rcx
 2749      F7FFFF
 2750 130e BA000000 		movl	$.LC27, %edx
 2750      00
 2751 1313 4889CE   		movq	%rcx, %rsi
 2752 1316 4889C7   		movq	%rax, %rdi
 2753 1319 E8000000 		call	_ZN8UnitTest11TestResults13OnTestFailureERKNS_11TestDetailsEPKc
 2753      00
 2754              	.LEHE76:
 2755              	.LEHB77:
  93:TestTestResults.cpp ****     CHECK_EQUAL ("suitename", reporter.lastFailedSuite);
 2756              		.loc 5 93 0 discriminator 14
 2757 131e E8000000 		call	__cxa_end_catch
 2757      00
 2758              	.LEHE77:
  93:TestTestResults.cpp ****     CHECK_EQUAL ("suitename", reporter.lastFailedSuite);
 2759              		.loc 5 93 0
 2760 1323 E9C7FDFF 		jmp	.L131
 2760      FF
 2761              	.L149:
 2762 1328 4889C3   		movq	%rax, %rbx
  94:TestTestResults.cpp ****     CHECK_EQUAL ("failurestring", reporter.lastFailedMessage);
 2763              		.loc 5 94 0 is_stmt 1
 2764 132b E8000000 		call	__cxa_end_catch
 2764      00
 2765 1330 E9AD0000 		jmp	.L120
 2765      00
 2766              	.L148:
 2767 1335 4889C7   		movq	%rax, %rdi
 2768 1338 E8000000 		call	__cxa_begin_catch
 2768      00
 2769              	.LEHB78:
 2770 133d E8000000 		call	_ZN8UnitTest11CurrentTest7DetailsEv
 2770      00
 2771 1342 488B08   		movq	(%rax), %rcx
 2772 1345 488D8590 		leaq	-2160(%rbp), %rax
 2772      F7FFFF
 2773 134c BA5E0000 		movl	$94, %edx
 2773      00
 2774 1351 4889CE   		movq	%rcx, %rsi
 2775 1354 4889C7   		movq	%rax, %rdi
 2776 1357 E8000000 		call	_ZN8UnitTest11TestDetailsC1ERKS0_i
 2776      00
  94:TestTestResults.cpp ****     CHECK_EQUAL ("failurestring", reporter.lastFailedMessage);
 2777              		.loc 5 94 0 is_stmt 0 discriminator 10
 2778 135c E8000000 		call	_ZN8UnitTest11CurrentTest7ResultsEv
 2778      00
 2779 1361 488B00   		movq	(%rax), %rax
 2780 1364 488D8D90 		leaq	-2160(%rbp), %rcx
 2780      F7FFFF
 2781 136b BA000000 		movl	$.LC26, %edx
 2781      00
 2782 1370 4889CE   		movq	%rcx, %rsi
 2783 1373 4889C7   		movq	%rax, %rdi
 2784 1376 E8000000 		call	_ZN8UnitTest11TestResults13OnTestFailureERKNS_11TestDetailsEPKc
 2784      00
 2785              	.LEHE78:
 2786              	.LEHB79:
  94:TestTestResults.cpp ****     CHECK_EQUAL ("failurestring", reporter.lastFailedMessage);
 2787              		.loc 5 94 0 discriminator 14
 2788 137b E8000000 		call	__cxa_end_catch
 2788      00
 2789              	.LEHE79:
  94:TestTestResults.cpp ****     CHECK_EQUAL ("failurestring", reporter.lastFailedMessage);
 2790              		.loc 5 94 0
 2791 1380 E9B9FDFF 		jmp	.L134
 2791      FF
 2792              	.L151:
 2793 1385 4889C3   		movq	%rax, %rbx
  95:TestTestResults.cpp **** }
 2794              		.loc 5 95 0 is_stmt 1
 2795 1388 E8000000 		call	__cxa_end_catch
 2795      00
 2796 138d EB53     		jmp	.L120
 2797              	.L150:
 2798 138f 4889C7   		movq	%rax, %rdi
 2799 1392 E8000000 		call	__cxa_begin_catch
 2799      00
 2800              	.LEHB80:
 2801 1397 E8000000 		call	_ZN8UnitTest11CurrentTest7DetailsEv
 2801      00
 2802 139c 488B08   		movq	(%rax), %rcx
 2803 139f 488D8590 		leaq	-2160(%rbp), %rax
 2803      F7FFFF
 2804 13a6 BA5F0000 		movl	$95, %edx
 2804      00
 2805 13ab 4889CE   		movq	%rcx, %rsi
 2806 13ae 4889C7   		movq	%rax, %rdi
 2807 13b1 E8000000 		call	_ZN8UnitTest11TestDetailsC1ERKS0_i
 2807      00
  95:TestTestResults.cpp **** }
 2808              		.loc 5 95 0 is_stmt 0 discriminator 11
 2809 13b6 E8000000 		call	_ZN8UnitTest11CurrentTest7ResultsEv
 2809      00
 2810 13bb 488B00   		movq	(%rax), %rax
 2811 13be 488D8D90 		leaq	-2160(%rbp), %rcx
 2811      F7FFFF
 2812 13c5 BA000000 		movl	$.LC28, %edx
 2812      00
 2813 13ca 4889CE   		movq	%rcx, %rsi
 2814 13cd 4889C7   		movq	%rax, %rdi
 2815 13d0 E8000000 		call	_ZN8UnitTest11TestResults13OnTestFailureERKNS_11TestDetailsEPKc
 2815      00
 2816              	.LEHE80:
 2817              	.LEHB81:
  95:TestTestResults.cpp **** }
 2818              		.loc 5 95 0 discriminator 15
 2819 13d5 E8000000 		call	__cxa_end_catch
 2819      00
 2820              	.LEHE81:
  95:TestTestResults.cpp **** }
 2821              		.loc 5 95 0
 2822 13da E9AEFDFF 		jmp	.L137
 2822      FF
 2823              	.L139:
 2824 13df 4889C3   		movq	%rax, %rbx
 2825              	.L120:
  95:TestTestResults.cpp **** }
 2826              		.loc 5 95 0 discriminator 16
 2827 13e2 488D85B0 		leaq	-2128(%rbp), %rax
 2827      F7FFFF
 2828 13e9 4889C7   		movq	%rax, %rdi
 2829 13ec E8000000 		call	_ZN17RecordingReporterD1Ev
 2829      00
 2830 13f1 4889D8   		movq	%rbx, %rax
 2831 13f4 4889C7   		movq	%rax, %rdi
 2832              	.LEHB82:
 2833 13f7 E8000000 		call	_Unwind_Resume
 2833      00
 2834              	.LEHE82:
 2835              	.L152:
 2836              	.LBE32:
 2837              		.loc 5 96 0 is_stmt 1
 2838 13fc E8000000 		call	__stack_chk_fail
 2838      00
 2839              	.L138:
 2840 1401 4881C4A8 		addq	$2216, %rsp
 2840      080000
 2841 1408 5B       		popq	%rbx
 2842 1409 5D       		popq	%rbp
 2843              		.cfi_def_cfa 7, 8
 2844 140a C3       		ret
 2845              		.cfi_endproc
 2846              	.LFE1106:
 2847              		.section	.gcc_except_table
 2848              		.align 4
 2849              	.LLSDA1106:
 2850 0190 FF       		.byte	0xff
 2851 0191 03       		.byte	0x3
 2852 0192 8401     		.uleb128 .LLSDATT1106-.LLSDATTD1106
 2853              	.LLSDATTD1106:
 2854 0194 01       		.byte	0x1
 2855 0195 7A       		.uleb128 .LLSDACSE1106-.LLSDACSB1106
 2856              	.LLSDACSB1106:
 2857 0196 45       		.uleb128 .LEHB62-.LFB1106
 2858 0197 1E       		.uleb128 .LEHE62-.LEHB62
 2859 0198 A709     		.uleb128 .L139-.LFB1106
 2860 019a 00       		.uleb128 0
 2861 019b 63       		.uleb128 .LEHB63-.LFB1106
 2862 019c 5B       		.uleb128 .LEHE63-.LEHB63
 2863 019d 8905     		.uleb128 .L140-.LFB1106
 2864 019f 01       		.uleb128 0x1
 2865 01a0 BE01     		.uleb128 .LEHB64-.LFB1106
 2866 01a2 4F       		.uleb128 .LEHE64-.LEHB64
 2867 01a3 E605     		.uleb128 .L142-.LFB1106
 2868 01a5 01       		.uleb128 0x1
 2869 01a6 8D02     		.uleb128 .LEHB65-.LFB1106
 2870 01a8 5B       		.uleb128 .LEHE65-.LEHB65
 2871 01a9 C306     		.uleb128 .L144-.LFB1106
 2872 01ab 01       		.uleb128 0x1
 2873 01ac E802     		.uleb128 .LEHB66-.LFB1106
 2874 01ae 4F       		.uleb128 .LEHE66-.LEHB66
 2875 01af A007     		.uleb128 .L146-.LFB1106
 2876 01b1 01       		.uleb128 0x1
 2877 01b2 B703     		.uleb128 .LEHB67-.LFB1106
 2878 01b4 4F       		.uleb128 .LEHE67-.LEHB67
 2879 01b5 FD07     		.uleb128 .L148-.LFB1106
 2880 01b7 01       		.uleb128 0x1
 2881 01b8 8604     		.uleb128 .LEHB68-.LFB1106
 2882 01ba 4F       		.uleb128 .LEHE68-.LEHB68
 2883 01bb D708     		.uleb128 .L150-.LFB1106
 2884 01bd 01       		.uleb128 0x1
 2885 01be DF04     		.uleb128 .LEHB69-.LFB1106
 2886 01c0 05       		.uleb128 .LEHE69-.LEHB69
 2887 01c1 00       		.uleb128 0
 2888 01c2 00       		.uleb128 0
 2889 01c3 9105     		.uleb128 .LEHB70-.LFB1106
 2890 01c5 3E       		.uleb128 .LEHE70-.LEHB70
 2891 01c6 FC04     		.uleb128 .L141-.LFB1106
 2892 01c8 00       		.uleb128 0
 2893 01c9 CF05     		.uleb128 .LEHB71-.LFB1106
 2894 01cb 05       		.uleb128 .LEHE71-.LEHB71
 2895 01cc A709     		.uleb128 .L139-.LFB1106
 2896 01ce 00       		.uleb128 0
 2897 01cf EE05     		.uleb128 .LEHB72-.LFB1106
 2898 01d1 3E       		.uleb128 .LEHE72-.LEHB72
 2899 01d2 D905     		.uleb128 .L143-.LFB1106
 2900 01d4 00       		.uleb128 0
 2901 01d5 AC06     		.uleb128 .LEHB73-.LFB1106
 2902 01d7 05       		.uleb128 .LEHE73-.LEHB73
 2903 01d8 A709     		.uleb128 .L139-.LFB1106
 2904 01da 00       		.uleb128 0
 2905 01db CB06     		.uleb128 .LEHB74-.LFB1106
 2906 01dd 3E       		.uleb128 .LEHE74-.LEHB74
 2907 01de B606     		.uleb128 .L145-.LFB1106
 2908 01e0 00       		.uleb128 0
 2909 01e1 8907     		.uleb128 .LEHB75-.LFB1106
 2910 01e3 05       		.uleb128 .LEHE75-.LEHB75
 2911 01e4 A709     		.uleb128 .L139-.LFB1106
 2912 01e6 00       		.uleb128 0
 2913 01e7 A807     		.uleb128 .LEHB76-.LFB1106
 2914 01e9 3E       		.uleb128 .LEHE76-.LEHB76
 2915 01ea 9307     		.uleb128 .L147-.LFB1106
 2916 01ec 00       		.uleb128 0
 2917 01ed E607     		.uleb128 .LEHB77-.LFB1106
 2918 01ef 05       		.uleb128 .LEHE77-.LEHB77
 2919 01f0 A709     		.uleb128 .L139-.LFB1106
 2920 01f2 00       		.uleb128 0
 2921 01f3 8508     		.uleb128 .LEHB78-.LFB1106
 2922 01f5 3E       		.uleb128 .LEHE78-.LEHB78
 2923 01f6 F007     		.uleb128 .L149-.LFB1106
 2924 01f8 00       		.uleb128 0
 2925 01f9 C308     		.uleb128 .LEHB79-.LFB1106
 2926 01fb 05       		.uleb128 .LEHE79-.LEHB79
 2927 01fc A709     		.uleb128 .L139-.LFB1106
 2928 01fe 00       		.uleb128 0
 2929 01ff DF08     		.uleb128 .LEHB80-.LFB1106
 2930 0201 3E       		.uleb128 .LEHE80-.LEHB80
 2931 0202 CD08     		.uleb128 .L151-.LFB1106
 2932 0204 00       		.uleb128 0
 2933 0205 9D09     		.uleb128 .LEHB81-.LFB1106
 2934 0207 05       		.uleb128 .LEHE81-.LEHB81
 2935 0208 A709     		.uleb128 .L139-.LFB1106
 2936 020a 00       		.uleb128 0
 2937 020b BF09     		.uleb128 .LEHB82-.LFB1106
 2938 020d 05       		.uleb128 .LEHE82-.LEHB82
 2939 020e 00       		.uleb128 0
 2940 020f 00       		.uleb128 0
 2941              	.LLSDACSE1106:
 2942 0210 01       		.byte	0x1
 2943 0211 00       		.byte	0
 2944 0212 0000     		.align 4
 2945 0214 00000000 		.long	0
 2946              	
 2947              	.LLSDATT1106:
 2948              		.text
 2950              		.section	.rodata
 2951              	.LC30:
 2952 054e 4E6F7469 		.string	"NotifiesReporterOfTestEnd"
 2952      66696573 
 2952      5265706F 
 2952      72746572 
 2952      4F665465 
 2953              		.text
 2954 140b 90       		.align 2
 2956              	_ZN12_GLOBAL__N_129TestNotifiesReporterOfTestEndC2Ev:
 2957              	.LFB1108:
  97:TestTestResults.cpp **** 
  98:TestTestResults.cpp **** TEST(NotifiesReporterOfTestEnd)
 2958              		.loc 5 98 0
 2959              		.cfi_startproc
 2960 140c 55       		pushq	%rbp
 2961              		.cfi_def_cfa_offset 16
 2962              		.cfi_offset 6, -16
 2963 140d 4889E5   		movq	%rsp, %rbp
 2964              		.cfi_def_cfa_register 6
 2965 1410 4883EC10 		subq	$16, %rsp
 2966 1414 48897DF8 		movq	%rdi, -8(%rbp)
 2967              	.LBB33:
 2968              		.loc 5 98 0
 2969 1418 E8000000 		call	_ZN13UnitTestSuite12GetSuiteNameEv
 2969      00
 2970 141d 4889C2   		movq	%rax, %rdx
 2971 1420 488B45F8 		movq	-8(%rbp), %rax
 2972 1424 41B86200 		movl	$98, %r8d
 2972      0000
 2973 142a B9000000 		movl	$.LC2, %ecx
 2973      00
 2974 142f BE000000 		movl	$.LC30, %esi
 2974      00
 2975 1434 4889C7   		movq	%rax, %rdi
 2976 1437 E8000000 		call	_ZN8UnitTest4TestC2EPKcS2_S2_i
 2976      00
 2977 143c 488B45F8 		movq	-8(%rbp), %rax
 2978 1440 48C70000 		movq	$_ZTVN12_GLOBAL__N_129TestNotifiesReporterOfTestEndE+16, (%rax)
 2978      000000
 2979              	.LBE33:
 2980 1447 C9       		leave
 2981              		.cfi_def_cfa 7, 8
 2982 1448 C3       		ret
 2983              		.cfi_endproc
 2984              	.LFE1108:
 2986              		.local	_ZN12_GLOBAL__N_137testNotifiesReporterOfTestEndInstanceE
 2987              		.comm	_ZN12_GLOBAL__N_137testNotifiesReporterOfTestEndInstanceE,56,32
 2988              		.local	_ZN12_GLOBAL__N_130adderNotifiesReporterOfTestEndE
 2989              		.comm	_ZN12_GLOBAL__N_130adderNotifiesReporterOfTestEndE,1,1
 2990              		.section	.rodata
 2991              		.align 8
 2992              	.LC33:
 2993 0568 556E6861 		.string	"Unhandled exception in CHECK_EQUAL(1, reporter.testFinishedCount)"
 2993      6E646C65 
 2993      64206578 
 2993      63657074 
 2993      696F6E20 
 2994 05aa 00000000 		.align 8
 2994      0000
 2995              	.LC34:
 2996 05b0 556E6861 		.string	"Unhandled exception in CHECK_EQUAL(\"testname\", reporter.lastFinishedTest)"
 2996      6E646C65 
 2996      64206578 
 2996      63657074 
 2996      696F6E20 
 2997 05fa 00000000 		.align 8
 2997      0000
 2998              	.LC35:
 2999 0600 556E6861 		.string	"Unhandled exception in CHECK_EQUAL(\"suitename\", reporter.lastFinishedSuite)"
 2999      6E646C65 
 2999      64206578 
 2999      63657074 
 2999      696F6E20 
 3000 064c 00000000 		.align 8
 3001              	.LC36:
 3002 0650 556E6861 		.string	"Unhandled exception in CHECK_CLOSE(0.1234f, reporter.lastFinishedTestTime)"
 3002      6E646C65 
 3002      64206578 
 3002      63657074 
 3002      696F6E20 
 3003              		.text
 3004 1449 90       		.align 2
 3006              	_ZNK12_GLOBAL__N_129TestNotifiesReporterOfTestEnd7RunImplEv:
 3007              	.LFB1110:
  99:TestTestResults.cpp **** {
 3008              		.loc 5 99 0
 3009              		.cfi_startproc
 3010              		.cfi_personality 0x3,__gxx_personality_v0
 3011              		.cfi_lsda 0x3,.LLSDA1110
 3012 144a 55       		pushq	%rbp
 3013              		.cfi_def_cfa_offset 16
 3014              		.cfi_offset 6, -16
 3015 144b 4889E5   		movq	%rsp, %rbp
 3016              		.cfi_def_cfa_register 6
 3017 144e 53       		pushq	%rbx
 3018 144f 4881ECA8 		subq	$2216, %rsp
 3018      080000
 3019              		.cfi_offset 3, -24
 3020 1456 4889BD58 		movq	%rdi, -2216(%rbp)
 3020      F7FFFF
 3021              		.loc 5 99 0
 3022 145d 64488B04 		movq	%fs:40, %rax
 3022      25280000 
 3022      00
 3023 1466 488945E8 		movq	%rax, -24(%rbp)
 3024 146a 31C0     		xorl	%eax, %eax
 3025              	.LBB34:
 100:TestTestResults.cpp ****     RecordingReporter reporter;
 3026              		.loc 5 100 0
 3027 146c 488D85B0 		leaq	-2128(%rbp), %rax
 3027      F7FFFF
 3028 1473 4889C7   		movq	%rax, %rdi
 3029 1476 E8000000 		call	_ZN17RecordingReporterC1Ev
 3029      00
 101:TestTestResults.cpp ****     TestResults results(&reporter);
 3030              		.loc 5 101 0
 3031 147b 488D95B0 		leaq	-2128(%rbp), %rdx
 3031      F7FFFF
 3032 1482 488D8570 		leaq	-2192(%rbp), %rax
 3032      F7FFFF
 3033 1489 4889D6   		movq	%rdx, %rsi
 3034 148c 4889C7   		movq	%rax, %rdi
 3035              	.LEHB83:
 3036 148f E8000000 		call	_ZN8UnitTest11TestResultsC1EPNS_12TestReporterE
 3036      00
 102:TestTestResults.cpp **** 
 103:TestTestResults.cpp ****     results.OnTestFinish(details, 0.1234f);
 3037              		.loc 5 103 0
 3038 1494 488D8570 		leaq	-2192(%rbp), %rax
 3038      F7FFFF
 3039 149b F30F1005 		movss	.LC31(%rip), %xmm0
 3039      00000000 
 3040 14a3 BE000000 		movl	$_ZN12_GLOBAL__N_1L7detailsE, %esi
 3040      00
 3041 14a8 4889C7   		movq	%rax, %rdi
 3042 14ab E8000000 		call	_ZN8UnitTest11TestResults12OnTestFinishERKNS_11TestDetailsEf
 3042      00
 3043              	.LEHE83:
 3044              	.LEHB84:
 104:TestTestResults.cpp ****     CHECK_EQUAL (1, reporter.testFinishedCount);
 3045              		.loc 5 104 0
 3046 14b0 E8000000 		call	_ZN8UnitTest11CurrentTest7DetailsEv
 3046      00
 3047 14b5 488B08   		movq	(%rax), %rcx
 3048 14b8 488D8590 		leaq	-2160(%rbp), %rax
 3048      F7FFFF
 3049 14bf BA680000 		movl	$104, %edx
 3049      00
 3050 14c4 4889CE   		movq	%rcx, %rsi
 3051 14c7 4889C7   		movq	%rax, %rdi
 3052 14ca E8000000 		call	_ZN8UnitTest11TestDetailsC1ERKS0_i
 3052      00
 3053              		.loc 5 104 0 is_stmt 0 discriminator 2
 3054 14cf C7856CF7 		movl	$1, -2196(%rbp)
 3054      FFFF0100 
 3054      0000
 3055 14d9 E8000000 		call	_ZN8UnitTest11CurrentTest7ResultsEv
 3055      00
 3056 14de 488B00   		movq	(%rax), %rax
 3057 14e1 488D9590 		leaq	-2160(%rbp), %rdx
 3057      F7FFFF
 3058 14e8 488D8DB0 		leaq	-2128(%rbp), %rcx
 3058      F7FFFF
 3059 14ef 488DB914 		leaq	1556(%rcx), %rdi
 3059      060000
 3060 14f6 488DB56C 		leaq	-2196(%rbp), %rsi
 3060      F7FFFF
 3061 14fd 4889D1   		movq	%rdx, %rcx
 3062 1500 4889FA   		movq	%rdi, %rdx
 3063 1503 4889C7   		movq	%rax, %rdi
 3064 1506 E8000000 		call	_ZN8UnitTest10CheckEqualIiiEEvRNS_11TestResultsERKT_RKT0_RKNS_11TestDetailsE
 3064      00
 3065              	.LEHE84:
 3066              	.L158:
 3067              	.LEHB85:
 105:TestTestResults.cpp ****     CHECK_EQUAL ("testname", reporter.lastFinishedTest);
 3068              		.loc 5 105 0 is_stmt 1
 3069 150b E8000000 		call	_ZN8UnitTest11CurrentTest7DetailsEv
 3069      00
 3070 1510 488B08   		movq	(%rax), %rcx
 3071 1513 488D8590 		leaq	-2160(%rbp), %rax
 3071      F7FFFF
 3072 151a BA690000 		movl	$105, %edx
 3072      00
 3073 151f 4889CE   		movq	%rcx, %rsi
 3074 1522 4889C7   		movq	%rax, %rdi
 3075 1525 E8000000 		call	_ZN8UnitTest11TestDetailsC1ERKS0_i
 3075      00
 3076              		.loc 5 105 0 is_stmt 0 discriminator 2
 3077 152a E8000000 		call	_ZN8UnitTest11CurrentTest7ResultsEv
 3077      00
 3078 152f 488B00   		movq	(%rax), %rax
 3079 1532 488D9590 		leaq	-2160(%rbp), %rdx
 3079      F7FFFF
 3080 1539 488D8DB0 		leaq	-2128(%rbp), %rcx
 3080      F7FFFF
 3081 1540 488DB118 		leaq	1816(%rcx), %rsi
 3081      070000
 3082 1547 4889D1   		movq	%rdx, %rcx
 3083 154a 4889F2   		movq	%rsi, %rdx
 3084 154d BE000000 		movl	$.LC16, %esi
 3084      00
 3085 1552 4889C7   		movq	%rax, %rdi
 3086 1555 E8000000 		call	_ZN8UnitTest10CheckEqualERNS_11TestResultsEPKcPcRKNS_11TestDetailsE
 3086      00
 3087              	.LEHE85:
 3088              	.L161:
 3089              	.LEHB86:
 106:TestTestResults.cpp ****     CHECK_EQUAL ("suitename", reporter.lastFinishedSuite);
 3090              		.loc 5 106 0 is_stmt 1
 3091 155a E8000000 		call	_ZN8UnitTest11CurrentTest7DetailsEv
 3091      00
 3092 155f 488B08   		movq	(%rax), %rcx
 3093 1562 488D8590 		leaq	-2160(%rbp), %rax
 3093      F7FFFF
 3094 1569 BA6A0000 		movl	$106, %edx
 3094      00
 3095 156e 4889CE   		movq	%rcx, %rsi
 3096 1571 4889C7   		movq	%rax, %rdi
 3097 1574 E8000000 		call	_ZN8UnitTest11TestDetailsC1ERKS0_i
 3097      00
 3098              		.loc 5 106 0 is_stmt 0 discriminator 2
 3099 1579 E8000000 		call	_ZN8UnitTest11CurrentTest7ResultsEv
 3099      00
 3100 157e 488B00   		movq	(%rax), %rax
 3101 1581 488D9590 		leaq	-2160(%rbp), %rdx
 3101      F7FFFF
 3102 1588 488D8DB0 		leaq	-2128(%rbp), %rcx
 3102      F7FFFF
 3103 158f 488DB118 		leaq	1560(%rcx), %rsi
 3103      060000
 3104 1596 4889D1   		movq	%rdx, %rcx
 3105 1599 4889F2   		movq	%rsi, %rdx
 3106 159c BE000000 		movl	$.LC15, %esi
 3106      00
 3107 15a1 4889C7   		movq	%rax, %rdi
 3108 15a4 E8000000 		call	_ZN8UnitTest10CheckEqualERNS_11TestResultsEPKcPcRKNS_11TestDetailsE
 3108      00
 3109              	.LEHE86:
 3110              	.L164:
 3111              	.LEHB87:
 107:TestTestResults.cpp ****     CHECK_CLOSE (0.1234f, reporter.lastFinishedTestTime, 0.0001f);
 3112              		.loc 5 107 0 is_stmt 1
 3113 15a9 E8000000 		call	_ZN8UnitTest11CurrentTest7DetailsEv
 3113      00
 3114 15ae 488B08   		movq	(%rax), %rcx
 3115 15b1 488D8590 		leaq	-2160(%rbp), %rax
 3115      F7FFFF
 3116 15b8 BA6B0000 		movl	$107, %edx
 3116      00
 3117 15bd 4889CE   		movq	%rcx, %rsi
 3118 15c0 4889C7   		movq	%rax, %rdi
 3119 15c3 E8000000 		call	_ZN8UnitTest11TestDetailsC1ERKS0_i
 3119      00
 3120              		.loc 5 107 0 is_stmt 0 discriminator 2
 3121 15c8 8B050000 		movl	.LC32(%rip), %eax
 3121      0000
 3122 15ce 89856CF7 		movl	%eax, -2196(%rbp)
 3122      FFFF
 3123 15d4 8B050000 		movl	.LC31(%rip), %eax
 3123      0000
 3124 15da 898568F7 		movl	%eax, -2200(%rbp)
 3124      FFFF
 3125 15e0 E8000000 		call	_ZN8UnitTest11CurrentTest7ResultsEv
 3125      00
 3126 15e5 488B00   		movq	(%rax), %rax
 3127 15e8 488D8D90 		leaq	-2160(%rbp), %rcx
 3127      F7FFFF
 3128 15ef 488D956C 		leaq	-2196(%rbp), %rdx
 3128      F7FFFF
 3129 15f6 488DB5B0 		leaq	-2128(%rbp), %rsi
 3129      F7FFFF
 3130 15fd 488DBE18 		leaq	2072(%rsi), %rdi
 3130      080000
 3131 1604 488DB568 		leaq	-2200(%rbp), %rsi
 3131      F7FFFF
 3132 160b 4989C8   		movq	%rcx, %r8
 3133 160e 4889D1   		movq	%rdx, %rcx
 3134 1611 4889FA   		movq	%rdi, %rdx
 3135 1614 4889C7   		movq	%rax, %rdi
 3136 1617 E8000000 		call	_ZN8UnitTest10CheckCloseIfffEEvRNS_11TestResultsERKT_RKT0_RKT1_RKNS_11TestDetailsE
 3136      00
 3137              	.LEHE87:
 3138              	.L167:
 3139              		.loc 5 107 0 discriminator 7
 3140 161c 488D85B0 		leaq	-2128(%rbp), %rax
 3140      F7FFFF
 3141 1623 4889C7   		movq	%rax, %rdi
 3142              	.LEHB88:
 3143 1626 E8000000 		call	_ZN17RecordingReporterD1Ev
 3143      00
 3144              	.LEHE88:
 3145              	.LBE34:
 108:TestTestResults.cpp **** }
 3146              		.loc 5 108 0 is_stmt 1 discriminator 7
 3147 162b 488B45E8 		movq	-24(%rbp), %rax
 3148 162f 64483304 		xorq	%fs:40, %rax
 3148      25280000 
 3148      00
 3149 1638 0F849801 		je	.L168
 3149      0000
 3150 163e E98E0100 		jmp	.L178
 3150      00
 3151              	.L171:
 3152 1643 4889C3   		movq	%rax, %rbx
 3153              	.LBB35:
 104:TestTestResults.cpp ****     CHECK_EQUAL ("testname", reporter.lastFinishedTest);
 3154              		.loc 5 104 0
 3155 1646 E8000000 		call	__cxa_end_catch
 3155      00
 3156 164b E9670100 		jmp	.L156
 3156      00
 3157              	.L170:
 3158 1650 4889C7   		movq	%rax, %rdi
 3159 1653 E8000000 		call	__cxa_begin_catch
 3159      00
 3160              	.LEHB89:
 3161 1658 E8000000 		call	_ZN8UnitTest11CurrentTest7DetailsEv
 3161      00
 3162 165d 488B08   		movq	(%rax), %rcx
 3163 1660 488D8590 		leaq	-2160(%rbp), %rax
 3163      F7FFFF
 3164 1667 BA680000 		movl	$104, %edx
 3164      00
 3165 166c 4889CE   		movq	%rcx, %rsi
 3166 166f 4889C7   		movq	%rax, %rdi
 3167 1672 E8000000 		call	_ZN8UnitTest11TestDetailsC1ERKS0_i
 3167      00
 104:TestTestResults.cpp ****     CHECK_EQUAL ("testname", reporter.lastFinishedTest);
 3168              		.loc 5 104 0 is_stmt 0 discriminator 10
 3169 1677 E8000000 		call	_ZN8UnitTest11CurrentTest7ResultsEv
 3169      00
 3170 167c 488B00   		movq	(%rax), %rax
 3171 167f 488D8D90 		leaq	-2160(%rbp), %rcx
 3171      F7FFFF
 3172 1686 BA000000 		movl	$.LC33, %edx
 3172      00
 3173 168b 4889CE   		movq	%rcx, %rsi
 3174 168e 4889C7   		movq	%rax, %rdi
 3175 1691 E8000000 		call	_ZN8UnitTest11TestResults13OnTestFailureERKNS_11TestDetailsEPKc
 3175      00
 3176              	.LEHE89:
 3177              	.LEHB90:
 104:TestTestResults.cpp ****     CHECK_EQUAL ("testname", reporter.lastFinishedTest);
 3178              		.loc 5 104 0 discriminator 14
 3179 1696 E8000000 		call	__cxa_end_catch
 3179      00
 3180              	.LEHE90:
 104:TestTestResults.cpp ****     CHECK_EQUAL ("testname", reporter.lastFinishedTest);
 3181              		.loc 5 104 0
 3182 169b E96BFEFF 		jmp	.L158
 3182      FF
 3183              	.L173:
 3184 16a0 4889C3   		movq	%rax, %rbx
 105:TestTestResults.cpp ****     CHECK_EQUAL ("suitename", reporter.lastFinishedSuite);
 3185              		.loc 5 105 0 is_stmt 1
 3186 16a3 E8000000 		call	__cxa_end_catch
 3186      00
 3187 16a8 E90A0100 		jmp	.L156
 3187      00
 3188              	.L172:
 3189 16ad 4889C7   		movq	%rax, %rdi
 3190 16b0 E8000000 		call	__cxa_begin_catch
 3190      00
 3191              	.LEHB91:
 3192 16b5 E8000000 		call	_ZN8UnitTest11CurrentTest7DetailsEv
 3192      00
 3193 16ba 488B08   		movq	(%rax), %rcx
 3194 16bd 488D8590 		leaq	-2160(%rbp), %rax
 3194      F7FFFF
 3195 16c4 BA690000 		movl	$105, %edx
 3195      00
 3196 16c9 4889CE   		movq	%rcx, %rsi
 3197 16cc 4889C7   		movq	%rax, %rdi
 3198 16cf E8000000 		call	_ZN8UnitTest11TestDetailsC1ERKS0_i
 3198      00
 105:TestTestResults.cpp ****     CHECK_EQUAL ("suitename", reporter.lastFinishedSuite);
 3199              		.loc 5 105 0 is_stmt 0 discriminator 10
 3200 16d4 E8000000 		call	_ZN8UnitTest11CurrentTest7ResultsEv
 3200      00
 3201 16d9 488B00   		movq	(%rax), %rax
 3202 16dc 488D8D90 		leaq	-2160(%rbp), %rcx
 3202      F7FFFF
 3203 16e3 BA000000 		movl	$.LC34, %edx
 3203      00
 3204 16e8 4889CE   		movq	%rcx, %rsi
 3205 16eb 4889C7   		movq	%rax, %rdi
 3206 16ee E8000000 		call	_ZN8UnitTest11TestResults13OnTestFailureERKNS_11TestDetailsEPKc
 3206      00
 3207              	.LEHE91:
 3208              	.LEHB92:
 105:TestTestResults.cpp ****     CHECK_EQUAL ("suitename", reporter.lastFinishedSuite);
 3209              		.loc 5 105 0 discriminator 14
 3210 16f3 E8000000 		call	__cxa_end_catch
 3210      00
 3211              	.LEHE92:
 105:TestTestResults.cpp ****     CHECK_EQUAL ("suitename", reporter.lastFinishedSuite);
 3212              		.loc 5 105 0
 3213 16f8 E95DFEFF 		jmp	.L161
 3213      FF
 3214              	.L175:
 3215 16fd 4889C3   		movq	%rax, %rbx
 106:TestTestResults.cpp ****     CHECK_CLOSE (0.1234f, reporter.lastFinishedTestTime, 0.0001f);
 3216              		.loc 5 106 0 is_stmt 1
 3217 1700 E8000000 		call	__cxa_end_catch
 3217      00
 3218 1705 E9AD0000 		jmp	.L156
 3218      00
 3219              	.L174:
 3220 170a 4889C7   		movq	%rax, %rdi
 3221 170d E8000000 		call	__cxa_begin_catch
 3221      00
 3222              	.LEHB93:
 3223 1712 E8000000 		call	_ZN8UnitTest11CurrentTest7DetailsEv
 3223      00
 3224 1717 488B08   		movq	(%rax), %rcx
 3225 171a 488D8590 		leaq	-2160(%rbp), %rax
 3225      F7FFFF
 3226 1721 BA6A0000 		movl	$106, %edx
 3226      00
 3227 1726 4889CE   		movq	%rcx, %rsi
 3228 1729 4889C7   		movq	%rax, %rdi
 3229 172c E8000000 		call	_ZN8UnitTest11TestDetailsC1ERKS0_i
 3229      00
 106:TestTestResults.cpp ****     CHECK_CLOSE (0.1234f, reporter.lastFinishedTestTime, 0.0001f);
 3230              		.loc 5 106 0 is_stmt 0 discriminator 10
 3231 1731 E8000000 		call	_ZN8UnitTest11CurrentTest7ResultsEv
 3231      00
 3232 1736 488B00   		movq	(%rax), %rax
 3233 1739 488D8D90 		leaq	-2160(%rbp), %rcx
 3233      F7FFFF
 3234 1740 BA000000 		movl	$.LC35, %edx
 3234      00
 3235 1745 4889CE   		movq	%rcx, %rsi
 3236 1748 4889C7   		movq	%rax, %rdi
 3237 174b E8000000 		call	_ZN8UnitTest11TestResults13OnTestFailureERKNS_11TestDetailsEPKc
 3237      00
 3238              	.LEHE93:
 3239              	.LEHB94:
 106:TestTestResults.cpp ****     CHECK_CLOSE (0.1234f, reporter.lastFinishedTestTime, 0.0001f);
 3240              		.loc 5 106 0 discriminator 14
 3241 1750 E8000000 		call	__cxa_end_catch
 3241      00
 3242              	.LEHE94:
 106:TestTestResults.cpp ****     CHECK_CLOSE (0.1234f, reporter.lastFinishedTestTime, 0.0001f);
 3243              		.loc 5 106 0
 3244 1755 E94FFEFF 		jmp	.L164
 3244      FF
 3245              	.L177:
 3246 175a 4889C3   		movq	%rax, %rbx
 107:TestTestResults.cpp **** }
 3247              		.loc 5 107 0 is_stmt 1
 3248 175d E8000000 		call	__cxa_end_catch
 3248      00
 3249 1762 EB53     		jmp	.L156
 3250              	.L176:
 3251 1764 4889C7   		movq	%rax, %rdi
 3252 1767 E8000000 		call	__cxa_begin_catch
 3252      00
 3253              	.LEHB95:
 3254 176c E8000000 		call	_ZN8UnitTest11CurrentTest7DetailsEv
 3254      00
 3255 1771 488B08   		movq	(%rax), %rcx
 3256 1774 488D8590 		leaq	-2160(%rbp), %rax
 3256      F7FFFF
 3257 177b BA6B0000 		movl	$107, %edx
 3257      00
 3258 1780 4889CE   		movq	%rcx, %rsi
 3259 1783 4889C7   		movq	%rax, %rdi
 3260 1786 E8000000 		call	_ZN8UnitTest11TestDetailsC1ERKS0_i
 3260      00
 107:TestTestResults.cpp **** }
 3261              		.loc 5 107 0 is_stmt 0 discriminator 11
 3262 178b E8000000 		call	_ZN8UnitTest11CurrentTest7ResultsEv
 3262      00
 3263 1790 488B00   		movq	(%rax), %rax
 3264 1793 488D8D90 		leaq	-2160(%rbp), %rcx
 3264      F7FFFF
 3265 179a BA000000 		movl	$.LC36, %edx
 3265      00
 3266 179f 4889CE   		movq	%rcx, %rsi
 3267 17a2 4889C7   		movq	%rax, %rdi
 3268 17a5 E8000000 		call	_ZN8UnitTest11TestResults13OnTestFailureERKNS_11TestDetailsEPKc
 3268      00
 3269              	.LEHE95:
 3270              	.LEHB96:
 107:TestTestResults.cpp **** }
 3271              		.loc 5 107 0 discriminator 15
 3272 17aa E8000000 		call	__cxa_end_catch
 3272      00
 3273              	.LEHE96:
 107:TestTestResults.cpp **** }
 3274              		.loc 5 107 0
 3275 17af E968FEFF 		jmp	.L167
 3275      FF
 3276              	.L169:
 3277 17b4 4889C3   		movq	%rax, %rbx
 3278              	.L156:
 107:TestTestResults.cpp **** }
 3279              		.loc 5 107 0 discriminator 16
 3280 17b7 488D85B0 		leaq	-2128(%rbp), %rax
 3280      F7FFFF
 3281 17be 4889C7   		movq	%rax, %rdi
 3282 17c1 E8000000 		call	_ZN17RecordingReporterD1Ev
 3282      00
 3283 17c6 4889D8   		movq	%rbx, %rax
 3284 17c9 4889C7   		movq	%rax, %rdi
 3285              	.LEHB97:
 3286 17cc E8000000 		call	_Unwind_Resume
 3286      00
 3287              	.LEHE97:
 3288              	.L178:
 3289              	.LBE35:
 3290              		.loc 5 108 0 is_stmt 1
 3291 17d1 E8000000 		call	__stack_chk_fail
 3291      00
 3292              	.L168:
 3293 17d6 4881C4A8 		addq	$2216, %rsp
 3293      080000
 3294 17dd 5B       		popq	%rbx
 3295 17de 5D       		popq	%rbp
 3296              		.cfi_def_cfa 7, 8
 3297 17df C3       		ret
 3298              		.cfi_endproc
 3299              	.LFE1110:
 3300              		.section	.gcc_except_table
 3301              		.align 4
 3302              	.LLSDA1110:
 3303 0218 FF       		.byte	0xff
 3304 0219 03       		.byte	0x3
 3305 021a 61       		.uleb128 .LLSDATT1110-.LLSDATTD1110
 3306              	.LLSDATTD1110:
 3307 021b 01       		.byte	0x1
 3308 021c 56       		.uleb128 .LLSDACSE1110-.LLSDACSB1110
 3309              	.LLSDACSB1110:
 3310 021d 45       		.uleb128 .LEHB83-.LFB1110
 3311 021e 21       		.uleb128 .LEHE83-.LEHB83
 3312 021f EA06     		.uleb128 .L169-.LFB1110
 3313 0221 00       		.uleb128 0
 3314 0222 66       		.uleb128 .LEHB84-.LFB1110
 3315 0223 5B       		.uleb128 .LEHE84-.LEHB84
 3316 0224 8604     		.uleb128 .L170-.LFB1110
 3317 0226 01       		.uleb128 0x1
 3318 0227 C101     		.uleb128 .LEHB85-.LFB1110
 3319 0229 4F       		.uleb128 .LEHE85-.LEHB85
 3320 022a E304     		.uleb128 .L172-.LFB1110
 3321 022c 01       		.uleb128 0x1
 3322 022d 9002     		.uleb128 .LEHB86-.LFB1110
 3323 022f 4F       		.uleb128 .LEHE86-.LEHB86
 3324 0230 C005     		.uleb128 .L174-.LFB1110
 3325 0232 01       		.uleb128 0x1
 3326 0233 DF02     		.uleb128 .LEHB87-.LFB1110
 3327 0235 73       		.uleb128 .LEHE87-.LEHB87
 3328 0236 9A06     		.uleb128 .L176-.LFB1110
 3329 0238 01       		.uleb128 0x1
 3330 0239 DC03     		.uleb128 .LEHB88-.LFB1110
 3331 023b 05       		.uleb128 .LEHE88-.LEHB88
 3332 023c 00       		.uleb128 0
 3333 023d 00       		.uleb128 0
 3334 023e 8E04     		.uleb128 .LEHB89-.LFB1110
 3335 0240 3E       		.uleb128 .LEHE89-.LEHB89
 3336 0241 F903     		.uleb128 .L171-.LFB1110
 3337 0243 00       		.uleb128 0
 3338 0244 CC04     		.uleb128 .LEHB90-.LFB1110
 3339 0246 05       		.uleb128 .LEHE90-.LEHB90
 3340 0247 EA06     		.uleb128 .L169-.LFB1110
 3341 0249 00       		.uleb128 0
 3342 024a EB04     		.uleb128 .LEHB91-.LFB1110
 3343 024c 3E       		.uleb128 .LEHE91-.LEHB91
 3344 024d D604     		.uleb128 .L173-.LFB1110
 3345 024f 00       		.uleb128 0
 3346 0250 A905     		.uleb128 .LEHB92-.LFB1110
 3347 0252 05       		.uleb128 .LEHE92-.LEHB92
 3348 0253 EA06     		.uleb128 .L169-.LFB1110
 3349 0255 00       		.uleb128 0
 3350 0256 C805     		.uleb128 .LEHB93-.LFB1110
 3351 0258 3E       		.uleb128 .LEHE93-.LEHB93
 3352 0259 B305     		.uleb128 .L175-.LFB1110
 3353 025b 00       		.uleb128 0
 3354 025c 8606     		.uleb128 .LEHB94-.LFB1110
 3355 025e 05       		.uleb128 .LEHE94-.LEHB94
 3356 025f EA06     		.uleb128 .L169-.LFB1110
 3357 0261 00       		.uleb128 0
 3358 0262 A206     		.uleb128 .LEHB95-.LFB1110
 3359 0264 3E       		.uleb128 .LEHE95-.LEHB95
 3360 0265 9006     		.uleb128 .L177-.LFB1110
 3361 0267 00       		.uleb128 0
 3362 0268 E006     		.uleb128 .LEHB96-.LFB1110
 3363 026a 05       		.uleb128 .LEHE96-.LEHB96
 3364 026b EA06     		.uleb128 .L169-.LFB1110
 3365 026d 00       		.uleb128 0
 3366 026e 8207     		.uleb128 .LEHB97-.LFB1110
 3367 0270 05       		.uleb128 .LEHE97-.LEHB97
 3368 0271 00       		.uleb128 0
 3369 0272 00       		.uleb128 0
 3370              	.LLSDACSE1110:
 3371 0273 01       		.byte	0x1
 3372 0274 00       		.byte	0
 3373 0275 000000   		.align 4
 3374 0278 00000000 		.long	0
 3375              	
 3376              	.LLSDATT1110:
 3377              		.text
 3379              		.section	.text._ZN8UnitTest15MemoryOutStreamD1Ev,"axG",@progbits,_ZN8UnitTest15MemoryOutStreamD1Ev
 3380              		.align 2
 3381              		.weak	_ZN8UnitTest15MemoryOutStreamD1Ev
 3383              	_ZN8UnitTest15MemoryOutStreamD1Ev:
 3384              	.LFB1141:
  13:../MemoryOutStream.h **** {
 3385              		.loc 2 13 0
 3386              		.cfi_startproc
 3387              		.cfi_personality 0x3,__gxx_personality_v0
 3388              		.cfi_lsda 0x3,.LLSDA1141
 3389 0000 55       		pushq	%rbp
 3390              		.cfi_def_cfa_offset 16
 3391              		.cfi_offset 6, -16
 3392 0001 4889E5   		movq	%rsp, %rbp
 3393              		.cfi_def_cfa_register 6
 3394 0004 53       		pushq	%rbx
 3395 0005 4883EC18 		subq	$24, %rsp
 3396              		.cfi_offset 3, -24
 3397 0009 48897DE8 		movq	%rdi, -24(%rbp)
 3398              	.LBB36:
  13:../MemoryOutStream.h **** {
 3399              		.loc 2 13 0
 3400 000d BA000000 		movl	$_ZTVN8UnitTest15MemoryOutStreamE+24, %edx
 3400      00
 3401 0012 488B45E8 		movq	-24(%rbp), %rax
 3402 0016 488910   		movq	%rdx, (%rax)
 3403 0019 BA600000 		movl	$96, %edx
 3403      00
 3404 001e 488B45E8 		movq	-24(%rbp), %rax
 3405 0022 4801D0   		addq	%rdx, %rax
 3406 0025 BA000000 		movl	$_ZTVN8UnitTest15MemoryOutStreamE+64, %edx
 3406      00
 3407 002a 488910   		movq	%rdx, (%rax)
 3408 002d 488B45E8 		movq	-24(%rbp), %rax
 3409 0031 4883C058 		addq	$88, %rax
 3410 0035 4889C7   		movq	%rax, %rdi
 3411              	.LEHB98:
 3412 0038 E8000000 		call	_ZNSsD1Ev
 3412      00
 3413              	.LEHE98:
  13:../MemoryOutStream.h **** {
 3414              		.loc 2 13 0 is_stmt 0 discriminator 14
 3415 003d BA000000 		movl	$_ZTTN8UnitTest15MemoryOutStreamE+8, %edx
 3415      00
 3416 0042 488B45E8 		movq	-24(%rbp), %rax
 3417 0046 4889D6   		movq	%rdx, %rsi
 3418 0049 4889C7   		movq	%rax, %rdi
 3419              	.LEHB99:
 3420 004c E8000000 		call	_ZNSt19basic_ostringstreamIcSt11char_traitsIcESaIcEED2Ev
 3420      00
 3421              	.LEHE99:
  13:../MemoryOutStream.h **** {
 3422              		.loc 2 13 0 discriminator 20
 3423 0051 B8020000 		movl	$2, %eax
 3423      00
 3424 0056 85C0     		testl	%eax, %eax
 3425 0058 7410     		je	.L181
  13:../MemoryOutStream.h **** {
 3426              		.loc 2 13 0 discriminator 21
 3427 005a 488B45E8 		movq	-24(%rbp), %rax
 3428 005e 4883C060 		addq	$96, %rax
 3429 0062 4889C7   		movq	%rax, %rdi
 3430              	.LEHB100:
 3431 0065 E8000000 		call	_ZNSt9basic_iosIcSt11char_traitsIcEED2Ev
 3431      00
 3432              	.LEHE100:
 3433              	.L181:
 3434              	.LBE36:
  13:../MemoryOutStream.h **** {
 3435              		.loc 2 13 0 discriminator 24
 3436 006a B8000000 		movl	$0, %eax
 3436      00
 3437 006f 85C0     		testl	%eax, %eax
 3438 0071 744E     		je	.L188
  13:../MemoryOutStream.h **** {
 3439              		.loc 2 13 0 discriminator 25
 3440 0073 488B45E8 		movq	-24(%rbp), %rax
 3441 0077 4889C7   		movq	%rax, %rdi
 3442 007a E8000000 		call	_ZdlPv
 3442      00
 3443 007f EB40     		jmp	.L188
 3444              	.L186:
 3445 0081 4889C3   		movq	%rax, %rbx
 3446              	.LBB37:
  13:../MemoryOutStream.h **** {
 3447              		.loc 2 13 0
 3448 0084 BA000000 		movl	$_ZTTN8UnitTest15MemoryOutStreamE+8, %edx
 3448      00
 3449 0089 488B45E8 		movq	-24(%rbp), %rax
 3450 008d 4889D6   		movq	%rdx, %rsi
 3451 0090 4889C7   		movq	%rax, %rdi
 3452 0093 E8000000 		call	_ZNSt19basic_ostringstreamIcSt11char_traitsIcESaIcEED2Ev
 3452      00
 3453 0098 EB03     		jmp	.L184
 3454              	.L187:
 3455 009a 4889C3   		movq	%rax, %rbx
 3456              	.L184:
  13:../MemoryOutStream.h **** {
 3457              		.loc 2 13 0 discriminator 19
 3458 009d B8020000 		movl	$2, %eax
 3458      00
 3459 00a2 85C0     		testl	%eax, %eax
 3460 00a4 7410     		je	.L185
  13:../MemoryOutStream.h **** {
 3461              		.loc 2 13 0 discriminator 32
 3462 00a6 488B45E8 		movq	-24(%rbp), %rax
 3463 00aa 4883C060 		addq	$96, %rax
 3464 00ae 4889C7   		movq	%rax, %rdi
 3465 00b1 E8000000 		call	_ZNSt9basic_iosIcSt11char_traitsIcEED2Ev
 3465      00
 3466              	.L185:
 3467 00b6 4889D8   		movq	%rbx, %rax
 3468 00b9 4889C7   		movq	%rax, %rdi
 3469              	.LEHB101:
 3470 00bc E8000000 		call	_Unwind_Resume
 3470      00
 3471              	.LEHE101:
 3472              	.L188:
 3473              	.LBE37:
  13:../MemoryOutStream.h **** {
 3474              		.loc 2 13 0
 3475 00c1 4883C418 		addq	$24, %rsp
 3476 00c5 5B       		popq	%rbx
 3477 00c6 5D       		popq	%rbp
 3478              		.cfi_def_cfa 7, 8
 3479 00c7 C3       		ret
 3480              		.cfi_endproc
 3481              	.LFE1141:
 3482              		.section	.gcc_except_table
 3483              	.LLSDA1141:
 3484 027c FF       		.byte	0xff
 3485 027d FF       		.byte	0xff
 3486 027e 01       		.byte	0x1
 3487 027f 13       		.uleb128 .LLSDACSE1141-.LLSDACSB1141
 3488              	.LLSDACSB1141:
 3489 0280 38       		.uleb128 .LEHB98-.LFB1141
 3490 0281 05       		.uleb128 .LEHE98-.LEHB98
 3491 0282 8101     		.uleb128 .L186-.LFB1141
 3492 0284 00       		.uleb128 0
 3493 0285 4C       		.uleb128 .LEHB99-.LFB1141
 3494 0286 05       		.uleb128 .LEHE99-.LEHB99
 3495 0287 9A01     		.uleb128 .L187-.LFB1141
 3496 0289 00       		.uleb128 0
 3497 028a 65       		.uleb128 .LEHB100-.LFB1141
 3498 028b 05       		.uleb128 .LEHE100-.LEHB100
 3499 028c 00       		.uleb128 0
 3500 028d 00       		.uleb128 0
 3501 028e BC01     		.uleb128 .LEHB101-.LFB1141
 3502 0290 05       		.uleb128 .LEHE101-.LEHB101
 3503 0291 00       		.uleb128 0
 3504 0292 00       		.uleb128 0
 3505              	.LLSDACSE1141:
 3506              		.section	.text._ZN8UnitTest15MemoryOutStreamD1Ev,"axG",@progbits,_ZN8UnitTest15MemoryOutStreamD1Ev
 3508              		.set	.LTHUNK0,_ZN8UnitTest15MemoryOutStreamD1Ev
 3509              		.weak	_ZTv0_n24_N8UnitTest15MemoryOutStreamD1Ev
 3511              	_ZTv0_n24_N8UnitTest15MemoryOutStreamD1Ev:
 3512              	.LFB1236:
  13:../MemoryOutStream.h **** {
 3513              		.loc 2 13 0 is_stmt 1
 3514              		.cfi_startproc
 3515 00c8 4C8B17   		movq	(%rdi), %r10
 3516 00cb 49037AE8 		addq	-24(%r10), %rdi
 3517 00cf E92CFFFF 		jmp	.LTHUNK0
 3517      FF
 3518              		.cfi_endproc
 3519              	.LFE1236:
 3521              		.section	.text._ZN8UnitTest15MemoryOutStreamD0Ev,"axG",@progbits,_ZN8UnitTest15MemoryOutStreamD0Ev
 3522              		.align 2
 3523              		.weak	_ZN8UnitTest15MemoryOutStreamD0Ev
 3525              	_ZN8UnitTest15MemoryOutStreamD0Ev:
 3526              	.LFB1142:
  13:../MemoryOutStream.h **** {
 3527              		.loc 2 13 0
 3528              		.cfi_startproc
 3529 0000 55       		pushq	%rbp
 3530              		.cfi_def_cfa_offset 16
 3531              		.cfi_offset 6, -16
 3532 0001 4889E5   		movq	%rsp, %rbp
 3533              		.cfi_def_cfa_register 6
 3534 0004 4883EC10 		subq	$16, %rsp
 3535 0008 48897DF8 		movq	%rdi, -8(%rbp)
  13:../MemoryOutStream.h **** {
 3536              		.loc 2 13 0
 3537 000c 488B45F8 		movq	-8(%rbp), %rax
 3538 0010 4889C7   		movq	%rax, %rdi
 3539 0013 E8000000 		call	_ZN8UnitTest15MemoryOutStreamD1Ev
 3539      00
 3540 0018 488B45F8 		movq	-8(%rbp), %rax
 3541 001c 4889C7   		movq	%rax, %rdi
 3542 001f E8000000 		call	_ZdlPv
 3542      00
 3543 0024 C9       		leave
 3544              		.cfi_def_cfa 7, 8
 3545 0025 C3       		ret
 3546              		.cfi_endproc
 3547              	.LFE1142:
 3549              		.set	.LTHUNK1,_ZN8UnitTest15MemoryOutStreamD0Ev
 3550              		.weak	_ZTv0_n24_N8UnitTest15MemoryOutStreamD0Ev
 3552              	_ZTv0_n24_N8UnitTest15MemoryOutStreamD0Ev:
 3553              	.LFB1237:
  13:../MemoryOutStream.h **** {
 3554              		.loc 2 13 0
 3555              		.cfi_startproc
 3556 0026 4C8B17   		movq	(%rdi), %r10
 3557 0029 49037AE8 		addq	-24(%r10), %rdi
 3558 002d EBD1     		jmp	.LTHUNK1
 3559              		.cfi_endproc
 3560              	.LFE1237:
 3562              		.section	.rodata
 3563              	.LC37:
 3564 069b 45787065 		.string	"Expected "
 3564      63746564 
 3564      2000
 3565              	.LC38:
 3566 06a5 20627574 		.string	" but was "
 3566      20776173 
 3566      2000
 3567              		.section	.text._ZN8UnitTest10CheckEqualIiiEEvRNS_11TestResultsERKT_RKT0_RKNS_11TestDetailsE,"axG",
 3568              		.weak	_ZN8UnitTest10CheckEqualIiiEEvRNS_11TestResultsERKT_RKT0_RKNS_11TestDetailsE
 3570              	_ZN8UnitTest10CheckEqualIiiEEvRNS_11TestResultsERKT_RKT0_RKNS_11TestDetailsE:
 3571              	.LFB1138:
 3572              		.file 6 "../Checks.h"
   1:../Checks.h   **** #ifndef UNITTEST_CHECKS_H
   2:../Checks.h   **** #define UNITTEST_CHECKS_H
   3:../Checks.h   **** 
   4:../Checks.h   **** #include "Config.h"
   5:../Checks.h   **** #include "TestResults.h"
   6:../Checks.h   **** #include "MemoryOutStream.h"
   7:../Checks.h   **** 
   8:../Checks.h   **** namespace UnitTest {
   9:../Checks.h   **** 
  10:../Checks.h   **** 
  11:../Checks.h   **** template< typename Value >
  12:../Checks.h   **** bool Check(Value const value)
  13:../Checks.h   **** {
  14:../Checks.h   ****     return !!value; // doing double negative to avoid silly VS warnings
  15:../Checks.h   **** }
  16:../Checks.h   **** 
  17:../Checks.h   **** 
  18:../Checks.h   **** template< typename Expected, typename Actual >
  19:../Checks.h   **** void CheckEqual(TestResults& results, Expected const& expected, Actual const& actual, TestDetails c
 3573              		.loc 6 19 0
 3574              		.cfi_startproc
 3575              		.cfi_personality 0x3,__gxx_personality_v0
 3576              		.cfi_lsda 0x3,.LLSDA1138
 3577 0000 55       		pushq	%rbp
 3578              		.cfi_def_cfa_offset 16
 3579              		.cfi_offset 6, -16
 3580 0001 4889E5   		movq	%rsp, %rbp
 3581              		.cfi_def_cfa_register 6
 3582 0004 4154     		pushq	%r12
 3583 0006 53       		pushq	%rbx
 3584 0007 4881EC90 		subq	$400, %rsp
 3584      010000
 3585              		.cfi_offset 12, -24
 3586              		.cfi_offset 3, -32
 3587 000e 4889BD78 		movq	%rdi, -392(%rbp)
 3587      FEFFFF
 3588 0015 4889B570 		movq	%rsi, -400(%rbp)
 3588      FEFFFF
 3589 001c 48899568 		movq	%rdx, -408(%rbp)
 3589      FEFFFF
 3590 0023 48898D60 		movq	%rcx, -416(%rbp)
 3590      FEFFFF
 3591              		.loc 6 19 0
 3592 002a 64488B04 		movq	%fs:40, %rax
 3592      25280000 
 3592      00
 3593 0033 488945E8 		movq	%rax, -24(%rbp)
 3594 0037 31C0     		xorl	%eax, %eax
 3595              	.LBB38:
 3596              	.LBB39:
  20:../Checks.h   **** {
  21:../Checks.h   ****     if (!(expected == actual))
 3597              		.loc 6 21 0
 3598 0039 488B8570 		movq	-400(%rbp), %rax
 3598      FEFFFF
 3599 0040 8B10     		movl	(%rax), %edx
 3600 0042 488B8568 		movq	-408(%rbp), %rax
 3600      FEFFFF
 3601 0049 8B00     		movl	(%rax), %eax
 3602 004b 39C2     		cmpl	%eax, %edx
 3603 004d 0F849200 		je	.L192
 3603      0000
 3604              	.LBB40:
  22:../Checks.h   ****     {
  23:../Checks.h   ****         UnitTest::MemoryOutStream stream;
 3605              		.loc 6 23 0
 3606 0053 488D8580 		leaq	-384(%rbp), %rax
 3606      FEFFFF
 3607 005a 4889C7   		movq	%rax, %rdi
 3608              	.LEHB102:
 3609 005d E8000000 		call	_ZN8UnitTest15MemoryOutStreamC1Ev
 3609      00
 3610              	.LEHE102:
  24:../Checks.h   ****         stream << "Expected " << expected << " but was " << actual;
 3611              		.loc 6 24 0
 3612 0062 488B8568 		movq	-408(%rbp), %rax
 3612      FEFFFF
 3613 0069 8B18     		movl	(%rax), %ebx
 3614 006b 488B8570 		movq	-400(%rbp), %rax
 3614      FEFFFF
 3615 0072 448B20   		movl	(%rax), %r12d
 3616 0075 488D8580 		leaq	-384(%rbp), %rax
 3616      FEFFFF
 3617 007c BE000000 		movl	$.LC37, %esi
 3617      00
 3618 0081 4889C7   		movq	%rax, %rdi
 3619              	.LEHB103:
 3620 0084 E8000000 		call	_ZStlsISt11char_traitsIcEERSt13basic_ostreamIcT_ES5_PKc
 3620      00
 3621 0089 4489E6   		movl	%r12d, %esi
 3622 008c 4889C7   		movq	%rax, %rdi
 3623 008f E8000000 		call	_ZNSolsEi
 3623      00
 3624              		.loc 6 24 0 is_stmt 0 discriminator 1
 3625 0094 BE000000 		movl	$.LC38, %esi
 3625      00
 3626 0099 4889C7   		movq	%rax, %rdi
 3627 009c E8000000 		call	_ZStlsISt11char_traitsIcEERSt13basic_ostreamIcT_ES5_PKc
 3627      00
 3628              		.loc 6 24 0 discriminator 2
 3629 00a1 89DE     		movl	%ebx, %esi
 3630 00a3 4889C7   		movq	%rax, %rdi
 3631 00a6 E8000000 		call	_ZNSolsEi
 3631      00
  25:../Checks.h   **** 
  26:../Checks.h   ****         results.OnTestFailure(details, stream.GetText());
 3632              		.loc 6 26 0 is_stmt 1
 3633 00ab 488D8580 		leaq	-384(%rbp), %rax
 3633      FEFFFF
 3634 00b2 4889C7   		movq	%rax, %rdi
 3635 00b5 E8000000 		call	_ZNK8UnitTest15MemoryOutStream7GetTextEv
 3635      00
 3636 00ba 4889C2   		movq	%rax, %rdx
 3637 00bd 488B8D60 		movq	-416(%rbp), %rcx
 3637      FEFFFF
 3638 00c4 488B8578 		movq	-392(%rbp), %rax
 3638      FEFFFF
 3639 00cb 4889CE   		movq	%rcx, %rsi
 3640 00ce 4889C7   		movq	%rax, %rdi
 3641 00d1 E8000000 		call	_ZN8UnitTest11TestResults13OnTestFailureERKNS_11TestDetailsEPKc
 3641      00
 3642              	.LEHE103:
 3643              		.loc 6 26 0 is_stmt 0 discriminator 4
 3644 00d6 488D8580 		leaq	-384(%rbp), %rax
 3644      FEFFFF
 3645 00dd 4889C7   		movq	%rax, %rdi
 3646              	.LEHB104:
 3647 00e0 E8000000 		call	_ZN8UnitTest15MemoryOutStreamD1Ev
 3647      00
 3648              	.LEHE104:
 3649              	.L192:
 3650              	.LBE40:
 3651              	.LBE39:
 3652              	.LBE38:
  27:../Checks.h   ****     }
  28:../Checks.h   **** }
 3653              		.loc 6 28 0 is_stmt 1
 3654 00e5 488B45E8 		movq	-24(%rbp), %rax
 3655 00e9 64483304 		xorq	%fs:40, %rax
 3655      25280000 
 3655      00
 3656 00f2 7424     		je	.L194
 3657 00f4 EB1D     		jmp	.L196
 3658              	.L195:
 3659 00f6 4889C3   		movq	%rax, %rbx
 3660              	.LBB43:
 3661              	.LBB42:
 3662              	.LBB41:
  26:../Checks.h   ****     }
 3663              		.loc 6 26 0
 3664 00f9 488D8580 		leaq	-384(%rbp), %rax
 3664      FEFFFF
 3665 0100 4889C7   		movq	%rax, %rdi
 3666 0103 E8000000 		call	_ZN8UnitTest15MemoryOutStreamD1Ev
 3666      00
 3667 0108 4889D8   		movq	%rbx, %rax
 3668 010b 4889C7   		movq	%rax, %rdi
 3669              	.LEHB105:
 3670 010e E8000000 		call	_Unwind_Resume
 3670      00
 3671              	.LEHE105:
 3672              	.L196:
 3673              	.LBE41:
 3674              	.LBE42:
 3675              	.LBE43:
 3676              		.loc 6 28 0
 3677 0113 E8000000 		call	__stack_chk_fail
 3677      00
 3678              	.L194:
 3679 0118 4881C490 		addq	$400, %rsp
 3679      010000
 3680 011f 5B       		popq	%rbx
 3681 0120 415C     		popq	%r12
 3682 0122 5D       		popq	%rbp
 3683              		.cfi_def_cfa 7, 8
 3684 0123 C3       		ret
 3685              		.cfi_endproc
 3686              	.LFE1138:
 3687              		.section	.gcc_except_table
 3688              	.LLSDA1138:
 3689 0293 FF       		.byte	0xff
 3690 0294 FF       		.byte	0xff
 3691 0295 01       		.byte	0x1
 3692 0296 14       		.uleb128 .LLSDACSE1138-.LLSDACSB1138
 3693              	.LLSDACSB1138:
 3694 0297 5D       		.uleb128 .LEHB102-.LFB1138
 3695 0298 05       		.uleb128 .LEHE102-.LEHB102
 3696 0299 00       		.uleb128 0
 3697 029a 00       		.uleb128 0
 3698 029b 8401     		.uleb128 .LEHB103-.LFB1138
 3699 029d 52       		.uleb128 .LEHE103-.LEHB103
 3700 029e F601     		.uleb128 .L195-.LFB1138
 3701 02a0 00       		.uleb128 0
 3702 02a1 E001     		.uleb128 .LEHB104-.LFB1138
 3703 02a3 05       		.uleb128 .LEHE104-.LEHB104
 3704 02a4 00       		.uleb128 0
 3705 02a5 00       		.uleb128 0
 3706 02a6 8E02     		.uleb128 .LEHB105-.LFB1138
 3707 02a8 05       		.uleb128 .LEHE105-.LEHB105
 3708 02a9 00       		.uleb128 0
 3709 02aa 00       		.uleb128 0
 3710              	.LLSDACSE1138:
 3711              		.section	.text._ZN8UnitTest10CheckEqualIiiEEvRNS_11TestResultsERKT_RKT0_RKNS_11TestDetailsE,"axG",
 3713              		.section	.rodata
 3714              	.LC39:
 3715 06af 202B2F2D 		.string	" +/- "
 3715      2000
 3716              		.section	.text._ZN8UnitTest10CheckCloseIfffEEvRNS_11TestResultsERKT_RKT0_RKT1_RKNS_11TestDetailsE,
 3717              		.weak	_ZN8UnitTest10CheckCloseIfffEEvRNS_11TestResultsERKT_RKT0_RKT1_RKNS_11TestDetailsE
 3719              	_ZN8UnitTest10CheckCloseIfffEEvRNS_11TestResultsERKT_RKT0_RKT1_RKNS_11TestDetailsE:
 3720              	.LFB1143:
  29:../Checks.h   **** 
  30:../Checks.h   **** void CheckEqual(TestResults& results, char const* expected, char const* actual, TestDetails const& 
  31:../Checks.h   **** 
  32:../Checks.h   **** void CheckEqual(TestResults& results, char* expected, char* actual, TestDetails const& details);
  33:../Checks.h   **** 
  34:../Checks.h   **** void CheckEqual(TestResults& results, char* expected, char const* actual, TestDetails const& detail
  35:../Checks.h   **** 
  36:../Checks.h   **** void CheckEqual(TestResults& results, char const* expected, char* actual, TestDetails const& detail
  37:../Checks.h   **** 
  38:../Checks.h   **** template< typename Expected, typename Actual, typename Tolerance >
  39:../Checks.h   **** bool AreClose(Expected const& expected, Actual const& actual, Tolerance const& tolerance)
  40:../Checks.h   **** {
  41:../Checks.h   ****     return (actual >= (expected - tolerance)) && (actual <= (expected + tolerance));
  42:../Checks.h   **** }
  43:../Checks.h   **** 
  44:../Checks.h   **** template< typename Expected, typename Actual, typename Tolerance >
  45:../Checks.h   **** void CheckClose(TestResults& results, Expected const& expected, Actual const& actual, Tolerance con
 3721              		.loc 6 45 0
 3722              		.cfi_startproc
 3723              		.cfi_personality 0x3,__gxx_personality_v0
 3724              		.cfi_lsda 0x3,.LLSDA1143
 3725 0000 55       		pushq	%rbp
 3726              		.cfi_def_cfa_offset 16
 3727              		.cfi_offset 6, -16
 3728 0001 4889E5   		movq	%rsp, %rbp
 3729              		.cfi_def_cfa_register 6
 3730 0004 4155     		pushq	%r13
 3731 0006 4154     		pushq	%r12
 3732 0008 53       		pushq	%rbx
 3733 0009 4881ECA8 		subq	$424, %rsp
 3733      010000
 3734              		.cfi_offset 13, -24
 3735              		.cfi_offset 12, -32
 3736              		.cfi_offset 3, -40
 3737 0010 4889BD68 		movq	%rdi, -408(%rbp)
 3737      FEFFFF
 3738 0017 4889B560 		movq	%rsi, -416(%rbp)
 3738      FEFFFF
 3739 001e 48899558 		movq	%rdx, -424(%rbp)
 3739      FEFFFF
 3740 0025 48898D50 		movq	%rcx, -432(%rbp)
 3740      FEFFFF
 3741 002c 4C898548 		movq	%r8, -440(%rbp)
 3741      FEFFFF
 3742              		.loc 6 45 0
 3743 0033 64488B04 		movq	%fs:40, %rax
 3743      25280000 
 3743      00
 3744 003c 488945D8 		movq	%rax, -40(%rbp)
 3745 0040 31C0     		xorl	%eax, %eax
 3746              	.LBB44:
 3747              	.LBB45:
  46:../Checks.h   ****                 TestDetails const& details)
  47:../Checks.h   **** {
  48:../Checks.h   ****     if (!AreClose(expected, actual, tolerance))
 3748              		.loc 6 48 0
 3749 0042 488B9550 		movq	-432(%rbp), %rdx
 3749      FEFFFF
 3750 0049 488B8D58 		movq	-424(%rbp), %rcx
 3750      FEFFFF
 3751 0050 488B8560 		movq	-416(%rbp), %rax
 3751      FEFFFF
 3752 0057 4889CE   		movq	%rcx, %rsi
 3753 005a 4889C7   		movq	%rax, %rdi
 3754 005d E8000000 		call	_ZN8UnitTest8AreCloseIfffEEbRKT_RKT0_RKT1_
 3754      00
 3755 0062 83F001   		xorl	$1, %eax
 3756 0065 84C0     		testb	%al, %al
 3757 0067 0F84D800 		je	.L198
 3757      0000
 3758              	.LBB46:
  49:../Checks.h   ****     { 
  50:../Checks.h   ****         UnitTest::MemoryOutStream stream;
 3759              		.loc 6 50 0
 3760 006d 488D8570 		leaq	-400(%rbp), %rax
 3760      FEFFFF
 3761 0074 4889C7   		movq	%rax, %rdi
 3762              	.LEHB106:
 3763 0077 E8000000 		call	_ZN8UnitTest15MemoryOutStreamC1Ev
 3763      00
 3764              	.LEHE106:
  51:../Checks.h   ****         stream << "Expected " << expected << " +/- " << tolerance << " but was " << actual;
 3765              		.loc 6 51 0
 3766 007c 488B8558 		movq	-424(%rbp), %rax
 3766      FEFFFF
 3767 0083 8B18     		movl	(%rax), %ebx
 3768 0085 488B8550 		movq	-432(%rbp), %rax
 3768      FEFFFF
 3769 008c 448B20   		movl	(%rax), %r12d
 3770 008f 488B8560 		movq	-416(%rbp), %rax
 3770      FEFFFF
 3771 0096 448B28   		movl	(%rax), %r13d
 3772 0099 488D8570 		leaq	-400(%rbp), %rax
 3772      FEFFFF
 3773 00a0 BE000000 		movl	$.LC37, %esi
 3773      00
 3774 00a5 4889C7   		movq	%rax, %rdi
 3775              	.LEHB107:
 3776 00a8 E8000000 		call	_ZStlsISt11char_traitsIcEERSt13basic_ostreamIcT_ES5_PKc
 3776      00
 3777 00ad 4489AD44 		movl	%r13d, -444(%rbp)
 3777      FEFFFF
 3778 00b4 F30F1085 		movss	-444(%rbp), %xmm0
 3778      44FEFFFF 
 3779 00bc 4889C7   		movq	%rax, %rdi
 3780 00bf E8000000 		call	_ZNSolsEf
 3780      00
 3781              		.loc 6 51 0 is_stmt 0 discriminator 1
 3782 00c4 BE000000 		movl	$.LC39, %esi
 3782      00
 3783 00c9 4889C7   		movq	%rax, %rdi
 3784 00cc E8000000 		call	_ZStlsISt11char_traitsIcEERSt13basic_ostreamIcT_ES5_PKc
 3784      00
 3785              		.loc 6 51 0 discriminator 2
 3786 00d1 4489A544 		movl	%r12d, -444(%rbp)
 3786      FEFFFF
 3787 00d8 F30F1085 		movss	-444(%rbp), %xmm0
 3787      44FEFFFF 
 3788 00e0 4889C7   		movq	%rax, %rdi
 3789 00e3 E8000000 		call	_ZNSolsEf
 3789      00
 3790              		.loc 6 51 0 discriminator 3
 3791 00e8 BE000000 		movl	$.LC38, %esi
 3791      00
 3792 00ed 4889C7   		movq	%rax, %rdi
 3793 00f0 E8000000 		call	_ZStlsISt11char_traitsIcEERSt13basic_ostreamIcT_ES5_PKc
 3793      00
 3794              		.loc 6 51 0 discriminator 4
 3795 00f5 899D44FE 		movl	%ebx, -444(%rbp)
 3795      FFFF
 3796 00fb F30F1085 		movss	-444(%rbp), %xmm0
 3796      44FEFFFF 
 3797 0103 4889C7   		movq	%rax, %rdi
 3798 0106 E8000000 		call	_ZNSolsEf
 3798      00
  52:../Checks.h   **** 
  53:../Checks.h   ****         results.OnTestFailure(details, stream.GetText());
 3799              		.loc 6 53 0 is_stmt 1
 3800 010b 488D8570 		leaq	-400(%rbp), %rax
 3800      FEFFFF
 3801 0112 4889C7   		movq	%rax, %rdi
 3802 0115 E8000000 		call	_ZNK8UnitTest15MemoryOutStream7GetTextEv
 3802      00
 3803 011a 4889C2   		movq	%rax, %rdx
 3804 011d 488B8D48 		movq	-440(%rbp), %rcx
 3804      FEFFFF
 3805 0124 488B8568 		movq	-408(%rbp), %rax
 3805      FEFFFF
 3806 012b 4889CE   		movq	%rcx, %rsi
 3807 012e 4889C7   		movq	%rax, %rdi
 3808 0131 E8000000 		call	_ZN8UnitTest11TestResults13OnTestFailureERKNS_11TestDetailsEPKc
 3808      00
 3809              	.LEHE107:
 3810              		.loc 6 53 0 is_stmt 0 discriminator 4
 3811 0136 488D8570 		leaq	-400(%rbp), %rax
 3811      FEFFFF
 3812 013d 4889C7   		movq	%rax, %rdi
 3813              	.LEHB108:
 3814 0140 E8000000 		call	_ZN8UnitTest15MemoryOutStreamD1Ev
 3814      00
 3815              	.LEHE108:
 3816              	.L198:
 3817              	.LBE46:
 3818              	.LBE45:
 3819              	.LBE44:
  54:../Checks.h   ****     }
  55:../Checks.h   **** }
 3820              		.loc 6 55 0 is_stmt 1
 3821 0145 488B45D8 		movq	-40(%rbp), %rax
 3822 0149 64483304 		xorq	%fs:40, %rax
 3822      25280000 
 3822      00
 3823 0152 7424     		je	.L200
 3824 0154 EB1D     		jmp	.L202
 3825              	.L201:
 3826 0156 4889C3   		movq	%rax, %rbx
 3827              	.LBB49:
 3828              	.LBB48:
 3829              	.LBB47:
  53:../Checks.h   ****     }
 3830              		.loc 6 53 0
 3831 0159 488D8570 		leaq	-400(%rbp), %rax
 3831      FEFFFF
 3832 0160 4889C7   		movq	%rax, %rdi
 3833 0163 E8000000 		call	_ZN8UnitTest15MemoryOutStreamD1Ev
 3833      00
 3834 0168 4889D8   		movq	%rbx, %rax
 3835 016b 4889C7   		movq	%rax, %rdi
 3836              	.LEHB109:
 3837 016e E8000000 		call	_Unwind_Resume
 3837      00
 3838              	.LEHE109:
 3839              	.L202:
 3840              	.LBE47:
 3841              	.LBE48:
 3842              	.LBE49:
 3843              		.loc 6 55 0
 3844 0173 E8000000 		call	__stack_chk_fail
 3844      00
 3845              	.L200:
 3846 0178 4881C4A8 		addq	$424, %rsp
 3846      010000
 3847 017f 5B       		popq	%rbx
 3848 0180 415C     		popq	%r12
 3849 0182 415D     		popq	%r13
 3850 0184 5D       		popq	%rbp
 3851              		.cfi_def_cfa 7, 8
 3852 0185 C3       		ret
 3853              		.cfi_endproc
 3854              	.LFE1143:
 3855              		.section	.gcc_except_table
 3856              	.LLSDA1143:
 3857 02ab FF       		.byte	0xff
 3858 02ac FF       		.byte	0xff
 3859 02ad 01       		.byte	0x1
 3860 02ae 15       		.uleb128 .LLSDACSE1143-.LLSDACSB1143
 3861              	.LLSDACSB1143:
 3862 02af 77       		.uleb128 .LEHB106-.LFB1143
 3863 02b0 05       		.uleb128 .LEHE106-.LEHB106
 3864 02b1 00       		.uleb128 0
 3865 02b2 00       		.uleb128 0
 3866 02b3 A801     		.uleb128 .LEHB107-.LFB1143
 3867 02b5 8E01     		.uleb128 .LEHE107-.LEHB107
 3868 02b7 D602     		.uleb128 .L201-.LFB1143
 3869 02b9 00       		.uleb128 0
 3870 02ba C002     		.uleb128 .LEHB108-.LFB1143
 3871 02bc 05       		.uleb128 .LEHE108-.LEHB108
 3872 02bd 00       		.uleb128 0
 3873 02be 00       		.uleb128 0
 3874 02bf EE02     		.uleb128 .LEHB109-.LFB1143
 3875 02c1 05       		.uleb128 .LEHE109-.LEHB109
 3876 02c2 00       		.uleb128 0
 3877 02c3 00       		.uleb128 0
 3878              	.LLSDACSE1143:
 3879              		.section	.text._ZN8UnitTest10CheckCloseIfffEEvRNS_11TestResultsERKT_RKT0_RKT1_RKNS_11TestDetailsE,
 3881              		.section	.text._ZN8UnitTest8AreCloseIfffEEbRKT_RKT0_RKT1_,"axG",@progbits,_ZN8UnitTest8AreCloseIff
 3882              		.weak	_ZN8UnitTest8AreCloseIfffEEbRKT_RKT0_RKT1_
 3884              	_ZN8UnitTest8AreCloseIfffEEbRKT_RKT0_RKT1_:
 3885              	.LFB1173:
  39:../Checks.h   **** {
 3886              		.loc 6 39 0
 3887              		.cfi_startproc
 3888 0000 55       		pushq	%rbp
 3889              		.cfi_def_cfa_offset 16
 3890              		.cfi_offset 6, -16
 3891 0001 4889E5   		movq	%rsp, %rbp
 3892              		.cfi_def_cfa_register 6
 3893 0004 48897DF8 		movq	%rdi, -8(%rbp)
 3894 0008 488975F0 		movq	%rsi, -16(%rbp)
 3895 000c 488955E8 		movq	%rdx, -24(%rbp)
  41:../Checks.h   **** }
 3896              		.loc 6 41 0
 3897 0010 488B45F0 		movq	-16(%rbp), %rax
 3898 0014 F30F1008 		movss	(%rax), %xmm1
 3899 0018 488B45F8 		movq	-8(%rbp), %rax
 3900 001c F30F1000 		movss	(%rax), %xmm0
 3901 0020 488B45E8 		movq	-24(%rbp), %rax
 3902 0024 F30F1010 		movss	(%rax), %xmm2
 3903 0028 F30F5CC2 		subss	%xmm2, %xmm0
 3904 002c 0F2EC8   		ucomiss	%xmm0, %xmm1
 3905 002f 7228     		jb	.L204
  41:../Checks.h   **** }
 3906              		.loc 6 41 0 is_stmt 0 discriminator 1
 3907 0031 488B45F0 		movq	-16(%rbp), %rax
 3908 0035 F30F1008 		movss	(%rax), %xmm1
 3909 0039 488B45F8 		movq	-8(%rbp), %rax
 3910 003d F30F1010 		movss	(%rax), %xmm2
 3911 0041 488B45E8 		movq	-24(%rbp), %rax
 3912 0045 F30F1000 		movss	(%rax), %xmm0
 3913 0049 F30F58C2 		addss	%xmm2, %xmm0
 3914 004d 0F2EC1   		ucomiss	%xmm1, %xmm0
 3915 0050 7207     		jb	.L204
  41:../Checks.h   **** }
 3916              		.loc 6 41 0 discriminator 3
 3917 0052 B8010000 		movl	$1, %eax
 3917      00
 3918 0057 EB05     		jmp	.L208
 3919              	.L204:
  41:../Checks.h   **** }
 3920              		.loc 6 41 0 discriminator 4
 3921 0059 B8000000 		movl	$0, %eax
 3921      00
 3922              	.L208:
  42:../Checks.h   **** 
 3923              		.loc 6 42 0 is_stmt 1 discriminator 7
 3924 005e 5D       		popq	%rbp
 3925              		.cfi_def_cfa 7, 8
 3926 005f C3       		ret
 3927              		.cfi_endproc
 3928              	.LFE1173:
 3930              		.section	.rodata
 3931 06b5 00000000 		.align 32
 3931      00000000 
 3931      000000
 3934              	_ZTVN12_GLOBAL__N_129TestNotifiesReporterOfTestEndE:
 3935 06c0 00000000 		.quad	0
 3935      00000000 
 3936 06c8 00000000 		.quad	_ZTIN12_GLOBAL__N_129TestNotifiesReporterOfTestEndE
 3936      00000000 
 3937 06d0 00000000 		.quad	_ZN12_GLOBAL__N_129TestNotifiesReporterOfTestEndD1Ev
 3937      00000000 
 3938 06d8 00000000 		.quad	_ZN12_GLOBAL__N_129TestNotifiesReporterOfTestEndD0Ev
 3938      00000000 
 3939 06e0 00000000 		.quad	_ZNK12_GLOBAL__N_129TestNotifiesReporterOfTestEnd7RunImplEv
 3939      00000000 
 3940              		.text
 3941              		.align 2
 3943              	_ZN12_GLOBAL__N_129TestNotifiesReporterOfTestEndD2Ev:
 3944              	.LFB1195:
  98:TestTestResults.cpp **** {
 3945              		.loc 5 98 0
 3946              		.cfi_startproc
 3947 17e0 55       		pushq	%rbp
 3948              		.cfi_def_cfa_offset 16
 3949              		.cfi_offset 6, -16
 3950 17e1 4889E5   		movq	%rsp, %rbp
 3951              		.cfi_def_cfa_register 6
 3952 17e4 4883EC10 		subq	$16, %rsp
 3953 17e8 48897DF8 		movq	%rdi, -8(%rbp)
 3954              	.LBB50:
  98:TestTestResults.cpp **** {
 3955              		.loc 5 98 0
 3956 17ec 488B45F8 		movq	-8(%rbp), %rax
 3957 17f0 48C70000 		movq	$_ZTVN12_GLOBAL__N_129TestNotifiesReporterOfTestEndE+16, (%rax)
 3957      000000
 3958 17f7 488B45F8 		movq	-8(%rbp), %rax
 3959 17fb 4889C7   		movq	%rax, %rdi
 3960 17fe E8000000 		call	_ZN8UnitTest4TestD2Ev
 3960      00
 3961              	.LBE50:
 3962 1803 B8000000 		movl	$0, %eax
 3962      00
 3963 1808 85C0     		testl	%eax, %eax
 3964 180a 740C     		je	.L211
  98:TestTestResults.cpp **** {
 3965              		.loc 5 98 0 is_stmt 0 discriminator 4
 3966 180c 488B45F8 		movq	-8(%rbp), %rax
 3967 1810 4889C7   		movq	%rax, %rdi
 3968 1813 E8000000 		call	_ZdlPv
 3968      00
 3969              	.L211:
  98:TestTestResults.cpp **** {
 3970              		.loc 5 98 0
 3971 1818 C9       		leave
 3972              		.cfi_def_cfa 7, 8
 3973 1819 C3       		ret
 3974              		.cfi_endproc
 3975              	.LFE1195:
 3977              		.set	_ZN12_GLOBAL__N_129TestNotifiesReporterOfTestEndD1Ev,_ZN12_GLOBAL__N_129TestNotifiesReporterO
 3978              		.align 2
 3980              	_ZN12_GLOBAL__N_129TestNotifiesReporterOfTestEndD0Ev:
 3981              	.LFB1197:
  98:TestTestResults.cpp **** {
 3982              		.loc 5 98 0 is_stmt 1
 3983              		.cfi_startproc
 3984 181a 55       		pushq	%rbp
 3985              		.cfi_def_cfa_offset 16
 3986              		.cfi_offset 6, -16
 3987 181b 4889E5   		movq	%rsp, %rbp
 3988              		.cfi_def_cfa_register 6
 3989 181e 4883EC10 		subq	$16, %rsp
 3990 1822 48897DF8 		movq	%rdi, -8(%rbp)
  98:TestTestResults.cpp **** {
 3991              		.loc 5 98 0
 3992 1826 488B45F8 		movq	-8(%rbp), %rax
 3993 182a 4889C7   		movq	%rax, %rdi
 3994 182d E8AEFFFF 		call	_ZN12_GLOBAL__N_129TestNotifiesReporterOfTestEndD2Ev
 3994      FF
 3995 1832 488B45F8 		movq	-8(%rbp), %rax
 3996 1836 4889C7   		movq	%rax, %rdi
 3997 1839 E8000000 		call	_ZdlPv
 3997      00
 3998 183e C9       		leave
 3999              		.cfi_def_cfa 7, 8
 4000 183f C3       		ret
 4001              		.cfi_endproc
 4002              	.LFE1197:
 4004              		.section	.rodata
 4005 06e8 00000000 		.align 32
 4005      00000000 
 4005      00000000 
 4005      00000000 
 4005      00000000 
 4008              	_ZTVN12_GLOBAL__N_149TestNotifiesReporterOfCheckFailureWithCorrectInfoE:
 4009 0700 00000000 		.quad	0
 4009      00000000 
 4010 0708 00000000 		.quad	_ZTIN12_GLOBAL__N_149TestNotifiesReporterOfCheckFailureWithCorrectInfoE
 4010      00000000 
 4011 0710 00000000 		.quad	_ZN12_GLOBAL__N_149TestNotifiesReporterOfCheckFailureWithCorrectInfoD1Ev
 4011      00000000 
 4012 0718 00000000 		.quad	_ZN12_GLOBAL__N_149TestNotifiesReporterOfCheckFailureWithCorrectInfoD0Ev
 4012      00000000 
 4013 0720 00000000 		.quad	_ZNK12_GLOBAL__N_149TestNotifiesReporterOfCheckFailureWithCorrectInfo7RunImplEv
 4013      00000000 
 4014              		.text
 4015              		.align 2
 4017              	_ZN12_GLOBAL__N_149TestNotifiesReporterOfCheckFailureWithCorrectInfoD2Ev:
 4018              	.LFB1199:
  83:TestTestResults.cpp **** {
 4019              		.loc 5 83 0
 4020              		.cfi_startproc
 4021 1840 55       		pushq	%rbp
 4022              		.cfi_def_cfa_offset 16
 4023              		.cfi_offset 6, -16
 4024 1841 4889E5   		movq	%rsp, %rbp
 4025              		.cfi_def_cfa_register 6
 4026 1844 4883EC10 		subq	$16, %rsp
 4027 1848 48897DF8 		movq	%rdi, -8(%rbp)
 4028              	.LBB51:
  83:TestTestResults.cpp **** {
 4029              		.loc 5 83 0
 4030 184c 488B45F8 		movq	-8(%rbp), %rax
 4031 1850 48C70000 		movq	$_ZTVN12_GLOBAL__N_149TestNotifiesReporterOfCheckFailureWithCorrectInfoE+16, (%rax)
 4031      000000
 4032 1857 488B45F8 		movq	-8(%rbp), %rax
 4033 185b 4889C7   		movq	%rax, %rdi
 4034 185e E8000000 		call	_ZN8UnitTest4TestD2Ev
 4034      00
 4035              	.LBE51:
 4036 1863 B8000000 		movl	$0, %eax
 4036      00
 4037 1868 85C0     		testl	%eax, %eax
 4038 186a 740C     		je	.L216
  83:TestTestResults.cpp **** {
 4039              		.loc 5 83 0 is_stmt 0 discriminator 4
 4040 186c 488B45F8 		movq	-8(%rbp), %rax
 4041 1870 4889C7   		movq	%rax, %rdi
 4042 1873 E8000000 		call	_ZdlPv
 4042      00
 4043              	.L216:
  83:TestTestResults.cpp **** {
 4044              		.loc 5 83 0
 4045 1878 C9       		leave
 4046              		.cfi_def_cfa 7, 8
 4047 1879 C3       		ret
 4048              		.cfi_endproc
 4049              	.LFE1199:
 4051              		.set	_ZN12_GLOBAL__N_149TestNotifiesReporterOfCheckFailureWithCorrectInfoD1Ev,_ZN12_GLOBAL__N_149T
 4052              		.align 2
 4054              	_ZN12_GLOBAL__N_149TestNotifiesReporterOfCheckFailureWithCorrectInfoD0Ev:
 4055              	.LFB1201:
  83:TestTestResults.cpp **** {
 4056              		.loc 5 83 0 is_stmt 1
 4057              		.cfi_startproc
 4058 187a 55       		pushq	%rbp
 4059              		.cfi_def_cfa_offset 16
 4060              		.cfi_offset 6, -16
 4061 187b 4889E5   		movq	%rsp, %rbp
 4062              		.cfi_def_cfa_register 6
 4063 187e 4883EC10 		subq	$16, %rsp
 4064 1882 48897DF8 		movq	%rdi, -8(%rbp)
  83:TestTestResults.cpp **** {
 4065              		.loc 5 83 0
 4066 1886 488B45F8 		movq	-8(%rbp), %rax
 4067 188a 4889C7   		movq	%rax, %rdi
 4068 188d E8AEFFFF 		call	_ZN12_GLOBAL__N_149TestNotifiesReporterOfCheckFailureWithCorrectInfoD2Ev
 4068      FF
 4069 1892 488B45F8 		movq	-8(%rbp), %rax
 4070 1896 4889C7   		movq	%rax, %rdi
 4071 1899 E8000000 		call	_ZdlPv
 4071      00
 4072 189e C9       		leave
 4073              		.cfi_def_cfa 7, 8
 4074 189f C3       		ret
 4075              		.cfi_endproc
 4076              	.LFE1201:
 4078              		.section	.rodata
 4079 0728 00000000 		.align 32
 4079      00000000 
 4079      00000000 
 4079      00000000 
 4079      00000000 
 4082              	_ZTVN12_GLOBAL__N_148TestNotifiesReporterOfTestFailureWithCorrectInfoE:
 4083 0740 00000000 		.quad	0
 4083      00000000 
 4084 0748 00000000 		.quad	_ZTIN12_GLOBAL__N_148TestNotifiesReporterOfTestFailureWithCorrectInfoE
 4084      00000000 
 4085 0750 00000000 		.quad	_ZN12_GLOBAL__N_148TestNotifiesReporterOfTestFailureWithCorrectInfoD1Ev
 4085      00000000 
 4086 0758 00000000 		.quad	_ZN12_GLOBAL__N_148TestNotifiesReporterOfTestFailureWithCorrectInfoD0Ev
 4086      00000000 
 4087 0760 00000000 		.quad	_ZNK12_GLOBAL__N_148TestNotifiesReporterOfTestFailureWithCorrectInfo7RunImplEv
 4087      00000000 
 4088              		.text
 4089              		.align 2
 4091              	_ZN12_GLOBAL__N_148TestNotifiesReporterOfTestFailureWithCorrectInfoD2Ev:
 4092              	.LFB1203:
  69:TestTestResults.cpp **** {
 4093              		.loc 5 69 0
 4094              		.cfi_startproc
 4095 18a0 55       		pushq	%rbp
 4096              		.cfi_def_cfa_offset 16
 4097              		.cfi_offset 6, -16
 4098 18a1 4889E5   		movq	%rsp, %rbp
 4099              		.cfi_def_cfa_register 6
 4100 18a4 4883EC10 		subq	$16, %rsp
 4101 18a8 48897DF8 		movq	%rdi, -8(%rbp)
 4102              	.LBB52:
  69:TestTestResults.cpp **** {
 4103              		.loc 5 69 0
 4104 18ac 488B45F8 		movq	-8(%rbp), %rax
 4105 18b0 48C70000 		movq	$_ZTVN12_GLOBAL__N_148TestNotifiesReporterOfTestFailureWithCorrectInfoE+16, (%rax)
 4105      000000
 4106 18b7 488B45F8 		movq	-8(%rbp), %rax
 4107 18bb 4889C7   		movq	%rax, %rdi
 4108 18be E8000000 		call	_ZN8UnitTest4TestD2Ev
 4108      00
 4109              	.LBE52:
 4110 18c3 B8000000 		movl	$0, %eax
 4110      00
 4111 18c8 85C0     		testl	%eax, %eax
 4112 18ca 740C     		je	.L221
  69:TestTestResults.cpp **** {
 4113              		.loc 5 69 0 is_stmt 0 discriminator 4
 4114 18cc 488B45F8 		movq	-8(%rbp), %rax
 4115 18d0 4889C7   		movq	%rax, %rdi
 4116 18d3 E8000000 		call	_ZdlPv
 4116      00
 4117              	.L221:
  69:TestTestResults.cpp **** {
 4118              		.loc 5 69 0
 4119 18d8 C9       		leave
 4120              		.cfi_def_cfa 7, 8
 4121 18d9 C3       		ret
 4122              		.cfi_endproc
 4123              	.LFE1203:
 4125              		.set	_ZN12_GLOBAL__N_148TestNotifiesReporterOfTestFailureWithCorrectInfoD1Ev,_ZN12_GLOBAL__N_148Te
 4126              		.align 2
 4128              	_ZN12_GLOBAL__N_148TestNotifiesReporterOfTestFailureWithCorrectInfoD0Ev:
 4129              	.LFB1205:
  69:TestTestResults.cpp **** {
 4130              		.loc 5 69 0 is_stmt 1
 4131              		.cfi_startproc
 4132 18da 55       		pushq	%rbp
 4133              		.cfi_def_cfa_offset 16
 4134              		.cfi_offset 6, -16
 4135 18db 4889E5   		movq	%rsp, %rbp
 4136              		.cfi_def_cfa_register 6
 4137 18de 4883EC10 		subq	$16, %rsp
 4138 18e2 48897DF8 		movq	%rdi, -8(%rbp)
  69:TestTestResults.cpp **** {
 4139              		.loc 5 69 0
 4140 18e6 488B45F8 		movq	-8(%rbp), %rax
 4141 18ea 4889C7   		movq	%rax, %rdi
 4142 18ed E8AEFFFF 		call	_ZN12_GLOBAL__N_148TestNotifiesReporterOfTestFailureWithCorrectInfoD2Ev
 4142      FF
 4143 18f2 488B45F8 		movq	-8(%rbp), %rax
 4144 18f6 4889C7   		movq	%rax, %rdi
 4145 18f9 E8000000 		call	_ZdlPv
 4145      00
 4146 18fe C9       		leave
 4147              		.cfi_def_cfa 7, 8
 4148 18ff C3       		ret
 4149              		.cfi_endproc
 4150              	.LFE1205:
 4152              		.section	.rodata
 4153 0768 00000000 		.align 32
 4153      00000000 
 4153      00000000 
 4153      00000000 
 4153      00000000 
 4156              	_ZTVN12_GLOBAL__N_146TestNotifiesReporterOfTestStartWithCorrectInfoE:
 4157 0780 00000000 		.quad	0
 4157      00000000 
 4158 0788 00000000 		.quad	_ZTIN12_GLOBAL__N_146TestNotifiesReporterOfTestStartWithCorrectInfoE
 4158      00000000 
 4159 0790 00000000 		.quad	_ZN12_GLOBAL__N_146TestNotifiesReporterOfTestStartWithCorrectInfoD1Ev
 4159      00000000 
 4160 0798 00000000 		.quad	_ZN12_GLOBAL__N_146TestNotifiesReporterOfTestStartWithCorrectInfoD0Ev
 4160      00000000 
 4161 07a0 00000000 		.quad	_ZNK12_GLOBAL__N_146TestNotifiesReporterOfTestStartWithCorrectInfo7RunImplEv
 4161      00000000 
 4162              		.text
 4163              		.align 2
 4165              	_ZN12_GLOBAL__N_146TestNotifiesReporterOfTestStartWithCorrectInfoD2Ev:
 4166              	.LFB1207:
  58:TestTestResults.cpp **** {
 4167              		.loc 5 58 0
 4168              		.cfi_startproc
 4169 1900 55       		pushq	%rbp
 4170              		.cfi_def_cfa_offset 16
 4171              		.cfi_offset 6, -16
 4172 1901 4889E5   		movq	%rsp, %rbp
 4173              		.cfi_def_cfa_register 6
 4174 1904 4883EC10 		subq	$16, %rsp
 4175 1908 48897DF8 		movq	%rdi, -8(%rbp)
 4176              	.LBB53:
  58:TestTestResults.cpp **** {
 4177              		.loc 5 58 0
 4178 190c 488B45F8 		movq	-8(%rbp), %rax
 4179 1910 48C70000 		movq	$_ZTVN12_GLOBAL__N_146TestNotifiesReporterOfTestStartWithCorrectInfoE+16, (%rax)
 4179      000000
 4180 1917 488B45F8 		movq	-8(%rbp), %rax
 4181 191b 4889C7   		movq	%rax, %rdi
 4182 191e E8000000 		call	_ZN8UnitTest4TestD2Ev
 4182      00
 4183              	.LBE53:
 4184 1923 B8000000 		movl	$0, %eax
 4184      00
 4185 1928 85C0     		testl	%eax, %eax
 4186 192a 740C     		je	.L226
  58:TestTestResults.cpp **** {
 4187              		.loc 5 58 0 is_stmt 0 discriminator 4
 4188 192c 488B45F8 		movq	-8(%rbp), %rax
 4189 1930 4889C7   		movq	%rax, %rdi
 4190 1933 E8000000 		call	_ZdlPv
 4190      00
 4191              	.L226:
  58:TestTestResults.cpp **** {
 4192              		.loc 5 58 0
 4193 1938 C9       		leave
 4194              		.cfi_def_cfa 7, 8
 4195 1939 C3       		ret
 4196              		.cfi_endproc
 4197              	.LFE1207:
 4199              		.set	_ZN12_GLOBAL__N_146TestNotifiesReporterOfTestStartWithCorrectInfoD1Ev,_ZN12_GLOBAL__N_146Test
 4200              		.align 2
 4202              	_ZN12_GLOBAL__N_146TestNotifiesReporterOfTestStartWithCorrectInfoD0Ev:
 4203              	.LFB1209:
  58:TestTestResults.cpp **** {
 4204              		.loc 5 58 0 is_stmt 1
 4205              		.cfi_startproc
 4206 193a 55       		pushq	%rbp
 4207              		.cfi_def_cfa_offset 16
 4208              		.cfi_offset 6, -16
 4209 193b 4889E5   		movq	%rsp, %rbp
 4210              		.cfi_def_cfa_register 6
 4211 193e 4883EC10 		subq	$16, %rsp
 4212 1942 48897DF8 		movq	%rdi, -8(%rbp)
  58:TestTestResults.cpp **** {
 4213              		.loc 5 58 0
 4214 1946 488B45F8 		movq	-8(%rbp), %rax
 4215 194a 4889C7   		movq	%rax, %rdi
 4216 194d E8AEFFFF 		call	_ZN12_GLOBAL__N_146TestNotifiesReporterOfTestStartWithCorrectInfoD2Ev
 4216      FF
 4217 1952 488B45F8 		movq	-8(%rbp), %rax
 4218 1956 4889C7   		movq	%rax, %rdi
 4219 1959 E8000000 		call	_ZdlPv
 4219      00
 4220 195e C9       		leave
 4221              		.cfi_def_cfa 7, 8
 4222 195f C3       		ret
 4223              		.cfi_endproc
 4224              	.LFE1209:
 4226              		.section	.rodata
 4227 07a8 00000000 		.align 32
 4227      00000000 
 4227      00000000 
 4227      00000000 
 4227      00000000 
 4230              	_ZTVN12_GLOBAL__N_130TestRecordsNumberOfFailedTestsE:
 4231 07c0 00000000 		.quad	0
 4231      00000000 
 4232 07c8 00000000 		.quad	_ZTIN12_GLOBAL__N_130TestRecordsNumberOfFailedTestsE
 4232      00000000 
 4233 07d0 00000000 		.quad	_ZN12_GLOBAL__N_130TestRecordsNumberOfFailedTestsD1Ev
 4233      00000000 
 4234 07d8 00000000 		.quad	_ZN12_GLOBAL__N_130TestRecordsNumberOfFailedTestsD0Ev
 4234      00000000 
 4235 07e0 00000000 		.quad	_ZNK12_GLOBAL__N_130TestRecordsNumberOfFailedTests7RunImplEv
 4235      00000000 
 4236              		.text
 4237              		.align 2
 4239              	_ZN12_GLOBAL__N_130TestRecordsNumberOfFailedTestsD2Ev:
 4240              	.LFB1211:
  41:TestTestResults.cpp **** {
 4241              		.loc 5 41 0
 4242              		.cfi_startproc
 4243 1960 55       		pushq	%rbp
 4244              		.cfi_def_cfa_offset 16
 4245              		.cfi_offset 6, -16
 4246 1961 4889E5   		movq	%rsp, %rbp
 4247              		.cfi_def_cfa_register 6
 4248 1964 4883EC10 		subq	$16, %rsp
 4249 1968 48897DF8 		movq	%rdi, -8(%rbp)
 4250              	.LBB54:
  41:TestTestResults.cpp **** {
 4251              		.loc 5 41 0
 4252 196c 488B45F8 		movq	-8(%rbp), %rax
 4253 1970 48C70000 		movq	$_ZTVN12_GLOBAL__N_130TestRecordsNumberOfFailedTestsE+16, (%rax)
 4253      000000
 4254 1977 488B45F8 		movq	-8(%rbp), %rax
 4255 197b 4889C7   		movq	%rax, %rdi
 4256 197e E8000000 		call	_ZN8UnitTest4TestD2Ev
 4256      00
 4257              	.LBE54:
 4258 1983 B8000000 		movl	$0, %eax
 4258      00
 4259 1988 85C0     		testl	%eax, %eax
 4260 198a 740C     		je	.L231
  41:TestTestResults.cpp **** {
 4261              		.loc 5 41 0 is_stmt 0 discriminator 4
 4262 198c 488B45F8 		movq	-8(%rbp), %rax
 4263 1990 4889C7   		movq	%rax, %rdi
 4264 1993 E8000000 		call	_ZdlPv
 4264      00
 4265              	.L231:
  41:TestTestResults.cpp **** {
 4266              		.loc 5 41 0
 4267 1998 C9       		leave
 4268              		.cfi_def_cfa 7, 8
 4269 1999 C3       		ret
 4270              		.cfi_endproc
 4271              	.LFE1211:
 4273              		.set	_ZN12_GLOBAL__N_130TestRecordsNumberOfFailedTestsD1Ev,_ZN12_GLOBAL__N_130TestRecordsNumberOfF
 4274              		.align 2
 4276              	_ZN12_GLOBAL__N_130TestRecordsNumberOfFailedTestsD0Ev:
 4277              	.LFB1213:
  41:TestTestResults.cpp **** {
 4278              		.loc 5 41 0 is_stmt 1
 4279              		.cfi_startproc
 4280 199a 55       		pushq	%rbp
 4281              		.cfi_def_cfa_offset 16
 4282              		.cfi_offset 6, -16
 4283 199b 4889E5   		movq	%rsp, %rbp
 4284              		.cfi_def_cfa_register 6
 4285 199e 4883EC10 		subq	$16, %rsp
 4286 19a2 48897DF8 		movq	%rdi, -8(%rbp)
  41:TestTestResults.cpp **** {
 4287              		.loc 5 41 0
 4288 19a6 488B45F8 		movq	-8(%rbp), %rax
 4289 19aa 4889C7   		movq	%rax, %rdi
 4290 19ad E8AEFFFF 		call	_ZN12_GLOBAL__N_130TestRecordsNumberOfFailedTestsD2Ev
 4290      FF
 4291 19b2 488B45F8 		movq	-8(%rbp), %rax
 4292 19b6 4889C7   		movq	%rax, %rdi
 4293 19b9 E8000000 		call	_ZdlPv
 4293      00
 4294 19be C9       		leave
 4295              		.cfi_def_cfa 7, 8
 4296 19bf C3       		ret
 4297              		.cfi_endproc
 4298              	.LFE1213:
 4300              		.section	.rodata
 4301 07e8 00000000 		.align 32
 4301      00000000 
 4301      00000000 
 4301      00000000 
 4301      00000000 
 4304              	_ZTVN12_GLOBAL__N_127TestRecordsNumberOfFailuresE:
 4305 0800 00000000 		.quad	0
 4305      00000000 
 4306 0808 00000000 		.quad	_ZTIN12_GLOBAL__N_127TestRecordsNumberOfFailuresE
 4306      00000000 
 4307 0810 00000000 		.quad	_ZN12_GLOBAL__N_127TestRecordsNumberOfFailuresD1Ev
 4307      00000000 
 4308 0818 00000000 		.quad	_ZN12_GLOBAL__N_127TestRecordsNumberOfFailuresD0Ev
 4308      00000000 
 4309 0820 00000000 		.quad	_ZNK12_GLOBAL__N_127TestRecordsNumberOfFailures7RunImplEv
 4309      00000000 
 4310              		.text
 4311              		.align 2
 4313              	_ZN12_GLOBAL__N_127TestRecordsNumberOfFailuresD2Ev:
 4314              	.LFB1215:
  33:TestTestResults.cpp **** {
 4315              		.loc 5 33 0
 4316              		.cfi_startproc
 4317 19c0 55       		pushq	%rbp
 4318              		.cfi_def_cfa_offset 16
 4319              		.cfi_offset 6, -16
 4320 19c1 4889E5   		movq	%rsp, %rbp
 4321              		.cfi_def_cfa_register 6
 4322 19c4 4883EC10 		subq	$16, %rsp
 4323 19c8 48897DF8 		movq	%rdi, -8(%rbp)
 4324              	.LBB55:
  33:TestTestResults.cpp **** {
 4325              		.loc 5 33 0
 4326 19cc 488B45F8 		movq	-8(%rbp), %rax
 4327 19d0 48C70000 		movq	$_ZTVN12_GLOBAL__N_127TestRecordsNumberOfFailuresE+16, (%rax)
 4327      000000
 4328 19d7 488B45F8 		movq	-8(%rbp), %rax
 4329 19db 4889C7   		movq	%rax, %rdi
 4330 19de E8000000 		call	_ZN8UnitTest4TestD2Ev
 4330      00
 4331              	.LBE55:
 4332 19e3 B8000000 		movl	$0, %eax
 4332      00
 4333 19e8 85C0     		testl	%eax, %eax
 4334 19ea 740C     		je	.L236
  33:TestTestResults.cpp **** {
 4335              		.loc 5 33 0 is_stmt 0 discriminator 4
 4336 19ec 488B45F8 		movq	-8(%rbp), %rax
 4337 19f0 4889C7   		movq	%rax, %rdi
 4338 19f3 E8000000 		call	_ZdlPv
 4338      00
 4339              	.L236:
  33:TestTestResults.cpp **** {
 4340              		.loc 5 33 0
 4341 19f8 C9       		leave
 4342              		.cfi_def_cfa 7, 8
 4343 19f9 C3       		ret
 4344              		.cfi_endproc
 4345              	.LFE1215:
 4347              		.set	_ZN12_GLOBAL__N_127TestRecordsNumberOfFailuresD1Ev,_ZN12_GLOBAL__N_127TestRecordsNumberOfFail
 4348              		.align 2
 4350              	_ZN12_GLOBAL__N_127TestRecordsNumberOfFailuresD0Ev:
 4351              	.LFB1217:
  33:TestTestResults.cpp **** {
 4352              		.loc 5 33 0 is_stmt 1
 4353              		.cfi_startproc
 4354 19fa 55       		pushq	%rbp
 4355              		.cfi_def_cfa_offset 16
 4356              		.cfi_offset 6, -16
 4357 19fb 4889E5   		movq	%rsp, %rbp
 4358              		.cfi_def_cfa_register 6
 4359 19fe 4883EC10 		subq	$16, %rsp
 4360 1a02 48897DF8 		movq	%rdi, -8(%rbp)
  33:TestTestResults.cpp **** {
 4361              		.loc 5 33 0
 4362 1a06 488B45F8 		movq	-8(%rbp), %rax
 4363 1a0a 4889C7   		movq	%rax, %rdi
 4364 1a0d E8AEFFFF 		call	_ZN12_GLOBAL__N_127TestRecordsNumberOfFailuresD2Ev
 4364      FF
 4365 1a12 488B45F8 		movq	-8(%rbp), %rax
 4366 1a16 4889C7   		movq	%rax, %rdi
 4367 1a19 E8000000 		call	_ZdlPv
 4367      00
 4368 1a1e C9       		leave
 4369              		.cfi_def_cfa 7, 8
 4370 1a1f C3       		ret
 4371              		.cfi_endproc
 4372              	.LFE1217:
 4374              		.section	.rodata
 4375 0828 00000000 		.align 32
 4375      00000000 
 4375      00000000 
 4375      00000000 
 4375      00000000 
 4378              	_ZTVN12_GLOBAL__N_128TestStartsWithNoTestsFailingE:
 4379 0840 00000000 		.quad	0
 4379      00000000 
 4380 0848 00000000 		.quad	_ZTIN12_GLOBAL__N_128TestStartsWithNoTestsFailingE
 4380      00000000 
 4381 0850 00000000 		.quad	_ZN12_GLOBAL__N_128TestStartsWithNoTestsFailingD1Ev
 4381      00000000 
 4382 0858 00000000 		.quad	_ZN12_GLOBAL__N_128TestStartsWithNoTestsFailingD0Ev
 4382      00000000 
 4383 0860 00000000 		.quad	_ZNK12_GLOBAL__N_128TestStartsWithNoTestsFailing7RunImplEv
 4383      00000000 
 4384              		.text
 4385              		.align 2
 4387              	_ZN12_GLOBAL__N_128TestStartsWithNoTestsFailingD2Ev:
 4388              	.LFB1219:
  27:TestTestResults.cpp **** {
 4389              		.loc 5 27 0
 4390              		.cfi_startproc
 4391 1a20 55       		pushq	%rbp
 4392              		.cfi_def_cfa_offset 16
 4393              		.cfi_offset 6, -16
 4394 1a21 4889E5   		movq	%rsp, %rbp
 4395              		.cfi_def_cfa_register 6
 4396 1a24 4883EC10 		subq	$16, %rsp
 4397 1a28 48897DF8 		movq	%rdi, -8(%rbp)
 4398              	.LBB56:
  27:TestTestResults.cpp **** {
 4399              		.loc 5 27 0
 4400 1a2c 488B45F8 		movq	-8(%rbp), %rax
 4401 1a30 48C70000 		movq	$_ZTVN12_GLOBAL__N_128TestStartsWithNoTestsFailingE+16, (%rax)
 4401      000000
 4402 1a37 488B45F8 		movq	-8(%rbp), %rax
 4403 1a3b 4889C7   		movq	%rax, %rdi
 4404 1a3e E8000000 		call	_ZN8UnitTest4TestD2Ev
 4404      00
 4405              	.LBE56:
 4406 1a43 B8000000 		movl	$0, %eax
 4406      00
 4407 1a48 85C0     		testl	%eax, %eax
 4408 1a4a 740C     		je	.L241
  27:TestTestResults.cpp **** {
 4409              		.loc 5 27 0 is_stmt 0 discriminator 4
 4410 1a4c 488B45F8 		movq	-8(%rbp), %rax
 4411 1a50 4889C7   		movq	%rax, %rdi
 4412 1a53 E8000000 		call	_ZdlPv
 4412      00
 4413              	.L241:
  27:TestTestResults.cpp **** {
 4414              		.loc 5 27 0
 4415 1a58 C9       		leave
 4416              		.cfi_def_cfa 7, 8
 4417 1a59 C3       		ret
 4418              		.cfi_endproc
 4419              	.LFE1219:
 4421              		.set	_ZN12_GLOBAL__N_128TestStartsWithNoTestsFailingD1Ev,_ZN12_GLOBAL__N_128TestStartsWithNoTestsF
 4422              		.align 2
 4424              	_ZN12_GLOBAL__N_128TestStartsWithNoTestsFailingD0Ev:
 4425              	.LFB1221:
  27:TestTestResults.cpp **** {
 4426              		.loc 5 27 0 is_stmt 1
 4427              		.cfi_startproc
 4428 1a5a 55       		pushq	%rbp
 4429              		.cfi_def_cfa_offset 16
 4430              		.cfi_offset 6, -16
 4431 1a5b 4889E5   		movq	%rsp, %rbp
 4432              		.cfi_def_cfa_register 6
 4433 1a5e 4883EC10 		subq	$16, %rsp
 4434 1a62 48897DF8 		movq	%rdi, -8(%rbp)
  27:TestTestResults.cpp **** {
 4435              		.loc 5 27 0
 4436 1a66 488B45F8 		movq	-8(%rbp), %rax
 4437 1a6a 4889C7   		movq	%rax, %rdi
 4438 1a6d E8AEFFFF 		call	_ZN12_GLOBAL__N_128TestStartsWithNoTestsFailingD2Ev
 4438      FF
 4439 1a72 488B45F8 		movq	-8(%rbp), %rax
 4440 1a76 4889C7   		movq	%rax, %rdi
 4441 1a79 E8000000 		call	_ZdlPv
 4441      00
 4442 1a7e C9       		leave
 4443              		.cfi_def_cfa 7, 8
 4444 1a7f C3       		ret
 4445              		.cfi_endproc
 4446              	.LFE1221:
 4448              		.section	.rodata
 4449 0868 00000000 		.align 32
 4449      00000000 
 4449      00000000 
 4449      00000000 
 4449      00000000 
 4452              	_ZTVN12_GLOBAL__N_125TestRecordsNumbersOfTestsE:
 4453 0880 00000000 		.quad	0
 4453      00000000 
 4454 0888 00000000 		.quad	_ZTIN12_GLOBAL__N_125TestRecordsNumbersOfTestsE
 4454      00000000 
 4455 0890 00000000 		.quad	_ZN12_GLOBAL__N_125TestRecordsNumbersOfTestsD1Ev
 4455      00000000 
 4456 0898 00000000 		.quad	_ZN12_GLOBAL__N_125TestRecordsNumbersOfTestsD0Ev
 4456      00000000 
 4457 08a0 00000000 		.quad	_ZNK12_GLOBAL__N_125TestRecordsNumbersOfTests7RunImplEv
 4457      00000000 
 4458              		.text
 4459              		.align 2
 4461              	_ZN12_GLOBAL__N_125TestRecordsNumbersOfTestsD2Ev:
 4462              	.LFB1223:
  18:TestTestResults.cpp **** {
 4463              		.loc 5 18 0
 4464              		.cfi_startproc
 4465 1a80 55       		pushq	%rbp
 4466              		.cfi_def_cfa_offset 16
 4467              		.cfi_offset 6, -16
 4468 1a81 4889E5   		movq	%rsp, %rbp
 4469              		.cfi_def_cfa_register 6
 4470 1a84 4883EC10 		subq	$16, %rsp
 4471 1a88 48897DF8 		movq	%rdi, -8(%rbp)
 4472              	.LBB57:
  18:TestTestResults.cpp **** {
 4473              		.loc 5 18 0
 4474 1a8c 488B45F8 		movq	-8(%rbp), %rax
 4475 1a90 48C70000 		movq	$_ZTVN12_GLOBAL__N_125TestRecordsNumbersOfTestsE+16, (%rax)
 4475      000000
 4476 1a97 488B45F8 		movq	-8(%rbp), %rax
 4477 1a9b 4889C7   		movq	%rax, %rdi
 4478 1a9e E8000000 		call	_ZN8UnitTest4TestD2Ev
 4478      00
 4479              	.LBE57:
 4480 1aa3 B8000000 		movl	$0, %eax
 4480      00
 4481 1aa8 85C0     		testl	%eax, %eax
 4482 1aaa 740C     		je	.L246
  18:TestTestResults.cpp **** {
 4483              		.loc 5 18 0 is_stmt 0 discriminator 4
 4484 1aac 488B45F8 		movq	-8(%rbp), %rax
 4485 1ab0 4889C7   		movq	%rax, %rdi
 4486 1ab3 E8000000 		call	_ZdlPv
 4486      00
 4487              	.L246:
  18:TestTestResults.cpp **** {
 4488              		.loc 5 18 0
 4489 1ab8 C9       		leave
 4490              		.cfi_def_cfa 7, 8
 4491 1ab9 C3       		ret
 4492              		.cfi_endproc
 4493              	.LFE1223:
 4495              		.set	_ZN12_GLOBAL__N_125TestRecordsNumbersOfTestsD1Ev,_ZN12_GLOBAL__N_125TestRecordsNumbersOfTests
 4496              		.align 2
 4498              	_ZN12_GLOBAL__N_125TestRecordsNumbersOfTestsD0Ev:
 4499              	.LFB1225:
  18:TestTestResults.cpp **** {
 4500              		.loc 5 18 0 is_stmt 1
 4501              		.cfi_startproc
 4502 1aba 55       		pushq	%rbp
 4503              		.cfi_def_cfa_offset 16
 4504              		.cfi_offset 6, -16
 4505 1abb 4889E5   		movq	%rsp, %rbp
 4506              		.cfi_def_cfa_register 6
 4507 1abe 4883EC10 		subq	$16, %rsp
 4508 1ac2 48897DF8 		movq	%rdi, -8(%rbp)
  18:TestTestResults.cpp **** {
 4509              		.loc 5 18 0
 4510 1ac6 488B45F8 		movq	-8(%rbp), %rax
 4511 1aca 4889C7   		movq	%rax, %rdi
 4512 1acd E8AEFFFF 		call	_ZN12_GLOBAL__N_125TestRecordsNumbersOfTestsD2Ev
 4512      FF
 4513 1ad2 488B45F8 		movq	-8(%rbp), %rax
 4514 1ad6 4889C7   		movq	%rax, %rdi
 4515 1ad9 E8000000 		call	_ZdlPv
 4515      00
 4516 1ade C9       		leave
 4517              		.cfi_def_cfa 7, 8
 4518 1adf C3       		ret
 4519              		.cfi_endproc
 4520              	.LFE1225:
 4522              		.section	.rodata
 4523 08a8 00000000 		.align 32
 4523      00000000 
 4523      00000000 
 4523      00000000 
 4523      00000000 
 4526              	_ZTVN12_GLOBAL__N_124TestStartsWithNoTestsRunE:
 4527 08c0 00000000 		.quad	0
 4527      00000000 
 4528 08c8 00000000 		.quad	_ZTIN12_GLOBAL__N_124TestStartsWithNoTestsRunE
 4528      00000000 
 4529 08d0 00000000 		.quad	_ZN12_GLOBAL__N_124TestStartsWithNoTestsRunD1Ev
 4529      00000000 
 4530 08d8 00000000 		.quad	_ZN12_GLOBAL__N_124TestStartsWithNoTestsRunD0Ev
 4530      00000000 
 4531 08e0 00000000 		.quad	_ZNK12_GLOBAL__N_124TestStartsWithNoTestsRun7RunImplEv
 4531      00000000 
 4532              		.text
 4533              		.align 2
 4535              	_ZN12_GLOBAL__N_124TestStartsWithNoTestsRunD2Ev:
 4536              	.LFB1227:
  12:TestTestResults.cpp **** {
 4537              		.loc 5 12 0
 4538              		.cfi_startproc
 4539 1ae0 55       		pushq	%rbp
 4540              		.cfi_def_cfa_offset 16
 4541              		.cfi_offset 6, -16
 4542 1ae1 4889E5   		movq	%rsp, %rbp
 4543              		.cfi_def_cfa_register 6
 4544 1ae4 4883EC10 		subq	$16, %rsp
 4545 1ae8 48897DF8 		movq	%rdi, -8(%rbp)
 4546              	.LBB58:
  12:TestTestResults.cpp **** {
 4547              		.loc 5 12 0
 4548 1aec 488B45F8 		movq	-8(%rbp), %rax
 4549 1af0 48C70000 		movq	$_ZTVN12_GLOBAL__N_124TestStartsWithNoTestsRunE+16, (%rax)
 4549      000000
 4550 1af7 488B45F8 		movq	-8(%rbp), %rax
 4551 1afb 4889C7   		movq	%rax, %rdi
 4552 1afe E8000000 		call	_ZN8UnitTest4TestD2Ev
 4552      00
 4553              	.LBE58:
 4554 1b03 B8000000 		movl	$0, %eax
 4554      00
 4555 1b08 85C0     		testl	%eax, %eax
 4556 1b0a 740C     		je	.L251
  12:TestTestResults.cpp **** {
 4557              		.loc 5 12 0 is_stmt 0 discriminator 4
 4558 1b0c 488B45F8 		movq	-8(%rbp), %rax
 4559 1b10 4889C7   		movq	%rax, %rdi
 4560 1b13 E8000000 		call	_ZdlPv
 4560      00
 4561              	.L251:
  12:TestTestResults.cpp **** {
 4562              		.loc 5 12 0
 4563 1b18 C9       		leave
 4564              		.cfi_def_cfa 7, 8
 4565 1b19 C3       		ret
 4566              		.cfi_endproc
 4567              	.LFE1227:
 4569              		.set	_ZN12_GLOBAL__N_124TestStartsWithNoTestsRunD1Ev,_ZN12_GLOBAL__N_124TestStartsWithNoTestsRunD2
 4570              		.align 2
 4572              	_ZN12_GLOBAL__N_124TestStartsWithNoTestsRunD0Ev:
 4573              	.LFB1229:
  12:TestTestResults.cpp **** {
 4574              		.loc 5 12 0 is_stmt 1
 4575              		.cfi_startproc
 4576 1b1a 55       		pushq	%rbp
 4577              		.cfi_def_cfa_offset 16
 4578              		.cfi_offset 6, -16
 4579 1b1b 4889E5   		movq	%rsp, %rbp
 4580              		.cfi_def_cfa_register 6
 4581 1b1e 4883EC10 		subq	$16, %rsp
 4582 1b22 48897DF8 		movq	%rdi, -8(%rbp)
  12:TestTestResults.cpp **** {
 4583              		.loc 5 12 0
 4584 1b26 488B45F8 		movq	-8(%rbp), %rax
 4585 1b2a 4889C7   		movq	%rax, %rdi
 4586 1b2d E8AEFFFF 		call	_ZN12_GLOBAL__N_124TestStartsWithNoTestsRunD2Ev
 4586      FF
 4587 1b32 488B45F8 		movq	-8(%rbp), %rax
 4588 1b36 4889C7   		movq	%rax, %rdi
 4589 1b39 E8000000 		call	_ZdlPv
 4589      00
 4590 1b3e C9       		leave
 4591              		.cfi_def_cfa 7, 8
 4592 1b3f C3       		ret
 4593              		.cfi_endproc
 4594              	.LFE1229:
 4596              		.weak	_ZTV17RecordingReporter
 4597              		.section	.rodata._ZTV17RecordingReporter,"aG",@progbits,_ZTV17RecordingReporter,comdat
 4598              		.align 64
 4601              	_ZTV17RecordingReporter:
 4602 0000 00000000 		.quad	0
 4602      00000000 
 4603 0008 00000000 		.quad	_ZTI17RecordingReporter
 4603      00000000 
 4604 0010 00000000 		.quad	_ZN17RecordingReporterD1Ev
 4604      00000000 
 4605 0018 00000000 		.quad	_ZN17RecordingReporterD0Ev
 4605      00000000 
 4606 0020 00000000 		.quad	_ZN17RecordingReporter15ReportTestStartERKN8UnitTest11TestDetailsE
 4606      00000000 
 4607 0028 00000000 		.quad	_ZN17RecordingReporter13ReportFailureERKN8UnitTest11TestDetailsEPKc
 4607      00000000 
 4608 0030 00000000 		.quad	_ZN17RecordingReporter16ReportTestFinishERKN8UnitTest11TestDetailsEf
 4608      00000000 
 4609 0038 00000000 		.quad	_ZN17RecordingReporter13ReportSummaryEiiif
 4609      00000000 
 4610              		.section	.text._ZN17RecordingReporterD2Ev,"axG",@progbits,_ZN17RecordingReporterD5Ev,comdat
 4611              		.align 2
 4612              		.weak	_ZN17RecordingReporterD2Ev
 4614              	_ZN17RecordingReporterD2Ev:
 4615              	.LFB1231:
   9:RecordingReporter.h **** {
 4616              		.loc 4 9 0
 4617              		.cfi_startproc
 4618 0000 55       		pushq	%rbp
 4619              		.cfi_def_cfa_offset 16
 4620              		.cfi_offset 6, -16
 4621 0001 4889E5   		movq	%rsp, %rbp
 4622              		.cfi_def_cfa_register 6
 4623 0004 4883EC10 		subq	$16, %rsp
 4624 0008 48897DF8 		movq	%rdi, -8(%rbp)
 4625              	.LBB59:
   9:RecordingReporter.h **** {
 4626              		.loc 4 9 0
 4627 000c 488B45F8 		movq	-8(%rbp), %rax
 4628 0010 48C70000 		movq	$_ZTV17RecordingReporter+16, (%rax)
 4628      000000
 4629 0017 488B45F8 		movq	-8(%rbp), %rax
 4630 001b 4889C7   		movq	%rax, %rdi
 4631 001e E8000000 		call	_ZN8UnitTest12TestReporterD2Ev
 4631      00
 4632              	.LBE59:
 4633 0023 B8000000 		movl	$0, %eax
 4633      00
 4634 0028 85C0     		testl	%eax, %eax
 4635 002a 740C     		je	.L256
   9:RecordingReporter.h **** {
 4636              		.loc 4 9 0 is_stmt 0 discriminator 4
 4637 002c 488B45F8 		movq	-8(%rbp), %rax
 4638 0030 4889C7   		movq	%rax, %rdi
 4639 0033 E8000000 		call	_ZdlPv
 4639      00
 4640              	.L256:
   9:RecordingReporter.h **** {
 4641              		.loc 4 9 0
 4642 0038 C9       		leave
 4643              		.cfi_def_cfa 7, 8
 4644 0039 C3       		ret
 4645              		.cfi_endproc
 4646              	.LFE1231:
 4648              		.weak	_ZN17RecordingReporterD1Ev
 4649              		.set	_ZN17RecordingReporterD1Ev,_ZN17RecordingReporterD2Ev
 4650              		.section	.text._ZN17RecordingReporterD0Ev,"axG",@progbits,_ZN17RecordingReporterD5Ev,comdat
 4651              		.align 2
 4652              		.weak	_ZN17RecordingReporterD0Ev
 4654              	_ZN17RecordingReporterD0Ev:
 4655              	.LFB1233:
   9:RecordingReporter.h **** {
 4656              		.loc 4 9 0 is_stmt 1
 4657              		.cfi_startproc
 4658 0000 55       		pushq	%rbp
 4659              		.cfi_def_cfa_offset 16
 4660              		.cfi_offset 6, -16
 4661 0001 4889E5   		movq	%rsp, %rbp
 4662              		.cfi_def_cfa_register 6
 4663 0004 4883EC10 		subq	$16, %rsp
 4664 0008 48897DF8 		movq	%rdi, -8(%rbp)
   9:RecordingReporter.h **** {
 4665              		.loc 4 9 0
 4666 000c 488B45F8 		movq	-8(%rbp), %rax
 4667 0010 4889C7   		movq	%rax, %rdi
 4668 0013 E8000000 		call	_ZN17RecordingReporterD1Ev
 4668      00
 4669 0018 488B45F8 		movq	-8(%rbp), %rax
 4670 001c 4889C7   		movq	%rax, %rdi
 4671 001f E8000000 		call	_ZdlPv
 4671      00
 4672 0024 C9       		leave
 4673              		.cfi_def_cfa 7, 8
 4674 0025 C3       		ret
 4675              		.cfi_endproc
 4676              	.LFE1233:
 4678              		.weak	_ZTVN8UnitTest15MemoryOutStreamE
 4679              		.section	.rodata._ZTVN8UnitTest15MemoryOutStreamE,"aG",@progbits,_ZTVN8UnitTest15MemoryOutStreamE,
 4680              		.align 64
 4683              	_ZTVN8UnitTest15MemoryOutStreamE:
 4684 0000 60000000 		.quad	96
 4684      00000000 
 4685 0008 00000000 		.quad	0
 4685      00000000 
 4686 0010 00000000 		.quad	_ZTIN8UnitTest15MemoryOutStreamE
 4686      00000000 
 4687 0018 00000000 		.quad	_ZN8UnitTest15MemoryOutStreamD1Ev
 4687      00000000 
 4688 0020 00000000 		.quad	_ZN8UnitTest15MemoryOutStreamD0Ev
 4688      00000000 
 4689 0028 A0FFFFFF 		.quad	-96
 4689      FFFFFFFF 
 4690 0030 A0FFFFFF 		.quad	-96
 4690      FFFFFFFF 
 4691 0038 00000000 		.quad	_ZTIN8UnitTest15MemoryOutStreamE
 4691      00000000 
 4692 0040 00000000 		.quad	_ZTv0_n24_N8UnitTest15MemoryOutStreamD1Ev
 4692      00000000 
 4693 0048 00000000 		.quad	_ZTv0_n24_N8UnitTest15MemoryOutStreamD0Ev
 4693      00000000 
 4694              		.weak	_ZTTN8UnitTest15MemoryOutStreamE
 4695              		.section	.rodata._ZTTN8UnitTest15MemoryOutStreamE,"aG",@progbits,_ZTVN8UnitTest15MemoryOutStreamE,
 4696              		.align 32
 4699              	_ZTTN8UnitTest15MemoryOutStreamE:
 4700 0000 00000000 		.quad	_ZTVN8UnitTest15MemoryOutStreamE+24
 4700      00000000 
 4701 0008 00000000 		.quad	_ZTCN8UnitTest15MemoryOutStreamE0_St19basic_ostringstreamIcSt11char_traitsIcESaIcEE+24
 4701      00000000 
 4702 0010 00000000 		.quad	_ZTCN8UnitTest15MemoryOutStreamE0_So+24
 4702      00000000 
 4703 0018 00000000 		.quad	_ZTCN8UnitTest15MemoryOutStreamE0_So+64
 4703      00000000 
 4704 0020 00000000 		.quad	_ZTCN8UnitTest15MemoryOutStreamE0_St19basic_ostringstreamIcSt11char_traitsIcESaIcEE+64
 4704      00000000 
 4705 0028 00000000 		.quad	_ZTVN8UnitTest15MemoryOutStreamE+64
 4705      00000000 
 4706              		.hidden	_ZTCN8UnitTest15MemoryOutStreamE0_St19basic_ostringstreamIcSt11char_traitsIcESaIcEE
 4707              		.weak	_ZTCN8UnitTest15MemoryOutStreamE0_St19basic_ostringstreamIcSt11char_traitsIcESaIcEE
 4708              		.section	.rodata._ZTCN8UnitTest15MemoryOutStreamE0_St19basic_ostringstreamIcSt11char_traitsIcESaIc
 4709              		.align 64
 4712              	_ZTCN8UnitTest15MemoryOutStreamE0_St19basic_ostringstreamIcSt11char_traitsIcESaIcEE:
 4713 0000 60000000 		.quad	96
 4713      00000000 
 4714 0008 00000000 		.quad	0
 4714      00000000 
 4715 0010 00000000 		.quad	_ZTISt19basic_ostringstreamIcSt11char_traitsIcESaIcEE
 4715      00000000 
 4716 0018 00000000 		.quad	0
 4716      00000000 
 4717 0020 00000000 		.quad	0
 4717      00000000 
 4718 0028 A0FFFFFF 		.quad	-96
 4718      FFFFFFFF 
 4719 0030 A0FFFFFF 		.quad	-96
 4719      FFFFFFFF 
 4720 0038 00000000 		.quad	_ZTISt19basic_ostringstreamIcSt11char_traitsIcESaIcEE
 4720      00000000 
 4721 0040 00000000 		.quad	0
 4721      00000000 
 4722 0048 00000000 		.quad	0
 4722      00000000 
 4723              		.hidden	_ZTCN8UnitTest15MemoryOutStreamE0_So
 4724              		.weak	_ZTCN8UnitTest15MemoryOutStreamE0_So
 4725              		.section	.rodata._ZTCN8UnitTest15MemoryOutStreamE0_So,"aG",@progbits,_ZTVN8UnitTest15MemoryOutStre
 4726              		.align 64
 4729              	_ZTCN8UnitTest15MemoryOutStreamE0_So:
 4730 0000 60000000 		.quad	96
 4730      00000000 
 4731 0008 00000000 		.quad	0
 4731      00000000 
 4732 0010 00000000 		.quad	_ZTISo
 4732      00000000 
 4733 0018 00000000 		.quad	0
 4733      00000000 
 4734 0020 00000000 		.quad	0
 4734      00000000 
 4735 0028 A0FFFFFF 		.quad	-96
 4735      FFFFFFFF 
 4736 0030 A0FFFFFF 		.quad	-96
 4736      FFFFFFFF 
 4737 0038 00000000 		.quad	_ZTISo
 4737      00000000 
 4738 0040 00000000 		.quad	0
 4738      00000000 
 4739 0048 00000000 		.quad	0
 4739      00000000 
 4740              		.weak	_ZTS17RecordingReporter
 4741              		.section	.rodata._ZTS17RecordingReporter,"aG",@progbits,_ZTS17RecordingReporter,comdat
 4742              		.align 16
 4745              	_ZTS17RecordingReporter:
 4746 0000 31375265 		.string	"17RecordingReporter"
 4746      636F7264 
 4746      696E6752 
 4746      65706F72 
 4746      74657200 
 4747              		.weak	_ZTI17RecordingReporter
 4748              		.section	.rodata._ZTI17RecordingReporter,"aG",@progbits,_ZTI17RecordingReporter,comdat
 4749              		.align 16
 4752              	_ZTI17RecordingReporter:
 4753 0000 00000000 		.quad	_ZTVN10__cxxabiv120__si_class_type_infoE+16
 4753      00000000 
 4754 0008 00000000 		.quad	_ZTS17RecordingReporter
 4754      00000000 
 4755 0010 00000000 		.quad	_ZTIN8UnitTest12TestReporterE
 4755      00000000 
 4756              		.weak	_ZTSN8UnitTest15MemoryOutStreamE
 4757              		.section	.rodata._ZTSN8UnitTest15MemoryOutStreamE,"aG",@progbits,_ZTSN8UnitTest15MemoryOutStreamE,
 4758              		.align 16
 4761              	_ZTSN8UnitTest15MemoryOutStreamE:
 4762 0000 4E38556E 		.string	"N8UnitTest15MemoryOutStreamE"
 4762      69745465 
 4762      73743135 
 4762      4D656D6F 
 4762      72794F75 
 4763              		.weak	_ZTIN8UnitTest15MemoryOutStreamE
 4764              		.section	.rodata._ZTIN8UnitTest15MemoryOutStreamE,"aG",@progbits,_ZTIN8UnitTest15MemoryOutStreamE,
 4765              		.align 16
 4768              	_ZTIN8UnitTest15MemoryOutStreamE:
 4769 0000 00000000 		.quad	_ZTVN10__cxxabiv120__si_class_type_infoE+16
 4769      00000000 
 4770 0008 00000000 		.quad	_ZTSN8UnitTest15MemoryOutStreamE
 4770      00000000 
 4771 0010 00000000 		.quad	_ZTISt19basic_ostringstreamIcSt11char_traitsIcESaIcEE
 4771      00000000 
 4772              		.text
 4774              	_Z41__static_initialization_and_destruction_0ii:
 4775              	.LFB1234:
 109:TestTestResults.cpp **** 
 110:TestTestResults.cpp **** 
 111:TestTestResults.cpp **** }
 4776              		.loc 5 111 0
 4777              		.cfi_startproc
 4778 1b40 55       		pushq	%rbp
 4779              		.cfi_def_cfa_offset 16
 4780              		.cfi_offset 6, -16
 4781 1b41 4889E5   		movq	%rsp, %rbp
 4782              		.cfi_def_cfa_register 6
 4783 1b44 4883EC10 		subq	$16, %rsp
 4784 1b48 897DFC   		movl	%edi, -4(%rbp)
 4785 1b4b 8975F8   		movl	%esi, -8(%rbp)
 4786              		.loc 5 111 0
 4787 1b4e 837DFC01 		cmpl	$1, -4(%rbp)
 4788 1b52 0F850902 		jne	.L261
 4788      0000
 4789              		.loc 5 111 0 is_stmt 0 discriminator 1
 4790 1b58 817DF8FF 		cmpl	$65535, -8(%rbp)
 4790      FF0000
 4791 1b5f 0F85FC01 		jne	.L261
 4791      0000
   9:TestTestResults.cpp **** 
 4792              		.loc 5 9 0 is_stmt 1
 4793 1b65 41B87B00 		movl	$123, %r8d
 4793      0000
 4794 1b6b B9000000 		movl	$.LC22, %ecx
 4794      00
 4795 1b70 BA000000 		movl	$.LC15, %edx
 4795      00
 4796 1b75 BE000000 		movl	$.LC16, %esi
 4796      00
 4797 1b7a BF000000 		movl	$_ZN12_GLOBAL__N_1L7detailsE, %edi
 4797      00
 4798 1b7f E8000000 		call	_ZN8UnitTest11TestDetailsC1EPKcS2_S2_i
 4798      00
  12:TestTestResults.cpp **** {
 4799              		.loc 5 12 0
 4800 1b84 BF000000 		movl	$_ZN12_GLOBAL__N_132testStartsWithNoTestsRunInstanceE, %edi
 4800      00
 4801 1b89 E872E4FF 		call	_ZN12_GLOBAL__N_124TestStartsWithNoTestsRunC2Ev
 4801      FF
 4802 1b8e BA000000 		movl	$__dso_handle, %edx
 4802      00
 4803 1b93 BE000000 		movl	$_ZN12_GLOBAL__N_132testStartsWithNoTestsRunInstanceE, %esi
 4803      00
 4804 1b98 BF000000 		movl	$_ZN12_GLOBAL__N_124TestStartsWithNoTestsRunD1Ev, %edi
 4804      00
 4805 1b9d E8000000 		call	__cxa_atexit
 4805      00
 4806 1ba2 E8000000 		call	_ZN8UnitTest4Test11GetTestListEv
 4806      00
 4807 1ba7 BA000000 		movl	$_ZN12_GLOBAL__N_132testStartsWithNoTestsRunInstanceE, %edx
 4807      00
 4808 1bac 4889C6   		movq	%rax, %rsi
 4809 1baf BF000000 		movl	$_ZN12_GLOBAL__N_125adderStartsWithNoTestsRunE, %edi
 4809      00
 4810 1bb4 E8000000 		call	_ZN8UnitTest9ListAdderC1ERNS_8TestListEPNS_4TestE
 4810      00
  18:TestTestResults.cpp **** {
 4811              		.loc 5 18 0
 4812 1bb9 BF000000 		movl	$_ZN12_GLOBAL__N_133testRecordsNumbersOfTestsInstanceE, %edi
 4812      00
 4813 1bbe E86DE5FF 		call	_ZN12_GLOBAL__N_125TestRecordsNumbersOfTestsC2Ev
 4813      FF
 4814 1bc3 BA000000 		movl	$__dso_handle, %edx
 4814      00
 4815 1bc8 BE000000 		movl	$_ZN12_GLOBAL__N_133testRecordsNumbersOfTestsInstanceE, %esi
 4815      00
 4816 1bcd BF000000 		movl	$_ZN12_GLOBAL__N_125TestRecordsNumbersOfTestsD1Ev, %edi
 4816      00
 4817 1bd2 E8000000 		call	__cxa_atexit
 4817      00
 4818 1bd7 E8000000 		call	_ZN8UnitTest4Test11GetTestListEv
 4818      00
 4819 1bdc BA000000 		movl	$_ZN12_GLOBAL__N_133testRecordsNumbersOfTestsInstanceE, %edx
 4819      00
 4820 1be1 4889C6   		movq	%rax, %rsi
 4821 1be4 BF000000 		movl	$_ZN12_GLOBAL__N_126adderRecordsNumbersOfTestsE, %edi
 4821      00
 4822 1be9 E8000000 		call	_ZN8UnitTest9ListAdderC1ERNS_8TestListEPNS_4TestE
 4822      00
  27:TestTestResults.cpp **** {
 4823              		.loc 5 27 0
 4824 1bee BF000000 		movl	$_ZN12_GLOBAL__N_136testStartsWithNoTestsFailingInstanceE, %edi
 4824      00
 4825 1bf3 E89AE6FF 		call	_ZN12_GLOBAL__N_128TestStartsWithNoTestsFailingC2Ev
 4825      FF
 4826 1bf8 BA000000 		movl	$__dso_handle, %edx
 4826      00
 4827 1bfd BE000000 		movl	$_ZN12_GLOBAL__N_136testStartsWithNoTestsFailingInstanceE, %esi
 4827      00
 4828 1c02 BF000000 		movl	$_ZN12_GLOBAL__N_128TestStartsWithNoTestsFailingD1Ev, %edi
 4828      00
 4829 1c07 E8000000 		call	__cxa_atexit
 4829      00
 4830 1c0c E8000000 		call	_ZN8UnitTest4Test11GetTestListEv
 4830      00
 4831 1c11 BA000000 		movl	$_ZN12_GLOBAL__N_136testStartsWithNoTestsFailingInstanceE, %edx
 4831      00
 4832 1c16 4889C6   		movq	%rax, %rsi
 4833 1c19 BF000000 		movl	$_ZN12_GLOBAL__N_129adderStartsWithNoTestsFailingE, %edi
 4833      00
 4834 1c1e E8000000 		call	_ZN8UnitTest9ListAdderC1ERNS_8TestListEPNS_4TestE
 4834      00
  33:TestTestResults.cpp **** {
 4835              		.loc 5 33 0
 4836 1c23 BF000000 		movl	$_ZN12_GLOBAL__N_135testRecordsNumberOfFailuresInstanceE, %edi
 4836      00
 4837 1c28 E895E7FF 		call	_ZN12_GLOBAL__N_127TestRecordsNumberOfFailuresC2Ev
 4837      FF
 4838 1c2d BA000000 		movl	$__dso_handle, %edx
 4838      00
 4839 1c32 BE000000 		movl	$_ZN12_GLOBAL__N_135testRecordsNumberOfFailuresInstanceE, %esi
 4839      00
 4840 1c37 BF000000 		movl	$_ZN12_GLOBAL__N_127TestRecordsNumberOfFailuresD1Ev, %edi
 4840      00
 4841 1c3c E8000000 		call	__cxa_atexit
 4841      00
 4842 1c41 E8000000 		call	_ZN8UnitTest4Test11GetTestListEv
 4842      00
 4843 1c46 BA000000 		movl	$_ZN12_GLOBAL__N_135testRecordsNumberOfFailuresInstanceE, %edx
 4843      00
 4844 1c4b 4889C6   		movq	%rax, %rsi
 4845 1c4e BF000000 		movl	$_ZN12_GLOBAL__N_128adderRecordsNumberOfFailuresE, %edi
 4845      00
 4846 1c53 E8000000 		call	_ZN8UnitTest9ListAdderC1ERNS_8TestListEPNS_4TestE
 4846      00
  41:TestTestResults.cpp **** {
 4847              		.loc 5 41 0
 4848 1c58 BF000000 		movl	$_ZN12_GLOBAL__N_138testRecordsNumberOfFailedTestsInstanceE, %edi
 4848      00
 4849 1c5d E8BCE8FF 		call	_ZN12_GLOBAL__N_130TestRecordsNumberOfFailedTestsC2Ev
 4849      FF
 4850 1c62 BA000000 		movl	$__dso_handle, %edx
 4850      00
 4851 1c67 BE000000 		movl	$_ZN12_GLOBAL__N_138testRecordsNumberOfFailedTestsInstanceE, %esi
 4851      00
 4852 1c6c BF000000 		movl	$_ZN12_GLOBAL__N_130TestRecordsNumberOfFailedTestsD1Ev, %edi
 4852      00
 4853 1c71 E8000000 		call	__cxa_atexit
 4853      00
 4854 1c76 E8000000 		call	_ZN8UnitTest4Test11GetTestListEv
 4854      00
 4855 1c7b BA000000 		movl	$_ZN12_GLOBAL__N_138testRecordsNumberOfFailedTestsInstanceE, %edx
 4855      00
 4856 1c80 4889C6   		movq	%rax, %rsi
 4857 1c83 BF000000 		movl	$_ZN12_GLOBAL__N_131adderRecordsNumberOfFailedTestsE, %edi
 4857      00
 4858 1c88 E8000000 		call	_ZN8UnitTest9ListAdderC1ERNS_8TestListEPNS_4TestE
 4858      00
  58:TestTestResults.cpp **** {
 4859              		.loc 5 58 0
 4860 1c8d BF000000 		movl	$_ZN12_GLOBAL__N_154testNotifiesReporterOfTestStartWithCorrectInfoInstanceE, %edi
 4860      00
 4861 1c92 E85BEAFF 		call	_ZN12_GLOBAL__N_146TestNotifiesReporterOfTestStartWithCorrectInfoC2Ev
 4861      FF
 4862 1c97 BA000000 		movl	$__dso_handle, %edx
 4862      00
 4863 1c9c BE000000 		movl	$_ZN12_GLOBAL__N_154testNotifiesReporterOfTestStartWithCorrectInfoInstanceE, %esi
 4863      00
 4864 1ca1 BF000000 		movl	$_ZN12_GLOBAL__N_146TestNotifiesReporterOfTestStartWithCorrectInfoD1Ev, %edi
 4864      00
 4865 1ca6 E8000000 		call	__cxa_atexit
 4865      00
 4866 1cab E8000000 		call	_ZN8UnitTest4Test11GetTestListEv
 4866      00
 4867 1cb0 BA000000 		movl	$_ZN12_GLOBAL__N_154testNotifiesReporterOfTestStartWithCorrectInfoInstanceE, %edx
 4867      00
 4868 1cb5 4889C6   		movq	%rax, %rsi
 4869 1cb8 BF000000 		movl	$_ZN12_GLOBAL__N_147adderNotifiesReporterOfTestStartWithCorrectInfoE, %edi
 4869      00
 4870 1cbd E8000000 		call	_ZN8UnitTest9ListAdderC1ERNS_8TestListEPNS_4TestE
 4870      00
  69:TestTestResults.cpp **** {
 4871              		.loc 5 69 0
