   1              		.file	"TestCheckMacros.cpp"
   2              		.text
   3              	.Ltext0:
   4              		.section	.rodata
   5              	.LC0:
   6 0000 44656661 		.string	"DefaultSuite"
   6      756C7453 
   6      75697465 
   6      00
   7              		.section	.text._ZN13UnitTestSuite12GetSuiteNameEv,"axG",@progbits,_ZN13UnitTestSuite12GetSuiteName
   8              		.weak	_ZN13UnitTestSuite12GetSuiteNameEv
  10              	_ZN13UnitTestSuite12GetSuiteNameEv:
  11              	.LFB0:
  12              		.file 1 "../TestSuite.h"
   1:../TestSuite.h **** #ifndef UNITTEST_TESTSUITE_H
   2:../TestSuite.h **** #define UNITTEST_TESTSUITE_H
   3:../TestSuite.h **** 
   4:../TestSuite.h **** namespace UnitTestSuite {
   5:../TestSuite.h **** 
   6:../TestSuite.h ****     inline char const* GetSuiteName ()
   7:../TestSuite.h ****     {
  13              		.loc 1 7 0
  14              		.cfi_startproc
  15 0000 55       		pushq	%rbp
  16              		.cfi_def_cfa_offset 16
  17              		.cfi_offset 6, -16
  18 0001 4889E5   		movq	%rsp, %rbp
  19              		.cfi_def_cfa_register 6
   8:../TestSuite.h ****         return "DefaultSuite";
  20              		.loc 1 8 0
  21 0004 B8000000 		movl	$.LC0, %eax
  21      00
   9:../TestSuite.h ****     }
  22              		.loc 1 9 0
  23 0009 5D       		popq	%rbp
  24              		.cfi_def_cfa 7, 8
  25 000a C3       		ret
  26              		.cfi_endproc
  27              	.LFE0:
  29              		.section	.text._ZN8UnitTest15MemoryOutStreamC1Ev,"axG",@progbits,_ZN8UnitTest15MemoryOutStreamC1Ev
  30              		.align 2
  31              		.weak	_ZN8UnitTest15MemoryOutStreamC1Ev
  33              	_ZN8UnitTest15MemoryOutStreamC1Ev:
  34              	.LFB1053:
  35              		.file 2 "../MemoryOutStream.h"
   1:../MemoryOutStream.h **** #ifndef UNITTEST_MEMORYOUTSTREAM_H
   2:../MemoryOutStream.h **** #define UNITTEST_MEMORYOUTSTREAM_H
   3:../MemoryOutStream.h **** 
   4:../MemoryOutStream.h **** #include "Config.h"
   5:../MemoryOutStream.h **** 
   6:../MemoryOutStream.h **** #ifndef UNITTEST_USE_CUSTOM_STREAMS
   7:../MemoryOutStream.h **** 
   8:../MemoryOutStream.h **** #include <sstream>
   9:../MemoryOutStream.h **** 
  10:../MemoryOutStream.h **** namespace UnitTest
  11:../MemoryOutStream.h **** {
  12:../MemoryOutStream.h **** 
  13:../MemoryOutStream.h **** class MemoryOutStream : public std::ostringstream
  14:../MemoryOutStream.h **** {
  15:../MemoryOutStream.h **** public:
  16:../MemoryOutStream.h ****     MemoryOutStream() {}
  36              		.loc 2 16 0
  37              		.cfi_startproc
  38              		.cfi_personality 0x3,__gxx_personality_v0
  39              		.cfi_lsda 0x3,.LLSDA1053
  40 0000 55       		pushq	%rbp
  41              		.cfi_def_cfa_offset 16
  42              		.cfi_offset 6, -16
  43 0001 4889E5   		movq	%rsp, %rbp
  44              		.cfi_def_cfa_register 6
  45 0004 53       		pushq	%rbx
  46 0005 4883EC18 		subq	$24, %rsp
  47              		.cfi_offset 3, -24
  48 0009 48897DE8 		movq	%rdi, -24(%rbp)
  49              	.LBB2:
  50              		.loc 2 16 0
  51 000d 488B45E8 		movq	-24(%rbp), %rax
  52 0011 4883C060 		addq	$96, %rax
  53 0015 4889C7   		movq	%rax, %rdi
  54              	.LEHB0:
  55 0018 E8000000 		call	_ZNSt9basic_iosIcSt11char_traitsIcEEC2Ev
  55      00
  56              	.LEHE0:
  57 001d B9000000 		movl	$_ZTTN8UnitTest15MemoryOutStreamE+8, %ecx
  57      00
  58 0022 488B45E8 		movq	-24(%rbp), %rax
  59 0026 BA100000 		movl	$16, %edx
  59      00
  60 002b 4889CE   		movq	%rcx, %rsi
  61 002e 4889C7   		movq	%rax, %rdi
  62              	.LEHB1:
  63 0031 E8000000 		call	_ZNSt19basic_ostringstreamIcSt11char_traitsIcESaIcEEC2ESt13_Ios_Openmode
  63      00
  64              	.LEHE1:
  65              		.loc 2 16 0 is_stmt 0 discriminator 9
  66 0036 BA000000 		movl	$_ZTVN8UnitTest15MemoryOutStreamE+24, %edx
  66      00
  67 003b 488B45E8 		movq	-24(%rbp), %rax
  68 003f 488910   		movq	%rdx, (%rax)
  69 0042 BA600000 		movl	$96, %edx
  69      00
  70 0047 488B45E8 		movq	-24(%rbp), %rax
  71 004b 4801D0   		addq	%rdx, %rax
  72 004e BA000000 		movl	$_ZTVN8UnitTest15MemoryOutStreamE+64, %edx
  72      00
  73 0053 488910   		movq	%rdx, (%rax)
  74 0056 488B45E8 		movq	-24(%rbp), %rax
  75 005a 4883C058 		addq	$88, %rax
  76 005e 4889C7   		movq	%rax, %rdi
  77              	.LEHB2:
  78 0061 E8000000 		call	_ZNSsC1Ev
  78      00
  79              	.LEHE2:
  80              	.LBE2:
  81              		.loc 2 16 0
  82 0066 EB37     		jmp	.L8
  83              	.L6:
  84 0068 4889C3   		movq	%rax, %rbx
  85              	.LBB3:
  86 006b BA000000 		movl	$_ZTTN8UnitTest15MemoryOutStreamE+8, %edx
  86      00
  87 0070 488B45E8 		movq	-24(%rbp), %rax
  88 0074 4889D6   		movq	%rdx, %rsi
  89 0077 4889C7   		movq	%rax, %rdi
  90 007a E8000000 		call	_ZNSt19basic_ostringstreamIcSt11char_traitsIcESaIcEED2Ev
  90      00
  91 007f EB03     		jmp	.L5
  92              	.L7:
  93 0081 4889C3   		movq	%rax, %rbx
  94              	.L5:
  95              		.loc 2 16 0 discriminator 28
  96 0084 488B45E8 		movq	-24(%rbp), %rax
  97 0088 4883C060 		addq	$96, %rax
  98 008c 4889C7   		movq	%rax, %rdi
  99 008f E8000000 		call	_ZNSt9basic_iosIcSt11char_traitsIcEED2Ev
  99      00
 100 0094 4889D8   		movq	%rbx, %rax
 101 0097 4889C7   		movq	%rax, %rdi
 102              	.LEHB3:
 103 009a E8000000 		call	_Unwind_Resume
 103      00
 104              	.LEHE3:
 105              	.L8:
 106              	.LBE3:
 107              		.loc 2 16 0
 108 009f 4883C418 		addq	$24, %rsp
 109 00a3 5B       		popq	%rbx
 110 00a4 5D       		popq	%rbp
 111              		.cfi_def_cfa 7, 8
 112 00a5 C3       		ret
 113              		.cfi_endproc
 114              	.LFE1053:
 115              		.globl	__gxx_personality_v0
 116              		.section	.gcc_except_table._ZN8UnitTest15MemoryOutStreamC1Ev,"aG",@progbits,_ZN8UnitTest15MemoryOu
 117              	.LLSDA1053:
 118 0000 FF       		.byte	0xff
 119 0001 FF       		.byte	0xff
 120 0002 01       		.byte	0x1
 121 0003 12       		.uleb128 .LLSDACSE1053-.LLSDACSB1053
 122              	.LLSDACSB1053:
 123 0004 18       		.uleb128 .LEHB0-.LFB1053
 124 0005 05       		.uleb128 .LEHE0-.LEHB0
 125 0006 00       		.uleb128 0
 126 0007 00       		.uleb128 0
 127 0008 31       		.uleb128 .LEHB1-.LFB1053
 128 0009 05       		.uleb128 .LEHE1-.LEHB1
 129 000a 8101     		.uleb128 .L7-.LFB1053
 130 000c 00       		.uleb128 0
 131 000d 61       		.uleb128 .LEHB2-.LFB1053
 132 000e 05       		.uleb128 .LEHE2-.LEHB2
 133 000f 68       		.uleb128 .L6-.LFB1053
 134 0010 00       		.uleb128 0
 135 0011 9A01     		.uleb128 .LEHB3-.LFB1053
 136 0013 05       		.uleb128 .LEHE3-.LEHB3
 137 0014 00       		.uleb128 0
 138 0015 00       		.uleb128 0
 139              	.LLSDACSE1053:
 140              		.section	.text._ZN8UnitTest15MemoryOutStreamC1Ev,"axG",@progbits,_ZN8UnitTest15MemoryOutStreamC1Ev
 142              		.section	.text._ZN8UnitTest12TestReporterC2Ev,"axG",@progbits,_ZN8UnitTest12TestReporterC5Ev,comda
 143              		.align 2
 144              		.weak	_ZN8UnitTest12TestReporterC2Ev
 146              	_ZN8UnitTest12TestReporterC2Ev:
 147              	.LFB1067:
 148              		.file 3 "../TestReporter.h"
   1:../TestReporter.h **** #ifndef UNITTEST_TESTREPORTER_H
   2:../TestReporter.h **** #define UNITTEST_TESTREPORTER_H
   3:../TestReporter.h **** 
   4:../TestReporter.h **** namespace UnitTest {
   5:../TestReporter.h **** 
   6:../TestReporter.h **** class TestDetails;
   7:../TestReporter.h **** 
   8:../TestReporter.h **** class TestReporter
 149              		.loc 3 8 0 is_stmt 1
 150              		.cfi_startproc
 151 0000 55       		pushq	%rbp
 152              		.cfi_def_cfa_offset 16
 153              		.cfi_offset 6, -16
 154 0001 4889E5   		movq	%rsp, %rbp
 155              		.cfi_def_cfa_register 6
 156 0004 48897DF8 		movq	%rdi, -8(%rbp)
 157              	.LBB4:
 158              		.loc 3 8 0
 159 0008 488B45F8 		movq	-8(%rbp), %rax
 160 000c 48C70000 		movq	$_ZTVN8UnitTest12TestReporterE+16, (%rax)
 160      000000
 161              	.LBE4:
 162 0013 5D       		popq	%rbp
 163              		.cfi_def_cfa 7, 8
 164 0014 C3       		ret
 165              		.cfi_endproc
 166              	.LFE1067:
 168              		.weak	_ZN8UnitTest12TestReporterC1Ev
 169              		.set	_ZN8UnitTest12TestReporterC1Ev,_ZN8UnitTest12TestReporterC2Ev
 170              		.section	.text._ZN17RecordingReporterC2Ev,"axG",@progbits,_ZN17RecordingReporterC5Ev,comdat
 171              		.align 2
 172              		.weak	_ZN17RecordingReporterC2Ev
 174              	_ZN17RecordingReporterC2Ev:
 175              	.LFB1069:
 176              		.file 4 "RecordingReporter.h"
   1:RecordingReporter.h **** #ifndef UNITTEST_RECORDINGREPORTER_H
   2:RecordingReporter.h **** #define UNITTEST_RECORDINGREPORTER_H
   3:RecordingReporter.h **** 
   4:RecordingReporter.h **** #include "../TestReporter.h"
   5:RecordingReporter.h **** #include <cstring>
   6:RecordingReporter.h **** 
   7:RecordingReporter.h **** #include "../TestDetails.h"
   8:RecordingReporter.h **** 
   9:RecordingReporter.h **** struct RecordingReporter : public UnitTest::TestReporter
  10:RecordingReporter.h **** {
  11:RecordingReporter.h **** private:
  12:RecordingReporter.h ****     enum { kMaxStringLength = 256 };
  13:RecordingReporter.h **** 
  14:RecordingReporter.h **** public:
  15:RecordingReporter.h ****     RecordingReporter()
 177              		.loc 4 15 0
 178              		.cfi_startproc
 179 0000 55       		pushq	%rbp
 180              		.cfi_def_cfa_offset 16
 181              		.cfi_offset 6, -16
 182 0001 4889E5   		movq	%rsp, %rbp
 183              		.cfi_def_cfa_register 6
 184 0004 4883EC10 		subq	$16, %rsp
 185 0008 48897DF8 		movq	%rdi, -8(%rbp)
 186              	.LBB5:
  16:RecordingReporter.h ****         : testRunCount(0)
  17:RecordingReporter.h ****         , testFailedCount(0)
  18:RecordingReporter.h ****         , lastFailedLine(0)
  19:RecordingReporter.h ****         , testFinishedCount(0)
  20:RecordingReporter.h ****         , lastFinishedTestTime(0)
  21:RecordingReporter.h ****         , summaryTotalTestCount(0)
  22:RecordingReporter.h ****         , summaryFailedTestCount(0)
  23:RecordingReporter.h ****         , summaryFailureCount(0)
  24:RecordingReporter.h ****         , summarySecondsElapsed(0)
 187              		.loc 4 24 0
 188 000c 488B45F8 		movq	-8(%rbp), %rax
 189 0010 4889C7   		movq	%rax, %rdi
 190 0013 E8000000 		call	_ZN8UnitTest12TestReporterC2Ev
 190      00
 191 0018 488B45F8 		movq	-8(%rbp), %rax
 192 001c 48C70000 		movq	$_ZTV17RecordingReporter+16, (%rax)
 192      000000
 193 0023 488B45F8 		movq	-8(%rbp), %rax
 194 0027 C7400800 		movl	$0, 8(%rax)
 194      000000
 195 002e 488B45F8 		movq	-8(%rbp), %rax
 196 0032 C7800C02 		movl	$0, 524(%rax)
 196      00000000 
 196      0000
 197 003c 488B45F8 		movq	-8(%rbp), %rax
 198 0040 C7801003 		movl	$0, 784(%rax)
 198      00000000 
 198      0000
 199 004a 488B45F8 		movq	-8(%rbp), %rax
 200 004e C7801406 		movl	$0, 1556(%rax)
 200      00000000 
 200      0000
 201 0058 488B55F8 		movq	-8(%rbp), %rdx
 202 005c 8B050000 		movl	.LC1(%rip), %eax
 202      0000
 203 0062 89821808 		movl	%eax, 2072(%rdx)
 203      0000
 204 0068 488B45F8 		movq	-8(%rbp), %rax
 205 006c C7801C08 		movl	$0, 2076(%rax)
 205      00000000 
 205      0000
 206 0076 488B45F8 		movq	-8(%rbp), %rax
 207 007a C7802008 		movl	$0, 2080(%rax)
 207      00000000 
 207      0000
 208 0084 488B45F8 		movq	-8(%rbp), %rax
 209 0088 C7802408 		movl	$0, 2084(%rax)
 209      00000000 
 209      0000
 210 0092 488B55F8 		movq	-8(%rbp), %rdx
 211 0096 8B050000 		movl	.LC1(%rip), %eax
 211      0000
 212 009c 89822808 		movl	%eax, 2088(%rdx)
 212      0000
  25:RecordingReporter.h ****     {
  26:RecordingReporter.h ****         lastStartedSuite[0] = '\0';
 213              		.loc 4 26 0
 214 00a2 488B45F8 		movq	-8(%rbp), %rax
 215 00a6 C6400C00 		movb	$0, 12(%rax)
  27:RecordingReporter.h ****         lastStartedTest[0] = '\0';
 216              		.loc 4 27 0
 217 00aa 488B45F8 		movq	-8(%rbp), %rax
 218 00ae C6800C01 		movb	$0, 268(%rax)
 218      000000
  28:RecordingReporter.h ****         lastFailedFile[0] = '\0';
 219              		.loc 4 28 0
 220 00b5 488B45F8 		movq	-8(%rbp), %rax
 221 00b9 C6801002 		movb	$0, 528(%rax)
 221      000000
  29:RecordingReporter.h ****         lastFailedSuite[0] = '\0';
 222              		.loc 4 29 0
 223 00c0 488B45F8 		movq	-8(%rbp), %rax
 224 00c4 C6801403 		movb	$0, 788(%rax)
 224      000000
  30:RecordingReporter.h ****         lastFailedTest[0] = '\0';
 225              		.loc 4 30 0
 226 00cb 488B45F8 		movq	-8(%rbp), %rax
 227 00cf C6801404 		movb	$0, 1044(%rax)
 227      000000
  31:RecordingReporter.h ****         lastFailedMessage[0] = '\0';
 228              		.loc 4 31 0
 229 00d6 488B45F8 		movq	-8(%rbp), %rax
 230 00da C6801405 		movb	$0, 1300(%rax)
 230      000000
  32:RecordingReporter.h ****         lastFinishedSuite[0] = '\0';
 231              		.loc 4 32 0
 232 00e1 488B45F8 		movq	-8(%rbp), %rax
 233 00e5 C6801806 		movb	$0, 1560(%rax)
 233      000000
  33:RecordingReporter.h ****         lastFinishedTest[0] = '\0';
 234              		.loc 4 33 0
 235 00ec 488B45F8 		movq	-8(%rbp), %rax
 236 00f0 C6801807 		movb	$0, 1816(%rax)
 236      000000
 237              	.LBE5:
  34:RecordingReporter.h ****     }
 238              		.loc 4 34 0
 239 00f7 C9       		leave
 240              		.cfi_def_cfa 7, 8
 241 00f8 C3       		ret
 242              		.cfi_endproc
 243              	.LFE1069:
 245              		.weak	_ZN17RecordingReporterC1Ev
 246              		.set	_ZN17RecordingReporterC1Ev,_ZN17RecordingReporterC2Ev
 247              		.section	.text._ZN17RecordingReporter15ReportTestStartERKN8UnitTest11TestDetailsE,"axG",@progbits,
 248              		.align 2
 249              		.weak	_ZN17RecordingReporter15ReportTestStartERKN8UnitTest11TestDetailsE
 251              	_ZN17RecordingReporter15ReportTestStartERKN8UnitTest11TestDetailsE:
 252              	.LFB1071:
  35:RecordingReporter.h **** 
  36:RecordingReporter.h ****     virtual void ReportTestStart(UnitTest::TestDetails const& test)
 253              		.loc 4 36 0
 254              		.cfi_startproc
 255 0000 55       		pushq	%rbp
 256              		.cfi_def_cfa_offset 16
 257              		.cfi_offset 6, -16
 258 0001 4889E5   		movq	%rsp, %rbp
 259              		.cfi_def_cfa_register 6
 260 0004 4883EC10 		subq	$16, %rsp
 261 0008 48897DF8 		movq	%rdi, -8(%rbp)
 262 000c 488975F0 		movq	%rsi, -16(%rbp)
 263              	.LBB6:
  37:RecordingReporter.h ****     {
  38:RecordingReporter.h **** 		using namespace std;
  39:RecordingReporter.h **** 
  40:RecordingReporter.h ****         ++testRunCount;
 264              		.loc 4 40 0
 265 0010 488B45F8 		movq	-8(%rbp), %rax
 266 0014 8B4008   		movl	8(%rax), %eax
 267 0017 8D5001   		leal	1(%rax), %edx
 268 001a 488B45F8 		movq	-8(%rbp), %rax
 269 001e 895008   		movl	%edx, 8(%rax)
  41:RecordingReporter.h ****         strcpy(lastStartedSuite, test.suiteName);
 270              		.loc 4 41 0
 271 0021 488B45F0 		movq	-16(%rbp), %rax
 272 0025 488B00   		movq	(%rax), %rax
 273 0028 488B55F8 		movq	-8(%rbp), %rdx
 274 002c 4883C20C 		addq	$12, %rdx
 275 0030 4889C6   		movq	%rax, %rsi
 276 0033 4889D7   		movq	%rdx, %rdi
 277 0036 E8000000 		call	strcpy
 277      00
  42:RecordingReporter.h ****         strcpy(lastStartedTest, test.testName);
 278              		.loc 4 42 0
 279 003b 488B45F0 		movq	-16(%rbp), %rax
 280 003f 488B4008 		movq	8(%rax), %rax
 281 0043 488B55F8 		movq	-8(%rbp), %rdx
 282 0047 4881C20C 		addq	$268, %rdx
 282      010000
 283 004e 4889C6   		movq	%rax, %rsi
 284 0051 4889D7   		movq	%rdx, %rdi
 285 0054 E8000000 		call	strcpy
 285      00
 286              	.LBE6:
  43:RecordingReporter.h ****     }
 287              		.loc 4 43 0
 288 0059 C9       		leave
 289              		.cfi_def_cfa 7, 8
 290 005a C3       		ret
 291              		.cfi_endproc
 292              	.LFE1071:
 294              		.section	.text._ZN17RecordingReporter13ReportFailureERKN8UnitTest11TestDetailsEPKc,"axG",@progbits
 295              		.align 2
 296              		.weak	_ZN17RecordingReporter13ReportFailureERKN8UnitTest11TestDetailsEPKc
 298              	_ZN17RecordingReporter13ReportFailureERKN8UnitTest11TestDetailsEPKc:
 299              	.LFB1072:
  44:RecordingReporter.h **** 
  45:RecordingReporter.h ****     virtual void ReportFailure(UnitTest::TestDetails const& test, char const* failure)
 300              		.loc 4 45 0
 301              		.cfi_startproc
 302 0000 55       		pushq	%rbp
 303              		.cfi_def_cfa_offset 16
 304              		.cfi_offset 6, -16
 305 0001 4889E5   		movq	%rsp, %rbp
 306              		.cfi_def_cfa_register 6
 307 0004 4883EC20 		subq	$32, %rsp
 308 0008 48897DF8 		movq	%rdi, -8(%rbp)
 309 000c 488975F0 		movq	%rsi, -16(%rbp)
 310 0010 488955E8 		movq	%rdx, -24(%rbp)
 311              	.LBB7:
  46:RecordingReporter.h ****     {
  47:RecordingReporter.h **** 		using namespace std;
  48:RecordingReporter.h **** 
  49:RecordingReporter.h **** 		++testFailedCount;
 312              		.loc 4 49 0
 313 0014 488B45F8 		movq	-8(%rbp), %rax
 314 0018 8B800C02 		movl	524(%rax), %eax
 314      0000
 315 001e 8D5001   		leal	1(%rax), %edx
 316 0021 488B45F8 		movq	-8(%rbp), %rax
 317 0025 89900C02 		movl	%edx, 524(%rax)
 317      0000
  50:RecordingReporter.h ****         strcpy(lastFailedFile, test.filename);
 318              		.loc 4 50 0
 319 002b 488B45F0 		movq	-16(%rbp), %rax
 320 002f 488B4010 		movq	16(%rax), %rax
 321 0033 488B55F8 		movq	-8(%rbp), %rdx
 322 0037 4881C210 		addq	$528, %rdx
 322      020000
 323 003e 4889C6   		movq	%rax, %rsi
 324 0041 4889D7   		movq	%rdx, %rdi
 325 0044 E8000000 		call	strcpy
 325      00
  51:RecordingReporter.h ****         lastFailedLine = test.lineNumber;
 326              		.loc 4 51 0
 327 0049 488B45F0 		movq	-16(%rbp), %rax
 328 004d 8B5018   		movl	24(%rax), %edx
 329 0050 488B45F8 		movq	-8(%rbp), %rax
 330 0054 89901003 		movl	%edx, 784(%rax)
 330      0000
  52:RecordingReporter.h ****         strcpy(lastFailedSuite, test.suiteName);
 331              		.loc 4 52 0
 332 005a 488B45F0 		movq	-16(%rbp), %rax
 333 005e 488B00   		movq	(%rax), %rax
 334 0061 488B55F8 		movq	-8(%rbp), %rdx
 335 0065 4881C214 		addq	$788, %rdx
 335      030000
 336 006c 4889C6   		movq	%rax, %rsi
 337 006f 4889D7   		movq	%rdx, %rdi
 338 0072 E8000000 		call	strcpy
 338      00
  53:RecordingReporter.h ****         strcpy(lastFailedTest, test.testName);
 339              		.loc 4 53 0
 340 0077 488B45F0 		movq	-16(%rbp), %rax
 341 007b 488B4008 		movq	8(%rax), %rax
 342 007f 488B55F8 		movq	-8(%rbp), %rdx
 343 0083 4881C214 		addq	$1044, %rdx
 343      040000
 344 008a 4889C6   		movq	%rax, %rsi
 345 008d 4889D7   		movq	%rdx, %rdi
 346 0090 E8000000 		call	strcpy
 346      00
  54:RecordingReporter.h ****         strcpy(lastFailedMessage, failure);
 347              		.loc 4 54 0
 348 0095 488B45F8 		movq	-8(%rbp), %rax
 349 0099 488D9014 		leaq	1300(%rax), %rdx
 349      050000
 350 00a0 488B45E8 		movq	-24(%rbp), %rax
 351 00a4 4889C6   		movq	%rax, %rsi
 352 00a7 4889D7   		movq	%rdx, %rdi
 353 00aa E8000000 		call	strcpy
 353      00
 354              	.LBE7:
  55:RecordingReporter.h ****     }
 355              		.loc 4 55 0
 356 00af C9       		leave
 357              		.cfi_def_cfa 7, 8
 358 00b0 C3       		ret
 359              		.cfi_endproc
 360              	.LFE1072:
 362              		.section	.text._ZN17RecordingReporter16ReportTestFinishERKN8UnitTest11TestDetailsEf,"axG",@progbit
 363              		.align 2
 364              		.weak	_ZN17RecordingReporter16ReportTestFinishERKN8UnitTest11TestDetailsEf
 366              	_ZN17RecordingReporter16ReportTestFinishERKN8UnitTest11TestDetailsEf:
 367              	.LFB1073:
  56:RecordingReporter.h **** 
  57:RecordingReporter.h ****     virtual void ReportTestFinish(UnitTest::TestDetails const& test, float testDuration)
 368              		.loc 4 57 0
 369              		.cfi_startproc
 370 0000 55       		pushq	%rbp
 371              		.cfi_def_cfa_offset 16
 372              		.cfi_offset 6, -16
 373 0001 4889E5   		movq	%rsp, %rbp
 374              		.cfi_def_cfa_register 6
 375 0004 4883EC20 		subq	$32, %rsp
 376 0008 48897DF8 		movq	%rdi, -8(%rbp)
 377 000c 488975F0 		movq	%rsi, -16(%rbp)
 378 0010 F30F1145 		movss	%xmm0, -20(%rbp)
 378      EC
 379              	.LBB8:
  58:RecordingReporter.h ****     {
  59:RecordingReporter.h **** 		using namespace std;
  60:RecordingReporter.h **** 
  61:RecordingReporter.h **** 		++testFinishedCount;
 380              		.loc 4 61 0
 381 0015 488B45F8 		movq	-8(%rbp), %rax
 382 0019 8B801406 		movl	1556(%rax), %eax
 382      0000
 383 001f 8D5001   		leal	1(%rax), %edx
 384 0022 488B45F8 		movq	-8(%rbp), %rax
 385 0026 89901406 		movl	%edx, 1556(%rax)
 385      0000
  62:RecordingReporter.h ****         strcpy(lastFinishedSuite, test.suiteName);
 386              		.loc 4 62 0
 387 002c 488B45F0 		movq	-16(%rbp), %rax
 388 0030 488B00   		movq	(%rax), %rax
 389 0033 488B55F8 		movq	-8(%rbp), %rdx
 390 0037 4881C218 		addq	$1560, %rdx
 390      060000
 391 003e 4889C6   		movq	%rax, %rsi
 392 0041 4889D7   		movq	%rdx, %rdi
 393 0044 E8000000 		call	strcpy
 393      00
  63:RecordingReporter.h ****         strcpy(lastFinishedTest, test.testName);
 394              		.loc 4 63 0
 395 0049 488B45F0 		movq	-16(%rbp), %rax
 396 004d 488B4008 		movq	8(%rax), %rax
 397 0051 488B55F8 		movq	-8(%rbp), %rdx
 398 0055 4881C218 		addq	$1816, %rdx
 398      070000
 399 005c 4889C6   		movq	%rax, %rsi
 400 005f 4889D7   		movq	%rdx, %rdi
 401 0062 E8000000 		call	strcpy
 401      00
  64:RecordingReporter.h ****         lastFinishedTestTime = testDuration;
 402              		.loc 4 64 0
 403 0067 488B55F8 		movq	-8(%rbp), %rdx
 404 006b 8B45EC   		movl	-20(%rbp), %eax
 405 006e 89821808 		movl	%eax, 2072(%rdx)
 405      0000
 406              	.LBE8:
  65:RecordingReporter.h ****     }
 407              		.loc 4 65 0
 408 0074 C9       		leave
 409              		.cfi_def_cfa 7, 8
 410 0075 C3       		ret
 411              		.cfi_endproc
 412              	.LFE1073:
 414              		.section	.text._ZN17RecordingReporter13ReportSummaryEiiif,"axG",@progbits,_ZN17RecordingReporter13
 415              		.align 2
 416              		.weak	_ZN17RecordingReporter13ReportSummaryEiiif
 418              	_ZN17RecordingReporter13ReportSummaryEiiif:
 419              	.LFB1074:
  66:RecordingReporter.h **** 
  67:RecordingReporter.h ****     virtual void ReportSummary(int totalTestCount, int failedTestCount, int failureCount, float sec
 420              		.loc 4 67 0
 421              		.cfi_startproc
 422 0000 55       		pushq	%rbp
 423              		.cfi_def_cfa_offset 16
 424              		.cfi_offset 6, -16
 425 0001 4889E5   		movq	%rsp, %rbp
 426              		.cfi_def_cfa_register 6
 427 0004 48897DF8 		movq	%rdi, -8(%rbp)
 428 0008 8975F4   		movl	%esi, -12(%rbp)
 429 000b 8955F0   		movl	%edx, -16(%rbp)
 430 000e 894DEC   		movl	%ecx, -20(%rbp)
 431 0011 F30F1145 		movss	%xmm0, -24(%rbp)
 431      E8
  68:RecordingReporter.h ****     {
  69:RecordingReporter.h ****         summaryTotalTestCount = totalTestCount;
 432              		.loc 4 69 0
 433 0016 488B45F8 		movq	-8(%rbp), %rax
 434 001a 8B55F4   		movl	-12(%rbp), %edx
 435 001d 89901C08 		movl	%edx, 2076(%rax)
 435      0000
  70:RecordingReporter.h ****         summaryFailedTestCount = failedTestCount;
 436              		.loc 4 70 0
 437 0023 488B45F8 		movq	-8(%rbp), %rax
 438 0027 8B55F0   		movl	-16(%rbp), %edx
 439 002a 89902008 		movl	%edx, 2080(%rax)
 439      0000
  71:RecordingReporter.h ****         summaryFailureCount = failureCount;
 440              		.loc 4 71 0
 441 0030 488B45F8 		movq	-8(%rbp), %rax
 442 0034 8B55EC   		movl	-20(%rbp), %edx
 443 0037 89902408 		movl	%edx, 2084(%rax)
 443      0000
  72:RecordingReporter.h ****         summarySecondsElapsed = secondsElapsed;
 444              		.loc 4 72 0
 445 003d 488B55F8 		movq	-8(%rbp), %rdx
 446 0041 8B45E8   		movl	-24(%rbp), %eax
 447 0044 89822808 		movl	%eax, 2088(%rdx)
 447      0000
  73:RecordingReporter.h ****     }
 448              		.loc 4 73 0
 449 004a 5D       		popq	%rbp
 450              		.cfi_def_cfa 7, 8
 451 004b C3       		ret
 452              		.cfi_endproc
 453              	.LFE1074:
 455              		.section	.text._ZN17ScopedCurrentTestC2ERN8UnitTest11TestResultsEPKNS0_11TestDetailsE,"axG",@progb
 456              		.align 2
 457              		.weak	_ZN17ScopedCurrentTestC2ERN8UnitTest11TestResultsEPKNS0_11TestDetailsE
 459              	_ZN17ScopedCurrentTestC2ERN8UnitTest11TestResultsEPKNS0_11TestDetailsE:
 460              	.LFB1079:
 461              		.file 5 "ScopedCurrentTest.h"
   1:ScopedCurrentTest.h **** #ifndef UNITTEST_SCOPEDCURRENTTEST_H
   2:ScopedCurrentTest.h **** #define UNITTEST_SCOPEDCURRENTTEST_H
   3:ScopedCurrentTest.h **** 
   4:ScopedCurrentTest.h **** #include "../CurrentTest.h"
   5:ScopedCurrentTest.h **** #include <cstddef>
   6:ScopedCurrentTest.h **** 
   7:ScopedCurrentTest.h **** class ScopedCurrentTest
   8:ScopedCurrentTest.h **** {
   9:ScopedCurrentTest.h **** public:
  10:ScopedCurrentTest.h **** 	ScopedCurrentTest()
  11:ScopedCurrentTest.h **** 		: m_oldTestResults(UnitTest::CurrentTest::Results())
  12:ScopedCurrentTest.h **** 		, m_oldTestDetails(UnitTest::CurrentTest::Details())
  13:ScopedCurrentTest.h **** 	{
  14:ScopedCurrentTest.h **** 	}
  15:ScopedCurrentTest.h **** 
  16:ScopedCurrentTest.h **** 	explicit ScopedCurrentTest(UnitTest::TestResults& newResults, const UnitTest::TestDetails* newDeta
 462              		.loc 5 16 0
 463              		.cfi_startproc
 464 0000 55       		pushq	%rbp
 465              		.cfi_def_cfa_offset 16
 466              		.cfi_offset 6, -16
 467 0001 4889E5   		movq	%rsp, %rbp
 468              		.cfi_def_cfa_register 6
 469 0004 4883EC20 		subq	$32, %rsp
 470 0008 48897DF8 		movq	%rdi, -8(%rbp)
 471 000c 488975F0 		movq	%rsi, -16(%rbp)
 472 0010 488955E8 		movq	%rdx, -24(%rbp)
 473              	.LBB9:
  17:ScopedCurrentTest.h **** 		: m_oldTestResults(UnitTest::CurrentTest::Results())
 474              		.loc 5 17 0
 475 0014 E8000000 		call	_ZN8UnitTest11CurrentTest7ResultsEv
 475      00
  18:ScopedCurrentTest.h **** 		, m_oldTestDetails(UnitTest::CurrentTest::Details())
 476              		.loc 5 18 0
 477 0019 488B10   		movq	(%rax), %rdx
 478 001c 488B45F8 		movq	-8(%rbp), %rax
 479 0020 488910   		movq	%rdx, (%rax)
 480 0023 E8000000 		call	_ZN8UnitTest11CurrentTest7DetailsEv
 480      00
 481 0028 488B10   		movq	(%rax), %rdx
 482 002b 488B45F8 		movq	-8(%rbp), %rax
 483 002f 48895008 		movq	%rdx, 8(%rax)
  19:ScopedCurrentTest.h **** 	{
  20:ScopedCurrentTest.h **** 		UnitTest::CurrentTest::Results() = &newResults;
 484              		.loc 5 20 0
 485 0033 E8000000 		call	_ZN8UnitTest11CurrentTest7ResultsEv
 485      00
 486 0038 4889C2   		movq	%rax, %rdx
 487 003b 488B45F0 		movq	-16(%rbp), %rax
 488 003f 488902   		movq	%rax, (%rdx)
  21:ScopedCurrentTest.h **** 
  22:ScopedCurrentTest.h **** 		if (newDetails != NULL)
 489              		.loc 5 22 0
 490 0042 48837DE8 		cmpq	$0, -24(%rbp)
 490      00
 491 0047 740F     		je	.L15
  23:ScopedCurrentTest.h **** 			UnitTest::CurrentTest::Details() = newDetails;
 492              		.loc 5 23 0
 493 0049 E8000000 		call	_ZN8UnitTest11CurrentTest7DetailsEv
 493      00
 494 004e 4889C2   		movq	%rax, %rdx
 495 0051 488B45E8 		movq	-24(%rbp), %rax
 496 0055 488902   		movq	%rax, (%rdx)
 497              	.L15:
 498              	.LBE9:
  24:ScopedCurrentTest.h **** 	}
 499              		.loc 5 24 0
 500 0058 C9       		leave
 501              		.cfi_def_cfa 7, 8
 502 0059 C3       		ret
 503              		.cfi_endproc
 504              	.LFE1079:
 506              		.weak	_ZN17ScopedCurrentTestC1ERN8UnitTest11TestResultsEPKNS0_11TestDetailsE
 507              		.set	_ZN17ScopedCurrentTestC1ERN8UnitTest11TestResultsEPKNS0_11TestDetailsE,_ZN17ScopedCurrentTest
 508              		.section	.text._ZN17ScopedCurrentTestD2Ev,"axG",@progbits,_ZN17ScopedCurrentTestD5Ev,comdat
 509              		.align 2
 510              		.weak	_ZN17ScopedCurrentTestD2Ev
 512              	_ZN17ScopedCurrentTestD2Ev:
 513              	.LFB1082:
  25:ScopedCurrentTest.h **** 
  26:ScopedCurrentTest.h **** 	~ScopedCurrentTest()
 514              		.loc 5 26 0
 515              		.cfi_startproc
 516 0000 55       		pushq	%rbp
 517              		.cfi_def_cfa_offset 16
 518              		.cfi_offset 6, -16
 519 0001 4889E5   		movq	%rsp, %rbp
 520              		.cfi_def_cfa_register 6
 521 0004 4883EC10 		subq	$16, %rsp
 522 0008 48897DF8 		movq	%rdi, -8(%rbp)
 523              	.LBB10:
  27:ScopedCurrentTest.h **** 	{
  28:ScopedCurrentTest.h **** 		UnitTest::CurrentTest::Results() = m_oldTestResults;
 524              		.loc 5 28 0
 525 000c E8000000 		call	_ZN8UnitTest11CurrentTest7ResultsEv
 525      00
 526 0011 4889C2   		movq	%rax, %rdx
 527 0014 488B45F8 		movq	-8(%rbp), %rax
 528 0018 488B00   		movq	(%rax), %rax
 529 001b 488902   		movq	%rax, (%rdx)
  29:ScopedCurrentTest.h **** 		UnitTest::CurrentTest::Details() = m_oldTestDetails;
 530              		.loc 5 29 0
 531 001e E8000000 		call	_ZN8UnitTest11CurrentTest7DetailsEv
 531      00
 532 0023 4889C2   		movq	%rax, %rdx
 533 0026 488B45F8 		movq	-8(%rbp), %rax
 534 002a 488B4008 		movq	8(%rax), %rax
 535 002e 488902   		movq	%rax, (%rdx)
 536              	.LBE10:
  30:ScopedCurrentTest.h **** 	}
 537              		.loc 5 30 0
 538 0031 C9       		leave
 539              		.cfi_def_cfa 7, 8
 540 0032 C3       		ret
 541              		.cfi_endproc
 542              	.LFE1082:
 544              		.weak	_ZN17ScopedCurrentTestD1Ev
 545              		.set	_ZN17ScopedCurrentTestD1Ev,_ZN17ScopedCurrentTestD2Ev
 546              		.section	.rodata
 547              	.LC2:
 548 000d 54657374 		.string	"TestCheckMacros.cpp"
 548      43686563 
 548      6B4D6163 
 548      726F732E 
 548      63707000 
 549              	.LC3:
 550 0021 43686563 		.string	"CheckSucceedsOnTrue"
 550      6B537563 
 550      63656564 
 550      734F6E54 
 550      72756500 
 551              		.text
 552              		.align 2
 554              	_ZN12_GLOBAL__N_123TestCheckSucceedsOnTrueC2Ev:
 555              	.LFB1085:
 556              		.file 6 "TestCheckMacros.cpp"
   1:TestCheckMacros.cpp **** #include "../UnitTest++.h"
   2:TestCheckMacros.cpp **** #include "../CurrentTest.h"
   3:TestCheckMacros.cpp **** #include "RecordingReporter.h"
   4:TestCheckMacros.cpp **** #include "ScopedCurrentTest.h"
   5:TestCheckMacros.cpp **** 
   6:TestCheckMacros.cpp **** using namespace std;
   7:TestCheckMacros.cpp **** 
   8:TestCheckMacros.cpp **** namespace {
   9:TestCheckMacros.cpp **** 
  10:TestCheckMacros.cpp **** TEST(CheckSucceedsOnTrue)
 557              		.loc 6 10 0
 558              		.cfi_startproc
 559 0000 55       		pushq	%rbp
 560              		.cfi_def_cfa_offset 16
 561              		.cfi_offset 6, -16
 562 0001 4889E5   		movq	%rsp, %rbp
 563              		.cfi_def_cfa_register 6
 564 0004 4883EC10 		subq	$16, %rsp
 565 0008 48897DF8 		movq	%rdi, -8(%rbp)
 566              	.LBB11:
 567              		.loc 6 10 0
 568 000c E8000000 		call	_ZN13UnitTestSuite12GetSuiteNameEv
 568      00
 569 0011 4889C2   		movq	%rax, %rdx
 570 0014 488B45F8 		movq	-8(%rbp), %rax
 571 0018 41B80A00 		movl	$10, %r8d
 571      0000
 572 001e B9000000 		movl	$.LC2, %ecx
 572      00
 573 0023 BE000000 		movl	$.LC3, %esi
 573      00
 574 0028 4889C7   		movq	%rax, %rdi
 575 002b E8000000 		call	_ZN8UnitTest4TestC2EPKcS2_S2_i
 575      00
 576 0030 488B45F8 		movq	-8(%rbp), %rax
 577 0034 48C70000 		movq	$_ZTVN12_GLOBAL__N_123TestCheckSucceedsOnTrueE+16, (%rax)
 577      000000
 578              	.LBE11:
 579 003b C9       		leave
 580              		.cfi_def_cfa 7, 8
 581 003c C3       		ret
 582              		.cfi_endproc
 583              	.LFE1085:
 585              		.local	_ZN12_GLOBAL__N_131testCheckSucceedsOnTrueInstanceE
 586              		.comm	_ZN12_GLOBAL__N_131testCheckSucceedsOnTrueInstanceE,56,32
 587              		.local	_ZN12_GLOBAL__N_124adderCheckSucceedsOnTrueE
 588              		.comm	_ZN12_GLOBAL__N_124adderCheckSucceedsOnTrueE,1,1
 589              		.section	.rodata
 590              	.LC4:
 591 0035 74727565 		.string	"true"
 591      00
 592              	.LC5:
 593 003a 21666169 		.string	"!failure"
 593      6C757265 
 593      00
 594 0043 00000000 		.align 8
 594      00
 595              	.LC6:
 596 0048 556E6861 		.string	"Unhandled exception in CHECK(true)"
 596      6E646C65 
 596      64206578 
 596      63657074 
 596      696F6E20 
 597 006b 00000000 		.align 8
 597      00
 598              	.LC7:
 599 0070 556E6861 		.string	"Unhandled exception in CHECK(!failure)"
 599      6E646C65 
 599      64206578 
 599      63657074 
 599      696F6E20 
 600              		.text
 601 003d 90       		.align 2
 603              	_ZNK12_GLOBAL__N_123TestCheckSucceedsOnTrue7RunImplEv:
 604              	.LFB1087:
  11:TestCheckMacros.cpp **** {
 605              		.loc 6 11 0
 606              		.cfi_startproc
 607              		.cfi_personality 0x3,__gxx_personality_v0
 608              		.cfi_lsda 0x3,.LLSDA1087
 609 003e 55       		pushq	%rbp
 610              		.cfi_def_cfa_offset 16
 611              		.cfi_offset 6, -16
 612 003f 4889E5   		movq	%rsp, %rbp
 613              		.cfi_def_cfa_register 6
 614 0042 53       		pushq	%rbx
 615 0043 4881ECB8 		subq	$2232, %rsp
 615      080000
 616              		.cfi_offset 3, -24
 617 004a 4889BD48 		movq	%rdi, -2232(%rbp)
 617      F7FFFF
 618              		.loc 6 11 0
 619 0051 64488B04 		movq	%fs:40, %rax
 619      25280000 
 619      00
 620 005a 488945E8 		movq	%rax, -24(%rbp)
 621 005e 31C0     		xorl	%eax, %eax
 622              	.LBB12:
  12:TestCheckMacros.cpp ****     bool failure = true;
 623              		.loc 6 12 0
 624 0060 C6855FF7 		movb	$1, -2209(%rbp)
 624      FFFF01
 625              	.LBB13:
  13:TestCheckMacros.cpp ****     {
  14:TestCheckMacros.cpp ****         RecordingReporter reporter;
 626              		.loc 6 14 0
 627 0067 488D85B0 		leaq	-2128(%rbp), %rax
 627      F7FFFF
 628 006e 4889C7   		movq	%rax, %rdi
 629 0071 E8000000 		call	_ZN17RecordingReporterC1Ev
 629      00
  15:TestCheckMacros.cpp ****         UnitTest::TestResults testResults(&reporter);
 630              		.loc 6 15 0
 631 0076 488D95B0 		leaq	-2128(%rbp), %rdx
 631      F7FFFF
 632 007d 488D8570 		leaq	-2192(%rbp), %rax
 632      F7FFFF
 633 0084 4889D6   		movq	%rdx, %rsi
 634 0087 4889C7   		movq	%rax, %rdi
 635              	.LEHB4:
 636 008a E8000000 		call	_ZN8UnitTest11TestResultsC1EPNS_12TestReporterE
 636      00
  16:TestCheckMacros.cpp **** 
  17:TestCheckMacros.cpp **** 		ScopedCurrentTest scopedResults(testResults);
 637              		.loc 6 17 0
 638 008f 488D8D70 		leaq	-2192(%rbp), %rcx
 638      F7FFFF
 639 0096 488D8560 		leaq	-2208(%rbp), %rax
 639      F7FFFF
 640 009d BA000000 		movl	$0, %edx
 640      00
 641 00a2 4889CE   		movq	%rcx, %rsi
 642 00a5 4889C7   		movq	%rax, %rdi
 643 00a8 E8000000 		call	_ZN17ScopedCurrentTestC1ERN8UnitTest11TestResultsEPKNS0_11TestDetailsE
 643      00
 644              	.LEHE4:
  18:TestCheckMacros.cpp **** 		CHECK(true);
 645              		.loc 6 18 0
 646 00ad BF010000 		movl	$1, %edi
 646      00
 647 00b2 E8000000 		call	_ZN8UnitTest5CheckIbEEbT_
 647      00
 648 00b7 83F001   		xorl	$1, %eax
 649 00ba 84C0     		testb	%al, %al
 650 00bc 743E     		je	.L21
 651              	.LEHB5:
 652              		.loc 6 18 0 is_stmt 0 discriminator 1
 653 00be E8000000 		call	_ZN8UnitTest11CurrentTest7DetailsEv
 653      00
 654 00c3 488B08   		movq	(%rax), %rcx
 655 00c6 488D8590 		leaq	-2160(%rbp), %rax
 655      F7FFFF
 656 00cd BA120000 		movl	$18, %edx
 656      00
 657 00d2 4889CE   		movq	%rcx, %rsi
 658 00d5 4889C7   		movq	%rax, %rdi
 659 00d8 E8000000 		call	_ZN8UnitTest11TestDetailsC1ERKS0_i
 659      00
 660              		.loc 6 18 0 discriminator 3
 661 00dd E8000000 		call	_ZN8UnitTest11CurrentTest7ResultsEv
 661      00
 662 00e2 488B00   		movq	(%rax), %rax
 663 00e5 488D8D90 		leaq	-2160(%rbp), %rcx
 663      F7FFFF
 664 00ec BA000000 		movl	$.LC4, %edx
 664      00
 665 00f1 4889CE   		movq	%rcx, %rsi
 666 00f4 4889C7   		movq	%rax, %rdi
 667 00f7 E8000000 		call	_ZN8UnitTest11TestResults13OnTestFailureERKNS_11TestDetailsEPKc
 667      00
 668              	.LEHE5:
 669              	.L21:
  19:TestCheckMacros.cpp **** 
  20:TestCheckMacros.cpp **** 		failure = (testResults.GetFailureCount() > 0);
 670              		.loc 6 20 0 is_stmt 1
 671 00fc 488D8570 		leaq	-2192(%rbp), %rax
 671      F7FFFF
 672 0103 4889C7   		movq	%rax, %rdi
 673              	.LEHB6:
 674 0106 E8000000 		call	_ZNK8UnitTest11TestResults15GetFailureCountEv
 674      00
 675              	.LEHE6:
 676 010b 85C0     		testl	%eax, %eax
 677 010d 0F9FC0   		setg	%al
 678 0110 88855FF7 		movb	%al, -2209(%rbp)
 678      FFFF
  17:TestCheckMacros.cpp **** 		CHECK(true);
 679              		.loc 6 17 0
 680 0116 488D8560 		leaq	-2208(%rbp), %rax
 680      F7FFFF
 681 011d 4889C7   		movq	%rax, %rdi
 682              	.LEHB7:
 683 0120 E8000000 		call	_ZN17ScopedCurrentTestD1Ev
 683      00
 684              	.LEHE7:
 685              		.loc 6 20 0
 686 0125 488D85B0 		leaq	-2128(%rbp), %rax
 686      F7FFFF
 687 012c 4889C7   		movq	%rax, %rdi
 688              	.LEHB8:
 689 012f E8000000 		call	_ZN17RecordingReporterD1Ev
 689      00
 690              	.LEHE8:
 691              	.LBE13:
  21:TestCheckMacros.cpp ****     }
  22:TestCheckMacros.cpp **** 
  23:TestCheckMacros.cpp ****     CHECK(!failure);
 692              		.loc 6 23 0
 693 0134 0FB6855F 		movzbl	-2209(%rbp), %eax
 693      F7FFFF
 694 013b 83F001   		xorl	$1, %eax
 695 013e 0FB6C0   		movzbl	%al, %eax
 696 0141 89C7     		movl	%eax, %edi
 697 0143 E8000000 		call	_ZN8UnitTest5CheckIbEEbT_
 697      00
 698 0148 83F001   		xorl	$1, %eax
 699 014b 84C0     		testb	%al, %al
 700 014d 0F842D01 		je	.L20
 700      0000
 701              	.LEHB9:
 702              		.loc 6 23 0 is_stmt 0 discriminator 1
 703 0153 E8000000 		call	_ZN8UnitTest11CurrentTest7DetailsEv
 703      00
 704 0158 488B08   		movq	(%rax), %rcx
 705 015b 488D8590 		leaq	-2160(%rbp), %rax
 705      F7FFFF
 706 0162 BA170000 		movl	$23, %edx
 706      00
 707 0167 4889CE   		movq	%rcx, %rsi
 708 016a 4889C7   		movq	%rax, %rdi
 709 016d E8000000 		call	_ZN8UnitTest11TestDetailsC1ERKS0_i
 709      00
 710              		.loc 6 23 0 discriminator 3
 711 0172 E8000000 		call	_ZN8UnitTest11CurrentTest7ResultsEv
 711      00
 712 0177 488B00   		movq	(%rax), %rax
 713 017a 488D8D90 		leaq	-2160(%rbp), %rcx
 713      F7FFFF
 714 0181 BA000000 		movl	$.LC5, %edx
 714      00
 715 0186 4889CE   		movq	%rcx, %rsi
 716 0189 4889C7   		movq	%rax, %rdi
 717 018c E8000000 		call	_ZN8UnitTest11TestResults13OnTestFailureERKNS_11TestDetailsEPKc
 717      00
 718              	.LEHE9:
 719 0191 E9EA0000 		jmp	.L20
 719      00
 720              	.L33:
 721 0196 4889C3   		movq	%rax, %rbx
 722              	.LBB14:
  18:TestCheckMacros.cpp **** 
 723              		.loc 6 18 0 is_stmt 1
 724 0199 E8000000 		call	__cxa_end_catch
 724      00
 725 019e EB53     		jmp	.L24
 726              	.L31:
 727 01a0 4889C7   		movq	%rax, %rdi
 728 01a3 E8000000 		call	__cxa_begin_catch
 728      00
 729              	.LEHB10:
 730 01a8 E8000000 		call	_ZN8UnitTest11CurrentTest7DetailsEv
 730      00
 731 01ad 488B08   		movq	(%rax), %rcx
 732 01b0 488D8590 		leaq	-2160(%rbp), %rax
 732      F7FFFF
 733 01b7 BA120000 		movl	$18, %edx
 733      00
 734 01bc 4889CE   		movq	%rcx, %rsi
 735 01bf 4889C7   		movq	%rax, %rdi
 736 01c2 E8000000 		call	_ZN8UnitTest11TestDetailsC1ERKS0_i
 736      00
  18:TestCheckMacros.cpp **** 
 737              		.loc 6 18 0 is_stmt 0 discriminator 11
 738 01c7 E8000000 		call	_ZN8UnitTest11CurrentTest7ResultsEv
 738      00
 739 01cc 488B00   		movq	(%rax), %rax
 740 01cf 488D8D90 		leaq	-2160(%rbp), %rcx
 740      F7FFFF
 741 01d6 BA000000 		movl	$.LC6, %edx
 741      00
 742 01db 4889CE   		movq	%rcx, %rsi
 743 01de 4889C7   		movq	%rax, %rdi
 744 01e1 E8000000 		call	_ZN8UnitTest11TestResults13OnTestFailureERKNS_11TestDetailsEPKc
 744      00
 745              	.LEHE10:
 746              	.LEHB11:
  18:TestCheckMacros.cpp **** 
 747              		.loc 6 18 0 discriminator 15
 748 01e6 E8000000 		call	__cxa_end_catch
 748      00
 749              	.LEHE11:
  18:TestCheckMacros.cpp **** 
 750              		.loc 6 18 0
 751 01eb E90CFFFF 		jmp	.L21
 751      FF
 752              	.L32:
 753 01f0 4889C3   		movq	%rax, %rbx
 754              	.L24:
  17:TestCheckMacros.cpp **** 		CHECK(true);
 755              		.loc 6 17 0 is_stmt 1
 756 01f3 488D8560 		leaq	-2208(%rbp), %rax
 756      F7FFFF
 757 01fa 4889C7   		movq	%rax, %rdi
 758 01fd E8000000 		call	_ZN17ScopedCurrentTestD1Ev
 758      00
 759 0202 EB03     		jmp	.L26
 760              	.L30:
 761 0204 4889C3   		movq	%rax, %rbx
 762              	.L26:
  20:TestCheckMacros.cpp ****     }
 763              		.loc 6 20 0
 764 0207 488D85B0 		leaq	-2128(%rbp), %rax
 764      F7FFFF
 765 020e 4889C7   		movq	%rax, %rdi
 766 0211 E8000000 		call	_ZN17RecordingReporterD1Ev
 766      00
 767 0216 4889D8   		movq	%rbx, %rax
 768 0219 4889C7   		movq	%rax, %rdi
 769              	.LEHB12:
 770 021c E8000000 		call	_Unwind_Resume
 770      00
 771              	.LEHE12:
 772              	.L35:
 773 0221 4889C3   		movq	%rax, %rbx
 774              	.LBE14:
 775              		.loc 6 23 0
 776 0224 E8000000 		call	__cxa_end_catch
 776      00
 777 0229 4889D8   		movq	%rbx, %rax
 778 022c 4889C7   		movq	%rax, %rdi
 779              	.LEHB13:
 780 022f E8000000 		call	_Unwind_Resume
 780      00
 781              	.LEHE13:
 782              	.L34:
 783 0234 4889C7   		movq	%rax, %rdi
 784 0237 E8000000 		call	__cxa_begin_catch
 784      00
 785              	.LEHB14:
 786 023c E8000000 		call	_ZN8UnitTest11CurrentTest7DetailsEv
 786      00
 787 0241 488B08   		movq	(%rax), %rcx
 788 0244 488D8590 		leaq	-2160(%rbp), %rax
 788      F7FFFF
 789 024b BA170000 		movl	$23, %edx
 789      00
 790 0250 4889CE   		movq	%rcx, %rsi
 791 0253 4889C7   		movq	%rax, %rdi
 792 0256 E8000000 		call	_ZN8UnitTest11TestDetailsC1ERKS0_i
 792      00
 793              		.loc 6 23 0 is_stmt 0 discriminator 11
 794 025b E8000000 		call	_ZN8UnitTest11CurrentTest7ResultsEv
 794      00
 795 0260 488B00   		movq	(%rax), %rax
 796 0263 488D8D90 		leaq	-2160(%rbp), %rcx
 796      F7FFFF
 797 026a BA000000 		movl	$.LC7, %edx
 797      00
 798 026f 4889CE   		movq	%rcx, %rsi
 799 0272 4889C7   		movq	%rax, %rdi
 800 0275 E8000000 		call	_ZN8UnitTest11TestResults13OnTestFailureERKNS_11TestDetailsEPKc
 800      00
 801              	.LEHE14:
 802              	.LEHB15:
 803              		.loc 6 23 0 discriminator 15
 804 027a E8000000 		call	__cxa_end_catch
 804      00
 805              	.LEHE15:
 806              	.LBE12:
  24:TestCheckMacros.cpp **** }
 807              		.loc 6 24 0 is_stmt 1 discriminator 15
 808 027f 90       		nop
 809              	.L20:
 810              		.loc 6 24 0 is_stmt 0
 811 0280 488B45E8 		movq	-24(%rbp), %rax
 812 0284 64483304 		xorq	%fs:40, %rax
 812      25280000 
 812      00
 813 028d 7405     		je	.L29
 814 028f E8000000 		call	__stack_chk_fail
 814      00
 815              	.L29:
 816 0294 4881C4B8 		addq	$2232, %rsp
 816      080000
 817 029b 5B       		popq	%rbx
 818 029c 5D       		popq	%rbp
 819              		.cfi_def_cfa 7, 8
 820 029d C3       		ret
 821              		.cfi_endproc
 822              	.LFE1087:
 823              		.section	.gcc_except_table,"a",@progbits
 824              		.align 4
 825              	.LLSDA1087:
 826 0000 FF       		.byte	0xff
 827 0001 03       		.byte	0x3
 828 0002 4D       		.uleb128 .LLSDATT1087-.LLSDATTD1087
 829              	.LLSDATTD1087:
 830 0003 01       		.byte	0x1
 831 0004 43       		.uleb128 .LLSDACSE1087-.LLSDACSB1087
 832              	.LLSDACSB1087:
 833 0005 4C       		.uleb128 .LEHB4-.LFB1087
 834 0006 23       		.uleb128 .LEHE4-.LEHB4
 835 0007 C603     		.uleb128 .L30-.LFB1087
 836 0009 00       		.uleb128 0
 837 000a 8001     		.uleb128 .LEHB5-.LFB1087
 838 000c 3E       		.uleb128 .LEHE5-.LEHB5
 839 000d E202     		.uleb128 .L31-.LFB1087
 840 000f 01       		.uleb128 0x1
 841 0010 C801     		.uleb128 .LEHB6-.LFB1087
 842 0012 05       		.uleb128 .LEHE6-.LEHB6
 843 0013 B203     		.uleb128 .L32-.LFB1087
 844 0015 00       		.uleb128 0
 845 0016 E201     		.uleb128 .LEHB7-.LFB1087
 846 0018 05       		.uleb128 .LEHE7-.LEHB7
 847 0019 C603     		.uleb128 .L30-.LFB1087
 848 001b 00       		.uleb128 0
 849 001c F101     		.uleb128 .LEHB8-.LFB1087
 850 001e 05       		.uleb128 .LEHE8-.LEHB8
 851 001f 00       		.uleb128 0
 852 0020 00       		.uleb128 0
 853 0021 9502     		.uleb128 .LEHB9-.LFB1087
 854 0023 3E       		.uleb128 .LEHE9-.LEHB9
 855 0024 F603     		.uleb128 .L34-.LFB1087
 856 0026 01       		.uleb128 0x1
 857 0027 EA02     		.uleb128 .LEHB10-.LFB1087
 858 0029 3E       		.uleb128 .LEHE10-.LEHB10
 859 002a D802     		.uleb128 .L33-.LFB1087
 860 002c 00       		.uleb128 0
 861 002d A803     		.uleb128 .LEHB11-.LFB1087
 862 002f 05       		.uleb128 .LEHE11-.LEHB11
 863 0030 B203     		.uleb128 .L32-.LFB1087
 864 0032 00       		.uleb128 0
 865 0033 DE03     		.uleb128 .LEHB12-.LFB1087
 866 0035 05       		.uleb128 .LEHE12-.LEHB12
 867 0036 00       		.uleb128 0
 868 0037 00       		.uleb128 0
 869 0038 F103     		.uleb128 .LEHB13-.LFB1087
 870 003a 05       		.uleb128 .LEHE13-.LEHB13
 871 003b 00       		.uleb128 0
 872 003c 00       		.uleb128 0
 873 003d FE03     		.uleb128 .LEHB14-.LFB1087
 874 003f 3E       		.uleb128 .LEHE14-.LEHB14
 875 0040 E303     		.uleb128 .L35-.LFB1087
 876 0042 00       		.uleb128 0
 877 0043 BC04     		.uleb128 .LEHB15-.LFB1087
 878 0045 05       		.uleb128 .LEHE15-.LEHB15
 879 0046 00       		.uleb128 0
 880 0047 00       		.uleb128 0
 881              	.LLSDACSE1087:
 882 0048 01       		.byte	0x1
 883 0049 00       		.byte	0
 884 004a 0000     		.align 4
 885 004c 00000000 		.long	0
 886              	
 887              	.LLSDATT1087:
 888              		.text
 890              		.section	.rodata
 891              	.LC8:
 892 0097 43686563 		.string	"CheckFailsOnFalse"
 892      6B466169 
 892      6C734F6E 
 892      46616C73 
 892      6500
 893              		.text
 894              		.align 2
 896              	_ZN12_GLOBAL__N_121TestCheckFailsOnFalseC2Ev:
 897              	.LFB1089:
  25:TestCheckMacros.cpp **** 
  26:TestCheckMacros.cpp **** TEST(CheckFailsOnFalse)
 898              		.loc 6 26 0 is_stmt 1
 899              		.cfi_startproc
 900 029e 55       		pushq	%rbp
 901              		.cfi_def_cfa_offset 16
 902              		.cfi_offset 6, -16
 903 029f 4889E5   		movq	%rsp, %rbp
 904              		.cfi_def_cfa_register 6
 905 02a2 4883EC10 		subq	$16, %rsp
 906 02a6 48897DF8 		movq	%rdi, -8(%rbp)
 907              	.LBB15:
 908              		.loc 6 26 0
 909 02aa E8000000 		call	_ZN13UnitTestSuite12GetSuiteNameEv
 909      00
 910 02af 4889C2   		movq	%rax, %rdx
 911 02b2 488B45F8 		movq	-8(%rbp), %rax
 912 02b6 41B81A00 		movl	$26, %r8d
 912      0000
 913 02bc B9000000 		movl	$.LC2, %ecx
 913      00
 914 02c1 BE000000 		movl	$.LC8, %esi
 914      00
 915 02c6 4889C7   		movq	%rax, %rdi
 916 02c9 E8000000 		call	_ZN8UnitTest4TestC2EPKcS2_S2_i
 916      00
 917 02ce 488B45F8 		movq	-8(%rbp), %rax
 918 02d2 48C70000 		movq	$_ZTVN12_GLOBAL__N_121TestCheckFailsOnFalseE+16, (%rax)
 918      000000
 919              	.LBE15:
 920 02d9 C9       		leave
 921              		.cfi_def_cfa 7, 8
 922 02da C3       		ret
 923              		.cfi_endproc
 924              	.LFE1089:
 926              		.local	_ZN12_GLOBAL__N_129testCheckFailsOnFalseInstanceE
 927              		.comm	_ZN12_GLOBAL__N_129testCheckFailsOnFalseInstanceE,56,32
 928              		.local	_ZN12_GLOBAL__N_122adderCheckFailsOnFalseE
 929              		.comm	_ZN12_GLOBAL__N_122adderCheckFailsOnFalseE,1,1
 930              		.section	.rodata
 931              	.LC9:
 932 00a9 66616C73 		.string	"false"
 932      6500
 933              	.LC10:
 934 00af 6661696C 		.string	"failure"
 934      75726500 
 935 00b7 00       		.align 8
 936              	.LC11:
 937 00b8 556E6861 		.string	"Unhandled exception in CHECK(false)"
 937      6E646C65 
 937      64206578 
 937      63657074 
 937      696F6E20 
 938 00dc 00000000 		.align 8
 939              	.LC12:
 940 00e0 556E6861 		.string	"Unhandled exception in CHECK(failure)"
 940      6E646C65 
 940      64206578 
 940      63657074 
 940      696F6E20 
 941              		.text
 942 02db 90       		.align 2
 944              	_ZNK12_GLOBAL__N_121TestCheckFailsOnFalse7RunImplEv:
 945              	.LFB1091:
  27:TestCheckMacros.cpp **** {
 946              		.loc 6 27 0
 947              		.cfi_startproc
 948              		.cfi_personality 0x3,__gxx_personality_v0
 949              		.cfi_lsda 0x3,.LLSDA1091
 950 02dc 55       		pushq	%rbp
 951              		.cfi_def_cfa_offset 16
 952              		.cfi_offset 6, -16
 953 02dd 4889E5   		movq	%rsp, %rbp
 954              		.cfi_def_cfa_register 6
 955 02e0 53       		pushq	%rbx
 956 02e1 4881ECB8 		subq	$2232, %rsp
 956      080000
 957              		.cfi_offset 3, -24
 958 02e8 4889BD48 		movq	%rdi, -2232(%rbp)
 958      F7FFFF
 959              		.loc 6 27 0
 960 02ef 64488B04 		movq	%fs:40, %rax
 960      25280000 
 960      00
 961 02f8 488945E8 		movq	%rax, -24(%rbp)
 962 02fc 31C0     		xorl	%eax, %eax
 963              	.LBB16:
  28:TestCheckMacros.cpp ****     bool failure = false;
 964              		.loc 6 28 0
 965 02fe C6855FF7 		movb	$0, -2209(%rbp)
 965      FFFF00
 966              	.LBB17:
  29:TestCheckMacros.cpp ****     {
  30:TestCheckMacros.cpp ****         RecordingReporter reporter;
 967              		.loc 6 30 0
 968 0305 488D85B0 		leaq	-2128(%rbp), %rax
 968      F7FFFF
 969 030c 4889C7   		movq	%rax, %rdi
 970 030f E8000000 		call	_ZN17RecordingReporterC1Ev
 970      00
  31:TestCheckMacros.cpp ****         UnitTest::TestResults testResults(&reporter);
 971              		.loc 6 31 0
 972 0314 488D95B0 		leaq	-2128(%rbp), %rdx
 972      F7FFFF
 973 031b 488D8570 		leaq	-2192(%rbp), %rax
 973      F7FFFF
 974 0322 4889D6   		movq	%rdx, %rsi
 975 0325 4889C7   		movq	%rax, %rdi
 976              	.LEHB16:
 977 0328 E8000000 		call	_ZN8UnitTest11TestResultsC1EPNS_12TestReporterE
 977      00
  32:TestCheckMacros.cpp **** 		ScopedCurrentTest scopedResults(testResults);
 978              		.loc 6 32 0
 979 032d 488D8D70 		leaq	-2192(%rbp), %rcx
 979      F7FFFF
 980 0334 488D8560 		leaq	-2208(%rbp), %rax
 980      F7FFFF
 981 033b BA000000 		movl	$0, %edx
 981      00
 982 0340 4889CE   		movq	%rcx, %rsi
 983 0343 4889C7   		movq	%rax, %rdi
 984 0346 E8000000 		call	_ZN17ScopedCurrentTestC1ERN8UnitTest11TestResultsEPKNS0_11TestDetailsE
 984      00
 985              	.LEHE16:
  33:TestCheckMacros.cpp ****         CHECK(false);
 986              		.loc 6 33 0
 987 034b BF000000 		movl	$0, %edi
 987      00
 988 0350 E8000000 		call	_ZN8UnitTest5CheckIbEEbT_
 988      00
 989 0355 83F001   		xorl	$1, %eax
 990 0358 84C0     		testb	%al, %al
 991 035a 743E     		je	.L38
 992              	.LEHB17:
 993              		.loc 6 33 0 is_stmt 0 discriminator 1
 994 035c E8000000 		call	_ZN8UnitTest11CurrentTest7DetailsEv
 994      00
 995 0361 488B08   		movq	(%rax), %rcx
 996 0364 488D8590 		leaq	-2160(%rbp), %rax
 996      F7FFFF
 997 036b BA210000 		movl	$33, %edx
 997      00
 998 0370 4889CE   		movq	%rcx, %rsi
 999 0373 4889C7   		movq	%rax, %rdi
 1000 0376 E8000000 		call	_ZN8UnitTest11TestDetailsC1ERKS0_i
 1000      00
 1001              		.loc 6 33 0 discriminator 3
 1002 037b E8000000 		call	_ZN8UnitTest11CurrentTest7ResultsEv
 1002      00
 1003 0380 488B00   		movq	(%rax), %rax
 1004 0383 488D8D90 		leaq	-2160(%rbp), %rcx
 1004      F7FFFF
 1005 038a BA000000 		movl	$.LC9, %edx
 1005      00
 1006 038f 4889CE   		movq	%rcx, %rsi
 1007 0392 4889C7   		movq	%rax, %rdi
 1008 0395 E8000000 		call	_ZN8UnitTest11TestResults13OnTestFailureERKNS_11TestDetailsEPKc
 1008      00
 1009              	.LEHE17:
 1010              	.L38:
  34:TestCheckMacros.cpp ****         failure = (testResults.GetFailureCount() > 0);
 1011              		.loc 6 34 0 is_stmt 1
 1012 039a 488D8570 		leaq	-2192(%rbp), %rax
 1012      F7FFFF
 1013 03a1 4889C7   		movq	%rax, %rdi
 1014              	.LEHB18:
 1015 03a4 E8000000 		call	_ZNK8UnitTest11TestResults15GetFailureCountEv
 1015      00
 1016              	.LEHE18:
 1017 03a9 85C0     		testl	%eax, %eax
 1018 03ab 0F9FC0   		setg	%al
 1019 03ae 88855FF7 		movb	%al, -2209(%rbp)
 1019      FFFF
  32:TestCheckMacros.cpp **** 		ScopedCurrentTest scopedResults(testResults);
 1020              		.loc 6 32 0
 1021 03b4 488D8560 		leaq	-2208(%rbp), %rax
 1021      F7FFFF
 1022 03bb 4889C7   		movq	%rax, %rdi
 1023              	.LEHB19:
 1024 03be E8000000 		call	_ZN17ScopedCurrentTestD1Ev
 1024      00
 1025              	.LEHE19:
 1026              		.loc 6 34 0
 1027 03c3 488D85B0 		leaq	-2128(%rbp), %rax
 1027      F7FFFF
 1028 03ca 4889C7   		movq	%rax, %rdi
 1029              	.LEHB20:
 1030 03cd E8000000 		call	_ZN17RecordingReporterD1Ev
 1030      00
 1031              	.LEHE20:
 1032              	.LBE17:
  35:TestCheckMacros.cpp ****     }
  36:TestCheckMacros.cpp **** 
  37:TestCheckMacros.cpp ****     CHECK(failure);
 1033              		.loc 6 37 0
 1034 03d2 0FB6855F 		movzbl	-2209(%rbp), %eax
 1034      F7FFFF
 1035 03d9 89C7     		movl	%eax, %edi
 1036 03db E8000000 		call	_ZN8UnitTest5CheckIbEEbT_
 1036      00
 1037 03e0 83F001   		xorl	$1, %eax
 1038 03e3 84C0     		testb	%al, %al
 1039 03e5 0F842D01 		je	.L37
 1039      0000
 1040              	.LEHB21:
 1041              		.loc 6 37 0 is_stmt 0 discriminator 1
 1042 03eb E8000000 		call	_ZN8UnitTest11CurrentTest7DetailsEv
 1042      00
 1043 03f0 488B08   		movq	(%rax), %rcx
 1044 03f3 488D8590 		leaq	-2160(%rbp), %rax
 1044      F7FFFF
 1045 03fa BA250000 		movl	$37, %edx
 1045      00
 1046 03ff 4889CE   		movq	%rcx, %rsi
 1047 0402 4889C7   		movq	%rax, %rdi
 1048 0405 E8000000 		call	_ZN8UnitTest11TestDetailsC1ERKS0_i
 1048      00
 1049              		.loc 6 37 0 discriminator 3
 1050 040a E8000000 		call	_ZN8UnitTest11CurrentTest7ResultsEv
 1050      00
 1051 040f 488B00   		movq	(%rax), %rax
 1052 0412 488D8D90 		leaq	-2160(%rbp), %rcx
 1052      F7FFFF
 1053 0419 BA000000 		movl	$.LC10, %edx
 1053      00
 1054 041e 4889CE   		movq	%rcx, %rsi
 1055 0421 4889C7   		movq	%rax, %rdi
 1056 0424 E8000000 		call	_ZN8UnitTest11TestResults13OnTestFailureERKNS_11TestDetailsEPKc
 1056      00
 1057              	.LEHE21:
 1058 0429 E9EA0000 		jmp	.L37
 1058      00
 1059              	.L50:
 1060 042e 4889C3   		movq	%rax, %rbx
 1061              	.LBB18:
  33:TestCheckMacros.cpp ****         failure = (testResults.GetFailureCount() > 0);
 1062              		.loc 6 33 0 is_stmt 1
 1063 0431 E8000000 		call	__cxa_end_catch
 1063      00
 1064 0436 EB53     		jmp	.L41
 1065              	.L48:
 1066 0438 4889C7   		movq	%rax, %rdi
 1067 043b E8000000 		call	__cxa_begin_catch
 1067      00
 1068              	.LEHB22:
 1069 0440 E8000000 		call	_ZN8UnitTest11CurrentTest7DetailsEv
 1069      00
 1070 0445 488B08   		movq	(%rax), %rcx
 1071 0448 488D8590 		leaq	-2160(%rbp), %rax
 1071      F7FFFF
 1072 044f BA210000 		movl	$33, %edx
 1072      00
 1073 0454 4889CE   		movq	%rcx, %rsi
 1074 0457 4889C7   		movq	%rax, %rdi
 1075 045a E8000000 		call	_ZN8UnitTest11TestDetailsC1ERKS0_i
 1075      00
  33:TestCheckMacros.cpp ****         failure = (testResults.GetFailureCount() > 0);
 1076              		.loc 6 33 0 is_stmt 0 discriminator 11
 1077 045f E8000000 		call	_ZN8UnitTest11CurrentTest7ResultsEv
 1077      00
 1078 0464 488B00   		movq	(%rax), %rax
 1079 0467 488D8D90 		leaq	-2160(%rbp), %rcx
 1079      F7FFFF
 1080 046e BA000000 		movl	$.LC11, %edx
 1080      00
 1081 0473 4889CE   		movq	%rcx, %rsi
 1082 0476 4889C7   		movq	%rax, %rdi
 1083 0479 E8000000 		call	_ZN8UnitTest11TestResults13OnTestFailureERKNS_11TestDetailsEPKc
 1083      00
 1084              	.LEHE22:
 1085              	.LEHB23:
  33:TestCheckMacros.cpp ****         failure = (testResults.GetFailureCount() > 0);
 1086              		.loc 6 33 0 discriminator 15
 1087 047e E8000000 		call	__cxa_end_catch
 1087      00
 1088              	.LEHE23:
  33:TestCheckMacros.cpp ****         failure = (testResults.GetFailureCount() > 0);
 1089              		.loc 6 33 0
 1090 0483 E912FFFF 		jmp	.L38
 1090      FF
 1091              	.L49:
 1092 0488 4889C3   		movq	%rax, %rbx
 1093              	.L41:
  32:TestCheckMacros.cpp ****         CHECK(false);
 1094              		.loc 6 32 0 is_stmt 1
 1095 048b 488D8560 		leaq	-2208(%rbp), %rax
 1095      F7FFFF
 1096 0492 4889C7   		movq	%rax, %rdi
 1097 0495 E8000000 		call	_ZN17ScopedCurrentTestD1Ev
 1097      00
 1098 049a EB03     		jmp	.L43
 1099              	.L47:
 1100 049c 4889C3   		movq	%rax, %rbx
 1101              	.L43:
  34:TestCheckMacros.cpp ****     }
 1102              		.loc 6 34 0
 1103 049f 488D85B0 		leaq	-2128(%rbp), %rax
 1103      F7FFFF
 1104 04a6 4889C7   		movq	%rax, %rdi
 1105 04a9 E8000000 		call	_ZN17RecordingReporterD1Ev
 1105      00
 1106 04ae 4889D8   		movq	%rbx, %rax
 1107 04b1 4889C7   		movq	%rax, %rdi
 1108              	.LEHB24:
 1109 04b4 E8000000 		call	_Unwind_Resume
 1109      00
 1110              	.LEHE24:
 1111              	.L52:
 1112 04b9 4889C3   		movq	%rax, %rbx
 1113              	.LBE18:
 1114              		.loc 6 37 0
 1115 04bc E8000000 		call	__cxa_end_catch
 1115      00
 1116 04c1 4889D8   		movq	%rbx, %rax
 1117 04c4 4889C7   		movq	%rax, %rdi
 1118              	.LEHB25:
 1119 04c7 E8000000 		call	_Unwind_Resume
 1119      00
 1120              	.LEHE25:
 1121              	.L51:
 1122 04cc 4889C7   		movq	%rax, %rdi
 1123 04cf E8000000 		call	__cxa_begin_catch
 1123      00
 1124              	.LEHB26:
 1125 04d4 E8000000 		call	_ZN8UnitTest11CurrentTest7DetailsEv
 1125      00
 1126 04d9 488B08   		movq	(%rax), %rcx
 1127 04dc 488D8590 		leaq	-2160(%rbp), %rax
 1127      F7FFFF
 1128 04e3 BA250000 		movl	$37, %edx
 1128      00
 1129 04e8 4889CE   		movq	%rcx, %rsi
 1130 04eb 4889C7   		movq	%rax, %rdi
 1131 04ee E8000000 		call	_ZN8UnitTest11TestDetailsC1ERKS0_i
 1131      00
 1132              		.loc 6 37 0 is_stmt 0 discriminator 11
 1133 04f3 E8000000 		call	_ZN8UnitTest11CurrentTest7ResultsEv
 1133      00
 1134 04f8 488B00   		movq	(%rax), %rax
 1135 04fb 488D8D90 		leaq	-2160(%rbp), %rcx
 1135      F7FFFF
 1136 0502 BA000000 		movl	$.LC12, %edx
 1136      00
 1137 0507 4889CE   		movq	%rcx, %rsi
 1138 050a 4889C7   		movq	%rax, %rdi
 1139 050d E8000000 		call	_ZN8UnitTest11TestResults13OnTestFailureERKNS_11TestDetailsEPKc
 1139      00
 1140              	.LEHE26:
 1141              	.LEHB27:
 1142              		.loc 6 37 0 discriminator 15
 1143 0512 E8000000 		call	__cxa_end_catch
 1143      00
 1144              	.LEHE27:
 1145              	.LBE16:
  38:TestCheckMacros.cpp **** }
 1146              		.loc 6 38 0 is_stmt 1 discriminator 15
 1147 0517 90       		nop
 1148              	.L37:
 1149              		.loc 6 38 0 is_stmt 0
 1150 0518 488B45E8 		movq	-24(%rbp), %rax
 1151 051c 64483304 		xorq	%fs:40, %rax
 1151      25280000 
 1151      00
 1152 0525 7405     		je	.L46
 1153 0527 E8000000 		call	__stack_chk_fail
 1153      00
 1154              	.L46:
 1155 052c 4881C4B8 		addq	$2232, %rsp
 1155      080000
 1156 0533 5B       		popq	%rbx
 1157 0534 5D       		popq	%rbp
 1158              		.cfi_def_cfa 7, 8
 1159 0535 C3       		ret
 1160              		.cfi_endproc
 1161              	.LFE1091:
 1162              		.section	.gcc_except_table
 1163              		.align 4
 1164              	.LLSDA1091:
 1165 0050 FF       		.byte	0xff
 1166 0051 03       		.byte	0x3
 1167 0052 4D       		.uleb128 .LLSDATT1091-.LLSDATTD1091
 1168              	.LLSDATTD1091:
 1169 0053 01       		.byte	0x1
 1170 0054 43       		.uleb128 .LLSDACSE1091-.LLSDACSB1091
 1171              	.LLSDACSB1091:
 1172 0055 4C       		.uleb128 .LEHB16-.LFB1091
 1173 0056 23       		.uleb128 .LEHE16-.LEHB16
 1174 0057 C003     		.uleb128 .L47-.LFB1091
 1175 0059 00       		.uleb128 0
 1176 005a 8001     		.uleb128 .LEHB17-.LFB1091
 1177 005c 3E       		.uleb128 .LEHE17-.LEHB17
 1178 005d DC02     		.uleb128 .L48-.LFB1091
 1179 005f 01       		.uleb128 0x1
 1180 0060 C801     		.uleb128 .LEHB18-.LFB1091
 1181 0062 05       		.uleb128 .LEHE18-.LEHB18
 1182 0063 AC03     		.uleb128 .L49-.LFB1091
 1183 0065 00       		.uleb128 0
 1184 0066 E201     		.uleb128 .LEHB19-.LFB1091
 1185 0068 05       		.uleb128 .LEHE19-.LEHB19
 1186 0069 C003     		.uleb128 .L47-.LFB1091
 1187 006b 00       		.uleb128 0
 1188 006c F101     		.uleb128 .LEHB20-.LFB1091
 1189 006e 05       		.uleb128 .LEHE20-.LEHB20
 1190 006f 00       		.uleb128 0
 1191 0070 00       		.uleb128 0
 1192 0071 8F02     		.uleb128 .LEHB21-.LFB1091
 1193 0073 3E       		.uleb128 .LEHE21-.LEHB21
 1194 0074 F003     		.uleb128 .L51-.LFB1091
 1195 0076 01       		.uleb128 0x1
 1196 0077 E402     		.uleb128 .LEHB22-.LFB1091
 1197 0079 3E       		.uleb128 .LEHE22-.LEHB22
 1198 007a D202     		.uleb128 .L50-.LFB1091
 1199 007c 00       		.uleb128 0
 1200 007d A203     		.uleb128 .LEHB23-.LFB1091
 1201 007f 05       		.uleb128 .LEHE23-.LEHB23
 1202 0080 AC03     		.uleb128 .L49-.LFB1091
 1203 0082 00       		.uleb128 0
 1204 0083 D803     		.uleb128 .LEHB24-.LFB1091
 1205 0085 05       		.uleb128 .LEHE24-.LEHB24
 1206 0086 00       		.uleb128 0
 1207 0087 00       		.uleb128 0
 1208 0088 EB03     		.uleb128 .LEHB25-.LFB1091
 1209 008a 05       		.uleb128 .LEHE25-.LEHB25
 1210 008b 00       		.uleb128 0
 1211 008c 00       		.uleb128 0
 1212 008d F803     		.uleb128 .LEHB26-.LFB1091
 1213 008f 3E       		.uleb128 .LEHE26-.LEHB26
 1214 0090 DD03     		.uleb128 .L52-.LFB1091
 1215 0092 00       		.uleb128 0
 1216 0093 B604     		.uleb128 .LEHB27-.LFB1091
 1217 0095 05       		.uleb128 .LEHE27-.LEHB27
 1218 0096 00       		.uleb128 0
 1219 0097 00       		.uleb128 0
 1220              	.LLSDACSE1091:
 1221 0098 01       		.byte	0x1
 1222 0099 00       		.byte	0
 1223 009a 0000     		.align 4
 1224 009c 00000000 		.long	0
 1225              	
 1226              	.LLSDATT1091:
 1227              		.text
 1229              		.section	.rodata
 1230              	.LC13:
 1231 0106 4661696C 		.string	"FailureReportsCorrectTestName"
 1231      75726552 
 1231      65706F72 
 1231      7473436F 
 1231      72726563 
 1232              		.text
 1233              		.align 2
 1235              	_ZN12_GLOBAL__N_133TestFailureReportsCorrectTestNameC2Ev:
 1236              	.LFB1093:
  39:TestCheckMacros.cpp **** 
  40:TestCheckMacros.cpp **** TEST(FailureReportsCorrectTestName)
 1237              		.loc 6 40 0 is_stmt 1
 1238              		.cfi_startproc
 1239 0536 55       		pushq	%rbp
 1240              		.cfi_def_cfa_offset 16
 1241              		.cfi_offset 6, -16
 1242 0537 4889E5   		movq	%rsp, %rbp
 1243              		.cfi_def_cfa_register 6
 1244 053a 4883EC10 		subq	$16, %rsp
 1245 053e 48897DF8 		movq	%rdi, -8(%rbp)
 1246              	.LBB19:
 1247              		.loc 6 40 0
 1248 0542 E8000000 		call	_ZN13UnitTestSuite12GetSuiteNameEv
 1248      00
 1249 0547 4889C2   		movq	%rax, %rdx
 1250 054a 488B45F8 		movq	-8(%rbp), %rax
 1251 054e 41B82800 		movl	$40, %r8d
 1251      0000
 1252 0554 B9000000 		movl	$.LC2, %ecx
 1252      00
 1253 0559 BE000000 		movl	$.LC13, %esi
 1253      00
 1254 055e 4889C7   		movq	%rax, %rdi
 1255 0561 E8000000 		call	_ZN8UnitTest4TestC2EPKcS2_S2_i
 1255      00
 1256 0566 488B45F8 		movq	-8(%rbp), %rax
 1257 056a 48C70000 		movq	$_ZTVN12_GLOBAL__N_133TestFailureReportsCorrectTestNameE+16, (%rax)
 1257      000000
 1258              	.LBE19:
 1259 0571 C9       		leave
 1260              		.cfi_def_cfa 7, 8
 1261 0572 C3       		ret
 1262              		.cfi_endproc
 1263              	.LFE1093:
 1265              		.local	_ZN12_GLOBAL__N_141testFailureReportsCorrectTestNameInstanceE
 1266              		.comm	_ZN12_GLOBAL__N_141testFailureReportsCorrectTestNameInstanceE,56,32
 1267              		.local	_ZN12_GLOBAL__N_134adderFailureReportsCorrectTestNameE
 1268              		.comm	_ZN12_GLOBAL__N_134adderFailureReportsCorrectTestNameE,1,1
 1269              		.section	.rodata
 1270 0124 00000000 		.align 8
 1271              	.LC14:
 1272 0128 556E6861 		.string	"Unhandled exception in CHECK_EQUAL(m_details.testName, reporter.lastFailedTest)"
 1272      6E646C65 
 1272      64206578 
 1272      63657074 
 1272      696F6E20 
 1273              		.text
 1274 0573 90       		.align 2
 1276              	_ZNK12_GLOBAL__N_133TestFailureReportsCorrectTestName7RunImplEv:
 1277              	.LFB1095:
  41:TestCheckMacros.cpp **** {
 1278              		.loc 6 41 0
 1279              		.cfi_startproc
 1280              		.cfi_personality 0x3,__gxx_personality_v0
 1281              		.cfi_lsda 0x3,.LLSDA1095
 1282 0574 55       		pushq	%rbp
 1283              		.cfi_def_cfa_offset 16
 1284              		.cfi_offset 6, -16
 1285 0575 4889E5   		movq	%rsp, %rbp
 1286              		.cfi_def_cfa_register 6
 1287 0578 53       		pushq	%rbx
 1288 0579 4881ECA8 		subq	$2216, %rsp
 1288      080000
 1289              		.cfi_offset 3, -24
 1290 0580 4889BD58 		movq	%rdi, -2216(%rbp)
 1290      F7FFFF
 1291              		.loc 6 41 0
 1292 0587 64488B04 		movq	%fs:40, %rax
 1292      25280000 
 1292      00
 1293 0590 488945E8 		movq	%rax, -24(%rbp)
 1294 0594 31C0     		xorl	%eax, %eax
 1295              	.LBB20:
  42:TestCheckMacros.cpp ****     RecordingReporter reporter;
 1296              		.loc 6 42 0
 1297 0596 488D85B0 		leaq	-2128(%rbp), %rax
 1297      F7FFFF
 1298 059d 4889C7   		movq	%rax, %rdi
 1299 05a0 E8000000 		call	_ZN17RecordingReporterC1Ev
 1299      00
 1300              	.LBB21:
  43:TestCheckMacros.cpp ****     {
  44:TestCheckMacros.cpp ****         UnitTest::TestResults testResults(&reporter);
 1301              		.loc 6 44 0
 1302 05a5 488D95B0 		leaq	-2128(%rbp), %rdx
 1302      F7FFFF
 1303 05ac 488D8570 		leaq	-2192(%rbp), %rax
 1303      F7FFFF
 1304 05b3 4889D6   		movq	%rdx, %rsi
 1305 05b6 4889C7   		movq	%rax, %rdi
 1306              	.LEHB28:
 1307 05b9 E8000000 		call	_ZN8UnitTest11TestResultsC1EPNS_12TestReporterE
 1307      00
  45:TestCheckMacros.cpp **** 		ScopedCurrentTest scopedResults(testResults);
 1308              		.loc 6 45 0
 1309 05be 488D8D70 		leaq	-2192(%rbp), %rcx
 1309      F7FFFF
 1310 05c5 488D8560 		leaq	-2208(%rbp), %rax
 1310      F7FFFF
 1311 05cc BA000000 		movl	$0, %edx
 1311      00
 1312 05d1 4889CE   		movq	%rcx, %rsi
 1313 05d4 4889C7   		movq	%rax, %rdi
 1314 05d7 E8000000 		call	_ZN17ScopedCurrentTestC1ERN8UnitTest11TestResultsEPKNS0_11TestDetailsE
 1314      00
 1315              	.LEHE28:
  46:TestCheckMacros.cpp ****         CHECK(false);
 1316              		.loc 6 46 0
 1317 05dc BF000000 		movl	$0, %edi
 1317      00
 1318 05e1 E8000000 		call	_ZN8UnitTest5CheckIbEEbT_
 1318      00
 1319 05e6 83F001   		xorl	$1, %eax
 1320 05e9 84C0     		testb	%al, %al
 1321 05eb 743E     		je	.L55
 1322              	.LEHB29:
 1323              		.loc 6 46 0 is_stmt 0 discriminator 1
 1324 05ed E8000000 		call	_ZN8UnitTest11CurrentTest7DetailsEv
 1324      00
 1325 05f2 488B08   		movq	(%rax), %rcx
 1326 05f5 488D8590 		leaq	-2160(%rbp), %rax
 1326      F7FFFF
 1327 05fc BA2E0000 		movl	$46, %edx
 1327      00
 1328 0601 4889CE   		movq	%rcx, %rsi
 1329 0604 4889C7   		movq	%rax, %rdi
 1330 0607 E8000000 		call	_ZN8UnitTest11TestDetailsC1ERKS0_i
 1330      00
 1331              		.loc 6 46 0 discriminator 4
 1332 060c E8000000 		call	_ZN8UnitTest11CurrentTest7ResultsEv
 1332      00
 1333 0611 488B00   		movq	(%rax), %rax
 1334 0614 488D8D90 		leaq	-2160(%rbp), %rcx
 1334      F7FFFF
 1335 061b BA000000 		movl	$.LC9, %edx
 1335      00
 1336 0620 4889CE   		movq	%rcx, %rsi
 1337 0623 4889C7   		movq	%rax, %rdi
 1338 0626 E8000000 		call	_ZN8UnitTest11TestResults13OnTestFailureERKNS_11TestDetailsEPKc
 1338      00
 1339              	.LEHE29:
 1340              	.L55:
 1341              		.loc 6 46 0 discriminator 9
 1342 062b 488D8560 		leaq	-2208(%rbp), %rax
 1342      F7FFFF
 1343 0632 4889C7   		movq	%rax, %rdi
 1344              	.LEHB30:
 1345 0635 E8000000 		call	_ZN17ScopedCurrentTestD1Ev
 1345      00
 1346              	.LEHE30:
 1347              	.LEHB31:
 1348              	.LBE21:
  47:TestCheckMacros.cpp ****     }
  48:TestCheckMacros.cpp **** 
  49:TestCheckMacros.cpp ****     CHECK_EQUAL(m_details.testName, reporter.lastFailedTest);
 1349              		.loc 6 49 0 is_stmt 1
 1350 063a E8000000 		call	_ZN8UnitTest11CurrentTest7DetailsEv
 1350      00
 1351 063f 488B08   		movq	(%rax), %rcx
 1352 0642 488D8590 		leaq	-2160(%rbp), %rax
 1352      F7FFFF
 1353 0649 BA310000 		movl	$49, %edx
 1353      00
 1354 064e 4889CE   		movq	%rcx, %rsi
 1355 0651 4889C7   		movq	%rax, %rdi
 1356 0654 E8000000 		call	_ZN8UnitTest11TestDetailsC1ERKS0_i
 1356      00
 1357              		.loc 6 49 0 is_stmt 0 discriminator 2
 1358 0659 488B8558 		movq	-2216(%rbp), %rax
 1358      F7FFFF
 1359 0660 488B5810 		movq	16(%rax), %rbx
 1360 0664 E8000000 		call	_ZN8UnitTest11CurrentTest7ResultsEv
 1360      00
 1361 0669 488B00   		movq	(%rax), %rax
 1362 066c 488D9590 		leaq	-2160(%rbp), %rdx
 1362      F7FFFF
 1363 0673 488D8DB0 		leaq	-2128(%rbp), %rcx
 1363      F7FFFF
 1364 067a 488DB114 		leaq	1044(%rcx), %rsi
 1364      040000
 1365 0681 4889D1   		movq	%rdx, %rcx
 1366 0684 4889F2   		movq	%rsi, %rdx
 1367 0687 4889DE   		movq	%rbx, %rsi
 1368 068a 4889C7   		movq	%rax, %rdi
 1369 068d E8000000 		call	_ZN8UnitTest10CheckEqualERNS_11TestResultsEPKcPcRKNS_11TestDetailsE
 1369      00
 1370              	.LEHE31:
 1371              	.L62:
 1372              		.loc 6 49 0 discriminator 7
 1373 0692 488D85B0 		leaq	-2128(%rbp), %rax
 1373      F7FFFF
 1374 0699 4889C7   		movq	%rax, %rdi
 1375              	.LEHB32:
 1376 069c E8000000 		call	_ZN17RecordingReporterD1Ev
 1376      00
 1377              	.LEHE32:
 1378              	.LBE20:
  50:TestCheckMacros.cpp **** }
 1379              		.loc 6 50 0 is_stmt 1 discriminator 7
 1380 06a1 488B45E8 		movq	-24(%rbp), %rax
 1381 06a5 64483304 		xorq	%fs:40, %rax
 1381      25280000 
 1381      00
 1382 06ae 0F84EF00 		je	.L63
 1382      0000
 1383 06b4 E9E50000 		jmp	.L70
 1383      00
 1384              	.L66:
 1385 06b9 4889C3   		movq	%rax, %rbx
 1386              	.LBB23:
 1387              	.LBB22:
  46:TestCheckMacros.cpp ****         CHECK(false);
 1388              		.loc 6 46 0
 1389 06bc E8000000 		call	__cxa_end_catch
 1389      00
 1390 06c1 EB53     		jmp	.L57
 1391              	.L64:
 1392 06c3 4889C7   		movq	%rax, %rdi
 1393 06c6 E8000000 		call	__cxa_begin_catch
 1393      00
 1394              	.LEHB33:
 1395 06cb E8000000 		call	_ZN8UnitTest11CurrentTest7DetailsEv
 1395      00
 1396 06d0 488B08   		movq	(%rax), %rcx
 1397 06d3 488D8590 		leaq	-2160(%rbp), %rax
 1397      F7FFFF
 1398 06da BA2E0000 		movl	$46, %edx
 1398      00
 1399 06df 4889CE   		movq	%rcx, %rsi
 1400 06e2 4889C7   		movq	%rax, %rdi
 1401 06e5 E8000000 		call	_ZN8UnitTest11TestDetailsC1ERKS0_i
 1401      00
  46:TestCheckMacros.cpp ****         CHECK(false);
 1402              		.loc 6 46 0 is_stmt 0 discriminator 13
 1403 06ea E8000000 		call	_ZN8UnitTest11CurrentTest7ResultsEv
 1403      00
 1404 06ef 488B00   		movq	(%rax), %rax
 1405 06f2 488D8D90 		leaq	-2160(%rbp), %rcx
 1405      F7FFFF
 1406 06f9 BA000000 		movl	$.LC11, %edx
 1406      00
 1407 06fe 4889CE   		movq	%rcx, %rsi
 1408 0701 4889C7   		movq	%rax, %rdi
 1409 0704 E8000000 		call	_ZN8UnitTest11TestResults13OnTestFailureERKNS_11TestDetailsEPKc
 1409      00
 1410              	.LEHE33:
 1411              	.LEHB34:
  46:TestCheckMacros.cpp ****         CHECK(false);
 1412              		.loc 6 46 0 discriminator 17
 1413 0709 E8000000 		call	__cxa_end_catch
 1413      00
 1414              	.LEHE34:
  46:TestCheckMacros.cpp ****         CHECK(false);
 1415              		.loc 6 46 0
 1416 070e E918FFFF 		jmp	.L55
 1416      FF
 1417              	.L65:
 1418 0713 4889C3   		movq	%rax, %rbx
 1419              	.L57:
  46:TestCheckMacros.cpp ****         CHECK(false);
 1420              		.loc 6 46 0 discriminator 18
 1421 0716 488D8560 		leaq	-2208(%rbp), %rax
 1421      F7FFFF
 1422 071d 4889C7   		movq	%rax, %rdi
 1423 0720 E8000000 		call	_ZN17ScopedCurrentTestD1Ev
 1423      00
 1424 0725 EB5D     		jmp	.L59
 1425              	.L69:
 1426 0727 4889C3   		movq	%rax, %rbx
 1427              	.LBE22:
  49:TestCheckMacros.cpp **** }
 1428              		.loc 6 49 0 is_stmt 1
 1429 072a E8000000 		call	__cxa_end_catch
 1429      00
 1430 072f EB53     		jmp	.L59
 1431              	.L68:
 1432 0731 4889C7   		movq	%rax, %rdi
 1433 0734 E8000000 		call	__cxa_begin_catch
 1433      00
 1434              	.LEHB35:
 1435 0739 E8000000 		call	_ZN8UnitTest11CurrentTest7DetailsEv
 1435      00
 1436 073e 488B08   		movq	(%rax), %rcx
 1437 0741 488D8590 		leaq	-2160(%rbp), %rax
 1437      F7FFFF
 1438 0748 BA310000 		movl	$49, %edx
 1438      00
 1439 074d 4889CE   		movq	%rcx, %rsi
 1440 0750 4889C7   		movq	%rax, %rdi
 1441 0753 E8000000 		call	_ZN8UnitTest11TestDetailsC1ERKS0_i
 1441      00
  49:TestCheckMacros.cpp **** }
 1442              		.loc 6 49 0 is_stmt 0 discriminator 11
 1443 0758 E8000000 		call	_ZN8UnitTest11CurrentTest7ResultsEv
 1443      00
 1444 075d 488B00   		movq	(%rax), %rax
 1445 0760 488D8D90 		leaq	-2160(%rbp), %rcx
 1445      F7FFFF
 1446 0767 BA000000 		movl	$.LC14, %edx
 1446      00
 1447 076c 4889CE   		movq	%rcx, %rsi
 1448 076f 4889C7   		movq	%rax, %rdi
 1449 0772 E8000000 		call	_ZN8UnitTest11TestResults13OnTestFailureERKNS_11TestDetailsEPKc
 1449      00
 1450              	.LEHE35:
 1451              	.LEHB36:
  49:TestCheckMacros.cpp **** }
 1452              		.loc 6 49 0 discriminator 15
 1453 0777 E8000000 		call	__cxa_end_catch
 1453      00
 1454              	.LEHE36:
  49:TestCheckMacros.cpp **** }
 1455              		.loc 6 49 0
 1456 077c E911FFFF 		jmp	.L62
 1456      FF
 1457              	.L67:
 1458 0781 4889C3   		movq	%rax, %rbx
 1459              	.L59:
  49:TestCheckMacros.cpp **** }
 1460              		.loc 6 49 0 discriminator 16
 1461 0784 488D85B0 		leaq	-2128(%rbp), %rax
 1461      F7FFFF
 1462 078b 4889C7   		movq	%rax, %rdi
 1463 078e E8000000 		call	_ZN17RecordingReporterD1Ev
 1463      00
 1464 0793 4889D8   		movq	%rbx, %rax
 1465 0796 4889C7   		movq	%rax, %rdi
 1466              	.LEHB37:
 1467 0799 E8000000 		call	_Unwind_Resume
 1467      00
 1468              	.LEHE37:
 1469              	.L70:
 1470              	.LBE23:
 1471              		.loc 6 50 0 is_stmt 1
 1472 079e E8000000 		call	__stack_chk_fail
 1472      00
 1473              	.L63:
 1474 07a3 4881C4A8 		addq	$2216, %rsp
 1474      080000
 1475 07aa 5B       		popq	%rbx
 1476 07ab 5D       		popq	%rbp
 1477              		.cfi_def_cfa 7, 8
 1478 07ac C3       		ret
 1479              		.cfi_endproc
 1480              	.LFE1095:
 1481              		.section	.gcc_except_table
 1482              		.align 4
 1483              	.LLSDA1095:
 1484 00a0 FF       		.byte	0xff
 1485 00a1 03       		.byte	0x3
 1486 00a2 41       		.uleb128 .LLSDATT1095-.LLSDATTD1095
 1487              	.LLSDATTD1095:
 1488 00a3 01       		.byte	0x1
 1489 00a4 38       		.uleb128 .LLSDACSE1095-.LLSDACSB1095
 1490              	.LLSDACSB1095:
 1491 00a5 45       		.uleb128 .LEHB28-.LFB1095
 1492 00a6 23       		.uleb128 .LEHE28-.LEHB28
 1493 00a7 8D04     		.uleb128 .L67-.LFB1095
 1494 00a9 00       		.uleb128 0
 1495 00aa 79       		.uleb128 .LEHB29-.LFB1095
 1496 00ab 3E       		.uleb128 .LEHE29-.LEHB29
 1497 00ac CF02     		.uleb128 .L64-.LFB1095
 1498 00ae 01       		.uleb128 0x1
 1499 00af C101     		.uleb128 .LEHB30-.LFB1095
 1500 00b1 05       		.uleb128 .LEHE30-.LEHB30
 1501 00b2 8D04     		.uleb128 .L67-.LFB1095
 1502 00b4 00       		.uleb128 0
 1503 00b5 C601     		.uleb128 .LEHB31-.LFB1095
 1504 00b7 58       		.uleb128 .LEHE31-.LEHB31
 1505 00b8 BD03     		.uleb128 .L68-.LFB1095
 1506 00ba 01       		.uleb128 0x1
 1507 00bb A802     		.uleb128 .LEHB32-.LFB1095
 1508 00bd 05       		.uleb128 .LEHE32-.LEHB32
 1509 00be 00       		.uleb128 0
 1510 00bf 00       		.uleb128 0
 1511 00c0 D702     		.uleb128 .LEHB33-.LFB1095
 1512 00c2 3E       		.uleb128 .LEHE33-.LEHB33
 1513 00c3 C502     		.uleb128 .L66-.LFB1095
 1514 00c5 00       		.uleb128 0
 1515 00c6 9503     		.uleb128 .LEHB34-.LFB1095
 1516 00c8 05       		.uleb128 .LEHE34-.LEHB34
 1517 00c9 9F03     		.uleb128 .L65-.LFB1095
 1518 00cb 00       		.uleb128 0
 1519 00cc C503     		.uleb128 .LEHB35-.LFB1095
 1520 00ce 3E       		.uleb128 .LEHE35-.LEHB35
 1521 00cf B303     		.uleb128 .L69-.LFB1095
 1522 00d1 00       		.uleb128 0
 1523 00d2 8304     		.uleb128 .LEHB36-.LFB1095
 1524 00d4 05       		.uleb128 .LEHE36-.LEHB36
 1525 00d5 8D04     		.uleb128 .L67-.LFB1095
 1526 00d7 00       		.uleb128 0
 1527 00d8 A504     		.uleb128 .LEHB37-.LFB1095
 1528 00da 05       		.uleb128 .LEHE37-.LEHB37
 1529 00db 00       		.uleb128 0
 1530 00dc 00       		.uleb128 0
 1531              	.LLSDACSE1095:
 1532 00dd 01       		.byte	0x1
 1533 00de 00       		.byte	0
 1534 00df 00       		.align 4
 1535 00e0 00000000 		.long	0
 1536              	
 1537              	.LLSDATT1095:
 1538              		.text
 1540              		.section	.rodata
 1541              		.align 8
 1542              	.LC15:
 1543 0178 43686563 		.string	"CheckFailureIncludesCheckContents"
 1543      6B466169 
 1543      6C757265 
 1543      496E636C 
 1543      75646573 
 1544              		.text
 1545 07ad 90       		.align 2
 1547              	_ZN12_GLOBAL__N_137TestCheckFailureIncludesCheckContentsC2Ev:
 1548              	.LFB1097:
  51:TestCheckMacros.cpp **** 
  52:TestCheckMacros.cpp **** TEST(CheckFailureIncludesCheckContents)
 1549              		.loc 6 52 0
 1550              		.cfi_startproc
 1551 07ae 55       		pushq	%rbp
 1552              		.cfi_def_cfa_offset 16
 1553              		.cfi_offset 6, -16
 1554 07af 4889E5   		movq	%rsp, %rbp
 1555              		.cfi_def_cfa_register 6
 1556 07b2 4883EC10 		subq	$16, %rsp
 1557 07b6 48897DF8 		movq	%rdi, -8(%rbp)
 1558              	.LBB24:
 1559              		.loc 6 52 0
 1560 07ba E8000000 		call	_ZN13UnitTestSuite12GetSuiteNameEv
 1560      00
 1561 07bf 4889C2   		movq	%rax, %rdx
 1562 07c2 488B45F8 		movq	-8(%rbp), %rax
 1563 07c6 41B83400 		movl	$52, %r8d
 1563      0000
 1564 07cc B9000000 		movl	$.LC2, %ecx
 1564      00
 1565 07d1 BE000000 		movl	$.LC15, %esi
 1565      00
 1566 07d6 4889C7   		movq	%rax, %rdi
 1567 07d9 E8000000 		call	_ZN8UnitTest4TestC2EPKcS2_S2_i
 1567      00
 1568 07de 488B45F8 		movq	-8(%rbp), %rax
 1569 07e2 48C70000 		movq	$_ZTVN12_GLOBAL__N_137TestCheckFailureIncludesCheckContentsE+16, (%rax)
 1569      000000
 1570              	.LBE24:
 1571 07e9 C9       		leave
 1572              		.cfi_def_cfa 7, 8
 1573 07ea C3       		ret
 1574              		.cfi_endproc
 1575              	.LFE1097:
 1577              		.local	_ZN12_GLOBAL__N_145testCheckFailureIncludesCheckContentsInstanceE
 1578              		.comm	_ZN12_GLOBAL__N_145testCheckFailureIncludesCheckContentsInstanceE,56,32
 1579              		.local	_ZN12_GLOBAL__N_138adderCheckFailureIncludesCheckContentsE
 1580              		.comm	_ZN12_GLOBAL__N_138adderCheckFailureIncludesCheckContentsE,1,1
 1581              		.section	.rodata
 1582              	.LC16:
 1583 019a 79616464 		.string	"yaddayadda"
 1583      61796164 
 1583      646100
 1584 01a5 000000   		.align 8
 1585              	.LC17:
 1586 01a8 73747273 		.string	"strstr(reporter.lastFailedMessage, \"yaddayadda\")"
 1586      74722872 
 1586      65706F72 
 1586      7465722E 
 1586      6C617374 
 1587 01d9 00000000 		.align 8
 1587      000000
 1588              	.LC18:
 1589 01e0 556E6861 		.string	"Unhandled exception in CHECK(yaddayadda)"
 1589      6E646C65 
 1589      64206578 
 1589      63657074 
 1589      696F6E20 
 1590 0209 00000000 		.align 8
 1590      000000
 1591              	.LC19:
 1592 0210 556E6861 		.string	"Unhandled exception in CHECK(strstr(reporter.lastFailedMessage, \"yaddayadda\"))"
 1592      6E646C65 
 1592      64206578 
 1592      63657074 
 1592      696F6E20 
 1593              		.text
 1594 07eb 90       		.align 2
 1596              	_ZNK12_GLOBAL__N_137TestCheckFailureIncludesCheckContents7RunImplEv:
 1597              	.LFB1099:
  53:TestCheckMacros.cpp **** {
 1598              		.loc 6 53 0
 1599              		.cfi_startproc
 1600              		.cfi_personality 0x3,__gxx_personality_v0
 1601              		.cfi_lsda 0x3,.LLSDA1099
 1602 07ec 55       		pushq	%rbp
 1603              		.cfi_def_cfa_offset 16
 1604              		.cfi_offset 6, -16
 1605 07ed 4889E5   		movq	%rsp, %rbp
 1606              		.cfi_def_cfa_register 6
 1607 07f0 53       		pushq	%rbx
 1608 07f1 4881ECB8 		subq	$2232, %rsp
 1608      080000
 1609              		.cfi_offset 3, -24
 1610 07f8 4889BD48 		movq	%rdi, -2232(%rbp)
 1610      F7FFFF
 1611              		.loc 6 53 0
 1612 07ff 64488B04 		movq	%fs:40, %rax
 1612      25280000 
 1612      00
 1613 0808 488945E8 		movq	%rax, -24(%rbp)
 1614 080c 31C0     		xorl	%eax, %eax
 1615              	.LBB25:
  54:TestCheckMacros.cpp ****     RecordingReporter reporter;
 1616              		.loc 6 54 0
 1617 080e 488D85B0 		leaq	-2128(%rbp), %rax
 1617      F7FFFF
 1618 0815 4889C7   		movq	%rax, %rdi
 1619 0818 E8000000 		call	_ZN17RecordingReporterC1Ev
 1619      00
 1620              	.LBB26:
  55:TestCheckMacros.cpp ****     {
  56:TestCheckMacros.cpp ****         UnitTest::TestResults testResults(&reporter);
 1621              		.loc 6 56 0
 1622 081d 488D95B0 		leaq	-2128(%rbp), %rdx
 1622      F7FFFF
 1623 0824 488D8570 		leaq	-2192(%rbp), %rax
 1623      F7FFFF
 1624 082b 4889D6   		movq	%rdx, %rsi
 1625 082e 4889C7   		movq	%rax, %rdi
 1626              	.LEHB38:
 1627 0831 E8000000 		call	_ZN8UnitTest11TestResultsC1EPNS_12TestReporterE
 1627      00
  57:TestCheckMacros.cpp **** 		ScopedCurrentTest scopedResults(testResults);
 1628              		.loc 6 57 0
 1629 0836 488D8D70 		leaq	-2192(%rbp), %rcx
 1629      F7FFFF
 1630 083d 488D8560 		leaq	-2208(%rbp), %rax
 1630      F7FFFF
 1631 0844 BA000000 		movl	$0, %edx
 1631      00
 1632 0849 4889CE   		movq	%rcx, %rsi
 1633 084c 4889C7   		movq	%rax, %rdi
 1634 084f E8000000 		call	_ZN17ScopedCurrentTestC1ERN8UnitTest11TestResultsEPKNS0_11TestDetailsE
 1634      00
 1635              	.LEHE38:
  58:TestCheckMacros.cpp ****         const bool yaddayadda = false;
 1636              		.loc 6 58 0
 1637 0854 C6855FF7 		movb	$0, -2209(%rbp)
 1637      FFFF00
  59:TestCheckMacros.cpp ****         CHECK(yaddayadda);
 1638              		.loc 6 59 0
 1639 085b BF000000 		movl	$0, %edi
 1639      00
 1640 0860 E8000000 		call	_ZN8UnitTest5CheckIbEEbT_
 1640      00
 1641 0865 83F001   		xorl	$1, %eax
 1642 0868 84C0     		testb	%al, %al
 1643 086a 743E     		je	.L73
 1644              	.LEHB39:
 1645              		.loc 6 59 0 is_stmt 0 discriminator 1
 1646 086c E8000000 		call	_ZN8UnitTest11CurrentTest7DetailsEv
 1646      00
 1647 0871 488B08   		movq	(%rax), %rcx
 1648 0874 488D8590 		leaq	-2160(%rbp), %rax
 1648      F7FFFF
 1649 087b BA3B0000 		movl	$59, %edx
 1649      00
 1650 0880 4889CE   		movq	%rcx, %rsi
 1651 0883 4889C7   		movq	%rax, %rdi
 1652 0886 E8000000 		call	_ZN8UnitTest11TestDetailsC1ERKS0_i
 1652      00
 1653              		.loc 6 59 0 discriminator 4
 1654 088b E8000000 		call	_ZN8UnitTest11CurrentTest7ResultsEv
 1654      00
 1655 0890 488B00   		movq	(%rax), %rax
 1656 0893 488D8D90 		leaq	-2160(%rbp), %rcx
 1656      F7FFFF
 1657 089a BA000000 		movl	$.LC16, %edx
 1657      00
 1658 089f 4889CE   		movq	%rcx, %rsi
 1659 08a2 4889C7   		movq	%rax, %rdi
 1660 08a5 E8000000 		call	_ZN8UnitTest11TestResults13OnTestFailureERKNS_11TestDetailsEPKc
 1660      00
 1661              	.LEHE39:
 1662              	.L73:
 1663              		.loc 6 59 0 discriminator 9
 1664 08aa 488D8560 		leaq	-2208(%rbp), %rax
 1664      F7FFFF
 1665 08b1 4889C7   		movq	%rax, %rdi
 1666              	.LEHB40:
 1667 08b4 E8000000 		call	_ZN17ScopedCurrentTestD1Ev
 1667      00
 1668              	.LEHE40:
 1669              	.LBE26:
  60:TestCheckMacros.cpp ****     }
  61:TestCheckMacros.cpp **** 
  62:TestCheckMacros.cpp ****     CHECK(strstr(reporter.lastFailedMessage, "yaddayadda"));
 1670              		.loc 6 62 0 is_stmt 1
 1671 08b9 488D85B0 		leaq	-2128(%rbp), %rax
 1671      F7FFFF
 1672 08c0 48051405 		addq	$1300, %rax
 1672      0000
 1673 08c6 BE000000 		movl	$.LC16, %esi
 1673      00
 1674 08cb 4889C7   		movq	%rax, %rdi
 1675 08ce E8000000 		call	strstr
 1675      00
 1676 08d3 4889C7   		movq	%rax, %rdi
 1677 08d6 E8000000 		call	_ZN8UnitTest5CheckIPcEEbT_
 1677      00
 1678 08db 83F001   		xorl	$1, %eax
 1679 08de 84C0     		testb	%al, %al
 1680 08e0 743E     		je	.L74
 1681              	.LEHB41:
 1682              		.loc 6 62 0 is_stmt 0 discriminator 1
 1683 08e2 E8000000 		call	_ZN8UnitTest11CurrentTest7DetailsEv
 1683      00
 1684 08e7 488B08   		movq	(%rax), %rcx
 1685 08ea 488D8590 		leaq	-2160(%rbp), %rax
 1685      F7FFFF
 1686 08f1 BA3E0000 		movl	$62, %edx
 1686      00
 1687 08f6 4889CE   		movq	%rcx, %rsi
 1688 08f9 4889C7   		movq	%rax, %rdi
 1689 08fc E8000000 		call	_ZN8UnitTest11TestDetailsC1ERKS0_i
 1689      00
 1690              		.loc 6 62 0 discriminator 4
 1691 0901 E8000000 		call	_ZN8UnitTest11CurrentTest7ResultsEv
 1691      00
 1692 0906 488B00   		movq	(%rax), %rax
 1693 0909 488D8D90 		leaq	-2160(%rbp), %rcx
 1693      F7FFFF
 1694 0910 BA000000 		movl	$.LC17, %edx
 1694      00
 1695 0915 4889CE   		movq	%rcx, %rsi
 1696 0918 4889C7   		movq	%rax, %rdi
 1697 091b E8000000 		call	_ZN8UnitTest11TestResults13OnTestFailureERKNS_11TestDetailsEPKc
 1697      00
 1698              	.LEHE41:
 1699              	.L74:
 1700              		.loc 6 62 0 discriminator 9
 1701 0920 488D85B0 		leaq	-2128(%rbp), %rax
 1701      F7FFFF
 1702 0927 4889C7   		movq	%rax, %rdi
 1703              	.LEHB42:
 1704 092a E8000000 		call	_ZN17RecordingReporterD1Ev
 1704      00
 1705              	.LEHE42:
 1706              	.LBE25:
  63:TestCheckMacros.cpp **** }
 1707              		.loc 6 63 0 is_stmt 1 discriminator 9
 1708 092f 488B45E8 		movq	-24(%rbp), %rax
 1709 0933 64483304 		xorq	%fs:40, %rax
 1709      25280000 
 1709      00
 1710 093c 0F84EF00 		je	.L81
 1710      0000
 1711 0942 E9E50000 		jmp	.L88
 1711      00
 1712              	.L84:
 1713 0947 4889C3   		movq	%rax, %rbx
 1714              	.LBB28:
 1715              	.LBB27:
  59:TestCheckMacros.cpp ****         CHECK(yaddayadda);
 1716              		.loc 6 59 0
 1717 094a E8000000 		call	__cxa_end_catch
 1717      00
 1718 094f EB53     		jmp	.L76
 1719              	.L82:
 1720 0951 4889C7   		movq	%rax, %rdi
 1721 0954 E8000000 		call	__cxa_begin_catch
 1721      00
 1722              	.LEHB43:
 1723 0959 E8000000 		call	_ZN8UnitTest11CurrentTest7DetailsEv
 1723      00
 1724 095e 488B08   		movq	(%rax), %rcx
 1725 0961 488D8590 		leaq	-2160(%rbp), %rax
 1725      F7FFFF
 1726 0968 BA3B0000 		movl	$59, %edx
 1726      00
 1727 096d 4889CE   		movq	%rcx, %rsi
 1728 0970 4889C7   		movq	%rax, %rdi
 1729 0973 E8000000 		call	_ZN8UnitTest11TestDetailsC1ERKS0_i
 1729      00
  59:TestCheckMacros.cpp ****         CHECK(yaddayadda);
 1730              		.loc 6 59 0 is_stmt 0 discriminator 13
 1731 0978 E8000000 		call	_ZN8UnitTest11CurrentTest7ResultsEv
 1731      00
 1732 097d 488B00   		movq	(%rax), %rax
 1733 0980 488D8D90 		leaq	-2160(%rbp), %rcx
 1733      F7FFFF
 1734 0987 BA000000 		movl	$.LC18, %edx
 1734      00
 1735 098c 4889CE   		movq	%rcx, %rsi
 1736 098f 4889C7   		movq	%rax, %rdi
 1737 0992 E8000000 		call	_ZN8UnitTest11TestResults13OnTestFailureERKNS_11TestDetailsEPKc
 1737      00
 1738              	.LEHE43:
 1739              	.LEHB44:
  59:TestCheckMacros.cpp ****         CHECK(yaddayadda);
 1740              		.loc 6 59 0 discriminator 17
 1741 0997 E8000000 		call	__cxa_end_catch
 1741      00
 1742              	.LEHE44:
  59:TestCheckMacros.cpp ****         CHECK(yaddayadda);
 1743              		.loc 6 59 0
 1744 099c E909FFFF 		jmp	.L73
 1744      FF
 1745              	.L83:
 1746 09a1 4889C3   		movq	%rax, %rbx
 1747              	.L76:
  59:TestCheckMacros.cpp ****         CHECK(yaddayadda);
 1748              		.loc 6 59 0 discriminator 18
 1749 09a4 488D8560 		leaq	-2208(%rbp), %rax
 1749      F7FFFF
 1750 09ab 4889C7   		movq	%rax, %rdi
 1751 09ae E8000000 		call	_ZN17ScopedCurrentTestD1Ev
 1751      00
 1752 09b3 EB5D     		jmp	.L78
 1753              	.L87:
 1754 09b5 4889C3   		movq	%rax, %rbx
 1755              	.LBE27:
  62:TestCheckMacros.cpp **** }
 1756              		.loc 6 62 0 is_stmt 1
 1757 09b8 E8000000 		call	__cxa_end_catch
 1757      00
 1758 09bd EB53     		jmp	.L78
 1759              	.L86:
 1760 09bf 4889C7   		movq	%rax, %rdi
 1761 09c2 E8000000 		call	__cxa_begin_catch
 1761      00
 1762              	.LEHB45:
 1763 09c7 E8000000 		call	_ZN8UnitTest11CurrentTest7DetailsEv
 1763      00
 1764 09cc 488B08   		movq	(%rax), %rcx
 1765 09cf 488D8590 		leaq	-2160(%rbp), %rax
 1765      F7FFFF
 1766 09d6 BA3E0000 		movl	$62, %edx
 1766      00
 1767 09db 4889CE   		movq	%rcx, %rsi
 1768 09de 4889C7   		movq	%rax, %rdi
 1769 09e1 E8000000 		call	_ZN8UnitTest11TestDetailsC1ERKS0_i
 1769      00
  62:TestCheckMacros.cpp **** }
 1770              		.loc 6 62 0 is_stmt 0 discriminator 13
 1771 09e6 E8000000 		call	_ZN8UnitTest11CurrentTest7ResultsEv
 1771      00
 1772 09eb 488B00   		movq	(%rax), %rax
 1773 09ee 488D8D90 		leaq	-2160(%rbp), %rcx
 1773      F7FFFF
 1774 09f5 BA000000 		movl	$.LC19, %edx
 1774      00
 1775 09fa 4889CE   		movq	%rcx, %rsi
 1776 09fd 4889C7   		movq	%rax, %rdi
 1777 0a00 E8000000 		call	_ZN8UnitTest11TestResults13OnTestFailureERKNS_11TestDetailsEPKc
 1777      00
 1778              	.LEHE45:
 1779              	.LEHB46:
  62:TestCheckMacros.cpp **** }
 1780              		.loc 6 62 0 discriminator 17
 1781 0a05 E8000000 		call	__cxa_end_catch
 1781      00
 1782              	.LEHE46:
  62:TestCheckMacros.cpp **** }
 1783              		.loc 6 62 0
 1784 0a0a E911FFFF 		jmp	.L74
 1784      FF
 1785              	.L85:
 1786 0a0f 4889C3   		movq	%rax, %rbx
 1787              	.L78:
  62:TestCheckMacros.cpp **** }
 1788              		.loc 6 62 0 discriminator 18
 1789 0a12 488D85B0 		leaq	-2128(%rbp), %rax
 1789      F7FFFF
 1790 0a19 4889C7   		movq	%rax, %rdi
 1791 0a1c E8000000 		call	_ZN17RecordingReporterD1Ev
 1791      00
 1792 0a21 4889D8   		movq	%rbx, %rax
 1793 0a24 4889C7   		movq	%rax, %rdi
 1794              	.LEHB47:
 1795 0a27 E8000000 		call	_Unwind_Resume
 1795      00
 1796              	.LEHE47:
 1797              	.L88:
 1798              	.LBE28:
 1799              		.loc 6 63 0 is_stmt 1
 1800 0a2c E8000000 		call	__stack_chk_fail
 1800      00
 1801              	.L81:
 1802 0a31 4881C4B8 		addq	$2232, %rsp
 1802      080000
 1803 0a38 5B       		popq	%rbx
 1804 0a39 5D       		popq	%rbp
 1805              		.cfi_def_cfa 7, 8
 1806 0a3a C3       		ret
 1807              		.cfi_endproc
 1808              	.LFE1099:
 1809              		.section	.gcc_except_table
 1810              		.align 4
 1811              	.LLSDA1099:
 1812 00e4 FF       		.byte	0xff
 1813 00e5 03       		.byte	0x3
 1814 00e6 41       		.uleb128 .LLSDATT1099-.LLSDATTD1099
 1815              	.LLSDATTD1099:
 1816 00e7 01       		.byte	0x1
 1817 00e8 39       		.uleb128 .LLSDACSE1099-.LLSDACSB1099
 1818              	.LLSDACSB1099:
 1819 00e9 45       		.uleb128 .LEHB38-.LFB1099
 1820 00ea 23       		.uleb128 .LEHE38-.LEHB38
 1821 00eb A304     		.uleb128 .L85-.LFB1099
 1822 00ed 00       		.uleb128 0
 1823 00ee 8001     		.uleb128 .LEHB39-.LFB1099
 1824 00f0 3E       		.uleb128 .LEHE39-.LEHB39
 1825 00f1 E502     		.uleb128 .L82-.LFB1099
 1826 00f3 01       		.uleb128 0x1
 1827 00f4 C801     		.uleb128 .LEHB40-.LFB1099
 1828 00f6 05       		.uleb128 .LEHE40-.LEHB40
 1829 00f7 A304     		.uleb128 .L85-.LFB1099
 1830 00f9 00       		.uleb128 0
 1831 00fa F601     		.uleb128 .LEHB41-.LFB1099
 1832 00fc 3E       		.uleb128 .LEHE41-.LEHB41
 1833 00fd D303     		.uleb128 .L86-.LFB1099
 1834 00ff 01       		.uleb128 0x1
 1835 0100 BE02     		.uleb128 .LEHB42-.LFB1099
 1836 0102 05       		.uleb128 .LEHE42-.LEHB42
 1837 0103 00       		.uleb128 0
 1838 0104 00       		.uleb128 0
 1839 0105 ED02     		.uleb128 .LEHB43-.LFB1099
 1840 0107 3E       		.uleb128 .LEHE43-.LEHB43
 1841 0108 DB02     		.uleb128 .L84-.LFB1099
 1842 010a 00       		.uleb128 0
 1843 010b AB03     		.uleb128 .LEHB44-.LFB1099
 1844 010d 05       		.uleb128 .LEHE44-.LEHB44
 1845 010e B503     		.uleb128 .L83-.LFB1099
 1846 0110 00       		.uleb128 0
 1847 0111 DB03     		.uleb128 .LEHB45-.LFB1099
 1848 0113 3E       		.uleb128 .LEHE45-.LEHB45
 1849 0114 C903     		.uleb128 .L87-.LFB1099
 1850 0116 00       		.uleb128 0
 1851 0117 9904     		.uleb128 .LEHB46-.LFB1099
 1852 0119 05       		.uleb128 .LEHE46-.LEHB46
 1853 011a A304     		.uleb128 .L85-.LFB1099
 1854 011c 00       		.uleb128 0
 1855 011d BB04     		.uleb128 .LEHB47-.LFB1099
 1856 011f 05       		.uleb128 .LEHE47-.LEHB47
 1857 0120 00       		.uleb128 0
 1858 0121 00       		.uleb128 0
 1859              	.LLSDACSE1099:
 1860 0122 01       		.byte	0x1
 1861 0123 00       		.byte	0
 1862              		.align 4
 1863 0124 00000000 		.long	0
 1864              	
 1865              	.LLSDATT1099:
 1866              		.text
 1868              		.section	.rodata
 1869              	.LC20:
 1870 025f 446F6800 		.string	"Doh"
 1871              		.text
 1873              	_ZN12_GLOBAL__N_116ThrowingFunctionEv:
 1874              	.LFB1100:
  64:TestCheckMacros.cpp **** 
  65:TestCheckMacros.cpp **** int ThrowingFunction()
  66:TestCheckMacros.cpp **** {
 1875              		.loc 6 66 0
 1876              		.cfi_startproc
 1877 0a3b 55       		pushq	%rbp
 1878              		.cfi_def_cfa_offset 16
 1879              		.cfi_offset 6, -16
 1880 0a3c 4889E5   		movq	%rsp, %rbp
 1881              		.cfi_def_cfa_register 6
  67:TestCheckMacros.cpp ****     throw "Doh";
 1882              		.loc 6 67 0
 1883 0a3f BF080000 		movl	$8, %edi
 1883      00
 1884 0a44 E8000000 		call	__cxa_allocate_exception
 1884      00
 1885 0a49 48C70000 		movq	$.LC20, (%rax)
 1885      000000
 1886 0a50 BA000000 		movl	$0, %edx
 1886      00
 1887 0a55 BE000000 		movl	$_ZTIPKc, %esi
 1887      00
 1888 0a5a 4889C7   		movq	%rax, %rdi
 1889 0a5d E8000000 		call	__cxa_throw
 1889      00
 1890              		.cfi_endproc
 1891              	.LFE1100:
 1893              		.section	.rodata
 1894              	.LC21:
 1895 0263 43686563 		.string	"CheckFailsOnException"
 1895      6B466169 
 1895      6C734F6E 
 1895      45786365 
 1895      7074696F 
 1896              		.text
 1897              		.align 2
 1899              	_ZN12_GLOBAL__N_125TestCheckFailsOnExceptionC2Ev:
 1900              	.LFB1102:
  68:TestCheckMacros.cpp **** }
  69:TestCheckMacros.cpp **** 
  70:TestCheckMacros.cpp **** TEST(CheckFailsOnException)
 1901              		.loc 6 70 0
 1902              		.cfi_startproc
 1903 0a62 55       		pushq	%rbp
 1904              		.cfi_def_cfa_offset 16
 1905              		.cfi_offset 6, -16
 1906 0a63 4889E5   		movq	%rsp, %rbp
 1907              		.cfi_def_cfa_register 6
 1908 0a66 4883EC10 		subq	$16, %rsp
 1909 0a6a 48897DF8 		movq	%rdi, -8(%rbp)
 1910              	.LBB29:
 1911              		.loc 6 70 0
 1912 0a6e E8000000 		call	_ZN13UnitTestSuite12GetSuiteNameEv
 1912      00
 1913 0a73 4889C2   		movq	%rax, %rdx
 1914 0a76 488B45F8 		movq	-8(%rbp), %rax
 1915 0a7a 41B84600 		movl	$70, %r8d
 1915      0000
 1916 0a80 B9000000 		movl	$.LC2, %ecx
 1916      00
 1917 0a85 BE000000 		movl	$.LC21, %esi
 1917      00
 1918 0a8a 4889C7   		movq	%rax, %rdi
 1919 0a8d E8000000 		call	_ZN8UnitTest4TestC2EPKcS2_S2_i
 1919      00
 1920 0a92 488B45F8 		movq	-8(%rbp), %rax
 1921 0a96 48C70000 		movq	$_ZTVN12_GLOBAL__N_125TestCheckFailsOnExceptionE+16, (%rax)
 1921      000000
 1922              	.LBE29:
 1923 0a9d C9       		leave
 1924              		.cfi_def_cfa 7, 8
 1925 0a9e C3       		ret
 1926              		.cfi_endproc
 1927              	.LFE1102:
 1929              		.local	_ZN12_GLOBAL__N_133testCheckFailsOnExceptionInstanceE
 1930              		.comm	_ZN12_GLOBAL__N_133testCheckFailsOnExceptionInstanceE,56,32
 1931              		.local	_ZN12_GLOBAL__N_126adderCheckFailsOnExceptionE
 1932              		.comm	_ZN12_GLOBAL__N_126adderCheckFailsOnExceptionE,1,1
 1933              		.section	.rodata
 1934              	.LC22:
 1935 0279 5468726F 		.string	"ThrowingFunction() == 1"
 1935      77696E67 
 1935      46756E63 
 1935      74696F6E 
 1935      2829203D 
 1936 0291 00000000 		.align 8
 1936      000000
 1937              	.LC23:
 1938 0298 556E6861 		.string	"Unhandled exception in CHECK(ThrowingFunction() == 1)"
 1938      6E646C65 
 1938      64206578 
 1938      63657074 
 1938      696F6E20 
 1939              		.text
 1940 0a9f 90       		.align 2
 1942              	_ZNK12_GLOBAL__N_125TestCheckFailsOnException7RunImplEv:
 1943              	.LFB1104:
  71:TestCheckMacros.cpp **** {
 1944              		.loc 6 71 0
 1945              		.cfi_startproc
 1946              		.cfi_personality 0x3,__gxx_personality_v0
 1947              		.cfi_lsda 0x3,.LLSDA1104
 1948 0aa0 55       		pushq	%rbp
 1949              		.cfi_def_cfa_offset 16
 1950              		.cfi_offset 6, -16
 1951 0aa1 4889E5   		movq	%rsp, %rbp
 1952              		.cfi_def_cfa_register 6
 1953 0aa4 53       		pushq	%rbx
 1954 0aa5 4881ECB8 		subq	$2232, %rsp
 1954      080000
 1955              		.cfi_offset 3, -24
 1956 0aac 4889BD48 		movq	%rdi, -2232(%rbp)
 1956      F7FFFF
 1957              		.loc 6 71 0
 1958 0ab3 64488B04 		movq	%fs:40, %rax
 1958      25280000 
 1958      00
 1959 0abc 488945E8 		movq	%rax, -24(%rbp)
 1960 0ac0 31C0     		xorl	%eax, %eax
 1961              	.LBB30:
  72:TestCheckMacros.cpp ****     bool failure = false;
 1962              		.loc 6 72 0
 1963 0ac2 C6855FF7 		movb	$0, -2209(%rbp)
 1963      FFFF00
 1964              	.LBB31:
  73:TestCheckMacros.cpp ****     {
  74:TestCheckMacros.cpp ****         RecordingReporter reporter;
 1965              		.loc 6 74 0
 1966 0ac9 488D85B0 		leaq	-2128(%rbp), %rax
 1966      F7FFFF
 1967 0ad0 4889C7   		movq	%rax, %rdi
 1968 0ad3 E8000000 		call	_ZN17RecordingReporterC1Ev
 1968      00
  75:TestCheckMacros.cpp ****         UnitTest::TestResults testResults(&reporter);
 1969              		.loc 6 75 0
 1970 0ad8 488D95B0 		leaq	-2128(%rbp), %rdx
 1970      F7FFFF
 1971 0adf 488D8570 		leaq	-2192(%rbp), %rax
 1971      F7FFFF
 1972 0ae6 4889D6   		movq	%rdx, %rsi
 1973 0ae9 4889C7   		movq	%rax, %rdi
 1974              	.LEHB48:
 1975 0aec E8000000 		call	_ZN8UnitTest11TestResultsC1EPNS_12TestReporterE
 1975      00
  76:TestCheckMacros.cpp **** 		ScopedCurrentTest scopedResults(testResults);
 1976              		.loc 6 76 0
 1977 0af1 488D8D70 		leaq	-2192(%rbp), %rcx
 1977      F7FFFF
 1978 0af8 488D8560 		leaq	-2208(%rbp), %rax
 1978      F7FFFF
 1979 0aff BA000000 		movl	$0, %edx
 1979      00
 1980 0b04 4889CE   		movq	%rcx, %rsi
 1981 0b07 4889C7   		movq	%rax, %rdi
 1982 0b0a E8000000 		call	_ZN17ScopedCurrentTestC1ERN8UnitTest11TestResultsEPKNS0_11TestDetailsE
 1982      00
 1983              	.LEHE48:
 1984              	.LEHB49:
  77:TestCheckMacros.cpp ****         CHECK(ThrowingFunction() == 1);
 1985              		.loc 6 77 0
 1986 0b0f E827FFFF 		call	_ZN12_GLOBAL__N_116ThrowingFunctionEv
 1986      FF
 1987 0b14 83F801   		cmpl	$1, %eax
 1988 0b17 0F94C0   		sete	%al
 1989 0b1a 0FB6C0   		movzbl	%al, %eax
 1990 0b1d 89C7     		movl	%eax, %edi
 1991 0b1f E8000000 		call	_ZN8UnitTest5CheckIbEEbT_
 1991      00
 1992 0b24 83F001   		xorl	$1, %eax
 1993 0b27 84C0     		testb	%al, %al
 1994 0b29 743E     		je	.L92
 1995              		.loc 6 77 0 is_stmt 0 discriminator 2
 1996 0b2b E8000000 		call	_ZN8UnitTest11CurrentTest7DetailsEv
 1996      00
 1997 0b30 488B08   		movq	(%rax), %rcx
 1998 0b33 488D8590 		leaq	-2160(%rbp), %rax
 1998      F7FFFF
 1999 0b3a BA4D0000 		movl	$77, %edx
 1999      00
 2000 0b3f 4889CE   		movq	%rcx, %rsi
 2001 0b42 4889C7   		movq	%rax, %rdi
 2002 0b45 E8000000 		call	_ZN8UnitTest11TestDetailsC1ERKS0_i
 2002      00
 2003              		.loc 6 77 0 discriminator 4
 2004 0b4a E8000000 		call	_ZN8UnitTest11CurrentTest7ResultsEv
 2004      00
 2005 0b4f 488B00   		movq	(%rax), %rax
 2006 0b52 488D8D90 		leaq	-2160(%rbp), %rcx
 2006      F7FFFF
 2007 0b59 BA000000 		movl	$.LC22, %edx
 2007      00
 2008 0b5e 4889CE   		movq	%rcx, %rsi
 2009 0b61 4889C7   		movq	%rax, %rdi
 2010 0b64 E8000000 		call	_ZN8UnitTest11TestResults13OnTestFailureERKNS_11TestDetailsEPKc
 2010      00
 2011              	.LEHE49:
 2012              	.L92:
  78:TestCheckMacros.cpp ****         failure = (testResults.GetFailureCount() > 0);
 2013              		.loc 6 78 0 is_stmt 1
 2014 0b69 488D8570 		leaq	-2192(%rbp), %rax
 2014      F7FFFF
 2015 0b70 4889C7   		movq	%rax, %rdi
 2016              	.LEHB50:
 2017 0b73 E8000000 		call	_ZNK8UnitTest11TestResults15GetFailureCountEv
 2017      00
 2018              	.LEHE50:
 2019 0b78 85C0     		testl	%eax, %eax
 2020 0b7a 0F9FC0   		setg	%al
 2021 0b7d 88855FF7 		movb	%al, -2209(%rbp)
 2021      FFFF
  76:TestCheckMacros.cpp **** 		ScopedCurrentTest scopedResults(testResults);
 2022              		.loc 6 76 0
 2023 0b83 488D8560 		leaq	-2208(%rbp), %rax
 2023      F7FFFF
 2024 0b8a 4889C7   		movq	%rax, %rdi
 2025              	.LEHB51:
 2026 0b8d E8000000 		call	_ZN17ScopedCurrentTestD1Ev
 2026      00
 2027              	.LEHE51:
 2028              		.loc 6 78 0
 2029 0b92 488D85B0 		leaq	-2128(%rbp), %rax
 2029      F7FFFF
 2030 0b99 4889C7   		movq	%rax, %rdi
 2031              	.LEHB52:
 2032 0b9c E8000000 		call	_ZN17RecordingReporterD1Ev
 2032      00
 2033              	.LEHE52:
 2034              	.LBE31:
  79:TestCheckMacros.cpp ****     }
  80:TestCheckMacros.cpp **** 
  81:TestCheckMacros.cpp ****     CHECK(failure);
 2035              		.loc 6 81 0
 2036 0ba1 0FB6855F 		movzbl	-2209(%rbp), %eax
 2036      F7FFFF
 2037 0ba8 89C7     		movl	%eax, %edi
 2038 0baa E8000000 		call	_ZN8UnitTest5CheckIbEEbT_
 2038      00
 2039 0baf 83F001   		xorl	$1, %eax
 2040 0bb2 84C0     		testb	%al, %al
 2041 0bb4 0F842D01 		je	.L91
 2041      0000
 2042              	.LEHB53:
 2043              		.loc 6 81 0 is_stmt 0 discriminator 1
 2044 0bba E8000000 		call	_ZN8UnitTest11CurrentTest7DetailsEv
 2044      00
 2045 0bbf 488B08   		movq	(%rax), %rcx
 2046 0bc2 488D8590 		leaq	-2160(%rbp), %rax
 2046      F7FFFF
 2047 0bc9 BA510000 		movl	$81, %edx
 2047      00
 2048 0bce 4889CE   		movq	%rcx, %rsi
 2049 0bd1 4889C7   		movq	%rax, %rdi
 2050 0bd4 E8000000 		call	_ZN8UnitTest11TestDetailsC1ERKS0_i
 2050      00
 2051              		.loc 6 81 0 discriminator 3
 2052 0bd9 E8000000 		call	_ZN8UnitTest11CurrentTest7ResultsEv
 2052      00
 2053 0bde 488B00   		movq	(%rax), %rax
 2054 0be1 488D8D90 		leaq	-2160(%rbp), %rcx
 2054      F7FFFF
 2055 0be8 BA000000 		movl	$.LC10, %edx
 2055      00
 2056 0bed 4889CE   		movq	%rcx, %rsi
 2057 0bf0 4889C7   		movq	%rax, %rdi
 2058 0bf3 E8000000 		call	_ZN8UnitTest11TestResults13OnTestFailureERKNS_11TestDetailsEPKc
 2058      00
 2059              	.LEHE53:
 2060 0bf8 E9EA0000 		jmp	.L91
 2060      00
 2061              	.L104:
 2062 0bfd 4889C3   		movq	%rax, %rbx
 2063              	.LBB32:
  77:TestCheckMacros.cpp ****         failure = (testResults.GetFailureCount() > 0);
 2064              		.loc 6 77 0 is_stmt 1
 2065 0c00 E8000000 		call	__cxa_end_catch
 2065      00
 2066 0c05 EB53     		jmp	.L95
 2067              	.L102:
 2068 0c07 4889C7   		movq	%rax, %rdi
 2069 0c0a E8000000 		call	__cxa_begin_catch
 2069      00
 2070              	.LEHB54:
 2071 0c0f E8000000 		call	_ZN8UnitTest11CurrentTest7DetailsEv
 2071      00
 2072 0c14 488B08   		movq	(%rax), %rcx
 2073 0c17 488D8590 		leaq	-2160(%rbp), %rax
 2073      F7FFFF
 2074 0c1e BA4D0000 		movl	$77, %edx
 2074      00
 2075 0c23 4889CE   		movq	%rcx, %rsi
 2076 0c26 4889C7   		movq	%rax, %rdi
 2077 0c29 E8000000 		call	_ZN8UnitTest11TestDetailsC1ERKS0_i
 2077      00
  77:TestCheckMacros.cpp ****         failure = (testResults.GetFailureCount() > 0);
 2078              		.loc 6 77 0 is_stmt 0 discriminator 12
 2079 0c2e E8000000 		call	_ZN8UnitTest11CurrentTest7ResultsEv
 2079      00
 2080 0c33 488B00   		movq	(%rax), %rax
 2081 0c36 488D8D90 		leaq	-2160(%rbp), %rcx
 2081      F7FFFF
 2082 0c3d BA000000 		movl	$.LC23, %edx
 2082      00
 2083 0c42 4889CE   		movq	%rcx, %rsi
 2084 0c45 4889C7   		movq	%rax, %rdi
 2085 0c48 E8000000 		call	_ZN8UnitTest11TestResults13OnTestFailureERKNS_11TestDetailsEPKc
 2085      00
 2086              	.LEHE54:
 2087              	.LEHB55:
  77:TestCheckMacros.cpp ****         failure = (testResults.GetFailureCount() > 0);
 2088              		.loc 6 77 0 discriminator 16
 2089 0c4d E8000000 		call	__cxa_end_catch
 2089      00
 2090              	.LEHE55:
  77:TestCheckMacros.cpp ****         failure = (testResults.GetFailureCount() > 0);
 2091              		.loc 6 77 0
 2092 0c52 E912FFFF 		jmp	.L92
 2092      FF
 2093              	.L103:
 2094 0c57 4889C3   		movq	%rax, %rbx
 2095              	.L95:
  76:TestCheckMacros.cpp ****         CHECK(ThrowingFunction() == 1);
 2096              		.loc 6 76 0 is_stmt 1
 2097 0c5a 488D8560 		leaq	-2208(%rbp), %rax
 2097      F7FFFF
 2098 0c61 4889C7   		movq	%rax, %rdi
 2099 0c64 E8000000 		call	_ZN17ScopedCurrentTestD1Ev
 2099      00
 2100 0c69 EB03     		jmp	.L97
 2101              	.L101:
 2102 0c6b 4889C3   		movq	%rax, %rbx
 2103              	.L97:
  78:TestCheckMacros.cpp ****     }
 2104              		.loc 6 78 0
 2105 0c6e 488D85B0 		leaq	-2128(%rbp), %rax
 2105      F7FFFF
 2106 0c75 4889C7   		movq	%rax, %rdi
 2107 0c78 E8000000 		call	_ZN17RecordingReporterD1Ev
 2107      00
 2108 0c7d 4889D8   		movq	%rbx, %rax
 2109 0c80 4889C7   		movq	%rax, %rdi
 2110              	.LEHB56:
 2111 0c83 E8000000 		call	_Unwind_Resume
 2111      00
 2112              	.LEHE56:
 2113              	.L106:
 2114 0c88 4889C3   		movq	%rax, %rbx
 2115              	.LBE32:
 2116              		.loc 6 81 0
 2117 0c8b E8000000 		call	__cxa_end_catch
 2117      00
 2118 0c90 4889D8   		movq	%rbx, %rax
 2119 0c93 4889C7   		movq	%rax, %rdi
 2120              	.LEHB57:
 2121 0c96 E8000000 		call	_Unwind_Resume
 2121      00
 2122              	.LEHE57:
 2123              	.L105:
 2124 0c9b 4889C7   		movq	%rax, %rdi
 2125 0c9e E8000000 		call	__cxa_begin_catch
 2125      00
 2126              	.LEHB58:
 2127 0ca3 E8000000 		call	_ZN8UnitTest11CurrentTest7DetailsEv
 2127      00
 2128 0ca8 488B08   		movq	(%rax), %rcx
 2129 0cab 488D8590 		leaq	-2160(%rbp), %rax
 2129      F7FFFF
 2130 0cb2 BA510000 		movl	$81, %edx
 2130      00
 2131 0cb7 4889CE   		movq	%rcx, %rsi
 2132 0cba 4889C7   		movq	%rax, %rdi
 2133 0cbd E8000000 		call	_ZN8UnitTest11TestDetailsC1ERKS0_i
 2133      00
 2134              		.loc 6 81 0 is_stmt 0 discriminator 11
 2135 0cc2 E8000000 		call	_ZN8UnitTest11CurrentTest7ResultsEv
 2135      00
 2136 0cc7 488B00   		movq	(%rax), %rax
 2137 0cca 488D8D90 		leaq	-2160(%rbp), %rcx
 2137      F7FFFF
 2138 0cd1 BA000000 		movl	$.LC12, %edx
 2138      00
 2139 0cd6 4889CE   		movq	%rcx, %rsi
 2140 0cd9 4889C7   		movq	%rax, %rdi
 2141 0cdc E8000000 		call	_ZN8UnitTest11TestResults13OnTestFailureERKNS_11TestDetailsEPKc
 2141      00
 2142              	.LEHE58:
 2143              	.LEHB59:
 2144              		.loc 6 81 0 discriminator 15
 2145 0ce1 E8000000 		call	__cxa_end_catch
 2145      00
 2146              	.LEHE59:
 2147              	.LBE30:
  82:TestCheckMacros.cpp **** }
 2148              		.loc 6 82 0 is_stmt 1 discriminator 15
 2149 0ce6 90       		nop
 2150              	.L91:
 2151              		.loc 6 82 0 is_stmt 0
 2152 0ce7 488B45E8 		movq	-24(%rbp), %rax
 2153 0ceb 64483304 		xorq	%fs:40, %rax
 2153      25280000 
 2153      00
 2154 0cf4 7405     		je	.L100
 2155 0cf6 E8000000 		call	__stack_chk_fail
 2155      00
 2156              	.L100:
 2157 0cfb 4881C4B8 		addq	$2232, %rsp
 2157      080000
 2158 0d02 5B       		popq	%rbx
 2159 0d03 5D       		popq	%rbp
 2160              		.cfi_def_cfa 7, 8
 2161 0d04 C3       		ret
 2162              		.cfi_endproc
 2163              	.LFE1104:
 2164              		.section	.gcc_except_table
 2165              		.align 4
 2166              	.LLSDA1104:
 2167 0128 FF       		.byte	0xff
 2168 0129 03       		.byte	0x3
 2169 012a 4D       		.uleb128 .LLSDATT1104-.LLSDATTD1104
 2170              	.LLSDATTD1104:
 2171 012b 01       		.byte	0x1
 2172 012c 42       		.uleb128 .LLSDACSE1104-.LLSDACSB1104
 2173              	.LLSDACSB1104:
 2174 012d 4C       		.uleb128 .LEHB48-.LFB1104
 2175 012e 23       		.uleb128 .LEHE48-.LEHB48
 2176 012f CB03     		.uleb128 .L101-.LFB1104
 2177 0131 00       		.uleb128 0
 2178 0132 6F       		.uleb128 .LEHB49-.LFB1104
 2179 0133 5A       		.uleb128 .LEHE49-.LEHB49
 2180 0134 E702     		.uleb128 .L102-.LFB1104
 2181 0136 01       		.uleb128 0x1
 2182 0137 D301     		.uleb128 .LEHB50-.LFB1104
 2183 0139 05       		.uleb128 .LEHE50-.LEHB50
 2184 013a B703     		.uleb128 .L103-.LFB1104
 2185 013c 00       		.uleb128 0
 2186 013d ED01     		.uleb128 .LEHB51-.LFB1104
 2187 013f 05       		.uleb128 .LEHE51-.LEHB51
 2188 0140 CB03     		.uleb128 .L101-.LFB1104
 2189 0142 00       		.uleb128 0
 2190 0143 FC01     		.uleb128 .LEHB52-.LFB1104
 2191 0145 05       		.uleb128 .LEHE52-.LEHB52
 2192 0146 00       		.uleb128 0
 2193 0147 00       		.uleb128 0
 2194 0148 9A02     		.uleb128 .LEHB53-.LFB1104
 2195 014a 3E       		.uleb128 .LEHE53-.LEHB53
 2196 014b FB03     		.uleb128 .L105-.LFB1104
 2197 014d 01       		.uleb128 0x1
 2198 014e EF02     		.uleb128 .LEHB54-.LFB1104
 2199 0150 3E       		.uleb128 .LEHE54-.LEHB54
 2200 0151 DD02     		.uleb128 .L104-.LFB1104
 2201 0153 00       		.uleb128 0
 2202 0154 AD03     		.uleb128 .LEHB55-.LFB1104
 2203 0156 05       		.uleb128 .LEHE55-.LEHB55
 2204 0157 B703     		.uleb128 .L103-.LFB1104
 2205 0159 00       		.uleb128 0
 2206 015a E303     		.uleb128 .LEHB56-.LFB1104
 2207 015c 05       		.uleb128 .LEHE56-.LEHB56
 2208 015d 00       		.uleb128 0
 2209 015e 00       		.uleb128 0
 2210 015f F603     		.uleb128 .LEHB57-.LFB1104
 2211 0161 05       		.uleb128 .LEHE57-.LEHB57
 2212 0162 00       		.uleb128 0
 2213 0163 00       		.uleb128 0
 2214 0164 8304     		.uleb128 .LEHB58-.LFB1104
 2215 0166 3E       		.uleb128 .LEHE58-.LEHB58
 2216 0167 E803     		.uleb128 .L106-.LFB1104
 2217 0169 00       		.uleb128 0
 2218 016a C104     		.uleb128 .LEHB59-.LFB1104
 2219 016c 05       		.uleb128 .LEHE59-.LEHB59
 2220 016d 00       		.uleb128 0
 2221 016e 00       		.uleb128 0
 2222              	.LLSDACSE1104:
 2223 016f 01       		.byte	0x1
 2224 0170 00       		.byte	0
 2225 0171 000000   		.align 4
 2226 0174 00000000 		.long	0
 2227              	
 2228              	.LLSDATT1104:
 2229              		.text
 2231              		.section	.rodata
 2232 02ce 0000     		.align 8
 2233              	.LC24:
 2234 02d0 43686563 		.string	"CheckFailureBecauseOfExceptionIncludesCheckContents"
 2234      6B466169 
 2234      6C757265 
 2234      42656361 
 2234      7573654F 
 2235              		.text
 2236 0d05 90       		.align 2
 2238              	_ZN12_GLOBAL__N_155TestCheckFailureBecauseOfExceptionIncludesCheckContentsC2Ev:
 2239              	.LFB1106:
  83:TestCheckMacros.cpp **** 
  84:TestCheckMacros.cpp **** TEST(CheckFailureBecauseOfExceptionIncludesCheckContents)
 2240              		.loc 6 84 0 is_stmt 1
 2241              		.cfi_startproc
 2242 0d06 55       		pushq	%rbp
 2243              		.cfi_def_cfa_offset 16
 2244              		.cfi_offset 6, -16
 2245 0d07 4889E5   		movq	%rsp, %rbp
 2246              		.cfi_def_cfa_register 6
 2247 0d0a 4883EC10 		subq	$16, %rsp
 2248 0d0e 48897DF8 		movq	%rdi, -8(%rbp)
 2249              	.LBB33:
 2250              		.loc 6 84 0
 2251 0d12 E8000000 		call	_ZN13UnitTestSuite12GetSuiteNameEv
 2251      00
 2252 0d17 4889C2   		movq	%rax, %rdx
 2253 0d1a 488B45F8 		movq	-8(%rbp), %rax
 2254 0d1e 41B85400 		movl	$84, %r8d
 2254      0000
 2255 0d24 B9000000 		movl	$.LC2, %ecx
 2255      00
 2256 0d29 BE000000 		movl	$.LC24, %esi
 2256      00
 2257 0d2e 4889C7   		movq	%rax, %rdi
 2258 0d31 E8000000 		call	_ZN8UnitTest4TestC2EPKcS2_S2_i
 2258      00
 2259 0d36 488B45F8 		movq	-8(%rbp), %rax
 2260 0d3a 48C70000 		movq	$_ZTVN12_GLOBAL__N_155TestCheckFailureBecauseOfExceptionIncludesCheckContentsE+16, (%rax)
 2260      000000
 2261              	.LBE33:
 2262 0d41 C9       		leave
 2263              		.cfi_def_cfa 7, 8
 2264 0d42 C3       		ret
 2265              		.cfi_endproc
 2266              	.LFE1106:
 2268              		.local	_ZN12_GLOBAL__N_163testCheckFailureBecauseOfExceptionIncludesCheckContentsInstanceE
 2269              		.comm	_ZN12_GLOBAL__N_163testCheckFailureBecauseOfExceptionIncludesCheckContentsInstanceE,56,32
 2270              		.local	_ZN12_GLOBAL__N_156adderCheckFailureBecauseOfExceptionIncludesCheckContentsE
 2271              		.comm	_ZN12_GLOBAL__N_156adderCheckFailureBecauseOfExceptionIncludesCheckContentsE,1,1
 2272              		.section	.rodata
 2273 0304 00000000 		.align 8
 2274              	.LC25:
 2275 0308 73747273 		.string	"strstr(reporter.lastFailedMessage, \"ThrowingFunction() == 1\")"
 2275      74722872 
 2275      65706F72 
 2275      7465722E 
 2275      6C617374 
 2276 0346 0000     		.align 8
 2277              	.LC26:
 2278 0348 556E6861 		.string	"Unhandled exception in CHECK(strstr(reporter.lastFailedMessage, \"ThrowingFunction() == 1
 2278      6E646C65 
 2278      64206578 
 2278      63657074 
 2278      696F6E20 
 2279              		.text
 2280 0d43 90       		.align 2
 2282              	_ZNK12_GLOBAL__N_155TestCheckFailureBecauseOfExceptionIncludesCheckContents7RunImplEv:
 2283              	.LFB1108:
  85:TestCheckMacros.cpp **** {
 2284              		.loc 6 85 0
 2285              		.cfi_startproc
 2286              		.cfi_personality 0x3,__gxx_personality_v0
 2287              		.cfi_lsda 0x3,.LLSDA1108
 2288 0d44 55       		pushq	%rbp
 2289              		.cfi_def_cfa_offset 16
 2290              		.cfi_offset 6, -16
 2291 0d45 4889E5   		movq	%rsp, %rbp
 2292              		.cfi_def_cfa_register 6
 2293 0d48 53       		pushq	%rbx
 2294 0d49 4881ECA8 		subq	$2216, %rsp
 2294      080000
 2295              		.cfi_offset 3, -24
 2296 0d50 4889BD58 		movq	%rdi, -2216(%rbp)
 2296      F7FFFF
 2297              		.loc 6 85 0
 2298 0d57 64488B04 		movq	%fs:40, %rax
 2298      25280000 
 2298      00
 2299 0d60 488945E8 		movq	%rax, -24(%rbp)
 2300 0d64 31C0     		xorl	%eax, %eax
 2301              	.LBB34:
  86:TestCheckMacros.cpp ****     RecordingReporter reporter;
 2302              		.loc 6 86 0
 2303 0d66 488D85B0 		leaq	-2128(%rbp), %rax
 2303      F7FFFF
 2304 0d6d 4889C7   		movq	%rax, %rdi
 2305 0d70 E8000000 		call	_ZN17RecordingReporterC1Ev
 2305      00
 2306              	.LBB35:
  87:TestCheckMacros.cpp ****     {
  88:TestCheckMacros.cpp ****         UnitTest::TestResults testResults(&reporter);
 2307              		.loc 6 88 0
 2308 0d75 488D95B0 		leaq	-2128(%rbp), %rdx
 2308      F7FFFF
 2309 0d7c 488D8570 		leaq	-2192(%rbp), %rax
 2309      F7FFFF
 2310 0d83 4889D6   		movq	%rdx, %rsi
 2311 0d86 4889C7   		movq	%rax, %rdi
 2312              	.LEHB60:
 2313 0d89 E8000000 		call	_ZN8UnitTest11TestResultsC1EPNS_12TestReporterE
 2313      00
  89:TestCheckMacros.cpp **** 		ScopedCurrentTest scopedResults(testResults);
 2314              		.loc 6 89 0
 2315 0d8e 488D8D70 		leaq	-2192(%rbp), %rcx
 2315      F7FFFF
 2316 0d95 488D8560 		leaq	-2208(%rbp), %rax
 2316      F7FFFF
 2317 0d9c BA000000 		movl	$0, %edx
 2317      00
 2318 0da1 4889CE   		movq	%rcx, %rsi
 2319 0da4 4889C7   		movq	%rax, %rdi
 2320 0da7 E8000000 		call	_ZN17ScopedCurrentTestC1ERN8UnitTest11TestResultsEPKNS0_11TestDetailsE
 2320      00
 2321              	.LEHE60:
 2322              	.LEHB61:
  90:TestCheckMacros.cpp ****         CHECK(ThrowingFunction() == 1);
 2323              		.loc 6 90 0
 2324 0dac E88AFCFF 		call	_ZN12_GLOBAL__N_116ThrowingFunctionEv
 2324      FF
 2325 0db1 83F801   		cmpl	$1, %eax
 2326 0db4 0F94C0   		sete	%al
 2327 0db7 0FB6C0   		movzbl	%al, %eax
 2328 0dba 89C7     		movl	%eax, %edi
 2329 0dbc E8000000 		call	_ZN8UnitTest5CheckIbEEbT_
 2329      00
 2330 0dc1 83F001   		xorl	$1, %eax
 2331 0dc4 84C0     		testb	%al, %al
 2332 0dc6 743E     		je	.L109
 2333              		.loc 6 90 0 is_stmt 0 discriminator 2
 2334 0dc8 E8000000 		call	_ZN8UnitTest11CurrentTest7DetailsEv
 2334      00
 2335 0dcd 488B08   		movq	(%rax), %rcx
 2336 0dd0 488D8590 		leaq	-2160(%rbp), %rax
 2336      F7FFFF
 2337 0dd7 BA5A0000 		movl	$90, %edx
 2337      00
 2338 0ddc 4889CE   		movq	%rcx, %rsi
 2339 0ddf 4889C7   		movq	%rax, %rdi
 2340 0de2 E8000000 		call	_ZN8UnitTest11TestDetailsC1ERKS0_i
 2340      00
 2341              		.loc 6 90 0 discriminator 5
 2342 0de7 E8000000 		call	_ZN8UnitTest11CurrentTest7ResultsEv
 2342      00
 2343 0dec 488B00   		movq	(%rax), %rax
 2344 0def 488D8D90 		leaq	-2160(%rbp), %rcx
 2344      F7FFFF
 2345 0df6 BA000000 		movl	$.LC22, %edx
 2345      00
 2346 0dfb 4889CE   		movq	%rcx, %rsi
 2347 0dfe 4889C7   		movq	%rax, %rdi
 2348 0e01 E8000000 		call	_ZN8UnitTest11TestResults13OnTestFailureERKNS_11TestDetailsEPKc
 2348      00
 2349              	.LEHE61:
 2350              	.L109:
 2351              		.loc 6 90 0 discriminator 10
 2352 0e06 488D8560 		leaq	-2208(%rbp), %rax
 2352      F7FFFF
 2353 0e0d 4889C7   		movq	%rax, %rdi
 2354              	.LEHB62:
 2355 0e10 E8000000 		call	_ZN17ScopedCurrentTestD1Ev
 2355      00
 2356              	.LEHE62:
 2357              	.LBE35:
  91:TestCheckMacros.cpp ****     }
  92:TestCheckMacros.cpp **** 
  93:TestCheckMacros.cpp ****     CHECK(strstr(reporter.lastFailedMessage, "ThrowingFunction() == 1"));
 2358              		.loc 6 93 0 is_stmt 1
 2359 0e15 488D85B0 		leaq	-2128(%rbp), %rax
 2359      F7FFFF
 2360 0e1c 48051405 		addq	$1300, %rax
 2360      0000
 2361 0e22 BE000000 		movl	$.LC22, %esi
 2361      00
 2362 0e27 4889C7   		movq	%rax, %rdi
 2363 0e2a E8000000 		call	strstr
 2363      00
 2364 0e2f 4889C7   		movq	%rax, %rdi
 2365 0e32 E8000000 		call	_ZN8UnitTest5CheckIPcEEbT_
 2365      00
 2366 0e37 83F001   		xorl	$1, %eax
 2367 0e3a 84C0     		testb	%al, %al
 2368 0e3c 743E     		je	.L110
 2369              	.LEHB63:
 2370              		.loc 6 93 0 is_stmt 0 discriminator 1
 2371 0e3e E8000000 		call	_ZN8UnitTest11CurrentTest7DetailsEv
 2371      00
 2372 0e43 488B08   		movq	(%rax), %rcx
 2373 0e46 488D8590 		leaq	-2160(%rbp), %rax
 2373      F7FFFF
 2374 0e4d BA5D0000 		movl	$93, %edx
 2374      00
 2375 0e52 4889CE   		movq	%rcx, %rsi
 2376 0e55 4889C7   		movq	%rax, %rdi
 2377 0e58 E8000000 		call	_ZN8UnitTest11TestDetailsC1ERKS0_i
 2377      00
 2378              		.loc 6 93 0 discriminator 4
 2379 0e5d E8000000 		call	_ZN8UnitTest11CurrentTest7ResultsEv
 2379      00
 2380 0e62 488B00   		movq	(%rax), %rax
 2381 0e65 488D8D90 		leaq	-2160(%rbp), %rcx
 2381      F7FFFF
 2382 0e6c BA000000 		movl	$.LC25, %edx
 2382      00
 2383 0e71 4889CE   		movq	%rcx, %rsi
 2384 0e74 4889C7   		movq	%rax, %rdi
 2385 0e77 E8000000 		call	_ZN8UnitTest11TestResults13OnTestFailureERKNS_11TestDetailsEPKc
 2385      00
 2386              	.LEHE63:
 2387              	.L110:
 2388              		.loc 6 93 0 discriminator 9
 2389 0e7c 488D85B0 		leaq	-2128(%rbp), %rax
 2389      F7FFFF
 2390 0e83 4889C7   		movq	%rax, %rdi
 2391              	.LEHB64:
 2392 0e86 E8000000 		call	_ZN17RecordingReporterD1Ev
 2392      00
 2393              	.LEHE64:
 2394              	.LBE34:
  94:TestCheckMacros.cpp **** }
 2395              		.loc 6 94 0 is_stmt 1 discriminator 9
 2396 0e8b 488B45E8 		movq	-24(%rbp), %rax
 2397 0e8f 64483304 		xorq	%fs:40, %rax
 2397      25280000 
 2397      00
 2398 0e98 0F84EF00 		je	.L117
 2398      0000
 2399 0e9e E9E50000 		jmp	.L124
 2399      00
 2400              	.L120:
 2401 0ea3 4889C3   		movq	%rax, %rbx
 2402              	.LBB37:
 2403              	.LBB36:
  90:TestCheckMacros.cpp ****         CHECK(ThrowingFunction() == 1);
 2404              		.loc 6 90 0
 2405 0ea6 E8000000 		call	__cxa_end_catch
 2405      00
 2406 0eab EB53     		jmp	.L112
 2407              	.L118:
 2408 0ead 4889C7   		movq	%rax, %rdi
 2409 0eb0 E8000000 		call	__cxa_begin_catch
 2409      00
 2410              	.LEHB65:
 2411 0eb5 E8000000 		call	_ZN8UnitTest11CurrentTest7DetailsEv
 2411      00
 2412 0eba 488B08   		movq	(%rax), %rcx
 2413 0ebd 488D8590 		leaq	-2160(%rbp), %rax
 2413      F7FFFF
 2414 0ec4 BA5A0000 		movl	$90, %edx
 2414      00
 2415 0ec9 4889CE   		movq	%rcx, %rsi
 2416 0ecc 4889C7   		movq	%rax, %rdi
 2417 0ecf E8000000 		call	_ZN8UnitTest11TestDetailsC1ERKS0_i
 2417      00
  90:TestCheckMacros.cpp ****         CHECK(ThrowingFunction() == 1);
 2418              		.loc 6 90 0 is_stmt 0 discriminator 14
 2419 0ed4 E8000000 		call	_ZN8UnitTest11CurrentTest7ResultsEv
 2419      00
 2420 0ed9 488B00   		movq	(%rax), %rax
 2421 0edc 488D8D90 		leaq	-2160(%rbp), %rcx
 2421      F7FFFF
 2422 0ee3 BA000000 		movl	$.LC23, %edx
 2422      00
 2423 0ee8 4889CE   		movq	%rcx, %rsi
 2424 0eeb 4889C7   		movq	%rax, %rdi
 2425 0eee E8000000 		call	_ZN8UnitTest11TestResults13OnTestFailureERKNS_11TestDetailsEPKc
 2425      00
 2426              	.LEHE65:
 2427              	.LEHB66:
  90:TestCheckMacros.cpp ****         CHECK(ThrowingFunction() == 1);
 2428              		.loc 6 90 0 discriminator 18
 2429 0ef3 E8000000 		call	__cxa_end_catch
 2429      00
 2430              	.LEHE66:
  90:TestCheckMacros.cpp ****         CHECK(ThrowingFunction() == 1);
 2431              		.loc 6 90 0
 2432 0ef8 E909FFFF 		jmp	.L109
 2432      FF
 2433              	.L119:
 2434 0efd 4889C3   		movq	%rax, %rbx
 2435              	.L112:
  90:TestCheckMacros.cpp ****         CHECK(ThrowingFunction() == 1);
 2436              		.loc 6 90 0 discriminator 19
 2437 0f00 488D8560 		leaq	-2208(%rbp), %rax
 2437      F7FFFF
 2438 0f07 4889C7   		movq	%rax, %rdi
 2439 0f0a E8000000 		call	_ZN17ScopedCurrentTestD1Ev
 2439      00
 2440 0f0f EB5D     		jmp	.L114
 2441              	.L123:
 2442 0f11 4889C3   		movq	%rax, %rbx
 2443              	.LBE36:
  93:TestCheckMacros.cpp **** }
 2444              		.loc 6 93 0 is_stmt 1
 2445 0f14 E8000000 		call	__cxa_end_catch
 2445      00
 2446 0f19 EB53     		jmp	.L114
 2447              	.L122:
 2448 0f1b 4889C7   		movq	%rax, %rdi
 2449 0f1e E8000000 		call	__cxa_begin_catch
 2449      00
 2450              	.LEHB67:
 2451 0f23 E8000000 		call	_ZN8UnitTest11CurrentTest7DetailsEv
 2451      00
 2452 0f28 488B08   		movq	(%rax), %rcx
 2453 0f2b 488D8590 		leaq	-2160(%rbp), %rax
 2453      F7FFFF
 2454 0f32 BA5D0000 		movl	$93, %edx
 2454      00
 2455 0f37 4889CE   		movq	%rcx, %rsi
 2456 0f3a 4889C7   		movq	%rax, %rdi
 2457 0f3d E8000000 		call	_ZN8UnitTest11TestDetailsC1ERKS0_i
 2457      00
  93:TestCheckMacros.cpp **** }
 2458              		.loc 6 93 0 is_stmt 0 discriminator 13
 2459 0f42 E8000000 		call	_ZN8UnitTest11CurrentTest7ResultsEv
 2459      00
 2460 0f47 488B00   		movq	(%rax), %rax
 2461 0f4a 488D8D90 		leaq	-2160(%rbp), %rcx
 2461      F7FFFF
 2462 0f51 BA000000 		movl	$.LC26, %edx
 2462      00
 2463 0f56 4889CE   		movq	%rcx, %rsi
 2464 0f59 4889C7   		movq	%rax, %rdi
 2465 0f5c E8000000 		call	_ZN8UnitTest11TestResults13OnTestFailureERKNS_11TestDetailsEPKc
 2465      00
 2466              	.LEHE67:
 2467              	.LEHB68:
  93:TestCheckMacros.cpp **** }
 2468              		.loc 6 93 0 discriminator 17
 2469 0f61 E8000000 		call	__cxa_end_catch
 2469      00
 2470              	.LEHE68:
  93:TestCheckMacros.cpp **** }
 2471              		.loc 6 93 0
 2472 0f66 E911FFFF 		jmp	.L110
 2472      FF
 2473              	.L121:
 2474 0f6b 4889C3   		movq	%rax, %rbx
 2475              	.L114:
  93:TestCheckMacros.cpp **** }
 2476              		.loc 6 93 0 discriminator 18
 2477 0f6e 488D85B0 		leaq	-2128(%rbp), %rax
 2477      F7FFFF
 2478 0f75 4889C7   		movq	%rax, %rdi
 2479 0f78 E8000000 		call	_ZN17RecordingReporterD1Ev
 2479      00
 2480 0f7d 4889D8   		movq	%rbx, %rax
 2481 0f80 4889C7   		movq	%rax, %rdi
 2482              	.LEHB69:
 2483 0f83 E8000000 		call	_Unwind_Resume
 2483      00
 2484              	.LEHE69:
 2485              	.L124:
 2486              	.LBE37:
 2487              		.loc 6 94 0 is_stmt 1
 2488 0f88 E8000000 		call	__stack_chk_fail
 2488      00
 2489              	.L117:
 2490 0f8d 4881C4A8 		addq	$2216, %rsp
 2490      080000
 2491 0f94 5B       		popq	%rbx
 2492 0f95 5D       		popq	%rbp
 2493              		.cfi_def_cfa 7, 8
 2494 0f96 C3       		ret
 2495              		.cfi_endproc
 2496              	.LFE1108:
 2497              		.section	.gcc_except_table
 2498              		.align 4
 2499              	.LLSDA1108:
 2500 0178 FF       		.byte	0xff
 2501 0179 03       		.byte	0x3
 2502 017a 41       		.uleb128 .LLSDATT1108-.LLSDATTD1108
 2503              	.LLSDATTD1108:
 2504 017b 01       		.byte	0x1
 2505 017c 38       		.uleb128 .LLSDACSE1108-.LLSDACSB1108
 2506              	.LLSDACSB1108:
 2507 017d 45       		.uleb128 .LEHB60-.LFB1108
 2508 017e 23       		.uleb128 .LEHE60-.LEHB60
 2509 017f A704     		.uleb128 .L121-.LFB1108
 2510 0181 00       		.uleb128 0
 2511 0182 68       		.uleb128 .LEHB61-.LFB1108
 2512 0183 5A       		.uleb128 .LEHE61-.LEHB61
 2513 0184 E902     		.uleb128 .L118-.LFB1108
 2514 0186 01       		.uleb128 0x1
 2515 0187 CC01     		.uleb128 .LEHB62-.LFB1108
 2516 0189 05       		.uleb128 .LEHE62-.LEHB62
 2517 018a A704     		.uleb128 .L121-.LFB1108
 2518 018c 00       		.uleb128 0
 2519 018d FA01     		.uleb128 .LEHB63-.LFB1108
 2520 018f 3E       		.uleb128 .LEHE63-.LEHB63
 2521 0190 D703     		.uleb128 .L122-.LFB1108
 2522 0192 01       		.uleb128 0x1
 2523 0193 C202     		.uleb128 .LEHB64-.LFB1108
 2524 0195 05       		.uleb128 .LEHE64-.LEHB64
 2525 0196 00       		.uleb128 0
 2526 0197 00       		.uleb128 0
 2527 0198 F102     		.uleb128 .LEHB65-.LFB1108
 2528 019a 3E       		.uleb128 .LEHE65-.LEHB65
 2529 019b DF02     		.uleb128 .L120-.LFB1108
 2530 019d 00       		.uleb128 0
 2531 019e AF03     		.uleb128 .LEHB66-.LFB1108
 2532 01a0 05       		.uleb128 .LEHE66-.LEHB66
 2533 01a1 B903     		.uleb128 .L119-.LFB1108
 2534 01a3 00       		.uleb128 0
 2535 01a4 DF03     		.uleb128 .LEHB67-.LFB1108
 2536 01a6 3E       		.uleb128 .LEHE67-.LEHB67
 2537 01a7 CD03     		.uleb128 .L123-.LFB1108
 2538 01a9 00       		.uleb128 0
 2539 01aa 9D04     		.uleb128 .LEHB68-.LFB1108
 2540 01ac 05       		.uleb128 .LEHE68-.LEHB68
 2541 01ad A704     		.uleb128 .L121-.LFB1108
 2542 01af 00       		.uleb128 0
 2543 01b0 BF04     		.uleb128 .LEHB69-.LFB1108
 2544 01b2 05       		.uleb128 .LEHE69-.LEHB69
 2545 01b3 00       		.uleb128 0
 2546 01b4 00       		.uleb128 0
 2547              	.LLSDACSE1108:
 2548 01b5 01       		.byte	0x1
 2549 01b6 00       		.byte	0
 2550 01b7 00       		.align 4
 2551 01b8 00000000 		.long	0
 2552              	
 2553              	.LLSDATT1108:
 2554              		.text
 2556              		.section	.rodata
 2557              	.LC27:
 2558 03a4 43686563 		.string	"CheckEqualSucceedsOnEqual"
 2558      6B457175 
 2558      616C5375 
 2558      63636565 
 2558      64734F6E 
 2559              		.text
 2560 0f97 90       		.align 2
 2562              	_ZN12_GLOBAL__N_129TestCheckEqualSucceedsOnEqualC2Ev:
 2563              	.LFB1110:
  95:TestCheckMacros.cpp **** 
  96:TestCheckMacros.cpp **** TEST(CheckEqualSucceedsOnEqual)
 2564              		.loc 6 96 0
 2565              		.cfi_startproc
 2566 0f98 55       		pushq	%rbp
 2567              		.cfi_def_cfa_offset 16
 2568              		.cfi_offset 6, -16
 2569 0f99 4889E5   		movq	%rsp, %rbp
 2570              		.cfi_def_cfa_register 6
 2571 0f9c 4883EC10 		subq	$16, %rsp
 2572 0fa0 48897DF8 		movq	%rdi, -8(%rbp)
 2573              	.LBB38:
 2574              		.loc 6 96 0
 2575 0fa4 E8000000 		call	_ZN13UnitTestSuite12GetSuiteNameEv
 2575      00
 2576 0fa9 4889C2   		movq	%rax, %rdx
 2577 0fac 488B45F8 		movq	-8(%rbp), %rax
 2578 0fb0 41B86000 		movl	$96, %r8d
 2578      0000
 2579 0fb6 B9000000 		movl	$.LC2, %ecx
 2579      00
 2580 0fbb BE000000 		movl	$.LC27, %esi
 2580      00
 2581 0fc0 4889C7   		movq	%rax, %rdi
 2582 0fc3 E8000000 		call	_ZN8UnitTest4TestC2EPKcS2_S2_i
 2582      00
 2583 0fc8 488B45F8 		movq	-8(%rbp), %rax
 2584 0fcc 48C70000 		movq	$_ZTVN12_GLOBAL__N_129TestCheckEqualSucceedsOnEqualE+16, (%rax)
 2584      000000
 2585              	.LBE38:
 2586 0fd3 C9       		leave
 2587              		.cfi_def_cfa 7, 8
 2588 0fd4 C3       		ret
 2589              		.cfi_endproc
 2590              	.LFE1110:
 2592              		.local	_ZN12_GLOBAL__N_137testCheckEqualSucceedsOnEqualInstanceE
 2593              		.comm	_ZN12_GLOBAL__N_137testCheckEqualSucceedsOnEqualInstanceE,56,32
 2594              		.local	_ZN12_GLOBAL__N_130adderCheckEqualSucceedsOnEqualE
 2595              		.comm	_ZN12_GLOBAL__N_130adderCheckEqualSucceedsOnEqualE,1,1
 2596              		.section	.rodata
 2597 03be 0000     		.align 8
 2598              	.LC28:
 2599 03c0 556E6861 		.string	"Unhandled exception in CHECK_EQUAL(1, 1)"
 2599      6E646C65 
 2599      64206578 
 2599      63657074 
 2599      696F6E20 
 2600              		.text
 2601 0fd5 90       		.align 2
 2603              	_ZNK12_GLOBAL__N_129TestCheckEqualSucceedsOnEqual7RunImplEv:
 2604              	.LFB1112:
  97:TestCheckMacros.cpp **** {
 2605              		.loc 6 97 0
 2606              		.cfi_startproc
 2607              		.cfi_personality 0x3,__gxx_personality_v0
 2608              		.cfi_lsda 0x3,.LLSDA1112
 2609 0fd6 55       		pushq	%rbp
 2610              		.cfi_def_cfa_offset 16
 2611              		.cfi_offset 6, -16
 2612 0fd7 4889E5   		movq	%rsp, %rbp
 2613              		.cfi_def_cfa_register 6
 2614 0fda 53       		pushq	%rbx
 2615 0fdb 4881ECB8 		subq	$2232, %rsp
 2615      080000
 2616              		.cfi_offset 3, -24
 2617 0fe2 4889BD48 		movq	%rdi, -2232(%rbp)
 2617      F7FFFF
 2618              		.loc 6 97 0
 2619 0fe9 64488B04 		movq	%fs:40, %rax
 2619      25280000 
 2619      00
 2620 0ff2 488945E8 		movq	%rax, -24(%rbp)
 2621 0ff6 31C0     		xorl	%eax, %eax
 2622              	.LBB39:
  98:TestCheckMacros.cpp ****     bool failure = true;
 2623              		.loc 6 98 0
 2624 0ff8 C68557F7 		movb	$1, -2217(%rbp)
 2624      FFFF01
 2625              	.LBB40:
  99:TestCheckMacros.cpp ****     {
 100:TestCheckMacros.cpp ****         RecordingReporter reporter;
 2626              		.loc 6 100 0
 2627 0fff 488D85B0 		leaq	-2128(%rbp), %rax
 2627      F7FFFF
 2628 1006 4889C7   		movq	%rax, %rdi
 2629 1009 E8000000 		call	_ZN17RecordingReporterC1Ev
 2629      00
 101:TestCheckMacros.cpp ****         UnitTest::TestResults testResults(&reporter);
 2630              		.loc 6 101 0
 2631 100e 488D95B0 		leaq	-2128(%rbp), %rdx
 2631      F7FFFF
 2632 1015 488D8570 		leaq	-2192(%rbp), %rax
 2632      F7FFFF
 2633 101c 4889D6   		movq	%rdx, %rsi
 2634 101f 4889C7   		movq	%rax, %rdi
 2635              	.LEHB70:
 2636 1022 E8000000 		call	_ZN8UnitTest11TestResultsC1EPNS_12TestReporterE
 2636      00
 102:TestCheckMacros.cpp **** 		ScopedCurrentTest scopedResults(testResults);
 2637              		.loc 6 102 0
 2638 1027 488D8D70 		leaq	-2192(%rbp), %rcx
 2638      F7FFFF
 2639 102e 488D8560 		leaq	-2208(%rbp), %rax
 2639      F7FFFF
 2640 1035 BA000000 		movl	$0, %edx
 2640      00
 2641 103a 4889CE   		movq	%rcx, %rsi
 2642 103d 4889C7   		movq	%rax, %rdi
 2643 1040 E8000000 		call	_ZN17ScopedCurrentTestC1ERN8UnitTest11TestResultsEPKNS0_11TestDetailsE
 2643      00
 2644              	.LEHE70:
 2645              	.LEHB71:
 103:TestCheckMacros.cpp ****         CHECK_EQUAL(1, 1);
 2646              		.loc 6 103 0
 2647 1045 E8000000 		call	_ZN8UnitTest11CurrentTest7DetailsEv
 2647      00
 2648 104a 488B08   		movq	(%rax), %rcx
 2649 104d 488D8590 		leaq	-2160(%rbp), %rax
 2649      F7FFFF
 2650 1054 BA670000 		movl	$103, %edx
 2650      00
 2651 1059 4889CE   		movq	%rcx, %rsi
 2652 105c 4889C7   		movq	%rax, %rdi
 2653 105f E8000000 		call	_ZN8UnitTest11TestDetailsC1ERKS0_i
 2653      00
 2654              		.loc 6 103 0 is_stmt 0 discriminator 2
 2655 1064 C7855CF7 		movl	$1, -2212(%rbp)
 2655      FFFF0100 
 2655      0000
 2656 106e C78558F7 		movl	$1, -2216(%rbp)
 2656      FFFF0100 
 2656      0000
 2657 1078 E8000000 		call	_ZN8UnitTest11CurrentTest7ResultsEv
 2657      00
 2658 107d 488B00   		movq	(%rax), %rax
 2659 1080 488D8D90 		leaq	-2160(%rbp), %rcx
 2659      F7FFFF
 2660 1087 488D955C 		leaq	-2212(%rbp), %rdx
 2660      F7FFFF
 2661 108e 488DB558 		leaq	-2216(%rbp), %rsi
 2661      F7FFFF
 2662 1095 4889C7   		movq	%rax, %rdi
 2663 1098 E8000000 		call	_ZN8UnitTest10CheckEqualIiiEEvRNS_11TestResultsERKT_RKT0_RKNS_11TestDetailsE
 2663      00
 2664              	.LEHE71:
 2665              	.L131:
 104:TestCheckMacros.cpp ****         failure = (testResults.GetFailureCount() > 0);
 2666              		.loc 6 104 0 is_stmt 1
 2667 109d 488D8570 		leaq	-2192(%rbp), %rax
 2667      F7FFFF
 2668 10a4 4889C7   		movq	%rax, %rdi
 2669              	.LEHB72:
 2670 10a7 E8000000 		call	_ZNK8UnitTest11TestResults15GetFailureCountEv
 2670      00
 2671              	.LEHE72:
 2672 10ac 85C0     		testl	%eax, %eax
 2673 10ae 0F9FC0   		setg	%al
 2674 10b1 888557F7 		movb	%al, -2217(%rbp)
 2674      FFFF
 102:TestCheckMacros.cpp **** 		ScopedCurrentTest scopedResults(testResults);
 2675              		.loc 6 102 0
 2676 10b7 488D8560 		leaq	-2208(%rbp), %rax
 2676      F7FFFF
 2677 10be 4889C7   		movq	%rax, %rdi
 2678              	.LEHB73:
 2679 10c1 E8000000 		call	_ZN17ScopedCurrentTestD1Ev
 2679      00
 2680              	.LEHE73:
 2681              		.loc 6 104 0
 2682 10c6 488D85B0 		leaq	-2128(%rbp), %rax
 2682      F7FFFF
 2683 10cd 4889C7   		movq	%rax, %rdi
 2684              	.LEHB74:
 2685 10d0 E8000000 		call	_ZN17RecordingReporterD1Ev
 2685      00
 2686              	.LEHE74:
 2687              	.LBE40:
 105:TestCheckMacros.cpp ****     }
 106:TestCheckMacros.cpp **** 
 107:TestCheckMacros.cpp ****     CHECK(!failure);
 2688              		.loc 6 107 0
 2689 10d5 0FB68557 		movzbl	-2217(%rbp), %eax
 2689      F7FFFF
 2690 10dc 83F001   		xorl	$1, %eax
 2691 10df 0FB6C0   		movzbl	%al, %eax
 2692 10e2 89C7     		movl	%eax, %edi
 2693 10e4 E8000000 		call	_ZN8UnitTest5CheckIbEEbT_
 2693      00
 2694 10e9 83F001   		xorl	$1, %eax
 2695 10ec 84C0     		testb	%al, %al
 2696 10ee 0F842D01 		je	.L126
 2696      0000
 2697              	.LEHB75:
 2698              		.loc 6 107 0 is_stmt 0 discriminator 1
 2699 10f4 E8000000 		call	_ZN8UnitTest11CurrentTest7DetailsEv
 2699      00
 2700 10f9 488B08   		movq	(%rax), %rcx
 2701 10fc 488D8590 		leaq	-2160(%rbp), %rax
 2701      F7FFFF
 2702 1103 BA6B0000 		movl	$107, %edx
 2702      00
 2703 1108 4889CE   		movq	%rcx, %rsi
 2704 110b 4889C7   		movq	%rax, %rdi
 2705 110e E8000000 		call	_ZN8UnitTest11TestDetailsC1ERKS0_i
 2705      00
 2706              		.loc 6 107 0 discriminator 3
 2707 1113 E8000000 		call	_ZN8UnitTest11CurrentTest7ResultsEv
 2707      00
 2708 1118 488B00   		movq	(%rax), %rax
 2709 111b 488D8D90 		leaq	-2160(%rbp), %rcx
 2709      F7FFFF
 2710 1122 BA000000 		movl	$.LC5, %edx
 2710      00
 2711 1127 4889CE   		movq	%rcx, %rsi
 2712 112a 4889C7   		movq	%rax, %rdi
 2713 112d E8000000 		call	_ZN8UnitTest11TestResults13OnTestFailureERKNS_11TestDetailsEPKc
 2713      00
 2714              	.LEHE75:
 2715 1132 E9EA0000 		jmp	.L126
 2715      00
 2716              	.L139:
 2717 1137 4889C3   		movq	%rax, %rbx
 2718              	.LBB41:
 103:TestCheckMacros.cpp ****         failure = (testResults.GetFailureCount() > 0);
 2719              		.loc 6 103 0 is_stmt 1
 2720 113a E8000000 		call	__cxa_end_catch
 2720      00
 2721 113f EB53     		jmp	.L129
 2722              	.L137:
 2723 1141 4889C7   		movq	%rax, %rdi
 2724 1144 E8000000 		call	__cxa_begin_catch
 2724      00
 2725              	.LEHB76:
 2726 1149 E8000000 		call	_ZN8UnitTest11CurrentTest7DetailsEv
 2726      00
 2727 114e 488B08   		movq	(%rax), %rcx
 2728 1151 488D8590 		leaq	-2160(%rbp), %rax
 2728      F7FFFF
 2729 1158 BA670000 		movl	$103, %edx
 2729      00
 2730 115d 4889CE   		movq	%rcx, %rsi
 2731 1160 4889C7   		movq	%rax, %rdi
 2732 1163 E8000000 		call	_ZN8UnitTest11TestDetailsC1ERKS0_i
 2732      00
 103:TestCheckMacros.cpp ****         failure = (testResults.GetFailureCount() > 0);
 2733              		.loc 6 103 0 is_stmt 0 discriminator 10
 2734 1168 E8000000 		call	_ZN8UnitTest11CurrentTest7ResultsEv
 2734      00
 2735 116d 488B00   		movq	(%rax), %rax
 2736 1170 488D8D90 		leaq	-2160(%rbp), %rcx
 2736      F7FFFF
 2737 1177 BA000000 		movl	$.LC28, %edx
 2737      00
 2738 117c 4889CE   		movq	%rcx, %rsi
 2739 117f 4889C7   		movq	%rax, %rdi
 2740 1182 E8000000 		call	_ZN8UnitTest11TestResults13OnTestFailureERKNS_11TestDetailsEPKc
 2740      00
 2741              	.LEHE76:
 2742              	.LEHB77:
 103:TestCheckMacros.cpp ****         failure = (testResults.GetFailureCount() > 0);
 2743              		.loc 6 103 0 discriminator 14
 2744 1187 E8000000 		call	__cxa_end_catch
 2744      00
 2745              	.LEHE77:
 103:TestCheckMacros.cpp ****         failure = (testResults.GetFailureCount() > 0);
 2746              		.loc 6 103 0
 2747 118c E90CFFFF 		jmp	.L131
 2747      FF
 2748              	.L138:
 2749 1191 4889C3   		movq	%rax, %rbx
 2750              	.L129:
 102:TestCheckMacros.cpp ****         CHECK_EQUAL(1, 1);
 2751              		.loc 6 102 0 is_stmt 1
 2752 1194 488D8560 		leaq	-2208(%rbp), %rax
 2752      F7FFFF
 2753 119b 4889C7   		movq	%rax, %rdi
 2754 119e E8000000 		call	_ZN17ScopedCurrentTestD1Ev
 2754      00
 2755 11a3 EB03     		jmp	.L132
 2756              	.L136:
 2757 11a5 4889C3   		movq	%rax, %rbx
 2758              	.L132:
 104:TestCheckMacros.cpp ****     }
 2759              		.loc 6 104 0
 2760 11a8 488D85B0 		leaq	-2128(%rbp), %rax
 2760      F7FFFF
 2761 11af 4889C7   		movq	%rax, %rdi
 2762 11b2 E8000000 		call	_ZN17RecordingReporterD1Ev
 2762      00
 2763 11b7 4889D8   		movq	%rbx, %rax
 2764 11ba 4889C7   		movq	%rax, %rdi
 2765              	.LEHB78:
 2766 11bd E8000000 		call	_Unwind_Resume
 2766      00
 2767              	.LEHE78:
 2768              	.L141:
 2769 11c2 4889C3   		movq	%rax, %rbx
 2770              	.LBE41:
 2771              		.loc 6 107 0
 2772 11c5 E8000000 		call	__cxa_end_catch
 2772      00
 2773 11ca 4889D8   		movq	%rbx, %rax
 2774 11cd 4889C7   		movq	%rax, %rdi
 2775              	.LEHB79:
 2776 11d0 E8000000 		call	_Unwind_Resume
 2776      00
 2777              	.LEHE79:
 2778              	.L140:
 2779 11d5 4889C7   		movq	%rax, %rdi
 2780 11d8 E8000000 		call	__cxa_begin_catch
 2780      00
 2781              	.LEHB80:
 2782 11dd E8000000 		call	_ZN8UnitTest11CurrentTest7DetailsEv
 2782      00
 2783 11e2 488B08   		movq	(%rax), %rcx
 2784 11e5 488D8590 		leaq	-2160(%rbp), %rax
 2784      F7FFFF
 2785 11ec BA6B0000 		movl	$107, %edx
 2785      00
 2786 11f1 4889CE   		movq	%rcx, %rsi
 2787 11f4 4889C7   		movq	%rax, %rdi
 2788 11f7 E8000000 		call	_ZN8UnitTest11TestDetailsC1ERKS0_i
 2788      00
 2789              		.loc 6 107 0 is_stmt 0 discriminator 11
 2790 11fc E8000000 		call	_ZN8UnitTest11CurrentTest7ResultsEv
 2790      00
 2791 1201 488B00   		movq	(%rax), %rax
 2792 1204 488D8D90 		leaq	-2160(%rbp), %rcx
 2792      F7FFFF
 2793 120b BA000000 		movl	$.LC7, %edx
 2793      00
 2794 1210 4889CE   		movq	%rcx, %rsi
 2795 1213 4889C7   		movq	%rax, %rdi
 2796 1216 E8000000 		call	_ZN8UnitTest11TestResults13OnTestFailureERKNS_11TestDetailsEPKc
 2796      00
 2797              	.LEHE80:
 2798              	.LEHB81:
 2799              		.loc 6 107 0 discriminator 15
 2800 121b E8000000 		call	__cxa_end_catch
 2800      00
 2801              	.LEHE81:
 2802              	.LBE39:
 108:TestCheckMacros.cpp **** }
 2803              		.loc 6 108 0 is_stmt 1 discriminator 15
 2804 1220 90       		nop
 2805              	.L126:
 2806              		.loc 6 108 0 is_stmt 0
 2807 1221 488B45E8 		movq	-24(%rbp), %rax
 2808 1225 64483304 		xorq	%fs:40, %rax
 2808      25280000 
 2808      00
 2809 122e 7405     		je	.L135
 2810 1230 E8000000 		call	__stack_chk_fail
 2810      00
 2811              	.L135:
 2812 1235 4881C4B8 		addq	$2232, %rsp
 2812      080000
 2813 123c 5B       		popq	%rbx
 2814 123d 5D       		popq	%rbp
 2815              		.cfi_def_cfa 7, 8
 2816 123e C3       		ret
 2817              		.cfi_endproc
 2818              	.LFE1112:
 2819              		.section	.gcc_except_table
 2820              		.align 4
 2821              	.LLSDA1112:
 2822 01bc FF       		.byte	0xff
 2823 01bd 03       		.byte	0x3
 2824 01be 4D       		.uleb128 .LLSDATT1112-.LLSDATTD1112
 2825              	.LLSDATTD1112:
 2826 01bf 01       		.byte	0x1
 2827 01c0 42       		.uleb128 .LLSDACSE1112-.LLSDACSB1112
 2828              	.LLSDACSB1112:
 2829 01c1 4C       		.uleb128 .LEHB70-.LFB1112
 2830 01c2 23       		.uleb128 .LEHE70-.LEHB70
 2831 01c3 CF03     		.uleb128 .L136-.LFB1112
 2832 01c5 00       		.uleb128 0
 2833 01c6 6F       		.uleb128 .LEHB71-.LFB1112
 2834 01c7 58       		.uleb128 .LEHE71-.LEHB71
 2835 01c8 EB02     		.uleb128 .L137-.LFB1112
 2836 01ca 01       		.uleb128 0x1
 2837 01cb D101     		.uleb128 .LEHB72-.LFB1112
 2838 01cd 05       		.uleb128 .LEHE72-.LEHB72
 2839 01ce BB03     		.uleb128 .L138-.LFB1112
 2840 01d0 00       		.uleb128 0
 2841 01d1 EB01     		.uleb128 .LEHB73-.LFB1112
 2842 01d3 05       		.uleb128 .LEHE73-.LEHB73
 2843 01d4 CF03     		.uleb128 .L136-.LFB1112
 2844 01d6 00       		.uleb128 0
 2845 01d7 FA01     		.uleb128 .LEHB74-.LFB1112
 2846 01d9 05       		.uleb128 .LEHE74-.LEHB74
 2847 01da 00       		.uleb128 0
 2848 01db 00       		.uleb128 0
 2849 01dc 9E02     		.uleb128 .LEHB75-.LFB1112
 2850 01de 3E       		.uleb128 .LEHE75-.LEHB75
 2851 01df FF03     		.uleb128 .L140-.LFB1112
 2852 01e1 01       		.uleb128 0x1
 2853 01e2 F302     		.uleb128 .LEHB76-.LFB1112
 2854 01e4 3E       		.uleb128 .LEHE76-.LEHB76
 2855 01e5 E102     		.uleb128 .L139-.LFB1112
 2856 01e7 00       		.uleb128 0
 2857 01e8 B103     		.uleb128 .LEHB77-.LFB1112
 2858 01ea 05       		.uleb128 .LEHE77-.LEHB77
 2859 01eb BB03     		.uleb128 .L138-.LFB1112
 2860 01ed 00       		.uleb128 0
 2861 01ee E703     		.uleb128 .LEHB78-.LFB1112
 2862 01f0 05       		.uleb128 .LEHE78-.LEHB78
 2863 01f1 00       		.uleb128 0
 2864 01f2 00       		.uleb128 0
 2865 01f3 FA03     		.uleb128 .LEHB79-.LFB1112
 2866 01f5 05       		.uleb128 .LEHE79-.LEHB79
 2867 01f6 00       		.uleb128 0
 2868 01f7 00       		.uleb128 0
 2869 01f8 8704     		.uleb128 .LEHB80-.LFB1112
 2870 01fa 3E       		.uleb128 .LEHE80-.LEHB80
 2871 01fb EC03     		.uleb128 .L141-.LFB1112
 2872 01fd 00       		.uleb128 0
 2873 01fe C504     		.uleb128 .LEHB81-.LFB1112
 2874 0200 05       		.uleb128 .LEHE81-.LEHB81
 2875 0201 00       		.uleb128 0
 2876 0202 00       		.uleb128 0
 2877              	.LLSDACSE1112:
 2878 0203 01       		.byte	0x1
 2879 0204 00       		.byte	0
 2880 0205 000000   		.align 4
 2881 0208 00000000 		.long	0
 2882              	
 2883              	.LLSDATT1112:
 2884              		.text
 2886              		.section	.rodata
 2887              	.LC29:
 2888 03e9 43686563 		.string	"CheckEqualFailsOnNotEqual"
 2888      6B457175 
 2888      616C4661 
 2888      696C734F 
 2888      6E4E6F74 
 2889              		.text
 2890 123f 90       		.align 2
 2892              	_ZN12_GLOBAL__N_129TestCheckEqualFailsOnNotEqualC2Ev:
 2893              	.LFB1114:
 109:TestCheckMacros.cpp **** 
 110:TestCheckMacros.cpp **** TEST(CheckEqualFailsOnNotEqual)
 2894              		.loc 6 110 0 is_stmt 1
 2895              		.cfi_startproc
 2896 1240 55       		pushq	%rbp
 2897              		.cfi_def_cfa_offset 16
 2898              		.cfi_offset 6, -16
 2899 1241 4889E5   		movq	%rsp, %rbp
 2900              		.cfi_def_cfa_register 6
 2901 1244 4883EC10 		subq	$16, %rsp
 2902 1248 48897DF8 		movq	%rdi, -8(%rbp)
 2903              	.LBB42:
 2904              		.loc 6 110 0
 2905 124c E8000000 		call	_ZN13UnitTestSuite12GetSuiteNameEv
 2905      00
 2906 1251 4889C2   		movq	%rax, %rdx
 2907 1254 488B45F8 		movq	-8(%rbp), %rax
 2908 1258 41B86E00 		movl	$110, %r8d
 2908      0000
 2909 125e B9000000 		movl	$.LC2, %ecx
 2909      00
 2910 1263 BE000000 		movl	$.LC29, %esi
 2910      00
 2911 1268 4889C7   		movq	%rax, %rdi
 2912 126b E8000000 		call	_ZN8UnitTest4TestC2EPKcS2_S2_i
 2912      00
 2913 1270 488B45F8 		movq	-8(%rbp), %rax
 2914 1274 48C70000 		movq	$_ZTVN12_GLOBAL__N_129TestCheckEqualFailsOnNotEqualE+16, (%rax)
 2914      000000
 2915              	.LBE42:
 2916 127b C9       		leave
 2917              		.cfi_def_cfa 7, 8
 2918 127c C3       		ret
 2919              		.cfi_endproc
 2920              	.LFE1114:
 2922              		.local	_ZN12_GLOBAL__N_137testCheckEqualFailsOnNotEqualInstanceE
 2923              		.comm	_ZN12_GLOBAL__N_137testCheckEqualFailsOnNotEqualInstanceE,56,32
 2924              		.local	_ZN12_GLOBAL__N_130adderCheckEqualFailsOnNotEqualE
 2925              		.comm	_ZN12_GLOBAL__N_130adderCheckEqualFailsOnNotEqualE,1,1
 2926              		.section	.rodata
 2927 0403 00000000 		.align 8
 2927      00
 2928              	.LC30:
 2929 0408 556E6861 		.string	"Unhandled exception in CHECK_EQUAL(1, 2)"
 2929      6E646C65 
 2929      64206578 
 2929      63657074 
 2929      696F6E20 
 2930              		.text
 2931 127d 90       		.align 2
 2933              	_ZNK12_GLOBAL__N_129TestCheckEqualFailsOnNotEqual7RunImplEv:
 2934              	.LFB1116:
 111:TestCheckMacros.cpp **** {
 2935              		.loc 6 111 0
 2936              		.cfi_startproc
 2937              		.cfi_personality 0x3,__gxx_personality_v0
 2938              		.cfi_lsda 0x3,.LLSDA1116
 2939 127e 55       		pushq	%rbp
 2940              		.cfi_def_cfa_offset 16
 2941              		.cfi_offset 6, -16
 2942 127f 4889E5   		movq	%rsp, %rbp
 2943              		.cfi_def_cfa_register 6
 2944 1282 53       		pushq	%rbx
 2945 1283 4881ECB8 		subq	$2232, %rsp
 2945      080000
 2946              		.cfi_offset 3, -24
 2947 128a 4889BD48 		movq	%rdi, -2232(%rbp)
 2947      F7FFFF
 2948              		.loc 6 111 0
 2949 1291 64488B04 		movq	%fs:40, %rax
 2949      25280000 
 2949      00
 2950 129a 488945E8 		movq	%rax, -24(%rbp)
 2951 129e 31C0     		xorl	%eax, %eax
 2952              	.LBB43:
 112:TestCheckMacros.cpp ****     bool failure = false;
 2953              		.loc 6 112 0
 2954 12a0 C68557F7 		movb	$0, -2217(%rbp)
 2954      FFFF00
 2955              	.LBB44:
 113:TestCheckMacros.cpp ****     {
 114:TestCheckMacros.cpp ****         RecordingReporter reporter;
 2956              		.loc 6 114 0
 2957 12a7 488D85B0 		leaq	-2128(%rbp), %rax
 2957      F7FFFF
 2958 12ae 4889C7   		movq	%rax, %rdi
 2959 12b1 E8000000 		call	_ZN17RecordingReporterC1Ev
 2959      00
 115:TestCheckMacros.cpp ****         UnitTest::TestResults testResults(&reporter);
 2960              		.loc 6 115 0
 2961 12b6 488D95B0 		leaq	-2128(%rbp), %rdx
 2961      F7FFFF
 2962 12bd 488D8570 		leaq	-2192(%rbp), %rax
 2962      F7FFFF
 2963 12c4 4889D6   		movq	%rdx, %rsi
 2964 12c7 4889C7   		movq	%rax, %rdi
 2965              	.LEHB82:
 2966 12ca E8000000 		call	_ZN8UnitTest11TestResultsC1EPNS_12TestReporterE
 2966      00
 116:TestCheckMacros.cpp **** 		ScopedCurrentTest scopedResults(testResults);
 2967              		.loc 6 116 0
 2968 12cf 488D8D70 		leaq	-2192(%rbp), %rcx
 2968      F7FFFF
 2969 12d6 488D8560 		leaq	-2208(%rbp), %rax
 2969      F7FFFF
 2970 12dd BA000000 		movl	$0, %edx
 2970      00
 2971 12e2 4889CE   		movq	%rcx, %rsi
 2972 12e5 4889C7   		movq	%rax, %rdi
 2973 12e8 E8000000 		call	_ZN17ScopedCurrentTestC1ERN8UnitTest11TestResultsEPKNS0_11TestDetailsE
 2973      00
 2974              	.LEHE82:
 2975              	.LEHB83:
 117:TestCheckMacros.cpp ****         CHECK_EQUAL(1, 2);
 2976              		.loc 6 117 0
 2977 12ed E8000000 		call	_ZN8UnitTest11CurrentTest7DetailsEv
 2977      00
 2978 12f2 488B08   		movq	(%rax), %rcx
 2979 12f5 488D8590 		leaq	-2160(%rbp), %rax
 2979      F7FFFF
 2980 12fc BA750000 		movl	$117, %edx
 2980      00
 2981 1301 4889CE   		movq	%rcx, %rsi
 2982 1304 4889C7   		movq	%rax, %rdi
 2983 1307 E8000000 		call	_ZN8UnitTest11TestDetailsC1ERKS0_i
 2983      00
 2984              		.loc 6 117 0 is_stmt 0 discriminator 2
 2985 130c C7855CF7 		movl	$2, -2212(%rbp)
 2985      FFFF0200 
 2985      0000
 2986 1316 C78558F7 		movl	$1, -2216(%rbp)
 2986      FFFF0100 
 2986      0000
 2987 1320 E8000000 		call	_ZN8UnitTest11CurrentTest7ResultsEv
 2987      00
 2988 1325 488B00   		movq	(%rax), %rax
 2989 1328 488D8D90 		leaq	-2160(%rbp), %rcx
 2989      F7FFFF
 2990 132f 488D955C 		leaq	-2212(%rbp), %rdx
 2990      F7FFFF
 2991 1336 488DB558 		leaq	-2216(%rbp), %rsi
 2991      F7FFFF
 2992 133d 4889C7   		movq	%rax, %rdi
 2993 1340 E8000000 		call	_ZN8UnitTest10CheckEqualIiiEEvRNS_11TestResultsERKT_RKT0_RKNS_11TestDetailsE
 2993      00
 2994              	.LEHE83:
 2995              	.L148:
 118:TestCheckMacros.cpp ****         failure = (testResults.GetFailureCount() > 0);
 2996              		.loc 6 118 0 is_stmt 1
 2997 1345 488D8570 		leaq	-2192(%rbp), %rax
 2997      F7FFFF
 2998 134c 4889C7   		movq	%rax, %rdi
 2999              	.LEHB84:
 3000 134f E8000000 		call	_ZNK8UnitTest11TestResults15GetFailureCountEv
 3000      00
 3001              	.LEHE84:
 3002 1354 85C0     		testl	%eax, %eax
 3003 1356 0F9FC0   		setg	%al
 3004 1359 888557F7 		movb	%al, -2217(%rbp)
 3004      FFFF
 116:TestCheckMacros.cpp **** 		ScopedCurrentTest scopedResults(testResults);
 3005              		.loc 6 116 0
 3006 135f 488D8560 		leaq	-2208(%rbp), %rax
 3006      F7FFFF
 3007 1366 4889C7   		movq	%rax, %rdi
 3008              	.LEHB85:
 3009 1369 E8000000 		call	_ZN17ScopedCurrentTestD1Ev
 3009      00
 3010              	.LEHE85:
 3011              		.loc 6 118 0
 3012 136e 488D85B0 		leaq	-2128(%rbp), %rax
 3012      F7FFFF
 3013 1375 4889C7   		movq	%rax, %rdi
 3014              	.LEHB86:
 3015 1378 E8000000 		call	_ZN17RecordingReporterD1Ev
 3015      00
 3016              	.LEHE86:
 3017              	.LBE44:
 119:TestCheckMacros.cpp ****     }
 120:TestCheckMacros.cpp **** 
 121:TestCheckMacros.cpp ****     CHECK(failure);
 3018              		.loc 6 121 0
 3019 137d 0FB68557 		movzbl	-2217(%rbp), %eax
 3019      F7FFFF
 3020 1384 89C7     		movl	%eax, %edi
 3021 1386 E8000000 		call	_ZN8UnitTest5CheckIbEEbT_
 3021      00
 3022 138b 83F001   		xorl	$1, %eax
 3023 138e 84C0     		testb	%al, %al
 3024 1390 0F842D01 		je	.L143
 3024      0000
 3025              	.LEHB87:
 3026              		.loc 6 121 0 is_stmt 0 discriminator 1
 3027 1396 E8000000 		call	_ZN8UnitTest11CurrentTest7DetailsEv
 3027      00
 3028 139b 488B08   		movq	(%rax), %rcx
 3029 139e 488D8590 		leaq	-2160(%rbp), %rax
 3029      F7FFFF
 3030 13a5 BA790000 		movl	$121, %edx
 3030      00
 3031 13aa 4889CE   		movq	%rcx, %rsi
 3032 13ad 4889C7   		movq	%rax, %rdi
 3033 13b0 E8000000 		call	_ZN8UnitTest11TestDetailsC1ERKS0_i
 3033      00
 3034              		.loc 6 121 0 discriminator 3
 3035 13b5 E8000000 		call	_ZN8UnitTest11CurrentTest7ResultsEv
 3035      00
 3036 13ba 488B00   		movq	(%rax), %rax
 3037 13bd 488D8D90 		leaq	-2160(%rbp), %rcx
 3037      F7FFFF
 3038 13c4 BA000000 		movl	$.LC10, %edx
 3038      00
 3039 13c9 4889CE   		movq	%rcx, %rsi
 3040 13cc 4889C7   		movq	%rax, %rdi
 3041 13cf E8000000 		call	_ZN8UnitTest11TestResults13OnTestFailureERKNS_11TestDetailsEPKc
 3041      00
 3042              	.LEHE87:
 3043 13d4 E9EA0000 		jmp	.L143
 3043      00
 3044              	.L156:
 3045 13d9 4889C3   		movq	%rax, %rbx
 3046              	.LBB45:
 117:TestCheckMacros.cpp ****         failure = (testResults.GetFailureCount() > 0);
 3047              		.loc 6 117 0 is_stmt 1
 3048 13dc E8000000 		call	__cxa_end_catch
 3048      00
 3049 13e1 EB53     		jmp	.L146
 3050              	.L154:
 3051 13e3 4889C7   		movq	%rax, %rdi
 3052 13e6 E8000000 		call	__cxa_begin_catch
 3052      00
 3053              	.LEHB88:
 3054 13eb E8000000 		call	_ZN8UnitTest11CurrentTest7DetailsEv
 3054      00
 3055 13f0 488B08   		movq	(%rax), %rcx
 3056 13f3 488D8590 		leaq	-2160(%rbp), %rax
 3056      F7FFFF
 3057 13fa BA750000 		movl	$117, %edx
 3057      00
 3058 13ff 4889CE   		movq	%rcx, %rsi
 3059 1402 4889C7   		movq	%rax, %rdi
 3060 1405 E8000000 		call	_ZN8UnitTest11TestDetailsC1ERKS0_i
 3060      00
 117:TestCheckMacros.cpp ****         failure = (testResults.GetFailureCount() > 0);
 3061              		.loc 6 117 0 is_stmt 0 discriminator 10
 3062 140a E8000000 		call	_ZN8UnitTest11CurrentTest7ResultsEv
 3062      00
 3063 140f 488B00   		movq	(%rax), %rax
 3064 1412 488D8D90 		leaq	-2160(%rbp), %rcx
 3064      F7FFFF
 3065 1419 BA000000 		movl	$.LC30, %edx
 3065      00
 3066 141e 4889CE   		movq	%rcx, %rsi
 3067 1421 4889C7   		movq	%rax, %rdi
 3068 1424 E8000000 		call	_ZN8UnitTest11TestResults13OnTestFailureERKNS_11TestDetailsEPKc
 3068      00
 3069              	.LEHE88:
 3070              	.LEHB89:
 117:TestCheckMacros.cpp ****         failure = (testResults.GetFailureCount() > 0);
 3071              		.loc 6 117 0 discriminator 14
 3072 1429 E8000000 		call	__cxa_end_catch
 3072      00
 3073              	.LEHE89:
 117:TestCheckMacros.cpp ****         failure = (testResults.GetFailureCount() > 0);
 3074              		.loc 6 117 0
 3075 142e E912FFFF 		jmp	.L148
 3075      FF
 3076              	.L155:
 3077 1433 4889C3   		movq	%rax, %rbx
 3078              	.L146:
 116:TestCheckMacros.cpp ****         CHECK_EQUAL(1, 2);
 3079              		.loc 6 116 0 is_stmt 1
 3080 1436 488D8560 		leaq	-2208(%rbp), %rax
 3080      F7FFFF
 3081 143d 4889C7   		movq	%rax, %rdi
 3082 1440 E8000000 		call	_ZN17ScopedCurrentTestD1Ev
 3082      00
 3083 1445 EB03     		jmp	.L149
 3084              	.L153:
 3085 1447 4889C3   		movq	%rax, %rbx
 3086              	.L149:
 118:TestCheckMacros.cpp ****     }
 3087              		.loc 6 118 0
 3088 144a 488D85B0 		leaq	-2128(%rbp), %rax
 3088      F7FFFF
 3089 1451 4889C7   		movq	%rax, %rdi
 3090 1454 E8000000 		call	_ZN17RecordingReporterD1Ev
 3090      00
 3091 1459 4889D8   		movq	%rbx, %rax
 3092 145c 4889C7   		movq	%rax, %rdi
 3093              	.LEHB90:
 3094 145f E8000000 		call	_Unwind_Resume
 3094      00
 3095              	.LEHE90:
 3096              	.L158:
 3097 1464 4889C3   		movq	%rax, %rbx
 3098              	.LBE45:
 3099              		.loc 6 121 0
 3100 1467 E8000000 		call	__cxa_end_catch
 3100      00
 3101 146c 4889D8   		movq	%rbx, %rax
 3102 146f 4889C7   		movq	%rax, %rdi
 3103              	.LEHB91:
 3104 1472 E8000000 		call	_Unwind_Resume
 3104      00
 3105              	.LEHE91:
 3106              	.L157:
 3107 1477 4889C7   		movq	%rax, %rdi
 3108 147a E8000000 		call	__cxa_begin_catch
 3108      00
 3109              	.LEHB92:
 3110 147f E8000000 		call	_ZN8UnitTest11CurrentTest7DetailsEv
 3110      00
 3111 1484 488B08   		movq	(%rax), %rcx
 3112 1487 488D8590 		leaq	-2160(%rbp), %rax
 3112      F7FFFF
 3113 148e BA790000 		movl	$121, %edx
 3113      00
 3114 1493 4889CE   		movq	%rcx, %rsi
 3115 1496 4889C7   		movq	%rax, %rdi
 3116 1499 E8000000 		call	_ZN8UnitTest11TestDetailsC1ERKS0_i
 3116      00
 3117              		.loc 6 121 0 is_stmt 0 discriminator 11
 3118 149e E8000000 		call	_ZN8UnitTest11CurrentTest7ResultsEv
 3118      00
 3119 14a3 488B00   		movq	(%rax), %rax
 3120 14a6 488D8D90 		leaq	-2160(%rbp), %rcx
 3120      F7FFFF
 3121 14ad BA000000 		movl	$.LC12, %edx
 3121      00
 3122 14b2 4889CE   		movq	%rcx, %rsi
 3123 14b5 4889C7   		movq	%rax, %rdi
 3124 14b8 E8000000 		call	_ZN8UnitTest11TestResults13OnTestFailureERKNS_11TestDetailsEPKc
 3124      00
 3125              	.LEHE92:
 3126              	.LEHB93:
 3127              		.loc 6 121 0 discriminator 15
 3128 14bd E8000000 		call	__cxa_end_catch
 3128      00
 3129              	.LEHE93:
 3130              	.LBE43:
 122:TestCheckMacros.cpp **** }
 3131              		.loc 6 122 0 is_stmt 1 discriminator 15
 3132 14c2 90       		nop
 3133              	.L143:
 3134              		.loc 6 122 0 is_stmt 0
 3135 14c3 488B45E8 		movq	-24(%rbp), %rax
 3136 14c7 64483304 		xorq	%fs:40, %rax
 3136      25280000 
 3136      00
 3137 14d0 7405     		je	.L152
 3138 14d2 E8000000 		call	__stack_chk_fail
 3138      00
 3139              	.L152:
 3140 14d7 4881C4B8 		addq	$2232, %rsp
 3140      080000
 3141 14de 5B       		popq	%rbx
 3142 14df 5D       		popq	%rbp
 3143              		.cfi_def_cfa 7, 8
 3144 14e0 C3       		ret
 3145              		.cfi_endproc
 3146              	.LFE1116:
 3147              		.section	.gcc_except_table
 3148              		.align 4
 3149              	.LLSDA1116:
 3150 020c FF       		.byte	0xff
 3151 020d 03       		.byte	0x3
 3152 020e 4D       		.uleb128 .LLSDATT1116-.LLSDATTD1116
 3153              	.LLSDATTD1116:
 3154 020f 01       		.byte	0x1
 3155 0210 42       		.uleb128 .LLSDACSE1116-.LLSDACSB1116
 3156              	.LLSDACSB1116:
 3157 0211 4C       		.uleb128 .LEHB82-.LFB1116
 3158 0212 23       		.uleb128 .LEHE82-.LEHB82
 3159 0213 C903     		.uleb128 .L153-.LFB1116
 3160 0215 00       		.uleb128 0
 3161 0216 6F       		.uleb128 .LEHB83-.LFB1116
 3162 0217 58       		.uleb128 .LEHE83-.LEHB83
 3163 0218 E502     		.uleb128 .L154-.LFB1116
 3164 021a 01       		.uleb128 0x1
 3165 021b D101     		.uleb128 .LEHB84-.LFB1116
 3166 021d 05       		.uleb128 .LEHE84-.LEHB84
 3167 021e B503     		.uleb128 .L155-.LFB1116
 3168 0220 00       		.uleb128 0
 3169 0221 EB01     		.uleb128 .LEHB85-.LFB1116
 3170 0223 05       		.uleb128 .LEHE85-.LEHB85
 3171 0224 C903     		.uleb128 .L153-.LFB1116
 3172 0226 00       		.uleb128 0
 3173 0227 FA01     		.uleb128 .LEHB86-.LFB1116
 3174 0229 05       		.uleb128 .LEHE86-.LEHB86
 3175 022a 00       		.uleb128 0
 3176 022b 00       		.uleb128 0
 3177 022c 9802     		.uleb128 .LEHB87-.LFB1116
 3178 022e 3E       		.uleb128 .LEHE87-.LEHB87
 3179 022f F903     		.uleb128 .L157-.LFB1116
 3180 0231 01       		.uleb128 0x1
 3181 0232 ED02     		.uleb128 .LEHB88-.LFB1116
 3182 0234 3E       		.uleb128 .LEHE88-.LEHB88
 3183 0235 DB02     		.uleb128 .L156-.LFB1116
 3184 0237 00       		.uleb128 0
 3185 0238 AB03     		.uleb128 .LEHB89-.LFB1116
 3186 023a 05       		.uleb128 .LEHE89-.LEHB89
 3187 023b B503     		.uleb128 .L155-.LFB1116
 3188 023d 00       		.uleb128 0
 3189 023e E103     		.uleb128 .LEHB90-.LFB1116
 3190 0240 05       		.uleb128 .LEHE90-.LEHB90
 3191 0241 00       		.uleb128 0
 3192 0242 00       		.uleb128 0
 3193 0243 F403     		.uleb128 .LEHB91-.LFB1116
 3194 0245 05       		.uleb128 .LEHE91-.LEHB91
 3195 0246 00       		.uleb128 0
 3196 0247 00       		.uleb128 0
 3197 0248 8104     		.uleb128 .LEHB92-.LFB1116
 3198 024a 3E       		.uleb128 .LEHE92-.LEHB92
 3199 024b E603     		.uleb128 .L158-.LFB1116
 3200 024d 00       		.uleb128 0
 3201 024e BF04     		.uleb128 .LEHB93-.LFB1116
 3202 0250 05       		.uleb128 .LEHE93-.LEHB93
 3203 0251 00       		.uleb128 0
 3204 0252 00       		.uleb128 0
 3205              	.LLSDACSE1116:
 3206 0253 01       		.byte	0x1
 3207 0254 00       		.byte	0
 3208 0255 000000   		.align 4
 3209 0258 00000000 		.long	0
 3210              	
 3211              	.LLSDATT1116:
 3212              		.text
 3214              		.section	.rodata
 3215              	.LC31:
 3216 0431 43686563 		.string	"CheckEqualFailsOnException"
 3216      6B457175 
 3216      616C4661 
 3216      696C734F 
 3216      6E457863 
 3217              		.text
 3218 14e1 90       		.align 2
 3220              	_ZN12_GLOBAL__N_130TestCheckEqualFailsOnExceptionC2Ev:
 3221              	.LFB1118:
 123:TestCheckMacros.cpp **** 
 124:TestCheckMacros.cpp **** TEST(CheckEqualFailsOnException)
 3222              		.loc 6 124 0 is_stmt 1
 3223              		.cfi_startproc
 3224 14e2 55       		pushq	%rbp
 3225              		.cfi_def_cfa_offset 16
 3226              		.cfi_offset 6, -16
 3227 14e3 4889E5   		movq	%rsp, %rbp
 3228              		.cfi_def_cfa_register 6
 3229 14e6 4883EC10 		subq	$16, %rsp
 3230 14ea 48897DF8 		movq	%rdi, -8(%rbp)
 3231              	.LBB46:
 3232              		.loc 6 124 0
 3233 14ee E8000000 		call	_ZN13UnitTestSuite12GetSuiteNameEv
 3233      00
 3234 14f3 4889C2   		movq	%rax, %rdx
 3235 14f6 488B45F8 		movq	-8(%rbp), %rax
 3236 14fa 41B87C00 		movl	$124, %r8d
 3236      0000
 3237 1500 B9000000 		movl	$.LC2, %ecx
 3237      00
 3238 1505 BE000000 		movl	$.LC31, %esi
 3238      00
 3239 150a 4889C7   		movq	%rax, %rdi
 3240 150d E8000000 		call	_ZN8UnitTest4TestC2EPKcS2_S2_i
 3240      00
 3241 1512 488B45F8 		movq	-8(%rbp), %rax
 3242 1516 48C70000 		movq	$_ZTVN12_GLOBAL__N_130TestCheckEqualFailsOnExceptionE+16, (%rax)
 3242      000000
 3243              	.LBE46:
 3244 151d C9       		leave
 3245              		.cfi_def_cfa 7, 8
 3246 151e C3       		ret
 3247              		.cfi_endproc
 3248              	.LFE1118:
 3250              		.local	_ZN12_GLOBAL__N_138testCheckEqualFailsOnExceptionInstanceE
 3251              		.comm	_ZN12_GLOBAL__N_138testCheckEqualFailsOnExceptionInstanceE,56,32
 3252              		.local	_ZN12_GLOBAL__N_131adderCheckEqualFailsOnExceptionE
 3253              		.comm	_ZN12_GLOBAL__N_131adderCheckEqualFailsOnExceptionE,1,1
 3254              		.section	.rodata
 3255 044c 00000000 		.align 8
 3256              	.LC32:
 3257 0450 556E6861 		.string	"Unhandled exception in CHECK_EQUAL(ThrowingFunction(), 1)"
 3257      6E646C65 
 3257      64206578 
 3257      63657074 
 3257      696F6E20 
 3258              		.text
 3259 151f 90       		.align 2
 3261              	_ZNK12_GLOBAL__N_130TestCheckEqualFailsOnException7RunImplEv:
 3262              	.LFB1120:
 125:TestCheckMacros.cpp **** {
 3263              		.loc 6 125 0
 3264              		.cfi_startproc
 3265              		.cfi_personality 0x3,__gxx_personality_v0
 3266              		.cfi_lsda 0x3,.LLSDA1120
 3267 1520 55       		pushq	%rbp
 3268              		.cfi_def_cfa_offset 16
 3269              		.cfi_offset 6, -16
 3270 1521 4889E5   		movq	%rsp, %rbp
 3271              		.cfi_def_cfa_register 6
 3272 1524 53       		pushq	%rbx
 3273 1525 4881ECB8 		subq	$2232, %rsp
 3273      080000
 3274              		.cfi_offset 3, -24
 3275 152c 4889BD48 		movq	%rdi, -2232(%rbp)
 3275      F7FFFF
 3276              		.loc 6 125 0
 3277 1533 64488B04 		movq	%fs:40, %rax
 3277      25280000 
 3277      00
 3278 153c 488945E8 		movq	%rax, -24(%rbp)
 3279 1540 31C0     		xorl	%eax, %eax
 3280              	.LBB47:
 126:TestCheckMacros.cpp ****     bool failure = false;
 3281              		.loc 6 126 0
 3282 1542 C68557F7 		movb	$0, -2217(%rbp)
 3282      FFFF00
 3283              	.LBB48:
 127:TestCheckMacros.cpp ****     {
 128:TestCheckMacros.cpp ****         RecordingReporter reporter;
 3284              		.loc 6 128 0
 3285 1549 488D85B0 		leaq	-2128(%rbp), %rax
 3285      F7FFFF
 3286 1550 4889C7   		movq	%rax, %rdi
 3287 1553 E8000000 		call	_ZN17RecordingReporterC1Ev
 3287      00
 129:TestCheckMacros.cpp ****         UnitTest::TestResults testResults(&reporter);
 3288              		.loc 6 129 0
 3289 1558 488D95B0 		leaq	-2128(%rbp), %rdx
 3289      F7FFFF
 3290 155f 488D8570 		leaq	-2192(%rbp), %rax
 3290      F7FFFF
 3291 1566 4889D6   		movq	%rdx, %rsi
 3292 1569 4889C7   		movq	%rax, %rdi
 3293              	.LEHB94:
 3294 156c E8000000 		call	_ZN8UnitTest11TestResultsC1EPNS_12TestReporterE
 3294      00
 130:TestCheckMacros.cpp **** 		ScopedCurrentTest scopedResults(testResults);
 3295              		.loc 6 130 0
 3296 1571 488D8D70 		leaq	-2192(%rbp), %rcx
 3296      F7FFFF
 3297 1578 488D8560 		leaq	-2208(%rbp), %rax
 3297      F7FFFF
 3298 157f BA000000 		movl	$0, %edx
 3298      00
 3299 1584 4889CE   		movq	%rcx, %rsi
 3300 1587 4889C7   		movq	%rax, %rdi
 3301 158a E8000000 		call	_ZN17ScopedCurrentTestC1ERN8UnitTest11TestResultsEPKNS0_11TestDetailsE
 3301      00
 3302              	.LEHE94:
 3303              	.LEHB95:
 131:TestCheckMacros.cpp ****         CHECK_EQUAL(ThrowingFunction(), 1);
 3304              		.loc 6 131 0
 3305 158f E8000000 		call	_ZN8UnitTest11CurrentTest7DetailsEv
 3305      00
 3306 1594 488B08   		movq	(%rax), %rcx
 3307 1597 488D8590 		leaq	-2160(%rbp), %rax
 3307      F7FFFF
 3308 159e BA830000 		movl	$131, %edx
 3308      00
 3309 15a3 4889CE   		movq	%rcx, %rsi
 3310 15a6 4889C7   		movq	%rax, %rdi
 3311 15a9 E8000000 		call	_ZN8UnitTest11TestDetailsC1ERKS0_i
 3311      00
 3312              		.loc 6 131 0 is_stmt 0 discriminator 2
 3313 15ae C7855CF7 		movl	$1, -2212(%rbp)
 3313      FFFF0100 
 3313      0000
 3314 15b8 E87EF4FF 		call	_ZN12_GLOBAL__N_116ThrowingFunctionEv
 3314      FF
 3315 15bd 898558F7 		movl	%eax, -2216(%rbp)
 3315      FFFF
 3316 15c3 E8000000 		call	_ZN8UnitTest11CurrentTest7ResultsEv
 3316      00
 3317              		.loc 6 131 0 discriminator 4
 3318 15c8 488B00   		movq	(%rax), %rax
 3319 15cb 488D8D90 		leaq	-2160(%rbp), %rcx
 3319      F7FFFF
 3320 15d2 488D955C 		leaq	-2212(%rbp), %rdx
 3320      F7FFFF
 3321 15d9 488DB558 		leaq	-2216(%rbp), %rsi
 3321      F7FFFF
 3322 15e0 4889C7   		movq	%rax, %rdi
 3323 15e3 E8000000 		call	_ZN8UnitTest10CheckEqualIiiEEvRNS_11TestResultsERKT_RKT0_RKNS_11TestDetailsE
 3323      00
 3324              	.LEHE95:
 3325              	.L165:
 132:TestCheckMacros.cpp ****         failure = (testResults.GetFailureCount() > 0);
 3326              		.loc 6 132 0 is_stmt 1
 3327 15e8 488D8570 		leaq	-2192(%rbp), %rax
 3327      F7FFFF
 3328 15ef 4889C7   		movq	%rax, %rdi
 3329              	.LEHB96:
 3330 15f2 E8000000 		call	_ZNK8UnitTest11TestResults15GetFailureCountEv
 3330      00
 3331              	.LEHE96:
 3332 15f7 85C0     		testl	%eax, %eax
 3333 15f9 0F9FC0   		setg	%al
 3334 15fc 888557F7 		movb	%al, -2217(%rbp)
 3334      FFFF
 130:TestCheckMacros.cpp **** 		ScopedCurrentTest scopedResults(testResults);
 3335              		.loc 6 130 0
 3336 1602 488D8560 		leaq	-2208(%rbp), %rax
 3336      F7FFFF
 3337 1609 4889C7   		movq	%rax, %rdi
 3338              	.LEHB97:
 3339 160c E8000000 		call	_ZN17ScopedCurrentTestD1Ev
 3339      00
 3340              	.LEHE97:
 3341              		.loc 6 132 0
 3342 1611 488D85B0 		leaq	-2128(%rbp), %rax
 3342      F7FFFF
 3343 1618 4889C7   		movq	%rax, %rdi
 3344              	.LEHB98:
 3345 161b E8000000 		call	_ZN17RecordingReporterD1Ev
 3345      00
 3346              	.LEHE98:
 3347              	.LBE48:
 133:TestCheckMacros.cpp ****     }
 134:TestCheckMacros.cpp **** 
 135:TestCheckMacros.cpp ****     CHECK(failure);
 3348              		.loc 6 135 0
 3349 1620 0FB68557 		movzbl	-2217(%rbp), %eax
 3349      F7FFFF
 3350 1627 89C7     		movl	%eax, %edi
 3351 1629 E8000000 		call	_ZN8UnitTest5CheckIbEEbT_
 3351      00
 3352 162e 83F001   		xorl	$1, %eax
 3353 1631 84C0     		testb	%al, %al
 3354 1633 0F842D01 		je	.L160
 3354      0000
 3355              	.LEHB99:
 3356              		.loc 6 135 0 is_stmt 0 discriminator 1
 3357 1639 E8000000 		call	_ZN8UnitTest11CurrentTest7DetailsEv
 3357      00
 3358 163e 488B08   		movq	(%rax), %rcx
 3359 1641 488D8590 		leaq	-2160(%rbp), %rax
 3359      F7FFFF
 3360 1648 BA870000 		movl	$135, %edx
 3360      00
 3361 164d 4889CE   		movq	%rcx, %rsi
 3362 1650 4889C7   		movq	%rax, %rdi
 3363 1653 E8000000 		call	_ZN8UnitTest11TestDetailsC1ERKS0_i
 3363      00
 3364              		.loc 6 135 0 discriminator 3
 3365 1658 E8000000 		call	_ZN8UnitTest11CurrentTest7ResultsEv
 3365      00
 3366 165d 488B00   		movq	(%rax), %rax
 3367 1660 488D8D90 		leaq	-2160(%rbp), %rcx
 3367      F7FFFF
 3368 1667 BA000000 		movl	$.LC10, %edx
 3368      00
 3369 166c 4889CE   		movq	%rcx, %rsi
 3370 166f 4889C7   		movq	%rax, %rdi
 3371 1672 E8000000 		call	_ZN8UnitTest11TestResults13OnTestFailureERKNS_11TestDetailsEPKc
 3371      00
 3372              	.LEHE99:
 3373 1677 E9EA0000 		jmp	.L160
 3373      00
 3374              	.L173:
 3375 167c 4889C3   		movq	%rax, %rbx
 3376              	.LBB49:
 131:TestCheckMacros.cpp ****         failure = (testResults.GetFailureCount() > 0);
 3377              		.loc 6 131 0 is_stmt 1
 3378 167f E8000000 		call	__cxa_end_catch
 3378      00
 3379 1684 EB53     		jmp	.L163
 3380              	.L171:
 3381 1686 4889C7   		movq	%rax, %rdi
 3382 1689 E8000000 		call	__cxa_begin_catch
 3382      00
 3383              	.LEHB100:
 3384 168e E8000000 		call	_ZN8UnitTest11CurrentTest7DetailsEv
 3384      00
 3385 1693 488B08   		movq	(%rax), %rcx
 3386 1696 488D8590 		leaq	-2160(%rbp), %rax
 3386      F7FFFF
 3387 169d BA830000 		movl	$131, %edx
 3387      00
 3388 16a2 4889CE   		movq	%rcx, %rsi
 3389 16a5 4889C7   		movq	%rax, %rdi
 3390 16a8 E8000000 		call	_ZN8UnitTest11TestDetailsC1ERKS0_i
 3390      00
 131:TestCheckMacros.cpp ****         failure = (testResults.GetFailureCount() > 0);
 3391              		.loc 6 131 0 is_stmt 0 discriminator 12
 3392 16ad E8000000 		call	_ZN8UnitTest11CurrentTest7ResultsEv
 3392      00
 3393 16b2 488B00   		movq	(%rax), %rax
 3394 16b5 488D8D90 		leaq	-2160(%rbp), %rcx
 3394      F7FFFF
 3395 16bc BA000000 		movl	$.LC32, %edx
 3395      00
 3396 16c1 4889CE   		movq	%rcx, %rsi
 3397 16c4 4889C7   		movq	%rax, %rdi
 3398 16c7 E8000000 		call	_ZN8UnitTest11TestResults13OnTestFailureERKNS_11TestDetailsEPKc
 3398      00
 3399              	.LEHE100:
 3400              	.LEHB101:
 131:TestCheckMacros.cpp ****         failure = (testResults.GetFailureCount() > 0);
 3401              		.loc 6 131 0 discriminator 16
 3402 16cc E8000000 		call	__cxa_end_catch
 3402      00
 3403              	.LEHE101:
 131:TestCheckMacros.cpp ****         failure = (testResults.GetFailureCount() > 0);
 3404              		.loc 6 131 0
 3405 16d1 E912FFFF 		jmp	.L165
 3405      FF
 3406              	.L172:
 3407 16d6 4889C3   		movq	%rax, %rbx
 3408              	.L163:
 130:TestCheckMacros.cpp ****         CHECK_EQUAL(ThrowingFunction(), 1);
 3409              		.loc 6 130 0 is_stmt 1
 3410 16d9 488D8560 		leaq	-2208(%rbp), %rax
 3410      F7FFFF
 3411 16e0 4889C7   		movq	%rax, %rdi
 3412 16e3 E8000000 		call	_ZN17ScopedCurrentTestD1Ev
 3412      00
 3413 16e8 EB03     		jmp	.L166
 3414              	.L170:
 3415 16ea 4889C3   		movq	%rax, %rbx
 3416              	.L166:
 132:TestCheckMacros.cpp ****     }
 3417              		.loc 6 132 0
 3418 16ed 488D85B0 		leaq	-2128(%rbp), %rax
 3418      F7FFFF
 3419 16f4 4889C7   		movq	%rax, %rdi
 3420 16f7 E8000000 		call	_ZN17RecordingReporterD1Ev
 3420      00
 3421 16fc 4889D8   		movq	%rbx, %rax
 3422 16ff 4889C7   		movq	%rax, %rdi
 3423              	.LEHB102:
 3424 1702 E8000000 		call	_Unwind_Resume
 3424      00
 3425              	.LEHE102:
 3426              	.L175:
 3427 1707 4889C3   		movq	%rax, %rbx
 3428              	.LBE49:
 3429              		.loc 6 135 0
 3430 170a E8000000 		call	__cxa_end_catch
 3430      00
 3431 170f 4889D8   		movq	%rbx, %rax
 3432 1712 4889C7   		movq	%rax, %rdi
 3433              	.LEHB103:
 3434 1715 E8000000 		call	_Unwind_Resume
 3434      00
 3435              	.LEHE103:
 3436              	.L174:
 3437 171a 4889C7   		movq	%rax, %rdi
 3438 171d E8000000 		call	__cxa_begin_catch
 3438      00
 3439              	.LEHB104:
 3440 1722 E8000000 		call	_ZN8UnitTest11CurrentTest7DetailsEv
 3440      00
 3441 1727 488B08   		movq	(%rax), %rcx
 3442 172a 488D8590 		leaq	-2160(%rbp), %rax
 3442      F7FFFF
 3443 1731 BA870000 		movl	$135, %edx
 3443      00
 3444 1736 4889CE   		movq	%rcx, %rsi
 3445 1739 4889C7   		movq	%rax, %rdi
 3446 173c E8000000 		call	_ZN8UnitTest11TestDetailsC1ERKS0_i
 3446      00
 3447              		.loc 6 135 0 is_stmt 0 discriminator 11
 3448 1741 E8000000 		call	_ZN8UnitTest11CurrentTest7ResultsEv
 3448      00
 3449 1746 488B00   		movq	(%rax), %rax
 3450 1749 488D8D90 		leaq	-2160(%rbp), %rcx
 3450      F7FFFF
 3451 1750 BA000000 		movl	$.LC12, %edx
 3451      00
 3452 1755 4889CE   		movq	%rcx, %rsi
 3453 1758 4889C7   		movq	%rax, %rdi
 3454 175b E8000000 		call	_ZN8UnitTest11TestResults13OnTestFailureERKNS_11TestDetailsEPKc
 3454      00
 3455              	.LEHE104:
 3456              	.LEHB105:
 3457              		.loc 6 135 0 discriminator 15
 3458 1760 E8000000 		call	__cxa_end_catch
 3458      00
 3459              	.LEHE105:
 3460              	.LBE47:
 136:TestCheckMacros.cpp **** }
 3461              		.loc 6 136 0 is_stmt 1 discriminator 15
 3462 1765 90       		nop
 3463              	.L160:
 3464              		.loc 6 136 0 is_stmt 0
 3465 1766 488B45E8 		movq	-24(%rbp), %rax
 3466 176a 64483304 		xorq	%fs:40, %rax
 3466      25280000 
 3466      00
 3467 1773 7405     		je	.L169
 3468 1775 E8000000 		call	__stack_chk_fail
 3468      00
 3469              	.L169:
 3470 177a 4881C4B8 		addq	$2232, %rsp
 3470      080000
 3471 1781 5B       		popq	%rbx
 3472 1782 5D       		popq	%rbp
 3473              		.cfi_def_cfa 7, 8
 3474 1783 C3       		ret
 3475              		.cfi_endproc
 3476              	.LFE1120:
 3477              		.section	.gcc_except_table
 3478              		.align 4
 3479              	.LLSDA1120:
 3480 025c FF       		.byte	0xff
 3481 025d 03       		.byte	0x3
 3482 025e 4D       		.uleb128 .LLSDATT1120-.LLSDATTD1120
 3483              	.LLSDATTD1120:
 3484 025f 01       		.byte	0x1
 3485 0260 42       		.uleb128 .LLSDACSE1120-.LLSDACSB1120
 3486              	.LLSDACSB1120:
 3487 0261 4C       		.uleb128 .LEHB94-.LFB1120
 3488 0262 23       		.uleb128 .LEHE94-.LEHB94
 3489 0263 CA03     		.uleb128 .L170-.LFB1120
 3490 0265 00       		.uleb128 0
 3491 0266 6F       		.uleb128 .LEHB95-.LFB1120
 3492 0267 59       		.uleb128 .LEHE95-.LEHB95
 3493 0268 E602     		.uleb128 .L171-.LFB1120
 3494 026a 01       		.uleb128 0x1
 3495 026b D201     		.uleb128 .LEHB96-.LFB1120
 3496 026d 05       		.uleb128 .LEHE96-.LEHB96
 3497 026e B603     		.uleb128 .L172-.LFB1120
 3498 0270 00       		.uleb128 0
 3499 0271 EC01     		.uleb128 .LEHB97-.LFB1120
 3500 0273 05       		.uleb128 .LEHE97-.LEHB97
 3501 0274 CA03     		.uleb128 .L170-.LFB1120
 3502 0276 00       		.uleb128 0
 3503 0277 FB01     		.uleb128 .LEHB98-.LFB1120
 3504 0279 05       		.uleb128 .LEHE98-.LEHB98
 3505 027a 00       		.uleb128 0
 3506 027b 00       		.uleb128 0
 3507 027c 9902     		.uleb128 .LEHB99-.LFB1120
 3508 027e 3E       		.uleb128 .LEHE99-.LEHB99
 3509 027f FA03     		.uleb128 .L174-.LFB1120
 3510 0281 01       		.uleb128 0x1
 3511 0282 EE02     		.uleb128 .LEHB100-.LFB1120
 3512 0284 3E       		.uleb128 .LEHE100-.LEHB100
 3513 0285 DC02     		.uleb128 .L173-.LFB1120
 3514 0287 00       		.uleb128 0
 3515 0288 AC03     		.uleb128 .LEHB101-.LFB1120
 3516 028a 05       		.uleb128 .LEHE101-.LEHB101
 3517 028b B603     		.uleb128 .L172-.LFB1120
 3518 028d 00       		.uleb128 0
 3519 028e E203     		.uleb128 .LEHB102-.LFB1120
 3520 0290 05       		.uleb128 .LEHE102-.LEHB102
 3521 0291 00       		.uleb128 0
 3522 0292 00       		.uleb128 0
 3523 0293 F503     		.uleb128 .LEHB103-.LFB1120
 3524 0295 05       		.uleb128 .LEHE103-.LEHB103
 3525 0296 00       		.uleb128 0
 3526 0297 00       		.uleb128 0
 3527 0298 8204     		.uleb128 .LEHB104-.LFB1120
 3528 029a 3E       		.uleb128 .LEHE104-.LEHB104
 3529 029b E703     		.uleb128 .L175-.LFB1120
 3530 029d 00       		.uleb128 0
 3531 029e C004     		.uleb128 .LEHB105-.LFB1120
 3532 02a0 05       		.uleb128 .LEHE105-.LEHB105
 3533 02a1 00       		.uleb128 0
 3534 02a2 00       		.uleb128 0
 3535              	.LLSDACSE1120:
 3536 02a3 01       		.byte	0x1
 3537 02a4 00       		.byte	0
 3538 02a5 000000   		.align 4
 3539 02a8 00000000 		.long	0
 3540              	
 3541              	.LLSDATT1120:
 3542              		.text
 3544              		.section	.rodata
 3545 048a 00000000 		.align 8
 3545      0000
 3546              	.LC33:
 3547 0490 43686563 		.string	"CheckEqualFailureContainsCorrectDetails"
 3547      6B457175 
 3547      616C4661 
 3547      696C7572 
 3547      65436F6E 
 3548              		.text
 3549              		.align 2
 3551              	_ZN12_GLOBAL__N_143TestCheckEqualFailureContainsCorrectDetailsC2Ev:
 3552              	.LFB1122:
 137:TestCheckMacros.cpp **** 
 138:TestCheckMacros.cpp **** TEST(CheckEqualFailureContainsCorrectDetails)
 3553              		.loc 6 138 0 is_stmt 1
 3554              		.cfi_startproc
 3555 1784 55       		pushq	%rbp
 3556              		.cfi_def_cfa_offset 16
 3557              		.cfi_offset 6, -16
 3558 1785 4889E5   		movq	%rsp, %rbp
 3559              		.cfi_def_cfa_register 6
 3560 1788 4883EC10 		subq	$16, %rsp
 3561 178c 48897DF8 		movq	%rdi, -8(%rbp)
 3562              	.LBB50:
 3563              		.loc 6 138 0
 3564 1790 E8000000 		call	_ZN13UnitTestSuite12GetSuiteNameEv
 3564      00
 3565 1795 4889C2   		movq	%rax, %rdx
 3566 1798 488B45F8 		movq	-8(%rbp), %rax
 3567 179c 41B88A00 		movl	$138, %r8d
 3567      0000
 3568 17a2 B9000000 		movl	$.LC2, %ecx
 3568      00
 3569 17a7 BE000000 		movl	$.LC33, %esi
 3569      00
 3570 17ac 4889C7   		movq	%rax, %rdi
 3571 17af E8000000 		call	_ZN8UnitTest4TestC2EPKcS2_S2_i
 3571      00
 3572 17b4 488B45F8 		movq	-8(%rbp), %rax
 3573 17b8 48C70000 		movq	$_ZTVN12_GLOBAL__N_143TestCheckEqualFailureContainsCorrectDetailsE+16, (%rax)
 3573      000000
 3574              	.LBE50:
 3575 17bf C9       		leave
 3576              		.cfi_def_cfa 7, 8
 3577 17c0 C3       		ret
 3578              		.cfi_endproc
 3579              	.LFE1122:
 3581              		.local	_ZN12_GLOBAL__N_151testCheckEqualFailureContainsCorrectDetailsInstanceE
 3582              		.comm	_ZN12_GLOBAL__N_151testCheckEqualFailureContainsCorrectDetailsInstanceE,56,32
 3583              		.local	_ZN12_GLOBAL__N_144adderCheckEqualFailureContainsCorrectDetailsE
 3584              		.comm	_ZN12_GLOBAL__N_144adderCheckEqualFailureContainsCorrectDetailsE,1,1
 3585              		.section	.rodata
 3586              	.LC34:
 3587 04b8 66696C65 		.string	"filename"
 3587      6E616D65 
 3587      00
 3588              	.LC35:
 3589 04c1 73756974 		.string	"suiteName"
 3589      654E616D 
 3589      6500
 3590              	.LC36:
 3591 04cb 74657374 		.string	"testName"
 3591      4E616D65 
 3591      00
 3592 04d4 00000000 		.align 8
 3593              	.LC37:
 3594 04d8 556E6861 		.string	"Unhandled exception in CHECK_EQUAL(1, 123)"
 3594      6E646C65 
 3594      64206578 
 3594      63657074 
 3594      696F6E20 
 3595 0503 00000000 		.align 8
 3595      00
 3596              	.LC38:
 3597 0508 556E6861 		.string	"Unhandled exception in CHECK_EQUAL(\"testName\", reporter.lastFailedTest)"
 3597      6E646C65 
 3597      64206578 
 3597      63657074 
 3597      696F6E20 
 3598              		.align 8
 3599              	.LC39:
 3600 0550 556E6861 		.string	"Unhandled exception in CHECK_EQUAL(\"suiteName\", reporter.lastFailedSuite)"
 3600      6E646C65 
 3600      64206578 
 3600      63657074 
 3600      696F6E20 
 3601 059a 00000000 		.align 8
 3601      0000
 3602              	.LC40:
 3603 05a0 556E6861 		.string	"Unhandled exception in CHECK_EQUAL(\"filename\", reporter.lastFailedFile)"
 3603      6E646C65 
 3603      64206578 
 3603      63657074 
 3603      696F6E20 
 3604              		.align 8
 3605              	.LC41:
 3606 05e8 556E6861 		.string	"Unhandled exception in CHECK_EQUAL(line, reporter.lastFailedLine)"
 3606      6E646C65 
 3606      64206578 
 3606      63657074 
 3606      696F6E20 
 3607              		.text
 3608 17c1 90       		.align 2
 3610              	_ZNK12_GLOBAL__N_143TestCheckEqualFailureContainsCorrectDetails7RunImplEv:
 3611              	.LFB1124:
 139:TestCheckMacros.cpp **** {
 3612              		.loc 6 139 0
 3613              		.cfi_startproc
 3614              		.cfi_personality 0x3,__gxx_personality_v0
 3615              		.cfi_lsda 0x3,.LLSDA1124
 3616 17c2 55       		pushq	%rbp
 3617              		.cfi_def_cfa_offset 16
 3618              		.cfi_offset 6, -16
 3619 17c3 4889E5   		movq	%rsp, %rbp
 3620              		.cfi_def_cfa_register 6
 3621 17c6 53       		pushq	%rbx
 3622 17c7 4881ECD8 		subq	$2264, %rsp
 3622      080000
 3623              		.cfi_offset 3, -24
 3624 17ce 4889BD28 		movq	%rdi, -2264(%rbp)
 3624      F7FFFF
 3625              		.loc 6 139 0
 3626 17d5 64488B04 		movq	%fs:40, %rax
 3626      25280000 
 3626      00
 3627 17de 488945E8 		movq	%rax, -24(%rbp)
 3628 17e2 31C0     		xorl	%eax, %eax
 3629              	.LBB51:
 140:TestCheckMacros.cpp ****     int line = 0;
 3630              		.loc 6 140 0
 3631 17e4 C78534F7 		movl	$0, -2252(%rbp)
 3631      FFFF0000 
 3631      0000
 141:TestCheckMacros.cpp ****     RecordingReporter reporter;
 3632              		.loc 6 141 0
 3633 17ee 488D85B0 		leaq	-2128(%rbp), %rax
 3633      F7FFFF
 3634 17f5 4889C7   		movq	%rax, %rdi
 3635 17f8 E8000000 		call	_ZN17RecordingReporterC1Ev
 3635      00
 3636              	.LBB52:
 142:TestCheckMacros.cpp ****     {
 143:TestCheckMacros.cpp ****         UnitTest::TestResults testResults(&reporter);
 3637              		.loc 6 143 0
 3638 17fd 488D95B0 		leaq	-2128(%rbp), %rdx
 3638      F7FFFF
 3639 1804 488D8550 		leaq	-2224(%rbp), %rax
 3639      F7FFFF
 3640 180b 4889D6   		movq	%rdx, %rsi
 3641 180e 4889C7   		movq	%rax, %rdi
 3642              	.LEHB106:
 3643 1811 E8000000 		call	_ZN8UnitTest11TestResultsC1EPNS_12TestReporterE
 3643      00
 144:TestCheckMacros.cpp **** 		UnitTest::TestDetails const testDetails("testName", "suiteName", "filename", -1);
 3644              		.loc 6 144 0
 3645 1816 488D8570 		leaq	-2192(%rbp), %rax
 3645      F7FFFF
 3646 181d 41B8FFFF 		movl	$-1, %r8d
 3646      FFFF
 3647 1823 B9000000 		movl	$.LC34, %ecx
 3647      00
 3648 1828 BA000000 		movl	$.LC35, %edx
 3648      00
 3649 182d BE000000 		movl	$.LC36, %esi
 3649      00
 3650 1832 4889C7   		movq	%rax, %rdi
 3651 1835 E8000000 		call	_ZN8UnitTest11TestDetailsC1EPKcS2_S2_i
 3651      00
 145:TestCheckMacros.cpp **** 		ScopedCurrentTest scopedResults(testResults, &testDetails);
 3652              		.loc 6 145 0
 3653 183a 488D9570 		leaq	-2192(%rbp), %rdx
 3653      F7FFFF
 3654 1841 488D8D50 		leaq	-2224(%rbp), %rcx
 3654      F7FFFF
 3655 1848 488D8540 		leaq	-2240(%rbp), %rax
 3655      F7FFFF
 3656 184f 4889CE   		movq	%rcx, %rsi
 3657 1852 4889C7   		movq	%rax, %rdi
 3658 1855 E8000000 		call	_ZN17ScopedCurrentTestC1ERN8UnitTest11TestResultsEPKNS0_11TestDetailsE
 3658      00
 3659              	.LEHE106:
 3660              	.LEHB107:
 146:TestCheckMacros.cpp **** 
 147:TestCheckMacros.cpp **** 		CHECK_EQUAL(1, 123);    line = __LINE__;
 3661              		.loc 6 147 0
 3662 185a E8000000 		call	_ZN8UnitTest11CurrentTest7DetailsEv
 3662      00
 3663 185f 488B08   		movq	(%rax), %rcx
 3664 1862 488D8590 		leaq	-2160(%rbp), %rax
 3664      F7FFFF
 3665 1869 BA930000 		movl	$147, %edx
 3665      00
 3666 186e 4889CE   		movq	%rcx, %rsi
 3667 1871 4889C7   		movq	%rax, %rdi
 3668 1874 E8000000 		call	_ZN8UnitTest11TestDetailsC1ERKS0_i
 3668      00
 3669              		.loc 6 147 0 is_stmt 0 discriminator 2
 3670 1879 C7853CF7 		movl	$123, -2244(%rbp)
 3670      FFFF7B00 
 3670      0000
 3671 1883 C78538F7 		movl	$1, -2248(%rbp)
 3671      FFFF0100 
 3671      0000
 3672 188d E8000000 		call	_ZN8UnitTest11CurrentTest7ResultsEv
 3672      00
 3673 1892 488B00   		movq	(%rax), %rax
 3674 1895 488D8D90 		leaq	-2160(%rbp), %rcx
 3674      F7FFFF
 3675 189c 488D953C 		leaq	-2244(%rbp), %rdx
 3675      F7FFFF
 3676 18a3 488DB538 		leaq	-2248(%rbp), %rsi
 3676      F7FFFF
 3677 18aa 4889C7   		movq	%rax, %rdi
 3678 18ad E8000000 		call	_ZN8UnitTest10CheckEqualIiiEEvRNS_11TestResultsERKT_RKT0_RKNS_11TestDetailsE
 3678      00
 3679              	.LEHE107:
 3680              	.L181:
 3681              		.loc 6 147 0 discriminator 7
 3682 18b2 C78534F7 		movl	$147, -2252(%rbp)
 3682      FFFF9300 
 3682      0000
 3683 18bc 488D8540 		leaq	-2240(%rbp), %rax
 3683      F7FFFF
 3684 18c3 4889C7   		movq	%rax, %rdi
 3685              	.LEHB108:
 3686 18c6 E8000000 		call	_ZN17ScopedCurrentTestD1Ev
 3686      00
 3687              	.LEHE108:
 3688              	.LEHB109:
 3689              	.LBE52:
 148:TestCheckMacros.cpp ****     }
 149:TestCheckMacros.cpp **** 
 150:TestCheckMacros.cpp ****     CHECK_EQUAL("testName", reporter.lastFailedTest);
 3690              		.loc 6 150 0 is_stmt 1
 3691 18cb E8000000 		call	_ZN8UnitTest11CurrentTest7DetailsEv
 3691      00
 3692 18d0 488B08   		movq	(%rax), %rcx
 3693 18d3 488D8590 		leaq	-2160(%rbp), %rax
 3693      F7FFFF
 3694 18da BA960000 		movl	$150, %edx
 3694      00
 3695 18df 4889CE   		movq	%rcx, %rsi
 3696 18e2 4889C7   		movq	%rax, %rdi
 3697 18e5 E8000000 		call	_ZN8UnitTest11TestDetailsC1ERKS0_i
 3697      00
 3698              		.loc 6 150 0 is_stmt 0 discriminator 2
 3699 18ea E8000000 		call	_ZN8UnitTest11CurrentTest7ResultsEv
 3699      00
 3700 18ef 488B00   		movq	(%rax), %rax
 3701 18f2 488D9590 		leaq	-2160(%rbp), %rdx
 3701      F7FFFF
 3702 18f9 488D8DB0 		leaq	-2128(%rbp), %rcx
 3702      F7FFFF
 3703 1900 488DB114 		leaq	1044(%rcx), %rsi
 3703      040000
 3704 1907 4889D1   		movq	%rdx, %rcx
 3705 190a 4889F2   		movq	%rsi, %rdx
 3706 190d BE000000 		movl	$.LC36, %esi
 3706      00
 3707 1912 4889C7   		movq	%rax, %rdi
 3708 1915 E8000000 		call	_ZN8UnitTest10CheckEqualERNS_11TestResultsEPKcPcRKNS_11TestDetailsE
 3708      00
 3709              	.LEHE109:
 3710              	.L185:
 3711              	.LEHB110:
 151:TestCheckMacros.cpp ****     CHECK_EQUAL("suiteName", reporter.lastFailedSuite);
 3712              		.loc 6 151 0 is_stmt 1
 3713 191a E8000000 		call	_ZN8UnitTest11CurrentTest7DetailsEv
 3713      00
 3714 191f 488B08   		movq	(%rax), %rcx
 3715 1922 488D8590 		leaq	-2160(%rbp), %rax
 3715      F7FFFF
 3716 1929 BA970000 		movl	$151, %edx
 3716      00
 3717 192e 4889CE   		movq	%rcx, %rsi
 3718 1931 4889C7   		movq	%rax, %rdi
 3719 1934 E8000000 		call	_ZN8UnitTest11TestDetailsC1ERKS0_i
 3719      00
 3720              		.loc 6 151 0 is_stmt 0 discriminator 2
 3721 1939 E8000000 		call	_ZN8UnitTest11CurrentTest7ResultsEv
 3721      00
 3722 193e 488B00   		movq	(%rax), %rax
 3723 1941 488D9590 		leaq	-2160(%rbp), %rdx
 3723      F7FFFF
 3724 1948 488D8DB0 		leaq	-2128(%rbp), %rcx
 3724      F7FFFF
 3725 194f 488DB114 		leaq	788(%rcx), %rsi
 3725      030000
 3726 1956 4889D1   		movq	%rdx, %rcx
 3727 1959 4889F2   		movq	%rsi, %rdx
 3728 195c BE000000 		movl	$.LC35, %esi
 3728      00
 3729 1961 4889C7   		movq	%rax, %rdi
 3730 1964 E8000000 		call	_ZN8UnitTest10CheckEqualERNS_11TestResultsEPKcPcRKNS_11TestDetailsE
 3730      00
 3731              	.LEHE110:
 3732              	.L188:
 3733              	.LEHB111:
 152:TestCheckMacros.cpp ****     CHECK_EQUAL("filename", reporter.lastFailedFile);
 3734              		.loc 6 152 0 is_stmt 1
 3735 1969 E8000000 		call	_ZN8UnitTest11CurrentTest7DetailsEv
 3735      00
 3736 196e 488B08   		movq	(%rax), %rcx
 3737 1971 488D8590 		leaq	-2160(%rbp), %rax
 3737      F7FFFF
 3738 1978 BA980000 		movl	$152, %edx
 3738      00
 3739 197d 4889CE   		movq	%rcx, %rsi
 3740 1980 4889C7   		movq	%rax, %rdi
 3741 1983 E8000000 		call	_ZN8UnitTest11TestDetailsC1ERKS0_i
 3741      00
 3742              		.loc 6 152 0 is_stmt 0 discriminator 2
 3743 1988 E8000000 		call	_ZN8UnitTest11CurrentTest7ResultsEv
 3743      00
 3744 198d 488B00   		movq	(%rax), %rax
 3745 1990 488D9590 		leaq	-2160(%rbp), %rdx
 3745      F7FFFF
 3746 1997 488D8DB0 		leaq	-2128(%rbp), %rcx
 3746      F7FFFF
 3747 199e 488DB110 		leaq	528(%rcx), %rsi
 3747      020000
 3748 19a5 4889D1   		movq	%rdx, %rcx
 3749 19a8 4889F2   		movq	%rsi, %rdx
 3750 19ab BE000000 		movl	$.LC34, %esi
 3750      00
 3751 19b0 4889C7   		movq	%rax, %rdi
 3752 19b3 E8000000 		call	_ZN8UnitTest10CheckEqualERNS_11TestResultsEPKcPcRKNS_11TestDetailsE
 3752      00
 3753              	.LEHE111:
 3754              	.L191:
 3755              	.LEHB112:
 153:TestCheckMacros.cpp ****     CHECK_EQUAL(line, reporter.lastFailedLine);
 3756              		.loc 6 153 0 is_stmt 1
 3757 19b8 E8000000 		call	_ZN8UnitTest11CurrentTest7DetailsEv
 3757      00
 3758 19bd 488B08   		movq	(%rax), %rcx
 3759 19c0 488D8590 		leaq	-2160(%rbp), %rax
 3759      F7FFFF
 3760 19c7 BA990000 		movl	$153, %edx
 3760      00
 3761 19cc 4889CE   		movq	%rcx, %rsi
 3762 19cf 4889C7   		movq	%rax, %rdi
 3763 19d2 E8000000 		call	_ZN8UnitTest11TestDetailsC1ERKS0_i
 3763      00
 3764              		.loc 6 153 0 is_stmt 0 discriminator 2
 3765 19d7 E8000000 		call	_ZN8UnitTest11CurrentTest7ResultsEv
 3765      00
 3766 19dc 488B00   		movq	(%rax), %rax
 3767 19df 488D9590 		leaq	-2160(%rbp), %rdx
 3767      F7FFFF
 3768 19e6 488D8DB0 		leaq	-2128(%rbp), %rcx
 3768      F7FFFF
 3769 19ed 488DB910 		leaq	784(%rcx), %rdi
 3769      030000
 3770 19f4 488DB534 		leaq	-2252(%rbp), %rsi
 3770      F7FFFF
 3771 19fb 4889D1   		movq	%rdx, %rcx
 3772 19fe 4889FA   		movq	%rdi, %rdx
 3773 1a01 4889C7   		movq	%rax, %rdi
 3774 1a04 E8000000 		call	_ZN8UnitTest10CheckEqualIiiEEvRNS_11TestResultsERKT_RKT0_RKNS_11TestDetailsE
 3774      00
 3775              	.LEHE112:
 3776              	.L194:
 3777              		.loc 6 153 0 discriminator 7
 3778 1a09 488D85B0 		leaq	-2128(%rbp), %rax
 3778      F7FFFF
 3779 1a10 4889C7   		movq	%rax, %rdi
 3780              	.LEHB113:
 3781 1a13 E8000000 		call	_ZN17RecordingReporterD1Ev
 3781      00
 3782              	.LEHE113:
 3783              	.LBE51:
 154:TestCheckMacros.cpp **** }
 3784              		.loc 6 154 0 is_stmt 1 discriminator 7
 3785 1a18 488B45E8 		movq	-24(%rbp), %rax
 3786 1a1c 64483304 		xorq	%fs:40, %rax
 3786      25280000 
 3786      00
 3787 1a25 0F840902 		je	.L195
 3787      0000
 3788 1a2b E9FF0100 		jmp	.L208
 3788      00
 3789              	.L198:
 3790 1a30 4889C3   		movq	%rax, %rbx
 3791              	.LBB54:
 3792              	.LBB53:
 147:TestCheckMacros.cpp ****     }
 3793              		.loc 6 147 0
 3794 1a33 E8000000 		call	__cxa_end_catch
 3794      00
 3795 1a38 EB53     		jmp	.L179
 3796              	.L196:
 3797 1a3a 4889C7   		movq	%rax, %rdi
 3798 1a3d E8000000 		call	__cxa_begin_catch
 3798      00
 3799              	.LEHB114:
 3800 1a42 E8000000 		call	_ZN8UnitTest11CurrentTest7DetailsEv
 3800      00
 3801 1a47 488B08   		movq	(%rax), %rcx
 3802 1a4a 488D8590 		leaq	-2160(%rbp), %rax
 3802      F7FFFF
 3803 1a51 BA930000 		movl	$147, %edx
 3803      00
 3804 1a56 4889CE   		movq	%rcx, %rsi
 3805 1a59 4889C7   		movq	%rax, %rdi
 3806 1a5c E8000000 		call	_ZN8UnitTest11TestDetailsC1ERKS0_i
 3806      00
 147:TestCheckMacros.cpp ****     }
 3807              		.loc 6 147 0 is_stmt 0 discriminator 11
 3808 1a61 E8000000 		call	_ZN8UnitTest11CurrentTest7ResultsEv
 3808      00
 3809 1a66 488B00   		movq	(%rax), %rax
 3810 1a69 488D8D90 		leaq	-2160(%rbp), %rcx
 3810      F7FFFF
 3811 1a70 BA000000 		movl	$.LC37, %edx
 3811      00
 3812 1a75 4889CE   		movq	%rcx, %rsi
 3813 1a78 4889C7   		movq	%rax, %rdi
 3814 1a7b E8000000 		call	_ZN8UnitTest11TestResults13OnTestFailureERKNS_11TestDetailsEPKc
 3814      00
 3815              	.LEHE114:
 3816              	.LEHB115:
 147:TestCheckMacros.cpp ****     }
 3817              		.loc 6 147 0 discriminator 15
 3818 1a80 E8000000 		call	__cxa_end_catch
 3818      00
 3819              	.LEHE115:
 147:TestCheckMacros.cpp ****     }
 3820              		.loc 6 147 0
 3821 1a85 E928FEFF 		jmp	.L181
 3821      FF
 3822              	.L197:
 3823 1a8a 4889C3   		movq	%rax, %rbx
 3824              	.L179:
 147:TestCheckMacros.cpp ****     }
 3825              		.loc 6 147 0 discriminator 16
 3826 1a8d 488D8540 		leaq	-2240(%rbp), %rax
 3826      F7FFFF
 3827 1a94 4889C7   		movq	%rax, %rdi
 3828 1a97 E8000000 		call	_ZN17ScopedCurrentTestD1Ev
 3828      00
 3829 1a9c E9740100 		jmp	.L182
 3829      00
 3830              	.L201:
 3831 1aa1 4889C3   		movq	%rax, %rbx
 3832              	.LBE53:
 150:TestCheckMacros.cpp ****     CHECK_EQUAL("suiteName", reporter.lastFailedSuite);
 3833              		.loc 6 150 0 is_stmt 1
 3834 1aa4 E8000000 		call	__cxa_end_catch
 3834      00
 3835 1aa9 E9670100 		jmp	.L182
 3835      00
 3836              	.L200:
 3837 1aae 4889C7   		movq	%rax, %rdi
 3838 1ab1 E8000000 		call	__cxa_begin_catch
 3838      00
 3839              	.LEHB116:
 3840 1ab6 E8000000 		call	_ZN8UnitTest11CurrentTest7DetailsEv
 3840      00
 3841 1abb 488B08   		movq	(%rax), %rcx
 3842 1abe 488D8590 		leaq	-2160(%rbp), %rax
 3842      F7FFFF
 3843 1ac5 BA960000 		movl	$150, %edx
 3843      00
 3844 1aca 4889CE   		movq	%rcx, %rsi
 3845 1acd 4889C7   		movq	%rax, %rdi
 3846 1ad0 E8000000 		call	_ZN8UnitTest11TestDetailsC1ERKS0_i
 3846      00
 150:TestCheckMacros.cpp ****     CHECK_EQUAL("suiteName", reporter.lastFailedSuite);
 3847              		.loc 6 150 0 is_stmt 0 discriminator 10
 3848 1ad5 E8000000 		call	_ZN8UnitTest11CurrentTest7ResultsEv
 3848      00
 3849 1ada 488B00   		movq	(%rax), %rax
 3850 1add 488D8D90 		leaq	-2160(%rbp), %rcx
 3850      F7FFFF
 3851 1ae4 BA000000 		movl	$.LC38, %edx
 3851      00
 3852 1ae9 4889CE   		movq	%rcx, %rsi
 3853 1aec 4889C7   		movq	%rax, %rdi
 3854 1aef E8000000 		call	_ZN8UnitTest11TestResults13OnTestFailureERKNS_11TestDetailsEPKc
 3854      00
 3855              	.LEHE116:
 3856              	.LEHB117:
 150:TestCheckMacros.cpp ****     CHECK_EQUAL("suiteName", reporter.lastFailedSuite);
 3857              		.loc 6 150 0 discriminator 14
 3858 1af4 E8000000 		call	__cxa_end_catch
 3858      00
 3859              	.LEHE117:
 150:TestCheckMacros.cpp ****     CHECK_EQUAL("suiteName", reporter.lastFailedSuite);
 3860              		.loc 6 150 0
 3861 1af9 E91CFEFF 		jmp	.L185
 3861      FF
 3862              	.L203:
 3863 1afe 4889C3   		movq	%rax, %rbx
 151:TestCheckMacros.cpp ****     CHECK_EQUAL("filename", reporter.lastFailedFile);
 3864              		.loc 6 151 0 is_stmt 1
 3865 1b01 E8000000 		call	__cxa_end_catch
 3865      00
 3866 1b06 E90A0100 		jmp	.L182
 3866      00
 3867              	.L202:
 3868 1b0b 4889C7   		movq	%rax, %rdi
 3869 1b0e E8000000 		call	__cxa_begin_catch
 3869      00
 3870              	.LEHB118:
 3871 1b13 E8000000 		call	_ZN8UnitTest11CurrentTest7DetailsEv
 3871      00
 3872 1b18 488B08   		movq	(%rax), %rcx
 3873 1b1b 488D8590 		leaq	-2160(%rbp), %rax
 3873      F7FFFF
 3874 1b22 BA970000 		movl	$151, %edx
 3874      00
 3875 1b27 4889CE   		movq	%rcx, %rsi
 3876 1b2a 4889C7   		movq	%rax, %rdi
 3877 1b2d E8000000 		call	_ZN8UnitTest11TestDetailsC1ERKS0_i
 3877      00
 151:TestCheckMacros.cpp ****     CHECK_EQUAL("filename", reporter.lastFailedFile);
 3878              		.loc 6 151 0 is_stmt 0 discriminator 10
 3879 1b32 E8000000 		call	_ZN8UnitTest11CurrentTest7ResultsEv
 3879      00
 3880 1b37 488B00   		movq	(%rax), %rax
 3881 1b3a 488D8D90 		leaq	-2160(%rbp), %rcx
 3881      F7FFFF
 3882 1b41 BA000000 		movl	$.LC39, %edx
 3882      00
 3883 1b46 4889CE   		movq	%rcx, %rsi
 3884 1b49 4889C7   		movq	%rax, %rdi
 3885 1b4c E8000000 		call	_ZN8UnitTest11TestResults13OnTestFailureERKNS_11TestDetailsEPKc
 3885      00
 3886              	.LEHE118:
 3887              	.LEHB119:
 151:TestCheckMacros.cpp ****     CHECK_EQUAL("filename", reporter.lastFailedFile);
 3888              		.loc 6 151 0 discriminator 14
 3889 1b51 E8000000 		call	__cxa_end_catch
 3889      00
 3890              	.LEHE119:
 151:TestCheckMacros.cpp ****     CHECK_EQUAL("filename", reporter.lastFailedFile);
 3891              		.loc 6 151 0
 3892 1b56 E90EFEFF 		jmp	.L188
 3892      FF
 3893              	.L205:
 3894 1b5b 4889C3   		movq	%rax, %rbx
 152:TestCheckMacros.cpp ****     CHECK_EQUAL(line, reporter.lastFailedLine);
 3895              		.loc 6 152 0 is_stmt 1
 3896 1b5e E8000000 		call	__cxa_end_catch
 3896      00
 3897 1b63 E9AD0000 		jmp	.L182
 3897      00
 3898              	.L204:
 3899 1b68 4889C7   		movq	%rax, %rdi
 3900 1b6b E8000000 		call	__cxa_begin_catch
 3900      00
 3901              	.LEHB120:
 3902 1b70 E8000000 		call	_ZN8UnitTest11CurrentTest7DetailsEv
 3902      00
 3903 1b75 488B08   		movq	(%rax), %rcx
 3904 1b78 488D8590 		leaq	-2160(%rbp), %rax
 3904      F7FFFF
 3905 1b7f BA980000 		movl	$152, %edx
 3905      00
 3906 1b84 4889CE   		movq	%rcx, %rsi
 3907 1b87 4889C7   		movq	%rax, %rdi
 3908 1b8a E8000000 		call	_ZN8UnitTest11TestDetailsC1ERKS0_i
 3908      00
 152:TestCheckMacros.cpp ****     CHECK_EQUAL(line, reporter.lastFailedLine);
 3909              		.loc 6 152 0 is_stmt 0 discriminator 10
 3910 1b8f E8000000 		call	_ZN8UnitTest11CurrentTest7ResultsEv
 3910      00
 3911 1b94 488B00   		movq	(%rax), %rax
 3912 1b97 488D8D90 		leaq	-2160(%rbp), %rcx
 3912      F7FFFF
 3913 1b9e BA000000 		movl	$.LC40, %edx
 3913      00
 3914 1ba3 4889CE   		movq	%rcx, %rsi
 3915 1ba6 4889C7   		movq	%rax, %rdi
 3916 1ba9 E8000000 		call	_ZN8UnitTest11TestResults13OnTestFailureERKNS_11TestDetailsEPKc
 3916      00
 3917              	.LEHE120:
 3918              	.LEHB121:
 152:TestCheckMacros.cpp ****     CHECK_EQUAL(line, reporter.lastFailedLine);
 3919              		.loc 6 152 0 discriminator 14
 3920 1bae E8000000 		call	__cxa_end_catch
 3920      00
 3921              	.LEHE121:
 152:TestCheckMacros.cpp ****     CHECK_EQUAL(line, reporter.lastFailedLine);
 3922              		.loc 6 152 0
 3923 1bb3 E900FEFF 		jmp	.L191
 3923      FF
 3924              	.L207:
 3925 1bb8 4889C3   		movq	%rax, %rbx
 153:TestCheckMacros.cpp **** }
 3926              		.loc 6 153 0 is_stmt 1
 3927 1bbb E8000000 		call	__cxa_end_catch
 3927      00
 3928 1bc0 EB53     		jmp	.L182
 3929              	.L206:
 3930 1bc2 4889C7   		movq	%rax, %rdi
 3931 1bc5 E8000000 		call	__cxa_begin_catch
 3931      00
 3932              	.LEHB122:
 3933 1bca E8000000 		call	_ZN8UnitTest11CurrentTest7DetailsEv
 3933      00
 3934 1bcf 488B08   		movq	(%rax), %rcx
 3935 1bd2 488D8590 		leaq	-2160(%rbp), %rax
 3935      F7FFFF
 3936 1bd9 BA990000 		movl	$153, %edx
 3936      00
 3937 1bde 4889CE   		movq	%rcx, %rsi
 3938 1be1 4889C7   		movq	%rax, %rdi
 3939 1be4 E8000000 		call	_ZN8UnitTest11TestDetailsC1ERKS0_i
 3939      00
 153:TestCheckMacros.cpp **** }
 3940              		.loc 6 153 0 is_stmt 0 discriminator 11
 3941 1be9 E8000000 		call	_ZN8UnitTest11CurrentTest7ResultsEv
 3941      00
 3942 1bee 488B00   		movq	(%rax), %rax
 3943 1bf1 488D8D90 		leaq	-2160(%rbp), %rcx
 3943      F7FFFF
 3944 1bf8 BA000000 		movl	$.LC41, %edx
 3944      00
 3945 1bfd 4889CE   		movq	%rcx, %rsi
 3946 1c00 4889C7   		movq	%rax, %rdi
 3947 1c03 E8000000 		call	_ZN8UnitTest11TestResults13OnTestFailureERKNS_11TestDetailsEPKc
 3947      00
 3948              	.LEHE122:
 3949              	.LEHB123:
 153:TestCheckMacros.cpp **** }
 3950              		.loc 6 153 0 discriminator 15
 3951 1c08 E8000000 		call	__cxa_end_catch
 3951      00
 3952              	.LEHE123:
 153:TestCheckMacros.cpp **** }
 3953              		.loc 6 153 0
 3954 1c0d E9F7FDFF 		jmp	.L194
 3954      FF
 3955              	.L199:
 3956 1c12 4889C3   		movq	%rax, %rbx
 3957              	.L182:
 153:TestCheckMacros.cpp **** }
 3958              		.loc 6 153 0 discriminator 16
 3959 1c15 488D85B0 		leaq	-2128(%rbp), %rax
 3959      F7FFFF
 3960 1c1c 4889C7   		movq	%rax, %rdi
 3961 1c1f E8000000 		call	_ZN17RecordingReporterD1Ev
 3961      00
 3962 1c24 4889D8   		movq	%rbx, %rax
 3963 1c27 4889C7   		movq	%rax, %rdi
 3964              	.LEHB124:
 3965 1c2a E8000000 		call	_Unwind_Resume
 3965      00
 3966              	.LEHE124:
 3967              	.L208:
 3968              	.LBE54:
 3969              		.loc 6 154 0 is_stmt 1
 3970 1c2f E8000000 		call	__stack_chk_fail
 3970      00
 3971              	.L195:
 3972 1c34 4881C4D8 		addq	$2264, %rsp
 3972      080000
 3973 1c3b 5B       		popq	%rbx
 3974 1c3c 5D       		popq	%rbp
 3975              		.cfi_def_cfa 7, 8
 3976 1c3d C3       		ret
 3977              		.cfi_endproc
 3978              	.LFE1124:
 3979              		.section	.gcc_except_table
 3980              		.align 4
 3981              	.LLSDA1124:
 3982 02ac FF       		.byte	0xff
 3983 02ad 03       		.byte	0x3
 3984 02ae 79       		.uleb128 .LLSDATT1124-.LLSDATTD1124
 3985              	.LLSDATTD1124:
 3986 02af 01       		.byte	0x1
 3987 02b0 6F       		.uleb128 .LLSDACSE1124-.LLSDACSB1124
 3988              	.LLSDACSB1124:
 3989 02b1 4F       		.uleb128 .LEHB106-.LFB1124
 3990 02b2 49       		.uleb128 .LEHE106-.LEHB106
 3991 02b3 D008     		.uleb128 .L199-.LFB1124
 3992 02b5 00       		.uleb128 0
 3993 02b6 9801     		.uleb128 .LEHB107-.LFB1124
 3994 02b8 58       		.uleb128 .LEHE107-.LEHB107
 3995 02b9 F804     		.uleb128 .L196-.LFB1124
 3996 02bb 01       		.uleb128 0x1
 3997 02bc 8402     		.uleb128 .LEHB108-.LFB1124
 3998 02be 05       		.uleb128 .LEHE108-.LEHB108
 3999 02bf D008     		.uleb128 .L199-.LFB1124
 4000 02c1 00       		.uleb128 0
 4001 02c2 8902     		.uleb128 .LEHB109-.LFB1124
 4002 02c4 4F       		.uleb128 .LEHE109-.LEHB109
 4003 02c5 EC05     		.uleb128 .L200-.LFB1124
 4004 02c7 01       		.uleb128 0x1
 4005 02c8 D802     		.uleb128 .LEHB110-.LFB1124
 4006 02ca 4F       		.uleb128 .LEHE110-.LEHB110
 4007 02cb C906     		.uleb128 .L202-.LFB1124
 4008 02cd 01       		.uleb128 0x1
 4009 02ce A703     		.uleb128 .LEHB111-.LFB1124
 4010 02d0 4F       		.uleb128 .LEHE111-.LEHB111
 4011 02d1 A607     		.uleb128 .L204-.LFB1124
 4012 02d3 01       		.uleb128 0x1
 4013 02d4 F603     		.uleb128 .LEHB112-.LFB1124
 4014 02d6 51       		.uleb128 .LEHE112-.LEHB112
 4015 02d7 8008     		.uleb128 .L206-.LFB1124
 4016 02d9 01       		.uleb128 0x1
 4017 02da D104     		.uleb128 .LEHB113-.LFB1124
 4018 02dc 05       		.uleb128 .LEHE113-.LEHB113
 4019 02dd 00       		.uleb128 0
 4020 02de 00       		.uleb128 0
 4021 02df 8005     		.uleb128 .LEHB114-.LFB1124
 4022 02e1 3E       		.uleb128 .LEHE114-.LEHB114
 4023 02e2 EE04     		.uleb128 .L198-.LFB1124
 4024 02e4 00       		.uleb128 0
 4025 02e5 BE05     		.uleb128 .LEHB115-.LFB1124
 4026 02e7 05       		.uleb128 .LEHE115-.LEHB115
 4027 02e8 C805     		.uleb128 .L197-.LFB1124
 4028 02ea 00       		.uleb128 0
 4029 02eb F405     		.uleb128 .LEHB116-.LFB1124
 4030 02ed 3E       		.uleb128 .LEHE116-.LEHB116
 4031 02ee DF05     		.uleb128 .L201-.LFB1124
 4032 02f0 00       		.uleb128 0
 4033 02f1 B206     		.uleb128 .LEHB117-.LFB1124
 4034 02f3 05       		.uleb128 .LEHE117-.LEHB117
 4035 02f4 D008     		.uleb128 .L199-.LFB1124
 4036 02f6 00       		.uleb128 0
 4037 02f7 D106     		.uleb128 .LEHB118-.LFB1124
 4038 02f9 3E       		.uleb128 .LEHE118-.LEHB118
 4039 02fa BC06     		.uleb128 .L203-.LFB1124
 4040 02fc 00       		.uleb128 0
 4041 02fd 8F07     		.uleb128 .LEHB119-.LFB1124
 4042 02ff 05       		.uleb128 .LEHE119-.LEHB119
 4043 0300 D008     		.uleb128 .L199-.LFB1124
 4044 0302 00       		.uleb128 0
 4045 0303 AE07     		.uleb128 .LEHB120-.LFB1124
 4046 0305 3E       		.uleb128 .LEHE120-.LEHB120
 4047 0306 9907     		.uleb128 .L205-.LFB1124
 4048 0308 00       		.uleb128 0
 4049 0309 EC07     		.uleb128 .LEHB121-.LFB1124
 4050 030b 05       		.uleb128 .LEHE121-.LEHB121
 4051 030c D008     		.uleb128 .L199-.LFB1124
 4052 030e 00       		.uleb128 0
 4053 030f 8808     		.uleb128 .LEHB122-.LFB1124
 4054 0311 3E       		.uleb128 .LEHE122-.LEHB122
 4055 0312 F607     		.uleb128 .L207-.LFB1124
 4056 0314 00       		.uleb128 0
 4057 0315 C608     		.uleb128 .LEHB123-.LFB1124
 4058 0317 05       		.uleb128 .LEHE123-.LEHB123
 4059 0318 D008     		.uleb128 .L199-.LFB1124
 4060 031a 00       		.uleb128 0
 4061 031b E808     		.uleb128 .LEHB124-.LFB1124
 4062 031d 05       		.uleb128 .LEHE124-.LEHB124
 4063 031e 00       		.uleb128 0
 4064 031f 00       		.uleb128 0
 4065              	.LLSDACSE1124:
 4066 0320 01       		.byte	0x1
 4067 0321 00       		.byte	0
 4068 0322 0000     		.align 4
 4069 0324 00000000 		.long	0
 4070              	
 4071              	.LLSDATT1124:
 4072              		.text
 4074              		.section	.rodata
 4075 062a 00000000 		.align 8
 4075      0000
 4076              	.LC42:
 4077 0630 43686563 		.string	"CheckEqualFailureBecauseOfExceptionContainsCorrectDetails"
 4077      6B457175 
 4077      616C4661 
 4077      696C7572 
 4077      65426563 
 4078              		.text
 4079              		.align 2
 4081              	_ZN12_GLOBAL__N_161TestCheckEqualFailureBecauseOfExceptionContainsCorrectDetailsC2Ev:
 4082              	.LFB1126:
 155:TestCheckMacros.cpp **** 
 156:TestCheckMacros.cpp **** TEST(CheckEqualFailureBecauseOfExceptionContainsCorrectDetails)
 4083              		.loc 6 156 0
 4084              		.cfi_startproc
 4085 1c3e 55       		pushq	%rbp
 4086              		.cfi_def_cfa_offset 16
 4087              		.cfi_offset 6, -16
 4088 1c3f 4889E5   		movq	%rsp, %rbp
 4089              		.cfi_def_cfa_register 6
 4090 1c42 4883EC10 		subq	$16, %rsp
 4091 1c46 48897DF8 		movq	%rdi, -8(%rbp)
 4092              	.LBB55:
 4093              		.loc 6 156 0
 4094 1c4a E8000000 		call	_ZN13UnitTestSuite12GetSuiteNameEv
 4094      00
 4095 1c4f 4889C2   		movq	%rax, %rdx
 4096 1c52 488B45F8 		movq	-8(%rbp), %rax
 4097 1c56 41B89C00 		movl	$156, %r8d
 4097      0000
 4098 1c5c B9000000 		movl	$.LC2, %ecx
 4098      00
 4099 1c61 BE000000 		movl	$.LC42, %esi
 4099      00
 4100 1c66 4889C7   		movq	%rax, %rdi
 4101 1c69 E8000000 		call	_ZN8UnitTest4TestC2EPKcS2_S2_i
 4101      00
 4102 1c6e 488B45F8 		movq	-8(%rbp), %rax
 4103 1c72 48C70000 		movq	$_ZTVN12_GLOBAL__N_161TestCheckEqualFailureBecauseOfExceptionContainsCorrectDetailsE+16, (%ra
 4103      000000
 4104              	.LBE55:
 4105 1c79 C9       		leave
 4106              		.cfi_def_cfa 7, 8
 4107 1c7a C3       		ret
 4108              		.cfi_endproc
 4109              	.LFE1126:
 4111              		.local	_ZN12_GLOBAL__N_169testCheckEqualFailureBecauseOfExceptionContainsCorrectDetailsInstanceE
 4112              		.comm	_ZN12_GLOBAL__N_169testCheckEqualFailureBecauseOfExceptionContainsCorrectDetailsInstanceE,56
 4113              		.local	_ZN12_GLOBAL__N_162adderCheckEqualFailureBecauseOfExceptionContainsCorrectDetailsE
 4114              		.comm	_ZN12_GLOBAL__N_162adderCheckEqualFailureBecauseOfExceptionContainsCorrectDetailsE,1,1
 4115              		.section	.rodata
 4116 066a 00000000 		.align 8
 4116      0000
 4117              	.LC43:
 4118 0670 556E6861 		.string	"Unhandled exception in CHECK_EQUAL(ThrowingFunction(), 123)"
 4118      6E646C65 
 4118      64206578 
 4118      63657074 
 4118      696F6E20 
 4119              		.text
 4120 1c7b 90       		.align 2
 4122              	_ZNK12_GLOBAL__N_161TestCheckEqualFailureBecauseOfExceptionContainsCorrectDetails7RunImplEv:
 4123              	.LFB1128:
 157:TestCheckMacros.cpp **** {
 4124              		.loc 6 157 0
 4125              		.cfi_startproc
 4126              		.cfi_personality 0x3,__gxx_personality_v0
 4127              		.cfi_lsda 0x3,.LLSDA1128
 4128 1c7c 55       		pushq	%rbp
 4129              		.cfi_def_cfa_offset 16
 4130              		.cfi_offset 6, -16
 4131 1c7d 4889E5   		movq	%rsp, %rbp
 4132              		.cfi_def_cfa_register 6
 4133 1c80 53       		pushq	%rbx
 4134 1c81 4881ECD8 		subq	$2264, %rsp
 4134      080000
 4135              		.cfi_offset 3, -24
 4136 1c88 4889BD28 		movq	%rdi, -2264(%rbp)
 4136      F7FFFF
 4137              		.loc 6 157 0
 4138 1c8f 64488B04 		movq	%fs:40, %rax
 4138      25280000 
 4138      00
 4139 1c98 488945E8 		movq	%rax, -24(%rbp)
 4140 1c9c 31C0     		xorl	%eax, %eax
 4141              	.LBB56:
 158:TestCheckMacros.cpp ****     int line = 0;
 4142              		.loc 6 158 0
 4143 1c9e C78534F7 		movl	$0, -2252(%rbp)
 4143      FFFF0000 
 4143      0000
 159:TestCheckMacros.cpp ****     RecordingReporter reporter;
 4144              		.loc 6 159 0
 4145 1ca8 488D85B0 		leaq	-2128(%rbp), %rax
 4145      F7FFFF
 4146 1caf 4889C7   		movq	%rax, %rdi
 4147 1cb2 E8000000 		call	_ZN17RecordingReporterC1Ev
 4147      00
 4148              	.LBB57:
 160:TestCheckMacros.cpp ****     {
 161:TestCheckMacros.cpp ****         UnitTest::TestResults testResults(&reporter);
 4149              		.loc 6 161 0
 4150 1cb7 488D95B0 		leaq	-2128(%rbp), %rdx
 4150      F7FFFF
 4151 1cbe 488D8550 		leaq	-2224(%rbp), %rax
 4151      F7FFFF
 4152 1cc5 4889D6   		movq	%rdx, %rsi
 4153 1cc8 4889C7   		movq	%rax, %rdi
 4154              	.LEHB125:
 4155 1ccb E8000000 		call	_ZN8UnitTest11TestResultsC1EPNS_12TestReporterE
 4155      00
 162:TestCheckMacros.cpp **** 		UnitTest::TestDetails const testDetails("testName", "suiteName", "filename", -1);
 4156              		.loc 6 162 0
 4157 1cd0 488D8570 		leaq	-2192(%rbp), %rax
 4157      F7FFFF
 4158 1cd7 41B8FFFF 		movl	$-1, %r8d
 4158      FFFF
 4159 1cdd B9000000 		movl	$.LC34, %ecx
 4159      00
 4160 1ce2 BA000000 		movl	$.LC35, %edx
 4160      00
 4161 1ce7 BE000000 		movl	$.LC36, %esi
 4161      00
 4162 1cec 4889C7   		movq	%rax, %rdi
 4163 1cef E8000000 		call	_ZN8UnitTest11TestDetailsC1EPKcS2_S2_i
 4163      00
 163:TestCheckMacros.cpp **** 		ScopedCurrentTest scopedResults(testResults, &testDetails);
 4164              		.loc 6 163 0
 4165 1cf4 488D9570 		leaq	-2192(%rbp), %rdx
 4165      F7FFFF
 4166 1cfb 488D8D50 		leaq	-2224(%rbp), %rcx
 4166      F7FFFF
 4167 1d02 488D8540 		leaq	-2240(%rbp), %rax
 4167      F7FFFF
 4168 1d09 4889CE   		movq	%rcx, %rsi
 4169 1d0c 4889C7   		movq	%rax, %rdi
 4170 1d0f E8000000 		call	_ZN17ScopedCurrentTestC1ERN8UnitTest11TestResultsEPKNS0_11TestDetailsE
 4170      00
 4171              	.LEHE125:
 4172              	.LEHB126:
 164:TestCheckMacros.cpp **** 
 165:TestCheckMacros.cpp **** 		CHECK_EQUAL(ThrowingFunction(), 123);    line = __LINE__;
 4173              		.loc 6 165 0
 4174 1d14 E8000000 		call	_ZN8UnitTest11CurrentTest7DetailsEv
 4174      00
 4175 1d19 488B08   		movq	(%rax), %rcx
 4176 1d1c 488D8590 		leaq	-2160(%rbp), %rax
 4176      F7FFFF
 4177 1d23 BAA50000 		movl	$165, %edx
 4177      00
 4178 1d28 4889CE   		movq	%rcx, %rsi
 4179 1d2b 4889C7   		movq	%rax, %rdi
 4180 1d2e E8000000 		call	_ZN8UnitTest11TestDetailsC1ERKS0_i
 4180      00
 4181              		.loc 6 165 0 is_stmt 0 discriminator 2
 4182 1d33 C7853CF7 		movl	$123, -2244(%rbp)
 4182      FFFF7B00 
 4182      0000
 4183 1d3d E8F9ECFF 		call	_ZN12_GLOBAL__N_116ThrowingFunctionEv
 4183      FF
 4184 1d42 898538F7 		movl	%eax, -2248(%rbp)
 4184      FFFF
 4185 1d48 E8000000 		call	_ZN8UnitTest11CurrentTest7ResultsEv
 4185      00
 4186              		.loc 6 165 0 discriminator 4
 4187 1d4d 488B00   		movq	(%rax), %rax
 4188 1d50 488D8D90 		leaq	-2160(%rbp), %rcx
 4188      F7FFFF
 4189 1d57 488D953C 		leaq	-2244(%rbp), %rdx
 4189      F7FFFF
 4190 1d5e 488DB538 		leaq	-2248(%rbp), %rsi
 4190      F7FFFF
 4191 1d65 4889C7   		movq	%rax, %rdi
 4192 1d68 E8000000 		call	_ZN8UnitTest10CheckEqualIiiEEvRNS_11TestResultsERKT_RKT0_RKNS_11TestDetailsE
 4192      00
 4193              	.LEHE126:
 4194              	.L214:
 4195              		.loc 6 165 0 discriminator 9
 4196 1d6d C78534F7 		movl	$165, -2252(%rbp)
 4196      FFFFA500 
 4196      0000
 4197 1d77 488D8540 		leaq	-2240(%rbp), %rax
 4197      F7FFFF
 4198 1d7e 4889C7   		movq	%rax, %rdi
 4199              	.LEHB127:
 4200 1d81 E8000000 		call	_ZN17ScopedCurrentTestD1Ev
 4200      00
 4201              	.LEHE127:
 4202              	.LEHB128:
 4203              	.LBE57:
 166:TestCheckMacros.cpp ****     }
 167:TestCheckMacros.cpp **** 
 168:TestCheckMacros.cpp ****     CHECK_EQUAL("testName", reporter.lastFailedTest);
 4204              		.loc 6 168 0 is_stmt 1
 4205 1d86 E8000000 		call	_ZN8UnitTest11CurrentTest7DetailsEv
 4205      00
 4206 1d8b 488B08   		movq	(%rax), %rcx
 4207 1d8e 488D8590 		leaq	-2160(%rbp), %rax
 4207      F7FFFF
 4208 1d95 BAA80000 		movl	$168, %edx
 4208      00
 4209 1d9a 4889CE   		movq	%rcx, %rsi
 4210 1d9d 4889C7   		movq	%rax, %rdi
 4211 1da0 E8000000 		call	_ZN8UnitTest11TestDetailsC1ERKS0_i
 4211      00
 4212              		.loc 6 168 0 is_stmt 0 discriminator 2
 4213 1da5 E8000000 		call	_ZN8UnitTest11CurrentTest7ResultsEv
 4213      00
 4214 1daa 488B00   		movq	(%rax), %rax
 4215 1dad 488D9590 		leaq	-2160(%rbp), %rdx
 4215      F7FFFF
 4216 1db4 488D8DB0 		leaq	-2128(%rbp), %rcx
 4216      F7FFFF
 4217 1dbb 488DB114 		leaq	1044(%rcx), %rsi
 4217      040000
 4218 1dc2 4889D1   		movq	%rdx, %rcx
 4219 1dc5 4889F2   		movq	%rsi, %rdx
 4220 1dc8 BE000000 		movl	$.LC36, %esi
 4220      00
 4221 1dcd 4889C7   		movq	%rax, %rdi
 4222 1dd0 E8000000 		call	_ZN8UnitTest10CheckEqualERNS_11TestResultsEPKcPcRKNS_11TestDetailsE
 4222      00
 4223              	.LEHE128:
 4224              	.L218:
 4225              	.LEHB129:
 169:TestCheckMacros.cpp ****     CHECK_EQUAL("suiteName", reporter.lastFailedSuite);
 4226              		.loc 6 169 0 is_stmt 1
 4227 1dd5 E8000000 		call	_ZN8UnitTest11CurrentTest7DetailsEv
 4227      00
 4228 1dda 488B08   		movq	(%rax), %rcx
 4229 1ddd 488D8590 		leaq	-2160(%rbp), %rax
 4229      F7FFFF
 4230 1de4 BAA90000 		movl	$169, %edx
 4230      00
 4231 1de9 4889CE   		movq	%rcx, %rsi
 4232 1dec 4889C7   		movq	%rax, %rdi
 4233 1def E8000000 		call	_ZN8UnitTest11TestDetailsC1ERKS0_i
 4233      00
 4234              		.loc 6 169 0 is_stmt 0 discriminator 2
 4235 1df4 E8000000 		call	_ZN8UnitTest11CurrentTest7ResultsEv
 4235      00
 4236 1df9 488B00   		movq	(%rax), %rax
 4237 1dfc 488D9590 		leaq	-2160(%rbp), %rdx
 4237      F7FFFF
 4238 1e03 488D8DB0 		leaq	-2128(%rbp), %rcx
 4238      F7FFFF
 4239 1e0a 488DB114 		leaq	788(%rcx), %rsi
 4239      030000
 4240 1e11 4889D1   		movq	%rdx, %rcx
 4241 1e14 4889F2   		movq	%rsi, %rdx
 4242 1e17 BE000000 		movl	$.LC35, %esi
 4242      00
 4243 1e1c 4889C7   		movq	%rax, %rdi
 4244 1e1f E8000000 		call	_ZN8UnitTest10CheckEqualERNS_11TestResultsEPKcPcRKNS_11TestDetailsE
 4244      00
 4245              	.LEHE129:
 4246              	.L221:
 4247              	.LEHB130:
 170:TestCheckMacros.cpp ****     CHECK_EQUAL("filename", reporter.lastFailedFile);
 4248              		.loc 6 170 0 is_stmt 1
 4249 1e24 E8000000 		call	_ZN8UnitTest11CurrentTest7DetailsEv
 4249      00
 4250 1e29 488B08   		movq	(%rax), %rcx
 4251 1e2c 488D8590 		leaq	-2160(%rbp), %rax
 4251      F7FFFF
 4252 1e33 BAAA0000 		movl	$170, %edx
 4252      00
 4253 1e38 4889CE   		movq	%rcx, %rsi
 4254 1e3b 4889C7   		movq	%rax, %rdi
 4255 1e3e E8000000 		call	_ZN8UnitTest11TestDetailsC1ERKS0_i
 4255      00
 4256              		.loc 6 170 0 is_stmt 0 discriminator 2
 4257 1e43 E8000000 		call	_ZN8UnitTest11CurrentTest7ResultsEv
 4257      00
 4258 1e48 488B00   		movq	(%rax), %rax
 4259 1e4b 488D9590 		leaq	-2160(%rbp), %rdx
 4259      F7FFFF
 4260 1e52 488D8DB0 		leaq	-2128(%rbp), %rcx
 4260      F7FFFF
 4261 1e59 488DB110 		leaq	528(%rcx), %rsi
 4261      020000
 4262 1e60 4889D1   		movq	%rdx, %rcx
 4263 1e63 4889F2   		movq	%rsi, %rdx
 4264 1e66 BE000000 		movl	$.LC34, %esi
 4264      00
 4265 1e6b 4889C7   		movq	%rax, %rdi
 4266 1e6e E8000000 		call	_ZN8UnitTest10CheckEqualERNS_11TestResultsEPKcPcRKNS_11TestDetailsE
 4266      00
 4267              	.LEHE130:
 4268              	.L224:
 4269              	.LEHB131:
 171:TestCheckMacros.cpp ****     CHECK_EQUAL(line, reporter.lastFailedLine);
 4270              		.loc 6 171 0 is_stmt 1
 4271 1e73 E8000000 		call	_ZN8UnitTest11CurrentTest7DetailsEv
 4271      00
 4272 1e78 488B08   		movq	(%rax), %rcx
 4273 1e7b 488D8590 		leaq	-2160(%rbp), %rax
 4273      F7FFFF
 4274 1e82 BAAB0000 		movl	$171, %edx
 4274      00
 4275 1e87 4889CE   		movq	%rcx, %rsi
 4276 1e8a 4889C7   		movq	%rax, %rdi
 4277 1e8d E8000000 		call	_ZN8UnitTest11TestDetailsC1ERKS0_i
 4277      00
 4278              		.loc 6 171 0 is_stmt 0 discriminator 2
 4279 1e92 E8000000 		call	_ZN8UnitTest11CurrentTest7ResultsEv
 4279      00
 4280 1e97 488B00   		movq	(%rax), %rax
 4281 1e9a 488D9590 		leaq	-2160(%rbp), %rdx
 4281      F7FFFF
 4282 1ea1 488D8DB0 		leaq	-2128(%rbp), %rcx
 4282      F7FFFF
 4283 1ea8 488DB910 		leaq	784(%rcx), %rdi
 4283      030000
 4284 1eaf 488DB534 		leaq	-2252(%rbp), %rsi
 4284      F7FFFF
 4285 1eb6 4889D1   		movq	%rdx, %rcx
 4286 1eb9 4889FA   		movq	%rdi, %rdx
 4287 1ebc 4889C7   		movq	%rax, %rdi
 4288 1ebf E8000000 		call	_ZN8UnitTest10CheckEqualIiiEEvRNS_11TestResultsERKT_RKT0_RKNS_11TestDetailsE
 4288      00
 4289              	.LEHE131:
 4290              	.L227:
 4291              		.loc 6 171 0 discriminator 7
 4292 1ec4 488D85B0 		leaq	-2128(%rbp), %rax
 4292      F7FFFF
 4293 1ecb 4889C7   		movq	%rax, %rdi
 4294              	.LEHB132:
 4295 1ece E8000000 		call	_ZN17RecordingReporterD1Ev
 4295      00
 4296              	.LEHE132:
 4297              	.LBE56:
 172:TestCheckMacros.cpp **** }
 4298              		.loc 6 172 0 is_stmt 1 discriminator 7
 4299 1ed3 488B45E8 		movq	-24(%rbp), %rax
 4300 1ed7 64483304 		xorq	%fs:40, %rax
 4300      25280000 
 4300      00
 4301 1ee0 0F840902 		je	.L228
 4301      0000
 4302 1ee6 E9FF0100 		jmp	.L241
 4302      00
 4303              	.L231:
 4304 1eeb 4889C3   		movq	%rax, %rbx
 4305              	.LBB59:
 4306              	.LBB58:
 165:TestCheckMacros.cpp ****     }
 4307              		.loc 6 165 0
 4308 1eee E8000000 		call	__cxa_end_catch
 4308      00
 4309 1ef3 EB53     		jmp	.L212
 4310              	.L229:
 4311 1ef5 4889C7   		movq	%rax, %rdi
 4312 1ef8 E8000000 		call	__cxa_begin_catch
 4312      00
 4313              	.LEHB133:
 4314 1efd E8000000 		call	_ZN8UnitTest11CurrentTest7DetailsEv
 4314      00
 4315 1f02 488B08   		movq	(%rax), %rcx
 4316 1f05 488D8590 		leaq	-2160(%rbp), %rax
 4316      F7FFFF
 4317 1f0c BAA50000 		movl	$165, %edx
 4317      00
 4318 1f11 4889CE   		movq	%rcx, %rsi
 4319 1f14 4889C7   		movq	%rax, %rdi
 4320 1f17 E8000000 		call	_ZN8UnitTest11TestDetailsC1ERKS0_i
 4320      00
 165:TestCheckMacros.cpp ****     }
 4321              		.loc 6 165 0 is_stmt 0 discriminator 13
 4322 1f1c E8000000 		call	_ZN8UnitTest11CurrentTest7ResultsEv
 4322      00
 4323 1f21 488B00   		movq	(%rax), %rax
 4324 1f24 488D8D90 		leaq	-2160(%rbp), %rcx
 4324      F7FFFF
 4325 1f2b BA000000 		movl	$.LC43, %edx
 4325      00
 4326 1f30 4889CE   		movq	%rcx, %rsi
 4327 1f33 4889C7   		movq	%rax, %rdi
 4328 1f36 E8000000 		call	_ZN8UnitTest11TestResults13OnTestFailureERKNS_11TestDetailsEPKc
 4328      00
 4329              	.LEHE133:
 4330              	.LEHB134:
 165:TestCheckMacros.cpp ****     }
 4331              		.loc 6 165 0 discriminator 17
 4332 1f3b E8000000 		call	__cxa_end_catch
 4332      00
 4333              	.LEHE134:
 165:TestCheckMacros.cpp ****     }
 4334              		.loc 6 165 0
 4335 1f40 E928FEFF 		jmp	.L214
 4335      FF
 4336              	.L230:
 4337 1f45 4889C3   		movq	%rax, %rbx
 4338              	.L212:
 165:TestCheckMacros.cpp ****     }
 4339              		.loc 6 165 0 discriminator 18
 4340 1f48 488D8540 		leaq	-2240(%rbp), %rax
 4340      F7FFFF
 4341 1f4f 4889C7   		movq	%rax, %rdi
 4342 1f52 E8000000 		call	_ZN17ScopedCurrentTestD1Ev
 4342      00
 4343 1f57 E9740100 		jmp	.L215
 4343      00
 4344              	.L234:
 4345 1f5c 4889C3   		movq	%rax, %rbx
 4346              	.LBE58:
 168:TestCheckMacros.cpp ****     CHECK_EQUAL("suiteName", reporter.lastFailedSuite);
 4347              		.loc 6 168 0 is_stmt 1
 4348 1f5f E8000000 		call	__cxa_end_catch
 4348      00
 4349 1f64 E9670100 		jmp	.L215
 4349      00
 4350              	.L233:
 4351 1f69 4889C7   		movq	%rax, %rdi
 4352 1f6c E8000000 		call	__cxa_begin_catch
 4352      00
 4353              	.LEHB135:
 4354 1f71 E8000000 		call	_ZN8UnitTest11CurrentTest7DetailsEv
 4354      00
 4355 1f76 488B08   		movq	(%rax), %rcx
 4356 1f79 488D8590 		leaq	-2160(%rbp), %rax
 4356      F7FFFF
 4357 1f80 BAA80000 		movl	$168, %edx
 4357      00
 4358 1f85 4889CE   		movq	%rcx, %rsi
 4359 1f88 4889C7   		movq	%rax, %rdi
 4360 1f8b E8000000 		call	_ZN8UnitTest11TestDetailsC1ERKS0_i
 4360      00
 168:TestCheckMacros.cpp ****     CHECK_EQUAL("suiteName", reporter.lastFailedSuite);
 4361              		.loc 6 168 0 is_stmt 0 discriminator 10
 4362 1f90 E8000000 		call	_ZN8UnitTest11CurrentTest7ResultsEv
 4362      00
 4363 1f95 488B00   		movq	(%rax), %rax
 4364 1f98 488D8D90 		leaq	-2160(%rbp), %rcx
 4364      F7FFFF
 4365 1f9f BA000000 		movl	$.LC38, %edx
 4365      00
 4366 1fa4 4889CE   		movq	%rcx, %rsi
 4367 1fa7 4889C7   		movq	%rax, %rdi
 4368 1faa E8000000 		call	_ZN8UnitTest11TestResults13OnTestFailureERKNS_11TestDetailsEPKc
 4368      00
 4369              	.LEHE135:
 4370              	.LEHB136:
 168:TestCheckMacros.cpp ****     CHECK_EQUAL("suiteName", reporter.lastFailedSuite);
 4371              		.loc 6 168 0 discriminator 14
 4372 1faf E8000000 		call	__cxa_end_catch
 4372      00
 4373              	.LEHE136:
 168:TestCheckMacros.cpp ****     CHECK_EQUAL("suiteName", reporter.lastFailedSuite);
 4374              		.loc 6 168 0
 4375 1fb4 E91CFEFF 		jmp	.L218
 4375      FF
 4376              	.L236:
 4377 1fb9 4889C3   		movq	%rax, %rbx
 169:TestCheckMacros.cpp ****     CHECK_EQUAL("filename", reporter.lastFailedFile);
 4378              		.loc 6 169 0 is_stmt 1
 4379 1fbc E8000000 		call	__cxa_end_catch
 4379      00
 4380 1fc1 E90A0100 		jmp	.L215
 4380      00
 4381              	.L235:
 4382 1fc6 4889C7   		movq	%rax, %rdi
 4383 1fc9 E8000000 		call	__cxa_begin_catch
 4383      00
 4384              	.LEHB137:
 4385 1fce E8000000 		call	_ZN8UnitTest11CurrentTest7DetailsEv
 4385      00
 4386 1fd3 488B08   		movq	(%rax), %rcx
 4387 1fd6 488D8590 		leaq	-2160(%rbp), %rax
 4387      F7FFFF
 4388 1fdd BAA90000 		movl	$169, %edx
 4388      00
 4389 1fe2 4889CE   		movq	%rcx, %rsi
 4390 1fe5 4889C7   		movq	%rax, %rdi
 4391 1fe8 E8000000 		call	_ZN8UnitTest11TestDetailsC1ERKS0_i
 4391      00
 169:TestCheckMacros.cpp ****     CHECK_EQUAL("filename", reporter.lastFailedFile);
 4392              		.loc 6 169 0 is_stmt 0 discriminator 10
 4393 1fed E8000000 		call	_ZN8UnitTest11CurrentTest7ResultsEv
 4393      00
 4394 1ff2 488B00   		movq	(%rax), %rax
 4395 1ff5 488D8D90 		leaq	-2160(%rbp), %rcx
 4395      F7FFFF
 4396 1ffc BA000000 		movl	$.LC39, %edx
 4396      00
 4397 2001 4889CE   		movq	%rcx, %rsi
 4398 2004 4889C7   		movq	%rax, %rdi
 4399 2007 E8000000 		call	_ZN8UnitTest11TestResults13OnTestFailureERKNS_11TestDetailsEPKc
 4399      00
 4400              	.LEHE137:
 4401              	.LEHB138:
 169:TestCheckMacros.cpp ****     CHECK_EQUAL("filename", reporter.lastFailedFile);
 4402              		.loc 6 169 0 discriminator 14
 4403 200c E8000000 		call	__cxa_end_catch
 4403      00
 4404              	.LEHE138:
 169:TestCheckMacros.cpp ****     CHECK_EQUAL("filename", reporter.lastFailedFile);
 4405              		.loc 6 169 0
 4406 2011 E90EFEFF 		jmp	.L221
 4406      FF
 4407              	.L238:
 4408 2016 4889C3   		movq	%rax, %rbx
 170:TestCheckMacros.cpp ****     CHECK_EQUAL(line, reporter.lastFailedLine);
 4409              		.loc 6 170 0 is_stmt 1
 4410 2019 E8000000 		call	__cxa_end_catch
 4410      00
 4411 201e E9AD0000 		jmp	.L215
 4411      00
 4412              	.L237:
 4413 2023 4889C7   		movq	%rax, %rdi
 4414 2026 E8000000 		call	__cxa_begin_catch
 4414      00
 4415              	.LEHB139:
 4416 202b E8000000 		call	_ZN8UnitTest11CurrentTest7DetailsEv
 4416      00
 4417 2030 488B08   		movq	(%rax), %rcx
 4418 2033 488D8590 		leaq	-2160(%rbp), %rax
 4418      F7FFFF
 4419 203a BAAA0000 		movl	$170, %edx
 4419      00
 4420 203f 4889CE   		movq	%rcx, %rsi
 4421 2042 4889C7   		movq	%rax, %rdi
 4422 2045 E8000000 		call	_ZN8UnitTest11TestDetailsC1ERKS0_i
 4422      00
 170:TestCheckMacros.cpp ****     CHECK_EQUAL(line, reporter.lastFailedLine);
 4423              		.loc 6 170 0 is_stmt 0 discriminator 10
 4424 204a E8000000 		call	_ZN8UnitTest11CurrentTest7ResultsEv
 4424      00
 4425 204f 488B00   		movq	(%rax), %rax
 4426 2052 488D8D90 		leaq	-2160(%rbp), %rcx
 4426      F7FFFF
 4427 2059 BA000000 		movl	$.LC40, %edx
 4427      00
 4428 205e 4889CE   		movq	%rcx, %rsi
 4429 2061 4889C7   		movq	%rax, %rdi
 4430 2064 E8000000 		call	_ZN8UnitTest11TestResults13OnTestFailureERKNS_11TestDetailsEPKc
 4430      00
 4431              	.LEHE139:
 4432              	.LEHB140:
 170:TestCheckMacros.cpp ****     CHECK_EQUAL(line, reporter.lastFailedLine);
 4433              		.loc 6 170 0 discriminator 14
 4434 2069 E8000000 		call	__cxa_end_catch
 4434      00
 4435              	.LEHE140:
 170:TestCheckMacros.cpp ****     CHECK_EQUAL(line, reporter.lastFailedLine);
 4436              		.loc 6 170 0
 4437 206e E900FEFF 		jmp	.L224
 4437      FF
 4438              	.L240:
 4439 2073 4889C3   		movq	%rax, %rbx
 171:TestCheckMacros.cpp **** }
 4440              		.loc 6 171 0 is_stmt 1
 4441 2076 E8000000 		call	__cxa_end_catch
 4441      00
 4442 207b EB53     		jmp	.L215
 4443              	.L239:
 4444 207d 4889C7   		movq	%rax, %rdi
 4445 2080 E8000000 		call	__cxa_begin_catch
 4445      00
 4446              	.LEHB141:
 4447 2085 E8000000 		call	_ZN8UnitTest11CurrentTest7DetailsEv
 4447      00
 4448 208a 488B08   		movq	(%rax), %rcx
 4449 208d 488D8590 		leaq	-2160(%rbp), %rax
 4449      F7FFFF
 4450 2094 BAAB0000 		movl	$171, %edx
 4450      00
 4451 2099 4889CE   		movq	%rcx, %rsi
 4452 209c 4889C7   		movq	%rax, %rdi
 4453 209f E8000000 		call	_ZN8UnitTest11TestDetailsC1ERKS0_i
 4453      00
 171:TestCheckMacros.cpp **** }
 4454              		.loc 6 171 0 is_stmt 0 discriminator 11
 4455 20a4 E8000000 		call	_ZN8UnitTest11CurrentTest7ResultsEv
 4455      00
 4456 20a9 488B00   		movq	(%rax), %rax
 4457 20ac 488D8D90 		leaq	-2160(%rbp), %rcx
 4457      F7FFFF
 4458 20b3 BA000000 		movl	$.LC41, %edx
 4458      00
 4459 20b8 4889CE   		movq	%rcx, %rsi
 4460 20bb 4889C7   		movq	%rax, %rdi
 4461 20be E8000000 		call	_ZN8UnitTest11TestResults13OnTestFailureERKNS_11TestDetailsEPKc
 4461      00
 4462              	.LEHE141:
 4463              	.LEHB142:
 171:TestCheckMacros.cpp **** }
 4464              		.loc 6 171 0 discriminator 15
 4465 20c3 E8000000 		call	__cxa_end_catch
 4465      00
 4466              	.LEHE142:
 171:TestCheckMacros.cpp **** }
 4467              		.loc 6 171 0
 4468 20c8 E9F7FDFF 		jmp	.L227
 4468      FF
 4469              	.L232:
 4470 20cd 4889C3   		movq	%rax, %rbx
 4471              	.L215:
 171:TestCheckMacros.cpp **** }
 4472              		.loc 6 171 0 discriminator 16
 4473 20d0 488D85B0 		leaq	-2128(%rbp), %rax
 4473      F7FFFF
 4474 20d7 4889C7   		movq	%rax, %rdi
 4475 20da E8000000 		call	_ZN17RecordingReporterD1Ev
 4475      00
 4476 20df 4889D8   		movq	%rbx, %rax
 4477 20e2 4889C7   		movq	%rax, %rdi
 4478              	.LEHB143:
 4479 20e5 E8000000 		call	_Unwind_Resume
 4479      00
 4480              	.LEHE143:
 4481              	.L241:
 4482              	.LBE59:
 4483              		.loc 6 172 0 is_stmt 1
 4484 20ea E8000000 		call	__stack_chk_fail
 4484      00
 4485              	.L228:
 4486 20ef 4881C4D8 		addq	$2264, %rsp
 4486      080000
 4487 20f6 5B       		popq	%rbx
 4488 20f7 5D       		popq	%rbp
 4489              		.cfi_def_cfa 7, 8
 4490 20f8 C3       		ret
 4491              		.cfi_endproc
 4492              	.LFE1128:
 4493              		.section	.gcc_except_table
 4494              		.align 4
 4495              	.LLSDA1128:
 4496 0328 FF       		.byte	0xff
 4497 0329 03       		.byte	0x3
 4498 032a 79       		.uleb128 .LLSDATT1128-.LLSDATTD1128
 4499              	.LLSDATTD1128:
 4500 032b 01       		.byte	0x1
 4501 032c 6F       		.uleb128 .LLSDACSE1128-.LLSDACSB1128
 4502              	.LLSDACSB1128:
 4503 032d 4F       		.uleb128 .LEHB125-.LFB1128
 4504 032e 49       		.uleb128 .LEHE125-.LEHB125
 4505 032f D108     		.uleb128 .L232-.LFB1128
 4506 0331 00       		.uleb128 0
 4507 0332 9801     		.uleb128 .LEHB126-.LFB1128
 4508 0334 59       		.uleb128 .LEHE126-.LEHB126
 4509 0335 F904     		.uleb128 .L229-.LFB1128
 4510 0337 01       		.uleb128 0x1
 4511 0338 8502     		.uleb128 .LEHB127-.LFB1128
 4512 033a 05       		.uleb128 .LEHE127-.LEHB127
 4513 033b D108     		.uleb128 .L232-.LFB1128
 4514 033d 00       		.uleb128 0
 4515 033e 8A02     		.uleb128 .LEHB128-.LFB1128
 4516 0340 4F       		.uleb128 .LEHE128-.LEHB128
 4517 0341 ED05     		.uleb128 .L233-.LFB1128
 4518 0343 01       		.uleb128 0x1
 4519 0344 D902     		.uleb128 .LEHB129-.LFB1128
 4520 0346 4F       		.uleb128 .LEHE129-.LEHB129
 4521 0347 CA06     		.uleb128 .L235-.LFB1128
 4522 0349 01       		.uleb128 0x1
 4523 034a A803     		.uleb128 .LEHB130-.LFB1128
 4524 034c 4F       		.uleb128 .LEHE130-.LEHB130
 4525 034d A707     		.uleb128 .L237-.LFB1128
 4526 034f 01       		.uleb128 0x1
 4527 0350 F703     		.uleb128 .LEHB131-.LFB1128
 4528 0352 51       		.uleb128 .LEHE131-.LEHB131
 4529 0353 8108     		.uleb128 .L239-.LFB1128
 4530 0355 01       		.uleb128 0x1
 4531 0356 D204     		.uleb128 .LEHB132-.LFB1128
 4532 0358 05       		.uleb128 .LEHE132-.LEHB132
 4533 0359 00       		.uleb128 0
 4534 035a 00       		.uleb128 0
 4535 035b 8105     		.uleb128 .LEHB133-.LFB1128
 4536 035d 3E       		.uleb128 .LEHE133-.LEHB133
 4537 035e EF04     		.uleb128 .L231-.LFB1128
 4538 0360 00       		.uleb128 0
 4539 0361 BF05     		.uleb128 .LEHB134-.LFB1128
 4540 0363 05       		.uleb128 .LEHE134-.LEHB134
 4541 0364 C905     		.uleb128 .L230-.LFB1128
 4542 0366 00       		.uleb128 0
 4543 0367 F505     		.uleb128 .LEHB135-.LFB1128
 4544 0369 3E       		.uleb128 .LEHE135-.LEHB135
 4545 036a E005     		.uleb128 .L234-.LFB1128
 4546 036c 00       		.uleb128 0
 4547 036d B306     		.uleb128 .LEHB136-.LFB1128
 4548 036f 05       		.uleb128 .LEHE136-.LEHB136
 4549 0370 D108     		.uleb128 .L232-.LFB1128
 4550 0372 00       		.uleb128 0
 4551 0373 D206     		.uleb128 .LEHB137-.LFB1128
 4552 0375 3E       		.uleb128 .LEHE137-.LEHB137
 4553 0376 BD06     		.uleb128 .L236-.LFB1128
 4554 0378 00       		.uleb128 0
 4555 0379 9007     		.uleb128 .LEHB138-.LFB1128
 4556 037b 05       		.uleb128 .LEHE138-.LEHB138
 4557 037c D108     		.uleb128 .L232-.LFB1128
 4558 037e 00       		.uleb128 0
 4559 037f AF07     		.uleb128 .LEHB139-.LFB1128
 4560 0381 3E       		.uleb128 .LEHE139-.LEHB139
 4561 0382 9A07     		.uleb128 .L238-.LFB1128
 4562 0384 00       		.uleb128 0
 4563 0385 ED07     		.uleb128 .LEHB140-.LFB1128
 4564 0387 05       		.uleb128 .LEHE140-.LEHB140
 4565 0388 D108     		.uleb128 .L232-.LFB1128
 4566 038a 00       		.uleb128 0
 4567 038b 8908     		.uleb128 .LEHB141-.LFB1128
 4568 038d 3E       		.uleb128 .LEHE141-.LEHB141
 4569 038e F707     		.uleb128 .L240-.LFB1128
 4570 0390 00       		.uleb128 0
 4571 0391 C708     		.uleb128 .LEHB142-.LFB1128
 4572 0393 05       		.uleb128 .LEHE142-.LEHB142
 4573 0394 D108     		.uleb128 .L232-.LFB1128
 4574 0396 00       		.uleb128 0
 4575 0397 E908     		.uleb128 .LEHB143-.LFB1128
 4576 0399 05       		.uleb128 .LEHE143-.LEHB143
 4577 039a 00       		.uleb128 0
 4578 039b 00       		.uleb128 0
 4579              	.LLSDACSE1128:
 4580 039c 01       		.byte	0x1
 4581 039d 00       		.byte	0
 4582 039e 0000     		.align 4
 4583 03a0 00000000 		.long	0
 4584              	
 4585              	.LLSDATT1128:
 4586              		.text
 4588              		.section	.rodata
 4589 06ac 00000000 		.align 8
 4590              	.LC44:
 4591 06b0 43686563 		.string	"CheckEqualFailureBecauseOfExceptionIncludesCheckContents"
 4591      6B457175 
 4591      616C4661 
 4591      696C7572 
 4591      65426563 
 4592              		.text
 4593 20f9 90       		.align 2
 4595              	_ZN12_GLOBAL__N_160TestCheckEqualFailureBecauseOfExceptionIncludesCheckContentsC2Ev:
 4596              	.LFB1130:
 173:TestCheckMacros.cpp **** 
 174:TestCheckMacros.cpp **** TEST(CheckEqualFailureBecauseOfExceptionIncludesCheckContents)
 4597              		.loc 6 174 0
 4598              		.cfi_startproc
 4599 20fa 55       		pushq	%rbp
 4600              		.cfi_def_cfa_offset 16
 4601              		.cfi_offset 6, -16
 4602 20fb 4889E5   		movq	%rsp, %rbp
 4603              		.cfi_def_cfa_register 6
 4604 20fe 4883EC10 		subq	$16, %rsp
 4605 2102 48897DF8 		movq	%rdi, -8(%rbp)
 4606              	.LBB60:
 4607              		.loc 6 174 0
 4608 2106 E8000000 		call	_ZN13UnitTestSuite12GetSuiteNameEv
 4608      00
 4609 210b 4889C2   		movq	%rax, %rdx
 4610 210e 488B45F8 		movq	-8(%rbp), %rax
 4611 2112 41B8AE00 		movl	$174, %r8d
 4611      0000
 4612 2118 B9000000 		movl	$.LC2, %ecx
 4612      00
 4613 211d BE000000 		movl	$.LC44, %esi
 4613      00
 4614 2122 4889C7   		movq	%rax, %rdi
 4615 2125 E8000000 		call	_ZN8UnitTest4TestC2EPKcS2_S2_i
 4615      00
 4616 212a 488B45F8 		movq	-8(%rbp), %rax
 4617 212e 48C70000 		movq	$_ZTVN12_GLOBAL__N_160TestCheckEqualFailureBecauseOfExceptionIncludesCheckContentsE+16, (%rax
 4617      000000
 4618              	.LBE60:
 4619 2135 C9       		leave
 4620              		.cfi_def_cfa 7, 8
 4621 2136 C3       		ret
 4622              		.cfi_endproc
 4623              	.LFE1130:
 4625              		.local	_ZN12_GLOBAL__N_168testCheckEqualFailureBecauseOfExceptionIncludesCheckContentsInstanceE
 4626              		.comm	_ZN12_GLOBAL__N_168testCheckEqualFailureBecauseOfExceptionIncludesCheckContentsInstanceE,56,
 4627              		.local	_ZN12_GLOBAL__N_161adderCheckEqualFailureBecauseOfExceptionIncludesCheckContentsE
 4628              		.comm	_ZN12_GLOBAL__N_161adderCheckEqualFailureBecauseOfExceptionIncludesCheckContentsE,1,1
 4629              		.section	.rodata
 4630              	.LC45:
 4631 06e9 5468726F 		.string	"ThrowingFunction()"
 4631      77696E67 
 4631      46756E63 
 4631      74696F6E 
 4631      282900
 4632 06fc 00000000 		.align 8
 4633              	.LC46:
 4634 0700 73747273 		.string	"strstr(reporter.lastFailedMessage, \"ThrowingFunction()\")"
 4634      74722872 
 4634      65706F72 
 4634      7465722E 
 4634      6C617374 
 4635              	.LC47:
 4636 0739 31323300 		.string	"123"
 4637 073d 000000   		.align 8
 4638              	.LC48:
 4639 0740 73747273 		.string	"strstr(reporter.lastFailedMessage, \"123\")"
 4639      74722872 
 4639      65706F72 
 4639      7465722E 
 4639      6C617374 
 4640 076a 00000000 		.align 8
 4640      0000
 4641              	.LC49:
 4642 0770 556E6861 		.string	"Unhandled exception in CHECK(strstr(reporter.lastFailedMessage, \"ThrowingFunction()\"))"
 4642      6E646C65 
 4642      64206578 
 4642      63657074 
 4642      696F6E20 
 4643 07c7 00       		.align 8
 4644              	.LC50:
 4645 07c8 556E6861 		.string	"Unhandled exception in CHECK(strstr(reporter.lastFailedMessage, \"123\"))"
 4645      6E646C65 
 4645      64206578 
 4645      63657074 
 4645      696F6E20 
 4646              		.text
 4647 2137 90       		.align 2
 4649              	_ZNK12_GLOBAL__N_160TestCheckEqualFailureBecauseOfExceptionIncludesCheckContents7RunImplEv:
 4650              	.LFB1132:
 175:TestCheckMacros.cpp **** {
 4651              		.loc 6 175 0
 4652              		.cfi_startproc
 4653              		.cfi_personality 0x3,__gxx_personality_v0
 4654              		.cfi_lsda 0x3,.LLSDA1132
 4655 2138 55       		pushq	%rbp
 4656              		.cfi_def_cfa_offset 16
 4657              		.cfi_offset 6, -16
 4658 2139 4889E5   		movq	%rsp, %rbp
 4659              		.cfi_def_cfa_register 6
 4660 213c 53       		pushq	%rbx
 4661 213d 4881ECB8 		subq	$2232, %rsp
 4661      080000
 4662              		.cfi_offset 3, -24
 4663 2144 4889BD48 		movq	%rdi, -2232(%rbp)
 4663      F7FFFF
 4664              		.loc 6 175 0
 4665 214b 64488B04 		movq	%fs:40, %rax
 4665      25280000 
 4665      00
 4666 2154 488945E8 		movq	%rax, -24(%rbp)
 4667 2158 31C0     		xorl	%eax, %eax
 4668              	.LBB61:
 176:TestCheckMacros.cpp ****     RecordingReporter reporter;
 4669              		.loc 6 176 0
 4670 215a 488D85B0 		leaq	-2128(%rbp), %rax
 4670      F7FFFF
 4671 2161 4889C7   		movq	%rax, %rdi
 4672 2164 E8000000 		call	_ZN17RecordingReporterC1Ev
 4672      00
 4673              	.LBB62:
 177:TestCheckMacros.cpp ****     {
 178:TestCheckMacros.cpp ****         UnitTest::TestResults testResults(&reporter);
 4674              		.loc 6 178 0
 4675 2169 488D95B0 		leaq	-2128(%rbp), %rdx
 4675      F7FFFF
 4676 2170 488D8570 		leaq	-2192(%rbp), %rax
 4676      F7FFFF
 4677 2177 4889D6   		movq	%rdx, %rsi
 4678 217a 4889C7   		movq	%rax, %rdi
 4679              	.LEHB144:
 4680 217d E8000000 		call	_ZN8UnitTest11TestResultsC1EPNS_12TestReporterE
 4680      00
 179:TestCheckMacros.cpp **** 		ScopedCurrentTest scopedResults(testResults);
 4681              		.loc 6 179 0
 4682 2182 488D8D70 		leaq	-2192(%rbp), %rcx
 4682      F7FFFF
 4683 2189 488D8560 		leaq	-2208(%rbp), %rax
 4683      F7FFFF
 4684 2190 BA000000 		movl	$0, %edx
 4684      00
 4685 2195 4889CE   		movq	%rcx, %rsi
 4686 2198 4889C7   		movq	%rax, %rdi
 4687 219b E8000000 		call	_ZN17ScopedCurrentTestC1ERN8UnitTest11TestResultsEPKNS0_11TestDetailsE
 4687      00
 4688              	.LEHE144:
 4689              	.LEHB145:
 180:TestCheckMacros.cpp ****         CHECK_EQUAL(ThrowingFunction(), 123);
 4690              		.loc 6 180 0
 4691 21a0 E8000000 		call	_ZN8UnitTest11CurrentTest7DetailsEv
 4691      00
 4692 21a5 488B08   		movq	(%rax), %rcx
 4693 21a8 488D8590 		leaq	-2160(%rbp), %rax
 4693      F7FFFF
 4694 21af BAB40000 		movl	$180, %edx
 4694      00
 4695 21b4 4889CE   		movq	%rcx, %rsi
 4696 21b7 4889C7   		movq	%rax, %rdi
 4697 21ba E8000000 		call	_ZN8UnitTest11TestDetailsC1ERKS0_i
 4697      00
 4698              		.loc 6 180 0 is_stmt 0 discriminator 2
 4699 21bf C7855CF7 		movl	$123, -2212(%rbp)
 4699      FFFF7B00 
 4699      0000
 4700 21c9 E86DE8FF 		call	_ZN12_GLOBAL__N_116ThrowingFunctionEv
 4700      FF
 4701 21ce 898558F7 		movl	%eax, -2216(%rbp)
 4701      FFFF
 4702 21d4 E8000000 		call	_ZN8UnitTest11CurrentTest7ResultsEv
 4702      00
 4703              		.loc 6 180 0 discriminator 4
 4704 21d9 488B00   		movq	(%rax), %rax
 4705 21dc 488D8D90 		leaq	-2160(%rbp), %rcx
 4705      F7FFFF
 4706 21e3 488D955C 		leaq	-2212(%rbp), %rdx
 4706      F7FFFF
 4707 21ea 488DB558 		leaq	-2216(%rbp), %rsi
 4707      F7FFFF
 4708 21f1 4889C7   		movq	%rax, %rdi
 4709 21f4 E8000000 		call	_ZN8UnitTest10CheckEqualIiiEEvRNS_11TestResultsERKT_RKT0_RKNS_11TestDetailsE
 4709      00
 4710              	.LEHE145:
 4711              	.L249:
 4712              		.loc 6 180 0 discriminator 9
 4713 21f9 488D8560 		leaq	-2208(%rbp), %rax
 4713      F7FFFF
 4714 2200 4889C7   		movq	%rax, %rdi
 4715              	.LEHB146:
 4716 2203 E8000000 		call	_ZN17ScopedCurrentTestD1Ev
 4716      00
 4717              	.LEHE146:
 4718              	.LBE62:
 181:TestCheckMacros.cpp ****     }
 182:TestCheckMacros.cpp **** 
 183:TestCheckMacros.cpp ****     CHECK(strstr(reporter.lastFailedMessage, "ThrowingFunction()"));
 4719              		.loc 6 183 0 is_stmt 1
 4720 2208 488D85B0 		leaq	-2128(%rbp), %rax
 4720      F7FFFF
 4721 220f 48051405 		addq	$1300, %rax
 4721      0000
 4722 2215 BE000000 		movl	$.LC45, %esi
 4722      00
 4723 221a 4889C7   		movq	%rax, %rdi
 4724 221d E8000000 		call	strstr
 4724      00
 4725 2222 4889C7   		movq	%rax, %rdi
 4726 2225 E8000000 		call	_ZN8UnitTest5CheckIPcEEbT_
 4726      00
 4727 222a 83F001   		xorl	$1, %eax
 4728 222d 84C0     		testb	%al, %al
 4729 222f 743E     		je	.L244
 4730              	.LEHB147:
 4731              		.loc 6 183 0 is_stmt 0 discriminator 1
 4732 2231 E8000000 		call	_ZN8UnitTest11CurrentTest7DetailsEv
 4732      00
 4733 2236 488B08   		movq	(%rax), %rcx
 4734 2239 488D8590 		leaq	-2160(%rbp), %rax
 4734      F7FFFF
 4735 2240 BAB70000 		movl	$183, %edx
 4735      00
 4736 2245 4889CE   		movq	%rcx, %rsi
 4737 2248 4889C7   		movq	%rax, %rdi
 4738 224b E8000000 		call	_ZN8UnitTest11TestDetailsC1ERKS0_i
 4738      00
 4739              		.loc 6 183 0 discriminator 3
 4740 2250 E8000000 		call	_ZN8UnitTest11CurrentTest7ResultsEv
 4740      00
 4741 2255 488B00   		movq	(%rax), %rax
 4742 2258 488D8D90 		leaq	-2160(%rbp), %rcx
 4742      F7FFFF
 4743 225f BA000000 		movl	$.LC46, %edx
 4743      00
 4744 2264 4889CE   		movq	%rcx, %rsi
 4745 2267 4889C7   		movq	%rax, %rdi
 4746 226a E8000000 		call	_ZN8UnitTest11TestResults13OnTestFailureERKNS_11TestDetailsEPKc
 4746      00
 4747              	.LEHE147:
 4748              	.L244:
 184:TestCheckMacros.cpp ****     CHECK(strstr(reporter.lastFailedMessage, "123"));
 4749              		.loc 6 184 0 is_stmt 1
 4750 226f 488D85B0 		leaq	-2128(%rbp), %rax
 4750      F7FFFF
 4751 2276 48051405 		addq	$1300, %rax
 4751      0000
 4752 227c BE000000 		movl	$.LC47, %esi
 4752      00
 4753 2281 4889C7   		movq	%rax, %rdi
 4754 2284 E8000000 		call	strstr
 4754      00
 4755 2289 4889C7   		movq	%rax, %rdi
 4756 228c E8000000 		call	_ZN8UnitTest5CheckIPcEEbT_
 4756      00
 4757 2291 83F001   		xorl	$1, %eax
 4758 2294 84C0     		testb	%al, %al
 4759 2296 743E     		je	.L245
 4760              	.LEHB148:
 4761              		.loc 6 184 0 is_stmt 0 discriminator 1
 4762 2298 E8000000 		call	_ZN8UnitTest11CurrentTest7DetailsEv
 4762      00
 4763 229d 488B08   		movq	(%rax), %rcx
 4764 22a0 488D8590 		leaq	-2160(%rbp), %rax
 4764      F7FFFF
 4765 22a7 BAB80000 		movl	$184, %edx
 4765      00
 4766 22ac 4889CE   		movq	%rcx, %rsi
 4767 22af 4889C7   		movq	%rax, %rdi
 4768 22b2 E8000000 		call	_ZN8UnitTest11TestDetailsC1ERKS0_i
 4768      00
 4769              		.loc 6 184 0 discriminator 4
 4770 22b7 E8000000 		call	_ZN8UnitTest11CurrentTest7ResultsEv
 4770      00
 4771 22bc 488B00   		movq	(%rax), %rax
 4772 22bf 488D8D90 		leaq	-2160(%rbp), %rcx
 4772      F7FFFF
 4773 22c6 BA000000 		movl	$.LC48, %edx
 4773      00
 4774 22cb 4889CE   		movq	%rcx, %rsi
 4775 22ce 4889C7   		movq	%rax, %rdi
 4776 22d1 E8000000 		call	_ZN8UnitTest11TestResults13OnTestFailureERKNS_11TestDetailsEPKc
 4776      00
 4777              	.LEHE148:
 4778              	.L245:
 4779              		.loc 6 184 0 discriminator 9
 4780 22d6 488D85B0 		leaq	-2128(%rbp), %rax
 4780      F7FFFF
 4781 22dd 4889C7   		movq	%rax, %rdi
 4782              	.LEHB149:
 4783 22e0 E8000000 		call	_ZN17RecordingReporterD1Ev
 4783      00
 4784              	.LEHE149:
 4785              	.LBE61:
 185:TestCheckMacros.cpp **** }
 4786              		.loc 6 185 0 is_stmt 1 discriminator 9
 4787 22e5 488B45E8 		movq	-24(%rbp), %rax
 4788 22e9 64483304 		xorq	%fs:40, %rax
 4788      25280000 
 4788      00
 4789 22f2 0F844F01 		je	.L255
 4789      0000
 4790 22f8 E9450100 		jmp	.L264
 4790      00
 4791              	.L258:
 4792 22fd 4889C3   		movq	%rax, %rbx
 4793              	.LBB64:
 4794              	.LBB63:
 180:TestCheckMacros.cpp ****     }
 4795              		.loc 6 180 0
 4796 2300 E8000000 		call	__cxa_end_catch
 4796      00
 4797 2305 EB53     		jmp	.L247
 4798              	.L256:
 4799 2307 4889C7   		movq	%rax, %rdi
 4800 230a E8000000 		call	__cxa_begin_catch
 4800      00
 4801              	.LEHB150:
 4802 230f E8000000 		call	_ZN8UnitTest11CurrentTest7DetailsEv
 4802      00
 4803 2314 488B08   		movq	(%rax), %rcx
 4804 2317 488D8590 		leaq	-2160(%rbp), %rax
 4804      F7FFFF
 4805 231e BAB40000 		movl	$180, %edx
 4805      00
 4806 2323 4889CE   		movq	%rcx, %rsi
 4807 2326 4889C7   		movq	%rax, %rdi
 4808 2329 E8000000 		call	_ZN8UnitTest11TestDetailsC1ERKS0_i
 4808      00
 180:TestCheckMacros.cpp ****     }
 4809              		.loc 6 180 0 is_stmt 0 discriminator 13
 4810 232e E8000000 		call	_ZN8UnitTest11CurrentTest7ResultsEv
 4810      00
 4811 2333 488B00   		movq	(%rax), %rax
 4812 2336 488D8D90 		leaq	-2160(%rbp), %rcx
 4812      F7FFFF
 4813 233d BA000000 		movl	$.LC43, %edx
 4813      00
 4814 2342 4889CE   		movq	%rcx, %rsi
 4815 2345 4889C7   		movq	%rax, %rdi
 4816 2348 E8000000 		call	_ZN8UnitTest11TestResults13OnTestFailureERKNS_11TestDetailsEPKc
 4816      00
 4817              	.LEHE150:
 4818              	.LEHB151:
 180:TestCheckMacros.cpp ****     }
 4819              		.loc 6 180 0 discriminator 17
 4820 234d E8000000 		call	__cxa_end_catch
 4820      00
 4821              	.LEHE151:
 180:TestCheckMacros.cpp ****     }
 4822              		.loc 6 180 0
 4823 2352 E9A2FEFF 		jmp	.L249
 4823      FF
 4824              	.L257:
 4825 2357 4889C3   		movq	%rax, %rbx
 4826              	.L247:
 180:TestCheckMacros.cpp ****     }
 4827              		.loc 6 180 0 discriminator 18
 4828 235a 488D8560 		leaq	-2208(%rbp), %rax
 4828      F7FFFF
 4829 2361 4889C7   		movq	%rax, %rdi
 4830 2364 E8000000 		call	_ZN17ScopedCurrentTestD1Ev
 4830      00
 4831 2369 E9BA0000 		jmp	.L250
 4831      00
 4832              	.L261:
 4833 236e 4889C3   		movq	%rax, %rbx
 4834              	.LBE63:
 183:TestCheckMacros.cpp ****     CHECK(strstr(reporter.lastFailedMessage, "123"));
 4835              		.loc 6 183 0 is_stmt 1
 4836 2371 E8000000 		call	__cxa_end_catch
 4836      00
 4837 2376 E9AD0000 		jmp	.L250
 4837      00
 4838              	.L260:
 4839 237b 4889C7   		movq	%rax, %rdi
 4840 237e E8000000 		call	__cxa_begin_catch
 4840      00
 4841              	.LEHB152:
 4842 2383 E8000000 		call	_ZN8UnitTest11CurrentTest7DetailsEv
 4842      00
 4843 2388 488B08   		movq	(%rax), %rcx
 4844 238b 488D8590 		leaq	-2160(%rbp), %rax
 4844      F7FFFF
 4845 2392 BAB70000 		movl	$183, %edx
 4845      00
 4846 2397 4889CE   		movq	%rcx, %rsi
 4847 239a 4889C7   		movq	%rax, %rdi
 4848 239d E8000000 		call	_ZN8UnitTest11TestDetailsC1ERKS0_i
 4848      00
 183:TestCheckMacros.cpp ****     CHECK(strstr(reporter.lastFailedMessage, "123"));
 4849              		.loc 6 183 0 is_stmt 0 discriminator 11
 4850 23a2 E8000000 		call	_ZN8UnitTest11CurrentTest7ResultsEv
 4850      00
 4851 23a7 488B00   		movq	(%rax), %rax
 4852 23aa 488D8D90 		leaq	-2160(%rbp), %rcx
 4852      F7FFFF
 4853 23b1 BA000000 		movl	$.LC49, %edx
 4853      00
 4854 23b6 4889CE   		movq	%rcx, %rsi
 4855 23b9 4889C7   		movq	%rax, %rdi
 4856 23bc E8000000 		call	_ZN8UnitTest11TestResults13OnTestFailureERKNS_11TestDetailsEPKc
 4856      00
 4857              	.LEHE152:
 4858              	.LEHB153:
 183:TestCheckMacros.cpp ****     CHECK(strstr(reporter.lastFailedMessage, "123"));
 4859              		.loc 6 183 0 discriminator 15
 4860 23c1 E8000000 		call	__cxa_end_catch
 4860      00
 4861              	.LEHE153:
 183:TestCheckMacros.cpp ****     CHECK(strstr(reporter.lastFailedMessage, "123"));
 4862              		.loc 6 183 0
 4863 23c6 E9A4FEFF 		jmp	.L244
 4863      FF
 4864              	.L263:
 4865 23cb 4889C3   		movq	%rax, %rbx
 184:TestCheckMacros.cpp **** }
 4866              		.loc 6 184 0 is_stmt 1
 4867 23ce E8000000 		call	__cxa_end_catch
 4867      00
 4868 23d3 EB53     		jmp	.L250
 4869              	.L262:
 4870 23d5 4889C7   		movq	%rax, %rdi
 4871 23d8 E8000000 		call	__cxa_begin_catch
 4871      00
 4872              	.LEHB154:
 4873 23dd E8000000 		call	_ZN8UnitTest11CurrentTest7DetailsEv
 4873      00
 4874 23e2 488B08   		movq	(%rax), %rcx
 4875 23e5 488D8590 		leaq	-2160(%rbp), %rax
 4875      F7FFFF
 4876 23ec BAB80000 		movl	$184, %edx
 4876      00
 4877 23f1 4889CE   		movq	%rcx, %rsi
 4878 23f4 4889C7   		movq	%rax, %rdi
 4879 23f7 E8000000 		call	_ZN8UnitTest11TestDetailsC1ERKS0_i
 4879      00
 184:TestCheckMacros.cpp **** }
 4880              		.loc 6 184 0 is_stmt 0 discriminator 13
 4881 23fc E8000000 		call	_ZN8UnitTest11CurrentTest7ResultsEv
 4881      00
 4882 2401 488B00   		movq	(%rax), %rax
 4883 2404 488D8D90 		leaq	-2160(%rbp), %rcx
 4883      F7FFFF
 4884 240b BA000000 		movl	$.LC50, %edx
 4884      00
 4885 2410 4889CE   		movq	%rcx, %rsi
 4886 2413 4889C7   		movq	%rax, %rdi
 4887 2416 E8000000 		call	_ZN8UnitTest11TestResults13OnTestFailureERKNS_11TestDetailsEPKc
 4887      00
 4888              	.LEHE154:
 4889              	.LEHB155:
 184:TestCheckMacros.cpp **** }
 4890              		.loc 6 184 0 discriminator 17
 4891 241b E8000000 		call	__cxa_end_catch
 4891      00
 4892              	.LEHE155:
 184:TestCheckMacros.cpp **** }
 4893              		.loc 6 184 0
 4894 2420 E9B1FEFF 		jmp	.L245
 4894      FF
 4895              	.L259:
