   1              		.file	"TestTestList.cpp"
   2              		.text
   3              	.Ltext0:
   4              		.section	.rodata
   5              	.LC0:
   6 0000 44656661 		.string	"DefaultSuite"
   6      756C7453 
   6      75697465 
   6      00
   7              		.section	.text._ZN13UnitTestSuite12GetSuiteNameEv,"axG",@progbits,_ZN13UnitTestSuite12GetSuiteName
   8              		.weak	_ZN13UnitTestSuite12GetSuiteNameEv
  10              	_ZN13UnitTestSuite12GetSuiteNameEv:
  11              	.LFB0:
  12              		.file 1 "../TestSuite.h"
   1:../TestSuite.h **** #ifndef UNITTEST_TESTSUITE_H
   2:../TestSuite.h **** #define UNITTEST_TESTSUITE_H
   3:../TestSuite.h **** 
   4:../TestSuite.h **** namespace UnitTestSuite {
   5:../TestSuite.h **** 
   6:../TestSuite.h ****     inline char const* GetSuiteName ()
   7:../TestSuite.h ****     {
  13              		.loc 1 7 0
  14              		.cfi_startproc
  15 0000 55       		pushq	%rbp
  16              		.cfi_def_cfa_offset 16
  17              		.cfi_offset 6, -16
  18 0001 4889E5   		movq	%rsp, %rbp
  19              		.cfi_def_cfa_register 6
   8:../TestSuite.h ****         return "DefaultSuite";
  20              		.loc 1 8 0
  21 0004 B8000000 		movl	$.LC0, %eax
  21      00
   9:../TestSuite.h ****     }
  22              		.loc 1 9 0
  23 0009 5D       		popq	%rbp
  24              		.cfi_def_cfa 7, 8
  25 000a C3       		ret
  26              		.cfi_endproc
  27              	.LFE0:
  29              		.section	.rodata
  30              	.LC1:
  31 000d 54657374 		.string	"TestTestList.cpp"
  31      54657374 
  31      4C697374 
  31      2E637070 
  31      00
  32              	.LC2:
  33 001e 54657374 		.string	"TestListIsEmptyByDefault"
  33      4C697374 
  33      4973456D 
  33      70747942 
  33      79446566 
  34              		.text
  35              		.align 2
  37              	_ZN12_GLOBAL__N_128TestTestListIsEmptyByDefaultC2Ev:
  38              	.LFB1066:
  39              		.file 2 "TestTestList.cpp"
   1:TestTestList.cpp **** #include "../UnitTest++.h"
   2:TestTestList.cpp **** #include "../TestList.h"
   3:TestTestList.cpp **** 
   4:TestTestList.cpp **** using namespace UnitTest;
   5:TestTestList.cpp **** 
   6:TestTestList.cpp **** namespace {
   7:TestTestList.cpp **** 
   8:TestTestList.cpp **** 
   9:TestTestList.cpp **** TEST (TestListIsEmptyByDefault)
  40              		.loc 2 9 0
  41              		.cfi_startproc
  42 0000 55       		pushq	%rbp
  43              		.cfi_def_cfa_offset 16
  44              		.cfi_offset 6, -16
  45 0001 4889E5   		movq	%rsp, %rbp
  46              		.cfi_def_cfa_register 6
  47 0004 4883EC10 		subq	$16, %rsp
  48 0008 48897DF8 		movq	%rdi, -8(%rbp)
  49              	.LBB2:
  50              		.loc 2 9 0
  51 000c E8000000 		call	_ZN13UnitTestSuite12GetSuiteNameEv
  51      00
  52 0011 4889C2   		movq	%rax, %rdx
  53 0014 488B45F8 		movq	-8(%rbp), %rax
  54 0018 41B80900 		movl	$9, %r8d
  54      0000
  55 001e B9000000 		movl	$.LC1, %ecx
  55      00
  56 0023 BE000000 		movl	$.LC2, %esi
  56      00
  57 0028 4889C7   		movq	%rax, %rdi
  58 002b E8000000 		call	_ZN8UnitTest4TestC2EPKcS2_S2_i
  58      00
  59 0030 488B45F8 		movq	-8(%rbp), %rax
  60 0034 48C70000 		movq	$_ZTVN12_GLOBAL__N_128TestTestListIsEmptyByDefaultE+16, (%rax)
  60      000000
  61              	.LBE2:
  62 003b C9       		leave
  63              		.cfi_def_cfa 7, 8
  64 003c C3       		ret
  65              		.cfi_endproc
  66              	.LFE1066:
  68              		.local	_ZN12_GLOBAL__N_136testTestListIsEmptyByDefaultInstanceE
  69              		.comm	_ZN12_GLOBAL__N_136testTestListIsEmptyByDefaultInstanceE,56,32
  70              		.local	_ZN12_GLOBAL__N_129adderTestListIsEmptyByDefaultE
  71              		.comm	_ZN12_GLOBAL__N_129adderTestListIsEmptyByDefaultE,1,1
  72              		.section	.rodata
  73              	.LC3:
  74 0037 6C697374 		.string	"list.GetHead() == 0"
  74      2E476574 
  74      48656164 
  74      2829203D 
  74      3D203000 
  75 004b 00000000 		.align 8
  75      00
  76              	.LC4:
  77 0050 556E6861 		.string	"Unhandled exception in CHECK(list.GetHead() == 0)"
  77      6E646C65 
  77      64206578 
  77      63657074 
  77      696F6E20 
  78              		.text
  79 003d 90       		.align 2
  81              	_ZNK12_GLOBAL__N_128TestTestListIsEmptyByDefault7RunImplEv:
  82              	.LFB1068:
  10:TestTestList.cpp **** {
  83              		.loc 2 10 0
  84              		.cfi_startproc
  85              		.cfi_personality 0x3,__gxx_personality_v0
  86              		.cfi_lsda 0x3,.LLSDA1068
  87 003e 55       		pushq	%rbp
  88              		.cfi_def_cfa_offset 16
  89              		.cfi_offset 6, -16
  90 003f 4889E5   		movq	%rsp, %rbp
  91              		.cfi_def_cfa_register 6
  92 0042 53       		pushq	%rbx
  93 0043 4883EC58 		subq	$88, %rsp
  94              		.cfi_offset 3, -24
  95 0047 48897DA8 		movq	%rdi, -88(%rbp)
  96              		.loc 2 10 0
  97 004b 64488B04 		movq	%fs:40, %rax
  97      25280000 
  97      00
  98 0054 488945E8 		movq	%rax, -24(%rbp)
  99 0058 31C0     		xorl	%eax, %eax
 100              	.LBB3:
  11:TestTestList.cpp ****     TestList list;
 101              		.loc 2 11 0
 102 005a 488D45B0 		leaq	-80(%rbp), %rax
 103 005e 4889C7   		movq	%rax, %rdi
 104              	.LEHB0:
 105 0061 E8000000 		call	_ZN8UnitTest8TestListC1Ev
 105      00
 106              	.LEHE0:
  12:TestTestList.cpp ****     CHECK (list.GetHead() == 0);
 107              		.loc 2 12 0
 108 0066 488D45B0 		leaq	-80(%rbp), %rax
 109 006a 4889C7   		movq	%rax, %rdi
 110              	.LEHB1:
 111 006d E8000000 		call	_ZNK8UnitTest8TestList7GetHeadEv
 111      00
 112 0072 4885C0   		testq	%rax, %rax
 113 0075 0F94C0   		sete	%al
 114 0078 0FB6C0   		movzbl	%al, %eax
 115 007b 89C7     		movl	%eax, %edi
 116 007d E8000000 		call	_ZN8UnitTest5CheckIbEEbT_
 116      00
 117 0082 83F001   		xorl	$1, %eax
 118 0085 84C0     		testb	%al, %al
 119 0087 0F849300 		je	.L4
 119      0000
 120              		.loc 2 12 0 is_stmt 0 discriminator 2
 121 008d E8000000 		call	_ZN8UnitTest11CurrentTest7DetailsEv
 121      00
 122 0092 488B08   		movq	(%rax), %rcx
 123 0095 488D45C0 		leaq	-64(%rbp), %rax
 124 0099 BA0C0000 		movl	$12, %edx
 124      00
 125 009e 4889CE   		movq	%rcx, %rsi
 126 00a1 4889C7   		movq	%rax, %rdi
 127 00a4 E8000000 		call	_ZN8UnitTest11TestDetailsC1ERKS0_i
 127      00
 128              		.loc 2 12 0 discriminator 4
 129 00a9 E8000000 		call	_ZN8UnitTest11CurrentTest7ResultsEv
 129      00
 130 00ae 488B00   		movq	(%rax), %rax
 131 00b1 488D4DC0 		leaq	-64(%rbp), %rcx
 132 00b5 BA000000 		movl	$.LC3, %edx
 132      00
 133 00ba 4889CE   		movq	%rcx, %rsi
 134 00bd 4889C7   		movq	%rax, %rdi
 135 00c0 E8000000 		call	_ZN8UnitTest11TestResults13OnTestFailureERKNS_11TestDetailsEPKc
 135      00
 136              	.LEHE1:
 137 00c5 EB59     		jmp	.L4
 138              	.L10:
 139 00c7 4889C3   		movq	%rax, %rbx
 140              		.loc 2 12 0
 141 00ca E8000000 		call	__cxa_end_catch
 141      00
 142 00cf 4889D8   		movq	%rbx, %rax
 143 00d2 4889C7   		movq	%rax, %rdi
 144              	.LEHB2:
 145 00d5 E8000000 		call	_Unwind_Resume
 145      00
 146              	.LEHE2:
 147              	.L9:
 148 00da 4889C7   		movq	%rax, %rdi
 149 00dd E8000000 		call	__cxa_begin_catch
 149      00
 150              	.LEHB3:
 151 00e2 E8000000 		call	_ZN8UnitTest11CurrentTest7DetailsEv
 151      00
 152 00e7 488B08   		movq	(%rax), %rcx
 153 00ea 488D45C0 		leaq	-64(%rbp), %rax
 154 00ee BA0C0000 		movl	$12, %edx
 154      00
 155 00f3 4889CE   		movq	%rcx, %rsi
 156 00f6 4889C7   		movq	%rax, %rdi
 157 00f9 E8000000 		call	_ZN8UnitTest11TestDetailsC1ERKS0_i
 157      00
 158              		.loc 2 12 0 discriminator 12
 159 00fe E8000000 		call	_ZN8UnitTest11CurrentTest7ResultsEv
 159      00
 160 0103 488B00   		movq	(%rax), %rax
 161 0106 488D4DC0 		leaq	-64(%rbp), %rcx
 162 010a BA000000 		movl	$.LC4, %edx
 162      00
 163 010f 4889CE   		movq	%rcx, %rsi
 164 0112 4889C7   		movq	%rax, %rdi
 165 0115 E8000000 		call	_ZN8UnitTest11TestResults13OnTestFailureERKNS_11TestDetailsEPKc
 165      00
 166              	.LEHE3:
 167              	.LEHB4:
 168              		.loc 2 12 0 discriminator 16
 169 011a E8000000 		call	__cxa_end_catch
 169      00
 170              	.LEHE4:
 171              	.LBE3:
  13:TestTestList.cpp **** }
 172              		.loc 2 13 0 is_stmt 1 discriminator 16
 173 011f 90       		nop
 174              	.L4:
 175              		.loc 2 13 0 is_stmt 0
 176 0120 488B45E8 		movq	-24(%rbp), %rax
 177 0124 64483304 		xorq	%fs:40, %rax
 177      25280000 
 177      00
 178 012d 7405     		je	.L8
 179 012f E8000000 		call	__stack_chk_fail
 179      00
 180              	.L8:
 181 0134 4883C458 		addq	$88, %rsp
 182 0138 5B       		popq	%rbx
 183 0139 5D       		popq	%rbp
 184              		.cfi_def_cfa 7, 8
 185 013a C3       		ret
 186              		.cfi_endproc
 187              	.LFE1068:
 188              		.globl	__gxx_personality_v0
 189              		.section	.gcc_except_table,"a",@progbits
 190              		.align 4
 191              	.LLSDA1068:
 192 0000 FF       		.byte	0xff
 193 0001 03       		.byte	0x3
 194 0002 21       		.uleb128 .LLSDATT1068-.LLSDATTD1068
 195              	.LLSDATTD1068:
 196 0003 01       		.byte	0x1
 197 0004 19       		.uleb128 .LLSDACSE1068-.LLSDACSB1068
 198              	.LLSDACSB1068:
 199 0005 23       		.uleb128 .LEHB0-.LFB1068
 200 0006 05       		.uleb128 .LEHE0-.LEHB0
 201 0007 00       		.uleb128 0
 202 0008 00       		.uleb128 0
 203 0009 2F       		.uleb128 .LEHB1-.LFB1068
 204 000a 58       		.uleb128 .LEHE1-.LEHB1
 205 000b 9C01     		.uleb128 .L9-.LFB1068
 206 000d 01       		.uleb128 0x1
 207 000e 9701     		.uleb128 .LEHB2-.LFB1068
 208 0010 05       		.uleb128 .LEHE2-.LEHB2
 209 0011 00       		.uleb128 0
 210 0012 00       		.uleb128 0
 211 0013 A401     		.uleb128 .LEHB3-.LFB1068
 212 0015 38       		.uleb128 .LEHE3-.LEHB3
 213 0016 8901     		.uleb128 .L10-.LFB1068
 214 0018 00       		.uleb128 0
 215 0019 DC01     		.uleb128 .LEHB4-.LFB1068
 216 001b 05       		.uleb128 .LEHE4-.LEHB4
 217 001c 00       		.uleb128 0
 218 001d 00       		.uleb128 0
 219              	.LLSDACSE1068:
 220 001e 01       		.byte	0x1
 221 001f 00       		.byte	0
 222              		.align 4
 223 0020 00000000 		.long	0
 224              	
 225              	.LLSDATT1068:
 226              		.text
 228              		.section	.rodata
 229              	.LC5:
 230 0082 41646469 		.string	"AddingTestSetsHeadToTest"
 230      6E675465 
 230      73745365 
 230      74734865 
 230      6164546F 
 231              		.text
 232 013b 90       		.align 2
 234              	_ZN12_GLOBAL__N_128TestAddingTestSetsHeadToTestC2Ev:
 235              	.LFB1070:
  14:TestTestList.cpp **** 
  15:TestTestList.cpp **** TEST (AddingTestSetsHeadToTest)
 236              		.loc 2 15 0 is_stmt 1
 237              		.cfi_startproc
 238 013c 55       		pushq	%rbp
 239              		.cfi_def_cfa_offset 16
 240              		.cfi_offset 6, -16
 241 013d 4889E5   		movq	%rsp, %rbp
 242              		.cfi_def_cfa_register 6
 243 0140 4883EC10 		subq	$16, %rsp
 244 0144 48897DF8 		movq	%rdi, -8(%rbp)
 245              	.LBB4:
 246              		.loc 2 15 0
 247 0148 E8000000 		call	_ZN13UnitTestSuite12GetSuiteNameEv
 247      00
 248 014d 4889C2   		movq	%rax, %rdx
 249 0150 488B45F8 		movq	-8(%rbp), %rax
 250 0154 41B80F00 		movl	$15, %r8d
 250      0000
 251 015a B9000000 		movl	$.LC1, %ecx
 251      00
 252 015f BE000000 		movl	$.LC5, %esi
 252      00
 253 0164 4889C7   		movq	%rax, %rdi
 254 0167 E8000000 		call	_ZN8UnitTest4TestC2EPKcS2_S2_i
 254      00
 255 016c 488B45F8 		movq	-8(%rbp), %rax
 256 0170 48C70000 		movq	$_ZTVN12_GLOBAL__N_128TestAddingTestSetsHeadToTestE+16, (%rax)
 256      000000
 257              	.LBE4:
 258 0177 C9       		leave
 259              		.cfi_def_cfa 7, 8
 260 0178 C3       		ret
 261              		.cfi_endproc
 262              	.LFE1070:
 264              		.local	_ZN12_GLOBAL__N_136testAddingTestSetsHeadToTestInstanceE
 265              		.comm	_ZN12_GLOBAL__N_136testAddingTestSetsHeadToTestInstanceE,56,32
 266              		.local	_ZN12_GLOBAL__N_129adderAddingTestSetsHeadToTestE
 267              		.comm	_ZN12_GLOBAL__N_129adderAddingTestSetsHeadToTestE,1,1
 268              		.section	.rodata
 269              	.LC6:
 270 009b 00       		.string	""
 271              	.LC7:
 272 009c 74657374 		.string	"test"
 272      00
 273              	.LC8:
 274 00a1 6C697374 		.string	"list.GetHead() == &test"
 274      2E476574 
 274      48656164 
 274      2829203D 
 274      3D202674 
 275              	.LC9:
 276 00b9 74657374 		.string	"test.next == 0"
 276      2E6E6578 
 276      74203D3D 
 276      203000
 277              		.align 8
 278              	.LC10:
 279 00c8 556E6861 		.string	"Unhandled exception in CHECK(list.GetHead() == &test)"
 279      6E646C65 
 279      64206578 
 279      63657074 
 279      696F6E20 
 280 00fe 0000     		.align 8
 281              	.LC11:
 282 0100 556E6861 		.string	"Unhandled exception in CHECK(test.next == 0)"
 282      6E646C65 
 282      64206578 
 282      63657074 
 282      696F6E20 
 283              		.text
 284 0179 90       		.align 2
 286              	_ZNK12_GLOBAL__N_128TestAddingTestSetsHeadToTest7RunImplEv:
 287              	.LFB1072:
  16:TestTestList.cpp **** {
 288              		.loc 2 16 0
 289              		.cfi_startproc
 290              		.cfi_personality 0x3,__gxx_personality_v0
 291              		.cfi_lsda 0x3,.LLSDA1072
 292 017a 55       		pushq	%rbp
 293              		.cfi_def_cfa_offset 16
 294              		.cfi_offset 6, -16
 295 017b 4889E5   		movq	%rsp, %rbp
 296              		.cfi_def_cfa_register 6
 297 017e 53       		pushq	%rbx
 298 017f 4881EC88 		subq	$136, %rsp
 298      000000
 299              		.cfi_offset 3, -24
 300 0186 4889BD78 		movq	%rdi, -136(%rbp)
 300      FFFFFF
 301              		.loc 2 16 0
 302 018d 64488B04 		movq	%fs:40, %rax
 302      25280000 
 302      00
 303 0196 488945E8 		movq	%rax, -24(%rbp)
 304 019a 31C0     		xorl	%eax, %eax
 305              	.LBB5:
  17:TestTestList.cpp ****     Test test("test");
 306              		.loc 2 17 0
 307 019c 488D45B0 		leaq	-80(%rbp), %rax
 308 01a0 41B80000 		movl	$0, %r8d
 308      0000
 309 01a6 B9000000 		movl	$.LC6, %ecx
 309      00
 310 01ab BA000000 		movl	$.LC0, %edx
 310      00
 311 01b0 BE000000 		movl	$.LC7, %esi
 311      00
 312 01b5 4889C7   		movq	%rax, %rdi
 313              	.LEHB5:
 314 01b8 E8000000 		call	_ZN8UnitTest4TestC1EPKcS2_S2_i
 314      00
 315              	.LEHE5:
  18:TestTestList.cpp ****     TestList list;
 316              		.loc 2 18 0
 317 01bd 488D4580 		leaq	-128(%rbp), %rax
 318 01c1 4889C7   		movq	%rax, %rdi
 319              	.LEHB6:
 320 01c4 E8000000 		call	_ZN8UnitTest8TestListC1Ev
 320      00
  19:TestTestList.cpp ****     list.Add(&test);
 321              		.loc 2 19 0
 322 01c9 488D55B0 		leaq	-80(%rbp), %rdx
 323 01cd 488D4580 		leaq	-128(%rbp), %rax
 324 01d1 4889D6   		movq	%rdx, %rsi
 325 01d4 4889C7   		movq	%rax, %rdi
 326 01d7 E8000000 		call	_ZN8UnitTest8TestList3AddEPNS_4TestE
 326      00
 327              	.LEHE6:
  20:TestTestList.cpp **** 
  21:TestTestList.cpp ****     CHECK (list.GetHead() == &test);
 328              		.loc 2 21 0
 329 01dc 488D4580 		leaq	-128(%rbp), %rax
 330 01e0 4889C7   		movq	%rax, %rdi
 331              	.LEHB7:
 332 01e3 E8000000 		call	_ZNK8UnitTest8TestList7GetHeadEv
 332      00
 333 01e8 4889C2   		movq	%rax, %rdx
 334 01eb 488D45B0 		leaq	-80(%rbp), %rax
 335 01ef 4839C2   		cmpq	%rax, %rdx
 336 01f2 0F94C0   		sete	%al
 337 01f5 0FB6C0   		movzbl	%al, %eax
 338 01f8 89C7     		movl	%eax, %edi
 339 01fa E8000000 		call	_ZN8UnitTest5CheckIbEEbT_
 339      00
 340 01ff 83F001   		xorl	$1, %eax
 341 0202 84C0     		testb	%al, %al
 342 0204 7438     		je	.L13
 343              		.loc 2 21 0 is_stmt 0 discriminator 2
 344 0206 E8000000 		call	_ZN8UnitTest11CurrentTest7DetailsEv
 344      00
 345 020b 488B08   		movq	(%rax), %rcx
 346 020e 488D4590 		leaq	-112(%rbp), %rax
 347 0212 BA150000 		movl	$21, %edx
 347      00
 348 0217 4889CE   		movq	%rcx, %rsi
 349 021a 4889C7   		movq	%rax, %rdi
 350 021d E8000000 		call	_ZN8UnitTest11TestDetailsC1ERKS0_i
 350      00
 351              		.loc 2 21 0 discriminator 4
 352 0222 E8000000 		call	_ZN8UnitTest11CurrentTest7ResultsEv
 352      00
 353 0227 488B00   		movq	(%rax), %rax
 354 022a 488D4D90 		leaq	-112(%rbp), %rcx
 355 022e BA000000 		movl	$.LC8, %edx
 355      00
 356 0233 4889CE   		movq	%rcx, %rsi
 357 0236 4889C7   		movq	%rax, %rdi
 358 0239 E8000000 		call	_ZN8UnitTest11TestResults13OnTestFailureERKNS_11TestDetailsEPKc
 358      00
 359              	.LEHE7:
 360              	.L13:
  22:TestTestList.cpp ****     CHECK (test.next == 0);
 361              		.loc 2 22 0 is_stmt 1
 362 023e 488B45D8 		movq	-40(%rbp), %rax
 363 0242 4885C0   		testq	%rax, %rax
 364 0245 0F94C0   		sete	%al
 365 0248 0FB6C0   		movzbl	%al, %eax
 366 024b 89C7     		movl	%eax, %edi
 367 024d E8000000 		call	_ZN8UnitTest5CheckIbEEbT_
 367      00
 368 0252 83F001   		xorl	$1, %eax
 369 0255 84C0     		testb	%al, %al
 370 0257 7438     		je	.L14
 371              	.LEHB8:
 372              		.loc 2 22 0 is_stmt 0 discriminator 1
 373 0259 E8000000 		call	_ZN8UnitTest11CurrentTest7DetailsEv
 373      00
 374 025e 488B08   		movq	(%rax), %rcx
 375 0261 488D4590 		leaq	-112(%rbp), %rax
 376 0265 BA160000 		movl	$22, %edx
 376      00
 377 026a 4889CE   		movq	%rcx, %rsi
 378 026d 4889C7   		movq	%rax, %rdi
 379 0270 E8000000 		call	_ZN8UnitTest11TestDetailsC1ERKS0_i
 379      00
 380              		.loc 2 22 0 discriminator 4
 381 0275 E8000000 		call	_ZN8UnitTest11CurrentTest7ResultsEv
 381      00
 382 027a 488B00   		movq	(%rax), %rax
 383 027d 488D4D90 		leaq	-112(%rbp), %rcx
 384 0281 BA000000 		movl	$.LC9, %edx
 384      00
 385 0286 4889CE   		movq	%rcx, %rsi
 386 0289 4889C7   		movq	%rax, %rdi
 387 028c E8000000 		call	_ZN8UnitTest11TestResults13OnTestFailureERKNS_11TestDetailsEPKc
 387      00
 388              	.LEHE8:
 389              	.L14:
 390              		.loc 2 22 0 discriminator 9
 391 0291 488D45B0 		leaq	-80(%rbp), %rax
 392 0295 4889C7   		movq	%rax, %rdi
 393              	.LEHB9:
 394 0298 E8000000 		call	_ZN8UnitTest4TestD1Ev
 394      00
 395              	.LEHE9:
 396              	.LBE5:
  23:TestTestList.cpp **** }
 397              		.loc 2 23 0 is_stmt 1 discriminator 9
 398 029d 488B45E8 		movq	-24(%rbp), %rax
 399 02a1 64483304 		xorq	%fs:40, %rax
 399      25280000 
 399      00
 400 02aa 0F84CF00 		je	.L20
 400      0000
 401 02b0 E9C50000 		jmp	.L26
 401      00
 402              	.L23:
 403 02b5 4889C3   		movq	%rax, %rbx
 404              	.LBB6:
  21:TestTestList.cpp ****     CHECK (test.next == 0);
 405              		.loc 2 21 0
 406 02b8 E8000000 		call	__cxa_end_catch
 406      00
 407 02bd E9A10000 		jmp	.L16
 407      00
 408              	.L22:
 409 02c2 4889C7   		movq	%rax, %rdi
 410 02c5 E8000000 		call	__cxa_begin_catch
 410      00
 411              	.LEHB10:
 412 02ca E8000000 		call	_ZN8UnitTest11CurrentTest7DetailsEv
 412      00
 413 02cf 488B08   		movq	(%rax), %rcx
 414 02d2 488D4590 		leaq	-112(%rbp), %rax
 415 02d6 BA150000 		movl	$21, %edx
 415      00
 416 02db 4889CE   		movq	%rcx, %rsi
 417 02de 4889C7   		movq	%rax, %rdi
 418 02e1 E8000000 		call	_ZN8UnitTest11TestDetailsC1ERKS0_i
 418      00
  21:TestTestList.cpp ****     CHECK (test.next == 0);
 419              		.loc 2 21 0 is_stmt 0 discriminator 12
 420 02e6 E8000000 		call	_ZN8UnitTest11CurrentTest7ResultsEv
 420      00
 421 02eb 488B00   		movq	(%rax), %rax
 422 02ee 488D4D90 		leaq	-112(%rbp), %rcx
 423 02f2 BA000000 		movl	$.LC10, %edx
 423      00
 424 02f7 4889CE   		movq	%rcx, %rsi
 425 02fa 4889C7   		movq	%rax, %rdi
 426 02fd E8000000 		call	_ZN8UnitTest11TestResults13OnTestFailureERKNS_11TestDetailsEPKc
 426      00
 427              	.LEHE10:
 428              	.LEHB11:
  21:TestTestList.cpp ****     CHECK (test.next == 0);
 429              		.loc 2 21 0 discriminator 16
 430 0302 E8000000 		call	__cxa_end_catch
 430      00
 431              	.LEHE11:
  21:TestTestList.cpp ****     CHECK (test.next == 0);
 432              		.loc 2 21 0
 433 0307 E932FFFF 		jmp	.L13
 433      FF
 434              	.L25:
 435 030c 4889C3   		movq	%rax, %rbx
  22:TestTestList.cpp ****     CHECK (test.next == 0);
 436              		.loc 2 22 0 is_stmt 1
 437 030f E8000000 		call	__cxa_end_catch
 437      00
 438 0314 EB4D     		jmp	.L16
 439              	.L24:
 440 0316 4889C7   		movq	%rax, %rdi
 441 0319 E8000000 		call	__cxa_begin_catch
 441      00
 442              	.LEHB12:
 443 031e E8000000 		call	_ZN8UnitTest11CurrentTest7DetailsEv
 443      00
 444 0323 488B08   		movq	(%rax), %rcx
 445 0326 488D4590 		leaq	-112(%rbp), %rax
 446 032a BA160000 		movl	$22, %edx
 446      00
 447 032f 4889CE   		movq	%rcx, %rsi
 448 0332 4889C7   		movq	%rax, %rdi
 449 0335 E8000000 		call	_ZN8UnitTest11TestDetailsC1ERKS0_i
 449      00
  22:TestTestList.cpp ****     CHECK (test.next == 0);
 450              		.loc 2 22 0 is_stmt 0 discriminator 13
 451 033a E8000000 		call	_ZN8UnitTest11CurrentTest7ResultsEv
 451      00
 452 033f 488B00   		movq	(%rax), %rax
 453 0342 488D4D90 		leaq	-112(%rbp), %rcx
 454 0346 BA000000 		movl	$.LC11, %edx
 454      00
 455 034b 4889CE   		movq	%rcx, %rsi
 456 034e 4889C7   		movq	%rax, %rdi
 457 0351 E8000000 		call	_ZN8UnitTest11TestResults13OnTestFailureERKNS_11TestDetailsEPKc
 457      00
 458              	.LEHE12:
 459              	.LEHB13:
  22:TestTestList.cpp ****     CHECK (test.next == 0);
 460              		.loc 2 22 0 discriminator 17
 461 0356 E8000000 		call	__cxa_end_catch
 461      00
 462              	.LEHE13:
  22:TestTestList.cpp ****     CHECK (test.next == 0);
 463              		.loc 2 22 0
 464 035b E931FFFF 		jmp	.L14
 464      FF
 465              	.L21:
 466 0360 4889C3   		movq	%rax, %rbx
 467              	.L16:
  22:TestTestList.cpp ****     CHECK (test.next == 0);
 468              		.loc 2 22 0 discriminator 18
 469 0363 488D45B0 		leaq	-80(%rbp), %rax
 470 0367 4889C7   		movq	%rax, %rdi
 471 036a E8000000 		call	_ZN8UnitTest4TestD1Ev
 471      00
 472 036f 4889D8   		movq	%rbx, %rax
 473 0372 4889C7   		movq	%rax, %rdi
 474              	.LEHB14:
 475 0375 E8000000 		call	_Unwind_Resume
 475      00
 476              	.LEHE14:
 477              	.L26:
 478              	.LBE6:
 479              		.loc 2 23 0 is_stmt 1
 480 037a E8000000 		call	__stack_chk_fail
 480      00
 481              	.L20:
 482 037f 4881C488 		addq	$136, %rsp
 482      000000
 483 0386 5B       		popq	%rbx
 484 0387 5D       		popq	%rbp
 485              		.cfi_def_cfa 7, 8
 486 0388 C3       		ret
 487              		.cfi_endproc
 488              	.LFE1072:
 489              		.section	.gcc_except_table
 490              		.align 4
 491              	.LLSDA1072:
 492 0024 FF       		.byte	0xff
 493 0025 03       		.byte	0x3
 494 0026 41       		.uleb128 .LLSDATT1072-.LLSDATTD1072
 495              	.LLSDATTD1072:
 496 0027 01       		.byte	0x1
 497 0028 36       		.uleb128 .LLSDACSE1072-.LLSDACSB1072
 498              	.LLSDACSB1072:
 499 0029 3E       		.uleb128 .LEHB5-.LFB1072
 500 002a 05       		.uleb128 .LEHE5-.LEHB5
 501 002b 00       		.uleb128 0
 502 002c 00       		.uleb128 0
 503 002d 4A       		.uleb128 .LEHB6-.LFB1072
 504 002e 18       		.uleb128 .LEHE6-.LEHB6
 505 002f E603     		.uleb128 .L21-.LFB1072
 506 0031 00       		.uleb128 0
 507 0032 69       		.uleb128 .LEHB7-.LFB1072
 508 0033 5B       		.uleb128 .LEHE7-.LEHB7
 509 0034 C802     		.uleb128 .L22-.LFB1072
 510 0036 01       		.uleb128 0x1
 511 0037 DF01     		.uleb128 .LEHB8-.LFB1072
 512 0039 38       		.uleb128 .LEHE8-.LEHB8
 513 003a 9C03     		.uleb128 .L24-.LFB1072
 514 003c 01       		.uleb128 0x1
 515 003d 9E02     		.uleb128 .LEHB9-.LFB1072
 516 003f 05       		.uleb128 .LEHE9-.LEHB9
 517 0040 00       		.uleb128 0
 518 0041 00       		.uleb128 0
 519 0042 D002     		.uleb128 .LEHB10-.LFB1072
 520 0044 38       		.uleb128 .LEHE10-.LEHB10
 521 0045 BB02     		.uleb128 .L23-.LFB1072
 522 0047 00       		.uleb128 0
 523 0048 8803     		.uleb128 .LEHB11-.LFB1072
 524 004a 05       		.uleb128 .LEHE11-.LEHB11
 525 004b E603     		.uleb128 .L21-.LFB1072
 526 004d 00       		.uleb128 0
 527 004e A403     		.uleb128 .LEHB12-.LFB1072
 528 0050 38       		.uleb128 .LEHE12-.LEHB12
 529 0051 9203     		.uleb128 .L25-.LFB1072
 530 0053 00       		.uleb128 0
 531 0054 DC03     		.uleb128 .LEHB13-.LFB1072
 532 0056 05       		.uleb128 .LEHE13-.LEHB13
 533 0057 E603     		.uleb128 .L21-.LFB1072
 534 0059 00       		.uleb128 0
 535 005a FB03     		.uleb128 .LEHB14-.LFB1072
 536 005c 05       		.uleb128 .LEHE14-.LEHB14
 537 005d 00       		.uleb128 0
 538 005e 00       		.uleb128 0
 539              	.LLSDACSE1072:
 540 005f 01       		.byte	0x1
 541 0060 00       		.byte	0
 542 0061 000000   		.align 4
 543 0064 00000000 		.long	0
 544              	
 545              	.LLSDATT1072:
 546              		.text
 548              		.section	.rodata
 549 012d 000000   		.align 8
 550              	.LC12:
 551 0130 41646469 		.string	"AddingSecondTestAddsItToEndOfList"
 551      6E675365 
 551      636F6E64 
 551      54657374 
 551      41646473 
 552              		.text
 553 0389 90       		.align 2
 555              	_ZN12_GLOBAL__N_137TestAddingSecondTestAddsItToEndOfListC2Ev:
 556              	.LFB1074:
  24:TestTestList.cpp **** 
  25:TestTestList.cpp **** TEST (AddingSecondTestAddsItToEndOfList)
 557              		.loc 2 25 0
 558              		.cfi_startproc
 559 038a 55       		pushq	%rbp
 560              		.cfi_def_cfa_offset 16
 561              		.cfi_offset 6, -16
 562 038b 4889E5   		movq	%rsp, %rbp
 563              		.cfi_def_cfa_register 6
 564 038e 4883EC10 		subq	$16, %rsp
 565 0392 48897DF8 		movq	%rdi, -8(%rbp)
 566              	.LBB7:
 567              		.loc 2 25 0
 568 0396 E8000000 		call	_ZN13UnitTestSuite12GetSuiteNameEv
 568      00
 569 039b 4889C2   		movq	%rax, %rdx
 570 039e 488B45F8 		movq	-8(%rbp), %rax
 571 03a2 41B81900 		movl	$25, %r8d
 571      0000
 572 03a8 B9000000 		movl	$.LC1, %ecx
 572      00
 573 03ad BE000000 		movl	$.LC12, %esi
 573      00
 574 03b2 4889C7   		movq	%rax, %rdi
 575 03b5 E8000000 		call	_ZN8UnitTest4TestC2EPKcS2_S2_i
 575      00
 576 03ba 488B45F8 		movq	-8(%rbp), %rax
 577 03be 48C70000 		movq	$_ZTVN12_GLOBAL__N_137TestAddingSecondTestAddsItToEndOfListE+16, (%rax)
 577      000000
 578              	.LBE7:
 579 03c5 C9       		leave
 580              		.cfi_def_cfa 7, 8
 581 03c6 C3       		ret
 582              		.cfi_endproc
 583              	.LFE1074:
 585              		.local	_ZN12_GLOBAL__N_145testAddingSecondTestAddsItToEndOfListInstanceE
 586              		.comm	_ZN12_GLOBAL__N_145testAddingSecondTestAddsItToEndOfListInstanceE,56,32
 587              		.local	_ZN12_GLOBAL__N_138adderAddingSecondTestAddsItToEndOfListE
 588              		.comm	_ZN12_GLOBAL__N_138adderAddingSecondTestAddsItToEndOfListE,1,1
 589              		.section	.rodata
 590              	.LC13:
 591 0152 74657374 		.string	"test1"
 591      3100
 592              	.LC14:
 593 0158 74657374 		.string	"test2"
 593      3200
 594              	.LC15:
 595 015e 6C697374 		.string	"list.GetHead() == &test1"
 595      2E476574 
 595      48656164 
 595      2829203D 
 595      3D202674 
 596              	.LC16:
 597 0177 74657374 		.string	"test1.next == &test2"
 597      312E6E65 
 597      7874203D 
 597      3D202674 
 597      65737432 
 598              	.LC17:
 599 018c 74657374 		.string	"test2.next == 0"
 599      322E6E65 
 599      7874203D 
 599      3D203000 
 600 019c 00000000 		.align 8
 601              	.LC18:
 602 01a0 556E6861 		.string	"Unhandled exception in CHECK(list.GetHead() == &test1)"
 602      6E646C65 
 602      64206578 
 602      63657074 
 602      696F6E20 
 603 01d7 00       		.align 8
 604              	.LC19:
 605 01d8 556E6861 		.string	"Unhandled exception in CHECK(test1.next == &test2)"
 605      6E646C65 
 605      64206578 
 605      63657074 
 605      696F6E20 
 606 020b 00000000 		.align 8
 606      00
 607              	.LC20:
 608 0210 556E6861 		.string	"Unhandled exception in CHECK(test2.next == 0)"
 608      6E646C65 
 608      64206578 
 608      63657074 
 608      696F6E20 
 609              		.text
 610 03c7 90       		.align 2
 612              	_ZNK12_GLOBAL__N_137TestAddingSecondTestAddsItToEndOfList7RunImplEv:
 613              	.LFB1076:
  26:TestTestList.cpp **** {
 614              		.loc 2 26 0
 615              		.cfi_startproc
 616              		.cfi_personality 0x3,__gxx_personality_v0
 617              		.cfi_lsda 0x3,.LLSDA1076
 618 03c8 55       		pushq	%rbp
 619              		.cfi_def_cfa_offset 16
 620              		.cfi_offset 6, -16
 621 03c9 4889E5   		movq	%rsp, %rbp
 622              		.cfi_def_cfa_register 6
 623 03cc 53       		pushq	%rbx
 624 03cd 4881ECC8 		subq	$200, %rsp
 624      000000
 625              		.cfi_offset 3, -24
 626 03d4 4889BD38 		movq	%rdi, -200(%rbp)
 626      FFFFFF
 627              		.loc 2 26 0
 628 03db 64488B04 		movq	%fs:40, %rax
 628      25280000 
 628      00
 629 03e4 488945E8 		movq	%rax, -24(%rbp)
 630 03e8 31C0     		xorl	%eax, %eax
 631              	.LBB8:
  27:TestTestList.cpp ****     Test test1("test1");
 632              		.loc 2 27 0
 633 03ea 488D8570 		leaq	-144(%rbp), %rax
 633      FFFFFF
 634 03f1 41B80000 		movl	$0, %r8d
 634      0000
 635 03f7 B9000000 		movl	$.LC6, %ecx
 635      00
 636 03fc BA000000 		movl	$.LC0, %edx
 636      00
 637 0401 BE000000 		movl	$.LC13, %esi
 637      00
 638 0406 4889C7   		movq	%rax, %rdi
 639              	.LEHB15:
 640 0409 E8000000 		call	_ZN8UnitTest4TestC1EPKcS2_S2_i
 640      00
 641              	.LEHE15:
  28:TestTestList.cpp ****     Test test2("test2");
 642              		.loc 2 28 0
 643 040e 488D45B0 		leaq	-80(%rbp), %rax
 644 0412 41B80000 		movl	$0, %r8d
 644      0000
 645 0418 B9000000 		movl	$.LC6, %ecx
 645      00
 646 041d BA000000 		movl	$.LC0, %edx
 646      00
 647 0422 BE000000 		movl	$.LC14, %esi
 647      00
 648 0427 4889C7   		movq	%rax, %rdi
 649              	.LEHB16:
 650 042a E8000000 		call	_ZN8UnitTest4TestC1EPKcS2_S2_i
 650      00
 651              	.LEHE16:
  29:TestTestList.cpp **** 
  30:TestTestList.cpp ****     TestList list;
 652              		.loc 2 30 0
 653 042f 488D8540 		leaq	-192(%rbp), %rax
 653      FFFFFF
 654 0436 4889C7   		movq	%rax, %rdi
 655              	.LEHB17:
 656 0439 E8000000 		call	_ZN8UnitTest8TestListC1Ev
 656      00
  31:TestTestList.cpp ****     list.Add(&test1);
 657              		.loc 2 31 0
 658 043e 488D9570 		leaq	-144(%rbp), %rdx
 658      FFFFFF
 659 0445 488D8540 		leaq	-192(%rbp), %rax
 659      FFFFFF
 660 044c 4889D6   		movq	%rdx, %rsi
 661 044f 4889C7   		movq	%rax, %rdi
 662 0452 E8000000 		call	_ZN8UnitTest8TestList3AddEPNS_4TestE
 662      00
  32:TestTestList.cpp ****     list.Add(&test2);
 663              		.loc 2 32 0
 664 0457 488D55B0 		leaq	-80(%rbp), %rdx
 665 045b 488D8540 		leaq	-192(%rbp), %rax
 665      FFFFFF
 666 0462 4889D6   		movq	%rdx, %rsi
 667 0465 4889C7   		movq	%rax, %rdi
 668 0468 E8000000 		call	_ZN8UnitTest8TestList3AddEPNS_4TestE
 668      00
 669              	.LEHE17:
  33:TestTestList.cpp **** 
  34:TestTestList.cpp ****     CHECK (list.GetHead() == &test1);
 670              		.loc 2 34 0
 671 046d 488D8540 		leaq	-192(%rbp), %rax
 671      FFFFFF
 672 0474 4889C7   		movq	%rax, %rdi
 673              	.LEHB18:
 674 0477 E8000000 		call	_ZNK8UnitTest8TestList7GetHeadEv
 674      00
 675 047c 4889C2   		movq	%rax, %rdx
 676 047f 488D8570 		leaq	-144(%rbp), %rax
 676      FFFFFF
 677 0486 4839C2   		cmpq	%rax, %rdx
 678 0489 0F94C0   		sete	%al
 679 048c 0FB6C0   		movzbl	%al, %eax
 680 048f 89C7     		movl	%eax, %edi
 681 0491 E8000000 		call	_ZN8UnitTest5CheckIbEEbT_
 681      00
 682 0496 83F001   		xorl	$1, %eax
 683 0499 84C0     		testb	%al, %al
 684 049b 743E     		je	.L29
 685              		.loc 2 34 0 is_stmt 0 discriminator 2
 686 049d E8000000 		call	_ZN8UnitTest11CurrentTest7DetailsEv
 686      00
 687 04a2 488B08   		movq	(%rax), %rcx
 688 04a5 488D8550 		leaq	-176(%rbp), %rax
 688      FFFFFF
 689 04ac BA220000 		movl	$34, %edx
 689      00
 690 04b1 4889CE   		movq	%rcx, %rsi
 691 04b4 4889C7   		movq	%rax, %rdi
 692 04b7 E8000000 		call	_ZN8UnitTest11TestDetailsC1ERKS0_i
 692      00
 693              		.loc 2 34 0 discriminator 4
 694 04bc E8000000 		call	_ZN8UnitTest11CurrentTest7ResultsEv
 694      00
 695 04c1 488B00   		movq	(%rax), %rax
 696 04c4 488D8D50 		leaq	-176(%rbp), %rcx
 696      FFFFFF
 697 04cb BA000000 		movl	$.LC15, %edx
 697      00
 698 04d0 4889CE   		movq	%rcx, %rsi
 699 04d3 4889C7   		movq	%rax, %rdi
 700 04d6 E8000000 		call	_ZN8UnitTest11TestResults13OnTestFailureERKNS_11TestDetailsEPKc
 700      00
 701              	.LEHE18:
 702              	.L29:
  35:TestTestList.cpp ****     CHECK (test1.next == &test2);
 703              		.loc 2 35 0 is_stmt 1
 704 04db 488B5598 		movq	-104(%rbp), %rdx
 705 04df 488D45B0 		leaq	-80(%rbp), %rax
 706 04e3 4839C2   		cmpq	%rax, %rdx
 707 04e6 0F94C0   		sete	%al
 708 04e9 0FB6C0   		movzbl	%al, %eax
 709 04ec 89C7     		movl	%eax, %edi
 710 04ee E8000000 		call	_ZN8UnitTest5CheckIbEEbT_
 710      00
 711 04f3 83F001   		xorl	$1, %eax
 712 04f6 84C0     		testb	%al, %al
 713 04f8 743E     		je	.L30
 714              	.LEHB19:
 715              		.loc 2 35 0 is_stmt 0 discriminator 1
 716 04fa E8000000 		call	_ZN8UnitTest11CurrentTest7DetailsEv
 716      00
 717 04ff 488B08   		movq	(%rax), %rcx
 718 0502 488D8550 		leaq	-176(%rbp), %rax
 718      FFFFFF
 719 0509 BA230000 		movl	$35, %edx
 719      00
 720 050e 4889CE   		movq	%rcx, %rsi
 721 0511 4889C7   		movq	%rax, %rdi
 722 0514 E8000000 		call	_ZN8UnitTest11TestDetailsC1ERKS0_i
 722      00
 723              		.loc 2 35 0 discriminator 3
 724 0519 E8000000 		call	_ZN8UnitTest11CurrentTest7ResultsEv
 724      00
 725 051e 488B00   		movq	(%rax), %rax
 726 0521 488D8D50 		leaq	-176(%rbp), %rcx
 726      FFFFFF
 727 0528 BA000000 		movl	$.LC16, %edx
 727      00
 728 052d 4889CE   		movq	%rcx, %rsi
 729 0530 4889C7   		movq	%rax, %rdi
 730 0533 E8000000 		call	_ZN8UnitTest11TestResults13OnTestFailureERKNS_11TestDetailsEPKc
 730      00
 731              	.LEHE19:
 732              	.L30:
  36:TestTestList.cpp ****     CHECK (test2.next == 0);
 733              		.loc 2 36 0 is_stmt 1
 734 0538 488B45D8 		movq	-40(%rbp), %rax
 735 053c 4885C0   		testq	%rax, %rax
 736 053f 0F94C0   		sete	%al
 737 0542 0FB6C0   		movzbl	%al, %eax
 738 0545 89C7     		movl	%eax, %edi
 739 0547 E8000000 		call	_ZN8UnitTest5CheckIbEEbT_
 739      00
 740 054c 83F001   		xorl	$1, %eax
 741 054f 84C0     		testb	%al, %al
 742 0551 743E     		je	.L31
 743              	.LEHB20:
 744              		.loc 2 36 0 is_stmt 0 discriminator 1
 745 0553 E8000000 		call	_ZN8UnitTest11CurrentTest7DetailsEv
 745      00
 746 0558 488B08   		movq	(%rax), %rcx
 747 055b 488D8550 		leaq	-176(%rbp), %rax
 747      FFFFFF
 748 0562 BA240000 		movl	$36, %edx
 748      00
 749 0567 4889CE   		movq	%rcx, %rsi
 750 056a 4889C7   		movq	%rax, %rdi
 751 056d E8000000 		call	_ZN8UnitTest11TestDetailsC1ERKS0_i
 751      00
 752              		.loc 2 36 0 discriminator 3
 753 0572 E8000000 		call	_ZN8UnitTest11CurrentTest7ResultsEv
 753      00
 754 0577 488B00   		movq	(%rax), %rax
 755 057a 488D8D50 		leaq	-176(%rbp), %rcx
 755      FFFFFF
 756 0581 BA000000 		movl	$.LC17, %edx
 756      00
 757 0586 4889CE   		movq	%rcx, %rsi
 758 0589 4889C7   		movq	%rax, %rdi
 759 058c E8000000 		call	_ZN8UnitTest11TestResults13OnTestFailureERKNS_11TestDetailsEPKc
 759      00
 760              	.LEHE20:
 761              	.L31:
  28:TestTestList.cpp **** 
 762              		.loc 2 28 0 is_stmt 1
 763 0591 488D45B0 		leaq	-80(%rbp), %rax
 764 0595 4889C7   		movq	%rax, %rdi
 765              	.LEHB21:
 766 0598 E8000000 		call	_ZN8UnitTest4TestD1Ev
 766      00
 767              	.LEHE21:
 768              		.loc 2 36 0
 769 059d 488D8570 		leaq	-144(%rbp), %rax
 769      FFFFFF
 770 05a4 4889C7   		movq	%rax, %rdi
 771              	.LEHB22:
 772 05a7 E8000000 		call	_ZN8UnitTest4TestD1Ev
 772      00
 773              	.LEHE22:
 774              	.LBE8:
  37:TestTestList.cpp **** }
 775              		.loc 2 37 0
 776 05ac 488B45E8 		movq	-24(%rbp), %rax
 777 05b0 64483304 		xorq	%fs:40, %rax
 777      25280000 
 777      00
 778 05b9 0F844C01 		je	.L40
 778      0000
 779 05bf E9420100 		jmp	.L49
 779      00
 780              	.L44:
 781 05c4 4889C3   		movq	%rax, %rbx
 782              	.LBB9:
  34:TestTestList.cpp ****     CHECK (test1.next == &test2);
 783              		.loc 2 34 0
 784 05c7 E8000000 		call	__cxa_end_catch
 784      00
 785 05cc E90A0100 		jmp	.L33
 785      00
 786              	.L43:
 787 05d1 4889C7   		movq	%rax, %rdi
 788 05d4 E8000000 		call	__cxa_begin_catch
 788      00
 789              	.LEHB23:
 790 05d9 E8000000 		call	_ZN8UnitTest11CurrentTest7DetailsEv
 790      00
 791 05de 488B08   		movq	(%rax), %rcx
 792 05e1 488D8550 		leaq	-176(%rbp), %rax
 792      FFFFFF
 793 05e8 BA220000 		movl	$34, %edx
 793      00
 794 05ed 4889CE   		movq	%rcx, %rsi
 795 05f0 4889C7   		movq	%rax, %rdi
 796 05f3 E8000000 		call	_ZN8UnitTest11TestDetailsC1ERKS0_i
 796      00
  34:TestTestList.cpp ****     CHECK (test1.next == &test2);
 797              		.loc 2 34 0 is_stmt 0 discriminator 12
 798 05f8 E8000000 		call	_ZN8UnitTest11CurrentTest7ResultsEv
 798      00
 799 05fd 488B00   		movq	(%rax), %rax
 800 0600 488D8D50 		leaq	-176(%rbp), %rcx
 800      FFFFFF
 801 0607 BA000000 		movl	$.LC18, %edx
 801      00
 802 060c 4889CE   		movq	%rcx, %rsi
 803 060f 4889C7   		movq	%rax, %rdi
 804 0612 E8000000 		call	_ZN8UnitTest11TestResults13OnTestFailureERKNS_11TestDetailsEPKc
 804      00
 805              	.LEHE23:
 806              	.LEHB24:
  34:TestTestList.cpp ****     CHECK (test1.next == &test2);
 807              		.loc 2 34 0 discriminator 16
 808 0617 E8000000 		call	__cxa_end_catch
 808      00
 809              	.LEHE24:
  34:TestTestList.cpp ****     CHECK (test1.next == &test2);
 810              		.loc 2 34 0
 811 061c E9BAFEFF 		jmp	.L29
 811      FF
 812              	.L46:
 813 0621 4889C3   		movq	%rax, %rbx
  35:TestTestList.cpp ****     CHECK (test2.next == 0);
 814              		.loc 2 35 0 is_stmt 1
 815 0624 E8000000 		call	__cxa_end_catch
 815      00
 816 0629 E9AD0000 		jmp	.L33
 816      00
 817              	.L45:
 818 062e 4889C7   		movq	%rax, %rdi
 819 0631 E8000000 		call	__cxa_begin_catch
 819      00
 820              	.LEHB25:
 821 0636 E8000000 		call	_ZN8UnitTest11CurrentTest7DetailsEv
 821      00
 822 063b 488B08   		movq	(%rax), %rcx
 823 063e 488D8550 		leaq	-176(%rbp), %rax
 823      FFFFFF
 824 0645 BA230000 		movl	$35, %edx
 824      00
 825 064a 4889CE   		movq	%rcx, %rsi
 826 064d 4889C7   		movq	%rax, %rdi
 827 0650 E8000000 		call	_ZN8UnitTest11TestDetailsC1ERKS0_i
 827      00
  35:TestTestList.cpp ****     CHECK (test2.next == 0);
 828              		.loc 2 35 0 is_stmt 0 discriminator 11
 829 0655 E8000000 		call	_ZN8UnitTest11CurrentTest7ResultsEv
 829      00
 830 065a 488B00   		movq	(%rax), %rax
 831 065d 488D8D50 		leaq	-176(%rbp), %rcx
 831      FFFFFF
 832 0664 BA000000 		movl	$.LC19, %edx
 832      00
 833 0669 4889CE   		movq	%rcx, %rsi
 834 066c 4889C7   		movq	%rax, %rdi
 835 066f E8000000 		call	_ZN8UnitTest11TestResults13OnTestFailureERKNS_11TestDetailsEPKc
 835      00
 836              	.LEHE25:
 837              	.LEHB26:
  35:TestTestList.cpp ****     CHECK (test2.next == 0);
 838              		.loc 2 35 0 discriminator 15
 839 0674 E8000000 		call	__cxa_end_catch
 839      00
 840              	.LEHE26:
  35:TestTestList.cpp ****     CHECK (test2.next == 0);
 841              		.loc 2 35 0
 842 0679 E9BAFEFF 		jmp	.L30
 842      FF
 843              	.L48:
 844 067e 4889C3   		movq	%rax, %rbx
  36:TestTestList.cpp **** }
 845              		.loc 2 36 0 is_stmt 1
 846 0681 E8000000 		call	__cxa_end_catch
 846      00
 847 0686 EB53     		jmp	.L33
 848              	.L47:
 849 0688 4889C7   		movq	%rax, %rdi
 850 068b E8000000 		call	__cxa_begin_catch
 850      00
 851              	.LEHB27:
 852 0690 E8000000 		call	_ZN8UnitTest11CurrentTest7DetailsEv
 852      00
 853 0695 488B08   		movq	(%rax), %rcx
 854 0698 488D8550 		leaq	-176(%rbp), %rax
 854      FFFFFF
 855 069f BA240000 		movl	$36, %edx
 855      00
 856 06a4 4889CE   		movq	%rcx, %rsi
 857 06a7 4889C7   		movq	%rax, %rdi
 858 06aa E8000000 		call	_ZN8UnitTest11TestDetailsC1ERKS0_i
 858      00
  36:TestTestList.cpp **** }
 859              		.loc 2 36 0 is_stmt 0 discriminator 11
 860 06af E8000000 		call	_ZN8UnitTest11CurrentTest7ResultsEv
 860      00
 861 06b4 488B00   		movq	(%rax), %rax
 862 06b7 488D8D50 		leaq	-176(%rbp), %rcx
 862      FFFFFF
 863 06be BA000000 		movl	$.LC20, %edx
 863      00
 864 06c3 4889CE   		movq	%rcx, %rsi
 865 06c6 4889C7   		movq	%rax, %rdi
 866 06c9 E8000000 		call	_ZN8UnitTest11TestResults13OnTestFailureERKNS_11TestDetailsEPKc
 866      00
 867              	.LEHE27:
 868              	.LEHB28:
  36:TestTestList.cpp **** }
 869              		.loc 2 36 0 discriminator 15
 870 06ce E8000000 		call	__cxa_end_catch
 870      00
 871              	.LEHE28:
  36:TestTestList.cpp **** }
 872              		.loc 2 36 0
 873 06d3 E9B9FEFF 		jmp	.L31
 873      FF
 874              	.L42:
 875 06d8 4889C3   		movq	%rax, %rbx
 876              	.L33:
  28:TestTestList.cpp **** 
 877              		.loc 2 28 0 is_stmt 1
 878 06db 488D45B0 		leaq	-80(%rbp), %rax
 879 06df 4889C7   		movq	%rax, %rdi
 880 06e2 E8000000 		call	_ZN8UnitTest4TestD1Ev
 880      00
 881 06e7 EB03     		jmp	.L39
 882              	.L41:
 883 06e9 4889C3   		movq	%rax, %rbx
 884              	.L39:
  36:TestTestList.cpp **** }
 885              		.loc 2 36 0
 886 06ec 488D8570 		leaq	-144(%rbp), %rax
 886      FFFFFF
 887 06f3 4889C7   		movq	%rax, %rdi
 888 06f6 E8000000 		call	_ZN8UnitTest4TestD1Ev
 888      00
 889 06fb 4889D8   		movq	%rbx, %rax
 890 06fe 4889C7   		movq	%rax, %rdi
 891              	.LEHB29:
 892 0701 E8000000 		call	_Unwind_Resume
 892      00
 893              	.LEHE29:
 894              	.L49:
 895              	.LBE9:
 896              		.loc 2 37 0
 897 0706 E8000000 		call	__stack_chk_fail
 897      00
 898              	.L40:
 899 070b 4881C4C8 		addq	$200, %rsp
 899      000000
 900 0712 5B       		popq	%rbx
 901 0713 5D       		popq	%rbp
 902              		.cfi_def_cfa 7, 8
 903 0714 C3       		ret
 904              		.cfi_endproc
 905              	.LFE1076:
 906              		.section	.gcc_except_table
 907              		.align 4
 908              	.LLSDA1076:
 909 0068 FF       		.byte	0xff
 910 0069 03       		.byte	0x3
 911 006a 5D       		.uleb128 .LLSDATT1076-.LLSDATTD1076
 912              	.LLSDATTD1076:
 913 006b 01       		.byte	0x1
 914 006c 54       		.uleb128 .LLSDACSE1076-.LLSDACSB1076
 915              	.LLSDACSB1076:
 916 006d 41       		.uleb128 .LEHB15-.LFB1076
 917 006e 05       		.uleb128 .LEHE15-.LEHB15
 918 006f 00       		.uleb128 0
 919 0070 00       		.uleb128 0
 920 0071 62       		.uleb128 .LEHB16-.LFB1076
 921 0072 05       		.uleb128 .LEHE16-.LEHB16
 922 0073 A106     		.uleb128 .L41-.LFB1076
 923 0075 00       		.uleb128 0
 924 0076 71       		.uleb128 .LEHB17-.LFB1076
 925 0077 34       		.uleb128 .LEHE17-.LEHB17
 926 0078 9006     		.uleb128 .L42-.LFB1076
 927 007a 00       		.uleb128 0
 928 007b AF01     		.uleb128 .LEHB18-.LFB1076
 929 007d 64       		.uleb128 .LEHE18-.LEHB18
 930 007e 8904     		.uleb128 .L43-.LFB1076
 931 0080 01       		.uleb128 0x1
 932 0081 B202     		.uleb128 .LEHB19-.LFB1076
 933 0083 3E       		.uleb128 .LEHE19-.LEHB19
 934 0084 E604     		.uleb128 .L45-.LFB1076
 935 0086 01       		.uleb128 0x1
 936 0087 8B03     		.uleb128 .LEHB20-.LFB1076
 937 0089 3E       		.uleb128 .LEHE20-.LEHB20
 938 008a C005     		.uleb128 .L47-.LFB1076
 939 008c 01       		.uleb128 0x1
 940 008d D003     		.uleb128 .LEHB21-.LFB1076
 941 008f 05       		.uleb128 .LEHE21-.LEHB21
 942 0090 A106     		.uleb128 .L41-.LFB1076
 943 0092 00       		.uleb128 0
 944 0093 DF03     		.uleb128 .LEHB22-.LFB1076
 945 0095 05       		.uleb128 .LEHE22-.LEHB22
 946 0096 00       		.uleb128 0
 947 0097 00       		.uleb128 0
 948 0098 9104     		.uleb128 .LEHB23-.LFB1076
 949 009a 3E       		.uleb128 .LEHE23-.LEHB23
 950 009b FC03     		.uleb128 .L44-.LFB1076
 951 009d 00       		.uleb128 0
 952 009e CF04     		.uleb128 .LEHB24-.LFB1076
 953 00a0 05       		.uleb128 .LEHE24-.LEHB24
 954 00a1 9006     		.uleb128 .L42-.LFB1076
 955 00a3 00       		.uleb128 0
 956 00a4 EE04     		.uleb128 .LEHB25-.LFB1076
 957 00a6 3E       		.uleb128 .LEHE25-.LEHB25
 958 00a7 D904     		.uleb128 .L46-.LFB1076
 959 00a9 00       		.uleb128 0
 960 00aa AC05     		.uleb128 .LEHB26-.LFB1076
 961 00ac 05       		.uleb128 .LEHE26-.LEHB26
 962 00ad 9006     		.uleb128 .L42-.LFB1076
 963 00af 00       		.uleb128 0
 964 00b0 C805     		.uleb128 .LEHB27-.LFB1076
 965 00b2 3E       		.uleb128 .LEHE27-.LEHB27
 966 00b3 B605     		.uleb128 .L48-.LFB1076
 967 00b5 00       		.uleb128 0
 968 00b6 8606     		.uleb128 .LEHB28-.LFB1076
 969 00b8 05       		.uleb128 .LEHE28-.LEHB28
 970 00b9 9006     		.uleb128 .L42-.LFB1076
 971 00bb 00       		.uleb128 0
 972 00bc B906     		.uleb128 .LEHB29-.LFB1076
 973 00be 05       		.uleb128 .LEHE29-.LEHB29
 974 00bf 00       		.uleb128 0
 975 00c0 00       		.uleb128 0
 976              	.LLSDACSE1076:
 977 00c1 01       		.byte	0x1
 978 00c2 00       		.byte	0
 979 00c3 00       		.align 4
 980 00c4 00000000 		.long	0
 981              	
 982              	.LLSDATT1076:
 983              		.text
 985              		.section	.rodata
 986              	.LC21:
 987 023e 4C697374 		.string	"ListAdderAddsTestToList"
 987      41646465 
 987      72416464 
 987      73546573 
 987      74546F4C 
 988              		.text
 989 0715 90       		.align 2
 991              	_ZN12_GLOBAL__N_127TestListAdderAddsTestToListC2Ev:
 992              	.LFB1078:
  38:TestTestList.cpp **** 
  39:TestTestList.cpp **** TEST (ListAdderAddsTestToList)
 993              		.loc 2 39 0
 994              		.cfi_startproc
 995 0716 55       		pushq	%rbp
 996              		.cfi_def_cfa_offset 16
 997              		.cfi_offset 6, -16
 998 0717 4889E5   		movq	%rsp, %rbp
 999              		.cfi_def_cfa_register 6
 1000 071a 4883EC10 		subq	$16, %rsp
 1001 071e 48897DF8 		movq	%rdi, -8(%rbp)
 1002              	.LBB10:
 1003              		.loc 2 39 0
 1004 0722 E8000000 		call	_ZN13UnitTestSuite12GetSuiteNameEv
 1004      00
 1005 0727 4889C2   		movq	%rax, %rdx
 1006 072a 488B45F8 		movq	-8(%rbp), %rax
 1007 072e 41B82700 		movl	$39, %r8d
 1007      0000
 1008 0734 B9000000 		movl	$.LC1, %ecx
 1008      00
 1009 0739 BE000000 		movl	$.LC21, %esi
 1009      00
 1010 073e 4889C7   		movq	%rax, %rdi
 1011 0741 E8000000 		call	_ZN8UnitTest4TestC2EPKcS2_S2_i
 1011      00
 1012 0746 488B45F8 		movq	-8(%rbp), %rax
 1013 074a 48C70000 		movq	$_ZTVN12_GLOBAL__N_127TestListAdderAddsTestToListE+16, (%rax)
 1013      000000
 1014              	.LBE10:
 1015 0751 C9       		leave
 1016              		.cfi_def_cfa 7, 8
 1017 0752 C3       		ret
 1018              		.cfi_endproc
 1019              	.LFE1078:
 1021              		.local	_ZN12_GLOBAL__N_135testListAdderAddsTestToListInstanceE
 1022              		.comm	_ZN12_GLOBAL__N_135testListAdderAddsTestToListInstanceE,56,32
 1023              		.local	_ZN12_GLOBAL__N_128adderListAdderAddsTestToListE
 1024              		.comm	_ZN12_GLOBAL__N_128adderListAdderAddsTestToListE,1,1
 1025 0753 90       		.align 2
 1027              	_ZNK12_GLOBAL__N_127TestListAdderAddsTestToList7RunImplEv:
 1028              	.LFB1080:
  40:TestTestList.cpp **** {
 1029              		.loc 2 40 0
 1030              		.cfi_startproc
 1031              		.cfi_personality 0x3,__gxx_personality_v0
 1032              		.cfi_lsda 0x3,.LLSDA1080
 1033 0754 55       		pushq	%rbp
 1034              		.cfi_def_cfa_offset 16
 1035              		.cfi_offset 6, -16
 1036 0755 4889E5   		movq	%rsp, %rbp
 1037              		.cfi_def_cfa_register 6
 1038 0758 53       		pushq	%rbx
 1039 0759 4881EC98 		subq	$152, %rsp
 1039      000000
 1040              		.cfi_offset 3, -24
 1041 0760 4889BD68 		movq	%rdi, -152(%rbp)
 1041      FFFFFF
 1042              		.loc 2 40 0
 1043 0767 64488B04 		movq	%fs:40, %rax
 1043      25280000 
 1043      00
 1044 0770 488945E8 		movq	%rax, -24(%rbp)
 1045 0774 31C0     		xorl	%eax, %eax
 1046              	.LBB11:
  41:TestTestList.cpp ****     TestList list;
 1047              		.loc 2 41 0
 1048 0776 488D4580 		leaq	-128(%rbp), %rax
 1049 077a 4889C7   		movq	%rax, %rdi
 1050              	.LEHB30:
 1051 077d E8000000 		call	_ZN8UnitTest8TestListC1Ev
 1051      00
  42:TestTestList.cpp **** 
  43:TestTestList.cpp ****     Test test("");    
 1052              		.loc 2 43 0
 1053 0782 488D45B0 		leaq	-80(%rbp), %rax
 1054 0786 41B80000 		movl	$0, %r8d
 1054      0000
 1055 078c B9000000 		movl	$.LC6, %ecx
 1055      00
 1056 0791 BA000000 		movl	$.LC0, %edx
 1056      00
 1057 0796 BE000000 		movl	$.LC6, %esi
 1057      00
 1058 079b 4889C7   		movq	%rax, %rdi
 1059 079e E8000000 		call	_ZN8UnitTest4TestC1EPKcS2_S2_i
 1059      00
 1060              	.LEHE30:
  44:TestTestList.cpp ****     ListAdder adder(list, &test);
 1061              		.loc 2 44 0
 1062 07a3 488D55B0 		leaq	-80(%rbp), %rdx
 1063 07a7 488D4D80 		leaq	-128(%rbp), %rcx
 1064 07ab 488D857F 		leaq	-129(%rbp), %rax
 1064      FFFFFF
 1065 07b2 4889CE   		movq	%rcx, %rsi
 1066 07b5 4889C7   		movq	%rax, %rdi
 1067              	.LEHB31:
 1068 07b8 E8000000 		call	_ZN8UnitTest9ListAdderC1ERNS_8TestListEPNS_4TestE
 1068      00
 1069              	.LEHE31:
  45:TestTestList.cpp **** 
  46:TestTestList.cpp ****     CHECK (list.GetHead() == &test);
 1070              		.loc 2 46 0
 1071 07bd 488D4580 		leaq	-128(%rbp), %rax
 1072 07c1 4889C7   		movq	%rax, %rdi
 1073              	.LEHB32:
 1074 07c4 E8000000 		call	_ZNK8UnitTest8TestList7GetHeadEv
 1074      00
 1075 07c9 4889C2   		movq	%rax, %rdx
 1076 07cc 488D45B0 		leaq	-80(%rbp), %rax
 1077 07d0 4839C2   		cmpq	%rax, %rdx
 1078 07d3 0F94C0   		sete	%al
 1079 07d6 0FB6C0   		movzbl	%al, %eax
 1080 07d9 89C7     		movl	%eax, %edi
 1081 07db E8000000 		call	_ZN8UnitTest5CheckIbEEbT_
 1081      00
 1082 07e0 83F001   		xorl	$1, %eax
 1083 07e3 84C0     		testb	%al, %al
 1084 07e5 7438     		je	.L52
 1085              		.loc 2 46 0 is_stmt 0 discriminator 2
 1086 07e7 E8000000 		call	_ZN8UnitTest11CurrentTest7DetailsEv
 1086      00
 1087 07ec 488B08   		movq	(%rax), %rcx
 1088 07ef 488D4590 		leaq	-112(%rbp), %rax
 1089 07f3 BA2E0000 		movl	$46, %edx
 1089      00
 1090 07f8 4889CE   		movq	%rcx, %rsi
 1091 07fb 4889C7   		movq	%rax, %rdi
 1092 07fe E8000000 		call	_ZN8UnitTest11TestDetailsC1ERKS0_i
 1092      00
 1093              		.loc 2 46 0 discriminator 4
 1094 0803 E8000000 		call	_ZN8UnitTest11CurrentTest7ResultsEv
 1094      00
 1095 0808 488B00   		movq	(%rax), %rax
 1096 080b 488D4D90 		leaq	-112(%rbp), %rcx
 1097 080f BA000000 		movl	$.LC8, %edx
 1097      00
 1098 0814 4889CE   		movq	%rcx, %rsi
 1099 0817 4889C7   		movq	%rax, %rdi
 1100 081a E8000000 		call	_ZN8UnitTest11TestResults13OnTestFailureERKNS_11TestDetailsEPKc
 1100      00
 1101              	.LEHE32:
 1102              	.L52:
  47:TestTestList.cpp ****     CHECK (test.next == 0);
 1103              		.loc 2 47 0 is_stmt 1
 1104 081f 488B45D8 		movq	-40(%rbp), %rax
 1105 0823 4885C0   		testq	%rax, %rax
 1106 0826 0F94C0   		sete	%al
 1107 0829 0FB6C0   		movzbl	%al, %eax
 1108 082c 89C7     		movl	%eax, %edi
 1109 082e E8000000 		call	_ZN8UnitTest5CheckIbEEbT_
 1109      00
 1110 0833 83F001   		xorl	$1, %eax
 1111 0836 84C0     		testb	%al, %al
 1112 0838 7438     		je	.L53
 1113              	.LEHB33:
 1114              		.loc 2 47 0 is_stmt 0 discriminator 1
 1115 083a E8000000 		call	_ZN8UnitTest11CurrentTest7DetailsEv
 1115      00
 1116 083f 488B08   		movq	(%rax), %rcx
 1117 0842 488D4590 		leaq	-112(%rbp), %rax
 1118 0846 BA2F0000 		movl	$47, %edx
 1118      00
 1119 084b 4889CE   		movq	%rcx, %rsi
 1120 084e 4889C7   		movq	%rax, %rdi
 1121 0851 E8000000 		call	_ZN8UnitTest11TestDetailsC1ERKS0_i
 1121      00
 1122              		.loc 2 47 0 discriminator 4
 1123 0856 E8000000 		call	_ZN8UnitTest11CurrentTest7ResultsEv
 1123      00
 1124 085b 488B00   		movq	(%rax), %rax
 1125 085e 488D4D90 		leaq	-112(%rbp), %rcx
 1126 0862 BA000000 		movl	$.LC9, %edx
 1126      00
 1127 0867 4889CE   		movq	%rcx, %rsi
 1128 086a 4889C7   		movq	%rax, %rdi
 1129 086d E8000000 		call	_ZN8UnitTest11TestResults13OnTestFailureERKNS_11TestDetailsEPKc
 1129      00
 1130              	.LEHE33:
 1131              	.L53:
 1132              		.loc 2 47 0 discriminator 9
 1133 0872 488D45B0 		leaq	-80(%rbp), %rax
 1134 0876 4889C7   		movq	%rax, %rdi
 1135              	.LEHB34:
 1136 0879 E8000000 		call	_ZN8UnitTest4TestD1Ev
 1136      00
 1137              	.LEHE34:
 1138              	.LBE11:
  48:TestTestList.cpp **** }
 1139              		.loc 2 48 0 is_stmt 1 discriminator 9
 1140 087e 488B45E8 		movq	-24(%rbp), %rax
 1141 0882 64483304 		xorq	%fs:40, %rax
 1141      25280000 
 1141      00
 1142 088b 0F84CF00 		je	.L59
 1142      0000
 1143 0891 E9C50000 		jmp	.L65
 1143      00
 1144              	.L62:
 1145 0896 4889C3   		movq	%rax, %rbx
 1146              	.LBB12:
  46:TestTestList.cpp ****     CHECK (test.next == 0);
 1147              		.loc 2 46 0
 1148 0899 E8000000 		call	__cxa_end_catch
 1148      00
 1149 089e E9A10000 		jmp	.L55
 1149      00
 1150              	.L61:
 1151 08a3 4889C7   		movq	%rax, %rdi
 1152 08a6 E8000000 		call	__cxa_begin_catch
 1152      00
 1153              	.LEHB35:
 1154 08ab E8000000 		call	_ZN8UnitTest11CurrentTest7DetailsEv
 1154      00
 1155 08b0 488B08   		movq	(%rax), %rcx
 1156 08b3 488D4590 		leaq	-112(%rbp), %rax
 1157 08b7 BA2E0000 		movl	$46, %edx
 1157      00
 1158 08bc 4889CE   		movq	%rcx, %rsi
 1159 08bf 4889C7   		movq	%rax, %rdi
 1160 08c2 E8000000 		call	_ZN8UnitTest11TestDetailsC1ERKS0_i
 1160      00
  46:TestTestList.cpp ****     CHECK (test.next == 0);
 1161              		.loc 2 46 0 is_stmt 0 discriminator 12
 1162 08c7 E8000000 		call	_ZN8UnitTest11CurrentTest7ResultsEv
 1162      00
 1163 08cc 488B00   		movq	(%rax), %rax
 1164 08cf 488D4D90 		leaq	-112(%rbp), %rcx
 1165 08d3 BA000000 		movl	$.LC10, %edx
 1165      00
 1166 08d8 4889CE   		movq	%rcx, %rsi
 1167 08db 4889C7   		movq	%rax, %rdi
 1168 08de E8000000 		call	_ZN8UnitTest11TestResults13OnTestFailureERKNS_11TestDetailsEPKc
 1168      00
 1169              	.LEHE35:
 1170              	.LEHB36:
  46:TestTestList.cpp ****     CHECK (test.next == 0);
 1171              		.loc 2 46 0 discriminator 16
 1172 08e3 E8000000 		call	__cxa_end_catch
 1172      00
 1173              	.LEHE36:
  46:TestTestList.cpp ****     CHECK (test.next == 0);
 1174              		.loc 2 46 0
 1175 08e8 E932FFFF 		jmp	.L52
 1175      FF
 1176              	.L64:
 1177 08ed 4889C3   		movq	%rax, %rbx
  47:TestTestList.cpp ****     CHECK (test.next == 0);
 1178              		.loc 2 47 0 is_stmt 1
 1179 08f0 E8000000 		call	__cxa_end_catch
 1179      00
 1180 08f5 EB4D     		jmp	.L55
 1181              	.L63:
 1182 08f7 4889C7   		movq	%rax, %rdi
 1183 08fa E8000000 		call	__cxa_begin_catch
 1183      00
 1184              	.LEHB37:
 1185 08ff E8000000 		call	_ZN8UnitTest11CurrentTest7DetailsEv
 1185      00
 1186 0904 488B08   		movq	(%rax), %rcx
 1187 0907 488D4590 		leaq	-112(%rbp), %rax
 1188 090b BA2F0000 		movl	$47, %edx
 1188      00
 1189 0910 4889CE   		movq	%rcx, %rsi
 1190 0913 4889C7   		movq	%rax, %rdi
 1191 0916 E8000000 		call	_ZN8UnitTest11TestDetailsC1ERKS0_i
 1191      00
  47:TestTestList.cpp ****     CHECK (test.next == 0);
 1192              		.loc 2 47 0 is_stmt 0 discriminator 13
 1193 091b E8000000 		call	_ZN8UnitTest11CurrentTest7ResultsEv
 1193      00
 1194 0920 488B00   		movq	(%rax), %rax
 1195 0923 488D4D90 		leaq	-112(%rbp), %rcx
 1196 0927 BA000000 		movl	$.LC11, %edx
 1196      00
 1197 092c 4889CE   		movq	%rcx, %rsi
 1198 092f 4889C7   		movq	%rax, %rdi
 1199 0932 E8000000 		call	_ZN8UnitTest11TestResults13OnTestFailureERKNS_11TestDetailsEPKc
 1199      00
 1200              	.LEHE37:
 1201              	.LEHB38:
  47:TestTestList.cpp ****     CHECK (test.next == 0);
 1202              		.loc 2 47 0 discriminator 17
 1203 0937 E8000000 		call	__cxa_end_catch
 1203      00
 1204              	.LEHE38:
  47:TestTestList.cpp ****     CHECK (test.next == 0);
 1205              		.loc 2 47 0
 1206 093c E931FFFF 		jmp	.L53
 1206      FF
 1207              	.L60:
 1208 0941 4889C3   		movq	%rax, %rbx
 1209              	.L55:
  47:TestTestList.cpp ****     CHECK (test.next == 0);
 1210              		.loc 2 47 0 discriminator 18
 1211 0944 488D45B0 		leaq	-80(%rbp), %rax
 1212 0948 4889C7   		movq	%rax, %rdi
 1213 094b E8000000 		call	_ZN8UnitTest4TestD1Ev
 1213      00
 1214 0950 4889D8   		movq	%rbx, %rax
 1215 0953 4889C7   		movq	%rax, %rdi
 1216              	.LEHB39:
 1217 0956 E8000000 		call	_Unwind_Resume
 1217      00
 1218              	.LEHE39:
 1219              	.L65:
 1220              	.LBE12:
 1221              		.loc 2 48 0 is_stmt 1
 1222 095b E8000000 		call	__stack_chk_fail
 1222      00
 1223              	.L59:
 1224 0960 4881C498 		addq	$152, %rsp
 1224      000000
 1225 0967 5B       		popq	%rbx
 1226 0968 5D       		popq	%rbp
 1227              		.cfi_def_cfa 7, 8
 1228 0969 C3       		ret
 1229              		.cfi_endproc
 1230              	.LFE1080:
 1231              		.section	.gcc_except_table
 1232              		.align 4
 1233              	.LLSDA1080:
 1234 00c8 FF       		.byte	0xff
 1235 00c9 03       		.byte	0x3
 1236 00ca 41       		.uleb128 .LLSDATT1080-.LLSDATTD1080
 1237              	.LLSDATTD1080:
 1238 00cb 01       		.byte	0x1
 1239 00cc 36       		.uleb128 .LLSDACSE1080-.LLSDACSB1080
 1240              	.LLSDACSB1080:
 1241 00cd 29       		.uleb128 .LEHB30-.LFB1080
 1242 00ce 26       		.uleb128 .LEHE30-.LEHB30
 1243 00cf 00       		.uleb128 0
 1244 00d0 00       		.uleb128 0
 1245 00d1 64       		.uleb128 .LEHB31-.LFB1080
 1246 00d2 05       		.uleb128 .LEHE31-.LEHB31
 1247 00d3 ED03     		.uleb128 .L60-.LFB1080
 1248 00d5 00       		.uleb128 0
 1249 00d6 70       		.uleb128 .LEHB32-.LFB1080
 1250 00d7 5B       		.uleb128 .LEHE32-.LEHB32
 1251 00d8 CF02     		.uleb128 .L61-.LFB1080
 1252 00da 01       		.uleb128 0x1
 1253 00db E601     		.uleb128 .LEHB33-.LFB1080
 1254 00dd 38       		.uleb128 .LEHE33-.LEHB33
 1255 00de A303     		.uleb128 .L63-.LFB1080
 1256 00e0 01       		.uleb128 0x1
 1257 00e1 A502     		.uleb128 .LEHB34-.LFB1080
 1258 00e3 05       		.uleb128 .LEHE34-.LEHB34
 1259 00e4 00       		.uleb128 0
 1260 00e5 00       		.uleb128 0
 1261 00e6 D702     		.uleb128 .LEHB35-.LFB1080
 1262 00e8 38       		.uleb128 .LEHE35-.LEHB35
 1263 00e9 C202     		.uleb128 .L62-.LFB1080
 1264 00eb 00       		.uleb128 0
 1265 00ec 8F03     		.uleb128 .LEHB36-.LFB1080
 1266 00ee 05       		.uleb128 .LEHE36-.LEHB36
 1267 00ef ED03     		.uleb128 .L60-.LFB1080
 1268 00f1 00       		.uleb128 0
 1269 00f2 AB03     		.uleb128 .LEHB37-.LFB1080
 1270 00f4 38       		.uleb128 .LEHE37-.LEHB37
 1271 00f5 9903     		.uleb128 .L64-.LFB1080
 1272 00f7 00       		.uleb128 0
 1273 00f8 E303     		.uleb128 .LEHB38-.LFB1080
 1274 00fa 05       		.uleb128 .LEHE38-.LEHB38
 1275 00fb ED03     		.uleb128 .L60-.LFB1080
 1276 00fd 00       		.uleb128 0
 1277 00fe 8204     		.uleb128 .LEHB39-.LFB1080
 1278 0100 05       		.uleb128 .LEHE39-.LEHB39
 1279 0101 00       		.uleb128 0
 1280 0102 00       		.uleb128 0
 1281              	.LLSDACSE1080:
 1282 0103 01       		.byte	0x1
 1283 0104 00       		.byte	0
 1284 0105 000000   		.align 4
 1285 0108 00000000 		.long	0
 1286              	
 1287              	.LLSDATT1080:
 1288              		.text
 1290              		.section	.text._ZN8UnitTest5CheckIbEEbT_,"axG",@progbits,_ZN8UnitTest5CheckIbEEbT_,comdat
 1291              		.weak	_ZN8UnitTest5CheckIbEEbT_
 1293              	_ZN8UnitTest5CheckIbEEbT_:
 1294              	.LFB1108:
 1295              		.file 3 "../Checks.h"
   1:../Checks.h   **** #ifndef UNITTEST_CHECKS_H
   2:../Checks.h   **** #define UNITTEST_CHECKS_H
   3:../Checks.h   **** 
   4:../Checks.h   **** #include "Config.h"
   5:../Checks.h   **** #include "TestResults.h"
   6:../Checks.h   **** #include "MemoryOutStream.h"
   7:../Checks.h   **** 
   8:../Checks.h   **** namespace UnitTest {
   9:../Checks.h   **** 
  10:../Checks.h   **** 
  11:../Checks.h   **** template< typename Value >
  12:../Checks.h   **** bool Check(Value const value)
 1296              		.loc 3 12 0
 1297              		.cfi_startproc
 1298 0000 55       		pushq	%rbp
 1299              		.cfi_def_cfa_offset 16
 1300              		.cfi_offset 6, -16
 1301 0001 4889E5   		movq	%rsp, %rbp
 1302              		.cfi_def_cfa_register 6
 1303 0004 89F8     		movl	%edi, %eax
 1304 0006 8845FC   		movb	%al, -4(%rbp)
  13:../Checks.h   **** {
  14:../Checks.h   ****     return !!value; // doing double negative to avoid silly VS warnings
 1305              		.loc 3 14 0
 1306 0009 0FB645FC 		movzbl	-4(%rbp), %eax
  15:../Checks.h   **** }
 1307              		.loc 3 15 0
 1308 000d 5D       		popq	%rbp
 1309              		.cfi_def_cfa 7, 8
 1310 000e C3       		ret
 1311              		.cfi_endproc
 1312              	.LFE1108:
 1314              		.section	.rodata
 1315 0256 00000000 		.align 32
 1315      00000000 
 1315      0000
 1318              	_ZTVN12_GLOBAL__N_127TestListAdderAddsTestToListE:
 1319 0260 00000000 		.quad	0
 1319      00000000 
 1320 0268 00000000 		.quad	_ZTIN12_GLOBAL__N_127TestListAdderAddsTestToListE
 1320      00000000 
 1321 0270 00000000 		.quad	_ZN12_GLOBAL__N_127TestListAdderAddsTestToListD1Ev
 1321      00000000 
 1322 0278 00000000 		.quad	_ZN12_GLOBAL__N_127TestListAdderAddsTestToListD0Ev
 1322      00000000 
 1323 0280 00000000 		.quad	_ZNK12_GLOBAL__N_127TestListAdderAddsTestToList7RunImplEv
 1323      00000000 
 1324              		.text
 1325              		.align 2
 1327              	_ZN12_GLOBAL__N_127TestListAdderAddsTestToListD2Ev:
 1328              	.LFB1155:
  39:TestTestList.cpp **** {
 1329              		.loc 2 39 0
 1330              		.cfi_startproc
 1331 096a 55       		pushq	%rbp
 1332              		.cfi_def_cfa_offset 16
 1333              		.cfi_offset 6, -16
 1334 096b 4889E5   		movq	%rsp, %rbp
 1335              		.cfi_def_cfa_register 6
 1336 096e 4883EC10 		subq	$16, %rsp
 1337 0972 48897DF8 		movq	%rdi, -8(%rbp)
 1338              	.LBB13:
  39:TestTestList.cpp **** {
 1339              		.loc 2 39 0
 1340 0976 488B45F8 		movq	-8(%rbp), %rax
 1341 097a 48C70000 		movq	$_ZTVN12_GLOBAL__N_127TestListAdderAddsTestToListE+16, (%rax)
 1341      000000
 1342 0981 488B45F8 		movq	-8(%rbp), %rax
 1343 0985 4889C7   		movq	%rax, %rdi
 1344 0988 E8000000 		call	_ZN8UnitTest4TestD2Ev
 1344      00
 1345              	.LBE13:
 1346 098d B8000000 		movl	$0, %eax
 1346      00
 1347 0992 85C0     		testl	%eax, %eax
 1348 0994 740C     		je	.L68
  39:TestTestList.cpp **** {
 1349              		.loc 2 39 0 is_stmt 0 discriminator 4
 1350 0996 488B45F8 		movq	-8(%rbp), %rax
 1351 099a 4889C7   		movq	%rax, %rdi
 1352 099d E8000000 		call	_ZdlPv
 1352      00
 1353              	.L68:
  39:TestTestList.cpp **** {
 1354              		.loc 2 39 0
 1355 09a2 C9       		leave
 1356              		.cfi_def_cfa 7, 8
 1357 09a3 C3       		ret
 1358              		.cfi_endproc
 1359              	.LFE1155:
 1361              		.set	_ZN12_GLOBAL__N_127TestListAdderAddsTestToListD1Ev,_ZN12_GLOBAL__N_127TestListAdderAddsTestTo
 1362              		.align 2
 1364              	_ZN12_GLOBAL__N_127TestListAdderAddsTestToListD0Ev:
 1365              	.LFB1157:
  39:TestTestList.cpp **** {
 1366              		.loc 2 39 0 is_stmt 1
 1367              		.cfi_startproc
 1368 09a4 55       		pushq	%rbp
 1369              		.cfi_def_cfa_offset 16
 1370              		.cfi_offset 6, -16
 1371 09a5 4889E5   		movq	%rsp, %rbp
 1372              		.cfi_def_cfa_register 6
 1373 09a8 4883EC10 		subq	$16, %rsp
 1374 09ac 48897DF8 		movq	%rdi, -8(%rbp)
  39:TestTestList.cpp **** {
 1375              		.loc 2 39 0
 1376 09b0 488B45F8 		movq	-8(%rbp), %rax
 1377 09b4 4889C7   		movq	%rax, %rdi
 1378 09b7 E8AEFFFF 		call	_ZN12_GLOBAL__N_127TestListAdderAddsTestToListD2Ev
 1378      FF
 1379 09bc 488B45F8 		movq	-8(%rbp), %rax
 1380 09c0 4889C7   		movq	%rax, %rdi
 1381 09c3 E8000000 		call	_ZdlPv
 1381      00
 1382 09c8 C9       		leave
 1383              		.cfi_def_cfa 7, 8
 1384 09c9 C3       		ret
 1385              		.cfi_endproc
 1386              	.LFE1157:
 1388              		.section	.rodata
 1389 0288 00000000 		.align 32
 1389      00000000 
 1389      00000000 
 1389      00000000 
 1389      00000000 
 1392              	_ZTVN12_GLOBAL__N_137TestAddingSecondTestAddsItToEndOfListE:
 1393 02a0 00000000 		.quad	0
 1393      00000000 
 1394 02a8 00000000 		.quad	_ZTIN12_GLOBAL__N_137TestAddingSecondTestAddsItToEndOfListE
 1394      00000000 
 1395 02b0 00000000 		.quad	_ZN12_GLOBAL__N_137TestAddingSecondTestAddsItToEndOfListD1Ev
 1395      00000000 
 1396 02b8 00000000 		.quad	_ZN12_GLOBAL__N_137TestAddingSecondTestAddsItToEndOfListD0Ev
 1396      00000000 
 1397 02c0 00000000 		.quad	_ZNK12_GLOBAL__N_137TestAddingSecondTestAddsItToEndOfList7RunImplEv
 1397      00000000 
 1398              		.text
 1399              		.align 2
 1401              	_ZN12_GLOBAL__N_137TestAddingSecondTestAddsItToEndOfListD2Ev:
 1402              	.LFB1159:
  25:TestTestList.cpp **** {
 1403              		.loc 2 25 0
 1404              		.cfi_startproc
 1405 09ca 55       		pushq	%rbp
 1406              		.cfi_def_cfa_offset 16
 1407              		.cfi_offset 6, -16
 1408 09cb 4889E5   		movq	%rsp, %rbp
 1409              		.cfi_def_cfa_register 6
 1410 09ce 4883EC10 		subq	$16, %rsp
 1411 09d2 48897DF8 		movq	%rdi, -8(%rbp)
 1412              	.LBB14:
  25:TestTestList.cpp **** {
 1413              		.loc 2 25 0
 1414 09d6 488B45F8 		movq	-8(%rbp), %rax
 1415 09da 48C70000 		movq	$_ZTVN12_GLOBAL__N_137TestAddingSecondTestAddsItToEndOfListE+16, (%rax)
 1415      000000
 1416 09e1 488B45F8 		movq	-8(%rbp), %rax
 1417 09e5 4889C7   		movq	%rax, %rdi
 1418 09e8 E8000000 		call	_ZN8UnitTest4TestD2Ev
 1418      00
 1419              	.LBE14:
 1420 09ed B8000000 		movl	$0, %eax
 1420      00
 1421 09f2 85C0     		testl	%eax, %eax
 1422 09f4 740C     		je	.L73
  25:TestTestList.cpp **** {
 1423              		.loc 2 25 0 is_stmt 0 discriminator 4
 1424 09f6 488B45F8 		movq	-8(%rbp), %rax
 1425 09fa 4889C7   		movq	%rax, %rdi
 1426 09fd E8000000 		call	_ZdlPv
 1426      00
 1427              	.L73:
  25:TestTestList.cpp **** {
 1428              		.loc 2 25 0
 1429 0a02 C9       		leave
 1430              		.cfi_def_cfa 7, 8
 1431 0a03 C3       		ret
 1432              		.cfi_endproc
 1433              	.LFE1159:
 1435              		.set	_ZN12_GLOBAL__N_137TestAddingSecondTestAddsItToEndOfListD1Ev,_ZN12_GLOBAL__N_137TestAddingSec
 1436              		.align 2
 1438              	_ZN12_GLOBAL__N_137TestAddingSecondTestAddsItToEndOfListD0Ev:
 1439              	.LFB1161:
  25:TestTestList.cpp **** {
 1440              		.loc 2 25 0 is_stmt 1
 1441              		.cfi_startproc
 1442 0a04 55       		pushq	%rbp
 1443              		.cfi_def_cfa_offset 16
 1444              		.cfi_offset 6, -16
 1445 0a05 4889E5   		movq	%rsp, %rbp
 1446              		.cfi_def_cfa_register 6
 1447 0a08 4883EC10 		subq	$16, %rsp
 1448 0a0c 48897DF8 		movq	%rdi, -8(%rbp)
  25:TestTestList.cpp **** {
 1449              		.loc 2 25 0
 1450 0a10 488B45F8 		movq	-8(%rbp), %rax
 1451 0a14 4889C7   		movq	%rax, %rdi
 1452 0a17 E8AEFFFF 		call	_ZN12_GLOBAL__N_137TestAddingSecondTestAddsItToEndOfListD2Ev
 1452      FF
 1453 0a1c 488B45F8 		movq	-8(%rbp), %rax
 1454 0a20 4889C7   		movq	%rax, %rdi
 1455 0a23 E8000000 		call	_ZdlPv
 1455      00
 1456 0a28 C9       		leave
 1457              		.cfi_def_cfa 7, 8
 1458 0a29 C3       		ret
 1459              		.cfi_endproc
 1460              	.LFE1161:
 1462              		.section	.rodata
 1463 02c8 00000000 		.align 32
 1463      00000000 
 1463      00000000 
 1463      00000000 
 1463      00000000 
 1466              	_ZTVN12_GLOBAL__N_128TestAddingTestSetsHeadToTestE:
 1467 02e0 00000000 		.quad	0
 1467      00000000 
 1468 02e8 00000000 		.quad	_ZTIN12_GLOBAL__N_128TestAddingTestSetsHeadToTestE
 1468      00000000 
 1469 02f0 00000000 		.quad	_ZN12_GLOBAL__N_128TestAddingTestSetsHeadToTestD1Ev
 1469      00000000 
 1470 02f8 00000000 		.quad	_ZN12_GLOBAL__N_128TestAddingTestSetsHeadToTestD0Ev
 1470      00000000 
 1471 0300 00000000 		.quad	_ZNK12_GLOBAL__N_128TestAddingTestSetsHeadToTest7RunImplEv
 1471      00000000 
 1472              		.text
 1473              		.align 2
 1475              	_ZN12_GLOBAL__N_128TestAddingTestSetsHeadToTestD2Ev:
 1476              	.LFB1163:
  15:TestTestList.cpp **** {
 1477              		.loc 2 15 0
 1478              		.cfi_startproc
 1479 0a2a 55       		pushq	%rbp
 1480              		.cfi_def_cfa_offset 16
 1481              		.cfi_offset 6, -16
 1482 0a2b 4889E5   		movq	%rsp, %rbp
 1483              		.cfi_def_cfa_register 6
 1484 0a2e 4883EC10 		subq	$16, %rsp
 1485 0a32 48897DF8 		movq	%rdi, -8(%rbp)
 1486              	.LBB15:
  15:TestTestList.cpp **** {
 1487              		.loc 2 15 0
 1488 0a36 488B45F8 		movq	-8(%rbp), %rax
 1489 0a3a 48C70000 		movq	$_ZTVN12_GLOBAL__N_128TestAddingTestSetsHeadToTestE+16, (%rax)
 1489      000000
 1490 0a41 488B45F8 		movq	-8(%rbp), %rax
 1491 0a45 4889C7   		movq	%rax, %rdi
 1492 0a48 E8000000 		call	_ZN8UnitTest4TestD2Ev
 1492      00
 1493              	.LBE15:
 1494 0a4d B8000000 		movl	$0, %eax
 1494      00
 1495 0a52 85C0     		testl	%eax, %eax
 1496 0a54 740C     		je	.L78
  15:TestTestList.cpp **** {
 1497              		.loc 2 15 0 is_stmt 0 discriminator 4
 1498 0a56 488B45F8 		movq	-8(%rbp), %rax
 1499 0a5a 4889C7   		movq	%rax, %rdi
 1500 0a5d E8000000 		call	_ZdlPv
 1500      00
 1501              	.L78:
  15:TestTestList.cpp **** {
 1502              		.loc 2 15 0
 1503 0a62 C9       		leave
 1504              		.cfi_def_cfa 7, 8
 1505 0a63 C3       		ret
 1506              		.cfi_endproc
 1507              	.LFE1163:
 1509              		.set	_ZN12_GLOBAL__N_128TestAddingTestSetsHeadToTestD1Ev,_ZN12_GLOBAL__N_128TestAddingTestSetsHead
 1510              		.align 2
 1512              	_ZN12_GLOBAL__N_128TestAddingTestSetsHeadToTestD0Ev:
 1513              	.LFB1165:
  15:TestTestList.cpp **** {
 1514              		.loc 2 15 0 is_stmt 1
 1515              		.cfi_startproc
 1516 0a64 55       		pushq	%rbp
 1517              		.cfi_def_cfa_offset 16
 1518              		.cfi_offset 6, -16
 1519 0a65 4889E5   		movq	%rsp, %rbp
 1520              		.cfi_def_cfa_register 6
 1521 0a68 4883EC10 		subq	$16, %rsp
 1522 0a6c 48897DF8 		movq	%rdi, -8(%rbp)
  15:TestTestList.cpp **** {
 1523              		.loc 2 15 0
 1524 0a70 488B45F8 		movq	-8(%rbp), %rax
 1525 0a74 4889C7   		movq	%rax, %rdi
 1526 0a77 E8AEFFFF 		call	_ZN12_GLOBAL__N_128TestAddingTestSetsHeadToTestD2Ev
 1526      FF
 1527 0a7c 488B45F8 		movq	-8(%rbp), %rax
 1528 0a80 4889C7   		movq	%rax, %rdi
 1529 0a83 E8000000 		call	_ZdlPv
 1529      00
 1530 0a88 C9       		leave
 1531              		.cfi_def_cfa 7, 8
 1532 0a89 C3       		ret
 1533              		.cfi_endproc
 1534              	.LFE1165:
 1536              		.section	.rodata
 1537 0308 00000000 		.align 32
 1537      00000000 
 1537      00000000 
 1537      00000000 
 1537      00000000 
 1540              	_ZTVN12_GLOBAL__N_128TestTestListIsEmptyByDefaultE:
 1541 0320 00000000 		.quad	0
 1541      00000000 
 1542 0328 00000000 		.quad	_ZTIN12_GLOBAL__N_128TestTestListIsEmptyByDefaultE
 1542      00000000 
 1543 0330 00000000 		.quad	_ZN12_GLOBAL__N_128TestTestListIsEmptyByDefaultD1Ev
 1543      00000000 
 1544 0338 00000000 		.quad	_ZN12_GLOBAL__N_128TestTestListIsEmptyByDefaultD0Ev
 1544      00000000 
 1545 0340 00000000 		.quad	_ZNK12_GLOBAL__N_128TestTestListIsEmptyByDefault7RunImplEv
 1545      00000000 
 1546              		.text
 1547              		.align 2
 1549              	_ZN12_GLOBAL__N_128TestTestListIsEmptyByDefaultD2Ev:
 1550              	.LFB1167:
   9:TestTestList.cpp **** {
 1551              		.loc 2 9 0
 1552              		.cfi_startproc
 1553 0a8a 55       		pushq	%rbp
 1554              		.cfi_def_cfa_offset 16
 1555              		.cfi_offset 6, -16
 1556 0a8b 4889E5   		movq	%rsp, %rbp
 1557              		.cfi_def_cfa_register 6
 1558 0a8e 4883EC10 		subq	$16, %rsp
 1559 0a92 48897DF8 		movq	%rdi, -8(%rbp)
 1560              	.LBB16:
   9:TestTestList.cpp **** {
 1561              		.loc 2 9 0
 1562 0a96 488B45F8 		movq	-8(%rbp), %rax
 1563 0a9a 48C70000 		movq	$_ZTVN12_GLOBAL__N_128TestTestListIsEmptyByDefaultE+16, (%rax)
 1563      000000
 1564 0aa1 488B45F8 		movq	-8(%rbp), %rax
 1565 0aa5 4889C7   		movq	%rax, %rdi
 1566 0aa8 E8000000 		call	_ZN8UnitTest4TestD2Ev
 1566      00
 1567              	.LBE16:
 1568 0aad B8000000 		movl	$0, %eax
 1568      00
 1569 0ab2 85C0     		testl	%eax, %eax
 1570 0ab4 740C     		je	.L83
   9:TestTestList.cpp **** {
 1571              		.loc 2 9 0 is_stmt 0 discriminator 4
 1572 0ab6 488B45F8 		movq	-8(%rbp), %rax
 1573 0aba 4889C7   		movq	%rax, %rdi
 1574 0abd E8000000 		call	_ZdlPv
 1574      00
 1575              	.L83:
   9:TestTestList.cpp **** {
 1576              		.loc 2 9 0
 1577 0ac2 C9       		leave
 1578              		.cfi_def_cfa 7, 8
 1579 0ac3 C3       		ret
 1580              		.cfi_endproc
 1581              	.LFE1167:
 1583              		.set	_ZN12_GLOBAL__N_128TestTestListIsEmptyByDefaultD1Ev,_ZN12_GLOBAL__N_128TestTestListIsEmptyByD
 1584              		.align 2
 1586              	_ZN12_GLOBAL__N_128TestTestListIsEmptyByDefaultD0Ev:
 1587              	.LFB1169:
   9:TestTestList.cpp **** {
 1588              		.loc 2 9 0 is_stmt 1
 1589              		.cfi_startproc
 1590 0ac4 55       		pushq	%rbp
 1591              		.cfi_def_cfa_offset 16
 1592              		.cfi_offset 6, -16
 1593 0ac5 4889E5   		movq	%rsp, %rbp
 1594              		.cfi_def_cfa_register 6
 1595 0ac8 4883EC10 		subq	$16, %rsp
 1596 0acc 48897DF8 		movq	%rdi, -8(%rbp)
   9:TestTestList.cpp **** {
 1597              		.loc 2 9 0
 1598 0ad0 488B45F8 		movq	-8(%rbp), %rax
 1599 0ad4 4889C7   		movq	%rax, %rdi
 1600 0ad7 E8AEFFFF 		call	_ZN12_GLOBAL__N_128TestTestListIsEmptyByDefaultD2Ev
 1600      FF
 1601 0adc 488B45F8 		movq	-8(%rbp), %rax
 1602 0ae0 4889C7   		movq	%rax, %rdi
 1603 0ae3 E8000000 		call	_ZdlPv
 1603      00
 1604 0ae8 C9       		leave
 1605              		.cfi_def_cfa 7, 8
 1606 0ae9 C3       		ret
 1607              		.cfi_endproc
 1608              	.LFE1169:
 1611              	_Z41__static_initialization_and_destruction_0ii:
 1612              	.LFB1174:
  49:TestTestList.cpp **** 
  50:TestTestList.cpp **** }
 1613              		.loc 2 50 0
 1614              		.cfi_startproc
 1615 0aea 55       		pushq	%rbp
 1616              		.cfi_def_cfa_offset 16
 1617              		.cfi_offset 6, -16
 1618 0aeb 4889E5   		movq	%rsp, %rbp
 1619              		.cfi_def_cfa_register 6
 1620 0aee 4883EC10 		subq	$16, %rsp
 1621 0af2 897DFC   		movl	%edi, -4(%rbp)
 1622 0af5 8975F8   		movl	%esi, -8(%rbp)
 1623              		.loc 2 50 0
 1624 0af8 837DFC01 		cmpl	$1, -4(%rbp)
 1625 0afc 0F85E100 		jne	.L88
 1625      0000
 1626              		.loc 2 50 0 is_stmt 0 discriminator 1
 1627 0b02 817DF8FF 		cmpl	$65535, -8(%rbp)
 1627      FF0000
 1628 0b09 0F85D400 		jne	.L88
 1628      0000
   9:TestTestList.cpp **** {
 1629              		.loc 2 9 0 is_stmt 1
 1630 0b0f BF000000 		movl	$_ZN12_GLOBAL__N_136testTestListIsEmptyByDefaultInstanceE, %edi
 1630      00
 1631 0b14 E8E7F4FF 		call	_ZN12_GLOBAL__N_128TestTestListIsEmptyByDefaultC2Ev
 1631      FF
 1632 0b19 BA000000 		movl	$__dso_handle, %edx
 1632      00
 1633 0b1e BE000000 		movl	$_ZN12_GLOBAL__N_136testTestListIsEmptyByDefaultInstanceE, %esi
 1633      00
 1634 0b23 BF000000 		movl	$_ZN12_GLOBAL__N_128TestTestListIsEmptyByDefaultD1Ev, %edi
 1634      00
 1635 0b28 E8000000 		call	__cxa_atexit
 1635      00
 1636 0b2d E8000000 		call	_ZN8UnitTest4Test11GetTestListEv
 1636      00
 1637 0b32 BA000000 		movl	$_ZN12_GLOBAL__N_136testTestListIsEmptyByDefaultInstanceE, %edx
 1637      00
 1638 0b37 4889C6   		movq	%rax, %rsi
 1639 0b3a BF000000 		movl	$_ZN12_GLOBAL__N_129adderTestListIsEmptyByDefaultE, %edi
 1639      00
 1640 0b3f E8000000 		call	_ZN8UnitTest9ListAdderC1ERNS_8TestListEPNS_4TestE
 1640      00
  15:TestTestList.cpp **** {
 1641              		.loc 2 15 0
 1642 0b44 BF000000 		movl	$_ZN12_GLOBAL__N_136testAddingTestSetsHeadToTestInstanceE, %edi
 1642      00
 1643 0b49 E8EEF5FF 		call	_ZN12_GLOBAL__N_128TestAddingTestSetsHeadToTestC2Ev
 1643      FF
 1644 0b4e BA000000 		movl	$__dso_handle, %edx
 1644      00
 1645 0b53 BE000000 		movl	$_ZN12_GLOBAL__N_136testAddingTestSetsHeadToTestInstanceE, %esi
 1645      00
 1646 0b58 BF000000 		movl	$_ZN12_GLOBAL__N_128TestAddingTestSetsHeadToTestD1Ev, %edi
 1646      00
 1647 0b5d E8000000 		call	__cxa_atexit
 1647      00
 1648 0b62 E8000000 		call	_ZN8UnitTest4Test11GetTestListEv
 1648      00
 1649 0b67 BA000000 		movl	$_ZN12_GLOBAL__N_136testAddingTestSetsHeadToTestInstanceE, %edx
 1649      00
 1650 0b6c 4889C6   		movq	%rax, %rsi
 1651 0b6f BF000000 		movl	$_ZN12_GLOBAL__N_129adderAddingTestSetsHeadToTestE, %edi
 1651      00
 1652 0b74 E8000000 		call	_ZN8UnitTest9ListAdderC1ERNS_8TestListEPNS_4TestE
 1652      00
  25:TestTestList.cpp **** {
 1653              		.loc 2 25 0
 1654 0b79 BF000000 		movl	$_ZN12_GLOBAL__N_145testAddingSecondTestAddsItToEndOfListInstanceE, %edi
 1654      00
 1655 0b7e E807F8FF 		call	_ZN12_GLOBAL__N_137TestAddingSecondTestAddsItToEndOfListC2Ev
 1655      FF
 1656 0b83 BA000000 		movl	$__dso_handle, %edx
 1656      00
 1657 0b88 BE000000 		movl	$_ZN12_GLOBAL__N_145testAddingSecondTestAddsItToEndOfListInstanceE, %esi
 1657      00
 1658 0b8d BF000000 		movl	$_ZN12_GLOBAL__N_137TestAddingSecondTestAddsItToEndOfListD1Ev, %edi
 1658      00
 1659 0b92 E8000000 		call	__cxa_atexit
 1659      00
 1660 0b97 E8000000 		call	_ZN8UnitTest4Test11GetTestListEv
 1660      00
 1661 0b9c BA000000 		movl	$_ZN12_GLOBAL__N_145testAddingSecondTestAddsItToEndOfListInstanceE, %edx
 1661      00
 1662 0ba1 4889C6   		movq	%rax, %rsi
 1663 0ba4 BF000000 		movl	$_ZN12_GLOBAL__N_138adderAddingSecondTestAddsItToEndOfListE, %edi
 1663      00
 1664 0ba9 E8000000 		call	_ZN8UnitTest9ListAdderC1ERNS_8TestListEPNS_4TestE
 1664      00
  39:TestTestList.cpp **** {
 1665              		.loc 2 39 0
 1666 0bae BF000000 		movl	$_ZN12_GLOBAL__N_135testListAdderAddsTestToListInstanceE, %edi
 1666      00
 1667 0bb3 E85EFBFF 		call	_ZN12_GLOBAL__N_127TestListAdderAddsTestToListC2Ev
 1667      FF
 1668 0bb8 BA000000 		movl	$__dso_handle, %edx
 1668      00
 1669 0bbd BE000000 		movl	$_ZN12_GLOBAL__N_135testListAdderAddsTestToListInstanceE, %esi
 1669      00
 1670 0bc2 BF000000 		movl	$_ZN12_GLOBAL__N_127TestListAdderAddsTestToListD1Ev, %edi
 1670      00
 1671 0bc7 E8000000 		call	__cxa_atexit
 1671      00
 1672 0bcc E8000000 		call	_ZN8UnitTest4Test11GetTestListEv
 1672      00
 1673 0bd1 BA000000 		movl	$_ZN12_GLOBAL__N_135testListAdderAddsTestToListInstanceE, %edx
 1673      00
 1674 0bd6 4889C6   		movq	%rax, %rsi
 1675 0bd9 BF000000 		movl	$_ZN12_GLOBAL__N_128adderListAdderAddsTestToListE, %edi
 1675      00
 1676 0bde E8000000 		call	_ZN8UnitTest9ListAdderC1ERNS_8TestListEPNS_4TestE
 1676      00
 1677              	.L88:
 1678              		.loc 2 50 0
 1679 0be3 C9       		leave
 1680              		.cfi_def_cfa 7, 8
 1681 0be4 C3       		ret
 1682              		.cfi_endproc
 1683              	.LFE1174:
 1685              		.section	.rodata
 1686 0348 00000000 		.align 16
 1686      00000000 
 1689              	_ZTIN12_GLOBAL__N_128TestTestListIsEmptyByDefaultE:
 1690 0350 00000000 		.quad	_ZTVN10__cxxabiv120__si_class_type_infoE+16
 1690      00000000 
 1691 0358 00000000 		.quad	_ZTSN12_GLOBAL__N_128TestTestListIsEmptyByDefaultE
 1691      00000000 
 1692 0360 00000000 		.quad	_ZTIN8UnitTest4TestE
 1692      00000000 
 1693 0368 00000000 		.align 16
 1693      00000000 
 1696              	_ZTIN12_GLOBAL__N_128TestAddingTestSetsHeadToTestE:
 1697 0370 00000000 		.quad	_ZTVN10__cxxabiv120__si_class_type_infoE+16
 1697      00000000 
 1698 0378 00000000 		.quad	_ZTSN12_GLOBAL__N_128TestAddingTestSetsHeadToTestE
 1698      00000000 
 1699 0380 00000000 		.quad	_ZTIN8UnitTest4TestE
 1699      00000000 
 1700 0388 00000000 		.align 16
 1700      00000000 
 1703              	_ZTIN12_GLOBAL__N_137TestAddingSecondTestAddsItToEndOfListE:
 1704 0390 00000000 		.quad	_ZTVN10__cxxabiv120__si_class_type_infoE+16
 1704      00000000 
 1705 0398 00000000 		.quad	_ZTSN12_GLOBAL__N_137TestAddingSecondTestAddsItToEndOfListE
 1705      00000000 
 1706 03a0 00000000 		.quad	_ZTIN8UnitTest4TestE
 1706      00000000 
 1707 03a8 00000000 		.align 16
 1707      00000000 
 1710              	_ZTIN12_GLOBAL__N_127TestListAdderAddsTestToListE:
 1711 03b0 00000000 		.quad	_ZTVN10__cxxabiv120__si_class_type_infoE+16
 1711      00000000 
 1712 03b8 00000000 		.quad	_ZTSN12_GLOBAL__N_127TestListAdderAddsTestToListE
 1712      00000000 
 1713 03c0 00000000 		.quad	_ZTIN8UnitTest4TestE
 1713      00000000 
 1714 03c8 00000000 		.align 32
 1714      00000000 
 1714      00000000 
 1714      00000000 
 1714      00000000 
 1717              	_ZTSN12_GLOBAL__N_127TestListAdderAddsTestToListE:
 1718 03e0 2A4E3132 		.string	"*N12_GLOBAL__N_127TestListAdderAddsTestToListE"
 1718      5F474C4F 
 1718      42414C5F 
 1718      5F4E5F31 
 1718      32375465 
 1719 040f 00000000 		.align 32
 1719      00000000 
 1719      00000000 
 1719      00000000 
 1719      00
 1722              	_ZTSN12_GLOBAL__N_137TestAddingSecondTestAddsItToEndOfListE:
 1723 0420 2A4E3132 		.string	"*N12_GLOBAL__N_137TestAddingSecondTestAddsItToEndOfListE"
 1723      5F474C4F 
 1723      42414C5F 
 1723      5F4E5F31 
 1723      33375465 
 1724 0459 00000000 		.align 32
 1724      000000
 1727              	_ZTSN12_GLOBAL__N_128TestAddingTestSetsHeadToTestE:
 1728 0460 2A4E3132 		.string	"*N12_GLOBAL__N_128TestAddingTestSetsHeadToTestE"
 1728      5F474C4F 
 1728      42414C5F 
 1728      5F4E5F31 
 1728      32385465 
 1729 0490 00000000 		.align 32
 1729      00000000 
 1729      00000000 
 1729      00000000 
 1732              	_ZTSN12_GLOBAL__N_128TestTestListIsEmptyByDefaultE:
 1733 04a0 2A4E3132 		.string	"*N12_GLOBAL__N_128TestTestListIsEmptyByDefaultE"
 1733      5F474C4F 
 1733      42414C5F 
 1733      5F4E5F31 
 1733      32385465 
 1734              		.text
 1736              	_GLOBAL__sub_I_TestTestList.cpp:
 1737              	.LFB1175:
 1738              		.loc 2 50 0
 1739              		.cfi_startproc
 1740 0be5 55       		pushq	%rbp
 1741              		.cfi_def_cfa_offset 16
 1742              		.cfi_offset 6, -16
 1743 0be6 4889E5   		movq	%rsp, %rbp
 1744              		.cfi_def_cfa_register 6
 1745              		.loc 2 50 0
 1746 0be9 BEFFFF00 		movl	$65535, %esi
 1746      00
 1747 0bee BF010000 		movl	$1, %edi
 1747      00
 1748 0bf3 E8F2FEFF 		call	_Z41__static_initialization_and_destruction_0ii
 1748      FF
 1749 0bf8 5D       		popq	%rbp
 1750              		.cfi_def_cfa 7, 8
 1751 0bf9 C3       		ret
 1752              		.cfi_endproc
 1753              	.LFE1175:
 1755              		.section	.init_array,"aw"
 1756              		.align 8
 1757 0000 00000000 		.quad	_GLOBAL__sub_I_TestTestList.cpp
 1757      00000000 
 1758              		.text
 1759              	.Letext0:
 1760              		.file 4 "../TestList.h"
 1761              		.file 5 "<built-in>"
 1762              		.file 6 "/usr/include/stdio.h"
 1763              		.file 7 "/usr/lib/gcc/x86_64-linux-gnu/4.9/include/stddef.h"
 1764              		.file 8 "/usr/include/wchar.h"
 1765              		.file 9 "/usr/include/c++/4.9/cwchar"
 1766              		.file 10 "/usr/include/x86_64-linux-gnu/c++/4.9/bits/c++config.h"
 1767              		.file 11 "/usr/include/c++/4.9/clocale"
 1768              		.file 12 "/usr/include/c++/4.9/cwctype"
 1769              		.file 13 "/usr/include/time.h"
 1770              		.file 14 "../TestDetails.h"
 1771              		.file 15 "/usr/include/c++/4.9/debug/debug.h"
 1772              		.file 16 "/usr/include/c++/4.9/bits/predefined_ops.h"
 1773              		.file 17 "/usr/include/c++/4.9/ext/new_allocator.h"
 1774              		.file 18 "/usr/include/c++/4.9/ext/numeric_traits.h"
 1775              		.file 19 "/usr/include/locale.h"
 1776              		.file 20 "/usr/include/x86_64-linux-gnu/bits/types.h"
 1777              		.file 21 "/usr/include/wctype.h"