   1              		.file	"TestMemoryOutStream.cpp"
   2              		.text
   3              	.Ltext0:
   4              		.section	.rodata
   5              	.LC0:
   6 0000 44656661 		.string	"DefaultSuite"
   6      756C7453 
   6      75697465 
   6      00
   7              		.section	.text._ZN13UnitTestSuite12GetSuiteNameEv,"axG",@progbits,_ZN13UnitTestSuite12GetSuiteName
   8              		.weak	_ZN13UnitTestSuite12GetSuiteNameEv
  10              	_ZN13UnitTestSuite12GetSuiteNameEv:
  11              	.LFB0:
  12              		.file 1 "../TestSuite.h"
   1:../TestSuite.h **** #ifndef UNITTEST_TESTSUITE_H
   2:../TestSuite.h **** #define UNITTEST_TESTSUITE_H
   3:../TestSuite.h **** 
   4:../TestSuite.h **** namespace UnitTestSuite {
   5:../TestSuite.h **** 
   6:../TestSuite.h ****     inline char const* GetSuiteName ()
   7:../TestSuite.h ****     {
  13              		.loc 1 7 0
  14              		.cfi_startproc
  15 0000 55       		pushq	%rbp
  16              		.cfi_def_cfa_offset 16
  17              		.cfi_offset 6, -16
  18 0001 4889E5   		movq	%rsp, %rbp
  19              		.cfi_def_cfa_register 6
   8:../TestSuite.h ****         return "DefaultSuite";
  20              		.loc 1 8 0
  21 0004 B8000000 		movl	$.LC0, %eax
  21      00
   9:../TestSuite.h ****     }
  22              		.loc 1 9 0
  23 0009 5D       		popq	%rbp
  24              		.cfi_def_cfa 7, 8
  25 000a C3       		ret
  26              		.cfi_endproc
  27              	.LFE0:
  29              		.section	.text._ZN8UnitTest15MemoryOutStreamC1Ev,"axG",@progbits,_ZN8UnitTest15MemoryOutStreamC1Ev
  30              		.align 2
  31              		.weak	_ZN8UnitTest15MemoryOutStreamC1Ev
  33              	_ZN8UnitTest15MemoryOutStreamC1Ev:
  34              	.LFB1053:
  35              		.file 2 "../MemoryOutStream.h"
   1:../MemoryOutStream.h **** #ifndef UNITTEST_MEMORYOUTSTREAM_H
   2:../MemoryOutStream.h **** #define UNITTEST_MEMORYOUTSTREAM_H
   3:../MemoryOutStream.h **** 
   4:../MemoryOutStream.h **** #include "Config.h"
   5:../MemoryOutStream.h **** 
   6:../MemoryOutStream.h **** #ifndef UNITTEST_USE_CUSTOM_STREAMS
   7:../MemoryOutStream.h **** 
   8:../MemoryOutStream.h **** #include <sstream>
   9:../MemoryOutStream.h **** 
  10:../MemoryOutStream.h **** namespace UnitTest
  11:../MemoryOutStream.h **** {
  12:../MemoryOutStream.h **** 
  13:../MemoryOutStream.h **** class MemoryOutStream : public std::ostringstream
  14:../MemoryOutStream.h **** {
  15:../MemoryOutStream.h **** public:
  16:../MemoryOutStream.h ****     MemoryOutStream() {}
  36              		.loc 2 16 0
  37              		.cfi_startproc
  38              		.cfi_personality 0x3,__gxx_personality_v0
  39              		.cfi_lsda 0x3,.LLSDA1053
  40 0000 55       		pushq	%rbp
  41              		.cfi_def_cfa_offset 16
  42              		.cfi_offset 6, -16
  43 0001 4889E5   		movq	%rsp, %rbp
  44              		.cfi_def_cfa_register 6
  45 0004 53       		pushq	%rbx
  46 0005 4883EC18 		subq	$24, %rsp
  47              		.cfi_offset 3, -24
  48 0009 48897DE8 		movq	%rdi, -24(%rbp)
  49              	.LBB2:
  50              		.loc 2 16 0
  51 000d 488B45E8 		movq	-24(%rbp), %rax
  52 0011 4883C060 		addq	$96, %rax
  53 0015 4889C7   		movq	%rax, %rdi
  54              	.LEHB0:
  55 0018 E8000000 		call	_ZNSt9basic_iosIcSt11char_traitsIcEEC2Ev
  55      00
  56              	.LEHE0:
  57 001d B9000000 		movl	$_ZTTN8UnitTest15MemoryOutStreamE+8, %ecx
  57      00
  58 0022 488B45E8 		movq	-24(%rbp), %rax
  59 0026 BA100000 		movl	$16, %edx
  59      00
  60 002b 4889CE   		movq	%rcx, %rsi
  61 002e 4889C7   		movq	%rax, %rdi
  62              	.LEHB1:
  63 0031 E8000000 		call	_ZNSt19basic_ostringstreamIcSt11char_traitsIcESaIcEEC2ESt13_Ios_Openmode
  63      00
  64              	.LEHE1:
  65              		.loc 2 16 0 is_stmt 0 discriminator 9
  66 0036 BA000000 		movl	$_ZTVN8UnitTest15MemoryOutStreamE+24, %edx
  66      00
  67 003b 488B45E8 		movq	-24(%rbp), %rax
  68 003f 488910   		movq	%rdx, (%rax)
  69 0042 BA600000 		movl	$96, %edx
  69      00
  70 0047 488B45E8 		movq	-24(%rbp), %rax
  71 004b 4801D0   		addq	%rdx, %rax
  72 004e BA000000 		movl	$_ZTVN8UnitTest15MemoryOutStreamE+64, %edx
  72      00
  73 0053 488910   		movq	%rdx, (%rax)
  74 0056 488B45E8 		movq	-24(%rbp), %rax
  75 005a 4883C058 		addq	$88, %rax
  76 005e 4889C7   		movq	%rax, %rdi
  77              	.LEHB2:
  78 0061 E8000000 		call	_ZNSsC1Ev
  78      00
  79              	.LEHE2:
  80              	.LBE2:
  81              		.loc 2 16 0
  82 0066 EB37     		jmp	.L8
  83              	.L6:
  84 0068 4889C3   		movq	%rax, %rbx
  85              	.LBB3:
  86 006b BA000000 		movl	$_ZTTN8UnitTest15MemoryOutStreamE+8, %edx
  86      00
  87 0070 488B45E8 		movq	-24(%rbp), %rax
  88 0074 4889D6   		movq	%rdx, %rsi
  89 0077 4889C7   		movq	%rax, %rdi
  90 007a E8000000 		call	_ZNSt19basic_ostringstreamIcSt11char_traitsIcESaIcEED2Ev
  90      00
  91 007f EB03     		jmp	.L5
  92              	.L7:
  93 0081 4889C3   		movq	%rax, %rbx
  94              	.L5:
  95              		.loc 2 16 0 discriminator 28
  96 0084 488B45E8 		movq	-24(%rbp), %rax
  97 0088 4883C060 		addq	$96, %rax
  98 008c 4889C7   		movq	%rax, %rdi
  99 008f E8000000 		call	_ZNSt9basic_iosIcSt11char_traitsIcEED2Ev
  99      00
 100 0094 4889D8   		movq	%rbx, %rax
 101 0097 4889C7   		movq	%rax, %rdi
 102              	.LEHB3:
 103 009a E8000000 		call	_Unwind_Resume
 103      00
 104              	.LEHE3:
 105              	.L8:
 106              	.LBE3:
 107              		.loc 2 16 0
 108 009f 4883C418 		addq	$24, %rsp
 109 00a3 5B       		popq	%rbx
 110 00a4 5D       		popq	%rbp
 111              		.cfi_def_cfa 7, 8
 112 00a5 C3       		ret
 113              		.cfi_endproc
 114              	.LFE1053:
 115              		.globl	__gxx_personality_v0
 116              		.section	.gcc_except_table._ZN8UnitTest15MemoryOutStreamC1Ev,"aG",@progbits,_ZN8UnitTest15MemoryOu
 117              	.LLSDA1053:
 118 0000 FF       		.byte	0xff
 119 0001 FF       		.byte	0xff
 120 0002 01       		.byte	0x1
 121 0003 12       		.uleb128 .LLSDACSE1053-.LLSDACSB1053
 122              	.LLSDACSB1053:
 123 0004 18       		.uleb128 .LEHB0-.LFB1053
 124 0005 05       		.uleb128 .LEHE0-.LEHB0
 125 0006 00       		.uleb128 0
 126 0007 00       		.uleb128 0
 127 0008 31       		.uleb128 .LEHB1-.LFB1053
 128 0009 05       		.uleb128 .LEHE1-.LEHB1
 129 000a 8101     		.uleb128 .L7-.LFB1053
 130 000c 00       		.uleb128 0
 131 000d 61       		.uleb128 .LEHB2-.LFB1053
 132 000e 05       		.uleb128 .LEHE2-.LEHB2
 133 000f 68       		.uleb128 .L6-.LFB1053
 134 0010 00       		.uleb128 0
 135 0011 9A01     		.uleb128 .LEHB3-.LFB1053
 136 0013 05       		.uleb128 .LEHE3-.LEHB3
 137 0014 00       		.uleb128 0
 138 0015 00       		.uleb128 0
 139              	.LLSDACSE1053:
 140              		.section	.text._ZN8UnitTest15MemoryOutStreamC1Ev,"axG",@progbits,_ZN8UnitTest15MemoryOutStreamC1Ev
 142              		.section	.rodata
 143              	.LC1:
 144 000d 54657374 		.string	"TestMemoryOutStream.cpp"
 144      4D656D6F 
 144      72794F75 
 144      74537472 
 144      65616D2E 
 145              	.LC2:
 146 0025 44656661 		.string	"DefaultIsEmptyString"
 146      756C7449 
 146      73456D70 
 146      74795374 
 146      72696E67 
 147              		.text
 148              		.align 2
 150              	_ZN12_GLOBAL__N_124TestDefaultIsEmptyStringC2Ev:
 151              	.LFB1066:
 152              		.file 3 "TestMemoryOutStream.cpp"
   1:TestMemoryOutStream.cpp **** #include "../UnitTest++.h"
   2:TestMemoryOutStream.cpp **** 
   3:TestMemoryOutStream.cpp **** #include "../MemoryOutStream.h"
   4:TestMemoryOutStream.cpp **** #include <cstring>
   5:TestMemoryOutStream.cpp **** 
   6:TestMemoryOutStream.cpp **** using namespace UnitTest;
   7:TestMemoryOutStream.cpp **** using namespace std;
   8:TestMemoryOutStream.cpp **** 
   9:TestMemoryOutStream.cpp **** namespace {
  10:TestMemoryOutStream.cpp **** 
  11:TestMemoryOutStream.cpp **** TEST(DefaultIsEmptyString)
 153              		.loc 3 11 0 is_stmt 1
 154              		.cfi_startproc
 155 0000 55       		pushq	%rbp
 156              		.cfi_def_cfa_offset 16
 157              		.cfi_offset 6, -16
 158 0001 4889E5   		movq	%rsp, %rbp
 159              		.cfi_def_cfa_register 6
 160 0004 4883EC10 		subq	$16, %rsp
 161 0008 48897DF8 		movq	%rdi, -8(%rbp)
 162              	.LBB4:
 163              		.loc 3 11 0
 164 000c E8000000 		call	_ZN13UnitTestSuite12GetSuiteNameEv
 164      00
 165 0011 4889C2   		movq	%rax, %rdx
 166 0014 488B45F8 		movq	-8(%rbp), %rax
 167 0018 41B80B00 		movl	$11, %r8d
 167      0000
 168 001e B9000000 		movl	$.LC1, %ecx
 168      00
 169 0023 BE000000 		movl	$.LC2, %esi
 169      00
 170 0028 4889C7   		movq	%rax, %rdi
 171 002b E8000000 		call	_ZN8UnitTest4TestC2EPKcS2_S2_i
 171      00
 172 0030 488B45F8 		movq	-8(%rbp), %rax
 173 0034 48C70000 		movq	$_ZTVN12_GLOBAL__N_124TestDefaultIsEmptyStringE+16, (%rax)
 173      000000
 174              	.LBE4:
 175 003b C9       		leave
 176              		.cfi_def_cfa 7, 8
 177 003c C3       		ret
 178              		.cfi_endproc
 179              	.LFE1066:
 181              		.local	_ZN12_GLOBAL__N_132testDefaultIsEmptyStringInstanceE
 182              		.comm	_ZN12_GLOBAL__N_132testDefaultIsEmptyStringInstanceE,56,32
 183              		.local	_ZN12_GLOBAL__N_125adderDefaultIsEmptyStringE
 184              		.comm	_ZN12_GLOBAL__N_125adderDefaultIsEmptyStringE,1,1
 185              		.section	.rodata
 186              	.LC3:
 187 003a 73747265 		.string	"stream.GetText() != 0"
 187      616D2E47 
 187      65745465 
 187      78742829 
 187      20213D20 
 188              	.LC4:
 189 0050 00       		.string	""
 190 0051 00000000 		.align 8
 190      000000
 191              	.LC5:
 192 0058 556E6861 		.string	"Unhandled exception in CHECK(stream.GetText() != 0)"
 192      6E646C65 
 192      64206578 
 192      63657074 
 192      696F6E20 
 193 008c 00000000 		.align 8
 194              	.LC6:
 195 0090 556E6861 		.string	"Unhandled exception in CHECK_EQUAL(\"\", stream.GetText())"
 195      6E646C65 
 195      64206578 
 195      63657074 
 195      696F6E20 
 196              		.text
 197 003d 90       		.align 2
 199              	_ZNK12_GLOBAL__N_124TestDefaultIsEmptyString7RunImplEv:
 200              	.LFB1068:
  12:TestMemoryOutStream.cpp **** {
 201              		.loc 3 12 0
 202              		.cfi_startproc
 203              		.cfi_personality 0x3,__gxx_personality_v0
 204              		.cfi_lsda 0x3,.LLSDA1068
 205 003e 55       		pushq	%rbp
 206              		.cfi_def_cfa_offset 16
 207              		.cfi_offset 6, -16
 208 003f 4889E5   		movq	%rsp, %rbp
 209              		.cfi_def_cfa_register 6
 210 0042 53       		pushq	%rbx
 211 0043 4881ECA8 		subq	$424, %rsp
 211      010000
 212              		.cfi_offset 3, -24
 213 004a 4889BD58 		movq	%rdi, -424(%rbp)
 213      FEFFFF
 214              		.loc 3 12 0
 215 0051 64488B04 		movq	%fs:40, %rax
 215      25280000 
 215      00
 216 005a 488945E8 		movq	%rax, -24(%rbp)
 217 005e 31C0     		xorl	%eax, %eax
 218              	.LBB5:
  13:TestMemoryOutStream.cpp ****     MemoryOutStream const stream;
 219              		.loc 3 13 0
 220 0060 488D8580 		leaq	-384(%rbp), %rax
 220      FEFFFF
 221 0067 4889C7   		movq	%rax, %rdi
 222              	.LEHB4:
 223 006a E8000000 		call	_ZN8UnitTest15MemoryOutStreamC1Ev
 223      00
 224              	.LEHE4:
  14:TestMemoryOutStream.cpp ****     CHECK(stream.GetText() != 0);
 225              		.loc 3 14 0
 226 006f 488D8580 		leaq	-384(%rbp), %rax
 226      FEFFFF
 227 0076 4889C7   		movq	%rax, %rdi
 228              	.LEHB5:
 229 0079 E8000000 		call	_ZNK8UnitTest15MemoryOutStream7GetTextEv
 229      00
 230 007e 4885C0   		testq	%rax, %rax
 231 0081 0F95C0   		setne	%al
 232 0084 0FB6C0   		movzbl	%al, %eax
 233 0087 89C7     		movl	%eax, %edi
 234 0089 E8000000 		call	_ZN8UnitTest5CheckIbEEbT_
 234      00
 235 008e 83F001   		xorl	$1, %eax
 236 0091 84C0     		testb	%al, %al
 237 0093 743E     		je	.L11
 238              		.loc 3 14 0 is_stmt 0 discriminator 2
 239 0095 E8000000 		call	_ZN8UnitTest11CurrentTest7DetailsEv
 239      00
 240 009a 488B08   		movq	(%rax), %rcx
 241 009d 488D8560 		leaq	-416(%rbp), %rax
 241      FEFFFF
 242 00a4 BA0E0000 		movl	$14, %edx
 242      00
 243 00a9 4889CE   		movq	%rcx, %rsi
 244 00ac 4889C7   		movq	%rax, %rdi
 245 00af E8000000 		call	_ZN8UnitTest11TestDetailsC1ERKS0_i
 245      00
 246              		.loc 3 14 0 discriminator 4
 247 00b4 E8000000 		call	_ZN8UnitTest11CurrentTest7ResultsEv
 247      00
 248 00b9 488B00   		movq	(%rax), %rax
 249 00bc 488D8D60 		leaq	-416(%rbp), %rcx
 249      FEFFFF
 250 00c3 BA000000 		movl	$.LC3, %edx
 250      00
 251 00c8 4889CE   		movq	%rcx, %rsi
 252 00cb 4889C7   		movq	%rax, %rdi
 253 00ce E8000000 		call	_ZN8UnitTest11TestResults13OnTestFailureERKNS_11TestDetailsEPKc
 253      00
 254              	.LEHE5:
 255              	.L11:
 256              	.LEHB6:
  15:TestMemoryOutStream.cpp ****     CHECK_EQUAL("", stream.GetText());
 257              		.loc 3 15 0 is_stmt 1
 258 00d3 E8000000 		call	_ZN8UnitTest11CurrentTest7DetailsEv
 258      00
 259 00d8 488B08   		movq	(%rax), %rcx
 260 00db 488D8560 		leaq	-416(%rbp), %rax
 260      FEFFFF
 261 00e2 BA0F0000 		movl	$15, %edx
 261      00
 262 00e7 4889CE   		movq	%rcx, %rsi
 263 00ea 4889C7   		movq	%rax, %rdi
 264 00ed E8000000 		call	_ZN8UnitTest11TestDetailsC1ERKS0_i
 264      00
 265              		.loc 3 15 0 is_stmt 0 discriminator 2
 266 00f2 488D8580 		leaq	-384(%rbp), %rax
 266      FEFFFF
 267 00f9 4889C7   		movq	%rax, %rdi
 268 00fc E8000000 		call	_ZNK8UnitTest15MemoryOutStream7GetTextEv
 268      00
 269 0101 4889C3   		movq	%rax, %rbx
 270 0104 E8000000 		call	_ZN8UnitTest11CurrentTest7ResultsEv
 270      00
 271              		.loc 3 15 0 discriminator 4
 272 0109 488B00   		movq	(%rax), %rax
 273 010c 488D9560 		leaq	-416(%rbp), %rdx
 273      FEFFFF
 274 0113 4889D1   		movq	%rdx, %rcx
 275 0116 4889DA   		movq	%rbx, %rdx
 276 0119 BE000000 		movl	$.LC4, %esi
 276      00
 277 011e 4889C7   		movq	%rax, %rdi
 278 0121 E8000000 		call	_ZN8UnitTest10CheckEqualERNS_11TestResultsEPKcS3_RKNS_11TestDetailsE
 278      00
 279              	.LEHE6:
 280              	.L17:
 281              		.loc 3 15 0 discriminator 9
 282 0126 488D8580 		leaq	-384(%rbp), %rax
 282      FEFFFF
 283 012d 4889C7   		movq	%rax, %rdi
 284              	.LEHB7:
 285 0130 E8000000 		call	_ZN8UnitTest15MemoryOutStreamD1Ev
 285      00
 286              	.LEHE7:
 287              	.LBE5:
  16:TestMemoryOutStream.cpp **** }
 288              		.loc 3 16 0 is_stmt 1 discriminator 9
 289 0135 488B45E8 		movq	-24(%rbp), %rax
 290 0139 64483304 		xorq	%fs:40, %rax
 290      25280000 
 290      00
 291 0142 0F84DE00 		je	.L18
 291      0000
 292 0148 E9D40000 		jmp	.L24
 292      00
 293              	.L21:
 294 014d 4889C3   		movq	%rax, %rbx
 295              	.LBB6:
  14:TestMemoryOutStream.cpp ****     CHECK(stream.GetText() != 0);
 296              		.loc 3 14 0
 297 0150 E8000000 		call	__cxa_end_catch
 297      00
 298 0155 E9AD0000 		jmp	.L13
 298      00
 299              	.L19:
 300 015a 4889C7   		movq	%rax, %rdi
 301 015d E8000000 		call	__cxa_begin_catch
 301      00
 302              	.LEHB8:
 303 0162 E8000000 		call	_ZN8UnitTest11CurrentTest7DetailsEv
 303      00
 304 0167 488B08   		movq	(%rax), %rcx
 305 016a 488D8560 		leaq	-416(%rbp), %rax
 305      FEFFFF
 306 0171 BA0E0000 		movl	$14, %edx
 306      00
 307 0176 4889CE   		movq	%rcx, %rsi
 308 0179 4889C7   		movq	%rax, %rdi
 309 017c E8000000 		call	_ZN8UnitTest11TestDetailsC1ERKS0_i
 309      00
  14:TestMemoryOutStream.cpp ****     CHECK(stream.GetText() != 0);
 310              		.loc 3 14 0 is_stmt 0 discriminator 12
 311 0181 E8000000 		call	_ZN8UnitTest11CurrentTest7ResultsEv
 311      00
 312 0186 488B00   		movq	(%rax), %rax
 313 0189 488D8D60 		leaq	-416(%rbp), %rcx
 313      FEFFFF
 314 0190 BA000000 		movl	$.LC5, %edx
 314      00
 315 0195 4889CE   		movq	%rcx, %rsi
 316 0198 4889C7   		movq	%rax, %rdi
 317 019b E8000000 		call	_ZN8UnitTest11TestResults13OnTestFailureERKNS_11TestDetailsEPKc
 317      00
 318              	.LEHE8:
 319              	.LEHB9:
  14:TestMemoryOutStream.cpp ****     CHECK(stream.GetText() != 0);
 320              		.loc 3 14 0 discriminator 16
 321 01a0 E8000000 		call	__cxa_end_catch
 321      00
 322              	.LEHE9:
  14:TestMemoryOutStream.cpp ****     CHECK(stream.GetText() != 0);
 323              		.loc 3 14 0
 324 01a5 E929FFFF 		jmp	.L11
 324      FF
 325              	.L23:
 326 01aa 4889C3   		movq	%rax, %rbx
  15:TestMemoryOutStream.cpp ****     CHECK_EQUAL("", stream.GetText());
 327              		.loc 3 15 0 is_stmt 1
 328 01ad E8000000 		call	__cxa_end_catch
 328      00
 329 01b2 EB53     		jmp	.L13
 330              	.L22:
 331 01b4 4889C7   		movq	%rax, %rdi
 332 01b7 E8000000 		call	__cxa_begin_catch
 332      00
 333              	.LEHB10:
 334 01bc E8000000 		call	_ZN8UnitTest11CurrentTest7DetailsEv
 334      00
 335 01c1 488B08   		movq	(%rax), %rcx
 336 01c4 488D8560 		leaq	-416(%rbp), %rax
 336      FEFFFF
 337 01cb BA0F0000 		movl	$15, %edx
 337      00
 338 01d0 4889CE   		movq	%rcx, %rsi
 339 01d3 4889C7   		movq	%rax, %rdi
 340 01d6 E8000000 		call	_ZN8UnitTest11TestDetailsC1ERKS0_i
 340      00
  15:TestMemoryOutStream.cpp ****     CHECK_EQUAL("", stream.GetText());
 341              		.loc 3 15 0 is_stmt 0 discriminator 13
 342 01db E8000000 		call	_ZN8UnitTest11CurrentTest7ResultsEv
 342      00
 343 01e0 488B00   		movq	(%rax), %rax
 344 01e3 488D8D60 		leaq	-416(%rbp), %rcx
 344      FEFFFF
 345 01ea BA000000 		movl	$.LC6, %edx
 345      00
 346 01ef 4889CE   		movq	%rcx, %rsi
 347 01f2 4889C7   		movq	%rax, %rdi
 348 01f5 E8000000 		call	_ZN8UnitTest11TestResults13OnTestFailureERKNS_11TestDetailsEPKc
 348      00
 349              	.LEHE10:
 350              	.LEHB11:
  15:TestMemoryOutStream.cpp ****     CHECK_EQUAL("", stream.GetText());
 351              		.loc 3 15 0 discriminator 17
 352 01fa E8000000 		call	__cxa_end_catch
 352      00
 353              	.LEHE11:
  15:TestMemoryOutStream.cpp ****     CHECK_EQUAL("", stream.GetText());
 354              		.loc 3 15 0
 355 01ff E922FFFF 		jmp	.L17
 355      FF
 356              	.L20:
 357 0204 4889C3   		movq	%rax, %rbx
 358              	.L13:
  15:TestMemoryOutStream.cpp ****     CHECK_EQUAL("", stream.GetText());
 359              		.loc 3 15 0 discriminator 18
 360 0207 488D8580 		leaq	-384(%rbp), %rax
 360      FEFFFF
 361 020e 4889C7   		movq	%rax, %rdi
 362 0211 E8000000 		call	_ZN8UnitTest15MemoryOutStreamD1Ev
 362      00
 363 0216 4889D8   		movq	%rbx, %rax
 364 0219 4889C7   		movq	%rax, %rdi
 365              	.LEHB12:
 366 021c E8000000 		call	_Unwind_Resume
 366      00
 367              	.LEHE12:
 368              	.L24:
 369              	.LBE6:
 370              		.loc 3 16 0 is_stmt 1
 371 0221 E8000000 		call	__stack_chk_fail
 371      00
 372              	.L18:
 373 0226 4881C4A8 		addq	$424, %rsp
 373      010000
 374 022d 5B       		popq	%rbx
 375 022e 5D       		popq	%rbp
 376              		.cfi_def_cfa 7, 8
 377 022f C3       		ret
 378              		.cfi_endproc
 379              	.LFE1068:
 380              		.section	.gcc_except_table,"a",@progbits
 381              		.align 4
 382              	.LLSDA1068:
 383 0000 FF       		.byte	0xff
 384 0001 03       		.byte	0x3
 385 0002 39       		.uleb128 .LLSDATT1068-.LLSDATTD1068
 386              	.LLSDATTD1068:
 387 0003 01       		.byte	0x1
 388 0004 31       		.uleb128 .LLSDACSE1068-.LLSDACSB1068
 389              	.LLSDACSB1068:
 390 0005 2C       		.uleb128 .LEHB4-.LFB1068
 391 0006 05       		.uleb128 .LEHE4-.LEHB4
 392 0007 00       		.uleb128 0
 393 0008 00       		.uleb128 0
 394 0009 3B       		.uleb128 .LEHB5-.LFB1068
 395 000a 5A       		.uleb128 .LEHE5-.LEHB5
 396 000b 9C02     		.uleb128 .L19-.LFB1068
 397 000d 01       		.uleb128 0x1
 398 000e 9501     		.uleb128 .LEHB6-.LFB1068
 399 0010 53       		.uleb128 .LEHE6-.LEHB6
 400 0011 F602     		.uleb128 .L22-.LFB1068
 401 0013 01       		.uleb128 0x1
 402 0014 F201     		.uleb128 .LEHB7-.LFB1068
 403 0016 05       		.uleb128 .LEHE7-.LEHB7
 404 0017 00       		.uleb128 0
 405 0018 00       		.uleb128 0
 406 0019 A402     		.uleb128 .LEHB8-.LFB1068
 407 001b 3E       		.uleb128 .LEHE8-.LEHB8
 408 001c 8F02     		.uleb128 .L21-.LFB1068
 409 001e 00       		.uleb128 0
 410 001f E202     		.uleb128 .LEHB9-.LFB1068
 411 0021 05       		.uleb128 .LEHE9-.LEHB9
 412 0022 C603     		.uleb128 .L20-.LFB1068
 413 0024 00       		.uleb128 0
 414 0025 FE02     		.uleb128 .LEHB10-.LFB1068
 415 0027 3E       		.uleb128 .LEHE10-.LEHB10
 416 0028 EC02     		.uleb128 .L23-.LFB1068
 417 002a 00       		.uleb128 0
 418 002b BC03     		.uleb128 .LEHB11-.LFB1068
 419 002d 05       		.uleb128 .LEHE11-.LEHB11
 420 002e C603     		.uleb128 .L20-.LFB1068
 421 0030 00       		.uleb128 0
 422 0031 DE03     		.uleb128 .LEHB12-.LFB1068
 423 0033 05       		.uleb128 .LEHE12-.LEHB12
 424 0034 00       		.uleb128 0
 425 0035 00       		.uleb128 0
 426              	.LLSDACSE1068:
 427 0036 01       		.byte	0x1
 428 0037 00       		.byte	0
 429              		.align 4
 430 0038 00000000 		.long	0
 431              	
 432              	.LLSDATT1068:
 433              		.text
 435              		.section	.rodata
 436              	.LC7:
 437 00c9 53747265 		.string	"StreamingTextCopiesCharacters"
 437      616D696E 
 437      67546578 
 437      74436F70 
 437      69657343 
 438              		.text
 439              		.align 2
 441              	_ZN12_GLOBAL__N_133TestStreamingTextCopiesCharactersC2Ev:
 442              	.LFB1070:
  17:TestMemoryOutStream.cpp **** 
  18:TestMemoryOutStream.cpp **** TEST(StreamingTextCopiesCharacters)
 443              		.loc 3 18 0
 444              		.cfi_startproc
 445 0230 55       		pushq	%rbp
 446              		.cfi_def_cfa_offset 16
 447              		.cfi_offset 6, -16
 448 0231 4889E5   		movq	%rsp, %rbp
 449              		.cfi_def_cfa_register 6
 450 0234 4883EC10 		subq	$16, %rsp
 451 0238 48897DF8 		movq	%rdi, -8(%rbp)
 452              	.LBB7:
 453              		.loc 3 18 0
 454 023c E8000000 		call	_ZN13UnitTestSuite12GetSuiteNameEv
 454      00
 455 0241 4889C2   		movq	%rax, %rdx
 456 0244 488B45F8 		movq	-8(%rbp), %rax
 457 0248 41B81200 		movl	$18, %r8d
 457      0000
 458 024e B9000000 		movl	$.LC1, %ecx
 458      00
 459 0253 BE000000 		movl	$.LC7, %esi
 459      00
 460 0258 4889C7   		movq	%rax, %rdi
 461 025b E8000000 		call	_ZN8UnitTest4TestC2EPKcS2_S2_i
 461      00
 462 0260 488B45F8 		movq	-8(%rbp), %rax
 463 0264 48C70000 		movq	$_ZTVN12_GLOBAL__N_133TestStreamingTextCopiesCharactersE+16, (%rax)
 463      000000
 464              	.LBE7:
 465 026b C9       		leave
 466              		.cfi_def_cfa 7, 8
 467 026c C3       		ret
 468              		.cfi_endproc
 469              	.LFE1070:
 471              		.local	_ZN12_GLOBAL__N_141testStreamingTextCopiesCharactersInstanceE
 472              		.comm	_ZN12_GLOBAL__N_141testStreamingTextCopiesCharactersInstanceE,56,32
 473              		.local	_ZN12_GLOBAL__N_134adderStreamingTextCopiesCharactersE
 474              		.comm	_ZN12_GLOBAL__N_134adderStreamingTextCopiesCharactersE,1,1
 475              		.section	.rodata
 476              	.LC8:
 477 00e7 4C616C61 		.string	"Lalala"
 477      6C6100
 478 00ee 0000     		.align 8
 479              	.LC9:
 480 00f0 556E6861 		.string	"Unhandled exception in CHECK_EQUAL(\"Lalala\", stream.GetText())"
 480      6E646C65 
 480      64206578 
 480      63657074 
 480      696F6E20 
 481              		.text
 482 026d 90       		.align 2
 484              	_ZNK12_GLOBAL__N_133TestStreamingTextCopiesCharacters7RunImplEv:
 485              	.LFB1072:
  19:TestMemoryOutStream.cpp **** {
 486              		.loc 3 19 0
 487              		.cfi_startproc
 488              		.cfi_personality 0x3,__gxx_personality_v0
 489              		.cfi_lsda 0x3,.LLSDA1072
 490 026e 55       		pushq	%rbp
 491              		.cfi_def_cfa_offset 16
 492              		.cfi_offset 6, -16
 493 026f 4889E5   		movq	%rsp, %rbp
 494              		.cfi_def_cfa_register 6
 495 0272 53       		pushq	%rbx
 496 0273 4881ECA8 		subq	$424, %rsp
 496      010000
 497              		.cfi_offset 3, -24
 498 027a 4889BD58 		movq	%rdi, -424(%rbp)
 498      FEFFFF
 499              		.loc 3 19 0
 500 0281 64488B04 		movq	%fs:40, %rax
 500      25280000 
 500      00
 501 028a 488945E8 		movq	%rax, -24(%rbp)
 502 028e 31C0     		xorl	%eax, %eax
 503              	.LBB8:
  20:TestMemoryOutStream.cpp ****     MemoryOutStream stream;
 504              		.loc 3 20 0
 505 0290 488D8580 		leaq	-384(%rbp), %rax
 505      FEFFFF
 506 0297 4889C7   		movq	%rax, %rdi
 507              	.LEHB13:
 508 029a E8000000 		call	_ZN8UnitTest15MemoryOutStreamC1Ev
 508      00
 509              	.LEHE13:
  21:TestMemoryOutStream.cpp ****     stream << "Lalala";
 510              		.loc 3 21 0
 511 029f 488D8580 		leaq	-384(%rbp), %rax
 511      FEFFFF
 512 02a6 BE000000 		movl	$.LC8, %esi
 512      00
 513 02ab 4889C7   		movq	%rax, %rdi
 514              	.LEHB14:
 515 02ae E8000000 		call	_ZStlsISt11char_traitsIcEERSt13basic_ostreamIcT_ES5_PKc
 515      00
 516              	.LEHE14:
 517              	.LEHB15:
  22:TestMemoryOutStream.cpp ****     CHECK_EQUAL("Lalala", stream.GetText());
 518              		.loc 3 22 0
 519 02b3 E8000000 		call	_ZN8UnitTest11CurrentTest7DetailsEv
 519      00
 520 02b8 488B08   		movq	(%rax), %rcx
 521 02bb 488D8560 		leaq	-416(%rbp), %rax
 521      FEFFFF
 522 02c2 BA160000 		movl	$22, %edx
 522      00
 523 02c7 4889CE   		movq	%rcx, %rsi
 524 02ca 4889C7   		movq	%rax, %rdi
 525 02cd E8000000 		call	_ZN8UnitTest11TestDetailsC1ERKS0_i
 525      00
 526              		.loc 3 22 0 is_stmt 0 discriminator 2
 527 02d2 488D8580 		leaq	-384(%rbp), %rax
 527      FEFFFF
 528 02d9 4889C7   		movq	%rax, %rdi
 529 02dc E8000000 		call	_ZNK8UnitTest15MemoryOutStream7GetTextEv
 529      00
 530 02e1 4889C3   		movq	%rax, %rbx
 531 02e4 E8000000 		call	_ZN8UnitTest11CurrentTest7ResultsEv
 531      00
 532              		.loc 3 22 0 discriminator 4
 533 02e9 488B00   		movq	(%rax), %rax
 534 02ec 488D9560 		leaq	-416(%rbp), %rdx
 534      FEFFFF
 535 02f3 4889D1   		movq	%rdx, %rcx
 536 02f6 4889DA   		movq	%rbx, %rdx
 537 02f9 BE000000 		movl	$.LC8, %esi
 537      00
 538 02fe 4889C7   		movq	%rax, %rdi
 539 0301 E8000000 		call	_ZN8UnitTest10CheckEqualERNS_11TestResultsEPKcS3_RKNS_11TestDetailsE
 539      00
 540              	.LEHE15:
 541              	.L30:
 542              		.loc 3 22 0 discriminator 9
 543 0306 488D8580 		leaq	-384(%rbp), %rax
 543      FEFFFF
 544 030d 4889C7   		movq	%rax, %rdi
 545              	.LEHB16:
 546 0310 E8000000 		call	_ZN8UnitTest15MemoryOutStreamD1Ev
 546      00
 547              	.LEHE16:
 548              	.LBE8:
  23:TestMemoryOutStream.cpp **** }
 549              		.loc 3 23 0 is_stmt 1 discriminator 9
 550 0315 488B45E8 		movq	-24(%rbp), %rax
 551 0319 64483304 		xorq	%fs:40, %rax
 551      25280000 
 551      00
 552 0322 747B     		je	.L31
 553 0324 EB74     		jmp	.L35
 554              	.L34:
 555 0326 4889C3   		movq	%rax, %rbx
 556              	.LBB9:
  22:TestMemoryOutStream.cpp ****     CHECK_EQUAL("Lalala", stream.GetText());
 557              		.loc 3 22 0
 558 0329 E8000000 		call	__cxa_end_catch
 558      00
 559 032e EB50     		jmp	.L28
 560              	.L33:
 561 0330 4889C7   		movq	%rax, %rdi
 562 0333 E8000000 		call	__cxa_begin_catch
 562      00
 563              	.LEHB17:
 564 0338 E8000000 		call	_ZN8UnitTest11CurrentTest7DetailsEv
 564      00
 565 033d 488B08   		movq	(%rax), %rcx
 566 0340 488D8560 		leaq	-416(%rbp), %rax
 566      FEFFFF
 567 0347 BA160000 		movl	$22, %edx
 567      00
 568 034c 4889CE   		movq	%rcx, %rsi
 569 034f 4889C7   		movq	%rax, %rdi
 570 0352 E8000000 		call	_ZN8UnitTest11TestDetailsC1ERKS0_i
 570      00
  22:TestMemoryOutStream.cpp ****     CHECK_EQUAL("Lalala", stream.GetText());
 571              		.loc 3 22 0 is_stmt 0 discriminator 13
 572 0357 E8000000 		call	_ZN8UnitTest11CurrentTest7ResultsEv
 572      00
 573 035c 488B00   		movq	(%rax), %rax
 574 035f 488D8D60 		leaq	-416(%rbp), %rcx
 574      FEFFFF
 575 0366 BA000000 		movl	$.LC9, %edx
 575      00
 576 036b 4889CE   		movq	%rcx, %rsi
 577 036e 4889C7   		movq	%rax, %rdi
 578 0371 E8000000 		call	_ZN8UnitTest11TestResults13OnTestFailureERKNS_11TestDetailsEPKc
 578      00
 579              	.LEHE17:
 580              	.LEHB18:
  22:TestMemoryOutStream.cpp ****     CHECK_EQUAL("Lalala", stream.GetText());
 581              		.loc 3 22 0 discriminator 17
 582 0376 E8000000 		call	__cxa_end_catch
 582      00
 583              	.LEHE18:
  22:TestMemoryOutStream.cpp ****     CHECK_EQUAL("Lalala", stream.GetText());
 584              		.loc 3 22 0
 585 037b EB89     		jmp	.L30
 586              	.L32:
 587 037d 4889C3   		movq	%rax, %rbx
 588              	.L28:
  22:TestMemoryOutStream.cpp ****     CHECK_EQUAL("Lalala", stream.GetText());
 589              		.loc 3 22 0 discriminator 18
 590 0380 488D8580 		leaq	-384(%rbp), %rax
 590      FEFFFF
 591 0387 4889C7   		movq	%rax, %rdi
 592 038a E8000000 		call	_ZN8UnitTest15MemoryOutStreamD1Ev
 592      00
 593 038f 4889D8   		movq	%rbx, %rax
 594 0392 4889C7   		movq	%rax, %rdi
 595              	.LEHB19:
 596 0395 E8000000 		call	_Unwind_Resume
 596      00
 597              	.LEHE19:
 598              	.L35:
 599              	.LBE9:
 600              		.loc 3 23 0 is_stmt 1
 601 039a E8000000 		call	__stack_chk_fail
 601      00
 602              	.L31:
 603 039f 4881C4A8 		addq	$424, %rsp
 603      010000
 604 03a6 5B       		popq	%rbx
 605 03a7 5D       		popq	%rbp
 606              		.cfi_def_cfa 7, 8
 607 03a8 C3       		ret
 608              		.cfi_endproc
 609              	.LFE1072:
 610              		.section	.gcc_except_table
 611              		.align 4
 612              	.LLSDA1072:
 613 003c FF       		.byte	0xff
 614 003d 03       		.byte	0x3
 615 003e 2D       		.uleb128 .LLSDATT1072-.LLSDATTD1072
 616              	.LLSDATTD1072:
 617 003f 01       		.byte	0x1
 618 0040 24       		.uleb128 .LLSDACSE1072-.LLSDACSB1072
 619              	.LLSDACSB1072:
 620 0041 2C       		.uleb128 .LEHB13-.LFB1072
 621 0042 05       		.uleb128 .LEHE13-.LEHB13
 622 0043 00       		.uleb128 0
 623 0044 00       		.uleb128 0
 624 0045 40       		.uleb128 .LEHB14-.LFB1072
 625 0046 05       		.uleb128 .LEHE14-.LEHB14
 626 0047 8F02     		.uleb128 .L32-.LFB1072
 627 0049 00       		.uleb128 0
 628 004a 45       		.uleb128 .LEHB15-.LFB1072
 629 004b 53       		.uleb128 .LEHE15-.LEHB15
 630 004c C201     		.uleb128 .L33-.LFB1072
 631 004e 01       		.uleb128 0x1
 632 004f A201     		.uleb128 .LEHB16-.LFB1072
 633 0051 05       		.uleb128 .LEHE16-.LEHB16
 634 0052 00       		.uleb128 0
 635 0053 00       		.uleb128 0
 636 0054 CA01     		.uleb128 .LEHB17-.LFB1072
 637 0056 3E       		.uleb128 .LEHE17-.LEHB17
 638 0057 B801     		.uleb128 .L34-.LFB1072
 639 0059 00       		.uleb128 0
 640 005a 8802     		.uleb128 .LEHB18-.LFB1072
 641 005c 05       		.uleb128 .LEHE18-.LEHB18
 642 005d 8F02     		.uleb128 .L32-.LFB1072
 643 005f 00       		.uleb128 0
 644 0060 A702     		.uleb128 .LEHB19-.LFB1072
 645 0062 05       		.uleb128 .LEHE19-.LEHB19
 646 0063 00       		.uleb128 0
 647 0064 00       		.uleb128 0
 648              	.LLSDACSE1072:
 649 0065 01       		.byte	0x1
 650 0066 00       		.byte	0
 651 0067 00       		.align 4
 652 0068 00000000 		.long	0
 653              	
 654              	.LLSDATT1072:
 655              		.text
 657              		.section	.rodata
 658 012f 00       		.align 8
 659              	.LC10:
 660 0130 53747265 		.string	"StreamingMultipleTimesConcatenatesResult"
 660      616D696E 
 660      674D756C 
 660      7469706C 
 660      6554696D 
 661              		.text
 662 03a9 90       		.align 2
 664              	_ZN12_GLOBAL__N_144TestStreamingMultipleTimesConcatenatesResultC2Ev:
 665              	.LFB1074:
  24:TestMemoryOutStream.cpp **** 
  25:TestMemoryOutStream.cpp **** TEST(StreamingMultipleTimesConcatenatesResult)
 666              		.loc 3 25 0
 667              		.cfi_startproc
 668 03aa 55       		pushq	%rbp
 669              		.cfi_def_cfa_offset 16
 670              		.cfi_offset 6, -16
 671 03ab 4889E5   		movq	%rsp, %rbp
 672              		.cfi_def_cfa_register 6
 673 03ae 4883EC10 		subq	$16, %rsp
 674 03b2 48897DF8 		movq	%rdi, -8(%rbp)
 675              	.LBB10:
 676              		.loc 3 25 0
 677 03b6 E8000000 		call	_ZN13UnitTestSuite12GetSuiteNameEv
 677      00
 678 03bb 4889C2   		movq	%rax, %rdx
 679 03be 488B45F8 		movq	-8(%rbp), %rax
 680 03c2 41B81900 		movl	$25, %r8d
 680      0000
 681 03c8 B9000000 		movl	$.LC1, %ecx
 681      00
 682 03cd BE000000 		movl	$.LC10, %esi
 682      00
 683 03d2 4889C7   		movq	%rax, %rdi
 684 03d5 E8000000 		call	_ZN8UnitTest4TestC2EPKcS2_S2_i
 684      00
 685 03da 488B45F8 		movq	-8(%rbp), %rax
 686 03de 48C70000 		movq	$_ZTVN12_GLOBAL__N_144TestStreamingMultipleTimesConcatenatesResultE+16, (%rax)
 686      000000
 687              	.LBE10:
 688 03e5 C9       		leave
 689              		.cfi_def_cfa 7, 8
 690 03e6 C3       		ret
 691              		.cfi_endproc
 692              	.LFE1074:
 694              		.local	_ZN12_GLOBAL__N_152testStreamingMultipleTimesConcatenatesResultInstanceE
 695              		.comm	_ZN12_GLOBAL__N_152testStreamingMultipleTimesConcatenatesResultInstanceE,56,32
 696              		.local	_ZN12_GLOBAL__N_145adderStreamingMultipleTimesConcatenatesResultE
 697              		.comm	_ZN12_GLOBAL__N_145adderStreamingMultipleTimesConcatenatesResultE,1,1
 698              		.section	.rodata
 699              	.LC11:
 700 0159 426F726B 		.string	"Bork"
 700      00
 701              	.LC12:
 702 015e 466F6F00 		.string	"Foo"
 703              	.LC13:
 704 0162 42617200 		.string	"Bar"
 705              	.LC14:
 706 0166 426F726B 		.string	"BorkFooBar"
 706      466F6F42 
 706      617200
 707 0171 00000000 		.align 8
 707      000000
 708              	.LC15:
 709 0178 556E6861 		.string	"Unhandled exception in CHECK_EQUAL(\"BorkFooBar\", stream.GetText())"
 709      6E646C65 
 709      64206578 
 709      63657074 
 709      696F6E20 
 710              		.text
 711 03e7 90       		.align 2
 713              	_ZNK12_GLOBAL__N_144TestStreamingMultipleTimesConcatenatesResult7RunImplEv:
 714              	.LFB1076:
  26:TestMemoryOutStream.cpp **** {
 715              		.loc 3 26 0
 716              		.cfi_startproc
 717              		.cfi_personality 0x3,__gxx_personality_v0
 718              		.cfi_lsda 0x3,.LLSDA1076
 719 03e8 55       		pushq	%rbp
 720              		.cfi_def_cfa_offset 16
 721              		.cfi_offset 6, -16
 722 03e9 4889E5   		movq	%rsp, %rbp
 723              		.cfi_def_cfa_register 6
 724 03ec 53       		pushq	%rbx
 725 03ed 4881ECA8 		subq	$424, %rsp
 725      010000
 726              		.cfi_offset 3, -24
 727 03f4 4889BD58 		movq	%rdi, -424(%rbp)
 727      FEFFFF
 728              		.loc 3 26 0
 729 03fb 64488B04 		movq	%fs:40, %rax
 729      25280000 
 729      00
 730 0404 488945E8 		movq	%rax, -24(%rbp)
 731 0408 31C0     		xorl	%eax, %eax
 732              	.LBB11:
  27:TestMemoryOutStream.cpp ****     MemoryOutStream stream;
 733              		.loc 3 27 0
 734 040a 488D8580 		leaq	-384(%rbp), %rax
 734      FEFFFF
 735 0411 4889C7   		movq	%rax, %rdi
 736              	.LEHB20:
 737 0414 E8000000 		call	_ZN8UnitTest15MemoryOutStreamC1Ev
 737      00
 738              	.LEHE20:
  28:TestMemoryOutStream.cpp ****     stream << "Bork" << "Foo" << "Bar";
 739              		.loc 3 28 0
 740 0419 488D8580 		leaq	-384(%rbp), %rax
 740      FEFFFF
 741 0420 BE000000 		movl	$.LC11, %esi
 741      00
 742 0425 4889C7   		movq	%rax, %rdi
 743              	.LEHB21:
 744 0428 E8000000 		call	_ZStlsISt11char_traitsIcEERSt13basic_ostreamIcT_ES5_PKc
 744      00
 745 042d BE000000 		movl	$.LC12, %esi
 745      00
 746 0432 4889C7   		movq	%rax, %rdi
 747 0435 E8000000 		call	_ZStlsISt11char_traitsIcEERSt13basic_ostreamIcT_ES5_PKc
 747      00
 748              		.loc 3 28 0 is_stmt 0 discriminator 1
 749 043a BE000000 		movl	$.LC13, %esi
 749      00
 750 043f 4889C7   		movq	%rax, %rdi
 751 0442 E8000000 		call	_ZStlsISt11char_traitsIcEERSt13basic_ostreamIcT_ES5_PKc
 751      00
 752              	.LEHE21:
 753              	.LEHB22:
  29:TestMemoryOutStream.cpp ****     CHECK_EQUAL("BorkFooBar", stream.GetText());
 754              		.loc 3 29 0 is_stmt 1
 755 0447 E8000000 		call	_ZN8UnitTest11CurrentTest7DetailsEv
 755      00
 756 044c 488B08   		movq	(%rax), %rcx
 757 044f 488D8560 		leaq	-416(%rbp), %rax
 757      FEFFFF
 758 0456 BA1D0000 		movl	$29, %edx
 758      00
 759 045b 4889CE   		movq	%rcx, %rsi
 760 045e 4889C7   		movq	%rax, %rdi
 761 0461 E8000000 		call	_ZN8UnitTest11TestDetailsC1ERKS0_i
 761      00
 762              		.loc 3 29 0 is_stmt 0 discriminator 2
 763 0466 488D8580 		leaq	-384(%rbp), %rax
 763      FEFFFF
 764 046d 4889C7   		movq	%rax, %rdi
 765 0470 E8000000 		call	_ZNK8UnitTest15MemoryOutStream7GetTextEv
 765      00
 766 0475 4889C3   		movq	%rax, %rbx
 767 0478 E8000000 		call	_ZN8UnitTest11CurrentTest7ResultsEv
 767      00
 768              		.loc 3 29 0 discriminator 4
 769 047d 488B00   		movq	(%rax), %rax
 770 0480 488D9560 		leaq	-416(%rbp), %rdx
 770      FEFFFF
 771 0487 4889D1   		movq	%rdx, %rcx
 772 048a 4889DA   		movq	%rbx, %rdx
 773 048d BE000000 		movl	$.LC14, %esi
 773      00
 774 0492 4889C7   		movq	%rax, %rdi
 775 0495 E8000000 		call	_ZN8UnitTest10CheckEqualERNS_11TestResultsEPKcS3_RKNS_11TestDetailsE
 775      00
 776              	.LEHE22:
 777              	.L41:
 778              		.loc 3 29 0 discriminator 9
 779 049a 488D8580 		leaq	-384(%rbp), %rax
 779      FEFFFF
 780 04a1 4889C7   		movq	%rax, %rdi
 781              	.LEHB23:
 782 04a4 E8000000 		call	_ZN8UnitTest15MemoryOutStreamD1Ev
 782      00
 783              	.LEHE23:
 784              	.LBE11:
  30:TestMemoryOutStream.cpp **** }
 785              		.loc 3 30 0 is_stmt 1 discriminator 9
 786 04a9 488B45E8 		movq	-24(%rbp), %rax
 787 04ad 64483304 		xorq	%fs:40, %rax
 787      25280000 
 787      00
 788 04b6 747B     		je	.L42
 789 04b8 EB74     		jmp	.L46
 790              	.L45:
 791 04ba 4889C3   		movq	%rax, %rbx
 792              	.LBB12:
  29:TestMemoryOutStream.cpp ****     CHECK_EQUAL("BorkFooBar", stream.GetText());
 793              		.loc 3 29 0
 794 04bd E8000000 		call	__cxa_end_catch
 794      00
 795 04c2 EB50     		jmp	.L39
 796              	.L44:
 797 04c4 4889C7   		movq	%rax, %rdi
 798 04c7 E8000000 		call	__cxa_begin_catch
 798      00
 799              	.LEHB24:
 800 04cc E8000000 		call	_ZN8UnitTest11CurrentTest7DetailsEv
 800      00
 801 04d1 488B08   		movq	(%rax), %rcx
 802 04d4 488D8560 		leaq	-416(%rbp), %rax
 802      FEFFFF
 803 04db BA1D0000 		movl	$29, %edx
 803      00
 804 04e0 4889CE   		movq	%rcx, %rsi
 805 04e3 4889C7   		movq	%rax, %rdi
 806 04e6 E8000000 		call	_ZN8UnitTest11TestDetailsC1ERKS0_i
 806      00
  29:TestMemoryOutStream.cpp ****     CHECK_EQUAL("BorkFooBar", stream.GetText());
 807              		.loc 3 29 0 is_stmt 0 discriminator 13
 808 04eb E8000000 		call	_ZN8UnitTest11CurrentTest7ResultsEv
 808      00
 809 04f0 488B00   		movq	(%rax), %rax
 810 04f3 488D8D60 		leaq	-416(%rbp), %rcx
 810      FEFFFF
 811 04fa BA000000 		movl	$.LC15, %edx
 811      00
 812 04ff 4889CE   		movq	%rcx, %rsi
 813 0502 4889C7   		movq	%rax, %rdi
 814 0505 E8000000 		call	_ZN8UnitTest11TestResults13OnTestFailureERKNS_11TestDetailsEPKc
 814      00
 815              	.LEHE24:
 816              	.LEHB25:
  29:TestMemoryOutStream.cpp ****     CHECK_EQUAL("BorkFooBar", stream.GetText());
 817              		.loc 3 29 0 discriminator 17
 818 050a E8000000 		call	__cxa_end_catch
 818      00
 819              	.LEHE25:
  29:TestMemoryOutStream.cpp ****     CHECK_EQUAL("BorkFooBar", stream.GetText());
 820              		.loc 3 29 0
 821 050f EB89     		jmp	.L41
 822              	.L43:
 823 0511 4889C3   		movq	%rax, %rbx
 824              	.L39:
  29:TestMemoryOutStream.cpp ****     CHECK_EQUAL("BorkFooBar", stream.GetText());
 825              		.loc 3 29 0 discriminator 18
 826 0514 488D8580 		leaq	-384(%rbp), %rax
 826      FEFFFF
 827 051b 4889C7   		movq	%rax, %rdi
 828 051e E8000000 		call	_ZN8UnitTest15MemoryOutStreamD1Ev
 828      00
 829 0523 4889D8   		movq	%rbx, %rax
 830 0526 4889C7   		movq	%rax, %rdi
 831              	.LEHB26:
 832 0529 E8000000 		call	_Unwind_Resume
 832      00
 833              	.LEHE26:
 834              	.L46:
 835              	.LBE12:
 836              		.loc 3 30 0 is_stmt 1
 837 052e E8000000 		call	__stack_chk_fail
 837      00
 838              	.L42:
 839 0533 4881C4A8 		addq	$424, %rsp
 839      010000
 840 053a 5B       		popq	%rbx
 841 053b 5D       		popq	%rbp
 842              		.cfi_def_cfa 7, 8
 843 053c C3       		ret
 844              		.cfi_endproc
 845              	.LFE1076:
 846              		.section	.gcc_except_table
 847              		.align 4
 848              	.LLSDA1076:
 849 006c FF       		.byte	0xff
 850 006d 03       		.byte	0x3
 851 006e 2D       		.uleb128 .LLSDATT1076-.LLSDATTD1076
 852              	.LLSDATTD1076:
 853 006f 01       		.byte	0x1
 854 0070 24       		.uleb128 .LLSDACSE1076-.LLSDACSB1076
 855              	.LLSDACSB1076:
 856 0071 2C       		.uleb128 .LEHB20-.LFB1076
 857 0072 05       		.uleb128 .LEHE20-.LEHB20
 858 0073 00       		.uleb128 0
 859 0074 00       		.uleb128 0
 860 0075 40       		.uleb128 .LEHB21-.LFB1076
 861 0076 1F       		.uleb128 .LEHE21-.LEHB21
 862 0077 A902     		.uleb128 .L43-.LFB1076
 863 0079 00       		.uleb128 0
 864 007a 5F       		.uleb128 .LEHB22-.LFB1076
 865 007b 53       		.uleb128 .LEHE22-.LEHB22
 866 007c DC01     		.uleb128 .L44-.LFB1076
 867 007e 01       		.uleb128 0x1
 868 007f BC01     		.uleb128 .LEHB23-.LFB1076
 869 0081 05       		.uleb128 .LEHE23-.LEHB23
 870 0082 00       		.uleb128 0
 871 0083 00       		.uleb128 0
 872 0084 E401     		.uleb128 .LEHB24-.LFB1076
 873 0086 3E       		.uleb128 .LEHE24-.LEHB24
 874 0087 D201     		.uleb128 .L45-.LFB1076
 875 0089 00       		.uleb128 0
 876 008a A202     		.uleb128 .LEHB25-.LFB1076
 877 008c 05       		.uleb128 .LEHE25-.LEHB25
 878 008d A902     		.uleb128 .L43-.LFB1076
 879 008f 00       		.uleb128 0
 880 0090 C102     		.uleb128 .LEHB26-.LFB1076
 881 0092 05       		.uleb128 .LEHE26-.LEHB26
 882 0093 00       		.uleb128 0
 883 0094 00       		.uleb128 0
 884              	.LLSDACSE1076:
 885 0095 01       		.byte	0x1
 886 0096 00       		.byte	0
 887 0097 00       		.align 4
 888 0098 00000000 		.long	0
 889              	
 890              	.LLSDATT1076:
 891              		.text
 893              		.section	.rodata
 894 01bb 00000000 		.align 8
 894      00
 895              	.LC16:
 896 01c0 53747265 		.string	"StreamingIntWritesCorrectCharacters"
 896      616D696E 
 896      67496E74 
 896      57726974 
 896      6573436F 
 897              		.text
 898 053d 90       		.align 2
 900              	_ZN12_GLOBAL__N_139TestStreamingIntWritesCorrectCharactersC2Ev:
 901              	.LFB1078:
  31:TestMemoryOutStream.cpp **** 
  32:TestMemoryOutStream.cpp **** TEST(StreamingIntWritesCorrectCharacters)
 902              		.loc 3 32 0
 903              		.cfi_startproc
 904 053e 55       		pushq	%rbp
 905              		.cfi_def_cfa_offset 16
 906              		.cfi_offset 6, -16
 907 053f 4889E5   		movq	%rsp, %rbp
 908              		.cfi_def_cfa_register 6
 909 0542 4883EC10 		subq	$16, %rsp
 910 0546 48897DF8 		movq	%rdi, -8(%rbp)
 911              	.LBB13:
 912              		.loc 3 32 0
 913 054a E8000000 		call	_ZN13UnitTestSuite12GetSuiteNameEv
 913      00
 914 054f 4889C2   		movq	%rax, %rdx
 915 0552 488B45F8 		movq	-8(%rbp), %rax
 916 0556 41B82000 		movl	$32, %r8d
 916      0000
 917 055c B9000000 		movl	$.LC1, %ecx
 917      00
 918 0561 BE000000 		movl	$.LC16, %esi
 918      00
 919 0566 4889C7   		movq	%rax, %rdi
 920 0569 E8000000 		call	_ZN8UnitTest4TestC2EPKcS2_S2_i
 920      00
 921 056e 488B45F8 		movq	-8(%rbp), %rax
 922 0572 48C70000 		movq	$_ZTVN12_GLOBAL__N_139TestStreamingIntWritesCorrectCharactersE+16, (%rax)
 922      000000
 923              	.LBE13:
 924 0579 C9       		leave
 925              		.cfi_def_cfa 7, 8
 926 057a C3       		ret
 927              		.cfi_endproc
 928              	.LFE1078:
 930              		.local	_ZN12_GLOBAL__N_147testStreamingIntWritesCorrectCharactersInstanceE
 931              		.comm	_ZN12_GLOBAL__N_147testStreamingIntWritesCorrectCharactersInstanceE,56,32
 932              		.local	_ZN12_GLOBAL__N_140adderStreamingIntWritesCorrectCharactersE
 933              		.comm	_ZN12_GLOBAL__N_140adderStreamingIntWritesCorrectCharactersE,1,1
 934              		.section	.rodata
 935              	.LC17:
 936 01e4 31323300 		.string	"123"
 937              		.align 8
 938              	.LC18:
 939 01e8 556E6861 		.string	"Unhandled exception in CHECK_EQUAL(\"123\", stream.GetText())"
 939      6E646C65 
 939      64206578 
 939      63657074 
 939      696F6E20 
 940              		.text
 941 057b 90       		.align 2
 943              	_ZNK12_GLOBAL__N_139TestStreamingIntWritesCorrectCharacters7RunImplEv:
 944              	.LFB1080:
  33:TestMemoryOutStream.cpp **** {
 945              		.loc 3 33 0
 946              		.cfi_startproc
 947              		.cfi_personality 0x3,__gxx_personality_v0
 948              		.cfi_lsda 0x3,.LLSDA1080
 949 057c 55       		pushq	%rbp
 950              		.cfi_def_cfa_offset 16
 951              		.cfi_offset 6, -16
 952 057d 4889E5   		movq	%rsp, %rbp
 953              		.cfi_def_cfa_register 6
 954 0580 53       		pushq	%rbx
 955 0581 4881ECA8 		subq	$424, %rsp
 955      010000
 956              		.cfi_offset 3, -24
 957 0588 4889BD58 		movq	%rdi, -424(%rbp)
 957      FEFFFF
 958              		.loc 3 33 0
 959 058f 64488B04 		movq	%fs:40, %rax
 959      25280000 
 959      00
 960 0598 488945E8 		movq	%rax, -24(%rbp)
 961 059c 31C0     		xorl	%eax, %eax
 962              	.LBB14:
  34:TestMemoryOutStream.cpp ****     MemoryOutStream stream;
 963              		.loc 3 34 0
 964 059e 488D8580 		leaq	-384(%rbp), %rax
 964      FEFFFF
 965 05a5 4889C7   		movq	%rax, %rdi
 966              	.LEHB27:
 967 05a8 E8000000 		call	_ZN8UnitTest15MemoryOutStreamC1Ev
 967      00
 968              	.LEHE27:
  35:TestMemoryOutStream.cpp ****     stream << (int)123;
 969              		.loc 3 35 0
 970 05ad 488D8580 		leaq	-384(%rbp), %rax
 970      FEFFFF
 971 05b4 BE7B0000 		movl	$123, %esi
 971      00
 972 05b9 4889C7   		movq	%rax, %rdi
 973              	.LEHB28:
 974 05bc E8000000 		call	_ZNSolsEi
 974      00
 975              	.LEHE28:
 976              	.LEHB29:
  36:TestMemoryOutStream.cpp ****     CHECK_EQUAL("123", stream.GetText());
 977              		.loc 3 36 0
 978 05c1 E8000000 		call	_ZN8UnitTest11CurrentTest7DetailsEv
 978      00
 979 05c6 488B08   		movq	(%rax), %rcx
 980 05c9 488D8560 		leaq	-416(%rbp), %rax
 980      FEFFFF
 981 05d0 BA240000 		movl	$36, %edx
 981      00
 982 05d5 4889CE   		movq	%rcx, %rsi
 983 05d8 4889C7   		movq	%rax, %rdi
 984 05db E8000000 		call	_ZN8UnitTest11TestDetailsC1ERKS0_i
 984      00
 985              		.loc 3 36 0 is_stmt 0 discriminator 2
 986 05e0 488D8580 		leaq	-384(%rbp), %rax
 986      FEFFFF
 987 05e7 4889C7   		movq	%rax, %rdi
 988 05ea E8000000 		call	_ZNK8UnitTest15MemoryOutStream7GetTextEv
 988      00
 989 05ef 4889C3   		movq	%rax, %rbx
 990 05f2 E8000000 		call	_ZN8UnitTest11CurrentTest7ResultsEv
 990      00
 991              		.loc 3 36 0 discriminator 4
 992 05f7 488B00   		movq	(%rax), %rax
 993 05fa 488D9560 		leaq	-416(%rbp), %rdx
 993      FEFFFF
 994 0601 4889D1   		movq	%rdx, %rcx
 995 0604 4889DA   		movq	%rbx, %rdx
 996 0607 BE000000 		movl	$.LC17, %esi
 996      00
 997 060c 4889C7   		movq	%rax, %rdi
 998 060f E8000000 		call	_ZN8UnitTest10CheckEqualERNS_11TestResultsEPKcS3_RKNS_11TestDetailsE
 998      00
 999              	.LEHE29:
 1000              	.L52:
 1001              		.loc 3 36 0 discriminator 9
 1002 0614 488D8580 		leaq	-384(%rbp), %rax
 1002      FEFFFF
 1003 061b 4889C7   		movq	%rax, %rdi
 1004              	.LEHB30:
 1005 061e E8000000 		call	_ZN8UnitTest15MemoryOutStreamD1Ev
 1005      00
 1006              	.LEHE30:
 1007              	.LBE14:
  37:TestMemoryOutStream.cpp **** }
 1008              		.loc 3 37 0 is_stmt 1 discriminator 9
 1009 0623 488B45E8 		movq	-24(%rbp), %rax
 1010 0627 64483304 		xorq	%fs:40, %rax
 1010      25280000 
 1010      00
 1011 0630 747B     		je	.L53
 1012 0632 EB74     		jmp	.L57
 1013              	.L56:
 1014 0634 4889C3   		movq	%rax, %rbx
 1015              	.LBB15:
  36:TestMemoryOutStream.cpp ****     CHECK_EQUAL("123", stream.GetText());
 1016              		.loc 3 36 0
 1017 0637 E8000000 		call	__cxa_end_catch
 1017      00
 1018 063c EB50     		jmp	.L50
 1019              	.L55:
 1020 063e 4889C7   		movq	%rax, %rdi
 1021 0641 E8000000 		call	__cxa_begin_catch
 1021      00
 1022              	.LEHB31:
 1023 0646 E8000000 		call	_ZN8UnitTest11CurrentTest7DetailsEv
 1023      00
 1024 064b 488B08   		movq	(%rax), %rcx
 1025 064e 488D8560 		leaq	-416(%rbp), %rax
 1025      FEFFFF
 1026 0655 BA240000 		movl	$36, %edx
 1026      00
 1027 065a 4889CE   		movq	%rcx, %rsi
 1028 065d 4889C7   		movq	%rax, %rdi
 1029 0660 E8000000 		call	_ZN8UnitTest11TestDetailsC1ERKS0_i
 1029      00
  36:TestMemoryOutStream.cpp ****     CHECK_EQUAL("123", stream.GetText());
 1030              		.loc 3 36 0 is_stmt 0 discriminator 13
 1031 0665 E8000000 		call	_ZN8UnitTest11CurrentTest7ResultsEv
 1031      00
 1032 066a 488B00   		movq	(%rax), %rax
 1033 066d 488D8D60 		leaq	-416(%rbp), %rcx
 1033      FEFFFF
 1034 0674 BA000000 		movl	$.LC18, %edx
 1034      00
 1035 0679 4889CE   		movq	%rcx, %rsi
 1036 067c 4889C7   		movq	%rax, %rdi
 1037 067f E8000000 		call	_ZN8UnitTest11TestResults13OnTestFailureERKNS_11TestDetailsEPKc
 1037      00
 1038              	.LEHE31:
 1039              	.LEHB32:
  36:TestMemoryOutStream.cpp ****     CHECK_EQUAL("123", stream.GetText());
 1040              		.loc 3 36 0 discriminator 17
 1041 0684 E8000000 		call	__cxa_end_catch
 1041      00
 1042              	.LEHE32:
  36:TestMemoryOutStream.cpp ****     CHECK_EQUAL("123", stream.GetText());
 1043              		.loc 3 36 0
 1044 0689 EB89     		jmp	.L52
 1045              	.L54:
 1046 068b 4889C3   		movq	%rax, %rbx
 1047              	.L50:
  36:TestMemoryOutStream.cpp ****     CHECK_EQUAL("123", stream.GetText());
 1048              		.loc 3 36 0 discriminator 18
 1049 068e 488D8580 		leaq	-384(%rbp), %rax
 1049      FEFFFF
 1050 0695 4889C7   		movq	%rax, %rdi
 1051 0698 E8000000 		call	_ZN8UnitTest15MemoryOutStreamD1Ev
 1051      00
 1052 069d 4889D8   		movq	%rbx, %rax
 1053 06a0 4889C7   		movq	%rax, %rdi
 1054              	.LEHB33:
 1055 06a3 E8000000 		call	_Unwind_Resume
 1055      00
 1056              	.LEHE33:
 1057              	.L57:
 1058              	.LBE15:
 1059              		.loc 3 37 0 is_stmt 1
 1060 06a8 E8000000 		call	__stack_chk_fail
 1060      00
 1061              	.L53:
 1062 06ad 4881C4A8 		addq	$424, %rsp
 1062      010000
 1063 06b4 5B       		popq	%rbx
 1064 06b5 5D       		popq	%rbp
 1065              		.cfi_def_cfa 7, 8
 1066 06b6 C3       		ret
 1067              		.cfi_endproc
 1068              	.LFE1080:
 1069              		.section	.gcc_except_table
 1070              		.align 4
 1071              	.LLSDA1080:
 1072 009c FF       		.byte	0xff
 1073 009d 03       		.byte	0x3
 1074 009e 2D       		.uleb128 .LLSDATT1080-.LLSDATTD1080
 1075              	.LLSDATTD1080:
 1076 009f 01       		.byte	0x1
 1077 00a0 24       		.uleb128 .LLSDACSE1080-.LLSDACSB1080
 1078              	.LLSDACSB1080:
 1079 00a1 2C       		.uleb128 .LEHB27-.LFB1080
 1080 00a2 05       		.uleb128 .LEHE27-.LEHB27
 1081 00a3 00       		.uleb128 0
 1082 00a4 00       		.uleb128 0
 1083 00a5 40       		.uleb128 .LEHB28-.LFB1080
 1084 00a6 05       		.uleb128 .LEHE28-.LEHB28
 1085 00a7 8F02     		.uleb128 .L54-.LFB1080
 1086 00a9 00       		.uleb128 0
 1087 00aa 45       		.uleb128 .LEHB29-.LFB1080
 1088 00ab 53       		.uleb128 .LEHE29-.LEHB29
 1089 00ac C201     		.uleb128 .L55-.LFB1080
 1090 00ae 01       		.uleb128 0x1
 1091 00af A201     		.uleb128 .LEHB30-.LFB1080
 1092 00b1 05       		.uleb128 .LEHE30-.LEHB30
 1093 00b2 00       		.uleb128 0
 1094 00b3 00       		.uleb128 0
 1095 00b4 CA01     		.uleb128 .LEHB31-.LFB1080
 1096 00b6 3E       		.uleb128 .LEHE31-.LEHB31
 1097 00b7 B801     		.uleb128 .L56-.LFB1080
 1098 00b9 00       		.uleb128 0
 1099 00ba 8802     		.uleb128 .LEHB32-.LFB1080
 1100 00bc 05       		.uleb128 .LEHE32-.LEHB32
 1101 00bd 8F02     		.uleb128 .L54-.LFB1080
 1102 00bf 00       		.uleb128 0
 1103 00c0 A702     		.uleb128 .LEHB33-.LFB1080
 1104 00c2 05       		.uleb128 .LEHE33-.LEHB33
 1105 00c3 00       		.uleb128 0
 1106 00c4 00       		.uleb128 0
 1107              	.LLSDACSE1080:
 1108 00c5 01       		.byte	0x1
 1109 00c6 00       		.byte	0
 1110 00c7 00       		.align 4
 1111 00c8 00000000 		.long	0
 1112              	
 1113              	.LLSDATT1080:
 1114              		.text
 1116              		.section	.rodata
 1117 0224 00000000 		.align 8
 1118              	.LC19:
 1119 0228 53747265 		.string	"StreamingUnsignedIntWritesCorrectCharacters"
 1119      616D696E 
 1119      67556E73 
 1119      69676E65 
 1119      64496E74 
 1120              		.text
 1121 06b7 90       		.align 2
 1123              	_ZN12_GLOBAL__N_147TestStreamingUnsignedIntWritesCorrectCharactersC2Ev:
 1124              	.LFB1082:
  38:TestMemoryOutStream.cpp **** 
  39:TestMemoryOutStream.cpp **** TEST(StreamingUnsignedIntWritesCorrectCharacters)
 1125              		.loc 3 39 0
 1126              		.cfi_startproc
 1127 06b8 55       		pushq	%rbp
 1128              		.cfi_def_cfa_offset 16
 1129              		.cfi_offset 6, -16
 1130 06b9 4889E5   		movq	%rsp, %rbp
 1131              		.cfi_def_cfa_register 6
 1132 06bc 4883EC10 		subq	$16, %rsp
 1133 06c0 48897DF8 		movq	%rdi, -8(%rbp)
 1134              	.LBB16:
 1135              		.loc 3 39 0
 1136 06c4 E8000000 		call	_ZN13UnitTestSuite12GetSuiteNameEv
 1136      00
 1137 06c9 4889C2   		movq	%rax, %rdx
 1138 06cc 488B45F8 		movq	-8(%rbp), %rax
 1139 06d0 41B82700 		movl	$39, %r8d
 1139      0000
 1140 06d6 B9000000 		movl	$.LC1, %ecx
 1140      00
 1141 06db BE000000 		movl	$.LC19, %esi
 1141      00
 1142 06e0 4889C7   		movq	%rax, %rdi
 1143 06e3 E8000000 		call	_ZN8UnitTest4TestC2EPKcS2_S2_i
 1143      00
 1144 06e8 488B45F8 		movq	-8(%rbp), %rax
 1145 06ec 48C70000 		movq	$_ZTVN12_GLOBAL__N_147TestStreamingUnsignedIntWritesCorrectCharactersE+16, (%rax)
 1145      000000
 1146              	.LBE16:
 1147 06f3 C9       		leave
 1148              		.cfi_def_cfa 7, 8
 1149 06f4 C3       		ret
 1150              		.cfi_endproc
 1151              	.LFE1082:
 1153              		.local	_ZN12_GLOBAL__N_155testStreamingUnsignedIntWritesCorrectCharactersInstanceE
 1154              		.comm	_ZN12_GLOBAL__N_155testStreamingUnsignedIntWritesCorrectCharactersInstanceE,56,32
 1155              		.local	_ZN12_GLOBAL__N_148adderStreamingUnsignedIntWritesCorrectCharactersE
 1156              		.comm	_ZN12_GLOBAL__N_148adderStreamingUnsignedIntWritesCorrectCharactersE,1,1
 1157 06f5 90       		.align 2
 1159              	_ZNK12_GLOBAL__N_147TestStreamingUnsignedIntWritesCorrectCharacters7RunImplEv:
 1160              	.LFB1084:
  40:TestMemoryOutStream.cpp **** {
 1161              		.loc 3 40 0
 1162              		.cfi_startproc
 1163              		.cfi_personality 0x3,__gxx_personality_v0
 1164              		.cfi_lsda 0x3,.LLSDA1084
 1165 06f6 55       		pushq	%rbp
 1166              		.cfi_def_cfa_offset 16
 1167              		.cfi_offset 6, -16
 1168 06f7 4889E5   		movq	%rsp, %rbp
 1169              		.cfi_def_cfa_register 6
 1170 06fa 53       		pushq	%rbx
 1171 06fb 4881ECA8 		subq	$424, %rsp
 1171      010000
 1172              		.cfi_offset 3, -24
 1173 0702 4889BD58 		movq	%rdi, -424(%rbp)
 1173      FEFFFF
 1174              		.loc 3 40 0
 1175 0709 64488B04 		movq	%fs:40, %rax
 1175      25280000 
 1175      00
 1176 0712 488945E8 		movq	%rax, -24(%rbp)
 1177 0716 31C0     		xorl	%eax, %eax
 1178              	.LBB17:
  41:TestMemoryOutStream.cpp ****     MemoryOutStream stream;
 1179              		.loc 3 41 0
 1180 0718 488D8580 		leaq	-384(%rbp), %rax
 1180      FEFFFF
 1181 071f 4889C7   		movq	%rax, %rdi
 1182              	.LEHB34:
 1183 0722 E8000000 		call	_ZN8UnitTest15MemoryOutStreamC1Ev
 1183      00
 1184              	.LEHE34:
  42:TestMemoryOutStream.cpp ****     stream << (unsigned int)123;
 1185              		.loc 3 42 0
 1186 0727 488D8580 		leaq	-384(%rbp), %rax
 1186      FEFFFF
 1187 072e BE7B0000 		movl	$123, %esi
 1187      00
 1188 0733 4889C7   		movq	%rax, %rdi
 1189              	.LEHB35:
 1190 0736 E8000000 		call	_ZNSolsEj
 1190      00
 1191              	.LEHE35:
 1192              	.LEHB36:
  43:TestMemoryOutStream.cpp ****     CHECK_EQUAL("123", stream.GetText());
 1193              		.loc 3 43 0
 1194 073b E8000000 		call	_ZN8UnitTest11CurrentTest7DetailsEv
 1194      00
 1195 0740 488B08   		movq	(%rax), %rcx
 1196 0743 488D8560 		leaq	-416(%rbp), %rax
 1196      FEFFFF
 1197 074a BA2B0000 		movl	$43, %edx
 1197      00
 1198 074f 4889CE   		movq	%rcx, %rsi
 1199 0752 4889C7   		movq	%rax, %rdi
 1200 0755 E8000000 		call	_ZN8UnitTest11TestDetailsC1ERKS0_i
 1200      00
 1201              		.loc 3 43 0 is_stmt 0 discriminator 2
 1202 075a 488D8580 		leaq	-384(%rbp), %rax
 1202      FEFFFF
 1203 0761 4889C7   		movq	%rax, %rdi
 1204 0764 E8000000 		call	_ZNK8UnitTest15MemoryOutStream7GetTextEv
 1204      00
 1205 0769 4889C3   		movq	%rax, %rbx
 1206 076c E8000000 		call	_ZN8UnitTest11CurrentTest7ResultsEv
 1206      00
 1207              		.loc 3 43 0 discriminator 4
 1208 0771 488B00   		movq	(%rax), %rax
 1209 0774 488D9560 		leaq	-416(%rbp), %rdx
 1209      FEFFFF
 1210 077b 4889D1   		movq	%rdx, %rcx
 1211 077e 4889DA   		movq	%rbx, %rdx
 1212 0781 BE000000 		movl	$.LC17, %esi
 1212      00
 1213 0786 4889C7   		movq	%rax, %rdi
 1214 0789 E8000000 		call	_ZN8UnitTest10CheckEqualERNS_11TestResultsEPKcS3_RKNS_11TestDetailsE
 1214      00
 1215              	.LEHE36:
 1216              	.L63:
 1217              		.loc 3 43 0 discriminator 9
 1218 078e 488D8580 		leaq	-384(%rbp), %rax
 1218      FEFFFF
 1219 0795 4889C7   		movq	%rax, %rdi
 1220              	.LEHB37:
 1221 0798 E8000000 		call	_ZN8UnitTest15MemoryOutStreamD1Ev
 1221      00
 1222              	.LEHE37:
 1223              	.LBE17:
  44:TestMemoryOutStream.cpp **** }
 1224              		.loc 3 44 0 is_stmt 1 discriminator 9
 1225 079d 488B45E8 		movq	-24(%rbp), %rax
 1226 07a1 64483304 		xorq	%fs:40, %rax
 1226      25280000 
 1226      00
 1227 07aa 747B     		je	.L64
 1228 07ac EB74     		jmp	.L68
 1229              	.L67:
 1230 07ae 4889C3   		movq	%rax, %rbx
 1231              	.LBB18:
  43:TestMemoryOutStream.cpp ****     CHECK_EQUAL("123", stream.GetText());
 1232              		.loc 3 43 0
 1233 07b1 E8000000 		call	__cxa_end_catch
 1233      00
 1234 07b6 EB50     		jmp	.L61
 1235              	.L66:
 1236 07b8 4889C7   		movq	%rax, %rdi
 1237 07bb E8000000 		call	__cxa_begin_catch
 1237      00
 1238              	.LEHB38:
 1239 07c0 E8000000 		call	_ZN8UnitTest11CurrentTest7DetailsEv
 1239      00
 1240 07c5 488B08   		movq	(%rax), %rcx
 1241 07c8 488D8560 		leaq	-416(%rbp), %rax
 1241      FEFFFF
 1242 07cf BA2B0000 		movl	$43, %edx
 1242      00
 1243 07d4 4889CE   		movq	%rcx, %rsi
 1244 07d7 4889C7   		movq	%rax, %rdi
 1245 07da E8000000 		call	_ZN8UnitTest11TestDetailsC1ERKS0_i
 1245      00
  43:TestMemoryOutStream.cpp ****     CHECK_EQUAL("123", stream.GetText());
 1246              		.loc 3 43 0 is_stmt 0 discriminator 13
 1247 07df E8000000 		call	_ZN8UnitTest11CurrentTest7ResultsEv
 1247      00
 1248 07e4 488B00   		movq	(%rax), %rax
 1249 07e7 488D8D60 		leaq	-416(%rbp), %rcx
 1249      FEFFFF
 1250 07ee BA000000 		movl	$.LC18, %edx
 1250      00
 1251 07f3 4889CE   		movq	%rcx, %rsi
 1252 07f6 4889C7   		movq	%rax, %rdi
 1253 07f9 E8000000 		call	_ZN8UnitTest11TestResults13OnTestFailureERKNS_11TestDetailsEPKc
 1253      00
 1254              	.LEHE38:
 1255              	.LEHB39:
  43:TestMemoryOutStream.cpp ****     CHECK_EQUAL("123", stream.GetText());
 1256              		.loc 3 43 0 discriminator 17
 1257 07fe E8000000 		call	__cxa_end_catch
 1257      00
 1258              	.LEHE39:
  43:TestMemoryOutStream.cpp ****     CHECK_EQUAL("123", stream.GetText());
 1259              		.loc 3 43 0
 1260 0803 EB89     		jmp	.L63
 1261              	.L65:
 1262 0805 4889C3   		movq	%rax, %rbx
 1263              	.L61:
  43:TestMemoryOutStream.cpp ****     CHECK_EQUAL("123", stream.GetText());
 1264              		.loc 3 43 0 discriminator 18
 1265 0808 488D8580 		leaq	-384(%rbp), %rax
 1265      FEFFFF
 1266 080f 4889C7   		movq	%rax, %rdi
 1267 0812 E8000000 		call	_ZN8UnitTest15MemoryOutStreamD1Ev
 1267      00
 1268 0817 4889D8   		movq	%rbx, %rax
 1269 081a 4889C7   		movq	%rax, %rdi
 1270              	.LEHB40:
 1271 081d E8000000 		call	_Unwind_Resume
 1271      00
 1272              	.LEHE40:
 1273              	.L68:
 1274              	.LBE18:
 1275              		.loc 3 44 0 is_stmt 1
 1276 0822 E8000000 		call	__stack_chk_fail
 1276      00
 1277              	.L64:
 1278 0827 4881C4A8 		addq	$424, %rsp
 1278      010000
 1279 082e 5B       		popq	%rbx
 1280 082f 5D       		popq	%rbp
 1281              		.cfi_def_cfa 7, 8
 1282 0830 C3       		ret
 1283              		.cfi_endproc
 1284              	.LFE1084:
 1285              		.section	.gcc_except_table
 1286              		.align 4
 1287              	.LLSDA1084:
 1288 00cc FF       		.byte	0xff
 1289 00cd 03       		.byte	0x3
 1290 00ce 2D       		.uleb128 .LLSDATT1084-.LLSDATTD1084
 1291              	.LLSDATTD1084:
 1292 00cf 01       		.byte	0x1
 1293 00d0 24       		.uleb128 .LLSDACSE1084-.LLSDACSB1084
 1294              	.LLSDACSB1084:
 1295 00d1 2C       		.uleb128 .LEHB34-.LFB1084
 1296 00d2 05       		.uleb128 .LEHE34-.LEHB34
 1297 00d3 00       		.uleb128 0
 1298 00d4 00       		.uleb128 0
 1299 00d5 40       		.uleb128 .LEHB35-.LFB1084
 1300 00d6 05       		.uleb128 .LEHE35-.LEHB35
 1301 00d7 8F02     		.uleb128 .L65-.LFB1084
 1302 00d9 00       		.uleb128 0
 1303 00da 45       		.uleb128 .LEHB36-.LFB1084
 1304 00db 53       		.uleb128 .LEHE36-.LEHB36
 1305 00dc C201     		.uleb128 .L66-.LFB1084
 1306 00de 01       		.uleb128 0x1
 1307 00df A201     		.uleb128 .LEHB37-.LFB1084
 1308 00e1 05       		.uleb128 .LEHE37-.LEHB37
 1309 00e2 00       		.uleb128 0
 1310 00e3 00       		.uleb128 0
 1311 00e4 CA01     		.uleb128 .LEHB38-.LFB1084
 1312 00e6 3E       		.uleb128 .LEHE38-.LEHB38
 1313 00e7 B801     		.uleb128 .L67-.LFB1084
 1314 00e9 00       		.uleb128 0
 1315 00ea 8802     		.uleb128 .LEHB39-.LFB1084
 1316 00ec 05       		.uleb128 .LEHE39-.LEHB39
 1317 00ed 8F02     		.uleb128 .L65-.LFB1084
 1318 00ef 00       		.uleb128 0
 1319 00f0 A702     		.uleb128 .LEHB40-.LFB1084
 1320 00f2 05       		.uleb128 .LEHE40-.LEHB40
 1321 00f3 00       		.uleb128 0
 1322 00f4 00       		.uleb128 0
 1323              	.LLSDACSE1084:
 1324 00f5 01       		.byte	0x1
 1325 00f6 00       		.byte	0
 1326 00f7 00       		.align 4
 1327 00f8 00000000 		.long	0
 1328              	
 1329              	.LLSDATT1084:
 1330              		.text
 1332              		.section	.rodata
 1333 0254 00000000 		.align 8
 1334              	.LC20:
 1335 0258 53747265 		.string	"StreamingLongWritesCorrectCharacters"
 1335      616D696E 
 1335      674C6F6E 
 1335      67577269 
 1335      74657343 
 1336              		.text
 1337 0831 90       		.align 2
 1339              	_ZN12_GLOBAL__N_140TestStreamingLongWritesCorrectCharactersC2Ev:
 1340              	.LFB1086:
  45:TestMemoryOutStream.cpp **** 
  46:TestMemoryOutStream.cpp **** TEST(StreamingLongWritesCorrectCharacters)
 1341              		.loc 3 46 0
 1342              		.cfi_startproc
 1343 0832 55       		pushq	%rbp
 1344              		.cfi_def_cfa_offset 16
 1345              		.cfi_offset 6, -16
 1346 0833 4889E5   		movq	%rsp, %rbp
 1347              		.cfi_def_cfa_register 6
 1348 0836 4883EC10 		subq	$16, %rsp
 1349 083a 48897DF8 		movq	%rdi, -8(%rbp)
 1350              	.LBB19:
 1351              		.loc 3 46 0
 1352 083e E8000000 		call	_ZN13UnitTestSuite12GetSuiteNameEv
 1352      00
 1353 0843 4889C2   		movq	%rax, %rdx
 1354 0846 488B45F8 		movq	-8(%rbp), %rax
 1355 084a 41B82E00 		movl	$46, %r8d
 1355      0000
 1356 0850 B9000000 		movl	$.LC1, %ecx
 1356      00
 1357 0855 BE000000 		movl	$.LC20, %esi
 1357      00
 1358 085a 4889C7   		movq	%rax, %rdi
 1359 085d E8000000 		call	_ZN8UnitTest4TestC2EPKcS2_S2_i
 1359      00
 1360 0862 488B45F8 		movq	-8(%rbp), %rax
 1361 0866 48C70000 		movq	$_ZTVN12_GLOBAL__N_140TestStreamingLongWritesCorrectCharactersE+16, (%rax)
 1361      000000
 1362              	.LBE19:
 1363 086d C9       		leave
 1364              		.cfi_def_cfa 7, 8
 1365 086e C3       		ret
 1366              		.cfi_endproc
 1367              	.LFE1086:
 1369              		.local	_ZN12_GLOBAL__N_148testStreamingLongWritesCorrectCharactersInstanceE
 1370              		.comm	_ZN12_GLOBAL__N_148testStreamingLongWritesCorrectCharactersInstanceE,56,32
 1371              		.local	_ZN12_GLOBAL__N_141adderStreamingLongWritesCorrectCharactersE
 1372              		.comm	_ZN12_GLOBAL__N_141adderStreamingLongWritesCorrectCharactersE,1,1
 1373              		.section	.rodata
 1374              	.LC21:
 1375 027d 2D313233 		.string	"-123"
 1375      00
 1376 0282 00000000 		.align 8
 1376      0000
 1377              	.LC22:
 1378 0288 556E6861 		.string	"Unhandled exception in CHECK_EQUAL(\"-123\", stream.GetText())"
 1378      6E646C65 
 1378      64206578 
 1378      63657074 
 1378      696F6E20 
 1379              		.text
 1380 086f 90       		.align 2
 1382              	_ZNK12_GLOBAL__N_140TestStreamingLongWritesCorrectCharacters7RunImplEv:
 1383              	.LFB1088:
  47:TestMemoryOutStream.cpp **** {
 1384              		.loc 3 47 0
 1385              		.cfi_startproc
 1386              		.cfi_personality 0x3,__gxx_personality_v0
 1387              		.cfi_lsda 0x3,.LLSDA1088
 1388 0870 55       		pushq	%rbp
 1389              		.cfi_def_cfa_offset 16
 1390              		.cfi_offset 6, -16
 1391 0871 4889E5   		movq	%rsp, %rbp
 1392              		.cfi_def_cfa_register 6
 1393 0874 53       		pushq	%rbx
 1394 0875 4881ECA8 		subq	$424, %rsp
 1394      010000
 1395              		.cfi_offset 3, -24
 1396 087c 4889BD58 		movq	%rdi, -424(%rbp)
 1396      FEFFFF
 1397              		.loc 3 47 0
 1398 0883 64488B04 		movq	%fs:40, %rax
 1398      25280000 
 1398      00
 1399 088c 488945E8 		movq	%rax, -24(%rbp)
 1400 0890 31C0     		xorl	%eax, %eax
 1401              	.LBB20:
  48:TestMemoryOutStream.cpp ****     MemoryOutStream stream;
 1402              		.loc 3 48 0
 1403 0892 488D8580 		leaq	-384(%rbp), %rax
 1403      FEFFFF
 1404 0899 4889C7   		movq	%rax, %rdi
 1405              	.LEHB41:
 1406 089c E8000000 		call	_ZN8UnitTest15MemoryOutStreamC1Ev
 1406      00
 1407              	.LEHE41:
  49:TestMemoryOutStream.cpp ****     stream << (long)(-123);
 1408              		.loc 3 49 0
 1409 08a1 488D8580 		leaq	-384(%rbp), %rax
 1409      FEFFFF
 1410 08a8 48C7C685 		movq	$-123, %rsi
 1410      FFFFFF
 1411 08af 4889C7   		movq	%rax, %rdi
 1412              	.LEHB42:
 1413 08b2 E8000000 		call	_ZNSolsEl
 1413      00
 1414              	.LEHE42:
 1415              	.LEHB43:
  50:TestMemoryOutStream.cpp ****     CHECK_EQUAL("-123", stream.GetText());
 1416              		.loc 3 50 0
 1417 08b7 E8000000 		call	_ZN8UnitTest11CurrentTest7DetailsEv
 1417      00
 1418 08bc 488B08   		movq	(%rax), %rcx
 1419 08bf 488D8560 		leaq	-416(%rbp), %rax
 1419      FEFFFF
 1420 08c6 BA320000 		movl	$50, %edx
 1420      00
 1421 08cb 4889CE   		movq	%rcx, %rsi
 1422 08ce 4889C7   		movq	%rax, %rdi
 1423 08d1 E8000000 		call	_ZN8UnitTest11TestDetailsC1ERKS0_i
 1423      00
 1424              		.loc 3 50 0 is_stmt 0 discriminator 2
 1425 08d6 488D8580 		leaq	-384(%rbp), %rax
 1425      FEFFFF
 1426 08dd 4889C7   		movq	%rax, %rdi
 1427 08e0 E8000000 		call	_ZNK8UnitTest15MemoryOutStream7GetTextEv
 1427      00
 1428 08e5 4889C3   		movq	%rax, %rbx
 1429 08e8 E8000000 		call	_ZN8UnitTest11CurrentTest7ResultsEv
 1429      00
 1430              		.loc 3 50 0 discriminator 4
 1431 08ed 488B00   		movq	(%rax), %rax
 1432 08f0 488D9560 		leaq	-416(%rbp), %rdx
 1432      FEFFFF
 1433 08f7 4889D1   		movq	%rdx, %rcx
 1434 08fa 4889DA   		movq	%rbx, %rdx
 1435 08fd BE000000 		movl	$.LC21, %esi
 1435      00
 1436 0902 4889C7   		movq	%rax, %rdi
 1437 0905 E8000000 		call	_ZN8UnitTest10CheckEqualERNS_11TestResultsEPKcS3_RKNS_11TestDetailsE
 1437      00
 1438              	.LEHE43:
 1439              	.L74:
 1440              		.loc 3 50 0 discriminator 9
 1441 090a 488D8580 		leaq	-384(%rbp), %rax
 1441      FEFFFF
 1442 0911 4889C7   		movq	%rax, %rdi
 1443              	.LEHB44:
 1444 0914 E8000000 		call	_ZN8UnitTest15MemoryOutStreamD1Ev
 1444      00
 1445              	.LEHE44:
 1446              	.LBE20:
  51:TestMemoryOutStream.cpp **** }
 1447              		.loc 3 51 0 is_stmt 1 discriminator 9
 1448 0919 488B45E8 		movq	-24(%rbp), %rax
 1449 091d 64483304 		xorq	%fs:40, %rax
 1449      25280000 
 1449      00
 1450 0926 747B     		je	.L75
 1451 0928 EB74     		jmp	.L79
 1452              	.L78:
 1453 092a 4889C3   		movq	%rax, %rbx
 1454              	.LBB21:
  50:TestMemoryOutStream.cpp ****     CHECK_EQUAL("-123", stream.GetText());
 1455              		.loc 3 50 0
 1456 092d E8000000 		call	__cxa_end_catch
 1456      00
 1457 0932 EB50     		jmp	.L72
 1458              	.L77:
 1459 0934 4889C7   		movq	%rax, %rdi
 1460 0937 E8000000 		call	__cxa_begin_catch
 1460      00
 1461              	.LEHB45:
 1462 093c E8000000 		call	_ZN8UnitTest11CurrentTest7DetailsEv
 1462      00
 1463 0941 488B08   		movq	(%rax), %rcx
 1464 0944 488D8560 		leaq	-416(%rbp), %rax
 1464      FEFFFF
 1465 094b BA320000 		movl	$50, %edx
 1465      00
 1466 0950 4889CE   		movq	%rcx, %rsi
 1467 0953 4889C7   		movq	%rax, %rdi
 1468 0956 E8000000 		call	_ZN8UnitTest11TestDetailsC1ERKS0_i
 1468      00
  50:TestMemoryOutStream.cpp ****     CHECK_EQUAL("-123", stream.GetText());
 1469              		.loc 3 50 0 is_stmt 0 discriminator 13
 1470 095b E8000000 		call	_ZN8UnitTest11CurrentTest7ResultsEv
 1470      00
 1471 0960 488B00   		movq	(%rax), %rax
 1472 0963 488D8D60 		leaq	-416(%rbp), %rcx
 1472      FEFFFF
 1473 096a BA000000 		movl	$.LC22, %edx
 1473      00
 1474 096f 4889CE   		movq	%rcx, %rsi
 1475 0972 4889C7   		movq	%rax, %rdi
 1476 0975 E8000000 		call	_ZN8UnitTest11TestResults13OnTestFailureERKNS_11TestDetailsEPKc
 1476      00
 1477              	.LEHE45:
 1478              	.LEHB46:
  50:TestMemoryOutStream.cpp ****     CHECK_EQUAL("-123", stream.GetText());
 1479              		.loc 3 50 0 discriminator 17
 1480 097a E8000000 		call	__cxa_end_catch
 1480      00
 1481              	.LEHE46:
  50:TestMemoryOutStream.cpp ****     CHECK_EQUAL("-123", stream.GetText());
 1482              		.loc 3 50 0
 1483 097f EB89     		jmp	.L74
 1484              	.L76:
 1485 0981 4889C3   		movq	%rax, %rbx
 1486              	.L72:
  50:TestMemoryOutStream.cpp ****     CHECK_EQUAL("-123", stream.GetText());
 1487              		.loc 3 50 0 discriminator 18
 1488 0984 488D8580 		leaq	-384(%rbp), %rax
 1488      FEFFFF
 1489 098b 4889C7   		movq	%rax, %rdi
 1490 098e E8000000 		call	_ZN8UnitTest15MemoryOutStreamD1Ev
 1490      00
 1491 0993 4889D8   		movq	%rbx, %rax
 1492 0996 4889C7   		movq	%rax, %rdi
 1493              	.LEHB47:
 1494 0999 E8000000 		call	_Unwind_Resume
 1494      00
 1495              	.LEHE47:
 1496              	.L79:
 1497              	.LBE21:
 1498              		.loc 3 51 0 is_stmt 1
 1499 099e E8000000 		call	__stack_chk_fail
 1499      00
 1500              	.L75:
 1501 09a3 4881C4A8 		addq	$424, %rsp
 1501      010000
 1502 09aa 5B       		popq	%rbx
 1503 09ab 5D       		popq	%rbp
 1504              		.cfi_def_cfa 7, 8
 1505 09ac C3       		ret
 1506              		.cfi_endproc
 1507              	.LFE1088:
 1508              		.section	.gcc_except_table
 1509              		.align 4
 1510              	.LLSDA1088:
 1511 00fc FF       		.byte	0xff
 1512 00fd 03       		.byte	0x3
 1513 00fe 2D       		.uleb128 .LLSDATT1088-.LLSDATTD1088
 1514              	.LLSDATTD1088:
 1515 00ff 01       		.byte	0x1
 1516 0100 24       		.uleb128 .LLSDACSE1088-.LLSDACSB1088
 1517              	.LLSDACSB1088:
 1518 0101 2C       		.uleb128 .LEHB41-.LFB1088
 1519 0102 05       		.uleb128 .LEHE41-.LEHB41
 1520 0103 00       		.uleb128 0
 1521 0104 00       		.uleb128 0
 1522 0105 42       		.uleb128 .LEHB42-.LFB1088
 1523 0106 05       		.uleb128 .LEHE42-.LEHB42
 1524 0107 9102     		.uleb128 .L76-.LFB1088
 1525 0109 00       		.uleb128 0
 1526 010a 47       		.uleb128 .LEHB43-.LFB1088
 1527 010b 53       		.uleb128 .LEHE43-.LEHB43
 1528 010c C401     		.uleb128 .L77-.LFB1088
 1529 010e 01       		.uleb128 0x1
 1530 010f A401     		.uleb128 .LEHB44-.LFB1088
 1531 0111 05       		.uleb128 .LEHE44-.LEHB44
 1532 0112 00       		.uleb128 0
 1533 0113 00       		.uleb128 0
 1534 0114 CC01     		.uleb128 .LEHB45-.LFB1088
 1535 0116 3E       		.uleb128 .LEHE45-.LEHB45
 1536 0117 BA01     		.uleb128 .L78-.LFB1088
 1537 0119 00       		.uleb128 0
 1538 011a 8A02     		.uleb128 .LEHB46-.LFB1088
 1539 011c 05       		.uleb128 .LEHE46-.LEHB46
 1540 011d 9102     		.uleb128 .L76-.LFB1088
 1541 011f 00       		.uleb128 0
 1542 0120 A902     		.uleb128 .LEHB47-.LFB1088
 1543 0122 05       		.uleb128 .LEHE47-.LEHB47
 1544 0123 00       		.uleb128 0
 1545 0124 00       		.uleb128 0
 1546              	.LLSDACSE1088:
 1547 0125 01       		.byte	0x1
 1548 0126 00       		.byte	0
 1549 0127 00       		.align 4
 1550 0128 00000000 		.long	0
 1551              	
 1552              	.LLSDATT1088:
 1553              		.text
 1555              		.section	.rodata
 1556 02c5 000000   		.align 8
 1557              	.LC23:
 1558 02c8 53747265 		.string	"StreamingUnsignedLongWritesCorrectCharacters"
 1558      616D696E 
 1558      67556E73 
 1558      69676E65 
 1558      644C6F6E 
 1559              		.text
 1560 09ad 90       		.align 2
 1562              	_ZN12_GLOBAL__N_148TestStreamingUnsignedLongWritesCorrectCharactersC2Ev:
 1563              	.LFB1090:
  52:TestMemoryOutStream.cpp **** 
  53:TestMemoryOutStream.cpp **** TEST(StreamingUnsignedLongWritesCorrectCharacters)
 1564              		.loc 3 53 0
 1565              		.cfi_startproc
 1566 09ae 55       		pushq	%rbp
 1567              		.cfi_def_cfa_offset 16
 1568              		.cfi_offset 6, -16
 1569 09af 4889E5   		movq	%rsp, %rbp
 1570              		.cfi_def_cfa_register 6
 1571 09b2 4883EC10 		subq	$16, %rsp
 1572 09b6 48897DF8 		movq	%rdi, -8(%rbp)
 1573              	.LBB22:
 1574              		.loc 3 53 0
 1575 09ba E8000000 		call	_ZN13UnitTestSuite12GetSuiteNameEv
 1575      00
 1576 09bf 4889C2   		movq	%rax, %rdx
 1577 09c2 488B45F8 		movq	-8(%rbp), %rax
 1578 09c6 41B83500 		movl	$53, %r8d
 1578      0000
 1579 09cc B9000000 		movl	$.LC1, %ecx
 1579      00
 1580 09d1 BE000000 		movl	$.LC23, %esi
 1580      00
 1581 09d6 4889C7   		movq	%rax, %rdi
 1582 09d9 E8000000 		call	_ZN8UnitTest4TestC2EPKcS2_S2_i
 1582      00
 1583 09de 488B45F8 		movq	-8(%rbp), %rax
 1584 09e2 48C70000 		movq	$_ZTVN12_GLOBAL__N_148TestStreamingUnsignedLongWritesCorrectCharactersE+16, (%rax)
 1584      000000
 1585              	.LBE22:
 1586 09e9 C9       		leave
 1587              		.cfi_def_cfa 7, 8
 1588 09ea C3       		ret
 1589              		.cfi_endproc
 1590              	.LFE1090:
 1592              		.local	_ZN12_GLOBAL__N_156testStreamingUnsignedLongWritesCorrectCharactersInstanceE
 1593              		.comm	_ZN12_GLOBAL__N_156testStreamingUnsignedLongWritesCorrectCharactersInstanceE,56,32
 1594              		.local	_ZN12_GLOBAL__N_149adderStreamingUnsignedLongWritesCorrectCharactersE
 1595              		.comm	_ZN12_GLOBAL__N_149adderStreamingUnsignedLongWritesCorrectCharactersE,1,1
 1596 09eb 90       		.align 2
 1598              	_ZNK12_GLOBAL__N_148TestStreamingUnsignedLongWritesCorrectCharacters7RunImplEv:
 1599              	.LFB1092:
  54:TestMemoryOutStream.cpp **** {
 1600              		.loc 3 54 0
 1601              		.cfi_startproc
 1602              		.cfi_personality 0x3,__gxx_personality_v0
 1603              		.cfi_lsda 0x3,.LLSDA1092
 1604 09ec 55       		pushq	%rbp
 1605              		.cfi_def_cfa_offset 16
 1606              		.cfi_offset 6, -16
 1607 09ed 4889E5   		movq	%rsp, %rbp
 1608              		.cfi_def_cfa_register 6
 1609 09f0 53       		pushq	%rbx
 1610 09f1 4881ECA8 		subq	$424, %rsp
 1610      010000
 1611              		.cfi_offset 3, -24
 1612 09f8 4889BD58 		movq	%rdi, -424(%rbp)
 1612      FEFFFF
 1613              		.loc 3 54 0
 1614 09ff 64488B04 		movq	%fs:40, %rax
 1614      25280000 
 1614      00
 1615 0a08 488945E8 		movq	%rax, -24(%rbp)
 1616 0a0c 31C0     		xorl	%eax, %eax
 1617              	.LBB23:
  55:TestMemoryOutStream.cpp ****     MemoryOutStream stream;
 1618              		.loc 3 55 0
 1619 0a0e 488D8580 		leaq	-384(%rbp), %rax
 1619      FEFFFF
 1620 0a15 4889C7   		movq	%rax, %rdi
 1621              	.LEHB48:
 1622 0a18 E8000000 		call	_ZN8UnitTest15MemoryOutStreamC1Ev
 1622      00
 1623              	.LEHE48:
  56:TestMemoryOutStream.cpp ****     stream << (unsigned long)123;
 1624              		.loc 3 56 0
 1625 0a1d 488D8580 		leaq	-384(%rbp), %rax
 1625      FEFFFF
 1626 0a24 BE7B0000 		movl	$123, %esi
 1626      00
 1627 0a29 4889C7   		movq	%rax, %rdi
 1628              	.LEHB49:
 1629 0a2c E8000000 		call	_ZNSolsEm
 1629      00
 1630              	.LEHE49:
 1631              	.LEHB50:
  57:TestMemoryOutStream.cpp ****     CHECK_EQUAL("123", stream.GetText());
 1632              		.loc 3 57 0
 1633 0a31 E8000000 		call	_ZN8UnitTest11CurrentTest7DetailsEv
 1633      00
 1634 0a36 488B08   		movq	(%rax), %rcx
 1635 0a39 488D8560 		leaq	-416(%rbp), %rax
 1635      FEFFFF
 1636 0a40 BA390000 		movl	$57, %edx
 1636      00
 1637 0a45 4889CE   		movq	%rcx, %rsi
 1638 0a48 4889C7   		movq	%rax, %rdi
 1639 0a4b E8000000 		call	_ZN8UnitTest11TestDetailsC1ERKS0_i
 1639      00
 1640              		.loc 3 57 0 is_stmt 0 discriminator 2
 1641 0a50 488D8580 		leaq	-384(%rbp), %rax
 1641      FEFFFF
 1642 0a57 4889C7   		movq	%rax, %rdi
 1643 0a5a E8000000 		call	_ZNK8UnitTest15MemoryOutStream7GetTextEv
 1643      00
 1644 0a5f 4889C3   		movq	%rax, %rbx
 1645 0a62 E8000000 		call	_ZN8UnitTest11CurrentTest7ResultsEv
 1645      00
 1646              		.loc 3 57 0 discriminator 4
 1647 0a67 488B00   		movq	(%rax), %rax
 1648 0a6a 488D9560 		leaq	-416(%rbp), %rdx
 1648      FEFFFF
 1649 0a71 4889D1   		movq	%rdx, %rcx
 1650 0a74 4889DA   		movq	%rbx, %rdx
 1651 0a77 BE000000 		movl	$.LC17, %esi
 1651      00
 1652 0a7c 4889C7   		movq	%rax, %rdi
 1653 0a7f E8000000 		call	_ZN8UnitTest10CheckEqualERNS_11TestResultsEPKcS3_RKNS_11TestDetailsE
 1653      00
 1654              	.LEHE50:
 1655              	.L85:
 1656              		.loc 3 57 0 discriminator 9
 1657 0a84 488D8580 		leaq	-384(%rbp), %rax
 1657      FEFFFF
 1658 0a8b 4889C7   		movq	%rax, %rdi
 1659              	.LEHB51:
 1660 0a8e E8000000 		call	_ZN8UnitTest15MemoryOutStreamD1Ev
 1660      00
 1661              	.LEHE51:
 1662              	.LBE23:
  58:TestMemoryOutStream.cpp **** }
 1663              		.loc 3 58 0 is_stmt 1 discriminator 9
 1664 0a93 488B45E8 		movq	-24(%rbp), %rax
 1665 0a97 64483304 		xorq	%fs:40, %rax
 1665      25280000 
 1665      00
 1666 0aa0 747B     		je	.L86
 1667 0aa2 EB74     		jmp	.L90
 1668              	.L89:
 1669 0aa4 4889C3   		movq	%rax, %rbx
 1670              	.LBB24:
  57:TestMemoryOutStream.cpp ****     CHECK_EQUAL("123", stream.GetText());
 1671              		.loc 3 57 0
 1672 0aa7 E8000000 		call	__cxa_end_catch
 1672      00
 1673 0aac EB50     		jmp	.L83
 1674              	.L88:
 1675 0aae 4889C7   		movq	%rax, %rdi
 1676 0ab1 E8000000 		call	__cxa_begin_catch
 1676      00
 1677              	.LEHB52:
 1678 0ab6 E8000000 		call	_ZN8UnitTest11CurrentTest7DetailsEv
 1678      00
 1679 0abb 488B08   		movq	(%rax), %rcx
 1680 0abe 488D8560 		leaq	-416(%rbp), %rax
 1680      FEFFFF
 1681 0ac5 BA390000 		movl	$57, %edx
 1681      00
 1682 0aca 4889CE   		movq	%rcx, %rsi
 1683 0acd 4889C7   		movq	%rax, %rdi
 1684 0ad0 E8000000 		call	_ZN8UnitTest11TestDetailsC1ERKS0_i
 1684      00
  57:TestMemoryOutStream.cpp ****     CHECK_EQUAL("123", stream.GetText());
 1685              		.loc 3 57 0 is_stmt 0 discriminator 13
 1686 0ad5 E8000000 		call	_ZN8UnitTest11CurrentTest7ResultsEv
 1686      00
 1687 0ada 488B00   		movq	(%rax), %rax
 1688 0add 488D8D60 		leaq	-416(%rbp), %rcx
 1688      FEFFFF
 1689 0ae4 BA000000 		movl	$.LC18, %edx
 1689      00
 1690 0ae9 4889CE   		movq	%rcx, %rsi
 1691 0aec 4889C7   		movq	%rax, %rdi
 1692 0aef E8000000 		call	_ZN8UnitTest11TestResults13OnTestFailureERKNS_11TestDetailsEPKc
 1692      00
 1693              	.LEHE52:
 1694              	.LEHB53:
  57:TestMemoryOutStream.cpp ****     CHECK_EQUAL("123", stream.GetText());
 1695              		.loc 3 57 0 discriminator 17
 1696 0af4 E8000000 		call	__cxa_end_catch
 1696      00
 1697              	.LEHE53:
  57:TestMemoryOutStream.cpp ****     CHECK_EQUAL("123", stream.GetText());
 1698              		.loc 3 57 0
 1699 0af9 EB89     		jmp	.L85
 1700              	.L87:
 1701 0afb 4889C3   		movq	%rax, %rbx
 1702              	.L83:
  57:TestMemoryOutStream.cpp ****     CHECK_EQUAL("123", stream.GetText());
 1703              		.loc 3 57 0 discriminator 18
 1704 0afe 488D8580 		leaq	-384(%rbp), %rax
 1704      FEFFFF
 1705 0b05 4889C7   		movq	%rax, %rdi
 1706 0b08 E8000000 		call	_ZN8UnitTest15MemoryOutStreamD1Ev
 1706      00
 1707 0b0d 4889D8   		movq	%rbx, %rax
 1708 0b10 4889C7   		movq	%rax, %rdi
 1709              	.LEHB54:
 1710 0b13 E8000000 		call	_Unwind_Resume
 1710      00
 1711              	.LEHE54:
 1712              	.L90:
 1713              	.LBE24:
 1714              		.loc 3 58 0 is_stmt 1
 1715 0b18 E8000000 		call	__stack_chk_fail
 1715      00
 1716              	.L86:
 1717 0b1d 4881C4A8 		addq	$424, %rsp
 1717      010000
 1718 0b24 5B       		popq	%rbx
 1719 0b25 5D       		popq	%rbp
 1720              		.cfi_def_cfa 7, 8
 1721 0b26 C3       		ret
 1722              		.cfi_endproc
 1723              	.LFE1092:
 1724              		.section	.gcc_except_table
 1725              		.align 4
 1726              	.LLSDA1092:
 1727 012c FF       		.byte	0xff
 1728 012d 03       		.byte	0x3
 1729 012e 2D       		.uleb128 .LLSDATT1092-.LLSDATTD1092
 1730              	.LLSDATTD1092:
 1731 012f 01       		.byte	0x1
 1732 0130 24       		.uleb128 .LLSDACSE1092-.LLSDACSB1092
 1733              	.LLSDACSB1092:
 1734 0131 2C       		.uleb128 .LEHB48-.LFB1092
 1735 0132 05       		.uleb128 .LEHE48-.LEHB48
 1736 0133 00       		.uleb128 0
 1737 0134 00       		.uleb128 0
 1738 0135 40       		.uleb128 .LEHB49-.LFB1092
 1739 0136 05       		.uleb128 .LEHE49-.LEHB49
 1740 0137 8F02     		.uleb128 .L87-.LFB1092
 1741 0139 00       		.uleb128 0
 1742 013a 45       		.uleb128 .LEHB50-.LFB1092
 1743 013b 53       		.uleb128 .LEHE50-.LEHB50
 1744 013c C201     		.uleb128 .L88-.LFB1092
 1745 013e 01       		.uleb128 0x1
 1746 013f A201     		.uleb128 .LEHB51-.LFB1092
 1747 0141 05       		.uleb128 .LEHE51-.LEHB51
 1748 0142 00       		.uleb128 0
 1749 0143 00       		.uleb128 0
 1750 0144 CA01     		.uleb128 .LEHB52-.LFB1092
 1751 0146 3E       		.uleb128 .LEHE52-.LEHB52
 1752 0147 B801     		.uleb128 .L89-.LFB1092
 1753 0149 00       		.uleb128 0
 1754 014a 8802     		.uleb128 .LEHB53-.LFB1092
 1755 014c 05       		.uleb128 .LEHE53-.LEHB53
 1756 014d 8F02     		.uleb128 .L87-.LFB1092
 1757 014f 00       		.uleb128 0
 1758 0150 A702     		.uleb128 .LEHB54-.LFB1092
 1759 0152 05       		.uleb128 .LEHE54-.LEHB54
 1760 0153 00       		.uleb128 0
 1761 0154 00       		.uleb128 0
 1762              	.LLSDACSE1092:
 1763 0155 01       		.byte	0x1
 1764 0156 00       		.byte	0
 1765 0157 00       		.align 4
 1766 0158 00000000 		.long	0
 1767              	
 1768              	.LLSDATT1092:
 1769              		.text
 1771              		.section	.rodata
 1772 02f5 000000   		.align 8
 1773              	.LC24:
 1774 02f8 53747265 		.string	"StreamingFloatWritesCorrectCharacters"
 1774      616D696E 
 1774      67466C6F 
 1774      61745772 
 1774      69746573 
 1775              		.text
 1776 0b27 90       		.align 2
 1778              	_ZN12_GLOBAL__N_141TestStreamingFloatWritesCorrectCharactersC2Ev:
 1779              	.LFB1094:
  59:TestMemoryOutStream.cpp **** 
  60:TestMemoryOutStream.cpp **** TEST(StreamingFloatWritesCorrectCharacters)
 1780              		.loc 3 60 0
 1781              		.cfi_startproc
 1782 0b28 55       		pushq	%rbp
 1783              		.cfi_def_cfa_offset 16
 1784              		.cfi_offset 6, -16
 1785 0b29 4889E5   		movq	%rsp, %rbp
 1786              		.cfi_def_cfa_register 6
 1787 0b2c 4883EC10 		subq	$16, %rsp
 1788 0b30 48897DF8 		movq	%rdi, -8(%rbp)
 1789              	.LBB25:
 1790              		.loc 3 60 0
 1791 0b34 E8000000 		call	_ZN13UnitTestSuite12GetSuiteNameEv
 1791      00
 1792 0b39 4889C2   		movq	%rax, %rdx
 1793 0b3c 488B45F8 		movq	-8(%rbp), %rax
 1794 0b40 41B83C00 		movl	$60, %r8d
 1794      0000
 1795 0b46 B9000000 		movl	$.LC1, %ecx
 1795      00
 1796 0b4b BE000000 		movl	$.LC24, %esi
 1796      00
 1797 0b50 4889C7   		movq	%rax, %rdi
 1798 0b53 E8000000 		call	_ZN8UnitTest4TestC2EPKcS2_S2_i
 1798      00
 1799 0b58 488B45F8 		movq	-8(%rbp), %rax
 1800 0b5c 48C70000 		movq	$_ZTVN12_GLOBAL__N_141TestStreamingFloatWritesCorrectCharactersE+16, (%rax)
 1800      000000
 1801              	.LBE25:
 1802 0b63 C9       		leave
 1803              		.cfi_def_cfa 7, 8
 1804 0b64 C3       		ret
 1805              		.cfi_endproc
 1806              	.LFE1094:
 1808              		.local	_ZN12_GLOBAL__N_149testStreamingFloatWritesCorrectCharactersInstanceE
 1809              		.comm	_ZN12_GLOBAL__N_149testStreamingFloatWritesCorrectCharactersInstanceE,56,32
 1810              		.local	_ZN12_GLOBAL__N_142adderStreamingFloatWritesCorrectCharactersE
 1811              		.comm	_ZN12_GLOBAL__N_142adderStreamingFloatWritesCorrectCharactersE,1,1
 1812              		.section	.rodata
 1813              	.LC26:
 1814 031e 332E3134 		.string	"3.1415"
 1814      313500
 1815 0325 000000   		.align 8
 1816              	.LC27:
 1817 0328 73747273 		.string	"strstr(stream.GetText(), \"3.1415\")"
 1817      74722873 
 1817      74726561 
 1817      6D2E4765 
 1817      74546578 
 1818 034b 00000000 		.align 8
 1818      00
 1819              	.LC28:
 1820 0350 556E6861 		.string	"Unhandled exception in CHECK(strstr(stream.GetText(), \"3.1415\"))"
 1820      6E646C65 
 1820      64206578 
 1820      63657074 
 1820      696F6E20 
 1821              		.text
 1822 0b65 90       		.align 2
 1824              	_ZNK12_GLOBAL__N_141TestStreamingFloatWritesCorrectCharacters7RunImplEv:
 1825              	.LFB1096:
  61:TestMemoryOutStream.cpp **** {
 1826              		.loc 3 61 0
 1827              		.cfi_startproc
 1828              		.cfi_personality 0x3,__gxx_personality_v0
 1829              		.cfi_lsda 0x3,.LLSDA1096
 1830 0b66 55       		pushq	%rbp
 1831              		.cfi_def_cfa_offset 16
 1832              		.cfi_offset 6, -16
 1833 0b67 4889E5   		movq	%rsp, %rbp
 1834              		.cfi_def_cfa_register 6
 1835 0b6a 53       		pushq	%rbx
 1836 0b6b 4881ECA8 		subq	$424, %rsp
 1836      010000
 1837              		.cfi_offset 3, -24
 1838 0b72 4889BD58 		movq	%rdi, -424(%rbp)
 1838      FEFFFF
 1839              		.loc 3 61 0
 1840 0b79 64488B04 		movq	%fs:40, %rax
 1840      25280000 
 1840      00
 1841 0b82 488945E8 		movq	%rax, -24(%rbp)
 1842 0b86 31C0     		xorl	%eax, %eax
 1843              	.LBB26:
  62:TestMemoryOutStream.cpp ****     MemoryOutStream stream;
 1844              		.loc 3 62 0
 1845 0b88 488D8580 		leaq	-384(%rbp), %rax
 1845      FEFFFF
 1846 0b8f 4889C7   		movq	%rax, %rdi
 1847              	.LEHB55:
 1848 0b92 E8000000 		call	_ZN8UnitTest15MemoryOutStreamC1Ev
 1848      00
 1849              	.LEHE55:
  63:TestMemoryOutStream.cpp ****     stream << 3.1415f;
 1850              		.loc 3 63 0
 1851 0b97 488D8580 		leaq	-384(%rbp), %rax
 1851      FEFFFF
 1852 0b9e F30F1005 		movss	.LC25(%rip), %xmm0
 1852      00000000 
 1853 0ba6 4889C7   		movq	%rax, %rdi
 1854              	.LEHB56:
 1855 0ba9 E8000000 		call	_ZNSolsEf
 1855      00
 1856              	.LEHE56:
  64:TestMemoryOutStream.cpp **** 	CHECK(strstr(stream.GetText(), "3.1415"));
 1857              		.loc 3 64 0
 1858 0bae 488D8580 		leaq	-384(%rbp), %rax
 1858      FEFFFF
 1859 0bb5 4889C7   		movq	%rax, %rdi
 1860              	.LEHB57:
 1861 0bb8 E8000000 		call	_ZNK8UnitTest15MemoryOutStream7GetTextEv
 1861      00
 1862 0bbd BE000000 		movl	$.LC26, %esi
 1862      00
 1863 0bc2 4889C7   		movq	%rax, %rdi
 1864 0bc5 E8000000 		call	strstr
 1864      00
 1865 0bca 4889C7   		movq	%rax, %rdi
 1866 0bcd E8000000 		call	_ZN8UnitTest5CheckIPKcEEbT_
 1866      00
 1867 0bd2 83F001   		xorl	$1, %eax
 1868 0bd5 84C0     		testb	%al, %al
 1869 0bd7 743E     		je	.L93
 1870              		.loc 3 64 0 is_stmt 0 discriminator 2
 1871 0bd9 E8000000 		call	_ZN8UnitTest11CurrentTest7DetailsEv
 1871      00
 1872 0bde 488B08   		movq	(%rax), %rcx
 1873 0be1 488D8560 		leaq	-416(%rbp), %rax
 1873      FEFFFF
 1874 0be8 BA400000 		movl	$64, %edx
 1874      00
 1875 0bed 4889CE   		movq	%rcx, %rsi
 1876 0bf0 4889C7   		movq	%rax, %rdi
 1877 0bf3 E8000000 		call	_ZN8UnitTest11TestDetailsC1ERKS0_i
 1877      00
 1878              		.loc 3 64 0 discriminator 5
 1879 0bf8 E8000000 		call	_ZN8UnitTest11CurrentTest7ResultsEv
 1879      00
 1880 0bfd 488B00   		movq	(%rax), %rax
 1881 0c00 488D8D60 		leaq	-416(%rbp), %rcx
 1881      FEFFFF
 1882 0c07 BA000000 		movl	$.LC27, %edx
 1882      00
 1883 0c0c 4889CE   		movq	%rcx, %rsi
 1884 0c0f 4889C7   		movq	%rax, %rdi
 1885 0c12 E8000000 		call	_ZN8UnitTest11TestResults13OnTestFailureERKNS_11TestDetailsEPKc
 1885      00
 1886              	.LEHE57:
 1887              	.L93:
 1888              		.loc 3 64 0 discriminator 10
 1889 0c17 488D8580 		leaq	-384(%rbp), %rax
 1889      FEFFFF
 1890 0c1e 4889C7   		movq	%rax, %rdi
 1891              	.LEHB58:
 1892 0c21 E8000000 		call	_ZN8UnitTest15MemoryOutStreamD1Ev
 1892      00
 1893              	.LEHE58:
 1894              	.LBE26:
  65:TestMemoryOutStream.cpp **** }
 1895              		.loc 3 65 0 is_stmt 1 discriminator 10
 1896 0c26 488B45E8 		movq	-24(%rbp), %rax
 1897 0c2a 64483304 		xorq	%fs:40, %rax
 1897      25280000 
 1897      00
 1898 0c33 747B     		je	.L97
 1899 0c35 EB74     		jmp	.L101
 1900              	.L100:
 1901 0c37 4889C3   		movq	%rax, %rbx
 1902              	.LBB27:
  64:TestMemoryOutStream.cpp **** 	CHECK(strstr(stream.GetText(), "3.1415"));
 1903              		.loc 3 64 0
 1904 0c3a E8000000 		call	__cxa_end_catch
 1904      00
 1905 0c3f EB50     		jmp	.L95
 1906              	.L99:
 1907 0c41 4889C7   		movq	%rax, %rdi
 1908 0c44 E8000000 		call	__cxa_begin_catch
 1908      00
 1909              	.LEHB59:
 1910 0c49 E8000000 		call	_ZN8UnitTest11CurrentTest7DetailsEv
 1910      00
 1911 0c4e 488B08   		movq	(%rax), %rcx
 1912 0c51 488D8560 		leaq	-416(%rbp), %rax
 1912      FEFFFF
 1913 0c58 BA400000 		movl	$64, %edx
 1913      00
 1914 0c5d 4889CE   		movq	%rcx, %rsi
 1915 0c60 4889C7   		movq	%rax, %rdi
 1916 0c63 E8000000 		call	_ZN8UnitTest11TestDetailsC1ERKS0_i
 1916      00
  64:TestMemoryOutStream.cpp **** 	CHECK(strstr(stream.GetText(), "3.1415"));
 1917              		.loc 3 64 0 is_stmt 0 discriminator 14
 1918 0c68 E8000000 		call	_ZN8UnitTest11CurrentTest7ResultsEv
 1918      00
 1919 0c6d 488B00   		movq	(%rax), %rax
 1920 0c70 488D8D60 		leaq	-416(%rbp), %rcx
 1920      FEFFFF
 1921 0c77 BA000000 		movl	$.LC28, %edx
 1921      00
 1922 0c7c 4889CE   		movq	%rcx, %rsi
 1923 0c7f 4889C7   		movq	%rax, %rdi
 1924 0c82 E8000000 		call	_ZN8UnitTest11TestResults13OnTestFailureERKNS_11TestDetailsEPKc
 1924      00
 1925              	.LEHE59:
 1926              	.LEHB60:
  64:TestMemoryOutStream.cpp **** 	CHECK(strstr(stream.GetText(), "3.1415"));
 1927              		.loc 3 64 0 discriminator 18
 1928 0c87 E8000000 		call	__cxa_end_catch
 1928      00
 1929              	.LEHE60:
  64:TestMemoryOutStream.cpp **** 	CHECK(strstr(stream.GetText(), "3.1415"));
 1930              		.loc 3 64 0
 1931 0c8c EB89     		jmp	.L93
 1932              	.L98:
 1933 0c8e 4889C3   		movq	%rax, %rbx
 1934              	.L95:
  64:TestMemoryOutStream.cpp **** 	CHECK(strstr(stream.GetText(), "3.1415"));
 1935              		.loc 3 64 0 discriminator 19
 1936 0c91 488D8580 		leaq	-384(%rbp), %rax
 1936      FEFFFF
 1937 0c98 4889C7   		movq	%rax, %rdi
 1938 0c9b E8000000 		call	_ZN8UnitTest15MemoryOutStreamD1Ev
 1938      00
 1939 0ca0 4889D8   		movq	%rbx, %rax
 1940 0ca3 4889C7   		movq	%rax, %rdi
 1941              	.LEHB61:
 1942 0ca6 E8000000 		call	_Unwind_Resume
 1942      00
 1943              	.LEHE61:
 1944              	.L101:
 1945              	.LBE27:
 1946              		.loc 3 65 0 is_stmt 1
 1947 0cab E8000000 		call	__stack_chk_fail
 1947      00
 1948              	.L97:
 1949 0cb0 4881C4A8 		addq	$424, %rsp
 1949      010000
 1950 0cb7 5B       		popq	%rbx
 1951 0cb8 5D       		popq	%rbp
 1952              		.cfi_def_cfa 7, 8
 1953 0cb9 C3       		ret
 1954              		.cfi_endproc
 1955              	.LFE1096:
 1956              		.section	.gcc_except_table
 1957              		.align 4
 1958              	.LLSDA1096:
 1959 015c FF       		.byte	0xff
 1960 015d 03       		.byte	0x3
 1961 015e 2D       		.uleb128 .LLSDATT1096-.LLSDATTD1096
 1962              	.LLSDATTD1096:
 1963 015f 01       		.byte	0x1
 1964 0160 24       		.uleb128 .LLSDACSE1096-.LLSDACSB1096
 1965              	.LLSDACSB1096:
 1966 0161 2C       		.uleb128 .LEHB55-.LFB1096
 1967 0162 05       		.uleb128 .LEHE55-.LEHB55
 1968 0163 00       		.uleb128 0
 1969 0164 00       		.uleb128 0
 1970 0165 43       		.uleb128 .LEHB56-.LFB1096
 1971 0166 05       		.uleb128 .LEHE56-.LEHB56
 1972 0167 A802     		.uleb128 .L98-.LFB1096
 1973 0169 00       		.uleb128 0
 1974 016a 52       		.uleb128 .LEHB57-.LFB1096
 1975 016b 5F       		.uleb128 .LEHE57-.LEHB57
 1976 016c DB01     		.uleb128 .L99-.LFB1096
 1977 016e 01       		.uleb128 0x1
 1978 016f BB01     		.uleb128 .LEHB58-.LFB1096
 1979 0171 05       		.uleb128 .LEHE58-.LEHB58
 1980 0172 00       		.uleb128 0
 1981 0173 00       		.uleb128 0
 1982 0174 E301     		.uleb128 .LEHB59-.LFB1096
 1983 0176 3E       		.uleb128 .LEHE59-.LEHB59
 1984 0177 D101     		.uleb128 .L100-.LFB1096
 1985 0179 00       		.uleb128 0
 1986 017a A102     		.uleb128 .LEHB60-.LFB1096
 1987 017c 05       		.uleb128 .LEHE60-.LEHB60
 1988 017d A802     		.uleb128 .L98-.LFB1096
 1989 017f 00       		.uleb128 0
 1990 0180 C002     		.uleb128 .LEHB61-.LFB1096
 1991 0182 05       		.uleb128 .LEHE61-.LEHB61
 1992 0183 00       		.uleb128 0
 1993 0184 00       		.uleb128 0
 1994              	.LLSDACSE1096:
 1995 0185 01       		.byte	0x1
 1996 0186 00       		.byte	0
 1997 0187 00       		.align 4
 1998 0188 00000000 		.long	0
 1999              	
 2000              	.LLSDATT1096:
 2001              		.text
 2003              		.section	.rodata
 2004 0391 00000000 		.align 8
 2004      000000
 2005              	.LC29:
 2006 0398 53747265 		.string	"StreamingDoubleWritesCorrectCharacters"
 2006      616D696E 
 2006      67446F75 
 2006      626C6557 
 2006      72697465 
 2007              		.text
 2008              		.align 2
 2010              	_ZN12_GLOBAL__N_142TestStreamingDoubleWritesCorrectCharactersC2Ev:
 2011              	.LFB1098:
  66:TestMemoryOutStream.cpp **** 
  67:TestMemoryOutStream.cpp **** TEST(StreamingDoubleWritesCorrectCharacters)
 2012              		.loc 3 67 0
 2013              		.cfi_startproc
 2014 0cba 55       		pushq	%rbp
 2015              		.cfi_def_cfa_offset 16
 2016              		.cfi_offset 6, -16
 2017 0cbb 4889E5   		movq	%rsp, %rbp
 2018              		.cfi_def_cfa_register 6
 2019 0cbe 4883EC10 		subq	$16, %rsp
 2020 0cc2 48897DF8 		movq	%rdi, -8(%rbp)
 2021              	.LBB28:
 2022              		.loc 3 67 0
 2023 0cc6 E8000000 		call	_ZN13UnitTestSuite12GetSuiteNameEv
 2023      00
 2024 0ccb 4889C2   		movq	%rax, %rdx
 2025 0cce 488B45F8 		movq	-8(%rbp), %rax
 2026 0cd2 41B84300 		movl	$67, %r8d
 2026      0000
 2027 0cd8 B9000000 		movl	$.LC1, %ecx
 2027      00
 2028 0cdd BE000000 		movl	$.LC29, %esi
 2028      00
 2029 0ce2 4889C7   		movq	%rax, %rdi
 2030 0ce5 E8000000 		call	_ZN8UnitTest4TestC2EPKcS2_S2_i
 2030      00
 2031 0cea 488B45F8 		movq	-8(%rbp), %rax
 2032 0cee 48C70000 		movq	$_ZTVN12_GLOBAL__N_142TestStreamingDoubleWritesCorrectCharactersE+16, (%rax)
 2032      000000
 2033              	.LBE28:
 2034 0cf5 C9       		leave
 2035              		.cfi_def_cfa 7, 8
 2036 0cf6 C3       		ret
 2037              		.cfi_endproc
 2038              	.LFE1098:
 2040              		.local	_ZN12_GLOBAL__N_150testStreamingDoubleWritesCorrectCharactersInstanceE
 2041              		.comm	_ZN12_GLOBAL__N_150testStreamingDoubleWritesCorrectCharactersInstanceE,56,32
 2042              		.local	_ZN12_GLOBAL__N_143adderStreamingDoubleWritesCorrectCharactersE
 2043              		.comm	_ZN12_GLOBAL__N_143adderStreamingDoubleWritesCorrectCharactersE,1,1
 2044 0cf7 90       		.align 2
 2046              	_ZNK12_GLOBAL__N_142TestStreamingDoubleWritesCorrectCharacters7RunImplEv:
 2047              	.LFB1100:
  68:TestMemoryOutStream.cpp **** {
 2048              		.loc 3 68 0
 2049              		.cfi_startproc
 2050              		.cfi_personality 0x3,__gxx_personality_v0
 2051              		.cfi_lsda 0x3,.LLSDA1100
 2052 0cf8 55       		pushq	%rbp
 2053              		.cfi_def_cfa_offset 16
 2054              		.cfi_offset 6, -16
 2055 0cf9 4889E5   		movq	%rsp, %rbp
 2056              		.cfi_def_cfa_register 6
 2057 0cfc 53       		pushq	%rbx
 2058 0cfd 4881ECA8 		subq	$424, %rsp
 2058      010000
 2059              		.cfi_offset 3, -24
 2060 0d04 4889BD58 		movq	%rdi, -424(%rbp)
 2060      FEFFFF
 2061              		.loc 3 68 0
 2062 0d0b 64488B04 		movq	%fs:40, %rax
 2062      25280000 
 2062      00
 2063 0d14 488945E8 		movq	%rax, -24(%rbp)
 2064 0d18 31C0     		xorl	%eax, %eax
 2065              	.LBB29:
  69:TestMemoryOutStream.cpp **** 	MemoryOutStream stream;
 2066              		.loc 3 69 0
 2067 0d1a 488D8580 		leaq	-384(%rbp), %rax
 2067      FEFFFF
 2068 0d21 4889C7   		movq	%rax, %rdi
 2069              	.LEHB62:
 2070 0d24 E8000000 		call	_ZN8UnitTest15MemoryOutStreamC1Ev
 2070      00
 2071              	.LEHE62:
  70:TestMemoryOutStream.cpp **** 	stream << 3.1415;
 2072              		.loc 3 70 0
 2073 0d29 48BA6F12 		movabsq	$4614256447914709615, %rdx
 2073      83C0CA21 
 2073      0940
 2074 0d33 488D8580 		leaq	-384(%rbp), %rax
 2074      FEFFFF
 2075 0d3a 48899550 		movq	%rdx, -432(%rbp)
 2075      FEFFFF
 2076 0d41 F20F1085 		movsd	-432(%rbp), %xmm0
 2076      50FEFFFF 
 2077 0d49 4889C7   		movq	%rax, %rdi
 2078              	.LEHB63:
 2079 0d4c E8000000 		call	_ZNSolsEd
 2079      00
 2080              	.LEHE63:
  71:TestMemoryOutStream.cpp **** 	CHECK(strstr(stream.GetText(), "3.1415"));
 2081              		.loc 3 71 0
 2082 0d51 488D8580 		leaq	-384(%rbp), %rax
 2082      FEFFFF
 2083 0d58 4889C7   		movq	%rax, %rdi
 2084              	.LEHB64:
 2085 0d5b E8000000 		call	_ZNK8UnitTest15MemoryOutStream7GetTextEv
 2085      00
 2086 0d60 BE000000 		movl	$.LC26, %esi
 2086      00
 2087 0d65 4889C7   		movq	%rax, %rdi
 2088 0d68 E8000000 		call	strstr
 2088      00
 2089 0d6d 4889C7   		movq	%rax, %rdi
 2090 0d70 E8000000 		call	_ZN8UnitTest5CheckIPKcEEbT_
 2090      00
 2091 0d75 83F001   		xorl	$1, %eax
 2092 0d78 84C0     		testb	%al, %al
 2093 0d7a 743E     		je	.L104
 2094              		.loc 3 71 0 is_stmt 0 discriminator 2
 2095 0d7c E8000000 		call	_ZN8UnitTest11CurrentTest7DetailsEv
 2095      00
 2096 0d81 488B08   		movq	(%rax), %rcx
 2097 0d84 488D8560 		leaq	-416(%rbp), %rax
 2097      FEFFFF
 2098 0d8b BA470000 		movl	$71, %edx
 2098      00
 2099 0d90 4889CE   		movq	%rcx, %rsi
 2100 0d93 4889C7   		movq	%rax, %rdi
 2101 0d96 E8000000 		call	_ZN8UnitTest11TestDetailsC1ERKS0_i
 2101      00
 2102              		.loc 3 71 0 discriminator 5
 2103 0d9b E8000000 		call	_ZN8UnitTest11CurrentTest7ResultsEv
 2103      00
 2104 0da0 488B00   		movq	(%rax), %rax
 2105 0da3 488D8D60 		leaq	-416(%rbp), %rcx
 2105      FEFFFF
 2106 0daa BA000000 		movl	$.LC27, %edx
 2106      00
 2107 0daf 4889CE   		movq	%rcx, %rsi
 2108 0db2 4889C7   		movq	%rax, %rdi
 2109 0db5 E8000000 		call	_ZN8UnitTest11TestResults13OnTestFailureERKNS_11TestDetailsEPKc
 2109      00
 2110              	.LEHE64:
 2111              	.L104:
 2112              		.loc 3 71 0 discriminator 10
 2113 0dba 488D8580 		leaq	-384(%rbp), %rax
 2113      FEFFFF
 2114 0dc1 4889C7   		movq	%rax, %rdi
 2115              	.LEHB65:
 2116 0dc4 E8000000 		call	_ZN8UnitTest15MemoryOutStreamD1Ev
 2116      00
 2117              	.LEHE65:
 2118              	.LBE29:
  72:TestMemoryOutStream.cpp **** }
 2119              		.loc 3 72 0 is_stmt 1 discriminator 10
 2120 0dc9 488B45E8 		movq	-24(%rbp), %rax
 2121 0dcd 64483304 		xorq	%fs:40, %rax
 2121      25280000 
 2121      00
 2122 0dd6 747B     		je	.L108
 2123 0dd8 EB74     		jmp	.L112
 2124              	.L111:
 2125 0dda 4889C3   		movq	%rax, %rbx
 2126              	.LBB30:
  71:TestMemoryOutStream.cpp **** 	CHECK(strstr(stream.GetText(), "3.1415"));
 2127              		.loc 3 71 0
 2128 0ddd E8000000 		call	__cxa_end_catch
 2128      00
 2129 0de2 EB50     		jmp	.L106
 2130              	.L110:
 2131 0de4 4889C7   		movq	%rax, %rdi
 2132 0de7 E8000000 		call	__cxa_begin_catch
 2132      00
 2133              	.LEHB66:
 2134 0dec E8000000 		call	_ZN8UnitTest11CurrentTest7DetailsEv
 2134      00
 2135 0df1 488B08   		movq	(%rax), %rcx
 2136 0df4 488D8560 		leaq	-416(%rbp), %rax
 2136      FEFFFF
 2137 0dfb BA470000 		movl	$71, %edx
 2137      00
 2138 0e00 4889CE   		movq	%rcx, %rsi
 2139 0e03 4889C7   		movq	%rax, %rdi
 2140 0e06 E8000000 		call	_ZN8UnitTest11TestDetailsC1ERKS0_i
 2140      00
  71:TestMemoryOutStream.cpp **** 	CHECK(strstr(stream.GetText(), "3.1415"));
 2141              		.loc 3 71 0 is_stmt 0 discriminator 14
 2142 0e0b E8000000 		call	_ZN8UnitTest11CurrentTest7ResultsEv
 2142      00
 2143 0e10 488B00   		movq	(%rax), %rax
 2144 0e13 488D8D60 		leaq	-416(%rbp), %rcx
 2144      FEFFFF
 2145 0e1a BA000000 		movl	$.LC28, %edx
 2145      00
 2146 0e1f 4889CE   		movq	%rcx, %rsi
 2147 0e22 4889C7   		movq	%rax, %rdi
 2148 0e25 E8000000 		call	_ZN8UnitTest11TestResults13OnTestFailureERKNS_11TestDetailsEPKc
 2148      00
 2149              	.LEHE66:
 2150              	.LEHB67:
  71:TestMemoryOutStream.cpp **** 	CHECK(strstr(stream.GetText(), "3.1415"));
 2151              		.loc 3 71 0 discriminator 18
 2152 0e2a E8000000 		call	__cxa_end_catch
 2152      00
 2153              	.LEHE67:
  71:TestMemoryOutStream.cpp **** 	CHECK(strstr(stream.GetText(), "3.1415"));
 2154              		.loc 3 71 0
 2155 0e2f EB89     		jmp	.L104
 2156              	.L109:
 2157 0e31 4889C3   		movq	%rax, %rbx
 2158              	.L106:
  71:TestMemoryOutStream.cpp **** 	CHECK(strstr(stream.GetText(), "3.1415"));
 2159              		.loc 3 71 0 discriminator 19
 2160 0e34 488D8580 		leaq	-384(%rbp), %rax
 2160      FEFFFF
 2161 0e3b 4889C7   		movq	%rax, %rdi
 2162 0e3e E8000000 		call	_ZN8UnitTest15MemoryOutStreamD1Ev
 2162      00
 2163 0e43 4889D8   		movq	%rbx, %rax
 2164 0e46 4889C7   		movq	%rax, %rdi
 2165              	.LEHB68:
 2166 0e49 E8000000 		call	_Unwind_Resume
 2166      00
 2167              	.LEHE68:
 2168              	.L112:
 2169              	.LBE30:
 2170              		.loc 3 72 0 is_stmt 1
 2171 0e4e E8000000 		call	__stack_chk_fail
 2171      00
 2172              	.L108:
 2173 0e53 4881C4A8 		addq	$424, %rsp
 2173      010000
 2174 0e5a 5B       		popq	%rbx
 2175 0e5b 5D       		popq	%rbp
 2176              		.cfi_def_cfa 7, 8
 2177 0e5c C3       		ret
 2178              		.cfi_endproc
 2179              	.LFE1100:
 2180              		.section	.gcc_except_table
 2181              		.align 4
 2182              	.LLSDA1100:
 2183 018c FF       		.byte	0xff
 2184 018d 03       		.byte	0x3
 2185 018e 2D       		.uleb128 .LLSDATT1100-.LLSDATTD1100
 2186              	.LLSDATTD1100:
 2187 018f 01       		.byte	0x1
 2188 0190 24       		.uleb128 .LLSDACSE1100-.LLSDACSB1100
 2189              	.LLSDACSB1100:
 2190 0191 2C       		.uleb128 .LEHB62-.LFB1100
 2191 0192 05       		.uleb128 .LEHE62-.LEHB62
 2192 0193 00       		.uleb128 0
 2193 0194 00       		.uleb128 0
 2194 0195 54       		.uleb128 .LEHB63-.LFB1100
 2195 0196 05       		.uleb128 .LEHE63-.LEHB63
 2196 0197 B902     		.uleb128 .L109-.LFB1100
 2197 0199 00       		.uleb128 0
 2198 019a 63       		.uleb128 .LEHB64-.LFB1100
 2199 019b 5F       		.uleb128 .LEHE64-.LEHB64
 2200 019c EC01     		.uleb128 .L110-.LFB1100
 2201 019e 01       		.uleb128 0x1
 2202 019f CC01     		.uleb128 .LEHB65-.LFB1100
 2203 01a1 05       		.uleb128 .LEHE65-.LEHB65
 2204 01a2 00       		.uleb128 0
 2205 01a3 00       		.uleb128 0
 2206 01a4 F401     		.uleb128 .LEHB66-.LFB1100
 2207 01a6 3E       		.uleb128 .LEHE66-.LEHB66
 2208 01a7 E201     		.uleb128 .L111-.LFB1100
 2209 01a9 00       		.uleb128 0
 2210 01aa B202     		.uleb128 .LEHB67-.LFB1100
 2211 01ac 05       		.uleb128 .LEHE67-.LEHB67
 2212 01ad B902     		.uleb128 .L109-.LFB1100
 2213 01af 00       		.uleb128 0
 2214 01b0 D102     		.uleb128 .LEHB68-.LFB1100
 2215 01b2 05       		.uleb128 .LEHE68-.LEHB68
 2216 01b3 00       		.uleb128 0
 2217 01b4 00       		.uleb128 0
 2218              	.LLSDACSE1100:
 2219 01b5 01       		.byte	0x1
 2220 01b6 00       		.byte	0
 2221 01b7 00       		.align 4
 2222 01b8 00000000 		.long	0
 2223              	
 2224              	.LLSDATT1100:
 2225              		.text
 2227              		.section	.rodata
 2228 03bf 00       		.align 8
 2229              	.LC31:
 2230 03c0 53747265 		.string	"StreamingPointerWritesCorrectCharacters"
 2230      616D696E 
 2230      67506F69 
 2230      6E746572 
 2230      57726974 
 2231              		.text
 2232 0e5d 90       		.align 2
 2234              	_ZN12_GLOBAL__N_143TestStreamingPointerWritesCorrectCharactersC2Ev:
 2235              	.LFB1102:
  73:TestMemoryOutStream.cpp **** 
  74:TestMemoryOutStream.cpp **** TEST(StreamingPointerWritesCorrectCharacters)
 2236              		.loc 3 74 0
 2237              		.cfi_startproc
 2238 0e5e 55       		pushq	%rbp
 2239              		.cfi_def_cfa_offset 16
 2240              		.cfi_offset 6, -16
 2241 0e5f 4889E5   		movq	%rsp, %rbp
 2242              		.cfi_def_cfa_register 6
 2243 0e62 4883EC10 		subq	$16, %rsp
 2244 0e66 48897DF8 		movq	%rdi, -8(%rbp)
 2245              	.LBB31:
 2246              		.loc 3 74 0
 2247 0e6a E8000000 		call	_ZN13UnitTestSuite12GetSuiteNameEv
 2247      00
 2248 0e6f 4889C2   		movq	%rax, %rdx
 2249 0e72 488B45F8 		movq	-8(%rbp), %rax
 2250 0e76 41B84A00 		movl	$74, %r8d
 2250      0000
 2251 0e7c B9000000 		movl	$.LC1, %ecx
 2251      00
 2252 0e81 BE000000 		movl	$.LC31, %esi
 2252      00
 2253 0e86 4889C7   		movq	%rax, %rdi
 2254 0e89 E8000000 		call	_ZN8UnitTest4TestC2EPKcS2_S2_i
 2254      00
 2255 0e8e 488B45F8 		movq	-8(%rbp), %rax
 2256 0e92 48C70000 		movq	$_ZTVN12_GLOBAL__N_143TestStreamingPointerWritesCorrectCharactersE+16, (%rax)
 2256      000000
 2257              	.LBE31:
 2258 0e99 C9       		leave
 2259              		.cfi_def_cfa 7, 8
 2260 0e9a C3       		ret
 2261              		.cfi_endproc
 2262              	.LFE1102:
 2264              		.local	_ZN12_GLOBAL__N_151testStreamingPointerWritesCorrectCharactersInstanceE
 2265              		.comm	_ZN12_GLOBAL__N_151testStreamingPointerWritesCorrectCharactersInstanceE,56,32
 2266              		.local	_ZN12_GLOBAL__N_144adderStreamingPointerWritesCorrectCharactersE
 2267              		.comm	_ZN12_GLOBAL__N_144adderStreamingPointerWritesCorrectCharactersE,1,1
 2268              		.section	.rodata
 2269              	.LC32:
 2270 03e8 31323334 		.string	"1234"
 2270      00
 2271 03ed 000000   		.align 8
 2272              	.LC33:
 2273 03f0 73747273 		.string	"strstr(stream.GetText(), \"1234\")"
 2273      74722873 
 2273      74726561 
 2273      6D2E4765 
 2273      74546578 
 2274 0411 00000000 		.align 8
 2274      000000
 2275              	.LC34:
 2276 0418 556E6861 		.string	"Unhandled exception in CHECK(strstr(stream.GetText(), \"1234\"))"
 2276      6E646C65 
 2276      64206578 
 2276      63657074 
 2276      696F6E20 
 2277              		.text
 2278 0e9b 90       		.align 2
 2280              	_ZNK12_GLOBAL__N_143TestStreamingPointerWritesCorrectCharacters7RunImplEv:
 2281              	.LFB1104:
  75:TestMemoryOutStream.cpp **** {
 2282              		.loc 3 75 0
 2283              		.cfi_startproc
 2284              		.cfi_personality 0x3,__gxx_personality_v0
 2285              		.cfi_lsda 0x3,.LLSDA1104
 2286 0e9c 55       		pushq	%rbp
 2287              		.cfi_def_cfa_offset 16
 2288              		.cfi_offset 6, -16
 2289 0e9d 4889E5   		movq	%rsp, %rbp
 2290              		.cfi_def_cfa_register 6
 2291 0ea0 53       		pushq	%rbx
 2292 0ea1 4881ECB8 		subq	$440, %rsp
 2292      010000
 2293              		.cfi_offset 3, -24
 2294 0ea8 4889BD48 		movq	%rdi, -440(%rbp)
 2294      FEFFFF
 2295              		.loc 3 75 0
 2296 0eaf 64488B04 		movq	%fs:40, %rax
 2296      25280000 
 2296      00
 2297 0eb8 488945E8 		movq	%rax, -24(%rbp)
 2298 0ebc 31C0     		xorl	%eax, %eax
 2299              	.LBB32:
  76:TestMemoryOutStream.cpp ****     MemoryOutStream stream;
 2300              		.loc 3 76 0
 2301 0ebe 488D8580 		leaq	-384(%rbp), %rax
 2301      FEFFFF
 2302 0ec5 4889C7   		movq	%rax, %rdi
 2303              	.LEHB69:
 2304 0ec8 E8000000 		call	_ZN8UnitTest15MemoryOutStreamC1Ev
 2304      00
 2305              	.LEHE69:
  77:TestMemoryOutStream.cpp ****     int* p = (int*)0x1234;
 2306              		.loc 3 77 0
 2307 0ecd 48C78558 		movq	$4660, -424(%rbp)
 2307      FEFFFF34 
 2307      120000
  78:TestMemoryOutStream.cpp ****     stream << p;
 2308              		.loc 3 78 0
 2309 0ed8 488B9558 		movq	-424(%rbp), %rdx
 2309      FEFFFF
 2310 0edf 488D8580 		leaq	-384(%rbp), %rax
 2310      FEFFFF
 2311 0ee6 4889D6   		movq	%rdx, %rsi
 2312 0ee9 4889C7   		movq	%rax, %rdi
 2313              	.LEHB70:
 2314 0eec E8000000 		call	_ZNSolsEPKv
 2314      00
 2315              	.LEHE70:
  79:TestMemoryOutStream.cpp ****     CHECK(strstr(stream.GetText(), "1234"));
 2316              		.loc 3 79 0
 2317 0ef1 488D8580 		leaq	-384(%rbp), %rax
 2317      FEFFFF
 2318 0ef8 4889C7   		movq	%rax, %rdi
 2319              	.LEHB71:
 2320 0efb E8000000 		call	_ZNK8UnitTest15MemoryOutStream7GetTextEv
 2320      00
 2321 0f00 BE000000 		movl	$.LC32, %esi
 2321      00
 2322 0f05 4889C7   		movq	%rax, %rdi
 2323 0f08 E8000000 		call	strstr
 2323      00
 2324 0f0d 4889C7   		movq	%rax, %rdi
 2325 0f10 E8000000 		call	_ZN8UnitTest5CheckIPKcEEbT_
 2325      00
 2326 0f15 83F001   		xorl	$1, %eax
 2327 0f18 84C0     		testb	%al, %al
 2328 0f1a 743E     		je	.L115
 2329              		.loc 3 79 0 is_stmt 0 discriminator 2
 2330 0f1c E8000000 		call	_ZN8UnitTest11CurrentTest7DetailsEv
 2330      00
 2331 0f21 488B08   		movq	(%rax), %rcx
 2332 0f24 488D8560 		leaq	-416(%rbp), %rax
 2332      FEFFFF
 2333 0f2b BA4F0000 		movl	$79, %edx
 2333      00
 2334 0f30 4889CE   		movq	%rcx, %rsi
 2335 0f33 4889C7   		movq	%rax, %rdi
 2336 0f36 E8000000 		call	_ZN8UnitTest11TestDetailsC1ERKS0_i
 2336      00
 2337              		.loc 3 79 0 discriminator 5
 2338 0f3b E8000000 		call	_ZN8UnitTest11CurrentTest7ResultsEv
 2338      00
 2339 0f40 488B00   		movq	(%rax), %rax
 2340 0f43 488D8D60 		leaq	-416(%rbp), %rcx
 2340      FEFFFF
 2341 0f4a BA000000 		movl	$.LC33, %edx
 2341      00
 2342 0f4f 4889CE   		movq	%rcx, %rsi
 2343 0f52 4889C7   		movq	%rax, %rdi
 2344 0f55 E8000000 		call	_ZN8UnitTest11TestResults13OnTestFailureERKNS_11TestDetailsEPKc
 2344      00
 2345              	.LEHE71:
 2346              	.L115:
 2347              		.loc 3 79 0 discriminator 10
 2348 0f5a 488D8580 		leaq	-384(%rbp), %rax
 2348      FEFFFF
 2349 0f61 4889C7   		movq	%rax, %rdi
 2350              	.LEHB72:
 2351 0f64 E8000000 		call	_ZN8UnitTest15MemoryOutStreamD1Ev
 2351      00
 2352              	.LEHE72:
 2353              	.LBE32:
  80:TestMemoryOutStream.cpp **** }
 2354              		.loc 3 80 0 is_stmt 1 discriminator 10
 2355 0f69 488B45E8 		movq	-24(%rbp), %rax
 2356 0f6d 64483304 		xorq	%fs:40, %rax
 2356      25280000 
 2356      00
 2357 0f76 747B     		je	.L119
 2358 0f78 EB74     		jmp	.L123
 2359              	.L122:
 2360 0f7a 4889C3   		movq	%rax, %rbx
 2361              	.LBB33:
  79:TestMemoryOutStream.cpp ****     CHECK(strstr(stream.GetText(), "1234"));
 2362              		.loc 3 79 0
 2363 0f7d E8000000 		call	__cxa_end_catch
 2363      00
 2364 0f82 EB50     		jmp	.L117
 2365              	.L121:
 2366 0f84 4889C7   		movq	%rax, %rdi
 2367 0f87 E8000000 		call	__cxa_begin_catch
 2367      00
 2368              	.LEHB73:
 2369 0f8c E8000000 		call	_ZN8UnitTest11CurrentTest7DetailsEv
 2369      00
 2370 0f91 488B08   		movq	(%rax), %rcx
 2371 0f94 488D8560 		leaq	-416(%rbp), %rax
 2371      FEFFFF
 2372 0f9b BA4F0000 		movl	$79, %edx
 2372      00
 2373 0fa0 4889CE   		movq	%rcx, %rsi
 2374 0fa3 4889C7   		movq	%rax, %rdi
 2375 0fa6 E8000000 		call	_ZN8UnitTest11TestDetailsC1ERKS0_i
 2375      00
  79:TestMemoryOutStream.cpp ****     CHECK(strstr(stream.GetText(), "1234"));
 2376              		.loc 3 79 0 is_stmt 0 discriminator 14
 2377 0fab E8000000 		call	_ZN8UnitTest11CurrentTest7ResultsEv
 2377      00
 2378 0fb0 488B00   		movq	(%rax), %rax
 2379 0fb3 488D8D60 		leaq	-416(%rbp), %rcx
 2379      FEFFFF
 2380 0fba BA000000 		movl	$.LC34, %edx
 2380      00
 2381 0fbf 4889CE   		movq	%rcx, %rsi
 2382 0fc2 4889C7   		movq	%rax, %rdi
 2383 0fc5 E8000000 		call	_ZN8UnitTest11TestResults13OnTestFailureERKNS_11TestDetailsEPKc
 2383      00
 2384              	.LEHE73:
 2385              	.LEHB74:
  79:TestMemoryOutStream.cpp ****     CHECK(strstr(stream.GetText(), "1234"));
 2386              		.loc 3 79 0 discriminator 18
 2387 0fca E8000000 		call	__cxa_end_catch
 2387      00
 2388              	.LEHE74:
  79:TestMemoryOutStream.cpp ****     CHECK(strstr(stream.GetText(), "1234"));
 2389              		.loc 3 79 0
 2390 0fcf EB89     		jmp	.L115
 2391              	.L120:
 2392 0fd1 4889C3   		movq	%rax, %rbx
 2393              	.L117:
  79:TestMemoryOutStream.cpp ****     CHECK(strstr(stream.GetText(), "1234"));
 2394              		.loc 3 79 0 discriminator 19
 2395 0fd4 488D8580 		leaq	-384(%rbp), %rax
 2395      FEFFFF
 2396 0fdb 4889C7   		movq	%rax, %rdi
 2397 0fde E8000000 		call	_ZN8UnitTest15MemoryOutStreamD1Ev
 2397      00
 2398 0fe3 4889D8   		movq	%rbx, %rax
 2399 0fe6 4889C7   		movq	%rax, %rdi
 2400              	.LEHB75:
 2401 0fe9 E8000000 		call	_Unwind_Resume
 2401      00
 2402              	.LEHE75:
 2403              	.L123:
 2404              	.LBE33:
 2405              		.loc 3 80 0 is_stmt 1
 2406 0fee E8000000 		call	__stack_chk_fail
 2406      00
 2407              	.L119:
 2408 0ff3 4881C4B8 		addq	$440, %rsp
 2408      010000
 2409 0ffa 5B       		popq	%rbx
 2410 0ffb 5D       		popq	%rbp
 2411              		.cfi_def_cfa 7, 8
 2412 0ffc C3       		ret
 2413              		.cfi_endproc
 2414              	.LFE1104:
 2415              		.section	.gcc_except_table
 2416              		.align 4
 2417              	.LLSDA1104:
 2418 01bc FF       		.byte	0xff
 2419 01bd 03       		.byte	0x3
 2420 01be 2D       		.uleb128 .LLSDATT1104-.LLSDATTD1104
 2421              	.LLSDATTD1104:
 2422 01bf 01       		.byte	0x1
 2423 01c0 24       		.uleb128 .LLSDACSE1104-.LLSDACSB1104
 2424              	.LLSDACSB1104:
 2425 01c1 2C       		.uleb128 .LEHB69-.LFB1104
 2426 01c2 05       		.uleb128 .LEHE69-.LEHB69
 2427 01c3 00       		.uleb128 0
 2428 01c4 00       		.uleb128 0
 2429 01c5 50       		.uleb128 .LEHB70-.LFB1104
 2430 01c6 05       		.uleb128 .LEHE70-.LEHB70
 2431 01c7 B502     		.uleb128 .L120-.LFB1104
 2432 01c9 00       		.uleb128 0
 2433 01ca 5F       		.uleb128 .LEHB71-.LFB1104
 2434 01cb 5F       		.uleb128 .LEHE71-.LEHB71
 2435 01cc E801     		.uleb128 .L121-.LFB1104
 2436 01ce 01       		.uleb128 0x1
 2437 01cf C801     		.uleb128 .LEHB72-.LFB1104
 2438 01d1 05       		.uleb128 .LEHE72-.LEHB72
 2439 01d2 00       		.uleb128 0
 2440 01d3 00       		.uleb128 0
 2441 01d4 F001     		.uleb128 .LEHB73-.LFB1104
 2442 01d6 3E       		.uleb128 .LEHE73-.LEHB73
 2443 01d7 DE01     		.uleb128 .L122-.LFB1104
 2444 01d9 00       		.uleb128 0
 2445 01da AE02     		.uleb128 .LEHB74-.LFB1104
 2446 01dc 05       		.uleb128 .LEHE74-.LEHB74
 2447 01dd B502     		.uleb128 .L120-.LFB1104
 2448 01df 00       		.uleb128 0
 2449 01e0 CD02     		.uleb128 .LEHB75-.LFB1104
 2450 01e2 05       		.uleb128 .LEHE75-.LEHB75
 2451 01e3 00       		.uleb128 0
 2452 01e4 00       		.uleb128 0
 2453              	.LLSDACSE1104:
 2454 01e5 01       		.byte	0x1
 2455 01e6 00       		.byte	0
 2456 01e7 00       		.align 4
 2457 01e8 00000000 		.long	0
 2458              	
 2459              	.LLSDATT1104:
 2460              		.text
 2462              		.section	.rodata
 2463 0457 00       		.align 8
 2464              	.LC35:
 2465 0458 53747265 		.string	"StreamingSizeTWritesCorrectCharacters"
 2465      616D696E 
 2465      6753697A 
 2465      65545772 
 2465      69746573 
 2466              		.text
 2467 0ffd 90       		.align 2
 2469              	_ZN12_GLOBAL__N_141TestStreamingSizeTWritesCorrectCharactersC2Ev:
 2470              	.LFB1106:
  81:TestMemoryOutStream.cpp **** 
  82:TestMemoryOutStream.cpp **** TEST(StreamingSizeTWritesCorrectCharacters)
 2471              		.loc 3 82 0
 2472              		.cfi_startproc
 2473 0ffe 55       		pushq	%rbp
 2474              		.cfi_def_cfa_offset 16
 2475              		.cfi_offset 6, -16
 2476 0fff 4889E5   		movq	%rsp, %rbp
 2477              		.cfi_def_cfa_register 6
 2478 1002 4883EC10 		subq	$16, %rsp
 2479 1006 48897DF8 		movq	%rdi, -8(%rbp)
 2480              	.LBB34:
 2481              		.loc 3 82 0
 2482 100a E8000000 		call	_ZN13UnitTestSuite12GetSuiteNameEv
 2482      00
 2483 100f 4889C2   		movq	%rax, %rdx
 2484 1012 488B45F8 		movq	-8(%rbp), %rax
 2485 1016 41B85200 		movl	$82, %r8d
 2485      0000
 2486 101c B9000000 		movl	$.LC1, %ecx
 2486      00
 2487 1021 BE000000 		movl	$.LC35, %esi
 2487      00
 2488 1026 4889C7   		movq	%rax, %rdi
 2489 1029 E8000000 		call	_ZN8UnitTest4TestC2EPKcS2_S2_i
 2489      00
 2490 102e 488B45F8 		movq	-8(%rbp), %rax
 2491 1032 48C70000 		movq	$_ZTVN12_GLOBAL__N_141TestStreamingSizeTWritesCorrectCharactersE+16, (%rax)
 2491      000000
 2492              	.LBE34:
 2493 1039 C9       		leave
 2494              		.cfi_def_cfa 7, 8
 2495 103a C3       		ret
 2496              		.cfi_endproc
 2497              	.LFE1106:
 2499              		.local	_ZN12_GLOBAL__N_149testStreamingSizeTWritesCorrectCharactersInstanceE
 2500              		.comm	_ZN12_GLOBAL__N_149testStreamingSizeTWritesCorrectCharactersInstanceE,56,32
 2501              		.local	_ZN12_GLOBAL__N_142adderStreamingSizeTWritesCorrectCharactersE
 2502              		.comm	_ZN12_GLOBAL__N_142adderStreamingSizeTWritesCorrectCharactersE,1,1
 2503              		.section	.rodata
 2504              	.LC36:
 2505 047e 35333132 		.string	"53124"
 2505      3400
 2506 0484 00000000 		.align 8
 2507              	.LC37:
 2508 0488 556E6861 		.string	"Unhandled exception in CHECK_EQUAL(\"53124\", stream.GetText())"
 2508      6E646C65 
 2508      64206578 
 2508      63657074 
 2508      696F6E20 
 2509              		.text
 2510 103b 90       		.align 2
 2512              	_ZNK12_GLOBAL__N_141TestStreamingSizeTWritesCorrectCharacters7RunImplEv:
 2513              	.LFB1108:
  83:TestMemoryOutStream.cpp **** {
 2514              		.loc 3 83 0
 2515              		.cfi_startproc
 2516              		.cfi_personality 0x3,__gxx_personality_v0
 2517              		.cfi_lsda 0x3,.LLSDA1108
 2518 103c 55       		pushq	%rbp
 2519              		.cfi_def_cfa_offset 16
 2520              		.cfi_offset 6, -16
 2521 103d 4889E5   		movq	%rsp, %rbp
 2522              		.cfi_def_cfa_register 6
 2523 1040 53       		pushq	%rbx
 2524 1041 4881ECB8 		subq	$440, %rsp
 2524      010000
 2525              		.cfi_offset 3, -24
 2526 1048 4889BD48 		movq	%rdi, -440(%rbp)
 2526      FEFFFF
 2527              		.loc 3 83 0
 2528 104f 64488B04 		movq	%fs:40, %rax
 2528      25280000 
 2528      00
 2529 1058 488945E8 		movq	%rax, -24(%rbp)
 2530 105c 31C0     		xorl	%eax, %eax
 2531              	.LBB35:
  84:TestMemoryOutStream.cpp ****     MemoryOutStream stream;
 2532              		.loc 3 84 0
 2533 105e 488D8580 		leaq	-384(%rbp), %rax
 2533      FEFFFF
 2534 1065 4889C7   		movq	%rax, %rdi
 2535              	.LEHB76:
 2536 1068 E8000000 		call	_ZN8UnitTest15MemoryOutStreamC1Ev
 2536      00
 2537              	.LEHE76:
  85:TestMemoryOutStream.cpp ****     size_t const s = 53124;
 2538              		.loc 3 85 0
 2539 106d 48C78558 		movq	$53124, -424(%rbp)
 2539      FEFFFF84 
 2539      CF0000
  86:TestMemoryOutStream.cpp ****     stream << s;
 2540              		.loc 3 86 0
 2541 1078 488D8580 		leaq	-384(%rbp), %rax
 2541      FEFFFF
 2542 107f BE84CF00 		movl	$53124, %esi
 2542      00
 2543 1084 4889C7   		movq	%rax, %rdi
 2544              	.LEHB77:
 2545 1087 E8000000 		call	_ZNSolsEm
 2545      00
 2546              	.LEHE77:
 2547              	.LEHB78:
  87:TestMemoryOutStream.cpp ****     CHECK_EQUAL("53124", stream.GetText());
 2548              		.loc 3 87 0
 2549 108c E8000000 		call	_ZN8UnitTest11CurrentTest7DetailsEv
 2549      00
 2550 1091 488B08   		movq	(%rax), %rcx
 2551 1094 488D8560 		leaq	-416(%rbp), %rax
 2551      FEFFFF
 2552 109b BA570000 		movl	$87, %edx
 2552      00
 2553 10a0 4889CE   		movq	%rcx, %rsi
 2554 10a3 4889C7   		movq	%rax, %rdi
 2555 10a6 E8000000 		call	_ZN8UnitTest11TestDetailsC1ERKS0_i
 2555      00
 2556              		.loc 3 87 0 is_stmt 0 discriminator 2
 2557 10ab 488D8580 		leaq	-384(%rbp), %rax
 2557      FEFFFF
 2558 10b2 4889C7   		movq	%rax, %rdi
 2559 10b5 E8000000 		call	_ZNK8UnitTest15MemoryOutStream7GetTextEv
 2559      00
 2560 10ba 4889C3   		movq	%rax, %rbx
 2561 10bd E8000000 		call	_ZN8UnitTest11CurrentTest7ResultsEv
 2561      00
 2562              		.loc 3 87 0 discriminator 4
 2563 10c2 488B00   		movq	(%rax), %rax
 2564 10c5 488D9560 		leaq	-416(%rbp), %rdx
 2564      FEFFFF
 2565 10cc 4889D1   		movq	%rdx, %rcx
 2566 10cf 4889DA   		movq	%rbx, %rdx
 2567 10d2 BE000000 		movl	$.LC36, %esi
 2567      00
 2568 10d7 4889C7   		movq	%rax, %rdi
 2569 10da E8000000 		call	_ZN8UnitTest10CheckEqualERNS_11TestResultsEPKcS3_RKNS_11TestDetailsE
 2569      00
 2570              	.LEHE78:
 2571              	.L129:
 2572              		.loc 3 87 0 discriminator 9
 2573 10df 488D8580 		leaq	-384(%rbp), %rax
 2573      FEFFFF
 2574 10e6 4889C7   		movq	%rax, %rdi
 2575              	.LEHB79:
 2576 10e9 E8000000 		call	_ZN8UnitTest15MemoryOutStreamD1Ev
 2576      00
 2577              	.LEHE79:
 2578              	.LBE35:
  88:TestMemoryOutStream.cpp **** }
 2579              		.loc 3 88 0 is_stmt 1 discriminator 9
 2580 10ee 488B45E8 		movq	-24(%rbp), %rax
 2581 10f2 64483304 		xorq	%fs:40, %rax
 2581      25280000 
 2581      00
 2582 10fb 747B     		je	.L130
 2583 10fd EB74     		jmp	.L134
 2584              	.L133:
 2585 10ff 4889C3   		movq	%rax, %rbx
 2586              	.LBB36:
  87:TestMemoryOutStream.cpp ****     CHECK_EQUAL("53124", stream.GetText());
 2587              		.loc 3 87 0
 2588 1102 E8000000 		call	__cxa_end_catch
 2588      00
 2589 1107 EB50     		jmp	.L127
 2590              	.L132:
 2591 1109 4889C7   		movq	%rax, %rdi
 2592 110c E8000000 		call	__cxa_begin_catch
 2592      00
 2593              	.LEHB80:
 2594 1111 E8000000 		call	_ZN8UnitTest11CurrentTest7DetailsEv
 2594      00
 2595 1116 488B08   		movq	(%rax), %rcx
 2596 1119 488D8560 		leaq	-416(%rbp), %rax
 2596      FEFFFF
 2597 1120 BA570000 		movl	$87, %edx
 2597      00
 2598 1125 4889CE   		movq	%rcx, %rsi
 2599 1128 4889C7   		movq	%rax, %rdi
 2600 112b E8000000 		call	_ZN8UnitTest11TestDetailsC1ERKS0_i
 2600      00
  87:TestMemoryOutStream.cpp ****     CHECK_EQUAL("53124", stream.GetText());
 2601              		.loc 3 87 0 is_stmt 0 discriminator 13
 2602 1130 E8000000 		call	_ZN8UnitTest11CurrentTest7ResultsEv
 2602      00
 2603 1135 488B00   		movq	(%rax), %rax
 2604 1138 488D8D60 		leaq	-416(%rbp), %rcx
 2604      FEFFFF
 2605 113f BA000000 		movl	$.LC37, %edx
 2605      00
 2606 1144 4889CE   		movq	%rcx, %rsi
 2607 1147 4889C7   		movq	%rax, %rdi
 2608 114a E8000000 		call	_ZN8UnitTest11TestResults13OnTestFailureERKNS_11TestDetailsEPKc
 2608      00
 2609              	.LEHE80:
 2610              	.LEHB81:
  87:TestMemoryOutStream.cpp ****     CHECK_EQUAL("53124", stream.GetText());
 2611              		.loc 3 87 0 discriminator 17
 2612 114f E8000000 		call	__cxa_end_catch
 2612      00
 2613              	.LEHE81:
  87:TestMemoryOutStream.cpp ****     CHECK_EQUAL("53124", stream.GetText());
 2614              		.loc 3 87 0
 2615 1154 EB89     		jmp	.L129
 2616              	.L131:
 2617 1156 4889C3   		movq	%rax, %rbx
 2618              	.L127:
  87:TestMemoryOutStream.cpp ****     CHECK_EQUAL("53124", stream.GetText());
 2619              		.loc 3 87 0 discriminator 18
 2620 1159 488D8580 		leaq	-384(%rbp), %rax
 2620      FEFFFF
 2621 1160 4889C7   		movq	%rax, %rdi
 2622 1163 E8000000 		call	_ZN8UnitTest15MemoryOutStreamD1Ev
 2622      00
 2623 1168 4889D8   		movq	%rbx, %rax
 2624 116b 4889C7   		movq	%rax, %rdi
 2625              	.LEHB82:
 2626 116e E8000000 		call	_Unwind_Resume
 2626      00
 2627              	.LEHE82:
 2628              	.L134:
 2629              	.LBE36:
 2630              		.loc 3 88 0 is_stmt 1
 2631 1173 E8000000 		call	__stack_chk_fail
 2631      00
 2632              	.L130:
 2633 1178 4881C4B8 		addq	$440, %rsp
 2633      010000
 2634 117f 5B       		popq	%rbx
 2635 1180 5D       		popq	%rbp
 2636              		.cfi_def_cfa 7, 8
 2637 1181 C3       		ret
 2638              		.cfi_endproc
 2639              	.LFE1108:
 2640              		.section	.gcc_except_table
 2641              		.align 4
 2642              	.LLSDA1108:
 2643 01ec FF       		.byte	0xff
 2644 01ed 03       		.byte	0x3
 2645 01ee 2D       		.uleb128 .LLSDATT1108-.LLSDATTD1108
 2646              	.LLSDATTD1108:
 2647 01ef 01       		.byte	0x1
 2648 01f0 24       		.uleb128 .LLSDACSE1108-.LLSDACSB1108
 2649              	.LLSDACSB1108:
 2650 01f1 2C       		.uleb128 .LEHB76-.LFB1108
 2651 01f2 05       		.uleb128 .LEHE76-.LEHB76
 2652 01f3 00       		.uleb128 0
 2653 01f4 00       		.uleb128 0
 2654 01f5 4B       		.uleb128 .LEHB77-.LFB1108
 2655 01f6 05       		.uleb128 .LEHE77-.LEHB77
 2656 01f7 9A02     		.uleb128 .L131-.LFB1108
 2657 01f9 00       		.uleb128 0
 2658 01fa 50       		.uleb128 .LEHB78-.LFB1108
 2659 01fb 53       		.uleb128 .LEHE78-.LEHB78
 2660 01fc CD01     		.uleb128 .L132-.LFB1108
 2661 01fe 01       		.uleb128 0x1
 2662 01ff AD01     		.uleb128 .LEHB79-.LFB1108
 2663 0201 05       		.uleb128 .LEHE79-.LEHB79
 2664 0202 00       		.uleb128 0
 2665 0203 00       		.uleb128 0
 2666 0204 D501     		.uleb128 .LEHB80-.LFB1108
 2667 0206 3E       		.uleb128 .LEHE80-.LEHB80
 2668 0207 C301     		.uleb128 .L133-.LFB1108
 2669 0209 00       		.uleb128 0
 2670 020a 9302     		.uleb128 .LEHB81-.LFB1108
 2671 020c 05       		.uleb128 .LEHE81-.LEHB81
 2672 020d 9A02     		.uleb128 .L131-.LFB1108
 2673 020f 00       		.uleb128 0
 2674 0210 B202     		.uleb128 .LEHB82-.LFB1108
 2675 0212 05       		.uleb128 .LEHE82-.LEHB82
 2676 0213 00       		.uleb128 0
 2677 0214 00       		.uleb128 0
 2678              	.LLSDACSE1108:
 2679 0215 01       		.byte	0x1
 2680 0216 00       		.byte	0
 2681 0217 00       		.align 4
 2682 0218 00000000 		.long	0
 2683              	
 2684              	.LLSDATT1108:
 2685              		.text
 2687              		.section	.text._ZN8UnitTest5CheckIbEEbT_,"axG",@progbits,_ZN8UnitTest5CheckIbEEbT_,comdat
 2688              		.weak	_ZN8UnitTest5CheckIbEEbT_
 2690              	_ZN8UnitTest5CheckIbEEbT_:
 2691              	.LFB1136:
 2692              		.file 4 "../Checks.h"
   1:../Checks.h   **** #ifndef UNITTEST_CHECKS_H
   2:../Checks.h   **** #define UNITTEST_CHECKS_H
   3:../Checks.h   **** 
   4:../Checks.h   **** #include "Config.h"
   5:../Checks.h   **** #include "TestResults.h"
   6:../Checks.h   **** #include "MemoryOutStream.h"
   7:../Checks.h   **** 
   8:../Checks.h   **** namespace UnitTest {
   9:../Checks.h   **** 
  10:../Checks.h   **** 
  11:../Checks.h   **** template< typename Value >
  12:../Checks.h   **** bool Check(Value const value)
 2693              		.loc 4 12 0
 2694              		.cfi_startproc
 2695 0000 55       		pushq	%rbp
 2696              		.cfi_def_cfa_offset 16
 2697              		.cfi_offset 6, -16
 2698 0001 4889E5   		movq	%rsp, %rbp
 2699              		.cfi_def_cfa_register 6
 2700 0004 89F8     		movl	%edi, %eax
 2701 0006 8845FC   		movb	%al, -4(%rbp)
  13:../Checks.h   **** {
  14:../Checks.h   ****     return !!value; // doing double negative to avoid silly VS warnings
 2702              		.loc 4 14 0
 2703 0009 0FB645FC 		movzbl	-4(%rbp), %eax
  15:../Checks.h   **** }
 2704              		.loc 4 15 0
 2705 000d 5D       		popq	%rbp
 2706              		.cfi_def_cfa 7, 8
 2707 000e C3       		ret
 2708              		.cfi_endproc
 2709              	.LFE1136:
 2711              		.section	.text._ZN8UnitTest5CheckIPKcEEbT_,"axG",@progbits,_ZN8UnitTest5CheckIPKcEEbT_,comdat
 2712              		.weak	_ZN8UnitTest5CheckIPKcEEbT_
 2714              	_ZN8UnitTest5CheckIPKcEEbT_:
 2715              	.LFB1142:
  12:../Checks.h   **** {
 2716              		.loc 4 12 0
 2717              		.cfi_startproc
 2718 0000 55       		pushq	%rbp
 2719              		.cfi_def_cfa_offset 16
 2720              		.cfi_offset 6, -16
 2721 0001 4889E5   		movq	%rsp, %rbp
 2722              		.cfi_def_cfa_register 6
 2723 0004 48897DF8 		movq	%rdi, -8(%rbp)
  14:../Checks.h   **** }
 2724              		.loc 4 14 0
 2725 0008 48837DF8 		cmpq	$0, -8(%rbp)
 2725      00
 2726 000d 0F95C0   		setne	%al
 2727              		.loc 4 15 0
 2728 0010 5D       		popq	%rbp
 2729              		.cfi_def_cfa 7, 8
 2730 0011 C3       		ret
 2731              		.cfi_endproc
 2732              	.LFE1142:
 2734              		.section	.rodata
 2735 04c6 00000000 		.align 32
 2735      00000000 
 2735      00000000 
 2735      00000000 
 2735      00000000 
 2738              	_ZTVN12_GLOBAL__N_141TestStreamingSizeTWritesCorrectCharactersE:
 2739 04e0 00000000 		.quad	0
 2739      00000000 
 2740 04e8 00000000 		.quad	_ZTIN12_GLOBAL__N_141TestStreamingSizeTWritesCorrectCharactersE
 2740      00000000 
 2741 04f0 00000000 		.quad	_ZN12_GLOBAL__N_141TestStreamingSizeTWritesCorrectCharactersD1Ev
 2741      00000000 
 2742 04f8 00000000 		.quad	_ZN12_GLOBAL__N_141TestStreamingSizeTWritesCorrectCharactersD0Ev
 2742      00000000 
 2743 0500 00000000 		.quad	_ZNK12_GLOBAL__N_141TestStreamingSizeTWritesCorrectCharacters7RunImplEv
 2743      00000000 
 2744              		.text
 2745              		.align 2
 2747              	_ZN12_GLOBAL__N_141TestStreamingSizeTWritesCorrectCharactersD2Ev:
 2748              	.LFB1193:
  82:TestMemoryOutStream.cpp **** {
 2749              		.loc 3 82 0
 2750              		.cfi_startproc
 2751 1182 55       		pushq	%rbp
 2752              		.cfi_def_cfa_offset 16
 2753              		.cfi_offset 6, -16
 2754 1183 4889E5   		movq	%rsp, %rbp
 2755              		.cfi_def_cfa_register 6
 2756 1186 4883EC10 		subq	$16, %rsp
 2757 118a 48897DF8 		movq	%rdi, -8(%rbp)
 2758              	.LBB37:
  82:TestMemoryOutStream.cpp **** {
 2759              		.loc 3 82 0
 2760 118e 488B45F8 		movq	-8(%rbp), %rax
 2761 1192 48C70000 		movq	$_ZTVN12_GLOBAL__N_141TestStreamingSizeTWritesCorrectCharactersE+16, (%rax)
 2761      000000
 2762 1199 488B45F8 		movq	-8(%rbp), %rax
 2763 119d 4889C7   		movq	%rax, %rdi
 2764 11a0 E8000000 		call	_ZN8UnitTest4TestD2Ev
 2764      00
 2765              	.LBE37:
 2766 11a5 B8000000 		movl	$0, %eax
 2766      00
 2767 11aa 85C0     		testl	%eax, %eax
 2768 11ac 740C     		je	.L139
  82:TestMemoryOutStream.cpp **** {
 2769              		.loc 3 82 0 is_stmt 0 discriminator 4
 2770 11ae 488B45F8 		movq	-8(%rbp), %rax
 2771 11b2 4889C7   		movq	%rax, %rdi
 2772 11b5 E8000000 		call	_ZdlPv
 2772      00
 2773              	.L139:
  82:TestMemoryOutStream.cpp **** {
 2774              		.loc 3 82 0
 2775 11ba C9       		leave
 2776              		.cfi_def_cfa 7, 8
 2777 11bb C3       		ret
 2778              		.cfi_endproc
 2779              	.LFE1193:
 2781              		.set	_ZN12_GLOBAL__N_141TestStreamingSizeTWritesCorrectCharactersD1Ev,_ZN12_GLOBAL__N_141TestStrea
 2782              		.align 2
 2784              	_ZN12_GLOBAL__N_141TestStreamingSizeTWritesCorrectCharactersD0Ev:
 2785              	.LFB1195:
  82:TestMemoryOutStream.cpp **** {
 2786              		.loc 3 82 0 is_stmt 1
 2787              		.cfi_startproc
 2788 11bc 55       		pushq	%rbp
 2789              		.cfi_def_cfa_offset 16
 2790              		.cfi_offset 6, -16
 2791 11bd 4889E5   		movq	%rsp, %rbp
 2792              		.cfi_def_cfa_register 6
 2793 11c0 4883EC10 		subq	$16, %rsp
 2794 11c4 48897DF8 		movq	%rdi, -8(%rbp)
  82:TestMemoryOutStream.cpp **** {
 2795              		.loc 3 82 0
 2796 11c8 488B45F8 		movq	-8(%rbp), %rax
 2797 11cc 4889C7   		movq	%rax, %rdi
 2798 11cf E8AEFFFF 		call	_ZN12_GLOBAL__N_141TestStreamingSizeTWritesCorrectCharactersD2Ev
 2798      FF
 2799 11d4 488B45F8 		movq	-8(%rbp), %rax
 2800 11d8 4889C7   		movq	%rax, %rdi
 2801 11db E8000000 		call	_ZdlPv
 2801      00
 2802 11e0 C9       		leave
 2803              		.cfi_def_cfa 7, 8
 2804 11e1 C3       		ret
 2805              		.cfi_endproc
 2806              	.LFE1195:
 2808              		.section	.rodata
 2809 0508 00000000 		.align 32
 2809      00000000 
 2809      00000000 
 2809      00000000 
 2809      00000000 
 2812              	_ZTVN12_GLOBAL__N_143TestStreamingPointerWritesCorrectCharactersE:
 2813 0520 00000000 		.quad	0
 2813      00000000 
 2814 0528 00000000 		.quad	_ZTIN12_GLOBAL__N_143TestStreamingPointerWritesCorrectCharactersE
 2814      00000000 
 2815 0530 00000000 		.quad	_ZN12_GLOBAL__N_143TestStreamingPointerWritesCorrectCharactersD1Ev
 2815      00000000 
 2816 0538 00000000 		.quad	_ZN12_GLOBAL__N_143TestStreamingPointerWritesCorrectCharactersD0Ev
 2816      00000000 
 2817 0540 00000000 		.quad	_ZNK12_GLOBAL__N_143TestStreamingPointerWritesCorrectCharacters7RunImplEv
 2817      00000000 
 2818              		.text
 2819              		.align 2
 2821              	_ZN12_GLOBAL__N_143TestStreamingPointerWritesCorrectCharactersD2Ev:
 2822              	.LFB1197:
  74:TestMemoryOutStream.cpp **** {
 2823              		.loc 3 74 0
 2824              		.cfi_startproc
 2825 11e2 55       		pushq	%rbp
 2826              		.cfi_def_cfa_offset 16
 2827              		.cfi_offset 6, -16
 2828 11e3 4889E5   		movq	%rsp, %rbp
 2829              		.cfi_def_cfa_register 6
 2830 11e6 4883EC10 		subq	$16, %rsp
 2831 11ea 48897DF8 		movq	%rdi, -8(%rbp)
 2832              	.LBB38:
  74:TestMemoryOutStream.cpp **** {
 2833              		.loc 3 74 0
 2834 11ee 488B45F8 		movq	-8(%rbp), %rax
 2835 11f2 48C70000 		movq	$_ZTVN12_GLOBAL__N_143TestStreamingPointerWritesCorrectCharactersE+16, (%rax)
 2835      000000
 2836 11f9 488B45F8 		movq	-8(%rbp), %rax
 2837 11fd 4889C7   		movq	%rax, %rdi
 2838 1200 E8000000 		call	_ZN8UnitTest4TestD2Ev
 2838      00
 2839              	.LBE38:
 2840 1205 B8000000 		movl	$0, %eax
 2840      00
 2841 120a 85C0     		testl	%eax, %eax
 2842 120c 740C     		je	.L144
  74:TestMemoryOutStream.cpp **** {
 2843              		.loc 3 74 0 is_stmt 0 discriminator 4
 2844 120e 488B45F8 		movq	-8(%rbp), %rax
 2845 1212 4889C7   		movq	%rax, %rdi
 2846 1215 E8000000 		call	_ZdlPv
 2846      00
 2847              	.L144:
  74:TestMemoryOutStream.cpp **** {
 2848              		.loc 3 74 0
 2849 121a C9       		leave
 2850              		.cfi_def_cfa 7, 8
 2851 121b C3       		ret
 2852              		.cfi_endproc
 2853              	.LFE1197:
 2855              		.set	_ZN12_GLOBAL__N_143TestStreamingPointerWritesCorrectCharactersD1Ev,_ZN12_GLOBAL__N_143TestStr
 2856              		.align 2
 2858              	_ZN12_GLOBAL__N_143TestStreamingPointerWritesCorrectCharactersD0Ev:
 2859              	.LFB1199:
  74:TestMemoryOutStream.cpp **** {
 2860              		.loc 3 74 0 is_stmt 1
 2861              		.cfi_startproc
 2862 121c 55       		pushq	%rbp
 2863              		.cfi_def_cfa_offset 16
 2864              		.cfi_offset 6, -16
 2865 121d 4889E5   		movq	%rsp, %rbp
 2866              		.cfi_def_cfa_register 6
 2867 1220 4883EC10 		subq	$16, %rsp
 2868 1224 48897DF8 		movq	%rdi, -8(%rbp)
  74:TestMemoryOutStream.cpp **** {
 2869              		.loc 3 74 0
 2870 1228 488B45F8 		movq	-8(%rbp), %rax
 2871 122c 4889C7   		movq	%rax, %rdi
 2872 122f E8AEFFFF 		call	_ZN12_GLOBAL__N_143TestStreamingPointerWritesCorrectCharactersD2Ev
 2872      FF
 2873 1234 488B45F8 		movq	-8(%rbp), %rax
 2874 1238 4889C7   		movq	%rax, %rdi
 2875 123b E8000000 		call	_ZdlPv
 2875      00
 2876 1240 C9       		leave
 2877              		.cfi_def_cfa 7, 8
 2878 1241 C3       		ret
 2879              		.cfi_endproc
 2880              	.LFE1199:
 2882              		.section	.rodata
 2883 0548 00000000 		.align 32
 2883      00000000 
 2883      00000000 
 2883      00000000 
 2883      00000000 
 2886              	_ZTVN12_GLOBAL__N_142TestStreamingDoubleWritesCorrectCharactersE:
 2887 0560 00000000 		.quad	0
 2887      00000000 
 2888 0568 00000000 		.quad	_ZTIN12_GLOBAL__N_142TestStreamingDoubleWritesCorrectCharactersE
 2888      00000000 
 2889 0570 00000000 		.quad	_ZN12_GLOBAL__N_142TestStreamingDoubleWritesCorrectCharactersD1Ev
 2889      00000000 
 2890 0578 00000000 		.quad	_ZN12_GLOBAL__N_142TestStreamingDoubleWritesCorrectCharactersD0Ev
 2890      00000000 
 2891 0580 00000000 		.quad	_ZNK12_GLOBAL__N_142TestStreamingDoubleWritesCorrectCharacters7RunImplEv
 2891      00000000 
 2892              		.text
 2893              		.align 2
 2895              	_ZN12_GLOBAL__N_142TestStreamingDoubleWritesCorrectCharactersD2Ev:
 2896              	.LFB1201:
  67:TestMemoryOutStream.cpp **** {
 2897              		.loc 3 67 0
 2898              		.cfi_startproc
 2899 1242 55       		pushq	%rbp
 2900              		.cfi_def_cfa_offset 16
 2901              		.cfi_offset 6, -16
 2902 1243 4889E5   		movq	%rsp, %rbp
 2903              		.cfi_def_cfa_register 6
 2904 1246 4883EC10 		subq	$16, %rsp
 2905 124a 48897DF8 		movq	%rdi, -8(%rbp)
 2906              	.LBB39:
  67:TestMemoryOutStream.cpp **** {
 2907              		.loc 3 67 0
 2908 124e 488B45F8 		movq	-8(%rbp), %rax
 2909 1252 48C70000 		movq	$_ZTVN12_GLOBAL__N_142TestStreamingDoubleWritesCorrectCharactersE+16, (%rax)
 2909      000000
 2910 1259 488B45F8 		movq	-8(%rbp), %rax
 2911 125d 4889C7   		movq	%rax, %rdi
 2912 1260 E8000000 		call	_ZN8UnitTest4TestD2Ev
 2912      00
 2913              	.LBE39:
 2914 1265 B8000000 		movl	$0, %eax
 2914      00
 2915 126a 85C0     		testl	%eax, %eax
 2916 126c 740C     		je	.L149
  67:TestMemoryOutStream.cpp **** {
 2917              		.loc 3 67 0 is_stmt 0 discriminator 4
 2918 126e 488B45F8 		movq	-8(%rbp), %rax
 2919 1272 4889C7   		movq	%rax, %rdi
 2920 1275 E8000000 		call	_ZdlPv
 2920      00
 2921              	.L149:
  67:TestMemoryOutStream.cpp **** {
 2922              		.loc 3 67 0
 2923 127a C9       		leave
 2924              		.cfi_def_cfa 7, 8
 2925 127b C3       		ret
 2926              		.cfi_endproc
 2927              	.LFE1201:
 2929              		.set	_ZN12_GLOBAL__N_142TestStreamingDoubleWritesCorrectCharactersD1Ev,_ZN12_GLOBAL__N_142TestStre
 2930              		.align 2
 2932              	_ZN12_GLOBAL__N_142TestStreamingDoubleWritesCorrectCharactersD0Ev:
 2933              	.LFB1203:
  67:TestMemoryOutStream.cpp **** {
 2934              		.loc 3 67 0 is_stmt 1
 2935              		.cfi_startproc
 2936 127c 55       		pushq	%rbp
 2937              		.cfi_def_cfa_offset 16
 2938              		.cfi_offset 6, -16
 2939 127d 4889E5   		movq	%rsp, %rbp
 2940              		.cfi_def_cfa_register 6
 2941 1280 4883EC10 		subq	$16, %rsp
 2942 1284 48897DF8 		movq	%rdi, -8(%rbp)
  67:TestMemoryOutStream.cpp **** {
 2943              		.loc 3 67 0
 2944 1288 488B45F8 		movq	-8(%rbp), %rax
 2945 128c 4889C7   		movq	%rax, %rdi
 2946 128f E8AEFFFF 		call	_ZN12_GLOBAL__N_142TestStreamingDoubleWritesCorrectCharactersD2Ev
 2946      FF
 2947 1294 488B45F8 		movq	-8(%rbp), %rax
 2948 1298 4889C7   		movq	%rax, %rdi
 2949 129b E8000000 		call	_ZdlPv
 2949      00
 2950 12a0 C9       		leave
 2951              		.cfi_def_cfa 7, 8
 2952 12a1 C3       		ret
 2953              		.cfi_endproc
 2954              	.LFE1203:
 2956              		.section	.rodata
 2957 0588 00000000 		.align 32
 2957      00000000 
 2957      00000000 
 2957      00000000 
 2957      00000000 
 2960              	_ZTVN12_GLOBAL__N_141TestStreamingFloatWritesCorrectCharactersE:
 2961 05a0 00000000 		.quad	0
 2961      00000000 
 2962 05a8 00000000 		.quad	_ZTIN12_GLOBAL__N_141TestStreamingFloatWritesCorrectCharactersE
 2962      00000000 
 2963 05b0 00000000 		.quad	_ZN12_GLOBAL__N_141TestStreamingFloatWritesCorrectCharactersD1Ev
 2963      00000000 
 2964 05b8 00000000 		.quad	_ZN12_GLOBAL__N_141TestStreamingFloatWritesCorrectCharactersD0Ev
 2964      00000000 
 2965 05c0 00000000 		.quad	_ZNK12_GLOBAL__N_141TestStreamingFloatWritesCorrectCharacters7RunImplEv
 2965      00000000 
 2966              		.text
 2967              		.align 2
 2969              	_ZN12_GLOBAL__N_141TestStreamingFloatWritesCorrectCharactersD2Ev:
 2970              	.LFB1205:
  60:TestMemoryOutStream.cpp **** {
 2971              		.loc 3 60 0
 2972              		.cfi_startproc
 2973 12a2 55       		pushq	%rbp
 2974              		.cfi_def_cfa_offset 16
 2975              		.cfi_offset 6, -16
 2976 12a3 4889E5   		movq	%rsp, %rbp
 2977              		.cfi_def_cfa_register 6
 2978 12a6 4883EC10 		subq	$16, %rsp
 2979 12aa 48897DF8 		movq	%rdi, -8(%rbp)
 2980              	.LBB40:
  60:TestMemoryOutStream.cpp **** {
 2981              		.loc 3 60 0
 2982 12ae 488B45F8 		movq	-8(%rbp), %rax
 2983 12b2 48C70000 		movq	$_ZTVN12_GLOBAL__N_141TestStreamingFloatWritesCorrectCharactersE+16, (%rax)
 2983      000000
 2984 12b9 488B45F8 		movq	-8(%rbp), %rax
 2985 12bd 4889C7   		movq	%rax, %rdi
 2986 12c0 E8000000 		call	_ZN8UnitTest4TestD2Ev
 2986      00
 2987              	.LBE40:
 2988 12c5 B8000000 		movl	$0, %eax
 2988      00
 2989 12ca 85C0     		testl	%eax, %eax
 2990 12cc 740C     		je	.L154
  60:TestMemoryOutStream.cpp **** {
 2991              		.loc 3 60 0 is_stmt 0 discriminator 4
 2992 12ce 488B45F8 		movq	-8(%rbp), %rax
 2993 12d2 4889C7   		movq	%rax, %rdi
 2994 12d5 E8000000 		call	_ZdlPv
 2994      00
 2995              	.L154:
  60:TestMemoryOutStream.cpp **** {
 2996              		.loc 3 60 0
 2997 12da C9       		leave
 2998              		.cfi_def_cfa 7, 8
 2999 12db C3       		ret
 3000              		.cfi_endproc
 3001              	.LFE1205:
 3003              		.set	_ZN12_GLOBAL__N_141TestStreamingFloatWritesCorrectCharactersD1Ev,_ZN12_GLOBAL__N_141TestStrea
 3004              		.align 2
 3006              	_ZN12_GLOBAL__N_141TestStreamingFloatWritesCorrectCharactersD0Ev:
 3007              	.LFB1207:
  60:TestMemoryOutStream.cpp **** {
 3008              		.loc 3 60 0 is_stmt 1
 3009              		.cfi_startproc
 3010 12dc 55       		pushq	%rbp
 3011              		.cfi_def_cfa_offset 16
 3012              		.cfi_offset 6, -16
 3013 12dd 4889E5   		movq	%rsp, %rbp
 3014              		.cfi_def_cfa_register 6
 3015 12e0 4883EC10 		subq	$16, %rsp
 3016 12e4 48897DF8 		movq	%rdi, -8(%rbp)
  60:TestMemoryOutStream.cpp **** {
 3017              		.loc 3 60 0
 3018 12e8 488B45F8 		movq	-8(%rbp), %rax
 3019 12ec 4889C7   		movq	%rax, %rdi
 3020 12ef E8AEFFFF 		call	_ZN12_GLOBAL__N_141TestStreamingFloatWritesCorrectCharactersD2Ev
 3020      FF
 3021 12f4 488B45F8 		movq	-8(%rbp), %rax
 3022 12f8 4889C7   		movq	%rax, %rdi
 3023 12fb E8000000 		call	_ZdlPv
 3023      00
 3024 1300 C9       		leave
 3025              		.cfi_def_cfa 7, 8
 3026 1301 C3       		ret
 3027              		.cfi_endproc
 3028              	.LFE1207:
 3030              		.section	.rodata
 3031 05c8 00000000 		.align 32
 3031      00000000 
 3031      00000000 
 3031      00000000 
 3031      00000000 
 3034              	_ZTVN12_GLOBAL__N_148TestStreamingUnsignedLongWritesCorrectCharactersE:
 3035 05e0 00000000 		.quad	0
 3035      00000000 
 3036 05e8 00000000 		.quad	_ZTIN12_GLOBAL__N_148TestStreamingUnsignedLongWritesCorrectCharactersE
 3036      00000000 
 3037 05f0 00000000 		.quad	_ZN12_GLOBAL__N_148TestStreamingUnsignedLongWritesCorrectCharactersD1Ev
 3037      00000000 
 3038 05f8 00000000 		.quad	_ZN12_GLOBAL__N_148TestStreamingUnsignedLongWritesCorrectCharactersD0Ev
 3038      00000000 
 3039 0600 00000000 		.quad	_ZNK12_GLOBAL__N_148TestStreamingUnsignedLongWritesCorrectCharacters7RunImplEv
 3039      00000000 
 3040              		.text
 3041              		.align 2
 3043              	_ZN12_GLOBAL__N_148TestStreamingUnsignedLongWritesCorrectCharactersD2Ev:
 3044              	.LFB1209:
  53:TestMemoryOutStream.cpp **** {
 3045              		.loc 3 53 0
 3046              		.cfi_startproc
 3047 1302 55       		pushq	%rbp
 3048              		.cfi_def_cfa_offset 16
 3049              		.cfi_offset 6, -16
 3050 1303 4889E5   		movq	%rsp, %rbp
 3051              		.cfi_def_cfa_register 6
 3052 1306 4883EC10 		subq	$16, %rsp
 3053 130a 48897DF8 		movq	%rdi, -8(%rbp)
 3054              	.LBB41:
  53:TestMemoryOutStream.cpp **** {
 3055              		.loc 3 53 0
 3056 130e 488B45F8 		movq	-8(%rbp), %rax
 3057 1312 48C70000 		movq	$_ZTVN12_GLOBAL__N_148TestStreamingUnsignedLongWritesCorrectCharactersE+16, (%rax)
 3057      000000
 3058 1319 488B45F8 		movq	-8(%rbp), %rax
 3059 131d 4889C7   		movq	%rax, %rdi
 3060 1320 E8000000 		call	_ZN8UnitTest4TestD2Ev
 3060      00
 3061              	.LBE41:
 3062 1325 B8000000 		movl	$0, %eax
 3062      00
 3063 132a 85C0     		testl	%eax, %eax
 3064 132c 740C     		je	.L159
  53:TestMemoryOutStream.cpp **** {
 3065              		.loc 3 53 0 is_stmt 0 discriminator 4
 3066 132e 488B45F8 		movq	-8(%rbp), %rax
 3067 1332 4889C7   		movq	%rax, %rdi
 3068 1335 E8000000 		call	_ZdlPv
 3068      00
 3069              	.L159:
  53:TestMemoryOutStream.cpp **** {
 3070              		.loc 3 53 0
 3071 133a C9       		leave
 3072              		.cfi_def_cfa 7, 8
 3073 133b C3       		ret
 3074              		.cfi_endproc
 3075              	.LFE1209:
 3077              		.set	_ZN12_GLOBAL__N_148TestStreamingUnsignedLongWritesCorrectCharactersD1Ev,_ZN12_GLOBAL__N_148Te
 3078              		.align 2
 3080              	_ZN12_GLOBAL__N_148TestStreamingUnsignedLongWritesCorrectCharactersD0Ev:
 3081              	.LFB1211:
  53:TestMemoryOutStream.cpp **** {
 3082              		.loc 3 53 0 is_stmt 1
 3083              		.cfi_startproc
 3084 133c 55       		pushq	%rbp
 3085              		.cfi_def_cfa_offset 16
 3086              		.cfi_offset 6, -16
 3087 133d 4889E5   		movq	%rsp, %rbp
 3088              		.cfi_def_cfa_register 6
 3089 1340 4883EC10 		subq	$16, %rsp
 3090 1344 48897DF8 		movq	%rdi, -8(%rbp)
  53:TestMemoryOutStream.cpp **** {
 3091              		.loc 3 53 0
 3092 1348 488B45F8 		movq	-8(%rbp), %rax
 3093 134c 4889C7   		movq	%rax, %rdi
 3094 134f E8AEFFFF 		call	_ZN12_GLOBAL__N_148TestStreamingUnsignedLongWritesCorrectCharactersD2Ev
 3094      FF
 3095 1354 488B45F8 		movq	-8(%rbp), %rax
 3096 1358 4889C7   		movq	%rax, %rdi
 3097 135b E8000000 		call	_ZdlPv
 3097      00
 3098 1360 C9       		leave
 3099              		.cfi_def_cfa 7, 8
 3100 1361 C3       		ret
 3101              		.cfi_endproc
 3102              	.LFE1211:
 3104              		.section	.rodata
 3105 0608 00000000 		.align 32
 3105      00000000 
 3105      00000000 
 3105      00000000 
 3105      00000000 
 3108              	_ZTVN12_GLOBAL__N_140TestStreamingLongWritesCorrectCharactersE:
 3109 0620 00000000 		.quad	0
 3109      00000000 
 3110 0628 00000000 		.quad	_ZTIN12_GLOBAL__N_140TestStreamingLongWritesCorrectCharactersE
 3110      00000000 
 3111 0630 00000000 		.quad	_ZN12_GLOBAL__N_140TestStreamingLongWritesCorrectCharactersD1Ev
 3111      00000000 
 3112 0638 00000000 		.quad	_ZN12_GLOBAL__N_140TestStreamingLongWritesCorrectCharactersD0Ev
 3112      00000000 
 3113 0640 00000000 		.quad	_ZNK12_GLOBAL__N_140TestStreamingLongWritesCorrectCharacters7RunImplEv
 3113      00000000 
 3114              		.text
 3115              		.align 2
 3117              	_ZN12_GLOBAL__N_140TestStreamingLongWritesCorrectCharactersD2Ev:
 3118              	.LFB1213:
  46:TestMemoryOutStream.cpp **** {
 3119              		.loc 3 46 0
 3120              		.cfi_startproc
 3121 1362 55       		pushq	%rbp
 3122              		.cfi_def_cfa_offset 16
 3123              		.cfi_offset 6, -16
 3124 1363 4889E5   		movq	%rsp, %rbp
 3125              		.cfi_def_cfa_register 6
 3126 1366 4883EC10 		subq	$16, %rsp
 3127 136a 48897DF8 		movq	%rdi, -8(%rbp)
 3128              	.LBB42:
  46:TestMemoryOutStream.cpp **** {
 3129              		.loc 3 46 0
 3130 136e 488B45F8 		movq	-8(%rbp), %rax
 3131 1372 48C70000 		movq	$_ZTVN12_GLOBAL__N_140TestStreamingLongWritesCorrectCharactersE+16, (%rax)
 3131      000000
 3132 1379 488B45F8 		movq	-8(%rbp), %rax
 3133 137d 4889C7   		movq	%rax, %rdi
 3134 1380 E8000000 		call	_ZN8UnitTest4TestD2Ev
 3134      00
 3135              	.LBE42:
 3136 1385 B8000000 		movl	$0, %eax
 3136      00
 3137 138a 85C0     		testl	%eax, %eax
 3138 138c 740C     		je	.L164
  46:TestMemoryOutStream.cpp **** {
 3139              		.loc 3 46 0 is_stmt 0 discriminator 4
 3140 138e 488B45F8 		movq	-8(%rbp), %rax
 3141 1392 4889C7   		movq	%rax, %rdi
 3142 1395 E8000000 		call	_ZdlPv
 3142      00
 3143              	.L164:
  46:TestMemoryOutStream.cpp **** {
 3144              		.loc 3 46 0
 3145 139a C9       		leave
 3146              		.cfi_def_cfa 7, 8
 3147 139b C3       		ret
 3148              		.cfi_endproc
 3149              	.LFE1213:
 3151              		.set	_ZN12_GLOBAL__N_140TestStreamingLongWritesCorrectCharactersD1Ev,_ZN12_GLOBAL__N_140TestStream
 3152              		.align 2
 3154              	_ZN12_GLOBAL__N_140TestStreamingLongWritesCorrectCharactersD0Ev:
 3155              	.LFB1215:
  46:TestMemoryOutStream.cpp **** {
 3156              		.loc 3 46 0 is_stmt 1
 3157              		.cfi_startproc
 3158 139c 55       		pushq	%rbp
 3159              		.cfi_def_cfa_offset 16
 3160              		.cfi_offset 6, -16
 3161 139d 4889E5   		movq	%rsp, %rbp
 3162              		.cfi_def_cfa_register 6
 3163 13a0 4883EC10 		subq	$16, %rsp
 3164 13a4 48897DF8 		movq	%rdi, -8(%rbp)
  46:TestMemoryOutStream.cpp **** {
 3165              		.loc 3 46 0
 3166 13a8 488B45F8 		movq	-8(%rbp), %rax
 3167 13ac 4889C7   		movq	%rax, %rdi
 3168 13af E8AEFFFF 		call	_ZN12_GLOBAL__N_140TestStreamingLongWritesCorrectCharactersD2Ev
 3168      FF
 3169 13b4 488B45F8 		movq	-8(%rbp), %rax
 3170 13b8 4889C7   		movq	%rax, %rdi
 3171 13bb E8000000 		call	_ZdlPv
 3171      00
 3172 13c0 C9       		leave
 3173              		.cfi_def_cfa 7, 8
 3174 13c1 C3       		ret
 3175              		.cfi_endproc
 3176              	.LFE1215:
 3178              		.section	.rodata
 3179 0648 00000000 		.align 32
 3179      00000000 
 3179      00000000 
 3179      00000000 
 3179      00000000 
 3182              	_ZTVN12_GLOBAL__N_147TestStreamingUnsignedIntWritesCorrectCharactersE:
 3183 0660 00000000 		.quad	0
 3183      00000000 
 3184 0668 00000000 		.quad	_ZTIN12_GLOBAL__N_147TestStreamingUnsignedIntWritesCorrectCharactersE
 3184      00000000 
 3185 0670 00000000 		.quad	_ZN12_GLOBAL__N_147TestStreamingUnsignedIntWritesCorrectCharactersD1Ev
 3185      00000000 
 3186 0678 00000000 		.quad	_ZN12_GLOBAL__N_147TestStreamingUnsignedIntWritesCorrectCharactersD0Ev
 3186      00000000 
 3187 0680 00000000 		.quad	_ZNK12_GLOBAL__N_147TestStreamingUnsignedIntWritesCorrectCharacters7RunImplEv
 3187      00000000 
 3188              		.text
 3189              		.align 2
 3191              	_ZN12_GLOBAL__N_147TestStreamingUnsignedIntWritesCorrectCharactersD2Ev:
 3192              	.LFB1217:
  39:TestMemoryOutStream.cpp **** {
 3193              		.loc 3 39 0
 3194              		.cfi_startproc
 3195 13c2 55       		pushq	%rbp
 3196              		.cfi_def_cfa_offset 16
 3197              		.cfi_offset 6, -16
 3198 13c3 4889E5   		movq	%rsp, %rbp
 3199              		.cfi_def_cfa_register 6
 3200 13c6 4883EC10 		subq	$16, %rsp
 3201 13ca 48897DF8 		movq	%rdi, -8(%rbp)
 3202              	.LBB43:
  39:TestMemoryOutStream.cpp **** {
 3203              		.loc 3 39 0
 3204 13ce 488B45F8 		movq	-8(%rbp), %rax
 3205 13d2 48C70000 		movq	$_ZTVN12_GLOBAL__N_147TestStreamingUnsignedIntWritesCorrectCharactersE+16, (%rax)
 3205      000000
 3206 13d9 488B45F8 		movq	-8(%rbp), %rax
 3207 13dd 4889C7   		movq	%rax, %rdi
 3208 13e0 E8000000 		call	_ZN8UnitTest4TestD2Ev
 3208      00
 3209              	.LBE43:
 3210 13e5 B8000000 		movl	$0, %eax
 3210      00
 3211 13ea 85C0     		testl	%eax, %eax
 3212 13ec 740C     		je	.L169
  39:TestMemoryOutStream.cpp **** {
 3213              		.loc 3 39 0 is_stmt 0 discriminator 4
 3214 13ee 488B45F8 		movq	-8(%rbp), %rax
 3215 13f2 4889C7   		movq	%rax, %rdi
 3216 13f5 E8000000 		call	_ZdlPv
 3216      00
 3217              	.L169:
  39:TestMemoryOutStream.cpp **** {
 3218              		.loc 3 39 0
 3219 13fa C9       		leave
 3220              		.cfi_def_cfa 7, 8
 3221 13fb C3       		ret
 3222              		.cfi_endproc
 3223              	.LFE1217:
 3225              		.set	_ZN12_GLOBAL__N_147TestStreamingUnsignedIntWritesCorrectCharactersD1Ev,_ZN12_GLOBAL__N_147Tes
 3226              		.align 2
 3228              	_ZN12_GLOBAL__N_147TestStreamingUnsignedIntWritesCorrectCharactersD0Ev:
 3229              	.LFB1219:
  39:TestMemoryOutStream.cpp **** {
 3230              		.loc 3 39 0 is_stmt 1
 3231              		.cfi_startproc
 3232 13fc 55       		pushq	%rbp
 3233              		.cfi_def_cfa_offset 16
 3234              		.cfi_offset 6, -16
 3235 13fd 4889E5   		movq	%rsp, %rbp
 3236              		.cfi_def_cfa_register 6
 3237 1400 4883EC10 		subq	$16, %rsp
 3238 1404 48897DF8 		movq	%rdi, -8(%rbp)
  39:TestMemoryOutStream.cpp **** {
 3239              		.loc 3 39 0
 3240 1408 488B45F8 		movq	-8(%rbp), %rax
 3241 140c 4889C7   		movq	%rax, %rdi
 3242 140f E8AEFFFF 		call	_ZN12_GLOBAL__N_147TestStreamingUnsignedIntWritesCorrectCharactersD2Ev
 3242      FF
 3243 1414 488B45F8 		movq	-8(%rbp), %rax
 3244 1418 4889C7   		movq	%rax, %rdi
 3245 141b E8000000 		call	_ZdlPv
 3245      00
 3246 1420 C9       		leave
 3247              		.cfi_def_cfa 7, 8
 3248 1421 C3       		ret
 3249              		.cfi_endproc
 3250              	.LFE1219:
 3252              		.section	.rodata
 3253 0688 00000000 		.align 32
 3253      00000000 
 3253      00000000 
 3253      00000000 
 3253      00000000 
 3256              	_ZTVN12_GLOBAL__N_139TestStreamingIntWritesCorrectCharactersE:
 3257 06a0 00000000 		.quad	0
 3257      00000000 
 3258 06a8 00000000 		.quad	_ZTIN12_GLOBAL__N_139TestStreamingIntWritesCorrectCharactersE
 3258      00000000 
 3259 06b0 00000000 		.quad	_ZN12_GLOBAL__N_139TestStreamingIntWritesCorrectCharactersD1Ev
 3259      00000000 
 3260 06b8 00000000 		.quad	_ZN12_GLOBAL__N_139TestStreamingIntWritesCorrectCharactersD0Ev
 3260      00000000 
 3261 06c0 00000000 		.quad	_ZNK12_GLOBAL__N_139TestStreamingIntWritesCorrectCharacters7RunImplEv
 3261      00000000 
 3262              		.text
 3263              		.align 2
 3265              	_ZN12_GLOBAL__N_139TestStreamingIntWritesCorrectCharactersD2Ev:
 3266              	.LFB1221:
  32:TestMemoryOutStream.cpp **** {
 3267              		.loc 3 32 0
 3268              		.cfi_startproc
 3269 1422 55       		pushq	%rbp
 3270              		.cfi_def_cfa_offset 16
 3271              		.cfi_offset 6, -16
 3272 1423 4889E5   		movq	%rsp, %rbp
 3273              		.cfi_def_cfa_register 6
 3274 1426 4883EC10 		subq	$16, %rsp
 3275 142a 48897DF8 		movq	%rdi, -8(%rbp)
 3276              	.LBB44:
  32:TestMemoryOutStream.cpp **** {
 3277              		.loc 3 32 0
 3278 142e 488B45F8 		movq	-8(%rbp), %rax
 3279 1432 48C70000 		movq	$_ZTVN12_GLOBAL__N_139TestStreamingIntWritesCorrectCharactersE+16, (%rax)
 3279      000000
 3280 1439 488B45F8 		movq	-8(%rbp), %rax
 3281 143d 4889C7   		movq	%rax, %rdi
 3282 1440 E8000000 		call	_ZN8UnitTest4TestD2Ev
 3282      00
 3283              	.LBE44:
 3284 1445 B8000000 		movl	$0, %eax
 3284      00
 3285 144a 85C0     		testl	%eax, %eax
 3286 144c 740C     		je	.L174
  32:TestMemoryOutStream.cpp **** {
 3287              		.loc 3 32 0 is_stmt 0 discriminator 4
 3288 144e 488B45F8 		movq	-8(%rbp), %rax
 3289 1452 4889C7   		movq	%rax, %rdi
 3290 1455 E8000000 		call	_ZdlPv
 3290      00
 3291              	.L174:
  32:TestMemoryOutStream.cpp **** {
 3292              		.loc 3 32 0
 3293 145a C9       		leave
 3294              		.cfi_def_cfa 7, 8
 3295 145b C3       		ret
 3296              		.cfi_endproc
 3297              	.LFE1221:
 3299              		.set	_ZN12_GLOBAL__N_139TestStreamingIntWritesCorrectCharactersD1Ev,_ZN12_GLOBAL__N_139TestStreami
 3300              		.align 2
 3302              	_ZN12_GLOBAL__N_139TestStreamingIntWritesCorrectCharactersD0Ev:
 3303              	.LFB1223:
  32:TestMemoryOutStream.cpp **** {
 3304              		.loc 3 32 0 is_stmt 1
 3305              		.cfi_startproc
 3306 145c 55       		pushq	%rbp
 3307              		.cfi_def_cfa_offset 16
 3308              		.cfi_offset 6, -16
 3309 145d 4889E5   		movq	%rsp, %rbp
 3310              		.cfi_def_cfa_register 6
 3311 1460 4883EC10 		subq	$16, %rsp
 3312 1464 48897DF8 		movq	%rdi, -8(%rbp)
  32:TestMemoryOutStream.cpp **** {
 3313              		.loc 3 32 0
 3314 1468 488B45F8 		movq	-8(%rbp), %rax
 3315 146c 4889C7   		movq	%rax, %rdi
 3316 146f E8AEFFFF 		call	_ZN12_GLOBAL__N_139TestStreamingIntWritesCorrectCharactersD2Ev
 3316      FF
 3317 1474 488B45F8 		movq	-8(%rbp), %rax
 3318 1478 4889C7   		movq	%rax, %rdi
 3319 147b E8000000 		call	_ZdlPv
 3319      00
 3320 1480 C9       		leave
 3321              		.cfi_def_cfa 7, 8
 3322 1481 C3       		ret
 3323              		.cfi_endproc
 3324              	.LFE1223:
 3326              		.section	.rodata
 3327 06c8 00000000 		.align 32
 3327      00000000 
 3327      00000000 
 3327      00000000 
 3327      00000000 
 3330              	_ZTVN12_GLOBAL__N_144TestStreamingMultipleTimesConcatenatesResultE:
 3331 06e0 00000000 		.quad	0
 3331      00000000 
 3332 06e8 00000000 		.quad	_ZTIN12_GLOBAL__N_144TestStreamingMultipleTimesConcatenatesResultE
 3332      00000000 
 3333 06f0 00000000 		.quad	_ZN12_GLOBAL__N_144TestStreamingMultipleTimesConcatenatesResultD1Ev
 3333      00000000 
 3334 06f8 00000000 		.quad	_ZN12_GLOBAL__N_144TestStreamingMultipleTimesConcatenatesResultD0Ev
 3334      00000000 
 3335 0700 00000000 		.quad	_ZNK12_GLOBAL__N_144TestStreamingMultipleTimesConcatenatesResult7RunImplEv
 3335      00000000 
 3336              		.text
 3337              		.align 2
 3339              	_ZN12_GLOBAL__N_144TestStreamingMultipleTimesConcatenatesResultD2Ev:
 3340              	.LFB1225:
  25:TestMemoryOutStream.cpp **** {
 3341              		.loc 3 25 0
 3342              		.cfi_startproc
 3343 1482 55       		pushq	%rbp
 3344              		.cfi_def_cfa_offset 16
 3345              		.cfi_offset 6, -16
 3346 1483 4889E5   		movq	%rsp, %rbp
 3347              		.cfi_def_cfa_register 6
 3348 1486 4883EC10 		subq	$16, %rsp
 3349 148a 48897DF8 		movq	%rdi, -8(%rbp)
 3350              	.LBB45:
  25:TestMemoryOutStream.cpp **** {
 3351              		.loc 3 25 0
 3352 148e 488B45F8 		movq	-8(%rbp), %rax
 3353 1492 48C70000 		movq	$_ZTVN12_GLOBAL__N_144TestStreamingMultipleTimesConcatenatesResultE+16, (%rax)
 3353      000000
 3354 1499 488B45F8 		movq	-8(%rbp), %rax
 3355 149d 4889C7   		movq	%rax, %rdi
 3356 14a0 E8000000 		call	_ZN8UnitTest4TestD2Ev
 3356      00
 3357              	.LBE45:
 3358 14a5 B8000000 		movl	$0, %eax
 3358      00
 3359 14aa 85C0     		testl	%eax, %eax
 3360 14ac 740C     		je	.L179
  25:TestMemoryOutStream.cpp **** {
 3361              		.loc 3 25 0 is_stmt 0 discriminator 4
 3362 14ae 488B45F8 		movq	-8(%rbp), %rax
 3363 14b2 4889C7   		movq	%rax, %rdi
 3364 14b5 E8000000 		call	_ZdlPv
 3364      00
 3365              	.L179:
  25:TestMemoryOutStream.cpp **** {
 3366              		.loc 3 25 0
 3367 14ba C9       		leave
 3368              		.cfi_def_cfa 7, 8
 3369 14bb C3       		ret
 3370              		.cfi_endproc
 3371              	.LFE1225:
 3373              		.set	_ZN12_GLOBAL__N_144TestStreamingMultipleTimesConcatenatesResultD1Ev,_ZN12_GLOBAL__N_144TestSt
 3374              		.align 2
 3376              	_ZN12_GLOBAL__N_144TestStreamingMultipleTimesConcatenatesResultD0Ev:
 3377              	.LFB1227:
  25:TestMemoryOutStream.cpp **** {
 3378              		.loc 3 25 0 is_stmt 1
 3379              		.cfi_startproc
 3380 14bc 55       		pushq	%rbp
 3381              		.cfi_def_cfa_offset 16
 3382              		.cfi_offset 6, -16
 3383 14bd 4889E5   		movq	%rsp, %rbp
 3384              		.cfi_def_cfa_register 6
 3385 14c0 4883EC10 		subq	$16, %rsp
 3386 14c4 48897DF8 		movq	%rdi, -8(%rbp)
  25:TestMemoryOutStream.cpp **** {
 3387              		.loc 3 25 0
 3388 14c8 488B45F8 		movq	-8(%rbp), %rax
 3389 14cc 4889C7   		movq	%rax, %rdi
 3390 14cf E8AEFFFF 		call	_ZN12_GLOBAL__N_144TestStreamingMultipleTimesConcatenatesResultD2Ev
 3390      FF
 3391 14d4 488B45F8 		movq	-8(%rbp), %rax
 3392 14d8 4889C7   		movq	%rax, %rdi
 3393 14db E8000000 		call	_ZdlPv
 3393      00
 3394 14e0 C9       		leave
 3395              		.cfi_def_cfa 7, 8
 3396 14e1 C3       		ret
 3397              		.cfi_endproc
 3398              	.LFE1227:
 3400              		.section	.rodata
 3401 0708 00000000 		.align 32
 3401      00000000 
 3401      00000000 
 3401      00000000 
 3401      00000000 
 3404              	_ZTVN12_GLOBAL__N_133TestStreamingTextCopiesCharactersE:
 3405 0720 00000000 		.quad	0
 3405      00000000 
 3406 0728 00000000 		.quad	_ZTIN12_GLOBAL__N_133TestStreamingTextCopiesCharactersE
 3406      00000000 
 3407 0730 00000000 		.quad	_ZN12_GLOBAL__N_133TestStreamingTextCopiesCharactersD1Ev
 3407      00000000 
 3408 0738 00000000 		.quad	_ZN12_GLOBAL__N_133TestStreamingTextCopiesCharactersD0Ev
 3408      00000000 
 3409 0740 00000000 		.quad	_ZNK12_GLOBAL__N_133TestStreamingTextCopiesCharacters7RunImplEv
 3409      00000000 
 3410              		.text
 3411              		.align 2
 3413              	_ZN12_GLOBAL__N_133TestStreamingTextCopiesCharactersD2Ev:
 3414              	.LFB1229:
  18:TestMemoryOutStream.cpp **** {
 3415              		.loc 3 18 0
 3416              		.cfi_startproc
 3417 14e2 55       		pushq	%rbp
 3418              		.cfi_def_cfa_offset 16
 3419              		.cfi_offset 6, -16
 3420 14e3 4889E5   		movq	%rsp, %rbp
 3421              		.cfi_def_cfa_register 6
 3422 14e6 4883EC10 		subq	$16, %rsp
 3423 14ea 48897DF8 		movq	%rdi, -8(%rbp)
 3424              	.LBB46:
  18:TestMemoryOutStream.cpp **** {
 3425              		.loc 3 18 0
 3426 14ee 488B45F8 		movq	-8(%rbp), %rax
 3427 14f2 48C70000 		movq	$_ZTVN12_GLOBAL__N_133TestStreamingTextCopiesCharactersE+16, (%rax)
 3427      000000
 3428 14f9 488B45F8 		movq	-8(%rbp), %rax
 3429 14fd 4889C7   		movq	%rax, %rdi
 3430 1500 E8000000 		call	_ZN8UnitTest4TestD2Ev
 3430      00
 3431              	.LBE46:
 3432 1505 B8000000 		movl	$0, %eax
 3432      00
 3433 150a 85C0     		testl	%eax, %eax
 3434 150c 740C     		je	.L184
  18:TestMemoryOutStream.cpp **** {
 3435              		.loc 3 18 0 is_stmt 0 discriminator 4
 3436 150e 488B45F8 		movq	-8(%rbp), %rax
 3437 1512 4889C7   		movq	%rax, %rdi
 3438 1515 E8000000 		call	_ZdlPv
 3438      00
 3439              	.L184:
  18:TestMemoryOutStream.cpp **** {
 3440              		.loc 3 18 0
 3441 151a C9       		leave
 3442              		.cfi_def_cfa 7, 8
 3443 151b C3       		ret
 3444              		.cfi_endproc
 3445              	.LFE1229:
 3447              		.set	_ZN12_GLOBAL__N_133TestStreamingTextCopiesCharactersD1Ev,_ZN12_GLOBAL__N_133TestStreamingText
 3448              		.align 2
 3450              	_ZN12_GLOBAL__N_133TestStreamingTextCopiesCharactersD0Ev:
 3451              	.LFB1231:
  18:TestMemoryOutStream.cpp **** {
 3452              		.loc 3 18 0 is_stmt 1
 3453              		.cfi_startproc
 3454 151c 55       		pushq	%rbp
 3455              		.cfi_def_cfa_offset 16
 3456              		.cfi_offset 6, -16
 3457 151d 4889E5   		movq	%rsp, %rbp
 3458              		.cfi_def_cfa_register 6
 3459 1520 4883EC10 		subq	$16, %rsp
 3460 1524 48897DF8 		movq	%rdi, -8(%rbp)
  18:TestMemoryOutStream.cpp **** {
 3461              		.loc 3 18 0
 3462 1528 488B45F8 		movq	-8(%rbp), %rax
 3463 152c 4889C7   		movq	%rax, %rdi
 3464 152f E8AEFFFF 		call	_ZN12_GLOBAL__N_133TestStreamingTextCopiesCharactersD2Ev
 3464      FF
 3465 1534 488B45F8 		movq	-8(%rbp), %rax
 3466 1538 4889C7   		movq	%rax, %rdi
 3467 153b E8000000 		call	_ZdlPv
 3467      00
 3468 1540 C9       		leave
 3469              		.cfi_def_cfa 7, 8
 3470 1541 C3       		ret
 3471              		.cfi_endproc
 3472              	.LFE1231:
 3474              		.section	.rodata
 3475 0748 00000000 		.align 32
 3475      00000000 
 3475      00000000 
 3475      00000000 
 3475      00000000 
 3478              	_ZTVN12_GLOBAL__N_124TestDefaultIsEmptyStringE:
 3479 0760 00000000 		.quad	0
 3479      00000000 
 3480 0768 00000000 		.quad	_ZTIN12_GLOBAL__N_124TestDefaultIsEmptyStringE
 3480      00000000 
 3481 0770 00000000 		.quad	_ZN12_GLOBAL__N_124TestDefaultIsEmptyStringD1Ev
 3481      00000000 
 3482 0778 00000000 		.quad	_ZN12_GLOBAL__N_124TestDefaultIsEmptyStringD0Ev
 3482      00000000 
 3483 0780 00000000 		.quad	_ZNK12_GLOBAL__N_124TestDefaultIsEmptyString7RunImplEv
 3483      00000000 
 3484              		.text
 3485              		.align 2
 3487              	_ZN12_GLOBAL__N_124TestDefaultIsEmptyStringD2Ev:
 3488              	.LFB1233:
  11:TestMemoryOutStream.cpp **** {
 3489              		.loc 3 11 0
 3490              		.cfi_startproc
 3491 1542 55       		pushq	%rbp
 3492              		.cfi_def_cfa_offset 16
 3493              		.cfi_offset 6, -16
 3494 1543 4889E5   		movq	%rsp, %rbp
 3495              		.cfi_def_cfa_register 6
 3496 1546 4883EC10 		subq	$16, %rsp
 3497 154a 48897DF8 		movq	%rdi, -8(%rbp)
 3498              	.LBB47:
  11:TestMemoryOutStream.cpp **** {
 3499              		.loc 3 11 0
 3500 154e 488B45F8 		movq	-8(%rbp), %rax
 3501 1552 48C70000 		movq	$_ZTVN12_GLOBAL__N_124TestDefaultIsEmptyStringE+16, (%rax)
 3501      000000
 3502 1559 488B45F8 		movq	-8(%rbp), %rax
 3503 155d 4889C7   		movq	%rax, %rdi
 3504 1560 E8000000 		call	_ZN8UnitTest4TestD2Ev
 3504      00
 3505              	.LBE47:
 3506 1565 B8000000 		movl	$0, %eax
 3506      00
 3507 156a 85C0     		testl	%eax, %eax
 3508 156c 740C     		je	.L189
  11:TestMemoryOutStream.cpp **** {
 3509              		.loc 3 11 0 is_stmt 0 discriminator 4
 3510 156e 488B45F8 		movq	-8(%rbp), %rax
 3511 1572 4889C7   		movq	%rax, %rdi
 3512 1575 E8000000 		call	_ZdlPv
 3512      00
 3513              	.L189:
  11:TestMemoryOutStream.cpp **** {
 3514              		.loc 3 11 0
 3515 157a C9       		leave
 3516              		.cfi_def_cfa 7, 8
 3517 157b C3       		ret
 3518              		.cfi_endproc
 3519              	.LFE1233:
 3521              		.set	_ZN12_GLOBAL__N_124TestDefaultIsEmptyStringD1Ev,_ZN12_GLOBAL__N_124TestDefaultIsEmptyStringD2
 3522              		.align 2
 3524              	_ZN12_GLOBAL__N_124TestDefaultIsEmptyStringD0Ev:
 3525              	.LFB1235:
  11:TestMemoryOutStream.cpp **** {
 3526              		.loc 3 11 0 is_stmt 1
 3527              		.cfi_startproc
 3528 157c 55       		pushq	%rbp
 3529              		.cfi_def_cfa_offset 16
 3530              		.cfi_offset 6, -16
 3531 157d 4889E5   		movq	%rsp, %rbp
 3532              		.cfi_def_cfa_register 6
 3533 1580 4883EC10 		subq	$16, %rsp
 3534 1584 48897DF8 		movq	%rdi, -8(%rbp)
  11:TestMemoryOutStream.cpp **** {
 3535              		.loc 3 11 0
 3536 1588 488B45F8 		movq	-8(%rbp), %rax
 3537 158c 4889C7   		movq	%rax, %rdi
 3538 158f E8AEFFFF 		call	_ZN12_GLOBAL__N_124TestDefaultIsEmptyStringD2Ev
 3538      FF
 3539 1594 488B45F8 		movq	-8(%rbp), %rax
 3540 1598 4889C7   		movq	%rax, %rdi
 3541 159b E8000000 		call	_ZdlPv
 3541      00
 3542 15a0 C9       		leave
 3543              		.cfi_def_cfa 7, 8
 3544 15a1 C3       		ret
 3545              		.cfi_endproc
 3546              	.LFE1235:
 3548              		.weak	_ZTVN8UnitTest15MemoryOutStreamE
 3549              		.section	.rodata._ZTVN8UnitTest15MemoryOutStreamE,"aG",@progbits,_ZTVN8UnitTest15MemoryOutStreamE,
 3550              		.align 64
 3553              	_ZTVN8UnitTest15MemoryOutStreamE:
 3554 0000 60000000 		.quad	96
 3554      00000000 
 3555 0008 00000000 		.quad	0
 3555      00000000 
 3556 0010 00000000 		.quad	_ZTIN8UnitTest15MemoryOutStreamE
 3556      00000000 
 3557 0018 00000000 		.quad	_ZN8UnitTest15MemoryOutStreamD1Ev
 3557      00000000 
 3558 0020 00000000 		.quad	_ZN8UnitTest15MemoryOutStreamD0Ev
 3558      00000000 
 3559 0028 A0FFFFFF 		.quad	-96
 3559      FFFFFFFF 
 3560 0030 A0FFFFFF 		.quad	-96
 3560      FFFFFFFF 
 3561 0038 00000000 		.quad	_ZTIN8UnitTest15MemoryOutStreamE
 3561      00000000 
 3562 0040 00000000 		.quad	_ZTv0_n24_N8UnitTest15MemoryOutStreamD1Ev
 3562      00000000 
 3563 0048 00000000 		.quad	_ZTv0_n24_N8UnitTest15MemoryOutStreamD0Ev
 3563      00000000 
 3564              		.section	.text._ZN8UnitTest15MemoryOutStreamD1Ev,"axG",@progbits,_ZN8UnitTest15MemoryOutStreamD1Ev
 3565              		.align 2
 3566              		.weak	_ZN8UnitTest15MemoryOutStreamD1Ev
 3568              	_ZN8UnitTest15MemoryOutStreamD1Ev:
 3569              	.LFB1238:
  13:../MemoryOutStream.h **** {
 3570              		.loc 2 13 0
 3571              		.cfi_startproc
 3572              		.cfi_personality 0x3,__gxx_personality_v0
 3573              		.cfi_lsda 0x3,.LLSDA1238
 3574 0000 55       		pushq	%rbp
 3575              		.cfi_def_cfa_offset 16
 3576              		.cfi_offset 6, -16
 3577 0001 4889E5   		movq	%rsp, %rbp
 3578              		.cfi_def_cfa_register 6
 3579 0004 53       		pushq	%rbx
 3580 0005 4883EC18 		subq	$24, %rsp
 3581              		.cfi_offset 3, -24
 3582 0009 48897DE8 		movq	%rdi, -24(%rbp)
 3583              	.LBB48:
  13:../MemoryOutStream.h **** {
 3584              		.loc 2 13 0
 3585 000d BA000000 		movl	$_ZTVN8UnitTest15MemoryOutStreamE+24, %edx
 3585      00
 3586 0012 488B45E8 		movq	-24(%rbp), %rax
 3587 0016 488910   		movq	%rdx, (%rax)
 3588 0019 BA600000 		movl	$96, %edx
 3588      00
 3589 001e 488B45E8 		movq	-24(%rbp), %rax
 3590 0022 4801D0   		addq	%rdx, %rax
 3591 0025 BA000000 		movl	$_ZTVN8UnitTest15MemoryOutStreamE+64, %edx
 3591      00
 3592 002a 488910   		movq	%rdx, (%rax)
 3593 002d 488B45E8 		movq	-24(%rbp), %rax
 3594 0031 4883C058 		addq	$88, %rax
 3595 0035 4889C7   		movq	%rax, %rdi
 3596              	.LEHB83:
 3597 0038 E8000000 		call	_ZNSsD1Ev
 3597      00
 3598              	.LEHE83:
  13:../MemoryOutStream.h **** {
 3599              		.loc 2 13 0 is_stmt 0 discriminator 14
 3600 003d BA000000 		movl	$_ZTTN8UnitTest15MemoryOutStreamE+8, %edx
 3600      00
 3601 0042 488B45E8 		movq	-24(%rbp), %rax
 3602 0046 4889D6   		movq	%rdx, %rsi
 3603 0049 4889C7   		movq	%rax, %rdi
 3604              	.LEHB84:
 3605 004c E8000000 		call	_ZNSt19basic_ostringstreamIcSt11char_traitsIcESaIcEED2Ev
 3605      00
 3606              	.LEHE84:
  13:../MemoryOutStream.h **** {
 3607              		.loc 2 13 0 discriminator 20
 3608 0051 B8020000 		movl	$2, %eax
 3608      00
 3609 0056 85C0     		testl	%eax, %eax
 3610 0058 7410     		je	.L196
  13:../MemoryOutStream.h **** {
 3611              		.loc 2 13 0 discriminator 21
 3612 005a 488B45E8 		movq	-24(%rbp), %rax
 3613 005e 4883C060 		addq	$96, %rax
 3614 0062 4889C7   		movq	%rax, %rdi
 3615              	.LEHB85:
 3616 0065 E8000000 		call	_ZNSt9basic_iosIcSt11char_traitsIcEED2Ev
 3616      00
 3617              	.LEHE85:
 3618              	.L196:
 3619              	.LBE48:
  13:../MemoryOutStream.h **** {
 3620              		.loc 2 13 0 discriminator 24
 3621 006a B8000000 		movl	$0, %eax
 3621      00
 3622 006f 85C0     		testl	%eax, %eax
 3623 0071 744E     		je	.L203
  13:../MemoryOutStream.h **** {
 3624              		.loc 2 13 0 discriminator 25
 3625 0073 488B45E8 		movq	-24(%rbp), %rax
 3626 0077 4889C7   		movq	%rax, %rdi
 3627 007a E8000000 		call	_ZdlPv
 3627      00
 3628 007f EB40     		jmp	.L203
 3629              	.L201:
 3630 0081 4889C3   		movq	%rax, %rbx
 3631              	.LBB49:
  13:../MemoryOutStream.h **** {
 3632              		.loc 2 13 0
 3633 0084 BA000000 		movl	$_ZTTN8UnitTest15MemoryOutStreamE+8, %edx
 3633      00
 3634 0089 488B45E8 		movq	-24(%rbp), %rax
 3635 008d 4889D6   		movq	%rdx, %rsi
 3636 0090 4889C7   		movq	%rax, %rdi
 3637 0093 E8000000 		call	_ZNSt19basic_ostringstreamIcSt11char_traitsIcESaIcEED2Ev
 3637      00
 3638 0098 EB03     		jmp	.L199
 3639              	.L202:
 3640 009a 4889C3   		movq	%rax, %rbx
 3641              	.L199:
  13:../MemoryOutStream.h **** {
 3642              		.loc 2 13 0 discriminator 19
 3643 009d B8020000 		movl	$2, %eax
 3643      00
 3644 00a2 85C0     		testl	%eax, %eax
 3645 00a4 7410     		je	.L200
  13:../MemoryOutStream.h **** {
 3646              		.loc 2 13 0 discriminator 32
 3647 00a6 488B45E8 		movq	-24(%rbp), %rax
 3648 00aa 4883C060 		addq	$96, %rax
 3649 00ae 4889C7   		movq	%rax, %rdi
 3650 00b1 E8000000 		call	_ZNSt9basic_iosIcSt11char_traitsIcEED2Ev
 3650      00
 3651              	.L200:
 3652 00b6 4889D8   		movq	%rbx, %rax
 3653 00b9 4889C7   		movq	%rax, %rdi
 3654              	.LEHB86:
 3655 00bc E8000000 		call	_Unwind_Resume
 3655      00
 3656              	.LEHE86:
 3657              	.L203:
 3658              	.LBE49:
  13:../MemoryOutStream.h **** {
 3659              		.loc 2 13 0
 3660 00c1 4883C418 		addq	$24, %rsp
 3661 00c5 5B       		popq	%rbx
 3662 00c6 5D       		popq	%rbp
 3663              		.cfi_def_cfa 7, 8
 3664 00c7 C3       		ret
 3665              		.cfi_endproc
 3666              	.LFE1238:
 3667              		.section	.gcc_except_table
 3668              	.LLSDA1238:
 3669 021c FF       		.byte	0xff
 3670 021d FF       		.byte	0xff
 3671 021e 01       		.byte	0x1
 3672 021f 13       		.uleb128 .LLSDACSE1238-.LLSDACSB1238
 3673              	.LLSDACSB1238:
 3674 0220 38       		.uleb128 .LEHB83-.LFB1238
 3675 0221 05       		.uleb128 .LEHE83-.LEHB83
 3676 0222 8101     		.uleb128 .L201-.LFB1238
 3677 0224 00       		.uleb128 0
 3678 0225 4C       		.uleb128 .LEHB84-.LFB1238
 3679 0226 05       		.uleb128 .LEHE84-.LEHB84
 3680 0227 9A01     		.uleb128 .L202-.LFB1238
 3681 0229 00       		.uleb128 0
 3682 022a 65       		.uleb128 .LEHB85-.LFB1238
 3683 022b 05       		.uleb128 .LEHE85-.LEHB85
 3684 022c 00       		.uleb128 0
 3685 022d 00       		.uleb128 0
 3686 022e BC01     		.uleb128 .LEHB86-.LFB1238
 3687 0230 05       		.uleb128 .LEHE86-.LEHB86
 3688 0231 00       		.uleb128 0
 3689 0232 00       		.uleb128 0
 3690              	.LLSDACSE1238:
 3691              		.section	.text._ZN8UnitTest15MemoryOutStreamD1Ev,"axG",@progbits,_ZN8UnitTest15MemoryOutStreamD1Ev
 3693              		.set	.LTHUNK0,_ZN8UnitTest15MemoryOutStreamD1Ev
 3694              		.weak	_ZTv0_n24_N8UnitTest15MemoryOutStreamD1Ev
 3696              	_ZTv0_n24_N8UnitTest15MemoryOutStreamD1Ev:
 3697              	.LFB1242:
  13:../MemoryOutStream.h **** {
 3698              		.loc 2 13 0 is_stmt 1
 3699              		.cfi_startproc
 3700 00c8 4C8B17   		movq	(%rdi), %r10
 3701 00cb 49037AE8 		addq	-24(%r10), %rdi
 3702 00cf E92CFFFF 		jmp	.LTHUNK0
 3702      FF
 3703              		.cfi_endproc
 3704              	.LFE1242:
 3706              		.section	.text._ZN8UnitTest15MemoryOutStreamD0Ev,"axG",@progbits,_ZN8UnitTest15MemoryOutStreamD0Ev
 3707              		.align 2
 3708              		.weak	_ZN8UnitTest15MemoryOutStreamD0Ev
 3710              	_ZN8UnitTest15MemoryOutStreamD0Ev:
 3711              	.LFB1239:
  13:../MemoryOutStream.h **** {
 3712              		.loc 2 13 0
 3713              		.cfi_startproc
 3714 0000 55       		pushq	%rbp
 3715              		.cfi_def_cfa_offset 16
 3716              		.cfi_offset 6, -16
 3717 0001 4889E5   		movq	%rsp, %rbp
 3718              		.cfi_def_cfa_register 6
 3719 0004 4883EC10 		subq	$16, %rsp
 3720 0008 48897DF8 		movq	%rdi, -8(%rbp)
  13:../MemoryOutStream.h **** {
 3721              		.loc 2 13 0
 3722 000c 488B45F8 		movq	-8(%rbp), %rax
 3723 0010 4889C7   		movq	%rax, %rdi
 3724 0013 E8000000 		call	_ZN8UnitTest15MemoryOutStreamD1Ev
 3724      00
 3725 0018 488B45F8 		movq	-8(%rbp), %rax
 3726 001c 4889C7   		movq	%rax, %rdi
 3727 001f E8000000 		call	_ZdlPv
 3727      00
 3728 0024 C9       		leave
 3729              		.cfi_def_cfa 7, 8
 3730 0025 C3       		ret
 3731              		.cfi_endproc
 3732              	.LFE1239:
 3734              		.set	.LTHUNK1,_ZN8UnitTest15MemoryOutStreamD0Ev
 3735              		.weak	_ZTv0_n24_N8UnitTest15MemoryOutStreamD0Ev
 3737              	_ZTv0_n24_N8UnitTest15MemoryOutStreamD0Ev:
 3738              	.LFB1243:
  13:../MemoryOutStream.h **** {
 3739              		.loc 2 13 0
 3740              		.cfi_startproc
 3741 0026 4C8B17   		movq	(%rdi), %r10
 3742 0029 49037AE8 		addq	-24(%r10), %rdi
 3743 002d EBD1     		jmp	.LTHUNK1
 3744              		.cfi_endproc
 3745              	.LFE1243:
 3747              		.weak	_ZTTN8UnitTest15MemoryOutStreamE
 3748              		.section	.rodata._ZTTN8UnitTest15MemoryOutStreamE,"aG",@progbits,_ZTVN8UnitTest15MemoryOutStreamE,
 3749              		.align 32
 3752              	_ZTTN8UnitTest15MemoryOutStreamE:
 3753 0000 00000000 		.quad	_ZTVN8UnitTest15MemoryOutStreamE+24
 3753      00000000 
 3754 0008 00000000 		.quad	_ZTCN8UnitTest15MemoryOutStreamE0_St19basic_ostringstreamIcSt11char_traitsIcESaIcEE+24
 3754      00000000 
 3755 0010 00000000 		.quad	_ZTCN8UnitTest15MemoryOutStreamE0_So+24
 3755      00000000 
 3756 0018 00000000 		.quad	_ZTCN8UnitTest15MemoryOutStreamE0_So+64
 3756      00000000 
 3757 0020 00000000 		.quad	_ZTCN8UnitTest15MemoryOutStreamE0_St19basic_ostringstreamIcSt11char_traitsIcESaIcEE+64
 3757      00000000 
 3758 0028 00000000 		.quad	_ZTVN8UnitTest15MemoryOutStreamE+64
 3758      00000000 
 3759              		.hidden	_ZTCN8UnitTest15MemoryOutStreamE0_St19basic_ostringstreamIcSt11char_traitsIcESaIcEE
 3760              		.weak	_ZTCN8UnitTest15MemoryOutStreamE0_St19basic_ostringstreamIcSt11char_traitsIcESaIcEE
 3761              		.section	.rodata._ZTCN8UnitTest15MemoryOutStreamE0_St19basic_ostringstreamIcSt11char_traitsIcESaIc
 3762              		.align 64
 3765              	_ZTCN8UnitTest15MemoryOutStreamE0_St19basic_ostringstreamIcSt11char_traitsIcESaIcEE:
 3766 0000 60000000 		.quad	96
 3766      00000000 
 3767 0008 00000000 		.quad	0
 3767      00000000 
 3768 0010 00000000 		.quad	_ZTISt19basic_ostringstreamIcSt11char_traitsIcESaIcEE
 3768      00000000 
 3769 0018 00000000 		.quad	0
 3769      00000000 
 3770 0020 00000000 		.quad	0
 3770      00000000 
 3771 0028 A0FFFFFF 		.quad	-96
 3771      FFFFFFFF 
 3772 0030 A0FFFFFF 		.quad	-96
 3772      FFFFFFFF 
 3773 0038 00000000 		.quad	_ZTISt19basic_ostringstreamIcSt11char_traitsIcESaIcEE
 3773      00000000 
 3774 0040 00000000 		.quad	0
 3774      00000000 
 3775 0048 00000000 		.quad	0
 3775      00000000 
 3776              		.hidden	_ZTCN8UnitTest15MemoryOutStreamE0_So
 3777              		.weak	_ZTCN8UnitTest15MemoryOutStreamE0_So
 3778              		.section	.rodata._ZTCN8UnitTest15MemoryOutStreamE0_So,"aG",@progbits,_ZTVN8UnitTest15MemoryOutStre
 3779              		.align 64
 3782              	_ZTCN8UnitTest15MemoryOutStreamE0_So:
 3783 0000 60000000 		.quad	96
 3783      00000000 
 3784 0008 00000000 		.quad	0
 3784      00000000 
 3785 0010 00000000 		.quad	_ZTISo
 3785      00000000 
 3786 0018 00000000 		.quad	0
 3786      00000000 
 3787 0020 00000000 		.quad	0
 3787      00000000 
 3788 0028 A0FFFFFF 		.quad	-96
 3788      FFFFFFFF 
 3789 0030 A0FFFFFF 		.quad	-96
 3789      FFFFFFFF 
 3790 0038 00000000 		.quad	_ZTISo
 3790      00000000 
 3791 0040 00000000 		.quad	0
 3791      00000000 
 3792 0048 00000000 		.quad	0
 3792      00000000 
 3793              		.weak	_ZTSN8UnitTest15MemoryOutStreamE
 3794              		.section	.rodata._ZTSN8UnitTest15MemoryOutStreamE,"aG",@progbits,_ZTSN8UnitTest15MemoryOutStreamE,
 3795              		.align 16
 3798              	_ZTSN8UnitTest15MemoryOutStreamE:
 3799 0000 4E38556E 		.string	"N8UnitTest15MemoryOutStreamE"
 3799      69745465 
 3799      73743135 
 3799      4D656D6F 
 3799      72794F75 
 3800              		.weak	_ZTIN8UnitTest15MemoryOutStreamE
 3801              		.section	.rodata._ZTIN8UnitTest15MemoryOutStreamE,"aG",@progbits,_ZTIN8UnitTest15MemoryOutStreamE,
 3802              		.align 16
 3805              	_ZTIN8UnitTest15MemoryOutStreamE:
 3806 0000 00000000 		.quad	_ZTVN10__cxxabiv120__si_class_type_infoE+16
 3806      00000000 
 3807 0008 00000000 		.quad	_ZTSN8UnitTest15MemoryOutStreamE
 3807      00000000 
 3808 0010 00000000 		.quad	_ZTISt19basic_ostringstreamIcSt11char_traitsIcESaIcEE
 3808      00000000 
 3809              		.text
 3811              	_Z41__static_initialization_and_destruction_0ii:
 3812              	.LFB1240:
  89:TestMemoryOutStream.cpp **** 
  90:TestMemoryOutStream.cpp **** #ifdef UNITTEST_USE_CUSTOM_STREAMS
  91:TestMemoryOutStream.cpp **** 
  92:TestMemoryOutStream.cpp **** TEST(StreamInitialCapacityIsCorrect)
  93:TestMemoryOutStream.cpp **** {
  94:TestMemoryOutStream.cpp ****     MemoryOutStream stream(MemoryOutStream::GROW_CHUNK_SIZE);
  95:TestMemoryOutStream.cpp ****     CHECK_EQUAL((int)MemoryOutStream::GROW_CHUNK_SIZE, stream.GetCapacity());
  96:TestMemoryOutStream.cpp **** }
  97:TestMemoryOutStream.cpp **** 
  98:TestMemoryOutStream.cpp **** TEST(StreamInitialCapacityIsMultipleOfGrowChunkSize)
  99:TestMemoryOutStream.cpp **** {
 100:TestMemoryOutStream.cpp ****     MemoryOutStream stream(MemoryOutStream::GROW_CHUNK_SIZE + 1);
 101:TestMemoryOutStream.cpp ****     CHECK_EQUAL((int)MemoryOutStream::GROW_CHUNK_SIZE * 2, stream.GetCapacity());
 102:TestMemoryOutStream.cpp **** }
 103:TestMemoryOutStream.cpp **** 
 104:TestMemoryOutStream.cpp **** 
 105:TestMemoryOutStream.cpp **** TEST(ExceedingCapacityGrowsBuffer)
 106:TestMemoryOutStream.cpp **** {
 107:TestMemoryOutStream.cpp ****     MemoryOutStream stream(MemoryOutStream::GROW_CHUNK_SIZE);
 108:TestMemoryOutStream.cpp ****     stream << "012345678901234567890123456789";
 109:TestMemoryOutStream.cpp ****     char const* const oldBuffer = stream.GetText();
 110:TestMemoryOutStream.cpp ****     stream << "0123456789";
 111:TestMemoryOutStream.cpp ****     CHECK(oldBuffer != stream.GetText());
 112:TestMemoryOutStream.cpp **** }
 113:TestMemoryOutStream.cpp **** 
 114:TestMemoryOutStream.cpp **** TEST(ExceedingCapacityGrowsBufferByGrowChunk)
 115:TestMemoryOutStream.cpp **** {
 116:TestMemoryOutStream.cpp ****     MemoryOutStream stream(MemoryOutStream::GROW_CHUNK_SIZE);
 117:TestMemoryOutStream.cpp ****     stream << "0123456789012345678901234567890123456789";
 118:TestMemoryOutStream.cpp ****     CHECK_EQUAL(MemoryOutStream::GROW_CHUNK_SIZE * 2, stream.GetCapacity());
 119:TestMemoryOutStream.cpp **** }
 120:TestMemoryOutStream.cpp **** 
 121:TestMemoryOutStream.cpp **** TEST(WritingStringLongerThanCapacityFitsInNewBuffer)
 122:TestMemoryOutStream.cpp **** {
 123:TestMemoryOutStream.cpp ****     MemoryOutStream stream(8);
 124:TestMemoryOutStream.cpp ****     stream << "0123456789ABCDEF";
 125:TestMemoryOutStream.cpp ****     CHECK_EQUAL("0123456789ABCDEF", stream.GetText());
 126:TestMemoryOutStream.cpp **** }
 127:TestMemoryOutStream.cpp **** 
 128:TestMemoryOutStream.cpp **** TEST(WritingIntLongerThanCapacityFitsInNewBuffer)
 129:TestMemoryOutStream.cpp **** {
 130:TestMemoryOutStream.cpp ****     MemoryOutStream stream(8);
 131:TestMemoryOutStream.cpp ****     stream << "aaaa" << 123456;;
 132:TestMemoryOutStream.cpp ****     CHECK_EQUAL("aaaa123456", stream.GetText());
 133:TestMemoryOutStream.cpp **** }
 134:TestMemoryOutStream.cpp **** 
 135:TestMemoryOutStream.cpp **** TEST(WritingFloatLongerThanCapacityFitsInNewBuffer)
 136:TestMemoryOutStream.cpp **** {
 137:TestMemoryOutStream.cpp ****     MemoryOutStream stream(8);
 138:TestMemoryOutStream.cpp ****     stream << "aaaa" << 123456.0f;;
 139:TestMemoryOutStream.cpp ****     CHECK_EQUAL("aaaa123456.000000f", stream.GetText());
 140:TestMemoryOutStream.cpp **** }
 141:TestMemoryOutStream.cpp **** 
 142:TestMemoryOutStream.cpp **** TEST(WritingSizeTLongerThanCapacityFitsInNewBuffer)
 143:TestMemoryOutStream.cpp **** {
 144:TestMemoryOutStream.cpp ****     MemoryOutStream stream(8);
 145:TestMemoryOutStream.cpp ****     stream << "aaaa" << size_t(32145);
 146:TestMemoryOutStream.cpp ****     CHECK_EQUAL("aaaa32145", stream.GetText());
 147:TestMemoryOutStream.cpp **** }
 148:TestMemoryOutStream.cpp **** 
 149:TestMemoryOutStream.cpp **** #endif
 150:TestMemoryOutStream.cpp **** 
 151:TestMemoryOutStream.cpp **** }
 3813              		.loc 3 151 0
 3814              		.cfi_startproc
 3815 15a2 55       		pushq	%rbp
 3816              		.cfi_def_cfa_offset 16
 3817              		.cfi_offset 6, -16
 3818 15a3 4889E5   		movq	%rsp, %rbp
 3819              		.cfi_def_cfa_register 6
 3820 15a6 4883EC10 		subq	$16, %rsp
 3821 15aa 897DFC   		movl	%edi, -4(%rbp)
 3822 15ad 8975F8   		movl	%esi, -8(%rbp)
 3823              		.loc 3 151 0
 3824 15b0 837DFC01 		cmpl	$1, -4(%rbp)
 3825 15b4 0F855402 		jne	.L206
 3825      0000
 3826              		.loc 3 151 0 is_stmt 0 discriminator 1
 3827 15ba 817DF8FF 		cmpl	$65535, -8(%rbp)
 3827      FF0000
 3828 15c1 0F854702 		jne	.L206
 3828      0000
  11:TestMemoryOutStream.cpp **** {
 3829              		.loc 3 11 0 is_stmt 1
 3830 15c7 BF000000 		movl	$_ZN12_GLOBAL__N_132testDefaultIsEmptyStringInstanceE, %edi
 3830      00
 3831 15cc E82FEAFF 		call	_ZN12_GLOBAL__N_124TestDefaultIsEmptyStringC2Ev
 3831      FF
 3832 15d1 BA000000 		movl	$__dso_handle, %edx
 3832      00
 3833 15d6 BE000000 		movl	$_ZN12_GLOBAL__N_132testDefaultIsEmptyStringInstanceE, %esi
 3833      00
 3834 15db BF000000 		movl	$_ZN12_GLOBAL__N_124TestDefaultIsEmptyStringD1Ev, %edi
 3834      00
 3835 15e0 E8000000 		call	__cxa_atexit
 3835      00
 3836 15e5 E8000000 		call	_ZN8UnitTest4Test11GetTestListEv
 3836      00
 3837 15ea BA000000 		movl	$_ZN12_GLOBAL__N_132testDefaultIsEmptyStringInstanceE, %edx
 3837      00
 3838 15ef 4889C6   		movq	%rax, %rsi
 3839 15f2 BF000000 		movl	$_ZN12_GLOBAL__N_125adderDefaultIsEmptyStringE, %edi
 3839      00
 3840 15f7 E8000000 		call	_ZN8UnitTest9ListAdderC1ERNS_8TestListEPNS_4TestE
 3840      00
  18:TestMemoryOutStream.cpp **** {
 3841              		.loc 3 18 0
 3842 15fc BF000000 		movl	$_ZN12_GLOBAL__N_141testStreamingTextCopiesCharactersInstanceE, %edi
 3842      00
 3843 1601 E82AECFF 		call	_ZN12_GLOBAL__N_133TestStreamingTextCopiesCharactersC2Ev
 3843      FF
 3844 1606 BA000000 		movl	$__dso_handle, %edx
 3844      00
 3845 160b BE000000 		movl	$_ZN12_GLOBAL__N_141testStreamingTextCopiesCharactersInstanceE, %esi
 3845      00
 3846 1610 BF000000 		movl	$_ZN12_GLOBAL__N_133TestStreamingTextCopiesCharactersD1Ev, %edi
 3846      00
 3847 1615 E8000000 		call	__cxa_atexit
 3847      00
 3848 161a E8000000 		call	_ZN8UnitTest4Test11GetTestListEv
 3848      00
 3849 161f BA000000 		movl	$_ZN12_GLOBAL__N_141testStreamingTextCopiesCharactersInstanceE, %edx
 3849      00
 3850 1624 4889C6   		movq	%rax, %rsi
 3851 1627 BF000000 		movl	$_ZN12_GLOBAL__N_134adderStreamingTextCopiesCharactersE, %edi
 3851      00
 3852 162c E8000000 		call	_ZN8UnitTest9ListAdderC1ERNS_8TestListEPNS_4TestE
 3852      00
  25:TestMemoryOutStream.cpp **** {
 3853              		.loc 3 25 0
 3854 1631 BF000000 		movl	$_ZN12_GLOBAL__N_152testStreamingMultipleTimesConcatenatesResultInstanceE, %edi
 3854      00
 3855 1636 E86FEDFF 		call	_ZN12_GLOBAL__N_144TestStreamingMultipleTimesConcatenatesResultC2Ev
 3855      FF
 3856 163b BA000000 		movl	$__dso_handle, %edx
 3856      00
 3857 1640 BE000000 		movl	$_ZN12_GLOBAL__N_152testStreamingMultipleTimesConcatenatesResultInstanceE, %esi
 3857      00
 3858 1645 BF000000 		movl	$_ZN12_GLOBAL__N_144TestStreamingMultipleTimesConcatenatesResultD1Ev, %edi
 3858      00
 3859 164a E8000000 		call	__cxa_atexit
 3859      00
 3860 164f E8000000 		call	_ZN8UnitTest4Test11GetTestListEv
 3860      00
 3861 1654 BA000000 		movl	$_ZN12_GLOBAL__N_152testStreamingMultipleTimesConcatenatesResultInstanceE, %edx
 3861      00
 3862 1659 4889C6   		movq	%rax, %rsi
 3863 165c BF000000 		movl	$_ZN12_GLOBAL__N_145adderStreamingMultipleTimesConcatenatesResultE, %edi
 3863      00
 3864 1661 E8000000 		call	_ZN8UnitTest9ListAdderC1ERNS_8TestListEPNS_4TestE
 3864      00
  32:TestMemoryOutStream.cpp **** {
 3865              		.loc 3 32 0
 3866 1666 BF000000 		movl	$_ZN12_GLOBAL__N_147testStreamingIntWritesCorrectCharactersInstanceE, %edi
 3866      00
 3867 166b E8CEEEFF 		call	_ZN12_GLOBAL__N_139TestStreamingIntWritesCorrectCharactersC2Ev
 3867      FF
 3868 1670 BA000000 		movl	$__dso_handle, %edx
 3868      00
 3869 1675 BE000000 		movl	$_ZN12_GLOBAL__N_147testStreamingIntWritesCorrectCharactersInstanceE, %esi
 3869      00
 3870 167a BF000000 		movl	$_ZN12_GLOBAL__N_139TestStreamingIntWritesCorrectCharactersD1Ev, %edi
 3870      00
 3871 167f E8000000 		call	__cxa_atexit
 3871      00
 3872 1684 E8000000 		call	_ZN8UnitTest4Test11GetTestListEv
 3872      00
 3873 1689 BA000000 		movl	$_ZN12_GLOBAL__N_147testStreamingIntWritesCorrectCharactersInstanceE, %edx
 3873      00
 3874 168e 4889C6   		movq	%rax, %rsi
 3875 1691 BF000000 		movl	$_ZN12_GLOBAL__N_140adderStreamingIntWritesCorrectCharactersE, %edi
 3875      00
 3876 1696 E8000000 		call	_ZN8UnitTest9ListAdderC1ERNS_8TestListEPNS_4TestE
 3876      00
  39:TestMemoryOutStream.cpp **** {
 3877              		.loc 3 39 0
 3878 169b BF000000 		movl	$_ZN12_GLOBAL__N_155testStreamingUnsignedIntWritesCorrectCharactersInstanceE, %edi
 3878      00
 3879 16a0 E813F0FF 		call	_ZN12_GLOBAL__N_147TestStreamingUnsignedIntWritesCorrectCharactersC2Ev
 3879      FF
 3880 16a5 BA000000 		movl	$__dso_handle, %edx
 3880      00
 3881 16aa BE000000 		movl	$_ZN12_GLOBAL__N_155testStreamingUnsignedIntWritesCorrectCharactersInstanceE, %esi
 3881      00
 3882 16af BF000000 		movl	$_ZN12_GLOBAL__N_147TestStreamingUnsignedIntWritesCorrectCharactersD1Ev, %edi
 3882      00
 3883 16b4 E8000000 		call	__cxa_atexit
 3883      00
 3884 16b9 E8000000 		call	_ZN8UnitTest4Test11GetTestListEv
 3884      00
 3885 16be BA000000 		movl	$_ZN12_GLOBAL__N_155testStreamingUnsignedIntWritesCorrectCharactersInstanceE, %edx
 3885      00
 3886 16c3 4889C6   		movq	%rax, %rsi
 3887 16c6 BF000000 		movl	$_ZN12_GLOBAL__N_148adderStreamingUnsignedIntWritesCorrectCharactersE, %edi
 3887      00
 3888 16cb E8000000 		call	_ZN8UnitTest9ListAdderC1ERNS_8TestListEPNS_4TestE
 3888      00
  46:TestMemoryOutStream.cpp **** {
 3889              		.loc 3 46 0
 3890 16d0 BF000000 		movl	$_ZN12_GLOBAL__N_148testStreamingLongWritesCorrectCharactersInstanceE, %edi
 3890      00
 3891 16d5 E858F1FF 		call	_ZN12_GLOBAL__N_140TestStreamingLongWritesCorrectCharactersC2Ev
 3891      FF
 3892 16da BA000000 		movl	$__dso_handle, %edx
 3892      00
 3893 16df BE000000 		movl	$_ZN12_GLOBAL__N_148testStreamingLongWritesCorrectCharactersInstanceE, %esi
 3893      00
 3894 16e4 BF000000 		movl	$_ZN12_GLOBAL__N_140TestStreamingLongWritesCorrectCharactersD1Ev, %edi
 3894      00
 3895 16e9 E8000000 		call	__cxa_atexit
 3895      00
 3896 16ee E8000000 		call	_ZN8UnitTest4Test11GetTestListEv
 3896      00
 3897 16f3 BA000000 		movl	$_ZN12_GLOBAL__N_148testStreamingLongWritesCorrectCharactersInstanceE, %edx
 3897      00
 3898 16f8 4889C6   		movq	%rax, %rsi
 3899 16fb BF000000 		movl	$_ZN12_GLOBAL__N_141adderStreamingLongWritesCorrectCharactersE, %edi
 3899      00
 3900 1700 E8000000 		call	_ZN8UnitTest9ListAdderC1ERNS_8TestListEPNS_4TestE
 3900      00
  53:TestMemoryOutStream.cpp **** {
 3901              		.loc 3 53 0
 3902 1705 BF000000 		movl	$_ZN12_GLOBAL__N_156testStreamingUnsignedLongWritesCorrectCharactersInstanceE, %edi
 3902      00
 3903 170a E89FF2FF 		call	_ZN12_GLOBAL__N_148TestStreamingUnsignedLongWritesCorrectCharactersC2Ev
 3903      FF
 3904 170f BA000000 		movl	$__dso_handle, %edx
 3904      00
 3905 1714 BE000000 		movl	$_ZN12_GLOBAL__N_156testStreamingUnsignedLongWritesCorrectCharactersInstanceE, %esi
 3905      00
 3906 1719 BF000000 		movl	$_ZN12_GLOBAL__N_148TestStreamingUnsignedLongWritesCorrectCharactersD1Ev, %edi
 3906      00
 3907 171e E8000000 		call	__cxa_atexit
 3907      00
 3908 1723 E8000000 		call	_ZN8UnitTest4Test11GetTestListEv
 3908      00
 3909 1728 BA000000 		movl	$_ZN12_GLOBAL__N_156testStreamingUnsignedLongWritesCorrectCharactersInstanceE, %edx
 3909      00
 3910 172d 4889C6   		movq	%rax, %rsi
 3911 1730 BF000000 		movl	$_ZN12_GLOBAL__N_149adderStreamingUnsignedLongWritesCorrectCharactersE, %edi
 3911      00
 3912 1735 E8000000 		call	_ZN8UnitTest9ListAdderC1ERNS_8TestListEPNS_4TestE
 3912      00
  60:TestMemoryOutStream.cpp **** {
 3913              		.loc 3 60 0
 3914 173a BF000000 		movl	$_ZN12_GLOBAL__N_149testStreamingFloatWritesCorrectCharactersInstanceE, %edi
 3914      00
 3915 173f E8E4F3FF 		call	_ZN12_GLOBAL__N_141TestStreamingFloatWritesCorrectCharactersC2Ev
 3915      FF
 3916 1744 BA000000 		movl	$__dso_handle, %edx
 3916      00
 3917 1749 BE000000 		movl	$_ZN12_GLOBAL__N_149testStreamingFloatWritesCorrectCharactersInstanceE, %esi
 3917      00
 3918 174e BF000000 		movl	$_ZN12_GLOBAL__N_141TestStreamingFloatWritesCorrectCharactersD1Ev, %edi
 3918      00
 3919 1753 E8000000 		call	__cxa_atexit
 3919      00
 3920 1758 E8000000 		call	_ZN8UnitTest4Test11GetTestListEv
 3920      00
 3921 175d BA000000 		movl	$_ZN12_GLOBAL__N_149testStreamingFloatWritesCorrectCharactersInstanceE, %edx
 3921      00
 3922 1762 4889C6   		movq	%rax, %rsi
 3923 1765 BF000000 		movl	$_ZN12_GLOBAL__N_142adderStreamingFloatWritesCorrectCharactersE, %edi
 3923      00
 3924 176a E8000000 		call	_ZN8UnitTest9ListAdderC1ERNS_8TestListEPNS_4TestE
 3924      00
  67:TestMemoryOutStream.cpp **** {
 3925              		.loc 3 67 0
 3926 176f BF000000 		movl	$_ZN12_GLOBAL__N_150testStreamingDoubleWritesCorrectCharactersInstanceE, %edi
 3926      00
 3927 1774 E841F5FF 		call	_ZN12_GLOBAL__N_142TestStreamingDoubleWritesCorrectCharactersC2Ev
 3927      FF
 3928 1779 BA000000 		movl	$__dso_handle, %edx
 3928      00
 3929 177e BE000000 		movl	$_ZN12_GLOBAL__N_150testStreamingDoubleWritesCorrectCharactersInstanceE, %esi
 3929      00
 3930 1783 BF000000 		movl	$_ZN12_GLOBAL__N_142TestStreamingDoubleWritesCorrectCharactersD1Ev, %edi
 3930      00
 3931 1788 E8000000 		call	__cxa_atexit
 3931      00
 3932 178d E8000000 		call	_ZN8UnitTest4Test11GetTestListEv
 3932      00
 3933 1792 BA000000 		movl	$_ZN12_GLOBAL__N_150testStreamingDoubleWritesCorrectCharactersInstanceE, %edx
 3933      00
 3934 1797 4889C6   		movq	%rax, %rsi
 3935 179a BF000000 		movl	$_ZN12_GLOBAL__N_143adderStreamingDoubleWritesCorrectCharactersE, %edi
 3935      00
 3936 179f E8000000 		call	_ZN8UnitTest9ListAdderC1ERNS_8TestListEPNS_4TestE
 3936      00
  74:TestMemoryOutStream.cpp **** {
 3937              		.loc 3 74 0
 3938 17a4 BF000000 		movl	$_ZN12_GLOBAL__N_151testStreamingPointerWritesCorrectCharactersInstanceE, %edi
 3938      00
 3939 17a9 E8B0F6FF 		call	_ZN12_GLOBAL__N_143TestStreamingPointerWritesCorrectCharactersC2Ev
 3939      FF
 3940 17ae BA000000 		movl	$__dso_handle, %edx
 3940      00
 3941 17b3 BE000000 		movl	$_ZN12_GLOBAL__N_151testStreamingPointerWritesCorrectCharactersInstanceE, %esi
 3941      00
 3942 17b8 BF000000 		movl	$_ZN12_GLOBAL__N_143TestStreamingPointerWritesCorrectCharactersD1Ev, %edi
 3942      00
 3943 17bd E8000000 		call	__cxa_atexit
 3943      00
 3944 17c2 E8000000 		call	_ZN8UnitTest4Test11GetTestListEv
 3944      00
 3945 17c7 BA000000 		movl	$_ZN12_GLOBAL__N_151testStreamingPointerWritesCorrectCharactersInstanceE, %edx
 3945      00
 3946 17cc 4889C6   		movq	%rax, %rsi
 3947 17cf BF000000 		movl	$_ZN12_GLOBAL__N_144adderStreamingPointerWritesCorrectCharactersE, %edi
 3947      00
 3948 17d4 E8000000 		call	_ZN8UnitTest9ListAdderC1ERNS_8TestListEPNS_4TestE
 3948      00
  82:TestMemoryOutStream.cpp **** {
 3949              		.loc 3 82 0
 3950 17d9 BF000000 		movl	$_ZN12_GLOBAL__N_149testStreamingSizeTWritesCorrectCharactersInstanceE, %edi
 3950      00
 3951 17de E81BF8FF 		call	_ZN12_GLOBAL__N_141TestStreamingSizeTWritesCorrectCharactersC2Ev
 3951      FF
 3952 17e3 BA000000 		movl	$__dso_handle, %edx
 3952      00
 3953 17e8 BE000000 		movl	$_ZN12_GLOBAL__N_149testStreamingSizeTWritesCorrectCharactersInstanceE, %esi
 3953      00
 3954 17ed BF000000 		movl	$_ZN12_GLOBAL__N_141TestStreamingSizeTWritesCorrectCharactersD1Ev, %edi
 3954      00
 3955 17f2 E8000000 		call	__cxa_atexit
 3955      00
 3956 17f7 E8000000 		call	_ZN8UnitTest4Test11GetTestListEv
 3956      00
 3957 17fc BA000000 		movl	$_ZN12_GLOBAL__N_149testStreamingSizeTWritesCorrectCharactersInstanceE, %edx
 3957      00
 3958 1801 4889C6   		movq	%rax, %rsi
 3959 1804 BF000000 		movl	$_ZN12_GLOBAL__N_142adderStreamingSizeTWritesCorrectCharactersE, %edi
 3959      00
 3960 1809 E8000000 		call	_ZN8UnitTest9ListAdderC1ERNS_8TestListEPNS_4TestE
 3960      00
 3961              	.L206:
 3962              		.loc 3 151 0
 3963 180e C9       		leave
 3964              		.cfi_def_cfa 7, 8
 3965 180f C3       		ret
 3966              		.cfi_endproc
 3967              	.LFE1240:
 3969              		.section	.rodata
 3970 0788 00000000 		.align 16
 3970      00000000 
 3973              	_ZTIN12_GLOBAL__N_124TestDefaultIsEmptyStringE:
 3974 0790 00000000 		.quad	_ZTVN10__cxxabiv120__si_class_type_infoE+16
 3974      00000000 
 3975 0798 00000000 		.quad	_ZTSN12_GLOBAL__N_124TestDefaultIsEmptyStringE
 3975      00000000 
 3976 07a0 00000000 		.quad	_ZTIN8UnitTest4TestE
 3976      00000000 
 3977 07a8 00000000 		.align 16
 3977      00000000 
 3980              	_ZTIN12_GLOBAL__N_133TestStreamingTextCopiesCharactersE:
 3981 07b0 00000000 		.quad	_ZTVN10__cxxabiv120__si_class_type_infoE+16
 3981      00000000 
 3982 07b8 00000000 		.quad	_ZTSN12_GLOBAL__N_133TestStreamingTextCopiesCharactersE
 3982      00000000 
 3983 07c0 00000000 		.quad	_ZTIN8UnitTest4TestE
 3983      00000000 
 3984 07c8 00000000 		.align 16
 3984      00000000 
 3987              	_ZTIN12_GLOBAL__N_144TestStreamingMultipleTimesConcatenatesResultE:
 3988 07d0 00000000 		.quad	_ZTVN10__cxxabiv120__si_class_type_infoE+16
 3988      00000000 
 3989 07d8 00000000 		.quad	_ZTSN12_GLOBAL__N_144TestStreamingMultipleTimesConcatenatesResultE
 3989      00000000 
 3990 07e0 00000000 		.quad	_ZTIN8UnitTest4TestE
 3990      00000000 
 3991 07e8 00000000 		.align 16
 3991      00000000 
 3994              	_ZTIN12_GLOBAL__N_139TestStreamingIntWritesCorrectCharactersE:
 3995 07f0 00000000 		.quad	_ZTVN10__cxxabiv120__si_class_type_infoE+16
 3995      00000000 
 3996 07f8 00000000 		.quad	_ZTSN12_GLOBAL__N_139TestStreamingIntWritesCorrectCharactersE
 3996      00000000 
 3997 0800 00000000 		.quad	_ZTIN8UnitTest4TestE
 3997      00000000 
 3998 0808 00000000 		.align 16
 3998      00000000 
 4001              	_ZTIN12_GLOBAL__N_147TestStreamingUnsignedIntWritesCorrectCharactersE:
 4002 0810 00000000 		.quad	_ZTVN10__cxxabiv120__si_class_type_infoE+16
 4002      00000000 
 4003 0818 00000000 		.quad	_ZTSN12_GLOBAL__N_147TestStreamingUnsignedIntWritesCorrectCharactersE
 4003      00000000 
 4004 0820 00000000 		.quad	_ZTIN8UnitTest4TestE
 4004      00000000 
 4005 0828 00000000 		.align 16
 4005      00000000 
 4008              	_ZTIN12_GLOBAL__N_140TestStreamingLongWritesCorrectCharactersE:
 4009 0830 00000000 		.quad	_ZTVN10__cxxabiv120__si_class_type_infoE+16
 4009      00000000 
 4010 0838 00000000 		.quad	_ZTSN12_GLOBAL__N_140TestStreamingLongWritesCorrectCharactersE
 4010      00000000 
 4011 0840 00000000 		.quad	_ZTIN8UnitTest4TestE
 4011      00000000 
 4012 0848 00000000 		.align 16
 4012      00000000 
 4015              	_ZTIN12_GLOBAL__N_148TestStreamingUnsignedLongWritesCorrectCharactersE:
 4016 0850 00000000 		.quad	_ZTVN10__cxxabiv120__si_class_type_infoE+16
 4016      00000000 
 4017 0858 00000000 		.quad	_ZTSN12_GLOBAL__N_148TestStreamingUnsignedLongWritesCorrectCharactersE
 4017      00000000 
 4018 0860 00000000 		.quad	_ZTIN8UnitTest4TestE
 4018      00000000 
 4019 0868 00000000 		.align 16
 4019      00000000 
 4022              	_ZTIN12_GLOBAL__N_141TestStreamingFloatWritesCorrectCharactersE:
 4023 0870 00000000 		.quad	_ZTVN10__cxxabiv120__si_class_type_infoE+16
 4023      00000000 
 4024 0878 00000000 		.quad	_ZTSN12_GLOBAL__N_141TestStreamingFloatWritesCorrectCharactersE
 4024      00000000 
 4025 0880 00000000 		.quad	_ZTIN8UnitTest4TestE
 4025      00000000 
 4026 0888 00000000 		.align 16
 4026      00000000 
 4029              	_ZTIN12_GLOBAL__N_142TestStreamingDoubleWritesCorrectCharactersE:
 4030 0890 00000000 		.quad	_ZTVN10__cxxabiv120__si_class_type_infoE+16
 4030      00000000 
 4031 0898 00000000 		.quad	_ZTSN12_GLOBAL__N_142TestStreamingDoubleWritesCorrectCharactersE
 4031      00000000 
 4032 08a0 00000000 		.quad	_ZTIN8UnitTest4TestE
 4032      00000000 
 4033 08a8 00000000 		.align 16
 4033      00000000 
 4036              	_ZTIN12_GLOBAL__N_143TestStreamingPointerWritesCorrectCharactersE:
 4037 08b0 00000000 		.quad	_ZTVN10__cxxabiv120__si_class_type_infoE+16
 4037      00000000 
 4038 08b8 00000000 		.quad	_ZTSN12_GLOBAL__N_143TestStreamingPointerWritesCorrectCharactersE
 4038      00000000 
 4039 08c0 00000000 		.quad	_ZTIN8UnitTest4TestE
 4039      00000000 
 4040 08c8 00000000 		.align 16
 4040      00000000 
 4043              	_ZTIN12_GLOBAL__N_141TestStreamingSizeTWritesCorrectCharactersE:
 4044 08d0 00000000 		.quad	_ZTVN10__cxxabiv120__si_class_type_infoE+16
 4044      00000000 
 4045 08d8 00000000 		.quad	_ZTSN12_GLOBAL__N_141TestStreamingSizeTWritesCorrectCharactersE
 4045      00000000 
 4046 08e0 00000000 		.quad	_ZTIN8UnitTest4TestE
 4046      00000000 
 4047 08e8 00000000 		.align 32
 4047      00000000 
 4047      00000000 
 4047      00000000 
 4047      00000000 
 4050              	_ZTSN12_GLOBAL__N_141TestStreamingSizeTWritesCorrectCharactersE:
 4051 0900 2A4E3132 		.string	"*N12_GLOBAL__N_141TestStreamingSizeTWritesCorrectCharactersE"
 4051      5F474C4F 
 4051      42414C5F 
 4051      5F4E5F31 
 4051      34315465 
 4052 093d 000000   		.align 32
 4055              	_ZTSN12_GLOBAL__N_143TestStreamingPointerWritesCorrectCharactersE:
 4056 0940 2A4E3132 		.string	"*N12_GLOBAL__N_143TestStreamingPointerWritesCorrectCharactersE"
 4056      5F474C4F 
 4056      42414C5F 
 4056      5F4E5F31 
 4056      34335465 
 4057 097f 00       		.align 32
 4060              	_ZTSN12_GLOBAL__N_142TestStreamingDoubleWritesCorrectCharactersE:
 4061 0980 2A4E3132 		.string	"*N12_GLOBAL__N_142TestStreamingDoubleWritesCorrectCharactersE"
 4061      5F474C4F 
 4061      42414C5F 
 4061      5F4E5F31 
 4061      34325465 
 4062 09be 0000     		.align 32
 4065              	_ZTSN12_GLOBAL__N_141TestStreamingFloatWritesCorrectCharactersE:
 4066 09c0 2A4E3132 		.string	"*N12_GLOBAL__N_141TestStreamingFloatWritesCorrectCharactersE"
 4066      5F474C4F 
 4066      42414C5F 
 4066      5F4E5F31 
 4066      34315465 
 4067 09fd 000000   		.align 64
 4070              	_ZTSN12_GLOBAL__N_148TestStreamingUnsignedLongWritesCorrectCharactersE:
 4071 0a00 2A4E3132 		.string	"*N12_GLOBAL__N_148TestStreamingUnsignedLongWritesCorrectCharactersE"
 4071      5F474C4F 
 4071      42414C5F 
 4071      5F4E5F31 
 4071      34385465 
 4072 0a44 00000000 		.align 32
 4072      00000000 
 4072      00000000 
 4072      00000000 
 4072      00000000 
 4075              	_ZTSN12_GLOBAL__N_140TestStreamingLongWritesCorrectCharactersE:
 4076 0a60 2A4E3132 		.string	"*N12_GLOBAL__N_140TestStreamingLongWritesCorrectCharactersE"
 4076      5F474C4F 
 4076      42414C5F 
 4076      5F4E5F31 
 4076      34305465 
 4077 0a9c 00000000 		.align 64
 4077      00000000 
 4077      00000000 
 4077      00000000 
 4077      00000000 
 4080              	_ZTSN12_GLOBAL__N_147TestStreamingUnsignedIntWritesCorrectCharactersE:
 4081 0ac0 2A4E3132 		.string	"*N12_GLOBAL__N_147TestStreamingUnsignedIntWritesCorrectCharactersE"
 4081      5F474C4F 
 4081      42414C5F 
 4081      5F4E5F31 
 4081      34375465 
 4082 0b03 00000000 		.align 32
 4082      00000000 
 4082      00000000 
 4082      00000000 
 4082      00000000 
 4085              	_ZTSN12_GLOBAL__N_139TestStreamingIntWritesCorrectCharactersE:
 4086 0b20 2A4E3132 		.string	"*N12_GLOBAL__N_139TestStreamingIntWritesCorrectCharactersE"
 4086      5F474C4F 
 4086      42414C5F 
 4086      5F4E5F31 
 4086      33395465 
 4087 0b5b 00000000 		.align 64
 4087      00000000 
 4087      00000000 
 4087      00000000 
 4087      00000000 
 4090              	_ZTSN12_GLOBAL__N_144TestStreamingMultipleTimesConcatenatesResultE:
 4091 0b80 2A4E3132 		.string	"*N12_GLOBAL__N_144TestStreamingMultipleTimesConcatenatesResultE"
 4091      5F474C4F 
 4091      42414C5F 
 4091      5F4E5F31 
 4091      34345465 
 4092              		.align 32
 4095              	_ZTSN12_GLOBAL__N_133TestStreamingTextCopiesCharactersE:
 4096 0bc0 2A4E3132 		.string	"*N12_GLOBAL__N_133TestStreamingTextCopiesCharactersE"
 4096      5F474C4F 
 4096      42414C5F 
 4096      5F4E5F31 
 4096      33335465 
 4097 0bf5 00000000 		.align 32
 4097      00000000 
 4097      000000
 4100              	_ZTSN12_GLOBAL__N_124TestDefaultIsEmptyStringE:
 4101 0c00 2A4E3132 		.string	"*N12_GLOBAL__N_124TestDefaultIsEmptyStringE"
 4101      5F474C4F 
 4101      42414C5F 
 4101      5F4E5F31 
 4101      32345465 
 4102              		.text
 4104              	_GLOBAL__sub_I_TestMemoryOutStream.cpp:
 4105              	.LFB1241:
 4106              		.loc 3 151 0
 4107              		.cfi_startproc
 4108 1810 55       		pushq	%rbp
 4109              		.cfi_def_cfa_offset 16
 4110              		.cfi_offset 6, -16
 4111 1811 4889E5   		movq	%rsp, %rbp
 4112              		.cfi_def_cfa_register 6
 4113              		.loc 3 151 0
 4114 1814 BEFFFF00 		movl	$65535, %esi
 4114      00
 4115 1819 BF010000 		movl	$1, %edi
 4115      00
 4116 181e E87FFDFF 		call	_Z41__static_initialization_and_destruction_0ii
 4116      FF
 4117 1823 5D       		popq	%rbp
 4118              		.cfi_def_cfa 7, 8
 4119 1824 C3       		ret
 4120              		.cfi_endproc
 4121              	.LFE1241:
 4123              		.section	.init_array,"aw"
 4124              		.align 8
 4125 0000 00000000 		.quad	_GLOBAL__sub_I_TestMemoryOutStream.cpp
 4125      00000000 
 4126              		.section	.rodata
 4127 0c2c 00000000 		.align 8
 4130              	_ZZL18__gthread_active_pvE20__gthread_active_ptr:
 4131 0c30 00000000 		.quad	_ZL28__gthrw___pthread_key_createPjPFvPvE
 4131      00000000 
 4132              		.weakref	_ZL28__gthrw___pthread_key_createPjPFvPvE,__pthread_key_create
 4133              		.align 4
 4134              	.LC25:
 4135 0c38 560E4940 		.long	1078529622
 4136              		.text
 4137              	.Letext0:
 4138              		.file 5 "../TestList.h"
 4139              		.file 6 "<built-in>"
 4140              		.file 7 "/usr/include/stdio.h"
 4141              		.file 8 "/usr/lib/gcc/x86_64-linux-gnu/4.9/include/stddef.h"
 4142              		.file 9 "/usr/include/wchar.h"
 4143              		.file 10 "/usr/include/c++/4.9/cwchar"
 4144              		.file 11 "/usr/include/c++/4.9/bits/char_traits.h"
 4145              		.file 12 "/usr/include/x86_64-linux-gnu/c++/4.9/bits/c++config.h"
 4146              		.file 13 "/usr/include/c++/4.9/clocale"
 4147              		.file 14 "/usr/include/c++/4.9/bits/allocator.h"
 4148              		.file 15 "/usr/include/c++/4.9/bits/basic_string.h"
 4149              		.file 16 "/usr/include/c++/4.9/bits/basic_string.tcc"
 4150              		.file 17 "/usr/include/c++/4.9/bits/stringfwd.h"
 4151              		.file 18 "/usr/include/c++/4.9/cwctype"
 4152              		.file 19 "/usr/include/c++/4.9/cstring"
 4153              		.file 20 "/usr/include/time.h"
 4154              		.file 21 "../TestDetails.h"
 4155              		.file 22 "/usr/include/c++/4.9/debug/debug.h"
 4156              		.file 23 "/usr/include/c++/4.9/bits/predefined_ops.h"
 4157              		.file 24 "/usr/include/c++/4.9/ext/new_allocator.h"
 4158              		.file 25 "/usr/include/c++/4.9/ext/numeric_traits.h"
 4159              		.file 26 "/usr/include/locale.h"
 4160              		.file 27 "/usr/include/x86_64-linux-gnu/bits/types.h"
 4161              		.file 28 "/usr/include/x86_64-linux-gnu/c++/4.9/bits/atomic_word.h"
 4162              		.file 29 "/usr/include/wctype.h"
 4163              		.file 30 "/usr/include/string.h"
DEFINED SYMBOLS
                            *ABS*:0000000000000000 TestMemoryOutStream.cpp
     /tmp/ccE2nyku.s:10     .text._ZN13UnitTestSuite12GetSuiteNameEv:0000000000000000 _ZN13UnitTestSuite12GetSuiteNameEv
     /tmp/ccE2nyku.s:33     .text._ZN8UnitTest15MemoryOutStreamC1Ev:0000000000000000 _ZN8UnitTest15MemoryOutStreamC1Ev
     /tmp/ccE2nyku.s:3752   .rodata._ZTTN8UnitTest15MemoryOutStreamE:0000000000000000 _ZTTN8UnitTest15MemoryOutStreamE
     /tmp/ccE2nyku.s:3553   .rodata._ZTVN8UnitTest15MemoryOutStreamE:0000000000000000 _ZTVN8UnitTest15MemoryOutStreamE
     /tmp/ccE2nyku.s:150    .text:0000000000000000 _ZN12_GLOBAL__N_124TestDefaultIsEmptyStringC2Ev
     /tmp/ccE2nyku.s:3478   .rodata:0000000000000760 _ZTVN12_GLOBAL__N_124TestDefaultIsEmptyStringE
     /tmp/ccE2nyku.s:182    .bss:0000000000000000 _ZN12_GLOBAL__N_132testDefaultIsEmptyStringInstanceE
     /tmp/ccE2nyku.s:182    .bss:0000000000000038 _ZN12_GLOBAL__N_125adderDefaultIsEmptyStringE
     /tmp/ccE2nyku.s:199    .text:000000000000003e _ZNK12_GLOBAL__N_124TestDefaultIsEmptyString7RunImplEv
     /tmp/ccE2nyku.s:2690   .text._ZN8UnitTest5CheckIbEEbT_:0000000000000000 _ZN8UnitTest5CheckIbEEbT_
     /tmp/ccE2nyku.s:3568   .text._ZN8UnitTest15MemoryOutStreamD1Ev:0000000000000000 _ZN8UnitTest15MemoryOutStreamD1Ev
     /tmp/ccE2nyku.s:441    .text:0000000000000230 _ZN12_GLOBAL__N_133TestStreamingTextCopiesCharactersC2Ev
     /tmp/ccE2nyku.s:3404   .rodata:0000000000000720 _ZTVN12_GLOBAL__N_133TestStreamingTextCopiesCharactersE
     /tmp/ccE2nyku.s:472    .bss:0000000000000040 _ZN12_GLOBAL__N_141testStreamingTextCopiesCharactersInstanceE
     /tmp/ccE2nyku.s:472    .bss:0000000000000078 _ZN12_GLOBAL__N_134adderStreamingTextCopiesCharactersE
     /tmp/ccE2nyku.s:484    .text:000000000000026e _ZNK12_GLOBAL__N_133TestStreamingTextCopiesCharacters7RunImplEv
     /tmp/ccE2nyku.s:664    .text:00000000000003aa _ZN12_GLOBAL__N_144TestStreamingMultipleTimesConcatenatesResultC2Ev
     /tmp/ccE2nyku.s:3330   .rodata:00000000000006e0 _ZTVN12_GLOBAL__N_144TestStreamingMultipleTimesConcatenatesResultE
     /tmp/ccE2nyku.s:695    .bss:0000000000000080 _ZN12_GLOBAL__N_152testStreamingMultipleTimesConcatenatesResultInstanceE
     /tmp/ccE2nyku.s:695    .bss:00000000000000b8 _ZN12_GLOBAL__N_145adderStreamingMultipleTimesConcatenatesResultE
     /tmp/ccE2nyku.s:713    .text:00000000000003e8 _ZNK12_GLOBAL__N_144TestStreamingMultipleTimesConcatenatesResult7RunImplEv
     /tmp/ccE2nyku.s:900    .text:000000000000053e _ZN12_GLOBAL__N_139TestStreamingIntWritesCorrectCharactersC2Ev
     /tmp/ccE2nyku.s:3256   .rodata:00000000000006a0 _ZTVN12_GLOBAL__N_139TestStreamingIntWritesCorrectCharactersE
     /tmp/ccE2nyku.s:931    .bss:00000000000000c0 _ZN12_GLOBAL__N_147testStreamingIntWritesCorrectCharactersInstanceE
     /tmp/ccE2nyku.s:931    .bss:00000000000000f8 _ZN12_GLOBAL__N_140adderStreamingIntWritesCorrectCharactersE
     /tmp/ccE2nyku.s:943    .text:000000000000057c _ZNK12_GLOBAL__N_139TestStreamingIntWritesCorrectCharacters7RunImplEv
     /tmp/ccE2nyku.s:1123   .text:00000000000006b8 _ZN12_GLOBAL__N_147TestStreamingUnsignedIntWritesCorrectCharactersC2Ev
     /tmp/ccE2nyku.s:3182   .rodata:0000000000000660 _ZTVN12_GLOBAL__N_147TestStreamingUnsignedIntWritesCorrectCharactersE
     /tmp/ccE2nyku.s:1154   .bss:0000000000000100 _ZN12_GLOBAL__N_155testStreamingUnsignedIntWritesCorrectCharactersInstanceE
     /tmp/ccE2nyku.s:1154   .bss:0000000000000138 _ZN12_GLOBAL__N_148adderStreamingUnsignedIntWritesCorrectCharactersE
     /tmp/ccE2nyku.s:1159   .text:00000000000006f6 _ZNK12_GLOBAL__N_147TestStreamingUnsignedIntWritesCorrectCharacters7RunImplEv
     /tmp/ccE2nyku.s:1339   .text:0000000000000832 _ZN12_GLOBAL__N_140TestStreamingLongWritesCorrectCharactersC2Ev
     /tmp/ccE2nyku.s:3108   .rodata:0000000000000620 _ZTVN12_GLOBAL__N_140TestStreamingLongWritesCorrectCharactersE
     /tmp/ccE2nyku.s:1370   .bss:0000000000000140 _ZN12_GLOBAL__N_148testStreamingLongWritesCorrectCharactersInstanceE
     /tmp/ccE2nyku.s:1370   .bss:0000000000000178 _ZN12_GLOBAL__N_141adderStreamingLongWritesCorrectCharactersE
     /tmp/ccE2nyku.s:1382   .text:0000000000000870 _ZNK12_GLOBAL__N_140TestStreamingLongWritesCorrectCharacters7RunImplEv
     /tmp/ccE2nyku.s:1562   .text:00000000000009ae _ZN12_GLOBAL__N_148TestStreamingUnsignedLongWritesCorrectCharactersC2Ev
     /tmp/ccE2nyku.s:3034   .rodata:00000000000005e0 _ZTVN12_GLOBAL__N_148TestStreamingUnsignedLongWritesCorrectCharactersE
     /tmp/ccE2nyku.s:1593   .bss:0000000000000180 _ZN12_GLOBAL__N_156testStreamingUnsignedLongWritesCorrectCharactersInstanceE
     /tmp/ccE2nyku.s:1593   .bss:00000000000001b8 _ZN12_GLOBAL__N_149adderStreamingUnsignedLongWritesCorrectCharactersE
     /tmp/ccE2nyku.s:1598   .text:00000000000009ec _ZNK12_GLOBAL__N_148TestStreamingUnsignedLongWritesCorrectCharacters7RunImplEv
     /tmp/ccE2nyku.s:1778   .text:0000000000000b28 _ZN12_GLOBAL__N_141TestStreamingFloatWritesCorrectCharactersC2Ev
     /tmp/ccE2nyku.s:2960   .rodata:00000000000005a0 _ZTVN12_GLOBAL__N_141TestStreamingFloatWritesCorrectCharactersE
     /tmp/ccE2nyku.s:1809   .bss:00000000000001c0 _ZN12_GLOBAL__N_149testStreamingFloatWritesCorrectCharactersInstanceE
     /tmp/ccE2nyku.s:1809   .bss:00000000000001f8 _ZN12_GLOBAL__N_142adderStreamingFloatWritesCorrectCharactersE
     /tmp/ccE2nyku.s:1824   .text:0000000000000b66 _ZNK12_GLOBAL__N_141TestStreamingFloatWritesCorrectCharacters7RunImplEv
     /tmp/ccE2nyku.s:2714   .text._ZN8UnitTest5CheckIPKcEEbT_:0000000000000000 _ZN8UnitTest5CheckIPKcEEbT_
     /tmp/ccE2nyku.s:2010   .text:0000000000000cba _ZN12_GLOBAL__N_142TestStreamingDoubleWritesCorrectCharactersC2Ev
     /tmp/ccE2nyku.s:2886   .rodata:0000000000000560 _ZTVN12_GLOBAL__N_142TestStreamingDoubleWritesCorrectCharactersE
     /tmp/ccE2nyku.s:2041   .bss:0000000000000200 _ZN12_GLOBAL__N_150testStreamingDoubleWritesCorrectCharactersInstanceE
     /tmp/ccE2nyku.s:2041   .bss:0000000000000238 _ZN12_GLOBAL__N_143adderStreamingDoubleWritesCorrectCharactersE
     /tmp/ccE2nyku.s:2046   .text:0000000000000cf8 _ZNK12_GLOBAL__N_142TestStreamingDoubleWritesCorrectCharacters7RunImplEv
     /tmp/ccE2nyku.s:2234   .text:0000000000000e5e _ZN12_GLOBAL__N_143TestStreamingPointerWritesCorrectCharactersC2Ev
     /tmp/ccE2nyku.s:2812   .rodata:0000000000000520 _ZTVN12_GLOBAL__N_143TestStreamingPointerWritesCorrectCharactersE
     /tmp/ccE2nyku.s:2265   .bss:0000000000000240 _ZN12_GLOBAL__N_151testStreamingPointerWritesCorrectCharactersInstanceE
     /tmp/ccE2nyku.s:2265   .bss:0000000000000278 _ZN12_GLOBAL__N_144adderStreamingPointerWritesCorrectCharactersE
     /tmp/ccE2nyku.s:2280   .text:0000000000000e9c _ZNK12_GLOBAL__N_143TestStreamingPointerWritesCorrectCharacters7RunImplEv
     /tmp/ccE2nyku.s:2469   .text:0000000000000ffe _ZN12_GLOBAL__N_141TestStreamingSizeTWritesCorrectCharactersC2Ev
     /tmp/ccE2nyku.s:2738   .rodata:00000000000004e0 _ZTVN12_GLOBAL__N_141TestStreamingSizeTWritesCorrectCharactersE
     /tmp/ccE2nyku.s:2500   .bss:0000000000000280 _ZN12_GLOBAL__N_149testStreamingSizeTWritesCorrectCharactersInstanceE
     /tmp/ccE2nyku.s:2500   .bss:00000000000002b8 _ZN12_GLOBAL__N_142adderStreamingSizeTWritesCorrectCharactersE
     /tmp/ccE2nyku.s:2512   .text:000000000000103c _ZNK12_GLOBAL__N_141TestStreamingSizeTWritesCorrectCharacters7RunImplEv
     /tmp/ccE2nyku.s:4043   .rodata:00000000000008d0 _ZTIN12_GLOBAL__N_141TestStreamingSizeTWritesCorrectCharactersE
     /tmp/ccE2nyku.s:2747   .text:0000000000001182 _ZN12_GLOBAL__N_141TestStreamingSizeTWritesCorrectCharactersD1Ev
     /tmp/ccE2nyku.s:2784   .text:00000000000011bc _ZN12_GLOBAL__N_141TestStreamingSizeTWritesCorrectCharactersD0Ev
     /tmp/ccE2nyku.s:2747   .text:0000000000001182 _ZN12_GLOBAL__N_141TestStreamingSizeTWritesCorrectCharactersD2Ev
     /tmp/ccE2nyku.s:4036   .rodata:00000000000008b0 _ZTIN12_GLOBAL__N_143TestStreamingPointerWritesCorrectCharactersE
     /tmp/ccE2nyku.s:2821   .text:00000000000011e2 _ZN12_GLOBAL__N_143TestStreamingPointerWritesCorrectCharactersD1Ev
     /tmp/ccE2nyku.s:2858   .text:000000000000121c _ZN12_GLOBAL__N_143TestStreamingPointerWritesCorrectCharactersD0Ev
     /tmp/ccE2nyku.s:2821   .text:00000000000011e2 _ZN12_GLOBAL__N_143TestStreamingPointerWritesCorrectCharactersD2Ev
     /tmp/ccE2nyku.s:4029   .rodata:0000000000000890 _ZTIN12_GLOBAL__N_142TestStreamingDoubleWritesCorrectCharactersE
     /tmp/ccE2nyku.s:2895   .text:0000000000001242 _ZN12_GLOBAL__N_142TestStreamingDoubleWritesCorrectCharactersD1Ev
     /tmp/ccE2nyku.s:2932   .text:000000000000127c _ZN12_GLOBAL__N_142TestStreamingDoubleWritesCorrectCharactersD0Ev
     /tmp/ccE2nyku.s:2895   .text:0000000000001242 _ZN12_GLOBAL__N_142TestStreamingDoubleWritesCorrectCharactersD2Ev
     /tmp/ccE2nyku.s:4022   .rodata:0000000000000870 _ZTIN12_GLOBAL__N_141TestStreamingFloatWritesCorrectCharactersE
     /tmp/ccE2nyku.s:2969   .text:00000000000012a2 _ZN12_GLOBAL__N_141TestStreamingFloatWritesCorrectCharactersD1Ev
     /tmp/ccE2nyku.s:3006   .text:00000000000012dc _ZN12_GLOBAL__N_141TestStreamingFloatWritesCorrectCharactersD0Ev
     /tmp/ccE2nyku.s:2969   .text:00000000000012a2 _ZN12_GLOBAL__N_141TestStreamingFloatWritesCorrectCharactersD2Ev
     /tmp/ccE2nyku.s:4015   .rodata:0000000000000850 _ZTIN12_GLOBAL__N_148TestStreamingUnsignedLongWritesCorrectCharactersE
     /tmp/ccE2nyku.s:3043   .text:0000000000001302 _ZN12_GLOBAL__N_148TestStreamingUnsignedLongWritesCorrectCharactersD1Ev
     /tmp/ccE2nyku.s:3080   .text:000000000000133c _ZN12_GLOBAL__N_148TestStreamingUnsignedLongWritesCorrectCharactersD0Ev
     /tmp/ccE2nyku.s:3043   .text:0000000000001302 _ZN12_GLOBAL__N_148TestStreamingUnsignedLongWritesCorrectCharactersD2Ev
     /tmp/ccE2nyku.s:4008   .rodata:0000000000000830 _ZTIN12_GLOBAL__N_140TestStreamingLongWritesCorrectCharactersE
     /tmp/ccE2nyku.s:3117   .text:0000000000001362 _ZN12_GLOBAL__N_140TestStreamingLongWritesCorrectCharactersD1Ev
     /tmp/ccE2nyku.s:3154   .text:000000000000139c _ZN12_GLOBAL__N_140TestStreamingLongWritesCorrectCharactersD0Ev
     /tmp/ccE2nyku.s:3117   .text:0000000000001362 _ZN12_GLOBAL__N_140TestStreamingLongWritesCorrectCharactersD2Ev
     /tmp/ccE2nyku.s:4001   .rodata:0000000000000810 _ZTIN12_GLOBAL__N_147TestStreamingUnsignedIntWritesCorrectCharactersE
     /tmp/ccE2nyku.s:3191   .text:00000000000013c2 _ZN12_GLOBAL__N_147TestStreamingUnsignedIntWritesCorrectCharactersD1Ev
     /tmp/ccE2nyku.s:3228   .text:00000000000013fc _ZN12_GLOBAL__N_147TestStreamingUnsignedIntWritesCorrectCharactersD0Ev
     /tmp/ccE2nyku.s:3191   .text:00000000000013c2 _ZN12_GLOBAL__N_147TestStreamingUnsignedIntWritesCorrectCharactersD2Ev
     /tmp/ccE2nyku.s:3994   .rodata:00000000000007f0 _ZTIN12_GLOBAL__N_139TestStreamingIntWritesCorrectCharactersE
     /tmp/ccE2nyku.s:3265   .text:0000000000001422 _ZN12_GLOBAL__N_139TestStreamingIntWritesCorrectCharactersD1Ev
     /tmp/ccE2nyku.s:3302   .text:000000000000145c _ZN12_GLOBAL__N_139TestStreamingIntWritesCorrectCharactersD0Ev
     /tmp/ccE2nyku.s:3265   .text:0000000000001422 _ZN12_GLOBAL__N_139TestStreamingIntWritesCorrectCharactersD2Ev
     /tmp/ccE2nyku.s:3987   .rodata:00000000000007d0 _ZTIN12_GLOBAL__N_144TestStreamingMultipleTimesConcatenatesResultE
     /tmp/ccE2nyku.s:3339   .text:0000000000001482 _ZN12_GLOBAL__N_144TestStreamingMultipleTimesConcatenatesResultD1Ev
     /tmp/ccE2nyku.s:3376   .text:00000000000014bc _ZN12_GLOBAL__N_144TestStreamingMultipleTimesConcatenatesResultD0Ev
     /tmp/ccE2nyku.s:3339   .text:0000000000001482 _ZN12_GLOBAL__N_144TestStreamingMultipleTimesConcatenatesResultD2Ev
     /tmp/ccE2nyku.s:3980   .rodata:00000000000007b0 _ZTIN12_GLOBAL__N_133TestStreamingTextCopiesCharactersE
     /tmp/ccE2nyku.s:3413   .text:00000000000014e2 _ZN12_GLOBAL__N_133TestStreamingTextCopiesCharactersD1Ev
     /tmp/ccE2nyku.s:3450   .text:000000000000151c _ZN12_GLOBAL__N_133TestStreamingTextCopiesCharactersD0Ev
     /tmp/ccE2nyku.s:3413   .text:00000000000014e2 _ZN12_GLOBAL__N_133TestStreamingTextCopiesCharactersD2Ev
     /tmp/ccE2nyku.s:3973   .rodata:0000000000000790 _ZTIN12_GLOBAL__N_124TestDefaultIsEmptyStringE
     /tmp/ccE2nyku.s:3487   .text:0000000000001542 _ZN12_GLOBAL__N_124TestDefaultIsEmptyStringD1Ev
     /tmp/ccE2nyku.s:3524   .text:000000000000157c _ZN12_GLOBAL__N_124TestDefaultIsEmptyStringD0Ev
     /tmp/ccE2nyku.s:3487   .text:0000000000001542 _ZN12_GLOBAL__N_124TestDefaultIsEmptyStringD2Ev
     /tmp/ccE2nyku.s:3805   .rodata._ZTIN8UnitTest15MemoryOutStreamE:0000000000000000 _ZTIN8UnitTest15MemoryOutStreamE
     /tmp/ccE2nyku.s:3710   .text._ZN8UnitTest15MemoryOutStreamD0Ev:0000000000000000 _ZN8UnitTest15MemoryOutStreamD0Ev
     /tmp/ccE2nyku.s:3696   .text._ZN8UnitTest15MemoryOutStreamD1Ev:00000000000000c8 _ZTv0_n24_N8UnitTest15MemoryOutStreamD1Ev
     /tmp/ccE2nyku.s:3737   .text._ZN8UnitTest15MemoryOutStreamD0Ev:0000000000000026 _ZTv0_n24_N8UnitTest15MemoryOutStreamD0Ev
     /tmp/ccE2nyku.s:3765   .rodata._ZTCN8UnitTest15MemoryOutStreamE0_St19basic_ostringstreamIcSt11char_traitsIcESaIcEE:0000000000000000 _ZTCN8UnitTest15MemoryOutStreamE0_St19basic_ostringstreamIcSt11char_traitsIcESaIcEE
     /tmp/ccE2nyku.s:3782   .rodata._ZTCN8UnitTest15MemoryOutStreamE0_So:0000000000000000 _ZTCN8UnitTest15MemoryOutStreamE0_So
     /tmp/ccE2nyku.s:3798   .rodata._ZTSN8UnitTest15MemoryOutStreamE:0000000000000000 _ZTSN8UnitTest15MemoryOutStreamE
     /tmp/ccE2nyku.s:3811   .text:00000000000015a2 _Z41__static_initialization_and_destruction_0ii
     /tmp/ccE2nyku.s:4100   .rodata:0000000000000c00 _ZTSN12_GLOBAL__N_124TestDefaultIsEmptyStringE
     /tmp/ccE2nyku.s:4095   .rodata:0000000000000bc0 _ZTSN12_GLOBAL__N_133TestStreamingTextCopiesCharactersE
     /tmp/ccE2nyku.s:4090   .rodata:0000000000000b80 _ZTSN12_GLOBAL__N_144TestStreamingMultipleTimesConcatenatesResultE
     /tmp/ccE2nyku.s:4085   .rodata:0000000000000b20 _ZTSN12_GLOBAL__N_139TestStreamingIntWritesCorrectCharactersE
     /tmp/ccE2nyku.s:4080   .rodata:0000000000000ac0 _ZTSN12_GLOBAL__N_147TestStreamingUnsignedIntWritesCorrectCharactersE
     /tmp/ccE2nyku.s:4075   .rodata:0000000000000a60 _ZTSN12_GLOBAL__N_140TestStreamingLongWritesCorrectCharactersE
     /tmp/ccE2nyku.s:4070   .rodata:0000000000000a00 _ZTSN12_GLOBAL__N_148TestStreamingUnsignedLongWritesCorrectCharactersE
     /tmp/ccE2nyku.s:4065   .rodata:00000000000009c0 _ZTSN12_GLOBAL__N_141TestStreamingFloatWritesCorrectCharactersE
     /tmp/ccE2nyku.s:4060   .rodata:0000000000000980 _ZTSN12_GLOBAL__N_142TestStreamingDoubleWritesCorrectCharactersE
     /tmp/ccE2nyku.s:4055   .rodata:0000000000000940 _ZTSN12_GLOBAL__N_143TestStreamingPointerWritesCorrectCharactersE
     /tmp/ccE2nyku.s:4050   .rodata:0000000000000900 _ZTSN12_GLOBAL__N_141TestStreamingSizeTWritesCorrectCharactersE
     /tmp/ccE2nyku.s:4104   .text:0000000000001810 _GLOBAL__sub_I_TestMemoryOutStream.cpp
     /tmp/ccE2nyku.s:4130   .rodata:0000000000000c30 _ZZL18__gthread_active_pvE20__gthread_active_ptr

UNDEFINED SYMBOLS
__gxx_personality_v0
_ZNSt9basic_iosIcSt11char_traitsIcEEC2Ev
_ZNSt19basic_ostringstreamIcSt11char_traitsIcESaIcEEC2ESt13_Ios_Openmode
_ZNSsC1Ev
_ZNSt19basic_ostringstreamIcSt11char_traitsIcESaIcEED2Ev
_ZNSt9basic_iosIcSt11char_traitsIcEED2Ev
_Unwind_Resume
_ZN8UnitTest4TestC2EPKcS2_S2_i
_ZNK8UnitTest15MemoryOutStream7GetTextEv
_ZN8UnitTest11CurrentTest7DetailsEv
_ZN8UnitTest11TestDetailsC1ERKS0_i
_ZN8UnitTest11CurrentTest7ResultsEv
_ZN8UnitTest11TestResults13OnTestFailureERKNS_11TestDetailsEPKc
_ZN8UnitTest10CheckEqualERNS_11TestResultsEPKcS3_RKNS_11TestDetailsE
__cxa_end_catch
__cxa_begin_catch
__stack_chk_fail
_ZStlsISt11char_traitsIcEERSt13basic_ostreamIcT_ES5_PKc
_ZNSolsEi
_ZNSolsEj
_ZNSolsEl
_ZNSolsEm
_ZNSolsEf
strstr
_ZNSolsEd
_ZNSolsEPKv
_ZN8UnitTest4TestD2Ev
_ZdlPv
_ZNSsD1Ev
_ZTISt19basic_ostringstreamIcSt11char_traitsIcESaIcEE
_ZTISo
_ZTVN10__cxxabiv120__si_class_type_infoE
__dso_handle
__cxa_atexit
_ZN8UnitTest4Test11GetTestListEv
_ZN8UnitTest9ListAdderC1ERNS_8TestListEPNS_4TestE
_ZTIN8UnitTest4TestE
__pthread_key_create
