   1              		.file	"TestTestRunner.cpp"
   2              		.text
   3              	.Ltext0:
   4              		.section	.rodata
   5              	.LC0:
   6 0000 44656661 		.string	"DefaultSuite"
   6      756C7453 
   6      75697465 
   6      00
   7              		.section	.text._ZN13UnitTestSuite12GetSuiteNameEv,"axG",@progbits,_ZN13UnitTestSuite12GetSuiteName
   8              		.weak	_ZN13UnitTestSuite12GetSuiteNameEv
  10              	_ZN13UnitTestSuite12GetSuiteNameEv:
  11              	.LFB0:
  12              		.file 1 "../TestSuite.h"
   1:../TestSuite.h **** #ifndef UNITTEST_TESTSUITE_H
   2:../TestSuite.h **** #define UNITTEST_TESTSUITE_H
   3:../TestSuite.h **** 
   4:../TestSuite.h **** namespace UnitTestSuite {
   5:../TestSuite.h **** 
   6:../TestSuite.h ****     inline char const* GetSuiteName ()
   7:../TestSuite.h ****     {
  13              		.loc 1 7 0
  14              		.cfi_startproc
  15 0000 55       		pushq	%rbp
  16              		.cfi_def_cfa_offset 16
  17              		.cfi_offset 6, -16
  18 0001 4889E5   		movq	%rsp, %rbp
  19              		.cfi_def_cfa_register 6
   8:../TestSuite.h ****         return "DefaultSuite";
  20              		.loc 1 8 0
  21 0004 B8000000 		movl	$.LC0, %eax
  21      00
   9:../TestSuite.h ****     }
  22              		.loc 1 9 0
  23 0009 5D       		popq	%rbp
  24              		.cfi_def_cfa 7, 8
  25 000a C3       		ret
  26              		.cfi_endproc
  27              	.LFE0:
  29              		.section	.text._ZN8UnitTest15MemoryOutStreamC1Ev,"axG",@progbits,_ZN8UnitTest15MemoryOutStreamC1Ev
  30              		.align 2
  31              		.weak	_ZN8UnitTest15MemoryOutStreamC1Ev
  33              	_ZN8UnitTest15MemoryOutStreamC1Ev:
  34              	.LFB1053:
  35              		.file 2 "../MemoryOutStream.h"
   1:../MemoryOutStream.h **** #ifndef UNITTEST_MEMORYOUTSTREAM_H
   2:../MemoryOutStream.h **** #define UNITTEST_MEMORYOUTSTREAM_H
   3:../MemoryOutStream.h **** 
   4:../MemoryOutStream.h **** #include "Config.h"
   5:../MemoryOutStream.h **** 
   6:../MemoryOutStream.h **** #ifndef UNITTEST_USE_CUSTOM_STREAMS
   7:../MemoryOutStream.h **** 
   8:../MemoryOutStream.h **** #include <sstream>
   9:../MemoryOutStream.h **** 
  10:../MemoryOutStream.h **** namespace UnitTest
  11:../MemoryOutStream.h **** {
  12:../MemoryOutStream.h **** 
  13:../MemoryOutStream.h **** class MemoryOutStream : public std::ostringstream
  14:../MemoryOutStream.h **** {
  15:../MemoryOutStream.h **** public:
  16:../MemoryOutStream.h ****     MemoryOutStream() {}
  36              		.loc 2 16 0
  37              		.cfi_startproc
  38              		.cfi_personality 0x3,__gxx_personality_v0
  39              		.cfi_lsda 0x3,.LLSDA1053
  40 0000 55       		pushq	%rbp
  41              		.cfi_def_cfa_offset 16
  42              		.cfi_offset 6, -16
  43 0001 4889E5   		movq	%rsp, %rbp
  44              		.cfi_def_cfa_register 6
  45 0004 53       		pushq	%rbx
  46 0005 4883EC18 		subq	$24, %rsp
  47              		.cfi_offset 3, -24
  48 0009 48897DE8 		movq	%rdi, -24(%rbp)
  49              	.LBB2:
  50              		.loc 2 16 0
  51 000d 488B45E8 		movq	-24(%rbp), %rax
  52 0011 4883C060 		addq	$96, %rax
  53 0015 4889C7   		movq	%rax, %rdi
  54              	.LEHB0:
  55 0018 E8000000 		call	_ZNSt9basic_iosIcSt11char_traitsIcEEC2Ev
  55      00
  56              	.LEHE0:
  57 001d B9000000 		movl	$_ZTTN8UnitTest15MemoryOutStreamE+8, %ecx
  57      00
  58 0022 488B45E8 		movq	-24(%rbp), %rax
  59 0026 BA100000 		movl	$16, %edx
  59      00
  60 002b 4889CE   		movq	%rcx, %rsi
  61 002e 4889C7   		movq	%rax, %rdi
  62              	.LEHB1:
  63 0031 E8000000 		call	_ZNSt19basic_ostringstreamIcSt11char_traitsIcESaIcEEC2ESt13_Ios_Openmode
  63      00
  64              	.LEHE1:
  65              		.loc 2 16 0 is_stmt 0 discriminator 9
  66 0036 BA000000 		movl	$_ZTVN8UnitTest15MemoryOutStreamE+24, %edx
  66      00
  67 003b 488B45E8 		movq	-24(%rbp), %rax
  68 003f 488910   		movq	%rdx, (%rax)
  69 0042 BA600000 		movl	$96, %edx
  69      00
  70 0047 488B45E8 		movq	-24(%rbp), %rax
  71 004b 4801D0   		addq	%rdx, %rax
  72 004e BA000000 		movl	$_ZTVN8UnitTest15MemoryOutStreamE+64, %edx
  72      00
  73 0053 488910   		movq	%rdx, (%rax)
  74 0056 488B45E8 		movq	-24(%rbp), %rax
  75 005a 4883C058 		addq	$88, %rax
  76 005e 4889C7   		movq	%rax, %rdi
  77              	.LEHB2:
  78 0061 E8000000 		call	_ZNSsC1Ev
  78      00
  79              	.LEHE2:
  80              	.LBE2:
  81              		.loc 2 16 0
  82 0066 EB37     		jmp	.L8
  83              	.L6:
  84 0068 4889C3   		movq	%rax, %rbx
  85              	.LBB3:
  86 006b BA000000 		movl	$_ZTTN8UnitTest15MemoryOutStreamE+8, %edx
  86      00
  87 0070 488B45E8 		movq	-24(%rbp), %rax
  88 0074 4889D6   		movq	%rdx, %rsi
  89 0077 4889C7   		movq	%rax, %rdi
  90 007a E8000000 		call	_ZNSt19basic_ostringstreamIcSt11char_traitsIcESaIcEED2Ev
  90      00
  91 007f EB03     		jmp	.L5
  92              	.L7:
  93 0081 4889C3   		movq	%rax, %rbx
  94              	.L5:
  95              		.loc 2 16 0 discriminator 28
  96 0084 488B45E8 		movq	-24(%rbp), %rax
  97 0088 4883C060 		addq	$96, %rax
  98 008c 4889C7   		movq	%rax, %rdi
  99 008f E8000000 		call	_ZNSt9basic_iosIcSt11char_traitsIcEED2Ev
  99      00
 100 0094 4889D8   		movq	%rbx, %rax
 101 0097 4889C7   		movq	%rax, %rdi
 102              	.LEHB3:
 103 009a E8000000 		call	_Unwind_Resume
 103      00
 104              	.LEHE3:
 105              	.L8:
 106              	.LBE3:
 107              		.loc 2 16 0
 108 009f 4883C418 		addq	$24, %rsp
 109 00a3 5B       		popq	%rbx
 110 00a4 5D       		popq	%rbp
 111              		.cfi_def_cfa 7, 8
 112 00a5 C3       		ret
 113              		.cfi_endproc
 114              	.LFE1053:
 115              		.globl	__gxx_personality_v0
 116              		.section	.gcc_except_table._ZN8UnitTest15MemoryOutStreamC1Ev,"aG",@progbits,_ZN8UnitTest15MemoryOu
 117              	.LLSDA1053:
 118 0000 FF       		.byte	0xff
 119 0001 FF       		.byte	0xff
 120 0002 01       		.byte	0x1
 121 0003 12       		.uleb128 .LLSDACSE1053-.LLSDACSB1053
 122              	.LLSDACSB1053:
 123 0004 18       		.uleb128 .LEHB0-.LFB1053
 124 0005 05       		.uleb128 .LEHE0-.LEHB0
 125 0006 00       		.uleb128 0
 126 0007 00       		.uleb128 0
 127 0008 31       		.uleb128 .LEHB1-.LFB1053
 128 0009 05       		.uleb128 .LEHE1-.LEHB1
 129 000a 8101     		.uleb128 .L7-.LFB1053
 130 000c 00       		.uleb128 0
 131 000d 61       		.uleb128 .LEHB2-.LFB1053
 132 000e 05       		.uleb128 .LEHE2-.LEHB2
 133 000f 68       		.uleb128 .L6-.LFB1053
 134 0010 00       		.uleb128 0
 135 0011 9A01     		.uleb128 .LEHB3-.LFB1053
 136 0013 05       		.uleb128 .LEHE3-.LEHB3
 137 0014 00       		.uleb128 0
 138 0015 00       		.uleb128 0
 139              	.LLSDACSE1053:
 140              		.section	.text._ZN8UnitTest15MemoryOutStreamC1Ev,"axG",@progbits,_ZN8UnitTest15MemoryOutStreamC1Ev
 142              		.section	.text._ZNK8UnitTest4TrueclEPKNS_4TestE,"axG",@progbits,_ZNK8UnitTest4TrueclEPKNS_4TestE,c
 143              		.align 2
 144              		.weak	_ZNK8UnitTest4TrueclEPKNS_4TestE
 146              	_ZNK8UnitTest4TrueclEPKNS_4TestE:
 147              	.LFB1063:
 148              		.file 3 "../TestRunner.h"
   1:../TestRunner.h **** #ifndef UNITTEST_TESTRUNNER_H
   2:../TestRunner.h **** #define UNITTEST_TESTRUNNER_H
   3:../TestRunner.h **** 
   4:../TestRunner.h **** #include "Test.h"
   5:../TestRunner.h **** #include "TestList.h"
   6:../TestRunner.h **** #include "CurrentTest.h"
   7:../TestRunner.h **** 
   8:../TestRunner.h **** namespace UnitTest {
   9:../TestRunner.h **** 
  10:../TestRunner.h **** class TestReporter;
  11:../TestRunner.h **** class TestResults;
  12:../TestRunner.h **** class Timer;
  13:../TestRunner.h **** 
  14:../TestRunner.h **** int RunAllTests();
  15:../TestRunner.h **** 
  16:../TestRunner.h **** struct True
  17:../TestRunner.h **** {
  18:../TestRunner.h **** 	bool operator()(const Test* const) const
 149              		.loc 3 18 0 is_stmt 1
 150              		.cfi_startproc
 151 0000 55       		pushq	%rbp
 152              		.cfi_def_cfa_offset 16
 153              		.cfi_offset 6, -16
 154 0001 4889E5   		movq	%rsp, %rbp
 155              		.cfi_def_cfa_register 6
 156 0004 48897DF8 		movq	%rdi, -8(%rbp)
 157 0008 488975F0 		movq	%rsi, -16(%rbp)
  19:../TestRunner.h **** 	{
  20:../TestRunner.h **** 		return true;	
 158              		.loc 3 20 0
 159 000c B8010000 		movl	$1, %eax
 159      00
  21:../TestRunner.h **** 	}
 160              		.loc 3 21 0
 161 0011 5D       		popq	%rbp
 162              		.cfi_def_cfa 7, 8
 163 0012 C3       		ret
 164              		.cfi_endproc
 165              	.LFE1063:
 167              		.section	.text._ZN8UnitTest12TestReporterC2Ev,"axG",@progbits,_ZN8UnitTest12TestReporterC5Ev,comda
 168              		.align 2
 169              		.weak	_ZN8UnitTest12TestReporterC2Ev
 171              	_ZN8UnitTest12TestReporterC2Ev:
 172              	.LFB1067:
 173              		.file 4 "../TestReporter.h"
   1:../TestReporter.h **** #ifndef UNITTEST_TESTREPORTER_H
   2:../TestReporter.h **** #define UNITTEST_TESTREPORTER_H
   3:../TestReporter.h **** 
   4:../TestReporter.h **** namespace UnitTest {
   5:../TestReporter.h **** 
   6:../TestReporter.h **** class TestDetails;
   7:../TestReporter.h **** 
   8:../TestReporter.h **** class TestReporter
 174              		.loc 4 8 0
 175              		.cfi_startproc
 176 0000 55       		pushq	%rbp
 177              		.cfi_def_cfa_offset 16
 178              		.cfi_offset 6, -16
 179 0001 4889E5   		movq	%rsp, %rbp
 180              		.cfi_def_cfa_register 6
 181 0004 48897DF8 		movq	%rdi, -8(%rbp)
 182              	.LBB4:
 183              		.loc 4 8 0
 184 0008 488B45F8 		movq	-8(%rbp), %rax
 185 000c 48C70000 		movq	$_ZTVN8UnitTest12TestReporterE+16, (%rax)
 185      000000
 186              	.LBE4:
 187 0013 5D       		popq	%rbp
 188              		.cfi_def_cfa 7, 8
 189 0014 C3       		ret
 190              		.cfi_endproc
 191              	.LFE1067:
 193              		.weak	_ZN8UnitTest12TestReporterC1Ev
 194              		.set	_ZN8UnitTest12TestReporterC1Ev,_ZN8UnitTest12TestReporterC2Ev
 195              		.section	.text._ZN17RecordingReporterC2Ev,"axG",@progbits,_ZN17RecordingReporterC5Ev,comdat
 196              		.align 2
 197              		.weak	_ZN17RecordingReporterC2Ev
 199              	_ZN17RecordingReporterC2Ev:
 200              	.LFB1069:
 201              		.file 5 "RecordingReporter.h"
   1:RecordingReporter.h **** #ifndef UNITTEST_RECORDINGREPORTER_H
   2:RecordingReporter.h **** #define UNITTEST_RECORDINGREPORTER_H
   3:RecordingReporter.h **** 
   4:RecordingReporter.h **** #include "../TestReporter.h"
   5:RecordingReporter.h **** #include <cstring>
   6:RecordingReporter.h **** 
   7:RecordingReporter.h **** #include "../TestDetails.h"
   8:RecordingReporter.h **** 
   9:RecordingReporter.h **** struct RecordingReporter : public UnitTest::TestReporter
  10:RecordingReporter.h **** {
  11:RecordingReporter.h **** private:
  12:RecordingReporter.h ****     enum { kMaxStringLength = 256 };
  13:RecordingReporter.h **** 
  14:RecordingReporter.h **** public:
  15:RecordingReporter.h ****     RecordingReporter()
 202              		.loc 5 15 0
 203              		.cfi_startproc
 204 0000 55       		pushq	%rbp
 205              		.cfi_def_cfa_offset 16
 206              		.cfi_offset 6, -16
 207 0001 4889E5   		movq	%rsp, %rbp
 208              		.cfi_def_cfa_register 6
 209 0004 4883EC10 		subq	$16, %rsp
 210 0008 48897DF8 		movq	%rdi, -8(%rbp)
 211              	.LBB5:
  16:RecordingReporter.h ****         : testRunCount(0)
  17:RecordingReporter.h ****         , testFailedCount(0)
  18:RecordingReporter.h ****         , lastFailedLine(0)
  19:RecordingReporter.h ****         , testFinishedCount(0)
  20:RecordingReporter.h ****         , lastFinishedTestTime(0)
  21:RecordingReporter.h ****         , summaryTotalTestCount(0)
  22:RecordingReporter.h ****         , summaryFailedTestCount(0)
  23:RecordingReporter.h ****         , summaryFailureCount(0)
  24:RecordingReporter.h ****         , summarySecondsElapsed(0)
 212              		.loc 5 24 0
 213 000c 488B45F8 		movq	-8(%rbp), %rax
 214 0010 4889C7   		movq	%rax, %rdi
 215 0013 E8000000 		call	_ZN8UnitTest12TestReporterC2Ev
 215      00
 216 0018 488B45F8 		movq	-8(%rbp), %rax
 217 001c 48C70000 		movq	$_ZTV17RecordingReporter+16, (%rax)
 217      000000
 218 0023 488B45F8 		movq	-8(%rbp), %rax
 219 0027 C7400800 		movl	$0, 8(%rax)
 219      000000
 220 002e 488B45F8 		movq	-8(%rbp), %rax
 221 0032 C7800C02 		movl	$0, 524(%rax)
 221      00000000 
 221      0000
 222 003c 488B45F8 		movq	-8(%rbp), %rax
 223 0040 C7801003 		movl	$0, 784(%rax)
 223      00000000 
 223      0000
 224 004a 488B45F8 		movq	-8(%rbp), %rax
 225 004e C7801406 		movl	$0, 1556(%rax)
 225      00000000 
 225      0000
 226 0058 488B55F8 		movq	-8(%rbp), %rdx
 227 005c 8B050000 		movl	.LC1(%rip), %eax
 227      0000
 228 0062 89821808 		movl	%eax, 2072(%rdx)
 228      0000
 229 0068 488B45F8 		movq	-8(%rbp), %rax
 230 006c C7801C08 		movl	$0, 2076(%rax)
 230      00000000 
 230      0000
 231 0076 488B45F8 		movq	-8(%rbp), %rax
 232 007a C7802008 		movl	$0, 2080(%rax)
 232      00000000 
 232      0000
 233 0084 488B45F8 		movq	-8(%rbp), %rax
 234 0088 C7802408 		movl	$0, 2084(%rax)
 234      00000000 
 234      0000
 235 0092 488B55F8 		movq	-8(%rbp), %rdx
 236 0096 8B050000 		movl	.LC1(%rip), %eax
 236      0000
 237 009c 89822808 		movl	%eax, 2088(%rdx)
 237      0000
  25:RecordingReporter.h ****     {
  26:RecordingReporter.h ****         lastStartedSuite[0] = '\0';
 238              		.loc 5 26 0
 239 00a2 488B45F8 		movq	-8(%rbp), %rax
 240 00a6 C6400C00 		movb	$0, 12(%rax)
  27:RecordingReporter.h ****         lastStartedTest[0] = '\0';
 241              		.loc 5 27 0
 242 00aa 488B45F8 		movq	-8(%rbp), %rax
 243 00ae C6800C01 		movb	$0, 268(%rax)
 243      000000
  28:RecordingReporter.h ****         lastFailedFile[0] = '\0';
 244              		.loc 5 28 0
 245 00b5 488B45F8 		movq	-8(%rbp), %rax
 246 00b9 C6801002 		movb	$0, 528(%rax)
 246      000000
  29:RecordingReporter.h ****         lastFailedSuite[0] = '\0';
 247              		.loc 5 29 0
 248 00c0 488B45F8 		movq	-8(%rbp), %rax
 249 00c4 C6801403 		movb	$0, 788(%rax)
 249      000000
  30:RecordingReporter.h ****         lastFailedTest[0] = '\0';
 250              		.loc 5 30 0
 251 00cb 488B45F8 		movq	-8(%rbp), %rax
 252 00cf C6801404 		movb	$0, 1044(%rax)
 252      000000
  31:RecordingReporter.h ****         lastFailedMessage[0] = '\0';
 253              		.loc 5 31 0
 254 00d6 488B45F8 		movq	-8(%rbp), %rax
 255 00da C6801405 		movb	$0, 1300(%rax)
 255      000000
  32:RecordingReporter.h ****         lastFinishedSuite[0] = '\0';
 256              		.loc 5 32 0
 257 00e1 488B45F8 		movq	-8(%rbp), %rax
 258 00e5 C6801806 		movb	$0, 1560(%rax)
 258      000000
  33:RecordingReporter.h ****         lastFinishedTest[0] = '\0';
 259              		.loc 5 33 0
 260 00ec 488B45F8 		movq	-8(%rbp), %rax
 261 00f0 C6801807 		movb	$0, 1816(%rax)
 261      000000
 262              	.LBE5:
  34:RecordingReporter.h ****     }
 263              		.loc 5 34 0
 264 00f7 C9       		leave
 265              		.cfi_def_cfa 7, 8
 266 00f8 C3       		ret
 267              		.cfi_endproc
 268              	.LFE1069:
 270              		.weak	_ZN17RecordingReporterC1Ev
 271              		.set	_ZN17RecordingReporterC1Ev,_ZN17RecordingReporterC2Ev
 272              		.section	.text._ZN17RecordingReporter15ReportTestStartERKN8UnitTest11TestDetailsE,"axG",@progbits,
 273              		.align 2
 274              		.weak	_ZN17RecordingReporter15ReportTestStartERKN8UnitTest11TestDetailsE
 276              	_ZN17RecordingReporter15ReportTestStartERKN8UnitTest11TestDetailsE:
 277              	.LFB1071:
  35:RecordingReporter.h **** 
  36:RecordingReporter.h ****     virtual void ReportTestStart(UnitTest::TestDetails const& test)
 278              		.loc 5 36 0
 279              		.cfi_startproc
 280 0000 55       		pushq	%rbp
 281              		.cfi_def_cfa_offset 16
 282              		.cfi_offset 6, -16
 283 0001 4889E5   		movq	%rsp, %rbp
 284              		.cfi_def_cfa_register 6
 285 0004 4883EC10 		subq	$16, %rsp
 286 0008 48897DF8 		movq	%rdi, -8(%rbp)
 287 000c 488975F0 		movq	%rsi, -16(%rbp)
 288              	.LBB6:
  37:RecordingReporter.h ****     {
  38:RecordingReporter.h **** 		using namespace std;
  39:RecordingReporter.h **** 
  40:RecordingReporter.h ****         ++testRunCount;
 289              		.loc 5 40 0
 290 0010 488B45F8 		movq	-8(%rbp), %rax
 291 0014 8B4008   		movl	8(%rax), %eax
 292 0017 8D5001   		leal	1(%rax), %edx
 293 001a 488B45F8 		movq	-8(%rbp), %rax
 294 001e 895008   		movl	%edx, 8(%rax)
  41:RecordingReporter.h ****         strcpy(lastStartedSuite, test.suiteName);
 295              		.loc 5 41 0
 296 0021 488B45F0 		movq	-16(%rbp), %rax
 297 0025 488B00   		movq	(%rax), %rax
 298 0028 488B55F8 		movq	-8(%rbp), %rdx
 299 002c 4883C20C 		addq	$12, %rdx
 300 0030 4889C6   		movq	%rax, %rsi
 301 0033 4889D7   		movq	%rdx, %rdi
 302 0036 E8000000 		call	strcpy
 302      00
  42:RecordingReporter.h ****         strcpy(lastStartedTest, test.testName);
 303              		.loc 5 42 0
 304 003b 488B45F0 		movq	-16(%rbp), %rax
 305 003f 488B4008 		movq	8(%rax), %rax
 306 0043 488B55F8 		movq	-8(%rbp), %rdx
 307 0047 4881C20C 		addq	$268, %rdx
 307      010000
 308 004e 4889C6   		movq	%rax, %rsi
 309 0051 4889D7   		movq	%rdx, %rdi
 310 0054 E8000000 		call	strcpy
 310      00
 311              	.LBE6:
  43:RecordingReporter.h ****     }
 312              		.loc 5 43 0
 313 0059 C9       		leave
 314              		.cfi_def_cfa 7, 8
 315 005a C3       		ret
 316              		.cfi_endproc
 317              	.LFE1071:
 319              		.section	.text._ZN17RecordingReporter13ReportFailureERKN8UnitTest11TestDetailsEPKc,"axG",@progbits
 320              		.align 2
 321              		.weak	_ZN17RecordingReporter13ReportFailureERKN8UnitTest11TestDetailsEPKc
 323              	_ZN17RecordingReporter13ReportFailureERKN8UnitTest11TestDetailsEPKc:
 324              	.LFB1072:
  44:RecordingReporter.h **** 
  45:RecordingReporter.h ****     virtual void ReportFailure(UnitTest::TestDetails const& test, char const* failure)
 325              		.loc 5 45 0
 326              		.cfi_startproc
 327 0000 55       		pushq	%rbp
 328              		.cfi_def_cfa_offset 16
 329              		.cfi_offset 6, -16
 330 0001 4889E5   		movq	%rsp, %rbp
 331              		.cfi_def_cfa_register 6
 332 0004 4883EC20 		subq	$32, %rsp
 333 0008 48897DF8 		movq	%rdi, -8(%rbp)
 334 000c 488975F0 		movq	%rsi, -16(%rbp)
 335 0010 488955E8 		movq	%rdx, -24(%rbp)
 336              	.LBB7:
  46:RecordingReporter.h ****     {
  47:RecordingReporter.h **** 		using namespace std;
  48:RecordingReporter.h **** 
  49:RecordingReporter.h **** 		++testFailedCount;
 337              		.loc 5 49 0
 338 0014 488B45F8 		movq	-8(%rbp), %rax
 339 0018 8B800C02 		movl	524(%rax), %eax
 339      0000
 340 001e 8D5001   		leal	1(%rax), %edx
 341 0021 488B45F8 		movq	-8(%rbp), %rax
 342 0025 89900C02 		movl	%edx, 524(%rax)
 342      0000
  50:RecordingReporter.h ****         strcpy(lastFailedFile, test.filename);
 343              		.loc 5 50 0
 344 002b 488B45F0 		movq	-16(%rbp), %rax
 345 002f 488B4010 		movq	16(%rax), %rax
 346 0033 488B55F8 		movq	-8(%rbp), %rdx
 347 0037 4881C210 		addq	$528, %rdx
 347      020000
 348 003e 4889C6   		movq	%rax, %rsi
 349 0041 4889D7   		movq	%rdx, %rdi
 350 0044 E8000000 		call	strcpy
 350      00
  51:RecordingReporter.h ****         lastFailedLine = test.lineNumber;
 351              		.loc 5 51 0
 352 0049 488B45F0 		movq	-16(%rbp), %rax
 353 004d 8B5018   		movl	24(%rax), %edx
 354 0050 488B45F8 		movq	-8(%rbp), %rax
 355 0054 89901003 		movl	%edx, 784(%rax)
 355      0000
  52:RecordingReporter.h ****         strcpy(lastFailedSuite, test.suiteName);
 356              		.loc 5 52 0
 357 005a 488B45F0 		movq	-16(%rbp), %rax
 358 005e 488B00   		movq	(%rax), %rax
 359 0061 488B55F8 		movq	-8(%rbp), %rdx
 360 0065 4881C214 		addq	$788, %rdx
 360      030000
 361 006c 4889C6   		movq	%rax, %rsi
 362 006f 4889D7   		movq	%rdx, %rdi
 363 0072 E8000000 		call	strcpy
 363      00
  53:RecordingReporter.h ****         strcpy(lastFailedTest, test.testName);
 364              		.loc 5 53 0
 365 0077 488B45F0 		movq	-16(%rbp), %rax
 366 007b 488B4008 		movq	8(%rax), %rax
 367 007f 488B55F8 		movq	-8(%rbp), %rdx
 368 0083 4881C214 		addq	$1044, %rdx
 368      040000
 369 008a 4889C6   		movq	%rax, %rsi
 370 008d 4889D7   		movq	%rdx, %rdi
 371 0090 E8000000 		call	strcpy
 371      00
  54:RecordingReporter.h ****         strcpy(lastFailedMessage, failure);
 372              		.loc 5 54 0
 373 0095 488B45F8 		movq	-8(%rbp), %rax
 374 0099 488D9014 		leaq	1300(%rax), %rdx
 374      050000
 375 00a0 488B45E8 		movq	-24(%rbp), %rax
 376 00a4 4889C6   		movq	%rax, %rsi
 377 00a7 4889D7   		movq	%rdx, %rdi
 378 00aa E8000000 		call	strcpy
 378      00
 379              	.LBE7:
  55:RecordingReporter.h ****     }
 380              		.loc 5 55 0
 381 00af C9       		leave
 382              		.cfi_def_cfa 7, 8
 383 00b0 C3       		ret
 384              		.cfi_endproc
 385              	.LFE1072:
 387              		.section	.text._ZN17RecordingReporter16ReportTestFinishERKN8UnitTest11TestDetailsEf,"axG",@progbit
 388              		.align 2
 389              		.weak	_ZN17RecordingReporter16ReportTestFinishERKN8UnitTest11TestDetailsEf
 391              	_ZN17RecordingReporter16ReportTestFinishERKN8UnitTest11TestDetailsEf:
 392              	.LFB1073:
  56:RecordingReporter.h **** 
  57:RecordingReporter.h ****     virtual void ReportTestFinish(UnitTest::TestDetails const& test, float testDuration)
 393              		.loc 5 57 0
 394              		.cfi_startproc
 395 0000 55       		pushq	%rbp
 396              		.cfi_def_cfa_offset 16
 397              		.cfi_offset 6, -16
 398 0001 4889E5   		movq	%rsp, %rbp
 399              		.cfi_def_cfa_register 6
 400 0004 4883EC20 		subq	$32, %rsp
 401 0008 48897DF8 		movq	%rdi, -8(%rbp)
 402 000c 488975F0 		movq	%rsi, -16(%rbp)
 403 0010 F30F1145 		movss	%xmm0, -20(%rbp)
 403      EC
 404              	.LBB8:
  58:RecordingReporter.h ****     {
  59:RecordingReporter.h **** 		using namespace std;
  60:RecordingReporter.h **** 
  61:RecordingReporter.h **** 		++testFinishedCount;
 405              		.loc 5 61 0
 406 0015 488B45F8 		movq	-8(%rbp), %rax
 407 0019 8B801406 		movl	1556(%rax), %eax
 407      0000
 408 001f 8D5001   		leal	1(%rax), %edx
 409 0022 488B45F8 		movq	-8(%rbp), %rax
 410 0026 89901406 		movl	%edx, 1556(%rax)
 410      0000
  62:RecordingReporter.h ****         strcpy(lastFinishedSuite, test.suiteName);
 411              		.loc 5 62 0
 412 002c 488B45F0 		movq	-16(%rbp), %rax
 413 0030 488B00   		movq	(%rax), %rax
 414 0033 488B55F8 		movq	-8(%rbp), %rdx
 415 0037 4881C218 		addq	$1560, %rdx
 415      060000
 416 003e 4889C6   		movq	%rax, %rsi
 417 0041 4889D7   		movq	%rdx, %rdi
 418 0044 E8000000 		call	strcpy
 418      00
  63:RecordingReporter.h ****         strcpy(lastFinishedTest, test.testName);
 419              		.loc 5 63 0
 420 0049 488B45F0 		movq	-16(%rbp), %rax
 421 004d 488B4008 		movq	8(%rax), %rax
 422 0051 488B55F8 		movq	-8(%rbp), %rdx
 423 0055 4881C218 		addq	$1816, %rdx
 423      070000
 424 005c 4889C6   		movq	%rax, %rsi
 425 005f 4889D7   		movq	%rdx, %rdi
 426 0062 E8000000 		call	strcpy
 426      00
  64:RecordingReporter.h ****         lastFinishedTestTime = testDuration;
 427              		.loc 5 64 0
 428 0067 488B55F8 		movq	-8(%rbp), %rdx
 429 006b 8B45EC   		movl	-20(%rbp), %eax
 430 006e 89821808 		movl	%eax, 2072(%rdx)
 430      0000
 431              	.LBE8:
  65:RecordingReporter.h ****     }
 432              		.loc 5 65 0
 433 0074 C9       		leave
 434              		.cfi_def_cfa 7, 8
 435 0075 C3       		ret
 436              		.cfi_endproc
 437              	.LFE1073:
 439              		.section	.text._ZN17RecordingReporter13ReportSummaryEiiif,"axG",@progbits,_ZN17RecordingReporter13
 440              		.align 2
 441              		.weak	_ZN17RecordingReporter13ReportSummaryEiiif
 443              	_ZN17RecordingReporter13ReportSummaryEiiif:
 444              	.LFB1074:
  66:RecordingReporter.h **** 
  67:RecordingReporter.h ****     virtual void ReportSummary(int totalTestCount, int failedTestCount, int failureCount, float sec
 445              		.loc 5 67 0
 446              		.cfi_startproc
 447 0000 55       		pushq	%rbp
 448              		.cfi_def_cfa_offset 16
 449              		.cfi_offset 6, -16
 450 0001 4889E5   		movq	%rsp, %rbp
 451              		.cfi_def_cfa_register 6
 452 0004 48897DF8 		movq	%rdi, -8(%rbp)
 453 0008 8975F4   		movl	%esi, -12(%rbp)
 454 000b 8955F0   		movl	%edx, -16(%rbp)
 455 000e 894DEC   		movl	%ecx, -20(%rbp)
 456 0011 F30F1145 		movss	%xmm0, -24(%rbp)
 456      E8
  68:RecordingReporter.h ****     {
  69:RecordingReporter.h ****         summaryTotalTestCount = totalTestCount;
 457              		.loc 5 69 0
 458 0016 488B45F8 		movq	-8(%rbp), %rax
 459 001a 8B55F4   		movl	-12(%rbp), %edx
 460 001d 89901C08 		movl	%edx, 2076(%rax)
 460      0000
  70:RecordingReporter.h ****         summaryFailedTestCount = failedTestCount;
 461              		.loc 5 70 0
 462 0023 488B45F8 		movq	-8(%rbp), %rax
 463 0027 8B55F0   		movl	-16(%rbp), %edx
 464 002a 89902008 		movl	%edx, 2080(%rax)
 464      0000
  71:RecordingReporter.h ****         summaryFailureCount = failureCount;
 465              		.loc 5 71 0
 466 0030 488B45F8 		movq	-8(%rbp), %rax
 467 0034 8B55EC   		movl	-20(%rbp), %edx
 468 0037 89902408 		movl	%edx, 2084(%rax)
 468      0000
  72:RecordingReporter.h ****         summarySecondsElapsed = secondsElapsed;
 469              		.loc 5 72 0
 470 003d 488B55F8 		movq	-8(%rbp), %rdx
 471 0041 8B45E8   		movl	-24(%rbp), %eax
 472 0044 89822808 		movl	%eax, 2088(%rdx)
 472      0000
  73:RecordingReporter.h ****     }
 473              		.loc 5 73 0
 474 004a 5D       		popq	%rbp
 475              		.cfi_def_cfa 7, 8
 476 004b C3       		ret
 477              		.cfi_endproc
 478              	.LFE1074:
 480              		.section	.rodata
 481              	.LC2:
 482 000d 00       		.string	""
 483              		.text
 484              		.align 2
 486              	_ZN12_GLOBAL__N_18MockTestC2EPKcbbi:
 487              	.LFB1076:
 488              		.file 6 "TestTestRunner.cpp"
   1:TestTestRunner.cpp **** #include "../UnitTest++.h"
   2:TestTestRunner.cpp **** #include "RecordingReporter.h"
   3:TestTestRunner.cpp **** #include "../ReportAssert.h"
   4:TestTestRunner.cpp **** #include "../TestList.h"
   5:TestTestRunner.cpp **** #include "../TimeHelpers.h"
   6:TestTestRunner.cpp **** #include "../TimeConstraint.h"
   7:TestTestRunner.cpp **** 
   8:TestTestRunner.cpp **** using namespace UnitTest;
   9:TestTestRunner.cpp **** 
  10:TestTestRunner.cpp **** namespace
  11:TestTestRunner.cpp **** {
  12:TestTestRunner.cpp **** 
  13:TestTestRunner.cpp **** struct MockTest : public Test
  14:TestTestRunner.cpp **** {
  15:TestTestRunner.cpp ****     MockTest(char const* testName, bool const success_, bool const assert_, int const count_ = 1)
 489              		.loc 6 15 0
 490              		.cfi_startproc
 491 0000 55       		pushq	%rbp
 492              		.cfi_def_cfa_offset 16
 493              		.cfi_offset 6, -16
 494 0001 4889E5   		movq	%rsp, %rbp
 495              		.cfi_def_cfa_register 6
 496 0004 4883EC20 		subq	$32, %rsp
 497 0008 48897DF8 		movq	%rdi, -8(%rbp)
 498 000c 488975F0 		movq	%rsi, -16(%rbp)
 499 0010 89C8     		movl	%ecx, %eax
 500 0012 448945E4 		movl	%r8d, -28(%rbp)
 501 0016 8855EC   		movb	%dl, -20(%rbp)
 502 0019 8845E8   		movb	%al, -24(%rbp)
 503              	.LBB9:
  16:TestTestRunner.cpp ****         : Test(testName)
  17:TestTestRunner.cpp ****         , success(success_)
  18:TestTestRunner.cpp ****         , asserted(assert_)
  19:TestTestRunner.cpp ****         , count(count_)
 504              		.loc 6 19 0
 505 001c 488B45F8 		movq	-8(%rbp), %rax
 506 0020 488B75F0 		movq	-16(%rbp), %rsi
 507 0024 41B80000 		movl	$0, %r8d
 507      0000
 508 002a B9000000 		movl	$.LC2, %ecx
 508      00
 509 002f BA000000 		movl	$.LC0, %edx
 509      00
 510 0034 4889C7   		movq	%rax, %rdi
 511 0037 E8000000 		call	_ZN8UnitTest4TestC2EPKcS2_S2_i
 511      00
 512 003c 488B45F8 		movq	-8(%rbp), %rax
 513 0040 48C70000 		movq	$_ZTVN12_GLOBAL__N_18MockTestE+16, (%rax)
 513      000000
 514 0047 488B45F8 		movq	-8(%rbp), %rax
 515 004b 0FB655EC 		movzbl	-20(%rbp), %edx
 516 004f 885031   		movb	%dl, 49(%rax)
 517 0052 488B45F8 		movq	-8(%rbp), %rax
 518 0056 0FB655E8 		movzbl	-24(%rbp), %edx
 519 005a 885032   		movb	%dl, 50(%rax)
 520 005d 488B45F8 		movq	-8(%rbp), %rax
 521 0061 8B55E4   		movl	-28(%rbp), %edx
 522 0064 895034   		movl	%edx, 52(%rax)
 523              	.LBE9:
  20:TestTestRunner.cpp ****     {
  21:TestTestRunner.cpp ****     }
 524              		.loc 6 21 0
 525 0067 C9       		leave
 526              		.cfi_def_cfa 7, 8
 527 0068 C3       		ret
 528              		.cfi_endproc
 529              	.LFE1076:
 531              		.section	.rodata
 532              	.LC3:
 533 000e 66696C65 		.string	"file"
 533      00
 534              	.LC4:
 535 0013 64657363 		.string	"desc"
 535      00
 536              	.LC5:
 537 0018 6D657373 		.string	"message"
 537      61676500 
 538              		.text
 539 0069 90       		.align 2
 541              	_ZNK12_GLOBAL__N_18MockTest7RunImplEv:
 542              	.LFB1078:
  22:TestTestRunner.cpp **** 
  23:TestTestRunner.cpp ****     virtual void RunImpl() const
 543              		.loc 6 23 0
 544              		.cfi_startproc
 545 006a 55       		pushq	%rbp
 546              		.cfi_def_cfa_offset 16
 547              		.cfi_offset 6, -16
 548 006b 4889E5   		movq	%rsp, %rbp
 549              		.cfi_def_cfa_register 6
 550 006e 4883EC20 		subq	$32, %rsp
 551 0072 48897DE8 		movq	%rdi, -24(%rbp)
 552              	.LBB10:
  24:TestTestRunner.cpp ****     {
  25:TestTestRunner.cpp **** 		TestResults& testResults_ = *CurrentTest::Results();
 553              		.loc 6 25 0
 554 0076 E8000000 		call	_ZN8UnitTest11CurrentTest7ResultsEv
 554      00
 555 007b 488B00   		movq	(%rax), %rax
 556 007e 488945F8 		movq	%rax, -8(%rbp)
 557              	.LBB11:
  26:TestTestRunner.cpp ****         for (int i=0; i < count; ++i)
 558              		.loc 6 26 0
 559 0082 C745F400 		movl	$0, -12(%rbp)
 559      000000
 560 0089 EB51     		jmp	.L19
 561              	.L22:
  27:TestTestRunner.cpp ****         {
  28:TestTestRunner.cpp ****             if (asserted)
 562              		.loc 6 28 0
 563 008b 488B45E8 		movq	-24(%rbp), %rax
 564 008f 0FB64032 		movzbl	50(%rax), %eax
 565 0093 84C0     		testb	%al, %al
 566 0095 7416     		je	.L20
  29:TestTestRunner.cpp ****                 ReportAssert("desc", "file", 0);
 567              		.loc 6 29 0
 568 0097 BA000000 		movl	$0, %edx
 568      00
 569 009c BE000000 		movl	$.LC3, %esi
 569      00
 570 00a1 BF000000 		movl	$.LC4, %edi
 570      00
 571 00a6 E8000000 		call	_ZN8UnitTest12ReportAssertEPKcS1_i
 571      00
 572 00ab EB2B     		jmp	.L21
 573              	.L20:
  30:TestTestRunner.cpp ****             else if (!success)
 574              		.loc 6 30 0
 575 00ad 488B45E8 		movq	-24(%rbp), %rax
 576 00b1 0FB64031 		movzbl	49(%rax), %eax
 577 00b5 83F001   		xorl	$1, %eax
 578 00b8 84C0     		testb	%al, %al
 579 00ba 741C     		je	.L21
  31:TestTestRunner.cpp ****                 testResults_.OnTestFailure(m_details, "message");
 580              		.loc 6 31 0
 581 00bc 488B45E8 		movq	-24(%rbp), %rax
 582 00c0 488D4808 		leaq	8(%rax), %rcx
 583 00c4 488B45F8 		movq	-8(%rbp), %rax
 584 00c8 BA000000 		movl	$.LC5, %edx
 584      00
 585 00cd 4889CE   		movq	%rcx, %rsi
 586 00d0 4889C7   		movq	%rax, %rdi
 587 00d3 E8000000 		call	_ZN8UnitTest11TestResults13OnTestFailureERKNS_11TestDetailsEPKc
 587      00
 588              	.L21:
  26:TestTestRunner.cpp ****         {
 589              		.loc 6 26 0 discriminator 2
 590 00d8 8345F401 		addl	$1, -12(%rbp)
 591              	.L19:
  26:TestTestRunner.cpp ****         {
 592              		.loc 6 26 0 is_stmt 0 discriminator 1
 593 00dc 488B45E8 		movq	-24(%rbp), %rax
 594 00e0 8B4034   		movl	52(%rax), %eax
 595 00e3 3B45F4   		cmpl	-12(%rbp), %eax
 596 00e6 7FA3     		jg	.L22
 597              	.LBE11:
 598              	.LBE10:
  32:TestTestRunner.cpp ****         }
  33:TestTestRunner.cpp ****     }
 599              		.loc 6 33 0 is_stmt 1
 600 00e8 C9       		leave
 601              		.cfi_def_cfa 7, 8
 602 00e9 C3       		ret
 603              		.cfi_endproc
 604              	.LFE1078:
 606              		.align 2
 608              	_ZN12_GLOBAL__N_111FixtureBaseC2Ev:
 609              	.LFB1080:
  34:TestTestRunner.cpp **** 
  35:TestTestRunner.cpp ****     bool const success;
  36:TestTestRunner.cpp ****     bool const asserted;
  37:TestTestRunner.cpp ****     int const count;
  38:TestTestRunner.cpp **** };
  39:TestTestRunner.cpp **** 
  40:TestTestRunner.cpp **** struct FixtureBase {
  41:TestTestRunner.cpp **** 	explicit FixtureBase() : runner(reporter) { }
 610              		.loc 6 41 0
 611              		.cfi_startproc
 612 00ea 55       		pushq	%rbp
 613              		.cfi_def_cfa_offset 16
 614              		.cfi_offset 6, -16
 615 00eb 4889E5   		movq	%rsp, %rbp
 616              		.cfi_def_cfa_register 6
 617 00ee 4883EC10 		subq	$16, %rsp
 618 00f2 48897DF8 		movq	%rdi, -8(%rbp)
 619              	.LBB12:
 620              		.loc 6 41 0
 621 00f6 488B45F8 		movq	-8(%rbp), %rax
 622 00fa 488D5018 		leaq	24(%rax), %rdx
 623 00fe 488B45F8 		movq	-8(%rbp), %rax
 624 0102 4889D6   		movq	%rdx, %rsi
 625 0105 4889C7   		movq	%rax, %rdi
 626 0108 E8000000 		call	_ZN8UnitTest10TestRunnerC1ERNS_12TestReporterE
 626      00
 627 010d 488B45F8 		movq	-8(%rbp), %rax
 628 0111 4883C018 		addq	$24, %rax
 629 0115 4889C7   		movq	%rax, %rdi
 630 0118 E8000000 		call	_ZN17RecordingReporterC1Ev
 630      00
 631              	.LBE12:
 632 011d C9       		leave
 633              		.cfi_def_cfa 7, 8
 634 011e C3       		ret
 635              		.cfi_endproc
 636              	.LFE1080:
 638 011f 90       		.align 2
 640              	_ZN12_GLOBAL__N_111FixtureBaseD2Ev:
 641              	.LFB1086:
  40:TestTestRunner.cpp **** 	explicit FixtureBase() : runner(reporter) { }
 642              		.loc 6 40 0
 643              		.cfi_startproc
 644              		.cfi_personality 0x3,__gxx_personality_v0
 645              		.cfi_lsda 0x3,.LLSDA1086
 646 0120 55       		pushq	%rbp
 647              		.cfi_def_cfa_offset 16
 648              		.cfi_offset 6, -16
 649 0121 4889E5   		movq	%rsp, %rbp
 650              		.cfi_def_cfa_register 6
 651 0124 53       		pushq	%rbx
 652 0125 4883EC18 		subq	$24, %rsp
 653              		.cfi_offset 3, -24
 654 0129 48897DE8 		movq	%rdi, -24(%rbp)
 655              	.LBB13:
  40:TestTestRunner.cpp **** 	explicit FixtureBase() : runner(reporter) { }
 656              		.loc 6 40 0
 657 012d 488B45E8 		movq	-24(%rbp), %rax
 658 0131 4883C018 		addq	$24, %rax
 659 0135 4889C7   		movq	%rax, %rdi
 660              	.LEHB4:
 661 0138 E8000000 		call	_ZN17RecordingReporterD1Ev
 661      00
 662              	.LEHE4:
  40:TestTestRunner.cpp **** 	explicit FixtureBase() : runner(reporter) { }
 663              		.loc 6 40 0 is_stmt 0 discriminator 2
 664 013d 488B45E8 		movq	-24(%rbp), %rax
 665 0141 4889C7   		movq	%rax, %rdi
 666              	.LEHB5:
 667 0144 E8000000 		call	_ZN8UnitTest10TestRunnerD1Ev
 667      00
 668              	.LEHE5:
 669 0149 EB1A     		jmp	.L28
 670              	.L27:
 671 014b 4889C3   		movq	%rax, %rbx
  40:TestTestRunner.cpp **** 	explicit FixtureBase() : runner(reporter) { }
 672              		.loc 6 40 0
 673 014e 488B45E8 		movq	-24(%rbp), %rax
 674 0152 4889C7   		movq	%rax, %rdi
 675 0155 E8000000 		call	_ZN8UnitTest10TestRunnerD1Ev
 675      00
 676 015a 4889D8   		movq	%rbx, %rax
 677 015d 4889C7   		movq	%rax, %rdi
 678              	.LEHB6:
 679 0160 E8000000 		call	_Unwind_Resume
 679      00
 680              	.LEHE6:
 681              	.L28:
 682              	.LBE13:
 683 0165 4883C418 		addq	$24, %rsp
 684 0169 5B       		popq	%rbx
 685 016a 5D       		popq	%rbp
 686              		.cfi_def_cfa 7, 8
 687 016b C3       		ret
 688              		.cfi_endproc
 689              	.LFE1086:
 690              		.section	.gcc_except_table,"a",@progbits
 691              	.LLSDA1086:
 692 0000 FF       		.byte	0xff
 693 0001 FF       		.byte	0xff
 694 0002 01       		.byte	0x1
 695 0003 0C       		.uleb128 .LLSDACSE1086-.LLSDACSB1086
 696              	.LLSDACSB1086:
 697 0004 18       		.uleb128 .LEHB4-.LFB1086
 698 0005 05       		.uleb128 .LEHE4-.LEHB4
 699 0006 2B       		.uleb128 .L27-.LFB1086
 700 0007 00       		.uleb128 0
 701 0008 24       		.uleb128 .LEHB5-.LFB1086
 702 0009 05       		.uleb128 .LEHE5-.LEHB5
 703 000a 00       		.uleb128 0
 704 000b 00       		.uleb128 0
 705 000c 40       		.uleb128 .LEHB6-.LFB1086
 706 000d 05       		.uleb128 .LEHE6-.LEHB6
 707 000e 00       		.uleb128 0
 708 000f 00       		.uleb128 0
 709              	.LLSDACSE1086:
 710              		.text
 712              		.align 2
 714              	_ZN12_GLOBAL__N_117TestRunnerFixtureC2Ev:
 715              	.LFB1088:
  42:TestTestRunner.cpp **** 	template <class Predicate>
  43:TestTestRunner.cpp **** 	int RunTestsIf(TestList const& list, char const* suiteName, 
  44:TestTestRunner.cpp **** 				   const Predicate& predicate, int maxTestTimeInMs)
  45:TestTestRunner.cpp **** 	{
  46:TestTestRunner.cpp **** 		TestResults* oldResults = CurrentTest::Results();
  47:TestTestRunner.cpp **** 		const TestDetails* oldDetails = CurrentTest::Details();
  48:TestTestRunner.cpp **** 		int result = runner.RunTestsIf(list, suiteName, predicate, maxTestTimeInMs);
  49:TestTestRunner.cpp **** 		CurrentTest::Results() = oldResults;
  50:TestTestRunner.cpp **** 		CurrentTest::Details() = oldDetails;
  51:TestTestRunner.cpp **** 		return result;
  52:TestTestRunner.cpp **** 	}
  53:TestTestRunner.cpp **** 	TestRunner runner;
  54:TestTestRunner.cpp ****     RecordingReporter reporter;
  55:TestTestRunner.cpp **** };
  56:TestTestRunner.cpp **** 
  57:TestTestRunner.cpp **** struct TestRunnerFixture : public FixtureBase
 716              		.loc 6 57 0 is_stmt 1
 717              		.cfi_startproc
 718              		.cfi_personality 0x3,__gxx_personality_v0
 719              		.cfi_lsda 0x3,.LLSDA1088
 720 016c 55       		pushq	%rbp
 721              		.cfi_def_cfa_offset 16
 722              		.cfi_offset 6, -16
 723 016d 4889E5   		movq	%rsp, %rbp
 724              		.cfi_def_cfa_register 6
 725 0170 53       		pushq	%rbx
 726 0171 4883EC18 		subq	$24, %rsp
 727              		.cfi_offset 3, -24
 728 0175 48897DE8 		movq	%rdi, -24(%rbp)
 729              	.LBB14:
 730              		.loc 6 57 0
 731 0179 488B45E8 		movq	-24(%rbp), %rax
 732 017d 4889C7   		movq	%rax, %rdi
 733              	.LEHB7:
 734 0180 E865FFFF 		call	_ZN12_GLOBAL__N_111FixtureBaseC2Ev
 734      FF
 735              	.LEHE7:
 736 0185 488B45E8 		movq	-24(%rbp), %rax
 737 0189 48054808 		addq	$2120, %rax
 737      0000
 738 018f 4889C7   		movq	%rax, %rdi
 739              	.LEHB8:
 740 0192 E8000000 		call	_ZN8UnitTest8TestListC1Ev
 740      00
 741              	.LEHE8:
 742              	.LBE14:
 743 0197 EB1A     		jmp	.L32
 744              	.L31:
 745 0199 4889C3   		movq	%rax, %rbx
 746              	.LBB15:
 747 019c 488B45E8 		movq	-24(%rbp), %rax
 748 01a0 4889C7   		movq	%rax, %rdi
 749 01a3 E878FFFF 		call	_ZN12_GLOBAL__N_111FixtureBaseD2Ev
 749      FF
 750 01a8 4889D8   		movq	%rbx, %rax
 751 01ab 4889C7   		movq	%rax, %rdi
 752              	.LEHB9:
 753 01ae E8000000 		call	_Unwind_Resume
 753      00
 754              	.LEHE9:
 755              	.L32:
 756              	.LBE15:
 757 01b3 4883C418 		addq	$24, %rsp
 758 01b7 5B       		popq	%rbx
 759 01b8 5D       		popq	%rbp
 760              		.cfi_def_cfa 7, 8
 761 01b9 C3       		ret
 762              		.cfi_endproc
 763              	.LFE1088:
 764              		.section	.gcc_except_table
 765              	.LLSDA1088:
 766 0010 FF       		.byte	0xff
 767 0011 FF       		.byte	0xff
 768 0012 01       		.byte	0x1
 769 0013 0C       		.uleb128 .LLSDACSE1088-.LLSDACSB1088
 770              	.LLSDACSB1088:
 771 0014 14       		.uleb128 .LEHB7-.LFB1088
 772 0015 05       		.uleb128 .LEHE7-.LEHB7
 773 0016 00       		.uleb128 0
 774 0017 00       		.uleb128 0
 775 0018 26       		.uleb128 .LEHB8-.LFB1088
 776 0019 05       		.uleb128 .LEHE8-.LEHB8
 777 001a 2D       		.uleb128 .L31-.LFB1088
 778 001b 00       		.uleb128 0
 779 001c 42       		.uleb128 .LEHB9-.LFB1088
 780 001d 05       		.uleb128 .LEHE9-.LEHB9
 781 001e 00       		.uleb128 0
 782 001f 00       		.uleb128 0
 783              	.LLSDACSE1088:
 784              		.text
 786              		.align 2
 788              	_ZN12_GLOBAL__N_117TestRunnerFixtureD2Ev:
 789              	.LFB1091:
 790              		.loc 6 57 0
 791              		.cfi_startproc
 792 01ba 55       		pushq	%rbp
 793              		.cfi_def_cfa_offset 16
 794              		.cfi_offset 6, -16
 795 01bb 4889E5   		movq	%rsp, %rbp
 796              		.cfi_def_cfa_register 6
 797 01be 4883EC10 		subq	$16, %rsp
 798 01c2 48897DF8 		movq	%rdi, -8(%rbp)
 799              	.LBB16:
 800              		.loc 6 57 0
 801 01c6 488B45F8 		movq	-8(%rbp), %rax
 802 01ca 4889C7   		movq	%rax, %rdi
 803 01cd E84EFFFF 		call	_ZN12_GLOBAL__N_111FixtureBaseD2Ev
 803      FF
 804              	.LBE16:
 805 01d2 C9       		leave
 806              		.cfi_def_cfa 7, 8
 807 01d3 C3       		ret
 808              		.cfi_endproc
 809              	.LFE1091:
 811              		.align 2
 813              	_ZN12_GLOBAL__N_151TestRunnerFixtureTestStartIsReportedCorrectlyHelperC2ERKN8UnitTest11TestDetailsE
 814              	.LFB1093:
  58:TestTestRunner.cpp **** {
  59:TestTestRunner.cpp ****     TestList list;
  60:TestTestRunner.cpp **** };
  61:TestTestRunner.cpp **** 
  62:TestTestRunner.cpp **** TEST_FIXTURE(TestRunnerFixture, TestStartIsReportedCorrectly)
 815              		.loc 6 62 0
 816              		.cfi_startproc
 817 01d4 55       		pushq	%rbp
 818              		.cfi_def_cfa_offset 16
 819              		.cfi_offset 6, -16
 820 01d5 4889E5   		movq	%rsp, %rbp
 821              		.cfi_def_cfa_register 6
 822 01d8 4883EC10 		subq	$16, %rsp
 823 01dc 48897DF8 		movq	%rdi, -8(%rbp)
 824 01e0 488975F0 		movq	%rsi, -16(%rbp)
 825              	.LBB17:
 826              		.loc 6 62 0
 827 01e4 488B45F8 		movq	-8(%rbp), %rax
 828 01e8 4889C7   		movq	%rax, %rdi
 829 01eb E87CFFFF 		call	_ZN12_GLOBAL__N_117TestRunnerFixtureC2Ev
 829      FF
 830 01f0 488B45F8 		movq	-8(%rbp), %rax
 831 01f4 488B55F0 		movq	-16(%rbp), %rdx
 832 01f8 48899058 		movq	%rdx, 2136(%rax)
 832      080000
 833              	.LBE17:
 834 01ff C9       		leave
 835              		.cfi_def_cfa 7, 8
 836 0200 C3       		ret
 837              		.cfi_endproc
 838              	.LFE1093:
 840              		.section	.rodata
 841              	.LC6:
 842 0020 54657374 		.string	"TestTestRunner.cpp"
 842      54657374 
 842      52756E6E 
 842      65722E63 
 842      707000
 843              	.LC7:
 844 0033 54657374 		.string	"TestStartIsReportedCorrectly"
 844      53746172 
 844      74497352 
 844      65706F72 
 844      74656443 
 845              		.text
 846 0201 90       		.align 2
 848              	_ZN12_GLOBAL__N_149TestTestRunnerFixtureTestStartIsReportedCorrectlyC2Ev:
 849              	.LFB1096:
 850              		.loc 6 62 0
 851              		.cfi_startproc
 852 0202 55       		pushq	%rbp
 853              		.cfi_def_cfa_offset 16
 854              		.cfi_offset 6, -16
 855 0203 4889E5   		movq	%rsp, %rbp
 856              		.cfi_def_cfa_register 6
 857 0206 4883EC10 		subq	$16, %rsp
 858 020a 48897DF8 		movq	%rdi, -8(%rbp)
 859              	.LBB18:
 860              		.loc 6 62 0
 861 020e E8000000 		call	_ZN13UnitTestSuite12GetSuiteNameEv
 861      00
 862 0213 4889C2   		movq	%rax, %rdx
 863 0216 488B45F8 		movq	-8(%rbp), %rax
 864 021a 41B83E00 		movl	$62, %r8d
 864      0000
 865 0220 B9000000 		movl	$.LC6, %ecx
 865      00
 866 0225 BE000000 		movl	$.LC7, %esi
 866      00
 867 022a 4889C7   		movq	%rax, %rdi
 868 022d E8000000 		call	_ZN8UnitTest4TestC2EPKcS2_S2_i
 868      00
 869 0232 488B45F8 		movq	-8(%rbp), %rax
 870 0236 48C70000 		movq	$_ZTVN12_GLOBAL__N_149TestTestRunnerFixtureTestStartIsReportedCorrectlyE+16, (%rax)
 870      000000
 871              	.LBE18:
 872 023d C9       		leave
 873              		.cfi_def_cfa 7, 8
 874 023e C3       		ret
 875              		.cfi_endproc
 876              	.LFE1096:
 878              		.local	_ZN12_GLOBAL__N_157testTestRunnerFixtureTestStartIsReportedCorrectlyInstanceE
 879              		.comm	_ZN12_GLOBAL__N_157testTestRunnerFixtureTestStartIsReportedCorrectlyInstanceE,56,32
 880              		.local	_ZN12_GLOBAL__N_150adderTestRunnerFixtureTestStartIsReportedCorrectlyE
 881              		.comm	_ZN12_GLOBAL__N_150adderTestRunnerFixtureTestStartIsReportedCorrectlyE,1,1
 882 023f 90       		.align 2
 884              	_ZN12_GLOBAL__N_151TestRunnerFixtureTestStartIsReportedCorrectlyHelperD2Ev:
 885              	.LFB1100:
 886              		.loc 6 62 0
 887              		.cfi_startproc
 888 0240 55       		pushq	%rbp
 889              		.cfi_def_cfa_offset 16
 890              		.cfi_offset 6, -16
 891 0241 4889E5   		movq	%rsp, %rbp
 892              		.cfi_def_cfa_register 6
 893 0244 4883EC10 		subq	$16, %rsp
 894 0248 48897DF8 		movq	%rdi, -8(%rbp)
 895              	.LBB19:
 896              		.loc 6 62 0
 897 024c 488B45F8 		movq	-8(%rbp), %rax
 898 0250 4889C7   		movq	%rax, %rdi
 899 0253 E862FFFF 		call	_ZN12_GLOBAL__N_117TestRunnerFixtureD2Ev
 899      FF
 900              	.LBE19:
 901 0258 C9       		leave
 902              		.cfi_def_cfa 7, 8
 903 0259 C3       		ret
 904              		.cfi_endproc
 905              	.LFE1100:
 907              		.section	.rodata
 908              	.LC8:
 909 0050 556E6861 		.string	"Unhandled exception: "
 909      6E646C65 
 909      64206578 
 909      63657074 
 909      696F6E3A 
 910 0066 0000     		.align 8
 911              	.LC9:
 912 0068 556E6861 		.string	"Unhandled exception while destroying fixture TestRunnerFixture"
 912      6E646C65 
 912      64206578 
 912      63657074 
 912      696F6E20 
 913 00a7 00       		.align 8
 914              	.LC10:
 915 00a8 556E6861 		.string	"Unhandled exception while constructing fixture TestRunnerFixture"
 915      6E646C65 
 915      64206578 
 915      63657074 
 915      696F6E20 
 916              		.text
 917              		.align 2
 919              	_ZNK12_GLOBAL__N_149TestTestRunnerFixtureTestStartIsReportedCorrectly7RunImplEv:
 920              	.LFB1098:
 921              		.loc 6 62 0
 922              		.cfi_startproc
 923              		.cfi_personality 0x3,__gxx_personality_v0
 924              		.cfi_lsda 0x3,.LLSDA1098
 925 025a 55       		pushq	%rbp
 926              		.cfi_def_cfa_offset 16
 927              		.cfi_offset 6, -16
 928 025b 4889E5   		movq	%rsp, %rbp
 929              		.cfi_def_cfa_register 6
 930 025e 4154     		pushq	%r12
 931 0260 53       		pushq	%rbx
 932 0261 4881ECC0 		subq	$2240, %rsp
 932      080000
 933              		.cfi_offset 12, -24
 934              		.cfi_offset 3, -32
 935 0268 4889BD38 		movq	%rdi, -2248(%rbp)
 935      F7FFFF
 936              		.loc 6 62 0
 937 026f 64488B04 		movq	%fs:40, %rax
 937      25280000 
 937      00
 938 0278 488945E8 		movq	%rax, -24(%rbp)
 939 027c 31C0     		xorl	%eax, %eax
 940              	.LBB20:
 941 027e C6854FF7 		movb	$0, -2225(%rbp)
 941      FFFF00
 942              	.LBB21:
 943 0285 488B8538 		movq	-2248(%rbp), %rax
 943      F7FFFF
 944 028c 488D5008 		leaq	8(%rax), %rdx
 945 0290 488D8580 		leaq	-2176(%rbp), %rax
 945      F7FFFF
 946 0297 4889D6   		movq	%rdx, %rsi
 947 029a 4889C7   		movq	%rax, %rdi
 948              	.LEHB10:
 949 029d E832FFFF 		call	_ZN12_GLOBAL__N_151TestRunnerFixtureTestStartIsReportedCorrectlyHelperC2ERKN8UnitTest11TestDe
 949      FF
 950              	.LEHE10:
 951              		.loc 6 62 0 is_stmt 0 discriminator 1
 952 02a2 C6854FF7 		movb	$1, -2225(%rbp)
 952      FFFF01
 953 02a9 488B8538 		movq	-2248(%rbp), %rax
 953      F7FFFF
 954 02b0 488D5008 		leaq	8(%rax), %rdx
 955 02b4 488D8580 		leaq	-2176(%rbp), %rax
 955      F7FFFF
 956 02bb 4889D6   		movq	%rdx, %rsi
 957 02be 4889C7   		movq	%rax, %rdi
 958              	.LEHB11:
 959 02c1 E87D6600 		call	_ZN8UnitTest11ExecuteTestIN12_GLOBAL__N_151TestRunnerFixtureTestStartIsReportedCorrectlyHelpe
 959      00
 960              	.LEHE11:
 961              		.loc 6 62 0 discriminator 3
 962 02c6 488D8580 		leaq	-2176(%rbp), %rax
 962      F7FFFF
 963 02cd 4889C7   		movq	%rax, %rdi
 964              	.LEHB12:
 965 02d0 E86BFFFF 		call	_ZN12_GLOBAL__N_151TestRunnerFixtureTestStartIsReportedCorrectlyHelperD2Ev
 965      FF
 966              	.LEHE12:
 967              	.LBE21:
 968              	.LBE20:
 969              		.loc 6 62 0
 970 02d5 E9640200 		jmp	.L60
 970      00
 971              	.L54:
 972 02da 4989C4   		movq	%rax, %r12
 973 02dd 4889D3   		movq	%rdx, %rbx
 974              	.LBB29:
 975              	.LBB22:
 976 02e0 488D8580 		leaq	-2176(%rbp), %rax
 976      F7FFFF
 977 02e7 4889C7   		movq	%rax, %rdi
 978 02ea E851FFFF 		call	_ZN12_GLOBAL__N_151TestRunnerFixtureTestStartIsReportedCorrectlyHelperD2Ev
 978      FF
 979 02ef 4C89E0   		movq	%r12, %rax
 980 02f2 4889DA   		movq	%rbx, %rdx
 981 02f5 EB00     		jmp	.L41
 982              	.L53:
 983              	.L41:
 984 02f7 4883FA01 		cmpq	$1, %rdx
 985 02fb 745C     		je	.L43
 986 02fd 4883FA02 		cmpq	$2, %rdx
 987 0301 0F84F400 		je	.L44
 987      0000
 988 0307 E9980100 		jmp	.L59
 988      00
 989              	.L55:
 990 030c 4889C3   		movq	%rax, %rbx
 991              	.LBE22:
 992              	.LBB23:
 993 030f E8000000 		call	__cxa_end_catch
 993      00
 994 0314 4889D8   		movq	%rbx, %rax
 995 0317 4889C7   		movq	%rax, %rdi
 996              	.LEHB13:
 997 031a E8000000 		call	_Unwind_Resume
 997      00
 998              	.LEHE13:
 999              	.L56:
 1000 031f 4889C3   		movq	%rax, %rbx
 1001              	.LBE23:
 1002              	.LBB24:
 1003              	.LBB25:
 1004 0322 488D8580 		leaq	-2176(%rbp), %rax
 1004      F7FFFF
 1005 0329 4889C7   		movq	%rax, %rdi
 1006 032c E8000000 		call	_ZN8UnitTest15MemoryOutStreamD1Ev
 1006      00
 1007 0331 EB03     		jmp	.L47
 1008              	.L57:
 1009 0333 4889C3   		movq	%rax, %rbx
 1010              	.L47:
 1011              	.LBE25:
 1012 0336 E8000000 		call	__cxa_end_catch
 1012      00
 1013 033b 4889D8   		movq	%rbx, %rax
 1014 033e 4889C7   		movq	%rax, %rdi
 1015              	.LEHB14:
 1016 0341 E8000000 		call	_Unwind_Resume
 1016      00
 1017              	.LEHE14:
 1018              	.L58:
 1019 0346 4889C3   		movq	%rax, %rbx
 1020              	.LBE24:
 1021 0349 E8000000 		call	__cxa_end_catch
 1021      00
 1022 034e 4889D8   		movq	%rbx, %rax
 1023 0351 4889C7   		movq	%rax, %rdi
 1024              	.LEHB15:
 1025 0354 E8000000 		call	_Unwind_Resume
 1025      00
 1026              	.LEHE15:
 1027              	.L43:
 1028              	.LBB27:
 1029 0359 4889C7   		movq	%rax, %rdi
 1030 035c E8000000 		call	__cxa_begin_catch
 1030      00
 1031 0361 48898550 		movq	%rax, -2224(%rbp)
 1031      F7FFFF
 1032 0368 488B8550 		movq	-2224(%rbp), %rax
 1032      F7FFFF
 1033 036f 488B00   		movq	(%rax), %rax
 1034 0372 4883C010 		addq	$16, %rax
 1035 0376 488B00   		movq	(%rax), %rax
 1036 0379 488B9550 		movq	-2224(%rbp), %rdx
 1036      F7FFFF
 1037 0380 4889D7   		movq	%rdx, %rdi
 1038 0383 FFD0     		call	*%rax
 1039 0385 4889C3   		movq	%rax, %rbx
 1040 0388 488B8550 		movq	-2224(%rbp), %rax
 1040      F7FFFF
 1041 038f 4889C7   		movq	%rax, %rdi
 1042              	.LEHB16:
 1043 0392 E8000000 		call	_ZNK8UnitTest15AssertException10LineNumberEv
 1043      00
 1044 0397 4189C4   		movl	%eax, %r12d
 1045 039a 488B8550 		movq	-2224(%rbp), %rax
 1045      F7FFFF
 1046 03a1 4889C7   		movq	%rax, %rdi
 1047 03a4 E8000000 		call	_ZNK8UnitTest15AssertException8FilenameEv
 1047      00
 1048              		.loc 6 62 0 discriminator 5
 1049 03a9 4889C1   		movq	%rax, %rcx
 1050 03ac 488B8538 		movq	-2248(%rbp), %rax
 1050      F7FFFF
 1051 03b3 488B5008 		movq	8(%rax), %rdx
 1052 03b7 488B8538 		movq	-2248(%rbp), %rax
 1052      F7FFFF
 1053 03be 488B7010 		movq	16(%rax), %rsi
 1054 03c2 488D8560 		leaq	-2208(%rbp), %rax
 1054      F7FFFF
 1055 03c9 4589E0   		movl	%r12d, %r8d
 1056 03cc 4889C7   		movq	%rax, %rdi
 1057 03cf E8000000 		call	_ZN8UnitTest11TestDetailsC1EPKcS2_S2_i
 1057      00
 1058              		.loc 6 62 0 discriminator 9
 1059 03d4 E8000000 		call	_ZN8UnitTest11CurrentTest7ResultsEv
 1059      00
 1060 03d9 488B00   		movq	(%rax), %rax
 1061 03dc 488D8D60 		leaq	-2208(%rbp), %rcx
 1061      F7FFFF
 1062 03e3 4889DA   		movq	%rbx, %rdx
 1063 03e6 4889CE   		movq	%rcx, %rsi
 1064 03e9 4889C7   		movq	%rax, %rdi
 1065 03ec E8000000 		call	_ZN8UnitTest11TestResults13OnTestFailureERKNS_11TestDetailsEPKc
 1065      00
 1066              	.LEHE16:
 1067              		.loc 6 62 0 discriminator 13
 1068 03f1 E8000000 		call	__cxa_end_catch
 1068      00
 1069              	.LBE27:
 1070              	.LBE29:
 1071 03f6 E9430100 		jmp	.L60
 1071      00
 1072              	.L44:
 1073              	.LBB30:
 1074              	.LBB28:
 1075              		.loc 6 62 0
 1076 03fb 4889C7   		movq	%rax, %rdi
 1077 03fe E8000000 		call	__cxa_begin_catch
 1077      00
 1078 0403 48898558 		movq	%rax, -2216(%rbp)
 1078      F7FFFF
 1079              	.LBB26:
 1080 040a 488D8580 		leaq	-2176(%rbp), %rax
 1080      F7FFFF
 1081 0411 4889C7   		movq	%rax, %rdi
 1082              	.LEHB17:
 1083 0414 E8000000 		call	_ZN8UnitTest15MemoryOutStreamC1Ev
 1083      00
 1084              	.LEHE17:
 1085              		.loc 6 62 0 discriminator 15
 1086 0419 488B8558 		movq	-2216(%rbp), %rax
 1086      F7FFFF
 1087 0420 488B00   		movq	(%rax), %rax
 1088 0423 4883C010 		addq	$16, %rax
 1089 0427 488B00   		movq	(%rax), %rax
 1090 042a 488B9558 		movq	-2216(%rbp), %rdx
 1090      F7FFFF
 1091 0431 4889D7   		movq	%rdx, %rdi
 1092 0434 FFD0     		call	*%rax
 1093 0436 4889C3   		movq	%rax, %rbx
 1094 0439 488D8580 		leaq	-2176(%rbp), %rax
 1094      F7FFFF
 1095 0440 BE000000 		movl	$.LC8, %esi
 1095      00
 1096 0445 4889C7   		movq	%rax, %rdi
 1097              	.LEHB18:
 1098 0448 E8000000 		call	_ZStlsISt11char_traitsIcEERSt13basic_ostreamIcT_ES5_PKc
 1098      00
 1099 044d 4889DE   		movq	%rbx, %rsi
 1100 0450 4889C7   		movq	%rax, %rdi
 1101 0453 E8000000 		call	_ZStlsISt11char_traitsIcEERSt13basic_ostreamIcT_ES5_PKc
 1101      00
 1102              		.loc 6 62 0 discriminator 19
 1103 0458 488D8580 		leaq	-2176(%rbp), %rax
 1103      F7FFFF
 1104 045f 4889C7   		movq	%rax, %rdi
 1105 0462 E8000000 		call	_ZNK8UnitTest15MemoryOutStream7GetTextEv
 1105      00
 1106 0467 4989C4   		movq	%rax, %r12
 1107 046a 488B8538 		movq	-2248(%rbp), %rax
 1107      F7FFFF
 1108 0471 488D5808 		leaq	8(%rax), %rbx
 1109 0475 E8000000 		call	_ZN8UnitTest11CurrentTest7ResultsEv
 1109      00
 1110              		.loc 6 62 0 discriminator 21
 1111 047a 488B00   		movq	(%rax), %rax
 1112 047d 4C89E2   		movq	%r12, %rdx
 1113 0480 4889DE   		movq	%rbx, %rsi
 1114 0483 4889C7   		movq	%rax, %rdi
 1115 0486 E8000000 		call	_ZN8UnitTest11TestResults13OnTestFailureERKNS_11TestDetailsEPKc
 1115      00
 1116              	.LEHE18:
 1117              		.loc 6 62 0 discriminator 25
 1118 048b 488D8580 		leaq	-2176(%rbp), %rax
 1118      F7FFFF
 1119 0492 4889C7   		movq	%rax, %rdi
 1120              	.LEHB19:
 1121 0495 E8000000 		call	_ZN8UnitTest15MemoryOutStreamD1Ev
 1121      00
 1122              	.LEHE19:
 1123              	.LBE26:
 1124              		.loc 6 62 0 discriminator 26
 1125 049a E8000000 		call	__cxa_end_catch
 1125      00
 1126              	.LBE28:
 1127              	.LBE30:
 1128 049f E99A0000 		jmp	.L60
 1128      00
 1129              	.L59:
 1130              	.LBB31:
 1131              		.loc 6 62 0
 1132 04a4 4889C7   		movq	%rax, %rdi
 1133 04a7 E8000000 		call	__cxa_begin_catch
 1133      00
 1134 04ac 80BD4FF7 		cmpb	$0, -2225(%rbp)
 1134      FFFF00
 1135 04b3 7443     		je	.L50
 1136              		.loc 6 62 0 discriminator 28
 1137 04b5 488B8538 		movq	-2248(%rbp), %rax
 1137      F7FFFF
 1138 04bc 488D4808 		leaq	8(%rax), %rcx
 1139 04c0 488D8560 		leaq	-2208(%rbp), %rax
 1139      F7FFFF
 1140 04c7 BA3E0000 		movl	$62, %edx
 1140      00
 1141 04cc 4889CE   		movq	%rcx, %rsi
 1142 04cf 4889C7   		movq	%rax, %rdi
 1143              	.LEHB20:
 1144 04d2 E8000000 		call	_ZN8UnitTest11TestDetailsC1ERKS0_i
 1144      00
 1145              		.loc 6 62 0 discriminator 31
 1146 04d7 E8000000 		call	_ZN8UnitTest11CurrentTest7ResultsEv
 1146      00
 1147 04dc 488B00   		movq	(%rax), %rax
 1148 04df 488D8D60 		leaq	-2208(%rbp), %rcx
 1148      F7FFFF
 1149 04e6 BA000000 		movl	$.LC9, %edx
 1149      00
 1150 04eb 4889CE   		movq	%rcx, %rsi
 1151 04ee 4889C7   		movq	%rax, %rdi
 1152 04f1 E8000000 		call	_ZN8UnitTest11TestResults13OnTestFailureERKNS_11TestDetailsEPKc
 1152      00
 1153 04f6 EB41     		jmp	.L51
 1154              	.L50:
 1155              		.loc 6 62 0 discriminator 29
 1156 04f8 488B8538 		movq	-2248(%rbp), %rax
 1156      F7FFFF
 1157 04ff 488D4808 		leaq	8(%rax), %rcx
 1158 0503 488D8560 		leaq	-2208(%rbp), %rax
 1158      F7FFFF
 1159 050a BA3E0000 		movl	$62, %edx
 1159      00
 1160 050f 4889CE   		movq	%rcx, %rsi
 1161 0512 4889C7   		movq	%rax, %rdi
 1162 0515 E8000000 		call	_ZN8UnitTest11TestDetailsC1ERKS0_i
 1162      00
 1163              		.loc 6 62 0 discriminator 38
 1164 051a E8000000 		call	_ZN8UnitTest11CurrentTest7ResultsEv
 1164      00
 1165 051f 488B00   		movq	(%rax), %rax
 1166 0522 488D8D60 		leaq	-2208(%rbp), %rcx
 1166      F7FFFF
 1167 0529 BA000000 		movl	$.LC10, %edx
 1167      00
 1168 052e 4889CE   		movq	%rcx, %rsi
 1169 0531 4889C7   		movq	%rax, %rdi
 1170 0534 E8000000 		call	_ZN8UnitTest11TestResults13OnTestFailureERKNS_11TestDetailsEPKc
 1170      00
 1171              	.LEHE20:
 1172              	.L51:
 1173              	.LEHB21:
 1174              		.loc 6 62 0 discriminator 43
 1175 0539 E8000000 		call	__cxa_end_catch
 1175      00
 1176              	.LEHE21:
 1177              	.L60:
 1178              	.LBE31:
 1179              		.loc 6 62 0
 1180 053e 90       		nop
 1181 053f 488B45E8 		movq	-24(%rbp), %rax
 1182 0543 64483304 		xorq	%fs:40, %rax
 1182      25280000 
 1182      00
 1183 054c 7405     		je	.L52
 1184 054e E8000000 		call	__stack_chk_fail
 1184      00
 1185              	.L52:
 1186 0553 4881C4C0 		addq	$2240, %rsp
 1186      080000
 1187 055a 5B       		popq	%rbx
 1188 055b 415C     		popq	%r12
 1189 055d 5D       		popq	%rbp
 1190              		.cfi_def_cfa 7, 8
 1191 055e C3       		ret
 1192              		.cfi_endproc
 1193              	.LFE1098:
 1194              		.section	.gcc_except_table
 1195              		.align 4
 1196              	.LLSDA1098:
 1197 0020 FF       		.byte	0xff
 1198 0021 03       		.byte	0x3
 1199 0022 59       		.uleb128 .LLSDATT1098-.LLSDATTD1098
 1200              	.LLSDATTD1098:
 1201 0023 01       		.byte	0x1
 1202 0024 41       		.uleb128 .LLSDACSE1098-.LLSDACSB1098
 1203              	.LLSDACSB1098:
 1204 0025 43       		.uleb128 .LEHB10-.LFB1098
 1205 0026 05       		.uleb128 .LEHE10-.LEHB10
 1206 0027 9D01     		.uleb128 .L53-.LFB1098
 1207 0029 05       		.uleb128 0x5
 1208 002a 67       		.uleb128 .LEHB11-.LFB1098
 1209 002b 05       		.uleb128 .LEHE11-.LEHB11
 1210 002c 8001     		.uleb128 .L54-.LFB1098
 1211 002e 07       		.uleb128 0x7
 1212 002f 76       		.uleb128 .LEHB12-.LFB1098
 1213 0030 05       		.uleb128 .LEHE12-.LEHB12
 1214 0031 9D01     		.uleb128 .L53-.LFB1098
 1215 0033 05       		.uleb128 0x5
 1216 0034 C001     		.uleb128 .LEHB13-.LFB1098
 1217 0036 05       		.uleb128 .LEHE13-.LEHB13
 1218 0037 00       		.uleb128 0
 1219 0038 00       		.uleb128 0
 1220 0039 E701     		.uleb128 .LEHB14-.LFB1098
 1221 003b 05       		.uleb128 .LEHE14-.LEHB14
 1222 003c 00       		.uleb128 0
 1223 003d 00       		.uleb128 0
 1224 003e FA01     		.uleb128 .LEHB15-.LFB1098
 1225 0040 05       		.uleb128 .LEHE15-.LEHB15
 1226 0041 00       		.uleb128 0
 1227 0042 00       		.uleb128 0
 1228 0043 B802     		.uleb128 .LEHB16-.LFB1098
 1229 0045 5F       		.uleb128 .LEHE16-.LEHB16
 1230 0046 B201     		.uleb128 .L55-.LFB1098
 1231 0048 00       		.uleb128 0
 1232 0049 BA03     		.uleb128 .LEHB17-.LFB1098
 1233 004b 05       		.uleb128 .LEHE17-.LEHB17
 1234 004c D901     		.uleb128 .L57-.LFB1098
 1235 004e 00       		.uleb128 0
 1236 004f EE03     		.uleb128 .LEHB18-.LFB1098
 1237 0051 43       		.uleb128 .LEHE18-.LEHB18
 1238 0052 C501     		.uleb128 .L56-.LFB1098
 1239 0054 00       		.uleb128 0
 1240 0055 BB04     		.uleb128 .LEHB19-.LFB1098
 1241 0057 05       		.uleb128 .LEHE19-.LEHB19
 1242 0058 D901     		.uleb128 .L57-.LFB1098
 1243 005a 00       		.uleb128 0
 1244 005b F804     		.uleb128 .LEHB20-.LFB1098
 1245 005d 67       		.uleb128 .LEHE20-.LEHB20
 1246 005e EC01     		.uleb128 .L58-.LFB1098
 1247 0060 00       		.uleb128 0
 1248 0061 DF05     		.uleb128 .LEHB21-.LFB1098
 1249 0063 05       		.uleb128 .LEHE21-.LEHB21
 1250 0064 00       		.uleb128 0
 1251 0065 00       		.uleb128 0
 1252              	.LLSDACSE1098:
 1253 0066 03       		.byte	0x3
 1254 0067 00       		.byte	0
 1255 0068 02       		.byte	0x2
 1256 0069 7D       		.byte	0x7d
 1257 006a 01       		.byte	0x1
 1258 006b 7D       		.byte	0x7d
 1259 006c 00       		.byte	0
 1260 006d 7D       		.byte	0x7d
 1261 006e 0000     		.align 4
 1262 0070 00000000 		.long	0
 1263              	
 1264 0074 00000000 		.long	_ZTISt9exception
 1265 0078 00000000 		.long	_ZTIN8UnitTest15AssertExceptionE
 1266              	.LLSDATT1098:
 1267              		.text
 1269              		.section	.rodata
 1270              	.LC11:
 1271 00e9 676F6F64 		.string	"goodtest"
 1271      74657374 
 1271      00
 1272 00f2 00000000 		.align 8
 1272      0000
 1273              	.LC12:
 1274 00f8 556E6861 		.string	"Unhandled exception in CHECK_EQUAL(1, reporter.testRunCount)"
 1274      6E646C65 
 1274      64206578 
 1274      63657074 
 1274      696F6E20 
 1275 0135 000000   		.align 8
 1276              	.LC13:
 1277 0138 556E6861 		.string	"Unhandled exception in CHECK_EQUAL(\"goodtest\", reporter.lastStartedTest)"
 1277      6E646C65 
 1277      64206578 
 1277      63657074 
 1277      696F6E20 
 1278              		.text
 1279 055f 90       		.align 2
 1281              	_ZN12_GLOBAL__N_151TestRunnerFixtureTestStartIsReportedCorrectlyHelper7RunImplEv:
 1282              	.LFB1102:
  63:TestTestRunner.cpp **** {
 1283              		.loc 6 63 0 is_stmt 1
 1284              		.cfi_startproc
 1285              		.cfi_personality 0x3,__gxx_personality_v0
 1286              		.cfi_lsda 0x3,.LLSDA1102
 1287 0560 55       		pushq	%rbp
 1288              		.cfi_def_cfa_offset 16
 1289              		.cfi_offset 6, -16
 1290 0561 4889E5   		movq	%rsp, %rbp
 1291              		.cfi_def_cfa_register 6
 1292 0564 53       		pushq	%rbx
 1293 0565 4881EC88 		subq	$136, %rsp
 1293      000000
 1294              		.cfi_offset 3, -24
 1295 056c 4889BD78 		movq	%rdi, -136(%rbp)
 1295      FFFFFF
 1296              		.loc 6 63 0
 1297 0573 64488B04 		movq	%fs:40, %rax
 1297      25280000 
 1297      00
 1298 057c 488945E8 		movq	%rax, -24(%rbp)
 1299 0580 31C0     		xorl	%eax, %eax
 1300              	.LBB32:
  64:TestTestRunner.cpp ****     MockTest test("goodtest", true, false);
 1301              		.loc 6 64 0
 1302 0582 488D45B0 		leaq	-80(%rbp), %rax
 1303 0586 41B80100 		movl	$1, %r8d
 1303      0000
 1304 058c B9000000 		movl	$0, %ecx
 1304      00
 1305 0591 BA010000 		movl	$1, %edx
 1305      00
 1306 0596 BE000000 		movl	$.LC11, %esi
 1306      00
 1307 059b 4889C7   		movq	%rax, %rdi
 1308              	.LEHB22:
 1309 059e E85DFAFF 		call	_ZN12_GLOBAL__N_18MockTestC2EPKcbbi
 1309      FF
 1310              	.LEHE22:
  65:TestTestRunner.cpp ****     list.Add(&test);
 1311              		.loc 6 65 0
 1312 05a3 488B8578 		movq	-136(%rbp), %rax
 1312      FFFFFF
 1313 05aa 488D9048 		leaq	2120(%rax), %rdx
 1313      080000
 1314 05b1 488D45B0 		leaq	-80(%rbp), %rax
 1315 05b5 4889C6   		movq	%rax, %rsi
 1316 05b8 4889D7   		movq	%rdx, %rdi
 1317              	.LEHB23:
 1318 05bb E8000000 		call	_ZN8UnitTest8TestList3AddEPNS_4TestE
 1318      00
  66:TestTestRunner.cpp **** 
  67:TestTestRunner.cpp **** 	RunTestsIf(list, NULL, True(), 0);
 1319              		.loc 6 67 0
 1320 05c0 488B8578 		movq	-136(%rbp), %rax
 1320      FFFFFF
 1321 05c7 488DB048 		leaq	2120(%rax), %rsi
 1321      080000
 1322 05ce 488B8578 		movq	-136(%rbp), %rax
 1322      FFFFFF
 1323 05d5 488D5590 		leaq	-112(%rbp), %rdx
 1324 05d9 41B80000 		movl	$0, %r8d
 1324      0000
 1325 05df 4889D1   		movq	%rdx, %rcx
 1326 05e2 BA000000 		movl	$0, %edx
 1326      00
 1327 05e7 4889C7   		movq	%rax, %rdi
 1328 05ea E8136600 		call	_ZN12_GLOBAL__N_111FixtureBase10RunTestsIfIN8UnitTest4TrueEEEiRKNS2_8TestListEPKcRKT_i
 1328      00
 1329              	.LEHE23:
 1330              	.LEHB24:
  68:TestTestRunner.cpp ****     CHECK_EQUAL(1, reporter.testRunCount);
 1331              		.loc 6 68 0 discriminator 2
 1332 05ef E8000000 		call	_ZN8UnitTest11CurrentTest7DetailsEv
 1332      00
 1333 05f4 488B08   		movq	(%rax), %rcx
 1334 05f7 488D4590 		leaq	-112(%rbp), %rax
 1335 05fb BA440000 		movl	$68, %edx
 1335      00
 1336 0600 4889CE   		movq	%rcx, %rsi
 1337 0603 4889C7   		movq	%rax, %rdi
 1338 0606 E8000000 		call	_ZN8UnitTest11TestDetailsC1ERKS0_i
 1338      00
 1339 060b 488B8578 		movq	-136(%rbp), %rax
 1339      FFFFFF
 1340 0612 488D5820 		leaq	32(%rax), %rbx
 1341 0616 C7458C01 		movl	$1, -116(%rbp)
 1341      000000
 1342 061d E8000000 		call	_ZN8UnitTest11CurrentTest7ResultsEv
 1342      00
 1343 0622 488B00   		movq	(%rax), %rax
 1344 0625 488D5590 		leaq	-112(%rbp), %rdx
 1345 0629 488D758C 		leaq	-116(%rbp), %rsi
 1346 062d 4889D1   		movq	%rdx, %rcx
 1347 0630 4889DA   		movq	%rbx, %rdx
 1348 0633 4889C7   		movq	%rax, %rdi
 1349 0636 E8000000 		call	_ZN8UnitTest10CheckEqualIiiEEvRNS_11TestResultsERKT_RKT0_RKNS_11TestDetailsE
 1349      00
 1350              	.LEHE24:
 1351              	.L65:
 1352              	.LEHB25:
  69:TestTestRunner.cpp ****     CHECK_EQUAL("goodtest", reporter.lastStartedTest);
 1353              		.loc 6 69 0
 1354 063b E8000000 		call	_ZN8UnitTest11CurrentTest7DetailsEv
 1354      00
 1355 0640 488B08   		movq	(%rax), %rcx
 1356 0643 488D4590 		leaq	-112(%rbp), %rax
 1357 0647 BA450000 		movl	$69, %edx
 1357      00
 1358 064c 4889CE   		movq	%rcx, %rsi
 1359 064f 4889C7   		movq	%rax, %rdi
 1360 0652 E8000000 		call	_ZN8UnitTest11TestDetailsC1ERKS0_i
 1360      00
 1361              		.loc 6 69 0 is_stmt 0 discriminator 2
 1362 0657 488B8578 		movq	-136(%rbp), %rax
 1362      FFFFFF
 1363 065e 488D9824 		leaq	292(%rax), %rbx
 1363      010000
 1364 0665 E8000000 		call	_ZN8UnitTest11CurrentTest7ResultsEv
 1364      00
 1365 066a 488B00   		movq	(%rax), %rax
 1366 066d 488D5590 		leaq	-112(%rbp), %rdx
 1367 0671 4889D1   		movq	%rdx, %rcx
 1368 0674 4889DA   		movq	%rbx, %rdx
 1369 0677 BE000000 		movl	$.LC11, %esi
 1369      00
 1370 067c 4889C7   		movq	%rax, %rdi
 1371 067f E8000000 		call	_ZN8UnitTest10CheckEqualERNS_11TestResultsEPKcPcRKNS_11TestDetailsE
 1371      00
 1372              	.LEHE25:
 1373              	.L68:
 1374              		.loc 6 69 0 discriminator 7
 1375 0684 488D45B0 		leaq	-80(%rbp), %rax
 1376 0688 4889C7   		movq	%rax, %rdi
 1377              	.LEHB26:
 1378 068b E86E9A00 		call	_ZN12_GLOBAL__N_18MockTestD2Ev
 1378      00
 1379              	.LEHE26:
 1380              	.LBE32:
  70:TestTestRunner.cpp **** }
 1381              		.loc 6 70 0 is_stmt 1 discriminator 7
 1382 0690 488B45E8 		movq	-24(%rbp), %rax
 1383 0694 64483304 		xorq	%fs:40, %rax
 1383      25280000 
 1383      00
 1384 069d 0F84CF00 		je	.L69
 1384      0000
 1385 06a3 E9C50000 		jmp	.L75
 1385      00
 1386              	.L72:
 1387 06a8 4889C3   		movq	%rax, %rbx
 1388              	.LBB33:
  68:TestTestRunner.cpp ****     CHECK_EQUAL(1, reporter.testRunCount);
 1389              		.loc 6 68 0
 1390 06ab E8000000 		call	__cxa_end_catch
 1390      00
 1391 06b0 E9A10000 		jmp	.L63
 1391      00
 1392              	.L71:
 1393 06b5 4889C7   		movq	%rax, %rdi
 1394 06b8 E8000000 		call	__cxa_begin_catch
 1394      00
 1395              	.LEHB27:
 1396 06bd E8000000 		call	_ZN8UnitTest11CurrentTest7DetailsEv
 1396      00
 1397 06c2 488B08   		movq	(%rax), %rcx
 1398 06c5 488D4590 		leaq	-112(%rbp), %rax
 1399 06c9 BA440000 		movl	$68, %edx
 1399      00
 1400 06ce 4889CE   		movq	%rcx, %rsi
 1401 06d1 4889C7   		movq	%rax, %rdi
 1402 06d4 E8000000 		call	_ZN8UnitTest11TestDetailsC1ERKS0_i
 1402      00
  68:TestTestRunner.cpp ****     CHECK_EQUAL(1, reporter.testRunCount);
 1403              		.loc 6 68 0 is_stmt 0 discriminator 10
 1404 06d9 E8000000 		call	_ZN8UnitTest11CurrentTest7ResultsEv
 1404      00
 1405 06de 488B00   		movq	(%rax), %rax
 1406 06e1 488D4D90 		leaq	-112(%rbp), %rcx
 1407 06e5 BA000000 		movl	$.LC12, %edx
 1407      00
 1408 06ea 4889CE   		movq	%rcx, %rsi
 1409 06ed 4889C7   		movq	%rax, %rdi
 1410 06f0 E8000000 		call	_ZN8UnitTest11TestResults13OnTestFailureERKNS_11TestDetailsEPKc
 1410      00
 1411              	.LEHE27:
 1412              	.LEHB28:
  68:TestTestRunner.cpp ****     CHECK_EQUAL(1, reporter.testRunCount);
 1413              		.loc 6 68 0 discriminator 14
 1414 06f5 E8000000 		call	__cxa_end_catch
 1414      00
 1415              	.LEHE28:
  68:TestTestRunner.cpp ****     CHECK_EQUAL(1, reporter.testRunCount);
 1416              		.loc 6 68 0
 1417 06fa E93CFFFF 		jmp	.L65
 1417      FF
 1418              	.L74:
 1419 06ff 4889C3   		movq	%rax, %rbx
  69:TestTestRunner.cpp ****     CHECK_EQUAL("goodtest", reporter.lastStartedTest);
 1420              		.loc 6 69 0 is_stmt 1
 1421 0702 E8000000 		call	__cxa_end_catch
 1421      00
 1422 0707 EB4D     		jmp	.L63
 1423              	.L73:
 1424 0709 4889C7   		movq	%rax, %rdi
 1425 070c E8000000 		call	__cxa_begin_catch
 1425      00
 1426              	.LEHB29:
 1427 0711 E8000000 		call	_ZN8UnitTest11CurrentTest7DetailsEv
 1427      00
 1428 0716 488B08   		movq	(%rax), %rcx
 1429 0719 488D4590 		leaq	-112(%rbp), %rax
 1430 071d BA450000 		movl	$69, %edx
 1430      00
 1431 0722 4889CE   		movq	%rcx, %rsi
 1432 0725 4889C7   		movq	%rax, %rdi
 1433 0728 E8000000 		call	_ZN8UnitTest11TestDetailsC1ERKS0_i
 1433      00
  69:TestTestRunner.cpp ****     CHECK_EQUAL("goodtest", reporter.lastStartedTest);
 1434              		.loc 6 69 0 is_stmt 0 discriminator 11
 1435 072d E8000000 		call	_ZN8UnitTest11CurrentTest7ResultsEv
 1435      00
 1436 0732 488B00   		movq	(%rax), %rax
 1437 0735 488D4D90 		leaq	-112(%rbp), %rcx
 1438 0739 BA000000 		movl	$.LC13, %edx
 1438      00
 1439 073e 4889CE   		movq	%rcx, %rsi
 1440 0741 4889C7   		movq	%rax, %rdi
 1441 0744 E8000000 		call	_ZN8UnitTest11TestResults13OnTestFailureERKNS_11TestDetailsEPKc
 1441      00
 1442              	.LEHE29:
 1443              	.LEHB30:
  69:TestTestRunner.cpp ****     CHECK_EQUAL("goodtest", reporter.lastStartedTest);
 1444              		.loc 6 69 0 discriminator 15
 1445 0749 E8000000 		call	__cxa_end_catch
 1445      00
 1446              	.LEHE30:
  69:TestTestRunner.cpp ****     CHECK_EQUAL("goodtest", reporter.lastStartedTest);
 1447              		.loc 6 69 0
 1448 074e E931FFFF 		jmp	.L68
 1448      FF
 1449              	.L70:
 1450 0753 4889C3   		movq	%rax, %rbx
 1451              	.L63:
  69:TestTestRunner.cpp ****     CHECK_EQUAL("goodtest", reporter.lastStartedTest);
 1452              		.loc 6 69 0 discriminator 16
 1453 0756 488D45B0 		leaq	-80(%rbp), %rax
 1454 075a 4889C7   		movq	%rax, %rdi
 1455 075d E89C9900 		call	_ZN12_GLOBAL__N_18MockTestD2Ev
 1455      00
 1456 0762 4889D8   		movq	%rbx, %rax
 1457 0765 4889C7   		movq	%rax, %rdi
 1458              	.LEHB31:
 1459 0768 E8000000 		call	_Unwind_Resume
 1459      00
 1460              	.LEHE31:
 1461              	.L75:
 1462              	.LBE33:
 1463              		.loc 6 70 0 is_stmt 1
 1464 076d E8000000 		call	__stack_chk_fail
 1464      00
 1465              	.L69:
 1466 0772 4881C488 		addq	$136, %rsp
 1466      000000
 1467 0779 5B       		popq	%rbx
 1468 077a 5D       		popq	%rbp
 1469              		.cfi_def_cfa 7, 8
 1470 077b C3       		ret
 1471              		.cfi_endproc
 1472              	.LFE1102:
 1473              		.section	.gcc_except_table
 1474              		.align 4
 1475              	.LLSDA1102:
 1476 007c FF       		.byte	0xff
 1477 007d 03       		.byte	0x3
 1478 007e 41       		.uleb128 .LLSDATT1102-.LLSDATTD1102
 1479              	.LLSDATTD1102:
 1480 007f 01       		.byte	0x1
 1481 0080 37       		.uleb128 .LLSDACSE1102-.LLSDACSB1102
 1482              	.LLSDACSB1102:
 1483 0081 3E       		.uleb128 .LEHB22-.LFB1102
 1484 0082 05       		.uleb128 .LEHE22-.LEHB22
 1485 0083 00       		.uleb128 0
 1486 0084 00       		.uleb128 0
 1487 0085 5B       		.uleb128 .LEHB23-.LFB1102
 1488 0086 34       		.uleb128 .LEHE23-.LEHB23
 1489 0087 F303     		.uleb128 .L70-.LFB1102
 1490 0089 00       		.uleb128 0
 1491 008a 8F01     		.uleb128 .LEHB24-.LFB1102
 1492 008c 4C       		.uleb128 .LEHE24-.LEHB24
 1493 008d D502     		.uleb128 .L71-.LFB1102
 1494 008f 01       		.uleb128 0x1
 1495 0090 DB01     		.uleb128 .LEHB25-.LFB1102
 1496 0092 49       		.uleb128 .LEHE25-.LEHB25
 1497 0093 A903     		.uleb128 .L73-.LFB1102
 1498 0095 01       		.uleb128 0x1
 1499 0096 AB02     		.uleb128 .LEHB26-.LFB1102
 1500 0098 05       		.uleb128 .LEHE26-.LEHB26
 1501 0099 00       		.uleb128 0
 1502 009a 00       		.uleb128 0
 1503 009b DD02     		.uleb128 .LEHB27-.LFB1102
 1504 009d 38       		.uleb128 .LEHE27-.LEHB27
 1505 009e C802     		.uleb128 .L72-.LFB1102
 1506 00a0 00       		.uleb128 0
 1507 00a1 9503     		.uleb128 .LEHB28-.LFB1102
 1508 00a3 05       		.uleb128 .LEHE28-.LEHB28
 1509 00a4 F303     		.uleb128 .L70-.LFB1102
 1510 00a6 00       		.uleb128 0
 1511 00a7 B103     		.uleb128 .LEHB29-.LFB1102
 1512 00a9 38       		.uleb128 .LEHE29-.LEHB29
 1513 00aa 9F03     		.uleb128 .L74-.LFB1102
 1514 00ac 00       		.uleb128 0
 1515 00ad E903     		.uleb128 .LEHB30-.LFB1102
 1516 00af 05       		.uleb128 .LEHE30-.LEHB30
 1517 00b0 F303     		.uleb128 .L70-.LFB1102
 1518 00b2 00       		.uleb128 0
 1519 00b3 8804     		.uleb128 .LEHB31-.LFB1102
 1520 00b5 05       		.uleb128 .LEHE31-.LEHB31
 1521 00b6 00       		.uleb128 0
 1522 00b7 00       		.uleb128 0
 1523              	.LLSDACSE1102:
 1524 00b8 01       		.byte	0x1
 1525 00b9 00       		.byte	0
 1526 00ba 0000     		.align 4
 1527 00bc 00000000 		.long	0
 1528              	
 1529              	.LLSDATT1102:
 1530              		.text
 1532              		.align 2
 1534              	_ZN12_GLOBAL__N_152TestRunnerFixtureTestFinishIsReportedCorrectlyHelperC2ERKN8UnitTest11TestDetails
 1535              	.LFB1104:
  71:TestTestRunner.cpp **** 
  72:TestTestRunner.cpp **** TEST_FIXTURE(TestRunnerFixture, TestFinishIsReportedCorrectly)
 1536              		.loc 6 72 0
 1537              		.cfi_startproc
 1538 077c 55       		pushq	%rbp
 1539              		.cfi_def_cfa_offset 16
 1540              		.cfi_offset 6, -16
 1541 077d 4889E5   		movq	%rsp, %rbp
 1542              		.cfi_def_cfa_register 6
 1543 0780 4883EC10 		subq	$16, %rsp
 1544 0784 48897DF8 		movq	%rdi, -8(%rbp)
 1545 0788 488975F0 		movq	%rsi, -16(%rbp)
 1546              	.LBB34:
 1547              		.loc 6 72 0
 1548 078c 488B45F8 		movq	-8(%rbp), %rax
 1549 0790 4889C7   		movq	%rax, %rdi
 1550 0793 E8D4F9FF 		call	_ZN12_GLOBAL__N_117TestRunnerFixtureC2Ev
 1550      FF
 1551 0798 488B45F8 		movq	-8(%rbp), %rax
 1552 079c 488B55F0 		movq	-16(%rbp), %rdx
 1553 07a0 48899058 		movq	%rdx, 2136(%rax)
 1553      080000
 1554              	.LBE34:
 1555 07a7 C9       		leave
 1556              		.cfi_def_cfa 7, 8
 1557 07a8 C3       		ret
 1558              		.cfi_endproc
 1559              	.LFE1104:
 1561              		.section	.rodata
 1562              	.LC14:
 1563 0181 54657374 		.string	"TestFinishIsReportedCorrectly"
 1563      46696E69 
 1563      73684973 
 1563      5265706F 
 1563      72746564 
 1564              		.text
 1565 07a9 90       		.align 2
 1567              	_ZN12_GLOBAL__N_150TestTestRunnerFixtureTestFinishIsReportedCorrectlyC2Ev:
 1568              	.LFB1107:
 1569              		.loc 6 72 0
 1570              		.cfi_startproc
 1571 07aa 55       		pushq	%rbp
 1572              		.cfi_def_cfa_offset 16
 1573              		.cfi_offset 6, -16
 1574 07ab 4889E5   		movq	%rsp, %rbp
 1575              		.cfi_def_cfa_register 6
 1576 07ae 4883EC10 		subq	$16, %rsp
 1577 07b2 48897DF8 		movq	%rdi, -8(%rbp)
 1578              	.LBB35:
 1579              		.loc 6 72 0
 1580 07b6 E8000000 		call	_ZN13UnitTestSuite12GetSuiteNameEv
 1580      00
 1581 07bb 4889C2   		movq	%rax, %rdx
 1582 07be 488B45F8 		movq	-8(%rbp), %rax
 1583 07c2 41B84800 		movl	$72, %r8d
 1583      0000
 1584 07c8 B9000000 		movl	$.LC6, %ecx
 1584      00
 1585 07cd BE000000 		movl	$.LC14, %esi
 1585      00
 1586 07d2 4889C7   		movq	%rax, %rdi
 1587 07d5 E8000000 		call	_ZN8UnitTest4TestC2EPKcS2_S2_i
 1587      00
 1588 07da 488B45F8 		movq	-8(%rbp), %rax
 1589 07de 48C70000 		movq	$_ZTVN12_GLOBAL__N_150TestTestRunnerFixtureTestFinishIsReportedCorrectlyE+16, (%rax)
 1589      000000
 1590              	.LBE35:
 1591 07e5 C9       		leave
 1592              		.cfi_def_cfa 7, 8
 1593 07e6 C3       		ret
 1594              		.cfi_endproc
 1595              	.LFE1107:
 1597              		.local	_ZN12_GLOBAL__N_158testTestRunnerFixtureTestFinishIsReportedCorrectlyInstanceE
 1598              		.comm	_ZN12_GLOBAL__N_158testTestRunnerFixtureTestFinishIsReportedCorrectlyInstanceE,56,32
 1599              		.local	_ZN12_GLOBAL__N_151adderTestRunnerFixtureTestFinishIsReportedCorrectlyE
 1600              		.comm	_ZN12_GLOBAL__N_151adderTestRunnerFixtureTestFinishIsReportedCorrectlyE,1,1
 1601 07e7 90       		.align 2
 1603              	_ZN12_GLOBAL__N_152TestRunnerFixtureTestFinishIsReportedCorrectlyHelperD2Ev:
 1604              	.LFB1111:
 1605              		.loc 6 72 0
 1606              		.cfi_startproc
 1607 07e8 55       		pushq	%rbp
 1608              		.cfi_def_cfa_offset 16
 1609              		.cfi_offset 6, -16
 1610 07e9 4889E5   		movq	%rsp, %rbp
 1611              		.cfi_def_cfa_register 6
 1612 07ec 4883EC10 		subq	$16, %rsp
 1613 07f0 48897DF8 		movq	%rdi, -8(%rbp)
 1614              	.LBB36:
 1615              		.loc 6 72 0
 1616 07f4 488B45F8 		movq	-8(%rbp), %rax
 1617 07f8 4889C7   		movq	%rax, %rdi
 1618 07fb E8BAF9FF 		call	_ZN12_GLOBAL__N_117TestRunnerFixtureD2Ev
 1618      FF
 1619              	.LBE36:
 1620 0800 C9       		leave
 1621              		.cfi_def_cfa 7, 8
 1622 0801 C3       		ret
 1623              		.cfi_endproc
 1624              	.LFE1111:
 1626              		.align 2
 1628              	_ZNK12_GLOBAL__N_150TestTestRunnerFixtureTestFinishIsReportedCorrectly7RunImplEv:
 1629              	.LFB1109:
 1630              		.loc 6 72 0
 1631              		.cfi_startproc
 1632              		.cfi_personality 0x3,__gxx_personality_v0
 1633              		.cfi_lsda 0x3,.LLSDA1109
 1634 0802 55       		pushq	%rbp
 1635              		.cfi_def_cfa_offset 16
 1636              		.cfi_offset 6, -16
 1637 0803 4889E5   		movq	%rsp, %rbp
 1638              		.cfi_def_cfa_register 6
 1639 0806 4154     		pushq	%r12
 1640 0808 53       		pushq	%rbx
 1641 0809 4881ECC0 		subq	$2240, %rsp
 1641      080000
 1642              		.cfi_offset 12, -24
 1643              		.cfi_offset 3, -32
 1644 0810 4889BD38 		movq	%rdi, -2248(%rbp)
 1644      F7FFFF
 1645              		.loc 6 72 0
 1646 0817 64488B04 		movq	%fs:40, %rax
 1646      25280000 
 1646      00
 1647 0820 488945E8 		movq	%rax, -24(%rbp)
 1648 0824 31C0     		xorl	%eax, %eax
 1649              	.LBB37:
 1650 0826 C6854FF7 		movb	$0, -2225(%rbp)
 1650      FFFF00
 1651              	.LBB38:
 1652 082d 488B8538 		movq	-2248(%rbp), %rax
 1652      F7FFFF
 1653 0834 488D5008 		leaq	8(%rax), %rdx
 1654 0838 488D8580 		leaq	-2176(%rbp), %rax
 1654      F7FFFF
 1655 083f 4889D6   		movq	%rdx, %rsi
 1656 0842 4889C7   		movq	%rax, %rdi
 1657              	.LEHB32:
 1658 0845 E832FFFF 		call	_ZN12_GLOBAL__N_152TestRunnerFixtureTestFinishIsReportedCorrectlyHelperC2ERKN8UnitTest11TestD
 1658      FF
 1659              	.LEHE32:
 1660              		.loc 6 72 0 is_stmt 0 discriminator 1
 1661 084a C6854FF7 		movb	$1, -2225(%rbp)
 1661      FFFF01
 1662 0851 488B8538 		movq	-2248(%rbp), %rax
 1662      F7FFFF
 1663 0858 488D5008 		leaq	8(%rax), %rdx
 1664 085c 488D8580 		leaq	-2176(%rbp), %rax
 1664      F7FFFF
 1665 0863 4889D6   		movq	%rdx, %rsi
 1666 0866 4889C7   		movq	%rax, %rdi
 1667              	.LEHB33:
 1668 0869 E80C6400 		call	_ZN8UnitTest11ExecuteTestIN12_GLOBAL__N_152TestRunnerFixtureTestFinishIsReportedCorrectlyHelp
 1668      00
 1669              	.LEHE33:
 1670              		.loc 6 72 0 discriminator 3
 1671 086e 488D8580 		leaq	-2176(%rbp), %rax
 1671      F7FFFF
 1672 0875 4889C7   		movq	%rax, %rdi
 1673              	.LEHB34:
 1674 0878 E86BFFFF 		call	_ZN12_GLOBAL__N_152TestRunnerFixtureTestFinishIsReportedCorrectlyHelperD2Ev
 1674      FF
 1675              	.LEHE34:
 1676              	.LBE38:
 1677              	.LBE37:
 1678              		.loc 6 72 0
 1679 087d E9640200 		jmp	.L101
 1679      00
 1680              	.L95:
 1681 0882 4989C4   		movq	%rax, %r12
 1682 0885 4889D3   		movq	%rdx, %rbx
 1683              	.LBB46:
 1684              	.LBB39:
 1685 0888 488D8580 		leaq	-2176(%rbp), %rax
 1685      F7FFFF
 1686 088f 4889C7   		movq	%rax, %rdi
 1687 0892 E851FFFF 		call	_ZN12_GLOBAL__N_152TestRunnerFixtureTestFinishIsReportedCorrectlyHelperD2Ev
 1687      FF
 1688 0897 4C89E0   		movq	%r12, %rax
 1689 089a 4889DA   		movq	%rbx, %rdx
 1690 089d EB00     		jmp	.L82
 1691              	.L94:
 1692              	.L82:
 1693 089f 4883FA01 		cmpq	$1, %rdx
 1694 08a3 745C     		je	.L84
 1695 08a5 4883FA02 		cmpq	$2, %rdx
 1696 08a9 0F84F400 		je	.L85
 1696      0000
 1697 08af E9980100 		jmp	.L100
 1697      00
 1698              	.L96:
 1699 08b4 4889C3   		movq	%rax, %rbx
 1700              	.LBE39:
 1701              	.LBB40:
 1702 08b7 E8000000 		call	__cxa_end_catch
 1702      00
 1703 08bc 4889D8   		movq	%rbx, %rax
 1704 08bf 4889C7   		movq	%rax, %rdi
 1705              	.LEHB35:
 1706 08c2 E8000000 		call	_Unwind_Resume
 1706      00
 1707              	.LEHE35:
 1708              	.L97:
 1709 08c7 4889C3   		movq	%rax, %rbx
 1710              	.LBE40:
 1711              	.LBB41:
 1712              	.LBB42:
 1713 08ca 488D8580 		leaq	-2176(%rbp), %rax
 1713      F7FFFF
 1714 08d1 4889C7   		movq	%rax, %rdi
 1715 08d4 E8000000 		call	_ZN8UnitTest15MemoryOutStreamD1Ev
 1715      00
 1716 08d9 EB03     		jmp	.L88
 1717              	.L98:
 1718 08db 4889C3   		movq	%rax, %rbx
 1719              	.L88:
 1720              	.LBE42:
 1721 08de E8000000 		call	__cxa_end_catch
 1721      00
 1722 08e3 4889D8   		movq	%rbx, %rax
 1723 08e6 4889C7   		movq	%rax, %rdi
 1724              	.LEHB36:
 1725 08e9 E8000000 		call	_Unwind_Resume
 1725      00
 1726              	.LEHE36:
 1727              	.L99:
 1728 08ee 4889C3   		movq	%rax, %rbx
 1729              	.LBE41:
 1730 08f1 E8000000 		call	__cxa_end_catch
 1730      00
 1731 08f6 4889D8   		movq	%rbx, %rax
 1732 08f9 4889C7   		movq	%rax, %rdi
 1733              	.LEHB37:
 1734 08fc E8000000 		call	_Unwind_Resume
 1734      00
 1735              	.LEHE37:
 1736              	.L84:
 1737              	.LBB44:
 1738 0901 4889C7   		movq	%rax, %rdi
 1739 0904 E8000000 		call	__cxa_begin_catch
 1739      00
 1740 0909 48898550 		movq	%rax, -2224(%rbp)
 1740      F7FFFF
 1741 0910 488B8550 		movq	-2224(%rbp), %rax
 1741      F7FFFF
 1742 0917 488B00   		movq	(%rax), %rax
 1743 091a 4883C010 		addq	$16, %rax
 1744 091e 488B00   		movq	(%rax), %rax
 1745 0921 488B9550 		movq	-2224(%rbp), %rdx
 1745      F7FFFF
 1746 0928 4889D7   		movq	%rdx, %rdi
 1747 092b FFD0     		call	*%rax
 1748 092d 4889C3   		movq	%rax, %rbx
 1749 0930 488B8550 		movq	-2224(%rbp), %rax
 1749      F7FFFF
 1750 0937 4889C7   		movq	%rax, %rdi
 1751              	.LEHB38:
 1752 093a E8000000 		call	_ZNK8UnitTest15AssertException10LineNumberEv
 1752      00
 1753 093f 4189C4   		movl	%eax, %r12d
 1754 0942 488B8550 		movq	-2224(%rbp), %rax
 1754      F7FFFF
 1755 0949 4889C7   		movq	%rax, %rdi
 1756 094c E8000000 		call	_ZNK8UnitTest15AssertException8FilenameEv
 1756      00
 1757              		.loc 6 72 0 discriminator 5
 1758 0951 4889C1   		movq	%rax, %rcx
 1759 0954 488B8538 		movq	-2248(%rbp), %rax
 1759      F7FFFF
 1760 095b 488B5008 		movq	8(%rax), %rdx
 1761 095f 488B8538 		movq	-2248(%rbp), %rax
 1761      F7FFFF
 1762 0966 488B7010 		movq	16(%rax), %rsi
 1763 096a 488D8560 		leaq	-2208(%rbp), %rax
 1763      F7FFFF
 1764 0971 4589E0   		movl	%r12d, %r8d
 1765 0974 4889C7   		movq	%rax, %rdi
 1766 0977 E8000000 		call	_ZN8UnitTest11TestDetailsC1EPKcS2_S2_i
 1766      00
 1767              		.loc 6 72 0 discriminator 9
 1768 097c E8000000 		call	_ZN8UnitTest11CurrentTest7ResultsEv
 1768      00
 1769 0981 488B00   		movq	(%rax), %rax
 1770 0984 488D8D60 		leaq	-2208(%rbp), %rcx
 1770      F7FFFF
 1771 098b 4889DA   		movq	%rbx, %rdx
 1772 098e 4889CE   		movq	%rcx, %rsi
 1773 0991 4889C7   		movq	%rax, %rdi
 1774 0994 E8000000 		call	_ZN8UnitTest11TestResults13OnTestFailureERKNS_11TestDetailsEPKc
 1774      00
 1775              	.LEHE38:
 1776              		.loc 6 72 0 discriminator 13
 1777 0999 E8000000 		call	__cxa_end_catch
 1777      00
 1778              	.LBE44:
 1779              	.LBE46:
 1780 099e E9430100 		jmp	.L101
 1780      00
 1781              	.L85:
 1782              	.LBB47:
 1783              	.LBB45:
 1784              		.loc 6 72 0
 1785 09a3 4889C7   		movq	%rax, %rdi
 1786 09a6 E8000000 		call	__cxa_begin_catch
 1786      00
 1787 09ab 48898558 		movq	%rax, -2216(%rbp)
 1787      F7FFFF
 1788              	.LBB43:
 1789 09b2 488D8580 		leaq	-2176(%rbp), %rax
 1789      F7FFFF
 1790 09b9 4889C7   		movq	%rax, %rdi
 1791              	.LEHB39:
 1792 09bc E8000000 		call	_ZN8UnitTest15MemoryOutStreamC1Ev
 1792      00
 1793              	.LEHE39:
 1794              		.loc 6 72 0 discriminator 15
 1795 09c1 488B8558 		movq	-2216(%rbp), %rax
 1795      F7FFFF
 1796 09c8 488B00   		movq	(%rax), %rax
 1797 09cb 4883C010 		addq	$16, %rax
 1798 09cf 488B00   		movq	(%rax), %rax
 1799 09d2 488B9558 		movq	-2216(%rbp), %rdx
 1799      F7FFFF
 1800 09d9 4889D7   		movq	%rdx, %rdi
 1801 09dc FFD0     		call	*%rax
 1802 09de 4889C3   		movq	%rax, %rbx
 1803 09e1 488D8580 		leaq	-2176(%rbp), %rax
 1803      F7FFFF
 1804 09e8 BE000000 		movl	$.LC8, %esi
 1804      00
 1805 09ed 4889C7   		movq	%rax, %rdi
 1806              	.LEHB40:
 1807 09f0 E8000000 		call	_ZStlsISt11char_traitsIcEERSt13basic_ostreamIcT_ES5_PKc
 1807      00
 1808 09f5 4889DE   		movq	%rbx, %rsi
 1809 09f8 4889C7   		movq	%rax, %rdi
 1810 09fb E8000000 		call	_ZStlsISt11char_traitsIcEERSt13basic_ostreamIcT_ES5_PKc
 1810      00
 1811              		.loc 6 72 0 discriminator 19
 1812 0a00 488D8580 		leaq	-2176(%rbp), %rax
 1812      F7FFFF
 1813 0a07 4889C7   		movq	%rax, %rdi
 1814 0a0a E8000000 		call	_ZNK8UnitTest15MemoryOutStream7GetTextEv
 1814      00
 1815 0a0f 4989C4   		movq	%rax, %r12
 1816 0a12 488B8538 		movq	-2248(%rbp), %rax
 1816      F7FFFF
 1817 0a19 488D5808 		leaq	8(%rax), %rbx
 1818 0a1d E8000000 		call	_ZN8UnitTest11CurrentTest7ResultsEv
 1818      00
 1819              		.loc 6 72 0 discriminator 21
 1820 0a22 488B00   		movq	(%rax), %rax
 1821 0a25 4C89E2   		movq	%r12, %rdx
 1822 0a28 4889DE   		movq	%rbx, %rsi
 1823 0a2b 4889C7   		movq	%rax, %rdi
 1824 0a2e E8000000 		call	_ZN8UnitTest11TestResults13OnTestFailureERKNS_11TestDetailsEPKc
 1824      00
 1825              	.LEHE40:
 1826              		.loc 6 72 0 discriminator 25
 1827 0a33 488D8580 		leaq	-2176(%rbp), %rax
 1827      F7FFFF
 1828 0a3a 4889C7   		movq	%rax, %rdi
 1829              	.LEHB41:
 1830 0a3d E8000000 		call	_ZN8UnitTest15MemoryOutStreamD1Ev
 1830      00
 1831              	.LEHE41:
 1832              	.LBE43:
 1833              		.loc 6 72 0 discriminator 26
 1834 0a42 E8000000 		call	__cxa_end_catch
 1834      00
 1835              	.LBE45:
 1836              	.LBE47:
 1837 0a47 E99A0000 		jmp	.L101
 1837      00
 1838              	.L100:
 1839              	.LBB48:
 1840              		.loc 6 72 0
 1841 0a4c 4889C7   		movq	%rax, %rdi
 1842 0a4f E8000000 		call	__cxa_begin_catch
 1842      00
 1843 0a54 80BD4FF7 		cmpb	$0, -2225(%rbp)
 1843      FFFF00
 1844 0a5b 7443     		je	.L91
 1845              		.loc 6 72 0 discriminator 28
 1846 0a5d 488B8538 		movq	-2248(%rbp), %rax
 1846      F7FFFF
 1847 0a64 488D4808 		leaq	8(%rax), %rcx
 1848 0a68 488D8560 		leaq	-2208(%rbp), %rax
 1848      F7FFFF
 1849 0a6f BA480000 		movl	$72, %edx
 1849      00
 1850 0a74 4889CE   		movq	%rcx, %rsi
 1851 0a77 4889C7   		movq	%rax, %rdi
 1852              	.LEHB42:
 1853 0a7a E8000000 		call	_ZN8UnitTest11TestDetailsC1ERKS0_i
 1853      00
 1854              		.loc 6 72 0 discriminator 31
 1855 0a7f E8000000 		call	_ZN8UnitTest11CurrentTest7ResultsEv
 1855      00
 1856 0a84 488B00   		movq	(%rax), %rax
 1857 0a87 488D8D60 		leaq	-2208(%rbp), %rcx
 1857      F7FFFF
 1858 0a8e BA000000 		movl	$.LC9, %edx
 1858      00
 1859 0a93 4889CE   		movq	%rcx, %rsi
 1860 0a96 4889C7   		movq	%rax, %rdi
 1861 0a99 E8000000 		call	_ZN8UnitTest11TestResults13OnTestFailureERKNS_11TestDetailsEPKc
 1861      00
 1862 0a9e EB41     		jmp	.L92
 1863              	.L91:
 1864              		.loc 6 72 0 discriminator 29
 1865 0aa0 488B8538 		movq	-2248(%rbp), %rax
 1865      F7FFFF
 1866 0aa7 488D4808 		leaq	8(%rax), %rcx
 1867 0aab 488D8560 		leaq	-2208(%rbp), %rax
 1867      F7FFFF
 1868 0ab2 BA480000 		movl	$72, %edx
 1868      00
 1869 0ab7 4889CE   		movq	%rcx, %rsi
 1870 0aba 4889C7   		movq	%rax, %rdi
 1871 0abd E8000000 		call	_ZN8UnitTest11TestDetailsC1ERKS0_i
 1871      00
 1872              		.loc 6 72 0 discriminator 38
 1873 0ac2 E8000000 		call	_ZN8UnitTest11CurrentTest7ResultsEv
 1873      00
 1874 0ac7 488B00   		movq	(%rax), %rax
 1875 0aca 488D8D60 		leaq	-2208(%rbp), %rcx
 1875      F7FFFF
 1876 0ad1 BA000000 		movl	$.LC10, %edx
 1876      00
 1877 0ad6 4889CE   		movq	%rcx, %rsi
 1878 0ad9 4889C7   		movq	%rax, %rdi
 1879 0adc E8000000 		call	_ZN8UnitTest11TestResults13OnTestFailureERKNS_11TestDetailsEPKc
 1879      00
 1880              	.LEHE42:
 1881              	.L92:
 1882              	.LEHB43:
 1883              		.loc 6 72 0 discriminator 43
 1884 0ae1 E8000000 		call	__cxa_end_catch
 1884      00
 1885              	.LEHE43:
 1886              	.L101:
 1887              	.LBE48:
 1888              		.loc 6 72 0
 1889 0ae6 90       		nop
 1890 0ae7 488B45E8 		movq	-24(%rbp), %rax
 1891 0aeb 64483304 		xorq	%fs:40, %rax
 1891      25280000 
 1891      00
 1892 0af4 7405     		je	.L93
 1893 0af6 E8000000 		call	__stack_chk_fail
 1893      00
 1894              	.L93:
 1895 0afb 4881C4C0 		addq	$2240, %rsp
 1895      080000
 1896 0b02 5B       		popq	%rbx
 1897 0b03 415C     		popq	%r12
 1898 0b05 5D       		popq	%rbp
 1899              		.cfi_def_cfa 7, 8
 1900 0b06 C3       		ret
 1901              		.cfi_endproc
 1902              	.LFE1109:
 1903              		.section	.gcc_except_table
 1904              		.align 4
 1905              	.LLSDA1109:
 1906 00c0 FF       		.byte	0xff
 1907 00c1 03       		.byte	0x3
 1908 00c2 59       		.uleb128 .LLSDATT1109-.LLSDATTD1109
 1909              	.LLSDATTD1109:
 1910 00c3 01       		.byte	0x1
 1911 00c4 41       		.uleb128 .LLSDACSE1109-.LLSDACSB1109
 1912              	.LLSDACSB1109:
 1913 00c5 43       		.uleb128 .LEHB32-.LFB1109
 1914 00c6 05       		.uleb128 .LEHE32-.LEHB32
 1915 00c7 9D01     		.uleb128 .L94-.LFB1109
 1916 00c9 05       		.uleb128 0x5
 1917 00ca 67       		.uleb128 .LEHB33-.LFB1109
 1918 00cb 05       		.uleb128 .LEHE33-.LEHB33
 1919 00cc 8001     		.uleb128 .L95-.LFB1109
 1920 00ce 07       		.uleb128 0x7
 1921 00cf 76       		.uleb128 .LEHB34-.LFB1109
 1922 00d0 05       		.uleb128 .LEHE34-.LEHB34
 1923 00d1 9D01     		.uleb128 .L94-.LFB1109
 1924 00d3 05       		.uleb128 0x5
 1925 00d4 C001     		.uleb128 .LEHB35-.LFB1109
 1926 00d6 05       		.uleb128 .LEHE35-.LEHB35
 1927 00d7 00       		.uleb128 0
 1928 00d8 00       		.uleb128 0
 1929 00d9 E701     		.uleb128 .LEHB36-.LFB1109
 1930 00db 05       		.uleb128 .LEHE36-.LEHB36
 1931 00dc 00       		.uleb128 0
 1932 00dd 00       		.uleb128 0
 1933 00de FA01     		.uleb128 .LEHB37-.LFB1109
 1934 00e0 05       		.uleb128 .LEHE37-.LEHB37
 1935 00e1 00       		.uleb128 0
 1936 00e2 00       		.uleb128 0
 1937 00e3 B802     		.uleb128 .LEHB38-.LFB1109
 1938 00e5 5F       		.uleb128 .LEHE38-.LEHB38
 1939 00e6 B201     		.uleb128 .L96-.LFB1109
 1940 00e8 00       		.uleb128 0
 1941 00e9 BA03     		.uleb128 .LEHB39-.LFB1109
 1942 00eb 05       		.uleb128 .LEHE39-.LEHB39
 1943 00ec D901     		.uleb128 .L98-.LFB1109
 1944 00ee 00       		.uleb128 0
 1945 00ef EE03     		.uleb128 .LEHB40-.LFB1109
 1946 00f1 43       		.uleb128 .LEHE40-.LEHB40
 1947 00f2 C501     		.uleb128 .L97-.LFB1109
 1948 00f4 00       		.uleb128 0
 1949 00f5 BB04     		.uleb128 .LEHB41-.LFB1109
 1950 00f7 05       		.uleb128 .LEHE41-.LEHB41
 1951 00f8 D901     		.uleb128 .L98-.LFB1109
 1952 00fa 00       		.uleb128 0
 1953 00fb F804     		.uleb128 .LEHB42-.LFB1109
 1954 00fd 67       		.uleb128 .LEHE42-.LEHB42
 1955 00fe EC01     		.uleb128 .L99-.LFB1109
 1956 0100 00       		.uleb128 0
 1957 0101 DF05     		.uleb128 .LEHB43-.LFB1109
 1958 0103 05       		.uleb128 .LEHE43-.LEHB43
 1959 0104 00       		.uleb128 0
 1960 0105 00       		.uleb128 0
 1961              	.LLSDACSE1109:
 1962 0106 03       		.byte	0x3
 1963 0107 00       		.byte	0
 1964 0108 02       		.byte	0x2
 1965 0109 7D       		.byte	0x7d
 1966 010a 01       		.byte	0x1
 1967 010b 7D       		.byte	0x7d
 1968 010c 00       		.byte	0
 1969 010d 7D       		.byte	0x7d
 1970 010e 0000     		.align 4
 1971 0110 00000000 		.long	0
 1972              	
 1973 0114 00000000 		.long	_ZTISt9exception
 1974 0118 00000000 		.long	_ZTIN8UnitTest15AssertExceptionE
 1975              	.LLSDATT1109:
 1976              		.text
 1978              		.section	.rodata
 1979 019f 00       		.align 8
 1980              	.LC15:
 1981 01a0 556E6861 		.string	"Unhandled exception in CHECK_EQUAL(1, reporter.testFinishedCount)"
 1981      6E646C65 
 1981      64206578 
 1981      63657074 
 1981      696F6E20 
 1982 01e2 00000000 		.align 8
 1982      0000
 1983              	.LC16:
 1984 01e8 556E6861 		.string	"Unhandled exception in CHECK_EQUAL(\"goodtest\", reporter.lastFinishedTest)"
 1984      6E646C65 
 1984      64206578 
 1984      63657074 
 1984      696F6E20 
 1985              		.text
 1986 0b07 90       		.align 2
 1988              	_ZN12_GLOBAL__N_152TestRunnerFixtureTestFinishIsReportedCorrectlyHelper7RunImplEv:
 1989              	.LFB1113:
  73:TestTestRunner.cpp **** {
 1990              		.loc 6 73 0 is_stmt 1
 1991              		.cfi_startproc
 1992              		.cfi_personality 0x3,__gxx_personality_v0
 1993              		.cfi_lsda 0x3,.LLSDA1113
 1994 0b08 55       		pushq	%rbp
 1995              		.cfi_def_cfa_offset 16
 1996              		.cfi_offset 6, -16
 1997 0b09 4889E5   		movq	%rsp, %rbp
 1998              		.cfi_def_cfa_register 6
 1999 0b0c 53       		pushq	%rbx
 2000 0b0d 4881EC88 		subq	$136, %rsp
 2000      000000
 2001              		.cfi_offset 3, -24
 2002 0b14 4889BD78 		movq	%rdi, -136(%rbp)
 2002      FFFFFF
 2003              		.loc 6 73 0
 2004 0b1b 64488B04 		movq	%fs:40, %rax
 2004      25280000 
 2004      00
 2005 0b24 488945E8 		movq	%rax, -24(%rbp)
 2006 0b28 31C0     		xorl	%eax, %eax
 2007              	.LBB49:
  74:TestTestRunner.cpp ****     MockTest test("goodtest", true, false);
 2008              		.loc 6 74 0
 2009 0b2a 488D45B0 		leaq	-80(%rbp), %rax
 2010 0b2e 41B80100 		movl	$1, %r8d
 2010      0000
 2011 0b34 B9000000 		movl	$0, %ecx
 2011      00
 2012 0b39 BA010000 		movl	$1, %edx
 2012      00
 2013 0b3e BE000000 		movl	$.LC11, %esi
 2013      00
 2014 0b43 4889C7   		movq	%rax, %rdi
 2015              	.LEHB44:
 2016 0b46 E8B5F4FF 		call	_ZN12_GLOBAL__N_18MockTestC2EPKcbbi
 2016      FF
 2017              	.LEHE44:
  75:TestTestRunner.cpp ****     list.Add(&test);
 2018              		.loc 6 75 0
 2019 0b4b 488B8578 		movq	-136(%rbp), %rax
 2019      FFFFFF
 2020 0b52 488D9048 		leaq	2120(%rax), %rdx
 2020      080000
 2021 0b59 488D45B0 		leaq	-80(%rbp), %rax
 2022 0b5d 4889C6   		movq	%rax, %rsi
 2023 0b60 4889D7   		movq	%rdx, %rdi
 2024              	.LEHB45:
 2025 0b63 E8000000 		call	_ZN8UnitTest8TestList3AddEPNS_4TestE
 2025      00
  76:TestTestRunner.cpp **** 
  77:TestTestRunner.cpp **** 	RunTestsIf(list, NULL, True(), 0);
 2026              		.loc 6 77 0
 2027 0b68 488B8578 		movq	-136(%rbp), %rax
 2027      FFFFFF
 2028 0b6f 488DB048 		leaq	2120(%rax), %rsi
 2028      080000
 2029 0b76 488B8578 		movq	-136(%rbp), %rax
 2029      FFFFFF
 2030 0b7d 488D5590 		leaq	-112(%rbp), %rdx
 2031 0b81 41B80000 		movl	$0, %r8d
 2031      0000
 2032 0b87 4889D1   		movq	%rdx, %rcx
 2033 0b8a BA000000 		movl	$0, %edx
 2033      00
 2034 0b8f 4889C7   		movq	%rax, %rdi
 2035 0b92 E86B6000 		call	_ZN12_GLOBAL__N_111FixtureBase10RunTestsIfIN8UnitTest4TrueEEEiRKNS2_8TestListEPKcRKT_i
 2035      00
 2036              	.LEHE45:
 2037              	.LEHB46:
  78:TestTestRunner.cpp ****     CHECK_EQUAL(1, reporter.testFinishedCount);
 2038              		.loc 6 78 0 discriminator 2
 2039 0b97 E8000000 		call	_ZN8UnitTest11CurrentTest7DetailsEv
 2039      00
 2040 0b9c 488B08   		movq	(%rax), %rcx
 2041 0b9f 488D4590 		leaq	-112(%rbp), %rax
 2042 0ba3 BA4E0000 		movl	$78, %edx
 2042      00
 2043 0ba8 4889CE   		movq	%rcx, %rsi
 2044 0bab 4889C7   		movq	%rax, %rdi
 2045 0bae E8000000 		call	_ZN8UnitTest11TestDetailsC1ERKS0_i
 2045      00
 2046 0bb3 488B8578 		movq	-136(%rbp), %rax
 2046      FFFFFF
 2047 0bba 488D982C 		leaq	1580(%rax), %rbx
 2047      060000
 2048 0bc1 C7458C01 		movl	$1, -116(%rbp)
 2048      000000
 2049 0bc8 E8000000 		call	_ZN8UnitTest11CurrentTest7ResultsEv
 2049      00
 2050 0bcd 488B00   		movq	(%rax), %rax
 2051 0bd0 488D5590 		leaq	-112(%rbp), %rdx
 2052 0bd4 488D758C 		leaq	-116(%rbp), %rsi
 2053 0bd8 4889D1   		movq	%rdx, %rcx
 2054 0bdb 4889DA   		movq	%rbx, %rdx
 2055 0bde 4889C7   		movq	%rax, %rdi
 2056 0be1 E8000000 		call	_ZN8UnitTest10CheckEqualIiiEEvRNS_11TestResultsERKT_RKT0_RKNS_11TestDetailsE
 2056      00
 2057              	.LEHE46:
 2058              	.L106:
 2059              	.LEHB47:
  79:TestTestRunner.cpp ****     CHECK_EQUAL("goodtest", reporter.lastFinishedTest);
 2060              		.loc 6 79 0
 2061 0be6 E8000000 		call	_ZN8UnitTest11CurrentTest7DetailsEv
 2061      00
 2062 0beb 488B08   		movq	(%rax), %rcx
 2063 0bee 488D4590 		leaq	-112(%rbp), %rax
 2064 0bf2 BA4F0000 		movl	$79, %edx
 2064      00
 2065 0bf7 4889CE   		movq	%rcx, %rsi
 2066 0bfa 4889C7   		movq	%rax, %rdi
 2067 0bfd E8000000 		call	_ZN8UnitTest11TestDetailsC1ERKS0_i
 2067      00
 2068              		.loc 6 79 0 is_stmt 0 discriminator 2
 2069 0c02 488B8578 		movq	-136(%rbp), %rax
 2069      FFFFFF
 2070 0c09 488D9830 		leaq	1840(%rax), %rbx
 2070      070000
 2071 0c10 E8000000 		call	_ZN8UnitTest11CurrentTest7ResultsEv
 2071      00
 2072 0c15 488B00   		movq	(%rax), %rax
 2073 0c18 488D5590 		leaq	-112(%rbp), %rdx
 2074 0c1c 4889D1   		movq	%rdx, %rcx
 2075 0c1f 4889DA   		movq	%rbx, %rdx
 2076 0c22 BE000000 		movl	$.LC11, %esi
 2076      00
 2077 0c27 4889C7   		movq	%rax, %rdi
 2078 0c2a E8000000 		call	_ZN8UnitTest10CheckEqualERNS_11TestResultsEPKcPcRKNS_11TestDetailsE
 2078      00
 2079              	.LEHE47:
 2080              	.L109:
 2081              		.loc 6 79 0 discriminator 7
 2082 0c2f 488D45B0 		leaq	-80(%rbp), %rax
 2083 0c33 4889C7   		movq	%rax, %rdi
 2084              	.LEHB48:
 2085 0c36 E8C39400 		call	_ZN12_GLOBAL__N_18MockTestD2Ev
 2085      00
 2086              	.LEHE48:
 2087              	.LBE49:
  80:TestTestRunner.cpp **** }
 2088              		.loc 6 80 0 is_stmt 1 discriminator 7
 2089 0c3b 488B45E8 		movq	-24(%rbp), %rax
 2090 0c3f 64483304 		xorq	%fs:40, %rax
 2090      25280000 
 2090      00
 2091 0c48 0F84CF00 		je	.L110
 2091      0000
 2092 0c4e E9C50000 		jmp	.L116
 2092      00
 2093              	.L113:
 2094 0c53 4889C3   		movq	%rax, %rbx
 2095              	.LBB50:
  78:TestTestRunner.cpp ****     CHECK_EQUAL(1, reporter.testFinishedCount);
 2096              		.loc 6 78 0
 2097 0c56 E8000000 		call	__cxa_end_catch
 2097      00
 2098 0c5b E9A10000 		jmp	.L104
 2098      00
 2099              	.L112:
 2100 0c60 4889C7   		movq	%rax, %rdi
 2101 0c63 E8000000 		call	__cxa_begin_catch
 2101      00
 2102              	.LEHB49:
 2103 0c68 E8000000 		call	_ZN8UnitTest11CurrentTest7DetailsEv
 2103      00
 2104 0c6d 488B08   		movq	(%rax), %rcx
 2105 0c70 488D4590 		leaq	-112(%rbp), %rax
 2106 0c74 BA4E0000 		movl	$78, %edx
 2106      00
 2107 0c79 4889CE   		movq	%rcx, %rsi
 2108 0c7c 4889C7   		movq	%rax, %rdi
 2109 0c7f E8000000 		call	_ZN8UnitTest11TestDetailsC1ERKS0_i
 2109      00
  78:TestTestRunner.cpp ****     CHECK_EQUAL(1, reporter.testFinishedCount);
 2110              		.loc 6 78 0 is_stmt 0 discriminator 10
 2111 0c84 E8000000 		call	_ZN8UnitTest11CurrentTest7ResultsEv
 2111      00
 2112 0c89 488B00   		movq	(%rax), %rax
 2113 0c8c 488D4D90 		leaq	-112(%rbp), %rcx
 2114 0c90 BA000000 		movl	$.LC15, %edx
 2114      00
 2115 0c95 4889CE   		movq	%rcx, %rsi
 2116 0c98 4889C7   		movq	%rax, %rdi
 2117 0c9b E8000000 		call	_ZN8UnitTest11TestResults13OnTestFailureERKNS_11TestDetailsEPKc
 2117      00
 2118              	.LEHE49:
 2119              	.LEHB50:
  78:TestTestRunner.cpp ****     CHECK_EQUAL(1, reporter.testFinishedCount);
 2120              		.loc 6 78 0 discriminator 14
 2121 0ca0 E8000000 		call	__cxa_end_catch
 2121      00
 2122              	.LEHE50:
  78:TestTestRunner.cpp ****     CHECK_EQUAL(1, reporter.testFinishedCount);
 2123              		.loc 6 78 0
 2124 0ca5 E93CFFFF 		jmp	.L106
 2124      FF
 2125              	.L115:
 2126 0caa 4889C3   		movq	%rax, %rbx
  79:TestTestRunner.cpp ****     CHECK_EQUAL("goodtest", reporter.lastFinishedTest);
 2127              		.loc 6 79 0 is_stmt 1
 2128 0cad E8000000 		call	__cxa_end_catch
 2128      00
 2129 0cb2 EB4D     		jmp	.L104
 2130              	.L114:
 2131 0cb4 4889C7   		movq	%rax, %rdi
 2132 0cb7 E8000000 		call	__cxa_begin_catch
 2132      00
 2133              	.LEHB51:
 2134 0cbc E8000000 		call	_ZN8UnitTest11CurrentTest7DetailsEv
 2134      00
 2135 0cc1 488B08   		movq	(%rax), %rcx
 2136 0cc4 488D4590 		leaq	-112(%rbp), %rax
 2137 0cc8 BA4F0000 		movl	$79, %edx
 2137      00
 2138 0ccd 4889CE   		movq	%rcx, %rsi
 2139 0cd0 4889C7   		movq	%rax, %rdi
 2140 0cd3 E8000000 		call	_ZN8UnitTest11TestDetailsC1ERKS0_i
 2140      00
  79:TestTestRunner.cpp ****     CHECK_EQUAL("goodtest", reporter.lastFinishedTest);
 2141              		.loc 6 79 0 is_stmt 0 discriminator 11
 2142 0cd8 E8000000 		call	_ZN8UnitTest11CurrentTest7ResultsEv
 2142      00
 2143 0cdd 488B00   		movq	(%rax), %rax
 2144 0ce0 488D4D90 		leaq	-112(%rbp), %rcx
 2145 0ce4 BA000000 		movl	$.LC16, %edx
 2145      00
 2146 0ce9 4889CE   		movq	%rcx, %rsi
 2147 0cec 4889C7   		movq	%rax, %rdi
 2148 0cef E8000000 		call	_ZN8UnitTest11TestResults13OnTestFailureERKNS_11TestDetailsEPKc
 2148      00
 2149              	.LEHE51:
 2150              	.LEHB52:
  79:TestTestRunner.cpp ****     CHECK_EQUAL("goodtest", reporter.lastFinishedTest);
 2151              		.loc 6 79 0 discriminator 15
 2152 0cf4 E8000000 		call	__cxa_end_catch
 2152      00
 2153              	.LEHE52:
  79:TestTestRunner.cpp ****     CHECK_EQUAL("goodtest", reporter.lastFinishedTest);
 2154              		.loc 6 79 0
 2155 0cf9 E931FFFF 		jmp	.L109
 2155      FF
 2156              	.L111:
 2157 0cfe 4889C3   		movq	%rax, %rbx
 2158              	.L104:
  79:TestTestRunner.cpp ****     CHECK_EQUAL("goodtest", reporter.lastFinishedTest);
 2159              		.loc 6 79 0 discriminator 16
 2160 0d01 488D45B0 		leaq	-80(%rbp), %rax
 2161 0d05 4889C7   		movq	%rax, %rdi
 2162 0d08 E8F19300 		call	_ZN12_GLOBAL__N_18MockTestD2Ev
 2162      00
 2163 0d0d 4889D8   		movq	%rbx, %rax
 2164 0d10 4889C7   		movq	%rax, %rdi
 2165              	.LEHB53:
 2166 0d13 E8000000 		call	_Unwind_Resume
 2166      00
 2167              	.LEHE53:
 2168              	.L116:
 2169              	.LBE50:
 2170              		.loc 6 80 0 is_stmt 1
 2171 0d18 E8000000 		call	__stack_chk_fail
 2171      00
 2172              	.L110:
 2173 0d1d 4881C488 		addq	$136, %rsp
 2173      000000
 2174 0d24 5B       		popq	%rbx
 2175 0d25 5D       		popq	%rbp
 2176              		.cfi_def_cfa 7, 8
 2177 0d26 C3       		ret
 2178              		.cfi_endproc
 2179              	.LFE1113:
 2180              		.section	.gcc_except_table
 2181              		.align 4
 2182              	.LLSDA1113:
 2183 011c FF       		.byte	0xff
 2184 011d 03       		.byte	0x3
 2185 011e 41       		.uleb128 .LLSDATT1113-.LLSDATTD1113
 2186              	.LLSDATTD1113:
 2187 011f 01       		.byte	0x1
 2188 0120 37       		.uleb128 .LLSDACSE1113-.LLSDACSB1113
 2189              	.LLSDACSB1113:
 2190 0121 3E       		.uleb128 .LEHB44-.LFB1113
 2191 0122 05       		.uleb128 .LEHE44-.LEHB44
 2192 0123 00       		.uleb128 0
 2193 0124 00       		.uleb128 0
 2194 0125 5B       		.uleb128 .LEHB45-.LFB1113
 2195 0126 34       		.uleb128 .LEHE45-.LEHB45
 2196 0127 F603     		.uleb128 .L111-.LFB1113
 2197 0129 00       		.uleb128 0
 2198 012a 8F01     		.uleb128 .LEHB46-.LFB1113
 2199 012c 4F       		.uleb128 .LEHE46-.LEHB46
 2200 012d D802     		.uleb128 .L112-.LFB1113
 2201 012f 01       		.uleb128 0x1
 2202 0130 DE01     		.uleb128 .LEHB47-.LFB1113
 2203 0132 49       		.uleb128 .LEHE47-.LEHB47
 2204 0133 AC03     		.uleb128 .L114-.LFB1113
 2205 0135 01       		.uleb128 0x1
 2206 0136 AE02     		.uleb128 .LEHB48-.LFB1113
 2207 0138 05       		.uleb128 .LEHE48-.LEHB48
 2208 0139 00       		.uleb128 0
 2209 013a 00       		.uleb128 0
 2210 013b E002     		.uleb128 .LEHB49-.LFB1113
 2211 013d 38       		.uleb128 .LEHE49-.LEHB49
 2212 013e CB02     		.uleb128 .L113-.LFB1113
 2213 0140 00       		.uleb128 0
 2214 0141 9803     		.uleb128 .LEHB50-.LFB1113
 2215 0143 05       		.uleb128 .LEHE50-.LEHB50
 2216 0144 F603     		.uleb128 .L111-.LFB1113
 2217 0146 00       		.uleb128 0
 2218 0147 B403     		.uleb128 .LEHB51-.LFB1113
 2219 0149 38       		.uleb128 .LEHE51-.LEHB51
 2220 014a A203     		.uleb128 .L115-.LFB1113
 2221 014c 00       		.uleb128 0
 2222 014d EC03     		.uleb128 .LEHB52-.LFB1113
 2223 014f 05       		.uleb128 .LEHE52-.LEHB52
 2224 0150 F603     		.uleb128 .L111-.LFB1113
 2225 0152 00       		.uleb128 0
 2226 0153 8B04     		.uleb128 .LEHB53-.LFB1113
 2227 0155 05       		.uleb128 .LEHE53-.LEHB53
 2228 0156 00       		.uleb128 0
 2229 0157 00       		.uleb128 0
 2230              	.LLSDACSE1113:
 2231 0158 01       		.byte	0x1
 2232 0159 00       		.byte	0
 2233 015a 0000     		.align 4
 2234 015c 00000000 		.long	0
 2235              	
 2236              	.LLSDATT1113:
 2237              		.text
 2239              		.section	.rodata
 2240              	.LC17:
 2241 0232 66696C65 		.string	"filename"
 2241      6E616D65 
 2241      00
 2242              	.LC18:
 2243 023b 736F6D65 		.string	"somesuite"
 2243      73756974 
 2243      6500
 2244              	.LC19:
 2245 0245 736C6F77 		.string	"slow"
 2245      00
 2246              		.text
 2247 0d27 90       		.align 2
 2249              	_ZN12_GLOBAL__N_18SlowTestC2Ev:
 2250              	.LFB1115:
  81:TestTestRunner.cpp **** 
  82:TestTestRunner.cpp **** class SlowTest : public Test
  83:TestTestRunner.cpp **** {
  84:TestTestRunner.cpp **** public:
  85:TestTestRunner.cpp ****     SlowTest() : Test("slow", "somesuite", "filename", 123) {}
 2251              		.loc 6 85 0
 2252              		.cfi_startproc
 2253 0d28 55       		pushq	%rbp
 2254              		.cfi_def_cfa_offset 16
 2255              		.cfi_offset 6, -16
 2256 0d29 4889E5   		movq	%rsp, %rbp
 2257              		.cfi_def_cfa_register 6
 2258 0d2c 4883EC10 		subq	$16, %rsp
 2259 0d30 48897DF8 		movq	%rdi, -8(%rbp)
 2260              	.LBB51:
 2261              		.loc 6 85 0
 2262 0d34 488B45F8 		movq	-8(%rbp), %rax
 2263 0d38 41B87B00 		movl	$123, %r8d
 2263      0000
 2264 0d3e B9000000 		movl	$.LC17, %ecx
 2264      00
 2265 0d43 BA000000 		movl	$.LC18, %edx
 2265      00
 2266 0d48 BE000000 		movl	$.LC19, %esi
 2266      00
 2267 0d4d 4889C7   		movq	%rax, %rdi
 2268 0d50 E8000000 		call	_ZN8UnitTest4TestC2EPKcS2_S2_i
 2268      00
 2269 0d55 488B45F8 		movq	-8(%rbp), %rax
 2270 0d59 48C70000 		movq	$_ZTVN12_GLOBAL__N_18SlowTestE+16, (%rax)
 2270      000000
 2271              	.LBE51:
 2272 0d60 C9       		leave
 2273              		.cfi_def_cfa 7, 8
 2274 0d61 C3       		ret
 2275              		.cfi_endproc
 2276              	.LFE1115:
 2278              		.align 2
 2280              	_ZNK12_GLOBAL__N_18SlowTest7RunImplEv:
 2281              	.LFB1117:
  86:TestTestRunner.cpp ****     virtual void RunImpl() const
 2282              		.loc 6 86 0
 2283              		.cfi_startproc
 2284 0d62 55       		pushq	%rbp
 2285              		.cfi_def_cfa_offset 16
 2286              		.cfi_offset 6, -16
 2287 0d63 4889E5   		movq	%rsp, %rbp
 2288              		.cfi_def_cfa_register 6
 2289 0d66 4883EC10 		subq	$16, %rsp
 2290 0d6a 48897DF8 		movq	%rdi, -8(%rbp)
  87:TestTestRunner.cpp ****     {
  88:TestTestRunner.cpp ****         TimeHelpers::SleepMs(20);
 2291              		.loc 6 88 0
 2292 0d6e BF140000 		movl	$20, %edi
 2292      00
 2293 0d73 E8000000 		call	_ZN8UnitTest11TimeHelpers7SleepMsEi
 2293      00
  89:TestTestRunner.cpp ****     }
 2294              		.loc 6 89 0
 2295 0d78 C9       		leave
 2296              		.cfi_def_cfa 7, 8
 2297 0d79 C3       		ret
 2298              		.cfi_endproc
 2299              	.LFE1117:
 2301              		.align 2
 2303              	_ZN12_GLOBAL__N_156TestRunnerFixtureTestFinishIsCalledWithCorrectTimeHelperC2ERKN8UnitTest11TestDet
 2304              	.LFB1119:
  90:TestTestRunner.cpp **** };
  91:TestTestRunner.cpp **** 
  92:TestTestRunner.cpp **** TEST_FIXTURE(TestRunnerFixture, TestFinishIsCalledWithCorrectTime)
 2305              		.loc 6 92 0
 2306              		.cfi_startproc
 2307 0d7a 55       		pushq	%rbp
 2308              		.cfi_def_cfa_offset 16
 2309              		.cfi_offset 6, -16
 2310 0d7b 4889E5   		movq	%rsp, %rbp
 2311              		.cfi_def_cfa_register 6
 2312 0d7e 4883EC10 		subq	$16, %rsp
 2313 0d82 48897DF8 		movq	%rdi, -8(%rbp)
 2314 0d86 488975F0 		movq	%rsi, -16(%rbp)
 2315              	.LBB52:
 2316              		.loc 6 92 0
 2317 0d8a 488B45F8 		movq	-8(%rbp), %rax
 2318 0d8e 4889C7   		movq	%rax, %rdi
 2319 0d91 E8D6F3FF 		call	_ZN12_GLOBAL__N_117TestRunnerFixtureC2Ev
 2319      FF
 2320 0d96 488B45F8 		movq	-8(%rbp), %rax
 2321 0d9a 488B55F0 		movq	-16(%rbp), %rdx
 2322 0d9e 48899058 		movq	%rdx, 2136(%rax)
 2322      080000
 2323              	.LBE52:
 2324 0da5 C9       		leave
 2325              		.cfi_def_cfa 7, 8
 2326 0da6 C3       		ret
 2327              		.cfi_endproc
 2328              	.LFE1119:
 2330              		.section	.rodata
 2331 024a 00000000 		.align 8
 2331      0000
 2332              	.LC20:
 2333 0250 54657374 		.string	"TestFinishIsCalledWithCorrectTime"
 2333      46696E69 
 2333      73684973 
 2333      43616C6C 
 2333      65645769 
 2334              		.text
 2335 0da7 90       		.align 2
 2337              	_ZN12_GLOBAL__N_154TestTestRunnerFixtureTestFinishIsCalledWithCorrectTimeC2Ev:
 2338              	.LFB1122:
 2339              		.loc 6 92 0
 2340              		.cfi_startproc
 2341 0da8 55       		pushq	%rbp
 2342              		.cfi_def_cfa_offset 16
 2343              		.cfi_offset 6, -16
 2344 0da9 4889E5   		movq	%rsp, %rbp
 2345              		.cfi_def_cfa_register 6
 2346 0dac 4883EC10 		subq	$16, %rsp
 2347 0db0 48897DF8 		movq	%rdi, -8(%rbp)
 2348              	.LBB53:
 2349              		.loc 6 92 0
 2350 0db4 E8000000 		call	_ZN13UnitTestSuite12GetSuiteNameEv
 2350      00
 2351 0db9 4889C2   		movq	%rax, %rdx
 2352 0dbc 488B45F8 		movq	-8(%rbp), %rax
 2353 0dc0 41B85C00 		movl	$92, %r8d
 2353      0000
 2354 0dc6 B9000000 		movl	$.LC6, %ecx
 2354      00
 2355 0dcb BE000000 		movl	$.LC20, %esi
 2355      00
 2356 0dd0 4889C7   		movq	%rax, %rdi
 2357 0dd3 E8000000 		call	_ZN8UnitTest4TestC2EPKcS2_S2_i
 2357      00
 2358 0dd8 488B45F8 		movq	-8(%rbp), %rax
 2359 0ddc 48C70000 		movq	$_ZTVN12_GLOBAL__N_154TestTestRunnerFixtureTestFinishIsCalledWithCorrectTimeE+16, (%rax)
 2359      000000
 2360              	.LBE53:
 2361 0de3 C9       		leave
 2362              		.cfi_def_cfa 7, 8
 2363 0de4 C3       		ret
 2364              		.cfi_endproc
 2365              	.LFE1122:
 2367              		.local	_ZN12_GLOBAL__N_162testTestRunnerFixtureTestFinishIsCalledWithCorrectTimeInstanceE
 2368              		.comm	_ZN12_GLOBAL__N_162testTestRunnerFixtureTestFinishIsCalledWithCorrectTimeInstanceE,56,32
 2369              		.local	_ZN12_GLOBAL__N_155adderTestRunnerFixtureTestFinishIsCalledWithCorrectTimeE
 2370              		.comm	_ZN12_GLOBAL__N_155adderTestRunnerFixtureTestFinishIsCalledWithCorrectTimeE,1,1
 2371 0de5 90       		.align 2
 2373              	_ZN12_GLOBAL__N_156TestRunnerFixtureTestFinishIsCalledWithCorrectTimeHelperD2Ev:
 2374              	.LFB1126:
 2375              		.loc 6 92 0
 2376              		.cfi_startproc
 2377 0de6 55       		pushq	%rbp
 2378              		.cfi_def_cfa_offset 16
 2379              		.cfi_offset 6, -16
 2380 0de7 4889E5   		movq	%rsp, %rbp
 2381              		.cfi_def_cfa_register 6
 2382 0dea 4883EC10 		subq	$16, %rsp
 2383 0dee 48897DF8 		movq	%rdi, -8(%rbp)
 2384              	.LBB54:
 2385              		.loc 6 92 0
 2386 0df2 488B45F8 		movq	-8(%rbp), %rax
 2387 0df6 4889C7   		movq	%rax, %rdi
 2388 0df9 E8BCF3FF 		call	_ZN12_GLOBAL__N_117TestRunnerFixtureD2Ev
 2388      FF
 2389              	.LBE54:
 2390 0dfe C9       		leave
 2391              		.cfi_def_cfa 7, 8
 2392 0dff C3       		ret
 2393              		.cfi_endproc
 2394              	.LFE1126:
 2396              		.align 2
 2398              	_ZNK12_GLOBAL__N_154TestTestRunnerFixtureTestFinishIsCalledWithCorrectTime7RunImplEv:
 2399              	.LFB1124:
 2400              		.loc 6 92 0
 2401              		.cfi_startproc
 2402              		.cfi_personality 0x3,__gxx_personality_v0
 2403              		.cfi_lsda 0x3,.LLSDA1124
 2404 0e00 55       		pushq	%rbp
 2405              		.cfi_def_cfa_offset 16
 2406              		.cfi_offset 6, -16
 2407 0e01 4889E5   		movq	%rsp, %rbp
 2408              		.cfi_def_cfa_register 6
 2409 0e04 4154     		pushq	%r12
 2410 0e06 53       		pushq	%rbx
 2411 0e07 4881ECC0 		subq	$2240, %rsp
 2411      080000
 2412              		.cfi_offset 12, -24
 2413              		.cfi_offset 3, -32
 2414 0e0e 4889BD38 		movq	%rdi, -2248(%rbp)
 2414      F7FFFF
 2415              		.loc 6 92 0
 2416 0e15 64488B04 		movq	%fs:40, %rax
 2416      25280000 
 2416      00
 2417 0e1e 488945E8 		movq	%rax, -24(%rbp)
 2418 0e22 31C0     		xorl	%eax, %eax
 2419              	.LBB55:
 2420 0e24 C6854FF7 		movb	$0, -2225(%rbp)
 2420      FFFF00
 2421              	.LBB56:
 2422 0e2b 488B8538 		movq	-2248(%rbp), %rax
 2422      F7FFFF
 2423 0e32 488D5008 		leaq	8(%rax), %rdx
 2424 0e36 488D8580 		leaq	-2176(%rbp), %rax
 2424      F7FFFF
 2425 0e3d 4889D6   		movq	%rdx, %rsi
 2426 0e40 4889C7   		movq	%rax, %rdi
 2427              	.LEHB54:
 2428 0e43 E832FFFF 		call	_ZN12_GLOBAL__N_156TestRunnerFixtureTestFinishIsCalledWithCorrectTimeHelperC2ERKN8UnitTest11T
 2428      FF
 2429              	.LEHE54:
 2430              		.loc 6 92 0 is_stmt 0 discriminator 1
 2431 0e48 C6854FF7 		movb	$1, -2225(%rbp)
 2431      FFFF01
 2432 0e4f 488B8538 		movq	-2248(%rbp), %rax
 2432      F7FFFF
 2433 0e56 488D5008 		leaq	8(%rax), %rdx
 2434 0e5a 488D8580 		leaq	-2176(%rbp), %rax
 2434      F7FFFF
 2435 0e61 4889D6   		movq	%rdx, %rsi
 2436 0e64 4889C7   		movq	%rax, %rdi
 2437              	.LEHB55:
 2438 0e67 E8CC6000 		call	_ZN8UnitTest11ExecuteTestIN12_GLOBAL__N_156TestRunnerFixtureTestFinishIsCalledWithCorrectTime
 2438      00
 2439              	.LEHE55:
 2440              		.loc 6 92 0 discriminator 3
 2441 0e6c 488D8580 		leaq	-2176(%rbp), %rax
 2441      F7FFFF
 2442 0e73 4889C7   		movq	%rax, %rdi
 2443              	.LEHB56:
 2444 0e76 E86BFFFF 		call	_ZN12_GLOBAL__N_156TestRunnerFixtureTestFinishIsCalledWithCorrectTimeHelperD2Ev
 2444      FF
 2445              	.LEHE56:
 2446              	.LBE56:
 2447              	.LBE55:
 2448              		.loc 6 92 0
 2449 0e7b E9640200 		jmp	.L144
 2449      00
 2450              	.L138:
 2451 0e80 4989C4   		movq	%rax, %r12
 2452 0e83 4889D3   		movq	%rdx, %rbx
 2453              	.LBB64:
 2454              	.LBB57:
 2455 0e86 488D8580 		leaq	-2176(%rbp), %rax
 2455      F7FFFF
 2456 0e8d 4889C7   		movq	%rax, %rdi
 2457 0e90 E851FFFF 		call	_ZN12_GLOBAL__N_156TestRunnerFixtureTestFinishIsCalledWithCorrectTimeHelperD2Ev
 2457      FF
 2458 0e95 4C89E0   		movq	%r12, %rax
 2459 0e98 4889DA   		movq	%rbx, %rdx
 2460 0e9b EB00     		jmp	.L125
 2461              	.L137:
 2462              	.L125:
 2463 0e9d 4883FA01 		cmpq	$1, %rdx
 2464 0ea1 745C     		je	.L127
 2465 0ea3 4883FA02 		cmpq	$2, %rdx
 2466 0ea7 0F84F400 		je	.L128
 2466      0000
 2467 0ead E9980100 		jmp	.L143
 2467      00
 2468              	.L139:
 2469 0eb2 4889C3   		movq	%rax, %rbx
 2470              	.LBE57:
 2471              	.LBB58:
 2472 0eb5 E8000000 		call	__cxa_end_catch
 2472      00
 2473 0eba 4889D8   		movq	%rbx, %rax
 2474 0ebd 4889C7   		movq	%rax, %rdi
 2475              	.LEHB57:
 2476 0ec0 E8000000 		call	_Unwind_Resume
 2476      00
 2477              	.LEHE57:
 2478              	.L140:
 2479 0ec5 4889C3   		movq	%rax, %rbx
 2480              	.LBE58:
 2481              	.LBB59:
 2482              	.LBB60:
 2483 0ec8 488D8580 		leaq	-2176(%rbp), %rax
 2483      F7FFFF
 2484 0ecf 4889C7   		movq	%rax, %rdi
 2485 0ed2 E8000000 		call	_ZN8UnitTest15MemoryOutStreamD1Ev
 2485      00
 2486 0ed7 EB03     		jmp	.L131
 2487              	.L141:
 2488 0ed9 4889C3   		movq	%rax, %rbx
 2489              	.L131:
 2490              	.LBE60:
 2491 0edc E8000000 		call	__cxa_end_catch
 2491      00
 2492 0ee1 4889D8   		movq	%rbx, %rax
 2493 0ee4 4889C7   		movq	%rax, %rdi
 2494              	.LEHB58:
 2495 0ee7 E8000000 		call	_Unwind_Resume
 2495      00
 2496              	.LEHE58:
 2497              	.L142:
 2498 0eec 4889C3   		movq	%rax, %rbx
 2499              	.LBE59:
 2500 0eef E8000000 		call	__cxa_end_catch
 2500      00
 2501 0ef4 4889D8   		movq	%rbx, %rax
 2502 0ef7 4889C7   		movq	%rax, %rdi
 2503              	.LEHB59:
 2504 0efa E8000000 		call	_Unwind_Resume
 2504      00
 2505              	.LEHE59:
 2506              	.L127:
 2507              	.LBB62:
 2508 0eff 4889C7   		movq	%rax, %rdi
 2509 0f02 E8000000 		call	__cxa_begin_catch
 2509      00
 2510 0f07 48898550 		movq	%rax, -2224(%rbp)
 2510      F7FFFF
 2511 0f0e 488B8550 		movq	-2224(%rbp), %rax
 2511      F7FFFF
 2512 0f15 488B00   		movq	(%rax), %rax
 2513 0f18 4883C010 		addq	$16, %rax
 2514 0f1c 488B00   		movq	(%rax), %rax
 2515 0f1f 488B9550 		movq	-2224(%rbp), %rdx
 2515      F7FFFF
 2516 0f26 4889D7   		movq	%rdx, %rdi
 2517 0f29 FFD0     		call	*%rax
 2518 0f2b 4889C3   		movq	%rax, %rbx
 2519 0f2e 488B8550 		movq	-2224(%rbp), %rax
 2519      F7FFFF
 2520 0f35 4889C7   		movq	%rax, %rdi
 2521              	.LEHB60:
 2522 0f38 E8000000 		call	_ZNK8UnitTest15AssertException10LineNumberEv
 2522      00
 2523 0f3d 4189C4   		movl	%eax, %r12d
 2524 0f40 488B8550 		movq	-2224(%rbp), %rax
 2524      F7FFFF
 2525 0f47 4889C7   		movq	%rax, %rdi
 2526 0f4a E8000000 		call	_ZNK8UnitTest15AssertException8FilenameEv
 2526      00
 2527              		.loc 6 92 0 discriminator 5
 2528 0f4f 4889C1   		movq	%rax, %rcx
 2529 0f52 488B8538 		movq	-2248(%rbp), %rax
 2529      F7FFFF
 2530 0f59 488B5008 		movq	8(%rax), %rdx
 2531 0f5d 488B8538 		movq	-2248(%rbp), %rax
 2531      F7FFFF
 2532 0f64 488B7010 		movq	16(%rax), %rsi
 2533 0f68 488D8560 		leaq	-2208(%rbp), %rax
 2533      F7FFFF
 2534 0f6f 4589E0   		movl	%r12d, %r8d
 2535 0f72 4889C7   		movq	%rax, %rdi
 2536 0f75 E8000000 		call	_ZN8UnitTest11TestDetailsC1EPKcS2_S2_i
 2536      00
 2537              		.loc 6 92 0 discriminator 9
 2538 0f7a E8000000 		call	_ZN8UnitTest11CurrentTest7ResultsEv
 2538      00
 2539 0f7f 488B00   		movq	(%rax), %rax
 2540 0f82 488D8D60 		leaq	-2208(%rbp), %rcx
 2540      F7FFFF
 2541 0f89 4889DA   		movq	%rbx, %rdx
 2542 0f8c 4889CE   		movq	%rcx, %rsi
 2543 0f8f 4889C7   		movq	%rax, %rdi
 2544 0f92 E8000000 		call	_ZN8UnitTest11TestResults13OnTestFailureERKNS_11TestDetailsEPKc
 2544      00
 2545              	.LEHE60:
 2546              		.loc 6 92 0 discriminator 13
 2547 0f97 E8000000 		call	__cxa_end_catch
 2547      00
 2548              	.LBE62:
 2549              	.LBE64:
 2550 0f9c E9430100 		jmp	.L144
 2550      00
 2551              	.L128:
 2552              	.LBB65:
 2553              	.LBB63:
 2554              		.loc 6 92 0
 2555 0fa1 4889C7   		movq	%rax, %rdi
 2556 0fa4 E8000000 		call	__cxa_begin_catch
 2556      00
 2557 0fa9 48898558 		movq	%rax, -2216(%rbp)
 2557      F7FFFF
 2558              	.LBB61:
 2559 0fb0 488D8580 		leaq	-2176(%rbp), %rax
 2559      F7FFFF
 2560 0fb7 4889C7   		movq	%rax, %rdi
 2561              	.LEHB61:
 2562 0fba E8000000 		call	_ZN8UnitTest15MemoryOutStreamC1Ev
 2562      00
 2563              	.LEHE61:
 2564              		.loc 6 92 0 discriminator 15
 2565 0fbf 488B8558 		movq	-2216(%rbp), %rax
 2565      F7FFFF
 2566 0fc6 488B00   		movq	(%rax), %rax
 2567 0fc9 4883C010 		addq	$16, %rax
 2568 0fcd 488B00   		movq	(%rax), %rax
 2569 0fd0 488B9558 		movq	-2216(%rbp), %rdx
 2569      F7FFFF
 2570 0fd7 4889D7   		movq	%rdx, %rdi
 2571 0fda FFD0     		call	*%rax
 2572 0fdc 4889C3   		movq	%rax, %rbx
 2573 0fdf 488D8580 		leaq	-2176(%rbp), %rax
 2573      F7FFFF
 2574 0fe6 BE000000 		movl	$.LC8, %esi
 2574      00
 2575 0feb 4889C7   		movq	%rax, %rdi
 2576              	.LEHB62:
 2577 0fee E8000000 		call	_ZStlsISt11char_traitsIcEERSt13basic_ostreamIcT_ES5_PKc
 2577      00
 2578 0ff3 4889DE   		movq	%rbx, %rsi
 2579 0ff6 4889C7   		movq	%rax, %rdi
 2580 0ff9 E8000000 		call	_ZStlsISt11char_traitsIcEERSt13basic_ostreamIcT_ES5_PKc
 2580      00
 2581              		.loc 6 92 0 discriminator 19
 2582 0ffe 488D8580 		leaq	-2176(%rbp), %rax
 2582      F7FFFF
 2583 1005 4889C7   		movq	%rax, %rdi
 2584 1008 E8000000 		call	_ZNK8UnitTest15MemoryOutStream7GetTextEv
 2584      00
 2585 100d 4989C4   		movq	%rax, %r12
 2586 1010 488B8538 		movq	-2248(%rbp), %rax
 2586      F7FFFF
 2587 1017 488D5808 		leaq	8(%rax), %rbx
 2588 101b E8000000 		call	_ZN8UnitTest11CurrentTest7ResultsEv
 2588      00
 2589              		.loc 6 92 0 discriminator 21
 2590 1020 488B00   		movq	(%rax), %rax
 2591 1023 4C89E2   		movq	%r12, %rdx
 2592 1026 4889DE   		movq	%rbx, %rsi
 2593 1029 4889C7   		movq	%rax, %rdi
 2594 102c E8000000 		call	_ZN8UnitTest11TestResults13OnTestFailureERKNS_11TestDetailsEPKc
 2594      00
 2595              	.LEHE62:
 2596              		.loc 6 92 0 discriminator 25
 2597 1031 488D8580 		leaq	-2176(%rbp), %rax
 2597      F7FFFF
 2598 1038 4889C7   		movq	%rax, %rdi
 2599              	.LEHB63:
 2600 103b E8000000 		call	_ZN8UnitTest15MemoryOutStreamD1Ev
 2600      00
 2601              	.LEHE63:
 2602              	.LBE61:
 2603              		.loc 6 92 0 discriminator 26
 2604 1040 E8000000 		call	__cxa_end_catch
 2604      00
 2605              	.LBE63:
 2606              	.LBE65:
 2607 1045 E99A0000 		jmp	.L144
 2607      00
 2608              	.L143:
 2609              	.LBB66:
 2610              		.loc 6 92 0
 2611 104a 4889C7   		movq	%rax, %rdi
 2612 104d E8000000 		call	__cxa_begin_catch
 2612      00
 2613 1052 80BD4FF7 		cmpb	$0, -2225(%rbp)
 2613      FFFF00
 2614 1059 7443     		je	.L134
 2615              		.loc 6 92 0 discriminator 28
 2616 105b 488B8538 		movq	-2248(%rbp), %rax
 2616      F7FFFF
 2617 1062 488D4808 		leaq	8(%rax), %rcx
 2618 1066 488D8560 		leaq	-2208(%rbp), %rax
 2618      F7FFFF
 2619 106d BA5C0000 		movl	$92, %edx
 2619      00
 2620 1072 4889CE   		movq	%rcx, %rsi
 2621 1075 4889C7   		movq	%rax, %rdi
 2622              	.LEHB64:
 2623 1078 E8000000 		call	_ZN8UnitTest11TestDetailsC1ERKS0_i
 2623      00
 2624              		.loc 6 92 0 discriminator 31
 2625 107d E8000000 		call	_ZN8UnitTest11CurrentTest7ResultsEv
 2625      00
 2626 1082 488B00   		movq	(%rax), %rax
 2627 1085 488D8D60 		leaq	-2208(%rbp), %rcx
 2627      F7FFFF
 2628 108c BA000000 		movl	$.LC9, %edx
 2628      00
 2629 1091 4889CE   		movq	%rcx, %rsi
 2630 1094 4889C7   		movq	%rax, %rdi
 2631 1097 E8000000 		call	_ZN8UnitTest11TestResults13OnTestFailureERKNS_11TestDetailsEPKc
 2631      00
 2632 109c EB41     		jmp	.L135
 2633              	.L134:
 2634              		.loc 6 92 0 discriminator 29
 2635 109e 488B8538 		movq	-2248(%rbp), %rax
 2635      F7FFFF
 2636 10a5 488D4808 		leaq	8(%rax), %rcx
 2637 10a9 488D8560 		leaq	-2208(%rbp), %rax
 2637      F7FFFF
 2638 10b0 BA5C0000 		movl	$92, %edx
 2638      00
 2639 10b5 4889CE   		movq	%rcx, %rsi
 2640 10b8 4889C7   		movq	%rax, %rdi
 2641 10bb E8000000 		call	_ZN8UnitTest11TestDetailsC1ERKS0_i
 2641      00
 2642              		.loc 6 92 0 discriminator 38
 2643 10c0 E8000000 		call	_ZN8UnitTest11CurrentTest7ResultsEv
 2643      00
 2644 10c5 488B00   		movq	(%rax), %rax
 2645 10c8 488D8D60 		leaq	-2208(%rbp), %rcx
 2645      F7FFFF
 2646 10cf BA000000 		movl	$.LC10, %edx
 2646      00
 2647 10d4 4889CE   		movq	%rcx, %rsi
 2648 10d7 4889C7   		movq	%rax, %rdi
 2649 10da E8000000 		call	_ZN8UnitTest11TestResults13OnTestFailureERKNS_11TestDetailsEPKc
 2649      00
 2650              	.LEHE64:
 2651              	.L135:
 2652              	.LEHB65:
 2653              		.loc 6 92 0 discriminator 43
 2654 10df E8000000 		call	__cxa_end_catch
 2654      00
 2655              	.LEHE65:
 2656              	.L144:
 2657              	.LBE66:
 2658              		.loc 6 92 0
 2659 10e4 90       		nop
 2660 10e5 488B45E8 		movq	-24(%rbp), %rax
 2661 10e9 64483304 		xorq	%fs:40, %rax
 2661      25280000 
 2661      00
 2662 10f2 7405     		je	.L136
 2663 10f4 E8000000 		call	__stack_chk_fail
 2663      00
 2664              	.L136:
 2665 10f9 4881C4C0 		addq	$2240, %rsp
 2665      080000
 2666 1100 5B       		popq	%rbx
 2667 1101 415C     		popq	%r12
 2668 1103 5D       		popq	%rbp
 2669              		.cfi_def_cfa 7, 8
 2670 1104 C3       		ret
 2671              		.cfi_endproc
 2672              	.LFE1124:
 2673              		.section	.gcc_except_table
 2674              		.align 4
 2675              	.LLSDA1124:
 2676 0160 FF       		.byte	0xff
 2677 0161 03       		.byte	0x3
 2678 0162 59       		.uleb128 .LLSDATT1124-.LLSDATTD1124
 2679              	.LLSDATTD1124:
 2680 0163 01       		.byte	0x1
 2681 0164 41       		.uleb128 .LLSDACSE1124-.LLSDACSB1124
 2682              	.LLSDACSB1124:
 2683 0165 43       		.uleb128 .LEHB54-.LFB1124
 2684 0166 05       		.uleb128 .LEHE54-.LEHB54
 2685 0167 9D01     		.uleb128 .L137-.LFB1124
 2686 0169 05       		.uleb128 0x5
 2687 016a 67       		.uleb128 .LEHB55-.LFB1124
 2688 016b 05       		.uleb128 .LEHE55-.LEHB55
 2689 016c 8001     		.uleb128 .L138-.LFB1124
 2690 016e 07       		.uleb128 0x7
 2691 016f 76       		.uleb128 .LEHB56-.LFB1124
 2692 0170 05       		.uleb128 .LEHE56-.LEHB56
 2693 0171 9D01     		.uleb128 .L137-.LFB1124
 2694 0173 05       		.uleb128 0x5
 2695 0174 C001     		.uleb128 .LEHB57-.LFB1124
 2696 0176 05       		.uleb128 .LEHE57-.LEHB57
 2697 0177 00       		.uleb128 0
 2698 0178 00       		.uleb128 0
 2699 0179 E701     		.uleb128 .LEHB58-.LFB1124
 2700 017b 05       		.uleb128 .LEHE58-.LEHB58
 2701 017c 00       		.uleb128 0
 2702 017d 00       		.uleb128 0
 2703 017e FA01     		.uleb128 .LEHB59-.LFB1124
 2704 0180 05       		.uleb128 .LEHE59-.LEHB59
 2705 0181 00       		.uleb128 0
 2706 0182 00       		.uleb128 0
 2707 0183 B802     		.uleb128 .LEHB60-.LFB1124
 2708 0185 5F       		.uleb128 .LEHE60-.LEHB60
 2709 0186 B201     		.uleb128 .L139-.LFB1124
 2710 0188 00       		.uleb128 0
 2711 0189 BA03     		.uleb128 .LEHB61-.LFB1124
 2712 018b 05       		.uleb128 .LEHE61-.LEHB61
 2713 018c D901     		.uleb128 .L141-.LFB1124
 2714 018e 00       		.uleb128 0
 2715 018f EE03     		.uleb128 .LEHB62-.LFB1124
 2716 0191 43       		.uleb128 .LEHE62-.LEHB62
 2717 0192 C501     		.uleb128 .L140-.LFB1124
 2718 0194 00       		.uleb128 0
 2719 0195 BB04     		.uleb128 .LEHB63-.LFB1124
 2720 0197 05       		.uleb128 .LEHE63-.LEHB63
 2721 0198 D901     		.uleb128 .L141-.LFB1124
 2722 019a 00       		.uleb128 0
 2723 019b F804     		.uleb128 .LEHB64-.LFB1124
 2724 019d 67       		.uleb128 .LEHE64-.LEHB64
 2725 019e EC01     		.uleb128 .L142-.LFB1124
 2726 01a0 00       		.uleb128 0
 2727 01a1 DF05     		.uleb128 .LEHB65-.LFB1124
 2728 01a3 05       		.uleb128 .LEHE65-.LEHB65
 2729 01a4 00       		.uleb128 0
 2730 01a5 00       		.uleb128 0
 2731              	.LLSDACSE1124:
 2732 01a6 03       		.byte	0x3
 2733 01a7 00       		.byte	0
 2734 01a8 02       		.byte	0x2
 2735 01a9 7D       		.byte	0x7d
 2736 01aa 01       		.byte	0x1
 2737 01ab 7D       		.byte	0x7d
 2738 01ac 00       		.byte	0
 2739 01ad 7D       		.byte	0x7d
 2740 01ae 0000     		.align 4
 2741 01b0 00000000 		.long	0
 2742              	
 2743 01b4 00000000 		.long	_ZTISt9exception
 2744 01b8 00000000 		.long	_ZTIN8UnitTest15AssertExceptionE
 2745              	.LLSDATT1124:
 2746              		.text
 2748              		.section	.rodata
 2749 0272 00000000 		.align 8
 2749      0000
 2750              	.LC23:
 2751 0278 7265706F 		.string	"reporter.lastFinishedTestTime >= 0.005f && reporter.lastFinishedTestTime <= 0.050f"
 2751      72746572 
 2751      2E6C6173 
 2751      7446696E 
 2751      69736865 
 2752 02cb 00000000 		.align 8
 2752      00
 2753              	.LC24:
 2754 02d0 556E6861 		.string	"Unhandled exception in CHECK(reporter.lastFinishedTestTime >= 0.005f && reporter.lastFini
 2754      6E646C65 
 2754      64206578 
 2754      63657074 
 2754      696F6E20 
 2755              		.text
 2756 1105 90       		.align 2
 2758              	_ZN12_GLOBAL__N_156TestRunnerFixtureTestFinishIsCalledWithCorrectTimeHelper7RunImplEv:
 2759              	.LFB1128:
  93:TestTestRunner.cpp **** {
 2760              		.loc 6 93 0 is_stmt 1
 2761              		.cfi_startproc
 2762              		.cfi_personality 0x3,__gxx_personality_v0
 2763              		.cfi_lsda 0x3,.LLSDA1128
 2764 1106 55       		pushq	%rbp
 2765              		.cfi_def_cfa_offset 16
 2766              		.cfi_offset 6, -16
 2767 1107 4889E5   		movq	%rsp, %rbp
 2768              		.cfi_def_cfa_register 6
 2769 110a 53       		pushq	%rbx
 2770 110b 4883EC78 		subq	$120, %rsp
 2771              		.cfi_offset 3, -24
 2772 110f 48897D88 		movq	%rdi, -120(%rbp)
 2773              		.loc 6 93 0
 2774 1113 64488B04 		movq	%fs:40, %rax
 2774      25280000 
 2774      00
 2775 111c 488945E8 		movq	%rax, -24(%rbp)
 2776 1120 31C0     		xorl	%eax, %eax
 2777              	.LBB67:
  94:TestTestRunner.cpp ****     SlowTest test;
 2778              		.loc 6 94 0
 2779 1122 488D45B0 		leaq	-80(%rbp), %rax
 2780 1126 4889C7   		movq	%rax, %rdi
 2781              	.LEHB66:
 2782 1129 E8FAFBFF 		call	_ZN12_GLOBAL__N_18SlowTestC2Ev
 2782      FF
 2783              	.LEHE66:
  95:TestTestRunner.cpp ****     list.Add(&test);
 2784              		.loc 6 95 0
 2785 112e 488B4588 		movq	-120(%rbp), %rax
 2786 1132 488D9048 		leaq	2120(%rax), %rdx
 2786      080000
 2787 1139 488D45B0 		leaq	-80(%rbp), %rax
 2788 113d 4889C6   		movq	%rax, %rsi
 2789 1140 4889D7   		movq	%rdx, %rdi
 2790              	.LEHB67:
 2791 1143 E8000000 		call	_ZN8UnitTest8TestList3AddEPNS_4TestE
 2791      00
  96:TestTestRunner.cpp **** 
  97:TestTestRunner.cpp **** 	RunTestsIf(list, NULL, True(), 0);
 2792              		.loc 6 97 0
 2793 1148 488B4588 		movq	-120(%rbp), %rax
 2794 114c 488DB048 		leaq	2120(%rax), %rsi
 2794      080000
 2795 1153 488B4588 		movq	-120(%rbp), %rax
 2796 1157 488D5590 		leaq	-112(%rbp), %rdx
 2797 115b 41B80000 		movl	$0, %r8d
 2797      0000
 2798 1161 4889D1   		movq	%rdx, %rcx
 2799 1164 BA000000 		movl	$0, %edx
 2799      00
 2800 1169 4889C7   		movq	%rax, %rdi
 2801 116c E8915A00 		call	_ZN12_GLOBAL__N_111FixtureBase10RunTestsIfIN8UnitTest4TrueEEEiRKNS2_8TestListEPKcRKT_i
 2801      00
 2802              	.LEHE67:
  98:TestTestRunner.cpp ****     CHECK(reporter.lastFinishedTestTime >= 0.005f && reporter.lastFinishedTestTime <= 0.050f);
 2803              		.loc 6 98 0 discriminator 2
 2804 1171 488B4588 		movq	-120(%rbp), %rax
 2805 1175 F30F1080 		movss	2096(%rax), %xmm0
 2805      30080000 
 2806 117d 0F2E0500 		ucomiss	.LC21(%rip), %xmm0
 2806      000000
 2807 1184 7220     		jb	.L146
 2808              		.loc 6 98 0 is_stmt 0 discriminator 1
 2809 1186 488B4588 		movq	-120(%rbp), %rax
 2810 118a F30F1088 		movss	2096(%rax), %xmm1
 2810      30080000 
 2811 1192 F30F1005 		movss	.LC22(%rip), %xmm0
 2811      00000000 
 2812 119a 0F2EC1   		ucomiss	%xmm1, %xmm0
 2813 119d 7207     		jb	.L146
 2814              		.loc 6 98 0 discriminator 3
 2815 119f B8010000 		movl	$1, %eax
 2815      00
 2816 11a4 EB05     		jmp	.L149
 2817              	.L146:
 2818              		.loc 6 98 0 discriminator 4
 2819 11a6 B8000000 		movl	$0, %eax
 2819      00
 2820              	.L149:
 2821              		.loc 6 98 0 discriminator 6
 2822 11ab 0FB6C0   		movzbl	%al, %eax
 2823 11ae 89C7     		movl	%eax, %edi
 2824 11b0 E8000000 		call	_ZN8UnitTest5CheckIbEEbT_
 2824      00
 2825 11b5 83F001   		xorl	$1, %eax
 2826 11b8 84C0     		testb	%al, %al
 2827 11ba 7438     		je	.L150
 2828              	.LEHB68:
 2829              		.loc 6 98 0 discriminator 7
 2830 11bc E8000000 		call	_ZN8UnitTest11CurrentTest7DetailsEv
 2830      00
 2831 11c1 488B08   		movq	(%rax), %rcx
 2832 11c4 488D4590 		leaq	-112(%rbp), %rax
 2833 11c8 BA620000 		movl	$98, %edx
 2833      00
 2834 11cd 4889CE   		movq	%rcx, %rsi
 2835 11d0 4889C7   		movq	%rax, %rdi
 2836 11d3 E8000000 		call	_ZN8UnitTest11TestDetailsC1ERKS0_i
 2836      00
 2837              		.loc 6 98 0 discriminator 10
 2838 11d8 E8000000 		call	_ZN8UnitTest11CurrentTest7ResultsEv
 2838      00
 2839 11dd 488B00   		movq	(%rax), %rax
 2840 11e0 488D4D90 		leaq	-112(%rbp), %rcx
 2841 11e4 BA000000 		movl	$.LC23, %edx
 2841      00
 2842 11e9 4889CE   		movq	%rcx, %rsi
 2843 11ec 4889C7   		movq	%rax, %rdi
 2844 11ef E8000000 		call	_ZN8UnitTest11TestResults13OnTestFailureERKNS_11TestDetailsEPKc
 2844      00
 2845              	.LEHE68:
 2846              	.L150:
 2847              		.loc 6 98 0 discriminator 15
 2848 11f4 488D45B0 		leaq	-80(%rbp), %rax
 2849 11f8 4889C7   		movq	%rax, %rdi
 2850              	.LEHB69:
 2851 11fb E8DE8D00 		call	_ZN12_GLOBAL__N_18SlowTestD2Ev
 2851      00
 2852              	.LEHE69:
 2853              	.LBE67:
  99:TestTestRunner.cpp **** }
 2854              		.loc 6 99 0 is_stmt 1 discriminator 15
 2855 1200 488B45E8 		movq	-24(%rbp), %rax
 2856 1204 64483304 		xorq	%fs:40, %rax
 2856      25280000 
 2856      00
 2857 120d 7472     		je	.L154
 2858 120f EB6B     		jmp	.L160
 2859              	.L157:
 2860 1211 4889C3   		movq	%rax, %rbx
 2861              	.LBB68:
  98:TestTestRunner.cpp ****     CHECK(reporter.lastFinishedTestTime >= 0.005f && reporter.lastFinishedTestTime <= 0.050f);
 2862              		.loc 6 98 0
 2863 1214 E8000000 		call	__cxa_end_catch
 2863      00
 2864 1219 EB4A     		jmp	.L152
 2865              	.L156:
 2866 121b 4889C7   		movq	%rax, %rdi
 2867 121e E8000000 		call	__cxa_begin_catch
 2867      00
 2868              	.LEHB70:
 2869 1223 E8000000 		call	_ZN8UnitTest11CurrentTest7DetailsEv
 2869      00
 2870 1228 488B08   		movq	(%rax), %rcx
 2871 122b 488D4590 		leaq	-112(%rbp), %rax
 2872 122f BA620000 		movl	$98, %edx
 2872      00
 2873 1234 4889CE   		movq	%rcx, %rsi
 2874 1237 4889C7   		movq	%rax, %rdi
 2875 123a E8000000 		call	_ZN8UnitTest11TestDetailsC1ERKS0_i
 2875      00
  98:TestTestRunner.cpp ****     CHECK(reporter.lastFinishedTestTime >= 0.005f && reporter.lastFinishedTestTime <= 0.050f);
 2876              		.loc 6 98 0 is_stmt 0 discriminator 19
 2877 123f E8000000 		call	_ZN8UnitTest11CurrentTest7ResultsEv
 2877      00
 2878 1244 488B00   		movq	(%rax), %rax
 2879 1247 488D4D90 		leaq	-112(%rbp), %rcx
 2880 124b BA000000 		movl	$.LC24, %edx
 2880      00
 2881 1250 4889CE   		movq	%rcx, %rsi
 2882 1253 4889C7   		movq	%rax, %rdi
 2883 1256 E8000000 		call	_ZN8UnitTest11TestResults13OnTestFailureERKNS_11TestDetailsEPKc
 2883      00
 2884              	.LEHE70:
 2885              	.LEHB71:
  98:TestTestRunner.cpp ****     CHECK(reporter.lastFinishedTestTime >= 0.005f && reporter.lastFinishedTestTime <= 0.050f);
 2886              		.loc 6 98 0 discriminator 23
 2887 125b E8000000 		call	__cxa_end_catch
 2887      00
 2888              	.LEHE71:
  98:TestTestRunner.cpp ****     CHECK(reporter.lastFinishedTestTime >= 0.005f && reporter.lastFinishedTestTime <= 0.050f);
 2889              		.loc 6 98 0
 2890 1260 EB92     		jmp	.L150
 2891              	.L155:
 2892 1262 4889C3   		movq	%rax, %rbx
 2893              	.L152:
  98:TestTestRunner.cpp ****     CHECK(reporter.lastFinishedTestTime >= 0.005f && reporter.lastFinishedTestTime <= 0.050f);
 2894              		.loc 6 98 0 discriminator 24
 2895 1265 488D45B0 		leaq	-80(%rbp), %rax
 2896 1269 4889C7   		movq	%rax, %rdi
 2897 126c E86D8D00 		call	_ZN12_GLOBAL__N_18SlowTestD2Ev
 2897      00
 2898 1271 4889D8   		movq	%rbx, %rax
 2899 1274 4889C7   		movq	%rax, %rdi
 2900              	.LEHB72:
 2901 1277 E8000000 		call	_Unwind_Resume
 2901      00
 2902              	.LEHE72:
 2903              	.L160:
 2904              	.LBE68:
 2905              		.loc 6 99 0 is_stmt 1
 2906 127c E8000000 		call	__stack_chk_fail
 2906      00
 2907              	.L154:
 2908 1281 4883C478 		addq	$120, %rsp
 2909 1285 5B       		popq	%rbx
 2910 1286 5D       		popq	%rbp
 2911              		.cfi_def_cfa 7, 8
 2912 1287 C3       		ret
 2913              		.cfi_endproc
 2914              	.LFE1128:
 2915              		.section	.gcc_except_table
 2916              		.align 4
 2917              	.LLSDA1128:
 2918 01bc FF       		.byte	0xff
 2919 01bd 03       		.byte	0x3
 2920 01be 2D       		.uleb128 .LLSDATT1128-.LLSDATTD1128
 2921              	.LLSDATTD1128:
 2922 01bf 01       		.byte	0x1
 2923 01c0 25       		.uleb128 .LLSDACSE1128-.LLSDACSB1128
 2924              	.LLSDACSB1128:
 2925 01c1 23       		.uleb128 .LEHB66-.LFB1128
 2926 01c2 05       		.uleb128 .LEHE66-.LEHB66
 2927 01c3 00       		.uleb128 0
 2928 01c4 00       		.uleb128 0
 2929 01c5 3D       		.uleb128 .LEHB67-.LFB1128
 2930 01c6 2E       		.uleb128 .LEHE67-.LEHB67
 2931 01c7 DC02     		.uleb128 .L155-.LFB1128
 2932 01c9 00       		.uleb128 0
 2933 01ca B601     		.uleb128 .LEHB68-.LFB1128
 2934 01cc 38       		.uleb128 .LEHE68-.LEHB68
 2935 01cd 9502     		.uleb128 .L156-.LFB1128
 2936 01cf 01       		.uleb128 0x1
 2937 01d0 F501     		.uleb128 .LEHB69-.LFB1128
 2938 01d2 05       		.uleb128 .LEHE69-.LEHB69
 2939 01d3 00       		.uleb128 0
 2940 01d4 00       		.uleb128 0
 2941 01d5 9D02     		.uleb128 .LEHB70-.LFB1128
 2942 01d7 38       		.uleb128 .LEHE70-.LEHB70
 2943 01d8 8B02     		.uleb128 .L157-.LFB1128
 2944 01da 00       		.uleb128 0
 2945 01db D502     		.uleb128 .LEHB71-.LFB1128
 2946 01dd 05       		.uleb128 .LEHE71-.LEHB71
 2947 01de DC02     		.uleb128 .L155-.LFB1128
 2948 01e0 00       		.uleb128 0
 2949 01e1 F102     		.uleb128 .LEHB72-.LFB1128
 2950 01e3 05       		.uleb128 .LEHE72-.LEHB72
 2951 01e4 00       		.uleb128 0
 2952 01e5 00       		.uleb128 0
 2953              	.LLSDACSE1128:
 2954 01e6 01       		.byte	0x1
 2955 01e7 00       		.byte	0
 2956              		.align 4
 2957 01e8 00000000 		.long	0
 2958              	
 2959              	.LLSDATT1128:
 2960              		.text
 2962              		.align 2
 2964              	_ZN12_GLOBAL__N_158TestRunnerFixtureFailureCountIsZeroWhenNoTestsAreRunHelperC2ERKN8UnitTest11TestD
 2965              	.LFB1130:
 100:TestTestRunner.cpp **** 
 101:TestTestRunner.cpp **** TEST_FIXTURE(TestRunnerFixture, FailureCountIsZeroWhenNoTestsAreRun)
 2966              		.loc 6 101 0
 2967              		.cfi_startproc
 2968 1288 55       		pushq	%rbp
 2969              		.cfi_def_cfa_offset 16
 2970              		.cfi_offset 6, -16
 2971 1289 4889E5   		movq	%rsp, %rbp
 2972              		.cfi_def_cfa_register 6
 2973 128c 4883EC10 		subq	$16, %rsp
 2974 1290 48897DF8 		movq	%rdi, -8(%rbp)
 2975 1294 488975F0 		movq	%rsi, -16(%rbp)
 2976              	.LBB69:
 2977              		.loc 6 101 0
 2978 1298 488B45F8 		movq	-8(%rbp), %rax
 2979 129c 4889C7   		movq	%rax, %rdi
 2980 129f E8C8EEFF 		call	_ZN12_GLOBAL__N_117TestRunnerFixtureC2Ev
 2980      FF
 2981 12a4 488B45F8 		movq	-8(%rbp), %rax
 2982 12a8 488B55F0 		movq	-16(%rbp), %rdx
 2983 12ac 48899058 		movq	%rdx, 2136(%rax)
 2983      080000
 2984              	.LBE69:
 2985 12b3 C9       		leave
 2986              		.cfi_def_cfa 7, 8
 2987 12b4 C3       		ret
 2988              		.cfi_endproc
 2989              	.LFE1130:
 2991              		.section	.rodata
 2992 0341 00000000 		.align 8
 2992      000000
 2993              	.LC25:
 2994 0348 4661696C 		.string	"FailureCountIsZeroWhenNoTestsAreRun"
 2994      75726543 
 2994      6F756E74 
 2994      49735A65 
 2994      726F5768 
 2995              		.text
 2996 12b5 90       		.align 2
 2998              	_ZN12_GLOBAL__N_156TestTestRunnerFixtureFailureCountIsZeroWhenNoTestsAreRunC2Ev:
 2999              	.LFB1133:
 3000              		.loc 6 101 0
 3001              		.cfi_startproc
 3002 12b6 55       		pushq	%rbp
 3003              		.cfi_def_cfa_offset 16
 3004              		.cfi_offset 6, -16
 3005 12b7 4889E5   		movq	%rsp, %rbp
 3006              		.cfi_def_cfa_register 6
 3007 12ba 4883EC10 		subq	$16, %rsp
 3008 12be 48897DF8 		movq	%rdi, -8(%rbp)
 3009              	.LBB70:
 3010              		.loc 6 101 0
 3011 12c2 E8000000 		call	_ZN13UnitTestSuite12GetSuiteNameEv
 3011      00
 3012 12c7 4889C2   		movq	%rax, %rdx
 3013 12ca 488B45F8 		movq	-8(%rbp), %rax
 3014 12ce 41B86500 		movl	$101, %r8d
 3014      0000
 3015 12d4 B9000000 		movl	$.LC6, %ecx
 3015      00
 3016 12d9 BE000000 		movl	$.LC25, %esi
 3016      00
 3017 12de 4889C7   		movq	%rax, %rdi
 3018 12e1 E8000000 		call	_ZN8UnitTest4TestC2EPKcS2_S2_i
 3018      00
 3019 12e6 488B45F8 		movq	-8(%rbp), %rax
 3020 12ea 48C70000 		movq	$_ZTVN12_GLOBAL__N_156TestTestRunnerFixtureFailureCountIsZeroWhenNoTestsAreRunE+16, (%rax)
 3020      000000
 3021              	.LBE70:
 3022 12f1 C9       		leave
 3023              		.cfi_def_cfa 7, 8
 3024 12f2 C3       		ret
 3025              		.cfi_endproc
 3026              	.LFE1133:
 3028              		.local	_ZN12_GLOBAL__N_164testTestRunnerFixtureFailureCountIsZeroWhenNoTestsAreRunInstanceE
 3029              		.comm	_ZN12_GLOBAL__N_164testTestRunnerFixtureFailureCountIsZeroWhenNoTestsAreRunInstanceE,56,32
 3030              		.local	_ZN12_GLOBAL__N_157adderTestRunnerFixtureFailureCountIsZeroWhenNoTestsAreRunE
 3031              		.comm	_ZN12_GLOBAL__N_157adderTestRunnerFixtureFailureCountIsZeroWhenNoTestsAreRunE,1,1
 3032 12f3 90       		.align 2
 3034              	_ZN12_GLOBAL__N_158TestRunnerFixtureFailureCountIsZeroWhenNoTestsAreRunHelperD2Ev:
 3035              	.LFB1137:
 3036              		.loc 6 101 0
 3037              		.cfi_startproc
 3038 12f4 55       		pushq	%rbp
 3039              		.cfi_def_cfa_offset 16
 3040              		.cfi_offset 6, -16
 3041 12f5 4889E5   		movq	%rsp, %rbp
 3042              		.cfi_def_cfa_register 6
 3043 12f8 4883EC10 		subq	$16, %rsp
 3044 12fc 48897DF8 		movq	%rdi, -8(%rbp)
 3045              	.LBB71:
 3046              		.loc 6 101 0
 3047 1300 488B45F8 		movq	-8(%rbp), %rax
 3048 1304 4889C7   		movq	%rax, %rdi
 3049 1307 E8AEEEFF 		call	_ZN12_GLOBAL__N_117TestRunnerFixtureD2Ev
 3049      FF
 3050              	.LBE71:
 3051 130c C9       		leave
 3052              		.cfi_def_cfa 7, 8
 3053 130d C3       		ret
 3054              		.cfi_endproc
 3055              	.LFE1137:
 3057              		.align 2
 3059              	_ZNK12_GLOBAL__N_156TestTestRunnerFixtureFailureCountIsZeroWhenNoTestsAreRun7RunImplEv:
 3060              	.LFB1135:
 3061              		.loc 6 101 0
 3062              		.cfi_startproc
 3063              		.cfi_personality 0x3,__gxx_personality_v0
 3064              		.cfi_lsda 0x3,.LLSDA1135
 3065 130e 55       		pushq	%rbp
 3066              		.cfi_def_cfa_offset 16
 3067              		.cfi_offset 6, -16
 3068 130f 4889E5   		movq	%rsp, %rbp
 3069              		.cfi_def_cfa_register 6
 3070 1312 4154     		pushq	%r12
 3071 1314 53       		pushq	%rbx
 3072 1315 4881ECC0 		subq	$2240, %rsp
 3072      080000
 3073              		.cfi_offset 12, -24
 3074              		.cfi_offset 3, -32
 3075 131c 4889BD38 		movq	%rdi, -2248(%rbp)
 3075      F7FFFF
 3076              		.loc 6 101 0
 3077 1323 64488B04 		movq	%fs:40, %rax
 3077      25280000 
 3077      00
 3078 132c 488945E8 		movq	%rax, -24(%rbp)
 3079 1330 31C0     		xorl	%eax, %eax
 3080              	.LBB72:
 3081 1332 C6854FF7 		movb	$0, -2225(%rbp)
 3081      FFFF00
 3082              	.LBB73:
 3083 1339 488B8538 		movq	-2248(%rbp), %rax
 3083      F7FFFF
 3084 1340 488D5008 		leaq	8(%rax), %rdx
 3085 1344 488D8580 		leaq	-2176(%rbp), %rax
 3085      F7FFFF
 3086 134b 4889D6   		movq	%rdx, %rsi
 3087 134e 4889C7   		movq	%rax, %rdi
 3088              	.LEHB73:
 3089 1351 E832FFFF 		call	_ZN12_GLOBAL__N_158TestRunnerFixtureFailureCountIsZeroWhenNoTestsAreRunHelperC2ERKN8UnitTest1
 3089      FF
 3090              	.LEHE73:
 3091              		.loc 6 101 0 is_stmt 0 discriminator 1
 3092 1356 C6854FF7 		movb	$1, -2225(%rbp)
 3092      FFFF01
 3093 135d 488B8538 		movq	-2248(%rbp), %rax
 3093      F7FFFF
 3094 1364 488D5008 		leaq	8(%rax), %rdx
 3095 1368 488D8580 		leaq	-2176(%rbp), %rax
 3095      F7FFFF
 3096 136f 4889D6   		movq	%rdx, %rsi
 3097 1372 4889C7   		movq	%rax, %rdi
 3098              	.LEHB74:
 3099 1375 E87C5E00 		call	_ZN8UnitTest11ExecuteTestIN12_GLOBAL__N_158TestRunnerFixtureFailureCountIsZeroWhenNoTestsAreR
 3099      00
 3100              	.LEHE74:
 3101              		.loc 6 101 0 discriminator 3
 3102 137a 488D8580 		leaq	-2176(%rbp), %rax
 3102      F7FFFF
 3103 1381 4889C7   		movq	%rax, %rdi
 3104              	.LEHB75:
 3105 1384 E86BFFFF 		call	_ZN12_GLOBAL__N_158TestRunnerFixtureFailureCountIsZeroWhenNoTestsAreRunHelperD2Ev
 3105      FF
 3106              	.LEHE75:
 3107              	.LBE73:
 3108              	.LBE72:
 3109              		.loc 6 101 0
 3110 1389 E9640200 		jmp	.L186
 3110      00
 3111              	.L180:
 3112 138e 4989C4   		movq	%rax, %r12
 3113 1391 4889D3   		movq	%rdx, %rbx
 3114              	.LBB81:
 3115              	.LBB74:
 3116 1394 488D8580 		leaq	-2176(%rbp), %rax
 3116      F7FFFF
 3117 139b 4889C7   		movq	%rax, %rdi
 3118 139e E851FFFF 		call	_ZN12_GLOBAL__N_158TestRunnerFixtureFailureCountIsZeroWhenNoTestsAreRunHelperD2Ev
 3118      FF
 3119 13a3 4C89E0   		movq	%r12, %rax
 3120 13a6 4889DA   		movq	%rbx, %rdx
 3121 13a9 EB00     		jmp	.L167
 3122              	.L179:
 3123              	.L167:
 3124 13ab 4883FA01 		cmpq	$1, %rdx
 3125 13af 745C     		je	.L169
 3126 13b1 4883FA02 		cmpq	$2, %rdx
 3127 13b5 0F84F400 		je	.L170
 3127      0000
 3128 13bb E9980100 		jmp	.L185
 3128      00
 3129              	.L181:
 3130 13c0 4889C3   		movq	%rax, %rbx
 3131              	.LBE74:
 3132              	.LBB75:
 3133 13c3 E8000000 		call	__cxa_end_catch
 3133      00
 3134 13c8 4889D8   		movq	%rbx, %rax
 3135 13cb 4889C7   		movq	%rax, %rdi
 3136              	.LEHB76:
 3137 13ce E8000000 		call	_Unwind_Resume
 3137      00
 3138              	.LEHE76:
 3139              	.L182:
 3140 13d3 4889C3   		movq	%rax, %rbx
 3141              	.LBE75:
 3142              	.LBB76:
 3143              	.LBB77:
 3144 13d6 488D8580 		leaq	-2176(%rbp), %rax
 3144      F7FFFF
 3145 13dd 4889C7   		movq	%rax, %rdi
 3146 13e0 E8000000 		call	_ZN8UnitTest15MemoryOutStreamD1Ev
 3146      00
 3147 13e5 EB03     		jmp	.L173
 3148              	.L183:
 3149 13e7 4889C3   		movq	%rax, %rbx
 3150              	.L173:
 3151              	.LBE77:
 3152 13ea E8000000 		call	__cxa_end_catch
 3152      00
 3153 13ef 4889D8   		movq	%rbx, %rax
 3154 13f2 4889C7   		movq	%rax, %rdi
 3155              	.LEHB77:
 3156 13f5 E8000000 		call	_Unwind_Resume
 3156      00
 3157              	.LEHE77:
 3158              	.L184:
 3159 13fa 4889C3   		movq	%rax, %rbx
 3160              	.LBE76:
 3161 13fd E8000000 		call	__cxa_end_catch
 3161      00
 3162 1402 4889D8   		movq	%rbx, %rax
 3163 1405 4889C7   		movq	%rax, %rdi
 3164              	.LEHB78:
 3165 1408 E8000000 		call	_Unwind_Resume
 3165      00
 3166              	.LEHE78:
 3167              	.L169:
 3168              	.LBB79:
 3169 140d 4889C7   		movq	%rax, %rdi
 3170 1410 E8000000 		call	__cxa_begin_catch
 3170      00
 3171 1415 48898550 		movq	%rax, -2224(%rbp)
 3171      F7FFFF
 3172 141c 488B8550 		movq	-2224(%rbp), %rax
 3172      F7FFFF
 3173 1423 488B00   		movq	(%rax), %rax
 3174 1426 4883C010 		addq	$16, %rax
 3175 142a 488B00   		movq	(%rax), %rax
 3176 142d 488B9550 		movq	-2224(%rbp), %rdx
 3176      F7FFFF
 3177 1434 4889D7   		movq	%rdx, %rdi
 3178 1437 FFD0     		call	*%rax
 3179 1439 4889C3   		movq	%rax, %rbx
 3180 143c 488B8550 		movq	-2224(%rbp), %rax
 3180      F7FFFF
 3181 1443 4889C7   		movq	%rax, %rdi
 3182              	.LEHB79:
 3183 1446 E8000000 		call	_ZNK8UnitTest15AssertException10LineNumberEv
 3183      00
 3184 144b 4189C4   		movl	%eax, %r12d
 3185 144e 488B8550 		movq	-2224(%rbp), %rax
 3185      F7FFFF
 3186 1455 4889C7   		movq	%rax, %rdi
 3187 1458 E8000000 		call	_ZNK8UnitTest15AssertException8FilenameEv
 3187      00
 3188              		.loc 6 101 0 discriminator 5
 3189 145d 4889C1   		movq	%rax, %rcx
 3190 1460 488B8538 		movq	-2248(%rbp), %rax
 3190      F7FFFF
 3191 1467 488B5008 		movq	8(%rax), %rdx
 3192 146b 488B8538 		movq	-2248(%rbp), %rax
 3192      F7FFFF
 3193 1472 488B7010 		movq	16(%rax), %rsi
 3194 1476 488D8560 		leaq	-2208(%rbp), %rax
 3194      F7FFFF
 3195 147d 4589E0   		movl	%r12d, %r8d
 3196 1480 4889C7   		movq	%rax, %rdi
 3197 1483 E8000000 		call	_ZN8UnitTest11TestDetailsC1EPKcS2_S2_i
 3197      00
 3198              		.loc 6 101 0 discriminator 9
 3199 1488 E8000000 		call	_ZN8UnitTest11CurrentTest7ResultsEv
 3199      00
 3200 148d 488B00   		movq	(%rax), %rax
 3201 1490 488D8D60 		leaq	-2208(%rbp), %rcx
 3201      F7FFFF
 3202 1497 4889DA   		movq	%rbx, %rdx
 3203 149a 4889CE   		movq	%rcx, %rsi
 3204 149d 4889C7   		movq	%rax, %rdi
 3205 14a0 E8000000 		call	_ZN8UnitTest11TestResults13OnTestFailureERKNS_11TestDetailsEPKc
 3205      00
 3206              	.LEHE79:
 3207              		.loc 6 101 0 discriminator 13
 3208 14a5 E8000000 		call	__cxa_end_catch
 3208      00
 3209              	.LBE79:
 3210              	.LBE81:
 3211 14aa E9430100 		jmp	.L186
 3211      00
 3212              	.L170:
 3213              	.LBB82:
 3214              	.LBB80:
 3215              		.loc 6 101 0
 3216 14af 4889C7   		movq	%rax, %rdi
 3217 14b2 E8000000 		call	__cxa_begin_catch
 3217      00
 3218 14b7 48898558 		movq	%rax, -2216(%rbp)
 3218      F7FFFF
 3219              	.LBB78:
 3220 14be 488D8580 		leaq	-2176(%rbp), %rax
 3220      F7FFFF
 3221 14c5 4889C7   		movq	%rax, %rdi
 3222              	.LEHB80:
 3223 14c8 E8000000 		call	_ZN8UnitTest15MemoryOutStreamC1Ev
 3223      00
 3224              	.LEHE80:
 3225              		.loc 6 101 0 discriminator 15
 3226 14cd 488B8558 		movq	-2216(%rbp), %rax
 3226      F7FFFF
 3227 14d4 488B00   		movq	(%rax), %rax
 3228 14d7 4883C010 		addq	$16, %rax
 3229 14db 488B00   		movq	(%rax), %rax
 3230 14de 488B9558 		movq	-2216(%rbp), %rdx
 3230      F7FFFF
 3231 14e5 4889D7   		movq	%rdx, %rdi
 3232 14e8 FFD0     		call	*%rax
 3233 14ea 4889C3   		movq	%rax, %rbx
 3234 14ed 488D8580 		leaq	-2176(%rbp), %rax
 3234      F7FFFF
 3235 14f4 BE000000 		movl	$.LC8, %esi
 3235      00
 3236 14f9 4889C7   		movq	%rax, %rdi
 3237              	.LEHB81:
 3238 14fc E8000000 		call	_ZStlsISt11char_traitsIcEERSt13basic_ostreamIcT_ES5_PKc
 3238      00
 3239 1501 4889DE   		movq	%rbx, %rsi
 3240 1504 4889C7   		movq	%rax, %rdi
 3241 1507 E8000000 		call	_ZStlsISt11char_traitsIcEERSt13basic_ostreamIcT_ES5_PKc
 3241      00
 3242              		.loc 6 101 0 discriminator 19
 3243 150c 488D8580 		leaq	-2176(%rbp), %rax
 3243      F7FFFF
 3244 1513 4889C7   		movq	%rax, %rdi
 3245 1516 E8000000 		call	_ZNK8UnitTest15MemoryOutStream7GetTextEv
 3245      00
 3246 151b 4989C4   		movq	%rax, %r12
 3247 151e 488B8538 		movq	-2248(%rbp), %rax
 3247      F7FFFF
 3248 1525 488D5808 		leaq	8(%rax), %rbx
 3249 1529 E8000000 		call	_ZN8UnitTest11CurrentTest7ResultsEv
 3249      00
 3250              		.loc 6 101 0 discriminator 21
 3251 152e 488B00   		movq	(%rax), %rax
 3252 1531 4C89E2   		movq	%r12, %rdx
 3253 1534 4889DE   		movq	%rbx, %rsi
 3254 1537 4889C7   		movq	%rax, %rdi
 3255 153a E8000000 		call	_ZN8UnitTest11TestResults13OnTestFailureERKNS_11TestDetailsEPKc
 3255      00
 3256              	.LEHE81:
 3257              		.loc 6 101 0 discriminator 25
 3258 153f 488D8580 		leaq	-2176(%rbp), %rax
 3258      F7FFFF
 3259 1546 4889C7   		movq	%rax, %rdi
 3260              	.LEHB82:
 3261 1549 E8000000 		call	_ZN8UnitTest15MemoryOutStreamD1Ev
 3261      00
 3262              	.LEHE82:
 3263              	.LBE78:
 3264              		.loc 6 101 0 discriminator 26
 3265 154e E8000000 		call	__cxa_end_catch
 3265      00
 3266              	.LBE80:
 3267              	.LBE82:
 3268 1553 E99A0000 		jmp	.L186
 3268      00
 3269              	.L185:
 3270              	.LBB83:
 3271              		.loc 6 101 0
 3272 1558 4889C7   		movq	%rax, %rdi
 3273 155b E8000000 		call	__cxa_begin_catch
 3273      00
 3274 1560 80BD4FF7 		cmpb	$0, -2225(%rbp)
 3274      FFFF00
 3275 1567 7443     		je	.L176
 3276              		.loc 6 101 0 discriminator 28
 3277 1569 488B8538 		movq	-2248(%rbp), %rax
 3277      F7FFFF
 3278 1570 488D4808 		leaq	8(%rax), %rcx
 3279 1574 488D8560 		leaq	-2208(%rbp), %rax
 3279      F7FFFF
 3280 157b BA650000 		movl	$101, %edx
 3280      00
 3281 1580 4889CE   		movq	%rcx, %rsi
 3282 1583 4889C7   		movq	%rax, %rdi
 3283              	.LEHB83:
 3284 1586 E8000000 		call	_ZN8UnitTest11TestDetailsC1ERKS0_i
 3284      00
 3285              		.loc 6 101 0 discriminator 31
 3286 158b E8000000 		call	_ZN8UnitTest11CurrentTest7ResultsEv
 3286      00
 3287 1590 488B00   		movq	(%rax), %rax
 3288 1593 488D8D60 		leaq	-2208(%rbp), %rcx
 3288      F7FFFF
 3289 159a BA000000 		movl	$.LC9, %edx
 3289      00
 3290 159f 4889CE   		movq	%rcx, %rsi
 3291 15a2 4889C7   		movq	%rax, %rdi
 3292 15a5 E8000000 		call	_ZN8UnitTest11TestResults13OnTestFailureERKNS_11TestDetailsEPKc
 3292      00
 3293 15aa EB41     		jmp	.L177
 3294              	.L176:
 3295              		.loc 6 101 0 discriminator 29
 3296 15ac 488B8538 		movq	-2248(%rbp), %rax
 3296      F7FFFF
 3297 15b3 488D4808 		leaq	8(%rax), %rcx
 3298 15b7 488D8560 		leaq	-2208(%rbp), %rax
 3298      F7FFFF
 3299 15be BA650000 		movl	$101, %edx
 3299      00
 3300 15c3 4889CE   		movq	%rcx, %rsi
 3301 15c6 4889C7   		movq	%rax, %rdi
 3302 15c9 E8000000 		call	_ZN8UnitTest11TestDetailsC1ERKS0_i
 3302      00
 3303              		.loc 6 101 0 discriminator 38
 3304 15ce E8000000 		call	_ZN8UnitTest11CurrentTest7ResultsEv
 3304      00
 3305 15d3 488B00   		movq	(%rax), %rax
 3306 15d6 488D8D60 		leaq	-2208(%rbp), %rcx
 3306      F7FFFF
 3307 15dd BA000000 		movl	$.LC10, %edx
 3307      00
 3308 15e2 4889CE   		movq	%rcx, %rsi
 3309 15e5 4889C7   		movq	%rax, %rdi
 3310 15e8 E8000000 		call	_ZN8UnitTest11TestResults13OnTestFailureERKNS_11TestDetailsEPKc
 3310      00
 3311              	.LEHE83:
 3312              	.L177:
 3313              	.LEHB84:
 3314              		.loc 6 101 0 discriminator 43
 3315 15ed E8000000 		call	__cxa_end_catch
 3315      00
 3316              	.LEHE84:
 3317              	.L186:
 3318              	.LBE83:
 3319              		.loc 6 101 0
 3320 15f2 90       		nop
 3321 15f3 488B45E8 		movq	-24(%rbp), %rax
 3322 15f7 64483304 		xorq	%fs:40, %rax
 3322      25280000 
 3322      00
 3323 1600 7405     		je	.L178
 3324 1602 E8000000 		call	__stack_chk_fail
 3324      00
 3325              	.L178:
 3326 1607 4881C4C0 		addq	$2240, %rsp
 3326      080000
 3327 160e 5B       		popq	%rbx
 3328 160f 415C     		popq	%r12
 3329 1611 5D       		popq	%rbp
 3330              		.cfi_def_cfa 7, 8
 3331 1612 C3       		ret
 3332              		.cfi_endproc
 3333              	.LFE1135:
 3334              		.section	.gcc_except_table
 3335              		.align 4
 3336              	.LLSDA1135:
 3337 01ec FF       		.byte	0xff
 3338 01ed 03       		.byte	0x3
 3339 01ee 59       		.uleb128 .LLSDATT1135-.LLSDATTD1135
 3340              	.LLSDATTD1135:
 3341 01ef 01       		.byte	0x1
 3342 01f0 41       		.uleb128 .LLSDACSE1135-.LLSDACSB1135
 3343              	.LLSDACSB1135:
 3344 01f1 43       		.uleb128 .LEHB73-.LFB1135
 3345 01f2 05       		.uleb128 .LEHE73-.LEHB73
 3346 01f3 9D01     		.uleb128 .L179-.LFB1135
 3347 01f5 05       		.uleb128 0x5
 3348 01f6 67       		.uleb128 .LEHB74-.LFB1135
 3349 01f7 05       		.uleb128 .LEHE74-.LEHB74
 3350 01f8 8001     		.uleb128 .L180-.LFB1135
 3351 01fa 07       		.uleb128 0x7
 3352 01fb 76       		.uleb128 .LEHB75-.LFB1135
 3353 01fc 05       		.uleb128 .LEHE75-.LEHB75
 3354 01fd 9D01     		.uleb128 .L179-.LFB1135
 3355 01ff 05       		.uleb128 0x5
 3356 0200 C001     		.uleb128 .LEHB76-.LFB1135
 3357 0202 05       		.uleb128 .LEHE76-.LEHB76
 3358 0203 00       		.uleb128 0
 3359 0204 00       		.uleb128 0
 3360 0205 E701     		.uleb128 .LEHB77-.LFB1135
 3361 0207 05       		.uleb128 .LEHE77-.LEHB77
 3362 0208 00       		.uleb128 0
 3363 0209 00       		.uleb128 0
 3364 020a FA01     		.uleb128 .LEHB78-.LFB1135
 3365 020c 05       		.uleb128 .LEHE78-.LEHB78
 3366 020d 00       		.uleb128 0
 3367 020e 00       		.uleb128 0
 3368 020f B802     		.uleb128 .LEHB79-.LFB1135
 3369 0211 5F       		.uleb128 .LEHE79-.LEHB79
 3370 0212 B201     		.uleb128 .L181-.LFB1135
 3371 0214 00       		.uleb128 0
 3372 0215 BA03     		.uleb128 .LEHB80-.LFB1135
 3373 0217 05       		.uleb128 .LEHE80-.LEHB80
 3374 0218 D901     		.uleb128 .L183-.LFB1135
 3375 021a 00       		.uleb128 0
 3376 021b EE03     		.uleb128 .LEHB81-.LFB1135
 3377 021d 43       		.uleb128 .LEHE81-.LEHB81
 3378 021e C501     		.uleb128 .L182-.LFB1135
 3379 0220 00       		.uleb128 0
 3380 0221 BB04     		.uleb128 .LEHB82-.LFB1135
 3381 0223 05       		.uleb128 .LEHE82-.LEHB82
 3382 0224 D901     		.uleb128 .L183-.LFB1135
 3383 0226 00       		.uleb128 0
 3384 0227 F804     		.uleb128 .LEHB83-.LFB1135
 3385 0229 67       		.uleb128 .LEHE83-.LEHB83
 3386 022a EC01     		.uleb128 .L184-.LFB1135
 3387 022c 00       		.uleb128 0
 3388 022d DF05     		.uleb128 .LEHB84-.LFB1135
 3389 022f 05       		.uleb128 .LEHE84-.LEHB84
 3390 0230 00       		.uleb128 0
 3391 0231 00       		.uleb128 0
 3392              	.LLSDACSE1135:
 3393 0232 03       		.byte	0x3
 3394 0233 00       		.byte	0
 3395 0234 02       		.byte	0x2
 3396 0235 7D       		.byte	0x7d
 3397 0236 01       		.byte	0x1
 3398 0237 7D       		.byte	0x7d
 3399 0238 00       		.byte	0
 3400 0239 7D       		.byte	0x7d
 3401 023a 0000     		.align 4
 3402 023c 00000000 		.long	0
 3403              	
 3404 0240 00000000 		.long	_ZTISt9exception
 3405 0244 00000000 		.long	_ZTIN8UnitTest15AssertExceptionE
 3406              	.LLSDATT1135:
 3407              		.text
 3409              		.section	.rodata
 3410 036c 00000000 		.align 8
 3411              	.LC26:
 3412 0370 556E6861 		.string	"Unhandled exception in CHECK_EQUAL(0, RunTestsIf(list, NULL, True(), 0))"
 3412      6E646C65 
 3412      64206578 
 3412      63657074 
 3412      696F6E20 
 3413 03b9 00000000 		.align 8
 3413      000000
 3414              	.LC27:
 3415 03c0 556E6861 		.string	"Unhandled exception in CHECK_EQUAL(0, reporter.testRunCount)"
 3415      6E646C65 
 3415      64206578 
 3415      63657074 
 3415      696F6E20 
 3416 03fd 000000   		.align 8
 3417              	.LC28:
 3418 0400 556E6861 		.string	"Unhandled exception in CHECK_EQUAL(0, reporter.testFailedCount)"
 3418      6E646C65 
 3418      64206578 
 3418      63657074 
 3418      696F6E20 
 3419              		.text
 3420 1613 90       		.align 2
 3422              	_ZN12_GLOBAL__N_158TestRunnerFixtureFailureCountIsZeroWhenNoTestsAreRunHelper7RunImplEv:
 3423              	.LFB1139:
 102:TestTestRunner.cpp **** {
 3424              		.loc 6 102 0 is_stmt 1
 3425              		.cfi_startproc
 3426              		.cfi_personality 0x3,__gxx_personality_v0
 3427              		.cfi_lsda 0x3,.LLSDA1139
 3428 1614 55       		pushq	%rbp
 3429              		.cfi_def_cfa_offset 16
 3430              		.cfi_offset 6, -16
 3431 1615 4889E5   		movq	%rsp, %rbp
 3432              		.cfi_def_cfa_register 6
 3433 1618 53       		pushq	%rbx
 3434 1619 4883EC58 		subq	$88, %rsp
 3435              		.cfi_offset 3, -24
 3436 161d 48897DA8 		movq	%rdi, -88(%rbp)
 3437              		.loc 6 102 0
 3438 1621 64488B04 		movq	%fs:40, %rax
 3438      25280000 
 3438      00
 3439 162a 488945E8 		movq	%rax, -24(%rbp)
 3440 162e 31C0     		xorl	%eax, %eax
 3441              	.LEHB85:
 103:TestTestRunner.cpp **** 	CHECK_EQUAL(0, RunTestsIf(list, NULL, True(), 0));
 3442              		.loc 6 103 0
 3443 1630 E8000000 		call	_ZN8UnitTest11CurrentTest7DetailsEv
 3443      00
 3444 1635 488B08   		movq	(%rax), %rcx
 3445 1638 488D45C0 		leaq	-64(%rbp), %rax
 3446 163c BA670000 		movl	$103, %edx
 3446      00
 3447 1641 4889CE   		movq	%rcx, %rsi
 3448 1644 4889C7   		movq	%rax, %rdi
 3449 1647 E8000000 		call	_ZN8UnitTest11TestDetailsC1ERKS0_i
 3449      00
 3450              		.loc 6 103 0 is_stmt 0 discriminator 2
 3451 164c 488B45A8 		movq	-88(%rbp), %rax
 3452 1650 488DB048 		leaq	2120(%rax), %rsi
 3452      080000
 3453 1657 488B45A8 		movq	-88(%rbp), %rax
 3454 165b 488D55B7 		leaq	-73(%rbp), %rdx
 3455 165f 41B80000 		movl	$0, %r8d
 3455      0000
 3456 1665 4889D1   		movq	%rdx, %rcx
 3457 1668 BA000000 		movl	$0, %edx
 3457      00
 3458 166d 4889C7   		movq	%rax, %rdi
 3459 1670 E88D5500 		call	_ZN12_GLOBAL__N_111FixtureBase10RunTestsIfIN8UnitTest4TrueEEEiRKNS2_8TestListEPKcRKT_i
 3459      00
 3460 1675 8945BC   		movl	%eax, -68(%rbp)
 3461 1678 C745B800 		movl	$0, -72(%rbp)
 3461      000000
 3462 167f E8000000 		call	_ZN8UnitTest11CurrentTest7ResultsEv
 3462      00
 3463              		.loc 6 103 0 discriminator 4
 3464 1684 488B00   		movq	(%rax), %rax
 3465 1687 488D4DC0 		leaq	-64(%rbp), %rcx
 3466 168b 488D55BC 		leaq	-68(%rbp), %rdx
 3467 168f 488D75B8 		leaq	-72(%rbp), %rsi
 3468 1693 4889C7   		movq	%rax, %rdi
 3469 1696 E8000000 		call	_ZN8UnitTest10CheckEqualIiiEEvRNS_11TestResultsERKT_RKT0_RKNS_11TestDetailsE
 3469      00
 3470              	.LEHE85:
 3471              	.L190:
 3472              	.LEHB86:
 104:TestTestRunner.cpp ****     CHECK_EQUAL(0, reporter.testRunCount);
 3473              		.loc 6 104 0 is_stmt 1
 3474 169b E8000000 		call	_ZN8UnitTest11CurrentTest7DetailsEv
 3474      00
 3475 16a0 488B08   		movq	(%rax), %rcx
 3476 16a3 488D45C0 		leaq	-64(%rbp), %rax
 3477 16a7 BA680000 		movl	$104, %edx
 3477      00
 3478 16ac 4889CE   		movq	%rcx, %rsi
 3479 16af 4889C7   		movq	%rax, %rdi
 3480 16b2 E8000000 		call	_ZN8UnitTest11TestDetailsC1ERKS0_i
 3480      00
 3481              		.loc 6 104 0 is_stmt 0 discriminator 2
 3482 16b7 488B45A8 		movq	-88(%rbp), %rax
 3483 16bb 488D5820 		leaq	32(%rax), %rbx
 3484 16bf C745BC00 		movl	$0, -68(%rbp)
 3484      000000
 3485 16c6 E8000000 		call	_ZN8UnitTest11CurrentTest7ResultsEv
 3485      00
 3486 16cb 488B00   		movq	(%rax), %rax
 3487 16ce 488D55C0 		leaq	-64(%rbp), %rdx
 3488 16d2 488D75BC 		leaq	-68(%rbp), %rsi
 3489 16d6 4889D1   		movq	%rdx, %rcx
 3490 16d9 4889DA   		movq	%rbx, %rdx
 3491 16dc 4889C7   		movq	%rax, %rdi
 3492 16df E8000000 		call	_ZN8UnitTest10CheckEqualIiiEEvRNS_11TestResultsERKT_RKT0_RKNS_11TestDetailsE
 3492      00
 3493              	.LEHE86:
 3494              	.L193:
 3495              	.LEHB87:
 105:TestTestRunner.cpp ****     CHECK_EQUAL(0, reporter.testFailedCount);
 3496              		.loc 6 105 0 is_stmt 1
 3497 16e4 E8000000 		call	_ZN8UnitTest11CurrentTest7DetailsEv
 3497      00
 3498 16e9 488B08   		movq	(%rax), %rcx
 3499 16ec 488D45C0 		leaq	-64(%rbp), %rax
 3500 16f0 BA690000 		movl	$105, %edx
 3500      00
 3501 16f5 4889CE   		movq	%rcx, %rsi
 3502 16f8 4889C7   		movq	%rax, %rdi
 3503 16fb E8000000 		call	_ZN8UnitTest11TestDetailsC1ERKS0_i
 3503      00
 3504              		.loc 6 105 0 is_stmt 0 discriminator 2
 3505 1700 488B45A8 		movq	-88(%rbp), %rax
 3506 1704 488D9824 		leaq	548(%rax), %rbx
 3506      020000
 3507 170b C745BC00 		movl	$0, -68(%rbp)
 3507      000000
 3508 1712 E8000000 		call	_ZN8UnitTest11CurrentTest7ResultsEv
 3508      00
 3509 1717 488B00   		movq	(%rax), %rax
 3510 171a 488D55C0 		leaq	-64(%rbp), %rdx
 3511 171e 488D75BC 		leaq	-68(%rbp), %rsi
 3512 1722 4889D1   		movq	%rdx, %rcx
 3513 1725 4889DA   		movq	%rbx, %rdx
 3514 1728 4889C7   		movq	%rax, %rdi
 3515 172b E8000000 		call	_ZN8UnitTest10CheckEqualIiiEEvRNS_11TestResultsERKT_RKT0_RKNS_11TestDetailsE
 3515      00
 3516              	.LEHE87:
 106:TestTestRunner.cpp **** }
 3517              		.loc 6 106 0 is_stmt 1
 3518 1730 E9120100 		jmp	.L204
 3518      00
 3519              	.L199:
 3520 1735 4889C3   		movq	%rax, %rbx
 103:TestTestRunner.cpp ****     CHECK_EQUAL(0, reporter.testRunCount);
 3521              		.loc 6 103 0
 3522 1738 E8000000 		call	__cxa_end_catch
 3522      00
 3523 173d 4889D8   		movq	%rbx, %rax
 3524 1740 4889C7   		movq	%rax, %rdi
 3525              	.LEHB88:
 3526 1743 E8000000 		call	_Unwind_Resume
 3526      00
 3527              	.LEHE88:
 3528              	.L198:
 3529 1748 4889C7   		movq	%rax, %rdi
 3530 174b E8000000 		call	__cxa_begin_catch
 3530      00
 3531              	.LEHB89:
 3532 1750 E8000000 		call	_ZN8UnitTest11CurrentTest7DetailsEv
 3532      00
 3533 1755 488B08   		movq	(%rax), %rcx
 3534 1758 488D45C0 		leaq	-64(%rbp), %rax
 3535 175c BA670000 		movl	$103, %edx
 3535      00
 3536 1761 4889CE   		movq	%rcx, %rsi
 3537 1764 4889C7   		movq	%rax, %rdi
 3538 1767 E8000000 		call	_ZN8UnitTest11TestDetailsC1ERKS0_i
 3538      00
 103:TestTestRunner.cpp ****     CHECK_EQUAL(0, reporter.testRunCount);
 3539              		.loc 6 103 0 is_stmt 0 discriminator 12
 3540 176c E8000000 		call	_ZN8UnitTest11CurrentTest7ResultsEv
 3540      00
 3541 1771 488B00   		movq	(%rax), %rax
 3542 1774 488D4DC0 		leaq	-64(%rbp), %rcx
 3543 1778 BA000000 		movl	$.LC26, %edx
 3543      00
 3544 177d 4889CE   		movq	%rcx, %rsi
 3545 1780 4889C7   		movq	%rax, %rdi
 3546 1783 E8000000 		call	_ZN8UnitTest11TestResults13OnTestFailureERKNS_11TestDetailsEPKc
 3546      00
 3547              	.LEHE89:
 3548              	.LEHB90:
 103:TestTestRunner.cpp ****     CHECK_EQUAL(0, reporter.testRunCount);
 3549              		.loc 6 103 0 discriminator 16
 3550 1788 E8000000 		call	__cxa_end_catch
 3550      00
 3551              	.LEHE90:
 3552 178d E909FFFF 		jmp	.L190
 3552      FF
 3553              	.L201:
 3554 1792 4889C3   		movq	%rax, %rbx
 104:TestTestRunner.cpp ****     CHECK_EQUAL(0, reporter.testFailedCount);
 3555              		.loc 6 104 0 is_stmt 1
 3556 1795 E8000000 		call	__cxa_end_catch
 3556      00
 3557 179a 4889D8   		movq	%rbx, %rax
 3558 179d 4889C7   		movq	%rax, %rdi
 3559              	.LEHB91:
 3560 17a0 E8000000 		call	_Unwind_Resume
 3560      00
 3561              	.LEHE91:
 3562              	.L200:
 3563 17a5 4889C7   		movq	%rax, %rdi
 3564 17a8 E8000000 		call	__cxa_begin_catch
 3564      00
 3565              	.LEHB92:
 3566 17ad E8000000 		call	_ZN8UnitTest11CurrentTest7DetailsEv
 3566      00
 3567 17b2 488B08   		movq	(%rax), %rcx
 3568 17b5 488D45C0 		leaq	-64(%rbp), %rax
 3569 17b9 BA680000 		movl	$104, %edx
 3569      00
 3570 17be 4889CE   		movq	%rcx, %rsi
 3571 17c1 4889C7   		movq	%rax, %rdi
 3572 17c4 E8000000 		call	_ZN8UnitTest11TestDetailsC1ERKS0_i
 3572      00
 104:TestTestRunner.cpp ****     CHECK_EQUAL(0, reporter.testFailedCount);
 3573              		.loc 6 104 0 is_stmt 0 discriminator 10
 3574 17c9 E8000000 		call	_ZN8UnitTest11CurrentTest7ResultsEv
 3574      00
 3575 17ce 488B00   		movq	(%rax), %rax
 3576 17d1 488D4DC0 		leaq	-64(%rbp), %rcx
 3577 17d5 BA000000 		movl	$.LC27, %edx
 3577      00
 3578 17da 4889CE   		movq	%rcx, %rsi
 3579 17dd 4889C7   		movq	%rax, %rdi
 3580 17e0 E8000000 		call	_ZN8UnitTest11TestResults13OnTestFailureERKNS_11TestDetailsEPKc
 3580      00
 3581              	.LEHE92:
 3582              	.LEHB93:
 104:TestTestRunner.cpp ****     CHECK_EQUAL(0, reporter.testFailedCount);
 3583              		.loc 6 104 0 discriminator 14
 3584 17e5 E8000000 		call	__cxa_end_catch
 3584      00
 3585              	.LEHE93:
 3586 17ea E9F5FEFF 		jmp	.L193
 3586      FF
 3587              	.L203:
 3588 17ef 4889C3   		movq	%rax, %rbx
 105:TestTestRunner.cpp **** }
 3589              		.loc 6 105 0 is_stmt 1
 3590 17f2 E8000000 		call	__cxa_end_catch
 3590      00
 3591 17f7 4889D8   		movq	%rbx, %rax
 3592 17fa 4889C7   		movq	%rax, %rdi
 3593              	.LEHB94:
 3594 17fd E8000000 		call	_Unwind_Resume
 3594      00
 3595              	.LEHE94:
 3596              	.L202:
 3597 1802 4889C7   		movq	%rax, %rdi
 3598 1805 E8000000 		call	__cxa_begin_catch
 3598      00
 3599              	.LEHB95:
 3600 180a E8000000 		call	_ZN8UnitTest11CurrentTest7DetailsEv
 3600      00
 3601 180f 488B08   		movq	(%rax), %rcx
 3602 1812 488D45C0 		leaq	-64(%rbp), %rax
 3603 1816 BA690000 		movl	$105, %edx
 3603      00
 3604 181b 4889CE   		movq	%rcx, %rsi
 3605 181e 4889C7   		movq	%rax, %rdi
 3606 1821 E8000000 		call	_ZN8UnitTest11TestDetailsC1ERKS0_i
 3606      00
 105:TestTestRunner.cpp **** }
 3607              		.loc 6 105 0 is_stmt 0 discriminator 10
 3608 1826 E8000000 		call	_ZN8UnitTest11CurrentTest7ResultsEv
 3608      00
 3609 182b 488B00   		movq	(%rax), %rax
 3610 182e 488D4DC0 		leaq	-64(%rbp), %rcx
 3611 1832 BA000000 		movl	$.LC28, %edx
 3611      00
 3612 1837 4889CE   		movq	%rcx, %rsi
 3613 183a 4889C7   		movq	%rax, %rdi
 3614 183d E8000000 		call	_ZN8UnitTest11TestResults13OnTestFailureERKNS_11TestDetailsEPKc
 3614      00
 3615              	.LEHE95:
 3616              	.LEHB96:
 105:TestTestRunner.cpp **** }
 3617              		.loc 6 105 0 discriminator 14
 3618 1842 E8000000 		call	__cxa_end_catch
 3618      00
 3619              	.LEHE96:
 3620              	.L204:
 3621              		.loc 6 106 0 is_stmt 1
 3622 1847 90       		nop
 3623 1848 488B45E8 		movq	-24(%rbp), %rax
 3624 184c 64483304 		xorq	%fs:40, %rax
 3624      25280000 
 3624      00
 3625 1855 7405     		je	.L197
 3626 1857 E8000000 		call	__stack_chk_fail
 3626      00
 3627              	.L197:
 3628 185c 4883C458 		addq	$88, %rsp
 3629 1860 5B       		popq	%rbx
 3630 1861 5D       		popq	%rbp
 3631              		.cfi_def_cfa 7, 8
 3632 1862 C3       		ret
 3633              		.cfi_endproc
 3634              	.LFE1139:
 3635              		.section	.gcc_except_table
 3636              		.align 4
 3637              	.LLSDA1139:
 3638 0248 FF       		.byte	0xff
 3639 0249 03       		.byte	0x3
 3640 024a 49       		.uleb128 .LLSDATT1139-.LLSDATTD1139
 3641              	.LLSDATTD1139:
 3642 024b 01       		.byte	0x1
 3643 024c 41       		.uleb128 .LLSDACSE1139-.LLSDACSB1139
 3644              	.LLSDACSB1139:
 3645 024d 1C       		.uleb128 .LEHB85-.LFB1139
 3646 024e 6B       		.uleb128 .LEHE85-.LEHB85
 3647 024f B402     		.uleb128 .L198-.LFB1139
 3648 0251 01       		.uleb128 0x1
 3649 0252 8701     		.uleb128 .LEHB86-.LFB1139
 3650 0254 49       		.uleb128 .LEHE86-.LEHB86
 3651 0255 9103     		.uleb128 .L200-.LFB1139
 3652 0257 01       		.uleb128 0x1
 3653 0258 D001     		.uleb128 .LEHB87-.LFB1139
 3654 025a 4C       		.uleb128 .LEHE87-.LEHB87
 3655 025b EE03     		.uleb128 .L202-.LFB1139
 3656 025d 01       		.uleb128 0x1
 3657 025e AF02     		.uleb128 .LEHB88-.LFB1139
 3658 0260 05       		.uleb128 .LEHE88-.LEHB88
 3659 0261 00       		.uleb128 0
 3660 0262 00       		.uleb128 0
 3661 0263 BC02     		.uleb128 .LEHB89-.LFB1139
 3662 0265 38       		.uleb128 .LEHE89-.LEHB89
 3663 0266 A102     		.uleb128 .L199-.LFB1139
 3664 0268 00       		.uleb128 0
 3665 0269 F402     		.uleb128 .LEHB90-.LFB1139
 3666 026b 05       		.uleb128 .LEHE90-.LEHB90
 3667 026c 00       		.uleb128 0
 3668 026d 00       		.uleb128 0
 3669 026e 8C03     		.uleb128 .LEHB91-.LFB1139
 3670 0270 05       		.uleb128 .LEHE91-.LEHB91
 3671 0271 00       		.uleb128 0
 3672 0272 00       		.uleb128 0
 3673 0273 9903     		.uleb128 .LEHB92-.LFB1139
 3674 0275 38       		.uleb128 .LEHE92-.LEHB92
 3675 0276 FE02     		.uleb128 .L201-.LFB1139
 3676 0278 00       		.uleb128 0
 3677 0279 D103     		.uleb128 .LEHB93-.LFB1139
 3678 027b 05       		.uleb128 .LEHE93-.LEHB93
 3679 027c 00       		.uleb128 0
 3680 027d 00       		.uleb128 0
 3681 027e E903     		.uleb128 .LEHB94-.LFB1139
 3682 0280 05       		.uleb128 .LEHE94-.LEHB94
 3683 0281 00       		.uleb128 0
 3684 0282 00       		.uleb128 0
 3685 0283 F603     		.uleb128 .LEHB95-.LFB1139
 3686 0285 38       		.uleb128 .LEHE95-.LEHB95
 3687 0286 DB03     		.uleb128 .L203-.LFB1139
 3688 0288 00       		.uleb128 0
 3689 0289 AE04     		.uleb128 .LEHB96-.LFB1139
 3690 028b 05       		.uleb128 .LEHE96-.LEHB96
 3691 028c 00       		.uleb128 0
 3692 028d 00       		.uleb128 0
 3693              	.LLSDACSE1139:
 3694 028e 01       		.byte	0x1
 3695 028f 00       		.byte	0
 3696              		.align 4
 3697 0290 00000000 		.long	0
 3698              	
 3699              	.LLSDATT1139:
 3700              		.text
 3702 1863 90       		.align 2
 3704              	_ZN12_GLOBAL__N_159TestRunnerFixtureCallsReportFailureOncePerFailingTestHelperC2ERKN8UnitTest11Test
 3705              	.LFB1141:
 107:TestTestRunner.cpp **** 
 108:TestTestRunner.cpp **** TEST_FIXTURE(TestRunnerFixture, CallsReportFailureOncePerFailingTest)
 3706              		.loc 6 108 0
 3707              		.cfi_startproc
 3708 1864 55       		pushq	%rbp
 3709              		.cfi_def_cfa_offset 16
 3710              		.cfi_offset 6, -16
 3711 1865 4889E5   		movq	%rsp, %rbp
 3712              		.cfi_def_cfa_register 6
 3713 1868 4883EC10 		subq	$16, %rsp
 3714 186c 48897DF8 		movq	%rdi, -8(%rbp)
 3715 1870 488975F0 		movq	%rsi, -16(%rbp)
 3716              	.LBB84:
 3717              		.loc 6 108 0
 3718 1874 488B45F8 		movq	-8(%rbp), %rax
 3719 1878 4889C7   		movq	%rax, %rdi
 3720 187b E8ECE8FF 		call	_ZN12_GLOBAL__N_117TestRunnerFixtureC2Ev
 3720      FF
 3721 1880 488B45F8 		movq	-8(%rbp), %rax
 3722 1884 488B55F0 		movq	-16(%rbp), %rdx
 3723 1888 48899058 		movq	%rdx, 2136(%rax)
 3723      080000
 3724              	.LBE84:
 3725 188f C9       		leave
 3726              		.cfi_def_cfa 7, 8
 3727 1890 C3       		ret
 3728              		.cfi_endproc
 3729              	.LFE1141:
 3731              		.section	.rodata
 3732              		.align 8
 3733              	.LC29:
 3734 0440 43616C6C 		.string	"CallsReportFailureOncePerFailingTest"
 3734      73526570 
 3734      6F727446 
 3734      61696C75 
 3734      72654F6E 
 3735              		.text
 3736 1891 90       		.align 2
 3738              	_ZN12_GLOBAL__N_157TestTestRunnerFixtureCallsReportFailureOncePerFailingTestC2Ev:
 3739              	.LFB1144:
 3740              		.loc 6 108 0
 3741              		.cfi_startproc
 3742 1892 55       		pushq	%rbp
 3743              		.cfi_def_cfa_offset 16
 3744              		.cfi_offset 6, -16
 3745 1893 4889E5   		movq	%rsp, %rbp
 3746              		.cfi_def_cfa_register 6
 3747 1896 4883EC10 		subq	$16, %rsp
 3748 189a 48897DF8 		movq	%rdi, -8(%rbp)
 3749              	.LBB85:
 3750              		.loc 6 108 0
 3751 189e E8000000 		call	_ZN13UnitTestSuite12GetSuiteNameEv
 3751      00
 3752 18a3 4889C2   		movq	%rax, %rdx
 3753 18a6 488B45F8 		movq	-8(%rbp), %rax
 3754 18aa 41B86C00 		movl	$108, %r8d
 3754      0000
 3755 18b0 B9000000 		movl	$.LC6, %ecx
 3755      00
 3756 18b5 BE000000 		movl	$.LC29, %esi
 3756      00
 3757 18ba 4889C7   		movq	%rax, %rdi
 3758 18bd E8000000 		call	_ZN8UnitTest4TestC2EPKcS2_S2_i
 3758      00
 3759 18c2 488B45F8 		movq	-8(%rbp), %rax
 3760 18c6 48C70000 		movq	$_ZTVN12_GLOBAL__N_157TestTestRunnerFixtureCallsReportFailureOncePerFailingTestE+16, (%rax)
 3760      000000
 3761              	.LBE85:
 3762 18cd C9       		leave
 3763              		.cfi_def_cfa 7, 8
 3764 18ce C3       		ret
 3765              		.cfi_endproc
 3766              	.LFE1144:
 3768              		.local	_ZN12_GLOBAL__N_165testTestRunnerFixtureCallsReportFailureOncePerFailingTestInstanceE
 3769              		.comm	_ZN12_GLOBAL__N_165testTestRunnerFixtureCallsReportFailureOncePerFailingTestInstanceE,56,32
 3770              		.local	_ZN12_GLOBAL__N_158adderTestRunnerFixtureCallsReportFailureOncePerFailingTestE
 3771              		.comm	_ZN12_GLOBAL__N_158adderTestRunnerFixtureCallsReportFailureOncePerFailingTestE,1,1
 3772 18cf 90       		.align 2
 3774              	_ZN12_GLOBAL__N_159TestRunnerFixtureCallsReportFailureOncePerFailingTestHelperD2Ev:
 3775              	.LFB1148:
 3776              		.loc 6 108 0
 3777              		.cfi_startproc
 3778 18d0 55       		pushq	%rbp
 3779              		.cfi_def_cfa_offset 16
 3780              		.cfi_offset 6, -16
 3781 18d1 4889E5   		movq	%rsp, %rbp
 3782              		.cfi_def_cfa_register 6
 3783 18d4 4883EC10 		subq	$16, %rsp
 3784 18d8 48897DF8 		movq	%rdi, -8(%rbp)
 3785              	.LBB86:
 3786              		.loc 6 108 0
 3787 18dc 488B45F8 		movq	-8(%rbp), %rax
 3788 18e0 4889C7   		movq	%rax, %rdi
 3789 18e3 E8D2E8FF 		call	_ZN12_GLOBAL__N_117TestRunnerFixtureD2Ev
 3789      FF
 3790              	.LBE86:
 3791 18e8 C9       		leave
 3792              		.cfi_def_cfa 7, 8
 3793 18e9 C3       		ret
 3794              		.cfi_endproc
 3795              	.LFE1148:
 3797              		.align 2
 3799              	_ZNK12_GLOBAL__N_157TestTestRunnerFixtureCallsReportFailureOncePerFailingTest7RunImplEv:
 3800              	.LFB1146:
 3801              		.loc 6 108 0
 3802              		.cfi_startproc
 3803              		.cfi_personality 0x3,__gxx_personality_v0
 3804              		.cfi_lsda 0x3,.LLSDA1146
 3805 18ea 55       		pushq	%rbp
 3806              		.cfi_def_cfa_offset 16
 3807              		.cfi_offset 6, -16
 3808 18eb 4889E5   		movq	%rsp, %rbp
 3809              		.cfi_def_cfa_register 6
 3810 18ee 4154     		pushq	%r12
 3811 18f0 53       		pushq	%rbx
 3812 18f1 4881ECC0 		subq	$2240, %rsp
 3812      080000
 3813              		.cfi_offset 12, -24
 3814              		.cfi_offset 3, -32
 3815 18f8 4889BD38 		movq	%rdi, -2248(%rbp)
 3815      F7FFFF
 3816              		.loc 6 108 0
 3817 18ff 64488B04 		movq	%fs:40, %rax
 3817      25280000 
 3817      00
 3818 1908 488945E8 		movq	%rax, -24(%rbp)
 3819 190c 31C0     		xorl	%eax, %eax
 3820              	.LBB87:
 3821 190e C6854FF7 		movb	$0, -2225(%rbp)
 3821      FFFF00
 3822              	.LBB88:
 3823 1915 488B8538 		movq	-2248(%rbp), %rax
 3823      F7FFFF
 3824 191c 488D5008 		leaq	8(%rax), %rdx
 3825 1920 488D8580 		leaq	-2176(%rbp), %rax
 3825      F7FFFF
 3826 1927 4889D6   		movq	%rdx, %rsi
 3827 192a 4889C7   		movq	%rax, %rdi
 3828              	.LEHB97:
 3829 192d E832FFFF 		call	_ZN12_GLOBAL__N_159TestRunnerFixtureCallsReportFailureOncePerFailingTestHelperC2ERKN8UnitTest
 3829      FF
 3830              	.LEHE97:
 3831              		.loc 6 108 0 is_stmt 0 discriminator 1
 3832 1932 C6854FF7 		movb	$1, -2225(%rbp)
 3832      FFFF01
 3833 1939 488B8538 		movq	-2248(%rbp), %rax
 3833      F7FFFF
 3834 1940 488D5008 		leaq	8(%rax), %rdx
 3835 1944 488D8580 		leaq	-2176(%rbp), %rax
 3835      F7FFFF
 3836 194b 4889D6   		movq	%rdx, %rsi
 3837 194e 4889C7   		movq	%rax, %rdi
 3838              	.LEHB98:
 3839 1951 E85E5B00 		call	_ZN8UnitTest11ExecuteTestIN12_GLOBAL__N_159TestRunnerFixtureCallsReportFailureOncePerFailingT
 3839      00
 3840              	.LEHE98:
 3841              		.loc 6 108 0 discriminator 3
 3842 1956 488D8580 		leaq	-2176(%rbp), %rax
 3842      F7FFFF
 3843 195d 4889C7   		movq	%rax, %rdi
 3844              	.LEHB99:
 3845 1960 E86BFFFF 		call	_ZN12_GLOBAL__N_159TestRunnerFixtureCallsReportFailureOncePerFailingTestHelperD2Ev
 3845      FF
 3846              	.LEHE99:
 3847              	.LBE88:
 3848              	.LBE87:
 3849              		.loc 6 108 0
 3850 1965 E9640200 		jmp	.L230
 3850      00
 3851              	.L224:
 3852 196a 4989C4   		movq	%rax, %r12
 3853 196d 4889D3   		movq	%rdx, %rbx
 3854              	.LBB96:
 3855              	.LBB89:
 3856 1970 488D8580 		leaq	-2176(%rbp), %rax
 3856      F7FFFF
 3857 1977 4889C7   		movq	%rax, %rdi
 3858 197a E851FFFF 		call	_ZN12_GLOBAL__N_159TestRunnerFixtureCallsReportFailureOncePerFailingTestHelperD2Ev
 3858      FF
 3859 197f 4C89E0   		movq	%r12, %rax
 3860 1982 4889DA   		movq	%rbx, %rdx
 3861 1985 EB00     		jmp	.L211
 3862              	.L223:
 3863              	.L211:
 3864 1987 4883FA01 		cmpq	$1, %rdx
 3865 198b 745C     		je	.L213
 3866 198d 4883FA02 		cmpq	$2, %rdx
 3867 1991 0F84F400 		je	.L214
 3867      0000
 3868 1997 E9980100 		jmp	.L229
 3868      00
 3869              	.L225:
 3870 199c 4889C3   		movq	%rax, %rbx
 3871              	.LBE89:
 3872              	.LBB90:
 3873 199f E8000000 		call	__cxa_end_catch
 3873      00
 3874 19a4 4889D8   		movq	%rbx, %rax
 3875 19a7 4889C7   		movq	%rax, %rdi
 3876              	.LEHB100:
 3877 19aa E8000000 		call	_Unwind_Resume
 3877      00
 3878              	.LEHE100:
 3879              	.L226:
 3880 19af 4889C3   		movq	%rax, %rbx
 3881              	.LBE90:
 3882              	.LBB91:
 3883              	.LBB92:
 3884 19b2 488D8580 		leaq	-2176(%rbp), %rax
 3884      F7FFFF
 3885 19b9 4889C7   		movq	%rax, %rdi
 3886 19bc E8000000 		call	_ZN8UnitTest15MemoryOutStreamD1Ev
 3886      00
 3887 19c1 EB03     		jmp	.L217
 3888              	.L227:
 3889 19c3 4889C3   		movq	%rax, %rbx
 3890              	.L217:
 3891              	.LBE92:
 3892 19c6 E8000000 		call	__cxa_end_catch
 3892      00
 3893 19cb 4889D8   		movq	%rbx, %rax
 3894 19ce 4889C7   		movq	%rax, %rdi
 3895              	.LEHB101:
 3896 19d1 E8000000 		call	_Unwind_Resume
 3896      00
 3897              	.LEHE101:
 3898              	.L228:
 3899 19d6 4889C3   		movq	%rax, %rbx
 3900              	.LBE91:
 3901 19d9 E8000000 		call	__cxa_end_catch
 3901      00
 3902 19de 4889D8   		movq	%rbx, %rax
 3903 19e1 4889C7   		movq	%rax, %rdi
 3904              	.LEHB102:
 3905 19e4 E8000000 		call	_Unwind_Resume
 3905      00
 3906              	.LEHE102:
 3907              	.L213:
 3908              	.LBB94:
 3909 19e9 4889C7   		movq	%rax, %rdi
 3910 19ec E8000000 		call	__cxa_begin_catch
 3910      00
 3911 19f1 48898550 		movq	%rax, -2224(%rbp)
 3911      F7FFFF
 3912 19f8 488B8550 		movq	-2224(%rbp), %rax
 3912      F7FFFF
 3913 19ff 488B00   		movq	(%rax), %rax
 3914 1a02 4883C010 		addq	$16, %rax
 3915 1a06 488B00   		movq	(%rax), %rax
 3916 1a09 488B9550 		movq	-2224(%rbp), %rdx
 3916      F7FFFF
 3917 1a10 4889D7   		movq	%rdx, %rdi
 3918 1a13 FFD0     		call	*%rax
 3919 1a15 4889C3   		movq	%rax, %rbx
 3920 1a18 488B8550 		movq	-2224(%rbp), %rax
 3920      F7FFFF
 3921 1a1f 4889C7   		movq	%rax, %rdi
 3922              	.LEHB103:
 3923 1a22 E8000000 		call	_ZNK8UnitTest15AssertException10LineNumberEv
 3923      00
 3924 1a27 4189C4   		movl	%eax, %r12d
 3925 1a2a 488B8550 		movq	-2224(%rbp), %rax
 3925      F7FFFF
 3926 1a31 4889C7   		movq	%rax, %rdi
 3927 1a34 E8000000 		call	_ZNK8UnitTest15AssertException8FilenameEv
 3927      00
 3928              		.loc 6 108 0 discriminator 5
 3929 1a39 4889C1   		movq	%rax, %rcx
 3930 1a3c 488B8538 		movq	-2248(%rbp), %rax
 3930      F7FFFF
 3931 1a43 488B5008 		movq	8(%rax), %rdx
 3932 1a47 488B8538 		movq	-2248(%rbp), %rax
 3932      F7FFFF
 3933 1a4e 488B7010 		movq	16(%rax), %rsi
 3934 1a52 488D8560 		leaq	-2208(%rbp), %rax
 3934      F7FFFF
 3935 1a59 4589E0   		movl	%r12d, %r8d
 3936 1a5c 4889C7   		movq	%rax, %rdi
 3937 1a5f E8000000 		call	_ZN8UnitTest11TestDetailsC1EPKcS2_S2_i
 3937      00
 3938              		.loc 6 108 0 discriminator 9
 3939 1a64 E8000000 		call	_ZN8UnitTest11CurrentTest7ResultsEv
 3939      00
 3940 1a69 488B00   		movq	(%rax), %rax
 3941 1a6c 488D8D60 		leaq	-2208(%rbp), %rcx
 3941      F7FFFF
 3942 1a73 4889DA   		movq	%rbx, %rdx
 3943 1a76 4889CE   		movq	%rcx, %rsi
 3944 1a79 4889C7   		movq	%rax, %rdi
 3945 1a7c E8000000 		call	_ZN8UnitTest11TestResults13OnTestFailureERKNS_11TestDetailsEPKc
 3945      00
 3946              	.LEHE103:
 3947              		.loc 6 108 0 discriminator 13
 3948 1a81 E8000000 		call	__cxa_end_catch
 3948      00
 3949              	.LBE94:
 3950              	.LBE96:
 3951 1a86 E9430100 		jmp	.L230
 3951      00
 3952              	.L214:
 3953              	.LBB97:
 3954              	.LBB95:
 3955              		.loc 6 108 0
 3956 1a8b 4889C7   		movq	%rax, %rdi
 3957 1a8e E8000000 		call	__cxa_begin_catch
 3957      00
 3958 1a93 48898558 		movq	%rax, -2216(%rbp)
 3958      F7FFFF
 3959              	.LBB93:
 3960 1a9a 488D8580 		leaq	-2176(%rbp), %rax
 3960      F7FFFF
 3961 1aa1 4889C7   		movq	%rax, %rdi
 3962              	.LEHB104:
 3963 1aa4 E8000000 		call	_ZN8UnitTest15MemoryOutStreamC1Ev
 3963      00
 3964              	.LEHE104:
 3965              		.loc 6 108 0 discriminator 15
 3966 1aa9 488B8558 		movq	-2216(%rbp), %rax
 3966      F7FFFF
 3967 1ab0 488B00   		movq	(%rax), %rax
 3968 1ab3 4883C010 		addq	$16, %rax
 3969 1ab7 488B00   		movq	(%rax), %rax
 3970 1aba 488B9558 		movq	-2216(%rbp), %rdx
 3970      F7FFFF
 3971 1ac1 4889D7   		movq	%rdx, %rdi
 3972 1ac4 FFD0     		call	*%rax
 3973 1ac6 4889C3   		movq	%rax, %rbx
 3974 1ac9 488D8580 		leaq	-2176(%rbp), %rax
 3974      F7FFFF
 3975 1ad0 BE000000 		movl	$.LC8, %esi
 3975      00
 3976 1ad5 4889C7   		movq	%rax, %rdi
 3977              	.LEHB105:
 3978 1ad8 E8000000 		call	_ZStlsISt11char_traitsIcEERSt13basic_ostreamIcT_ES5_PKc
 3978      00
 3979 1add 4889DE   		movq	%rbx, %rsi
 3980 1ae0 4889C7   		movq	%rax, %rdi
 3981 1ae3 E8000000 		call	_ZStlsISt11char_traitsIcEERSt13basic_ostreamIcT_ES5_PKc
 3981      00
 3982              		.loc 6 108 0 discriminator 19
 3983 1ae8 488D8580 		leaq	-2176(%rbp), %rax
 3983      F7FFFF
 3984 1aef 4889C7   		movq	%rax, %rdi
 3985 1af2 E8000000 		call	_ZNK8UnitTest15MemoryOutStream7GetTextEv
 3985      00
 3986 1af7 4989C4   		movq	%rax, %r12
 3987 1afa 488B8538 		movq	-2248(%rbp), %rax
 3987      F7FFFF
 3988 1b01 488D5808 		leaq	8(%rax), %rbx
 3989 1b05 E8000000 		call	_ZN8UnitTest11CurrentTest7ResultsEv
 3989      00
 3990              		.loc 6 108 0 discriminator 21
 3991 1b0a 488B00   		movq	(%rax), %rax
 3992 1b0d 4C89E2   		movq	%r12, %rdx
 3993 1b10 4889DE   		movq	%rbx, %rsi
 3994 1b13 4889C7   		movq	%rax, %rdi
 3995 1b16 E8000000 		call	_ZN8UnitTest11TestResults13OnTestFailureERKNS_11TestDetailsEPKc
 3995      00
 3996              	.LEHE105:
 3997              		.loc 6 108 0 discriminator 25
 3998 1b1b 488D8580 		leaq	-2176(%rbp), %rax
 3998      F7FFFF
 3999 1b22 4889C7   		movq	%rax, %rdi
 4000              	.LEHB106:
 4001 1b25 E8000000 		call	_ZN8UnitTest15MemoryOutStreamD1Ev
 4001      00
 4002              	.LEHE106:
 4003              	.LBE93:
 4004              		.loc 6 108 0 discriminator 26
 4005 1b2a E8000000 		call	__cxa_end_catch
 4005      00
 4006              	.LBE95:
 4007              	.LBE97:
 4008 1b2f E99A0000 		jmp	.L230
 4008      00
 4009              	.L229:
 4010              	.LBB98:
 4011              		.loc 6 108 0
 4012 1b34 4889C7   		movq	%rax, %rdi
 4013 1b37 E8000000 		call	__cxa_begin_catch
 4013      00
 4014 1b3c 80BD4FF7 		cmpb	$0, -2225(%rbp)
 4014      FFFF00
 4015 1b43 7443     		je	.L220
 4016              		.loc 6 108 0 discriminator 28
 4017 1b45 488B8538 		movq	-2248(%rbp), %rax
 4017      F7FFFF
 4018 1b4c 488D4808 		leaq	8(%rax), %rcx
 4019 1b50 488D8560 		leaq	-2208(%rbp), %rax
 4019      F7FFFF
 4020 1b57 BA6C0000 		movl	$108, %edx
 4020      00
 4021 1b5c 4889CE   		movq	%rcx, %rsi
 4022 1b5f 4889C7   		movq	%rax, %rdi
 4023              	.LEHB107:
 4024 1b62 E8000000 		call	_ZN8UnitTest11TestDetailsC1ERKS0_i
 4024      00
 4025              		.loc 6 108 0 discriminator 31
 4026 1b67 E8000000 		call	_ZN8UnitTest11CurrentTest7ResultsEv
 4026      00
 4027 1b6c 488B00   		movq	(%rax), %rax
 4028 1b6f 488D8D60 		leaq	-2208(%rbp), %rcx
 4028      F7FFFF
 4029 1b76 BA000000 		movl	$.LC9, %edx
 4029      00
 4030 1b7b 4889CE   		movq	%rcx, %rsi
 4031 1b7e 4889C7   		movq	%rax, %rdi
 4032 1b81 E8000000 		call	_ZN8UnitTest11TestResults13OnTestFailureERKNS_11TestDetailsEPKc
 4032      00
 4033 1b86 EB41     		jmp	.L221
 4034              	.L220:
 4035              		.loc 6 108 0 discriminator 29
 4036 1b88 488B8538 		movq	-2248(%rbp), %rax
 4036      F7FFFF
 4037 1b8f 488D4808 		leaq	8(%rax), %rcx
 4038 1b93 488D8560 		leaq	-2208(%rbp), %rax
 4038      F7FFFF
 4039 1b9a BA6C0000 		movl	$108, %edx
 4039      00
 4040 1b9f 4889CE   		movq	%rcx, %rsi
 4041 1ba2 4889C7   		movq	%rax, %rdi
 4042 1ba5 E8000000 		call	_ZN8UnitTest11TestDetailsC1ERKS0_i
 4042      00
 4043              		.loc 6 108 0 discriminator 38
 4044 1baa E8000000 		call	_ZN8UnitTest11CurrentTest7ResultsEv
 4044      00
 4045 1baf 488B00   		movq	(%rax), %rax
 4046 1bb2 488D8D60 		leaq	-2208(%rbp), %rcx
 4046      F7FFFF
 4047 1bb9 BA000000 		movl	$.LC10, %edx
 4047      00
 4048 1bbe 4889CE   		movq	%rcx, %rsi
 4049 1bc1 4889C7   		movq	%rax, %rdi
 4050 1bc4 E8000000 		call	_ZN8UnitTest11TestResults13OnTestFailureERKNS_11TestDetailsEPKc
 4050      00
 4051              	.LEHE107:
 4052              	.L221:
 4053              	.LEHB108:
 4054              		.loc 6 108 0 discriminator 43
 4055 1bc9 E8000000 		call	__cxa_end_catch
 4055      00
 4056              	.LEHE108:
 4057              	.L230:
 4058              	.LBE98:
 4059              		.loc 6 108 0
 4060 1bce 90       		nop
 4061 1bcf 488B45E8 		movq	-24(%rbp), %rax
 4062 1bd3 64483304 		xorq	%fs:40, %rax
 4062      25280000 
 4062      00
 4063 1bdc 7405     		je	.L222
 4064 1bde E8000000 		call	__stack_chk_fail
 4064      00
 4065              	.L222:
 4066 1be3 4881C4C0 		addq	$2240, %rsp
 4066      080000
 4067 1bea 5B       		popq	%rbx
 4068 1beb 415C     		popq	%r12
 4069 1bed 5D       		popq	%rbp
 4070              		.cfi_def_cfa 7, 8
 4071 1bee C3       		ret
 4072              		.cfi_endproc
 4073              	.LFE1146:
 4074              		.section	.gcc_except_table
 4075              		.align 4
 4076              	.LLSDA1146:
 4077 0294 FF       		.byte	0xff
 4078 0295 03       		.byte	0x3
 4079 0296 59       		.uleb128 .LLSDATT1146-.LLSDATTD1146
 4080              	.LLSDATTD1146:
 4081 0297 01       		.byte	0x1
 4082 0298 41       		.uleb128 .LLSDACSE1146-.LLSDACSB1146
 4083              	.LLSDACSB1146:
 4084 0299 43       		.uleb128 .LEHB97-.LFB1146
 4085 029a 05       		.uleb128 .LEHE97-.LEHB97
 4086 029b 9D01     		.uleb128 .L223-.LFB1146
 4087 029d 05       		.uleb128 0x5
 4088 029e 67       		.uleb128 .LEHB98-.LFB1146
 4089 029f 05       		.uleb128 .LEHE98-.LEHB98
 4090 02a0 8001     		.uleb128 .L224-.LFB1146
 4091 02a2 07       		.uleb128 0x7
 4092 02a3 76       		.uleb128 .LEHB99-.LFB1146
 4093 02a4 05       		.uleb128 .LEHE99-.LEHB99
 4094 02a5 9D01     		.uleb128 .L223-.LFB1146
 4095 02a7 05       		.uleb128 0x5
 4096 02a8 C001     		.uleb128 .LEHB100-.LFB1146
 4097 02aa 05       		.uleb128 .LEHE100-.LEHB100
 4098 02ab 00       		.uleb128 0
 4099 02ac 00       		.uleb128 0
 4100 02ad E701     		.uleb128 .LEHB101-.LFB1146
 4101 02af 05       		.uleb128 .LEHE101-.LEHB101
 4102 02b0 00       		.uleb128 0
 4103 02b1 00       		.uleb128 0
 4104 02b2 FA01     		.uleb128 .LEHB102-.LFB1146
 4105 02b4 05       		.uleb128 .LEHE102-.LEHB102
 4106 02b5 00       		.uleb128 0
 4107 02b6 00       		.uleb128 0
 4108 02b7 B802     		.uleb128 .LEHB103-.LFB1146
 4109 02b9 5F       		.uleb128 .LEHE103-.LEHB103
 4110 02ba B201     		.uleb128 .L225-.LFB1146
 4111 02bc 00       		.uleb128 0
 4112 02bd BA03     		.uleb128 .LEHB104-.LFB1146
 4113 02bf 05       		.uleb128 .LEHE104-.LEHB104
 4114 02c0 D901     		.uleb128 .L227-.LFB1146
 4115 02c2 00       		.uleb128 0
 4116 02c3 EE03     		.uleb128 .LEHB105-.LFB1146
 4117 02c5 43       		.uleb128 .LEHE105-.LEHB105
 4118 02c6 C501     		.uleb128 .L226-.LFB1146
 4119 02c8 00       		.uleb128 0
 4120 02c9 BB04     		.uleb128 .LEHB106-.LFB1146
 4121 02cb 05       		.uleb128 .LEHE106-.LEHB106
 4122 02cc D901     		.uleb128 .L227-.LFB1146
 4123 02ce 00       		.uleb128 0
 4124 02cf F804     		.uleb128 .LEHB107-.LFB1146
 4125 02d1 67       		.uleb128 .LEHE107-.LEHB107
 4126 02d2 EC01     		.uleb128 .L228-.LFB1146
 4127 02d4 00       		.uleb128 0
 4128 02d5 DF05     		.uleb128 .LEHB108-.LFB1146
 4129 02d7 05       		.uleb128 .LEHE108-.LEHB108
 4130 02d8 00       		.uleb128 0
 4131 02d9 00       		.uleb128 0
 4132              	.LLSDACSE1146:
 4133 02da 03       		.byte	0x3
 4134 02db 00       		.byte	0
 4135 02dc 02       		.byte	0x2
 4136 02dd 7D       		.byte	0x7d
 4137 02de 01       		.byte	0x1
 4138 02df 7D       		.byte	0x7d
 4139 02e0 00       		.byte	0
 4140 02e1 7D       		.byte	0x7d
 4141 02e2 0000     		.align 4
 4142 02e4 00000000 		.long	0
 4143              	
 4144 02e8 00000000 		.long	_ZTISt9exception
 4145 02ec 00000000 		.long	_ZTIN8UnitTest15AssertExceptionE
 4146              	.LLSDATT1146:
 4147              		.text
 4149              		.section	.rodata
 4150              	.LC30:
 4151 0465 74657374 		.string	"test"
 4151      00
 4152 046a 00000000 		.align 8
 4152      0000
 4153              	.LC31:
 4154 0470 556E6861 		.string	"Unhandled exception in CHECK_EQUAL(2, RunTestsIf(list, NULL, True(), 0))"
 4154      6E646C65 
 4154      64206578 
 4154      63657074 
 4154      696F6E20 
 4155 04b9 00000000 		.align 8
 4155      000000
 4156              	.LC32:
 4157 04c0 556E6861 		.string	"Unhandled exception in CHECK_EQUAL(2, reporter.testFailedCount)"
 4157      6E646C65 
 4157      64206578 
 4157      63657074 
 4157      696F6E20 
 4158              		.text
 4159 1bef 90       		.align 2
 4161              	_ZN12_GLOBAL__N_159TestRunnerFixtureCallsReportFailureOncePerFailingTestHelper7RunImplEv:
 4162              	.LFB1150:
 109:TestTestRunner.cpp **** {
 4163              		.loc 6 109 0 is_stmt 1
 4164              		.cfi_startproc
 4165              		.cfi_personality 0x3,__gxx_personality_v0
 4166              		.cfi_lsda 0x3,.LLSDA1150
 4167 1bf0 55       		pushq	%rbp
 4168              		.cfi_def_cfa_offset 16
 4169              		.cfi_offset 6, -16
 4170 1bf1 4889E5   		movq	%rsp, %rbp
 4171              		.cfi_def_cfa_register 6
 4172 1bf4 53       		pushq	%rbx
 4173 1bf5 4881EC08 		subq	$264, %rsp
 4173      010000
 4174              		.cfi_offset 3, -24
 4175 1bfc 4889BDF8 		movq	%rdi, -264(%rbp)
 4175      FEFFFF
 4176              		.loc 6 109 0
 4177 1c03 64488B04 		movq	%fs:40, %rax
 4177      25280000 
 4177      00
 4178 1c0c 488945E8 		movq	%rax, -24(%rbp)
 4179 1c10 31C0     		xorl	%eax, %eax
 4180              	.LBB99:
 110:TestTestRunner.cpp ****     MockTest test1("test", false, false);
 4181              		.loc 6 110 0
 4182 1c12 488D8530 		leaq	-208(%rbp), %rax
 4182      FFFFFF
 4183 1c19 41B80100 		movl	$1, %r8d
 4183      0000
 4184 1c1f B9000000 		movl	$0, %ecx
 4184      00
 4185 1c24 BA000000 		movl	$0, %edx
 4185      00
 4186 1c29 BE000000 		movl	$.LC30, %esi
 4186      00
 4187 1c2e 4889C7   		movq	%rax, %rdi
 4188              	.LEHB109:
 4189 1c31 E8CAE3FF 		call	_ZN12_GLOBAL__N_18MockTestC2EPKcbbi
 4189      FF
 4190              	.LEHE109:
 111:TestTestRunner.cpp ****     list.Add(&test1);
 4191              		.loc 6 111 0
 4192 1c36 488B85F8 		movq	-264(%rbp), %rax
 4192      FEFFFF
 4193 1c3d 488D9048 		leaq	2120(%rax), %rdx
 4193      080000
 4194 1c44 488D8530 		leaq	-208(%rbp), %rax
 4194      FFFFFF
 4195 1c4b 4889C6   		movq	%rax, %rsi
 4196 1c4e 4889D7   		movq	%rdx, %rdi
 4197              	.LEHB110:
 4198 1c51 E8000000 		call	_ZN8UnitTest8TestList3AddEPNS_4TestE
 4198      00
 112:TestTestRunner.cpp ****     MockTest test2("test", true, false);
 4199              		.loc 6 112 0
 4200 1c56 488D8570 		leaq	-144(%rbp), %rax
 4200      FFFFFF
 4201 1c5d 41B80100 		movl	$1, %r8d
 4201      0000
 4202 1c63 B9000000 		movl	$0, %ecx
 4202      00
 4203 1c68 BA010000 		movl	$1, %edx
 4203      00
 4204 1c6d BE000000 		movl	$.LC30, %esi
 4204      00
 4205 1c72 4889C7   		movq	%rax, %rdi
 4206 1c75 E886E3FF 		call	_ZN12_GLOBAL__N_18MockTestC2EPKcbbi
 4206      FF
 4207              	.LEHE110:
 113:TestTestRunner.cpp ****     list.Add(&test2);
 4208              		.loc 6 113 0
 4209 1c7a 488B85F8 		movq	-264(%rbp), %rax
 4209      FEFFFF
 4210 1c81 488D9048 		leaq	2120(%rax), %rdx
 4210      080000
 4211 1c88 488D8570 		leaq	-144(%rbp), %rax
 4211      FFFFFF
 4212 1c8f 4889C6   		movq	%rax, %rsi
 4213 1c92 4889D7   		movq	%rdx, %rdi
 4214              	.LEHB111:
 4215 1c95 E8000000 		call	_ZN8UnitTest8TestList3AddEPNS_4TestE
 4215      00
 114:TestTestRunner.cpp ****     MockTest test3("test", false, false);
 4216              		.loc 6 114 0
 4217 1c9a 488D45B0 		leaq	-80(%rbp), %rax
 4218 1c9e 41B80100 		movl	$1, %r8d
 4218      0000
 4219 1ca4 B9000000 		movl	$0, %ecx
 4219      00
 4220 1ca9 BA000000 		movl	$0, %edx
 4220      00
 4221 1cae BE000000 		movl	$.LC30, %esi
 4221      00
 4222 1cb3 4889C7   		movq	%rax, %rdi
 4223 1cb6 E845E3FF 		call	_ZN12_GLOBAL__N_18MockTestC2EPKcbbi
 4223      FF
 4224              	.LEHE111:
 115:TestTestRunner.cpp ****     list.Add(&test3);
 4225              		.loc 6 115 0
 4226 1cbb 488B85F8 		movq	-264(%rbp), %rax
 4226      FEFFFF
 4227 1cc2 488D9048 		leaq	2120(%rax), %rdx
 4227      080000
 4228 1cc9 488D45B0 		leaq	-80(%rbp), %rax
 4229 1ccd 4889C6   		movq	%rax, %rsi
 4230 1cd0 4889D7   		movq	%rdx, %rdi
 4231              	.LEHB112:
 4232 1cd3 E8000000 		call	_ZN8UnitTest8TestList3AddEPNS_4TestE
 4232      00
 4233              	.LEHE112:
 4234              	.LEHB113:
 116:TestTestRunner.cpp **** 
 117:TestTestRunner.cpp **** 	CHECK_EQUAL(2, 	RunTestsIf(list, NULL, True(), 0));
 4235              		.loc 6 117 0
 4236 1cd8 E8000000 		call	_ZN8UnitTest11CurrentTest7DetailsEv
 4236      00
 4237 1cdd 488B08   		movq	(%rax), %rcx
 4238 1ce0 488D8510 		leaq	-240(%rbp), %rax
 4238      FFFFFF
 4239 1ce7 BA750000 		movl	$117, %edx
 4239      00
 4240 1cec 4889CE   		movq	%rcx, %rsi
 4241 1cef 4889C7   		movq	%rax, %rdi
 4242 1cf2 E8000000 		call	_ZN8UnitTest11TestDetailsC1ERKS0_i
 4242      00
 4243              		.loc 6 117 0 is_stmt 0 discriminator 2
 4244 1cf7 488B85F8 		movq	-264(%rbp), %rax
 4244      FEFFFF
 4245 1cfe 488DB048 		leaq	2120(%rax), %rsi
 4245      080000
 4246 1d05 488B85F8 		movq	-264(%rbp), %rax
 4246      FEFFFF
 4247 1d0c 488D9507 		leaq	-249(%rbp), %rdx
 4247      FFFFFF
 4248 1d13 41B80000 		movl	$0, %r8d
 4248      0000
 4249 1d19 4889D1   		movq	%rdx, %rcx
 4250 1d1c BA000000 		movl	$0, %edx
 4250      00
 4251 1d21 4889C7   		movq	%rax, %rdi
 4252 1d24 E8D94E00 		call	_ZN12_GLOBAL__N_111FixtureBase10RunTestsIfIN8UnitTest4TrueEEEiRKNS2_8TestListEPKcRKT_i
 4252      00
 4253 1d29 89850CFF 		movl	%eax, -244(%rbp)
 4253      FFFF
 4254 1d2f C78508FF 		movl	$2, -248(%rbp)
 4254      FFFF0200 
 4254      0000
 4255 1d39 E8000000 		call	_ZN8UnitTest11CurrentTest7ResultsEv
 4255      00
 4256              		.loc 6 117 0 discriminator 4
 4257 1d3e 488B00   		movq	(%rax), %rax
 4258 1d41 488D8D10 		leaq	-240(%rbp), %rcx
 4258      FFFFFF
 4259 1d48 488D950C 		leaq	-244(%rbp), %rdx
 4259      FFFFFF
 4260 1d4f 488DB508 		leaq	-248(%rbp), %rsi
 4260      FFFFFF
 4261 1d56 4889C7   		movq	%rax, %rdi
 4262 1d59 E8000000 		call	_ZN8UnitTest10CheckEqualIiiEEvRNS_11TestResultsERKT_RKT0_RKNS_11TestDetailsE
 4262      00
 4263              	.LEHE113:
 4264              	.L235:
 4265              	.LEHB114:
 118:TestTestRunner.cpp ****     CHECK_EQUAL(2, reporter.testFailedCount);
 4266              		.loc 6 118 0 is_stmt 1
 4267 1d5e E8000000 		call	_ZN8UnitTest11CurrentTest7DetailsEv
 4267      00
 4268 1d63 488B08   		movq	(%rax), %rcx
 4269 1d66 488D8510 		leaq	-240(%rbp), %rax
 4269      FFFFFF
 4270 1d6d BA760000 		movl	$118, %edx
 4270      00
 4271 1d72 4889CE   		movq	%rcx, %rsi
 4272 1d75 4889C7   		movq	%rax, %rdi
 4273 1d78 E8000000 		call	_ZN8UnitTest11TestDetailsC1ERKS0_i
 4273      00
 4274              		.loc 6 118 0 is_stmt 0 discriminator 2
 4275 1d7d 488B85F8 		movq	-264(%rbp), %rax
 4275      FEFFFF
 4276 1d84 488D9824 		leaq	548(%rax), %rbx
 4276      020000
 4277 1d8b C7850CFF 		movl	$2, -244(%rbp)
 4277      FFFF0200 
 4277      0000
 4278 1d95 E8000000 		call	_ZN8UnitTest11CurrentTest7ResultsEv
 4278      00
 4279 1d9a 488B00   		movq	(%rax), %rax
 4280 1d9d 488D9510 		leaq	-240(%rbp), %rdx
 4280      FFFFFF
 4281 1da4 488DB50C 		leaq	-244(%rbp), %rsi
 4281      FFFFFF
 4282 1dab 4889D1   		movq	%rdx, %rcx
 4283 1dae 4889DA   		movq	%rbx, %rdx
 4284 1db1 4889C7   		movq	%rax, %rdi
 4285 1db4 E8000000 		call	_ZN8UnitTest10CheckEqualIiiEEvRNS_11TestResultsERKT_RKT0_RKNS_11TestDetailsE
 4285      00
 4286              	.LEHE114:
 4287              	.L238:
 114:TestTestRunner.cpp ****     list.Add(&test3);
 4288              		.loc 6 114 0 is_stmt 1
 4289 1db9 488D45B0 		leaq	-80(%rbp), %rax
 4290 1dbd 4889C7   		movq	%rax, %rdi
 4291              	.LEHB115:
 4292 1dc0 E8398300 		call	_ZN12_GLOBAL__N_18MockTestD2Ev
 4292      00
 4293              	.LEHE115:
 112:TestTestRunner.cpp ****     list.Add(&test2);
 4294              		.loc 6 112 0
 4295 1dc5 488D8570 		leaq	-144(%rbp), %rax
 4295      FFFFFF
 4296 1dcc 4889C7   		movq	%rax, %rdi
 4297              	.LEHB116:
 4298 1dcf E82A8300 		call	_ZN12_GLOBAL__N_18MockTestD2Ev
 4298      00
 4299              	.LEHE116:
 4300              		.loc 6 118 0
 4301 1dd4 488D8530 		leaq	-208(%rbp), %rax
 4301      FFFFFF
 4302 1ddb 4889C7   		movq	%rax, %rdi
 4303              	.LEHB117:
 4304 1dde E81B8300 		call	_ZN12_GLOBAL__N_18MockTestD2Ev
 4304      00
 4305              	.LEHE117:
 4306              	.LBE99:
 119:TestTestRunner.cpp **** }
 4307              		.loc 6 119 0
 4308 1de3 488B45E8 		movq	-24(%rbp), %rax
 4309 1de7 64483304 		xorq	%fs:40, %rax
 4309      25280000 
 4309      00
 4310 1df0 0F840301 		je	.L241
 4310      0000
 4311 1df6 E9F90000 		jmp	.L249
 4311      00
 4312              	.L246:
 4313 1dfb 4889C3   		movq	%rax, %rbx
 4314              	.LBB100:
 117:TestTestRunner.cpp ****     CHECK_EQUAL(2, reporter.testFailedCount);
 4315              		.loc 6 117 0
 4316 1dfe E8000000 		call	__cxa_end_catch
 4316      00
 4317 1e03 E9AD0000 		jmp	.L233
 4317      00
 4318              	.L245:
 4319 1e08 4889C7   		movq	%rax, %rdi
 4320 1e0b E8000000 		call	__cxa_begin_catch
 4320      00
 4321              	.LEHB118:
 4322 1e10 E8000000 		call	_ZN8UnitTest11CurrentTest7DetailsEv
 4322      00
 4323 1e15 488B08   		movq	(%rax), %rcx
 4324 1e18 488D8510 		leaq	-240(%rbp), %rax
 4324      FFFFFF
 4325 1e1f BA750000 		movl	$117, %edx
 4325      00
 4326 1e24 4889CE   		movq	%rcx, %rsi
 4327 1e27 4889C7   		movq	%rax, %rdi
 4328 1e2a E8000000 		call	_ZN8UnitTest11TestDetailsC1ERKS0_i
 4328      00
 117:TestTestRunner.cpp ****     CHECK_EQUAL(2, reporter.testFailedCount);
 4329              		.loc 6 117 0 is_stmt 0 discriminator 12
 4330 1e2f E8000000 		call	_ZN8UnitTest11CurrentTest7ResultsEv
 4330      00
 4331 1e34 488B00   		movq	(%rax), %rax
 4332 1e37 488D8D10 		leaq	-240(%rbp), %rcx
 4332      FFFFFF
 4333 1e3e BA000000 		movl	$.LC31, %edx
 4333      00
 4334 1e43 4889CE   		movq	%rcx, %rsi
 4335 1e46 4889C7   		movq	%rax, %rdi
 4336 1e49 E8000000 		call	_ZN8UnitTest11TestResults13OnTestFailureERKNS_11TestDetailsEPKc
 4336      00
 4337              	.LEHE118:
 4338              	.LEHB119:
 117:TestTestRunner.cpp ****     CHECK_EQUAL(2, reporter.testFailedCount);
 4339              		.loc 6 117 0 discriminator 16
 4340 1e4e E8000000 		call	__cxa_end_catch
 4340      00
 4341              	.LEHE119:
 117:TestTestRunner.cpp ****     CHECK_EQUAL(2, reporter.testFailedCount);
 4342              		.loc 6 117 0
 4343 1e53 E906FFFF 		jmp	.L235
 4343      FF
 4344              	.L248:
 4345 1e58 4889C3   		movq	%rax, %rbx
 118:TestTestRunner.cpp **** }
 4346              		.loc 6 118 0 is_stmt 1
 4347 1e5b E8000000 		call	__cxa_end_catch
 4347      00
 4348 1e60 EB53     		jmp	.L233
 4349              	.L247:
 4350 1e62 4889C7   		movq	%rax, %rdi
 4351 1e65 E8000000 		call	__cxa_begin_catch
 4351      00
 4352              	.LEHB120:
 4353 1e6a E8000000 		call	_ZN8UnitTest11CurrentTest7DetailsEv
 4353      00
 4354 1e6f 488B08   		movq	(%rax), %rcx
 4355 1e72 488D8510 		leaq	-240(%rbp), %rax
 4355      FFFFFF
 4356 1e79 BA760000 		movl	$118, %edx
 4356      00
 4357 1e7e 4889CE   		movq	%rcx, %rsi
 4358 1e81 4889C7   		movq	%rax, %rdi
 4359 1e84 E8000000 		call	_ZN8UnitTest11TestDetailsC1ERKS0_i
 4359      00
 118:TestTestRunner.cpp **** }
 4360              		.loc 6 118 0 is_stmt 0 discriminator 10
 4361 1e89 E8000000 		call	_ZN8UnitTest11CurrentTest7ResultsEv
 4361      00
 4362 1e8e 488B00   		movq	(%rax), %rax
 4363 1e91 488D8D10 		leaq	-240(%rbp), %rcx
 4363      FFFFFF
 4364 1e98 BA000000 		movl	$.LC32, %edx
 4364      00
 4365 1e9d 4889CE   		movq	%rcx, %rsi
 4366 1ea0 4889C7   		movq	%rax, %rdi
 4367 1ea3 E8000000 		call	_ZN8UnitTest11TestResults13OnTestFailureERKNS_11TestDetailsEPKc
 4367      00
 4368              	.LEHE120:
 4369              	.LEHB121:
 118:TestTestRunner.cpp **** }
 4370              		.loc 6 118 0 discriminator 14
 4371 1ea8 E8000000 		call	__cxa_end_catch
 4371      00
 4372              	.LEHE121:
 118:TestTestRunner.cpp **** }
 4373              		.loc 6 118 0
 4374 1ead E907FFFF 		jmp	.L238
 4374      FF
 4375              	.L244:
 4376 1eb2 4889C3   		movq	%rax, %rbx
 4377              	.L233:
 114:TestTestRunner.cpp ****     list.Add(&test3);
 4378              		.loc 6 114 0 is_stmt 1
 4379 1eb5 488D45B0 		leaq	-80(%rbp), %rax
 4380 1eb9 4889C7   		movq	%rax, %rdi
 4381 1ebc E83D8200 		call	_ZN12_GLOBAL__N_18MockTestD2Ev
 4381      00
 4382 1ec1 EB03     		jmp	.L239
 4383              	.L243:
 4384 1ec3 4889C3   		movq	%rax, %rbx
 4385              	.L239:
 112:TestTestRunner.cpp ****     list.Add(&test2);
 4386              		.loc 6 112 0
 4387 1ec6 488D8570 		leaq	-144(%rbp), %rax
 4387      FFFFFF
 4388 1ecd 4889C7   		movq	%rax, %rdi
 4389 1ed0 E8298200 		call	_ZN12_GLOBAL__N_18MockTestD2Ev
 4389      00
 4390 1ed5 EB03     		jmp	.L240
 4391              	.L242:
 4392 1ed7 4889C3   		movq	%rax, %rbx
 4393              	.L240:
 118:TestTestRunner.cpp **** }
 4394              		.loc 6 118 0
 4395 1eda 488D8530 		leaq	-208(%rbp), %rax
 4395      FFFFFF
 4396 1ee1 4889C7   		movq	%rax, %rdi
 4397 1ee4 E8158200 		call	_ZN12_GLOBAL__N_18MockTestD2Ev
 4397      00
 4398 1ee9 4889D8   		movq	%rbx, %rax
 4399 1eec 4889C7   		movq	%rax, %rdi
 4400              	.LEHB122:
 4401 1eef E8000000 		call	_Unwind_Resume
 4401      00
 4402              	.LEHE122:
 4403              	.L249:
 4404              	.LBE100:
 4405              		.loc 6 119 0
 4406 1ef4 E8000000 		call	__stack_chk_fail
 4406      00
 4407              	.L241:
 4408 1ef9 4881C408 		addq	$264, %rsp
 4408      010000
 4409 1f00 5B       		popq	%rbx
 4410 1f01 5D       		popq	%rbp
 4411              		.cfi_def_cfa 7, 8
 4412 1f02 C3       		ret
 4413              		.cfi_endproc
 4414              	.LFE1150:
 4415              		.section	.gcc_except_table
 4416              		.align 4
 4417              	.LLSDA1150:
 4418 02f0 FF       		.byte	0xff
 4419 02f1 03       		.byte	0x3
 4420 02f2 59       		.uleb128 .LLSDATT1150-.LLSDATTD1150
 4421              	.LLSDATTD1150:
 4422 02f3 01       		.byte	0x1
 4423 02f4 50       		.uleb128 .LLSDACSE1150-.LLSDACSB1150
 4424              	.LLSDACSB1150:
 4425 02f5 41       		.uleb128 .LEHB109-.LFB1150
 4426 02f6 05       		.uleb128 .LEHE109-.LEHB109
 4427 02f7 00       		.uleb128 0
 4428 02f8 00       		.uleb128 0
 4429 02f9 61       		.uleb128 .LEHB110-.LFB1150
 4430 02fa 29       		.uleb128 .LEHE110-.LEHB110
 4431 02fb E705     		.uleb128 .L242-.LFB1150
 4432 02fd 00       		.uleb128 0
 4433 02fe A501     		.uleb128 .LEHB111-.LFB1150
 4434 0300 26       		.uleb128 .LEHE111-.LEHB111
 4435 0301 D305     		.uleb128 .L243-.LFB1150
 4436 0303 00       		.uleb128 0
 4437 0304 E301     		.uleb128 .LEHB112-.LFB1150
 4438 0306 05       		.uleb128 .LEHE112-.LEHB112
 4439 0307 C205     		.uleb128 .L244-.LFB1150
 4440 0309 00       		.uleb128 0
 4441 030a E801     		.uleb128 .LEHB113-.LFB1150
 4442 030c 8601     		.uleb128 .LEHE113-.LEHB113
 4443 030e 9804     		.uleb128 .L245-.LFB1150
 4444 0310 01       		.uleb128 0x1
 4445 0311 EE02     		.uleb128 .LEHB114-.LFB1150
 4446 0313 5B       		.uleb128 .LEHE114-.LEHB114
 4447 0314 F204     		.uleb128 .L247-.LFB1150
 4448 0316 01       		.uleb128 0x1
 4449 0317 D003     		.uleb128 .LEHB115-.LFB1150
 4450 0319 05       		.uleb128 .LEHE115-.LEHB115
 4451 031a D305     		.uleb128 .L243-.LFB1150
 4452 031c 00       		.uleb128 0
 4453 031d DF03     		.uleb128 .LEHB116-.LFB1150
 4454 031f 05       		.uleb128 .LEHE116-.LEHB116
 4455 0320 E705     		.uleb128 .L242-.LFB1150
 4456 0322 00       		.uleb128 0
 4457 0323 EE03     		.uleb128 .LEHB117-.LFB1150
 4458 0325 05       		.uleb128 .LEHE117-.LEHB117
 4459 0326 00       		.uleb128 0
 4460 0327 00       		.uleb128 0
 4461 0328 A004     		.uleb128 .LEHB118-.LFB1150
 4462 032a 3E       		.uleb128 .LEHE118-.LEHB118
 4463 032b 8B04     		.uleb128 .L246-.LFB1150
 4464 032d 00       		.uleb128 0
 4465 032e DE04     		.uleb128 .LEHB119-.LFB1150
 4466 0330 05       		.uleb128 .LEHE119-.LEHB119
 4467 0331 C205     		.uleb128 .L244-.LFB1150
 4468 0333 00       		.uleb128 0
 4469 0334 FA04     		.uleb128 .LEHB120-.LFB1150
 4470 0336 3E       		.uleb128 .LEHE120-.LEHB120
 4471 0337 E804     		.uleb128 .L248-.LFB1150
 4472 0339 00       		.uleb128 0
 4473 033a B805     		.uleb128 .LEHB121-.LFB1150
 4474 033c 05       		.uleb128 .LEHE121-.LEHB121
 4475 033d C205     		.uleb128 .L244-.LFB1150
 4476 033f 00       		.uleb128 0
 4477 0340 FF05     		.uleb128 .LEHB122-.LFB1150
 4478 0342 05       		.uleb128 .LEHE122-.LEHB122
 4479 0343 00       		.uleb128 0
 4480 0344 00       		.uleb128 0
 4481              	.LLSDACSE1150:
 4482 0345 01       		.byte	0x1
 4483 0346 00       		.byte	0
 4484 0347 00       		.align 4
 4485 0348 00000000 		.long	0
 4486              	
 4487              	.LLSDATT1150:
 4488              		.text
 4490 1f03 90       		.align 2
 4492              	_ZN12_GLOBAL__N_158TestRunnerFixtureTestsThatAssertAreReportedAsFailingHelperC2ERKN8UnitTest11TestD
 4493              	.LFB1152:
 120:TestTestRunner.cpp **** 
 121:TestTestRunner.cpp **** TEST_FIXTURE(TestRunnerFixture, TestsThatAssertAreReportedAsFailing)
 4494              		.loc 6 121 0
 4495              		.cfi_startproc
 4496 1f04 55       		pushq	%rbp
 4497              		.cfi_def_cfa_offset 16
 4498              		.cfi_offset 6, -16
 4499 1f05 4889E5   		movq	%rsp, %rbp
 4500              		.cfi_def_cfa_register 6
 4501 1f08 4883EC10 		subq	$16, %rsp
 4502 1f0c 48897DF8 		movq	%rdi, -8(%rbp)
 4503 1f10 488975F0 		movq	%rsi, -16(%rbp)
 4504              	.LBB101:
 4505              		.loc 6 121 0
 4506 1f14 488B45F8 		movq	-8(%rbp), %rax
 4507 1f18 4889C7   		movq	%rax, %rdi
 4508 1f1b E84CE2FF 		call	_ZN12_GLOBAL__N_117TestRunnerFixtureC2Ev
 4508      FF
 4509 1f20 488B45F8 		movq	-8(%rbp), %rax
 4510 1f24 488B55F0 		movq	-16(%rbp), %rdx
 4511 1f28 48899058 		movq	%rdx, 2136(%rax)
 4511      080000
 4512              	.LBE101:
 4513 1f2f C9       		leave
 4514              		.cfi_def_cfa 7, 8
 4515 1f30 C3       		ret
 4516              		.cfi_endproc
 4517              	.LFE1152:
 4519              		.section	.rodata
 4520              		.align 8
 4521              	.LC33:
 4522 0500 54657374 		.string	"TestsThatAssertAreReportedAsFailing"
 4522      73546861 
 4522      74417373 
 4522      65727441 
 4522      72655265 
 4523              		.text
 4524 1f31 90       		.align 2
 4526              	_ZN12_GLOBAL__N_156TestTestRunnerFixtureTestsThatAssertAreReportedAsFailingC2Ev:
 4527              	.LFB1155:
 4528              		.loc 6 121 0
 4529              		.cfi_startproc
 4530 1f32 55       		pushq	%rbp
 4531              		.cfi_def_cfa_offset 16
 4532              		.cfi_offset 6, -16
 4533 1f33 4889E5   		movq	%rsp, %rbp
 4534              		.cfi_def_cfa_register 6
 4535 1f36 4883EC10 		subq	$16, %rsp
 4536 1f3a 48897DF8 		movq	%rdi, -8(%rbp)
 4537              	.LBB102:
 4538              		.loc 6 121 0
 4539 1f3e E8000000 		call	_ZN13UnitTestSuite12GetSuiteNameEv
 4539      00
 4540 1f43 4889C2   		movq	%rax, %rdx
 4541 1f46 488B45F8 		movq	-8(%rbp), %rax
 4542 1f4a 41B87900 		movl	$121, %r8d
 4542      0000
 4543 1f50 B9000000 		movl	$.LC6, %ecx
 4543      00
 4544 1f55 BE000000 		movl	$.LC33, %esi
 4544      00
 4545 1f5a 4889C7   		movq	%rax, %rdi
 4546 1f5d E8000000 		call	_ZN8UnitTest4TestC2EPKcS2_S2_i
 4546      00
 4547 1f62 488B45F8 		movq	-8(%rbp), %rax
 4548 1f66 48C70000 		movq	$_ZTVN12_GLOBAL__N_156TestTestRunnerFixtureTestsThatAssertAreReportedAsFailingE+16, (%rax)
 4548      000000
 4549              	.LBE102:
 4550 1f6d C9       		leave
 4551              		.cfi_def_cfa 7, 8
 4552 1f6e C3       		ret
 4553              		.cfi_endproc
 4554              	.LFE1155:
 4556              		.local	_ZN12_GLOBAL__N_164testTestRunnerFixtureTestsThatAssertAreReportedAsFailingInstanceE
 4557              		.comm	_ZN12_GLOBAL__N_164testTestRunnerFixtureTestsThatAssertAreReportedAsFailingInstanceE,56,32
 4558              		.local	_ZN12_GLOBAL__N_157adderTestRunnerFixtureTestsThatAssertAreReportedAsFailingE
 4559              		.comm	_ZN12_GLOBAL__N_157adderTestRunnerFixtureTestsThatAssertAreReportedAsFailingE,1,1
 4560 1f6f 90       		.align 2
 4562              	_ZN12_GLOBAL__N_158TestRunnerFixtureTestsThatAssertAreReportedAsFailingHelperD2Ev:
 4563              	.LFB1159:
 4564              		.loc 6 121 0
 4565              		.cfi_startproc
 4566 1f70 55       		pushq	%rbp
 4567              		.cfi_def_cfa_offset 16
 4568              		.cfi_offset 6, -16
 4569 1f71 4889E5   		movq	%rsp, %rbp
 4570              		.cfi_def_cfa_register 6
 4571 1f74 4883EC10 		subq	$16, %rsp
 4572 1f78 48897DF8 		movq	%rdi, -8(%rbp)
 4573              	.LBB103:
 4574              		.loc 6 121 0
 4575 1f7c 488B45F8 		movq	-8(%rbp), %rax
 4576 1f80 4889C7   		movq	%rax, %rdi
 4577 1f83 E832E2FF 		call	_ZN12_GLOBAL__N_117TestRunnerFixtureD2Ev
 4577      FF
 4578              	.LBE103:
 4579 1f88 C9       		leave
 4580              		.cfi_def_cfa 7, 8
 4581 1f89 C3       		ret
 4582              		.cfi_endproc
 4583              	.LFE1159:
 4585              		.align 2
 4587              	_ZNK12_GLOBAL__N_156TestTestRunnerFixtureTestsThatAssertAreReportedAsFailing7RunImplEv:
 4588              	.LFB1157:
 4589              		.loc 6 121 0
 4590              		.cfi_startproc
 4591              		.cfi_personality 0x3,__gxx_personality_v0
 4592              		.cfi_lsda 0x3,.LLSDA1157
 4593 1f8a 55       		pushq	%rbp
 4594              		.cfi_def_cfa_offset 16
 4595              		.cfi_offset 6, -16
 4596 1f8b 4889E5   		movq	%rsp, %rbp
 4597              		.cfi_def_cfa_register 6
 4598 1f8e 4154     		pushq	%r12
 4599 1f90 53       		pushq	%rbx
 4600 1f91 4881ECC0 		subq	$2240, %rsp
 4600      080000
 4601              		.cfi_offset 12, -24
 4602              		.cfi_offset 3, -32
 4603 1f98 4889BD38 		movq	%rdi, -2248(%rbp)
 4603      F7FFFF
 4604              		.loc 6 121 0
 4605 1f9f 64488B04 		movq	%fs:40, %rax
 4605      25280000 
 4605      00
 4606 1fa8 488945E8 		movq	%rax, -24(%rbp)
 4607 1fac 31C0     		xorl	%eax, %eax
 4608              	.LBB104:
 4609 1fae C6854FF7 		movb	$0, -2225(%rbp)
 4609      FFFF00
 4610              	.LBB105:
 4611 1fb5 488B8538 		movq	-2248(%rbp), %rax
 4611      F7FFFF
 4612 1fbc 488D5008 		leaq	8(%rax), %rdx
 4613 1fc0 488D8580 		leaq	-2176(%rbp), %rax
 4613      F7FFFF
 4614 1fc7 4889D6   		movq	%rdx, %rsi
 4615 1fca 4889C7   		movq	%rax, %rdi
 4616              	.LEHB123:
 4617 1fcd E832FFFF 		call	_ZN12_GLOBAL__N_158TestRunnerFixtureTestsThatAssertAreReportedAsFailingHelperC2ERKN8UnitTest1
 4617      FF
 4618              	.LEHE123:
 4619              		.loc 6 121 0 is_stmt 0 discriminator 1
 4620 1fd2 C6854FF7 		movb	$1, -2225(%rbp)
 4620      FFFF01
 4621 1fd9 488B8538 		movq	-2248(%rbp), %rax
 4621      F7FFFF
 4622 1fe0 488D5008 		leaq	8(%rax), %rdx
 4623 1fe4 488D8580 		leaq	-2176(%rbp), %rax
 4623      F7FFFF
 4624 1feb 4889D6   		movq	%rdx, %rsi
 4625 1fee 4889C7   		movq	%rax, %rdi
 4626              	.LEHB124:
 4627 1ff1 E87C5700 		call	_ZN8UnitTest11ExecuteTestIN12_GLOBAL__N_158TestRunnerFixtureTestsThatAssertAreReportedAsFaili
 4627      00
 4628              	.LEHE124:
 4629              		.loc 6 121 0 discriminator 3
 4630 1ff6 488D8580 		leaq	-2176(%rbp), %rax
 4630      F7FFFF
 4631 1ffd 4889C7   		movq	%rax, %rdi
 4632              	.LEHB125:
 4633 2000 E86BFFFF 		call	_ZN12_GLOBAL__N_158TestRunnerFixtureTestsThatAssertAreReportedAsFailingHelperD2Ev
 4633      FF
 4634              	.LEHE125:
 4635              	.LBE105:
 4636              	.LBE104:
 4637              		.loc 6 121 0
 4638 2005 E9640200 		jmp	.L275
 4638      00
 4639              	.L269:
 4640 200a 4989C4   		movq	%rax, %r12
 4641 200d 4889D3   		movq	%rdx, %rbx
 4642              	.LBB113:
 4643              	.LBB106:
 4644 2010 488D8580 		leaq	-2176(%rbp), %rax
 4644      F7FFFF
 4645 2017 4889C7   		movq	%rax, %rdi
 4646 201a E851FFFF 		call	_ZN12_GLOBAL__N_158TestRunnerFixtureTestsThatAssertAreReportedAsFailingHelperD2Ev
 4646      FF
 4647 201f 4C89E0   		movq	%r12, %rax
 4648 2022 4889DA   		movq	%rbx, %rdx
 4649 2025 EB00     		jmp	.L256
 4650              	.L268:
 4651              	.L256:
 4652 2027 4883FA01 		cmpq	$1, %rdx
 4653 202b 745C     		je	.L258
 4654 202d 4883FA02 		cmpq	$2, %rdx
 4655 2031 0F84F400 		je	.L259
 4655      0000
 4656 2037 E9980100 		jmp	.L274
 4656      00
 4657              	.L270:
 4658 203c 4889C3   		movq	%rax, %rbx
 4659              	.LBE106:
 4660              	.LBB107:
 4661 203f E8000000 		call	__cxa_end_catch
 4661      00
 4662 2044 4889D8   		movq	%rbx, %rax
 4663 2047 4889C7   		movq	%rax, %rdi
 4664              	.LEHB126:
 4665 204a E8000000 		call	_Unwind_Resume
 4665      00
 4666              	.LEHE126:
 4667              	.L271:
 4668 204f 4889C3   		movq	%rax, %rbx
 4669              	.LBE107:
 4670              	.LBB108:
 4671              	.LBB109:
 4672 2052 488D8580 		leaq	-2176(%rbp), %rax
 4672      F7FFFF
 4673 2059 4889C7   		movq	%rax, %rdi
 4674 205c E8000000 		call	_ZN8UnitTest15MemoryOutStreamD1Ev
 4674      00
 4675 2061 EB03     		jmp	.L262
 4676              	.L272:
 4677 2063 4889C3   		movq	%rax, %rbx
 4678              	.L262:
 4679              	.LBE109:
 4680 2066 E8000000 		call	__cxa_end_catch
 4680      00
 4681 206b 4889D8   		movq	%rbx, %rax
 4682 206e 4889C7   		movq	%rax, %rdi
 4683              	.LEHB127:
 4684 2071 E8000000 		call	_Unwind_Resume
 4684      00
 4685              	.LEHE127:
 4686              	.L273:
 4687 2076 4889C3   		movq	%rax, %rbx
 4688              	.LBE108:
 4689 2079 E8000000 		call	__cxa_end_catch
 4689      00
 4690 207e 4889D8   		movq	%rbx, %rax
 4691 2081 4889C7   		movq	%rax, %rdi
 4692              	.LEHB128:
 4693 2084 E8000000 		call	_Unwind_Resume
 4693      00
 4694              	.LEHE128:
 4695              	.L258:
 4696              	.LBB111:
 4697 2089 4889C7   		movq	%rax, %rdi
 4698 208c E8000000 		call	__cxa_begin_catch
 4698      00
 4699 2091 48898550 		movq	%rax, -2224(%rbp)
 4699      F7FFFF
 4700 2098 488B8550 		movq	-2224(%rbp), %rax
 4700      F7FFFF
 4701 209f 488B00   		movq	(%rax), %rax
 4702 20a2 4883C010 		addq	$16, %rax
 4703 20a6 488B00   		movq	(%rax), %rax
 4704 20a9 488B9550 		movq	-2224(%rbp), %rdx
 4704      F7FFFF
 4705 20b0 4889D7   		movq	%rdx, %rdi
 4706 20b3 FFD0     		call	*%rax
 4707 20b5 4889C3   		movq	%rax, %rbx
 4708 20b8 488B8550 		movq	-2224(%rbp), %rax
 4708      F7FFFF
 4709 20bf 4889C7   		movq	%rax, %rdi
 4710              	.LEHB129:
 4711 20c2 E8000000 		call	_ZNK8UnitTest15AssertException10LineNumberEv
 4711      00
 4712 20c7 4189C4   		movl	%eax, %r12d
 4713 20ca 488B8550 		movq	-2224(%rbp), %rax
 4713      F7FFFF
 4714 20d1 4889C7   		movq	%rax, %rdi
 4715 20d4 E8000000 		call	_ZNK8UnitTest15AssertException8FilenameEv
 4715      00
 4716              		.loc 6 121 0 discriminator 5
 4717 20d9 4889C1   		movq	%rax, %rcx
 4718 20dc 488B8538 		movq	-2248(%rbp), %rax
 4718      F7FFFF
 4719 20e3 488B5008 		movq	8(%rax), %rdx
 4720 20e7 488B8538 		movq	-2248(%rbp), %rax
 4720      F7FFFF
 4721 20ee 488B7010 		movq	16(%rax), %rsi
 4722 20f2 488D8560 		leaq	-2208(%rbp), %rax
 4722      F7FFFF
 4723 20f9 4589E0   		movl	%r12d, %r8d
 4724 20fc 4889C7   		movq	%rax, %rdi
 4725 20ff E8000000 		call	_ZN8UnitTest11TestDetailsC1EPKcS2_S2_i
 4725      00
 4726              		.loc 6 121 0 discriminator 9
 4727 2104 E8000000 		call	_ZN8UnitTest11CurrentTest7ResultsEv
 4727      00
 4728 2109 488B00   		movq	(%rax), %rax
 4729 210c 488D8D60 		leaq	-2208(%rbp), %rcx
 4729      F7FFFF
 4730 2113 4889DA   		movq	%rbx, %rdx
 4731 2116 4889CE   		movq	%rcx, %rsi
 4732 2119 4889C7   		movq	%rax, %rdi
 4733 211c E8000000 		call	_ZN8UnitTest11TestResults13OnTestFailureERKNS_11TestDetailsEPKc
 4733      00
 4734              	.LEHE129:
 4735              		.loc 6 121 0 discriminator 13
 4736 2121 E8000000 		call	__cxa_end_catch
 4736      00
 4737              	.LBE111:
 4738              	.LBE113:
 4739 2126 E9430100 		jmp	.L275
 4739      00
 4740              	.L259:
 4741              	.LBB114:
 4742              	.LBB112:
 4743              		.loc 6 121 0
 4744 212b 4889C7   		movq	%rax, %rdi
 4745 212e E8000000 		call	__cxa_begin_catch
 4745      00
 4746 2133 48898558 		movq	%rax, -2216(%rbp)
 4746      F7FFFF
 4747              	.LBB110:
 4748 213a 488D8580 		leaq	-2176(%rbp), %rax
 4748      F7FFFF
 4749 2141 4889C7   		movq	%rax, %rdi
 4750              	.LEHB130:
 4751 2144 E8000000 		call	_ZN8UnitTest15MemoryOutStreamC1Ev
 4751      00
 4752              	.LEHE130:
 4753              		.loc 6 121 0 discriminator 15
 4754 2149 488B8558 		movq	-2216(%rbp), %rax
 4754      F7FFFF
 4755 2150 488B00   		movq	(%rax), %rax
 4756 2153 4883C010 		addq	$16, %rax
 4757 2157 488B00   		movq	(%rax), %rax
 4758 215a 488B9558 		movq	-2216(%rbp), %rdx
 4758      F7FFFF
 4759 2161 4889D7   		movq	%rdx, %rdi
 4760 2164 FFD0     		call	*%rax
 4761 2166 4889C3   		movq	%rax, %rbx
 4762 2169 488D8580 		leaq	-2176(%rbp), %rax
 4762      F7FFFF
 4763 2170 BE000000 		movl	$.LC8, %esi
 4763      00
 4764 2175 4889C7   		movq	%rax, %rdi
 4765              	.LEHB131:
 4766 2178 E8000000 		call	_ZStlsISt11char_traitsIcEERSt13basic_ostreamIcT_ES5_PKc
 4766      00
 4767 217d 4889DE   		movq	%rbx, %rsi
 4768 2180 4889C7   		movq	%rax, %rdi
 4769 2183 E8000000 		call	_ZStlsISt11char_traitsIcEERSt13basic_ostreamIcT_ES5_PKc
 4769      00
 4770              		.loc 6 121 0 discriminator 19
 4771 2188 488D8580 		leaq	-2176(%rbp), %rax
 4771      F7FFFF
 4772 218f 4889C7   		movq	%rax, %rdi
 4773 2192 E8000000 		call	_ZNK8UnitTest15MemoryOutStream7GetTextEv
 4773      00
 4774 2197 4989C4   		movq	%rax, %r12
 4775 219a 488B8538 		movq	-2248(%rbp), %rax
 4775      F7FFFF
 4776 21a1 488D5808 		leaq	8(%rax), %rbx
 4777 21a5 E8000000 		call	_ZN8UnitTest11CurrentTest7ResultsEv
 4777      00
 4778              		.loc 6 121 0 discriminator 21
 4779 21aa 488B00   		movq	(%rax), %rax
 4780 21ad 4C89E2   		movq	%r12, %rdx
 4781 21b0 4889DE   		movq	%rbx, %rsi
 4782 21b3 4889C7   		movq	%rax, %rdi
 4783 21b6 E8000000 		call	_ZN8UnitTest11TestResults13OnTestFailureERKNS_11TestDetailsEPKc
 4783      00
 4784              	.LEHE131:
 4785              		.loc 6 121 0 discriminator 25
 4786 21bb 488D8580 		leaq	-2176(%rbp), %rax
 4786      F7FFFF
 4787 21c2 4889C7   		movq	%rax, %rdi
 4788              	.LEHB132:
 4789 21c5 E8000000 		call	_ZN8UnitTest15MemoryOutStreamD1Ev
 4789      00
 4790              	.LEHE132:
 4791              	.LBE110:
 4792              		.loc 6 121 0 discriminator 26
 4793 21ca E8000000 		call	__cxa_end_catch
 4793      00
 4794              	.LBE112:
 4795              	.LBE114:
 4796 21cf E99A0000 		jmp	.L275
 4796      00
 4797              	.L274:
 4798              	.LBB115:
 4799              		.loc 6 121 0
 4800 21d4 4889C7   		movq	%rax, %rdi
 4801 21d7 E8000000 		call	__cxa_begin_catch
 4801      00
 4802 21dc 80BD4FF7 		cmpb	$0, -2225(%rbp)
 4802      FFFF00
 4803 21e3 7443     		je	.L265
 4804              		.loc 6 121 0 discriminator 28
 4805 21e5 488B8538 		movq	-2248(%rbp), %rax
 4805      F7FFFF
 4806 21ec 488D4808 		leaq	8(%rax), %rcx
 4807 21f0 488D8560 		leaq	-2208(%rbp), %rax
 4807      F7FFFF
 4808 21f7 BA790000 		movl	$121, %edx
 4808      00
 4809 21fc 4889CE   		movq	%rcx, %rsi
 4810 21ff 4889C7   		movq	%rax, %rdi
 4811              	.LEHB133:
 4812 2202 E8000000 		call	_ZN8UnitTest11TestDetailsC1ERKS0_i
 4812      00
 4813              		.loc 6 121 0 discriminator 31
 4814 2207 E8000000 		call	_ZN8UnitTest11CurrentTest7ResultsEv
 4814      00
 4815 220c 488B00   		movq	(%rax), %rax
 4816 220f 488D8D60 		leaq	-2208(%rbp), %rcx
 4816      F7FFFF
 4817 2216 BA000000 		movl	$.LC9, %edx
 4817      00
 4818 221b 4889CE   		movq	%rcx, %rsi
 4819 221e 4889C7   		movq	%rax, %rdi
 4820 2221 E8000000 		call	_ZN8UnitTest11TestResults13OnTestFailureERKNS_11TestDetailsEPKc
 4820      00
 4821 2226 EB41     		jmp	.L266
 4822              	.L265:
 4823              		.loc 6 121 0 discriminator 29
 4824 2228 488B8538 		movq	-2248(%rbp), %rax
 4824      F7FFFF
 4825 222f 488D4808 		leaq	8(%rax), %rcx
 4826 2233 488D8560 		leaq	-2208(%rbp), %rax
 4826      F7FFFF
 4827 223a BA790000 		movl	$121, %edx
 4827      00
 4828 223f 4889CE   		movq	%rcx, %rsi
 4829 2242 4889C7   		movq	%rax, %rdi
 4830 2245 E8000000 		call	_ZN8UnitTest11TestDetailsC1ERKS0_i
 4830      00
 4831              		.loc 6 121 0 discriminator 38
 4832 224a E8000000 		call	_ZN8UnitTest11CurrentTest7ResultsEv
 4832      00
 4833 224f 488B00   		movq	(%rax), %rax
 4834 2252 488D8D60 		leaq	-2208(%rbp), %rcx
 4834      F7FFFF
 4835 2259 BA000000 		movl	$.LC10, %edx
 4835      00
 4836 225e 4889CE   		movq	%rcx, %rsi
 4837 2261 4889C7   		movq	%rax, %rdi
 4838 2264 E8000000 		call	_ZN8UnitTest11TestResults13OnTestFailureERKNS_11TestDetailsEPKc
 4838      00
 4839              	.LEHE133:
 4840              	.L266:
 4841              	.LEHB134:
 4842              		.loc 6 121 0 discriminator 43
 4843 2269 E8000000 		call	__cxa_end_catch
 4843      00
 4844              	.LEHE134:
 4845              	.L275:
 4846              	.LBE115:
 4847              		.loc 6 121 0
 4848 226e 90       		nop
 4849 226f 488B45E8 		movq	-24(%rbp), %rax
 4850 2273 64483304 		xorq	%fs:40, %rax
 4850      25280000 
 4850      00
 4851 227c 7405     		je	.L267
 4852 227e E8000000 		call	__stack_chk_fail
 4852      00
 4853              	.L267:
 4854 2283 4881C4C0 		addq	$2240, %rsp
 4854      080000
 4855 228a 5B       		popq	%rbx
 4856 228b 415C     		popq	%r12
 4857 228d 5D       		popq	%rbp
 4858              		.cfi_def_cfa 7, 8
 4859 228e C3       		ret
 4860              		.cfi_endproc
 4861              	.LFE1157:
 4862              		.section	.gcc_except_table
 4863              		.align 4
 4864              	.LLSDA1157:
 4865 034c FF       		.byte	0xff
 4866 034d 03       		.byte	0x3
 4867 034e 59       		.uleb128 .LLSDATT1157-.LLSDATTD1157
 4868              	.LLSDATTD1157:
 4869 034f 01       		.byte	0x1
 4870 0350 41       		.uleb128 .LLSDACSE1157-.LLSDACSB1157
 4871              	.LLSDACSB1157:
 4872 0351 43       		.uleb128 .LEHB123-.LFB1157
 4873 0352 05       		.uleb128 .LEHE123-.LEHB123
 4874 0353 9D01     		.uleb128 .L268-.LFB1157
 4875 0355 05       		.uleb128 0x5
 4876 0356 67       		.uleb128 .LEHB124-.LFB1157
 4877 0357 05       		.uleb128 .LEHE124-.LEHB124
 4878 0358 8001     		.uleb128 .L269-.LFB1157
 4879 035a 07       		.uleb128 0x7
 4880 035b 76       		.uleb128 .LEHB125-.LFB1157
 4881 035c 05       		.uleb128 .LEHE125-.LEHB125
 4882 035d 9D01     		.uleb128 .L268-.LFB1157
 4883 035f 05       		.uleb128 0x5
 4884 0360 C001     		.uleb128 .LEHB126-.LFB1157
 4885 0362 05       		.uleb128 .LEHE126-.LEHB126
 4886 0363 00       		.uleb128 0
 4887 0364 00       		.uleb128 0
 4888 0365 E701     		.uleb128 .LEHB127-.LFB1157
 4889 0367 05       		.uleb128 .LEHE127-.LEHB127
 4890 0368 00       		.uleb128 0
 4891 0369 00       		.uleb128 0
 4892 036a FA01     		.uleb128 .LEHB128-.LFB1157
 4893 036c 05       		.uleb128 .LEHE128-.LEHB128
 4894 036d 00       		.uleb128 0
 4895 036e 00       		.uleb128 0
 4896 036f B802     		.uleb128 .LEHB129-.LFB1157
 4897 0371 5F       		.uleb128 .LEHE129-.LEHB129
 4898 0372 B201     		.uleb128 .L270-.LFB1157
 4899 0374 00       		.uleb128 0
 4900 0375 BA03     		.uleb128 .LEHB130-.LFB1157
 4901 0377 05       		.uleb128 .LEHE130-.LEHB130
 4902 0378 D901     		.uleb128 .L272-.LFB1157
 4903 037a 00       		.uleb128 0
 4904 037b EE03     		.uleb128 .LEHB131-.LFB1157
 4905 037d 43       		.uleb128 .LEHE131-.LEHB131
 4906 037e C501     		.uleb128 .L271-.LFB1157
 4907 0380 00       		.uleb128 0
 4908 0381 BB04     		.uleb128 .LEHB132-.LFB1157
 4909 0383 05       		.uleb128 .LEHE132-.LEHB132
 4910 0384 D901     		.uleb128 .L272-.LFB1157
 4911 0386 00       		.uleb128 0
 4912 0387 F804     		.uleb128 .LEHB133-.LFB1157
 4913 0389 67       		.uleb128 .LEHE133-.LEHB133
 4914 038a EC01     		.uleb128 .L273-.LFB1157
 4915 038c 00       		.uleb128 0
 4916 038d DF05     		.uleb128 .LEHB134-.LFB1157
 4917 038f 05       		.uleb128 .LEHE134-.LEHB134
 4918 0390 00       		.uleb128 0
 4919 0391 00       		.uleb128 0
 4920              	.LLSDACSE1157:
 4921 0392 03       		.byte	0x3
 4922 0393 00       		.byte	0
 4923 0394 02       		.byte	0x2
 4924 0395 7D       		.byte	0x7d
 4925 0396 01       		.byte	0x1
 4926 0397 7D       		.byte	0x7d
 4927 0398 00       		.byte	0
 4928 0399 7D       		.byte	0x7d
 4929 039a 0000     		.align 4
 4930 039c 00000000 		.long	0
 4931              	
 4932 03a0 00000000 		.long	_ZTISt9exception
 4933 03a4 00000000 		.long	_ZTIN8UnitTest15AssertExceptionE
 4934              	.LLSDATT1157:
 4935              		.text
 4937              		.section	.rodata
 4938 0524 00000000 		.align 8
 4939              	.LC34:
 4940 0528 556E6861 		.string	"Unhandled exception in CHECK_EQUAL(1, reporter.testFailedCount)"
 4940      6E646C65 
 4940      64206578 
 4940      63657074 
 4940      696F6E20 
 4941              		.text
 4942 228f 90       		.align 2
 4944              	_ZN12_GLOBAL__N_158TestRunnerFixtureTestsThatAssertAreReportedAsFailingHelper7RunImplEv:
 4945              	.LFB1161:
 122:TestTestRunner.cpp **** {
 4946              		.loc 6 122 0 is_stmt 1
 4947              		.cfi_startproc
 4948              		.cfi_personality 0x3,__gxx_personality_v0
 4949              		.cfi_lsda 0x3,.LLSDA1161
 4950 2290 55       		pushq	%rbp
 4951              		.cfi_def_cfa_offset 16
 4952              		.cfi_offset 6, -16
 4953 2291 4889E5   		movq	%rsp, %rbp
 4954              		.cfi_def_cfa_register 6
 4955 2294 53       		pushq	%rbx
 4956 2295 4881EC88 		subq	$136, %rsp
 4956      000000
 4957              		.cfi_offset 3, -24
 4958 229c 4889BD78 		movq	%rdi, -136(%rbp)
 4958      FFFFFF
 4959              		.loc 6 122 0
 4960 22a3 64488B04 		movq	%fs:40, %rax
 4960      25280000 
 4960      00
 4961 22ac 488945E8 		movq	%rax, -24(%rbp)
 4962 22b0 31C0     		xorl	%eax, %eax
 4963              	.LBB116:
 123:TestTestRunner.cpp ****     MockTest test("test", true, true);
 4964              		.loc 6 123 0
 4965 22b2 488D45B0 		leaq	-80(%rbp), %rax
 4966 22b6 41B80100 		movl	$1, %r8d
 4966      0000
 4967 22bc B9010000 		movl	$1, %ecx
 4967      00
 4968 22c1 BA010000 		movl	$1, %edx
 4968      00
 4969 22c6 BE000000 		movl	$.LC30, %esi
 4969      00
 4970 22cb 4889C7   		movq	%rax, %rdi
 4971              	.LEHB135:
 4972 22ce E82DDDFF 		call	_ZN12_GLOBAL__N_18MockTestC2EPKcbbi
 4972      FF
 4973              	.LEHE135:
 124:TestTestRunner.cpp ****     list.Add(&test);
 4974              		.loc 6 124 0
 4975 22d3 488B8578 		movq	-136(%rbp), %rax
 4975      FFFFFF
 4976 22da 488D9048 		leaq	2120(%rax), %rdx
 4976      080000
 4977 22e1 488D45B0 		leaq	-80(%rbp), %rax
 4978 22e5 4889C6   		movq	%rax, %rsi
 4979 22e8 4889D7   		movq	%rdx, %rdi
 4980              	.LEHB136:
 4981 22eb E8000000 		call	_ZN8UnitTest8TestList3AddEPNS_4TestE
 4981      00
 125:TestTestRunner.cpp **** 
 126:TestTestRunner.cpp **** 	RunTestsIf(list, NULL, True(), 0);
 4982              		.loc 6 126 0
 4983 22f0 488B8578 		movq	-136(%rbp), %rax
 4983      FFFFFF
 4984 22f7 488DB048 		leaq	2120(%rax), %rsi
 4984      080000
 4985 22fe 488B8578 		movq	-136(%rbp), %rax
 4985      FFFFFF
 4986 2305 488D5590 		leaq	-112(%rbp), %rdx
 4987 2309 41B80000 		movl	$0, %r8d
 4987      0000
 4988 230f 4889D1   		movq	%rdx, %rcx
 4989 2312 BA000000 		movl	$0, %edx
 4989      00
 4990 2317 4889C7   		movq	%rax, %rdi
 4991 231a E8E34800 		call	_ZN12_GLOBAL__N_111FixtureBase10RunTestsIfIN8UnitTest4TrueEEEiRKNS2_8TestListEPKcRKT_i
 4991      00
 4992              	.LEHE136:
 4993              	.LEHB137:
 127:TestTestRunner.cpp ****     CHECK_EQUAL(1, reporter.testFailedCount);
 4994              		.loc 6 127 0 discriminator 2
 4995 231f E8000000 		call	_ZN8UnitTest11CurrentTest7DetailsEv
 4995      00
 4996 2324 488B08   		movq	(%rax), %rcx
 4997 2327 488D4590 		leaq	-112(%rbp), %rax
 4998 232b BA7F0000 		movl	$127, %edx
 4998      00
 4999 2330 4889CE   		movq	%rcx, %rsi
 5000 2333 4889C7   		movq	%rax, %rdi
 5001 2336 E8000000 		call	_ZN8UnitTest11TestDetailsC1ERKS0_i
 5001      00
 5002 233b 488B8578 		movq	-136(%rbp), %rax
 5002      FFFFFF
 5003 2342 488D9824 		leaq	548(%rax), %rbx
 5003      020000
 5004 2349 C7458C01 		movl	$1, -116(%rbp)
 5004      000000
 5005 2350 E8000000 		call	_ZN8UnitTest11CurrentTest7ResultsEv
 5005      00
 5006 2355 488B00   		movq	(%rax), %rax
 5007 2358 488D5590 		leaq	-112(%rbp), %rdx
 5008 235c 488D758C 		leaq	-116(%rbp), %rsi
 5009 2360 4889D1   		movq	%rdx, %rcx
 5010 2363 4889DA   		movq	%rbx, %rdx
 5011 2366 4889C7   		movq	%rax, %rdi
 5012 2369 E8000000 		call	_ZN8UnitTest10CheckEqualIiiEEvRNS_11TestResultsERKT_RKT0_RKNS_11TestDetailsE
 5012      00
 5013              	.LEHE137:
 5014              	.L280:
 5015              		.loc 6 127 0 is_stmt 0 discriminator 7
 5016 236e 488D45B0 		leaq	-80(%rbp), %rax
 5017 2372 4889C7   		movq	%rax, %rdi
 5018              	.LEHB138:
 5019 2375 E8847D00 		call	_ZN12_GLOBAL__N_18MockTestD2Ev
 5019      00
 5020              	.LEHE138:
 5021              	.LBE116:
 128:TestTestRunner.cpp **** }
 5022              		.loc 6 128 0 is_stmt 1 discriminator 7
 5023 237a 488B45E8 		movq	-24(%rbp), %rax
 5024 237e 64483304 		xorq	%fs:40, %rax
 5024      25280000 
 5024      00
 5025 2387 7472     		je	.L281
 5026 2389 EB6B     		jmp	.L285
 5027              	.L284:
 5028 238b 4889C3   		movq	%rax, %rbx
 5029              	.LBB117:
 127:TestTestRunner.cpp ****     CHECK_EQUAL(1, reporter.testFailedCount);
 5030              		.loc 6 127 0
 5031 238e E8000000 		call	__cxa_end_catch
 5031      00
 5032 2393 EB4A     		jmp	.L278
 5033              	.L283:
 5034 2395 4889C7   		movq	%rax, %rdi
 5035 2398 E8000000 		call	__cxa_begin_catch
 5035      00
 5036              	.LEHB139:
 5037 239d E8000000 		call	_ZN8UnitTest11CurrentTest7DetailsEv
 5037      00
 5038 23a2 488B08   		movq	(%rax), %rcx
 5039 23a5 488D4590 		leaq	-112(%rbp), %rax
 5040 23a9 BA7F0000 		movl	$127, %edx
 5040      00
 5041 23ae 4889CE   		movq	%rcx, %rsi
 5042 23b1 4889C7   		movq	%rax, %rdi
 5043 23b4 E8000000 		call	_ZN8UnitTest11TestDetailsC1ERKS0_i
 5043      00
 127:TestTestRunner.cpp ****     CHECK_EQUAL(1, reporter.testFailedCount);
 5044              		.loc 6 127 0 is_stmt 0 discriminator 11
 5045 23b9 E8000000 		call	_ZN8UnitTest11CurrentTest7ResultsEv
 5045      00
 5046 23be 488B00   		movq	(%rax), %rax
 5047 23c1 488D4D90 		leaq	-112(%rbp), %rcx
 5048 23c5 BA000000 		movl	$.LC34, %edx
 5048      00
 5049 23ca 4889CE   		movq	%rcx, %rsi
 5050 23cd 4889C7   		movq	%rax, %rdi
 5051 23d0 E8000000 		call	_ZN8UnitTest11TestResults13OnTestFailureERKNS_11TestDetailsEPKc
 5051      00
 5052              	.LEHE139:
 5053              	.LEHB140:
 127:TestTestRunner.cpp ****     CHECK_EQUAL(1, reporter.testFailedCount);
 5054              		.loc 6 127 0 discriminator 15
 5055 23d5 E8000000 		call	__cxa_end_catch
 5055      00
 5056              	.LEHE140:
 127:TestTestRunner.cpp ****     CHECK_EQUAL(1, reporter.testFailedCount);
 5057              		.loc 6 127 0
 5058 23da EB92     		jmp	.L280
 5059              	.L282:
 5060 23dc 4889C3   		movq	%rax, %rbx
 5061              	.L278:
 127:TestTestRunner.cpp ****     CHECK_EQUAL(1, reporter.testFailedCount);
 5062              		.loc 6 127 0 discriminator 16
 5063 23df 488D45B0 		leaq	-80(%rbp), %rax
 5064 23e3 4889C7   		movq	%rax, %rdi
 5065 23e6 E8137D00 		call	_ZN12_GLOBAL__N_18MockTestD2Ev
 5065      00
 5066 23eb 4889D8   		movq	%rbx, %rax
 5067 23ee 4889C7   		movq	%rax, %rdi
 5068              	.LEHB141:
 5069 23f1 E8000000 		call	_Unwind_Resume
 5069      00
 5070              	.LEHE141:
 5071              	.L285:
 5072              	.LBE117:
 5073              		.loc 6 128 0 is_stmt 1
 5074 23f6 E8000000 		call	__stack_chk_fail
 5074      00
 5075              	.L281:
 5076 23fb 4881C488 		addq	$136, %rsp
 5076      000000
 5077 2402 5B       		popq	%rbx
 5078 2403 5D       		popq	%rbp
 5079              		.cfi_def_cfa 7, 8
 5080 2404 C3       		ret
 5081              		.cfi_endproc
 5082              	.LFE1161:
 5083              		.section	.gcc_except_table
 5084              		.align 4
 5085              	.LLSDA1161:
 5086 03a8 FF       		.byte	0xff
 5087 03a9 03       		.byte	0x3
 5088 03aa 2D       		.uleb128 .LLSDATT1161-.LLSDATTD1161
 5089              	.LLSDATTD1161:
 5090 03ab 01       		.byte	0x1
 5091 03ac 25       		.uleb128 .LLSDACSE1161-.LLSDACSB1161
 5092              	.LLSDACSB1161:
 5093 03ad 3E       		.uleb128 .LEHB135-.LFB1161
 5094 03ae 05       		.uleb128 .LEHE135-.LEHB135
 5095 03af 00       		.uleb128 0
 5096 03b0 00       		.uleb128 0
 5097 03b1 5B       		.uleb128 .LEHB136-.LFB1161
 5098 03b2 34       		.uleb128 .LEHE136-.LEHB136
 5099 03b3 CC02     		.uleb128 .L282-.LFB1161
 5100 03b5 00       		.uleb128 0
 5101 03b6 8F01     		.uleb128 .LEHB137-.LFB1161
 5102 03b8 4F       		.uleb128 .LEHE137-.LEHB137
 5103 03b9 8502     		.uleb128 .L283-.LFB1161
 5104 03bb 01       		.uleb128 0x1
 5105 03bc E501     		.uleb128 .LEHB138-.LFB1161
 5106 03be 05       		.uleb128 .LEHE138-.LEHB138
 5107 03bf 00       		.uleb128 0
 5108 03c0 00       		.uleb128 0
 5109 03c1 8D02     		.uleb128 .LEHB139-.LFB1161
 5110 03c3 38       		.uleb128 .LEHE139-.LEHB139
 5111 03c4 FB01     		.uleb128 .L284-.LFB1161
 5112 03c6 00       		.uleb128 0
 5113 03c7 C502     		.uleb128 .LEHB140-.LFB1161
 5114 03c9 05       		.uleb128 .LEHE140-.LEHB140
 5115 03ca CC02     		.uleb128 .L282-.LFB1161
 5116 03cc 00       		.uleb128 0
 5117 03cd E102     		.uleb128 .LEHB141-.LFB1161
 5118 03cf 05       		.uleb128 .LEHE141-.LEHB141
 5119 03d0 00       		.uleb128 0
 5120 03d1 00       		.uleb128 0
 5121              	.LLSDACSE1161:
 5122 03d2 01       		.byte	0x1
 5123 03d3 00       		.byte	0
 5124              		.align 4
 5125 03d4 00000000 		.long	0
 5126              	
 5127              	.LLSDATT1161:
 5128              		.text
 5130 2405 90       		.align 2
 5132              	_ZN12_GLOBAL__N_150TestRunnerFixtureReporterNotifiedOfTestCountHelperC2ERKN8UnitTest11TestDetailsE:
 5133              	.LFB1163:
 129:TestTestRunner.cpp **** 
 130:TestTestRunner.cpp **** 
 131:TestTestRunner.cpp **** TEST_FIXTURE(TestRunnerFixture, ReporterNotifiedOfTestCount)
 5134              		.loc 6 131 0
 5135              		.cfi_startproc
 5136 2406 55       		pushq	%rbp
 5137              		.cfi_def_cfa_offset 16
 5138              		.cfi_offset 6, -16
 5139 2407 4889E5   		movq	%rsp, %rbp
 5140              		.cfi_def_cfa_register 6
 5141 240a 4883EC10 		subq	$16, %rsp
 5142 240e 48897DF8 		movq	%rdi, -8(%rbp)
 5143 2412 488975F0 		movq	%rsi, -16(%rbp)
 5144              	.LBB118:
 5145              		.loc 6 131 0
 5146 2416 488B45F8 		movq	-8(%rbp), %rax
 5147 241a 4889C7   		movq	%rax, %rdi
 5148 241d E84ADDFF 		call	_ZN12_GLOBAL__N_117TestRunnerFixtureC2Ev
 5148      FF
 5149 2422 488B45F8 		movq	-8(%rbp), %rax
 5150 2426 488B55F0 		movq	-16(%rbp), %rdx
 5151 242a 48899058 		movq	%rdx, 2136(%rax)
 5151      080000
 5152              	.LBE118:
 5153 2431 C9       		leave
 5154              		.cfi_def_cfa 7, 8
 5155 2432 C3       		ret
 5156              		.cfi_endproc
 5157              	.LFE1163:
 5159              		.section	.rodata
 5160              	.LC35:
 5161 0568 5265706F 		.string	"ReporterNotifiedOfTestCount"
 5161      72746572 
 5161      4E6F7469 
 5161      66696564 
 5161      4F665465 
 5162              		.text
 5163 2433 90       		.align 2
 5165              	_ZN12_GLOBAL__N_148TestTestRunnerFixtureReporterNotifiedOfTestCountC2Ev:
 5166              	.LFB1166:
 5167              		.loc 6 131 0
 5168              		.cfi_startproc
 5169 2434 55       		pushq	%rbp
 5170              		.cfi_def_cfa_offset 16
 5171              		.cfi_offset 6, -16
 5172 2435 4889E5   		movq	%rsp, %rbp
 5173              		.cfi_def_cfa_register 6
 5174 2438 4883EC10 		subq	$16, %rsp
 5175 243c 48897DF8 		movq	%rdi, -8(%rbp)
 5176              	.LBB119:
 5177              		.loc 6 131 0
 5178 2440 E8000000 		call	_ZN13UnitTestSuite12GetSuiteNameEv
 5178      00
 5179 2445 4889C2   		movq	%rax, %rdx
 5180 2448 488B45F8 		movq	-8(%rbp), %rax
 5181 244c 41B88300 		movl	$131, %r8d
 5181      0000
 5182 2452 B9000000 		movl	$.LC6, %ecx
 5182      00
 5183 2457 BE000000 		movl	$.LC35, %esi
 5183      00
 5184 245c 4889C7   		movq	%rax, %rdi
 5185 245f E8000000 		call	_ZN8UnitTest4TestC2EPKcS2_S2_i
 5185      00
 5186 2464 488B45F8 		movq	-8(%rbp), %rax
 5187 2468 48C70000 		movq	$_ZTVN12_GLOBAL__N_148TestTestRunnerFixtureReporterNotifiedOfTestCountE+16, (%rax)
 5187      000000
 5188              	.LBE119:
 5189 246f C9       		leave
 5190              		.cfi_def_cfa 7, 8
 5191 2470 C3       		ret
 5192              		.cfi_endproc
 5193              	.LFE1166:
 5195              		.local	_ZN12_GLOBAL__N_156testTestRunnerFixtureReporterNotifiedOfTestCountInstanceE
 5196              		.comm	_ZN12_GLOBAL__N_156testTestRunnerFixtureReporterNotifiedOfTestCountInstanceE,56,32
 5197              		.local	_ZN12_GLOBAL__N_149adderTestRunnerFixtureReporterNotifiedOfTestCountE
 5198              		.comm	_ZN12_GLOBAL__N_149adderTestRunnerFixtureReporterNotifiedOfTestCountE,1,1
 5199 2471 90       		.align 2
 5201              	_ZN12_GLOBAL__N_150TestRunnerFixtureReporterNotifiedOfTestCountHelperD2Ev:
 5202              	.LFB1170:
 5203              		.loc 6 131 0
 5204              		.cfi_startproc
 5205 2472 55       		pushq	%rbp
 5206              		.cfi_def_cfa_offset 16
 5207              		.cfi_offset 6, -16
 5208 2473 4889E5   		movq	%rsp, %rbp
 5209              		.cfi_def_cfa_register 6
 5210 2476 4883EC10 		subq	$16, %rsp
 5211 247a 48897DF8 		movq	%rdi, -8(%rbp)
 5212              	.LBB120:
 5213              		.loc 6 131 0
 5214 247e 488B45F8 		movq	-8(%rbp), %rax
 5215 2482 4889C7   		movq	%rax, %rdi
 5216 2485 E830DDFF 		call	_ZN12_GLOBAL__N_117TestRunnerFixtureD2Ev
 5216      FF
 5217              	.LBE120:
 5218 248a C9       		leave
 5219              		.cfi_def_cfa 7, 8
 5220 248b C3       		ret
 5221              		.cfi_endproc
 5222              	.LFE1170:
 5224              		.align 2
 5226              	_ZNK12_GLOBAL__N_148TestTestRunnerFixtureReporterNotifiedOfTestCount7RunImplEv:
 5227              	.LFB1168:
 5228              		.loc 6 131 0
 5229              		.cfi_startproc
 5230              		.cfi_personality 0x3,__gxx_personality_v0
 5231              		.cfi_lsda 0x3,.LLSDA1168
 5232 248c 55       		pushq	%rbp
 5233              		.cfi_def_cfa_offset 16
 5234              		.cfi_offset 6, -16
 5235 248d 4889E5   		movq	%rsp, %rbp
 5236              		.cfi_def_cfa_register 6
 5237 2490 4154     		pushq	%r12
 5238 2492 53       		pushq	%rbx
 5239 2493 4881ECC0 		subq	$2240, %rsp
 5239      080000
 5240              		.cfi_offset 12, -24
 5241              		.cfi_offset 3, -32
 5242 249a 4889BD38 		movq	%rdi, -2248(%rbp)
 5242      F7FFFF
 5243              		.loc 6 131 0
 5244 24a1 64488B04 		movq	%fs:40, %rax
 5244      25280000 
 5244      00
 5245 24aa 488945E8 		movq	%rax, -24(%rbp)
 5246 24ae 31C0     		xorl	%eax, %eax
 5247              	.LBB121:
 5248 24b0 C6854FF7 		movb	$0, -2225(%rbp)
 5248      FFFF00
 5249              	.LBB122:
 5250 24b7 488B8538 		movq	-2248(%rbp), %rax
 5250      F7FFFF
 5251 24be 488D5008 		leaq	8(%rax), %rdx
 5252 24c2 488D8580 		leaq	-2176(%rbp), %rax
 5252      F7FFFF
 5253 24c9 4889D6   		movq	%rdx, %rsi
 5254 24cc 4889C7   		movq	%rax, %rdi
 5255              	.LEHB142:
 5256 24cf E832FFFF 		call	_ZN12_GLOBAL__N_150TestRunnerFixtureReporterNotifiedOfTestCountHelperC2ERKN8UnitTest11TestDet
 5256      FF
 5257              	.LEHE142:
 5258              		.loc 6 131 0 is_stmt 0 discriminator 1
 5259 24d4 C6854FF7 		movb	$1, -2225(%rbp)
 5259      FFFF01
 5260 24db 488B8538 		movq	-2248(%rbp), %rax
 5260      F7FFFF
 5261 24e2 488D5008 		leaq	8(%rax), %rdx
 5262 24e6 488D8580 		leaq	-2176(%rbp), %rax
 5262      F7FFFF
 5263 24ed 4889D6   		movq	%rdx, %rsi
 5264 24f0 4889C7   		movq	%rax, %rdi
 5265              	.LEHB143:
 5266 24f3 E8385500 		call	_ZN8UnitTest11ExecuteTestIN12_GLOBAL__N_150TestRunnerFixtureReporterNotifiedOfTestCountHelper
 5266      00
 5267              	.LEHE143:
 5268              		.loc 6 131 0 discriminator 3
 5269 24f8 488D8580 		leaq	-2176(%rbp), %rax
 5269      F7FFFF
 5270 24ff 4889C7   		movq	%rax, %rdi
 5271              	.LEHB144:
 5272 2502 E86BFFFF 		call	_ZN12_GLOBAL__N_150TestRunnerFixtureReporterNotifiedOfTestCountHelperD2Ev
 5272      FF
 5273              	.LEHE144:
 5274              	.LBE122:
 5275              	.LBE121:
 5276              		.loc 6 131 0
 5277 2507 E9640200 		jmp	.L311
 5277      00
 5278              	.L305:
 5279 250c 4989C4   		movq	%rax, %r12
 5280 250f 4889D3   		movq	%rdx, %rbx
 5281              	.LBB130:
 5282              	.LBB123:
 5283 2512 488D8580 		leaq	-2176(%rbp), %rax
 5283      F7FFFF
 5284 2519 4889C7   		movq	%rax, %rdi
 5285 251c E851FFFF 		call	_ZN12_GLOBAL__N_150TestRunnerFixtureReporterNotifiedOfTestCountHelperD2Ev
 5285      FF
 5286 2521 4C89E0   		movq	%r12, %rax
 5287 2524 4889DA   		movq	%rbx, %rdx
 5288 2527 EB00     		jmp	.L292
 5289              	.L304:
 5290              	.L292:
 5291 2529 4883FA01 		cmpq	$1, %rdx
 5292 252d 745C     		je	.L294
 5293 252f 4883FA02 		cmpq	$2, %rdx
