   1              		.file	"binio.c"
   2              		.text
   3              		.section	.rodata.str1.1,"aMS",@progbits,1
   4              	.LC0:
   5 0000 726200   		.string	"rb"
   6              		.section	.rodata.str1.8,"aMS",@progbits,1
   7              		.align 8
   8              	.LC1:
   9 0000 556E6578 		.string	"Unexpectedly hit EOF after reading %lu bytes!\n"
   9      70656374 
   9      65646C79 
   9      20686974 
   9      20454F46 
  10              		.text
  11              		.p2align 4
  12              		.globl	bufAppendFromBinaryFile
  14              	bufAppendFromBinaryFile:
  15              	.LFB17:
  16              		.cfi_startproc
  17 0000 F30F1EFA 		endbr64
  18 0004 4157     		pushq	%r15
  19              		.cfi_def_cfa_offset 16
  20              		.cfi_offset 15, -16
  21 0006 4156     		pushq	%r14
  22              		.cfi_def_cfa_offset 24
  23              		.cfi_offset 14, -24
  24 0008 4989D6   		movq	%rdx, %r14
  25 000b 4155     		pushq	%r13
  26              		.cfi_def_cfa_offset 32
  27              		.cfi_offset 13, -32
  28 000d 4154     		pushq	%r12
  29              		.cfi_def_cfa_offset 40
  30              		.cfi_offset 12, -40
  31 000f 55       		pushq	%rbp
  32              		.cfi_def_cfa_offset 48
  33              		.cfi_offset 6, -48
  34 0010 4889FD   		movq	%rdi, %rbp
  35 0013 4889F7   		movq	%rsi, %rdi
  36 0016 488D3500 		leaq	.LC0(%rip), %rsi
  36      000000
  37 001d 53       		pushq	%rbx
  38              		.cfi_def_cfa_offset 56
  39              		.cfi_offset 3, -56
  40 001e 4883EC08 		subq	$8, %rsp
  41              		.cfi_def_cfa_offset 64
  42 0022 448B7D08 		movl	8(%rbp), %r15d
  43 0026 E8000000 		call	fopen@PLT
  43      00
  44 002b 4885C0   		testq	%rax, %rax
  45 002e 0F84DC00 		je	.L14
  45      0000
  46 0034 31F6     		xorl	%esi, %esi
  47 0036 BA020000 		movl	$2, %edx
  47      00
  48 003b 4889C7   		movq	%rax, %rdi
  49 003e 4889C3   		movq	%rax, %rbx
  50 0041 E8000000 		call	fseek@PLT
  50      00
  51 0046 85C0     		testl	%eax, %eax
  52 0048 0F858200 		jne	.L15
  52      0000
  53 004e 4889DF   		movq	%rbx, %rdi
  54 0051 E8000000 		call	ftell@PLT
  54      00
  55 0056 4889EF   		movq	%rbp, %rdi
  56 0059 4C89F1   		movq	%r14, %rcx
  57 005c 31F6     		xorl	%esi, %esi
  58 005e 89C2     		movl	%eax, %edx
  59 0060 4989C5   		movq	%rax, %r13
  60 0063 E8000000 		call	bufAppendConst@PLT
  60      00
  61 0068 4889DF   		movq	%rbx, %rdi
  62 006b 4189C4   		movl	%eax, %r12d
  63 006e 85C0     		testl	%eax, %eax
  64 0070 7547     		jne	.L12
  65 0072 E8000000 		call	rewind@PLT
  65      00
  66 0077 4489FF   		movl	%r15d, %edi
  67 007a 4889D9   		movq	%rbx, %rcx
  68 007d 48037D00 		addq	0(%rbp), %rdi
  69 0081 4C89EA   		movq	%r13, %rdx
  70 0084 BE010000 		movl	$1, %esi
  70      00
  71 0089 E8000000 		call	fread@PLT
  71      00
  72 008e 4889C5   		movq	%rax, %rbp
  73 0091 4939C5   		cmpq	%rax, %r13
  74 0094 7420     		je	.L6
  75 0096 4889DF   		movq	%rbx, %rdi
  76 0099 E8000000 		call	fclose@PLT
  76      00
  77 009e 4889DF   		movq	%rbx, %rdi
  78 00a1 E8000000 		call	feof@PLT
  78      00
  79 00a6 85C0     		testl	%eax, %eax
  80 00a8 7536     		jne	.L16
  81 00aa 4889DF   		movq	%rbx, %rdi
  82 00ad E8000000 		call	ferror@PLT
  82      00
  83 00b2 85C0     		testl	%eax, %eax
  84 00b4 754A     		jne	.L17
  85              	.L6:
  86 00b6 4889DF   		movq	%rbx, %rdi
  87              	.L12:
  88 00b9 E8000000 		call	fclose@PLT
  88      00
  89              	.L1:
  90 00be 4883C408 		addq	$8, %rsp
  91              		.cfi_remember_state
  92              		.cfi_def_cfa_offset 56
  93 00c2 4489E0   		movl	%r12d, %eax
  94 00c5 5B       		popq	%rbx
  95              		.cfi_def_cfa_offset 48
  96 00c6 5D       		popq	%rbp
  97              		.cfi_def_cfa_offset 40
  98 00c7 415C     		popq	%r12
  99              		.cfi_def_cfa_offset 32
 100 00c9 415D     		popq	%r13
 101              		.cfi_def_cfa_offset 24
 102 00cb 415E     		popq	%r14
 103              		.cfi_def_cfa_offset 16
 104 00cd 415F     		popq	%r15
 105              		.cfi_def_cfa_offset 8
 106 00cf C3       		ret
 107              		.p2align 4,,10
 108              		.p2align 3
 109              	.L15:
 110              		.cfi_restore_state
 111 00d0 4C89F7   		movq	%r14, %rdi
 112 00d3 41BC0300 		movl	$3, %r12d
 112      0000
 113 00d9 E8000000 		call	errRenderStd@PLT
 113      00
 114 00de EBDE     		jmp	.L1
 115              		.p2align 4,,10
 116              		.p2align 3
 117              	.L16:
 118 00e0 4889EA   		movq	%rbp, %rdx
 119 00e3 488D3500 		leaq	.LC1(%rip), %rsi
 119      000000
 120 00ea 4C89F7   		movq	%r14, %rdi
 121 00ed 31C0     		xorl	%eax, %eax
 122 00ef E8000000 		call	errRender@PLT
 122      00
 123 00f4 41BC0400 		movl	$4, %r12d
 123      0000
 124 00fa EBC2     		jmp	.L1
 125 00fc 0F1F4000 		.p2align 4,,10
 126              		.p2align 3
 127              	.L17:
 128 0100 4C89F7   		movq	%r14, %rdi
 129 0103 41BC0500 		movl	$5, %r12d
 129      0000
 130 0109 E8000000 		call	errRenderStd@PLT
 130      00
 131 010e EBAE     		jmp	.L1
 132              	.L14:
 133 0110 4C89F7   		movq	%r14, %rdi
 134 0113 41BC0200 		movl	$2, %r12d
 134      0000
 135 0119 E8000000 		call	errRenderStd@PLT
 135      00
 136 011e EB9E     		jmp	.L1
 137              		.cfi_endproc
 138              	.LFE17:
 140              		.section	.rodata.str1.1
 141              	.LC2:
 142 0003 776200   		.string	"wb"
 143              		.text
 144              		.p2align 4
 145              		.globl	bufWriteBinaryFile
 147              	bufWriteBinaryFile:
 148              	.LFB18:
 149              		.cfi_startproc
 150 0120 F30F1EFA 		endbr64
 151 0124 4156     		pushq	%r14
 152              		.cfi_def_cfa_offset 16
 153              		.cfi_offset 14, -16
 154 0126 4989FE   		movq	%rdi, %r14
 155 0129 4889F7   		movq	%rsi, %rdi
 156 012c 488D3500 		leaq	.LC2(%rip), %rsi
 156      000000
 157 0133 4155     		pushq	%r13
 158              		.cfi_def_cfa_offset 24
 159              		.cfi_offset 13, -24
 160 0135 4D89C5   		movq	%r8, %r13
 161 0138 4154     		pushq	%r12
 162              		.cfi_def_cfa_offset 32
 163              		.cfi_offset 12, -32
 164 013a 4189CC   		movl	%ecx, %r12d
 165 013d 55       		pushq	%rbp
 166              		.cfi_def_cfa_offset 40
 167              		.cfi_offset 6, -40
 168 013e 53       		pushq	%rbx
 169              		.cfi_def_cfa_offset 48
 170              		.cfi_offset 3, -48
 171 013f 89D3     		movl	%edx, %ebx
 172 0141 E8000000 		call	fopen@PLT
 172      00
 173 0146 4885C0   		testq	%rax, %rax
 174 0149 7450     		je	.L23
 175 014b 4489E2   		movl	%r12d, %edx
 176 014e 89DF     		movl	%ebx, %edi
 177 0150 4889C1   		movq	%rax, %rcx
 178 0153 49033E   		addq	(%r14), %rdi
 179 0156 BE010000 		movl	$1, %esi
 179      00
 180 015b 4889C5   		movq	%rax, %rbp
 181 015e E8000000 		call	fwrite@PLT
 181      00
 182 0163 4889EF   		movq	%rbp, %rdi
 183 0166 4139C4   		cmpl	%eax, %r12d
 184 0169 7515     		jne	.L24
 185 016b E8000000 		call	fclose@PLT
 185      00
 186 0170 31C0     		xorl	%eax, %eax
 187              	.L18:
 188 0172 5B       		popq	%rbx
 189              		.cfi_remember_state
 190              		.cfi_def_cfa_offset 40
 191 0173 5D       		popq	%rbp
 192              		.cfi_def_cfa_offset 32
 193 0174 415C     		popq	%r12
 194              		.cfi_def_cfa_offset 24
 195 0176 415D     		popq	%r13
 196              		.cfi_def_cfa_offset 16
 197 0178 415E     		popq	%r14
 198              		.cfi_def_cfa_offset 8
 199 017a C3       		ret
 200 017b 0F1F4400 		.p2align 4,,10
 200      00
 201              		.p2align 3
 202              	.L24:
 203              		.cfi_restore_state
 204 0180 E8000000 		call	fclose@PLT
 204      00
 205 0185 4C89EF   		movq	%r13, %rdi
 206 0188 E8000000 		call	errRenderStd@PLT
 206      00
 207 018d 5B       		popq	%rbx
 208              		.cfi_remember_state
 209              		.cfi_def_cfa_offset 40
 210 018e B8050000 		movl	$5, %eax
 210      00
 211 0193 5D       		popq	%rbp
 212              		.cfi_def_cfa_offset 32
 213 0194 415C     		popq	%r12
 214              		.cfi_def_cfa_offset 24
 215 0196 415D     		popq	%r13
 216              		.cfi_def_cfa_offset 16
 217 0198 415E     		popq	%r14
 218              		.cfi_def_cfa_offset 8
 219 019a C3       		ret
 220              	.L23:
 221              		.cfi_restore_state
 222 019b 4C89EF   		movq	%r13, %rdi
 223 019e E8000000 		call	errRenderStd@PLT
 223      00
 224 01a3 B8020000 		movl	$2, %eax
 224      00
 225 01a8 EBC8     		jmp	.L18
 226              		.cfi_endproc
 227              	.LFE18:
 229              		.ident	"GCC: (Ubuntu 12.2.0-17ubuntu1) 12.2.0"
 230              		.section	.note.GNU-stack,"",@progbits
 231              		.section	.note.gnu.property,"a"
 232              		.align 8
 233 0000 04000000 		.long	1f - 0f
 234 0004 10000000 		.long	4f - 1f
 235 0008 05000000 		.long	5
 236              	0:
 237 000c 474E5500 		.string	"GNU"
 238              	1:
 239              		.align 8
 240 0010 020000C0 		.long	0xc0000002
 241 0014 04000000 		.long	3f - 2f
 242              	2:
 243 0018 03000000 		.long	0x3
 244              	3:
 245 001c 00000000 		.align 8
 246              	4: