   1              		.file	"core.c"
   2              		.text
   3              		.section	.rodata.str1.8,"aMS",@progbits,1
   4              		.align 8
   5              	.LC0:
   6 0000 43616E6E 		.string	"Cannot allocate memory for buffer"
   6      6F742061 
   6      6C6C6F63 
   6      61746520 
   6      6D656D6F 
   7              		.text
   8              		.p2align 4
   9              		.globl	bufInitialise
  11              	bufInitialise:
  12              	.LFB34:
  13              		.cfi_startproc
  14 0000 F30F1EFA 		endbr64
  15 0004 4156     		pushq	%r14
  16              		.cfi_def_cfa_offset 16
  17              		.cfi_offset 14, -16
  18 0006 4189F6   		movl	%esi, %r14d
  19 0009 4155     		pushq	%r13
  20              		.cfi_def_cfa_offset 24
  21              		.cfi_offset 13, -24
  22 000b 4989CD   		movq	%rcx, %r13
  23 000e 4154     		pushq	%r12
  24              		.cfi_def_cfa_offset 32
  25              		.cfi_offset 12, -32
  26 0010 55       		pushq	%rbp
  27              		.cfi_def_cfa_offset 40
  28              		.cfi_offset 6, -40
  29 0011 89D5     		movl	%edx, %ebp
  30 0013 53       		pushq	%rbx
  31              		.cfi_def_cfa_offset 48
  32              		.cfi_offset 3, -48
  33 0014 4889FB   		movq	%rdi, %rbx
  34 0017 885710   		movb	%dl, 16(%rdi)
  35 001a 4C89F7   		movq	%r14, %rdi
  36 001d E8000000 		call	malloc@PLT
  36      00
  37 0022 488903   		movq	%rax, (%rbx)
  38 0025 4885C0   		testq	%rax, %rax
  39 0028 7431     		je	.L7
  40 002a 4889C7   		movq	%rax, %rdi
  41 002d 4A8D0430 		leaq	(%rax,%r14), %rax
  42 0031 4D89F4   		movq	%r14, %r12
  43 0034 4839C7   		cmpq	%rax, %rdi
  44 0037 730C     		jnb	.L4
  45 0039 400FB6F5 		movzbl	%bpl, %esi
  46 003d 4C89F2   		movq	%r14, %rdx
  47 0040 E8000000 		call	memset@PLT
  47      00
  48              	.L4:
  49 0045 4489630C 		movl	%r12d, 12(%rbx)
  50 0049 31C0     		xorl	%eax, %eax
  51 004b C7430800 		movl	$0, 8(%rbx)
  51      000000
  52              	.L1:
  53 0052 5B       		popq	%rbx
  54              		.cfi_remember_state
  55              		.cfi_def_cfa_offset 40
  56 0053 5D       		popq	%rbp
  57              		.cfi_def_cfa_offset 32
  58 0054 415C     		popq	%r12
  59              		.cfi_def_cfa_offset 24
  60 0056 415D     		popq	%r13
  61              		.cfi_def_cfa_offset 16
  62 0058 415E     		popq	%r14
  63              		.cfi_def_cfa_offset 8
  64 005a C3       		ret
  65              	.L7:
  66              		.cfi_restore_state
  67 005b 31C0     		xorl	%eax, %eax
  68 005d 488D3500 		leaq	.LC0(%rip), %rsi
  68      000000
  69 0064 4C89EF   		movq	%r13, %rdi
  70 0067 E8000000 		call	errRender@PLT
  70      00
  71 006c B8010000 		movl	$1, %eax
  71      00
  72 0071 EBDF     		jmp	.L1
  73              		.cfi_endproc
  74              	.LFE34:
  76 0073 66662E0F 		.p2align 4
  76      1F840000 
  76      00000066 
  76      90
  77              		.globl	bufDestroy
  79              	bufDestroy:
  80              	.LFB35:
  81              		.cfi_startproc
  82 0080 F30F1EFA 		endbr64
  83 0084 53       		pushq	%rbx
  84              		.cfi_def_cfa_offset 16
  85              		.cfi_offset 3, -16
  86 0085 4889FB   		movq	%rdi, %rbx
  87 0088 488B3F   		movq	(%rdi), %rdi
  88 008b E8000000 		call	free@PLT
  88      00
  89 0090 48C70300 		movq	$0, (%rbx)
  89      000000
  90 0097 48C74308 		movq	$0, 8(%rbx)
  90      00000000 
  91 009f C6431000 		movb	$0, 16(%rbx)
  92 00a3 5B       		popq	%rbx
  93              		.cfi_def_cfa_offset 8
  94 00a4 C3       		ret
  95              		.cfi_endproc
  96              	.LFE35:
  98 00a5 66662E0F 		.p2align 4
  98      1F840000 
  98      000000
  99              		.globl	bufDeepCopy
 101              	bufDeepCopy:
 102              	.LFB36:
 103              		.cfi_startproc
 104 00b0 F30F1EFA 		endbr64
 105 00b4 4154     		pushq	%r12
 106              		.cfi_def_cfa_offset 16
 107              		.cfi_offset 12, -16
 108 00b6 4989D4   		movq	%rdx, %r12
 109 00b9 55       		pushq	%rbp
 110              		.cfi_def_cfa_offset 24
 111              		.cfi_offset 6, -24
 112 00ba 4889F5   		movq	%rsi, %rbp
 113 00bd 53       		pushq	%rbx
 114              		.cfi_def_cfa_offset 32
 115              		.cfi_offset 3, -32
 116 00be 4889FB   		movq	%rdi, %rbx
 117 00c1 488B3F   		movq	(%rdi), %rdi
 118 00c4 8B460C   		movl	12(%rsi), %eax
 119 00c7 4885FF   		testq	%rdi, %rdi
 120 00ca 0F848800 		je	.L14
 120      0000
 121 00d0 39430C   		cmpl	%eax, 12(%rbx)
 122 00d3 726B     		jb	.L44
 123              	.L13:
 124 00d5 8B5508   		movl	8(%rbp), %edx
 125 00d8 895308   		movl	%edx, 8(%rbx)
 126 00db 0FB64510 		movzbl	16(%rbp), %eax
 127 00df 884310   		movb	%al, 16(%rbx)
 128 00e2 488B7500 		movq	0(%rbp), %rsi
 129 00e6 E8000000 		call	memcpy@PLT
 129      00
 130 00eb 488B13   		movq	(%rbx), %rdx
 131 00ee 8B7308   		movl	8(%rbx), %esi
 132 00f1 8B4B0C   		movl	12(%rbx), %ecx
 133 00f4 488D3C32 		leaq	(%rdx,%rsi), %rdi
 134 00f8 4801CA   		addq	%rcx, %rdx
 135 00fb 4889F8   		movq	%rdi, %rax
 136 00fe 4839D7   		cmpq	%rdx, %rdi
 137 0101 7335     		jnb	.L22
 138 0103 4829F1   		subq	%rsi, %rcx
 139 0106 488D71FF 		leaq	-1(%rcx), %rsi
 140 010a 4989C9   		movq	%rcx, %r9
 141 010d 4883FE06 		cmpq	$6, %rsi
 142 0111 7615     		jbe	.L26
 143 0113 4C8D4310 		leaq	16(%rbx), %r8
 144 0117 4939D0   		cmpq	%rdx, %r8
 145 011a 7374     		jnb	.L29
 146 011c 4C8D4311 		leaq	17(%rbx), %r8
 147 0120 4939F8   		cmpq	%rdi, %r8
 148 0123 766B     		jbe	.L29
 149              		.p2align 4,,10
 150 0125 0F1F00   		.p2align 3
 151              	.L26:
 152 0128 0FB64B10 		movzbl	16(%rbx), %ecx
 153 012c 4883C001 		addq	$1, %rax
 154 0130 8848FF   		movb	%cl, -1(%rax)
 155 0133 4839C2   		cmpq	%rax, %rdx
 156 0136 75F0     		jne	.L26
 157              	.L22:
 158 0138 31C0     		xorl	%eax, %eax
 159              	.L10:
 160 013a 5B       		popq	%rbx
 161              		.cfi_remember_state
 162              		.cfi_def_cfa_offset 24
 163 013b 5D       		popq	%rbp
 164              		.cfi_def_cfa_offset 16
 165 013c 415C     		popq	%r12
 166              		.cfi_def_cfa_offset 8
 167 013e C3       		ret
 168 013f 90       		.p2align 4,,10
 169              		.p2align 3
 170              	.L44:
 171              		.cfi_restore_state
 172 0140 4889DF   		movq	%rbx, %rdi
 173 0143 E8000000 		call	bufDestroy@PLT
 173      00
 174 0148 488B3B   		movq	(%rbx), %rdi
 175 014b 4885FF   		testq	%rdi, %rdi
 176 014e 7585     		jne	.L13
 177 0150 8B450C   		movl	12(%rbp), %eax
 178              		.p2align 4,,10
 179 0153 0F1F4400 		.p2align 3
 179      00
 180              	.L14:
 181 0158 89430C   		movl	%eax, 12(%rbx)
 182 015b 89C7     		movl	%eax, %edi
 183 015d E8000000 		call	malloc@PLT
 183      00
 184 0162 488903   		movq	%rax, (%rbx)
 185 0165 4889C7   		movq	%rax, %rdi
 186 0168 4885C0   		testq	%rax, %rax
 187 016b 0F8564FF 		jne	.L13
 187      FFFF
 188 0171 31C0     		xorl	%eax, %eax
 189 0173 488D3500 		leaq	.LC0(%rip), %rsi
 189      000000
 190 017a 4C89E7   		movq	%r12, %rdi
 191 017d E8000000 		call	errRender@PLT
 191      00
 192 0182 B8010000 		movl	$1, %eax
 192      00
 193 0187 EBB1     		jmp	.L10
 194 0189 0F1F8000 		.p2align 4,,10
 194      000000
 195              		.p2align 3
 196              	.L29:
 197 0190 4883FE0E 		cmpq	$14, %rsi
 198 0194 0F86FB00 		jbe	.L28
 198      0000
 199 019a 0FB67310 		movzbl	16(%rbx), %esi
 200 019e 4C89C9   		movq	%r9, %rcx
 201 01a1 4889F8   		movq	%rdi, %rax
 202 01a4 4883E1F0 		andq	$-16, %rcx
 203 01a8 660F6EC6 		movd	%esi, %xmm0
 204 01ac 4889CE   		movq	%rcx, %rsi
 205 01af 660F60C0 		punpcklbw	%xmm0, %xmm0
 206 01b3 4801FE   		addq	%rdi, %rsi
 207 01b6 660F61C0 		punpcklwd	%xmm0, %xmm0
 208 01ba 660F70C0 		pshufd	$0, %xmm0, %xmm0
 208      00
 209 01bf 90       		.p2align 4,,10
 210              		.p2align 3
 211              	.L20:
 212 01c0 0F1100   		movups	%xmm0, (%rax)
 213 01c3 4883C010 		addq	$16, %rax
 214 01c7 4839C6   		cmpq	%rax, %rsi
 215 01ca 75F4     		jne	.L20
 216 01cc 4C89C9   		movq	%r9, %rcx
 217 01cf 4883E1F0 		andq	$-16, %rcx
 218 01d3 4989C8   		movq	%rcx, %r8
 219 01d6 488D040F 		leaq	(%rdi,%rcx), %rax
 220 01da 41F6C10F 		testb	$15, %r9b
 221 01de 0F8454FF 		je	.L22
 221      FFFF
 222 01e4 4929C9   		subq	%rcx, %r9
 223 01e7 498D71FF 		leaq	-1(%r9), %rsi
 224 01eb 4883FE06 		cmpq	$6, %rsi
 225 01ef 762D     		jbe	.L24
 226              	.L19:
 227 01f1 0FB67310 		movzbl	16(%rbx), %esi
 228 01f5 89F1     		movl	%esi, %ecx
 229 01f7 88CD     		movb	%cl, %ch
 230 01f9 89CE     		movl	%ecx, %esi
 231 01fb 4C89C9   		movq	%r9, %rcx
 232 01fe 4883E1F8 		andq	$-8, %rcx
 233 0202 660F6ECE 		movd	%esi, %xmm1
 234 0206 F20F70C1 		pshuflw	$0, %xmm1, %xmm0
 234      00
 235 020b 4801C8   		addq	%rcx, %rax
 236 020e 4183E107 		andl	$7, %r9d
 237 0212 66420FD6 		movq	%xmm0, (%rdi,%r8)
 237      0407
 238 0218 0F841AFF 		je	.L22
 238      FFFF
 239              	.L24:
 240 021e 0FB64B10 		movzbl	16(%rbx), %ecx
 241 0222 488D7001 		leaq	1(%rax), %rsi
 242 0226 8808     		movb	%cl, (%rax)
 243 0228 4839D6   		cmpq	%rdx, %rsi
 244 022b 0F8307FF 		jnb	.L22
 244      FFFF
 245 0231 884801   		movb	%cl, 1(%rax)
 246 0234 488D4802 		leaq	2(%rax), %rcx
 247 0238 4839D1   		cmpq	%rdx, %rcx
 248 023b 0F83F7FE 		jnb	.L22
 248      FFFF
 249 0241 0FB64B10 		movzbl	16(%rbx), %ecx
 250 0245 488D7003 		leaq	3(%rax), %rsi
 251 0249 884802   		movb	%cl, 2(%rax)
 252 024c 4839D6   		cmpq	%rdx, %rsi
 253 024f 0F83E3FE 		jnb	.L22
 253      FFFF
 254 0255 884803   		movb	%cl, 3(%rax)
 255 0258 488D4804 		leaq	4(%rax), %rcx
 256 025c 4839D1   		cmpq	%rdx, %rcx
 257 025f 0F83D3FE 		jnb	.L22
 257      FFFF
 258 0265 0FB64B10 		movzbl	16(%rbx), %ecx
 259 0269 488D7005 		leaq	5(%rax), %rsi
 260 026d 884804   		movb	%cl, 4(%rax)
 261 0270 4839D6   		cmpq	%rdx, %rsi
 262 0273 0F83BFFE 		jnb	.L22
 262      FFFF
 263 0279 884805   		movb	%cl, 5(%rax)
 264 027c 488D4806 		leaq	6(%rax), %rcx
 265 0280 4839D1   		cmpq	%rdx, %rcx
 266 0283 0F83AFFE 		jnb	.L22
 266      FFFF
 267 0289 0FB65310 		movzbl	16(%rbx), %edx
 268 028d 885006   		movb	%dl, 6(%rax)
 269 0290 E9A3FEFF 		jmp	.L22
 269      FF
 270              	.L28:
 271 0295 4531C0   		xorl	%r8d, %r8d
 272 0298 E954FFFF 		jmp	.L19
 272      FF
 273              		.cfi_endproc
 274              	.LFE36:
 276 029d 0F1F00   		.p2align 4
 277              		.globl	bufSwap
 279              	bufSwap:
 280              	.LFB37:
 281              		.cfi_startproc
 282 02a0 F30F1EFA 		endbr64
 283 02a4 4C8B06   		movq	(%rsi), %r8
 284 02a7 488B0F   		movq	(%rdi), %rcx
 285 02aa 488B5708 		movq	8(%rdi), %rdx
 286 02ae 0FB64710 		movzbl	16(%rdi), %eax
 287 02b2 4C8907   		movq	%r8, (%rdi)
 288 02b5 4C8B4608 		movq	8(%rsi), %r8
 289 02b9 4C894708 		movq	%r8, 8(%rdi)
 290 02bd 440FB646 		movzbl	16(%rsi), %r8d
 290      10
 291 02c2 44884710 		movb	%r8b, 16(%rdi)
 292 02c6 48890E   		movq	%rcx, (%rsi)
 293 02c9 48895608 		movq	%rdx, 8(%rsi)
 294 02cd 884610   		movb	%al, 16(%rsi)
 295 02d0 C3       		ret
 296              		.cfi_endproc
 297              	.LFE37:
 299 02d1 66662E0F 		.p2align 4
 299      1F840000 
 299      0000000F 
 299      1F4000
 300              		.globl	bufZeroLength
 302              	bufZeroLength:
 303              	.LFB38:
 304              		.cfi_startproc
 305 02e0 F30F1EFA 		endbr64
 306 02e4 8B470C   		movl	12(%rdi), %eax
 307 02e7 C7470800 		movl	$0, 8(%rdi)
 307      000000
 308 02ee 85C0     		testl	%eax, %eax
 309 02f0 741B     		je	.L46
 310 02f2 31C0     		xorl	%eax, %eax
 311              		.p2align 4,,10
 312 02f4 0F1F4000 		.p2align 3
 313              	.L48:
 314 02f8 0FB67710 		movzbl	16(%rdi), %esi
 315 02fc 488B0F   		movq	(%rdi), %rcx
 316 02ff 89C2     		movl	%eax, %edx
 317 0301 83C001   		addl	$1, %eax
 318 0304 40883411 		movb	%sil, (%rcx,%rdx)
 319 0308 3B470C   		cmpl	12(%rdi), %eax
 320 030b 72EB     		jb	.L48
 321              	.L46:
 322 030d C3       		ret
 323              		.cfi_endproc
 324              	.LFE38:
 326              		.section	.rodata.str1.8
 327 0022 00000000 		.align 8
 327      0000
 328              	.LC1:
 329 0028 43616E6E 		.string	"Cannot reallocate memory for buffer"
 329      6F742072 
 329      65616C6C 
 329      6F636174 
 329      65206D65 
 330              		.text
 331 030e 6690     		.p2align 4
 332              		.globl	bufAppendByte
 334              	bufAppendByte:
 335              	.LFB40:
 336              		.cfi_startproc
 337 0310 F30F1EFA 		endbr64
 338 0314 4157     		pushq	%r15
 339              		.cfi_def_cfa_offset 16
 340              		.cfi_offset 15, -16
 341 0316 4156     		pushq	%r14
 342              		.cfi_def_cfa_offset 24
 343              		.cfi_offset 14, -24
 344 0318 4155     		pushq	%r13
 345              		.cfi_def_cfa_offset 32
 346              		.cfi_offset 13, -32
 347 031a 4189F5   		movl	%esi, %r13d
 348 031d 4154     		pushq	%r12
 349              		.cfi_def_cfa_offset 40
 350              		.cfi_offset 12, -40
 351 031f 55       		pushq	%rbp
 352              		.cfi_def_cfa_offset 48
 353              		.cfi_offset 6, -48
 354 0320 53       		pushq	%rbx
 355              		.cfi_def_cfa_offset 56
 356              		.cfi_offset 3, -56
 357 0321 4889FB   		movq	%rdi, %rbx
 358 0324 4883EC08 		subq	$8, %rsp
 359              		.cfi_def_cfa_offset 64
 360 0328 8B4F08   		movl	8(%rdi), %ecx
 361 032b 8B6F0C   		movl	12(%rdi), %ebp
 362 032e 488B3F   		movq	(%rdi), %rdi
 363 0331 448D6101 		leal	1(%rcx), %r12d
 364 0335 4439E5   		cmpl	%r12d, %ebp
 365 0338 721E     		jb	.L81
 366              	.L51:
 367 033a 44882C0F 		movb	%r13b, (%rdi,%rcx)
 368 033e 31C0     		xorl	%eax, %eax
 369 0340 83430801 		addl	$1, 8(%rbx)
 370              	.L50:
 371 0344 4883C408 		addq	$8, %rsp
 372              		.cfi_remember_state
 373              		.cfi_def_cfa_offset 56
 374 0348 5B       		popq	%rbx
 375              		.cfi_def_cfa_offset 48
 376 0349 5D       		popq	%rbp
 377              		.cfi_def_cfa_offset 40
 378 034a 415C     		popq	%r12
 379              		.cfi_def_cfa_offset 32
 380 034c 415D     		popq	%r13
 381              		.cfi_def_cfa_offset 24
 382 034e 415E     		popq	%r14
 383              		.cfi_def_cfa_offset 16
 384 0350 415F     		popq	%r15
 385              		.cfi_def_cfa_offset 8
 386 0352 C3       		ret
 387              		.p2align 4,,10
 388 0353 0F1F4400 		.p2align 3
 388      00
 389              	.L81:
 390              		.cfi_restore_state
 391 0358 4989D6   		movq	%rdx, %r14
 392 035b 0F1F4400 		.p2align 4,,10
 392      00
 393              		.p2align 3
 394              	.L52:
 395 0360 01ED     		addl	%ebp, %ebp
 396 0362 4439E5   		cmpl	%r12d, %ebp
 397 0365 72F9     		jb	.L52
 398 0367 4189EF   		movl	%ebp, %r15d
 399 036a 4C89FE   		movq	%r15, %rsi
 400 036d E8000000 		call	realloc@PLT
 400      00
 401 0372 488903   		movq	%rax, (%rbx)
 402 0375 4889C7   		movq	%rax, %rdi
 403 0378 4885C0   		testq	%rax, %rax
 404 037b 0F845C01 		je	.L82
 404      0000
 405 0381 4589E4   		movl	%r12d, %r12d
 406 0384 4A8D3438 		leaq	(%rax,%r15), %rsi
 407 0388 896B0C   		movl	%ebp, 12(%rbx)
 408 038b 4E8D0420 		leaq	(%rax,%r12), %r8
 409 038f 4C89C2   		movq	%r8, %rdx
 410 0392 4939F0   		cmpq	%rsi, %r8
 411 0395 733C     		jnb	.L80
 412 0397 4C89F8   		movq	%r15, %rax
 413 039a 4C29E0   		subq	%r12, %rax
 414 039d 488D48FF 		leaq	-1(%rax), %rcx
 415 03a1 4883F906 		cmpq	$6, %rcx
 416 03a5 7619     		jbe	.L63
 417 03a7 488D7B10 		leaq	16(%rbx), %rdi
 418 03ab 4839F7   		cmpq	%rsi, %rdi
 419 03ae 7330     		jnb	.L66
 420 03b0 488D7B11 		leaq	17(%rbx), %rdi
 421 03b4 4C39C7   		cmpq	%r8, %rdi
 422 03b7 7627     		jbe	.L66
 423 03b9 0F1F8000 		.p2align 4,,10
 423      000000
 424              		.p2align 3
 425              	.L63:
 426 03c0 0FB64310 		movzbl	16(%rbx), %eax
 427 03c4 4883C201 		addq	$1, %rdx
 428 03c8 8842FF   		movb	%al, -1(%rdx)
 429 03cb 4839D6   		cmpq	%rdx, %rsi
 430 03ce 75F0     		jne	.L63
 431              	.L64:
 432 03d0 488B3B   		movq	(%rbx), %rdi
 433              	.L80:
 434 03d3 8B4B08   		movl	8(%rbx), %ecx
 435 03d6 E95FFFFF 		jmp	.L51
 435      FF
 436 03db 0F1F4400 		.p2align 4,,10
 436      00
 437              		.p2align 3
 438              	.L66:
 439 03e0 4883F90E 		cmpq	$14, %rcx
 440 03e4 0F86EC00 		jbe	.L65
 440      0000
 441 03ea 0FB64B10 		movzbl	16(%rbx), %ecx
 442 03ee 4C89C2   		movq	%r8, %rdx
 443 03f1 660F6EC1 		movd	%ecx, %xmm0
 444 03f5 4889C1   		movq	%rax, %rcx
 445 03f8 660F60C0 		punpcklbw	%xmm0, %xmm0
 446 03fc 4883E1F0 		andq	$-16, %rcx
 447 0400 660F61C0 		punpcklwd	%xmm0, %xmm0
 448 0404 4C01C1   		addq	%r8, %rcx
 449 0407 660F70C0 		pshufd	$0, %xmm0, %xmm0
 449      00
 450 040c 0F1F4000 		.p2align 4,,10
 451              		.p2align 3
 452              	.L59:
 453 0410 0F1102   		movups	%xmm0, (%rdx)
 454 0413 4883C210 		addq	$16, %rdx
 455 0417 4839D1   		cmpq	%rdx, %rcx
 456 041a 75F4     		jne	.L59
 457 041c 4889C7   		movq	%rax, %rdi
 458 041f 4883E7F0 		andq	$-16, %rdi
 459 0423 498D1438 		leaq	(%r8,%rdi), %rdx
 460 0427 A80F     		testb	$15, %al
 461 0429 74A5     		je	.L64
 462 042b 4829F8   		subq	%rdi, %rax
 463 042e 488D48FF 		leaq	-1(%rax), %rcx
 464 0432 4883F906 		cmpq	$6, %rcx
 465 0436 7627     		jbe	.L61
 466              	.L58:
 467 0438 0FB64B10 		movzbl	16(%rbx), %ecx
 468 043c 88CD     		movb	%cl, %ch
 469 043e 660F6EC9 		movd	%ecx, %xmm1
 470 0442 4889C1   		movq	%rax, %rcx
 471 0445 F20F70C1 		pshuflw	$0, %xmm1, %xmm0
 471      00
 472 044a 4883E1F8 		andq	$-8, %rcx
 473 044e 66410FD6 		movq	%xmm0, (%r8,%rdi)
 473      0438
 474 0454 4801CA   		addq	%rcx, %rdx
 475 0457 A807     		testb	$7, %al
 476 0459 0F8471FF 		je	.L64
 476      FFFF
 477              	.L61:
 478 045f 0FB64310 		movzbl	16(%rbx), %eax
 479 0463 488D4A01 		leaq	1(%rdx), %rcx
 480 0467 8802     		movb	%al, (%rdx)
 481 0469 4839F1   		cmpq	%rsi, %rcx
 482 046c 0F835EFF 		jnb	.L64
 482      FFFF
 483 0472 884201   		movb	%al, 1(%rdx)
 484 0475 488D4202 		leaq	2(%rdx), %rax
 485 0479 4839F0   		cmpq	%rsi, %rax
 486 047c 0F834EFF 		jnb	.L64
 486      FFFF
 487 0482 0FB64310 		movzbl	16(%rbx), %eax
 488 0486 488D4A03 		leaq	3(%rdx), %rcx
 489 048a 884202   		movb	%al, 2(%rdx)
 490 048d 4839F1   		cmpq	%rsi, %rcx
 491 0490 0F833AFF 		jnb	.L64
 491      FFFF
 492 0496 884203   		movb	%al, 3(%rdx)
 493 0499 488D4204 		leaq	4(%rdx), %rax
 494 049d 4839F0   		cmpq	%rsi, %rax
 495 04a0 0F832AFF 		jnb	.L64
 495      FFFF
 496 04a6 0FB64310 		movzbl	16(%rbx), %eax
 497 04aa 488D4A05 		leaq	5(%rdx), %rcx
 498 04ae 884204   		movb	%al, 4(%rdx)
 499 04b1 4839F1   		cmpq	%rsi, %rcx
 500 04b4 0F8316FF 		jnb	.L64
 500      FFFF
 501 04ba 884205   		movb	%al, 5(%rdx)
 502 04bd 488D4206 		leaq	6(%rdx), %rax
 503 04c1 4839F0   		cmpq	%rsi, %rax
 504 04c4 0F8306FF 		jnb	.L64
 504      FFFF
 505 04ca 0FB64310 		movzbl	16(%rbx), %eax
 506 04ce 884206   		movb	%al, 6(%rdx)
 507 04d1 E9FAFEFF 		jmp	.L64
 507      FF
 508              	.L65:
 509 04d6 31FF     		xorl	%edi, %edi
 510 04d8 E95BFFFF 		jmp	.L58
 510      FF
 511              	.L82:
 512 04dd 31C0     		xorl	%eax, %eax
 513 04df 488D3500 		leaq	.LC1(%rip), %rsi
 513      000000
 514 04e6 4C89F7   		movq	%r14, %rdi
 515 04e9 E8000000 		call	errRender@PLT
 515      00
 516 04ee B8010000 		movl	$1, %eax
 516      00
 517 04f3 E94CFEFF 		jmp	.L50
 517      FF
 518              		.cfi_endproc
 519              	.LFE40:
 521 04f8 0F1F8400 		.p2align 4
 521      00000000 
 522              		.globl	bufAppendWordLE
 524              	bufAppendWordLE:
 525              	.LFB41:
 526              		.cfi_startproc
 527 0500 F30F1EFA 		endbr64
 528 0504 4157     		pushq	%r15
 529              		.cfi_def_cfa_offset 16
 530              		.cfi_offset 15, -16
 531 0506 4156     		pushq	%r14
 532              		.cfi_def_cfa_offset 24
 533              		.cfi_offset 14, -24
 534 0508 4155     		pushq	%r13
 535              		.cfi_def_cfa_offset 32
 536              		.cfi_offset 13, -32
 537 050a 4189F5   		movl	%esi, %r13d
 538 050d 4154     		pushq	%r12
 539              		.cfi_def_cfa_offset 40
 540              		.cfi_offset 12, -40
 541 050f 55       		pushq	%rbp
 542              		.cfi_def_cfa_offset 48
 543              		.cfi_offset 6, -48
 544 0510 53       		pushq	%rbx
 545              		.cfi_def_cfa_offset 56
 546              		.cfi_offset 3, -56
 547 0511 4889FB   		movq	%rdi, %rbx
 548 0514 4883EC08 		subq	$8, %rsp
 549              		.cfi_def_cfa_offset 64
 550 0518 8B4F08   		movl	8(%rdi), %ecx
 551 051b 8B6F0C   		movl	12(%rdi), %ebp
 552 051e 488B3F   		movq	(%rdi), %rdi
 553 0521 448D6102 		leal	2(%rcx), %r12d
 554 0525 4439E5   		cmpl	%r12d, %ebp
 555 0528 7226     		jb	.L114
 556              	.L84:
 557 052a 44882C0F 		movb	%r13b, (%rdi,%rcx)
 558 052e 8B4308   		movl	8(%rbx), %eax
 559 0531 4489E9   		movl	%r13d, %ecx
 560 0534 488B13   		movq	(%rbx), %rdx
 561 0537 886C0201 		movb	%ch, 1(%rdx,%rax)
 562 053b 31C0     		xorl	%eax, %eax
 563 053d 83430802 		addl	$2, 8(%rbx)
 564              	.L83:
 565 0541 4883C408 		addq	$8, %rsp
 566              		.cfi_remember_state
 567              		.cfi_def_cfa_offset 56
 568 0545 5B       		popq	%rbx
 569              		.cfi_def_cfa_offset 48
 570 0546 5D       		popq	%rbp
 571              		.cfi_def_cfa_offset 40
 572 0547 415C     		popq	%r12
 573              		.cfi_def_cfa_offset 32
 574 0549 415D     		popq	%r13
 575              		.cfi_def_cfa_offset 24
 576 054b 415E     		popq	%r14
 577              		.cfi_def_cfa_offset 16
 578 054d 415F     		popq	%r15
 579              		.cfi_def_cfa_offset 8
 580 054f C3       		ret
 581              		.p2align 4,,10
 582              		.p2align 3
 583              	.L114:
 584              		.cfi_restore_state
 585 0550 4989D6   		movq	%rdx, %r14
 586              		.p2align 4,,10
 587 0553 0F1F4400 		.p2align 3
 587      00
 588              	.L85:
 589 0558 01ED     		addl	%ebp, %ebp
 590 055a 4439E5   		cmpl	%r12d, %ebp
 591 055d 72F9     		jb	.L85
 592 055f 4189EF   		movl	%ebp, %r15d
 593 0562 4C89FE   		movq	%r15, %rsi
 594 0565 E8000000 		call	realloc@PLT
 594      00
 595 056a 488903   		movq	%rax, (%rbx)
 596 056d 4889C7   		movq	%rax, %rdi
 597 0570 4885C0   		testq	%rax, %rax
 598 0573 0F845C01 		je	.L115
 598      0000
 599 0579 4589E4   		movl	%r12d, %r12d
 600 057c 4A8D3438 		leaq	(%rax,%r15), %rsi
 601 0580 896B0C   		movl	%ebp, 12(%rbx)
 602 0583 4E8D0420 		leaq	(%rax,%r12), %r8
 603 0587 4C89C2   		movq	%r8, %rdx
 604 058a 4939F0   		cmpq	%rsi, %r8
 605 058d 733C     		jnb	.L113
 606 058f 4C89F8   		movq	%r15, %rax
 607 0592 4C29E0   		subq	%r12, %rax
 608 0595 488D48FF 		leaq	-1(%rax), %rcx
 609 0599 4883F906 		cmpq	$6, %rcx
 610 059d 7619     		jbe	.L96
 611 059f 488D7B10 		leaq	16(%rbx), %rdi
 612 05a3 4839F7   		cmpq	%rsi, %rdi
 613 05a6 7330     		jnb	.L99
 614 05a8 488D7B11 		leaq	17(%rbx), %rdi
 615 05ac 4C39C7   		cmpq	%r8, %rdi
 616 05af 7627     		jbe	.L99
 617              		.p2align 4,,10
 618 05b1 0F1F8000 		.p2align 3
 618      000000
 619              	.L96:
 620 05b8 0FB64310 		movzbl	16(%rbx), %eax
 621 05bc 4883C201 		addq	$1, %rdx
 622 05c0 8842FF   		movb	%al, -1(%rdx)
 623 05c3 4839D6   		cmpq	%rdx, %rsi
 624 05c6 75F0     		jne	.L96
 625              	.L97:
 626 05c8 488B3B   		movq	(%rbx), %rdi
 627              	.L113:
 628 05cb 8B4B08   		movl	8(%rbx), %ecx
 629 05ce E957FFFF 		jmp	.L84
 629      FF
 630              		.p2align 4,,10
 631 05d3 0F1F4400 		.p2align 3
 631      00
 632              	.L99:
 633 05d8 4883F90E 		cmpq	$14, %rcx
 634 05dc 0F86EC00 		jbe	.L98
 634      0000
 635 05e2 0FB64B10 		movzbl	16(%rbx), %ecx
 636 05e6 4C89C2   		movq	%r8, %rdx
 637 05e9 660F6EC1 		movd	%ecx, %xmm0
 638 05ed 4889C1   		movq	%rax, %rcx
 639 05f0 660F60C0 		punpcklbw	%xmm0, %xmm0
 640 05f4 4883E1F0 		andq	$-16, %rcx
 641 05f8 660F61C0 		punpcklwd	%xmm0, %xmm0
 642 05fc 4C01C1   		addq	%r8, %rcx
 643 05ff 660F70C0 		pshufd	$0, %xmm0, %xmm0
 643      00
 644              		.p2align 4,,10
 645 0604 0F1F4000 		.p2align 3
 646              	.L92:
 647 0608 0F1102   		movups	%xmm0, (%rdx)
 648 060b 4883C210 		addq	$16, %rdx
 649 060f 4839D1   		cmpq	%rdx, %rcx
 650 0612 75F4     		jne	.L92
 651 0614 4889C7   		movq	%rax, %rdi
 652 0617 4883E7F0 		andq	$-16, %rdi
 653 061b 498D1438 		leaq	(%r8,%rdi), %rdx
 654 061f A80F     		testb	$15, %al
 655 0621 74A5     		je	.L97
 656 0623 4829F8   		subq	%rdi, %rax
 657 0626 488D48FF 		leaq	-1(%rax), %rcx
 658 062a 4883F906 		cmpq	$6, %rcx
 659 062e 7627     		jbe	.L94
 660              	.L91:
 661 0630 0FB64B10 		movzbl	16(%rbx), %ecx
 662 0634 88CD     		movb	%cl, %ch
 663 0636 660F6EC9 		movd	%ecx, %xmm1
 664 063a 4889C1   		movq	%rax, %rcx
 665 063d F20F70C1 		pshuflw	$0, %xmm1, %xmm0
 665      00
 666 0642 4883E1F8 		andq	$-8, %rcx
 667 0646 66410FD6 		movq	%xmm0, (%r8,%rdi)
 667      0438
 668 064c 4801CA   		addq	%rcx, %rdx
 669 064f A807     		testb	$7, %al
 670 0651 0F8471FF 		je	.L97
 670      FFFF
 671              	.L94:
 672 0657 0FB64310 		movzbl	16(%rbx), %eax
 673 065b 488D4A01 		leaq	1(%rdx), %rcx
 674 065f 8802     		movb	%al, (%rdx)
 675 0661 4839F1   		cmpq	%rsi, %rcx
 676 0664 0F835EFF 		jnb	.L97
 676      FFFF
 677 066a 884201   		movb	%al, 1(%rdx)
 678 066d 488D4202 		leaq	2(%rdx), %rax
 679 0671 4839F0   		cmpq	%rsi, %rax
 680 0674 0F834EFF 		jnb	.L97
 680      FFFF
 681 067a 0FB64310 		movzbl	16(%rbx), %eax
 682 067e 488D4A03 		leaq	3(%rdx), %rcx
 683 0682 884202   		movb	%al, 2(%rdx)
 684 0685 4839F1   		cmpq	%rsi, %rcx
 685 0688 0F833AFF 		jnb	.L97
 685      FFFF
 686 068e 884203   		movb	%al, 3(%rdx)
 687 0691 488D4204 		leaq	4(%rdx), %rax
 688 0695 4839F0   		cmpq	%rsi, %rax
 689 0698 0F832AFF 		jnb	.L97
 689      FFFF
 690 069e 0FB64310 		movzbl	16(%rbx), %eax
 691 06a2 488D4A05 		leaq	5(%rdx), %rcx
 692 06a6 884204   		movb	%al, 4(%rdx)
 693 06a9 4839F1   		cmpq	%rsi, %rcx
 694 06ac 0F8316FF 		jnb	.L97
 694      FFFF
 695 06b2 884205   		movb	%al, 5(%rdx)
 696 06b5 488D4206 		leaq	6(%rdx), %rax
 697 06b9 4839F0   		cmpq	%rsi, %rax
 698 06bc 0F8306FF 		jnb	.L97
 698      FFFF
 699 06c2 0FB64310 		movzbl	16(%rbx), %eax
 700 06c6 884206   		movb	%al, 6(%rdx)
 701 06c9 E9FAFEFF 		jmp	.L97
 701      FF
 702              	.L98:
 703 06ce 31FF     		xorl	%edi, %edi
 704 06d0 E95BFFFF 		jmp	.L91
 704      FF
 705              	.L115:
 706 06d5 31C0     		xorl	%eax, %eax
 707 06d7 488D3500 		leaq	.LC1(%rip), %rsi
 707      000000
 708 06de 4C89F7   		movq	%r14, %rdi
 709 06e1 E8000000 		call	errRender@PLT
 709      00
 710 06e6 B8010000 		movl	$1, %eax
 710      00
 711 06eb E951FEFF 		jmp	.L83
 711      FF
 712              		.cfi_endproc
 713              	.LFE41:
 715              		.p2align 4
 716              		.globl	bufAppendWordBE
 718              	bufAppendWordBE:
 719              	.LFB42:
 720              		.cfi_startproc
 721 06f0 F30F1EFA 		endbr64
 722 06f4 4157     		pushq	%r15
 723              		.cfi_def_cfa_offset 16
 724              		.cfi_offset 15, -16
 725 06f6 4156     		pushq	%r14
 726              		.cfi_def_cfa_offset 24
 727              		.cfi_offset 14, -24
 728 06f8 4155     		pushq	%r13
 729              		.cfi_def_cfa_offset 32
 730              		.cfi_offset 13, -32
 731 06fa 4189F5   		movl	%esi, %r13d
 732 06fd 4154     		pushq	%r12
 733              		.cfi_def_cfa_offset 40
 734              		.cfi_offset 12, -40
 735 06ff 55       		pushq	%rbp
 736              		.cfi_def_cfa_offset 48
 737              		.cfi_offset 6, -48
 738 0700 53       		pushq	%rbx
 739              		.cfi_def_cfa_offset 56
 740              		.cfi_offset 3, -56
 741 0701 4889FB   		movq	%rdi, %rbx
 742 0704 4883EC08 		subq	$8, %rsp
 743              		.cfi_def_cfa_offset 64
 744 0708 8B4F08   		movl	8(%rdi), %ecx
 745 070b 8B6F0C   		movl	12(%rdi), %ebp
 746 070e 488B3F   		movq	(%rdi), %rdi
 747 0711 448D6102 		leal	2(%rcx), %r12d
 748 0715 4439E5   		cmpl	%r12d, %ebp
 749 0718 7226     		jb	.L147
 750              	.L117:
 751 071a 4489E8   		movl	%r13d, %eax
 752 071d 88240F   		movb	%ah, (%rdi,%rcx)
 753 0720 8B4308   		movl	8(%rbx), %eax
 754 0723 488B13   		movq	(%rbx), %rdx
 755 0726 44886C02 		movb	%r13b, 1(%rdx,%rax)
 755      01
 756 072b 31C0     		xorl	%eax, %eax
 757 072d 83430802 		addl	$2, 8(%rbx)
 758              	.L116:
 759 0731 4883C408 		addq	$8, %rsp
 760              		.cfi_remember_state
 761              		.cfi_def_cfa_offset 56
 762 0735 5B       		popq	%rbx
 763              		.cfi_def_cfa_offset 48
 764 0736 5D       		popq	%rbp
 765              		.cfi_def_cfa_offset 40
 766 0737 415C     		popq	%r12
 767              		.cfi_def_cfa_offset 32
 768 0739 415D     		popq	%r13
 769              		.cfi_def_cfa_offset 24
 770 073b 415E     		popq	%r14
 771              		.cfi_def_cfa_offset 16
 772 073d 415F     		popq	%r15
 773              		.cfi_def_cfa_offset 8
 774 073f C3       		ret
 775              		.p2align 4,,10
 776              		.p2align 3
 777              	.L147:
 778              		.cfi_restore_state
 779 0740 4989D6   		movq	%rdx, %r14
 780              		.p2align 4,,10
 781 0743 0F1F4400 		.p2align 3
 781      00
 782              	.L118:
 783 0748 01ED     		addl	%ebp, %ebp
 784 074a 4439E5   		cmpl	%r12d, %ebp
 785 074d 72F9     		jb	.L118
 786 074f 4189EF   		movl	%ebp, %r15d
 787 0752 4C89FE   		movq	%r15, %rsi
 788 0755 E8000000 		call	realloc@PLT
 788      00
 789 075a 488903   		movq	%rax, (%rbx)
 790 075d 4889C7   		movq	%rax, %rdi
 791 0760 4885C0   		testq	%rax, %rax
 792 0763 0F845C01 		je	.L148
 792      0000
 793 0769 4589E4   		movl	%r12d, %r12d
 794 076c 4A8D3438 		leaq	(%rax,%r15), %rsi
 795 0770 896B0C   		movl	%ebp, 12(%rbx)
 796 0773 4E8D0420 		leaq	(%rax,%r12), %r8
 797 0777 4C89C2   		movq	%r8, %rdx
 798 077a 4939F0   		cmpq	%rsi, %r8
 799 077d 733C     		jnb	.L146
 800 077f 4C89F8   		movq	%r15, %rax
 801 0782 4C29E0   		subq	%r12, %rax
 802 0785 488D48FF 		leaq	-1(%rax), %rcx
 803 0789 4883F906 		cmpq	$6, %rcx
 804 078d 7619     		jbe	.L129
 805 078f 488D7B10 		leaq	16(%rbx), %rdi
 806 0793 4839F7   		cmpq	%rsi, %rdi
 807 0796 7330     		jnb	.L132
 808 0798 488D7B11 		leaq	17(%rbx), %rdi
 809 079c 4C39C7   		cmpq	%r8, %rdi
 810 079f 7627     		jbe	.L132
 811              		.p2align 4,,10
 812 07a1 0F1F8000 		.p2align 3
 812      000000
 813              	.L129:
 814 07a8 0FB64310 		movzbl	16(%rbx), %eax
 815 07ac 4883C201 		addq	$1, %rdx
 816 07b0 8842FF   		movb	%al, -1(%rdx)
 817 07b3 4839D6   		cmpq	%rdx, %rsi
 818 07b6 75F0     		jne	.L129
 819              	.L130:
 820 07b8 488B3B   		movq	(%rbx), %rdi
 821              	.L146:
 822 07bb 8B4B08   		movl	8(%rbx), %ecx
 823 07be E957FFFF 		jmp	.L117
 823      FF
 824              		.p2align 4,,10
 825 07c3 0F1F4400 		.p2align 3
 825      00
 826              	.L132:
 827 07c8 4883F90E 		cmpq	$14, %rcx
 828 07cc 0F86EC00 		jbe	.L131
 828      0000
 829 07d2 0FB64B10 		movzbl	16(%rbx), %ecx
 830 07d6 4C89C2   		movq	%r8, %rdx
 831 07d9 660F6EC1 		movd	%ecx, %xmm0
 832 07dd 4889C1   		movq	%rax, %rcx
 833 07e0 660F60C0 		punpcklbw	%xmm0, %xmm0
 834 07e4 4883E1F0 		andq	$-16, %rcx
 835 07e8 660F61C0 		punpcklwd	%xmm0, %xmm0
 836 07ec 4C01C1   		addq	%r8, %rcx
 837 07ef 660F70C0 		pshufd	$0, %xmm0, %xmm0
 837      00
 838              		.p2align 4,,10
 839 07f4 0F1F4000 		.p2align 3
 840              	.L125:
 841 07f8 0F1102   		movups	%xmm0, (%rdx)
 842 07fb 4883C210 		addq	$16, %rdx
 843 07ff 4839D1   		cmpq	%rdx, %rcx
 844 0802 75F4     		jne	.L125
 845 0804 4889C7   		movq	%rax, %rdi
 846 0807 4883E7F0 		andq	$-16, %rdi
 847 080b 498D1438 		leaq	(%r8,%rdi), %rdx
 848 080f A80F     		testb	$15, %al
 849 0811 74A5     		je	.L130
 850 0813 4829F8   		subq	%rdi, %rax
 851 0816 488D48FF 		leaq	-1(%rax), %rcx
 852 081a 4883F906 		cmpq	$6, %rcx
 853 081e 7627     		jbe	.L127
 854              	.L124:
 855 0820 0FB64B10 		movzbl	16(%rbx), %ecx
 856 0824 88CD     		movb	%cl, %ch
 857 0826 660F6EC9 		movd	%ecx, %xmm1
 858 082a 4889C1   		movq	%rax, %rcx
 859 082d F20F70C1 		pshuflw	$0, %xmm1, %xmm0
 859      00
 860 0832 4883E1F8 		andq	$-8, %rcx
 861 0836 66410FD6 		movq	%xmm0, (%r8,%rdi)
 861      0438
 862 083c 4801CA   		addq	%rcx, %rdx
 863 083f A807     		testb	$7, %al
 864 0841 0F8471FF 		je	.L130
 864      FFFF
 865              	.L127:
 866 0847 0FB64310 		movzbl	16(%rbx), %eax
 867 084b 488D4A01 		leaq	1(%rdx), %rcx
 868 084f 8802     		movb	%al, (%rdx)
 869 0851 4839F1   		cmpq	%rsi, %rcx
 870 0854 0F835EFF 		jnb	.L130
 870      FFFF
 871 085a 884201   		movb	%al, 1(%rdx)
 872 085d 488D4202 		leaq	2(%rdx), %rax
 873 0861 4839F0   		cmpq	%rsi, %rax
 874 0864 0F834EFF 		jnb	.L130
 874      FFFF
 875 086a 0FB64310 		movzbl	16(%rbx), %eax
 876 086e 488D4A03 		leaq	3(%rdx), %rcx
 877 0872 884202   		movb	%al, 2(%rdx)
 878 0875 4839F1   		cmpq	%rsi, %rcx
 879 0878 0F833AFF 		jnb	.L130
 879      FFFF
 880 087e 884203   		movb	%al, 3(%rdx)
 881 0881 488D4204 		leaq	4(%rdx), %rax
 882 0885 4839F0   		cmpq	%rsi, %rax
 883 0888 0F832AFF 		jnb	.L130
 883      FFFF
 884 088e 0FB64310 		movzbl	16(%rbx), %eax
 885 0892 488D4A05 		leaq	5(%rdx), %rcx
 886 0896 884204   		movb	%al, 4(%rdx)
 887 0899 4839F1   		cmpq	%rsi, %rcx
 888 089c 0F8316FF 		jnb	.L130
 888      FFFF
 889 08a2 884205   		movb	%al, 5(%rdx)
 890 08a5 488D4206 		leaq	6(%rdx), %rax
 891 08a9 4839F0   		cmpq	%rsi, %rax
 892 08ac 0F8306FF 		jnb	.L130
 892      FFFF
 893 08b2 0FB64310 		movzbl	16(%rbx), %eax
 894 08b6 884206   		movb	%al, 6(%rdx)
 895 08b9 E9FAFEFF 		jmp	.L130
 895      FF
 896              	.L131:
 897 08be 31FF     		xorl	%edi, %edi
 898 08c0 E95BFFFF 		jmp	.L124
 898      FF
 899              	.L148:
 900 08c5 31C0     		xorl	%eax, %eax
 901 08c7 488D3500 		leaq	.LC1(%rip), %rsi
 901      000000
 902 08ce 4C89F7   		movq	%r14, %rdi
 903 08d1 E8000000 		call	errRender@PLT
 903      00
 904 08d6 B8010000 		movl	$1, %eax
 904      00
 905 08db E951FEFF 		jmp	.L116
 905      FF
 906              		.cfi_endproc
 907              	.LFE42:
 909              		.p2align 4
 910              		.globl	bufAppendLongLE
 912              	bufAppendLongLE:
 913              	.LFB43:
 914              		.cfi_startproc
 915 08e0 F30F1EFA 		endbr64
 916 08e4 4157     		pushq	%r15
 917              		.cfi_def_cfa_offset 16
 918              		.cfi_offset 15, -16
 919 08e6 4156     		pushq	%r14
 920              		.cfi_def_cfa_offset 24
 921              		.cfi_offset 14, -24
 922 08e8 4155     		pushq	%r13
 923              		.cfi_def_cfa_offset 32
 924              		.cfi_offset 13, -32
 925 08ea 4154     		pushq	%r12
 926              		.cfi_def_cfa_offset 40
 927              		.cfi_offset 12, -40
 928 08ec 4189F4   		movl	%esi, %r12d
 929 08ef 55       		pushq	%rbp
 930              		.cfi_def_cfa_offset 48
 931              		.cfi_offset 6, -48
 932 08f0 53       		pushq	%rbx
 933              		.cfi_def_cfa_offset 56
 934              		.cfi_offset 3, -56
 935 08f1 4889FB   		movq	%rdi, %rbx
 936 08f4 4883EC08 		subq	$8, %rsp
 937              		.cfi_def_cfa_offset 64
 938 08f8 8B4F08   		movl	8(%rdi), %ecx
 939 08fb 8B6F0C   		movl	12(%rdi), %ebp
 940 08fe 488B3F   		movq	(%rdi), %rdi
 941 0901 448D6904 		leal	4(%rcx), %r13d
 942 0905 4439ED   		cmpl	%r13d, %ebp
 943 0908 7246     		jb	.L180
 944              	.L150:
 945 090a 4488240F 		movb	%r12b, (%rdi,%rcx)
 946 090e 8B4308   		movl	8(%rbx), %eax
 947 0911 4489E1   		movl	%r12d, %ecx
 948 0914 41C1EC18 		shrl	$24, %r12d
 949 0918 488B13   		movq	(%rbx), %rdx
 950 091b 886C0201 		movb	%ch, 1(%rdx,%rax)
 951 091f 8B4308   		movl	8(%rbx), %eax
 952 0922 C1E910   		shrl	$16, %ecx
 953 0925 488B13   		movq	(%rbx), %rdx
 954 0928 884C0202 		movb	%cl, 2(%rdx,%rax)
 955 092c 8B4308   		movl	8(%rbx), %eax
 956 092f 488B13   		movq	(%rbx), %rdx
 957 0932 44886402 		movb	%r12b, 3(%rdx,%rax)
 957      03
 958 0937 31C0     		xorl	%eax, %eax
 959 0939 83430804 		addl	$4, 8(%rbx)
 960              	.L149:
 961 093d 4883C408 		addq	$8, %rsp
 962              		.cfi_remember_state
 963              		.cfi_def_cfa_offset 56
 964 0941 5B       		popq	%rbx
 965              		.cfi_def_cfa_offset 48
 966 0942 5D       		popq	%rbp
 967              		.cfi_def_cfa_offset 40
 968 0943 415C     		popq	%r12
 969              		.cfi_def_cfa_offset 32
 970 0945 415D     		popq	%r13
 971              		.cfi_def_cfa_offset 24
 972 0947 415E     		popq	%r14
 973              		.cfi_def_cfa_offset 16
 974 0949 415F     		popq	%r15
 975              		.cfi_def_cfa_offset 8
 976 094b C3       		ret
 977 094c 0F1F4000 		.p2align 4,,10
 978              		.p2align 3
 979              	.L180:
 980              		.cfi_restore_state
 981 0950 4989D6   		movq	%rdx, %r14
 982              		.p2align 4,,10
 983 0953 0F1F4400 		.p2align 3
 983      00
 984              	.L151:
 985 0958 01ED     		addl	%ebp, %ebp
 986 095a 4439ED   		cmpl	%r13d, %ebp
 987 095d 72F9     		jb	.L151
 988 095f 4189EF   		movl	%ebp, %r15d
 989 0962 4C89FE   		movq	%r15, %rsi
 990 0965 E8000000 		call	realloc@PLT
 990      00
 991 096a 488903   		movq	%rax, (%rbx)
 992 096d 4889C7   		movq	%rax, %rdi
 993 0970 4885C0   		testq	%rax, %rax
 994 0973 0F845C01 		je	.L181
 994      0000
 995 0979 4589ED   		movl	%r13d, %r13d
 996 097c 4A8D3438 		leaq	(%rax,%r15), %rsi
 997 0980 896B0C   		movl	%ebp, 12(%rbx)
 998 0983 4E8D0428 		leaq	(%rax,%r13), %r8
 999 0987 4C89C2   		movq	%r8, %rdx
 1000 098a 4939F0   		cmpq	%rsi, %r8
 1001 098d 733C     		jnb	.L179
 1002 098f 4C89F8   		movq	%r15, %rax
 1003 0992 4C29E8   		subq	%r13, %rax
 1004 0995 488D48FF 		leaq	-1(%rax), %rcx
 1005 0999 4883F906 		cmpq	$6, %rcx
 1006 099d 7619     		jbe	.L162
 1007 099f 488D7B10 		leaq	16(%rbx), %rdi
 1008 09a3 4839F7   		cmpq	%rsi, %rdi
 1009 09a6 7330     		jnb	.L165
 1010 09a8 488D7B11 		leaq	17(%rbx), %rdi
 1011 09ac 4C39C7   		cmpq	%r8, %rdi
 1012 09af 7627     		jbe	.L165
 1013              		.p2align 4,,10
 1014 09b1 0F1F8000 		.p2align 3
 1014      000000
 1015              	.L162:
 1016 09b8 0FB64310 		movzbl	16(%rbx), %eax
 1017 09bc 4883C201 		addq	$1, %rdx
 1018 09c0 8842FF   		movb	%al, -1(%rdx)
 1019 09c3 4839D6   		cmpq	%rdx, %rsi
 1020 09c6 75F0     		jne	.L162
 1021              	.L163:
 1022 09c8 488B3B   		movq	(%rbx), %rdi
 1023              	.L179:
 1024 09cb 8B4B08   		movl	8(%rbx), %ecx
 1025 09ce E937FFFF 		jmp	.L150
 1025      FF
 1026              		.p2align 4,,10
 1027 09d3 0F1F4400 		.p2align 3
 1027      00
 1028              	.L165:
 1029 09d8 4883F90E 		cmpq	$14, %rcx
 1030 09dc 0F86EC00 		jbe	.L164
 1030      0000
 1031 09e2 0FB64B10 		movzbl	16(%rbx), %ecx
 1032 09e6 4C89C2   		movq	%r8, %rdx
 1033 09e9 660F6EC1 		movd	%ecx, %xmm0
 1034 09ed 4889C1   		movq	%rax, %rcx
 1035 09f0 660F60C0 		punpcklbw	%xmm0, %xmm0
 1036 09f4 4883E1F0 		andq	$-16, %rcx
 1037 09f8 660F61C0 		punpcklwd	%xmm0, %xmm0
 1038 09fc 4C01C1   		addq	%r8, %rcx
 1039 09ff 660F70C0 		pshufd	$0, %xmm0, %xmm0
 1039      00
 1040              		.p2align 4,,10
 1041 0a04 0F1F4000 		.p2align 3
 1042              	.L158:
 1043 0a08 0F1102   		movups	%xmm0, (%rdx)
 1044 0a0b 4883C210 		addq	$16, %rdx
 1045 0a0f 4839D1   		cmpq	%rdx, %rcx
 1046 0a12 75F4     		jne	.L158
 1047 0a14 4889C7   		movq	%rax, %rdi
 1048 0a17 4883E7F0 		andq	$-16, %rdi
 1049 0a1b 498D1438 		leaq	(%r8,%rdi), %rdx
 1050 0a1f A80F     		testb	$15, %al
 1051 0a21 74A5     		je	.L163
 1052 0a23 4829F8   		subq	%rdi, %rax
 1053 0a26 488D48FF 		leaq	-1(%rax), %rcx
 1054 0a2a 4883F906 		cmpq	$6, %rcx
 1055 0a2e 7627     		jbe	.L160
 1056              	.L157:
 1057 0a30 0FB64B10 		movzbl	16(%rbx), %ecx
 1058 0a34 88CD     		movb	%cl, %ch
 1059 0a36 660F6EC9 		movd	%ecx, %xmm1
 1060 0a3a 4889C1   		movq	%rax, %rcx
 1061 0a3d F20F70C1 		pshuflw	$0, %xmm1, %xmm0
 1061      00
 1062 0a42 4883E1F8 		andq	$-8, %rcx
 1063 0a46 66410FD6 		movq	%xmm0, (%r8,%rdi)
 1063      0438
 1064 0a4c 4801CA   		addq	%rcx, %rdx
 1065 0a4f A807     		testb	$7, %al
 1066 0a51 0F8471FF 		je	.L163
 1066      FFFF
 1067              	.L160:
 1068 0a57 0FB64310 		movzbl	16(%rbx), %eax
 1069 0a5b 488D4A01 		leaq	1(%rdx), %rcx
 1070 0a5f 8802     		movb	%al, (%rdx)
 1071 0a61 4839F1   		cmpq	%rsi, %rcx
 1072 0a64 0F835EFF 		jnb	.L163
 1072      FFFF
 1073 0a6a 884201   		movb	%al, 1(%rdx)
 1074 0a6d 488D4202 		leaq	2(%rdx), %rax
 1075 0a71 4839F0   		cmpq	%rsi, %rax
 1076 0a74 0F834EFF 		jnb	.L163
 1076      FFFF
 1077 0a7a 0FB64310 		movzbl	16(%rbx), %eax
 1078 0a7e 488D4A03 		leaq	3(%rdx), %rcx
 1079 0a82 884202   		movb	%al, 2(%rdx)
 1080 0a85 4839F1   		cmpq	%rsi, %rcx
 1081 0a88 0F833AFF 		jnb	.L163
 1081      FFFF
 1082 0a8e 884203   		movb	%al, 3(%rdx)
 1083 0a91 488D4204 		leaq	4(%rdx), %rax
 1084 0a95 4839F0   		cmpq	%rsi, %rax
 1085 0a98 0F832AFF 		jnb	.L163
 1085      FFFF
 1086 0a9e 0FB64310 		movzbl	16(%rbx), %eax
 1087 0aa2 488D4A05 		leaq	5(%rdx), %rcx
 1088 0aa6 884204   		movb	%al, 4(%rdx)
 1089 0aa9 4839F1   		cmpq	%rsi, %rcx
 1090 0aac 0F8316FF 		jnb	.L163
 1090      FFFF
 1091 0ab2 884205   		movb	%al, 5(%rdx)
 1092 0ab5 488D4206 		leaq	6(%rdx), %rax
 1093 0ab9 4839F0   		cmpq	%rsi, %rax
 1094 0abc 0F8306FF 		jnb	.L163
 1094      FFFF
 1095 0ac2 0FB64310 		movzbl	16(%rbx), %eax
 1096 0ac6 884206   		movb	%al, 6(%rdx)
 1097 0ac9 E9FAFEFF 		jmp	.L163
 1097      FF
 1098              	.L164:
 1099 0ace 31FF     		xorl	%edi, %edi
 1100 0ad0 E95BFFFF 		jmp	.L157
 1100      FF
 1101              	.L181:
 1102 0ad5 31C0     		xorl	%eax, %eax
 1103 0ad7 488D3500 		leaq	.LC1(%rip), %rsi
 1103      000000
 1104 0ade 4C89F7   		movq	%r14, %rdi
 1105 0ae1 E8000000 		call	errRender@PLT
 1105      00
 1106 0ae6 B8010000 		movl	$1, %eax
 1106      00
 1107 0aeb E94DFEFF 		jmp	.L149
 1107      FF
 1108              		.cfi_endproc
 1109              	.LFE43:
 1111              		.p2align 4
 1112              		.globl	bufAppendLongBE
 1114              	bufAppendLongBE:
 1115              	.LFB44:
 1116              		.cfi_startproc
 1117 0af0 F30F1EFA 		endbr64
 1118 0af4 4157     		pushq	%r15
 1119              		.cfi_def_cfa_offset 16
 1120              		.cfi_offset 15, -16
 1121 0af6 4156     		pushq	%r14
 1122              		.cfi_def_cfa_offset 24
 1123              		.cfi_offset 14, -24
 1124 0af8 4155     		pushq	%r13
 1125              		.cfi_def_cfa_offset 32
 1126              		.cfi_offset 13, -32
 1127 0afa 4154     		pushq	%r12
 1128              		.cfi_def_cfa_offset 40
 1129              		.cfi_offset 12, -40
 1130 0afc 4189F4   		movl	%esi, %r12d
 1131 0aff 55       		pushq	%rbp
 1132              		.cfi_def_cfa_offset 48
 1133              		.cfi_offset 6, -48
 1134 0b00 53       		pushq	%rbx
 1135              		.cfi_def_cfa_offset 56
 1136              		.cfi_offset 3, -56
 1137 0b01 4889FB   		movq	%rdi, %rbx
 1138 0b04 4883EC08 		subq	$8, %rsp
 1139              		.cfi_def_cfa_offset 64
 1140 0b08 8B4F08   		movl	8(%rdi), %ecx
 1141 0b0b 8B6F0C   		movl	12(%rdi), %ebp
 1142 0b0e 488B3F   		movq	(%rdi), %rdi
 1143 0b11 448D6904 		leal	4(%rcx), %r13d
 1144 0b15 4439ED   		cmpl	%r13d, %ebp
 1145 0b18 7246     		jb	.L213
 1146              	.L183:
 1147 0b1a 4489E0   		movl	%r12d, %eax
 1148 0b1d C1E818   		shrl	$24, %eax
 1149 0b20 88040F   		movb	%al, (%rdi,%rcx)
 1150 0b23 4489E1   		movl	%r12d, %ecx
 1151 0b26 8B4308   		movl	8(%rbx), %eax
 1152 0b29 488B13   		movq	(%rbx), %rdx
 1153 0b2c C1E910   		shrl	$16, %ecx
 1154 0b2f 884C0201 		movb	%cl, 1(%rdx,%rax)
 1155 0b33 8B4308   		movl	8(%rbx), %eax
 1156 0b36 4489E1   		movl	%r12d, %ecx
 1157 0b39 488B13   		movq	(%rbx), %rdx
 1158 0b3c 886C0202 		movb	%ch, 2(%rdx,%rax)
 1159 0b40 8B4308   		movl	8(%rbx), %eax
 1160 0b43 488B13   		movq	(%rbx), %rdx
 1161 0b46 44886402 		movb	%r12b, 3(%rdx,%rax)
 1161      03
 1162 0b4b 31C0     		xorl	%eax, %eax
 1163 0b4d 83430804 		addl	$4, 8(%rbx)
 1164              	.L182:
 1165 0b51 4883C408 		addq	$8, %rsp
 1166              		.cfi_remember_state
 1167              		.cfi_def_cfa_offset 56
 1168 0b55 5B       		popq	%rbx
 1169              		.cfi_def_cfa_offset 48
 1170 0b56 5D       		popq	%rbp
 1171              		.cfi_def_cfa_offset 40
 1172 0b57 415C     		popq	%r12
 1173              		.cfi_def_cfa_offset 32
 1174 0b59 415D     		popq	%r13
 1175              		.cfi_def_cfa_offset 24
 1176 0b5b 415E     		popq	%r14
 1177              		.cfi_def_cfa_offset 16
 1178 0b5d 415F     		popq	%r15
 1179              		.cfi_def_cfa_offset 8
 1180 0b5f C3       		ret
 1181              		.p2align 4,,10
 1182              		.p2align 3
 1183              	.L213:
 1184              		.cfi_restore_state
 1185 0b60 4989D6   		movq	%rdx, %r14
 1186              		.p2align 4,,10
 1187 0b63 0F1F4400 		.p2align 3
 1187      00
 1188              	.L184:
 1189 0b68 01ED     		addl	%ebp, %ebp
 1190 0b6a 4439ED   		cmpl	%r13d, %ebp
 1191 0b6d 72F9     		jb	.L184
 1192 0b6f 4189EF   		movl	%ebp, %r15d
 1193 0b72 4C89FE   		movq	%r15, %rsi
 1194 0b75 E8000000 		call	realloc@PLT
 1194      00
 1195 0b7a 488903   		movq	%rax, (%rbx)
 1196 0b7d 4889C7   		movq	%rax, %rdi
 1197 0b80 4885C0   		testq	%rax, %rax
 1198 0b83 0F845C01 		je	.L214
 1198      0000
 1199 0b89 4589ED   		movl	%r13d, %r13d
 1200 0b8c 4A8D3438 		leaq	(%rax,%r15), %rsi
 1201 0b90 896B0C   		movl	%ebp, 12(%rbx)
 1202 0b93 4E8D0428 		leaq	(%rax,%r13), %r8
 1203 0b97 4C89C2   		movq	%r8, %rdx
 1204 0b9a 4939F0   		cmpq	%rsi, %r8
 1205 0b9d 733C     		jnb	.L212
 1206 0b9f 4C89F8   		movq	%r15, %rax
 1207 0ba2 4C29E8   		subq	%r13, %rax
 1208 0ba5 488D48FF 		leaq	-1(%rax), %rcx
 1209 0ba9 4883F906 		cmpq	$6, %rcx
 1210 0bad 7619     		jbe	.L195
 1211 0baf 488D7B10 		leaq	16(%rbx), %rdi
 1212 0bb3 4839F7   		cmpq	%rsi, %rdi
 1213 0bb6 7330     		jnb	.L198
 1214 0bb8 488D7B11 		leaq	17(%rbx), %rdi
 1215 0bbc 4C39C7   		cmpq	%r8, %rdi
 1216 0bbf 7627     		jbe	.L198
 1217              		.p2align 4,,10
 1218 0bc1 0F1F8000 		.p2align 3
 1218      000000
 1219              	.L195:
 1220 0bc8 0FB64310 		movzbl	16(%rbx), %eax
 1221 0bcc 4883C201 		addq	$1, %rdx
 1222 0bd0 8842FF   		movb	%al, -1(%rdx)
 1223 0bd3 4839D6   		cmpq	%rdx, %rsi
 1224 0bd6 75F0     		jne	.L195
 1225              	.L196:
 1226 0bd8 488B3B   		movq	(%rbx), %rdi
 1227              	.L212:
 1228 0bdb 8B4B08   		movl	8(%rbx), %ecx
 1229 0bde E937FFFF 		jmp	.L183
 1229      FF
 1230              		.p2align 4,,10
 1231 0be3 0F1F4400 		.p2align 3
 1231      00
 1232              	.L198:
 1233 0be8 4883F90E 		cmpq	$14, %rcx
 1234 0bec 0F86EC00 		jbe	.L197
 1234      0000
 1235 0bf2 0FB64B10 		movzbl	16(%rbx), %ecx
 1236 0bf6 4C89C2   		movq	%r8, %rdx
 1237 0bf9 660F6EC1 		movd	%ecx, %xmm0
 1238 0bfd 4889C1   		movq	%rax, %rcx
 1239 0c00 660F60C0 		punpcklbw	%xmm0, %xmm0
 1240 0c04 4883E1F0 		andq	$-16, %rcx
 1241 0c08 660F61C0 		punpcklwd	%xmm0, %xmm0
 1242 0c0c 4C01C1   		addq	%r8, %rcx
 1243 0c0f 660F70C0 		pshufd	$0, %xmm0, %xmm0
 1243      00
 1244              		.p2align 4,,10
 1245 0c14 0F1F4000 		.p2align 3
 1246              	.L191:
 1247 0c18 0F1102   		movups	%xmm0, (%rdx)
 1248 0c1b 4883C210 		addq	$16, %rdx
 1249 0c1f 4839D1   		cmpq	%rdx, %rcx
 1250 0c22 75F4     		jne	.L191
 1251 0c24 4889C7   		movq	%rax, %rdi
 1252 0c27 4883E7F0 		andq	$-16, %rdi
 1253 0c2b 498D1438 		leaq	(%r8,%rdi), %rdx
 1254 0c2f A80F     		testb	$15, %al
 1255 0c31 74A5     		je	.L196
 1256 0c33 4829F8   		subq	%rdi, %rax
 1257 0c36 488D48FF 		leaq	-1(%rax), %rcx
 1258 0c3a 4883F906 		cmpq	$6, %rcx
 1259 0c3e 7627     		jbe	.L193
 1260              	.L190:
 1261 0c40 0FB64B10 		movzbl	16(%rbx), %ecx
 1262 0c44 88CD     		movb	%cl, %ch
 1263 0c46 660F6EC9 		movd	%ecx, %xmm1
 1264 0c4a 4889C1   		movq	%rax, %rcx
 1265 0c4d F20F70C1 		pshuflw	$0, %xmm1, %xmm0
 1265      00
 1266 0c52 4883E1F8 		andq	$-8, %rcx
 1267 0c56 66410FD6 		movq	%xmm0, (%r8,%rdi)
 1267      0438
 1268 0c5c 4801CA   		addq	%rcx, %rdx
 1269 0c5f A807     		testb	$7, %al
 1270 0c61 0F8471FF 		je	.L196
 1270      FFFF
 1271              	.L193:
 1272 0c67 0FB64310 		movzbl	16(%rbx), %eax
 1273 0c6b 488D4A01 		leaq	1(%rdx), %rcx
 1274 0c6f 8802     		movb	%al, (%rdx)
 1275 0c71 4839F1   		cmpq	%rsi, %rcx
 1276 0c74 0F835EFF 		jnb	.L196
 1276      FFFF
 1277 0c7a 884201   		movb	%al, 1(%rdx)
 1278 0c7d 488D4202 		leaq	2(%rdx), %rax
 1279 0c81 4839F0   		cmpq	%rsi, %rax
 1280 0c84 0F834EFF 		jnb	.L196
 1280      FFFF
 1281 0c8a 0FB64310 		movzbl	16(%rbx), %eax
 1282 0c8e 488D4A03 		leaq	3(%rdx), %rcx
 1283 0c92 884202   		movb	%al, 2(%rdx)
 1284 0c95 4839F1   		cmpq	%rsi, %rcx
 1285 0c98 0F833AFF 		jnb	.L196
 1285      FFFF
 1286 0c9e 884203   		movb	%al, 3(%rdx)
 1287 0ca1 488D4204 		leaq	4(%rdx), %rax
 1288 0ca5 4839F0   		cmpq	%rsi, %rax
 1289 0ca8 0F832AFF 		jnb	.L196
 1289      FFFF
 1290 0cae 0FB64310 		movzbl	16(%rbx), %eax
 1291 0cb2 488D4A05 		leaq	5(%rdx), %rcx
 1292 0cb6 884204   		movb	%al, 4(%rdx)
 1293 0cb9 4839F1   		cmpq	%rsi, %rcx
 1294 0cbc 0F8316FF 		jnb	.L196
 1294      FFFF
 1295 0cc2 884205   		movb	%al, 5(%rdx)
 1296 0cc5 488D4206 		leaq	6(%rdx), %rax
 1297 0cc9 4839F0   		cmpq	%rsi, %rax
 1298 0ccc 0F8306FF 		jnb	.L196
 1298      FFFF
 1299 0cd2 0FB64310 		movzbl	16(%rbx), %eax
 1300 0cd6 884206   		movb	%al, 6(%rdx)
 1301 0cd9 E9FAFEFF 		jmp	.L196
 1301      FF
 1302              	.L197:
 1303 0cde 31FF     		xorl	%edi, %edi
 1304 0ce0 E95BFFFF 		jmp	.L190
 1304      FF
 1305              	.L214:
 1306 0ce5 31C0     		xorl	%eax, %eax
 1307 0ce7 488D3500 		leaq	.LC1(%rip), %rsi
 1307      000000
 1308 0cee 4C89F7   		movq	%r14, %rdi
 1309 0cf1 E8000000 		call	errRender@PLT
 1309      00
 1310 0cf6 B8010000 		movl	$1, %eax
 1310      00
 1311 0cfb E951FEFF 		jmp	.L182
 1311      FF
 1312              		.cfi_endproc
 1313              	.LFE44:
 1315              		.p2align 4
 1316              		.globl	bufAppendConst
 1318              	bufAppendConst:
 1319              	.LFB45:
 1320              		.cfi_startproc
 1321 0d00 F30F1EFA 		endbr64
 1322 0d04 4157     		pushq	%r15
 1323              		.cfi_def_cfa_offset 16
 1324              		.cfi_offset 15, -16
 1325 0d06 4156     		pushq	%r14
 1326              		.cfi_def_cfa_offset 24
 1327              		.cfi_offset 14, -24
 1328 0d08 4189F6   		movl	%esi, %r14d
 1329 0d0b 4155     		pushq	%r13
 1330              		.cfi_def_cfa_offset 32
 1331              		.cfi_offset 13, -32
 1332 0d0d 4189D5   		movl	%edx, %r13d
 1333 0d10 4154     		pushq	%r12
 1334              		.cfi_def_cfa_offset 40
 1335              		.cfi_offset 12, -40
 1336 0d12 55       		pushq	%rbp
 1337              		.cfi_def_cfa_offset 48
 1338              		.cfi_offset 6, -48
 1339 0d13 4889FD   		movq	%rdi, %rbp
 1340 0d16 53       		pushq	%rbx
 1341              		.cfi_def_cfa_offset 56
 1342              		.cfi_offset 3, -56
 1343 0d17 4883EC18 		subq	$24, %rsp
 1344              		.cfi_def_cfa_offset 80
 1345 0d1b 8B4708   		movl	8(%rdi), %eax
 1346 0d1e 8B5F0C   		movl	12(%rdi), %ebx
 1347 0d21 488B3F   		movq	(%rdi), %rdi
 1348 0d24 448D2410 		leal	(%rax,%rdx), %r12d
 1349 0d28 4439E3   		cmpl	%r12d, %ebx
 1350 0d2b 737A     		jnb	.L216
 1351 0d2d 4989CF   		movq	%rcx, %r15
 1352              		.p2align 4,,10
 1353              		.p2align 3
 1354              	.L217:
 1355 0d30 01DB     		addl	%ebx, %ebx
 1356 0d32 4439E3   		cmpl	%r12d, %ebx
 1357 0d35 72F9     		jb	.L217
 1358 0d37 89DA     		movl	%ebx, %edx
 1359 0d39 4889D6   		movq	%rdx, %rsi
 1360 0d3c 48895424 		movq	%rdx, 8(%rsp)
 1360      08
 1361 0d41 E8000000 		call	realloc@PLT
 1361      00
 1362 0d46 488B5424 		movq	8(%rsp), %rdx
 1362      08
 1363 0d4b 4885C0   		testq	%rax, %rax
 1364 0d4e 48894500 		movq	%rax, 0(%rbp)
 1365 0d52 4889C7   		movq	%rax, %rdi
 1366 0d55 0F847401 		je	.L246
 1366      0000
 1367 0d5b 4489E1   		movl	%r12d, %ecx
 1368 0d5e 488D3417 		leaq	(%rdi,%rdx), %rsi
 1369 0d62 895D0C   		movl	%ebx, 12(%rbp)
 1370 0d65 4C8D0408 		leaq	(%rax,%rcx), %r8
 1371 0d69 4C89C0   		movq	%r8, %rax
 1372 0d6c 4939F0   		cmpq	%rsi, %r8
 1373 0d6f 7333     		jnb	.L245
 1374 0d71 4829CA   		subq	%rcx, %rdx
 1375 0d74 488D4AFF 		leaq	-1(%rdx), %rcx
 1376 0d78 4883F906 		cmpq	$6, %rcx
 1377 0d7c 7612     		jbe	.L228
 1378 0d7e 488D7D10 		leaq	16(%rbp), %rdi
 1379 0d82 4839F7   		cmpq	%rsi, %rdi
 1380 0d85 7349     		jnb	.L231
 1381 0d87 488D7D11 		leaq	17(%rbp), %rdi
 1382 0d8b 4C39C7   		cmpq	%r8, %rdi
 1383 0d8e 7640     		jbe	.L231
 1384              		.p2align 4,,10
 1385              		.p2align 3
 1386              	.L228:
 1387 0d90 0FB65510 		movzbl	16(%rbp), %edx
 1388 0d94 4883C001 		addq	$1, %rax
 1389 0d98 8850FF   		movb	%dl, -1(%rax)
 1390 0d9b 4839C6   		cmpq	%rax, %rsi
 1391 0d9e 75F0     		jne	.L228
 1392              	.L229:
 1393 0da0 488B7D00 		movq	0(%rbp), %rdi
 1394              	.L245:
 1395 0da4 8B4508   		movl	8(%rbp), %eax
 1396              	.L216:
 1397 0da7 4489EA   		movl	%r13d, %edx
 1398 0daa 410FB6F6 		movzbl	%r14b, %esi
 1399 0dae 4801C7   		addq	%rax, %rdi
 1400 0db1 E8000000 		call	memset@PLT
 1400      00
 1401 0db6 44896508 		movl	%r12d, 8(%rbp)
 1402 0dba 31C0     		xorl	%eax, %eax
 1403              	.L215:
 1404 0dbc 4883C418 		addq	$24, %rsp
 1405              		.cfi_remember_state
 1406              		.cfi_def_cfa_offset 56
 1407 0dc0 5B       		popq	%rbx
 1408              		.cfi_def_cfa_offset 48
 1409 0dc1 5D       		popq	%rbp
 1410              		.cfi_def_cfa_offset 40
 1411 0dc2 415C     		popq	%r12
 1412              		.cfi_def_cfa_offset 32
 1413 0dc4 415D     		popq	%r13
 1414              		.cfi_def_cfa_offset 24
 1415 0dc6 415E     		popq	%r14
 1416              		.cfi_def_cfa_offset 16
 1417 0dc8 415F     		popq	%r15
 1418              		.cfi_def_cfa_offset 8
 1419 0dca C3       		ret
 1420 0dcb 0F1F4400 		.p2align 4,,10
 1420      00
 1421              		.p2align 3
 1422              	.L231:
 1423              		.cfi_restore_state
 1424 0dd0 4883F90E 		cmpq	$14, %rcx
 1425 0dd4 0F86EE00 		jbe	.L230
 1425      0000
 1426 0dda 0FB64D10 		movzbl	16(%rbp), %ecx
 1427 0dde 4C89C0   		movq	%r8, %rax
 1428 0de1 660F6EC1 		movd	%ecx, %xmm0
 1429 0de5 4889D1   		movq	%rdx, %rcx
 1430 0de8 660F60C0 		punpcklbw	%xmm0, %xmm0
 1431 0dec 4883E1F0 		andq	$-16, %rcx
 1432 0df0 660F61C0 		punpcklwd	%xmm0, %xmm0
 1433 0df4 4C01C1   		addq	%r8, %rcx
 1434 0df7 660F70C0 		pshufd	$0, %xmm0, %xmm0
 1434      00
 1435 0dfc 0F1F4000 		.p2align 4,,10
 1436              		.p2align 3
 1437              	.L224:
 1438 0e00 0F1100   		movups	%xmm0, (%rax)
 1439 0e03 4883C010 		addq	$16, %rax
 1440 0e07 4839C1   		cmpq	%rax, %rcx
 1441 0e0a 75F4     		jne	.L224
 1442 0e0c 4889D7   		movq	%rdx, %rdi
 1443 0e0f 4883E7F0 		andq	$-16, %rdi
 1444 0e13 498D0438 		leaq	(%r8,%rdi), %rax
 1445 0e17 F6C20F   		testb	$15, %dl
 1446 0e1a 7484     		je	.L229
 1447 0e1c 4829FA   		subq	%rdi, %rdx
 1448 0e1f 488D4AFF 		leaq	-1(%rdx), %rcx
 1449 0e23 4883F906 		cmpq	$6, %rcx
 1450 0e27 7628     		jbe	.L226
 1451              	.L223:
 1452 0e29 0FB64D10 		movzbl	16(%rbp), %ecx
 1453 0e2d 88CD     		movb	%cl, %ch
 1454 0e2f 660F6EC9 		movd	%ecx, %xmm1
 1455 0e33 4889D1   		movq	%rdx, %rcx
 1456 0e36 4883E1F8 		andq	$-8, %rcx
 1457 0e3a F20F70C1 		pshuflw	$0, %xmm1, %xmm0
 1457      00
 1458 0e3f 4801C8   		addq	%rcx, %rax
 1459 0e42 83E207   		andl	$7, %edx
 1460 0e45 66410FD6 		movq	%xmm0, (%r8,%rdi)
 1460      0438
 1461 0e4b 0F844FFF 		je	.L229
 1461      FFFF
 1462              	.L226:
 1463 0e51 0FB65510 		movzbl	16(%rbp), %edx
 1464 0e55 488D4801 		leaq	1(%rax), %rcx
 1465 0e59 8810     		movb	%dl, (%rax)
 1466 0e5b 4839F1   		cmpq	%rsi, %rcx
 1467 0e5e 0F833CFF 		jnb	.L229
 1467      FFFF
 1468 0e64 885001   		movb	%dl, 1(%rax)
 1469 0e67 488D5002 		leaq	2(%rax), %rdx
 1470 0e6b 4839F2   		cmpq	%rsi, %rdx
 1471 0e6e 0F832CFF 		jnb	.L229
 1471      FFFF
 1472 0e74 0FB65510 		movzbl	16(%rbp), %edx
 1473 0e78 488D4803 		leaq	3(%rax), %rcx
 1474 0e7c 885002   		movb	%dl, 2(%rax)
 1475 0e7f 4839F1   		cmpq	%rsi, %rcx
 1476 0e82 0F8318FF 		jnb	.L229
 1476      FFFF
 1477 0e88 885003   		movb	%dl, 3(%rax)
 1478 0e8b 488D5004 		leaq	4(%rax), %rdx
 1479 0e8f 4839F2   		cmpq	%rsi, %rdx
 1480 0e92 0F8308FF 		jnb	.L229
 1480      FFFF
 1481 0e98 0FB65510 		movzbl	16(%rbp), %edx
 1482 0e9c 488D4805 		leaq	5(%rax), %rcx
 1483 0ea0 885004   		movb	%dl, 4(%rax)
 1484 0ea3 4839F1   		cmpq	%rsi, %rcx
 1485 0ea6 0F83F4FE 		jnb	.L229
 1485      FFFF
 1486 0eac 885005   		movb	%dl, 5(%rax)
 1487 0eaf 488D5006 		leaq	6(%rax), %rdx
 1488 0eb3 4839F2   		cmpq	%rsi, %rdx
 1489 0eb6 0F83E4FE 		jnb	.L229
 1489      FFFF
 1490 0ebc 0FB65510 		movzbl	16(%rbp), %edx
 1491 0ec0 885006   		movb	%dl, 6(%rax)
 1492 0ec3 E9D8FEFF 		jmp	.L229
 1492      FF
 1493              	.L230:
 1494 0ec8 31FF     		xorl	%edi, %edi
 1495 0eca E95AFFFF 		jmp	.L223
 1495      FF
 1496              	.L246:
 1497 0ecf 31C0     		xorl	%eax, %eax
 1498 0ed1 488D3500 		leaq	.LC1(%rip), %rsi
 1498      000000
 1499 0ed8 4C89FF   		movq	%r15, %rdi
 1500 0edb E8000000 		call	errRender@PLT
 1500      00
 1501 0ee0 B8010000 		movl	$1, %eax
 1501      00
 1502 0ee5 E9D2FEFF 		jmp	.L215
 1502      FF
 1503              		.cfi_endproc
 1504              	.LFE45:
 1506 0eea 660F1F44 		.p2align 4
 1506      0000
 1507              		.globl	bufAppendBlock
 1509              	bufAppendBlock:
 1510              	.LFB46:
 1511              		.cfi_startproc
 1512 0ef0 F30F1EFA 		endbr64
 1513 0ef4 4157     		pushq	%r15
 1514              		.cfi_def_cfa_offset 16
 1515              		.cfi_offset 15, -16
 1516 0ef6 4156     		pushq	%r14
 1517              		.cfi_def_cfa_offset 24
 1518              		.cfi_offset 14, -24
 1519 0ef8 4989F6   		movq	%rsi, %r14
 1520 0efb 4155     		pushq	%r13
 1521              		.cfi_def_cfa_offset 32
 1522              		.cfi_offset 13, -32
 1523 0efd 4189D5   		movl	%edx, %r13d
 1524 0f00 4154     		pushq	%r12
 1525              		.cfi_def_cfa_offset 40
 1526              		.cfi_offset 12, -40
 1527 0f02 55       		pushq	%rbp
 1528              		.cfi_def_cfa_offset 48
 1529              		.cfi_offset 6, -48
 1530 0f03 4889FD   		movq	%rdi, %rbp
 1531 0f06 53       		pushq	%rbx
 1532              		.cfi_def_cfa_offset 56
 1533              		.cfi_offset 3, -56
 1534 0f07 4883EC18 		subq	$24, %rsp
 1535              		.cfi_def_cfa_offset 80
 1536 0f0b 8B4708   		movl	8(%rdi), %eax
 1537 0f0e 8B5F0C   		movl	12(%rdi), %ebx
 1538 0f11 488B3F   		movq	(%rdi), %rdi
 1539 0f14 448D2410 		leal	(%rax,%rdx), %r12d
 1540 0f18 4439E3   		cmpl	%r12d, %ebx
 1541 0f1b 0F838600 		jnb	.L248
 1541      0000
 1542 0f21 4989CF   		movq	%rcx, %r15
 1543              		.p2align 4,,10
 1544 0f24 0F1F4000 		.p2align 3
 1545              	.L249:
 1546 0f28 01DB     		addl	%ebx, %ebx
 1547 0f2a 4439E3   		cmpl	%r12d, %ebx
 1548 0f2d 72F9     		jb	.L249
 1549 0f2f 89DA     		movl	%ebx, %edx
 1550 0f31 4889D6   		movq	%rdx, %rsi
 1551 0f34 48895424 		movq	%rdx, 8(%rsp)
 1551      08
 1552 0f39 E8000000 		call	realloc@PLT
 1552      00
 1553 0f3e 488B5424 		movq	8(%rsp), %rdx
 1553      08
 1554 0f43 4885C0   		testq	%rax, %rax
 1555 0f46 48894500 		movq	%rax, 0(%rbp)
 1556 0f4a 4889C7   		movq	%rax, %rdi
 1557 0f4d 0F847A01 		je	.L278
 1557      0000
 1558 0f53 4589E1   		movl	%r12d, %r9d
 1559 0f56 488D3410 		leaq	(%rax,%rdx), %rsi
 1560 0f5a 895D0C   		movl	%ebx, 12(%rbp)
 1561 0f5d 4E8D0408 		leaq	(%rax,%r9), %r8
 1562 0f61 4C89C1   		movq	%r8, %rcx
 1563 0f64 4939F0   		cmpq	%rsi, %r8
 1564 0f67 733B     		jnb	.L277
 1565 0f69 4889D0   		movq	%rdx, %rax
 1566 0f6c 4C29C8   		subq	%r9, %rax
 1567 0f6f 488D50FF 		leaq	-1(%rax), %rdx
 1568 0f73 4883FA06 		cmpq	$6, %rdx
 1569 0f77 7617     		jbe	.L260
 1570 0f79 488D7D10 		leaq	16(%rbp), %rdi
 1571 0f7d 4839F7   		cmpq	%rsi, %rdi
 1572 0f80 734E     		jnb	.L263
 1573 0f82 488D7D11 		leaq	17(%rbp), %rdi
 1574 0f86 4C39C7   		cmpq	%r8, %rdi
 1575 0f89 7645     		jbe	.L263
 1576 0f8b 0F1F4400 		.p2align 4,,10
 1576      00
 1577              		.p2align 3
 1578              	.L260:
 1579 0f90 0FB64510 		movzbl	16(%rbp), %eax
 1580 0f94 4883C101 		addq	$1, %rcx
 1581 0f98 8841FF   		movb	%al, -1(%rcx)
 1582 0f9b 4839CE   		cmpq	%rcx, %rsi
 1583 0f9e 75F0     		jne	.L260
 1584              	.L261:
 1585 0fa0 488B7D00 		movq	0(%rbp), %rdi
 1586              	.L277:
 1587 0fa4 8B4508   		movl	8(%rbp), %eax
 1588              	.L248:
 1589 0fa7 4801C7   		addq	%rax, %rdi
 1590 0faa 4489EA   		movl	%r13d, %edx
 1591 0fad 4C89F6   		movq	%r14, %rsi
 1592 0fb0 E8000000 		call	memcpy@PLT
 1592      00
 1593 0fb5 44896508 		movl	%r12d, 8(%rbp)
 1594 0fb9 31C0     		xorl	%eax, %eax
 1595              	.L247:
 1596 0fbb 4883C418 		addq	$24, %rsp
 1597              		.cfi_remember_state
 1598              		.cfi_def_cfa_offset 56
 1599 0fbf 5B       		popq	%rbx
 1600              		.cfi_def_cfa_offset 48
 1601 0fc0 5D       		popq	%rbp
 1602              		.cfi_def_cfa_offset 40
 1603 0fc1 415C     		popq	%r12
 1604              		.cfi_def_cfa_offset 32
 1605 0fc3 415D     		popq	%r13
 1606              		.cfi_def_cfa_offset 24
 1607 0fc5 415E     		popq	%r14
 1608              		.cfi_def_cfa_offset 16
 1609 0fc7 415F     		popq	%r15
 1610              		.cfi_def_cfa_offset 8
 1611 0fc9 C3       		ret
 1612 0fca 660F1F44 		.p2align 4,,10
 1612      0000
 1613              		.p2align 3
 1614              	.L263:
 1615              		.cfi_restore_state
 1616 0fd0 4883FA0E 		cmpq	$14, %rdx
 1617 0fd4 0F86EC00 		jbe	.L262
 1617      0000
 1618 0fda 0FB64D10 		movzbl	16(%rbp), %ecx
 1619 0fde 4C89C2   		movq	%r8, %rdx
 1620 0fe1 660F6EC1 		movd	%ecx, %xmm0
 1621 0fe5 4889C1   		movq	%rax, %rcx
 1622 0fe8 660F60C0 		punpcklbw	%xmm0, %xmm0
 1623 0fec 4883E1F0 		andq	$-16, %rcx
 1624 0ff0 660F61C0 		punpcklwd	%xmm0, %xmm0
 1625 0ff4 4C01C1   		addq	%r8, %rcx
 1626 0ff7 660F70C0 		pshufd	$0, %xmm0, %xmm0
 1626      00
 1627 0ffc 0F1F4000 		.p2align 4,,10
 1628              		.p2align 3
 1629              	.L256:
 1630 1000 0F1102   		movups	%xmm0, (%rdx)
 1631 1003 4883C210 		addq	$16, %rdx
 1632 1007 4839D1   		cmpq	%rdx, %rcx
 1633 100a 75F4     		jne	.L256
 1634 100c 4889C7   		movq	%rax, %rdi
 1635 100f 4883E7F0 		andq	$-16, %rdi
 1636 1013 498D0C38 		leaq	(%r8,%rdi), %rcx
 1637 1017 A80F     		testb	$15, %al
 1638 1019 7485     		je	.L261
 1639 101b 4829F8   		subq	%rdi, %rax
 1640 101e 488D50FF 		leaq	-1(%rax), %rdx
 1641 1022 4883FA06 		cmpq	$6, %rdx
 1642 1026 7627     		jbe	.L258
 1643              	.L255:
 1644 1028 0FB65510 		movzbl	16(%rbp), %edx
 1645 102c 88D6     		movb	%dl, %dh
 1646 102e 660F6ECA 		movd	%edx, %xmm1
 1647 1032 4889C2   		movq	%rax, %rdx
 1648 1035 F20F70C1 		pshuflw	$0, %xmm1, %xmm0
 1648      00
 1649 103a 4883E2F8 		andq	$-8, %rdx
 1650 103e 66410FD6 		movq	%xmm0, (%r8,%rdi)
 1650      0438
 1651 1044 4801D1   		addq	%rdx, %rcx
 1652 1047 A807     		testb	$7, %al
 1653 1049 0F8451FF 		je	.L261
 1653      FFFF
 1654              	.L258:
 1655 104f 0FB64510 		movzbl	16(%rbp), %eax
 1656 1053 488D5101 		leaq	1(%rcx), %rdx
 1657 1057 8801     		movb	%al, (%rcx)
 1658 1059 4839F2   		cmpq	%rsi, %rdx
 1659 105c 0F833EFF 		jnb	.L261
 1659      FFFF
 1660 1062 884101   		movb	%al, 1(%rcx)
 1661 1065 488D4102 		leaq	2(%rcx), %rax
 1662 1069 4839F0   		cmpq	%rsi, %rax
 1663 106c 0F832EFF 		jnb	.L261
 1663      FFFF
 1664 1072 0FB64510 		movzbl	16(%rbp), %eax
 1665 1076 488D5103 		leaq	3(%rcx), %rdx
 1666 107a 884102   		movb	%al, 2(%rcx)
 1667 107d 4839F2   		cmpq	%rsi, %rdx
 1668 1080 0F831AFF 		jnb	.L261
 1668      FFFF
 1669 1086 884103   		movb	%al, 3(%rcx)
 1670 1089 488D4104 		leaq	4(%rcx), %rax
 1671 108d 4839F0   		cmpq	%rsi, %rax
 1672 1090 0F830AFF 		jnb	.L261
 1672      FFFF
 1673 1096 0FB64510 		movzbl	16(%rbp), %eax
 1674 109a 488D5105 		leaq	5(%rcx), %rdx
 1675 109e 884104   		movb	%al, 4(%rcx)
 1676 10a1 4839F2   		cmpq	%rsi, %rdx
 1677 10a4 0F83F6FE 		jnb	.L261
 1677      FFFF
 1678 10aa 884105   		movb	%al, 5(%rcx)
 1679 10ad 488D4106 		leaq	6(%rcx), %rax
 1680 10b1 4839F0   		cmpq	%rsi, %rax
 1681 10b4 0F83E6FE 		jnb	.L261
 1681      FFFF
 1682 10ba 0FB64510 		movzbl	16(%rbp), %eax
 1683 10be 884106   		movb	%al, 6(%rcx)
 1684 10c1 E9DAFEFF 		jmp	.L261
 1684      FF
 1685              	.L262:
 1686 10c6 31FF     		xorl	%edi, %edi
 1687 10c8 E95BFFFF 		jmp	.L255
 1687      FF
 1688              	.L278:
 1689 10cd 31C0     		xorl	%eax, %eax
 1690 10cf 488D3500 		leaq	.LC1(%rip), %rsi
 1690      000000
 1691 10d6 4C89FF   		movq	%r15, %rdi
 1692 10d9 E8000000 		call	errRender@PLT
 1692      00
 1693 10de B8010000 		movl	$1, %eax
 1693      00
 1694 10e3 E9D3FEFF 		jmp	.L247
 1694      FF
 1695              		.cfi_endproc
 1696              	.LFE46:
 1698              		.section	.rodata.str1.1,"aMS",@progbits,1
 1699              	.LC2:
 1700 0000 62756657 		.string	"bufWriteByte()"
 1700      72697465 
 1700      42797465 
 1700      282900
 1701              		.text
 1702 10e8 0F1F8400 		.p2align 4
 1702      00000000 
 1703              		.globl	bufWriteByte
 1705              	bufWriteByte:
 1706              	.LFB48:
 1707              		.cfi_startproc
 1708 10f0 F30F1EFA 		endbr64
 1709 10f4 4157     		pushq	%r15
 1710              		.cfi_def_cfa_offset 16
 1711              		.cfi_offset 15, -16
 1712 10f6 4989CF   		movq	%rcx, %r15
 1713 10f9 4156     		pushq	%r14
 1714              		.cfi_def_cfa_offset 24
 1715              		.cfi_offset 14, -24
 1716 10fb 4189D6   		movl	%edx, %r14d
 1717 10fe 4155     		pushq	%r13
 1718              		.cfi_def_cfa_offset 32
 1719              		.cfi_offset 13, -32
 1720 1100 448D6E01 		leal	1(%rsi), %r13d
 1721 1104 4154     		pushq	%r12
 1722              		.cfi_def_cfa_offset 40
 1723              		.cfi_offset 12, -40
 1724 1106 55       		pushq	%rbp
 1725              		.cfi_def_cfa_offset 48
 1726              		.cfi_offset 6, -48
 1727 1107 89F5     		movl	%esi, %ebp
 1728 1109 53       		pushq	%rbx
 1729              		.cfi_def_cfa_offset 56
 1730              		.cfi_offset 3, -56
 1731 110a 4889FB   		movq	%rdi, %rbx
 1732 110d 4883EC18 		subq	$24, %rsp
 1733              		.cfi_def_cfa_offset 80
 1734 1111 8B4708   		movl	8(%rdi), %eax
 1735 1114 488B3F   		movq	(%rdi), %rdi
 1736 1117 39C6     		cmpl	%eax, %esi
 1737 1119 0F821101 		jb	.L280
 1737      0000
 1738 111f 448B630C 		movl	12(%rbx), %r12d
 1739 1123 4539EC   		cmpl	%r13d, %r12d
 1740 1126 7278     		jb	.L282
 1741              	.L281:
 1742 1128 89C1     		movl	%eax, %ecx
 1743 112a 4189E8   		movl	%ebp, %r8d
 1744 112d 488D340F 		leaq	(%rdi,%rcx), %rsi
 1745 1131 4A8D1407 		leaq	(%rdi,%r8), %rdx
 1746 1135 4889F0   		movq	%rsi, %rax
 1747 1138 4839D6   		cmpq	%rdx, %rsi
 1748 113b 7349     		jnb	.L295
 1749 113d 4C89C7   		movq	%r8, %rdi
 1750 1140 4829CF   		subq	%rcx, %rdi
 1751 1143 488D4FFF 		leaq	-1(%rdi), %rcx
 1752 1147 4883F906 		cmpq	$6, %rcx
 1753 114b 7623     		jbe	.L303
 1754 114d 4C8D4B10 		leaq	16(%rbx), %r9
 1755 1151 4939D1   		cmpq	%rdx, %r9
 1756 1154 0F83C601 		jnb	.L323
 1756      0000
 1757 115a 4C8D4B11 		leaq	17(%rbx), %r9
 1758 115e 4939F1   		cmpq	%rsi, %r9
 1759 1161 0F86B901 		jbe	.L323
 1759      0000
 1760 1167 660F1F84 		.p2align 4,,10
 1760      00000000 
 1760      00
 1761              		.p2align 3
 1762              	.L303:
 1763 1170 0FB64B10 		movzbl	16(%rbx), %ecx
 1764 1174 4883C001 		addq	$1, %rax
 1765 1178 8848FF   		movb	%cl, -1(%rax)
 1766 117b 4839D0   		cmpq	%rdx, %rax
 1767 117e 75F0     		jne	.L303
 1768              	.L304:
 1769 1180 488B13   		movq	(%rbx), %rdx
 1770 1183 4C01C2   		addq	%r8, %rdx
 1771              	.L295:
 1772 1186 44896B08 		movl	%r13d, 8(%rbx)
 1773              	.L305:
 1774              	.L284:
 1775 118a 448832   		movb	%r14b, (%rdx)
 1776 118d 4883C418 		addq	$24, %rsp
 1777              		.cfi_remember_state
 1778              		.cfi_def_cfa_offset 56
 1779 1191 31C0     		xorl	%eax, %eax
 1780 1193 5B       		popq	%rbx
 1781              		.cfi_def_cfa_offset 48
 1782 1194 5D       		popq	%rbp
 1783              		.cfi_def_cfa_offset 40
 1784 1195 415C     		popq	%r12
 1785              		.cfi_def_cfa_offset 32
 1786 1197 415D     		popq	%r13
 1787              		.cfi_def_cfa_offset 24
 1788 1199 415E     		popq	%r14
 1789              		.cfi_def_cfa_offset 16
 1790 119b 415F     		popq	%r15
 1791              		.cfi_def_cfa_offset 8
 1792 119d C3       		ret
 1793 119e 6690     		.p2align 4,,10
 1794              		.p2align 3
 1795              	.L282:
 1796              		.cfi_restore_state
 1797 11a0 4501E4   		addl	%r12d, %r12d
 1798 11a3 4539EC   		cmpl	%r13d, %r12d
 1799 11a6 72F8     		jb	.L282
 1800 11a8 4489E2   		movl	%r12d, %edx
 1801 11ab 4889D6   		movq	%rdx, %rsi
 1802 11ae 48895424 		movq	%rdx, 8(%rsp)
 1802      08
 1803 11b3 E8000000 		call	realloc@PLT
 1803      00
 1804 11b8 488B5424 		movq	8(%rsp), %rdx
 1804      08
 1805 11bd 4885C0   		testq	%rax, %rax
 1806 11c0 488903   		movq	%rax, (%rbx)
 1807 11c3 4889C7   		movq	%rax, %rdi
 1808 11c6 0F841E01 		je	.L309
 1808      0000
 1809 11cc 4489E9   		movl	%r13d, %ecx
 1810 11cf 488D3417 		leaq	(%rdi,%rdx), %rsi
 1811 11d3 4489630C 		movl	%r12d, 12(%rbx)
 1812 11d7 4C8D0408 		leaq	(%rax,%rcx), %r8
 1813 11db 4C89C0   		movq	%r8, %rax
 1814 11de 4939F0   		cmpq	%rsi, %r8
 1815 11e1 7340     		jnb	.L364
 1816 11e3 4829CA   		subq	%rcx, %rdx
 1817 11e6 488D4AFF 		leaq	-1(%rdx), %rcx
 1818 11ea 4883F906 		cmpq	$6, %rcx
 1819 11ee 7620     		jbe	.L293
 1820 11f0 488D7B10 		leaq	16(%rbx), %rdi
 1821 11f4 4839F7   		cmpq	%rsi, %rdi
 1822 11f7 0F832302 		jnb	.L322
 1822      0000
 1823 11fd 488D7B11 		leaq	17(%rbx), %rdi
 1824 1201 4C39C7   		cmpq	%r8, %rdi
 1825 1204 0F861602 		jbe	.L322
 1825      0000
 1826 120a 660F1F44 		.p2align 4,,10
 1826      0000
 1827              		.p2align 3
 1828              	.L293:
 1829 1210 0FB65310 		movzbl	16(%rbx), %edx
 1830 1214 4883C001 		addq	$1, %rax
 1831 1218 8850FF   		movb	%dl, -1(%rax)
 1832 121b 4839C6   		cmpq	%rax, %rsi
 1833 121e 75F0     		jne	.L293
 1834              	.L294:
 1835 1220 488B3B   		movq	(%rbx), %rdi
 1836              	.L364:
 1837 1223 8B4308   		movl	8(%rbx), %eax
 1838 1226 E9FDFEFF 		jmp	.L281
 1838      FF
 1839 122b 0F1F4400 		.p2align 4,,10
 1839      00
 1840              		.p2align 3
 1841              	.L280:
 1842 1230 4439E8   		cmpl	%r13d, %eax
 1843 1233 0F83A700 		jnb	.L306
 1843      0000
 1844 1239 448B630C 		movl	12(%rbx), %r12d
 1845 123d 4539EC   		cmpl	%r13d, %r12d
 1846 1240 720E     		jb	.L308
 1847              	.L307:
 1848 1242 89EA     		movl	%ebp, %edx
 1849 1244 44896B08 		movl	%r13d, 8(%rbx)
 1850 1248 4801FA   		addq	%rdi, %rdx
 1851 124b E93AFFFF 		jmp	.L305
 1851      FF
 1852              		.p2align 4,,10
 1853              		.p2align 3
 1854              	.L308:
 1855 1250 4501E4   		addl	%r12d, %r12d
 1856 1253 4539EC   		cmpl	%r13d, %r12d
 1857 1256 72F8     		jb	.L308
 1858 1258 4489E2   		movl	%r12d, %edx
 1859 125b 4889D6   		movq	%rdx, %rsi
 1860 125e 48895424 		movq	%rdx, 8(%rsp)
 1860      08
 1861 1263 E8000000 		call	realloc@PLT
 1861      00
 1862 1268 488903   		movq	%rax, (%rbx)
 1863 126b 4889C7   		movq	%rax, %rdi
 1864 126e 4885C0   		testq	%rax, %rax
 1865 1271 7477     		je	.L309
 1866 1273 488B5424 		movq	8(%rsp), %rdx
 1866      08
 1867 1278 4489E9   		movl	%r13d, %ecx
 1868 127b 4489630C 		movl	%r12d, 12(%rbx)
 1869 127f 4C8D0408 		leaq	(%rax,%rcx), %r8
 1870 1283 488D3417 		leaq	(%rdi,%rdx), %rsi
 1871 1287 4C89C0   		movq	%r8, %rax
 1872 128a 4939F0   		cmpq	%rsi, %r8
 1873 128d 73B3     		jnb	.L307
 1874 128f 4829CA   		subq	%rcx, %rdx
 1875 1292 488D4AFF 		leaq	-1(%rdx), %rcx
 1876 1296 4883F906 		cmpq	$6, %rcx
 1877 129a 7624     		jbe	.L317
 1878 129c 488D7B10 		leaq	16(%rbx), %rdi
 1879 12a0 4839F7   		cmpq	%rsi, %rdi
 1880 12a3 0F837302 		jnb	.L324
 1880      0000
 1881 12a9 488D7B11 		leaq	17(%rbx), %rdi
 1882 12ad 4C39C7   		cmpq	%r8, %rdi
 1883 12b0 0F866602 		jbe	.L324
 1883      0000
 1884 12b6 662E0F1F 		.p2align 4,,10
 1884      84000000 
 1884      0000
 1885              		.p2align 3
 1886              	.L317:
 1887 12c0 0FB65310 		movzbl	16(%rbx), %edx
 1888 12c4 4883C001 		addq	$1, %rax
 1889 12c8 8850FF   		movb	%dl, -1(%rax)
 1890 12cb 4839C6   		cmpq	%rax, %rsi
 1891 12ce 75F0     		jne	.L317
 1892              	.L318:
 1893 12d0 488B3B   		movq	(%rbx), %rdi
 1894 12d3 E96AFFFF 		jmp	.L307
 1894      FF
 1895 12d8 0F1F8400 		.p2align 4,,10
 1895      00000000 
 1896              		.p2align 3
 1897              	.L306:
 1898 12e0 89F2     		movl	%esi, %edx
 1899 12e2 4801FA   		addq	%rdi, %rdx
 1900 12e5 E9A0FEFF 		jmp	.L305
 1900      FF
 1901              	.L309:
 1902 12ea 4C89FF   		movq	%r15, %rdi
 1903 12ed 31C0     		xorl	%eax, %eax
 1904 12ef 488D3500 		leaq	.LC1(%rip), %rsi
 1904      000000
 1905 12f6 E8000000 		call	errRender@PLT
 1905      00
 1906 12fb 4C89FF   		movq	%r15, %rdi
 1907 12fe 488D3500 		leaq	.LC2(%rip), %rsi
 1907      000000
 1908 1305 E8000000 		call	errPrefix@PLT
 1908      00
 1909 130a 4883C418 		addq	$24, %rsp
 1910              		.cfi_remember_state
 1911              		.cfi_def_cfa_offset 56
 1912 130e B8010000 		movl	$1, %eax
 1912      00
 1913 1313 5B       		popq	%rbx
 1914              		.cfi_def_cfa_offset 48
 1915 1314 5D       		popq	%rbp
 1916              		.cfi_def_cfa_offset 40
 1917 1315 415C     		popq	%r12
 1918              		.cfi_def_cfa_offset 32
 1919 1317 415D     		popq	%r13
 1920              		.cfi_def_cfa_offset 24
 1921 1319 415E     		popq	%r14
 1922              		.cfi_def_cfa_offset 16
 1923 131b 415F     		popq	%r15
 1924              		.cfi_def_cfa_offset 8
 1925 131d C3       		ret
 1926 131e 6690     		.p2align 4,,10
 1927              		.p2align 3
 1928              	.L323:
 1929              		.cfi_restore_state
 1930 1320 4883F90E 		cmpq	$14, %rcx
 1931 1324 0F86F202 		jbe	.L320
 1931      0000
 1932 132a 0FB64B10 		movzbl	16(%rbx), %ecx
 1933 132e 4889F0   		movq	%rsi, %rax
 1934 1331 660F6EC1 		movd	%ecx, %xmm0
 1935 1335 4889F9   		movq	%rdi, %rcx
 1936 1338 660F60C0 		punpcklbw	%xmm0, %xmm0
 1937 133c 4883E1F0 		andq	$-16, %rcx
 1938 1340 660F61C0 		punpcklwd	%xmm0, %xmm0
 1939 1344 4801F1   		addq	%rsi, %rcx
 1940 1347 660F70C0 		pshufd	$0, %xmm0, %xmm0
 1940      00
 1941 134c 0F1F4000 		.p2align 4,,10
 1942              		.p2align 3
 1943              	.L299:
 1944 1350 0F1100   		movups	%xmm0, (%rax)
 1945 1353 4883C010 		addq	$16, %rax
 1946 1357 4839C1   		cmpq	%rax, %rcx
 1947 135a 75F4     		jne	.L299
 1948 135c 4989F9   		movq	%rdi, %r9
 1949 135f 4983E1F0 		andq	$-16, %r9
 1950 1363 4A8D040E 		leaq	(%rsi,%r9), %rax
 1951 1367 40F6C70F 		testb	$15, %dil
 1952 136b 0F840FFE 		je	.L304
 1952      FFFF
 1953 1371 4C29CF   		subq	%r9, %rdi
 1954 1374 488D4FFF 		leaq	-1(%rdi), %rcx
 1955 1378 4883F906 		cmpq	$6, %rcx
 1956 137c 7628     		jbe	.L301
 1957              	.L298:
 1958 137e 0FB64B10 		movzbl	16(%rbx), %ecx
 1959 1382 88CD     		movb	%cl, %ch
 1960 1384 660F6EC9 		movd	%ecx, %xmm1
 1961 1388 4889F9   		movq	%rdi, %rcx
 1962 138b 4883E1F8 		andq	$-8, %rcx
 1963 138f F20F70C1 		pshuflw	$0, %xmm1, %xmm0
 1963      00
 1964 1394 4801C8   		addq	%rcx, %rax
 1965 1397 83E707   		andl	$7, %edi
 1966 139a 66420FD6 		movq	%xmm0, (%rsi,%r9)
 1966      040E
 1967 13a0 0F84DAFD 		je	.L304
 1967      FFFF
 1968              	.L301:
 1969 13a6 0FB64B10 		movzbl	16(%rbx), %ecx
 1970 13aa 488D7001 		leaq	1(%rax), %rsi
 1971 13ae 8808     		movb	%cl, (%rax)
 1972 13b0 4839D6   		cmpq	%rdx, %rsi
 1973 13b3 0F83C7FD 		jnb	.L304
 1973      FFFF
 1974 13b9 884801   		movb	%cl, 1(%rax)
 1975 13bc 488D4802 		leaq	2(%rax), %rcx
 1976 13c0 4839D1   		cmpq	%rdx, %rcx
 1977 13c3 0F83B7FD 		jnb	.L304
 1977      FFFF
 1978 13c9 0FB64B10 		movzbl	16(%rbx), %ecx
 1979 13cd 488D7003 		leaq	3(%rax), %rsi
 1980 13d1 884802   		movb	%cl, 2(%rax)
 1981 13d4 4839D6   		cmpq	%rdx, %rsi
 1982 13d7 0F83A3FD 		jnb	.L304
 1982      FFFF
 1983 13dd 884803   		movb	%cl, 3(%rax)
 1984 13e0 488D4804 		leaq	4(%rax), %rcx
 1985 13e4 4839D1   		cmpq	%rdx, %rcx
 1986 13e7 0F8393FD 		jnb	.L304
 1986      FFFF
 1987 13ed 0FB64B10 		movzbl	16(%rbx), %ecx
 1988 13f1 488D7005 		leaq	5(%rax), %rsi
 1989 13f5 884804   		movb	%cl, 4(%rax)
 1990 13f8 4839D6   		cmpq	%rdx, %rsi
 1991 13fb 0F837FFD 		jnb	.L304
 1991      FFFF
 1992 1401 884805   		movb	%cl, 5(%rax)
 1993 1404 488D4806 		leaq	6(%rax), %rcx
 1994 1408 4839D1   		cmpq	%rdx, %rcx
 1995 140b 0F836FFD 		jnb	.L304
 1995      FFFF
 1996 1411 0FB65310 		movzbl	16(%rbx), %edx
 1997 1415 885006   		movb	%dl, 6(%rax)
 1998 1418 E963FDFF 		jmp	.L304
 1998      FF
 1999 141d 0F1F00   		.p2align 4,,10
 2000              		.p2align 3
 2001              	.L322:
 2002 1420 4883F90E 		cmpq	$14, %rcx
 2003 1424 0F86FA01 		jbe	.L319
 2003      0000
 2004 142a 0FB64B10 		movzbl	16(%rbx), %ecx
 2005 142e 4C89C0   		movq	%r8, %rax
 2006 1431 660F6EC1 		movd	%ecx, %xmm0
 2007 1435 4889D1   		movq	%rdx, %rcx
 2008 1438 660F60C0 		punpcklbw	%xmm0, %xmm0
 2009 143c 4883E1F0 		andq	$-16, %rcx
 2010 1440 660F61C0 		punpcklwd	%xmm0, %xmm0
 2011 1444 4C01C1   		addq	%r8, %rcx
 2012 1447 660F70C0 		pshufd	$0, %xmm0, %xmm0
 2012      00
 2013 144c 0F1F4000 		.p2align 4,,10
 2014              		.p2align 3
 2015              	.L289:
 2016 1450 0F1100   		movups	%xmm0, (%rax)
 2017 1453 4883C010 		addq	$16, %rax
 2018 1457 4839C8   		cmpq	%rcx, %rax
 2019 145a 75F4     		jne	.L289
 2020 145c 4889D7   		movq	%rdx, %rdi
 2021 145f 4883E7F0 		andq	$-16, %rdi
 2022 1463 498D0438 		leaq	(%r8,%rdi), %rax
 2023 1467 F6C20F   		testb	$15, %dl
 2024 146a 0F84B0FD 		je	.L294
 2024      FFFF
 2025 1470 4829FA   		subq	%rdi, %rdx
 2026 1473 488D4AFF 		leaq	-1(%rdx), %rcx
 2027 1477 4883F906 		cmpq	$6, %rcx
 2028 147b 7628     		jbe	.L291
 2029              	.L288:
 2030 147d 0FB64B10 		movzbl	16(%rbx), %ecx
 2031 1481 88CD     		movb	%cl, %ch
 2032 1483 660F6ED1 		movd	%ecx, %xmm2
 2033 1487 4889D1   		movq	%rdx, %rcx
 2034 148a 4883E1F8 		andq	$-8, %rcx
 2035 148e F20F70C2 		pshuflw	$0, %xmm2, %xmm0
 2035      00
 2036 1493 4801C8   		addq	%rcx, %rax
 2037 1496 83E207   		andl	$7, %edx
 2038 1499 66410FD6 		movq	%xmm0, (%r8,%rdi)
 2038      0438
 2039 149f 0F847BFD 		je	.L294
 2039      FFFF
 2040              	.L291:
 2041 14a5 0FB65310 		movzbl	16(%rbx), %edx
 2042 14a9 488D4801 		leaq	1(%rax), %rcx
 2043 14ad 8810     		movb	%dl, (%rax)
 2044 14af 4839F1   		cmpq	%rsi, %rcx
 2045 14b2 0F8368FD 		jnb	.L294
 2045      FFFF
 2046 14b8 885001   		movb	%dl, 1(%rax)
 2047 14bb 488D5002 		leaq	2(%rax), %rdx
 2048 14bf 4839F2   		cmpq	%rsi, %rdx
 2049 14c2 0F8358FD 		jnb	.L294
 2049      FFFF
 2050 14c8 0FB65310 		movzbl	16(%rbx), %edx
 2051 14cc 488D4803 		leaq	3(%rax), %rcx
 2052 14d0 885002   		movb	%dl, 2(%rax)
 2053 14d3 4839F1   		cmpq	%rsi, %rcx
 2054 14d6 0F8344FD 		jnb	.L294
 2054      FFFF
 2055 14dc 885003   		movb	%dl, 3(%rax)
 2056 14df 488D5004 		leaq	4(%rax), %rdx
 2057 14e3 4839F2   		cmpq	%rsi, %rdx
 2058 14e6 0F8334FD 		jnb	.L294
 2058      FFFF
 2059 14ec 0FB65310 		movzbl	16(%rbx), %edx
 2060 14f0 488D4805 		leaq	5(%rax), %rcx
 2061 14f4 885004   		movb	%dl, 4(%rax)
 2062 14f7 4839F1   		cmpq	%rsi, %rcx
 2063 14fa 0F8320FD 		jnb	.L294
 2063      FFFF
 2064 1500 885005   		movb	%dl, 5(%rax)
 2065 1503 488D5006 		leaq	6(%rax), %rdx
 2066 1507 4839F2   		cmpq	%rsi, %rdx
 2067 150a 0F8310FD 		jnb	.L294
 2067      FFFF
 2068 1510 0FB65310 		movzbl	16(%rbx), %edx
 2069 1514 885006   		movb	%dl, 6(%rax)
 2070 1517 E904FDFF 		jmp	.L294
 2070      FF
 2071              	.L324:
 2072 151c 4883F90E 		cmpq	$14, %rcx
 2073 1520 0F860501 		jbe	.L321
 2073      0000
 2074 1526 0FB64B10 		movzbl	16(%rbx), %ecx
 2075 152a 4C89C0   		movq	%r8, %rax
 2076 152d 660F6EC1 		movd	%ecx, %xmm0
 2077 1531 4889D1   		movq	%rdx, %rcx
 2078 1534 660F60C0 		punpcklbw	%xmm0, %xmm0
 2079 1538 4883E1F0 		andq	$-16, %rcx
 2080 153c 660F61C0 		punpcklwd	%xmm0, %xmm0
 2081 1540 4C01C1   		addq	%r8, %rcx
 2082 1543 660F70C0 		pshufd	$0, %xmm0, %xmm0
 2082      00
 2083 1548 0F1F8400 		.p2align 4,,10
 2083      00000000 
 2084              		.p2align 3
 2085              	.L313:
 2086 1550 0F1100   		movups	%xmm0, (%rax)
 2087 1553 4883C010 		addq	$16, %rax
 2088 1557 4839C8   		cmpq	%rcx, %rax
 2089 155a 75F4     		jne	.L313
 2090 155c 4889D7   		movq	%rdx, %rdi
 2091 155f 4883E7F0 		andq	$-16, %rdi
 2092 1563 498D0438 		leaq	(%r8,%rdi), %rax
 2093 1567 F6C20F   		testb	$15, %dl
 2094 156a 0F8460FD 		je	.L318
 2094      FFFF
 2095 1570 4829FA   		subq	%rdi, %rdx
 2096 1573 488D4AFF 		leaq	-1(%rdx), %rcx
 2097 1577 4883F906 		cmpq	$6, %rcx
 2098 157b 7628     		jbe	.L315
 2099              	.L312:
 2100 157d 0FB64B10 		movzbl	16(%rbx), %ecx
 2101 1581 88CD     		movb	%cl, %ch
 2102 1583 660F6ED9 		movd	%ecx, %xmm3
 2103 1587 4889D1   		movq	%rdx, %rcx
 2104 158a 4883E1F8 		andq	$-8, %rcx
 2105 158e F20F70C3 		pshuflw	$0, %xmm3, %xmm0
 2105      00
 2106 1593 4801C8   		addq	%rcx, %rax
 2107 1596 83E207   		andl	$7, %edx
 2108 1599 66410FD6 		movq	%xmm0, (%r8,%rdi)
 2108      0438
 2109 159f 0F842BFD 		je	.L318
 2109      FFFF
 2110              	.L315:
 2111 15a5 0FB65310 		movzbl	16(%rbx), %edx
 2112 15a9 488D4801 		leaq	1(%rax), %rcx
 2113 15ad 8810     		movb	%dl, (%rax)
 2114 15af 4839F1   		cmpq	%rsi, %rcx
 2115 15b2 0F8318FD 		jnb	.L318
 2115      FFFF
 2116 15b8 885001   		movb	%dl, 1(%rax)
 2117 15bb 488D5002 		leaq	2(%rax), %rdx
 2118 15bf 4839F2   		cmpq	%rsi, %rdx
 2119 15c2 0F8308FD 		jnb	.L318
 2119      FFFF
 2120 15c8 0FB65310 		movzbl	16(%rbx), %edx
 2121 15cc 488D4803 		leaq	3(%rax), %rcx
 2122 15d0 885002   		movb	%dl, 2(%rax)
 2123 15d3 4839F1   		cmpq	%rsi, %rcx
 2124 15d6 0F83F4FC 		jnb	.L318
 2124      FFFF
 2125 15dc 885003   		movb	%dl, 3(%rax)
 2126 15df 488D5004 		leaq	4(%rax), %rdx
 2127 15e3 4839F2   		cmpq	%rsi, %rdx
 2128 15e6 0F83E4FC 		jnb	.L318
 2128      FFFF
 2129 15ec 0FB65310 		movzbl	16(%rbx), %edx
 2130 15f0 488D4805 		leaq	5(%rax), %rcx
 2131 15f4 885004   		movb	%dl, 4(%rax)
 2132 15f7 4839F1   		cmpq	%rsi, %rcx
 2133 15fa 0F83D0FC 		jnb	.L318
 2133      FFFF
 2134 1600 885005   		movb	%dl, 5(%rax)
 2135 1603 488D5006 		leaq	6(%rax), %rdx
 2136 1607 4839F2   		cmpq	%rsi, %rdx
 2137 160a 0F83C0FC 		jnb	.L318
 2137      FFFF
 2138 1610 0FB65310 		movzbl	16(%rbx), %edx
 2139 1614 885006   		movb	%dl, 6(%rax)
 2140 1617 E9B4FCFF 		jmp	.L318
 2140      FF
 2141              	.L320:
 2142 161c 4531C9   		xorl	%r9d, %r9d
 2143 161f E95AFDFF 		jmp	.L298
 2143      FF
 2144              	.L319:
 2145 1624 31FF     		xorl	%edi, %edi
 2146 1626 E952FEFF 		jmp	.L288
 2146      FF
 2147              	.L321:
 2148 162b 31FF     		xorl	%edi, %edi
 2149 162d E94BFFFF 		jmp	.L312
 2149      FF
 2150              		.cfi_endproc
 2151              	.LFE48:
 2153              		.section	.rodata.str1.1
 2154              	.LC3:
 2155 000f 62756657 		.string	"bufWriteWordLE()"
 2155      72697465 
 2155      576F7264 
 2155      4C452829 
 2155      00
 2156              		.text
 2157 1632 66662E0F 		.p2align 4
 2157      1F840000 
 2157      0000000F 
 2157      1F00
 2158              		.globl	bufWriteWordLE
 2160              	bufWriteWordLE:
 2161              	.LFB49:
 2162              		.cfi_startproc
 2163 1640 F30F1EFA 		endbr64
 2164 1644 4157     		pushq	%r15
 2165              		.cfi_def_cfa_offset 16
 2166              		.cfi_offset 15, -16
 2167 1646 4989CF   		movq	%rcx, %r15
 2168 1649 4156     		pushq	%r14
 2169              		.cfi_def_cfa_offset 24
 2170              		.cfi_offset 14, -24
 2171 164b 4189D6   		movl	%edx, %r14d
 2172 164e 4155     		pushq	%r13
 2173              		.cfi_def_cfa_offset 32
 2174              		.cfi_offset 13, -32
 2175 1650 4154     		pushq	%r12
 2176              		.cfi_def_cfa_offset 40
 2177              		.cfi_offset 12, -40
 2178 1652 4189F4   		movl	%esi, %r12d
 2179 1655 55       		pushq	%rbp
 2180              		.cfi_def_cfa_offset 48
 2181              		.cfi_offset 6, -48
 2182 1656 458D6C24 		leal	2(%r12), %r13d
 2182      02
 2183 165b 53       		pushq	%rbx
 2184              		.cfi_def_cfa_offset 56
 2185              		.cfi_offset 3, -56
 2186 165c 4889FB   		movq	%rdi, %rbx
 2187 165f 4883EC18 		subq	$24, %rsp
 2188              		.cfi_def_cfa_offset 80
 2189 1663 8B4708   		movl	8(%rdi), %eax
 2190 1666 488B3F   		movq	(%rdi), %rdi
 2191 1669 4139C4   		cmpl	%eax, %r12d
 2192 166c 0F821E01 		jb	.L366
 2192      0000
 2193 1672 8B6B0C   		movl	12(%rbx), %ebp
 2194 1675 4439ED   		cmpl	%r13d, %ebp
 2195 1678 0F828200 		jb	.L368
 2195      0000
 2196              	.L367:
 2197 167e 89C1     		movl	%eax, %ecx
 2198 1680 4589E4   		movl	%r12d, %r12d
 2199 1683 488D340F 		leaq	(%rdi,%rcx), %rsi
 2200 1687 4A8D1427 		leaq	(%rdi,%r12), %rdx
 2201 168b 4889F0   		movq	%rsi, %rax
 2202 168e 4839D6   		cmpq	%rdx, %rsi
 2203 1691 7343     		jnb	.L381
 2204 1693 4C89E7   		movq	%r12, %rdi
 2205 1696 4829CF   		subq	%rcx, %rdi
 2206 1699 488D4FFF 		leaq	-1(%rdi), %rcx
 2207 169d 4883F906 		cmpq	$6, %rcx
 2208 16a1 761D     		jbe	.L389
 2209 16a3 4C8D4310 		leaq	16(%rbx), %r8
 2210 16a7 4939D0   		cmpq	%rdx, %r8
 2211 16aa 0F83D001 		jnb	.L409
 2211      0000
 2212 16b0 4C8D4311 		leaq	17(%rbx), %r8
 2213 16b4 4939F0   		cmpq	%rsi, %r8
 2214 16b7 0F86C301 		jbe	.L409
 2214      0000
 2215 16bd 0F1F00   		.p2align 4,,10
 2216              		.p2align 3
 2217              	.L389:
 2218 16c0 0FB64B10 		movzbl	16(%rbx), %ecx
 2219 16c4 4883C001 		addq	$1, %rax
 2220 16c8 8848FF   		movb	%cl, -1(%rax)
 2221 16cb 4839C2   		cmpq	%rax, %rdx
 2222 16ce 75F0     		jne	.L389
 2223              	.L390:
 2224 16d0 488B13   		movq	(%rbx), %rdx
 2225 16d3 4C01E2   		addq	%r12, %rdx
 2226              	.L381:
 2227 16d6 44896B08 		movl	%r13d, 8(%rbx)
 2228              	.L391:
 2229              	.L370:
 2230 16da 448832   		movb	%r14b, (%rdx)
 2231 16dd 488B03   		movq	(%rbx), %rax
 2232 16e0 4489F3   		movl	%r14d, %ebx
 2233 16e3 0FB6DF   		movzbl	%bh, %ebx
 2234 16e6 42885C20 		movb	%bl, 1(%rax,%r12)
 2234      01
 2235 16eb 4883C418 		addq	$24, %rsp
 2236              		.cfi_remember_state
 2237              		.cfi_def_cfa_offset 56
 2238 16ef 31C0     		xorl	%eax, %eax
 2239 16f1 5B       		popq	%rbx
 2240              		.cfi_def_cfa_offset 48
 2241 16f2 5D       		popq	%rbp
 2242              		.cfi_def_cfa_offset 40
 2243 16f3 415C     		popq	%r12
 2244              		.cfi_def_cfa_offset 32
 2245 16f5 415D     		popq	%r13
 2246              		.cfi_def_cfa_offset 24
 2247 16f7 415E     		popq	%r14
 2248              		.cfi_def_cfa_offset 16
 2249 16f9 415F     		popq	%r15
 2250              		.cfi_def_cfa_offset 8
 2251 16fb C3       		ret
 2252 16fc 0F1F4000 		.p2align 4,,10
 2253              		.p2align 3
 2254              	.L368:
 2255              		.cfi_restore_state
 2256 1700 01ED     		addl	%ebp, %ebp
 2257 1702 4439ED   		cmpl	%r13d, %ebp
 2258 1705 72F9     		jb	.L368
 2259 1707 89EA     		movl	%ebp, %edx
 2260 1709 4889D6   		movq	%rdx, %rsi
 2261 170c 48895424 		movq	%rdx, 8(%rsp)
 2261      08
 2262 1711 E8000000 		call	realloc@PLT
 2262      00
 2263 1716 488B5424 		movq	8(%rsp), %rdx
 2263      08
 2264 171b 4885C0   		testq	%rax, %rax
 2265 171e 488903   		movq	%rax, (%rbx)
 2266 1721 4889C7   		movq	%rax, %rdi
 2267 1724 0F841F01 		je	.L395
 2267      0000
 2268 172a 4589E9   		movl	%r13d, %r9d
 2269 172d 488D3417 		leaq	(%rdi,%rdx), %rsi
 2270 1731 896B0C   		movl	%ebp, 12(%rbx)
 2271 1734 4E8D0408 		leaq	(%rax,%r9), %r8
 2272 1738 4C89C0   		movq	%r8, %rax
 2273 173b 4939F0   		cmpq	%rsi, %r8
 2274 173e 7343     		jnb	.L450
 2275 1740 4C29CA   		subq	%r9, %rdx
 2276 1743 488D4AFF 		leaq	-1(%rdx), %rcx
 2277 1747 4883F906 		cmpq	$6, %rcx
 2278 174b 7623     		jbe	.L379
 2279 174d 488D7B10 		leaq	16(%rbx), %rdi
 2280 1751 4839F7   		cmpq	%rsi, %rdi
 2281 1754 0F832602 		jnb	.L408
 2281      0000
 2282 175a 488D7B11 		leaq	17(%rbx), %rdi
 2283 175e 4C39C7   		cmpq	%r8, %rdi
 2284 1761 0F861902 		jbe	.L408
 2284      0000
 2285 1767 660F1F84 		.p2align 4,,10
 2285      00000000 
 2285      00
 2286              		.p2align 3
 2287              	.L379:
 2288 1770 0FB65310 		movzbl	16(%rbx), %edx
 2289 1774 4883C001 		addq	$1, %rax
 2290 1778 8850FF   		movb	%dl, -1(%rax)
 2291 177b 4839C6   		cmpq	%rax, %rsi
 2292 177e 75F0     		jne	.L379
 2293              	.L380:
 2294 1780 488B3B   		movq	(%rbx), %rdi
 2295              	.L450:
 2296 1783 8B4308   		movl	8(%rbx), %eax
 2297 1786 E9F3FEFF 		jmp	.L367
 2297      FF
 2298 178b 0F1F4400 		.p2align 4,,10
 2298      00
 2299              		.p2align 3
 2300              	.L366:
 2301 1790 4439E8   		cmpl	%r13d, %eax
 2302 1793 0F83A700 		jnb	.L392
 2302      0000
 2303 1799 8B6B0C   		movl	12(%rbx), %ebp
 2304 179c 4439ED   		cmpl	%r13d, %ebp
 2305 179f 7217     		jb	.L394
 2306              	.L393:
 2307 17a1 4589E4   		movl	%r12d, %r12d
 2308 17a4 44896B08 		movl	%r13d, 8(%rbx)
 2309 17a8 4A8D1427 		leaq	(%rdi,%r12), %rdx
 2310 17ac E929FFFF 		jmp	.L391
 2310      FF
 2311              		.p2align 4,,10
 2312 17b1 0F1F8000 		.p2align 3
 2312      000000
 2313              	.L394:
 2314 17b8 01ED     		addl	%ebp, %ebp
 2315 17ba 4439ED   		cmpl	%r13d, %ebp
 2316 17bd 72F9     		jb	.L394
 2317 17bf 89EA     		movl	%ebp, %edx
 2318 17c1 4889D6   		movq	%rdx, %rsi
 2319 17c4 48895424 		movq	%rdx, 8(%rsp)
 2319      08
 2320 17c9 E8000000 		call	realloc@PLT
 2320      00
 2321 17ce 488903   		movq	%rax, (%rbx)
 2322 17d1 4889C7   		movq	%rax, %rdi
 2323 17d4 4885C0   		testq	%rax, %rax
 2324 17d7 7470     		je	.L395
 2325 17d9 488B5424 		movq	8(%rsp), %rdx
 2325      08
 2326 17de 4589E9   		movl	%r13d, %r9d
 2327 17e1 896B0C   		movl	%ebp, 12(%rbx)
 2328 17e4 4E8D0408 		leaq	(%rax,%r9), %r8
 2329 17e8 488D3417 		leaq	(%rdi,%rdx), %rsi
 2330 17ec 4C89C0   		movq	%r8, %rax
 2331 17ef 4939F0   		cmpq	%rsi, %r8
 2332 17f2 73AD     		jnb	.L393
 2333 17f4 4C29CA   		subq	%r9, %rdx
 2334 17f7 488D4AFF 		leaq	-1(%rdx), %rcx
 2335 17fb 4883F906 		cmpq	$6, %rcx
 2336 17ff 761F     		jbe	.L403
 2337 1801 488D7B10 		leaq	16(%rbx), %rdi
 2338 1805 4839F7   		cmpq	%rsi, %rdi
 2339 1808 0F836E02 		jnb	.L410
 2339      0000
 2340 180e 488D7B11 		leaq	17(%rbx), %rdi
 2341 1812 4C39C7   		cmpq	%r8, %rdi
 2342 1815 0F866102 		jbe	.L410
 2342      0000
 2343 181b 0F1F4400 		.p2align 4,,10
 2343      00
 2344              		.p2align 3
 2345              	.L403:
 2346 1820 0FB65310 		movzbl	16(%rbx), %edx
 2347 1824 4883C001 		addq	$1, %rax
 2348 1828 8850FF   		movb	%dl, -1(%rax)
 2349 182b 4839C6   		cmpq	%rax, %rsi
 2350 182e 75F0     		jne	.L403
 2351              	.L404:
 2352 1830 488B3B   		movq	(%rbx), %rdi
 2353 1833 E969FFFF 		jmp	.L393
 2353      FF
 2354 1838 0F1F8400 		.p2align 4,,10
 2354      00000000 
 2355              		.p2align 3
 2356              	.L392:
 2357 1840 4A8D1427 		leaq	(%rdi,%r12), %rdx
 2358 1844 E991FEFF 		jmp	.L391
 2358      FF
 2359              	.L395:
 2360 1849 4C89FF   		movq	%r15, %rdi
 2361 184c 31C0     		xorl	%eax, %eax
 2362 184e 488D3500 		leaq	.LC1(%rip), %rsi
 2362      000000
 2363 1855 E8000000 		call	errRender@PLT
 2363      00
 2364 185a 4C89FF   		movq	%r15, %rdi
 2365 185d 488D3500 		leaq	.LC3(%rip), %rsi
 2365      000000
 2366 1864 E8000000 		call	errPrefix@PLT
 2366      00
 2367 1869 4883C418 		addq	$24, %rsp
 2368              		.cfi_remember_state
 2369              		.cfi_def_cfa_offset 56
 2370 186d B8010000 		movl	$1, %eax
 2370      00
 2371 1872 5B       		popq	%rbx
 2372              		.cfi_def_cfa_offset 48
 2373 1873 5D       		popq	%rbp
 2374              		.cfi_def_cfa_offset 40
 2375 1874 415C     		popq	%r12
 2376              		.cfi_def_cfa_offset 32
 2377 1876 415D     		popq	%r13
 2378              		.cfi_def_cfa_offset 24
 2379 1878 415E     		popq	%r14
 2380              		.cfi_def_cfa_offset 16
 2381 187a 415F     		popq	%r15
 2382              		.cfi_def_cfa_offset 8
 2383 187c C3       		ret
 2384 187d 0F1F00   		.p2align 4,,10
 2385              		.p2align 3
 2386              	.L409:
 2387              		.cfi_restore_state
 2388 1880 4883F90E 		cmpq	$14, %rcx
 2389 1884 0F86F202 		jbe	.L406
 2389      0000
 2390 188a 0FB64B10 		movzbl	16(%rbx), %ecx
 2391 188e 4889F0   		movq	%rsi, %rax
 2392 1891 660F6EC1 		movd	%ecx, %xmm0
 2393 1895 4889F9   		movq	%rdi, %rcx
 2394 1898 660F60C0 		punpcklbw	%xmm0, %xmm0
 2395 189c 4883E1F0 		andq	$-16, %rcx
 2396 18a0 660F61C0 		punpcklwd	%xmm0, %xmm0
 2397 18a4 4801F1   		addq	%rsi, %rcx
 2398 18a7 660F70C0 		pshufd	$0, %xmm0, %xmm0
 2398      00
 2399 18ac 0F1F4000 		.p2align 4,,10
 2400              		.p2align 3
 2401              	.L385:
 2402 18b0 0F1100   		movups	%xmm0, (%rax)
 2403 18b3 4883C010 		addq	$16, %rax
 2404 18b7 4839C1   		cmpq	%rax, %rcx
 2405 18ba 75F4     		jne	.L385
 2406 18bc 4989F8   		movq	%rdi, %r8
 2407 18bf 4983E0F0 		andq	$-16, %r8
 2408 18c3 4A8D0406 		leaq	(%rsi,%r8), %rax
 2409 18c7 40F6C70F 		testb	$15, %dil
 2410 18cb 0F84FFFD 		je	.L390
 2410      FFFF
 2411 18d1 4C29C7   		subq	%r8, %rdi
 2412 18d4 488D4FFF 		leaq	-1(%rdi), %rcx
 2413 18d8 4883F906 		cmpq	$6, %rcx
 2414 18dc 7628     		jbe	.L387
 2415              	.L384:
 2416 18de 0FB64B10 		movzbl	16(%rbx), %ecx
 2417 18e2 88CD     		movb	%cl, %ch
 2418 18e4 660F6EC9 		movd	%ecx, %xmm1
 2419 18e8 4889F9   		movq	%rdi, %rcx
 2420 18eb 4883E1F8 		andq	$-8, %rcx
 2421 18ef F20F70C1 		pshuflw	$0, %xmm1, %xmm0
 2421      00
 2422 18f4 4801C8   		addq	%rcx, %rax
 2423 18f7 83E707   		andl	$7, %edi
 2424 18fa 66420FD6 		movq	%xmm0, (%rsi,%r8)
 2424      0406
 2425 1900 0F84CAFD 		je	.L390
 2425      FFFF
 2426              	.L387:
 2427 1906 0FB64B10 		movzbl	16(%rbx), %ecx
 2428 190a 488D7001 		leaq	1(%rax), %rsi
 2429 190e 8808     		movb	%cl, (%rax)
 2430 1910 4839D6   		cmpq	%rdx, %rsi
 2431 1913 0F83B7FD 		jnb	.L390
 2431      FFFF
 2432 1919 884801   		movb	%cl, 1(%rax)
 2433 191c 488D4802 		leaq	2(%rax), %rcx
 2434 1920 4839D1   		cmpq	%rdx, %rcx
 2435 1923 0F83A7FD 		jnb	.L390
 2435      FFFF
 2436 1929 0FB64B10 		movzbl	16(%rbx), %ecx
 2437 192d 488D7003 		leaq	3(%rax), %rsi
 2438 1931 884802   		movb	%cl, 2(%rax)
 2439 1934 4839D6   		cmpq	%rdx, %rsi
 2440 1937 0F8393FD 		jnb	.L390
 2440      FFFF
 2441 193d 884803   		movb	%cl, 3(%rax)
 2442 1940 488D4804 		leaq	4(%rax), %rcx
 2443 1944 4839D1   		cmpq	%rdx, %rcx
 2444 1947 0F8383FD 		jnb	.L390
 2444      FFFF
 2445 194d 0FB64B10 		movzbl	16(%rbx), %ecx
 2446 1951 488D7005 		leaq	5(%rax), %rsi
 2447 1955 884804   		movb	%cl, 4(%rax)
 2448 1958 4839D6   		cmpq	%rdx, %rsi
 2449 195b 0F836FFD 		jnb	.L390
 2449      FFFF
 2450 1961 884805   		movb	%cl, 5(%rax)
 2451 1964 488D4806 		leaq	6(%rax), %rcx
 2452 1968 4839D1   		cmpq	%rdx, %rcx
 2453 196b 0F835FFD 		jnb	.L390
 2453      FFFF
 2454 1971 0FB65310 		movzbl	16(%rbx), %edx
 2455 1975 885006   		movb	%dl, 6(%rax)
 2456 1978 E953FDFF 		jmp	.L390
 2456      FF
 2457 197d 0F1F00   		.p2align 4,,10
 2458              		.p2align 3
 2459              	.L408:
 2460 1980 4883F90E 		cmpq	$14, %rcx
 2461 1984 0F86FA01 		jbe	.L405
 2461      0000
 2462 198a 0FB64B10 		movzbl	16(%rbx), %ecx
 2463 198e 4C89C0   		movq	%r8, %rax
 2464 1991 660F6EC1 		movd	%ecx, %xmm0
 2465 1995 4889D1   		movq	%rdx, %rcx
 2466 1998 660F60C0 		punpcklbw	%xmm0, %xmm0
 2467 199c 4883E1F0 		andq	$-16, %rcx
 2468 19a0 660F61C0 		punpcklwd	%xmm0, %xmm0
 2469 19a4 4C01C1   		addq	%r8, %rcx
 2470 19a7 660F70C0 		pshufd	$0, %xmm0, %xmm0
 2470      00
 2471 19ac 0F1F4000 		.p2align 4,,10
 2472              		.p2align 3
 2473              	.L375:
 2474 19b0 0F1100   		movups	%xmm0, (%rax)
 2475 19b3 4883C010 		addq	$16, %rax
 2476 19b7 4839C8   		cmpq	%rcx, %rax
 2477 19ba 75F4     		jne	.L375
 2478 19bc 4889D7   		movq	%rdx, %rdi
 2479 19bf 4883E7F0 		andq	$-16, %rdi
 2480 19c3 498D0438 		leaq	(%r8,%rdi), %rax
 2481 19c7 F6C20F   		testb	$15, %dl
 2482 19ca 0F84B0FD 		je	.L380
 2482      FFFF
 2483 19d0 4829FA   		subq	%rdi, %rdx
 2484 19d3 488D4AFF 		leaq	-1(%rdx), %rcx
 2485 19d7 4883F906 		cmpq	$6, %rcx
 2486 19db 7628     		jbe	.L377
 2487              	.L374:
 2488 19dd 0FB64B10 		movzbl	16(%rbx), %ecx
 2489 19e1 88CD     		movb	%cl, %ch
 2490 19e3 660F6ED1 		movd	%ecx, %xmm2
 2491 19e7 4889D1   		movq	%rdx, %rcx
 2492 19ea 4883E1F8 		andq	$-8, %rcx
 2493 19ee F20F70C2 		pshuflw	$0, %xmm2, %xmm0
 2493      00
 2494 19f3 4801C8   		addq	%rcx, %rax
 2495 19f6 83E207   		andl	$7, %edx
 2496 19f9 66410FD6 		movq	%xmm0, (%r8,%rdi)
 2496      0438
 2497 19ff 0F847BFD 		je	.L380
 2497      FFFF
 2498              	.L377:
 2499 1a05 0FB65310 		movzbl	16(%rbx), %edx
 2500 1a09 488D4801 		leaq	1(%rax), %rcx
 2501 1a0d 8810     		movb	%dl, (%rax)
 2502 1a0f 4839F1   		cmpq	%rsi, %rcx
 2503 1a12 0F8368FD 		jnb	.L380
 2503      FFFF
 2504 1a18 885001   		movb	%dl, 1(%rax)
 2505 1a1b 488D5002 		leaq	2(%rax), %rdx
 2506 1a1f 4839F2   		cmpq	%rsi, %rdx
 2507 1a22 0F8358FD 		jnb	.L380
 2507      FFFF
 2508 1a28 0FB65310 		movzbl	16(%rbx), %edx
 2509 1a2c 488D4803 		leaq	3(%rax), %rcx
 2510 1a30 885002   		movb	%dl, 2(%rax)
 2511 1a33 4839F1   		cmpq	%rsi, %rcx
 2512 1a36 0F8344FD 		jnb	.L380
 2512      FFFF
 2513 1a3c 885003   		movb	%dl, 3(%rax)
 2514 1a3f 488D5004 		leaq	4(%rax), %rdx
 2515 1a43 4839F2   		cmpq	%rsi, %rdx
 2516 1a46 0F8334FD 		jnb	.L380
 2516      FFFF
 2517 1a4c 0FB65310 		movzbl	16(%rbx), %edx
 2518 1a50 488D4805 		leaq	5(%rax), %rcx
 2519 1a54 885004   		movb	%dl, 4(%rax)
 2520 1a57 4839F1   		cmpq	%rsi, %rcx
 2521 1a5a 0F8320FD 		jnb	.L380
 2521      FFFF
 2522 1a60 885005   		movb	%dl, 5(%rax)
 2523 1a63 488D5006 		leaq	6(%rax), %rdx
 2524 1a67 4839F2   		cmpq	%rsi, %rdx
 2525 1a6a 0F8310FD 		jnb	.L380
 2525      FFFF
 2526 1a70 0FB65310 		movzbl	16(%rbx), %edx
 2527 1a74 885006   		movb	%dl, 6(%rax)
 2528 1a77 E904FDFF 		jmp	.L380
 2528      FF
 2529              	.L410:
 2530 1a7c 4883F90E 		cmpq	$14, %rcx
 2531 1a80 0F860501 		jbe	.L407
 2531      0000
 2532 1a86 0FB64B10 		movzbl	16(%rbx), %ecx
 2533 1a8a 4C89C0   		movq	%r8, %rax
 2534 1a8d 660F6EC1 		movd	%ecx, %xmm0
 2535 1a91 4889D1   		movq	%rdx, %rcx
 2536 1a94 660F60C0 		punpcklbw	%xmm0, %xmm0
 2537 1a98 4883E1F0 		andq	$-16, %rcx
 2538 1a9c 660F61C0 		punpcklwd	%xmm0, %xmm0
 2539 1aa0 4C01C1   		addq	%r8, %rcx
 2540 1aa3 660F70C0 		pshufd	$0, %xmm0, %xmm0
 2540      00
 2541 1aa8 0F1F8400 		.p2align 4,,10
 2541      00000000 
 2542              		.p2align 3
 2543              	.L399:
 2544 1ab0 0F1100   		movups	%xmm0, (%rax)
 2545 1ab3 4883C010 		addq	$16, %rax
 2546 1ab7 4839C8   		cmpq	%rcx, %rax
 2547 1aba 75F4     		jne	.L399
 2548 1abc 4889D7   		movq	%rdx, %rdi
 2549 1abf 4883E7F0 		andq	$-16, %rdi
 2550 1ac3 498D0438 		leaq	(%r8,%rdi), %rax
 2551 1ac7 F6C20F   		testb	$15, %dl
 2552 1aca 0F8460FD 		je	.L404
 2552      FFFF
 2553 1ad0 4829FA   		subq	%rdi, %rdx
 2554 1ad3 488D4AFF 		leaq	-1(%rdx), %rcx
 2555 1ad7 4883F906 		cmpq	$6, %rcx
 2556 1adb 7628     		jbe	.L401
 2557              	.L398:
 2558 1add 0FB64B10 		movzbl	16(%rbx), %ecx
 2559 1ae1 88CD     		movb	%cl, %ch
 2560 1ae3 660F6ED9 		movd	%ecx, %xmm3
 2561 1ae7 4889D1   		movq	%rdx, %rcx
 2562 1aea 4883E1F8 		andq	$-8, %rcx
 2563 1aee F20F70C3 		pshuflw	$0, %xmm3, %xmm0
 2563      00
 2564 1af3 4801C8   		addq	%rcx, %rax
 2565 1af6 83E207   		andl	$7, %edx
 2566 1af9 66410FD6 		movq	%xmm0, (%r8,%rdi)
 2566      0438
 2567 1aff 0F842BFD 		je	.L404
 2567      FFFF
 2568              	.L401:
 2569 1b05 0FB65310 		movzbl	16(%rbx), %edx
 2570 1b09 488D4801 		leaq	1(%rax), %rcx
 2571 1b0d 8810     		movb	%dl, (%rax)
 2572 1b0f 4839F1   		cmpq	%rsi, %rcx
 2573 1b12 0F8318FD 		jnb	.L404
 2573      FFFF
 2574 1b18 885001   		movb	%dl, 1(%rax)
 2575 1b1b 488D5002 		leaq	2(%rax), %rdx
 2576 1b1f 4839F2   		cmpq	%rsi, %rdx
 2577 1b22 0F8308FD 		jnb	.L404
 2577      FFFF
 2578 1b28 0FB65310 		movzbl	16(%rbx), %edx
 2579 1b2c 488D4803 		leaq	3(%rax), %rcx
 2580 1b30 885002   		movb	%dl, 2(%rax)
 2581 1b33 4839F1   		cmpq	%rsi, %rcx
 2582 1b36 0F83F4FC 		jnb	.L404
 2582      FFFF
 2583 1b3c 885003   		movb	%dl, 3(%rax)
 2584 1b3f 488D5004 		leaq	4(%rax), %rdx
 2585 1b43 4839F2   		cmpq	%rsi, %rdx
 2586 1b46 0F83E4FC 		jnb	.L404
 2586      FFFF
 2587 1b4c 0FB65310 		movzbl	16(%rbx), %edx
 2588 1b50 488D4805 		leaq	5(%rax), %rcx
 2589 1b54 885004   		movb	%dl, 4(%rax)
 2590 1b57 4839F1   		cmpq	%rsi, %rcx
 2591 1b5a 0F83D0FC 		jnb	.L404
 2591      FFFF
 2592 1b60 885005   		movb	%dl, 5(%rax)
 2593 1b63 488D5006 		leaq	6(%rax), %rdx
 2594 1b67 4839F2   		cmpq	%rsi, %rdx
 2595 1b6a 0F83C0FC 		jnb	.L404
 2595      FFFF
 2596 1b70 0FB65310 		movzbl	16(%rbx), %edx
 2597 1b74 885006   		movb	%dl, 6(%rax)
 2598 1b77 E9B4FCFF 		jmp	.L404
 2598      FF
 2599              	.L406:
 2600 1b7c 4531C0   		xorl	%r8d, %r8d
 2601 1b7f E95AFDFF 		jmp	.L384
 2601      FF
 2602              	.L405:
 2603 1b84 31FF     		xorl	%edi, %edi
 2604 1b86 E952FEFF 		jmp	.L374
 2604      FF
 2605              	.L407:
 2606 1b8b 31FF     		xorl	%edi, %edi
 2607 1b8d E94BFFFF 		jmp	.L398
 2607      FF
 2608              		.cfi_endproc
 2609              	.LFE49:
 2611              		.section	.rodata.str1.1
 2612              	.LC4:
 2613 0020 62756657 		.string	"bufWriteWordBE()"
 2613      72697465 
 2613      576F7264 
 2613      42452829 
 2613      00
 2614              		.text
 2615 1b92 66662E0F 		.p2align 4
 2615      1F840000 
 2615      0000000F 
 2615      1F00
 2616              		.globl	bufWriteWordBE
 2618              	bufWriteWordBE:
 2619              	.LFB50:
 2620              		.cfi_startproc
 2621 1ba0 F30F1EFA 		endbr64
 2622 1ba4 4157     		pushq	%r15
 2623              		.cfi_def_cfa_offset 16
 2624              		.cfi_offset 15, -16
 2625 1ba6 4989CF   		movq	%rcx, %r15
 2626 1ba9 4156     		pushq	%r14
 2627              		.cfi_def_cfa_offset 24
 2628              		.cfi_offset 14, -24
 2629 1bab 4189D6   		movl	%edx, %r14d
 2630 1bae 4155     		pushq	%r13
 2631              		.cfi_def_cfa_offset 32
 2632              		.cfi_offset 13, -32
 2633 1bb0 4154     		pushq	%r12
 2634              		.cfi_def_cfa_offset 40
 2635              		.cfi_offset 12, -40
 2636 1bb2 4189F4   		movl	%esi, %r12d
 2637 1bb5 55       		pushq	%rbp
 2638              		.cfi_def_cfa_offset 48
 2639              		.cfi_offset 6, -48
 2640 1bb6 458D6C24 		leal	2(%r12), %r13d
 2640      02
 2641 1bbb 53       		pushq	%rbx
 2642              		.cfi_def_cfa_offset 56
 2643              		.cfi_offset 3, -56
 2644 1bbc 4889FB   		movq	%rdi, %rbx
 2645 1bbf 4883EC18 		subq	$24, %rsp
 2646              		.cfi_def_cfa_offset 80
 2647 1bc3 8B4708   		movl	8(%rdi), %eax
 2648 1bc6 488B3F   		movq	(%rdi), %rdi
 2649 1bc9 4139C4   		cmpl	%eax, %r12d
 2650 1bcc 0F821E01 		jb	.L452
 2650      0000
 2651 1bd2 8B6B0C   		movl	12(%rbx), %ebp
 2652 1bd5 4439ED   		cmpl	%r13d, %ebp
 2653 1bd8 0F828200 		jb	.L454
 2653      0000
 2654              	.L453:
 2655 1bde 89C1     		movl	%eax, %ecx
 2656 1be0 4589E4   		movl	%r12d, %r12d
 2657 1be3 488D340F 		leaq	(%rdi,%rcx), %rsi
 2658 1be7 4A8D1427 		leaq	(%rdi,%r12), %rdx
 2659 1beb 4889F0   		movq	%rsi, %rax
 2660 1bee 4839D6   		cmpq	%rdx, %rsi
 2661 1bf1 7343     		jnb	.L467
 2662 1bf3 4C89E7   		movq	%r12, %rdi
 2663 1bf6 4829CF   		subq	%rcx, %rdi
 2664 1bf9 488D4FFF 		leaq	-1(%rdi), %rcx
 2665 1bfd 4883F906 		cmpq	$6, %rcx
 2666 1c01 761D     		jbe	.L475
 2667 1c03 4C8D4310 		leaq	16(%rbx), %r8
 2668 1c07 4939D0   		cmpq	%rdx, %r8
 2669 1c0a 0F83D001 		jnb	.L495
 2669      0000
 2670 1c10 4C8D4311 		leaq	17(%rbx), %r8
 2671 1c14 4939F0   		cmpq	%rsi, %r8
 2672 1c17 0F86C301 		jbe	.L495
 2672      0000
 2673 1c1d 0F1F00   		.p2align 4,,10
 2674              		.p2align 3
 2675              	.L475:
 2676 1c20 0FB64B10 		movzbl	16(%rbx), %ecx
 2677 1c24 4883C001 		addq	$1, %rax
 2678 1c28 8848FF   		movb	%cl, -1(%rax)
 2679 1c2b 4839C2   		cmpq	%rax, %rdx
 2680 1c2e 75F0     		jne	.L475
 2681              	.L476:
 2682 1c30 488B13   		movq	(%rbx), %rdx
 2683 1c33 4C01E2   		addq	%r12, %rdx
 2684              	.L467:
 2685 1c36 44896B08 		movl	%r13d, 8(%rbx)
 2686              	.L477:
 2687              	.L456:
 2688 1c3a 4489F0   		movl	%r14d, %eax
 2689 1c3d 8822     		movb	%ah, (%rdx)
 2690 1c3f 488B03   		movq	(%rbx), %rax
 2691 1c42 46887420 		movb	%r14b, 1(%rax,%r12)
 2691      01
 2692 1c47 4883C418 		addq	$24, %rsp
 2693              		.cfi_remember_state
 2694              		.cfi_def_cfa_offset 56
 2695 1c4b 31C0     		xorl	%eax, %eax
 2696 1c4d 5B       		popq	%rbx
 2697              		.cfi_def_cfa_offset 48
 2698 1c4e 5D       		popq	%rbp
 2699              		.cfi_def_cfa_offset 40
 2700 1c4f 415C     		popq	%r12
 2701              		.cfi_def_cfa_offset 32
 2702 1c51 415D     		popq	%r13
 2703              		.cfi_def_cfa_offset 24
 2704 1c53 415E     		popq	%r14
 2705              		.cfi_def_cfa_offset 16
 2706 1c55 415F     		popq	%r15
 2707              		.cfi_def_cfa_offset 8
 2708 1c57 C3       		ret
 2709 1c58 0F1F8400 		.p2align 4,,10
 2709      00000000 
 2710              		.p2align 3
 2711              	.L454:
 2712              		.cfi_restore_state
 2713 1c60 01ED     		addl	%ebp, %ebp
 2714 1c62 4439ED   		cmpl	%r13d, %ebp
 2715 1c65 72F9     		jb	.L454
 2716 1c67 89EA     		movl	%ebp, %edx
 2717 1c69 4889D6   		movq	%rdx, %rsi
 2718 1c6c 48895424 		movq	%rdx, 8(%rsp)
 2718      08
 2719 1c71 E8000000 		call	realloc@PLT
 2719      00
 2720 1c76 488B5424 		movq	8(%rsp), %rdx
 2720      08
 2721 1c7b 4885C0   		testq	%rax, %rax
 2722 1c7e 488903   		movq	%rax, (%rbx)
 2723 1c81 4889C7   		movq	%rax, %rdi
 2724 1c84 0F841F01 		je	.L481
 2724      0000
 2725 1c8a 4589E9   		movl	%r13d, %r9d
 2726 1c8d 488D3417 		leaq	(%rdi,%rdx), %rsi
 2727 1c91 896B0C   		movl	%ebp, 12(%rbx)
 2728 1c94 4E8D0408 		leaq	(%rax,%r9), %r8
 2729 1c98 4C89C0   		movq	%r8, %rax
 2730 1c9b 4939F0   		cmpq	%rsi, %r8
 2731 1c9e 7343     		jnb	.L536
 2732 1ca0 4C29CA   		subq	%r9, %rdx
 2733 1ca3 488D4AFF 		leaq	-1(%rdx), %rcx
 2734 1ca7 4883F906 		cmpq	$6, %rcx
 2735 1cab 7623     		jbe	.L465
 2736 1cad 488D7B10 		leaq	16(%rbx), %rdi
 2737 1cb1 4839F7   		cmpq	%rsi, %rdi
 2738 1cb4 0F832602 		jnb	.L494
 2738      0000
 2739 1cba 488D7B11 		leaq	17(%rbx), %rdi
 2740 1cbe 4C39C7   		cmpq	%r8, %rdi
 2741 1cc1 0F861902 		jbe	.L494
 2741      0000
 2742 1cc7 660F1F84 		.p2align 4,,10
 2742      00000000 
 2742      00
 2743              		.p2align 3
 2744              	.L465:
 2745 1cd0 0FB65310 		movzbl	16(%rbx), %edx
 2746 1cd4 4883C001 		addq	$1, %rax
 2747 1cd8 8850FF   		movb	%dl, -1(%rax)
 2748 1cdb 4839C6   		cmpq	%rax, %rsi
 2749 1cde 75F0     		jne	.L465
 2750              	.L466:
 2751 1ce0 488B3B   		movq	(%rbx), %rdi
 2752              	.L536:
 2753 1ce3 8B4308   		movl	8(%rbx), %eax
 2754 1ce6 E9F3FEFF 		jmp	.L453
 2754      FF
 2755 1ceb 0F1F4400 		.p2align 4,,10
 2755      00
 2756              		.p2align 3
 2757              	.L452:
 2758 1cf0 4439E8   		cmpl	%r13d, %eax
 2759 1cf3 0F83A700 		jnb	.L478
 2759      0000
 2760 1cf9 8B6B0C   		movl	12(%rbx), %ebp
 2761 1cfc 4439ED   		cmpl	%r13d, %ebp
 2762 1cff 7217     		jb	.L480
 2763              	.L479:
 2764 1d01 4589E4   		movl	%r12d, %r12d
 2765 1d04 44896B08 		movl	%r13d, 8(%rbx)
 2766 1d08 4A8D1427 		leaq	(%rdi,%r12), %rdx
 2767 1d0c E929FFFF 		jmp	.L477
 2767      FF
 2768              		.p2align 4,,10
 2769 1d11 0F1F8000 		.p2align 3
 2769      000000
 2770              	.L480:
 2771 1d18 01ED     		addl	%ebp, %ebp
 2772 1d1a 4439ED   		cmpl	%r13d, %ebp
 2773 1d1d 72F9     		jb	.L480
 2774 1d1f 89EA     		movl	%ebp, %edx
 2775 1d21 4889D6   		movq	%rdx, %rsi
 2776 1d24 48895424 		movq	%rdx, 8(%rsp)
 2776      08
 2777 1d29 E8000000 		call	realloc@PLT
 2777      00
 2778 1d2e 488903   		movq	%rax, (%rbx)
 2779 1d31 4889C7   		movq	%rax, %rdi
 2780 1d34 4885C0   		testq	%rax, %rax
 2781 1d37 7470     		je	.L481
 2782 1d39 488B5424 		movq	8(%rsp), %rdx
 2782      08
 2783 1d3e 4589E9   		movl	%r13d, %r9d
 2784 1d41 896B0C   		movl	%ebp, 12(%rbx)
 2785 1d44 4E8D0408 		leaq	(%rax,%r9), %r8
 2786 1d48 488D3417 		leaq	(%rdi,%rdx), %rsi
 2787 1d4c 4C89C0   		movq	%r8, %rax
 2788 1d4f 4939F0   		cmpq	%rsi, %r8
 2789 1d52 73AD     		jnb	.L479
 2790 1d54 4C29CA   		subq	%r9, %rdx
 2791 1d57 488D4AFF 		leaq	-1(%rdx), %rcx
 2792 1d5b 4883F906 		cmpq	$6, %rcx
 2793 1d5f 761F     		jbe	.L489
 2794 1d61 488D7B10 		leaq	16(%rbx), %rdi
 2795 1d65 4839F7   		cmpq	%rsi, %rdi
 2796 1d68 0F836E02 		jnb	.L496
 2796      0000
 2797 1d6e 488D7B11 		leaq	17(%rbx), %rdi
 2798 1d72 4C39C7   		cmpq	%r8, %rdi
 2799 1d75 0F866102 		jbe	.L496
 2799      0000
 2800 1d7b 0F1F4400 		.p2align 4,,10
 2800      00
 2801              		.p2align 3
 2802              	.L489:
 2803 1d80 0FB65310 		movzbl	16(%rbx), %edx
 2804 1d84 4883C001 		addq	$1, %rax
 2805 1d88 8850FF   		movb	%dl, -1(%rax)
 2806 1d8b 4839C6   		cmpq	%rax, %rsi
 2807 1d8e 75F0     		jne	.L489
 2808              	.L490:
 2809 1d90 488B3B   		movq	(%rbx), %rdi
 2810 1d93 E969FFFF 		jmp	.L479
 2810      FF
 2811 1d98 0F1F8400 		.p2align 4,,10
 2811      00000000 
 2812              		.p2align 3
 2813              	.L478:
 2814 1da0 4A8D1427 		leaq	(%rdi,%r12), %rdx
 2815 1da4 E991FEFF 		jmp	.L477
 2815      FF
 2816              	.L481:
 2817 1da9 4C89FF   		movq	%r15, %rdi
 2818 1dac 31C0     		xorl	%eax, %eax
 2819 1dae 488D3500 		leaq	.LC1(%rip), %rsi
 2819      000000
 2820 1db5 E8000000 		call	errRender@PLT
 2820      00
 2821 1dba 4C89FF   		movq	%r15, %rdi
 2822 1dbd 488D3500 		leaq	.LC4(%rip), %rsi
 2822      000000
 2823 1dc4 E8000000 		call	errPrefix@PLT
 2823      00
 2824 1dc9 4883C418 		addq	$24, %rsp
 2825              		.cfi_remember_state
 2826              		.cfi_def_cfa_offset 56
 2827 1dcd B8010000 		movl	$1, %eax
 2827      00
 2828 1dd2 5B       		popq	%rbx
 2829              		.cfi_def_cfa_offset 48
 2830 1dd3 5D       		popq	%rbp
 2831              		.cfi_def_cfa_offset 40
 2832 1dd4 415C     		popq	%r12
 2833              		.cfi_def_cfa_offset 32
 2834 1dd6 415D     		popq	%r13
 2835              		.cfi_def_cfa_offset 24
 2836 1dd8 415E     		popq	%r14
 2837              		.cfi_def_cfa_offset 16
 2838 1dda 415F     		popq	%r15
 2839              		.cfi_def_cfa_offset 8
 2840 1ddc C3       		ret
 2841 1ddd 0F1F00   		.p2align 4,,10
 2842              		.p2align 3
 2843              	.L495:
 2844              		.cfi_restore_state
 2845 1de0 4883F90E 		cmpq	$14, %rcx
 2846 1de4 0F86F202 		jbe	.L492
 2846      0000
 2847 1dea 0FB64B10 		movzbl	16(%rbx), %ecx
 2848 1dee 4889F0   		movq	%rsi, %rax
 2849 1df1 660F6EC1 		movd	%ecx, %xmm0
 2850 1df5 4889F9   		movq	%rdi, %rcx
 2851 1df8 660F60C0 		punpcklbw	%xmm0, %xmm0
 2852 1dfc 4883E1F0 		andq	$-16, %rcx
 2853 1e00 660F61C0 		punpcklwd	%xmm0, %xmm0
 2854 1e04 4801F1   		addq	%rsi, %rcx
 2855 1e07 660F70C0 		pshufd	$0, %xmm0, %xmm0
 2855      00
 2856 1e0c 0F1F4000 		.p2align 4,,10
 2857              		.p2align 3
 2858              	.L471:
 2859 1e10 0F1100   		movups	%xmm0, (%rax)
 2860 1e13 4883C010 		addq	$16, %rax
 2861 1e17 4839C1   		cmpq	%rax, %rcx
 2862 1e1a 75F4     		jne	.L471
 2863 1e1c 4989F8   		movq	%rdi, %r8
 2864 1e1f 4983E0F0 		andq	$-16, %r8
 2865 1e23 4A8D0406 		leaq	(%rsi,%r8), %rax
 2866 1e27 40F6C70F 		testb	$15, %dil
 2867 1e2b 0F84FFFD 		je	.L476
 2867      FFFF
 2868 1e31 4C29C7   		subq	%r8, %rdi
 2869 1e34 488D4FFF 		leaq	-1(%rdi), %rcx
 2870 1e38 4883F906 		cmpq	$6, %rcx
 2871 1e3c 7628     		jbe	.L473
 2872              	.L470:
 2873 1e3e 0FB64B10 		movzbl	16(%rbx), %ecx
 2874 1e42 88CD     		movb	%cl, %ch
 2875 1e44 660F6EC9 		movd	%ecx, %xmm1
 2876 1e48 4889F9   		movq	%rdi, %rcx
 2877 1e4b 4883E1F8 		andq	$-8, %rcx
 2878 1e4f F20F70C1 		pshuflw	$0, %xmm1, %xmm0
 2878      00
 2879 1e54 4801C8   		addq	%rcx, %rax
 2880 1e57 83E707   		andl	$7, %edi
 2881 1e5a 66420FD6 		movq	%xmm0, (%rsi,%r8)
 2881      0406
 2882 1e60 0F84CAFD 		je	.L476
 2882      FFFF
 2883              	.L473:
 2884 1e66 0FB64B10 		movzbl	16(%rbx), %ecx
 2885 1e6a 488D7001 		leaq	1(%rax), %rsi
 2886 1e6e 8808     		movb	%cl, (%rax)
 2887 1e70 4839D6   		cmpq	%rdx, %rsi
 2888 1e73 0F83B7FD 		jnb	.L476
 2888      FFFF
 2889 1e79 884801   		movb	%cl, 1(%rax)
 2890 1e7c 488D4802 		leaq	2(%rax), %rcx
 2891 1e80 4839D1   		cmpq	%rdx, %rcx
 2892 1e83 0F83A7FD 		jnb	.L476
 2892      FFFF
 2893 1e89 0FB64B10 		movzbl	16(%rbx), %ecx
 2894 1e8d 488D7003 		leaq	3(%rax), %rsi
 2895 1e91 884802   		movb	%cl, 2(%rax)
 2896 1e94 4839D6   		cmpq	%rdx, %rsi
 2897 1e97 0F8393FD 		jnb	.L476
 2897      FFFF
 2898 1e9d 884803   		movb	%cl, 3(%rax)
 2899 1ea0 488D4804 		leaq	4(%rax), %rcx
 2900 1ea4 4839D1   		cmpq	%rdx, %rcx
 2901 1ea7 0F8383FD 		jnb	.L476
 2901      FFFF
 2902 1ead 0FB64B10 		movzbl	16(%rbx), %ecx
 2903 1eb1 488D7005 		leaq	5(%rax), %rsi
 2904 1eb5 884804   		movb	%cl, 4(%rax)
 2905 1eb8 4839D6   		cmpq	%rdx, %rsi
 2906 1ebb 0F836FFD 		jnb	.L476
 2906      FFFF
 2907 1ec1 884805   		movb	%cl, 5(%rax)
 2908 1ec4 488D4806 		leaq	6(%rax), %rcx
 2909 1ec8 4839D1   		cmpq	%rdx, %rcx
 2910 1ecb 0F835FFD 		jnb	.L476
 2910      FFFF
 2911 1ed1 0FB65310 		movzbl	16(%rbx), %edx
 2912 1ed5 885006   		movb	%dl, 6(%rax)
 2913 1ed8 E953FDFF 		jmp	.L476
 2913      FF
 2914 1edd 0F1F00   		.p2align 4,,10
 2915              		.p2align 3
 2916              	.L494:
 2917 1ee0 4883F90E 		cmpq	$14, %rcx
 2918 1ee4 0F86FA01 		jbe	.L491
 2918      0000
 2919 1eea 0FB64B10 		movzbl	16(%rbx), %ecx
 2920 1eee 4C89C0   		movq	%r8, %rax
 2921 1ef1 660F6EC1 		movd	%ecx, %xmm0
 2922 1ef5 4889D1   		movq	%rdx, %rcx
 2923 1ef8 660F60C0 		punpcklbw	%xmm0, %xmm0
 2924 1efc 4883E1F0 		andq	$-16, %rcx
 2925 1f00 660F61C0 		punpcklwd	%xmm0, %xmm0
 2926 1f04 4C01C1   		addq	%r8, %rcx
 2927 1f07 660F70C0 		pshufd	$0, %xmm0, %xmm0
 2927      00
 2928 1f0c 0F1F4000 		.p2align 4,,10
 2929              		.p2align 3
 2930              	.L461:
 2931 1f10 0F1100   		movups	%xmm0, (%rax)
 2932 1f13 4883C010 		addq	$16, %rax
 2933 1f17 4839C8   		cmpq	%rcx, %rax
 2934 1f1a 75F4     		jne	.L461
 2935 1f1c 4889D7   		movq	%rdx, %rdi
 2936 1f1f 4883E7F0 		andq	$-16, %rdi
 2937 1f23 498D0438 		leaq	(%r8,%rdi), %rax
 2938 1f27 F6C20F   		testb	$15, %dl
 2939 1f2a 0F84B0FD 		je	.L466
 2939      FFFF
 2940 1f30 4829FA   		subq	%rdi, %rdx
 2941 1f33 488D4AFF 		leaq	-1(%rdx), %rcx
 2942 1f37 4883F906 		cmpq	$6, %rcx
 2943 1f3b 7628     		jbe	.L463
 2944              	.L460:
 2945 1f3d 0FB64B10 		movzbl	16(%rbx), %ecx
 2946 1f41 88CD     		movb	%cl, %ch
 2947 1f43 660F6ED1 		movd	%ecx, %xmm2
 2948 1f47 4889D1   		movq	%rdx, %rcx
 2949 1f4a 4883E1F8 		andq	$-8, %rcx
 2950 1f4e F20F70C2 		pshuflw	$0, %xmm2, %xmm0
 2950      00
 2951 1f53 4801C8   		addq	%rcx, %rax
 2952 1f56 83E207   		andl	$7, %edx
 2953 1f59 66410FD6 		movq	%xmm0, (%r8,%rdi)
 2953      0438
 2954 1f5f 0F847BFD 		je	.L466
 2954      FFFF
 2955              	.L463:
 2956 1f65 0FB65310 		movzbl	16(%rbx), %edx
 2957 1f69 488D4801 		leaq	1(%rax), %rcx
 2958 1f6d 8810     		movb	%dl, (%rax)
 2959 1f6f 4839F1   		cmpq	%rsi, %rcx
 2960 1f72 0F8368FD 		jnb	.L466
 2960      FFFF
 2961 1f78 885001   		movb	%dl, 1(%rax)
 2962 1f7b 488D5002 		leaq	2(%rax), %rdx
 2963 1f7f 4839F2   		cmpq	%rsi, %rdx
 2964 1f82 0F8358FD 		jnb	.L466
 2964      FFFF
 2965 1f88 0FB65310 		movzbl	16(%rbx), %edx
 2966 1f8c 488D4803 		leaq	3(%rax), %rcx
 2967 1f90 885002   		movb	%dl, 2(%rax)
 2968 1f93 4839F1   		cmpq	%rsi, %rcx
 2969 1f96 0F8344FD 		jnb	.L466
 2969      FFFF
 2970 1f9c 885003   		movb	%dl, 3(%rax)
 2971 1f9f 488D5004 		leaq	4(%rax), %rdx
 2972 1fa3 4839F2   		cmpq	%rsi, %rdx
 2973 1fa6 0F8334FD 		jnb	.L466
 2973      FFFF
 2974 1fac 0FB65310 		movzbl	16(%rbx), %edx
 2975 1fb0 488D4805 		leaq	5(%rax), %rcx
 2976 1fb4 885004   		movb	%dl, 4(%rax)
 2977 1fb7 4839F1   		cmpq	%rsi, %rcx
 2978 1fba 0F8320FD 		jnb	.L466
 2978      FFFF
 2979 1fc0 885005   		movb	%dl, 5(%rax)
 2980 1fc3 488D5006 		leaq	6(%rax), %rdx
 2981 1fc7 4839F2   		cmpq	%rsi, %rdx
 2982 1fca 0F8310FD 		jnb	.L466
 2982      FFFF
 2983 1fd0 0FB65310 		movzbl	16(%rbx), %edx
 2984 1fd4 885006   		movb	%dl, 6(%rax)
 2985 1fd7 E904FDFF 		jmp	.L466
 2985      FF
 2986              	.L496:
 2987 1fdc 4883F90E 		cmpq	$14, %rcx
 2988 1fe0 0F860501 		jbe	.L493
 2988      0000
 2989 1fe6 0FB64B10 		movzbl	16(%rbx), %ecx
 2990 1fea 4C89C0   		movq	%r8, %rax
 2991 1fed 660F6EC1 		movd	%ecx, %xmm0
 2992 1ff1 4889D1   		movq	%rdx, %rcx
 2993 1ff4 660F60C0 		punpcklbw	%xmm0, %xmm0
 2994 1ff8 4883E1F0 		andq	$-16, %rcx
 2995 1ffc 660F61C0 		punpcklwd	%xmm0, %xmm0
 2996 2000 4C01C1   		addq	%r8, %rcx
 2997 2003 660F70C0 		pshufd	$0, %xmm0, %xmm0
 2997      00
 2998 2008 0F1F8400 		.p2align 4,,10
 2998      00000000 
 2999              		.p2align 3
 3000              	.L485:
 3001 2010 0F1100   		movups	%xmm0, (%rax)
 3002 2013 4883C010 		addq	$16, %rax
 3003 2017 4839C8   		cmpq	%rcx, %rax
 3004 201a 75F4     		jne	.L485
 3005 201c 4889D7   		movq	%rdx, %rdi
 3006 201f 4883E7F0 		andq	$-16, %rdi
 3007 2023 498D0438 		leaq	(%r8,%rdi), %rax
 3008 2027 F6C20F   		testb	$15, %dl
 3009 202a 0F8460FD 		je	.L490
 3009      FFFF
 3010 2030 4829FA   		subq	%rdi, %rdx
 3011 2033 488D4AFF 		leaq	-1(%rdx), %rcx
 3012 2037 4883F906 		cmpq	$6, %rcx
 3013 203b 7628     		jbe	.L487
 3014              	.L484:
 3015 203d 0FB64B10 		movzbl	16(%rbx), %ecx
 3016 2041 88CD     		movb	%cl, %ch
 3017 2043 660F6ED9 		movd	%ecx, %xmm3
 3018 2047 4889D1   		movq	%rdx, %rcx
 3019 204a 4883E1F8 		andq	$-8, %rcx
 3020 204e F20F70C3 		pshuflw	$0, %xmm3, %xmm0
 3020      00
 3021 2053 4801C8   		addq	%rcx, %rax
 3022 2056 83E207   		andl	$7, %edx
 3023 2059 66410FD6 		movq	%xmm0, (%r8,%rdi)
 3023      0438
 3024 205f 0F842BFD 		je	.L490
 3024      FFFF
 3025              	.L487:
 3026 2065 0FB65310 		movzbl	16(%rbx), %edx
 3027 2069 488D4801 		leaq	1(%rax), %rcx
 3028 206d 8810     		movb	%dl, (%rax)
 3029 206f 4839F1   		cmpq	%rsi, %rcx
 3030 2072 0F8318FD 		jnb	.L490
 3030      FFFF
 3031 2078 885001   		movb	%dl, 1(%rax)
 3032 207b 488D5002 		leaq	2(%rax), %rdx
 3033 207f 4839F2   		cmpq	%rsi, %rdx
 3034 2082 0F8308FD 		jnb	.L490
 3034      FFFF
 3035 2088 0FB65310 		movzbl	16(%rbx), %edx
 3036 208c 488D4803 		leaq	3(%rax), %rcx
 3037 2090 885002   		movb	%dl, 2(%rax)
 3038 2093 4839F1   		cmpq	%rsi, %rcx
 3039 2096 0F83F4FC 		jnb	.L490
 3039      FFFF
 3040 209c 885003   		movb	%dl, 3(%rax)
 3041 209f 488D5004 		leaq	4(%rax), %rdx
 3042 20a3 4839F2   		cmpq	%rsi, %rdx
 3043 20a6 0F83E4FC 		jnb	.L490
 3043      FFFF
 3044 20ac 0FB65310 		movzbl	16(%rbx), %edx
 3045 20b0 488D4805 		leaq	5(%rax), %rcx
 3046 20b4 885004   		movb	%dl, 4(%rax)
 3047 20b7 4839F1   		cmpq	%rsi, %rcx
 3048 20ba 0F83D0FC 		jnb	.L490
 3048      FFFF
 3049 20c0 885005   		movb	%dl, 5(%rax)
 3050 20c3 488D5006 		leaq	6(%rax), %rdx
 3051 20c7 4839F2   		cmpq	%rsi, %rdx
 3052 20ca 0F83C0FC 		jnb	.L490
 3052      FFFF
 3053 20d0 0FB65310 		movzbl	16(%rbx), %edx
 3054 20d4 885006   		movb	%dl, 6(%rax)
 3055 20d7 E9B4FCFF 		jmp	.L490
 3055      FF
 3056              	.L492:
 3057 20dc 4531C0   		xorl	%r8d, %r8d
 3058 20df E95AFDFF 		jmp	.L470
 3058      FF
 3059              	.L491:
 3060 20e4 31FF     		xorl	%edi, %edi
 3061 20e6 E952FEFF 		jmp	.L460
 3061      FF
 3062              	.L493:
 3063 20eb 31FF     		xorl	%edi, %edi
 3064 20ed E94BFFFF 		jmp	.L484
 3064      FF
 3065              		.cfi_endproc
 3066              	.LFE50:
 3068              		.section	.rodata.str1.1
 3069              	.LC5:
 3070 0031 62756657 		.string	"bufWriteLongLE()"
 3070      72697465 
 3070      4C6F6E67 
 3070      4C452829 
 3070      00
 3071              		.text
 3072 20f2 66662E0F 		.p2align 4
 3072      1F840000 
 3072      0000000F 
 3072      1F00
 3073              		.globl	bufWriteLongLE
 3075              	bufWriteLongLE:
 3076              	.LFB51:
 3077              		.cfi_startproc
 3078 2100 F30F1EFA 		endbr64
 3079 2104 4157     		pushq	%r15
 3080              		.cfi_def_cfa_offset 16
 3081              		.cfi_offset 15, -16
 3082 2106 4989CF   		movq	%rcx, %r15
 3083 2109 4156     		pushq	%r14
 3084              		.cfi_def_cfa_offset 24
 3085              		.cfi_offset 14, -24
 3086 210b 448D7604 		leal	4(%rsi), %r14d
 3087 210f 4155     		pushq	%r13
 3088              		.cfi_def_cfa_offset 32
 3089              		.cfi_offset 13, -32
 3090 2111 4189D5   		movl	%edx, %r13d
 3091 2114 4154     		pushq	%r12
 3092              		.cfi_def_cfa_offset 40
 3093              		.cfi_offset 12, -40
 3094 2116 4189F4   		movl	%esi, %r12d
 3095 2119 55       		pushq	%rbp
 3096              		.cfi_def_cfa_offset 48
 3097              		.cfi_offset 6, -48
 3098 211a 53       		pushq	%rbx
 3099              		.cfi_def_cfa_offset 56
 3100              		.cfi_offset 3, -56
 3101 211b 4889FB   		movq	%rdi, %rbx
 3102 211e 4883EC18 		subq	$24, %rsp
 3103              		.cfi_def_cfa_offset 80
 3104 2122 8B4708   		movl	8(%rdi), %eax
 3105 2125 488B3F   		movq	(%rdi), %rdi
 3106 2128 39C6     		cmpl	%eax, %esi
 3107 212a 0F824001 		jb	.L538
 3107      0000
 3108 2130 8B6B0C   		movl	12(%rbx), %ebp
 3109 2133 4439F5   		cmpl	%r14d, %ebp
 3110 2136 0F82A400 		jb	.L540
 3110      0000
 3111              	.L539:
 3112 213c 89C6     		movl	%eax, %esi
 3113 213e 4589E2   		movl	%r12d, %r10d
 3114 2141 4C8D0437 		leaq	(%rdi,%rsi), %r8
 3115 2145 4A8D1417 		leaq	(%rdi,%r10), %rdx
 3116 2149 4C89C0   		movq	%r8, %rax
 3117 214c 4939D0   		cmpq	%rdx, %r8
 3118 214f 7349     		jnb	.L553
 3119 2151 4C89D1   		movq	%r10, %rcx
 3120 2154 4829F1   		subq	%rsi, %rcx
 3121 2157 488D71FF 		leaq	-1(%rcx), %rsi
 3122 215b 4889CF   		movq	%rcx, %rdi
 3123 215e 4883FE06 		cmpq	$6, %rsi
 3124 2162 761C     		jbe	.L561
 3125 2164 4C8D4B10 		leaq	16(%rbx), %r9
 3126 2168 4939D1   		cmpq	%rdx, %r9
 3127 216b 0F83EF01 		jnb	.L581
 3127      0000
 3128 2171 4C8D4B11 		leaq	17(%rbx), %r9
 3129 2175 4D39C1   		cmpq	%r8, %r9
 3130 2178 0F86E201 		jbe	.L581
 3130      0000
 3131 217e 6690     		.p2align 4,,10
 3132              		.p2align 3
 3133              	.L561:
 3134 2180 0FB67310 		movzbl	16(%rbx), %esi
 3135 2184 4883C001 		addq	$1, %rax
 3136 2188 408870FF 		movb	%sil, -1(%rax)
 3137 218c 4839C2   		cmpq	%rax, %rdx
 3138 218f 75EF     		jne	.L561
 3139              	.L562:
 3140 2191 488B0B   		movq	(%rbx), %rcx
 3141 2194 4C01D1   		addq	%r10, %rcx
 3142 2197 4889CA   		movq	%rcx, %rdx
 3143              	.L553:
 3144 219a 44897308 		movl	%r14d, 8(%rbx)
 3145              	.L563:
 3146              	.L542:
 3147 219e 44882A   		movb	%r13b, (%rdx)
 3148 21a1 4489EA   		movl	%r13d, %edx
 3149 21a4 488B03   		movq	(%rbx), %rax
 3150 21a7 0FB6D6   		movzbl	%dh, %edx
 3151 21aa 42885410 		movb	%dl, 1(%rax,%r10)
 3151      01
 3152 21af 4489EA   		movl	%r13d, %edx
 3153 21b2 488B03   		movq	(%rbx), %rax
 3154 21b5 C1EA10   		shrl	$16, %edx
 3155 21b8 42885410 		movb	%dl, 2(%rax,%r10)
 3155      02
 3156 21bd 4489E8   		movl	%r13d, %eax
 3157 21c0 488B13   		movq	(%rbx), %rdx
 3158 21c3 C1E818   		shrl	$24, %eax
 3159 21c6 42884412 		movb	%al, 3(%rdx,%r10)
 3159      03
 3160 21cb 4883C418 		addq	$24, %rsp
 3161              		.cfi_remember_state
 3162              		.cfi_def_cfa_offset 56
 3163 21cf 31C0     		xorl	%eax, %eax
 3164 21d1 5B       		popq	%rbx
 3165              		.cfi_def_cfa_offset 48
 3166 21d2 5D       		popq	%rbp
 3167              		.cfi_def_cfa_offset 40
 3168 21d3 415C     		popq	%r12
 3169              		.cfi_def_cfa_offset 32
 3170 21d5 415D     		popq	%r13
 3171              		.cfi_def_cfa_offset 24
 3172 21d7 415E     		popq	%r14
 3173              		.cfi_def_cfa_offset 16
 3174 21d9 415F     		popq	%r15
 3175              		.cfi_def_cfa_offset 8
 3176 21db C3       		ret
 3177 21dc 0F1F4000 		.p2align 4,,10
 3178              		.p2align 3
 3179              	.L540:
 3180              		.cfi_restore_state
 3181 21e0 01ED     		addl	%ebp, %ebp
 3182 21e2 4439F5   		cmpl	%r14d, %ebp
 3183 21e5 72F9     		jb	.L540
 3184 21e7 89EA     		movl	%ebp, %edx
 3185 21e9 4889D6   		movq	%rdx, %rsi
 3186 21ec 48895424 		movq	%rdx, 8(%rsp)
 3186      08
 3187 21f1 E8000000 		call	realloc@PLT
 3187      00
 3188 21f6 488B5424 		movq	8(%rsp), %rdx
 3188      08
 3189 21fb 4885C0   		testq	%rax, %rax
 3190 21fe 488903   		movq	%rax, (%rbx)
 3191 2201 4889C7   		movq	%rax, %rdi
 3192 2204 0F842201 		je	.L567
 3192      0000
 3193 220a 4589F1   		movl	%r14d, %r9d
 3194 220d 488D3417 		leaq	(%rdi,%rdx), %rsi
 3195 2211 896B0C   		movl	%ebp, 12(%rbx)
 3196 2214 4E8D0408 		leaq	(%rax,%r9), %r8
 3197 2218 4C89C0   		movq	%r8, %rax
 3198 221b 4939F0   		cmpq	%rsi, %r8
 3199 221e 7343     		jnb	.L622
 3200 2220 4C29CA   		subq	%r9, %rdx
 3201 2223 488D4AFF 		leaq	-1(%rdx), %rcx
 3202 2227 4883F906 		cmpq	$6, %rcx
 3203 222b 7623     		jbe	.L551
 3204 222d 488D7B10 		leaq	16(%rbx), %rdi
 3205 2231 4839F7   		cmpq	%rsi, %rdi
 3206 2234 0F833602 		jnb	.L580
 3206      0000
 3207 223a 488D7B11 		leaq	17(%rbx), %rdi
 3208 223e 4C39C7   		cmpq	%r8, %rdi
 3209 2241 0F862902 		jbe	.L580
 3209      0000
 3210 2247 660F1F84 		.p2align 4,,10
 3210      00000000 
 3210      00
 3211              		.p2align 3
 3212              	.L551:
 3213 2250 0FB65310 		movzbl	16(%rbx), %edx
 3214 2254 4883C001 		addq	$1, %rax
 3215 2258 8850FF   		movb	%dl, -1(%rax)
 3216 225b 4839C6   		cmpq	%rax, %rsi
 3217 225e 75F0     		jne	.L551
 3218              	.L552:
 3219 2260 488B3B   		movq	(%rbx), %rdi
 3220              	.L622:
 3221 2263 8B4308   		movl	8(%rbx), %eax
 3222 2266 E9D1FEFF 		jmp	.L539
 3222      FF
 3223 226b 0F1F4400 		.p2align 4,,10
 3223      00
 3224              		.p2align 3
 3225              	.L538:
 3226 2270 4439F0   		cmpl	%r14d, %eax
 3227 2273 0F83A700 		jnb	.L564
 3227      0000
 3228 2279 8B6B0C   		movl	12(%rbx), %ebp
 3229 227c 4439F5   		cmpl	%r14d, %ebp
 3230 227f 7217     		jb	.L566
 3231              	.L565:
 3232 2281 4589E2   		movl	%r12d, %r10d
 3233 2284 44897308 		movl	%r14d, 8(%rbx)
 3234 2288 4A8D1417 		leaq	(%rdi,%r10), %rdx
 3235 228c E90DFFFF 		jmp	.L563
 3235      FF
 3236              		.p2align 4,,10
 3237 2291 0F1F8000 		.p2align 3
 3237      000000
 3238              	.L566:
 3239 2298 01ED     		addl	%ebp, %ebp
 3240 229a 4439F5   		cmpl	%r14d, %ebp
 3241 229d 72F9     		jb	.L566
 3242 229f 89EA     		movl	%ebp, %edx
 3243 22a1 4889D6   		movq	%rdx, %rsi
 3244 22a4 48895424 		movq	%rdx, 8(%rsp)
 3244      08
 3245 22a9 E8000000 		call	realloc@PLT
 3245      00
 3246 22ae 488903   		movq	%rax, (%rbx)
 3247 22b1 4889C7   		movq	%rax, %rdi
 3248 22b4 4885C0   		testq	%rax, %rax
 3249 22b7 7473     		je	.L567
 3250 22b9 488B5424 		movq	8(%rsp), %rdx
 3250      08
 3251 22be 4589F1   		movl	%r14d, %r9d
 3252 22c1 896B0C   		movl	%ebp, 12(%rbx)
 3253 22c4 4E8D0408 		leaq	(%rax,%r9), %r8
 3254 22c8 488D3417 		leaq	(%rdi,%rdx), %rsi
 3255 22cc 4C89C0   		movq	%r8, %rax
 3256 22cf 4939F0   		cmpq	%rsi, %r8
 3257 22d2 73AD     		jnb	.L565
 3258 22d4 4C29CA   		subq	%r9, %rdx
 3259 22d7 488D4AFF 		leaq	-1(%rdx), %rcx
 3260 22db 4883F906 		cmpq	$6, %rcx
 3261 22df 761F     		jbe	.L575
 3262 22e1 488D7B10 		leaq	16(%rbx), %rdi
 3263 22e5 4839F7   		cmpq	%rsi, %rdi
 3264 22e8 0F837E02 		jnb	.L582
 3264      0000
 3265 22ee 488D7B11 		leaq	17(%rbx), %rdi
 3266 22f2 4C39C7   		cmpq	%r8, %rdi
 3267 22f5 0F867102 		jbe	.L582
 3267      0000
 3268 22fb 0F1F4400 		.p2align 4,,10
 3268      00
 3269              		.p2align 3
 3270              	.L575:
 3271 2300 0FB65310 		movzbl	16(%rbx), %edx
 3272 2304 4883C001 		addq	$1, %rax
 3273 2308 8850FF   		movb	%dl, -1(%rax)
 3274 230b 4839C6   		cmpq	%rax, %rsi
 3275 230e 75F0     		jne	.L575
 3276              	.L576:
 3277 2310 488B3B   		movq	(%rbx), %rdi
 3278 2313 E969FFFF 		jmp	.L565
 3278      FF
 3279 2318 0F1F8400 		.p2align 4,,10
 3279      00000000 
 3280              		.p2align 3
 3281              	.L564:
 3282 2320 4189F2   		movl	%esi, %r10d
 3283 2323 4A8D1417 		leaq	(%rdi,%r10), %rdx
 3284 2327 E972FEFF 		jmp	.L563
 3284      FF
 3285              	.L567:
 3286 232c 4C89FF   		movq	%r15, %rdi
 3287 232f 31C0     		xorl	%eax, %eax
 3288 2331 488D3500 		leaq	.LC1(%rip), %rsi
 3288      000000
 3289 2338 E8000000 		call	errRender@PLT
 3289      00
 3290 233d 4C89FF   		movq	%r15, %rdi
 3291 2340 488D3500 		leaq	.LC5(%rip), %rsi
 3291      000000
 3292 2347 E8000000 		call	errPrefix@PLT
 3292      00
 3293 234c 4883C418 		addq	$24, %rsp
 3294              		.cfi_remember_state
 3295              		.cfi_def_cfa_offset 56
 3296 2350 B8010000 		movl	$1, %eax
 3296      00
 3297 2355 5B       		popq	%rbx
 3298              		.cfi_def_cfa_offset 48
 3299 2356 5D       		popq	%rbp
 3300              		.cfi_def_cfa_offset 40
 3301 2357 415C     		popq	%r12
 3302              		.cfi_def_cfa_offset 32
 3303 2359 415D     		popq	%r13
 3304              		.cfi_def_cfa_offset 24
 3305 235b 415E     		popq	%r14
 3306              		.cfi_def_cfa_offset 16
 3307 235d 415F     		popq	%r15
 3308              		.cfi_def_cfa_offset 8
 3309 235f C3       		ret
 3310              		.p2align 4,,10
 3311              		.p2align 3
 3312              	.L581:
 3313              		.cfi_restore_state
 3314 2360 4883FE0E 		cmpq	$14, %rsi
 3315 2364 0F860203 		jbe	.L578
 3315      0000
 3316 236a 0FB67310 		movzbl	16(%rbx), %esi
 3317 236e 4C89C0   		movq	%r8, %rax
 3318 2371 660F6EC6 		movd	%esi, %xmm0
 3319 2375 4889FE   		movq	%rdi, %rsi
 3320 2378 660F60C0 		punpcklbw	%xmm0, %xmm0
 3321 237c 4883E6F0 		andq	$-16, %rsi
 3322 2380 660F61C0 		punpcklwd	%xmm0, %xmm0
 3323 2384 4C01C6   		addq	%r8, %rsi
 3324 2387 660F70C0 		pshufd	$0, %xmm0, %xmm0
 3324      00
 3325 238c 0F1F4000 		.p2align 4,,10
 3326              		.p2align 3
 3327              	.L557:
 3328 2390 0F1100   		movups	%xmm0, (%rax)
 3329 2393 4883C010 		addq	$16, %rax
 3330 2397 4839C6   		cmpq	%rax, %rsi
 3331 239a 75F4     		jne	.L557
 3332 239c 4989F9   		movq	%rdi, %r9
 3333 239f 4983E1F0 		andq	$-16, %r9
 3334 23a3 4B8D0408 		leaq	(%r8,%r9), %rax
 3335 23a7 40F6C70F 		testb	$15, %dil
 3336 23ab 0F84E0FD 		je	.L562
 3336      FFFF
 3337 23b1 4C29CF   		subq	%r9, %rdi
 3338 23b4 488D77FF 		leaq	-1(%rdi), %rsi
 3339 23b8 4883FE06 		cmpq	$6, %rsi
 3340 23bc 762C     		jbe	.L559
 3341              	.L556:
 3342 23be 0FB67310 		movzbl	16(%rbx), %esi
 3343 23c2 89F1     		movl	%esi, %ecx
 3344 23c4 88CD     		movb	%cl, %ch
 3345 23c6 89CE     		movl	%ecx, %esi
 3346 23c8 660F6ECE 		movd	%esi, %xmm1
 3347 23cc 4889FE   		movq	%rdi, %rsi
 3348 23cf 4883E6F8 		andq	$-8, %rsi
 3349 23d3 F20F70C1 		pshuflw	$0, %xmm1, %xmm0
 3349      00
 3350 23d8 4801F0   		addq	%rsi, %rax
 3351 23db 83E707   		andl	$7, %edi
 3352 23de 66430FD6 		movq	%xmm0, (%r8,%r9)
 3352      0408
 3353 23e4 0F84A7FD 		je	.L562
 3353      FFFF
 3354              	.L559:
 3355 23ea 0FB67310 		movzbl	16(%rbx), %esi
 3356 23ee 488D7801 		leaq	1(%rax), %rdi
 3357 23f2 408830   		movb	%sil, (%rax)
 3358 23f5 4839D7   		cmpq	%rdx, %rdi
 3359 23f8 0F8393FD 		jnb	.L562
 3359      FFFF
 3360 23fe 40887001 		movb	%sil, 1(%rax)
 3361 2402 488D7002 		leaq	2(%rax), %rsi
 3362 2406 4839D6   		cmpq	%rdx, %rsi
 3363 2409 0F8382FD 		jnb	.L562
 3363      FFFF
 3364 240f 0FB67310 		movzbl	16(%rbx), %esi
 3365 2413 488D7803 		leaq	3(%rax), %rdi
 3366 2417 40887002 		movb	%sil, 2(%rax)
 3367 241b 4839D7   		cmpq	%rdx, %rdi
 3368 241e 0F836DFD 		jnb	.L562
 3368      FFFF
 3369 2424 40887003 		movb	%sil, 3(%rax)
 3370 2428 488D7004 		leaq	4(%rax), %rsi
 3371 242c 4839D6   		cmpq	%rdx, %rsi
 3372 242f 0F835CFD 		jnb	.L562
 3372      FFFF
 3373 2435 0FB67310 		movzbl	16(%rbx), %esi
 3374 2439 488D7805 		leaq	5(%rax), %rdi
 3375 243d 40887004 		movb	%sil, 4(%rax)
 3376 2441 4839D7   		cmpq	%rdx, %rdi
 3377 2444 0F8347FD 		jnb	.L562
 3377      FFFF
 3378 244a 40887005 		movb	%sil, 5(%rax)
 3379 244e 488D7006 		leaq	6(%rax), %rsi
 3380 2452 4839D6   		cmpq	%rdx, %rsi
 3381 2455 0F8336FD 		jnb	.L562
 3381      FFFF
 3382 245b 0FB65310 		movzbl	16(%rbx), %edx
 3383 245f 885006   		movb	%dl, 6(%rax)
 3384 2462 E92AFDFF 		jmp	.L562
 3384      FF
 3385 2467 660F1F84 		.p2align 4,,10
 3385      00000000 
 3385      00
 3386              		.p2align 3
 3387              	.L580:
 3388 2470 4883F90E 		cmpq	$14, %rcx
 3389 2474 0F86FA01 		jbe	.L577
 3389      0000
 3390 247a 0FB64B10 		movzbl	16(%rbx), %ecx
 3391 247e 4C89C0   		movq	%r8, %rax
 3392 2481 660F6EC1 		movd	%ecx, %xmm0
 3393 2485 4889D1   		movq	%rdx, %rcx
 3394 2488 660F60C0 		punpcklbw	%xmm0, %xmm0
 3395 248c 4883E1F0 		andq	$-16, %rcx
 3396 2490 660F61C0 		punpcklwd	%xmm0, %xmm0
 3397 2494 4C01C1   		addq	%r8, %rcx
 3398 2497 660F70C0 		pshufd	$0, %xmm0, %xmm0
 3398      00
 3399 249c 0F1F4000 		.p2align 4,,10
 3400              		.p2align 3
 3401              	.L547:
 3402 24a0 0F1100   		movups	%xmm0, (%rax)
 3403 24a3 4883C010 		addq	$16, %rax
 3404 24a7 4839C8   		cmpq	%rcx, %rax
 3405 24aa 75F4     		jne	.L547
 3406 24ac 4889D7   		movq	%rdx, %rdi
 3407 24af 4883E7F0 		andq	$-16, %rdi
 3408 24b3 498D0438 		leaq	(%r8,%rdi), %rax
 3409 24b7 F6C20F   		testb	$15, %dl
 3410 24ba 0F84A0FD 		je	.L552
 3410      FFFF
 3411 24c0 4829FA   		subq	%rdi, %rdx
 3412 24c3 488D4AFF 		leaq	-1(%rdx), %rcx
 3413 24c7 4883F906 		cmpq	$6, %rcx
 3414 24cb 7628     		jbe	.L549
 3415              	.L546:
 3416 24cd 0FB64B10 		movzbl	16(%rbx), %ecx
 3417 24d1 88CD     		movb	%cl, %ch
 3418 24d3 660F6ED1 		movd	%ecx, %xmm2
 3419 24d7 4889D1   		movq	%rdx, %rcx
 3420 24da 4883E1F8 		andq	$-8, %rcx
 3421 24de F20F70C2 		pshuflw	$0, %xmm2, %xmm0
 3421      00
 3422 24e3 4801C8   		addq	%rcx, %rax
 3423 24e6 83E207   		andl	$7, %edx
 3424 24e9 66410FD6 		movq	%xmm0, (%r8,%rdi)
 3424      0438
 3425 24ef 0F846BFD 		je	.L552
 3425      FFFF
 3426              	.L549:
 3427 24f5 0FB65310 		movzbl	16(%rbx), %edx
 3428 24f9 488D4801 		leaq	1(%rax), %rcx
 3429 24fd 8810     		movb	%dl, (%rax)
 3430 24ff 4839F1   		cmpq	%rsi, %rcx
 3431 2502 0F8358FD 		jnb	.L552
 3431      FFFF
 3432 2508 885001   		movb	%dl, 1(%rax)
 3433 250b 488D5002 		leaq	2(%rax), %rdx
 3434 250f 4839F2   		cmpq	%rsi, %rdx
 3435 2512 0F8348FD 		jnb	.L552
 3435      FFFF
 3436 2518 0FB65310 		movzbl	16(%rbx), %edx
 3437 251c 488D4803 		leaq	3(%rax), %rcx
 3438 2520 885002   		movb	%dl, 2(%rax)
 3439 2523 4839F1   		cmpq	%rsi, %rcx
 3440 2526 0F8334FD 		jnb	.L552
 3440      FFFF
 3441 252c 885003   		movb	%dl, 3(%rax)
 3442 252f 488D5004 		leaq	4(%rax), %rdx
 3443 2533 4839F2   		cmpq	%rsi, %rdx
 3444 2536 0F8324FD 		jnb	.L552
 3444      FFFF
 3445 253c 0FB65310 		movzbl	16(%rbx), %edx
 3446 2540 488D4805 		leaq	5(%rax), %rcx
 3447 2544 885004   		movb	%dl, 4(%rax)
 3448 2547 4839F1   		cmpq	%rsi, %rcx
 3449 254a 0F8310FD 		jnb	.L552
 3449      FFFF
 3450 2550 885005   		movb	%dl, 5(%rax)
 3451 2553 488D5006 		leaq	6(%rax), %rdx
 3452 2557 4839F2   		cmpq	%rsi, %rdx
 3453 255a 0F8300FD 		jnb	.L552
 3453      FFFF
 3454 2560 0FB65310 		movzbl	16(%rbx), %edx
 3455 2564 885006   		movb	%dl, 6(%rax)
 3456 2567 E9F4FCFF 		jmp	.L552
 3456      FF
 3457              	.L582:
 3458 256c 4883F90E 		cmpq	$14, %rcx
 3459 2570 0F860501 		jbe	.L579
 3459      0000
 3460 2576 0FB64B10 		movzbl	16(%rbx), %ecx
 3461 257a 4C89C0   		movq	%r8, %rax
 3462 257d 660F6EC1 		movd	%ecx, %xmm0
 3463 2581 4889D1   		movq	%rdx, %rcx
 3464 2584 660F60C0 		punpcklbw	%xmm0, %xmm0
 3465 2588 4883E1F0 		andq	$-16, %rcx
 3466 258c 660F61C0 		punpcklwd	%xmm0, %xmm0
 3467 2590 4C01C1   		addq	%r8, %rcx
 3468 2593 660F70C0 		pshufd	$0, %xmm0, %xmm0
 3468      00
 3469 2598 0F1F8400 		.p2align 4,,10
 3469      00000000 
 3470              		.p2align 3
 3471              	.L571:
 3472 25a0 0F1100   		movups	%xmm0, (%rax)
 3473 25a3 4883C010 		addq	$16, %rax
 3474 25a7 4839C8   		cmpq	%rcx, %rax
 3475 25aa 75F4     		jne	.L571
 3476 25ac 4889D7   		movq	%rdx, %rdi
 3477 25af 4883E7F0 		andq	$-16, %rdi
 3478 25b3 498D0438 		leaq	(%r8,%rdi), %rax
 3479 25b7 F6C20F   		testb	$15, %dl
 3480 25ba 0F8450FD 		je	.L576
 3480      FFFF
 3481 25c0 4829FA   		subq	%rdi, %rdx
 3482 25c3 488D4AFF 		leaq	-1(%rdx), %rcx
 3483 25c7 4883F906 		cmpq	$6, %rcx
 3484 25cb 7628     		jbe	.L573
 3485              	.L570:
 3486 25cd 0FB64B10 		movzbl	16(%rbx), %ecx
 3487 25d1 88CD     		movb	%cl, %ch
 3488 25d3 660F6ED9 		movd	%ecx, %xmm3
 3489 25d7 4889D1   		movq	%rdx, %rcx
 3490 25da 4883E1F8 		andq	$-8, %rcx
 3491 25de F20F70C3 		pshuflw	$0, %xmm3, %xmm0
 3491      00
 3492 25e3 4801C8   		addq	%rcx, %rax
 3493 25e6 83E207   		andl	$7, %edx
 3494 25e9 66410FD6 		movq	%xmm0, (%r8,%rdi)
 3494      0438
 3495 25ef 0F841BFD 		je	.L576
 3495      FFFF
 3496              	.L573:
 3497 25f5 0FB65310 		movzbl	16(%rbx), %edx
 3498 25f9 488D4801 		leaq	1(%rax), %rcx
 3499 25fd 8810     		movb	%dl, (%rax)
 3500 25ff 4839F1   		cmpq	%rsi, %rcx
 3501 2602 0F8308FD 		jnb	.L576
 3501      FFFF
 3502 2608 885001   		movb	%dl, 1(%rax)
 3503 260b 488D5002 		leaq	2(%rax), %rdx
 3504 260f 4839F2   		cmpq	%rsi, %rdx
 3505 2612 0F83F8FC 		jnb	.L576
 3505      FFFF
 3506 2618 0FB65310 		movzbl	16(%rbx), %edx
 3507 261c 488D4803 		leaq	3(%rax), %rcx
 3508 2620 885002   		movb	%dl, 2(%rax)
 3509 2623 4839F1   		cmpq	%rsi, %rcx
 3510 2626 0F83E4FC 		jnb	.L576
 3510      FFFF
 3511 262c 885003   		movb	%dl, 3(%rax)
 3512 262f 488D5004 		leaq	4(%rax), %rdx
 3513 2633 4839F2   		cmpq	%rsi, %rdx
 3514 2636 0F83D4FC 		jnb	.L576
 3514      FFFF
 3515 263c 0FB65310 		movzbl	16(%rbx), %edx
 3516 2640 488D4805 		leaq	5(%rax), %rcx
 3517 2644 885004   		movb	%dl, 4(%rax)
 3518 2647 4839F1   		cmpq	%rsi, %rcx
 3519 264a 0F83C0FC 		jnb	.L576
 3519      FFFF
 3520 2650 885005   		movb	%dl, 5(%rax)
 3521 2653 488D5006 		leaq	6(%rax), %rdx
 3522 2657 4839F2   		cmpq	%rsi, %rdx
 3523 265a 0F83B0FC 		jnb	.L576
 3523      FFFF
 3524 2660 0FB65310 		movzbl	16(%rbx), %edx
 3525 2664 885006   		movb	%dl, 6(%rax)
 3526 2667 E9A4FCFF 		jmp	.L576
 3526      FF
 3527              	.L578:
 3528 266c 4531C9   		xorl	%r9d, %r9d
 3529 266f E94AFDFF 		jmp	.L556
 3529      FF
 3530              	.L577:
 3531 2674 31FF     		xorl	%edi, %edi
 3532 2676 E952FEFF 		jmp	.L546
 3532      FF
 3533              	.L579:
 3534 267b 31FF     		xorl	%edi, %edi
 3535 267d E94BFFFF 		jmp	.L570
 3535      FF
 3536              		.cfi_endproc
 3537              	.LFE51:
 3539              		.section	.rodata.str1.1
 3540              	.LC6:
 3541 0042 62756657 		.string	"bufWriteLongBE()"
 3541      72697465 
 3541      4C6F6E67 
 3541      42452829 
 3541      00
 3542              		.text
 3543 2682 66662E0F 		.p2align 4
 3543      1F840000 
 3543      0000000F 
 3543      1F00
 3544              		.globl	bufWriteLongBE
 3546              	bufWriteLongBE:
 3547              	.LFB52:
 3548              		.cfi_startproc
 3549 2690 F30F1EFA 		endbr64
 3550 2694 4157     		pushq	%r15
 3551              		.cfi_def_cfa_offset 16
 3552              		.cfi_offset 15, -16
 3553 2696 4989CF   		movq	%rcx, %r15
 3554 2699 4156     		pushq	%r14
 3555              		.cfi_def_cfa_offset 24
 3556              		.cfi_offset 14, -24
 3557 269b 448D7604 		leal	4(%rsi), %r14d
 3558 269f 4155     		pushq	%r13
 3559              		.cfi_def_cfa_offset 32
 3560              		.cfi_offset 13, -32
 3561 26a1 4189D5   		movl	%edx, %r13d
 3562 26a4 4154     		pushq	%r12
 3563              		.cfi_def_cfa_offset 40
 3564              		.cfi_offset 12, -40
 3565 26a6 4189F4   		movl	%esi, %r12d
 3566 26a9 55       		pushq	%rbp
 3567              		.cfi_def_cfa_offset 48
 3568              		.cfi_offset 6, -48
 3569 26aa 53       		pushq	%rbx
 3570              		.cfi_def_cfa_offset 56
 3571              		.cfi_offset 3, -56
 3572 26ab 4889FB   		movq	%rdi, %rbx
 3573 26ae 4883EC18 		subq	$24, %rsp
 3574              		.cfi_def_cfa_offset 80
 3575 26b2 8B4708   		movl	8(%rdi), %eax
 3576 26b5 488B3F   		movq	(%rdi), %rdi
 3577 26b8 39C6     		cmpl	%eax, %esi
 3578 26ba 0F824001 		jb	.L624
 3578      0000
 3579 26c0 8B6B0C   		movl	12(%rbx), %ebp
 3580 26c3 4439F5   		cmpl	%r14d, %ebp
 3581 26c6 0F82A400 		jb	.L626
 3581      0000
 3582              	.L625:
 3583 26cc 89C6     		movl	%eax, %esi
 3584 26ce 4589E2   		movl	%r12d, %r10d
 3585 26d1 4C8D0437 		leaq	(%rdi,%rsi), %r8
 3586 26d5 4A8D1417 		leaq	(%rdi,%r10), %rdx
 3587 26d9 4C89C0   		movq	%r8, %rax
 3588 26dc 4939D0   		cmpq	%rdx, %r8
 3589 26df 7349     		jnb	.L639
 3590 26e1 4C89D1   		movq	%r10, %rcx
 3591 26e4 4829F1   		subq	%rsi, %rcx
 3592 26e7 488D71FF 		leaq	-1(%rcx), %rsi
 3593 26eb 4889CF   		movq	%rcx, %rdi
 3594 26ee 4883FE06 		cmpq	$6, %rsi
 3595 26f2 761C     		jbe	.L647
 3596 26f4 4C8D4B10 		leaq	16(%rbx), %r9
 3597 26f8 4939D1   		cmpq	%rdx, %r9
 3598 26fb 0F83EF01 		jnb	.L667
 3598      0000
 3599 2701 4C8D4B11 		leaq	17(%rbx), %r9
 3600 2705 4D39C1   		cmpq	%r8, %r9
 3601 2708 0F86E201 		jbe	.L667
 3601      0000
 3602 270e 6690     		.p2align 4,,10
 3603              		.p2align 3
 3604              	.L647:
 3605 2710 0FB67310 		movzbl	16(%rbx), %esi
 3606 2714 4883C001 		addq	$1, %rax
 3607 2718 408870FF 		movb	%sil, -1(%rax)
 3608 271c 4839C2   		cmpq	%rax, %rdx
 3609 271f 75EF     		jne	.L647
 3610              	.L648:
 3611 2721 488B0B   		movq	(%rbx), %rcx
 3612 2724 4C01D1   		addq	%r10, %rcx
 3613 2727 4889CA   		movq	%rcx, %rdx
 3614              	.L639:
 3615 272a 44897308 		movl	%r14d, 8(%rbx)
 3616              	.L649:
 3617              	.L628:
 3618 272e 4489E8   		movl	%r13d, %eax
 3619 2731 C1E818   		shrl	$24, %eax
 3620 2734 8802     		movb	%al, (%rdx)
 3621 2736 4489EA   		movl	%r13d, %edx
 3622 2739 488B03   		movq	(%rbx), %rax
 3623 273c C1EA10   		shrl	$16, %edx
 3624 273f 42885410 		movb	%dl, 1(%rax,%r10)
 3624      01
 3625 2744 4489EA   		movl	%r13d, %edx
 3626 2747 488B03   		movq	(%rbx), %rax
 3627 274a 0FB6D6   		movzbl	%dh, %edx
 3628 274d 42885410 		movb	%dl, 2(%rax,%r10)
 3628      02
 3629 2752 488B03   		movq	(%rbx), %rax
 3630 2755 46886C10 		movb	%r13b, 3(%rax,%r10)
 3630      03
 3631 275a 4883C418 		addq	$24, %rsp
 3632              		.cfi_remember_state
 3633              		.cfi_def_cfa_offset 56
 3634 275e 31C0     		xorl	%eax, %eax
 3635 2760 5B       		popq	%rbx
 3636              		.cfi_def_cfa_offset 48
 3637 2761 5D       		popq	%rbp
 3638              		.cfi_def_cfa_offset 40
 3639 2762 415C     		popq	%r12
 3640              		.cfi_def_cfa_offset 32
 3641 2764 415D     		popq	%r13
 3642              		.cfi_def_cfa_offset 24
 3643 2766 415E     		popq	%r14
 3644              		.cfi_def_cfa_offset 16
 3645 2768 415F     		popq	%r15
 3646              		.cfi_def_cfa_offset 8
 3647 276a C3       		ret
 3648 276b 0F1F4400 		.p2align 4,,10
 3648      00
 3649              		.p2align 3
 3650              	.L626:
 3651              		.cfi_restore_state
 3652 2770 01ED     		addl	%ebp, %ebp
 3653 2772 4439F5   		cmpl	%r14d, %ebp
 3654 2775 72F9     		jb	.L626
 3655 2777 89EA     		movl	%ebp, %edx
 3656 2779 4889D6   		movq	%rdx, %rsi
 3657 277c 48895424 		movq	%rdx, 8(%rsp)
 3657      08
 3658 2781 E8000000 		call	realloc@PLT
 3658      00
 3659 2786 488B5424 		movq	8(%rsp), %rdx
 3659      08
 3660 278b 4885C0   		testq	%rax, %rax
 3661 278e 488903   		movq	%rax, (%rbx)
 3662 2791 4889C7   		movq	%rax, %rdi
 3663 2794 0F842201 		je	.L653
 3663      0000
 3664 279a 4589F1   		movl	%r14d, %r9d
 3665 279d 488D3417 		leaq	(%rdi,%rdx), %rsi
 3666 27a1 896B0C   		movl	%ebp, 12(%rbx)
 3667 27a4 4E8D0408 		leaq	(%rax,%r9), %r8
 3668 27a8 4C89C0   		movq	%r8, %rax
 3669 27ab 4939F0   		cmpq	%rsi, %r8
 3670 27ae 7343     		jnb	.L708
 3671 27b0 4C29CA   		subq	%r9, %rdx
 3672 27b3 488D4AFF 		leaq	-1(%rdx), %rcx
 3673 27b7 4883F906 		cmpq	$6, %rcx
 3674 27bb 7623     		jbe	.L637
 3675 27bd 488D7B10 		leaq	16(%rbx), %rdi
 3676 27c1 4839F7   		cmpq	%rsi, %rdi
 3677 27c4 0F833602 		jnb	.L666
 3677      0000
 3678 27ca 488D7B11 		leaq	17(%rbx), %rdi
 3679 27ce 4C39C7   		cmpq	%r8, %rdi
 3680 27d1 0F862902 		jbe	.L666
 3680      0000
 3681 27d7 660F1F84 		.p2align 4,,10
 3681      00000000 
 3681      00
 3682              		.p2align 3
 3683              	.L637:
 3684 27e0 0FB65310 		movzbl	16(%rbx), %edx
 3685 27e4 4883C001 		addq	$1, %rax
 3686 27e8 8850FF   		movb	%dl, -1(%rax)
 3687 27eb 4839C6   		cmpq	%rax, %rsi
 3688 27ee 75F0     		jne	.L637
 3689              	.L638:
 3690 27f0 488B3B   		movq	(%rbx), %rdi
 3691              	.L708:
 3692 27f3 8B4308   		movl	8(%rbx), %eax
 3693 27f6 E9D1FEFF 		jmp	.L625
 3693      FF
 3694 27fb 0F1F4400 		.p2align 4,,10
 3694      00
 3695              		.p2align 3
 3696              	.L624:
 3697 2800 4439F0   		cmpl	%r14d, %eax
 3698 2803 0F83A700 		jnb	.L650
 3698      0000
 3699 2809 8B6B0C   		movl	12(%rbx), %ebp
 3700 280c 4439F5   		cmpl	%r14d, %ebp
 3701 280f 7217     		jb	.L652
 3702              	.L651:
 3703 2811 4589E2   		movl	%r12d, %r10d
 3704 2814 44897308 		movl	%r14d, 8(%rbx)
 3705 2818 4A8D1417 		leaq	(%rdi,%r10), %rdx
 3706 281c E90DFFFF 		jmp	.L649
 3706      FF
 3707              		.p2align 4,,10
 3708 2821 0F1F8000 		.p2align 3
 3708      000000
 3709              	.L652:
 3710 2828 01ED     		addl	%ebp, %ebp
 3711 282a 4439F5   		cmpl	%r14d, %ebp
 3712 282d 72F9     		jb	.L652
 3713 282f 89EA     		movl	%ebp, %edx
 3714 2831 4889D6   		movq	%rdx, %rsi
 3715 2834 48895424 		movq	%rdx, 8(%rsp)
 3715      08
 3716 2839 E8000000 		call	realloc@PLT
 3716      00
 3717 283e 488903   		movq	%rax, (%rbx)
 3718 2841 4889C7   		movq	%rax, %rdi
 3719 2844 4885C0   		testq	%rax, %rax
 3720 2847 7473     		je	.L653
 3721 2849 488B5424 		movq	8(%rsp), %rdx
 3721      08
 3722 284e 4589F1   		movl	%r14d, %r9d
 3723 2851 896B0C   		movl	%ebp, 12(%rbx)
 3724 2854 4E8D0408 		leaq	(%rax,%r9), %r8
 3725 2858 488D3417 		leaq	(%rdi,%rdx), %rsi
 3726 285c 4C89C0   		movq	%r8, %rax
 3727 285f 4939F0   		cmpq	%rsi, %r8
 3728 2862 73AD     		jnb	.L651
 3729 2864 4C29CA   		subq	%r9, %rdx
 3730 2867 488D4AFF 		leaq	-1(%rdx), %rcx
 3731 286b 4883F906 		cmpq	$6, %rcx
 3732 286f 761F     		jbe	.L661
 3733 2871 488D7B10 		leaq	16(%rbx), %rdi
 3734 2875 4839F7   		cmpq	%rsi, %rdi
 3735 2878 0F837E02 		jnb	.L668
 3735      0000
 3736 287e 488D7B11 		leaq	17(%rbx), %rdi
 3737 2882 4C39C7   		cmpq	%r8, %rdi
 3738 2885 0F867102 		jbe	.L668
 3738      0000
 3739 288b 0F1F4400 		.p2align 4,,10
 3739      00
 3740              		.p2align 3
 3741              	.L661:
 3742 2890 0FB65310 		movzbl	16(%rbx), %edx
 3743 2894 4883C001 		addq	$1, %rax
 3744 2898 8850FF   		movb	%dl, -1(%rax)
 3745 289b 4839C6   		cmpq	%rax, %rsi
 3746 289e 75F0     		jne	.L661
 3747              	.L662:
 3748 28a0 488B3B   		movq	(%rbx), %rdi
 3749 28a3 E969FFFF 		jmp	.L651
 3749      FF
 3750 28a8 0F1F8400 		.p2align 4,,10
 3750      00000000 
 3751              		.p2align 3
 3752              	.L650:
 3753 28b0 4189F2   		movl	%esi, %r10d
 3754 28b3 4A8D1417 		leaq	(%rdi,%r10), %rdx
 3755 28b7 E972FEFF 		jmp	.L649
 3755      FF
 3756              	.L653:
 3757 28bc 4C89FF   		movq	%r15, %rdi
 3758 28bf 31C0     		xorl	%eax, %eax
 3759 28c1 488D3500 		leaq	.LC1(%rip), %rsi
 3759      000000
 3760 28c8 E8000000 		call	errRender@PLT
 3760      00
 3761 28cd 4C89FF   		movq	%r15, %rdi
 3762 28d0 488D3500 		leaq	.LC6(%rip), %rsi
 3762      000000
 3763 28d7 E8000000 		call	errPrefix@PLT
 3763      00
 3764 28dc 4883C418 		addq	$24, %rsp
 3765              		.cfi_remember_state
 3766              		.cfi_def_cfa_offset 56
 3767 28e0 B8010000 		movl	$1, %eax
 3767      00
 3768 28e5 5B       		popq	%rbx
 3769              		.cfi_def_cfa_offset 48
 3770 28e6 5D       		popq	%rbp
 3771              		.cfi_def_cfa_offset 40
 3772 28e7 415C     		popq	%r12
 3773              		.cfi_def_cfa_offset 32
 3774 28e9 415D     		popq	%r13
 3775              		.cfi_def_cfa_offset 24
 3776 28eb 415E     		popq	%r14
 3777              		.cfi_def_cfa_offset 16
 3778 28ed 415F     		popq	%r15
 3779              		.cfi_def_cfa_offset 8
 3780 28ef C3       		ret
 3781              		.p2align 4,,10
 3782              		.p2align 3
 3783              	.L667:
 3784              		.cfi_restore_state
 3785 28f0 4883FE0E 		cmpq	$14, %rsi
 3786 28f4 0F860203 		jbe	.L664
 3786      0000
 3787 28fa 0FB67310 		movzbl	16(%rbx), %esi
 3788 28fe 4C89C0   		movq	%r8, %rax
 3789 2901 660F6EC6 		movd	%esi, %xmm0
 3790 2905 4889FE   		movq	%rdi, %rsi
 3791 2908 660F60C0 		punpcklbw	%xmm0, %xmm0
 3792 290c 4883E6F0 		andq	$-16, %rsi
 3793 2910 660F61C0 		punpcklwd	%xmm0, %xmm0
 3794 2914 4C01C6   		addq	%r8, %rsi
 3795 2917 660F70C0 		pshufd	$0, %xmm0, %xmm0
 3795      00
 3796 291c 0F1F4000 		.p2align 4,,10
 3797              		.p2align 3
 3798              	.L643:
 3799 2920 0F1100   		movups	%xmm0, (%rax)
 3800 2923 4883C010 		addq	$16, %rax
 3801 2927 4839C6   		cmpq	%rax, %rsi
 3802 292a 75F4     		jne	.L643
 3803 292c 4989F9   		movq	%rdi, %r9
 3804 292f 4983E1F0 		andq	$-16, %r9
 3805 2933 4B8D0408 		leaq	(%r8,%r9), %rax
 3806 2937 40F6C70F 		testb	$15, %dil
 3807 293b 0F84E0FD 		je	.L648
 3807      FFFF
 3808 2941 4C29CF   		subq	%r9, %rdi
 3809 2944 488D77FF 		leaq	-1(%rdi), %rsi
 3810 2948 4883FE06 		cmpq	$6, %rsi
 3811 294c 762C     		jbe	.L645
 3812              	.L642:
 3813 294e 0FB67310 		movzbl	16(%rbx), %esi
 3814 2952 89F1     		movl	%esi, %ecx
 3815 2954 88CD     		movb	%cl, %ch
 3816 2956 89CE     		movl	%ecx, %esi
 3817 2958 660F6ECE 		movd	%esi, %xmm1
 3818 295c 4889FE   		movq	%rdi, %rsi
 3819 295f 4883E6F8 		andq	$-8, %rsi
 3820 2963 F20F70C1 		pshuflw	$0, %xmm1, %xmm0
 3820      00
 3821 2968 4801F0   		addq	%rsi, %rax
 3822 296b 83E707   		andl	$7, %edi
 3823 296e 66430FD6 		movq	%xmm0, (%r8,%r9)
 3823      0408
 3824 2974 0F84A7FD 		je	.L648
 3824      FFFF
 3825              	.L645:
 3826 297a 0FB67310 		movzbl	16(%rbx), %esi
 3827 297e 488D7801 		leaq	1(%rax), %rdi
 3828 2982 408830   		movb	%sil, (%rax)
 3829 2985 4839D7   		cmpq	%rdx, %rdi
 3830 2988 0F8393FD 		jnb	.L648
 3830      FFFF
 3831 298e 40887001 		movb	%sil, 1(%rax)
 3832 2992 488D7002 		leaq	2(%rax), %rsi
 3833 2996 4839D6   		cmpq	%rdx, %rsi
 3834 2999 0F8382FD 		jnb	.L648
 3834      FFFF
 3835 299f 0FB67310 		movzbl	16(%rbx), %esi
 3836 29a3 488D7803 		leaq	3(%rax), %rdi
 3837 29a7 40887002 		movb	%sil, 2(%rax)
 3838 29ab 4839D7   		cmpq	%rdx, %rdi
 3839 29ae 0F836DFD 		jnb	.L648
 3839      FFFF
 3840 29b4 40887003 		movb	%sil, 3(%rax)
 3841 29b8 488D7004 		leaq	4(%rax), %rsi
 3842 29bc 4839D6   		cmpq	%rdx, %rsi
 3843 29bf 0F835CFD 		jnb	.L648
 3843      FFFF
 3844 29c5 0FB67310 		movzbl	16(%rbx), %esi
 3845 29c9 488D7805 		leaq	5(%rax), %rdi
 3846 29cd 40887004 		movb	%sil, 4(%rax)
 3847 29d1 4839D7   		cmpq	%rdx, %rdi
 3848 29d4 0F8347FD 		jnb	.L648
 3848      FFFF
 3849 29da 40887005 		movb	%sil, 5(%rax)
 3850 29de 488D7006 		leaq	6(%rax), %rsi
 3851 29e2 4839D6   		cmpq	%rdx, %rsi
 3852 29e5 0F8336FD 		jnb	.L648
 3852      FFFF
 3853 29eb 0FB65310 		movzbl	16(%rbx), %edx
 3854 29ef 885006   		movb	%dl, 6(%rax)
 3855 29f2 E92AFDFF 		jmp	.L648
 3855      FF
 3856 29f7 660F1F84 		.p2align 4,,10
 3856      00000000 
 3856      00
 3857              		.p2align 3
 3858              	.L666:
 3859 2a00 4883F90E 		cmpq	$14, %rcx
 3860 2a04 0F86FA01 		jbe	.L663
 3860      0000
 3861 2a0a 0FB64B10 		movzbl	16(%rbx), %ecx
 3862 2a0e 4C89C0   		movq	%r8, %rax
 3863 2a11 660F6EC1 		movd	%ecx, %xmm0
 3864 2a15 4889D1   		movq	%rdx, %rcx
 3865 2a18 660F60C0 		punpcklbw	%xmm0, %xmm0
 3866 2a1c 4883E1F0 		andq	$-16, %rcx
 3867 2a20 660F61C0 		punpcklwd	%xmm0, %xmm0
 3868 2a24 4C01C1   		addq	%r8, %rcx
 3869 2a27 660F70C0 		pshufd	$0, %xmm0, %xmm0
 3869      00
 3870 2a2c 0F1F4000 		.p2align 4,,10
 3871              		.p2align 3
 3872              	.L633:
 3873 2a30 0F1100   		movups	%xmm0, (%rax)
 3874 2a33 4883C010 		addq	$16, %rax
 3875 2a37 4839C8   		cmpq	%rcx, %rax
 3876 2a3a 75F4     		jne	.L633
 3877 2a3c 4889D7   		movq	%rdx, %rdi
 3878 2a3f 4883E7F0 		andq	$-16, %rdi
 3879 2a43 498D0438 		leaq	(%r8,%rdi), %rax
 3880 2a47 F6C20F   		testb	$15, %dl
 3881 2a4a 0F84A0FD 		je	.L638
 3881      FFFF
 3882 2a50 4829FA   		subq	%rdi, %rdx
 3883 2a53 488D4AFF 		leaq	-1(%rdx), %rcx
 3884 2a57 4883F906 		cmpq	$6, %rcx
 3885 2a5b 7628     		jbe	.L635
 3886              	.L632:
 3887 2a5d 0FB64B10 		movzbl	16(%rbx), %ecx
 3888 2a61 88CD     		movb	%cl, %ch
 3889 2a63 660F6ED1 		movd	%ecx, %xmm2
 3890 2a67 4889D1   		movq	%rdx, %rcx
 3891 2a6a 4883E1F8 		andq	$-8, %rcx
 3892 2a6e F20F70C2 		pshuflw	$0, %xmm2, %xmm0
 3892      00
 3893 2a73 4801C8   		addq	%rcx, %rax
 3894 2a76 83E207   		andl	$7, %edx
 3895 2a79 66410FD6 		movq	%xmm0, (%r8,%rdi)
 3895      0438
 3896 2a7f 0F846BFD 		je	.L638
 3896      FFFF
 3897              	.L635:
 3898 2a85 0FB65310 		movzbl	16(%rbx), %edx
 3899 2a89 488D4801 		leaq	1(%rax), %rcx
 3900 2a8d 8810     		movb	%dl, (%rax)
 3901 2a8f 4839F1   		cmpq	%rsi, %rcx
 3902 2a92 0F8358FD 		jnb	.L638
 3902      FFFF
 3903 2a98 885001   		movb	%dl, 1(%rax)
 3904 2a9b 488D5002 		leaq	2(%rax), %rdx
 3905 2a9f 4839F2   		cmpq	%rsi, %rdx
 3906 2aa2 0F8348FD 		jnb	.L638
 3906      FFFF
 3907 2aa8 0FB65310 		movzbl	16(%rbx), %edx
 3908 2aac 488D4803 		leaq	3(%rax), %rcx
 3909 2ab0 885002   		movb	%dl, 2(%rax)
 3910 2ab3 4839F1   		cmpq	%rsi, %rcx
 3911 2ab6 0F8334FD 		jnb	.L638
 3911      FFFF
 3912 2abc 885003   		movb	%dl, 3(%rax)
 3913 2abf 488D5004 		leaq	4(%rax), %rdx
 3914 2ac3 4839F2   		cmpq	%rsi, %rdx
 3915 2ac6 0F8324FD 		jnb	.L638
 3915      FFFF
 3916 2acc 0FB65310 		movzbl	16(%rbx), %edx
 3917 2ad0 488D4805 		leaq	5(%rax), %rcx
 3918 2ad4 885004   		movb	%dl, 4(%rax)
 3919 2ad7 4839F1   		cmpq	%rsi, %rcx
 3920 2ada 0F8310FD 		jnb	.L638
 3920      FFFF
 3921 2ae0 885005   		movb	%dl, 5(%rax)
 3922 2ae3 488D5006 		leaq	6(%rax), %rdx
 3923 2ae7 4839F2   		cmpq	%rsi, %rdx
 3924 2aea 0F8300FD 		jnb	.L638
 3924      FFFF
 3925 2af0 0FB65310 		movzbl	16(%rbx), %edx
 3926 2af4 885006   		movb	%dl, 6(%rax)
 3927 2af7 E9F4FCFF 		jmp	.L638
 3927      FF
 3928              	.L668:
 3929 2afc 4883F90E 		cmpq	$14, %rcx
 3930 2b00 0F860501 		jbe	.L665
 3930      0000
 3931 2b06 0FB64B10 		movzbl	16(%rbx), %ecx
 3932 2b0a 4C89C0   		movq	%r8, %rax
 3933 2b0d 660F6EC1 		movd	%ecx, %xmm0
 3934 2b11 4889D1   		movq	%rdx, %rcx
 3935 2b14 660F60C0 		punpcklbw	%xmm0, %xmm0
 3936 2b18 4883E1F0 		andq	$-16, %rcx
 3937 2b1c 660F61C0 		punpcklwd	%xmm0, %xmm0
 3938 2b20 4C01C1   		addq	%r8, %rcx
 3939 2b23 660F70C0 		pshufd	$0, %xmm0, %xmm0
 3939      00
 3940 2b28 0F1F8400 		.p2align 4,,10
 3940      00000000 
 3941              		.p2align 3
 3942              	.L657:
 3943 2b30 0F1100   		movups	%xmm0, (%rax)
 3944 2b33 4883C010 		addq	$16, %rax
 3945 2b37 4839C8   		cmpq	%rcx, %rax
 3946 2b3a 75F4     		jne	.L657
 3947 2b3c 4889D7   		movq	%rdx, %rdi
 3948 2b3f 4883E7F0 		andq	$-16, %rdi
 3949 2b43 498D0438 		leaq	(%r8,%rdi), %rax
 3950 2b47 F6C20F   		testb	$15, %dl
 3951 2b4a 0F8450FD 		je	.L662
 3951      FFFF
 3952 2b50 4829FA   		subq	%rdi, %rdx
 3953 2b53 488D4AFF 		leaq	-1(%rdx), %rcx
 3954 2b57 4883F906 		cmpq	$6, %rcx
 3955 2b5b 7628     		jbe	.L659
 3956              	.L656:
 3957 2b5d 0FB64B10 		movzbl	16(%rbx), %ecx
 3958 2b61 88CD     		movb	%cl, %ch
 3959 2b63 660F6ED9 		movd	%ecx, %xmm3
 3960 2b67 4889D1   		movq	%rdx, %rcx
 3961 2b6a 4883E1F8 		andq	$-8, %rcx
 3962 2b6e F20F70C3 		pshuflw	$0, %xmm3, %xmm0
 3962      00
 3963 2b73 4801C8   		addq	%rcx, %rax
 3964 2b76 83E207   		andl	$7, %edx
 3965 2b79 66410FD6 		movq	%xmm0, (%r8,%rdi)
 3965      0438
 3966 2b7f 0F841BFD 		je	.L662
 3966      FFFF
 3967              	.L659:
 3968 2b85 0FB65310 		movzbl	16(%rbx), %edx
 3969 2b89 488D4801 		leaq	1(%rax), %rcx
 3970 2b8d 8810     		movb	%dl, (%rax)
 3971 2b8f 4839F1   		cmpq	%rsi, %rcx
 3972 2b92 0F8308FD 		jnb	.L662
 3972      FFFF
 3973 2b98 885001   		movb	%dl, 1(%rax)
 3974 2b9b 488D5002 		leaq	2(%rax), %rdx
 3975 2b9f 4839F2   		cmpq	%rsi, %rdx
 3976 2ba2 0F83F8FC 		jnb	.L662
 3976      FFFF
 3977 2ba8 0FB65310 		movzbl	16(%rbx), %edx
 3978 2bac 488D4803 		leaq	3(%rax), %rcx
 3979 2bb0 885002   		movb	%dl, 2(%rax)
 3980 2bb3 4839F1   		cmpq	%rsi, %rcx
 3981 2bb6 0F83E4FC 		jnb	.L662
 3981      FFFF
 3982 2bbc 885003   		movb	%dl, 3(%rax)
 3983 2bbf 488D5004 		leaq	4(%rax), %rdx
 3984 2bc3 4839F2   		cmpq	%rsi, %rdx
 3985 2bc6 0F83D4FC 		jnb	.L662
 3985      FFFF
 3986 2bcc 0FB65310 		movzbl	16(%rbx), %edx
 3987 2bd0 488D4805 		leaq	5(%rax), %rcx
 3988 2bd4 885004   		movb	%dl, 4(%rax)
 3989 2bd7 4839F1   		cmpq	%rsi, %rcx
 3990 2bda 0F83C0FC 		jnb	.L662
 3990      FFFF
 3991 2be0 885005   		movb	%dl, 5(%rax)
 3992 2be3 488D5006 		leaq	6(%rax), %rdx
 3993 2be7 4839F2   		cmpq	%rsi, %rdx
 3994 2bea 0F83B0FC 		jnb	.L662
 3994      FFFF
 3995 2bf0 0FB65310 		movzbl	16(%rbx), %edx
 3996 2bf4 885006   		movb	%dl, 6(%rax)
 3997 2bf7 E9A4FCFF 		jmp	.L662
 3997      FF
 3998              	.L664:
 3999 2bfc 4531C9   		xorl	%r9d, %r9d
 4000 2bff E94AFDFF 		jmp	.L642
 4000      FF
 4001              	.L663:
 4002 2c04 31FF     		xorl	%edi, %edi
 4003 2c06 E952FEFF 		jmp	.L632
 4003      FF
 4004              	.L665:
 4005 2c0b 31FF     		xorl	%edi, %edi
 4006 2c0d E94BFFFF 		jmp	.L656
 4006      FF
 4007              		.cfi_endproc
 4008              	.LFE52:
 4010              		.section	.rodata.str1.1
 4011              	.LC7:
 4012 0053 62756657 		.string	"bufWriteConst()"
 4012      72697465 
 4012      436F6E73 
 4012      74282900 
 4013              		.text
 4014 2c12 66662E0F 		.p2align 4
 4014      1F840000 
 4014      0000000F 
 4014      1F00
 4015              		.globl	bufWriteConst
 4017              	bufWriteConst:
 4018              	.LFB53:
 4019              		.cfi_startproc
 4020 2c20 F30F1EFA 		endbr64
 4021 2c24 4157     		pushq	%r15
 4022              		.cfi_def_cfa_offset 16
 4023              		.cfi_offset 15, -16
 4024 2c26 4189D7   		movl	%edx, %r15d
 4025 2c29 4156     		pushq	%r14
 4026              		.cfi_def_cfa_offset 24
 4027              		.cfi_offset 14, -24
 4028 2c2b 448D340E 		leal	(%rsi,%rcx), %r14d
 4029 2c2f 4155     		pushq	%r13
 4030              		.cfi_def_cfa_offset 32
 4031              		.cfi_offset 13, -32
 4032 2c31 4189CD   		movl	%ecx, %r13d
 4033 2c34 4154     		pushq	%r12
 4034              		.cfi_def_cfa_offset 40
 4035              		.cfi_offset 12, -40
 4036 2c36 55       		pushq	%rbp
 4037              		.cfi_def_cfa_offset 48
 4038              		.cfi_offset 6, -48
 4039 2c37 89F5     		movl	%esi, %ebp
 4040 2c39 53       		pushq	%rbx
 4041              		.cfi_def_cfa_offset 56
 4042              		.cfi_offset 3, -56
 4043 2c3a 4889FB   		movq	%rdi, %rbx
 4044 2c3d 4883EC18 		subq	$24, %rsp
 4045              		.cfi_def_cfa_offset 80
 4046 2c41 8B4708   		movl	8(%rdi), %eax
 4047 2c44 488B17   		movq	(%rdi), %rdx
 4048 2c47 39C6     		cmpl	%eax, %esi
 4049 2c49 0F823101 		jb	.L710
 4049      0000
 4050 2c4f 448B670C 		movl	12(%rdi), %r12d
 4051 2c53 4539F4   		cmpl	%r14d, %r12d
 4052 2c56 0F828400 		jb	.L712
 4052      0000
 4053              	.L711:
 4054 2c5c 89C1     		movl	%eax, %ecx
 4055 2c5e 4189E9   		movl	%ebp, %r9d
 4056 2c61 488D340A 		leaq	(%rdx,%rcx), %rsi
 4057 2c65 4A8D3C0A 		leaq	(%rdx,%r9), %rdi
 4058 2c69 4889F0   		movq	%rsi, %rax
 4059 2c6c 4839FE   		cmpq	%rdi, %rsi
 4060 2c6f 7345     		jnb	.L725
 4061 2c71 4D89C8   		movq	%r9, %r8
 4062 2c74 4929C8   		subq	%rcx, %r8
 4063 2c77 498D50FF 		leaq	-1(%r8), %rdx
 4064 2c7b 4883FA06 		cmpq	$6, %rdx
 4065 2c7f 761F     		jbe	.L733
 4066 2c81 488D4B10 		leaq	16(%rbx), %rcx
 4067 2c85 4839F9   		cmpq	%rdi, %rcx
 4068 2c88 0F83EA01 		jnb	.L753
 4068      0000
 4069 2c8e 488D4B11 		leaq	17(%rbx), %rcx
 4070 2c92 4839F1   		cmpq	%rsi, %rcx
 4071 2c95 0F86DD01 		jbe	.L753
 4071      0000
 4072 2c9b 0F1F4400 		.p2align 4,,10
 4072      00
 4073              		.p2align 3
 4074              	.L733:
 4075 2ca0 0FB65310 		movzbl	16(%rbx), %edx
 4076 2ca4 4883C001 		addq	$1, %rax
 4077 2ca8 8850FF   		movb	%dl, -1(%rax)
 4078 2cab 4839C7   		cmpq	%rax, %rdi
 4079 2cae 75F0     		jne	.L733
 4080              	.L734:
 4081 2cb0 488B3B   		movq	(%rbx), %rdi
 4082 2cb3 4C01CF   		addq	%r9, %rdi
 4083              	.L725:
 4084 2cb6 44897308 		movl	%r14d, 8(%rbx)
 4085              	.L735:
 4086              	.L714:
 4087 2cba 4489EA   		movl	%r13d, %edx
 4088 2cbd 410FB6F7 		movzbl	%r15b, %esi
 4089 2cc1 E8000000 		call	memset@PLT
 4089      00
 4090 2cc6 4883C418 		addq	$24, %rsp
 4091              		.cfi_remember_state
 4092              		.cfi_def_cfa_offset 56
 4093 2cca 31C0     		xorl	%eax, %eax
 4094 2ccc 5B       		popq	%rbx
 4095              		.cfi_def_cfa_offset 48
 4096 2ccd 5D       		popq	%rbp
 4097              		.cfi_def_cfa_offset 40
 4098 2cce 415C     		popq	%r12
 4099              		.cfi_def_cfa_offset 32
 4100 2cd0 415D     		popq	%r13
 4101              		.cfi_def_cfa_offset 24
 4102 2cd2 415E     		popq	%r14
 4103              		.cfi_def_cfa_offset 16
 4104 2cd4 415F     		popq	%r15
 4105              		.cfi_def_cfa_offset 8
 4106 2cd6 C3       		ret
 4107 2cd7 660F1F84 		.p2align 4,,10
 4107      00000000 
 4107      00
 4108              		.p2align 3
 4109              	.L712:
 4110              		.cfi_restore_state
 4111 2ce0 4501E4   		addl	%r12d, %r12d
 4112 2ce3 4539F4   		cmpl	%r14d, %r12d
 4113 2ce6 72F8     		jb	.L712
 4114 2ce8 4489E1   		movl	%r12d, %ecx
 4115 2ceb 4889D7   		movq	%rdx, %rdi
 4116 2cee 4C894424 		movq	%r8, 8(%rsp)
 4116      08
 4117 2cf3 4889CE   		movq	%rcx, %rsi
 4118 2cf6 48890C24 		movq	%rcx, (%rsp)
 4119 2cfa E8000000 		call	realloc@PLT
 4119      00
 4120 2cff 488B0C24 		movq	(%rsp), %rcx
 4121 2d03 4C8B4424 		movq	8(%rsp), %r8
 4121      08
 4122 2d08 4885C0   		testq	%rax, %rax
 4123 2d0b 488903   		movq	%rax, (%rbx)
 4124 2d0e 4889C2   		movq	%rax, %rdx
 4125 2d11 0F842301 		je	.L739
 4125      0000
 4126 2d17 4589F0   		movl	%r14d, %r8d
 4127 2d1a 488D340A 		leaq	(%rdx,%rcx), %rsi
 4128 2d1e 4489630C 		movl	%r12d, 12(%rbx)
 4129 2d22 4A8D3C00 		leaq	(%rax,%r8), %rdi
 4130 2d26 4889F8   		movq	%rdi, %rax
 4131 2d29 4839F7   		cmpq	%rsi, %rdi
 4132 2d2c 7345     		jnb	.L794
 4133 2d2e 4C29C1   		subq	%r8, %rcx
 4134 2d31 4889CA   		movq	%rcx, %rdx
 4135 2d34 488D49FF 		leaq	-1(%rcx), %rcx
 4136 2d38 4883F906 		cmpq	$6, %rcx
 4137 2d3c 7622     		jbe	.L723
 4138 2d3e 4C8D4310 		leaq	16(%rbx), %r8
 4139 2d42 4939F0   		cmpq	%rsi, %r8
 4140 2d45 0F832D02 		jnb	.L752
 4140      0000
 4141 2d4b 4C8D4311 		leaq	17(%rbx), %r8
 4142 2d4f 4939F8   		cmpq	%rdi, %r8
 4143 2d52 0F862002 		jbe	.L752
 4143      0000
 4144 2d58 0F1F8400 		.p2align 4,,10
 4144      00000000 
 4145              		.p2align 3
 4146              	.L723:
 4147 2d60 0FB65310 		movzbl	16(%rbx), %edx
 4148 2d64 4883C001 		addq	$1, %rax
 4149 2d68 8850FF   		movb	%dl, -1(%rax)
 4150 2d6b 4839C6   		cmpq	%rax, %rsi
 4151 2d6e 75F0     		jne	.L723
 4152              	.L724:
 4153 2d70 488B13   		movq	(%rbx), %rdx
 4154              	.L794:
 4155 2d73 8B4308   		movl	8(%rbx), %eax
 4156 2d76 E9E1FEFF 		jmp	.L711
 4156      FF
 4157 2d7b 0F1F4400 		.p2align 4,,10
 4157      00
 4158              		.p2align 3
 4159              	.L710:
 4160 2d80 4439F0   		cmpl	%r14d, %eax
 4161 2d83 0F83A700 		jnb	.L736
 4161      0000
 4162 2d89 448B670C 		movl	12(%rdi), %r12d
 4163 2d8d 4539F4   		cmpl	%r14d, %r12d
 4164 2d90 720E     		jb	.L738
 4165              	.L737:
 4166 2d92 89EF     		movl	%ebp, %edi
 4167 2d94 44897308 		movl	%r14d, 8(%rbx)
 4168 2d98 4801D7   		addq	%rdx, %rdi
 4169 2d9b E91AFFFF 		jmp	.L735
 4169      FF
 4170              		.p2align 4,,10
 4171              		.p2align 3
 4172              	.L738:
 4173 2da0 4501E4   		addl	%r12d, %r12d
 4174 2da3 4539F4   		cmpl	%r14d, %r12d
 4175 2da6 72F8     		jb	.L738
 4176 2da8 4489E1   		movl	%r12d, %ecx
 4177 2dab 4889D7   		movq	%rdx, %rdi
 4178 2dae 4C894424 		movq	%r8, 8(%rsp)
 4178      08
 4179 2db3 4889CE   		movq	%rcx, %rsi
 4180 2db6 48890C24 		movq	%rcx, (%rsp)
 4181 2dba E8000000 		call	realloc@PLT
 4181      00
 4182 2dbf 4C8B4424 		movq	8(%rsp), %r8
 4182      08
 4183 2dc4 4885C0   		testq	%rax, %rax
 4184 2dc7 488903   		movq	%rax, (%rbx)
 4185 2dca 4889C2   		movq	%rax, %rdx
 4186 2dcd 746B     		je	.L739
 4187 2dcf 488B0C24 		movq	(%rsp), %rcx
 4188 2dd3 4589F0   		movl	%r14d, %r8d
 4189 2dd6 4489630C 		movl	%r12d, 12(%rbx)
 4190 2dda 4A8D3C00 		leaq	(%rax,%r8), %rdi
 4191 2dde 488D340A 		leaq	(%rdx,%rcx), %rsi
 4192 2de2 4889F8   		movq	%rdi, %rax
 4193 2de5 4839F7   		cmpq	%rsi, %rdi
 4194 2de8 73A8     		jnb	.L737
 4195 2dea 4C29C1   		subq	%r8, %rcx
 4196 2ded 4889CA   		movq	%rcx, %rdx
 4197 2df0 488D49FF 		leaq	-1(%rcx), %rcx
 4198 2df4 4883F906 		cmpq	$6, %rcx
 4199 2df8 761E     		jbe	.L747
 4200 2dfa 4C8D4310 		leaq	16(%rbx), %r8
 4201 2dfe 4939F0   		cmpq	%rsi, %r8
 4202 2e01 0F836D02 		jnb	.L754
 4202      0000
 4203 2e07 4C8D4311 		leaq	17(%rbx), %r8
 4204 2e0b 4939F8   		cmpq	%rdi, %r8
 4205 2e0e 0F866002 		jbe	.L754
 4205      0000
 4206              		.p2align 4,,10
 4207 2e14 0F1F4000 		.p2align 3
 4208              	.L747:
 4209 2e18 0FB65310 		movzbl	16(%rbx), %edx
 4210 2e1c 4883C001 		addq	$1, %rax
 4211 2e20 8850FF   		movb	%dl, -1(%rax)
 4212 2e23 4839C6   		cmpq	%rax, %rsi
 4213 2e26 75F0     		jne	.L747
 4214              	.L748:
 4215 2e28 488B13   		movq	(%rbx), %rdx
 4216 2e2b E962FFFF 		jmp	.L737
 4216      FF
 4217              		.p2align 4,,10
 4218              		.p2align 3
 4219              	.L736:
 4220 2e30 89F7     		movl	%esi, %edi
 4221 2e32 4801D7   		addq	%rdx, %rdi
 4222 2e35 E980FEFF 		jmp	.L735
 4222      FF
 4223              	.L739:
 4224 2e3a 4C89C7   		movq	%r8, %rdi
 4225 2e3d 31C0     		xorl	%eax, %eax
 4226 2e3f 488D3500 		leaq	.LC1(%rip), %rsi
 4226      000000
 4227 2e46 4C890424 		movq	%r8, (%rsp)
 4228 2e4a E8000000 		call	errRender@PLT
 4228      00
 4229 2e4f 488B3C24 		movq	(%rsp), %rdi
 4230 2e53 488D3500 		leaq	.LC7(%rip), %rsi
 4230      000000
 4231 2e5a E8000000 		call	errPrefix@PLT
 4231      00
 4232 2e5f 4883C418 		addq	$24, %rsp
 4233              		.cfi_remember_state
 4234              		.cfi_def_cfa_offset 56
 4235 2e63 B8010000 		movl	$1, %eax
 4235      00
 4236 2e68 5B       		popq	%rbx
 4237              		.cfi_def_cfa_offset 48
 4238 2e69 5D       		popq	%rbp
 4239              		.cfi_def_cfa_offset 40
 4240 2e6a 415C     		popq	%r12
 4241              		.cfi_def_cfa_offset 32
 4242 2e6c 415D     		popq	%r13
 4243              		.cfi_def_cfa_offset 24
 4244 2e6e 415E     		popq	%r14
 4245              		.cfi_def_cfa_offset 16
 4246 2e70 415F     		popq	%r15
 4247              		.cfi_def_cfa_offset 8
 4248 2e72 C3       		ret
 4249              		.p2align 4,,10
 4250 2e73 0F1F4400 		.p2align 3
 4250      00
 4251              	.L753:
 4252              		.cfi_restore_state
 4253 2e78 4883FA0E 		cmpq	$14, %rdx
 4254 2e7c 0F86EA02 		jbe	.L750
 4254      0000
 4255 2e82 0FB65310 		movzbl	16(%rbx), %edx
 4256 2e86 4889F0   		movq	%rsi, %rax
 4257 2e89 660F6EC2 		movd	%edx, %xmm0
 4258 2e8d 4C89C2   		movq	%r8, %rdx
 4259 2e90 660F60C0 		punpcklbw	%xmm0, %xmm0
 4260 2e94 4883E2F0 		andq	$-16, %rdx
 4261 2e98 660F61C0 		punpcklwd	%xmm0, %xmm0
 4262 2e9c 4801F2   		addq	%rsi, %rdx
 4263 2e9f 660F70C0 		pshufd	$0, %xmm0, %xmm0
 4263      00
 4264              		.p2align 4,,10
 4265 2ea4 0F1F4000 		.p2align 3
 4266              	.L729:
 4267 2ea8 0F1100   		movups	%xmm0, (%rax)
 4268 2eab 4883C010 		addq	$16, %rax
 4269 2eaf 4839C2   		cmpq	%rax, %rdx
 4270 2eb2 75F4     		jne	.L729
 4271 2eb4 4C89C1   		movq	%r8, %rcx
 4272 2eb7 4883E1F0 		andq	$-16, %rcx
 4273 2ebb 488D040E 		leaq	(%rsi,%rcx), %rax
 4274 2ebf 41F6C00F 		testb	$15, %r8b
 4275 2ec3 0F84E7FD 		je	.L734
 4275      FFFF
 4276 2ec9 4929C8   		subq	%rcx, %r8
 4277 2ecc 498D50FF 		leaq	-1(%r8), %rdx
 4278 2ed0 4883FA06 		cmpq	$6, %rdx
 4279 2ed4 7628     		jbe	.L731
 4280              	.L728:
 4281 2ed6 0FB65310 		movzbl	16(%rbx), %edx
 4282 2eda 88D6     		movb	%dl, %dh
 4283 2edc 660F6ECA 		movd	%edx, %xmm1
 4284 2ee0 4C89C2   		movq	%r8, %rdx
 4285 2ee3 4883E2F8 		andq	$-8, %rdx
 4286 2ee7 F20F70C1 		pshuflw	$0, %xmm1, %xmm0
 4286      00
 4287 2eec 4801D0   		addq	%rdx, %rax
 4288 2eef 4183E007 		andl	$7, %r8d
 4289 2ef3 660FD604 		movq	%xmm0, (%rsi,%rcx)
 4289      0E
 4290 2ef8 0F84B2FD 		je	.L734
 4290      FFFF
 4291              	.L731:
 4292 2efe 0FB65310 		movzbl	16(%rbx), %edx
 4293 2f02 488D4801 		leaq	1(%rax), %rcx
 4294 2f06 8810     		movb	%dl, (%rax)
 4295 2f08 4839F9   		cmpq	%rdi, %rcx
 4296 2f0b 0F839FFD 		jnb	.L734
 4296      FFFF
 4297 2f11 885001   		movb	%dl, 1(%rax)
 4298 2f14 488D5002 		leaq	2(%rax), %rdx
 4299 2f18 4839FA   		cmpq	%rdi, %rdx
 4300 2f1b 0F838FFD 		jnb	.L734
 4300      FFFF
 4301 2f21 0FB65310 		movzbl	16(%rbx), %edx
 4302 2f25 488D4803 		leaq	3(%rax), %rcx
 4303 2f29 885002   		movb	%dl, 2(%rax)
 4304 2f2c 4839F9   		cmpq	%rdi, %rcx
 4305 2f2f 0F837BFD 		jnb	.L734
 4305      FFFF
 4306 2f35 885003   		movb	%dl, 3(%rax)
 4307 2f38 488D5004 		leaq	4(%rax), %rdx
 4308 2f3c 4839FA   		cmpq	%rdi, %rdx
 4309 2f3f 0F836BFD 		jnb	.L734
 4309      FFFF
 4310 2f45 0FB65310 		movzbl	16(%rbx), %edx
 4311 2f49 488D4805 		leaq	5(%rax), %rcx
 4312 2f4d 885004   		movb	%dl, 4(%rax)
 4313 2f50 4839F9   		cmpq	%rdi, %rcx
 4314 2f53 0F8357FD 		jnb	.L734
 4314      FFFF
 4315 2f59 885005   		movb	%dl, 5(%rax)
 4316 2f5c 488D5006 		leaq	6(%rax), %rdx
 4317 2f60 4839FA   		cmpq	%rdi, %rdx
 4318 2f63 0F8347FD 		jnb	.L734
 4318      FFFF
 4319 2f69 0FB65310 		movzbl	16(%rbx), %edx
 4320 2f6d 885006   		movb	%dl, 6(%rax)
 4321 2f70 E93BFDFF 		jmp	.L734
 4321      FF
 4322              		.p2align 4,,10
 4323 2f75 0F1F00   		.p2align 3
 4324              	.L752:
 4325 2f78 4883F90E 		cmpq	$14, %rcx
 4326 2f7c 0F86F101 		jbe	.L749
 4326      0000
 4327 2f82 0FB64B10 		movzbl	16(%rbx), %ecx
 4328 2f86 4889F8   		movq	%rdi, %rax
 4329 2f89 660F6EC1 		movd	%ecx, %xmm0
 4330 2f8d 4889D1   		movq	%rdx, %rcx
 4331 2f90 660F60C0 		punpcklbw	%xmm0, %xmm0
 4332 2f94 4883E1F0 		andq	$-16, %rcx
 4333 2f98 660F61C0 		punpcklwd	%xmm0, %xmm0
 4334 2f9c 4801F9   		addq	%rdi, %rcx
 4335 2f9f 660F70C0 		pshufd	$0, %xmm0, %xmm0
 4335      00
 4336              		.p2align 4,,10
 4337 2fa4 0F1F4000 		.p2align 3
 4338              	.L719:
 4339 2fa8 0F1100   		movups	%xmm0, (%rax)
 4340 2fab 4883C010 		addq	$16, %rax
 4341 2faf 4839C8   		cmpq	%rcx, %rax
 4342 2fb2 75F4     		jne	.L719
 4343 2fb4 4989D0   		movq	%rdx, %r8
 4344 2fb7 4983E0F0 		andq	$-16, %r8
 4345 2fbb 4A8D0407 		leaq	(%rdi,%r8), %rax
 4346 2fbf F6C20F   		testb	$15, %dl
 4347 2fc2 0F84A8FD 		je	.L724
 4347      FFFF
 4348 2fc8 4C29C2   		subq	%r8, %rdx
 4349 2fcb 488D4AFF 		leaq	-1(%rdx), %rcx
 4350 2fcf 4883F906 		cmpq	$6, %rcx
 4351 2fd3 7628     		jbe	.L721
 4352              	.L718:
 4353 2fd5 0FB64B10 		movzbl	16(%rbx), %ecx
 4354 2fd9 88CD     		movb	%cl, %ch
 4355 2fdb 660F6ED1 		movd	%ecx, %xmm2
 4356 2fdf 4889D1   		movq	%rdx, %rcx
 4357 2fe2 4883E1F8 		andq	$-8, %rcx
 4358 2fe6 F20F70C2 		pshuflw	$0, %xmm2, %xmm0
 4358      00
 4359 2feb 4801C8   		addq	%rcx, %rax
 4360 2fee 83E207   		andl	$7, %edx
 4361 2ff1 66420FD6 		movq	%xmm0, (%rdi,%r8)
 4361      0407
 4362 2ff7 0F8473FD 		je	.L724
 4362      FFFF
 4363              	.L721:
 4364 2ffd 0FB65310 		movzbl	16(%rbx), %edx
 4365 3001 488D4801 		leaq	1(%rax), %rcx
 4366 3005 8810     		movb	%dl, (%rax)
 4367 3007 4839F1   		cmpq	%rsi, %rcx
 4368 300a 0F8360FD 		jnb	.L724
 4368      FFFF
 4369 3010 885001   		movb	%dl, 1(%rax)
 4370 3013 488D5002 		leaq	2(%rax), %rdx
 4371 3017 4839F2   		cmpq	%rsi, %rdx
 4372 301a 0F8350FD 		jnb	.L724
 4372      FFFF
 4373 3020 0FB65310 		movzbl	16(%rbx), %edx
 4374 3024 488D4803 		leaq	3(%rax), %rcx
 4375 3028 885002   		movb	%dl, 2(%rax)
 4376 302b 4839F1   		cmpq	%rsi, %rcx
 4377 302e 0F833CFD 		jnb	.L724
 4377      FFFF
 4378 3034 885003   		movb	%dl, 3(%rax)
 4379 3037 488D5004 		leaq	4(%rax), %rdx
 4380 303b 4839F2   		cmpq	%rsi, %rdx
 4381 303e 0F832CFD 		jnb	.L724
 4381      FFFF
 4382 3044 0FB65310 		movzbl	16(%rbx), %edx
 4383 3048 488D4805 		leaq	5(%rax), %rcx
 4384 304c 885004   		movb	%dl, 4(%rax)
 4385 304f 4839F1   		cmpq	%rsi, %rcx
 4386 3052 0F8318FD 		jnb	.L724
 4386      FFFF
 4387 3058 885005   		movb	%dl, 5(%rax)
 4388 305b 488D5006 		leaq	6(%rax), %rdx
 4389 305f 4839F2   		cmpq	%rsi, %rdx
 4390 3062 0F8308FD 		jnb	.L724
 4390      FFFF
 4391 3068 0FB65310 		movzbl	16(%rbx), %edx
 4392 306c 885006   		movb	%dl, 6(%rax)
 4393 306f E9FCFCFF 		jmp	.L724
 4393      FF
 4394              	.L754:
 4395 3074 4883F90E 		cmpq	$14, %rcx
 4396 3078 0F86FD00 		jbe	.L751
 4396      0000
 4397 307e 0FB64B10 		movzbl	16(%rbx), %ecx
 4398 3082 4889F8   		movq	%rdi, %rax
 4399 3085 660F6EC1 		movd	%ecx, %xmm0
 4400 3089 4889D1   		movq	%rdx, %rcx
 4401 308c 660F60C0 		punpcklbw	%xmm0, %xmm0
 4402 3090 4883E1F0 		andq	$-16, %rcx
 4403 3094 660F61C0 		punpcklwd	%xmm0, %xmm0
 4404 3098 4801F9   		addq	%rdi, %rcx
 4405 309b 660F70C0 		pshufd	$0, %xmm0, %xmm0
 4405      00
 4406              		.p2align 4,,10
 4407              		.p2align 3
 4408              	.L743:
 4409 30a0 0F1100   		movups	%xmm0, (%rax)
 4410 30a3 4883C010 		addq	$16, %rax
 4411 30a7 4839C8   		cmpq	%rcx, %rax
 4412 30aa 75F4     		jne	.L743
 4413 30ac 4989D0   		movq	%rdx, %r8
 4414 30af 4983E0F0 		andq	$-16, %r8
 4415 30b3 4A8D0407 		leaq	(%rdi,%r8), %rax
 4416 30b7 F6C20F   		testb	$15, %dl
 4417 30ba 0F8468FD 		je	.L748
 4417      FFFF
 4418 30c0 4C29C2   		subq	%r8, %rdx
 4419 30c3 488D4AFF 		leaq	-1(%rdx), %rcx
 4420 30c7 4883F906 		cmpq	$6, %rcx
 4421 30cb 7628     		jbe	.L745
 4422              	.L742:
 4423 30cd 0FB64B10 		movzbl	16(%rbx), %ecx
 4424 30d1 88CD     		movb	%cl, %ch
 4425 30d3 660F6ED9 		movd	%ecx, %xmm3
 4426 30d7 4889D1   		movq	%rdx, %rcx
 4427 30da 4883E1F8 		andq	$-8, %rcx
 4428 30de F20F70C3 		pshuflw	$0, %xmm3, %xmm0
 4428      00
 4429 30e3 4801C8   		addq	%rcx, %rax
 4430 30e6 83E207   		andl	$7, %edx
 4431 30e9 66420FD6 		movq	%xmm0, (%rdi,%r8)
 4431      0407
 4432 30ef 0F8433FD 		je	.L748
 4432      FFFF
 4433              	.L745:
 4434 30f5 0FB65310 		movzbl	16(%rbx), %edx
 4435 30f9 488D4801 		leaq	1(%rax), %rcx
 4436 30fd 8810     		movb	%dl, (%rax)
 4437 30ff 4839F1   		cmpq	%rsi, %rcx
 4438 3102 0F8320FD 		jnb	.L748
 4438      FFFF
 4439 3108 885001   		movb	%dl, 1(%rax)
 4440 310b 488D5002 		leaq	2(%rax), %rdx
 4441 310f 4839F2   		cmpq	%rsi, %rdx
 4442 3112 0F8310FD 		jnb	.L748
 4442      FFFF
 4443 3118 0FB65310 		movzbl	16(%rbx), %edx
 4444 311c 488D4803 		leaq	3(%rax), %rcx
 4445 3120 885002   		movb	%dl, 2(%rax)
 4446 3123 4839F1   		cmpq	%rsi, %rcx
 4447 3126 0F83FCFC 		jnb	.L748
 4447      FFFF
 4448 312c 885003   		movb	%dl, 3(%rax)
 4449 312f 488D5004 		leaq	4(%rax), %rdx
 4450 3133 4839F2   		cmpq	%rsi, %rdx
 4451 3136 0F83ECFC 		jnb	.L748
 4451      FFFF
 4452 313c 0FB65310 		movzbl	16(%rbx), %edx
 4453 3140 488D4805 		leaq	5(%rax), %rcx
 4454 3144 885004   		movb	%dl, 4(%rax)
 4455 3147 4839F1   		cmpq	%rsi, %rcx
 4456 314a 0F83D8FC 		jnb	.L748
 4456      FFFF
 4457 3150 885005   		movb	%dl, 5(%rax)
 4458 3153 488D5006 		leaq	6(%rax), %rdx
 4459 3157 4839F2   		cmpq	%rsi, %rdx
 4460 315a 0F83C8FC 		jnb	.L748
 4460      FFFF
 4461 3160 0FB65310 		movzbl	16(%rbx), %edx
 4462 3164 885006   		movb	%dl, 6(%rax)
 4463 3167 E9BCFCFF 		jmp	.L748
 4463      FF
 4464              	.L750:
 4465 316c 31C9     		xorl	%ecx, %ecx
 4466 316e E963FDFF 		jmp	.L728
 4466      FF
 4467              	.L749:
 4468 3173 4531C0   		xorl	%r8d, %r8d
 4469 3176 E95AFEFF 		jmp	.L718
 4469      FF
 4470              	.L751:
 4471 317b 4531C0   		xorl	%r8d, %r8d
 4472 317e E94AFFFF 		jmp	.L742
 4472      FF
 4473              		.cfi_endproc
 4474              	.LFE53:
 4476 3183 66662E0F 		.p2align 4
 4476      1F840000 
 4476      00000066 
 4476      90
 4477              		.globl	bufWriteBlock
 4479              	bufWriteBlock:
 4480              	.LFB54:
 4481              		.cfi_startproc
 4482 3190 F30F1EFA 		endbr64
 4483 3194 4157     		pushq	%r15
 4484              		.cfi_def_cfa_offset 16
 4485              		.cfi_offset 15, -16
 4486 3196 4989D7   		movq	%rdx, %r15
 4487 3199 4156     		pushq	%r14
 4488              		.cfi_def_cfa_offset 24
 4489              		.cfi_offset 14, -24
 4490 319b 448D340E 		leal	(%rsi,%rcx), %r14d
 4491 319f 4155     		pushq	%r13
 4492              		.cfi_def_cfa_offset 32
 4493              		.cfi_offset 13, -32
 4494 31a1 4189CD   		movl	%ecx, %r13d
 4495 31a4 4154     		pushq	%r12
 4496              		.cfi_def_cfa_offset 40
 4497              		.cfi_offset 12, -40
 4498 31a6 55       		pushq	%rbp
 4499              		.cfi_def_cfa_offset 48
 4500              		.cfi_offset 6, -48
 4501 31a7 89F5     		movl	%esi, %ebp
 4502 31a9 53       		pushq	%rbx
 4503              		.cfi_def_cfa_offset 56
 4504              		.cfi_offset 3, -56
 4505 31aa 4889FB   		movq	%rdi, %rbx
 4506 31ad 4883EC18 		subq	$24, %rsp
 4507              		.cfi_def_cfa_offset 80
 4508 31b1 8B4708   		movl	8(%rdi), %eax
 4509 31b4 488B17   		movq	(%rdi), %rdx
 4510 31b7 39C6     		cmpl	%eax, %esi
 4511 31b9 0F823101 		jb	.L796
 4511      0000
 4512 31bf 448B670C 		movl	12(%rdi), %r12d
 4513 31c3 4539F4   		cmpl	%r14d, %r12d
 4514 31c6 0F828400 		jb	.L798
 4514      0000
 4515              	.L797:
 4516 31cc 89C1     		movl	%eax, %ecx
 4517 31ce 4189E9   		movl	%ebp, %r9d
 4518 31d1 488D340A 		leaq	(%rdx,%rcx), %rsi
 4519 31d5 4A8D3C0A 		leaq	(%rdx,%r9), %rdi
 4520 31d9 4889F0   		movq	%rsi, %rax
 4521 31dc 4839FE   		cmpq	%rdi, %rsi
 4522 31df 7345     		jnb	.L811
 4523 31e1 4D89C8   		movq	%r9, %r8
 4524 31e4 4929C8   		subq	%rcx, %r8
 4525 31e7 498D50FF 		leaq	-1(%r8), %rdx
 4526 31eb 4883FA06 		cmpq	$6, %rdx
 4527 31ef 761F     		jbe	.L819
 4528 31f1 488D4B10 		leaq	16(%rbx), %rcx
 4529 31f5 4839F9   		cmpq	%rdi, %rcx
 4530 31f8 0F83EA01 		jnb	.L839
 4530      0000
 4531 31fe 488D4B11 		leaq	17(%rbx), %rcx
 4532 3202 4839F1   		cmpq	%rsi, %rcx
 4533 3205 0F86DD01 		jbe	.L839
 4533      0000
 4534 320b 0F1F4400 		.p2align 4,,10
 4534      00
 4535              		.p2align 3
 4536              	.L819:
 4537 3210 0FB65310 		movzbl	16(%rbx), %edx
 4538 3214 4883C001 		addq	$1, %rax
 4539 3218 8850FF   		movb	%dl, -1(%rax)
 4540 321b 4839C7   		cmpq	%rax, %rdi
 4541 321e 75F0     		jne	.L819
 4542              	.L820:
 4543 3220 488B3B   		movq	(%rbx), %rdi
 4544 3223 4C01CF   		addq	%r9, %rdi
 4545              	.L811:
 4546 3226 44897308 		movl	%r14d, 8(%rbx)
 4547              	.L821:
 4548              	.L800:
 4549 322a 4489EA   		movl	%r13d, %edx
 4550 322d 4C89FE   		movq	%r15, %rsi
 4551 3230 E8000000 		call	memcpy@PLT
 4551      00
 4552 3235 4883C418 		addq	$24, %rsp
 4553              		.cfi_remember_state
 4554              		.cfi_def_cfa_offset 56
 4555 3239 31C0     		xorl	%eax, %eax
 4556 323b 5B       		popq	%rbx
 4557              		.cfi_def_cfa_offset 48
 4558 323c 5D       		popq	%rbp
 4559              		.cfi_def_cfa_offset 40
 4560 323d 415C     		popq	%r12
 4561              		.cfi_def_cfa_offset 32
 4562 323f 415D     		popq	%r13
 4563              		.cfi_def_cfa_offset 24
 4564 3241 415E     		popq	%r14
 4565              		.cfi_def_cfa_offset 16
 4566 3243 415F     		popq	%r15
 4567              		.cfi_def_cfa_offset 8
 4568 3245 C3       		ret
 4569 3246 662E0F1F 		.p2align 4,,10
 4569      84000000 
 4569      0000
 4570              		.p2align 3
 4571              	.L798:
 4572              		.cfi_restore_state
 4573 3250 4501E4   		addl	%r12d, %r12d
 4574 3253 4539F4   		cmpl	%r14d, %r12d
 4575 3256 72F8     		jb	.L798
 4576 3258 4489E1   		movl	%r12d, %ecx
 4577 325b 4889D7   		movq	%rdx, %rdi
 4578 325e 4C894424 		movq	%r8, 8(%rsp)
 4578      08
 4579 3263 4889CE   		movq	%rcx, %rsi
 4580 3266 48890C24 		movq	%rcx, (%rsp)
 4581 326a E8000000 		call	realloc@PLT
 4581      00
 4582 326f 488B0C24 		movq	(%rsp), %rcx
 4583 3273 4C8B4424 		movq	8(%rsp), %r8
 4583      08
 4584 3278 4885C0   		testq	%rax, %rax
 4585 327b 488903   		movq	%rax, (%rbx)
 4586 327e 4889C2   		movq	%rax, %rdx
 4587 3281 0F842301 		je	.L825
 4587      0000
 4588 3287 4589F0   		movl	%r14d, %r8d
 4589 328a 488D340A 		leaq	(%rdx,%rcx), %rsi
 4590 328e 4489630C 		movl	%r12d, 12(%rbx)
 4591 3292 4A8D3C00 		leaq	(%rax,%r8), %rdi
 4592 3296 4889F8   		movq	%rdi, %rax
 4593 3299 4839F7   		cmpq	%rsi, %rdi
 4594 329c 7345     		jnb	.L880
 4595 329e 4C29C1   		subq	%r8, %rcx
 4596 32a1 4889CA   		movq	%rcx, %rdx
 4597 32a4 488D49FF 		leaq	-1(%rcx), %rcx
 4598 32a8 4883F906 		cmpq	$6, %rcx
 4599 32ac 7622     		jbe	.L809
 4600 32ae 4C8D4310 		leaq	16(%rbx), %r8
 4601 32b2 4939F0   		cmpq	%rsi, %r8
 4602 32b5 0F832D02 		jnb	.L838
 4602      0000
 4603 32bb 4C8D4311 		leaq	17(%rbx), %r8
 4604 32bf 4939F8   		cmpq	%rdi, %r8
 4605 32c2 0F862002 		jbe	.L838
 4605      0000
 4606 32c8 0F1F8400 		.p2align 4,,10
 4606      00000000 
 4607              		.p2align 3
 4608              	.L809:
 4609 32d0 0FB65310 		movzbl	16(%rbx), %edx
 4610 32d4 4883C001 		addq	$1, %rax
 4611 32d8 8850FF   		movb	%dl, -1(%rax)
 4612 32db 4839C6   		cmpq	%rax, %rsi
 4613 32de 75F0     		jne	.L809
 4614              	.L810:
 4615 32e0 488B13   		movq	(%rbx), %rdx
 4616              	.L880:
 4617 32e3 8B4308   		movl	8(%rbx), %eax
 4618 32e6 E9E1FEFF 		jmp	.L797
 4618      FF
 4619 32eb 0F1F4400 		.p2align 4,,10
 4619      00
 4620              		.p2align 3
 4621              	.L796:
 4622 32f0 4439F0   		cmpl	%r14d, %eax
 4623 32f3 0F83A700 		jnb	.L822
 4623      0000
 4624 32f9 448B670C 		movl	12(%rdi), %r12d
 4625 32fd 4539F4   		cmpl	%r14d, %r12d
 4626 3300 720E     		jb	.L824
 4627              	.L823:
 4628 3302 89EF     		movl	%ebp, %edi
 4629 3304 44897308 		movl	%r14d, 8(%rbx)
 4630 3308 4801D7   		addq	%rdx, %rdi
 4631 330b E91AFFFF 		jmp	.L821
 4631      FF
 4632              		.p2align 4,,10
 4633              		.p2align 3
 4634              	.L824:
 4635 3310 4501E4   		addl	%r12d, %r12d
 4636 3313 4539F4   		cmpl	%r14d, %r12d
 4637 3316 72F8     		jb	.L824
 4638 3318 4489E1   		movl	%r12d, %ecx
 4639 331b 4889D7   		movq	%rdx, %rdi
 4640 331e 4C894424 		movq	%r8, 8(%rsp)
 4640      08
 4641 3323 4889CE   		movq	%rcx, %rsi
 4642 3326 48890C24 		movq	%rcx, (%rsp)
 4643 332a E8000000 		call	realloc@PLT
 4643      00
 4644 332f 4C8B4424 		movq	8(%rsp), %r8
 4644      08
 4645 3334 4885C0   		testq	%rax, %rax
 4646 3337 488903   		movq	%rax, (%rbx)
 4647 333a 4889C2   		movq	%rax, %rdx
 4648 333d 746B     		je	.L825
 4649 333f 488B0C24 		movq	(%rsp), %rcx
 4650 3343 4589F0   		movl	%r14d, %r8d
 4651 3346 4489630C 		movl	%r12d, 12(%rbx)
 4652 334a 4A8D3C00 		leaq	(%rax,%r8), %rdi
 4653 334e 488D340A 		leaq	(%rdx,%rcx), %rsi
 4654 3352 4889F8   		movq	%rdi, %rax
 4655 3355 4839F7   		cmpq	%rsi, %rdi
 4656 3358 73A8     		jnb	.L823
 4657 335a 4C29C1   		subq	%r8, %rcx
 4658 335d 4889CA   		movq	%rcx, %rdx
 4659 3360 488D49FF 		leaq	-1(%rcx), %rcx
 4660 3364 4883F906 		cmpq	$6, %rcx
 4661 3368 761E     		jbe	.L833
 4662 336a 4C8D4310 		leaq	16(%rbx), %r8
 4663 336e 4939F0   		cmpq	%rsi, %r8
 4664 3371 0F836D02 		jnb	.L840
 4664      0000
 4665 3377 4C8D4311 		leaq	17(%rbx), %r8
 4666 337b 4939F8   		cmpq	%rdi, %r8
 4667 337e 0F866002 		jbe	.L840
 4667      0000
 4668              		.p2align 4,,10
 4669 3384 0F1F4000 		.p2align 3
 4670              	.L833:
 4671 3388 0FB65310 		movzbl	16(%rbx), %edx
 4672 338c 4883C001 		addq	$1, %rax
 4673 3390 8850FF   		movb	%dl, -1(%rax)
 4674 3393 4839C6   		cmpq	%rax, %rsi
 4675 3396 75F0     		jne	.L833
 4676              	.L834:
 4677 3398 488B13   		movq	(%rbx), %rdx
 4678 339b E962FFFF 		jmp	.L823
 4678      FF
 4679              		.p2align 4,,10
 4680              		.p2align 3
 4681              	.L822:
 4682 33a0 89F7     		movl	%esi, %edi
 4683 33a2 4801D7   		addq	%rdx, %rdi
 4684 33a5 E980FEFF 		jmp	.L821
 4684      FF
 4685              	.L825:
 4686 33aa 4C89C7   		movq	%r8, %rdi
 4687 33ad 31C0     		xorl	%eax, %eax
 4688 33af 488D3500 		leaq	.LC1(%rip), %rsi
 4688      000000
 4689 33b6 4C890424 		movq	%r8, (%rsp)
 4690 33ba E8000000 		call	errRender@PLT
 4690      00
 4691 33bf 488B3C24 		movq	(%rsp), %rdi
 4692 33c3 488D3500 		leaq	.LC7(%rip), %rsi
 4692      000000
 4693 33ca E8000000 		call	errPrefix@PLT
 4693      00
 4694 33cf 4883C418 		addq	$24, %rsp
 4695              		.cfi_remember_state
 4696              		.cfi_def_cfa_offset 56
 4697 33d3 B8010000 		movl	$1, %eax
 4697      00
 4698 33d8 5B       		popq	%rbx
 4699              		.cfi_def_cfa_offset 48
 4700 33d9 5D       		popq	%rbp
 4701              		.cfi_def_cfa_offset 40
 4702 33da 415C     		popq	%r12
 4703              		.cfi_def_cfa_offset 32
 4704 33dc 415D     		popq	%r13
 4705              		.cfi_def_cfa_offset 24
 4706 33de 415E     		popq	%r14
 4707              		.cfi_def_cfa_offset 16
 4708 33e0 415F     		popq	%r15
 4709              		.cfi_def_cfa_offset 8
 4710 33e2 C3       		ret
 4711              		.p2align 4,,10
 4712 33e3 0F1F4400 		.p2align 3
 4712      00
 4713              	.L839:
 4714              		.cfi_restore_state
 4715 33e8 4883FA0E 		cmpq	$14, %rdx
 4716 33ec 0F86EA02 		jbe	.L836
 4716      0000
 4717 33f2 0FB65310 		movzbl	16(%rbx), %edx
 4718 33f6 4889F0   		movq	%rsi, %rax
 4719 33f9 660F6EC2 		movd	%edx, %xmm0
 4720 33fd 4C89C2   		movq	%r8, %rdx
 4721 3400 660F60C0 		punpcklbw	%xmm0, %xmm0
 4722 3404 4883E2F0 		andq	$-16, %rdx
 4723 3408 660F61C0 		punpcklwd	%xmm0, %xmm0
 4724 340c 4801F2   		addq	%rsi, %rdx
 4725 340f 660F70C0 		pshufd	$0, %xmm0, %xmm0
 4725      00
 4726              		.p2align 4,,10
 4727 3414 0F1F4000 		.p2align 3
 4728              	.L815:
 4729 3418 0F1100   		movups	%xmm0, (%rax)
 4730 341b 4883C010 		addq	$16, %rax
 4731 341f 4839C2   		cmpq	%rax, %rdx
 4732 3422 75F4     		jne	.L815
 4733 3424 4C89C1   		movq	%r8, %rcx
 4734 3427 4883E1F0 		andq	$-16, %rcx
 4735 342b 488D040E 		leaq	(%rsi,%rcx), %rax
 4736 342f 41F6C00F 		testb	$15, %r8b
 4737 3433 0F84E7FD 		je	.L820
 4737      FFFF
 4738 3439 4929C8   		subq	%rcx, %r8
 4739 343c 498D50FF 		leaq	-1(%r8), %rdx
 4740 3440 4883FA06 		cmpq	$6, %rdx
 4741 3444 7628     		jbe	.L817
 4742              	.L814:
 4743 3446 0FB65310 		movzbl	16(%rbx), %edx
 4744 344a 88D6     		movb	%dl, %dh
 4745 344c 660F6ECA 		movd	%edx, %xmm1
 4746 3450 4C89C2   		movq	%r8, %rdx
 4747 3453 4883E2F8 		andq	$-8, %rdx
 4748 3457 F20F70C1 		pshuflw	$0, %xmm1, %xmm0
 4748      00
 4749 345c 4801D0   		addq	%rdx, %rax
 4750 345f 4183E007 		andl	$7, %r8d
 4751 3463 660FD604 		movq	%xmm0, (%rsi,%rcx)
 4751      0E
 4752 3468 0F84B2FD 		je	.L820
 4752      FFFF
 4753              	.L817:
 4754 346e 0FB65310 		movzbl	16(%rbx), %edx
 4755 3472 488D4801 		leaq	1(%rax), %rcx
 4756 3476 8810     		movb	%dl, (%rax)
 4757 3478 4839F9   		cmpq	%rdi, %rcx
 4758 347b 0F839FFD 		jnb	.L820
 4758      FFFF
 4759 3481 885001   		movb	%dl, 1(%rax)
 4760 3484 488D5002 		leaq	2(%rax), %rdx
 4761 3488 4839FA   		cmpq	%rdi, %rdx
 4762 348b 0F838FFD 		jnb	.L820
 4762      FFFF
 4763 3491 0FB65310 		movzbl	16(%rbx), %edx
 4764 3495 488D4803 		leaq	3(%rax), %rcx
 4765 3499 885002   		movb	%dl, 2(%rax)
 4766 349c 4839F9   		cmpq	%rdi, %rcx
 4767 349f 0F837BFD 		jnb	.L820
 4767      FFFF
 4768 34a5 885003   		movb	%dl, 3(%rax)
 4769 34a8 488D5004 		leaq	4(%rax), %rdx
 4770 34ac 4839FA   		cmpq	%rdi, %rdx
 4771 34af 0F836BFD 		jnb	.L820
 4771      FFFF
 4772 34b5 0FB65310 		movzbl	16(%rbx), %edx
 4773 34b9 488D4805 		leaq	5(%rax), %rcx
 4774 34bd 885004   		movb	%dl, 4(%rax)
 4775 34c0 4839F9   		cmpq	%rdi, %rcx
 4776 34c3 0F8357FD 		jnb	.L820
 4776      FFFF
 4777 34c9 885005   		movb	%dl, 5(%rax)
 4778 34cc 488D5006 		leaq	6(%rax), %rdx
 4779 34d0 4839FA   		cmpq	%rdi, %rdx
 4780 34d3 0F8347FD 		jnb	.L820
 4780      FFFF
 4781 34d9 0FB65310 		movzbl	16(%rbx), %edx
 4782 34dd 885006   		movb	%dl, 6(%rax)
 4783 34e0 E93BFDFF 		jmp	.L820
 4783      FF
 4784              		.p2align 4,,10
 4785 34e5 0F1F00   		.p2align 3
 4786              	.L838:
 4787 34e8 4883F90E 		cmpq	$14, %rcx
 4788 34ec 0F86F101 		jbe	.L835
 4788      0000
 4789 34f2 0FB64B10 		movzbl	16(%rbx), %ecx
 4790 34f6 4889F8   		movq	%rdi, %rax
 4791 34f9 660F6EC1 		movd	%ecx, %xmm0
 4792 34fd 4889D1   		movq	%rdx, %rcx
 4793 3500 660F60C0 		punpcklbw	%xmm0, %xmm0
 4794 3504 4883E1F0 		andq	$-16, %rcx
 4795 3508 660F61C0 		punpcklwd	%xmm0, %xmm0
 4796 350c 4801F9   		addq	%rdi, %rcx
 4797 350f 660F70C0 		pshufd	$0, %xmm0, %xmm0
 4797      00
 4798              		.p2align 4,,10
 4799 3514 0F1F4000 		.p2align 3
 4800              	.L805:
 4801 3518 0F1100   		movups	%xmm0, (%rax)
 4802 351b 4883C010 		addq	$16, %rax
 4803 351f 4839C8   		cmpq	%rcx, %rax
 4804 3522 75F4     		jne	.L805
 4805 3524 4989D0   		movq	%rdx, %r8
 4806 3527 4983E0F0 		andq	$-16, %r8
 4807 352b 4A8D0407 		leaq	(%rdi,%r8), %rax
 4808 352f F6C20F   		testb	$15, %dl
 4809 3532 0F84A8FD 		je	.L810
 4809      FFFF
 4810 3538 4C29C2   		subq	%r8, %rdx
 4811 353b 488D4AFF 		leaq	-1(%rdx), %rcx
 4812 353f 4883F906 		cmpq	$6, %rcx
 4813 3543 7628     		jbe	.L807
 4814              	.L804:
 4815 3545 0FB64B10 		movzbl	16(%rbx), %ecx
 4816 3549 88CD     		movb	%cl, %ch
 4817 354b 660F6ED1 		movd	%ecx, %xmm2
 4818 354f 4889D1   		movq	%rdx, %rcx
 4819 3552 4883E1F8 		andq	$-8, %rcx
 4820 3556 F20F70C2 		pshuflw	$0, %xmm2, %xmm0
 4820      00
 4821 355b 4801C8   		addq	%rcx, %rax
 4822 355e 83E207   		andl	$7, %edx
 4823 3561 66420FD6 		movq	%xmm0, (%rdi,%r8)
 4823      0407
 4824 3567 0F8473FD 		je	.L810
 4824      FFFF
 4825              	.L807:
 4826 356d 0FB65310 		movzbl	16(%rbx), %edx
 4827 3571 488D4801 		leaq	1(%rax), %rcx
 4828 3575 8810     		movb	%dl, (%rax)
 4829 3577 4839F1   		cmpq	%rsi, %rcx
 4830 357a 0F8360FD 		jnb	.L810
 4830      FFFF
 4831 3580 885001   		movb	%dl, 1(%rax)
 4832 3583 488D5002 		leaq	2(%rax), %rdx
 4833 3587 4839F2   		cmpq	%rsi, %rdx
 4834 358a 0F8350FD 		jnb	.L810
 4834      FFFF
 4835 3590 0FB65310 		movzbl	16(%rbx), %edx
 4836 3594 488D4803 		leaq	3(%rax), %rcx
 4837 3598 885002   		movb	%dl, 2(%rax)
 4838 359b 4839F1   		cmpq	%rsi, %rcx
 4839 359e 0F833CFD 		jnb	.L810
 4839      FFFF
 4840 35a4 885003   		movb	%dl, 3(%rax)
 4841 35a7 488D5004 		leaq	4(%rax), %rdx
 4842 35ab 4839F2   		cmpq	%rsi, %rdx
 4843 35ae 0F832CFD 		jnb	.L810
 4843      FFFF
 4844 35b4 0FB65310 		movzbl	16(%rbx), %edx
 4845 35b8 488D4805 		leaq	5(%rax), %rcx
 4846 35bc 885004   		movb	%dl, 4(%rax)
 4847 35bf 4839F1   		cmpq	%rsi, %rcx
 4848 35c2 0F8318FD 		jnb	.L810
 4848      FFFF
 4849 35c8 885005   		movb	%dl, 5(%rax)
 4850 35cb 488D5006 		leaq	6(%rax), %rdx
 4851 35cf 4839F2   		cmpq	%rsi, %rdx
 4852 35d2 0F8308FD 		jnb	.L810
 4852      FFFF
 4853 35d8 0FB65310 		movzbl	16(%rbx), %edx
 4854 35dc 885006   		movb	%dl, 6(%rax)
 4855 35df E9FCFCFF 		jmp	.L810
 4855      FF
 4856              	.L840:
 4857 35e4 4883F90E 		cmpq	$14, %rcx
 4858 35e8 0F86FD00 		jbe	.L837
 4858      0000
 4859 35ee 0FB64B10 		movzbl	16(%rbx), %ecx
 4860 35f2 4889F8   		movq	%rdi, %rax
 4861 35f5 660F6EC1 		movd	%ecx, %xmm0
 4862 35f9 4889D1   		movq	%rdx, %rcx
 4863 35fc 660F60C0 		punpcklbw	%xmm0, %xmm0
 4864 3600 4883E1F0 		andq	$-16, %rcx
 4865 3604 660F61C0 		punpcklwd	%xmm0, %xmm0
 4866 3608 4801F9   		addq	%rdi, %rcx
 4867 360b 660F70C0 		pshufd	$0, %xmm0, %xmm0
 4867      00
 4868              		.p2align 4,,10
 4869              		.p2align 3
 4870              	.L829:
 4871 3610 0F1100   		movups	%xmm0, (%rax)
 4872 3613 4883C010 		addq	$16, %rax
 4873 3617 4839C8   		cmpq	%rcx, %rax
 4874 361a 75F4     		jne	.L829
 4875 361c 4989D0   		movq	%rdx, %r8
 4876 361f 4983E0F0 		andq	$-16, %r8
 4877 3623 4A8D0407 		leaq	(%rdi,%r8), %rax
 4878 3627 F6C20F   		testb	$15, %dl
 4879 362a 0F8468FD 		je	.L834
 4879      FFFF
 4880 3630 4C29C2   		subq	%r8, %rdx
 4881 3633 488D4AFF 		leaq	-1(%rdx), %rcx
 4882 3637 4883F906 		cmpq	$6, %rcx
 4883 363b 7628     		jbe	.L831
 4884              	.L828:
 4885 363d 0FB64B10 		movzbl	16(%rbx), %ecx
 4886 3641 88CD     		movb	%cl, %ch
 4887 3643 660F6ED9 		movd	%ecx, %xmm3
 4888 3647 4889D1   		movq	%rdx, %rcx
 4889 364a 4883E1F8 		andq	$-8, %rcx
 4890 364e F20F70C3 		pshuflw	$0, %xmm3, %xmm0
 4890      00
 4891 3653 4801C8   		addq	%rcx, %rax
 4892 3656 83E207   		andl	$7, %edx
 4893 3659 66420FD6 		movq	%xmm0, (%rdi,%r8)
 4893      0407
 4894 365f 0F8433FD 		je	.L834
 4894      FFFF
 4895              	.L831:
 4896 3665 0FB65310 		movzbl	16(%rbx), %edx
 4897 3669 488D4801 		leaq	1(%rax), %rcx
 4898 366d 8810     		movb	%dl, (%rax)
 4899 366f 4839F1   		cmpq	%rsi, %rcx
 4900 3672 0F8320FD 		jnb	.L834
 4900      FFFF
 4901 3678 885001   		movb	%dl, 1(%rax)
 4902 367b 488D5002 		leaq	2(%rax), %rdx
 4903 367f 4839F2   		cmpq	%rsi, %rdx
 4904 3682 0F8310FD 		jnb	.L834
 4904      FFFF
 4905 3688 0FB65310 		movzbl	16(%rbx), %edx
 4906 368c 488D4803 		leaq	3(%rax), %rcx
 4907 3690 885002   		movb	%dl, 2(%rax)
 4908 3693 4839F1   		cmpq	%rsi, %rcx
 4909 3696 0F83FCFC 		jnb	.L834
 4909      FFFF
 4910 369c 885003   		movb	%dl, 3(%rax)
 4911 369f 488D5004 		leaq	4(%rax), %rdx
 4912 36a3 4839F2   		cmpq	%rsi, %rdx
 4913 36a6 0F83ECFC 		jnb	.L834
 4913      FFFF
 4914 36ac 0FB65310 		movzbl	16(%rbx), %edx
 4915 36b0 488D4805 		leaq	5(%rax), %rcx
 4916 36b4 885004   		movb	%dl, 4(%rax)
 4917 36b7 4839F1   		cmpq	%rsi, %rcx
 4918 36ba 0F83D8FC 		jnb	.L834
 4918      FFFF
 4919 36c0 885005   		movb	%dl, 5(%rax)
 4920 36c3 488D5006 		leaq	6(%rax), %rdx
 4921 36c7 4839F2   		cmpq	%rsi, %rdx
 4922 36ca 0F83C8FC 		jnb	.L834
 4922      FFFF
 4923 36d0 0FB65310 		movzbl	16(%rbx), %edx
 4924 36d4 885006   		movb	%dl, 6(%rax)
 4925 36d7 E9BCFCFF 		jmp	.L834
 4925      FF
 4926              	.L836:
 4927 36dc 31C9     		xorl	%ecx, %ecx
 4928 36de E963FDFF 		jmp	.L814
 4928      FF
 4929              	.L835:
 4930 36e3 4531C0   		xorl	%r8d, %r8d
 4931 36e6 E95AFEFF 		jmp	.L804
 4931      FF
 4932              	.L837:
 4933 36eb 4531C0   		xorl	%r8d, %r8d
 4934 36ee E94AFFFF 		jmp	.L828
 4934      FF
 4935              		.cfi_endproc
 4936              	.LFE54:
 4938              		.ident	"GCC: (Ubuntu 12.2.0-17ubuntu1) 12.2.0"
 4939              		.section	.note.GNU-stack,"",@progbits
 4940              		.section	.note.gnu.property,"a"
 4941              		.align 8
 4942 0000 04000000 		.long	1f - 0f
 4943 0004 10000000 		.long	4f - 1f
 4944 0008 05000000 		.long	5
 4945              	0:
 4946 000c 474E5500 		.string	"GNU"
 4947              	1:
 4948              		.align 8
 4949 0010 020000C0 		.long	0xc0000002
 4950 0014 04000000 		.long	3f - 2f
 4951              	2:
 4952 0018 03000000 		.long	0x3
 4953              	3:
 4954 001c 00000000 		.align 8
 4955              	4: