   1              		.file	"XmlTestReporter.cpp"
   2              		.text
   3              	.Ltext0:
   4              		.local	_ZStL8__ioinit
   5              		.comm	_ZStL8__ioinit,1,1
   7              	_ZN12_GLOBAL__N_111ReplaceCharERSscRKSs:
   8              	.LFB1318:
   9              		.file 1 "XmlTestReporter.cpp"
   1:XmlTestReporter.cpp **** #include "XmlTestReporter.h"
   2:XmlTestReporter.cpp **** #include "Config.h"
   3:XmlTestReporter.cpp **** 
   4:XmlTestReporter.cpp **** #include <iostream>
   5:XmlTestReporter.cpp **** #include <sstream>
   6:XmlTestReporter.cpp **** #include <string>
   7:XmlTestReporter.cpp **** 
   8:XmlTestReporter.cpp **** using std::string;
   9:XmlTestReporter.cpp **** using std::ostringstream;
  10:XmlTestReporter.cpp **** using std::ostream;
  11:XmlTestReporter.cpp **** 
  12:XmlTestReporter.cpp **** namespace {
  13:XmlTestReporter.cpp **** 
  14:XmlTestReporter.cpp **** void ReplaceChar(string& str, char c, string const& replacement)
  15:XmlTestReporter.cpp **** {
  10              		.loc 1 15 0
  11              		.cfi_startproc
  12 0000 55       		pushq	%rbp
  13              		.cfi_def_cfa_offset 16
  14              		.cfi_offset 6, -16
  15 0001 4889E5   		movq	%rsp, %rbp
  16              		.cfi_def_cfa_register 6
  17 0004 4883EC30 		subq	$48, %rsp
  18 0008 48897DE8 		movq	%rdi, -24(%rbp)
  19 000c 89F0     		movl	%esi, %eax
  20 000e 488955D8 		movq	%rdx, -40(%rbp)
  21 0012 8845E4   		movb	%al, -28(%rbp)
  22              	.LBB2:
  23              	.LBB3:
  16:XmlTestReporter.cpp ****     for (size_t pos = str.find(c); pos != string::npos; pos = str.find(c, pos + 1))
  24              		.loc 1 16 0
  25 0015 0FBE4DE4 		movsbl	-28(%rbp), %ecx
  26 0019 488B45E8 		movq	-24(%rbp), %rax
  27 001d BA000000 		movl	$0, %edx
  27      00
  28 0022 89CE     		movl	%ecx, %esi
  29 0024 4889C7   		movq	%rax, %rdi
  30 0027 E8000000 		call	_ZNKSs4findEcm@PLT
  30      00
  31 002c 488945F8 		movq	%rax, -8(%rbp)
  32 0030 EB3A     		jmp	.L2
  33              	.L3:
  17:XmlTestReporter.cpp ****         str.replace(pos, 1, replacement);
  34              		.loc 1 17 0 discriminator 3
  35 0032 488B55D8 		movq	-40(%rbp), %rdx
  36 0036 488B75F8 		movq	-8(%rbp), %rsi
  37 003a 488B45E8 		movq	-24(%rbp), %rax
  38 003e 4889D1   		movq	%rdx, %rcx
  39 0041 BA010000 		movl	$1, %edx
  39      00
  40 0046 4889C7   		movq	%rax, %rdi
  41 0049 E8000000 		call	_ZNSs7replaceEmmRKSs@PLT
  41      00
  16:XmlTestReporter.cpp ****     for (size_t pos = str.find(c); pos != string::npos; pos = str.find(c, pos + 1))
  42              		.loc 1 16 0 discriminator 3
  43 004e 488B45F8 		movq	-8(%rbp), %rax
  44 0052 488D5001 		leaq	1(%rax), %rdx
  45 0056 0FBE4DE4 		movsbl	-28(%rbp), %ecx
  46 005a 488B45E8 		movq	-24(%rbp), %rax
  47 005e 89CE     		movl	%ecx, %esi
  48 0060 4889C7   		movq	%rax, %rdi
  49 0063 E8000000 		call	_ZNKSs4findEcm@PLT
  49      00
  50 0068 488945F8 		movq	%rax, -8(%rbp)
  51              	.L2:
  16:XmlTestReporter.cpp ****     for (size_t pos = str.find(c); pos != string::npos; pos = str.find(c, pos + 1))
  52              		.loc 1 16 0 is_stmt 0 discriminator 1
  53 006c 48837DF8 		cmpq	$-1, -8(%rbp)
  53      FF
  54 0071 75BF     		jne	.L3
  55              	.LBE3:
  56              	.LBE2:
  18:XmlTestReporter.cpp **** }
  57              		.loc 1 18 0 is_stmt 1
  58 0073 C9       		leave
  59              		.cfi_def_cfa 7, 8
  60 0074 C3       		ret
  61              		.cfi_endproc
  62              	.LFE1318:
  64              		.section	.rodata
  65              	.LC0:
  66 0000 26616D70 		.string	"&amp;"
  66      3B00
  67              	.LC1:
  68 0006 266C743B 		.string	"&lt;"
  68      00
  69              	.LC2:
  70 000b 2667743B 		.string	"&gt;"
  70      00
  71              	.LC3:
  72 0010 2661706F 		.string	"&apos;"
  72      733B00
  73              	.LC4:
  74 0017 2671756F 		.string	"&quot;"
  74      743B00
  75              		.text
  77              	_ZN12_GLOBAL__N_19XmlEscapeERKSs:
  78              	.LFB1319:
  19:XmlTestReporter.cpp **** 
  20:XmlTestReporter.cpp **** string XmlEscape(string const& value)
  21:XmlTestReporter.cpp **** {
  79              		.loc 1 21 0
  80              		.cfi_startproc
  81              		.cfi_personality 0x9b,DW.ref.__gxx_personality_v0
  82              		.cfi_lsda 0x1b,.LLSDA1319
  83 0075 55       		pushq	%rbp
  84              		.cfi_def_cfa_offset 16
  85              		.cfi_offset 6, -16
  86 0076 4889E5   		movq	%rsp, %rbp
  87              		.cfi_def_cfa_register 6
  88 0079 53       		pushq	%rbx
  89 007a 4883EC68 		subq	$104, %rsp
  90              		.cfi_offset 3, -24
  91 007e 48897D98 		movq	%rdi, -104(%rbp)
  92 0082 48897590 		movq	%rsi, -112(%rbp)
  93              		.loc 1 21 0
  94 0086 64488B04 		movq	%fs:40, %rax
  94      25280000 
  94      00
  95 008f 488945E8 		movq	%rax, -24(%rbp)
  96 0093 31C0     		xorl	%eax, %eax
  97              	.LBB4:
  22:XmlTestReporter.cpp ****     string escaped = value;
  98              		.loc 1 22 0
  99 0095 488B5590 		movq	-112(%rbp), %rdx
 100 0099 488B4598 		movq	-104(%rbp), %rax
 101 009d 4889D6   		movq	%rdx, %rsi
 102 00a0 4889C7   		movq	%rax, %rdi
 103              	.LEHB0:
 104 00a3 E8000000 		call	_ZNSsC1ERKSs@PLT
 104      00
 105              	.LEHE0:
  23:XmlTestReporter.cpp **** 
  24:XmlTestReporter.cpp ****     ReplaceChar(escaped, '&', "&amp;");
 106              		.loc 1 24 0
 107 00a8 488D45E0 		leaq	-32(%rbp), %rax
 108 00ac 4889C7   		movq	%rax, %rdi
 109 00af E8000000 		call	_ZNSaIcEC1Ev@PLT
 109      00
 110 00b4 488D55E0 		leaq	-32(%rbp), %rdx
 111 00b8 488D45A0 		leaq	-96(%rbp), %rax
 112 00bc 488D3500 		leaq	.LC0(%rip), %rsi
 112      000000
 113 00c3 4889C7   		movq	%rax, %rdi
 114              	.LEHB1:
 115 00c6 E8000000 		call	_ZNSsC1EPKcRKSaIcE@PLT
 115      00
 116              	.LEHE1:
 117              		.loc 1 24 0 is_stmt 0 discriminator 2
 118 00cb 488D55A0 		leaq	-96(%rbp), %rdx
 119 00cf 488B4598 		movq	-104(%rbp), %rax
 120 00d3 BE260000 		movl	$38, %esi
 120      00
 121 00d8 4889C7   		movq	%rax, %rdi
 122              	.LEHB2:
 123 00db E820FFFF 		call	_ZN12_GLOBAL__N_111ReplaceCharERSscRKSs
 123      FF
 124              	.LEHE2:
 125              		.loc 1 24 0 discriminator 4
 126 00e0 488D45A0 		leaq	-96(%rbp), %rax
 127 00e4 4889C7   		movq	%rax, %rdi
 128              	.LEHB3:
 129 00e7 E8000000 		call	_ZNSsD1Ev@PLT
 129      00
 130              	.LEHE3:
 131              		.loc 1 24 0 discriminator 6
 132 00ec 488D45E0 		leaq	-32(%rbp), %rax
 133 00f0 4889C7   		movq	%rax, %rdi
 134 00f3 E8000000 		call	_ZNSaIcED1Ev@PLT
 134      00
  25:XmlTestReporter.cpp ****     ReplaceChar(escaped, '<', "&lt;");
 135              		.loc 1 25 0 is_stmt 1 discriminator 6
 136 00f8 488D45E0 		leaq	-32(%rbp), %rax
 137 00fc 4889C7   		movq	%rax, %rdi
 138 00ff E8000000 		call	_ZNSaIcEC1Ev@PLT
 138      00
 139 0104 488D55E0 		leaq	-32(%rbp), %rdx
 140 0108 488D45B0 		leaq	-80(%rbp), %rax
 141 010c 488D3500 		leaq	.LC1(%rip), %rsi
 141      000000
 142 0113 4889C7   		movq	%rax, %rdi
 143              	.LEHB4:
 144 0116 E8000000 		call	_ZNSsC1EPKcRKSaIcE@PLT
 144      00
 145              	.LEHE4:
 146              		.loc 1 25 0 is_stmt 0 discriminator 2
 147 011b 488D55B0 		leaq	-80(%rbp), %rdx
 148 011f 488B4598 		movq	-104(%rbp), %rax
 149 0123 BE3C0000 		movl	$60, %esi
 149      00
 150 0128 4889C7   		movq	%rax, %rdi
 151              	.LEHB5:
 152 012b E8D0FEFF 		call	_ZN12_GLOBAL__N_111ReplaceCharERSscRKSs
 152      FF
 153              	.LEHE5:
 154              		.loc 1 25 0 discriminator 4
 155 0130 488D45B0 		leaq	-80(%rbp), %rax
 156 0134 4889C7   		movq	%rax, %rdi
 157              	.LEHB6:
 158 0137 E8000000 		call	_ZNSsD1Ev@PLT
 158      00
 159              	.LEHE6:
 160              		.loc 1 25 0 discriminator 6
 161 013c 488D45E0 		leaq	-32(%rbp), %rax
 162 0140 4889C7   		movq	%rax, %rdi
 163 0143 E8000000 		call	_ZNSaIcED1Ev@PLT
 163      00
  26:XmlTestReporter.cpp ****     ReplaceChar(escaped, '>', "&gt;");
 164              		.loc 1 26 0 is_stmt 1 discriminator 6
 165 0148 488D45E0 		leaq	-32(%rbp), %rax
 166 014c 4889C7   		movq	%rax, %rdi
 167 014f E8000000 		call	_ZNSaIcEC1Ev@PLT
 167      00
 168 0154 488D55E0 		leaq	-32(%rbp), %rdx
 169 0158 488D45C0 		leaq	-64(%rbp), %rax
 170 015c 488D3500 		leaq	.LC2(%rip), %rsi
 170      000000
 171 0163 4889C7   		movq	%rax, %rdi
 172              	.LEHB7:
 173 0166 E8000000 		call	_ZNSsC1EPKcRKSaIcE@PLT
 173      00
 174              	.LEHE7:
 175              		.loc 1 26 0 is_stmt 0 discriminator 2
 176 016b 488D55C0 		leaq	-64(%rbp), %rdx
 177 016f 488B4598 		movq	-104(%rbp), %rax
 178 0173 BE3E0000 		movl	$62, %esi
 178      00
 179 0178 4889C7   		movq	%rax, %rdi
 180              	.LEHB8:
 181 017b E880FEFF 		call	_ZN12_GLOBAL__N_111ReplaceCharERSscRKSs
 181      FF
 182              	.LEHE8:
 183              		.loc 1 26 0 discriminator 4
 184 0180 488D45C0 		leaq	-64(%rbp), %rax
 185 0184 4889C7   		movq	%rax, %rdi
 186              	.LEHB9:
 187 0187 E8000000 		call	_ZNSsD1Ev@PLT
 187      00
 188              	.LEHE9:
 189              		.loc 1 26 0 discriminator 6
 190 018c 488D45E0 		leaq	-32(%rbp), %rax
 191 0190 4889C7   		movq	%rax, %rdi
 192 0193 E8000000 		call	_ZNSaIcED1Ev@PLT
 192      00
  27:XmlTestReporter.cpp ****     ReplaceChar(escaped, '\'', "&apos;");
 193              		.loc 1 27 0 is_stmt 1 discriminator 6
 194 0198 488D45E0 		leaq	-32(%rbp), %rax
 195 019c 4889C7   		movq	%rax, %rdi
 196 019f E8000000 		call	_ZNSaIcEC1Ev@PLT
 196      00
 197 01a4 488D55E0 		leaq	-32(%rbp), %rdx
 198 01a8 488D45D0 		leaq	-48(%rbp), %rax
 199 01ac 488D3500 		leaq	.LC3(%rip), %rsi
 199      000000
 200 01b3 4889C7   		movq	%rax, %rdi
 201              	.LEHB10:
 202 01b6 E8000000 		call	_ZNSsC1EPKcRKSaIcE@PLT
 202      00
 203              	.LEHE10:
 204              		.loc 1 27 0 is_stmt 0 discriminator 2
 205 01bb 488D55D0 		leaq	-48(%rbp), %rdx
 206 01bf 488B4598 		movq	-104(%rbp), %rax
 207 01c3 BE270000 		movl	$39, %esi
 207      00
 208 01c8 4889C7   		movq	%rax, %rdi
 209              	.LEHB11:
 210 01cb E830FEFF 		call	_ZN12_GLOBAL__N_111ReplaceCharERSscRKSs
 210      FF
 211              	.LEHE11:
 212              		.loc 1 27 0 discriminator 4
 213 01d0 488D45D0 		leaq	-48(%rbp), %rax
 214 01d4 4889C7   		movq	%rax, %rdi
 215              	.LEHB12:
 216 01d7 E8000000 		call	_ZNSsD1Ev@PLT
 216      00
 217              	.LEHE12:
 218              		.loc 1 27 0 discriminator 6
 219 01dc 488D45E0 		leaq	-32(%rbp), %rax
 220 01e0 4889C7   		movq	%rax, %rdi
 221 01e3 E8000000 		call	_ZNSaIcED1Ev@PLT
 221      00
  28:XmlTestReporter.cpp ****     ReplaceChar(escaped, '\"', "&quot;");
 222              		.loc 1 28 0 is_stmt 1 discriminator 6
 223 01e8 488D45D0 		leaq	-48(%rbp), %rax
 224 01ec 4889C7   		movq	%rax, %rdi
 225 01ef E8000000 		call	_ZNSaIcEC1Ev@PLT
 225      00
 226 01f4 488D55D0 		leaq	-48(%rbp), %rdx
 227 01f8 488D45E0 		leaq	-32(%rbp), %rax
 228 01fc 488D3500 		leaq	.LC4(%rip), %rsi
 228      000000
 229 0203 4889C7   		movq	%rax, %rdi
 230              	.LEHB13:
 231 0206 E8000000 		call	_ZNSsC1EPKcRKSaIcE@PLT
 231      00
 232              	.LEHE13:
 233              		.loc 1 28 0 is_stmt 0 discriminator 2
 234 020b 488D55E0 		leaq	-32(%rbp), %rdx
 235 020f 488B4598 		movq	-104(%rbp), %rax
 236 0213 BE220000 		movl	$34, %esi
 236      00
 237 0218 4889C7   		movq	%rax, %rdi
 238              	.LEHB14:
 239 021b E8E0FDFF 		call	_ZN12_GLOBAL__N_111ReplaceCharERSscRKSs
 239      FF
 240              	.LEHE14:
 241              		.loc 1 28 0 discriminator 4
 242 0220 488D45E0 		leaq	-32(%rbp), %rax
 243 0224 4889C7   		movq	%rax, %rdi
 244              	.LEHB15:
 245 0227 E8000000 		call	_ZNSsD1Ev@PLT
 245      00
 246              	.LEHE15:
 247              		.loc 1 28 0 discriminator 6
 248 022c 488D45D0 		leaq	-48(%rbp), %rax
 249 0230 4889C7   		movq	%rax, %rdi
 250 0233 E8000000 		call	_ZNSaIcED1Ev@PLT
 250      00
  29:XmlTestReporter.cpp ****  
  30:XmlTestReporter.cpp ****     return escaped;
 251              		.loc 1 30 0 is_stmt 1 discriminator 6
 252 0238 90       		nop
 253              	.LBE4:
  31:XmlTestReporter.cpp **** }
 254              		.loc 1 31 0 discriminator 6
 255 0239 488B4598 		movq	-104(%rbp), %rax
 256 023d 488B4DE8 		movq	-24(%rbp), %rcx
 257 0241 6448330C 		xorq	%fs:40, %rcx
 257      25280000 
 257      00
 258 024a 0F84CC00 		je	.L17
 258      0000
 259 0250 E9C20000 		jmp	.L28
 259      00
 260              	.L19:
 261 0255 4889C3   		movq	%rax, %rbx
 262              	.LBB5:
  24:XmlTestReporter.cpp ****     ReplaceChar(escaped, '<', "&lt;");
 263              		.loc 1 24 0
 264 0258 488D45A0 		leaq	-96(%rbp), %rax
 265 025c 4889C7   		movq	%rax, %rdi
 266 025f E8000000 		call	_ZNSsD1Ev@PLT
 266      00
 267 0264 EB03     		jmp	.L7
 268              	.L18:
 269 0266 4889C3   		movq	%rax, %rbx
 270              	.L7:
  24:XmlTestReporter.cpp ****     ReplaceChar(escaped, '<', "&lt;");
 271              		.loc 1 24 0 is_stmt 0 discriminator 5
 272 0269 488D45E0 		leaq	-32(%rbp), %rax
 273 026d 4889C7   		movq	%rax, %rdi
 274 0270 E8000000 		call	_ZNSaIcED1Ev@PLT
 274      00
 275 0275 E9860000 		jmp	.L8
 275      00
 276              	.L21:
 277 027a 4889C3   		movq	%rax, %rbx
  25:XmlTestReporter.cpp ****     ReplaceChar(escaped, '>', "&gt;");
 278              		.loc 1 25 0 is_stmt 1
 279 027d 488D45B0 		leaq	-80(%rbp), %rax
 280 0281 4889C7   		movq	%rax, %rdi
 281 0284 E8000000 		call	_ZNSsD1Ev@PLT
 281      00
 282 0289 EB03     		jmp	.L10
 283              	.L20:
 284 028b 4889C3   		movq	%rax, %rbx
 285              	.L10:
  25:XmlTestReporter.cpp ****     ReplaceChar(escaped, '>', "&gt;");
 286              		.loc 1 25 0 is_stmt 0 discriminator 5
 287 028e 488D45E0 		leaq	-32(%rbp), %rax
 288 0292 4889C7   		movq	%rax, %rdi
 289 0295 E8000000 		call	_ZNSaIcED1Ev@PLT
 289      00
 290 029a EB64     		jmp	.L8
 291              	.L23:
 292 029c 4889C3   		movq	%rax, %rbx
  26:XmlTestReporter.cpp ****     ReplaceChar(escaped, '\'', "&apos;");
 293              		.loc 1 26 0 is_stmt 1
 294 029f 488D45C0 		leaq	-64(%rbp), %rax
 295 02a3 4889C7   		movq	%rax, %rdi
 296 02a6 E8000000 		call	_ZNSsD1Ev@PLT
 296      00
 297 02ab EB03     		jmp	.L12
 298              	.L22:
 299 02ad 4889C3   		movq	%rax, %rbx
 300              	.L12:
  26:XmlTestReporter.cpp ****     ReplaceChar(escaped, '\'', "&apos;");
 301              		.loc 1 26 0 is_stmt 0 discriminator 5
 302 02b0 488D45E0 		leaq	-32(%rbp), %rax
 303 02b4 4889C7   		movq	%rax, %rdi
 304 02b7 E8000000 		call	_ZNSaIcED1Ev@PLT
 304      00
 305 02bc EB42     		jmp	.L8
 306              	.L25:
 307 02be 4889C3   		movq	%rax, %rbx
  27:XmlTestReporter.cpp ****     ReplaceChar(escaped, '\"', "&quot;");
 308              		.loc 1 27 0 is_stmt 1
 309 02c1 488D45D0 		leaq	-48(%rbp), %rax
 310 02c5 4889C7   		movq	%rax, %rdi
 311 02c8 E8000000 		call	_ZNSsD1Ev@PLT
 311      00
 312 02cd EB03     		jmp	.L14
 313              	.L24:
 314 02cf 4889C3   		movq	%rax, %rbx
 315              	.L14:
  27:XmlTestReporter.cpp ****     ReplaceChar(escaped, '\"', "&quot;");
 316              		.loc 1 27 0 is_stmt 0 discriminator 5
 317 02d2 488D45E0 		leaq	-32(%rbp), %rax
 318 02d6 4889C7   		movq	%rax, %rdi
 319 02d9 E8000000 		call	_ZNSaIcED1Ev@PLT
 319      00
 320 02de EB20     		jmp	.L8
 321              	.L27:
 322 02e0 4889C3   		movq	%rax, %rbx
  28:XmlTestReporter.cpp ****  
 323              		.loc 1 28 0 is_stmt 1
 324 02e3 488D45E0 		leaq	-32(%rbp), %rax
 325 02e7 4889C7   		movq	%rax, %rdi
 326 02ea E8000000 		call	_ZNSsD1Ev@PLT
 326      00
 327 02ef EB03     		jmp	.L16
 328              	.L26:
 329 02f1 4889C3   		movq	%rax, %rbx
 330              	.L16:
  28:XmlTestReporter.cpp ****  
 331              		.loc 1 28 0 is_stmt 0 discriminator 5
 332 02f4 488D45D0 		leaq	-48(%rbp), %rax
 333 02f8 4889C7   		movq	%rax, %rdi
 334 02fb E8000000 		call	_ZNSaIcED1Ev@PLT
 334      00
 335              	.L8:
 336 0300 488B4598 		movq	-104(%rbp), %rax
 337 0304 4889C7   		movq	%rax, %rdi
 338 0307 E8000000 		call	_ZNSsD1Ev@PLT
 338      00
 339 030c 4889D8   		movq	%rbx, %rax
 340 030f 4889C7   		movq	%rax, %rdi
 341              	.LEHB16:
 342 0312 E8000000 		call	_Unwind_Resume@PLT
 342      00
 343              	.LEHE16:
 344              	.L28:
 345              	.LBE5:
 346              		.loc 1 31 0 is_stmt 1
 347 0317 E8000000 		call	__stack_chk_fail@PLT
 347      00
 348              	.L17:
 349 031c 4883C468 		addq	$104, %rsp
 350 0320 5B       		popq	%rbx
 351 0321 5D       		popq	%rbp
 352              		.cfi_def_cfa 7, 8
 353 0322 C3       		ret
 354              		.cfi_endproc
 355              	.LFE1319:
 356              		.globl	__gxx_personality_v0
 357              		.section	.gcc_except_table,"a",@progbits
 358              	.LLSDA1319:
 359 0000 FF       		.byte	0xff
 360 0001 FF       		.byte	0xff
 361 0002 01       		.byte	0x1
 362 0003 60       		.uleb128 .LLSDACSE1319-.LLSDACSB1319
 363              	.LLSDACSB1319:
 364 0004 2E       		.uleb128 .LEHB0-.LFB1319
 365 0005 05       		.uleb128 .LEHE0-.LEHB0
 366 0006 00       		.uleb128 0
 367 0007 00       		.uleb128 0
 368 0008 51       		.uleb128 .LEHB1-.LFB1319
 369 0009 05       		.uleb128 .LEHE1-.LEHB1
 370 000a F103     		.uleb128 .L18-.LFB1319
 371 000c 00       		.uleb128 0
 372 000d 66       		.uleb128 .LEHB2-.LFB1319
 373 000e 05       		.uleb128 .LEHE2-.LEHB2
 374 000f E003     		.uleb128 .L19-.LFB1319
 375 0011 00       		.uleb128 0
 376 0012 72       		.uleb128 .LEHB3-.LFB1319
 377 0013 05       		.uleb128 .LEHE3-.LEHB3
 378 0014 F103     		.uleb128 .L18-.LFB1319
 379 0016 00       		.uleb128 0
 380 0017 A101     		.uleb128 .LEHB4-.LFB1319
 381 0019 05       		.uleb128 .LEHE4-.LEHB4
 382 001a 9604     		.uleb128 .L20-.LFB1319
 383 001c 00       		.uleb128 0
 384 001d B601     		.uleb128 .LEHB5-.LFB1319
 385 001f 05       		.uleb128 .LEHE5-.LEHB5
 386 0020 8504     		.uleb128 .L21-.LFB1319
 387 0022 00       		.uleb128 0
 388 0023 C201     		.uleb128 .LEHB6-.LFB1319
 389 0025 05       		.uleb128 .LEHE6-.LEHB6
 390 0026 9604     		.uleb128 .L20-.LFB1319
 391 0028 00       		.uleb128 0
 392 0029 F101     		.uleb128 .LEHB7-.LFB1319
 393 002b 05       		.uleb128 .LEHE7-.LEHB7
 394 002c B804     		.uleb128 .L22-.LFB1319
 395 002e 00       		.uleb128 0
 396 002f 8602     		.uleb128 .LEHB8-.LFB1319
 397 0031 05       		.uleb128 .LEHE8-.LEHB8
 398 0032 A704     		.uleb128 .L23-.LFB1319
 399 0034 00       		.uleb128 0
 400 0035 9202     		.uleb128 .LEHB9-.LFB1319
 401 0037 05       		.uleb128 .LEHE9-.LEHB9
 402 0038 B804     		.uleb128 .L22-.LFB1319
 403 003a 00       		.uleb128 0
 404 003b C102     		.uleb128 .LEHB10-.LFB1319
 405 003d 05       		.uleb128 .LEHE10-.LEHB10
 406 003e DA04     		.uleb128 .L24-.LFB1319
 407 0040 00       		.uleb128 0
 408 0041 D602     		.uleb128 .LEHB11-.LFB1319
 409 0043 05       		.uleb128 .LEHE11-.LEHB11
 410 0044 C904     		.uleb128 .L25-.LFB1319
 411 0046 00       		.uleb128 0
 412 0047 E202     		.uleb128 .LEHB12-.LFB1319
 413 0049 05       		.uleb128 .LEHE12-.LEHB12
 414 004a DA04     		.uleb128 .L24-.LFB1319
 415 004c 00       		.uleb128 0
 416 004d 9103     		.uleb128 .LEHB13-.LFB1319
 417 004f 05       		.uleb128 .LEHE13-.LEHB13
 418 0050 FC04     		.uleb128 .L26-.LFB1319
 419 0052 00       		.uleb128 0
 420 0053 A603     		.uleb128 .LEHB14-.LFB1319
 421 0055 05       		.uleb128 .LEHE14-.LEHB14
 422 0056 EB04     		.uleb128 .L27-.LFB1319
 423 0058 00       		.uleb128 0
 424 0059 B203     		.uleb128 .LEHB15-.LFB1319
 425 005b 05       		.uleb128 .LEHE15-.LEHB15
 426 005c FC04     		.uleb128 .L26-.LFB1319
 427 005e 00       		.uleb128 0
 428 005f 9D05     		.uleb128 .LEHB16-.LFB1319
 429 0061 05       		.uleb128 .LEHE16-.LEHB16
 430 0062 00       		.uleb128 0
 431 0063 00       		.uleb128 0
 432              	.LLSDACSE1319:
 433              		.text
 435              		.section	.rodata
 436              	.LC5:
 437 001e 2800     		.string	"("
 438              	.LC6:
 439 0020 29203A20 		.string	") : "
 439      00
 440              		.text
 442              	_ZN12_GLOBAL__N_119BuildFailureMessageERKSsiS1_:
 443              	.LFB1320:
  32:XmlTestReporter.cpp **** 
  33:XmlTestReporter.cpp **** string BuildFailureMessage(string const& file, int line, string const& message)
  34:XmlTestReporter.cpp **** {
 444              		.loc 1 34 0
 445              		.cfi_startproc
 446              		.cfi_personality 0x9b,DW.ref.__gxx_personality_v0
 447              		.cfi_lsda 0x1b,.LLSDA1320
 448 0323 55       		pushq	%rbp
 449              		.cfi_def_cfa_offset 16
 450              		.cfi_offset 6, -16
 451 0324 4889E5   		movq	%rsp, %rbp
 452              		.cfi_def_cfa_register 6
 453 0327 53       		pushq	%rbx
 454 0328 4881EC98 		subq	$408, %rsp
 454      010000
 455              		.cfi_offset 3, -24
 456 032f 4889BD78 		movq	%rdi, -392(%rbp)
 456      FEFFFF
 457 0336 4889B570 		movq	%rsi, -400(%rbp)
 457      FEFFFF
 458 033d 89956CFE 		movl	%edx, -404(%rbp)
 458      FFFF
 459 0343 48898D60 		movq	%rcx, -416(%rbp)
 459      FEFFFF
 460              		.loc 1 34 0
 461 034a 64488B04 		movq	%fs:40, %rax
 461      25280000 
 461      00
 462 0353 488945E8 		movq	%rax, -24(%rbp)
 463 0357 31C0     		xorl	%eax, %eax
 464              	.LBB6:
  35:XmlTestReporter.cpp ****     ostringstream failureMessage;
 465              		.loc 1 35 0
 466 0359 488D8580 		leaq	-384(%rbp), %rax
 466      FEFFFF
 467 0360 BE100000 		movl	$16, %esi
 467      00
 468 0365 4889C7   		movq	%rax, %rdi
 469              	.LEHB17:
 470 0368 E8000000 		call	_ZNSt19basic_ostringstreamIcSt11char_traitsIcESaIcEEC1ESt13_Ios_Openmode@PLT
 470      00
 471              	.LEHE17:
  36:XmlTestReporter.cpp ****     failureMessage << file << "(" << line << ") : " << message;
 472              		.loc 1 36 0
 473 036d 488B9570 		movq	-400(%rbp), %rdx
 473      FEFFFF
 474 0374 488D8580 		leaq	-384(%rbp), %rax
 474      FEFFFF
 475 037b 4889D6   		movq	%rdx, %rsi
 476 037e 4889C7   		movq	%rax, %rdi
 477              	.LEHB18:
 478 0381 E8000000 		call	_ZStlsIcSt11char_traitsIcESaIcEERSt13basic_ostreamIT_T0_ES7_RKSbIS4_S5_T1_E@PLT
 478      00
 479 0386 488D3500 		leaq	.LC5(%rip), %rsi
 479      000000
 480 038d 4889C7   		movq	%rax, %rdi
 481 0390 E8000000 		call	_ZStlsISt11char_traitsIcEERSt13basic_ostreamIcT_ES5_PKc@PLT
 481      00
 482              		.loc 1 36 0 is_stmt 0 discriminator 1
 483 0395 4889C2   		movq	%rax, %rdx
 484 0398 8B856CFE 		movl	-404(%rbp), %eax
 484      FFFF
 485 039e 89C6     		movl	%eax, %esi
 486 03a0 4889D7   		movq	%rdx, %rdi
 487 03a3 E8000000 		call	_ZNSolsEi@PLT
 487      00
 488              		.loc 1 36 0 discriminator 2
 489 03a8 488D3500 		leaq	.LC6(%rip), %rsi
 489      000000
 490 03af 4889C7   		movq	%rax, %rdi
 491 03b2 E8000000 		call	_ZStlsISt11char_traitsIcEERSt13basic_ostreamIcT_ES5_PKc@PLT
 491      00
 492              		.loc 1 36 0 discriminator 3
 493 03b7 4889C2   		movq	%rax, %rdx
 494 03ba 488B8560 		movq	-416(%rbp), %rax
 494      FEFFFF
 495 03c1 4889C6   		movq	%rax, %rsi
 496 03c4 4889D7   		movq	%rdx, %rdi
 497 03c7 E8000000 		call	_ZStlsIcSt11char_traitsIcESaIcEERSt13basic_ostreamIT_T0_ES7_RKSbIS4_S5_T1_E@PLT
 497      00
  37:XmlTestReporter.cpp ****     return failureMessage.str();
 498              		.loc 1 37 0 is_stmt 1
 499 03cc 488B8578 		movq	-392(%rbp), %rax
 499      FEFFFF
 500 03d3 488D9580 		leaq	-384(%rbp), %rdx
 500      FEFFFF
 501 03da 4889D6   		movq	%rdx, %rsi
 502 03dd 4889C7   		movq	%rax, %rdi
 503 03e0 E8000000 		call	_ZNKSt19basic_ostringstreamIcSt11char_traitsIcESaIcEE3strEv@PLT
 503      00
 504              	.LEHE18:
 505 03e5 90       		nop
 506 03e6 488D8580 		leaq	-384(%rbp), %rax
 506      FEFFFF
 507 03ed 4889C7   		movq	%rax, %rdi
 508              	.LEHB19:
 509 03f0 E8000000 		call	_ZNSt19basic_ostringstreamIcSt11char_traitsIcESaIcEED1Ev@PLT
 509      00
 510              	.LEHE19:
 511              	.LBE6:
  38:XmlTestReporter.cpp **** }
 512              		.loc 1 38 0
 513 03f5 488B8578 		movq	-392(%rbp), %rax
 513      FEFFFF
 514 03fc 488B4DE8 		movq	-24(%rbp), %rcx
 515 0400 6448330C 		xorq	%fs:40, %rcx
 515      25280000 
 515      00
 516 0409 7424     		je	.L32
 517 040b EB1D     		jmp	.L34
 518              	.L33:
 519 040d 4889C3   		movq	%rax, %rbx
 520              	.LBB7:
  37:XmlTestReporter.cpp ****     return failureMessage.str();
 521              		.loc 1 37 0
 522 0410 488D8580 		leaq	-384(%rbp), %rax
 522      FEFFFF
 523 0417 4889C7   		movq	%rax, %rdi
 524 041a E8000000 		call	_ZNSt19basic_ostringstreamIcSt11char_traitsIcESaIcEED1Ev@PLT
 524      00
 525 041f 4889D8   		movq	%rbx, %rax
 526 0422 4889C7   		movq	%rax, %rdi
 527              	.LEHB20:
 528 0425 E8000000 		call	_Unwind_Resume@PLT
 528      00
 529              	.LEHE20:
 530              	.L34:
 531              	.LBE7:
 532              		.loc 1 38 0
 533 042a E8000000 		call	__stack_chk_fail@PLT
 533      00
 534              	.L32:
 535 042f 4881C498 		addq	$408, %rsp
 535      010000
 536 0436 5B       		popq	%rbx
 537 0437 5D       		popq	%rbp
 538              		.cfi_def_cfa 7, 8
 539 0438 C3       		ret
 540              		.cfi_endproc
 541              	.LFE1320:
 542              		.section	.gcc_except_table
 543              	.LLSDA1320:
 544 0064 FF       		.byte	0xff
 545 0065 FF       		.byte	0xff
 546 0066 01       		.byte	0x1
 547 0067 13       		.uleb128 .LLSDACSE1320-.LLSDACSB1320
 548              	.LLSDACSB1320:
 549 0068 45       		.uleb128 .LEHB17-.LFB1320
 550 0069 05       		.uleb128 .LEHE17-.LEHB17
 551 006a 00       		.uleb128 0
 552 006b 00       		.uleb128 0
 553 006c 5E       		.uleb128 .LEHB18-.LFB1320
 554 006d 64       		.uleb128 .LEHE18-.LEHB18
 555 006e EA01     		.uleb128 .L33-.LFB1320
 556 0070 00       		.uleb128 0
 557 0071 CD01     		.uleb128 .LEHB19-.LFB1320
 558 0073 05       		.uleb128 .LEHE19-.LEHB19
 559 0074 00       		.uleb128 0
 560 0075 00       		.uleb128 0
 561 0076 8202     		.uleb128 .LEHB20-.LFB1320
 562 0078 05       		.uleb128 .LEHE20-.LEHB20
 563 0079 00       		.uleb128 0
 564 007a 00       		.uleb128 0
 565              	.LLSDACSE1320:
 566              		.text
 568              		.section	.text._ZN8UnitTest12TestReporterC2Ev,"axG",@progbits,_ZN8UnitTest12TestReporterC5Ev,comda
 569              		.align 2
 570              		.weak	_ZN8UnitTest12TestReporterC2Ev
 572              	_ZN8UnitTest12TestReporterC2Ev:
 573              	.LFB1324:
 574              		.file 2 "TestReporter.h"
   1:TestReporter.h **** #ifndef UNITTEST_TESTREPORTER_H
   2:TestReporter.h **** #define UNITTEST_TESTREPORTER_H
   3:TestReporter.h **** 
   4:TestReporter.h **** namespace UnitTest {
   5:TestReporter.h **** 
   6:TestReporter.h **** class TestDetails;
   7:TestReporter.h **** 
   8:TestReporter.h **** class TestReporter
 575              		.loc 2 8 0
 576              		.cfi_startproc
 577 0000 55       		pushq	%rbp
 578              		.cfi_def_cfa_offset 16
 579              		.cfi_offset 6, -16
 580 0001 4889E5   		movq	%rsp, %rbp
 581              		.cfi_def_cfa_register 6
 582 0004 48897DF8 		movq	%rdi, -8(%rbp)
 583              	.LBB8:
 584              		.loc 2 8 0
 585 0008 488B45F8 		movq	-8(%rbp), %rax
 586 000c 488B1500 		movq	_ZTVN8UnitTest12TestReporterE@GOTPCREL(%rip), %rdx
 586      000000
 587 0013 488D5210 		leaq	16(%rdx), %rdx
 588 0017 488910   		movq	%rdx, (%rax)
 589              	.LBE8:
 590 001a 5D       		popq	%rbp
 591              		.cfi_def_cfa 7, 8
 592 001b C3       		ret
 593              		.cfi_endproc
 594              	.LFE1324:
 596              		.weak	_ZN8UnitTest12TestReporterC1Ev
 597              		.set	_ZN8UnitTest12TestReporterC1Ev,_ZN8UnitTest12TestReporterC2Ev
 598              		.section	.text._ZN8UnitTest20DeferredTestReporterC2Ev,"axG",@progbits,_ZN8UnitTest20DeferredTestRe
 599              		.align 2
 600              		.weak	_ZN8UnitTest20DeferredTestReporterC2Ev
 602              	_ZN8UnitTest20DeferredTestReporterC2Ev:
 603              	.LFB1326:
 604              		.file 3 "DeferredTestReporter.h"
   1:DeferredTestReporter.h **** #ifndef UNITTEST_DEFERREDTESTREPORTER_H
   2:DeferredTestReporter.h **** #define UNITTEST_DEFERREDTESTREPORTER_H
   3:DeferredTestReporter.h **** 
   4:DeferredTestReporter.h **** #include "TestReporter.h"
   5:DeferredTestReporter.h **** #include "DeferredTestResult.h"
   6:DeferredTestReporter.h **** 
   7:DeferredTestReporter.h **** #include <vector>
   8:DeferredTestReporter.h **** 
   9:DeferredTestReporter.h **** namespace UnitTest
  10:DeferredTestReporter.h **** {
  11:DeferredTestReporter.h **** 
  12:DeferredTestReporter.h **** class DeferredTestReporter : public TestReporter
 605              		.loc 3 12 0
 606              		.cfi_startproc
 607              		.cfi_personality 0x9b,DW.ref.__gxx_personality_v0
 608              		.cfi_lsda 0x1b,.LLSDA1326
 609 0000 55       		pushq	%rbp
 610              		.cfi_def_cfa_offset 16
 611              		.cfi_offset 6, -16
 612 0001 4889E5   		movq	%rsp, %rbp
 613              		.cfi_def_cfa_register 6
 614 0004 53       		pushq	%rbx
 615 0005 4883EC18 		subq	$24, %rsp
 616              		.cfi_offset 3, -24
 617 0009 48897DE8 		movq	%rdi, -24(%rbp)
 618              	.LBB9:
 619              		.loc 3 12 0
 620 000d 488B45E8 		movq	-24(%rbp), %rax
 621 0011 4889C7   		movq	%rax, %rdi
 622 0014 E8000000 		call	_ZN8UnitTest12TestReporterC2Ev@PLT
 622      00
 623 0019 488B45E8 		movq	-24(%rbp), %rax
 624 001d 488B1500 		movq	_ZTVN8UnitTest20DeferredTestReporterE@GOTPCREL(%rip), %rdx
 624      000000
 625 0024 488D5210 		leaq	16(%rdx), %rdx
 626 0028 488910   		movq	%rdx, (%rax)
 627 002b 488B45E8 		movq	-24(%rbp), %rax
 628 002f 4883C008 		addq	$8, %rax
 629 0033 4889C7   		movq	%rax, %rdi
 630              	.LEHB21:
 631 0036 E8000000 		call	_ZNSt6vectorIN8UnitTest18DeferredTestResultESaIS1_EEC1Ev@PLT
 631      00
 632              	.LEHE21:
 633              	.LBE9:
 634 003b EB1A     		jmp	.L39
 635              	.L38:
 636 003d 4889C3   		movq	%rax, %rbx
 637              	.LBB10:
 638 0040 488B45E8 		movq	-24(%rbp), %rax
 639 0044 4889C7   		movq	%rax, %rdi
 640 0047 E8000000 		call	_ZN8UnitTest12TestReporterD2Ev@PLT
 640      00
 641 004c 4889D8   		movq	%rbx, %rax
 642 004f 4889C7   		movq	%rax, %rdi
 643              	.LEHB22:
 644 0052 E8000000 		call	_Unwind_Resume@PLT
 644      00
 645              	.LEHE22:
 646              	.L39:
 647              	.LBE10:
 648 0057 4883C418 		addq	$24, %rsp
 649 005b 5B       		popq	%rbx
 650 005c 5D       		popq	%rbp
 651              		.cfi_def_cfa 7, 8
 652 005d C3       		ret
 653              		.cfi_endproc
 654              	.LFE1326:
 655              		.section	.gcc_except_table
 656              	.LLSDA1326:
 657 007b FF       		.byte	0xff
 658 007c FF       		.byte	0xff
 659 007d 01       		.byte	0x1
 660 007e 08       		.uleb128 .LLSDACSE1326-.LLSDACSB1326
 661              	.LLSDACSB1326:
 662 007f 36       		.uleb128 .LEHB21-.LFB1326
 663 0080 05       		.uleb128 .LEHE21-.LEHB21
 664 0081 3D       		.uleb128 .L38-.LFB1326
 665 0082 00       		.uleb128 0
 666 0083 52       		.uleb128 .LEHB22-.LFB1326
 667 0084 05       		.uleb128 .LEHE22-.LEHB22
 668 0085 00       		.uleb128 0
 669 0086 00       		.uleb128 0
 670              	.LLSDACSE1326:
 671              		.section	.text._ZN8UnitTest20DeferredTestReporterC2Ev,"axG",@progbits,_ZN8UnitTest20DeferredTestRe
 673              		.weak	_ZN8UnitTest20DeferredTestReporterC1Ev
 674              		.set	_ZN8UnitTest20DeferredTestReporterC1Ev,_ZN8UnitTest20DeferredTestReporterC2Ev
 675              		.section	.text._ZN8UnitTest20DeferredTestReporterD2Ev,"axG",@progbits,_ZN8UnitTest20DeferredTestRe
 676              		.align 2
 677              		.weak	_ZN8UnitTest20DeferredTestReporterD2Ev
 679              	_ZN8UnitTest20DeferredTestReporterD2Ev:
 680              	.LFB1329:
 681              		.loc 3 12 0
 682              		.cfi_startproc
 683              		.cfi_personality 0x9b,DW.ref.__gxx_personality_v0
 684              		.cfi_lsda 0x1b,.LLSDA1329
 685 0000 55       		pushq	%rbp
 686              		.cfi_def_cfa_offset 16
 687              		.cfi_offset 6, -16
 688 0001 4889E5   		movq	%rsp, %rbp
 689              		.cfi_def_cfa_register 6
 690 0004 53       		pushq	%rbx
 691 0005 4883EC18 		subq	$24, %rsp
 692              		.cfi_offset 3, -24
 693 0009 48897DE8 		movq	%rdi, -24(%rbp)
 694              	.LBB11:
 695              		.loc 3 12 0
 696 000d 488B45E8 		movq	-24(%rbp), %rax
 697 0011 488B1500 		movq	_ZTVN8UnitTest20DeferredTestReporterE@GOTPCREL(%rip), %rdx
 697      000000
 698 0018 488D5210 		leaq	16(%rdx), %rdx
 699 001c 488910   		movq	%rdx, (%rax)
 700 001f 488B45E8 		movq	-24(%rbp), %rax
 701 0023 4883C008 		addq	$8, %rax
 702 0027 4889C7   		movq	%rax, %rdi
 703              	.LEHB23:
 704 002a E8000000 		call	_ZNSt6vectorIN8UnitTest18DeferredTestResultESaIS1_EED1Ev@PLT
 704      00
 705              	.LEHE23:
 706              		.loc 3 12 0 is_stmt 0 discriminator 2
 707 002f 488B45E8 		movq	-24(%rbp), %rax
 708 0033 4889C7   		movq	%rax, %rdi
 709              	.LEHB24:
 710 0036 E8000000 		call	_ZN8UnitTest12TestReporterD2Ev@PLT
 710      00
 711              	.LEHE24:
 712              	.LBE11:
 713 003b B8000000 		movl	$0, %eax
 713      00
 714 0040 85C0     		testl	%eax, %eax
 715 0042 7428     		je	.L45
 716              		.loc 3 12 0 discriminator 6
 717 0044 488B45E8 		movq	-24(%rbp), %rax
 718 0048 4889C7   		movq	%rax, %rdi
 719 004b E8000000 		call	_ZdlPv@PLT
 719      00
 720 0050 EB1A     		jmp	.L45
 721              	.L44:
 722 0052 4889C3   		movq	%rax, %rbx
 723              	.LBB12:
 724              		.loc 3 12 0
 725 0055 488B45E8 		movq	-24(%rbp), %rax
 726 0059 4889C7   		movq	%rax, %rdi
 727 005c E8000000 		call	_ZN8UnitTest12TestReporterD2Ev@PLT
 727      00
 728 0061 4889D8   		movq	%rbx, %rax
 729 0064 4889C7   		movq	%rax, %rdi
 730              	.LEHB25:
 731 0067 E8000000 		call	_Unwind_Resume@PLT
 731      00
 732              	.LEHE25:
 733              	.L45:
 734              	.LBE12:
 735 006c 4883C418 		addq	$24, %rsp
 736 0070 5B       		popq	%rbx
 737 0071 5D       		popq	%rbp
 738              		.cfi_def_cfa 7, 8
 739 0072 C3       		ret
 740              		.cfi_endproc
 741              	.LFE1329:
 742              		.section	.gcc_except_table
 743              	.LLSDA1329:
 744 0087 FF       		.byte	0xff
 745 0088 FF       		.byte	0xff
 746 0089 01       		.byte	0x1
 747 008a 0C       		.uleb128 .LLSDACSE1329-.LLSDACSB1329
 748              	.LLSDACSB1329:
 749 008b 2A       		.uleb128 .LEHB23-.LFB1329
 750 008c 05       		.uleb128 .LEHE23-.LEHB23
 751 008d 52       		.uleb128 .L44-.LFB1329
 752 008e 00       		.uleb128 0
 753 008f 36       		.uleb128 .LEHB24-.LFB1329
 754 0090 05       		.uleb128 .LEHE24-.LEHB24
 755 0091 00       		.uleb128 0
 756 0092 00       		.uleb128 0
 757 0093 67       		.uleb128 .LEHB25-.LFB1329
 758 0094 05       		.uleb128 .LEHE25-.LEHB25
 759 0095 00       		.uleb128 0
 760 0096 00       		.uleb128 0
 761              	.LLSDACSE1329:
 762              		.section	.text._ZN8UnitTest20DeferredTestReporterD2Ev,"axG",@progbits,_ZN8UnitTest20DeferredTestRe
 764              		.weak	_ZN8UnitTest20DeferredTestReporterD1Ev
 765              		.set	_ZN8UnitTest20DeferredTestReporterD1Ev,_ZN8UnitTest20DeferredTestReporterD2Ev
 766              		.section	.text._ZN8UnitTest20DeferredTestReporterD0Ev,"axG",@progbits,_ZN8UnitTest20DeferredTestRe
 767              		.align 2
 768              		.weak	_ZN8UnitTest20DeferredTestReporterD0Ev
 770              	_ZN8UnitTest20DeferredTestReporterD0Ev:
 771              	.LFB1331:
 772              		.loc 3 12 0 is_stmt 1
 773              		.cfi_startproc
 774 0000 55       		pushq	%rbp
 775              		.cfi_def_cfa_offset 16
 776              		.cfi_offset 6, -16
 777 0001 4889E5   		movq	%rsp, %rbp
 778              		.cfi_def_cfa_register 6
 779 0004 4883EC10 		subq	$16, %rsp
 780 0008 48897DF8 		movq	%rdi, -8(%rbp)
 781              		.loc 3 12 0
 782 000c 488B45F8 		movq	-8(%rbp), %rax
 783 0010 4889C7   		movq	%rax, %rdi
 784 0013 E8000000 		call	_ZN8UnitTest20DeferredTestReporterD1Ev@PLT
 784      00
 785 0018 488B45F8 		movq	-8(%rbp), %rax
 786 001c 4889C7   		movq	%rax, %rdi
 787 001f E8000000 		call	_ZdlPv@PLT
 787      00
 788 0024 C9       		leave
 789              		.cfi_def_cfa 7, 8
 790 0025 C3       		ret
 791              		.cfi_endproc
 792              	.LFE1331:
 794              		.text
 795 0439 90       		.align 2
 796              		.globl	_ZN8UnitTest15XmlTestReporterC2ERSo
 798              	_ZN8UnitTest15XmlTestReporterC2ERSo:
 799              	.LFB1332:
  39:XmlTestReporter.cpp **** 
  40:XmlTestReporter.cpp **** }
  41:XmlTestReporter.cpp **** 
  42:XmlTestReporter.cpp **** namespace UnitTest {
  43:XmlTestReporter.cpp **** 
  44:XmlTestReporter.cpp **** XmlTestReporter::XmlTestReporter(ostream& ostream)
 800              		.loc 1 44 0
 801              		.cfi_startproc
 802 043a 55       		pushq	%rbp
 803              		.cfi_def_cfa_offset 16
 804              		.cfi_offset 6, -16
 805 043b 4889E5   		movq	%rsp, %rbp
 806              		.cfi_def_cfa_register 6
 807 043e 4883EC10 		subq	$16, %rsp
 808 0442 48897DF8 		movq	%rdi, -8(%rbp)
 809 0446 488975F0 		movq	%rsi, -16(%rbp)
 810              	.LBB13:
  45:XmlTestReporter.cpp ****     : m_ostream(ostream)
 811              		.loc 1 45 0
 812 044a 488B45F8 		movq	-8(%rbp), %rax
 813 044e 4889C7   		movq	%rax, %rdi
 814 0451 E8000000 		call	_ZN8UnitTest20DeferredTestReporterC2Ev@PLT
 814      00
 815 0456 488B45F8 		movq	-8(%rbp), %rax
 816 045a 488B1500 		movq	_ZTVN8UnitTest15XmlTestReporterE@GOTPCREL(%rip), %rdx
 816      000000
 817 0461 488D5210 		leaq	16(%rdx), %rdx
 818 0465 488910   		movq	%rdx, (%rax)
 819 0468 488B45F8 		movq	-8(%rbp), %rax
 820 046c 488B55F0 		movq	-16(%rbp), %rdx
 821 0470 48895020 		movq	%rdx, 32(%rax)
 822              	.LBE13:
  46:XmlTestReporter.cpp **** {
  47:XmlTestReporter.cpp **** }
 823              		.loc 1 47 0
 824 0474 C9       		leave
 825              		.cfi_def_cfa 7, 8
 826 0475 C3       		ret
 827              		.cfi_endproc
 828              	.LFE1332:
 830              		.globl	_ZN8UnitTest15XmlTestReporterC1ERSo
 831              		.set	_ZN8UnitTest15XmlTestReporterC1ERSo,_ZN8UnitTest15XmlTestReporterC2ERSo
 832              		.align 2
 833              		.globl	_ZN8UnitTest15XmlTestReporter13ReportSummaryEiiif
 835              	_ZN8UnitTest15XmlTestReporter13ReportSummaryEiiif:
 836              	.LFB1334:
  48:XmlTestReporter.cpp **** 
  49:XmlTestReporter.cpp **** void XmlTestReporter::ReportSummary(int totalTestCount, int failedTestCount,
  50:XmlTestReporter.cpp ****                                     int failureCount, float secondsElapsed)
  51:XmlTestReporter.cpp **** {
 837              		.loc 1 51 0
 838              		.cfi_startproc
 839 0476 55       		pushq	%rbp
 840              		.cfi_def_cfa_offset 16
 841              		.cfi_offset 6, -16
 842 0477 4889E5   		movq	%rsp, %rbp
 843              		.cfi_def_cfa_register 6
 844 047a 4883EC50 		subq	$80, %rsp
 845 047e 48897DC8 		movq	%rdi, -56(%rbp)
 846 0482 8975C4   		movl	%esi, -60(%rbp)
 847 0485 8955C0   		movl	%edx, -64(%rbp)
 848 0488 894DBC   		movl	%ecx, -68(%rbp)
 849 048b F30F1145 		movss	%xmm0, -72(%rbp)
 849      B8
 850              		.loc 1 51 0
 851 0490 64488B04 		movq	%fs:40, %rax
 851      25280000 
 851      00
 852 0499 488945F8 		movq	%rax, -8(%rbp)
 853 049d 31C0     		xorl	%eax, %eax
 854              	.LBB14:
  52:XmlTestReporter.cpp ****     AddXmlElement(m_ostream, NULL);
 855              		.loc 1 52 0
 856 049f 488B45C8 		movq	-56(%rbp), %rax
 857 04a3 488B4820 		movq	32(%rax), %rcx
 858 04a7 488B45C8 		movq	-56(%rbp), %rax
 859 04ab BA000000 		movl	$0, %edx
 859      00
 860 04b0 4889CE   		movq	%rcx, %rsi
 861 04b3 4889C7   		movq	%rax, %rdi
 862 04b6 E8000000 		call	_ZN8UnitTest15XmlTestReporter13AddXmlElementERSoPKc@PLT
 862      00
  53:XmlTestReporter.cpp **** 
  54:XmlTestReporter.cpp ****     BeginResults(m_ostream, totalTestCount, failedTestCount, failureCount, secondsElapsed);
 863              		.loc 1 54 0
 864 04bb 488B45C8 		movq	-56(%rbp), %rax
 865 04bf 488B7020 		movq	32(%rax), %rsi
 866 04c3 8B7DB8   		movl	-72(%rbp), %edi
 867 04c6 448B45BC 		movl	-68(%rbp), %r8d
 868 04ca 8B4DC0   		movl	-64(%rbp), %ecx
 869 04cd 8B55C4   		movl	-60(%rbp), %edx
 870 04d0 488B45C8 		movq	-56(%rbp), %rax
 871 04d4 897DB4   		movl	%edi, -76(%rbp)
 872 04d7 F30F1045 		movss	-76(%rbp), %xmm0
 872      B4
 873 04dc 4889C7   		movq	%rax, %rdi
 874 04df E8000000 		call	_ZN8UnitTest15XmlTestReporter12BeginResultsERSoiiif@PLT
 874      00
  55:XmlTestReporter.cpp **** 
  56:XmlTestReporter.cpp ****     DeferredTestResultList const& results = GetResults();
 875              		.loc 1 56 0
 876 04e4 488B45C8 		movq	-56(%rbp), %rax
 877 04e8 4889C7   		movq	%rax, %rdi
 878 04eb E8000000 		call	_ZN8UnitTest20DeferredTestReporter10GetResultsEv@PLT
 878      00
 879 04f0 488945F0 		movq	%rax, -16(%rbp)
 880              	.LBB15:
  57:XmlTestReporter.cpp ****     for (DeferredTestResultList::const_iterator i = results.begin(); i != results.end(); ++i)
 881              		.loc 1 57 0
 882 04f4 488B45F0 		movq	-16(%rbp), %rax
 883 04f8 4889C7   		movq	%rax, %rdi
 884 04fb E8000000 		call	_ZNKSt6vectorIN8UnitTest18DeferredTestResultESaIS1_EE5beginEv@PLT
 884      00
 885 0500 488945D0 		movq	%rax, -48(%rbp)
 886 0504 E9920000 		jmp	.L50
 886      00
 887              	.L52:
  58:XmlTestReporter.cpp ****     {
  59:XmlTestReporter.cpp ****         BeginTest(m_ostream, *i);
 888              		.loc 1 59 0
 889 0509 488D45D0 		leaq	-48(%rbp), %rax
 890 050d 4889C7   		movq	%rax, %rdi
 891 0510 E8000000 		call	_ZNK9__gnu_cxx17__normal_iteratorIPKN8UnitTest18DeferredTestResultESt6vectorIS2_SaIS2_EEEdeEv
 891      00
 892 0515 4889C2   		movq	%rax, %rdx
 893 0518 488B45C8 		movq	-56(%rbp), %rax
 894 051c 488B4820 		movq	32(%rax), %rcx
 895 0520 488B45C8 		movq	-56(%rbp), %rax
 896 0524 4889CE   		movq	%rcx, %rsi
 897 0527 4889C7   		movq	%rax, %rdi
 898 052a E8000000 		call	_ZN8UnitTest15XmlTestReporter9BeginTestERSoRKNS_18DeferredTestResultE@PLT
 898      00
  60:XmlTestReporter.cpp **** 
  61:XmlTestReporter.cpp ****         if (i->failed)
 899              		.loc 1 61 0
 900 052f 488D45D0 		leaq	-48(%rbp), %rax
 901 0533 4889C7   		movq	%rax, %rdi
 902 0536 E8000000 		call	_ZNK9__gnu_cxx17__normal_iteratorIPKN8UnitTest18DeferredTestResultESt6vectorIS2_SaIS2_EEEptEv
 902      00
 903 053b 0FB64034 		movzbl	52(%rax), %eax
 904 053f 84C0     		testb	%al, %al
 905 0541 7426     		je	.L51
  62:XmlTestReporter.cpp ****             AddFailure(m_ostream, *i);
 906              		.loc 1 62 0
 907 0543 488D45D0 		leaq	-48(%rbp), %rax
 908 0547 4889C7   		movq	%rax, %rdi
 909 054a E8000000 		call	_ZNK9__gnu_cxx17__normal_iteratorIPKN8UnitTest18DeferredTestResultESt6vectorIS2_SaIS2_EEEdeEv
 909      00
 910 054f 4889C2   		movq	%rax, %rdx
 911 0552 488B45C8 		movq	-56(%rbp), %rax
 912 0556 488B4820 		movq	32(%rax), %rcx
 913 055a 488B45C8 		movq	-56(%rbp), %rax
 914 055e 4889CE   		movq	%rcx, %rsi
 915 0561 4889C7   		movq	%rax, %rdi
 916 0564 E8000000 		call	_ZN8UnitTest15XmlTestReporter10AddFailureERSoRKNS_18DeferredTestResultE@PLT
 916      00
 917              	.L51:
  63:XmlTestReporter.cpp **** 
  64:XmlTestReporter.cpp ****         EndTest(m_ostream, *i);
 918              		.loc 1 64 0
 919 0569 488D45D0 		leaq	-48(%rbp), %rax
 920 056d 4889C7   		movq	%rax, %rdi
 921 0570 E8000000 		call	_ZNK9__gnu_cxx17__normal_iteratorIPKN8UnitTest18DeferredTestResultESt6vectorIS2_SaIS2_EEEdeEv
 921      00
 922 0575 4889C2   		movq	%rax, %rdx
 923 0578 488B45C8 		movq	-56(%rbp), %rax
 924 057c 488B4820 		movq	32(%rax), %rcx
 925 0580 488B45C8 		movq	-56(%rbp), %rax
 926 0584 4889CE   		movq	%rcx, %rsi
 927 0587 4889C7   		movq	%rax, %rdi
 928 058a E8000000 		call	_ZN8UnitTest15XmlTestReporter7EndTestERSoRKNS_18DeferredTestResultE@PLT
 928      00
  57:XmlTestReporter.cpp ****     {
 929              		.loc 1 57 0
 930 058f 488D45D0 		leaq	-48(%rbp), %rax
 931 0593 4889C7   		movq	%rax, %rdi
 932 0596 E8000000 		call	_ZN9__gnu_cxx17__normal_iteratorIPKN8UnitTest18DeferredTestResultESt6vectorIS2_SaIS2_EEEppEv@
 932      00
 933              	.L50:
  57:XmlTestReporter.cpp ****     {
 934              		.loc 1 57 0 is_stmt 0 discriminator 1
 935 059b 488B45F0 		movq	-16(%rbp), %rax
 936 059f 4889C7   		movq	%rax, %rdi
 937 05a2 E8000000 		call	_ZNKSt6vectorIN8UnitTest18DeferredTestResultESaIS1_EE3endEv@PLT
 937      00
 938 05a7 488945E0 		movq	%rax, -32(%rbp)
 939 05ab 488D55E0 		leaq	-32(%rbp), %rdx
 940 05af 488D45D0 		leaq	-48(%rbp), %rax
 941 05b3 4889D6   		movq	%rdx, %rsi
 942 05b6 4889C7   		movq	%rax, %rdi
 943 05b9 E8000000 		call	_ZN9__gnu_cxxneIPKN8UnitTest18DeferredTestResultESt6vectorIS2_SaIS2_EEEEbRKNS_17__normal_iter
 943      00
 944 05be 84C0     		testb	%al, %al
 945 05c0 0F8543FF 		jne	.L52
 945      FFFF
 946              	.LBE15:
  65:XmlTestReporter.cpp ****     }
  66:XmlTestReporter.cpp **** 
  67:XmlTestReporter.cpp ****     EndResults(m_ostream);
 947              		.loc 1 67 0 is_stmt 1
 948 05c6 488B45C8 		movq	-56(%rbp), %rax
 949 05ca 488B5020 		movq	32(%rax), %rdx
 950 05ce 488B45C8 		movq	-56(%rbp), %rax
 951 05d2 4889D6   		movq	%rdx, %rsi
 952 05d5 4889C7   		movq	%rax, %rdi
 953 05d8 E8000000 		call	_ZN8UnitTest15XmlTestReporter10EndResultsERSo@PLT
 953      00
 954              	.LBE14:
  68:XmlTestReporter.cpp **** }
 955              		.loc 1 68 0
 956 05dd 488B45F8 		movq	-8(%rbp), %rax
 957 05e1 64483304 		xorq	%fs:40, %rax
 957      25280000 
 957      00
 958 05ea 7405     		je	.L53
 959 05ec E8000000 		call	__stack_chk_fail@PLT
 959      00
 960              	.L53:
 961 05f1 C9       		leave
 962              		.cfi_def_cfa 7, 8
 963 05f2 C3       		ret
 964              		.cfi_endproc
 965              	.LFE1334:
 967              		.section	.rodata
 968              	.LC7:
 969 0025 3C3F786D 		.string	"<?xml version=\"1.0\""
 969      6C207665 
 969      7273696F 
 969      6E3D2231 
 969      2E302200 
 970              	.LC8:
 971 0039 20656E63 		.string	" encoding=\""
 971      6F64696E 
 971      673D2200 
 972              	.LC9:
 973 0045 2200     		.string	"\""
 974              	.LC10:
 975 0047 3F3E00   		.string	"?>"
 976              		.text
 977 05f3 90       		.align 2
 978              		.globl	_ZN8UnitTest15XmlTestReporter13AddXmlElementERSoPKc
 980              	_ZN8UnitTest15XmlTestReporter13AddXmlElementERSoPKc:
 981              	.LFB1335:
  69:XmlTestReporter.cpp **** 
  70:XmlTestReporter.cpp **** void XmlTestReporter::AddXmlElement(ostream& os, char const* encoding)
  71:XmlTestReporter.cpp **** {
 982              		.loc 1 71 0
 983              		.cfi_startproc
 984 05f4 55       		pushq	%rbp
 985              		.cfi_def_cfa_offset 16
 986              		.cfi_offset 6, -16
 987 05f5 4889E5   		movq	%rsp, %rbp
 988              		.cfi_def_cfa_register 6
 989 05f8 4883EC20 		subq	$32, %rsp
 990 05fc 48897DF8 		movq	%rdi, -8(%rbp)
 991 0600 488975F0 		movq	%rsi, -16(%rbp)
 992 0604 488955E8 		movq	%rdx, -24(%rbp)
  72:XmlTestReporter.cpp ****     os << "<?xml version=\"1.0\"";
 993              		.loc 1 72 0
 994 0608 488B45F0 		movq	-16(%rbp), %rax
 995 060c 488D3500 		leaq	.LC7(%rip), %rsi
 995      000000
 996 0613 4889C7   		movq	%rax, %rdi
 997 0616 E8000000 		call	_ZStlsISt11char_traitsIcEERSt13basic_ostreamIcT_ES5_PKc@PLT
 997      00
  73:XmlTestReporter.cpp **** 
  74:XmlTestReporter.cpp ****     if (encoding != NULL)
 998              		.loc 1 74 0
 999 061b 48837DE8 		cmpq	$0, -24(%rbp)
 999      00
 1000 0620 7434     		je	.L55
  75:XmlTestReporter.cpp ****         os << " encoding=\"" << encoding << "\"";
 1001              		.loc 1 75 0
 1002 0622 488B45F0 		movq	-16(%rbp), %rax
 1003 0626 488D3500 		leaq	.LC8(%rip), %rsi
 1003      000000
 1004 062d 4889C7   		movq	%rax, %rdi
 1005 0630 E8000000 		call	_ZStlsISt11char_traitsIcEERSt13basic_ostreamIcT_ES5_PKc@PLT
 1005      00
 1006 0635 4889C2   		movq	%rax, %rdx
 1007 0638 488B45E8 		movq	-24(%rbp), %rax
 1008 063c 4889C6   		movq	%rax, %rsi
 1009 063f 4889D7   		movq	%rdx, %rdi
 1010 0642 E8000000 		call	_ZStlsISt11char_traitsIcEERSt13basic_ostreamIcT_ES5_PKc@PLT
 1010      00
 1011 0647 488D3500 		leaq	.LC9(%rip), %rsi
 1011      000000
 1012 064e 4889C7   		movq	%rax, %rdi
 1013 0651 E8000000 		call	_ZStlsISt11char_traitsIcEERSt13basic_ostreamIcT_ES5_PKc@PLT
 1013      00
 1014              	.L55:
  76:XmlTestReporter.cpp **** 
  77:XmlTestReporter.cpp ****     os << "?>";
 1015              		.loc 1 77 0
 1016 0656 488B45F0 		movq	-16(%rbp), %rax
 1017 065a 488D3500 		leaq	.LC10(%rip), %rsi
 1017      000000
 1018 0661 4889C7   		movq	%rax, %rdi
 1019 0664 E8000000 		call	_ZStlsISt11char_traitsIcEERSt13basic_ostreamIcT_ES5_PKc@PLT
 1019      00
  78:XmlTestReporter.cpp **** }
 1020              		.loc 1 78 0
 1021 0669 C9       		leave
 1022              		.cfi_def_cfa 7, 8
 1023 066a C3       		ret
 1024              		.cfi_endproc
 1025              	.LFE1335:
 1027              		.section	.rodata
 1028              	.LC11:
 1029 004a 3C756E69 		.string	"<unittest-results"
 1029      74746573 
 1029      742D7265 
 1029      73756C74 
 1029      7300
 1030              	.LC12:
 1031 005c 20746573 		.string	" tests=\""
 1031      74733D22 
 1031      00
 1032              	.LC13:
 1033 0065 20666169 		.string	" failedtests=\""
 1033      6C656474 
 1033      65737473 
 1033      3D2200
 1034              	.LC14:
 1035 0074 20666169 		.string	" failures=\""
 1035      6C757265 
 1035      733D2200 
 1036              	.LC15:
 1037 0080 2074696D 		.string	" time=\""
 1037      653D2200 
 1038              	.LC16:
 1039 0088 3E00     		.string	">"
 1040              		.text
 1041 066b 90       		.align 2
 1042              		.globl	_ZN8UnitTest15XmlTestReporter12BeginResultsERSoiiif
 1044              	_ZN8UnitTest15XmlTestReporter12BeginResultsERSoiiif:
 1045              	.LFB1336:
  79:XmlTestReporter.cpp **** 
  80:XmlTestReporter.cpp **** void XmlTestReporter::BeginResults(std::ostream& os, int totalTestCount, int failedTestCount, 
  81:XmlTestReporter.cpp ****                                    int failureCount, float secondsElapsed)
  82:XmlTestReporter.cpp **** {
 1046              		.loc 1 82 0
 1047              		.cfi_startproc
 1048 066c 55       		pushq	%rbp
 1049              		.cfi_def_cfa_offset 16
 1050              		.cfi_offset 6, -16
 1051 066d 4889E5   		movq	%rsp, %rbp
 1052              		.cfi_def_cfa_register 6
 1053 0670 4883EC30 		subq	$48, %rsp
 1054 0674 48897DF8 		movq	%rdi, -8(%rbp)
 1055 0678 488975F0 		movq	%rsi, -16(%rbp)
 1056 067c 8955EC   		movl	%edx, -20(%rbp)
 1057 067f 894DE8   		movl	%ecx, -24(%rbp)
 1058 0682 448945E4 		movl	%r8d, -28(%rbp)
 1059 0686 F30F1145 		movss	%xmm0, -32(%rbp)
 1059      E0
  83:XmlTestReporter.cpp ****    os << "<unittest-results"
 1060              		.loc 1 83 0
 1061 068b 488B45F0 		movq	-16(%rbp), %rax
 1062 068f 488D3500 		leaq	.LC11(%rip), %rsi
 1062      000000
 1063 0696 4889C7   		movq	%rax, %rdi
 1064 0699 E8000000 		call	_ZStlsISt11char_traitsIcEERSt13basic_ostreamIcT_ES5_PKc@PLT
 1064      00
  84:XmlTestReporter.cpp ****        << " tests=\"" << totalTestCount << "\"" 
 1065              		.loc 1 84 0
 1066 069e 488D3500 		leaq	.LC12(%rip), %rsi
 1066      000000
 1067 06a5 4889C7   		movq	%rax, %rdi
 1068 06a8 E8000000 		call	_ZStlsISt11char_traitsIcEERSt13basic_ostreamIcT_ES5_PKc@PLT
 1068      00
 1069 06ad 4889C2   		movq	%rax, %rdx
 1070 06b0 8B45EC   		movl	-20(%rbp), %eax
 1071 06b3 89C6     		movl	%eax, %esi
 1072 06b5 4889D7   		movq	%rdx, %rdi
 1073 06b8 E8000000 		call	_ZNSolsEi@PLT
 1073      00
 1074 06bd 488D3500 		leaq	.LC9(%rip), %rsi
 1074      000000
 1075 06c4 4889C7   		movq	%rax, %rdi
 1076 06c7 E8000000 		call	_ZStlsISt11char_traitsIcEERSt13basic_ostreamIcT_ES5_PKc@PLT
 1076      00
  85:XmlTestReporter.cpp ****        << " failedtests=\"" << failedTestCount << "\"" 
 1077              		.loc 1 85 0
 1078 06cc 488D3500 		leaq	.LC13(%rip), %rsi
 1078      000000
 1079 06d3 4889C7   		movq	%rax, %rdi
 1080 06d6 E8000000 		call	_ZStlsISt11char_traitsIcEERSt13basic_ostreamIcT_ES5_PKc@PLT
 1080      00
 1081 06db 4889C2   		movq	%rax, %rdx
 1082 06de 8B45E8   		movl	-24(%rbp), %eax
 1083 06e1 89C6     		movl	%eax, %esi
 1084 06e3 4889D7   		movq	%rdx, %rdi
 1085 06e6 E8000000 		call	_ZNSolsEi@PLT
 1085      00
 1086 06eb 488D3500 		leaq	.LC9(%rip), %rsi
 1086      000000
 1087 06f2 4889C7   		movq	%rax, %rdi
 1088 06f5 E8000000 		call	_ZStlsISt11char_traitsIcEERSt13basic_ostreamIcT_ES5_PKc@PLT
 1088      00
  86:XmlTestReporter.cpp ****        << " failures=\"" << failureCount << "\"" 
 1089              		.loc 1 86 0
 1090 06fa 488D3500 		leaq	.LC14(%rip), %rsi
 1090      000000
 1091 0701 4889C7   		movq	%rax, %rdi
 1092 0704 E8000000 		call	_ZStlsISt11char_traitsIcEERSt13basic_ostreamIcT_ES5_PKc@PLT
 1092      00
 1093 0709 4889C2   		movq	%rax, %rdx
 1094 070c 8B45E4   		movl	-28(%rbp), %eax
 1095 070f 89C6     		movl	%eax, %esi
 1096 0711 4889D7   		movq	%rdx, %rdi
 1097 0714 E8000000 		call	_ZNSolsEi@PLT
 1097      00
 1098 0719 488D3500 		leaq	.LC9(%rip), %rsi
 1098      000000
 1099 0720 4889C7   		movq	%rax, %rdi
 1100 0723 E8000000 		call	_ZStlsISt11char_traitsIcEERSt13basic_ostreamIcT_ES5_PKc@PLT
 1100      00
  87:XmlTestReporter.cpp ****        << " time=\"" << secondsElapsed << "\""
 1101              		.loc 1 87 0
 1102 0728 488D3500 		leaq	.LC15(%rip), %rsi
 1102      000000
 1103 072f 4889C7   		movq	%rax, %rdi
 1104 0732 E8000000 		call	_ZStlsISt11char_traitsIcEERSt13basic_ostreamIcT_ES5_PKc@PLT
 1104      00
 1105 0737 4889C2   		movq	%rax, %rdx
 1106 073a 8B45E0   		movl	-32(%rbp), %eax
 1107 073d 8945DC   		movl	%eax, -36(%rbp)
 1108 0740 F30F1045 		movss	-36(%rbp), %xmm0
 1108      DC
 1109 0745 4889D7   		movq	%rdx, %rdi
 1110 0748 E8000000 		call	_ZNSolsEf@PLT
 1110      00
 1111 074d 488D3500 		leaq	.LC9(%rip), %rsi
 1111      000000
 1112 0754 4889C7   		movq	%rax, %rdi
 1113 0757 E8000000 		call	_ZStlsISt11char_traitsIcEERSt13basic_ostreamIcT_ES5_PKc@PLT
 1113      00
  88:XmlTestReporter.cpp ****        << ">";
 1114              		.loc 1 88 0
 1115 075c 488D3500 		leaq	.LC16(%rip), %rsi
 1115      000000
 1116 0763 4889C7   		movq	%rax, %rdi
 1117 0766 E8000000 		call	_ZStlsISt11char_traitsIcEERSt13basic_ostreamIcT_ES5_PKc@PLT
 1117      00
  89:XmlTestReporter.cpp **** }
 1118              		.loc 1 89 0
 1119 076b C9       		leave
 1120              		.cfi_def_cfa 7, 8
 1121 076c C3       		ret
 1122              		.cfi_endproc
 1123              	.LFE1336:
 1125              		.section	.rodata
 1126              	.LC17:
 1127 008a 3C2F756E 		.string	"</unittest-results>"
 1127      69747465 
 1127      73742D72 
 1127      6573756C 
 1127      74733E00 
 1128              		.text
 1129 076d 90       		.align 2
 1130              		.globl	_ZN8UnitTest15XmlTestReporter10EndResultsERSo
 1132              	_ZN8UnitTest15XmlTestReporter10EndResultsERSo:
 1133              	.LFB1337:
  90:XmlTestReporter.cpp **** 
  91:XmlTestReporter.cpp **** void XmlTestReporter::EndResults(std::ostream& os)
  92:XmlTestReporter.cpp **** {
 1134              		.loc 1 92 0
 1135              		.cfi_startproc
 1136 076e 55       		pushq	%rbp
 1137              		.cfi_def_cfa_offset 16
 1138              		.cfi_offset 6, -16
 1139 076f 4889E5   		movq	%rsp, %rbp
 1140              		.cfi_def_cfa_register 6
 1141 0772 4883EC10 		subq	$16, %rsp
 1142 0776 48897DF8 		movq	%rdi, -8(%rbp)
 1143 077a 488975F0 		movq	%rsi, -16(%rbp)
  93:XmlTestReporter.cpp ****     os << "</unittest-results>";
 1144              		.loc 1 93 0
 1145 077e 488B45F0 		movq	-16(%rbp), %rax
 1146 0782 488D3500 		leaq	.LC17(%rip), %rsi
 1146      000000
 1147 0789 4889C7   		movq	%rax, %rdi
 1148 078c E8000000 		call	_ZStlsISt11char_traitsIcEERSt13basic_ostreamIcT_ES5_PKc@PLT
 1148      00
  94:XmlTestReporter.cpp **** }
 1149              		.loc 1 94 0
 1150 0791 C9       		leave
 1151              		.cfi_def_cfa 7, 8
 1152 0792 C3       		ret
 1153              		.cfi_endproc
 1154              	.LFE1337:
 1156              		.section	.rodata
 1157              	.LC18:
 1158 009e 3C746573 		.string	"<test"
 1158      7400
 1159              	.LC19:
 1160 00a4 20737569 		.string	" suite=\""
 1160      74653D22 
 1160      00
 1161              	.LC20:
 1162 00ad 206E616D 		.string	" name=\""
 1162      653D2200 
 1163              		.text
 1164 0793 90       		.align 2
 1165              		.globl	_ZN8UnitTest15XmlTestReporter9BeginTestERSoRKNS_18DeferredTestResultE
 1167              	_ZN8UnitTest15XmlTestReporter9BeginTestERSoRKNS_18DeferredTestResultE:
 1168              	.LFB1338:
  95:XmlTestReporter.cpp **** 
  96:XmlTestReporter.cpp **** void XmlTestReporter::BeginTest(std::ostream& os, DeferredTestResult const& result)
  97:XmlTestReporter.cpp **** {
 1169              		.loc 1 97 0
 1170              		.cfi_startproc
 1171 0794 55       		pushq	%rbp
 1172              		.cfi_def_cfa_offset 16
 1173              		.cfi_offset 6, -16
 1174 0795 4889E5   		movq	%rsp, %rbp
 1175              		.cfi_def_cfa_register 6
 1176 0798 4155     		pushq	%r13
 1177 079a 4154     		pushq	%r12
 1178 079c 53       		pushq	%rbx
 1179 079d 4883EC28 		subq	$40, %rsp
 1180              		.cfi_offset 13, -24
 1181              		.cfi_offset 12, -32
 1182              		.cfi_offset 3, -40
 1183 07a1 48897DD8 		movq	%rdi, -40(%rbp)
 1184 07a5 488975D0 		movq	%rsi, -48(%rbp)
 1185 07a9 488955C8 		movq	%rdx, -56(%rbp)
  98:XmlTestReporter.cpp ****     os << "<test"
  99:XmlTestReporter.cpp ****         << " suite=\"" << result.suiteName << "\"" 
 100:XmlTestReporter.cpp ****         << " name=\"" << result.testName << "\""
 101:XmlTestReporter.cpp ****         << " time=\"" << result.timeElapsed << "\"";
 1186              		.loc 1 101 0
 1187 07ad 488B45C8 		movq	-56(%rbp), %rax
 1188 07b1 8B5830   		movl	48(%rax), %ebx
 100:XmlTestReporter.cpp ****         << " time=\"" << result.timeElapsed << "\"";
 1189              		.loc 1 100 0
 1190 07b4 488B45C8 		movq	-56(%rbp), %rax
 1191 07b8 4C8D6808 		leaq	8(%rax), %r13
  99:XmlTestReporter.cpp ****         << " name=\"" << result.testName << "\""
 1192              		.loc 1 99 0
 1193 07bc 4C8B65C8 		movq	-56(%rbp), %r12
  98:XmlTestReporter.cpp ****     os << "<test"
 1194              		.loc 1 98 0
 1195 07c0 488B45D0 		movq	-48(%rbp), %rax
 1196 07c4 488D3500 		leaq	.LC18(%rip), %rsi
 1196      000000
 1197 07cb 4889C7   		movq	%rax, %rdi
 1198 07ce E8000000 		call	_ZStlsISt11char_traitsIcEERSt13basic_ostreamIcT_ES5_PKc@PLT
 1198      00
  99:XmlTestReporter.cpp ****         << " name=\"" << result.testName << "\""
 1199              		.loc 1 99 0
 1200 07d3 488D3500 		leaq	.LC19(%rip), %rsi
 1200      000000
 1201 07da 4889C7   		movq	%rax, %rdi
 1202 07dd E8000000 		call	_ZStlsISt11char_traitsIcEERSt13basic_ostreamIcT_ES5_PKc@PLT
 1202      00
 1203 07e2 4C89E6   		movq	%r12, %rsi
 1204 07e5 4889C7   		movq	%rax, %rdi
 1205 07e8 E8000000 		call	_ZStlsIcSt11char_traitsIcESaIcEERSt13basic_ostreamIT_T0_ES7_RKSbIS4_S5_T1_E@PLT
 1205      00
 1206 07ed 488D3500 		leaq	.LC9(%rip), %rsi
 1206      000000
 1207 07f4 4889C7   		movq	%rax, %rdi
 1208 07f7 E8000000 		call	_ZStlsISt11char_traitsIcEERSt13basic_ostreamIcT_ES5_PKc@PLT
 1208      00
 100:XmlTestReporter.cpp ****         << " time=\"" << result.timeElapsed << "\"";
 1209              		.loc 1 100 0
 1210 07fc 488D3500 		leaq	.LC20(%rip), %rsi
 1210      000000
 1211 0803 4889C7   		movq	%rax, %rdi
 1212 0806 E8000000 		call	_ZStlsISt11char_traitsIcEERSt13basic_ostreamIcT_ES5_PKc@PLT
 1212      00
 1213 080b 4C89EE   		movq	%r13, %rsi
 1214 080e 4889C7   		movq	%rax, %rdi
 1215 0811 E8000000 		call	_ZStlsIcSt11char_traitsIcESaIcEERSt13basic_ostreamIT_T0_ES7_RKSbIS4_S5_T1_E@PLT
 1215      00
 1216 0816 488D3500 		leaq	.LC9(%rip), %rsi
 1216      000000
 1217 081d 4889C7   		movq	%rax, %rdi
 1218 0820 E8000000 		call	_ZStlsISt11char_traitsIcEERSt13basic_ostreamIcT_ES5_PKc@PLT
 1218      00
 1219              		.loc 1 101 0
 1220 0825 488D3500 		leaq	.LC15(%rip), %rsi
 1220      000000
 1221 082c 4889C7   		movq	%rax, %rdi
 1222 082f E8000000 		call	_ZStlsISt11char_traitsIcEERSt13basic_ostreamIcT_ES5_PKc@PLT
 1222      00
 1223 0834 895DC4   		movl	%ebx, -60(%rbp)
 1224 0837 F30F1045 		movss	-60(%rbp), %xmm0
 1224      C4
 1225 083c 4889C7   		movq	%rax, %rdi
 1226 083f E8000000 		call	_ZNSolsEf@PLT
 1226      00
 1227 0844 488D3500 		leaq	.LC9(%rip), %rsi
 1227      000000
 1228 084b 4889C7   		movq	%rax, %rdi
 1229 084e E8000000 		call	_ZStlsISt11char_traitsIcEERSt13basic_ostreamIcT_ES5_PKc@PLT
 1229      00
 102:XmlTestReporter.cpp **** }
 1230              		.loc 1 102 0
 1231 0853 4883C428 		addq	$40, %rsp
 1232 0857 5B       		popq	%rbx
 1233 0858 415C     		popq	%r12
 1234 085a 415D     		popq	%r13
 1235 085c 5D       		popq	%rbp
 1236              		.cfi_def_cfa 7, 8
 1237 085d C3       		ret
 1238              		.cfi_endproc
 1239              	.LFE1338:
 1241              		.section	.rodata
 1242              	.LC21:
 1243 00b5 3C2F7465 		.string	"</test>"
 1243      73743E00 
 1244              	.LC22:
 1245 00bd 2F3E00   		.string	"/>"
 1246              		.text
 1247              		.align 2
 1248              		.globl	_ZN8UnitTest15XmlTestReporter7EndTestERSoRKNS_18DeferredTestResultE
 1250              	_ZN8UnitTest15XmlTestReporter7EndTestERSoRKNS_18DeferredTestResultE:
 1251              	.LFB1339:
 103:XmlTestReporter.cpp **** 
 104:XmlTestReporter.cpp **** void XmlTestReporter::EndTest(std::ostream& os, DeferredTestResult const& result)
 105:XmlTestReporter.cpp **** {
 1252              		.loc 1 105 0
 1253              		.cfi_startproc
 1254 085e 55       		pushq	%rbp
 1255              		.cfi_def_cfa_offset 16
 1256              		.cfi_offset 6, -16
 1257 085f 4889E5   		movq	%rsp, %rbp
 1258              		.cfi_def_cfa_register 6
 1259 0862 4883EC20 		subq	$32, %rsp
 1260 0866 48897DF8 		movq	%rdi, -8(%rbp)
 1261 086a 488975F0 		movq	%rsi, -16(%rbp)
 1262 086e 488955E8 		movq	%rdx, -24(%rbp)
 106:XmlTestReporter.cpp ****     if (result.failed)
 1263              		.loc 1 106 0
 1264 0872 488B45E8 		movq	-24(%rbp), %rax
 1265 0876 0FB64034 		movzbl	52(%rax), %eax
 1266 087a 84C0     		testb	%al, %al
 1267 087c 7415     		je	.L60
 107:XmlTestReporter.cpp ****         os << "</test>";
 1268              		.loc 1 107 0
 1269 087e 488B45F0 		movq	-16(%rbp), %rax
 1270 0882 488D3500 		leaq	.LC21(%rip), %rsi
 1270      000000
 1271 0889 4889C7   		movq	%rax, %rdi
 1272 088c E8000000 		call	_ZStlsISt11char_traitsIcEERSt13basic_ostreamIcT_ES5_PKc@PLT
 1272      00
 1273 0891 EB13     		jmp	.L59
 1274              	.L60:
 108:XmlTestReporter.cpp ****     else
 109:XmlTestReporter.cpp ****         os << "/>";
 1275              		.loc 1 109 0
 1276 0893 488B45F0 		movq	-16(%rbp), %rax
 1277 0897 488D3500 		leaq	.LC22(%rip), %rsi
 1277      000000
 1278 089e 4889C7   		movq	%rax, %rdi
 1279 08a1 E8000000 		call	_ZStlsISt11char_traitsIcEERSt13basic_ostreamIcT_ES5_PKc@PLT
 1279      00
 1280              	.L59:
 110:XmlTestReporter.cpp **** }
 1281              		.loc 1 110 0
 1282 08a6 C9       		leave
 1283              		.cfi_def_cfa 7, 8
 1284 08a7 C3       		ret
 1285              		.cfi_endproc
 1286              	.LFE1339:
 1288              		.section	.rodata
 1289              	.LC23:
 1290 00c0 3C666169 		.string	"<failure"
 1290      6C757265 
 1290      00
 1291              	.LC24:
 1292 00c9 206D6573 		.string	" message=\""
 1292      73616765 
 1292      3D2200
 1293              		.text
 1294              		.align 2
 1295              		.globl	_ZN8UnitTest15XmlTestReporter10AddFailureERSoRKNS_18DeferredTestResultE
 1297              	_ZN8UnitTest15XmlTestReporter10AddFailureERSoRKNS_18DeferredTestResultE:
 1298              	.LFB1340:
 111:XmlTestReporter.cpp **** 
 112:XmlTestReporter.cpp **** void XmlTestReporter::AddFailure(std::ostream& os, DeferredTestResult const& result)
 113:XmlTestReporter.cpp **** {
 1299              		.loc 1 113 0
 1300              		.cfi_startproc
 1301              		.cfi_personality 0x9b,DW.ref.__gxx_personality_v0
 1302              		.cfi_lsda 0x1b,.LLSDA1340
 1303 08a8 55       		pushq	%rbp
 1304              		.cfi_def_cfa_offset 16
 1305              		.cfi_offset 6, -16
 1306 08a9 4889E5   		movq	%rsp, %rbp
 1307              		.cfi_def_cfa_register 6
 1308 08ac 53       		pushq	%rbx
 1309 08ad 4883EC58 		subq	$88, %rsp
 1310              		.cfi_offset 3, -24
 1311 08b1 48897DB8 		movq	%rdi, -72(%rbp)
 1312 08b5 488975B0 		movq	%rsi, -80(%rbp)
 1313 08b9 488955A8 		movq	%rdx, -88(%rbp)
 1314              		.loc 1 113 0
 1315 08bd 64488B04 		movq	%fs:40, %rax
 1315      25280000 
 1315      00
 1316 08c6 488945E8 		movq	%rax, -24(%rbp)
 1317 08ca 31C0     		xorl	%eax, %eax
 1318              	.LBB16:
 114:XmlTestReporter.cpp ****     os << ">"; // close <test> element
 1319              		.loc 1 114 0
 1320 08cc 488B45B0 		movq	-80(%rbp), %rax
 1321 08d0 488D3500 		leaq	.LC16(%rip), %rsi
 1321      000000
 1322 08d7 4889C7   		movq	%rax, %rdi
 1323              	.LEHB26:
 1324 08da E8000000 		call	_ZStlsISt11char_traitsIcEERSt13basic_ostreamIcT_ES5_PKc@PLT
 1324      00
 1325              	.LBB17:
 115:XmlTestReporter.cpp **** 
 116:XmlTestReporter.cpp ****     for (DeferredTestResult::FailureVec::const_iterator it = result.failures.begin(); 
 1326              		.loc 1 116 0
 1327 08df 488B45A8 		movq	-88(%rbp), %rax
 1328 08e3 4883C018 		addq	$24, %rax
 1329 08e7 4889C7   		movq	%rax, %rdi
 1330 08ea E8000000 		call	_ZNKSt6vectorISt4pairIiSsESaIS1_EE5beginEv@PLT
 1330      00
 1331 08ef 488945C0 		movq	%rax, -64(%rbp)
 1332 08f3 E9BB0000 		jmp	.L63
 1332      00
 1333              	.L64:
 1334              	.LBB18:
 117:XmlTestReporter.cpp ****          it != result.failures.end(); 
 118:XmlTestReporter.cpp ****          ++it)
 119:XmlTestReporter.cpp ****     {
 120:XmlTestReporter.cpp ****         string const escapedMessage = XmlEscape(it->second);
 1335              		.loc 1 120 0
 1336 08f8 488D45C0 		leaq	-64(%rbp), %rax
 1337 08fc 4889C7   		movq	%rax, %rdi
 1338 08ff E8000000 		call	_ZNK9__gnu_cxx17__normal_iteratorIPKSt4pairIiSsESt6vectorIS2_SaIS2_EEEptEv@PLT
 1338      00
 1339 0904 488D5008 		leaq	8(%rax), %rdx
 1340 0908 488D45D0 		leaq	-48(%rbp), %rax
 1341 090c 4889D6   		movq	%rdx, %rsi
 1342 090f 4889C7   		movq	%rax, %rdi
 1343 0912 E85EF7FF 		call	_ZN12_GLOBAL__N_19XmlEscapeERKSs
 1343      FF
 1344              	.LEHE26:
 121:XmlTestReporter.cpp ****         string const message = BuildFailureMessage(result.failureFile, it->first, escapedMessage);
 1345              		.loc 1 121 0
 1346 0917 488D45C0 		leaq	-64(%rbp), %rax
 1347 091b 4889C7   		movq	%rax, %rdi
 1348              	.LEHB27:
 1349 091e E8000000 		call	_ZNK9__gnu_cxx17__normal_iteratorIPKSt4pairIiSsESt6vectorIS2_SaIS2_EEEptEv@PLT
 1349      00
 1350 0923 8B10     		movl	(%rax), %edx
 1351 0925 488B45A8 		movq	-88(%rbp), %rax
 1352 0929 488D7010 		leaq	16(%rax), %rsi
 1353 092d 488D45E0 		leaq	-32(%rbp), %rax
 1354 0931 488D4DD0 		leaq	-48(%rbp), %rcx
 1355 0935 4889C7   		movq	%rax, %rdi
 1356 0938 E8E6F9FF 		call	_ZN12_GLOBAL__N_119BuildFailureMessageERKSsiS1_
 1356      FF
 1357              	.LEHE27:
 122:XmlTestReporter.cpp **** 
 123:XmlTestReporter.cpp ****         os << "<failure" << " message=\"" << message << "\"" << "/>";
 1358              		.loc 1 123 0
 1359 093d 488B45B0 		movq	-80(%rbp), %rax
 1360 0941 488D3500 		leaq	.LC23(%rip), %rsi
 1360      000000
 1361 0948 4889C7   		movq	%rax, %rdi
 1362              	.LEHB28:
 1363 094b E8000000 		call	_ZStlsISt11char_traitsIcEERSt13basic_ostreamIcT_ES5_PKc@PLT
 1363      00
 1364 0950 488D3500 		leaq	.LC24(%rip), %rsi
 1364      000000
 1365 0957 4889C7   		movq	%rax, %rdi
 1366 095a E8000000 		call	_ZStlsISt11char_traitsIcEERSt13basic_ostreamIcT_ES5_PKc@PLT
 1366      00
 1367              		.loc 1 123 0 is_stmt 0 discriminator 1
 1368 095f 4889C2   		movq	%rax, %rdx
 1369 0962 488D45E0 		leaq	-32(%rbp), %rax
 1370 0966 4889C6   		movq	%rax, %rsi
 1371 0969 4889D7   		movq	%rdx, %rdi
 1372 096c E8000000 		call	_ZStlsIcSt11char_traitsIcESaIcEERSt13basic_ostreamIT_T0_ES7_RKSbIS4_S5_T1_E@PLT
 1372      00
 1373              		.loc 1 123 0 discriminator 2
 1374 0971 488D3500 		leaq	.LC9(%rip), %rsi
 1374      000000
 1375 0978 4889C7   		movq	%rax, %rdi
 1376 097b E8000000 		call	_ZStlsISt11char_traitsIcEERSt13basic_ostreamIcT_ES5_PKc@PLT
 1376      00
 1377              		.loc 1 123 0 discriminator 3
 1378 0980 488D3500 		leaq	.LC22(%rip), %rsi
 1378      000000
 1379 0987 4889C7   		movq	%rax, %rdi
 1380 098a E8000000 		call	_ZStlsISt11char_traitsIcEERSt13basic_ostreamIcT_ES5_PKc@PLT
 1380      00
 1381              	.LEHE28:
 121:XmlTestReporter.cpp ****         string const message = BuildFailureMessage(result.failureFile, it->first, escapedMessage);
 1382              		.loc 1 121 0 is_stmt 1
 1383 098f 488D45E0 		leaq	-32(%rbp), %rax
 1384 0993 4889C7   		movq	%rax, %rdi
 1385              	.LEHB29:
 1386 0996 E8000000 		call	_ZNSsD1Ev@PLT
 1386      00
 1387              	.LEHE29:
 124:XmlTestReporter.cpp ****     }
 1388              		.loc 1 124 0
 1389 099b 488D45D0 		leaq	-48(%rbp), %rax
 1390 099f 4889C7   		movq	%rax, %rdi
 1391              	.LEHB30:
 1392 09a2 E8000000 		call	_ZNSsD1Ev@PLT
 1392      00
 1393              	.LBE18:
 116:XmlTestReporter.cpp ****          it != result.failures.end(); 
 1394              		.loc 1 116 0
 1395 09a7 488D45C0 		leaq	-64(%rbp), %rax
 1396 09ab 4889C7   		movq	%rax, %rdi
 1397 09ae E8000000 		call	_ZN9__gnu_cxx17__normal_iteratorIPKSt4pairIiSsESt6vectorIS2_SaIS2_EEEppEv@PLT
 1397      00
 1398              	.L63:
 117:XmlTestReporter.cpp ****          ++it)
 1399              		.loc 1 117 0
 1400 09b3 488B45A8 		movq	-88(%rbp), %rax
 1401 09b7 4883C018 		addq	$24, %rax
 1402 09bb 4889C7   		movq	%rax, %rdi
 1403 09be E8000000 		call	_ZNKSt6vectorISt4pairIiSsESaIS1_EE3endEv@PLT
 1403      00
 1404 09c3 488945E0 		movq	%rax, -32(%rbp)
 116:XmlTestReporter.cpp ****          it != result.failures.end(); 
 1405              		.loc 1 116 0
 1406 09c7 488D55E0 		leaq	-32(%rbp), %rdx
 1407 09cb 488D45C0 		leaq	-64(%rbp), %rax
 1408 09cf 4889D6   		movq	%rdx, %rsi
 1409 09d2 4889C7   		movq	%rax, %rdi
 1410 09d5 E8000000 		call	_ZN9__gnu_cxxneIPKSt4pairIiSsESt6vectorIS2_SaIS2_EEEEbRKNS_17__normal_iteratorIT_T0_EESD_@PLT
 1410      00
 1411              	.LEHE30:
 1412 09da 84C0     		testb	%al, %al
 1413 09dc 0F8516FF 		jne	.L64
 1413      FFFF
 1414              	.LBE17:
 1415              	.LBE16:
 125:XmlTestReporter.cpp **** }
 1416              		.loc 1 125 0
 1417 09e2 488B45E8 		movq	-24(%rbp), %rax
 1418 09e6 64483304 		xorq	%fs:40, %rax
 1418      25280000 
 1418      00
 1419 09ef 7432     		je	.L67
 1420 09f1 EB2B     		jmp	.L70
 1421              	.L69:
 1422 09f3 4889C3   		movq	%rax, %rbx
 1423              	.LBB21:
 1424              	.LBB20:
 1425              	.LBB19:
 121:XmlTestReporter.cpp **** 
 1426              		.loc 1 121 0
 1427 09f6 488D45E0 		leaq	-32(%rbp), %rax
 1428 09fa 4889C7   		movq	%rax, %rdi
 1429 09fd E8000000 		call	_ZNSsD1Ev@PLT
 1429      00
 1430 0a02 EB03     		jmp	.L66
 1431              	.L68:
 1432 0a04 4889C3   		movq	%rax, %rbx
 1433              	.L66:
 124:XmlTestReporter.cpp **** }
 1434              		.loc 1 124 0
 1435 0a07 488D45D0 		leaq	-48(%rbp), %rax
 1436 0a0b 4889C7   		movq	%rax, %rdi
 1437 0a0e E8000000 		call	_ZNSsD1Ev@PLT
 1437      00
 1438 0a13 4889D8   		movq	%rbx, %rax
 1439 0a16 4889C7   		movq	%rax, %rdi
 1440              	.LEHB31:
 1441 0a19 E8000000 		call	_Unwind_Resume@PLT
 1441      00
 1442              	.LEHE31:
 1443              	.L70:
 1444              	.LBE19:
 1445              	.LBE20:
 1446              	.LBE21:
 1447              		.loc 1 125 0
 1448 0a1e E8000000 		call	__stack_chk_fail@PLT
 1448      00
 1449              	.L67:
 1450 0a23 4883C458 		addq	$88, %rsp
 1451 0a27 5B       		popq	%rbx
 1452 0a28 5D       		popq	%rbp
 1453              		.cfi_def_cfa 7, 8
 1454 0a29 C3       		ret
 1455              		.cfi_endproc
 1456              	.LFE1340:
 1457              		.section	.gcc_except_table
 1458              	.LLSDA1340:
 1459 0097 FF       		.byte	0xff
 1460 0098 FF       		.byte	0xff
 1461 0099 01       		.byte	0x1
 1462 009a 1F       		.uleb128 .LLSDACSE1340-.LLSDACSB1340
 1463              	.LLSDACSB1340:
 1464 009b 32       		.uleb128 .LEHB26-.LFB1340
 1465 009c 3D       		.uleb128 .LEHE26-.LEHB26
 1466 009d 00       		.uleb128 0
 1467 009e 00       		.uleb128 0
 1468 009f 76       		.uleb128 .LEHB27-.LFB1340
 1469 00a0 1F       		.uleb128 .LEHE27-.LEHB27
 1470 00a1 DC02     		.uleb128 .L68-.LFB1340
 1471 00a3 00       		.uleb128 0
 1472 00a4 A301     		.uleb128 .LEHB28-.LFB1340
 1473 00a6 44       		.uleb128 .LEHE28-.LEHB28
 1474 00a7 CB02     		.uleb128 .L69-.LFB1340
 1475 00a9 00       		.uleb128 0
 1476 00aa EE01     		.uleb128 .LEHB29-.LFB1340
 1477 00ac 05       		.uleb128 .LEHE29-.LEHB29
 1478 00ad DC02     		.uleb128 .L68-.LFB1340
 1479 00af 00       		.uleb128 0
 1480 00b0 FA01     		.uleb128 .LEHB30-.LFB1340
 1481 00b2 38       		.uleb128 .LEHE30-.LEHB30
 1482 00b3 00       		.uleb128 0
 1483 00b4 00       		.uleb128 0
 1484 00b5 F102     		.uleb128 .LEHB31-.LFB1340
 1485 00b7 05       		.uleb128 .LEHE31-.LEHB31
 1486 00b8 00       		.uleb128 0
 1487 00b9 00       		.uleb128 0
 1488              	.LLSDACSE1340:
 1489              		.text
 1491              		.section	.text._ZNSt6vectorIN8UnitTest18DeferredTestResultESaIS1_EEC2Ev,"axG",@progbits,_ZNSt6vect
 1492              		.align 2
 1493              		.weak	_ZNSt6vectorIN8UnitTest18DeferredTestResultESaIS1_EEC2Ev
 1495              	_ZNSt6vectorIN8UnitTest18DeferredTestResultESaIS1_EEC2Ev:
 1496              	.LFB1370:
 1497              		.file 4 "/usr/include/c++/4.9/bits/stl_vector.h"
   1:/usr/include/c++/4.9/bits/stl_vector.h **** // Vector implementation -*- C++ -*-
   2:/usr/include/c++/4.9/bits/stl_vector.h **** 
   3:/usr/include/c++/4.9/bits/stl_vector.h **** // Copyright (C) 2001-2014 Free Software Foundation, Inc.
   4:/usr/include/c++/4.9/bits/stl_vector.h **** //
   5:/usr/include/c++/4.9/bits/stl_vector.h **** // This file is part of the GNU ISO C++ Library.  This library is free
   6:/usr/include/c++/4.9/bits/stl_vector.h **** // software; you can redistribute it and/or modify it under the
   7:/usr/include/c++/4.9/bits/stl_vector.h **** // terms of the GNU General Public License as published by the
   8:/usr/include/c++/4.9/bits/stl_vector.h **** // Free Software Foundation; either version 3, or (at your option)
   9:/usr/include/c++/4.9/bits/stl_vector.h **** // any later version.
  10:/usr/include/c++/4.9/bits/stl_vector.h **** 
  11:/usr/include/c++/4.9/bits/stl_vector.h **** // This library is distributed in the hope that it will be useful,
  12:/usr/include/c++/4.9/bits/stl_vector.h **** // but WITHOUT ANY WARRANTY; without even the implied warranty of
  13:/usr/include/c++/4.9/bits/stl_vector.h **** // MERCHANTABILITY or FITNESS FOR A PARTICULAR PURPOSE.  See the
  14:/usr/include/c++/4.9/bits/stl_vector.h **** // GNU General Public License for more details.
  15:/usr/include/c++/4.9/bits/stl_vector.h **** 
  16:/usr/include/c++/4.9/bits/stl_vector.h **** // Under Section 7 of GPL version 3, you are granted additional
  17:/usr/include/c++/4.9/bits/stl_vector.h **** // permissions described in the GCC Runtime Library Exception, version
  18:/usr/include/c++/4.9/bits/stl_vector.h **** // 3.1, as published by the Free Software Foundation.
  19:/usr/include/c++/4.9/bits/stl_vector.h **** 
  20:/usr/include/c++/4.9/bits/stl_vector.h **** // You should have received a copy of the GNU General Public License and
  21:/usr/include/c++/4.9/bits/stl_vector.h **** // a copy of the GCC Runtime Library Exception along with this program;
  22:/usr/include/c++/4.9/bits/stl_vector.h **** // see the files COPYING3 and COPYING.RUNTIME respectively.  If not, see
  23:/usr/include/c++/4.9/bits/stl_vector.h **** // <http://www.gnu.org/licenses/>.
  24:/usr/include/c++/4.9/bits/stl_vector.h **** 
  25:/usr/include/c++/4.9/bits/stl_vector.h **** /*
  26:/usr/include/c++/4.9/bits/stl_vector.h ****  *
  27:/usr/include/c++/4.9/bits/stl_vector.h ****  * Copyright (c) 1994
  28:/usr/include/c++/4.9/bits/stl_vector.h ****  * Hewlett-Packard Company
  29:/usr/include/c++/4.9/bits/stl_vector.h ****  *
  30:/usr/include/c++/4.9/bits/stl_vector.h ****  * Permission to use, copy, modify, distribute and sell this software
  31:/usr/include/c++/4.9/bits/stl_vector.h ****  * and its documentation for any purpose is hereby granted without fee,
  32:/usr/include/c++/4.9/bits/stl_vector.h ****  * provided that the above copyright notice appear in all copies and
  33:/usr/include/c++/4.9/bits/stl_vector.h ****  * that both that copyright notice and this permission notice appear
  34:/usr/include/c++/4.9/bits/stl_vector.h ****  * in supporting documentation.  Hewlett-Packard Company makes no
  35:/usr/include/c++/4.9/bits/stl_vector.h ****  * representations about the suitability of this software for any
  36:/usr/include/c++/4.9/bits/stl_vector.h ****  * purpose.  It is provided "as is" without express or implied warranty.
  37:/usr/include/c++/4.9/bits/stl_vector.h ****  *
  38:/usr/include/c++/4.9/bits/stl_vector.h ****  *
  39:/usr/include/c++/4.9/bits/stl_vector.h ****  * Copyright (c) 1996
  40:/usr/include/c++/4.9/bits/stl_vector.h ****  * Silicon Graphics Computer Systems, Inc.
  41:/usr/include/c++/4.9/bits/stl_vector.h ****  *
  42:/usr/include/c++/4.9/bits/stl_vector.h ****  * Permission to use, copy, modify, distribute and sell this software
  43:/usr/include/c++/4.9/bits/stl_vector.h ****  * and its documentation for any purpose is hereby granted without fee,
  44:/usr/include/c++/4.9/bits/stl_vector.h ****  * provided that the above copyright notice appear in all copies and
  45:/usr/include/c++/4.9/bits/stl_vector.h ****  * that both that copyright notice and this permission notice appear
  46:/usr/include/c++/4.9/bits/stl_vector.h ****  * in supporting documentation.  Silicon Graphics makes no
  47:/usr/include/c++/4.9/bits/stl_vector.h ****  * representations about the suitability of this  software for any
  48:/usr/include/c++/4.9/bits/stl_vector.h ****  * purpose.  It is provided "as is" without express or implied warranty.
  49:/usr/include/c++/4.9/bits/stl_vector.h ****  */
  50:/usr/include/c++/4.9/bits/stl_vector.h **** 
  51:/usr/include/c++/4.9/bits/stl_vector.h **** /** @file bits/stl_vector.h
  52:/usr/include/c++/4.9/bits/stl_vector.h ****  *  This is an internal header file, included by other library headers.
  53:/usr/include/c++/4.9/bits/stl_vector.h ****  *  Do not attempt to use it directly. @headername{vector}
  54:/usr/include/c++/4.9/bits/stl_vector.h ****  */
  55:/usr/include/c++/4.9/bits/stl_vector.h **** 
  56:/usr/include/c++/4.9/bits/stl_vector.h **** #ifndef _STL_VECTOR_H
  57:/usr/include/c++/4.9/bits/stl_vector.h **** #define _STL_VECTOR_H 1
  58:/usr/include/c++/4.9/bits/stl_vector.h **** 
  59:/usr/include/c++/4.9/bits/stl_vector.h **** #include <bits/stl_iterator_base_funcs.h>
  60:/usr/include/c++/4.9/bits/stl_vector.h **** #include <bits/functexcept.h>
  61:/usr/include/c++/4.9/bits/stl_vector.h **** #include <bits/concept_check.h>
  62:/usr/include/c++/4.9/bits/stl_vector.h **** #if __cplusplus >= 201103L
  63:/usr/include/c++/4.9/bits/stl_vector.h **** #include <initializer_list>
  64:/usr/include/c++/4.9/bits/stl_vector.h **** #endif
  65:/usr/include/c++/4.9/bits/stl_vector.h **** 
  66:/usr/include/c++/4.9/bits/stl_vector.h **** namespace std _GLIBCXX_VISIBILITY(default)
  67:/usr/include/c++/4.9/bits/stl_vector.h **** {
  68:/usr/include/c++/4.9/bits/stl_vector.h **** _GLIBCXX_BEGIN_NAMESPACE_CONTAINER
  69:/usr/include/c++/4.9/bits/stl_vector.h **** 
  70:/usr/include/c++/4.9/bits/stl_vector.h ****   /// See bits/stl_deque.h's _Deque_base for an explanation.
  71:/usr/include/c++/4.9/bits/stl_vector.h ****   template<typename _Tp, typename _Alloc>
  72:/usr/include/c++/4.9/bits/stl_vector.h ****     struct _Vector_base
  73:/usr/include/c++/4.9/bits/stl_vector.h ****     {
  74:/usr/include/c++/4.9/bits/stl_vector.h ****       typedef typename __gnu_cxx::__alloc_traits<_Alloc>::template
  75:/usr/include/c++/4.9/bits/stl_vector.h ****         rebind<_Tp>::other _Tp_alloc_type;
  76:/usr/include/c++/4.9/bits/stl_vector.h ****       typedef typename __gnu_cxx::__alloc_traits<_Tp_alloc_type>::pointer
  77:/usr/include/c++/4.9/bits/stl_vector.h ****        	pointer;
  78:/usr/include/c++/4.9/bits/stl_vector.h **** 
  79:/usr/include/c++/4.9/bits/stl_vector.h ****       struct _Vector_impl 
  80:/usr/include/c++/4.9/bits/stl_vector.h ****       : public _Tp_alloc_type
  81:/usr/include/c++/4.9/bits/stl_vector.h ****       {
  82:/usr/include/c++/4.9/bits/stl_vector.h **** 	pointer _M_start;
  83:/usr/include/c++/4.9/bits/stl_vector.h **** 	pointer _M_finish;
  84:/usr/include/c++/4.9/bits/stl_vector.h **** 	pointer _M_end_of_storage;
  85:/usr/include/c++/4.9/bits/stl_vector.h **** 
  86:/usr/include/c++/4.9/bits/stl_vector.h **** 	_Vector_impl()
  87:/usr/include/c++/4.9/bits/stl_vector.h **** 	: _Tp_alloc_type(), _M_start(0), _M_finish(0), _M_end_of_storage(0)
  88:/usr/include/c++/4.9/bits/stl_vector.h **** 	{ }
  89:/usr/include/c++/4.9/bits/stl_vector.h **** 
  90:/usr/include/c++/4.9/bits/stl_vector.h **** 	_Vector_impl(_Tp_alloc_type const& __a) _GLIBCXX_NOEXCEPT
  91:/usr/include/c++/4.9/bits/stl_vector.h **** 	: _Tp_alloc_type(__a), _M_start(0), _M_finish(0), _M_end_of_storage(0)
  92:/usr/include/c++/4.9/bits/stl_vector.h **** 	{ }
  93:/usr/include/c++/4.9/bits/stl_vector.h **** 
  94:/usr/include/c++/4.9/bits/stl_vector.h **** #if __cplusplus >= 201103L
  95:/usr/include/c++/4.9/bits/stl_vector.h **** 	_Vector_impl(_Tp_alloc_type&& __a) noexcept
  96:/usr/include/c++/4.9/bits/stl_vector.h **** 	: _Tp_alloc_type(std::move(__a)),
  97:/usr/include/c++/4.9/bits/stl_vector.h **** 	  _M_start(0), _M_finish(0), _M_end_of_storage(0)
  98:/usr/include/c++/4.9/bits/stl_vector.h **** 	{ }
  99:/usr/include/c++/4.9/bits/stl_vector.h **** #endif
 100:/usr/include/c++/4.9/bits/stl_vector.h **** 
 101:/usr/include/c++/4.9/bits/stl_vector.h **** 	void _M_swap_data(_Vector_impl& __x) _GLIBCXX_NOEXCEPT
 102:/usr/include/c++/4.9/bits/stl_vector.h **** 	{
 103:/usr/include/c++/4.9/bits/stl_vector.h **** 	  std::swap(_M_start, __x._M_start);
 104:/usr/include/c++/4.9/bits/stl_vector.h **** 	  std::swap(_M_finish, __x._M_finish);
 105:/usr/include/c++/4.9/bits/stl_vector.h **** 	  std::swap(_M_end_of_storage, __x._M_end_of_storage);
 106:/usr/include/c++/4.9/bits/stl_vector.h **** 	}
 107:/usr/include/c++/4.9/bits/stl_vector.h ****       };
 108:/usr/include/c++/4.9/bits/stl_vector.h ****       
 109:/usr/include/c++/4.9/bits/stl_vector.h ****     public:
 110:/usr/include/c++/4.9/bits/stl_vector.h ****       typedef _Alloc allocator_type;
 111:/usr/include/c++/4.9/bits/stl_vector.h **** 
 112:/usr/include/c++/4.9/bits/stl_vector.h ****       _Tp_alloc_type&
 113:/usr/include/c++/4.9/bits/stl_vector.h ****       _M_get_Tp_allocator() _GLIBCXX_NOEXCEPT
 114:/usr/include/c++/4.9/bits/stl_vector.h ****       { return *static_cast<_Tp_alloc_type*>(&this->_M_impl); }
 115:/usr/include/c++/4.9/bits/stl_vector.h **** 
 116:/usr/include/c++/4.9/bits/stl_vector.h ****       const _Tp_alloc_type&
 117:/usr/include/c++/4.9/bits/stl_vector.h ****       _M_get_Tp_allocator() const _GLIBCXX_NOEXCEPT
 118:/usr/include/c++/4.9/bits/stl_vector.h ****       { return *static_cast<const _Tp_alloc_type*>(&this->_M_impl); }
 119:/usr/include/c++/4.9/bits/stl_vector.h **** 
 120:/usr/include/c++/4.9/bits/stl_vector.h ****       allocator_type
 121:/usr/include/c++/4.9/bits/stl_vector.h ****       get_allocator() const _GLIBCXX_NOEXCEPT
 122:/usr/include/c++/4.9/bits/stl_vector.h ****       { return allocator_type(_M_get_Tp_allocator()); }
 123:/usr/include/c++/4.9/bits/stl_vector.h **** 
 124:/usr/include/c++/4.9/bits/stl_vector.h ****       _Vector_base()
 125:/usr/include/c++/4.9/bits/stl_vector.h ****       : _M_impl() { }
 126:/usr/include/c++/4.9/bits/stl_vector.h **** 
 127:/usr/include/c++/4.9/bits/stl_vector.h ****       _Vector_base(const allocator_type& __a) _GLIBCXX_NOEXCEPT
 128:/usr/include/c++/4.9/bits/stl_vector.h ****       : _M_impl(__a) { }
 129:/usr/include/c++/4.9/bits/stl_vector.h **** 
 130:/usr/include/c++/4.9/bits/stl_vector.h ****       _Vector_base(size_t __n)
 131:/usr/include/c++/4.9/bits/stl_vector.h ****       : _M_impl()
 132:/usr/include/c++/4.9/bits/stl_vector.h ****       { _M_create_storage(__n); }
 133:/usr/include/c++/4.9/bits/stl_vector.h **** 
 134:/usr/include/c++/4.9/bits/stl_vector.h ****       _Vector_base(size_t __n, const allocator_type& __a)
 135:/usr/include/c++/4.9/bits/stl_vector.h ****       : _M_impl(__a)
 136:/usr/include/c++/4.9/bits/stl_vector.h ****       { _M_create_storage(__n); }
 137:/usr/include/c++/4.9/bits/stl_vector.h **** 
 138:/usr/include/c++/4.9/bits/stl_vector.h **** #if __cplusplus >= 201103L
 139:/usr/include/c++/4.9/bits/stl_vector.h ****       _Vector_base(_Tp_alloc_type&& __a) noexcept
 140:/usr/include/c++/4.9/bits/stl_vector.h ****       : _M_impl(std::move(__a)) { }
 141:/usr/include/c++/4.9/bits/stl_vector.h **** 
 142:/usr/include/c++/4.9/bits/stl_vector.h ****       _Vector_base(_Vector_base&& __x) noexcept
 143:/usr/include/c++/4.9/bits/stl_vector.h ****       : _M_impl(std::move(__x._M_get_Tp_allocator()))
 144:/usr/include/c++/4.9/bits/stl_vector.h ****       { this->_M_impl._M_swap_data(__x._M_impl); }
 145:/usr/include/c++/4.9/bits/stl_vector.h **** 
 146:/usr/include/c++/4.9/bits/stl_vector.h ****       _Vector_base(_Vector_base&& __x, const allocator_type& __a)
 147:/usr/include/c++/4.9/bits/stl_vector.h ****       : _M_impl(__a)
 148:/usr/include/c++/4.9/bits/stl_vector.h ****       {
 149:/usr/include/c++/4.9/bits/stl_vector.h **** 	if (__x.get_allocator() == __a)
 150:/usr/include/c++/4.9/bits/stl_vector.h **** 	  this->_M_impl._M_swap_data(__x._M_impl);
 151:/usr/include/c++/4.9/bits/stl_vector.h **** 	else
 152:/usr/include/c++/4.9/bits/stl_vector.h **** 	  {
 153:/usr/include/c++/4.9/bits/stl_vector.h **** 	    size_t __n = __x._M_impl._M_finish - __x._M_impl._M_start;
 154:/usr/include/c++/4.9/bits/stl_vector.h **** 	    _M_create_storage(__n);
 155:/usr/include/c++/4.9/bits/stl_vector.h **** 	  }
 156:/usr/include/c++/4.9/bits/stl_vector.h ****       }
 157:/usr/include/c++/4.9/bits/stl_vector.h **** #endif
 158:/usr/include/c++/4.9/bits/stl_vector.h **** 
 159:/usr/include/c++/4.9/bits/stl_vector.h ****       ~_Vector_base() _GLIBCXX_NOEXCEPT
 160:/usr/include/c++/4.9/bits/stl_vector.h ****       { _M_deallocate(this->_M_impl._M_start, this->_M_impl._M_end_of_storage
 161:/usr/include/c++/4.9/bits/stl_vector.h **** 		      - this->_M_impl._M_start); }
 162:/usr/include/c++/4.9/bits/stl_vector.h **** 
 163:/usr/include/c++/4.9/bits/stl_vector.h ****     public:
 164:/usr/include/c++/4.9/bits/stl_vector.h ****       _Vector_impl _M_impl;
 165:/usr/include/c++/4.9/bits/stl_vector.h **** 
 166:/usr/include/c++/4.9/bits/stl_vector.h ****       pointer
 167:/usr/include/c++/4.9/bits/stl_vector.h ****       _M_allocate(size_t __n)
 168:/usr/include/c++/4.9/bits/stl_vector.h ****       {
 169:/usr/include/c++/4.9/bits/stl_vector.h **** 	typedef __gnu_cxx::__alloc_traits<_Tp_alloc_type> _Tr;
 170:/usr/include/c++/4.9/bits/stl_vector.h **** 	return __n != 0 ? _Tr::allocate(_M_impl, __n) : 0;
 171:/usr/include/c++/4.9/bits/stl_vector.h ****       }
 172:/usr/include/c++/4.9/bits/stl_vector.h **** 
 173:/usr/include/c++/4.9/bits/stl_vector.h ****       void
 174:/usr/include/c++/4.9/bits/stl_vector.h ****       _M_deallocate(pointer __p, size_t __n)
 175:/usr/include/c++/4.9/bits/stl_vector.h ****       {
 176:/usr/include/c++/4.9/bits/stl_vector.h **** 	typedef __gnu_cxx::__alloc_traits<_Tp_alloc_type> _Tr;
 177:/usr/include/c++/4.9/bits/stl_vector.h **** 	if (__p)
 178:/usr/include/c++/4.9/bits/stl_vector.h **** 	  _Tr::deallocate(_M_impl, __p, __n);
 179:/usr/include/c++/4.9/bits/stl_vector.h ****       }
 180:/usr/include/c++/4.9/bits/stl_vector.h **** 
 181:/usr/include/c++/4.9/bits/stl_vector.h ****     private:
 182:/usr/include/c++/4.9/bits/stl_vector.h ****       void
 183:/usr/include/c++/4.9/bits/stl_vector.h ****       _M_create_storage(size_t __n)
 184:/usr/include/c++/4.9/bits/stl_vector.h ****       {
 185:/usr/include/c++/4.9/bits/stl_vector.h **** 	this->_M_impl._M_start = this->_M_allocate(__n);
 186:/usr/include/c++/4.9/bits/stl_vector.h **** 	this->_M_impl._M_finish = this->_M_impl._M_start;
 187:/usr/include/c++/4.9/bits/stl_vector.h **** 	this->_M_impl._M_end_of_storage = this->_M_impl._M_start + __n;
 188:/usr/include/c++/4.9/bits/stl_vector.h ****       }
 189:/usr/include/c++/4.9/bits/stl_vector.h ****     };
 190:/usr/include/c++/4.9/bits/stl_vector.h **** 
 191:/usr/include/c++/4.9/bits/stl_vector.h **** 
 192:/usr/include/c++/4.9/bits/stl_vector.h ****   /**
 193:/usr/include/c++/4.9/bits/stl_vector.h ****    *  @brief A standard container which offers fixed time access to
 194:/usr/include/c++/4.9/bits/stl_vector.h ****    *  individual elements in any order.
 195:/usr/include/c++/4.9/bits/stl_vector.h ****    *
 196:/usr/include/c++/4.9/bits/stl_vector.h ****    *  @ingroup sequences
 197:/usr/include/c++/4.9/bits/stl_vector.h ****    *
 198:/usr/include/c++/4.9/bits/stl_vector.h ****    *  @tparam _Tp  Type of element.
 199:/usr/include/c++/4.9/bits/stl_vector.h ****    *  @tparam _Alloc  Allocator type, defaults to allocator<_Tp>.
 200:/usr/include/c++/4.9/bits/stl_vector.h ****    *
 201:/usr/include/c++/4.9/bits/stl_vector.h ****    *  Meets the requirements of a <a href="tables.html#65">container</a>, a
 202:/usr/include/c++/4.9/bits/stl_vector.h ****    *  <a href="tables.html#66">reversible container</a>, and a
 203:/usr/include/c++/4.9/bits/stl_vector.h ****    *  <a href="tables.html#67">sequence</a>, including the
 204:/usr/include/c++/4.9/bits/stl_vector.h ****    *  <a href="tables.html#68">optional sequence requirements</a> with the
 205:/usr/include/c++/4.9/bits/stl_vector.h ****    *  %exception of @c push_front and @c pop_front.
 206:/usr/include/c++/4.9/bits/stl_vector.h ****    *
 207:/usr/include/c++/4.9/bits/stl_vector.h ****    *  In some terminology a %vector can be described as a dynamic
 208:/usr/include/c++/4.9/bits/stl_vector.h ****    *  C-style array, it offers fast and efficient access to individual
 209:/usr/include/c++/4.9/bits/stl_vector.h ****    *  elements in any order and saves the user from worrying about
 210:/usr/include/c++/4.9/bits/stl_vector.h ****    *  memory and size allocation.  Subscripting ( @c [] ) access is
 211:/usr/include/c++/4.9/bits/stl_vector.h ****    *  also provided as with C-style arrays.
 212:/usr/include/c++/4.9/bits/stl_vector.h ****   */
 213:/usr/include/c++/4.9/bits/stl_vector.h ****   template<typename _Tp, typename _Alloc = std::allocator<_Tp> >
 214:/usr/include/c++/4.9/bits/stl_vector.h ****     class vector : protected _Vector_base<_Tp, _Alloc>
 215:/usr/include/c++/4.9/bits/stl_vector.h ****     {
 216:/usr/include/c++/4.9/bits/stl_vector.h ****       // Concept requirements.
 217:/usr/include/c++/4.9/bits/stl_vector.h ****       typedef typename _Alloc::value_type                _Alloc_value_type;
 218:/usr/include/c++/4.9/bits/stl_vector.h ****       __glibcxx_class_requires(_Tp, _SGIAssignableConcept)
 219:/usr/include/c++/4.9/bits/stl_vector.h ****       __glibcxx_class_requires2(_Tp, _Alloc_value_type, _SameTypeConcept)
 220:/usr/include/c++/4.9/bits/stl_vector.h ****       
 221:/usr/include/c++/4.9/bits/stl_vector.h ****       typedef _Vector_base<_Tp, _Alloc>			 _Base;
 222:/usr/include/c++/4.9/bits/stl_vector.h ****       typedef typename _Base::_Tp_alloc_type		 _Tp_alloc_type;
 223:/usr/include/c++/4.9/bits/stl_vector.h ****       typedef __gnu_cxx::__alloc_traits<_Tp_alloc_type>  _Alloc_traits;
 224:/usr/include/c++/4.9/bits/stl_vector.h **** 
 225:/usr/include/c++/4.9/bits/stl_vector.h ****     public:
 226:/usr/include/c++/4.9/bits/stl_vector.h ****       typedef _Tp					 value_type;
 227:/usr/include/c++/4.9/bits/stl_vector.h ****       typedef typename _Base::pointer                    pointer;
 228:/usr/include/c++/4.9/bits/stl_vector.h ****       typedef typename _Alloc_traits::const_pointer      const_pointer;
 229:/usr/include/c++/4.9/bits/stl_vector.h ****       typedef typename _Alloc_traits::reference          reference;
 230:/usr/include/c++/4.9/bits/stl_vector.h ****       typedef typename _Alloc_traits::const_reference    const_reference;
 231:/usr/include/c++/4.9/bits/stl_vector.h ****       typedef __gnu_cxx::__normal_iterator<pointer, vector> iterator;
 232:/usr/include/c++/4.9/bits/stl_vector.h ****       typedef __gnu_cxx::__normal_iterator<const_pointer, vector>
 233:/usr/include/c++/4.9/bits/stl_vector.h ****       const_iterator;
 234:/usr/include/c++/4.9/bits/stl_vector.h ****       typedef std::reverse_iterator<const_iterator>  const_reverse_iterator;
 235:/usr/include/c++/4.9/bits/stl_vector.h ****       typedef std::reverse_iterator<iterator>		 reverse_iterator;
 236:/usr/include/c++/4.9/bits/stl_vector.h ****       typedef size_t					 size_type;
 237:/usr/include/c++/4.9/bits/stl_vector.h ****       typedef ptrdiff_t					 difference_type;
 238:/usr/include/c++/4.9/bits/stl_vector.h ****       typedef _Alloc                        		 allocator_type;
 239:/usr/include/c++/4.9/bits/stl_vector.h **** 
 240:/usr/include/c++/4.9/bits/stl_vector.h ****     protected:
 241:/usr/include/c++/4.9/bits/stl_vector.h ****       using _Base::_M_allocate;
 242:/usr/include/c++/4.9/bits/stl_vector.h ****       using _Base::_M_deallocate;
 243:/usr/include/c++/4.9/bits/stl_vector.h ****       using _Base::_M_impl;
 244:/usr/include/c++/4.9/bits/stl_vector.h ****       using _Base::_M_get_Tp_allocator;
 245:/usr/include/c++/4.9/bits/stl_vector.h **** 
 246:/usr/include/c++/4.9/bits/stl_vector.h ****     public:
 247:/usr/include/c++/4.9/bits/stl_vector.h ****       // [23.2.4.1] construct/copy/destroy
 248:/usr/include/c++/4.9/bits/stl_vector.h ****       // (assign() and get_allocator() are also listed in this section)
 249:/usr/include/c++/4.9/bits/stl_vector.h **** 
 250:/usr/include/c++/4.9/bits/stl_vector.h ****       /**
 251:/usr/include/c++/4.9/bits/stl_vector.h ****        *  @brief  Creates a %vector with no elements.
 252:/usr/include/c++/4.9/bits/stl_vector.h ****        */
 253:/usr/include/c++/4.9/bits/stl_vector.h ****       vector()
 1498              		.loc 4 253 0
 1499              		.cfi_startproc
 1500 0000 55       		pushq	%rbp
 1501              		.cfi_def_cfa_offset 16
 1502              		.cfi_offset 6, -16
 1503 0001 4889E5   		movq	%rsp, %rbp
 1504              		.cfi_def_cfa_register 6
 1505 0004 4883EC10 		subq	$16, %rsp
 1506 0008 48897DF8 		movq	%rdi, -8(%rbp)
 1507              	.LBB22:
 254:/usr/include/c++/4.9/bits/stl_vector.h **** #if __cplusplus >= 201103L
 255:/usr/include/c++/4.9/bits/stl_vector.h ****       noexcept(is_nothrow_default_constructible<_Alloc>::value)
 256:/usr/include/c++/4.9/bits/stl_vector.h **** #endif
 257:/usr/include/c++/4.9/bits/stl_vector.h ****       : _Base() { }
 1508              		.loc 4 257 0
 1509 000c 488B45F8 		movq	-8(%rbp), %rax
 1510 0010 4889C7   		movq	%rax, %rdi
 1511 0013 E8000000 		call	_ZNSt12_Vector_baseIN8UnitTest18DeferredTestResultESaIS1_EEC2Ev@PLT
 1511      00
 1512              	.LBE22:
 1513 0018 C9       		leave
 1514              		.cfi_def_cfa 7, 8
 1515 0019 C3       		ret
 1516              		.cfi_endproc
 1517              	.LFE1370:
 1519              		.weak	_ZNSt6vectorIN8UnitTest18DeferredTestResultESaIS1_EEC1Ev
 1520              		.set	_ZNSt6vectorIN8UnitTest18DeferredTestResultESaIS1_EEC1Ev,_ZNSt6vectorIN8UnitTest18DeferredTes
 1521              		.section	.text._ZNSt6vectorIN8UnitTest18DeferredTestResultESaIS1_EED2Ev,"axG",@progbits,_ZNSt6vect
 1522              		.align 2
 1523              		.weak	_ZNSt6vectorIN8UnitTest18DeferredTestResultESaIS1_EED2Ev
 1525              	_ZNSt6vectorIN8UnitTest18DeferredTestResultESaIS1_EED2Ev:
 1526              	.LFB1373:
 258:/usr/include/c++/4.9/bits/stl_vector.h **** 
 259:/usr/include/c++/4.9/bits/stl_vector.h ****       /**
 260:/usr/include/c++/4.9/bits/stl_vector.h ****        *  @brief  Creates a %vector with no elements.
 261:/usr/include/c++/4.9/bits/stl_vector.h ****        *  @param  __a  An allocator object.
 262:/usr/include/c++/4.9/bits/stl_vector.h ****        */
 263:/usr/include/c++/4.9/bits/stl_vector.h ****       explicit
 264:/usr/include/c++/4.9/bits/stl_vector.h ****       vector(const allocator_type& __a) _GLIBCXX_NOEXCEPT
 265:/usr/include/c++/4.9/bits/stl_vector.h ****       : _Base(__a) { }
 266:/usr/include/c++/4.9/bits/stl_vector.h **** 
 267:/usr/include/c++/4.9/bits/stl_vector.h **** #if __cplusplus >= 201103L
 268:/usr/include/c++/4.9/bits/stl_vector.h ****       /**
 269:/usr/include/c++/4.9/bits/stl_vector.h ****        *  @brief  Creates a %vector with default constructed elements.
 270:/usr/include/c++/4.9/bits/stl_vector.h ****        *  @param  __n  The number of elements to initially create.
 271:/usr/include/c++/4.9/bits/stl_vector.h ****        *  @param  __a  An allocator.
 272:/usr/include/c++/4.9/bits/stl_vector.h ****        *
 273:/usr/include/c++/4.9/bits/stl_vector.h ****        *  This constructor fills the %vector with @a __n default
 274:/usr/include/c++/4.9/bits/stl_vector.h ****        *  constructed elements.
 275:/usr/include/c++/4.9/bits/stl_vector.h ****        */
 276:/usr/include/c++/4.9/bits/stl_vector.h ****       explicit
 277:/usr/include/c++/4.9/bits/stl_vector.h ****       vector(size_type __n, const allocator_type& __a = allocator_type())
 278:/usr/include/c++/4.9/bits/stl_vector.h ****       : _Base(__n, __a)
 279:/usr/include/c++/4.9/bits/stl_vector.h ****       { _M_default_initialize(__n); }
 280:/usr/include/c++/4.9/bits/stl_vector.h **** 
 281:/usr/include/c++/4.9/bits/stl_vector.h ****       /**
 282:/usr/include/c++/4.9/bits/stl_vector.h ****        *  @brief  Creates a %vector with copies of an exemplar element.
 283:/usr/include/c++/4.9/bits/stl_vector.h ****        *  @param  __n  The number of elements to initially create.
 284:/usr/include/c++/4.9/bits/stl_vector.h ****        *  @param  __value  An element to copy.
 285:/usr/include/c++/4.9/bits/stl_vector.h ****        *  @param  __a  An allocator.
 286:/usr/include/c++/4.9/bits/stl_vector.h ****        *
 287:/usr/include/c++/4.9/bits/stl_vector.h ****        *  This constructor fills the %vector with @a __n copies of @a __value.
 288:/usr/include/c++/4.9/bits/stl_vector.h ****        */
 289:/usr/include/c++/4.9/bits/stl_vector.h ****       vector(size_type __n, const value_type& __value,
 290:/usr/include/c++/4.9/bits/stl_vector.h **** 	     const allocator_type& __a = allocator_type())
 291:/usr/include/c++/4.9/bits/stl_vector.h ****       : _Base(__n, __a)
 292:/usr/include/c++/4.9/bits/stl_vector.h ****       { _M_fill_initialize(__n, __value); }
 293:/usr/include/c++/4.9/bits/stl_vector.h **** #else
 294:/usr/include/c++/4.9/bits/stl_vector.h ****       /**
 295:/usr/include/c++/4.9/bits/stl_vector.h ****        *  @brief  Creates a %vector with copies of an exemplar element.
 296:/usr/include/c++/4.9/bits/stl_vector.h ****        *  @param  __n  The number of elements to initially create.
 297:/usr/include/c++/4.9/bits/stl_vector.h ****        *  @param  __value  An element to copy.
 298:/usr/include/c++/4.9/bits/stl_vector.h ****        *  @param  __a  An allocator.
 299:/usr/include/c++/4.9/bits/stl_vector.h ****        *
 300:/usr/include/c++/4.9/bits/stl_vector.h ****        *  This constructor fills the %vector with @a __n copies of @a __value.
 301:/usr/include/c++/4.9/bits/stl_vector.h ****        */
 302:/usr/include/c++/4.9/bits/stl_vector.h ****       explicit
 303:/usr/include/c++/4.9/bits/stl_vector.h ****       vector(size_type __n, const value_type& __value = value_type(),
 304:/usr/include/c++/4.9/bits/stl_vector.h **** 	     const allocator_type& __a = allocator_type())
 305:/usr/include/c++/4.9/bits/stl_vector.h ****       : _Base(__n, __a)
 306:/usr/include/c++/4.9/bits/stl_vector.h ****       { _M_fill_initialize(__n, __value); }
 307:/usr/include/c++/4.9/bits/stl_vector.h **** #endif
 308:/usr/include/c++/4.9/bits/stl_vector.h **** 
 309:/usr/include/c++/4.9/bits/stl_vector.h ****       /**
 310:/usr/include/c++/4.9/bits/stl_vector.h ****        *  @brief  %Vector copy constructor.
 311:/usr/include/c++/4.9/bits/stl_vector.h ****        *  @param  __x  A %vector of identical element and allocator types.
 312:/usr/include/c++/4.9/bits/stl_vector.h ****        *
 313:/usr/include/c++/4.9/bits/stl_vector.h ****        *  The newly-created %vector uses a copy of the allocation
 314:/usr/include/c++/4.9/bits/stl_vector.h ****        *  object used by @a __x.  All the elements of @a __x are copied,
 315:/usr/include/c++/4.9/bits/stl_vector.h ****        *  but any extra memory in
 316:/usr/include/c++/4.9/bits/stl_vector.h ****        *  @a __x (for fast expansion) will not be copied.
 317:/usr/include/c++/4.9/bits/stl_vector.h ****        */
 318:/usr/include/c++/4.9/bits/stl_vector.h ****       vector(const vector& __x)
 319:/usr/include/c++/4.9/bits/stl_vector.h ****       : _Base(__x.size(),
 320:/usr/include/c++/4.9/bits/stl_vector.h ****         _Alloc_traits::_S_select_on_copy(__x._M_get_Tp_allocator()))
 321:/usr/include/c++/4.9/bits/stl_vector.h ****       { this->_M_impl._M_finish =
 322:/usr/include/c++/4.9/bits/stl_vector.h **** 	  std::__uninitialized_copy_a(__x.begin(), __x.end(),
 323:/usr/include/c++/4.9/bits/stl_vector.h **** 				      this->_M_impl._M_start,
 324:/usr/include/c++/4.9/bits/stl_vector.h **** 				      _M_get_Tp_allocator());
 325:/usr/include/c++/4.9/bits/stl_vector.h ****       }
 326:/usr/include/c++/4.9/bits/stl_vector.h **** 
 327:/usr/include/c++/4.9/bits/stl_vector.h **** #if __cplusplus >= 201103L
 328:/usr/include/c++/4.9/bits/stl_vector.h ****       /**
 329:/usr/include/c++/4.9/bits/stl_vector.h ****        *  @brief  %Vector move constructor.
 330:/usr/include/c++/4.9/bits/stl_vector.h ****        *  @param  __x  A %vector of identical element and allocator types.
 331:/usr/include/c++/4.9/bits/stl_vector.h ****        *
 332:/usr/include/c++/4.9/bits/stl_vector.h ****        *  The newly-created %vector contains the exact contents of @a __x.
 333:/usr/include/c++/4.9/bits/stl_vector.h ****        *  The contents of @a __x are a valid, but unspecified %vector.
 334:/usr/include/c++/4.9/bits/stl_vector.h ****        */
 335:/usr/include/c++/4.9/bits/stl_vector.h ****       vector(vector&& __x) noexcept
 336:/usr/include/c++/4.9/bits/stl_vector.h ****       : _Base(std::move(__x)) { }
 337:/usr/include/c++/4.9/bits/stl_vector.h **** 
 338:/usr/include/c++/4.9/bits/stl_vector.h ****       /// Copy constructor with alternative allocator
 339:/usr/include/c++/4.9/bits/stl_vector.h ****       vector(const vector& __x, const allocator_type& __a)
 340:/usr/include/c++/4.9/bits/stl_vector.h ****       : _Base(__x.size(), __a)
 341:/usr/include/c++/4.9/bits/stl_vector.h ****       { this->_M_impl._M_finish =
 342:/usr/include/c++/4.9/bits/stl_vector.h **** 	  std::__uninitialized_copy_a(__x.begin(), __x.end(),
 343:/usr/include/c++/4.9/bits/stl_vector.h **** 				      this->_M_impl._M_start,
 344:/usr/include/c++/4.9/bits/stl_vector.h **** 				      _M_get_Tp_allocator());
 345:/usr/include/c++/4.9/bits/stl_vector.h ****       }
 346:/usr/include/c++/4.9/bits/stl_vector.h **** 
 347:/usr/include/c++/4.9/bits/stl_vector.h ****       /// Move constructor with alternative allocator
 348:/usr/include/c++/4.9/bits/stl_vector.h ****       vector(vector&& __rv, const allocator_type& __m)
 349:/usr/include/c++/4.9/bits/stl_vector.h ****       noexcept(_Alloc_traits::_S_always_equal())
 350:/usr/include/c++/4.9/bits/stl_vector.h ****       : _Base(std::move(__rv), __m)
 351:/usr/include/c++/4.9/bits/stl_vector.h ****       {
 352:/usr/include/c++/4.9/bits/stl_vector.h **** 	if (__rv.get_allocator() != __m)
 353:/usr/include/c++/4.9/bits/stl_vector.h **** 	  {
 354:/usr/include/c++/4.9/bits/stl_vector.h **** 	    this->_M_impl._M_finish =
 355:/usr/include/c++/4.9/bits/stl_vector.h **** 	      std::__uninitialized_move_a(__rv.begin(), __rv.end(),
 356:/usr/include/c++/4.9/bits/stl_vector.h **** 					  this->_M_impl._M_start,
 357:/usr/include/c++/4.9/bits/stl_vector.h **** 					  _M_get_Tp_allocator());
 358:/usr/include/c++/4.9/bits/stl_vector.h **** 	    __rv.clear();
 359:/usr/include/c++/4.9/bits/stl_vector.h **** 	  }
 360:/usr/include/c++/4.9/bits/stl_vector.h ****       }
 361:/usr/include/c++/4.9/bits/stl_vector.h **** 
 362:/usr/include/c++/4.9/bits/stl_vector.h ****       /**
 363:/usr/include/c++/4.9/bits/stl_vector.h ****        *  @brief  Builds a %vector from an initializer list.
 364:/usr/include/c++/4.9/bits/stl_vector.h ****        *  @param  __l  An initializer_list.
 365:/usr/include/c++/4.9/bits/stl_vector.h ****        *  @param  __a  An allocator.
 366:/usr/include/c++/4.9/bits/stl_vector.h ****        *
 367:/usr/include/c++/4.9/bits/stl_vector.h ****        *  Create a %vector consisting of copies of the elements in the
 368:/usr/include/c++/4.9/bits/stl_vector.h ****        *  initializer_list @a __l.
 369:/usr/include/c++/4.9/bits/stl_vector.h ****        *
 370:/usr/include/c++/4.9/bits/stl_vector.h ****        *  This will call the element type's copy constructor N times
 371:/usr/include/c++/4.9/bits/stl_vector.h ****        *  (where N is @a __l.size()) and do no memory reallocation.
 372:/usr/include/c++/4.9/bits/stl_vector.h ****        */
 373:/usr/include/c++/4.9/bits/stl_vector.h ****       vector(initializer_list<value_type> __l,
 374:/usr/include/c++/4.9/bits/stl_vector.h **** 	     const allocator_type& __a = allocator_type())
 375:/usr/include/c++/4.9/bits/stl_vector.h ****       : _Base(__a)
 376:/usr/include/c++/4.9/bits/stl_vector.h ****       {
 377:/usr/include/c++/4.9/bits/stl_vector.h **** 	_M_range_initialize(__l.begin(), __l.end(),
 378:/usr/include/c++/4.9/bits/stl_vector.h **** 			    random_access_iterator_tag());
 379:/usr/include/c++/4.9/bits/stl_vector.h ****       }
 380:/usr/include/c++/4.9/bits/stl_vector.h **** #endif
 381:/usr/include/c++/4.9/bits/stl_vector.h **** 
 382:/usr/include/c++/4.9/bits/stl_vector.h ****       /**
 383:/usr/include/c++/4.9/bits/stl_vector.h ****        *  @brief  Builds a %vector from a range.
 384:/usr/include/c++/4.9/bits/stl_vector.h ****        *  @param  __first  An input iterator.
 385:/usr/include/c++/4.9/bits/stl_vector.h ****        *  @param  __last  An input iterator.
 386:/usr/include/c++/4.9/bits/stl_vector.h ****        *  @param  __a  An allocator.
 387:/usr/include/c++/4.9/bits/stl_vector.h ****        *
 388:/usr/include/c++/4.9/bits/stl_vector.h ****        *  Create a %vector consisting of copies of the elements from
 389:/usr/include/c++/4.9/bits/stl_vector.h ****        *  [first,last).
 390:/usr/include/c++/4.9/bits/stl_vector.h ****        *
 391:/usr/include/c++/4.9/bits/stl_vector.h ****        *  If the iterators are forward, bidirectional, or
 392:/usr/include/c++/4.9/bits/stl_vector.h ****        *  random-access, then this will call the elements' copy
 393:/usr/include/c++/4.9/bits/stl_vector.h ****        *  constructor N times (where N is distance(first,last)) and do
 394:/usr/include/c++/4.9/bits/stl_vector.h ****        *  no memory reallocation.  But if only input iterators are
 395:/usr/include/c++/4.9/bits/stl_vector.h ****        *  used, then this will do at most 2N calls to the copy
 396:/usr/include/c++/4.9/bits/stl_vector.h ****        *  constructor, and logN memory reallocations.
 397:/usr/include/c++/4.9/bits/stl_vector.h ****        */
 398:/usr/include/c++/4.9/bits/stl_vector.h **** #if __cplusplus >= 201103L
 399:/usr/include/c++/4.9/bits/stl_vector.h ****       template<typename _InputIterator,
 400:/usr/include/c++/4.9/bits/stl_vector.h **** 	       typename = std::_RequireInputIter<_InputIterator>>
 401:/usr/include/c++/4.9/bits/stl_vector.h ****         vector(_InputIterator __first, _InputIterator __last,
 402:/usr/include/c++/4.9/bits/stl_vector.h **** 	       const allocator_type& __a = allocator_type())
 403:/usr/include/c++/4.9/bits/stl_vector.h **** 	: _Base(__a)
 404:/usr/include/c++/4.9/bits/stl_vector.h ****         { _M_initialize_dispatch(__first, __last, __false_type()); }
 405:/usr/include/c++/4.9/bits/stl_vector.h **** #else
 406:/usr/include/c++/4.9/bits/stl_vector.h ****       template<typename _InputIterator>
 407:/usr/include/c++/4.9/bits/stl_vector.h ****         vector(_InputIterator __first, _InputIterator __last,
 408:/usr/include/c++/4.9/bits/stl_vector.h **** 	       const allocator_type& __a = allocator_type())
 409:/usr/include/c++/4.9/bits/stl_vector.h **** 	: _Base(__a)
 410:/usr/include/c++/4.9/bits/stl_vector.h ****         {
 411:/usr/include/c++/4.9/bits/stl_vector.h **** 	  // Check whether it's an integral type.  If so, it's not an iterator.
 412:/usr/include/c++/4.9/bits/stl_vector.h **** 	  typedef typename std::__is_integer<_InputIterator>::__type _Integral;
 413:/usr/include/c++/4.9/bits/stl_vector.h **** 	  _M_initialize_dispatch(__first, __last, _Integral());
 414:/usr/include/c++/4.9/bits/stl_vector.h **** 	}
 415:/usr/include/c++/4.9/bits/stl_vector.h **** #endif
 416:/usr/include/c++/4.9/bits/stl_vector.h **** 
 417:/usr/include/c++/4.9/bits/stl_vector.h ****       /**
 418:/usr/include/c++/4.9/bits/stl_vector.h ****        *  The dtor only erases the elements, and note that if the
 419:/usr/include/c++/4.9/bits/stl_vector.h ****        *  elements themselves are pointers, the pointed-to memory is
 420:/usr/include/c++/4.9/bits/stl_vector.h ****        *  not touched in any way.  Managing the pointer is the user's
 421:/usr/include/c++/4.9/bits/stl_vector.h ****        *  responsibility.
 422:/usr/include/c++/4.9/bits/stl_vector.h ****        */
 423:/usr/include/c++/4.9/bits/stl_vector.h ****       ~vector() _GLIBCXX_NOEXCEPT
 1527              		.loc 4 423 0
 1528              		.cfi_startproc
 1529              		.cfi_personality 0x9b,DW.ref.__gxx_personality_v0
 1530              		.cfi_lsda 0x1b,.LLSDA1373
 1531 0000 55       		pushq	%rbp
 1532              		.cfi_def_cfa_offset 16
 1533              		.cfi_offset 6, -16
 1534 0001 4889E5   		movq	%rsp, %rbp
 1535              		.cfi_def_cfa_register 6
 1536 0004 53       		pushq	%rbx
 1537 0005 4883EC18 		subq	$24, %rsp
 1538              		.cfi_offset 3, -24
 1539 0009 48897DE8 		movq	%rdi, -24(%rbp)
 1540              	.LBB23:
 424:/usr/include/c++/4.9/bits/stl_vector.h ****       { std::_Destroy(this->_M_impl._M_start, this->_M_impl._M_finish,
 425:/usr/include/c++/4.9/bits/stl_vector.h **** 		      _M_get_Tp_allocator()); }
 1541              		.loc 4 425 0
 1542 000d 488B45E8 		movq	-24(%rbp), %rax
 1543 0011 4889C7   		movq	%rax, %rdi
 1544              	.LEHB32:
 1545 0014 E8000000 		call	_ZNSt12_Vector_baseIN8UnitTest18DeferredTestResultESaIS1_EE19_M_get_Tp_allocatorEv@PLT
 1545      00
 1546 0019 4889C2   		movq	%rax, %rdx
 1547 001c 488B45E8 		movq	-24(%rbp), %rax
 1548 0020 488B4808 		movq	8(%rax), %rcx
 1549 0024 488B45E8 		movq	-24(%rbp), %rax
 1550 0028 488B00   		movq	(%rax), %rax
 424:/usr/include/c++/4.9/bits/stl_vector.h ****       { std::_Destroy(this->_M_impl._M_start, this->_M_impl._M_finish,
 1551              		.loc 4 424 0
 1552 002b 4889CE   		movq	%rcx, %rsi
 1553 002e 4889C7   		movq	%rax, %rdi
 1554 0031 E8000000 		call	_ZSt8_DestroyIPN8UnitTest18DeferredTestResultES1_EvT_S3_RSaIT0_E@PLT
 1554      00
 1555              	.LEHE32:
 1556              		.loc 4 425 0
 1557 0036 488B45E8 		movq	-24(%rbp), %rax
 1558 003a 4889C7   		movq	%rax, %rdi
 1559              	.LEHB33:
 1560 003d E8000000 		call	_ZNSt12_Vector_baseIN8UnitTest18DeferredTestResultESaIS1_EED2Ev@PLT
 1560      00
 1561              	.LEHE33:
 1562 0042 EB1A     		jmp	.L76
 1563              	.L75:
 1564 0044 4889C3   		movq	%rax, %rbx
 1565 0047 488B45E8 		movq	-24(%rbp), %rax
 1566 004b 4889C7   		movq	%rax, %rdi
 1567 004e E8000000 		call	_ZNSt12_Vector_baseIN8UnitTest18DeferredTestResultESaIS1_EED2Ev@PLT
 1567      00
 1568 0053 4889D8   		movq	%rbx, %rax
 1569 0056 4889C7   		movq	%rax, %rdi
 1570              	.LEHB34:
 1571 0059 E8000000 		call	_Unwind_Resume@PLT
 1571      00
 1572              	.LEHE34:
 1573              	.L76:
 1574              	.LBE23:
 1575 005e 4883C418 		addq	$24, %rsp
 1576 0062 5B       		popq	%rbx
 1577 0063 5D       		popq	%rbp
 1578              		.cfi_def_cfa 7, 8
 1579 0064 C3       		ret
 1580              		.cfi_endproc
 1581              	.LFE1373:
 1582              		.section	.gcc_except_table
 1583              	.LLSDA1373:
 1584 00ba FF       		.byte	0xff
 1585 00bb FF       		.byte	0xff
 1586 00bc 01       		.byte	0x1
 1587 00bd 0C       		.uleb128 .LLSDACSE1373-.LLSDACSB1373
 1588              	.LLSDACSB1373:
 1589 00be 14       		.uleb128 .LEHB32-.LFB1373
 1590 00bf 22       		.uleb128 .LEHE32-.LEHB32
 1591 00c0 44       		.uleb128 .L75-.LFB1373
 1592 00c1 00       		.uleb128 0
 1593 00c2 3D       		.uleb128 .LEHB33-.LFB1373
 1594 00c3 05       		.uleb128 .LEHE33-.LEHB33
 1595 00c4 00       		.uleb128 0
 1596 00c5 00       		.uleb128 0
 1597 00c6 59       		.uleb128 .LEHB34-.LFB1373
 1598 00c7 05       		.uleb128 .LEHE34-.LEHB34
 1599 00c8 00       		.uleb128 0
 1600 00c9 00       		.uleb128 0
 1601              	.LLSDACSE1373:
 1602              		.section	.text._ZNSt6vectorIN8UnitTest18DeferredTestResultESaIS1_EED2Ev,"axG",@progbits,_ZNSt6vect
 1604              		.weak	_ZNSt6vectorIN8UnitTest18DeferredTestResultESaIS1_EED1Ev
 1605              		.set	_ZNSt6vectorIN8UnitTest18DeferredTestResultESaIS1_EED1Ev,_ZNSt6vectorIN8UnitTest18DeferredTes
 1606              		.section	.text._ZNKSt6vectorIN8UnitTest18DeferredTestResultESaIS1_EE5beginEv,"axG",@progbits,_ZNKS
 1607              		.align 2
 1608              		.weak	_ZNKSt6vectorIN8UnitTest18DeferredTestResultESaIS1_EE5beginEv
 1610              	_ZNKSt6vectorIN8UnitTest18DeferredTestResultESaIS1_EE5beginEv:
 1611              	.LFB1375:
 426:/usr/include/c++/4.9/bits/stl_vector.h **** 
 427:/usr/include/c++/4.9/bits/stl_vector.h ****       /**
 428:/usr/include/c++/4.9/bits/stl_vector.h ****        *  @brief  %Vector assignment operator.
 429:/usr/include/c++/4.9/bits/stl_vector.h ****        *  @param  __x  A %vector of identical element and allocator types.
 430:/usr/include/c++/4.9/bits/stl_vector.h ****        *
 431:/usr/include/c++/4.9/bits/stl_vector.h ****        *  All the elements of @a __x are copied, but any extra memory in
 432:/usr/include/c++/4.9/bits/stl_vector.h ****        *  @a __x (for fast expansion) will not be copied.  Unlike the
 433:/usr/include/c++/4.9/bits/stl_vector.h ****        *  copy constructor, the allocator object is not copied.
 434:/usr/include/c++/4.9/bits/stl_vector.h ****        */
 435:/usr/include/c++/4.9/bits/stl_vector.h ****       vector&
 436:/usr/include/c++/4.9/bits/stl_vector.h ****       operator=(const vector& __x);
 437:/usr/include/c++/4.9/bits/stl_vector.h **** 
 438:/usr/include/c++/4.9/bits/stl_vector.h **** #if __cplusplus >= 201103L
 439:/usr/include/c++/4.9/bits/stl_vector.h ****       /**
 440:/usr/include/c++/4.9/bits/stl_vector.h ****        *  @brief  %Vector move assignment operator.
 441:/usr/include/c++/4.9/bits/stl_vector.h ****        *  @param  __x  A %vector of identical element and allocator types.
 442:/usr/include/c++/4.9/bits/stl_vector.h ****        *
 443:/usr/include/c++/4.9/bits/stl_vector.h ****        *  The contents of @a __x are moved into this %vector (without copying,
 444:/usr/include/c++/4.9/bits/stl_vector.h ****        *  if the allocators permit it).
 445:/usr/include/c++/4.9/bits/stl_vector.h ****        *  @a __x is a valid, but unspecified %vector.
 446:/usr/include/c++/4.9/bits/stl_vector.h ****        */
 447:/usr/include/c++/4.9/bits/stl_vector.h ****       vector&
 448:/usr/include/c++/4.9/bits/stl_vector.h ****       operator=(vector&& __x) noexcept(_Alloc_traits::_S_nothrow_move())
 449:/usr/include/c++/4.9/bits/stl_vector.h ****       {
 450:/usr/include/c++/4.9/bits/stl_vector.h ****         constexpr bool __move_storage =
 451:/usr/include/c++/4.9/bits/stl_vector.h ****           _Alloc_traits::_S_propagate_on_move_assign()
 452:/usr/include/c++/4.9/bits/stl_vector.h ****           || _Alloc_traits::_S_always_equal();
 453:/usr/include/c++/4.9/bits/stl_vector.h ****         _M_move_assign(std::move(__x),
 454:/usr/include/c++/4.9/bits/stl_vector.h ****                        integral_constant<bool, __move_storage>());
 455:/usr/include/c++/4.9/bits/stl_vector.h **** 	return *this;
 456:/usr/include/c++/4.9/bits/stl_vector.h ****       }
 457:/usr/include/c++/4.9/bits/stl_vector.h **** 
 458:/usr/include/c++/4.9/bits/stl_vector.h ****       /**
 459:/usr/include/c++/4.9/bits/stl_vector.h ****        *  @brief  %Vector list assignment operator.
 460:/usr/include/c++/4.9/bits/stl_vector.h ****        *  @param  __l  An initializer_list.
 461:/usr/include/c++/4.9/bits/stl_vector.h ****        *
 462:/usr/include/c++/4.9/bits/stl_vector.h ****        *  This function fills a %vector with copies of the elements in the
 463:/usr/include/c++/4.9/bits/stl_vector.h ****        *  initializer list @a __l.
 464:/usr/include/c++/4.9/bits/stl_vector.h ****        *
 465:/usr/include/c++/4.9/bits/stl_vector.h ****        *  Note that the assignment completely changes the %vector and
 466:/usr/include/c++/4.9/bits/stl_vector.h ****        *  that the resulting %vector's size is the same as the number
 467:/usr/include/c++/4.9/bits/stl_vector.h ****        *  of elements assigned.  Old data may be lost.
 468:/usr/include/c++/4.9/bits/stl_vector.h ****        */
 469:/usr/include/c++/4.9/bits/stl_vector.h ****       vector&
 470:/usr/include/c++/4.9/bits/stl_vector.h ****       operator=(initializer_list<value_type> __l)
 471:/usr/include/c++/4.9/bits/stl_vector.h ****       {
 472:/usr/include/c++/4.9/bits/stl_vector.h **** 	this->assign(__l.begin(), __l.end());
 473:/usr/include/c++/4.9/bits/stl_vector.h **** 	return *this;
 474:/usr/include/c++/4.9/bits/stl_vector.h ****       }
 475:/usr/include/c++/4.9/bits/stl_vector.h **** #endif
 476:/usr/include/c++/4.9/bits/stl_vector.h **** 
 477:/usr/include/c++/4.9/bits/stl_vector.h ****       /**
 478:/usr/include/c++/4.9/bits/stl_vector.h ****        *  @brief  Assigns a given value to a %vector.
 479:/usr/include/c++/4.9/bits/stl_vector.h ****        *  @param  __n  Number of elements to be assigned.
 480:/usr/include/c++/4.9/bits/stl_vector.h ****        *  @param  __val  Value to be assigned.
 481:/usr/include/c++/4.9/bits/stl_vector.h ****        *
 482:/usr/include/c++/4.9/bits/stl_vector.h ****        *  This function fills a %vector with @a __n copies of the given
 483:/usr/include/c++/4.9/bits/stl_vector.h ****        *  value.  Note that the assignment completely changes the
 484:/usr/include/c++/4.9/bits/stl_vector.h ****        *  %vector and that the resulting %vector's size is the same as
 485:/usr/include/c++/4.9/bits/stl_vector.h ****        *  the number of elements assigned.  Old data may be lost.
 486:/usr/include/c++/4.9/bits/stl_vector.h ****        */
 487:/usr/include/c++/4.9/bits/stl_vector.h ****       void
 488:/usr/include/c++/4.9/bits/stl_vector.h ****       assign(size_type __n, const value_type& __val)
 489:/usr/include/c++/4.9/bits/stl_vector.h ****       { _M_fill_assign(__n, __val); }
 490:/usr/include/c++/4.9/bits/stl_vector.h **** 
 491:/usr/include/c++/4.9/bits/stl_vector.h ****       /**
 492:/usr/include/c++/4.9/bits/stl_vector.h ****        *  @brief  Assigns a range to a %vector.
 493:/usr/include/c++/4.9/bits/stl_vector.h ****        *  @param  __first  An input iterator.
 494:/usr/include/c++/4.9/bits/stl_vector.h ****        *  @param  __last   An input iterator.
 495:/usr/include/c++/4.9/bits/stl_vector.h ****        *
 496:/usr/include/c++/4.9/bits/stl_vector.h ****        *  This function fills a %vector with copies of the elements in the
 497:/usr/include/c++/4.9/bits/stl_vector.h ****        *  range [__first,__last).
 498:/usr/include/c++/4.9/bits/stl_vector.h ****        *
 499:/usr/include/c++/4.9/bits/stl_vector.h ****        *  Note that the assignment completely changes the %vector and
 500:/usr/include/c++/4.9/bits/stl_vector.h ****        *  that the resulting %vector's size is the same as the number
 501:/usr/include/c++/4.9/bits/stl_vector.h ****        *  of elements assigned.  Old data may be lost.
 502:/usr/include/c++/4.9/bits/stl_vector.h ****        */
 503:/usr/include/c++/4.9/bits/stl_vector.h **** #if __cplusplus >= 201103L
 504:/usr/include/c++/4.9/bits/stl_vector.h ****       template<typename _InputIterator,
 505:/usr/include/c++/4.9/bits/stl_vector.h **** 	       typename = std::_RequireInputIter<_InputIterator>>
 506:/usr/include/c++/4.9/bits/stl_vector.h ****         void
 507:/usr/include/c++/4.9/bits/stl_vector.h ****         assign(_InputIterator __first, _InputIterator __last)
 508:/usr/include/c++/4.9/bits/stl_vector.h ****         { _M_assign_dispatch(__first, __last, __false_type()); }
 509:/usr/include/c++/4.9/bits/stl_vector.h **** #else
 510:/usr/include/c++/4.9/bits/stl_vector.h ****       template<typename _InputIterator>
 511:/usr/include/c++/4.9/bits/stl_vector.h ****         void
 512:/usr/include/c++/4.9/bits/stl_vector.h ****         assign(_InputIterator __first, _InputIterator __last)
 513:/usr/include/c++/4.9/bits/stl_vector.h ****         {
 514:/usr/include/c++/4.9/bits/stl_vector.h **** 	  // Check whether it's an integral type.  If so, it's not an iterator.
 515:/usr/include/c++/4.9/bits/stl_vector.h **** 	  typedef typename std::__is_integer<_InputIterator>::__type _Integral;
 516:/usr/include/c++/4.9/bits/stl_vector.h **** 	  _M_assign_dispatch(__first, __last, _Integral());
 517:/usr/include/c++/4.9/bits/stl_vector.h **** 	}
 518:/usr/include/c++/4.9/bits/stl_vector.h **** #endif
 519:/usr/include/c++/4.9/bits/stl_vector.h **** 
 520:/usr/include/c++/4.9/bits/stl_vector.h **** #if __cplusplus >= 201103L
 521:/usr/include/c++/4.9/bits/stl_vector.h ****       /**
 522:/usr/include/c++/4.9/bits/stl_vector.h ****        *  @brief  Assigns an initializer list to a %vector.
 523:/usr/include/c++/4.9/bits/stl_vector.h ****        *  @param  __l  An initializer_list.
 524:/usr/include/c++/4.9/bits/stl_vector.h ****        *
 525:/usr/include/c++/4.9/bits/stl_vector.h ****        *  This function fills a %vector with copies of the elements in the
 526:/usr/include/c++/4.9/bits/stl_vector.h ****        *  initializer list @a __l.
 527:/usr/include/c++/4.9/bits/stl_vector.h ****        *
 528:/usr/include/c++/4.9/bits/stl_vector.h ****        *  Note that the assignment completely changes the %vector and
 529:/usr/include/c++/4.9/bits/stl_vector.h ****        *  that the resulting %vector's size is the same as the number
 530:/usr/include/c++/4.9/bits/stl_vector.h ****        *  of elements assigned.  Old data may be lost.
 531:/usr/include/c++/4.9/bits/stl_vector.h ****        */
 532:/usr/include/c++/4.9/bits/stl_vector.h ****       void
 533:/usr/include/c++/4.9/bits/stl_vector.h ****       assign(initializer_list<value_type> __l)
 534:/usr/include/c++/4.9/bits/stl_vector.h ****       { this->assign(__l.begin(), __l.end()); }
 535:/usr/include/c++/4.9/bits/stl_vector.h **** #endif
 536:/usr/include/c++/4.9/bits/stl_vector.h **** 
 537:/usr/include/c++/4.9/bits/stl_vector.h ****       /// Get a copy of the memory allocation object.
 538:/usr/include/c++/4.9/bits/stl_vector.h ****       using _Base::get_allocator;
 539:/usr/include/c++/4.9/bits/stl_vector.h **** 
 540:/usr/include/c++/4.9/bits/stl_vector.h ****       // iterators
 541:/usr/include/c++/4.9/bits/stl_vector.h ****       /**
 542:/usr/include/c++/4.9/bits/stl_vector.h ****        *  Returns a read/write iterator that points to the first
 543:/usr/include/c++/4.9/bits/stl_vector.h ****        *  element in the %vector.  Iteration is done in ordinary
 544:/usr/include/c++/4.9/bits/stl_vector.h ****        *  element order.
 545:/usr/include/c++/4.9/bits/stl_vector.h ****        */
 546:/usr/include/c++/4.9/bits/stl_vector.h ****       iterator
 547:/usr/include/c++/4.9/bits/stl_vector.h ****       begin() _GLIBCXX_NOEXCEPT
 548:/usr/include/c++/4.9/bits/stl_vector.h ****       { return iterator(this->_M_impl._M_start); }
 549:/usr/include/c++/4.9/bits/stl_vector.h **** 
 550:/usr/include/c++/4.9/bits/stl_vector.h ****       /**
 551:/usr/include/c++/4.9/bits/stl_vector.h ****        *  Returns a read-only (constant) iterator that points to the
 552:/usr/include/c++/4.9/bits/stl_vector.h ****        *  first element in the %vector.  Iteration is done in ordinary
 553:/usr/include/c++/4.9/bits/stl_vector.h ****        *  element order.
 554:/usr/include/c++/4.9/bits/stl_vector.h ****        */
 555:/usr/include/c++/4.9/bits/stl_vector.h ****       const_iterator
 556:/usr/include/c++/4.9/bits/stl_vector.h ****       begin() const _GLIBCXX_NOEXCEPT
 1612              		.loc 4 556 0
 1613              		.cfi_startproc
 1614 0000 55       		pushq	%rbp
 1615              		.cfi_def_cfa_offset 16
 1616              		.cfi_offset 6, -16
 1617 0001 4889E5   		movq	%rsp, %rbp
 1618              		.cfi_def_cfa_register 6
 1619 0004 4883EC30 		subq	$48, %rsp
 1620 0008 48897DD8 		movq	%rdi, -40(%rbp)
 1621              		.loc 4 556 0
 1622 000c 64488B04 		movq	%fs:40, %rax
 1622      25280000 
 1622      00
 1623 0015 488945F8 		movq	%rax, -8(%rbp)
 1624 0019 31C0     		xorl	%eax, %eax
 557:/usr/include/c++/4.9/bits/stl_vector.h ****       { return const_iterator(this->_M_impl._M_start); }
 1625              		.loc 4 557 0
 1626 001b 488B45D8 		movq	-40(%rbp), %rax
 1627 001f 488B00   		movq	(%rax), %rax
 1628 0022 488945F0 		movq	%rax, -16(%rbp)
 1629 0026 488D55F0 		leaq	-16(%rbp), %rdx
 1630 002a 488D45E0 		leaq	-32(%rbp), %rax
 1631 002e 4889D6   		movq	%rdx, %rsi
 1632 0031 4889C7   		movq	%rax, %rdi
 1633 0034 E8000000 		call	_ZN9__gnu_cxx17__normal_iteratorIPKN8UnitTest18DeferredTestResultESt6vectorIS2_SaIS2_EEEC1ERK
 1633      00
 1634 0039 488B45E0 		movq	-32(%rbp), %rax
 1635 003d 488B4DF8 		movq	-8(%rbp), %rcx
 1636 0041 6448330C 		xorq	%fs:40, %rcx
 1636      25280000 
 1636      00
 1637 004a 7405     		je	.L79
 1638 004c E8000000 		call	__stack_chk_fail@PLT
 1638      00
 1639              	.L79:
 1640 0051 C9       		leave
 1641              		.cfi_def_cfa 7, 8
 1642 0052 C3       		ret
 1643              		.cfi_endproc
 1644              	.LFE1375:
 1646              		.section	.text._ZNKSt6vectorIN8UnitTest18DeferredTestResultESaIS1_EE3endEv,"axG",@progbits,_ZNKSt6
 1647              		.align 2
 1648              		.weak	_ZNKSt6vectorIN8UnitTest18DeferredTestResultESaIS1_EE3endEv
 1650              	_ZNKSt6vectorIN8UnitTest18DeferredTestResultESaIS1_EE3endEv:
 1651              	.LFB1376:
 558:/usr/include/c++/4.9/bits/stl_vector.h **** 
 559:/usr/include/c++/4.9/bits/stl_vector.h ****       /**
 560:/usr/include/c++/4.9/bits/stl_vector.h ****        *  Returns a read/write iterator that points one past the last
 561:/usr/include/c++/4.9/bits/stl_vector.h ****        *  element in the %vector.  Iteration is done in ordinary
 562:/usr/include/c++/4.9/bits/stl_vector.h ****        *  element order.
 563:/usr/include/c++/4.9/bits/stl_vector.h ****        */
 564:/usr/include/c++/4.9/bits/stl_vector.h ****       iterator
 565:/usr/include/c++/4.9/bits/stl_vector.h ****       end() _GLIBCXX_NOEXCEPT
 566:/usr/include/c++/4.9/bits/stl_vector.h ****       { return iterator(this->_M_impl._M_finish); }
 567:/usr/include/c++/4.9/bits/stl_vector.h **** 
 568:/usr/include/c++/4.9/bits/stl_vector.h ****       /**
 569:/usr/include/c++/4.9/bits/stl_vector.h ****        *  Returns a read-only (constant) iterator that points one past
 570:/usr/include/c++/4.9/bits/stl_vector.h ****        *  the last element in the %vector.  Iteration is done in
 571:/usr/include/c++/4.9/bits/stl_vector.h ****        *  ordinary element order.
 572:/usr/include/c++/4.9/bits/stl_vector.h ****        */
 573:/usr/include/c++/4.9/bits/stl_vector.h ****       const_iterator
 574:/usr/include/c++/4.9/bits/stl_vector.h ****       end() const _GLIBCXX_NOEXCEPT
 1652              		.loc 4 574 0
 1653              		.cfi_startproc
 1654 0000 55       		pushq	%rbp
 1655              		.cfi_def_cfa_offset 16
 1656              		.cfi_offset 6, -16
 1657 0001 4889E5   		movq	%rsp, %rbp
 1658              		.cfi_def_cfa_register 6
 1659 0004 4883EC30 		subq	$48, %rsp
 1660 0008 48897DD8 		movq	%rdi, -40(%rbp)
 1661              		.loc 4 574 0
 1662 000c 64488B04 		movq	%fs:40, %rax
 1662      25280000 
 1662      00
 1663 0015 488945F8 		movq	%rax, -8(%rbp)
 1664 0019 31C0     		xorl	%eax, %eax
 575:/usr/include/c++/4.9/bits/stl_vector.h ****       { return const_iterator(this->_M_impl._M_finish); }
 1665              		.loc 4 575 0
 1666 001b 488B45D8 		movq	-40(%rbp), %rax
 1667 001f 488B4008 		movq	8(%rax), %rax
 1668 0023 488945F0 		movq	%rax, -16(%rbp)
 1669 0027 488D55F0 		leaq	-16(%rbp), %rdx
 1670 002b 488D45E0 		leaq	-32(%rbp), %rax
 1671 002f 4889D6   		movq	%rdx, %rsi
 1672 0032 4889C7   		movq	%rax, %rdi
 1673 0035 E8000000 		call	_ZN9__gnu_cxx17__normal_iteratorIPKN8UnitTest18DeferredTestResultESt6vectorIS2_SaIS2_EEEC1ERK
 1673      00
 1674 003a 488B45E0 		movq	-32(%rbp), %rax
 1675 003e 488B4DF8 		movq	-8(%rbp), %rcx
 1676 0042 6448330C 		xorq	%fs:40, %rcx
 1676      25280000 
 1676      00
 1677 004b 7405     		je	.L82
 1678 004d E8000000 		call	__stack_chk_fail@PLT
 1678      00
 1679              	.L82:
 1680 0052 C9       		leave
 1681              		.cfi_def_cfa 7, 8
 1682 0053 C3       		ret
 1683              		.cfi_endproc
 1684              	.LFE1376:
 1686              		.section	.text._ZN9__gnu_cxxneIPKN8UnitTest18DeferredTestResultESt6vectorIS2_SaIS2_EEEEbRKNS_17__n
 1687              		.weak	_ZN9__gnu_cxxneIPKN8UnitTest18DeferredTestResultESt6vectorIS2_SaIS2_EEEEbRKNS_17__normal_ite
 1689              	_ZN9__gnu_cxxneIPKN8UnitTest18DeferredTestResultESt6vectorIS2_SaIS2_EEEEbRKNS_17__normal_iteratorIT
 1690              	.LFB1377:
 1691              		.file 5 "/usr/include/c++/4.9/bits/stl_iterator.h"
   1:/usr/include/c++/4.9/bits/stl_iterator.h **** // Iterators -*- C++ -*-
   2:/usr/include/c++/4.9/bits/stl_iterator.h **** 
   3:/usr/include/c++/4.9/bits/stl_iterator.h **** // Copyright (C) 2001-2014 Free Software Foundation, Inc.
   4:/usr/include/c++/4.9/bits/stl_iterator.h **** //
   5:/usr/include/c++/4.9/bits/stl_iterator.h **** // This file is part of the GNU ISO C++ Library.  This library is free
   6:/usr/include/c++/4.9/bits/stl_iterator.h **** // software; you can redistribute it and/or modify it under the
   7:/usr/include/c++/4.9/bits/stl_iterator.h **** // terms of the GNU General Public License as published by the
   8:/usr/include/c++/4.9/bits/stl_iterator.h **** // Free Software Foundation; either version 3, or (at your option)
   9:/usr/include/c++/4.9/bits/stl_iterator.h **** // any later version.
  10:/usr/include/c++/4.9/bits/stl_iterator.h **** 
  11:/usr/include/c++/4.9/bits/stl_iterator.h **** // This library is distributed in the hope that it will be useful,
  12:/usr/include/c++/4.9/bits/stl_iterator.h **** // but WITHOUT ANY WARRANTY; without even the implied warranty of
  13:/usr/include/c++/4.9/bits/stl_iterator.h **** // MERCHANTABILITY or FITNESS FOR A PARTICULAR PURPOSE.  See the
  14:/usr/include/c++/4.9/bits/stl_iterator.h **** // GNU General Public License for more details.
  15:/usr/include/c++/4.9/bits/stl_iterator.h **** 
  16:/usr/include/c++/4.9/bits/stl_iterator.h **** // Under Section 7 of GPL version 3, you are granted additional
  17:/usr/include/c++/4.9/bits/stl_iterator.h **** // permissions described in the GCC Runtime Library Exception, version
  18:/usr/include/c++/4.9/bits/stl_iterator.h **** // 3.1, as published by the Free Software Foundation.
  19:/usr/include/c++/4.9/bits/stl_iterator.h **** 
  20:/usr/include/c++/4.9/bits/stl_iterator.h **** // You should have received a copy of the GNU General Public License and
  21:/usr/include/c++/4.9/bits/stl_iterator.h **** // a copy of the GCC Runtime Library Exception along with this program;
  22:/usr/include/c++/4.9/bits/stl_iterator.h **** // see the files COPYING3 and COPYING.RUNTIME respectively.  If not, see
  23:/usr/include/c++/4.9/bits/stl_iterator.h **** // <http://www.gnu.org/licenses/>.
  24:/usr/include/c++/4.9/bits/stl_iterator.h **** 
  25:/usr/include/c++/4.9/bits/stl_iterator.h **** /*
  26:/usr/include/c++/4.9/bits/stl_iterator.h ****  *
  27:/usr/include/c++/4.9/bits/stl_iterator.h ****  * Copyright (c) 1994
  28:/usr/include/c++/4.9/bits/stl_iterator.h ****  * Hewlett-Packard Company
  29:/usr/include/c++/4.9/bits/stl_iterator.h ****  *
  30:/usr/include/c++/4.9/bits/stl_iterator.h ****  * Permission to use, copy, modify, distribute and sell this software
  31:/usr/include/c++/4.9/bits/stl_iterator.h ****  * and its documentation for any purpose is hereby granted without fee,
  32:/usr/include/c++/4.9/bits/stl_iterator.h ****  * provided that the above copyright notice appear in all copies and
  33:/usr/include/c++/4.9/bits/stl_iterator.h ****  * that both that copyright notice and this permission notice appear
  34:/usr/include/c++/4.9/bits/stl_iterator.h ****  * in supporting documentation.  Hewlett-Packard Company makes no
  35:/usr/include/c++/4.9/bits/stl_iterator.h ****  * representations about the suitability of this software for any
  36:/usr/include/c++/4.9/bits/stl_iterator.h ****  * purpose.  It is provided "as is" without express or implied warranty.
  37:/usr/include/c++/4.9/bits/stl_iterator.h ****  *
  38:/usr/include/c++/4.9/bits/stl_iterator.h ****  *
  39:/usr/include/c++/4.9/bits/stl_iterator.h ****  * Copyright (c) 1996-1998
  40:/usr/include/c++/4.9/bits/stl_iterator.h ****  * Silicon Graphics Computer Systems, Inc.
  41:/usr/include/c++/4.9/bits/stl_iterator.h ****  *
  42:/usr/include/c++/4.9/bits/stl_iterator.h ****  * Permission to use, copy, modify, distribute and sell this software
  43:/usr/include/c++/4.9/bits/stl_iterator.h ****  * and its documentation for any purpose is hereby granted without fee,
  44:/usr/include/c++/4.9/bits/stl_iterator.h ****  * provided that the above copyright notice appear in all copies and
  45:/usr/include/c++/4.9/bits/stl_iterator.h ****  * that both that copyright notice and this permission notice appear
  46:/usr/include/c++/4.9/bits/stl_iterator.h ****  * in supporting documentation.  Silicon Graphics makes no
  47:/usr/include/c++/4.9/bits/stl_iterator.h ****  * representations about the suitability of this software for any
  48:/usr/include/c++/4.9/bits/stl_iterator.h ****  * purpose.  It is provided "as is" without express or implied warranty.
  49:/usr/include/c++/4.9/bits/stl_iterator.h ****  */
  50:/usr/include/c++/4.9/bits/stl_iterator.h **** 
  51:/usr/include/c++/4.9/bits/stl_iterator.h **** /** @file bits/stl_iterator.h
  52:/usr/include/c++/4.9/bits/stl_iterator.h ****  *  This is an internal header file, included by other library headers.
  53:/usr/include/c++/4.9/bits/stl_iterator.h ****  *  Do not attempt to use it directly. @headername{iterator}
  54:/usr/include/c++/4.9/bits/stl_iterator.h ****  *
  55:/usr/include/c++/4.9/bits/stl_iterator.h ****  *  This file implements reverse_iterator, back_insert_iterator,
  56:/usr/include/c++/4.9/bits/stl_iterator.h ****  *  front_insert_iterator, insert_iterator, __normal_iterator, and their
  57:/usr/include/c++/4.9/bits/stl_iterator.h ****  *  supporting functions and overloaded operators.
  58:/usr/include/c++/4.9/bits/stl_iterator.h ****  */
  59:/usr/include/c++/4.9/bits/stl_iterator.h **** 
  60:/usr/include/c++/4.9/bits/stl_iterator.h **** #ifndef _STL_ITERATOR_H
  61:/usr/include/c++/4.9/bits/stl_iterator.h **** #define _STL_ITERATOR_H 1
  62:/usr/include/c++/4.9/bits/stl_iterator.h **** 
  63:/usr/include/c++/4.9/bits/stl_iterator.h **** #include <bits/cpp_type_traits.h>
  64:/usr/include/c++/4.9/bits/stl_iterator.h **** #include <ext/type_traits.h>
  65:/usr/include/c++/4.9/bits/stl_iterator.h **** #include <bits/move.h>
  66:/usr/include/c++/4.9/bits/stl_iterator.h **** #include <bits/ptr_traits.h>
  67:/usr/include/c++/4.9/bits/stl_iterator.h **** 
  68:/usr/include/c++/4.9/bits/stl_iterator.h **** namespace std _GLIBCXX_VISIBILITY(default)
  69:/usr/include/c++/4.9/bits/stl_iterator.h **** {
  70:/usr/include/c++/4.9/bits/stl_iterator.h **** _GLIBCXX_BEGIN_NAMESPACE_VERSION
  71:/usr/include/c++/4.9/bits/stl_iterator.h **** 
  72:/usr/include/c++/4.9/bits/stl_iterator.h ****   /**
  73:/usr/include/c++/4.9/bits/stl_iterator.h ****    * @addtogroup iterators
  74:/usr/include/c++/4.9/bits/stl_iterator.h ****    * @{
  75:/usr/include/c++/4.9/bits/stl_iterator.h ****    */
  76:/usr/include/c++/4.9/bits/stl_iterator.h **** 
  77:/usr/include/c++/4.9/bits/stl_iterator.h ****   // 24.4.1 Reverse iterators
  78:/usr/include/c++/4.9/bits/stl_iterator.h ****   /**
  79:/usr/include/c++/4.9/bits/stl_iterator.h ****    *  Bidirectional and random access iterators have corresponding reverse
  80:/usr/include/c++/4.9/bits/stl_iterator.h ****    *  %iterator adaptors that iterate through the data structure in the
  81:/usr/include/c++/4.9/bits/stl_iterator.h ****    *  opposite direction.  They have the same signatures as the corresponding
  82:/usr/include/c++/4.9/bits/stl_iterator.h ****    *  iterators.  The fundamental relation between a reverse %iterator and its
  83:/usr/include/c++/4.9/bits/stl_iterator.h ****    *  corresponding %iterator @c i is established by the identity:
  84:/usr/include/c++/4.9/bits/stl_iterator.h ****    *  @code
  85:/usr/include/c++/4.9/bits/stl_iterator.h ****    *      &*(reverse_iterator(i)) == &*(i - 1)
  86:/usr/include/c++/4.9/bits/stl_iterator.h ****    *  @endcode
  87:/usr/include/c++/4.9/bits/stl_iterator.h ****    *
  88:/usr/include/c++/4.9/bits/stl_iterator.h ****    *  <em>This mapping is dictated by the fact that while there is always a
  89:/usr/include/c++/4.9/bits/stl_iterator.h ****    *  pointer past the end of an array, there might not be a valid pointer
  90:/usr/include/c++/4.9/bits/stl_iterator.h ****    *  before the beginning of an array.</em> [24.4.1]/1,2
  91:/usr/include/c++/4.9/bits/stl_iterator.h ****    *
  92:/usr/include/c++/4.9/bits/stl_iterator.h ****    *  Reverse iterators can be tricky and surprising at first.  Their
  93:/usr/include/c++/4.9/bits/stl_iterator.h ****    *  semantics make sense, however, and the trickiness is a side effect of
  94:/usr/include/c++/4.9/bits/stl_iterator.h ****    *  the requirement that the iterators must be safe.
  95:/usr/include/c++/4.9/bits/stl_iterator.h ****   */
  96:/usr/include/c++/4.9/bits/stl_iterator.h ****   template<typename _Iterator>
  97:/usr/include/c++/4.9/bits/stl_iterator.h ****     class reverse_iterator
  98:/usr/include/c++/4.9/bits/stl_iterator.h ****     : public iterator<typename iterator_traits<_Iterator>::iterator_category,
  99:/usr/include/c++/4.9/bits/stl_iterator.h **** 		      typename iterator_traits<_Iterator>::value_type,
 100:/usr/include/c++/4.9/bits/stl_iterator.h **** 		      typename iterator_traits<_Iterator>::difference_type,
 101:/usr/include/c++/4.9/bits/stl_iterator.h **** 		      typename iterator_traits<_Iterator>::pointer,
 102:/usr/include/c++/4.9/bits/stl_iterator.h ****                       typename iterator_traits<_Iterator>::reference>
 103:/usr/include/c++/4.9/bits/stl_iterator.h ****     {
 104:/usr/include/c++/4.9/bits/stl_iterator.h ****     protected:
 105:/usr/include/c++/4.9/bits/stl_iterator.h ****       _Iterator current;
 106:/usr/include/c++/4.9/bits/stl_iterator.h **** 
 107:/usr/include/c++/4.9/bits/stl_iterator.h ****       typedef iterator_traits<_Iterator>		__traits_type;
 108:/usr/include/c++/4.9/bits/stl_iterator.h **** 
 109:/usr/include/c++/4.9/bits/stl_iterator.h ****     public:
 110:/usr/include/c++/4.9/bits/stl_iterator.h ****       typedef _Iterator					iterator_type;
 111:/usr/include/c++/4.9/bits/stl_iterator.h ****       typedef typename __traits_type::difference_type	difference_type;
 112:/usr/include/c++/4.9/bits/stl_iterator.h ****       typedef typename __traits_type::pointer		pointer;
 113:/usr/include/c++/4.9/bits/stl_iterator.h ****       typedef typename __traits_type::reference		reference;
 114:/usr/include/c++/4.9/bits/stl_iterator.h **** 
 115:/usr/include/c++/4.9/bits/stl_iterator.h ****       /**
 116:/usr/include/c++/4.9/bits/stl_iterator.h ****        *  The default constructor value-initializes member @p current.
 117:/usr/include/c++/4.9/bits/stl_iterator.h ****        *  If it is a pointer, that means it is zero-initialized.
 118:/usr/include/c++/4.9/bits/stl_iterator.h ****       */
 119:/usr/include/c++/4.9/bits/stl_iterator.h ****       // _GLIBCXX_RESOLVE_LIB_DEFECTS
 120:/usr/include/c++/4.9/bits/stl_iterator.h ****       // 235 No specification of default ctor for reverse_iterator
 121:/usr/include/c++/4.9/bits/stl_iterator.h ****       reverse_iterator() : current() { }
 122:/usr/include/c++/4.9/bits/stl_iterator.h **** 
 123:/usr/include/c++/4.9/bits/stl_iterator.h ****       /**
 124:/usr/include/c++/4.9/bits/stl_iterator.h ****        *  This %iterator will move in the opposite direction that @p x does.
 125:/usr/include/c++/4.9/bits/stl_iterator.h ****       */
 126:/usr/include/c++/4.9/bits/stl_iterator.h ****       explicit
 127:/usr/include/c++/4.9/bits/stl_iterator.h ****       reverse_iterator(iterator_type __x) : current(__x) { }
 128:/usr/include/c++/4.9/bits/stl_iterator.h **** 
 129:/usr/include/c++/4.9/bits/stl_iterator.h ****       /**
 130:/usr/include/c++/4.9/bits/stl_iterator.h ****        *  The copy constructor is normal.
 131:/usr/include/c++/4.9/bits/stl_iterator.h ****       */
 132:/usr/include/c++/4.9/bits/stl_iterator.h ****       reverse_iterator(const reverse_iterator& __x)
 133:/usr/include/c++/4.9/bits/stl_iterator.h ****       : current(__x.current) { }
 134:/usr/include/c++/4.9/bits/stl_iterator.h **** 
 135:/usr/include/c++/4.9/bits/stl_iterator.h ****       /**
 136:/usr/include/c++/4.9/bits/stl_iterator.h ****        *  A %reverse_iterator across other types can be copied if the
 137:/usr/include/c++/4.9/bits/stl_iterator.h ****        *  underlying %iterator can be converted to the type of @c current.
 138:/usr/include/c++/4.9/bits/stl_iterator.h ****       */
 139:/usr/include/c++/4.9/bits/stl_iterator.h ****       template<typename _Iter>
 140:/usr/include/c++/4.9/bits/stl_iterator.h ****         reverse_iterator(const reverse_iterator<_Iter>& __x)
 141:/usr/include/c++/4.9/bits/stl_iterator.h **** 	: current(__x.base()) { }
 142:/usr/include/c++/4.9/bits/stl_iterator.h **** 
 143:/usr/include/c++/4.9/bits/stl_iterator.h ****       /**
 144:/usr/include/c++/4.9/bits/stl_iterator.h ****        *  @return  @c current, the %iterator used for underlying work.
 145:/usr/include/c++/4.9/bits/stl_iterator.h ****       */
 146:/usr/include/c++/4.9/bits/stl_iterator.h ****       iterator_type
 147:/usr/include/c++/4.9/bits/stl_iterator.h ****       base() const
 148:/usr/include/c++/4.9/bits/stl_iterator.h ****       { return current; }
 149:/usr/include/c++/4.9/bits/stl_iterator.h **** 
 150:/usr/include/c++/4.9/bits/stl_iterator.h ****       /**
 151:/usr/include/c++/4.9/bits/stl_iterator.h ****        *  @return  A reference to the value at @c --current
 152:/usr/include/c++/4.9/bits/stl_iterator.h ****        *
 153:/usr/include/c++/4.9/bits/stl_iterator.h ****        *  This requires that @c --current is dereferenceable.
 154:/usr/include/c++/4.9/bits/stl_iterator.h ****        *
 155:/usr/include/c++/4.9/bits/stl_iterator.h ****        *  @warning This implementation requires that for an iterator of the
 156:/usr/include/c++/4.9/bits/stl_iterator.h ****        *           underlying iterator type, @c x, a reference obtained by
 157:/usr/include/c++/4.9/bits/stl_iterator.h ****        *           @c *x remains valid after @c x has been modified or
 158:/usr/include/c++/4.9/bits/stl_iterator.h ****        *           destroyed. This is a bug: http://gcc.gnu.org/PR51823
 159:/usr/include/c++/4.9/bits/stl_iterator.h ****       */
 160:/usr/include/c++/4.9/bits/stl_iterator.h ****       reference
 161:/usr/include/c++/4.9/bits/stl_iterator.h ****       operator*() const
 162:/usr/include/c++/4.9/bits/stl_iterator.h ****       {
 163:/usr/include/c++/4.9/bits/stl_iterator.h **** 	_Iterator __tmp = current;
 164:/usr/include/c++/4.9/bits/stl_iterator.h **** 	return *--__tmp;
 165:/usr/include/c++/4.9/bits/stl_iterator.h ****       }
 166:/usr/include/c++/4.9/bits/stl_iterator.h **** 
 167:/usr/include/c++/4.9/bits/stl_iterator.h ****       /**
 168:/usr/include/c++/4.9/bits/stl_iterator.h ****        *  @return  A pointer to the value at @c --current
 169:/usr/include/c++/4.9/bits/stl_iterator.h ****        *
 170:/usr/include/c++/4.9/bits/stl_iterator.h ****        *  This requires that @c --current is dereferenceable.
 171:/usr/include/c++/4.9/bits/stl_iterator.h ****       */
 172:/usr/include/c++/4.9/bits/stl_iterator.h ****       pointer
 173:/usr/include/c++/4.9/bits/stl_iterator.h ****       operator->() const
 174:/usr/include/c++/4.9/bits/stl_iterator.h ****       { return &(operator*()); }
 175:/usr/include/c++/4.9/bits/stl_iterator.h **** 
 176:/usr/include/c++/4.9/bits/stl_iterator.h ****       /**
 177:/usr/include/c++/4.9/bits/stl_iterator.h ****        *  @return  @c *this
 178:/usr/include/c++/4.9/bits/stl_iterator.h ****        *
 179:/usr/include/c++/4.9/bits/stl_iterator.h ****        *  Decrements the underlying iterator.
 180:/usr/include/c++/4.9/bits/stl_iterator.h ****       */
 181:/usr/include/c++/4.9/bits/stl_iterator.h ****       reverse_iterator&
 182:/usr/include/c++/4.9/bits/stl_iterator.h ****       operator++()
 183:/usr/include/c++/4.9/bits/stl_iterator.h ****       {
 184:/usr/include/c++/4.9/bits/stl_iterator.h **** 	--current;
 185:/usr/include/c++/4.9/bits/stl_iterator.h **** 	return *this;
 186:/usr/include/c++/4.9/bits/stl_iterator.h ****       }
 187:/usr/include/c++/4.9/bits/stl_iterator.h **** 
 188:/usr/include/c++/4.9/bits/stl_iterator.h ****       /**
 189:/usr/include/c++/4.9/bits/stl_iterator.h ****        *  @return  The original value of @c *this
 190:/usr/include/c++/4.9/bits/stl_iterator.h ****        *
 191:/usr/include/c++/4.9/bits/stl_iterator.h ****        *  Decrements the underlying iterator.
 192:/usr/include/c++/4.9/bits/stl_iterator.h ****       */
 193:/usr/include/c++/4.9/bits/stl_iterator.h ****       reverse_iterator
 194:/usr/include/c++/4.9/bits/stl_iterator.h ****       operator++(int)
 195:/usr/include/c++/4.9/bits/stl_iterator.h ****       {
 196:/usr/include/c++/4.9/bits/stl_iterator.h **** 	reverse_iterator __tmp = *this;
 197:/usr/include/c++/4.9/bits/stl_iterator.h **** 	--current;
 198:/usr/include/c++/4.9/bits/stl_iterator.h **** 	return __tmp;
 199:/usr/include/c++/4.9/bits/stl_iterator.h ****       }
 200:/usr/include/c++/4.9/bits/stl_iterator.h **** 
 201:/usr/include/c++/4.9/bits/stl_iterator.h ****       /**
 202:/usr/include/c++/4.9/bits/stl_iterator.h ****        *  @return  @c *this
 203:/usr/include/c++/4.9/bits/stl_iterator.h ****        *
 204:/usr/include/c++/4.9/bits/stl_iterator.h ****        *  Increments the underlying iterator.
 205:/usr/include/c++/4.9/bits/stl_iterator.h ****       */
 206:/usr/include/c++/4.9/bits/stl_iterator.h ****       reverse_iterator&
 207:/usr/include/c++/4.9/bits/stl_iterator.h ****       operator--()
 208:/usr/include/c++/4.9/bits/stl_iterator.h ****       {
 209:/usr/include/c++/4.9/bits/stl_iterator.h **** 	++current;
 210:/usr/include/c++/4.9/bits/stl_iterator.h **** 	return *this;
 211:/usr/include/c++/4.9/bits/stl_iterator.h ****       }
 212:/usr/include/c++/4.9/bits/stl_iterator.h **** 
 213:/usr/include/c++/4.9/bits/stl_iterator.h ****       /**
 214:/usr/include/c++/4.9/bits/stl_iterator.h ****        *  @return  A reverse_iterator with the previous value of @c *this
 215:/usr/include/c++/4.9/bits/stl_iterator.h ****        *
 216:/usr/include/c++/4.9/bits/stl_iterator.h ****        *  Increments the underlying iterator.
 217:/usr/include/c++/4.9/bits/stl_iterator.h ****       */
 218:/usr/include/c++/4.9/bits/stl_iterator.h ****       reverse_iterator
 219:/usr/include/c++/4.9/bits/stl_iterator.h ****       operator--(int)
 220:/usr/include/c++/4.9/bits/stl_iterator.h ****       {
 221:/usr/include/c++/4.9/bits/stl_iterator.h **** 	reverse_iterator __tmp = *this;
 222:/usr/include/c++/4.9/bits/stl_iterator.h **** 	++current;
 223:/usr/include/c++/4.9/bits/stl_iterator.h **** 	return __tmp;
 224:/usr/include/c++/4.9/bits/stl_iterator.h ****       }
 225:/usr/include/c++/4.9/bits/stl_iterator.h **** 
 226:/usr/include/c++/4.9/bits/stl_iterator.h ****       /**
 227:/usr/include/c++/4.9/bits/stl_iterator.h ****        *  @return  A reverse_iterator that refers to @c current - @a __n
 228:/usr/include/c++/4.9/bits/stl_iterator.h ****        *
 229:/usr/include/c++/4.9/bits/stl_iterator.h ****        *  The underlying iterator must be a Random Access Iterator.
 230:/usr/include/c++/4.9/bits/stl_iterator.h ****       */
 231:/usr/include/c++/4.9/bits/stl_iterator.h ****       reverse_iterator
 232:/usr/include/c++/4.9/bits/stl_iterator.h ****       operator+(difference_type __n) const
 233:/usr/include/c++/4.9/bits/stl_iterator.h ****       { return reverse_iterator(current - __n); }
 234:/usr/include/c++/4.9/bits/stl_iterator.h **** 
 235:/usr/include/c++/4.9/bits/stl_iterator.h ****       /**
 236:/usr/include/c++/4.9/bits/stl_iterator.h ****        *  @return  *this
 237:/usr/include/c++/4.9/bits/stl_iterator.h ****        *
 238:/usr/include/c++/4.9/bits/stl_iterator.h ****        *  Moves the underlying iterator backwards @a __n steps.
 239:/usr/include/c++/4.9/bits/stl_iterator.h ****        *  The underlying iterator must be a Random Access Iterator.
 240:/usr/include/c++/4.9/bits/stl_iterator.h ****       */
 241:/usr/include/c++/4.9/bits/stl_iterator.h ****       reverse_iterator&
 242:/usr/include/c++/4.9/bits/stl_iterator.h ****       operator+=(difference_type __n)
 243:/usr/include/c++/4.9/bits/stl_iterator.h ****       {
 244:/usr/include/c++/4.9/bits/stl_iterator.h **** 	current -= __n;
 245:/usr/include/c++/4.9/bits/stl_iterator.h **** 	return *this;
 246:/usr/include/c++/4.9/bits/stl_iterator.h ****       }
 247:/usr/include/c++/4.9/bits/stl_iterator.h **** 
 248:/usr/include/c++/4.9/bits/stl_iterator.h ****       /**
 249:/usr/include/c++/4.9/bits/stl_iterator.h ****        *  @return  A reverse_iterator that refers to @c current - @a __n
 250:/usr/include/c++/4.9/bits/stl_iterator.h ****        *
 251:/usr/include/c++/4.9/bits/stl_iterator.h ****        *  The underlying iterator must be a Random Access Iterator.
 252:/usr/include/c++/4.9/bits/stl_iterator.h ****       */
 253:/usr/include/c++/4.9/bits/stl_iterator.h ****       reverse_iterator
 254:/usr/include/c++/4.9/bits/stl_iterator.h ****       operator-(difference_type __n) const
 255:/usr/include/c++/4.9/bits/stl_iterator.h ****       { return reverse_iterator(current + __n); }
 256:/usr/include/c++/4.9/bits/stl_iterator.h **** 
 257:/usr/include/c++/4.9/bits/stl_iterator.h ****       /**
 258:/usr/include/c++/4.9/bits/stl_iterator.h ****        *  @return  *this
 259:/usr/include/c++/4.9/bits/stl_iterator.h ****        *
 260:/usr/include/c++/4.9/bits/stl_iterator.h ****        *  Moves the underlying iterator forwards @a __n steps.
 261:/usr/include/c++/4.9/bits/stl_iterator.h ****        *  The underlying iterator must be a Random Access Iterator.
 262:/usr/include/c++/4.9/bits/stl_iterator.h ****       */
 263:/usr/include/c++/4.9/bits/stl_iterator.h ****       reverse_iterator&
 264:/usr/include/c++/4.9/bits/stl_iterator.h ****       operator-=(difference_type __n)
 265:/usr/include/c++/4.9/bits/stl_iterator.h ****       {
 266:/usr/include/c++/4.9/bits/stl_iterator.h **** 	current += __n;
 267:/usr/include/c++/4.9/bits/stl_iterator.h **** 	return *this;
 268:/usr/include/c++/4.9/bits/stl_iterator.h ****       }
 269:/usr/include/c++/4.9/bits/stl_iterator.h **** 
 270:/usr/include/c++/4.9/bits/stl_iterator.h ****       /**
 271:/usr/include/c++/4.9/bits/stl_iterator.h ****        *  @return  The value at @c current - @a __n - 1
 272:/usr/include/c++/4.9/bits/stl_iterator.h ****        *
 273:/usr/include/c++/4.9/bits/stl_iterator.h ****        *  The underlying iterator must be a Random Access Iterator.
 274:/usr/include/c++/4.9/bits/stl_iterator.h ****       */
 275:/usr/include/c++/4.9/bits/stl_iterator.h ****       reference
 276:/usr/include/c++/4.9/bits/stl_iterator.h ****       operator[](difference_type __n) const
 277:/usr/include/c++/4.9/bits/stl_iterator.h ****       { return *(*this + __n); }
 278:/usr/include/c++/4.9/bits/stl_iterator.h ****     };
 279:/usr/include/c++/4.9/bits/stl_iterator.h **** 
 280:/usr/include/c++/4.9/bits/stl_iterator.h ****   //@{
 281:/usr/include/c++/4.9/bits/stl_iterator.h ****   /**
 282:/usr/include/c++/4.9/bits/stl_iterator.h ****    *  @param  __x  A %reverse_iterator.
 283:/usr/include/c++/4.9/bits/stl_iterator.h ****    *  @param  __y  A %reverse_iterator.
 284:/usr/include/c++/4.9/bits/stl_iterator.h ****    *  @return  A simple bool.
 285:/usr/include/c++/4.9/bits/stl_iterator.h ****    *
 286:/usr/include/c++/4.9/bits/stl_iterator.h ****    *  Reverse iterators forward many operations to their underlying base()
 287:/usr/include/c++/4.9/bits/stl_iterator.h ****    *  iterators.  Others are implemented in terms of one another.
 288:/usr/include/c++/4.9/bits/stl_iterator.h ****    *
 289:/usr/include/c++/4.9/bits/stl_iterator.h ****   */
 290:/usr/include/c++/4.9/bits/stl_iterator.h ****   template<typename _Iterator>
 291:/usr/include/c++/4.9/bits/stl_iterator.h ****     inline bool
 292:/usr/include/c++/4.9/bits/stl_iterator.h ****     operator==(const reverse_iterator<_Iterator>& __x,
 293:/usr/include/c++/4.9/bits/stl_iterator.h **** 	       const reverse_iterator<_Iterator>& __y)
 294:/usr/include/c++/4.9/bits/stl_iterator.h ****     { return __x.base() == __y.base(); }
 295:/usr/include/c++/4.9/bits/stl_iterator.h **** 
 296:/usr/include/c++/4.9/bits/stl_iterator.h ****   template<typename _Iterator>
 297:/usr/include/c++/4.9/bits/stl_iterator.h ****     inline bool
 298:/usr/include/c++/4.9/bits/stl_iterator.h ****     operator<(const reverse_iterator<_Iterator>& __x,
 299:/usr/include/c++/4.9/bits/stl_iterator.h **** 	      const reverse_iterator<_Iterator>& __y)
 300:/usr/include/c++/4.9/bits/stl_iterator.h ****     { return __y.base() < __x.base(); }
 301:/usr/include/c++/4.9/bits/stl_iterator.h **** 
 302:/usr/include/c++/4.9/bits/stl_iterator.h ****   template<typename _Iterator>
 303:/usr/include/c++/4.9/bits/stl_iterator.h ****     inline bool
 304:/usr/include/c++/4.9/bits/stl_iterator.h ****     operator!=(const reverse_iterator<_Iterator>& __x,
 305:/usr/include/c++/4.9/bits/stl_iterator.h **** 	       const reverse_iterator<_Iterator>& __y)
 306:/usr/include/c++/4.9/bits/stl_iterator.h ****     { return !(__x == __y); }
 307:/usr/include/c++/4.9/bits/stl_iterator.h **** 
 308:/usr/include/c++/4.9/bits/stl_iterator.h ****   template<typename _Iterator>
 309:/usr/include/c++/4.9/bits/stl_iterator.h ****     inline bool
 310:/usr/include/c++/4.9/bits/stl_iterator.h ****     operator>(const reverse_iterator<_Iterator>& __x,
 311:/usr/include/c++/4.9/bits/stl_iterator.h **** 	      const reverse_iterator<_Iterator>& __y)
 312:/usr/include/c++/4.9/bits/stl_iterator.h ****     { return __y < __x; }
 313:/usr/include/c++/4.9/bits/stl_iterator.h **** 
 314:/usr/include/c++/4.9/bits/stl_iterator.h ****   template<typename _Iterator>
 315:/usr/include/c++/4.9/bits/stl_iterator.h ****     inline bool
 316:/usr/include/c++/4.9/bits/stl_iterator.h ****     operator<=(const reverse_iterator<_Iterator>& __x,
 317:/usr/include/c++/4.9/bits/stl_iterator.h **** 	       const reverse_iterator<_Iterator>& __y)
 318:/usr/include/c++/4.9/bits/stl_iterator.h ****     { return !(__y < __x); }
 319:/usr/include/c++/4.9/bits/stl_iterator.h **** 
 320:/usr/include/c++/4.9/bits/stl_iterator.h ****   template<typename _Iterator>
 321:/usr/include/c++/4.9/bits/stl_iterator.h ****     inline bool
 322:/usr/include/c++/4.9/bits/stl_iterator.h ****     operator>=(const reverse_iterator<_Iterator>& __x,
 323:/usr/include/c++/4.9/bits/stl_iterator.h **** 	       const reverse_iterator<_Iterator>& __y)
 324:/usr/include/c++/4.9/bits/stl_iterator.h ****     { return !(__x < __y); }
 325:/usr/include/c++/4.9/bits/stl_iterator.h **** 
 326:/usr/include/c++/4.9/bits/stl_iterator.h ****   template<typename _Iterator>
 327:/usr/include/c++/4.9/bits/stl_iterator.h ****     inline typename reverse_iterator<_Iterator>::difference_type
 328:/usr/include/c++/4.9/bits/stl_iterator.h ****     operator-(const reverse_iterator<_Iterator>& __x,
 329:/usr/include/c++/4.9/bits/stl_iterator.h **** 	      const reverse_iterator<_Iterator>& __y)
 330:/usr/include/c++/4.9/bits/stl_iterator.h ****     { return __y.base() - __x.base(); }
 331:/usr/include/c++/4.9/bits/stl_iterator.h **** 
 332:/usr/include/c++/4.9/bits/stl_iterator.h ****   template<typename _Iterator>
 333:/usr/include/c++/4.9/bits/stl_iterator.h ****     inline reverse_iterator<_Iterator>
 334:/usr/include/c++/4.9/bits/stl_iterator.h ****     operator+(typename reverse_iterator<_Iterator>::difference_type __n,
 335:/usr/include/c++/4.9/bits/stl_iterator.h **** 	      const reverse_iterator<_Iterator>& __x)
 336:/usr/include/c++/4.9/bits/stl_iterator.h ****     { return reverse_iterator<_Iterator>(__x.base() - __n); }
 337:/usr/include/c++/4.9/bits/stl_iterator.h **** 
 338:/usr/include/c++/4.9/bits/stl_iterator.h ****   // _GLIBCXX_RESOLVE_LIB_DEFECTS
 339:/usr/include/c++/4.9/bits/stl_iterator.h ****   // DR 280. Comparison of reverse_iterator to const reverse_iterator.
 340:/usr/include/c++/4.9/bits/stl_iterator.h ****   template<typename _IteratorL, typename _IteratorR>
 341:/usr/include/c++/4.9/bits/stl_iterator.h ****     inline bool
 342:/usr/include/c++/4.9/bits/stl_iterator.h ****     operator==(const reverse_iterator<_IteratorL>& __x,
 343:/usr/include/c++/4.9/bits/stl_iterator.h **** 	       const reverse_iterator<_IteratorR>& __y)
 344:/usr/include/c++/4.9/bits/stl_iterator.h ****     { return __x.base() == __y.base(); }
 345:/usr/include/c++/4.9/bits/stl_iterator.h **** 
 346:/usr/include/c++/4.9/bits/stl_iterator.h ****   template<typename _IteratorL, typename _IteratorR>
 347:/usr/include/c++/4.9/bits/stl_iterator.h ****     inline bool
 348:/usr/include/c++/4.9/bits/stl_iterator.h ****     operator<(const reverse_iterator<_IteratorL>& __x,
 349:/usr/include/c++/4.9/bits/stl_iterator.h **** 	      const reverse_iterator<_IteratorR>& __y)
 350:/usr/include/c++/4.9/bits/stl_iterator.h ****     { return __y.base() < __x.base(); }
 351:/usr/include/c++/4.9/bits/stl_iterator.h **** 
 352:/usr/include/c++/4.9/bits/stl_iterator.h ****   template<typename _IteratorL, typename _IteratorR>
 353:/usr/include/c++/4.9/bits/stl_iterator.h ****     inline bool
 354:/usr/include/c++/4.9/bits/stl_iterator.h ****     operator!=(const reverse_iterator<_IteratorL>& __x,
 355:/usr/include/c++/4.9/bits/stl_iterator.h **** 	       const reverse_iterator<_IteratorR>& __y)
 356:/usr/include/c++/4.9/bits/stl_iterator.h ****     { return !(__x == __y); }
 357:/usr/include/c++/4.9/bits/stl_iterator.h **** 
 358:/usr/include/c++/4.9/bits/stl_iterator.h ****   template<typename _IteratorL, typename _IteratorR>
 359:/usr/include/c++/4.9/bits/stl_iterator.h ****     inline bool
 360:/usr/include/c++/4.9/bits/stl_iterator.h ****     operator>(const reverse_iterator<_IteratorL>& __x,
 361:/usr/include/c++/4.9/bits/stl_iterator.h **** 	      const reverse_iterator<_IteratorR>& __y)
 362:/usr/include/c++/4.9/bits/stl_iterator.h ****     { return __y < __x; }
 363:/usr/include/c++/4.9/bits/stl_iterator.h **** 
 364:/usr/include/c++/4.9/bits/stl_iterator.h ****   template<typename _IteratorL, typename _IteratorR>
 365:/usr/include/c++/4.9/bits/stl_iterator.h ****     inline bool
 366:/usr/include/c++/4.9/bits/stl_iterator.h ****     operator<=(const reverse_iterator<_IteratorL>& __x,
 367:/usr/include/c++/4.9/bits/stl_iterator.h **** 	       const reverse_iterator<_IteratorR>& __y)
 368:/usr/include/c++/4.9/bits/stl_iterator.h ****     { return !(__y < __x); }
 369:/usr/include/c++/4.9/bits/stl_iterator.h **** 
 370:/usr/include/c++/4.9/bits/stl_iterator.h ****   template<typename _IteratorL, typename _IteratorR>
 371:/usr/include/c++/4.9/bits/stl_iterator.h ****     inline bool
 372:/usr/include/c++/4.9/bits/stl_iterator.h ****     operator>=(const reverse_iterator<_IteratorL>& __x,
 373:/usr/include/c++/4.9/bits/stl_iterator.h **** 	       const reverse_iterator<_IteratorR>& __y)
 374:/usr/include/c++/4.9/bits/stl_iterator.h ****     { return !(__x < __y); }
 375:/usr/include/c++/4.9/bits/stl_iterator.h **** 
 376:/usr/include/c++/4.9/bits/stl_iterator.h ****   template<typename _IteratorL, typename _IteratorR>
 377:/usr/include/c++/4.9/bits/stl_iterator.h **** #if __cplusplus >= 201103L
 378:/usr/include/c++/4.9/bits/stl_iterator.h ****     // DR 685.
 379:/usr/include/c++/4.9/bits/stl_iterator.h ****     inline auto
 380:/usr/include/c++/4.9/bits/stl_iterator.h ****     operator-(const reverse_iterator<_IteratorL>& __x,
 381:/usr/include/c++/4.9/bits/stl_iterator.h **** 	      const reverse_iterator<_IteratorR>& __y)
 382:/usr/include/c++/4.9/bits/stl_iterator.h ****     -> decltype(__y.base() - __x.base())
 383:/usr/include/c++/4.9/bits/stl_iterator.h **** #else
 384:/usr/include/c++/4.9/bits/stl_iterator.h ****     inline typename reverse_iterator<_IteratorL>::difference_type
 385:/usr/include/c++/4.9/bits/stl_iterator.h ****     operator-(const reverse_iterator<_IteratorL>& __x,
 386:/usr/include/c++/4.9/bits/stl_iterator.h **** 	      const reverse_iterator<_IteratorR>& __y)
 387:/usr/include/c++/4.9/bits/stl_iterator.h **** #endif
 388:/usr/include/c++/4.9/bits/stl_iterator.h ****     { return __y.base() - __x.base(); }
 389:/usr/include/c++/4.9/bits/stl_iterator.h ****   //@}
 390:/usr/include/c++/4.9/bits/stl_iterator.h **** 
 391:/usr/include/c++/4.9/bits/stl_iterator.h ****   // 24.4.2.2.1 back_insert_iterator
 392:/usr/include/c++/4.9/bits/stl_iterator.h ****   /**
 393:/usr/include/c++/4.9/bits/stl_iterator.h ****    *  @brief  Turns assignment into insertion.
 394:/usr/include/c++/4.9/bits/stl_iterator.h ****    *
 395:/usr/include/c++/4.9/bits/stl_iterator.h ****    *  These are output iterators, constructed from a container-of-T.
 396:/usr/include/c++/4.9/bits/stl_iterator.h ****    *  Assigning a T to the iterator appends it to the container using
 397:/usr/include/c++/4.9/bits/stl_iterator.h ****    *  push_back.
 398:/usr/include/c++/4.9/bits/stl_iterator.h ****    *
 399:/usr/include/c++/4.9/bits/stl_iterator.h ****    *  Tip:  Using the back_inserter function to create these iterators can
 400:/usr/include/c++/4.9/bits/stl_iterator.h ****    *  save typing.
 401:/usr/include/c++/4.9/bits/stl_iterator.h ****   */
 402:/usr/include/c++/4.9/bits/stl_iterator.h ****   template<typename _Container>
 403:/usr/include/c++/4.9/bits/stl_iterator.h ****     class back_insert_iterator
 404:/usr/include/c++/4.9/bits/stl_iterator.h ****     : public iterator<output_iterator_tag, void, void, void, void>
 405:/usr/include/c++/4.9/bits/stl_iterator.h ****     {
 406:/usr/include/c++/4.9/bits/stl_iterator.h ****     protected:
 407:/usr/include/c++/4.9/bits/stl_iterator.h ****       _Container* container;
 408:/usr/include/c++/4.9/bits/stl_iterator.h **** 
 409:/usr/include/c++/4.9/bits/stl_iterator.h ****     public:
 410:/usr/include/c++/4.9/bits/stl_iterator.h ****       /// A nested typedef for the type of whatever container you used.
 411:/usr/include/c++/4.9/bits/stl_iterator.h ****       typedef _Container          container_type;
 412:/usr/include/c++/4.9/bits/stl_iterator.h **** 
 413:/usr/include/c++/4.9/bits/stl_iterator.h ****       /// The only way to create this %iterator is with a container.
 414:/usr/include/c++/4.9/bits/stl_iterator.h ****       explicit
 415:/usr/include/c++/4.9/bits/stl_iterator.h ****       back_insert_iterator(_Container& __x) : container(&__x) { }
 416:/usr/include/c++/4.9/bits/stl_iterator.h **** 
 417:/usr/include/c++/4.9/bits/stl_iterator.h ****       /**
 418:/usr/include/c++/4.9/bits/stl_iterator.h ****        *  @param  __value  An instance of whatever type
 419:/usr/include/c++/4.9/bits/stl_iterator.h ****        *                 container_type::const_reference is; presumably a
 420:/usr/include/c++/4.9/bits/stl_iterator.h ****        *                 reference-to-const T for container<T>.
 421:/usr/include/c++/4.9/bits/stl_iterator.h ****        *  @return  This %iterator, for chained operations.
 422:/usr/include/c++/4.9/bits/stl_iterator.h ****        *
 423:/usr/include/c++/4.9/bits/stl_iterator.h ****        *  This kind of %iterator doesn't really have a @a position in the
 424:/usr/include/c++/4.9/bits/stl_iterator.h ****        *  container (you can think of the position as being permanently at
 425:/usr/include/c++/4.9/bits/stl_iterator.h ****        *  the end, if you like).  Assigning a value to the %iterator will
 426:/usr/include/c++/4.9/bits/stl_iterator.h ****        *  always append the value to the end of the container.
 427:/usr/include/c++/4.9/bits/stl_iterator.h ****       */
 428:/usr/include/c++/4.9/bits/stl_iterator.h **** #if __cplusplus < 201103L
 429:/usr/include/c++/4.9/bits/stl_iterator.h ****       back_insert_iterator&
 430:/usr/include/c++/4.9/bits/stl_iterator.h ****       operator=(typename _Container::const_reference __value)
 431:/usr/include/c++/4.9/bits/stl_iterator.h ****       {
 432:/usr/include/c++/4.9/bits/stl_iterator.h **** 	container->push_back(__value);
 433:/usr/include/c++/4.9/bits/stl_iterator.h **** 	return *this;
 434:/usr/include/c++/4.9/bits/stl_iterator.h ****       }
 435:/usr/include/c++/4.9/bits/stl_iterator.h **** #else
 436:/usr/include/c++/4.9/bits/stl_iterator.h ****       back_insert_iterator&
 437:/usr/include/c++/4.9/bits/stl_iterator.h ****       operator=(const typename _Container::value_type& __value)
 438:/usr/include/c++/4.9/bits/stl_iterator.h ****       {
 439:/usr/include/c++/4.9/bits/stl_iterator.h **** 	container->push_back(__value);
 440:/usr/include/c++/4.9/bits/stl_iterator.h **** 	return *this;
 441:/usr/include/c++/4.9/bits/stl_iterator.h ****       }
 442:/usr/include/c++/4.9/bits/stl_iterator.h **** 
 443:/usr/include/c++/4.9/bits/stl_iterator.h ****       back_insert_iterator&
 444:/usr/include/c++/4.9/bits/stl_iterator.h ****       operator=(typename _Container::value_type&& __value)
 445:/usr/include/c++/4.9/bits/stl_iterator.h ****       {
 446:/usr/include/c++/4.9/bits/stl_iterator.h **** 	container->push_back(std::move(__value));
 447:/usr/include/c++/4.9/bits/stl_iterator.h **** 	return *this;
 448:/usr/include/c++/4.9/bits/stl_iterator.h ****       }
 449:/usr/include/c++/4.9/bits/stl_iterator.h **** #endif
 450:/usr/include/c++/4.9/bits/stl_iterator.h **** 
 451:/usr/include/c++/4.9/bits/stl_iterator.h ****       /// Simply returns *this.
 452:/usr/include/c++/4.9/bits/stl_iterator.h ****       back_insert_iterator&
 453:/usr/include/c++/4.9/bits/stl_iterator.h ****       operator*()
 454:/usr/include/c++/4.9/bits/stl_iterator.h ****       { return *this; }
 455:/usr/include/c++/4.9/bits/stl_iterator.h **** 
 456:/usr/include/c++/4.9/bits/stl_iterator.h ****       /// Simply returns *this.  (This %iterator does not @a move.)
 457:/usr/include/c++/4.9/bits/stl_iterator.h ****       back_insert_iterator&
 458:/usr/include/c++/4.9/bits/stl_iterator.h ****       operator++()
 459:/usr/include/c++/4.9/bits/stl_iterator.h ****       { return *this; }
 460:/usr/include/c++/4.9/bits/stl_iterator.h **** 
 461:/usr/include/c++/4.9/bits/stl_iterator.h ****       /// Simply returns *this.  (This %iterator does not @a move.)
 462:/usr/include/c++/4.9/bits/stl_iterator.h ****       back_insert_iterator
 463:/usr/include/c++/4.9/bits/stl_iterator.h ****       operator++(int)
 464:/usr/include/c++/4.9/bits/stl_iterator.h ****       { return *this; }
 465:/usr/include/c++/4.9/bits/stl_iterator.h ****     };
 466:/usr/include/c++/4.9/bits/stl_iterator.h **** 
 467:/usr/include/c++/4.9/bits/stl_iterator.h ****   /**
 468:/usr/include/c++/4.9/bits/stl_iterator.h ****    *  @param  __x  A container of arbitrary type.
 469:/usr/include/c++/4.9/bits/stl_iterator.h ****    *  @return  An instance of back_insert_iterator working on @p __x.
 470:/usr/include/c++/4.9/bits/stl_iterator.h ****    *
 471:/usr/include/c++/4.9/bits/stl_iterator.h ****    *  This wrapper function helps in creating back_insert_iterator instances.
 472:/usr/include/c++/4.9/bits/stl_iterator.h ****    *  Typing the name of the %iterator requires knowing the precise full
 473:/usr/include/c++/4.9/bits/stl_iterator.h ****    *  type of the container, which can be tedious and impedes generic
 474:/usr/include/c++/4.9/bits/stl_iterator.h ****    *  programming.  Using this function lets you take advantage of automatic
 475:/usr/include/c++/4.9/bits/stl_iterator.h ****    *  template parameter deduction, making the compiler match the correct
 476:/usr/include/c++/4.9/bits/stl_iterator.h ****    *  types for you.
 477:/usr/include/c++/4.9/bits/stl_iterator.h ****   */
 478:/usr/include/c++/4.9/bits/stl_iterator.h ****   template<typename _Container>
 479:/usr/include/c++/4.9/bits/stl_iterator.h ****     inline back_insert_iterator<_Container>
 480:/usr/include/c++/4.9/bits/stl_iterator.h ****     back_inserter(_Container& __x)
 481:/usr/include/c++/4.9/bits/stl_iterator.h ****     { return back_insert_iterator<_Container>(__x); }
 482:/usr/include/c++/4.9/bits/stl_iterator.h **** 
 483:/usr/include/c++/4.9/bits/stl_iterator.h ****   /**
 484:/usr/include/c++/4.9/bits/stl_iterator.h ****    *  @brief  Turns assignment into insertion.
 485:/usr/include/c++/4.9/bits/stl_iterator.h ****    *
 486:/usr/include/c++/4.9/bits/stl_iterator.h ****    *  These are output iterators, constructed from a container-of-T.
 487:/usr/include/c++/4.9/bits/stl_iterator.h ****    *  Assigning a T to the iterator prepends it to the container using
 488:/usr/include/c++/4.9/bits/stl_iterator.h ****    *  push_front.
 489:/usr/include/c++/4.9/bits/stl_iterator.h ****    *
 490:/usr/include/c++/4.9/bits/stl_iterator.h ****    *  Tip:  Using the front_inserter function to create these iterators can
 491:/usr/include/c++/4.9/bits/stl_iterator.h ****    *  save typing.
 492:/usr/include/c++/4.9/bits/stl_iterator.h ****   */
 493:/usr/include/c++/4.9/bits/stl_iterator.h ****   template<typename _Container>
 494:/usr/include/c++/4.9/bits/stl_iterator.h ****     class front_insert_iterator
 495:/usr/include/c++/4.9/bits/stl_iterator.h ****     : public iterator<output_iterator_tag, void, void, void, void>
 496:/usr/include/c++/4.9/bits/stl_iterator.h ****     {
 497:/usr/include/c++/4.9/bits/stl_iterator.h ****     protected:
 498:/usr/include/c++/4.9/bits/stl_iterator.h ****       _Container* container;
 499:/usr/include/c++/4.9/bits/stl_iterator.h **** 
 500:/usr/include/c++/4.9/bits/stl_iterator.h ****     public:
 501:/usr/include/c++/4.9/bits/stl_iterator.h ****       /// A nested typedef for the type of whatever container you used.
 502:/usr/include/c++/4.9/bits/stl_iterator.h ****       typedef _Container          container_type;
 503:/usr/include/c++/4.9/bits/stl_iterator.h **** 
 504:/usr/include/c++/4.9/bits/stl_iterator.h ****       /// The only way to create this %iterator is with a container.
 505:/usr/include/c++/4.9/bits/stl_iterator.h ****       explicit front_insert_iterator(_Container& __x) : container(&__x) { }
 506:/usr/include/c++/4.9/bits/stl_iterator.h **** 
 507:/usr/include/c++/4.9/bits/stl_iterator.h ****       /**
 508:/usr/include/c++/4.9/bits/stl_iterator.h ****        *  @param  __value  An instance of whatever type
 509:/usr/include/c++/4.9/bits/stl_iterator.h ****        *                 container_type::const_reference is; presumably a
 510:/usr/include/c++/4.9/bits/stl_iterator.h ****        *                 reference-to-const T for container<T>.
 511:/usr/include/c++/4.9/bits/stl_iterator.h ****        *  @return  This %iterator, for chained operations.
 512:/usr/include/c++/4.9/bits/stl_iterator.h ****        *
 513:/usr/include/c++/4.9/bits/stl_iterator.h ****        *  This kind of %iterator doesn't really have a @a position in the
 514:/usr/include/c++/4.9/bits/stl_iterator.h ****        *  container (you can think of the position as being permanently at
 515:/usr/include/c++/4.9/bits/stl_iterator.h ****        *  the front, if you like).  Assigning a value to the %iterator will
 516:/usr/include/c++/4.9/bits/stl_iterator.h ****        *  always prepend the value to the front of the container.
 517:/usr/include/c++/4.9/bits/stl_iterator.h ****       */
 518:/usr/include/c++/4.9/bits/stl_iterator.h **** #if __cplusplus < 201103L
 519:/usr/include/c++/4.9/bits/stl_iterator.h ****       front_insert_iterator&
 520:/usr/include/c++/4.9/bits/stl_iterator.h ****       operator=(typename _Container::const_reference __value)
 521:/usr/include/c++/4.9/bits/stl_iterator.h ****       {
 522:/usr/include/c++/4.9/bits/stl_iterator.h **** 	container->push_front(__value);
 523:/usr/include/c++/4.9/bits/stl_iterator.h **** 	return *this;
 524:/usr/include/c++/4.9/bits/stl_iterator.h ****       }
 525:/usr/include/c++/4.9/bits/stl_iterator.h **** #else
 526:/usr/include/c++/4.9/bits/stl_iterator.h ****       front_insert_iterator&
 527:/usr/include/c++/4.9/bits/stl_iterator.h ****       operator=(const typename _Container::value_type& __value)
 528:/usr/include/c++/4.9/bits/stl_iterator.h ****       {
 529:/usr/include/c++/4.9/bits/stl_iterator.h **** 	container->push_front(__value);
 530:/usr/include/c++/4.9/bits/stl_iterator.h **** 	return *this;
 531:/usr/include/c++/4.9/bits/stl_iterator.h ****       }
 532:/usr/include/c++/4.9/bits/stl_iterator.h **** 
 533:/usr/include/c++/4.9/bits/stl_iterator.h ****       front_insert_iterator&
 534:/usr/include/c++/4.9/bits/stl_iterator.h ****       operator=(typename _Container::value_type&& __value)
 535:/usr/include/c++/4.9/bits/stl_iterator.h ****       {
 536:/usr/include/c++/4.9/bits/stl_iterator.h **** 	container->push_front(std::move(__value));
 537:/usr/include/c++/4.9/bits/stl_iterator.h **** 	return *this;
 538:/usr/include/c++/4.9/bits/stl_iterator.h ****       }
 539:/usr/include/c++/4.9/bits/stl_iterator.h **** #endif
 540:/usr/include/c++/4.9/bits/stl_iterator.h **** 
 541:/usr/include/c++/4.9/bits/stl_iterator.h ****       /// Simply returns *this.
 542:/usr/include/c++/4.9/bits/stl_iterator.h ****       front_insert_iterator&
 543:/usr/include/c++/4.9/bits/stl_iterator.h ****       operator*()
 544:/usr/include/c++/4.9/bits/stl_iterator.h ****       { return *this; }
 545:/usr/include/c++/4.9/bits/stl_iterator.h **** 
 546:/usr/include/c++/4.9/bits/stl_iterator.h ****       /// Simply returns *this.  (This %iterator does not @a move.)
 547:/usr/include/c++/4.9/bits/stl_iterator.h ****       front_insert_iterator&
 548:/usr/include/c++/4.9/bits/stl_iterator.h ****       operator++()
 549:/usr/include/c++/4.9/bits/stl_iterator.h ****       { return *this; }
 550:/usr/include/c++/4.9/bits/stl_iterator.h **** 
 551:/usr/include/c++/4.9/bits/stl_iterator.h ****       /// Simply returns *this.  (This %iterator does not @a move.)
 552:/usr/include/c++/4.9/bits/stl_iterator.h ****       front_insert_iterator
 553:/usr/include/c++/4.9/bits/stl_iterator.h ****       operator++(int)
 554:/usr/include/c++/4.9/bits/stl_iterator.h ****       { return *this; }
 555:/usr/include/c++/4.9/bits/stl_iterator.h ****     };
 556:/usr/include/c++/4.9/bits/stl_iterator.h **** 
 557:/usr/include/c++/4.9/bits/stl_iterator.h ****   /**
 558:/usr/include/c++/4.9/bits/stl_iterator.h ****    *  @param  __x  A container of arbitrary type.
 559:/usr/include/c++/4.9/bits/stl_iterator.h ****    *  @return  An instance of front_insert_iterator working on @p x.
 560:/usr/include/c++/4.9/bits/stl_iterator.h ****    *
 561:/usr/include/c++/4.9/bits/stl_iterator.h ****    *  This wrapper function helps in creating front_insert_iterator instances.
 562:/usr/include/c++/4.9/bits/stl_iterator.h ****    *  Typing the name of the %iterator requires knowing the precise full
 563:/usr/include/c++/4.9/bits/stl_iterator.h ****    *  type of the container, which can be tedious and impedes generic
 564:/usr/include/c++/4.9/bits/stl_iterator.h ****    *  programming.  Using this function lets you take advantage of automatic
 565:/usr/include/c++/4.9/bits/stl_iterator.h ****    *  template parameter deduction, making the compiler match the correct
 566:/usr/include/c++/4.9/bits/stl_iterator.h ****    *  types for you.
 567:/usr/include/c++/4.9/bits/stl_iterator.h ****   */
 568:/usr/include/c++/4.9/bits/stl_iterator.h ****   template<typename _Container>
 569:/usr/include/c++/4.9/bits/stl_iterator.h ****     inline front_insert_iterator<_Container>
 570:/usr/include/c++/4.9/bits/stl_iterator.h ****     front_inserter(_Container& __x)
 571:/usr/include/c++/4.9/bits/stl_iterator.h ****     { return front_insert_iterator<_Container>(__x); }
 572:/usr/include/c++/4.9/bits/stl_iterator.h **** 
 573:/usr/include/c++/4.9/bits/stl_iterator.h ****   /**
 574:/usr/include/c++/4.9/bits/stl_iterator.h ****    *  @brief  Turns assignment into insertion.
 575:/usr/include/c++/4.9/bits/stl_iterator.h ****    *
 576:/usr/include/c++/4.9/bits/stl_iterator.h ****    *  These are output iterators, constructed from a container-of-T.
 577:/usr/include/c++/4.9/bits/stl_iterator.h ****    *  Assigning a T to the iterator inserts it in the container at the
 578:/usr/include/c++/4.9/bits/stl_iterator.h ****    *  %iterator's position, rather than overwriting the value at that
 579:/usr/include/c++/4.9/bits/stl_iterator.h ****    *  position.
 580:/usr/include/c++/4.9/bits/stl_iterator.h ****    *
 581:/usr/include/c++/4.9/bits/stl_iterator.h ****    *  (Sequences will actually insert a @e copy of the value before the
 582:/usr/include/c++/4.9/bits/stl_iterator.h ****    *  %iterator's position.)
 583:/usr/include/c++/4.9/bits/stl_iterator.h ****    *
 584:/usr/include/c++/4.9/bits/stl_iterator.h ****    *  Tip:  Using the inserter function to create these iterators can
 585:/usr/include/c++/4.9/bits/stl_iterator.h ****    *  save typing.
 586:/usr/include/c++/4.9/bits/stl_iterator.h ****   */
 587:/usr/include/c++/4.9/bits/stl_iterator.h ****   template<typename _Container>
 588:/usr/include/c++/4.9/bits/stl_iterator.h ****     class insert_iterator
 589:/usr/include/c++/4.9/bits/stl_iterator.h ****     : public iterator<output_iterator_tag, void, void, void, void>
 590:/usr/include/c++/4.9/bits/stl_iterator.h ****     {
 591:/usr/include/c++/4.9/bits/stl_iterator.h ****     protected:
 592:/usr/include/c++/4.9/bits/stl_iterator.h ****       _Container* container;
 593:/usr/include/c++/4.9/bits/stl_iterator.h ****       typename _Container::iterator iter;
 594:/usr/include/c++/4.9/bits/stl_iterator.h **** 
 595:/usr/include/c++/4.9/bits/stl_iterator.h ****     public:
 596:/usr/include/c++/4.9/bits/stl_iterator.h ****       /// A nested typedef for the type of whatever container you used.
 597:/usr/include/c++/4.9/bits/stl_iterator.h ****       typedef _Container          container_type;
 598:/usr/include/c++/4.9/bits/stl_iterator.h **** 
 599:/usr/include/c++/4.9/bits/stl_iterator.h ****       /**
 600:/usr/include/c++/4.9/bits/stl_iterator.h ****        *  The only way to create this %iterator is with a container and an
 601:/usr/include/c++/4.9/bits/stl_iterator.h ****        *  initial position (a normal %iterator into the container).
 602:/usr/include/c++/4.9/bits/stl_iterator.h ****       */
 603:/usr/include/c++/4.9/bits/stl_iterator.h ****       insert_iterator(_Container& __x, typename _Container::iterator __i)
 604:/usr/include/c++/4.9/bits/stl_iterator.h ****       : container(&__x), iter(__i) {}
 605:/usr/include/c++/4.9/bits/stl_iterator.h **** 
 606:/usr/include/c++/4.9/bits/stl_iterator.h ****       /**
 607:/usr/include/c++/4.9/bits/stl_iterator.h ****        *  @param  __value  An instance of whatever type
 608:/usr/include/c++/4.9/bits/stl_iterator.h ****        *                 container_type::const_reference is; presumably a
 609:/usr/include/c++/4.9/bits/stl_iterator.h ****        *                 reference-to-const T for container<T>.
 610:/usr/include/c++/4.9/bits/stl_iterator.h ****        *  @return  This %iterator, for chained operations.
 611:/usr/include/c++/4.9/bits/stl_iterator.h ****        *
 612:/usr/include/c++/4.9/bits/stl_iterator.h ****        *  This kind of %iterator maintains its own position in the
 613:/usr/include/c++/4.9/bits/stl_iterator.h ****        *  container.  Assigning a value to the %iterator will insert the
 614:/usr/include/c++/4.9/bits/stl_iterator.h ****        *  value into the container at the place before the %iterator.
 615:/usr/include/c++/4.9/bits/stl_iterator.h ****        *
 616:/usr/include/c++/4.9/bits/stl_iterator.h ****        *  The position is maintained such that subsequent assignments will
 617:/usr/include/c++/4.9/bits/stl_iterator.h ****        *  insert values immediately after one another.  For example,
 618:/usr/include/c++/4.9/bits/stl_iterator.h ****        *  @code
 619:/usr/include/c++/4.9/bits/stl_iterator.h ****        *     // vector v contains A and Z
 620:/usr/include/c++/4.9/bits/stl_iterator.h ****        *
 621:/usr/include/c++/4.9/bits/stl_iterator.h ****        *     insert_iterator i (v, ++v.begin());
 622:/usr/include/c++/4.9/bits/stl_iterator.h ****        *     i = 1;
 623:/usr/include/c++/4.9/bits/stl_iterator.h ****        *     i = 2;
 624:/usr/include/c++/4.9/bits/stl_iterator.h ****        *     i = 3;
 625:/usr/include/c++/4.9/bits/stl_iterator.h ****        *
 626:/usr/include/c++/4.9/bits/stl_iterator.h ****        *     // vector v contains A, 1, 2, 3, and Z
 627:/usr/include/c++/4.9/bits/stl_iterator.h ****        *  @endcode
 628:/usr/include/c++/4.9/bits/stl_iterator.h ****       */
 629:/usr/include/c++/4.9/bits/stl_iterator.h **** #if __cplusplus < 201103L
 630:/usr/include/c++/4.9/bits/stl_iterator.h ****       insert_iterator&
 631:/usr/include/c++/4.9/bits/stl_iterator.h ****       operator=(typename _Container::const_reference __value)
 632:/usr/include/c++/4.9/bits/stl_iterator.h ****       {
 633:/usr/include/c++/4.9/bits/stl_iterator.h **** 	iter = container->insert(iter, __value);
 634:/usr/include/c++/4.9/bits/stl_iterator.h **** 	++iter;
 635:/usr/include/c++/4.9/bits/stl_iterator.h **** 	return *this;
 636:/usr/include/c++/4.9/bits/stl_iterator.h ****       }
 637:/usr/include/c++/4.9/bits/stl_iterator.h **** #else
 638:/usr/include/c++/4.9/bits/stl_iterator.h ****       insert_iterator&
 639:/usr/include/c++/4.9/bits/stl_iterator.h ****       operator=(const typename _Container::value_type& __value)
 640:/usr/include/c++/4.9/bits/stl_iterator.h ****       {
 641:/usr/include/c++/4.9/bits/stl_iterator.h **** 	iter = container->insert(iter, __value);
 642:/usr/include/c++/4.9/bits/stl_iterator.h **** 	++iter;
 643:/usr/include/c++/4.9/bits/stl_iterator.h **** 	return *this;
 644:/usr/include/c++/4.9/bits/stl_iterator.h ****       }
 645:/usr/include/c++/4.9/bits/stl_iterator.h **** 
 646:/usr/include/c++/4.9/bits/stl_iterator.h ****       insert_iterator&
 647:/usr/include/c++/4.9/bits/stl_iterator.h ****       operator=(typename _Container::value_type&& __value)
 648:/usr/include/c++/4.9/bits/stl_iterator.h ****       {
 649:/usr/include/c++/4.9/bits/stl_iterator.h **** 	iter = container->insert(iter, std::move(__value));
 650:/usr/include/c++/4.9/bits/stl_iterator.h **** 	++iter;
 651:/usr/include/c++/4.9/bits/stl_iterator.h **** 	return *this;
 652:/usr/include/c++/4.9/bits/stl_iterator.h ****       }
 653:/usr/include/c++/4.9/bits/stl_iterator.h **** #endif
 654:/usr/include/c++/4.9/bits/stl_iterator.h **** 
 655:/usr/include/c++/4.9/bits/stl_iterator.h ****       /// Simply returns *this.
 656:/usr/include/c++/4.9/bits/stl_iterator.h ****       insert_iterator&
 657:/usr/include/c++/4.9/bits/stl_iterator.h ****       operator*()
 658:/usr/include/c++/4.9/bits/stl_iterator.h ****       { return *this; }
 659:/usr/include/c++/4.9/bits/stl_iterator.h **** 
 660:/usr/include/c++/4.9/bits/stl_iterator.h ****       /// Simply returns *this.  (This %iterator does not @a move.)
 661:/usr/include/c++/4.9/bits/stl_iterator.h ****       insert_iterator&
 662:/usr/include/c++/4.9/bits/stl_iterator.h ****       operator++()
 663:/usr/include/c++/4.9/bits/stl_iterator.h ****       { return *this; }
 664:/usr/include/c++/4.9/bits/stl_iterator.h **** 
 665:/usr/include/c++/4.9/bits/stl_iterator.h ****       /// Simply returns *this.  (This %iterator does not @a move.)
 666:/usr/include/c++/4.9/bits/stl_iterator.h ****       insert_iterator&
 667:/usr/include/c++/4.9/bits/stl_iterator.h ****       operator++(int)
 668:/usr/include/c++/4.9/bits/stl_iterator.h ****       { return *this; }
 669:/usr/include/c++/4.9/bits/stl_iterator.h ****     };
 670:/usr/include/c++/4.9/bits/stl_iterator.h **** 
 671:/usr/include/c++/4.9/bits/stl_iterator.h ****   /**
 672:/usr/include/c++/4.9/bits/stl_iterator.h ****    *  @param __x  A container of arbitrary type.
 673:/usr/include/c++/4.9/bits/stl_iterator.h ****    *  @return  An instance of insert_iterator working on @p __x.
 674:/usr/include/c++/4.9/bits/stl_iterator.h ****    *
 675:/usr/include/c++/4.9/bits/stl_iterator.h ****    *  This wrapper function helps in creating insert_iterator instances.
 676:/usr/include/c++/4.9/bits/stl_iterator.h ****    *  Typing the name of the %iterator requires knowing the precise full
 677:/usr/include/c++/4.9/bits/stl_iterator.h ****    *  type of the container, which can be tedious and impedes generic
 678:/usr/include/c++/4.9/bits/stl_iterator.h ****    *  programming.  Using this function lets you take advantage of automatic
 679:/usr/include/c++/4.9/bits/stl_iterator.h ****    *  template parameter deduction, making the compiler match the correct
 680:/usr/include/c++/4.9/bits/stl_iterator.h ****    *  types for you.
 681:/usr/include/c++/4.9/bits/stl_iterator.h ****   */
 682:/usr/include/c++/4.9/bits/stl_iterator.h ****   template<typename _Container, typename _Iterator>
 683:/usr/include/c++/4.9/bits/stl_iterator.h ****     inline insert_iterator<_Container>
 684:/usr/include/c++/4.9/bits/stl_iterator.h ****     inserter(_Container& __x, _Iterator __i)
 685:/usr/include/c++/4.9/bits/stl_iterator.h ****     {
 686:/usr/include/c++/4.9/bits/stl_iterator.h ****       return insert_iterator<_Container>(__x,
 687:/usr/include/c++/4.9/bits/stl_iterator.h **** 					 typename _Container::iterator(__i));
 688:/usr/include/c++/4.9/bits/stl_iterator.h ****     }
 689:/usr/include/c++/4.9/bits/stl_iterator.h **** 
 690:/usr/include/c++/4.9/bits/stl_iterator.h ****   // @} group iterators
 691:/usr/include/c++/4.9/bits/stl_iterator.h **** 
 692:/usr/include/c++/4.9/bits/stl_iterator.h **** _GLIBCXX_END_NAMESPACE_VERSION
 693:/usr/include/c++/4.9/bits/stl_iterator.h **** } // namespace
 694:/usr/include/c++/4.9/bits/stl_iterator.h **** 
 695:/usr/include/c++/4.9/bits/stl_iterator.h **** namespace __gnu_cxx _GLIBCXX_VISIBILITY(default)
 696:/usr/include/c++/4.9/bits/stl_iterator.h **** {
 697:/usr/include/c++/4.9/bits/stl_iterator.h **** _GLIBCXX_BEGIN_NAMESPACE_VERSION
 698:/usr/include/c++/4.9/bits/stl_iterator.h **** 
 699:/usr/include/c++/4.9/bits/stl_iterator.h ****   // This iterator adapter is @a normal in the sense that it does not
 700:/usr/include/c++/4.9/bits/stl_iterator.h ****   // change the semantics of any of the operators of its iterator
 701:/usr/include/c++/4.9/bits/stl_iterator.h ****   // parameter.  Its primary purpose is to convert an iterator that is
 702:/usr/include/c++/4.9/bits/stl_iterator.h ****   // not a class, e.g. a pointer, into an iterator that is a class.
 703:/usr/include/c++/4.9/bits/stl_iterator.h ****   // The _Container parameter exists solely so that different containers
 704:/usr/include/c++/4.9/bits/stl_iterator.h ****   // using this template can instantiate different types, even if the
 705:/usr/include/c++/4.9/bits/stl_iterator.h ****   // _Iterator parameter is the same.
 706:/usr/include/c++/4.9/bits/stl_iterator.h ****   using std::iterator_traits;
 707:/usr/include/c++/4.9/bits/stl_iterator.h ****   using std::iterator;
 708:/usr/include/c++/4.9/bits/stl_iterator.h ****   template<typename _Iterator, typename _Container>
 709:/usr/include/c++/4.9/bits/stl_iterator.h ****     class __normal_iterator
 710:/usr/include/c++/4.9/bits/stl_iterator.h ****     {
 711:/usr/include/c++/4.9/bits/stl_iterator.h ****     protected:
 712:/usr/include/c++/4.9/bits/stl_iterator.h ****       _Iterator _M_current;
 713:/usr/include/c++/4.9/bits/stl_iterator.h **** 
 714:/usr/include/c++/4.9/bits/stl_iterator.h ****       typedef iterator_traits<_Iterator>		__traits_type;
 715:/usr/include/c++/4.9/bits/stl_iterator.h **** 
 716:/usr/include/c++/4.9/bits/stl_iterator.h ****     public:
 717:/usr/include/c++/4.9/bits/stl_iterator.h ****       typedef _Iterator					iterator_type;
 718:/usr/include/c++/4.9/bits/stl_iterator.h ****       typedef typename __traits_type::iterator_category iterator_category;
 719:/usr/include/c++/4.9/bits/stl_iterator.h ****       typedef typename __traits_type::value_type  	value_type;
 720:/usr/include/c++/4.9/bits/stl_iterator.h ****       typedef typename __traits_type::difference_type 	difference_type;
 721:/usr/include/c++/4.9/bits/stl_iterator.h ****       typedef typename __traits_type::reference 	reference;
 722:/usr/include/c++/4.9/bits/stl_iterator.h ****       typedef typename __traits_type::pointer   	pointer;
 723:/usr/include/c++/4.9/bits/stl_iterator.h **** 
 724:/usr/include/c++/4.9/bits/stl_iterator.h ****       _GLIBCXX_CONSTEXPR __normal_iterator() _GLIBCXX_NOEXCEPT
 725:/usr/include/c++/4.9/bits/stl_iterator.h ****       : _M_current(_Iterator()) { }
 726:/usr/include/c++/4.9/bits/stl_iterator.h **** 
 727:/usr/include/c++/4.9/bits/stl_iterator.h ****       explicit
 728:/usr/include/c++/4.9/bits/stl_iterator.h ****       __normal_iterator(const _Iterator& __i) _GLIBCXX_NOEXCEPT
 729:/usr/include/c++/4.9/bits/stl_iterator.h ****       : _M_current(__i) { }
 730:/usr/include/c++/4.9/bits/stl_iterator.h **** 
 731:/usr/include/c++/4.9/bits/stl_iterator.h ****       // Allow iterator to const_iterator conversion
 732:/usr/include/c++/4.9/bits/stl_iterator.h ****       template<typename _Iter>
 733:/usr/include/c++/4.9/bits/stl_iterator.h ****         __normal_iterator(const __normal_iterator<_Iter,
 734:/usr/include/c++/4.9/bits/stl_iterator.h **** 			  typename __enable_if<
 735:/usr/include/c++/4.9/bits/stl_iterator.h ****       	       (std::__are_same<_Iter, typename _Container::pointer>::__value),
 736:/usr/include/c++/4.9/bits/stl_iterator.h **** 		      _Container>::__type>& __i) _GLIBCXX_NOEXCEPT
 737:/usr/include/c++/4.9/bits/stl_iterator.h ****         : _M_current(__i.base()) { }
 738:/usr/include/c++/4.9/bits/stl_iterator.h **** 
 739:/usr/include/c++/4.9/bits/stl_iterator.h ****       // Forward iterator requirements
 740:/usr/include/c++/4.9/bits/stl_iterator.h ****       reference
 741:/usr/include/c++/4.9/bits/stl_iterator.h ****       operator*() const _GLIBCXX_NOEXCEPT
 742:/usr/include/c++/4.9/bits/stl_iterator.h ****       { return *_M_current; }
 743:/usr/include/c++/4.9/bits/stl_iterator.h **** 
 744:/usr/include/c++/4.9/bits/stl_iterator.h ****       pointer
 745:/usr/include/c++/4.9/bits/stl_iterator.h ****       operator->() const _GLIBCXX_NOEXCEPT
 746:/usr/include/c++/4.9/bits/stl_iterator.h ****       { return _M_current; }
 747:/usr/include/c++/4.9/bits/stl_iterator.h **** 
 748:/usr/include/c++/4.9/bits/stl_iterator.h ****       __normal_iterator&
 749:/usr/include/c++/4.9/bits/stl_iterator.h ****       operator++() _GLIBCXX_NOEXCEPT
 750:/usr/include/c++/4.9/bits/stl_iterator.h ****       {
 751:/usr/include/c++/4.9/bits/stl_iterator.h **** 	++_M_current;
 752:/usr/include/c++/4.9/bits/stl_iterator.h **** 	return *this;
 753:/usr/include/c++/4.9/bits/stl_iterator.h ****       }
 754:/usr/include/c++/4.9/bits/stl_iterator.h **** 
 755:/usr/include/c++/4.9/bits/stl_iterator.h ****       __normal_iterator
 756:/usr/include/c++/4.9/bits/stl_iterator.h ****       operator++(int) _GLIBCXX_NOEXCEPT
 757:/usr/include/c++/4.9/bits/stl_iterator.h ****       { return __normal_iterator(_M_current++); }
 758:/usr/include/c++/4.9/bits/stl_iterator.h **** 
 759:/usr/include/c++/4.9/bits/stl_iterator.h ****       // Bidirectional iterator requirements
 760:/usr/include/c++/4.9/bits/stl_iterator.h ****       __normal_iterator&
 761:/usr/include/c++/4.9/bits/stl_iterator.h ****       operator--() _GLIBCXX_NOEXCEPT
 762:/usr/include/c++/4.9/bits/stl_iterator.h ****       {
 763:/usr/include/c++/4.9/bits/stl_iterator.h **** 	--_M_current;
 764:/usr/include/c++/4.9/bits/stl_iterator.h **** 	return *this;
 765:/usr/include/c++/4.9/bits/stl_iterator.h ****       }
 766:/usr/include/c++/4.9/bits/stl_iterator.h **** 
 767:/usr/include/c++/4.9/bits/stl_iterator.h ****       __normal_iterator
 768:/usr/include/c++/4.9/bits/stl_iterator.h ****       operator--(int) _GLIBCXX_NOEXCEPT
 769:/usr/include/c++/4.9/bits/stl_iterator.h ****       { return __normal_iterator(_M_current--); }
 770:/usr/include/c++/4.9/bits/stl_iterator.h **** 
 771:/usr/include/c++/4.9/bits/stl_iterator.h ****       // Random access iterator requirements
 772:/usr/include/c++/4.9/bits/stl_iterator.h ****       reference
 773:/usr/include/c++/4.9/bits/stl_iterator.h ****       operator[](difference_type __n) const _GLIBCXX_NOEXCEPT
 774:/usr/include/c++/4.9/bits/stl_iterator.h ****       { return _M_current[__n]; }
 775:/usr/include/c++/4.9/bits/stl_iterator.h **** 
 776:/usr/include/c++/4.9/bits/stl_iterator.h ****       __normal_iterator&
 777:/usr/include/c++/4.9/bits/stl_iterator.h ****       operator+=(difference_type __n) _GLIBCXX_NOEXCEPT
 778:/usr/include/c++/4.9/bits/stl_iterator.h ****       { _M_current += __n; return *this; }
 779:/usr/include/c++/4.9/bits/stl_iterator.h **** 
 780:/usr/include/c++/4.9/bits/stl_iterator.h ****       __normal_iterator
 781:/usr/include/c++/4.9/bits/stl_iterator.h ****       operator+(difference_type __n) const _GLIBCXX_NOEXCEPT
 782:/usr/include/c++/4.9/bits/stl_iterator.h ****       { return __normal_iterator(_M_current + __n); }
 783:/usr/include/c++/4.9/bits/stl_iterator.h **** 
 784:/usr/include/c++/4.9/bits/stl_iterator.h ****       __normal_iterator&
 785:/usr/include/c++/4.9/bits/stl_iterator.h ****       operator-=(difference_type __n) _GLIBCXX_NOEXCEPT
 786:/usr/include/c++/4.9/bits/stl_iterator.h ****       { _M_current -= __n; return *this; }
 787:/usr/include/c++/4.9/bits/stl_iterator.h **** 
 788:/usr/include/c++/4.9/bits/stl_iterator.h ****       __normal_iterator
 789:/usr/include/c++/4.9/bits/stl_iterator.h ****       operator-(difference_type __n) const _GLIBCXX_NOEXCEPT
 790:/usr/include/c++/4.9/bits/stl_iterator.h ****       { return __normal_iterator(_M_current - __n); }
 791:/usr/include/c++/4.9/bits/stl_iterator.h **** 
 792:/usr/include/c++/4.9/bits/stl_iterator.h ****       const _Iterator&
 793:/usr/include/c++/4.9/bits/stl_iterator.h ****       base() const _GLIBCXX_NOEXCEPT
 794:/usr/include/c++/4.9/bits/stl_iterator.h ****       { return _M_current; }
 795:/usr/include/c++/4.9/bits/stl_iterator.h ****     };
 796:/usr/include/c++/4.9/bits/stl_iterator.h **** 
 797:/usr/include/c++/4.9/bits/stl_iterator.h ****   // Note: In what follows, the left- and right-hand-side iterators are
 798:/usr/include/c++/4.9/bits/stl_iterator.h ****   // allowed to vary in types (conceptually in cv-qualification) so that
 799:/usr/include/c++/4.9/bits/stl_iterator.h ****   // comparison between cv-qualified and non-cv-qualified iterators be
 800:/usr/include/c++/4.9/bits/stl_iterator.h ****   // valid.  However, the greedy and unfriendly operators in std::rel_ops
 801:/usr/include/c++/4.9/bits/stl_iterator.h ****   // will make overload resolution ambiguous (when in scope) if we don't
 802:/usr/include/c++/4.9/bits/stl_iterator.h ****   // provide overloads whose operands are of the same type.  Can someone
 803:/usr/include/c++/4.9/bits/stl_iterator.h ****   // remind me what generic programming is about? -- Gaby
 804:/usr/include/c++/4.9/bits/stl_iterator.h **** 
 805:/usr/include/c++/4.9/bits/stl_iterator.h ****   // Forward iterator requirements
 806:/usr/include/c++/4.9/bits/stl_iterator.h ****   template<typename _IteratorL, typename _IteratorR, typename _Container>
 807:/usr/include/c++/4.9/bits/stl_iterator.h ****     inline bool
 808:/usr/include/c++/4.9/bits/stl_iterator.h ****     operator==(const __normal_iterator<_IteratorL, _Container>& __lhs,
 809:/usr/include/c++/4.9/bits/stl_iterator.h **** 	       const __normal_iterator<_IteratorR, _Container>& __rhs)
 810:/usr/include/c++/4.9/bits/stl_iterator.h ****     _GLIBCXX_NOEXCEPT
 811:/usr/include/c++/4.9/bits/stl_iterator.h ****     { return __lhs.base() == __rhs.base(); }
 812:/usr/include/c++/4.9/bits/stl_iterator.h **** 
 813:/usr/include/c++/4.9/bits/stl_iterator.h ****   template<typename _Iterator, typename _Container>
 814:/usr/include/c++/4.9/bits/stl_iterator.h ****     inline bool
 815:/usr/include/c++/4.9/bits/stl_iterator.h ****     operator==(const __normal_iterator<_Iterator, _Container>& __lhs,
 816:/usr/include/c++/4.9/bits/stl_iterator.h **** 	       const __normal_iterator<_Iterator, _Container>& __rhs)
 817:/usr/include/c++/4.9/bits/stl_iterator.h ****     _GLIBCXX_NOEXCEPT
 818:/usr/include/c++/4.9/bits/stl_iterator.h ****     { return __lhs.base() == __rhs.base(); }
 819:/usr/include/c++/4.9/bits/stl_iterator.h **** 
 820:/usr/include/c++/4.9/bits/stl_iterator.h ****   template<typename _IteratorL, typename _IteratorR, typename _Container>
 821:/usr/include/c++/4.9/bits/stl_iterator.h ****     inline bool
 822:/usr/include/c++/4.9/bits/stl_iterator.h ****     operator!=(const __normal_iterator<_IteratorL, _Container>& __lhs,
 823:/usr/include/c++/4.9/bits/stl_iterator.h **** 	       const __normal_iterator<_IteratorR, _Container>& __rhs)
 824:/usr/include/c++/4.9/bits/stl_iterator.h ****     _GLIBCXX_NOEXCEPT
 825:/usr/include/c++/4.9/bits/stl_iterator.h ****     { return __lhs.base() != __rhs.base(); }
 826:/usr/include/c++/4.9/bits/stl_iterator.h **** 
 827:/usr/include/c++/4.9/bits/stl_iterator.h ****   template<typename _Iterator, typename _Container>
 828:/usr/include/c++/4.9/bits/stl_iterator.h ****     inline bool
 829:/usr/include/c++/4.9/bits/stl_iterator.h ****     operator!=(const __normal_iterator<_Iterator, _Container>& __lhs,
 1692              		.loc 5 829 0
 1693              		.cfi_startproc
 1694 0000 55       		pushq	%rbp
 1695              		.cfi_def_cfa_offset 16
 1696              		.cfi_offset 6, -16
 1697 0001 4889E5   		movq	%rsp, %rbp
 1698              		.cfi_def_cfa_register 6
 1699 0004 53       		pushq	%rbx
 1700 0005 4883EC18 		subq	$24, %rsp
 1701              		.cfi_offset 3, -24
 1702 0009 48897DE8 		movq	%rdi, -24(%rbp)
 1703 000d 488975E0 		movq	%rsi, -32(%rbp)
 830:/usr/include/c++/4.9/bits/stl_iterator.h **** 	       const __normal_iterator<_Iterator, _Container>& __rhs)
 831:/usr/include/c++/4.9/bits/stl_iterator.h ****     _GLIBCXX_NOEXCEPT
 832:/usr/include/c++/4.9/bits/stl_iterator.h ****     { return __lhs.base() != __rhs.base(); }
 1704              		.loc 5 832 0
 1705 0011 488B45E8 		movq	-24(%rbp), %rax
 1706 0015 4889C7   		movq	%rax, %rdi
 1707 0018 E8000000 		call	_ZNK9__gnu_cxx17__normal_iteratorIPKN8UnitTest18DeferredTestResultESt6vectorIS2_SaIS2_EEE4bas
 1707      00
 1708 001d 488B18   		movq	(%rax), %rbx
 1709 0020 488B45E0 		movq	-32(%rbp), %rax
 1710 0024 4889C7   		movq	%rax, %rdi
 1711 0027 E8000000 		call	_ZNK9__gnu_cxx17__normal_iteratorIPKN8UnitTest18DeferredTestResultESt6vectorIS2_SaIS2_EEE4bas
 1711      00
 1712 002c 488B00   		movq	(%rax), %rax
 1713 002f 4839C3   		cmpq	%rax, %rbx
 1714 0032 0F95C0   		setne	%al
 1715 0035 4883C418 		addq	$24, %rsp
 1716 0039 5B       		popq	%rbx
 1717 003a 5D       		popq	%rbp
 1718              		.cfi_def_cfa 7, 8
 1719 003b C3       		ret
 1720              		.cfi_endproc
 1721              	.LFE1377:
 1723              		.section	.text._ZN9__gnu_cxx17__normal_iteratorIPKN8UnitTest18DeferredTestResultESt6vectorIS2_SaIS
 1724              		.align 2
 1725              		.weak	_ZN9__gnu_cxx17__normal_iteratorIPKN8UnitTest18DeferredTestResultESt6vectorIS2_SaIS2_EEEppEv
 1727              	_ZN9__gnu_cxx17__normal_iteratorIPKN8UnitTest18DeferredTestResultESt6vectorIS2_SaIS2_EEEppEv:
 1728              	.LFB1378:
 749:/usr/include/c++/4.9/bits/stl_iterator.h ****       {
 1729              		.loc 5 749 0
 1730              		.cfi_startproc
 1731 0000 55       		pushq	%rbp
 1732              		.cfi_def_cfa_offset 16
 1733              		.cfi_offset 6, -16
 1734 0001 4889E5   		movq	%rsp, %rbp
 1735              		.cfi_def_cfa_register 6
 1736 0004 48897DF8 		movq	%rdi, -8(%rbp)
 751:/usr/include/c++/4.9/bits/stl_iterator.h **** 	return *this;
 1737              		.loc 5 751 0
 1738 0008 488B45F8 		movq	-8(%rbp), %rax
 1739 000c 488B00   		movq	(%rax), %rax
 1740 000f 488D5038 		leaq	56(%rax), %rdx
 1741 0013 488B45F8 		movq	-8(%rbp), %rax
 1742 0017 488910   		movq	%rdx, (%rax)
 752:/usr/include/c++/4.9/bits/stl_iterator.h ****       }
 1743              		.loc 5 752 0
 1744 001a 488B45F8 		movq	-8(%rbp), %rax
 753:/usr/include/c++/4.9/bits/stl_iterator.h **** 
 1745              		.loc 5 753 0
 1746 001e 5D       		popq	%rbp
 1747              		.cfi_def_cfa 7, 8
 1748 001f C3       		ret
 1749              		.cfi_endproc
 1750              	.LFE1378:
 1752              		.section	.text._ZNK9__gnu_cxx17__normal_iteratorIPKN8UnitTest18DeferredTestResultESt6vectorIS2_SaI
 1753              		.align 2
 1754              		.weak	_ZNK9__gnu_cxx17__normal_iteratorIPKN8UnitTest18DeferredTestResultESt6vectorIS2_SaIS2_EEEdeE
 1756              	_ZNK9__gnu_cxx17__normal_iteratorIPKN8UnitTest18DeferredTestResultESt6vectorIS2_SaIS2_EEEdeEv:
 1757              	.LFB1379:
 741:/usr/include/c++/4.9/bits/stl_iterator.h ****       { return *_M_current; }
 1758              		.loc 5 741 0
 1759              		.cfi_startproc
 1760 0000 55       		pushq	%rbp
 1761              		.cfi_def_cfa_offset 16
 1762              		.cfi_offset 6, -16
 1763 0001 4889E5   		movq	%rsp, %rbp
 1764              		.cfi_def_cfa_register 6
 1765 0004 48897DF8 		movq	%rdi, -8(%rbp)
 742:/usr/include/c++/4.9/bits/stl_iterator.h **** 
 1766              		.loc 5 742 0
 1767 0008 488B45F8 		movq	-8(%rbp), %rax
 1768 000c 488B00   		movq	(%rax), %rax
 1769 000f 5D       		popq	%rbp
 1770              		.cfi_def_cfa 7, 8
 1771 0010 C3       		ret
 1772              		.cfi_endproc
 1773              	.LFE1379:
 1775              		.section	.text._ZNK9__gnu_cxx17__normal_iteratorIPKN8UnitTest18DeferredTestResultESt6vectorIS2_SaI
 1776              		.align 2
 1777              		.weak	_ZNK9__gnu_cxx17__normal_iteratorIPKN8UnitTest18DeferredTestResultESt6vectorIS2_SaIS2_EEEptE
 1779              	_ZNK9__gnu_cxx17__normal_iteratorIPKN8UnitTest18DeferredTestResultESt6vectorIS2_SaIS2_EEEptEv:
 1780              	.LFB1380:
 745:/usr/include/c++/4.9/bits/stl_iterator.h ****       { return _M_current; }
 1781              		.loc 5 745 0
 1782              		.cfi_startproc
 1783 0000 55       		pushq	%rbp
 1784              		.cfi_def_cfa_offset 16
 1785              		.cfi_offset 6, -16
 1786 0001 4889E5   		movq	%rsp, %rbp
 1787              		.cfi_def_cfa_register 6
 1788 0004 48897DF8 		movq	%rdi, -8(%rbp)
 746:/usr/include/c++/4.9/bits/stl_iterator.h **** 
 1789              		.loc 5 746 0
 1790 0008 488B45F8 		movq	-8(%rbp), %rax
 1791 000c 488B00   		movq	(%rax), %rax
 1792 000f 5D       		popq	%rbp
 1793              		.cfi_def_cfa 7, 8
 1794 0010 C3       		ret
 1795              		.cfi_endproc
 1796              	.LFE1380:
 1798              		.section	.text._ZNKSt6vectorISt4pairIiSsESaIS1_EE5beginEv,"axG",@progbits,_ZNKSt6vectorISt4pairIiS
 1799              		.align 2
 1800              		.weak	_ZNKSt6vectorISt4pairIiSsESaIS1_EE5beginEv
 1802              	_ZNKSt6vectorISt4pairIiSsESaIS1_EE5beginEv:
 1803              	.LFB1382:
 556:/usr/include/c++/4.9/bits/stl_vector.h ****       { return const_iterator(this->_M_impl._M_start); }
 1804              		.loc 4 556 0
 1805              		.cfi_startproc
 1806 0000 55       		pushq	%rbp
 1807              		.cfi_def_cfa_offset 16
 1808              		.cfi_offset 6, -16
 1809 0001 4889E5   		movq	%rsp, %rbp
 1810              		.cfi_def_cfa_register 6
 1811 0004 4883EC30 		subq	$48, %rsp
 1812 0008 48897DD8 		movq	%rdi, -40(%rbp)
 556:/usr/include/c++/4.9/bits/stl_vector.h ****       { return const_iterator(this->_M_impl._M_start); }
 1813              		.loc 4 556 0
 1814 000c 64488B04 		movq	%fs:40, %rax
 1814      25280000 
 1814      00
 1815 0015 488945F8 		movq	%rax, -8(%rbp)
 1816 0019 31C0     		xorl	%eax, %eax
 557:/usr/include/c++/4.9/bits/stl_vector.h **** 
 1817              		.loc 4 557 0
 1818 001b 488B45D8 		movq	-40(%rbp), %rax
 1819 001f 488B00   		movq	(%rax), %rax
 1820 0022 488945F0 		movq	%rax, -16(%rbp)
 1821 0026 488D55F0 		leaq	-16(%rbp), %rdx
 1822 002a 488D45E0 		leaq	-32(%rbp), %rax
 1823 002e 4889D6   		movq	%rdx, %rsi
 1824 0031 4889C7   		movq	%rax, %rdi
 1825 0034 E8000000 		call	_ZN9__gnu_cxx17__normal_iteratorIPKSt4pairIiSsESt6vectorIS2_SaIS2_EEEC1ERKS4_@PLT
 1825      00
 1826 0039 488B45E0 		movq	-32(%rbp), %rax
 1827 003d 488B4DF8 		movq	-8(%rbp), %rcx
 1828 0041 6448330C 		xorq	%fs:40, %rcx
 1828      25280000 
 1828      00
 1829 004a 7405     		je	.L93
 1830 004c E8000000 		call	__stack_chk_fail@PLT
 1830      00
 1831              	.L93:
 1832 0051 C9       		leave
 1833              		.cfi_def_cfa 7, 8
 1834 0052 C3       		ret
 1835              		.cfi_endproc
 1836              	.LFE1382:
 1838              		.section	.text._ZNKSt6vectorISt4pairIiSsESaIS1_EE3endEv,"axG",@progbits,_ZNKSt6vectorISt4pairIiSsE
 1839              		.align 2
 1840              		.weak	_ZNKSt6vectorISt4pairIiSsESaIS1_EE3endEv
 1842              	_ZNKSt6vectorISt4pairIiSsESaIS1_EE3endEv:
 1843              	.LFB1383:
 574:/usr/include/c++/4.9/bits/stl_vector.h ****       { return const_iterator(this->_M_impl._M_finish); }
 1844              		.loc 4 574 0
 1845              		.cfi_startproc
 1846 0000 55       		pushq	%rbp
 1847              		.cfi_def_cfa_offset 16
 1848              		.cfi_offset 6, -16
 1849 0001 4889E5   		movq	%rsp, %rbp
 1850              		.cfi_def_cfa_register 6
 1851 0004 4883EC30 		subq	$48, %rsp
 1852 0008 48897DD8 		movq	%rdi, -40(%rbp)
 574:/usr/include/c++/4.9/bits/stl_vector.h ****       { return const_iterator(this->_M_impl._M_finish); }
 1853              		.loc 4 574 0
 1854 000c 64488B04 		movq	%fs:40, %rax
 1854      25280000 
 1854      00
 1855 0015 488945F8 		movq	%rax, -8(%rbp)
 1856 0019 31C0     		xorl	%eax, %eax
 1857              		.loc 4 575 0
 1858 001b 488B45D8 		movq	-40(%rbp), %rax
 1859 001f 488B4008 		movq	8(%rax), %rax
 1860 0023 488945F0 		movq	%rax, -16(%rbp)
 1861 0027 488D55F0 		leaq	-16(%rbp), %rdx
 1862 002b 488D45E0 		leaq	-32(%rbp), %rax
 1863 002f 4889D6   		movq	%rdx, %rsi
 1864 0032 4889C7   		movq	%rax, %rdi
 1865 0035 E8000000 		call	_ZN9__gnu_cxx17__normal_iteratorIPKSt4pairIiSsESt6vectorIS2_SaIS2_EEEC1ERKS4_@PLT
 1865      00
 1866 003a 488B45E0 		movq	-32(%rbp), %rax
 1867 003e 488B4DF8 		movq	-8(%rbp), %rcx
 1868 0042 6448330C 		xorq	%fs:40, %rcx
 1868      25280000 
 1868      00
 1869 004b 7405     		je	.L96
 1870 004d E8000000 		call	__stack_chk_fail@PLT
 1870      00
 1871              	.L96:
 1872 0052 C9       		leave
 1873              		.cfi_def_cfa 7, 8
 1874 0053 C3       		ret
 1875              		.cfi_endproc
 1876              	.LFE1383:
 1878              		.section	.text._ZN9__gnu_cxxneIPKSt4pairIiSsESt6vectorIS2_SaIS2_EEEEbRKNS_17__normal_iteratorIT_T0
 1879              		.weak	_ZN9__gnu_cxxneIPKSt4pairIiSsESt6vectorIS2_SaIS2_EEEEbRKNS_17__normal_iteratorIT_T0_EESD_
 1881              	_ZN9__gnu_cxxneIPKSt4pairIiSsESt6vectorIS2_SaIS2_EEEEbRKNS_17__normal_iteratorIT_T0_EESD_:
 1882              	.LFB1384:
 829:/usr/include/c++/4.9/bits/stl_iterator.h **** 	       const __normal_iterator<_Iterator, _Container>& __rhs)
 1883              		.loc 5 829 0
 1884              		.cfi_startproc
 1885 0000 55       		pushq	%rbp
 1886              		.cfi_def_cfa_offset 16
 1887              		.cfi_offset 6, -16
 1888 0001 4889E5   		movq	%rsp, %rbp
 1889              		.cfi_def_cfa_register 6
 1890 0004 53       		pushq	%rbx
 1891 0005 4883EC18 		subq	$24, %rsp
 1892              		.cfi_offset 3, -24
 1893 0009 48897DE8 		movq	%rdi, -24(%rbp)
 1894 000d 488975E0 		movq	%rsi, -32(%rbp)
 1895              		.loc 5 832 0
 1896 0011 488B45E8 		movq	-24(%rbp), %rax
 1897 0015 4889C7   		movq	%rax, %rdi
 1898 0018 E8000000 		call	_ZNK9__gnu_cxx17__normal_iteratorIPKSt4pairIiSsESt6vectorIS2_SaIS2_EEE4baseEv@PLT
 1898      00
 1899 001d 488B18   		movq	(%rax), %rbx
 1900 0020 488B45E0 		movq	-32(%rbp), %rax
 1901 0024 4889C7   		movq	%rax, %rdi
 1902 0027 E8000000 		call	_ZNK9__gnu_cxx17__normal_iteratorIPKSt4pairIiSsESt6vectorIS2_SaIS2_EEE4baseEv@PLT
 1902      00
 1903 002c 488B00   		movq	(%rax), %rax
 1904 002f 4839C3   		cmpq	%rax, %rbx
 1905 0032 0F95C0   		setne	%al
 1906 0035 4883C418 		addq	$24, %rsp
 1907 0039 5B       		popq	%rbx
 1908 003a 5D       		popq	%rbp
 1909              		.cfi_def_cfa 7, 8
 1910 003b C3       		ret
 1911              		.cfi_endproc
 1912              	.LFE1384:
 1914              		.section	.text._ZN9__gnu_cxx17__normal_iteratorIPKSt4pairIiSsESt6vectorIS2_SaIS2_EEEppEv,"axG",@pr
 1915              		.align 2
 1916              		.weak	_ZN9__gnu_cxx17__normal_iteratorIPKSt4pairIiSsESt6vectorIS2_SaIS2_EEEppEv
 1918              	_ZN9__gnu_cxx17__normal_iteratorIPKSt4pairIiSsESt6vectorIS2_SaIS2_EEEppEv:
 1919              	.LFB1385:
 749:/usr/include/c++/4.9/bits/stl_iterator.h ****       {
 1920              		.loc 5 749 0
 1921              		.cfi_startproc
 1922 0000 55       		pushq	%rbp
 1923              		.cfi_def_cfa_offset 16
 1924              		.cfi_offset 6, -16
 1925 0001 4889E5   		movq	%rsp, %rbp
 1926              		.cfi_def_cfa_register 6
 1927 0004 48897DF8 		movq	%rdi, -8(%rbp)
 751:/usr/include/c++/4.9/bits/stl_iterator.h **** 	return *this;
 1928              		.loc 5 751 0
 1929 0008 488B45F8 		movq	-8(%rbp), %rax
 1930 000c 488B00   		movq	(%rax), %rax
 1931 000f 488D5010 		leaq	16(%rax), %rdx
 1932 0013 488B45F8 		movq	-8(%rbp), %rax
 1933 0017 488910   		movq	%rdx, (%rax)
 752:/usr/include/c++/4.9/bits/stl_iterator.h ****       }
 1934              		.loc 5 752 0
 1935 001a 488B45F8 		movq	-8(%rbp), %rax
 753:/usr/include/c++/4.9/bits/stl_iterator.h **** 
 1936              		.loc 5 753 0
 1937 001e 5D       		popq	%rbp
 1938              		.cfi_def_cfa 7, 8
 1939 001f C3       		ret
 1940              		.cfi_endproc
 1941              	.LFE1385:
 1943              		.section	.text._ZNK9__gnu_cxx17__normal_iteratorIPKSt4pairIiSsESt6vectorIS2_SaIS2_EEEptEv,"axG",@p
 1944              		.align 2
 1945              		.weak	_ZNK9__gnu_cxx17__normal_iteratorIPKSt4pairIiSsESt6vectorIS2_SaIS2_EEEptEv
 1947              	_ZNK9__gnu_cxx17__normal_iteratorIPKSt4pairIiSsESt6vectorIS2_SaIS2_EEEptEv:
 1948              	.LFB1386:
 745:/usr/include/c++/4.9/bits/stl_iterator.h ****       { return _M_current; }
 1949              		.loc 5 745 0
 1950              		.cfi_startproc
 1951 0000 55       		pushq	%rbp
 1952              		.cfi_def_cfa_offset 16
 1953              		.cfi_offset 6, -16
 1954 0001 4889E5   		movq	%rsp, %rbp
 1955              		.cfi_def_cfa_register 6
 1956 0004 48897DF8 		movq	%rdi, -8(%rbp)
 746:/usr/include/c++/4.9/bits/stl_iterator.h **** 
 1957              		.loc 5 746 0
 1958 0008 488B45F8 		movq	-8(%rbp), %rax
 1959 000c 488B00   		movq	(%rax), %rax
 1960 000f 5D       		popq	%rbp
 1961              		.cfi_def_cfa 7, 8
 1962 0010 C3       		ret
 1963              		.cfi_endproc
 1964              	.LFE1386:
 1966              		.section	.text._ZNSt12_Vector_baseIN8UnitTest18DeferredTestResultESaIS1_EE12_Vector_implD2Ev,"axG"
 1967              		.align 2
 1968              		.weak	_ZNSt12_Vector_baseIN8UnitTest18DeferredTestResultESaIS1_EE12_Vector_implD2Ev
 1970              	_ZNSt12_Vector_baseIN8UnitTest18DeferredTestResultESaIS1_EE12_Vector_implD2Ev:
 1971              	.LFB1426:
  79:/usr/include/c++/4.9/bits/stl_vector.h ****       : public _Tp_alloc_type
 1972              		.loc 4 79 0
 1973              		.cfi_startproc
 1974 0000 55       		pushq	%rbp
 1975              		.cfi_def_cfa_offset 16
 1976              		.cfi_offset 6, -16
 1977 0001 4889E5   		movq	%rsp, %rbp
 1978              		.cfi_def_cfa_register 6
 1979 0004 4883EC10 		subq	$16, %rsp
 1980 0008 48897DF8 		movq	%rdi, -8(%rbp)
 1981              	.LBB24:
  79:/usr/include/c++/4.9/bits/stl_vector.h ****       : public _Tp_alloc_type
 1982              		.loc 4 79 0
 1983 000c 488B45F8 		movq	-8(%rbp), %rax
 1984 0010 4889C7   		movq	%rax, %rdi
 1985 0013 E8000000 		call	_ZNSaIN8UnitTest18DeferredTestResultEED2Ev@PLT
 1985      00
 1986              	.LBE24:
 1987 0018 C9       		leave
 1988              		.cfi_def_cfa 7, 8
 1989 0019 C3       		ret
 1990              		.cfi_endproc
 1991              	.LFE1426:
 1993              		.weak	_ZNSt12_Vector_baseIN8UnitTest18DeferredTestResultESaIS1_EE12_Vector_implD1Ev
 1994              		.set	_ZNSt12_Vector_baseIN8UnitTest18DeferredTestResultESaIS1_EE12_Vector_implD1Ev,_ZNSt12_Vector_
 1995              		.section	.text._ZNSt12_Vector_baseIN8UnitTest18DeferredTestResultESaIS1_EEC2Ev,"axG",@progbits,_ZN
 1996              		.align 2
 1997              		.weak	_ZNSt12_Vector_baseIN8UnitTest18DeferredTestResultESaIS1_EEC2Ev
 1999              	_ZNSt12_Vector_baseIN8UnitTest18DeferredTestResultESaIS1_EEC2Ev:
 2000              	.LFB1428:
 124:/usr/include/c++/4.9/bits/stl_vector.h ****       : _M_impl() { }
 2001              		.loc 4 124 0
 2002              		.cfi_startproc
 2003 0000 55       		pushq	%rbp
 2004              		.cfi_def_cfa_offset 16
 2005              		.cfi_offset 6, -16
 2006 0001 4889E5   		movq	%rsp, %rbp
 2007              		.cfi_def_cfa_register 6
 2008 0004 4883EC10 		subq	$16, %rsp
 2009 0008 48897DF8 		movq	%rdi, -8(%rbp)
 2010              	.LBB25:
 125:/usr/include/c++/4.9/bits/stl_vector.h **** 
 2011              		.loc 4 125 0
 2012 000c 488B45F8 		movq	-8(%rbp), %rax
 2013 0010 4889C7   		movq	%rax, %rdi
 2014 0013 E8000000 		call	_ZNSt12_Vector_baseIN8UnitTest18DeferredTestResultESaIS1_EE12_Vector_implC1Ev@PLT
 2014      00
 2015              	.LBE25:
 2016 0018 C9       		leave
 2017              		.cfi_def_cfa 7, 8
 2018 0019 C3       		ret
 2019              		.cfi_endproc
 2020              	.LFE1428:
 2022              		.weak	_ZNSt12_Vector_baseIN8UnitTest18DeferredTestResultESaIS1_EEC1Ev
 2023              		.set	_ZNSt12_Vector_baseIN8UnitTest18DeferredTestResultESaIS1_EEC1Ev,_ZNSt12_Vector_baseIN8UnitTes
 2024              		.section	.text._ZNSt12_Vector_baseIN8UnitTest18DeferredTestResultESaIS1_EED2Ev,"axG",@progbits,_ZN
 2025              		.align 2
 2026              		.weak	_ZNSt12_Vector_baseIN8UnitTest18DeferredTestResultESaIS1_EED2Ev
 2028              	_ZNSt12_Vector_baseIN8UnitTest18DeferredTestResultESaIS1_EED2Ev:
 2029              	.LFB1431:
 159:/usr/include/c++/4.9/bits/stl_vector.h ****       { _M_deallocate(this->_M_impl._M_start, this->_M_impl._M_end_of_storage
 2030              		.loc 4 159 0
 2031              		.cfi_startproc
 2032              		.cfi_personality 0x9b,DW.ref.__gxx_personality_v0
 2033              		.cfi_lsda 0x1b,.LLSDA1431
 2034 0000 55       		pushq	%rbp
 2035              		.cfi_def_cfa_offset 16
 2036              		.cfi_offset 6, -16
 2037 0001 4889E5   		movq	%rsp, %rbp
 2038              		.cfi_def_cfa_register 6
 2039 0004 53       		pushq	%rbx
 2040 0005 4883EC18 		subq	$24, %rsp
 2041              		.cfi_offset 3, -24
 2042 0009 48897DE8 		movq	%rdi, -24(%rbp)
 2043              	.LBB26:
 161:/usr/include/c++/4.9/bits/stl_vector.h **** 
 2044              		.loc 4 161 0
 2045 000d 488B45E8 		movq	-24(%rbp), %rax
 2046 0011 488B4010 		movq	16(%rax), %rax
 2047 0015 4889C2   		movq	%rax, %rdx
 2048 0018 488B45E8 		movq	-24(%rbp), %rax
 2049 001c 488B00   		movq	(%rax), %rax
 2050 001f 4829C2   		subq	%rax, %rdx
 2051 0022 4889D0   		movq	%rdx, %rax
 2052 0025 48C1F803 		sarq	$3, %rax
 2053 0029 4889C2   		movq	%rax, %rdx
 2054 002c 48B8B76D 		movabsq	$7905747460161236407, %rax
 2054      DBB66DDB 
 2054      B66D
 2055 0036 480FAFC2 		imulq	%rdx, %rax
 2056 003a 4889C2   		movq	%rax, %rdx
 2057 003d 488B45E8 		movq	-24(%rbp), %rax
 2058 0041 488B08   		movq	(%rax), %rcx
 160:/usr/include/c++/4.9/bits/stl_vector.h **** 		      - this->_M_impl._M_start); }
 2059              		.loc 4 160 0
 2060 0044 488B45E8 		movq	-24(%rbp), %rax
 2061 0048 4889CE   		movq	%rcx, %rsi
 2062 004b 4889C7   		movq	%rax, %rdi
 2063              	.LEHB35:
 2064 004e E8000000 		call	_ZNSt12_Vector_baseIN8UnitTest18DeferredTestResultESaIS1_EE13_M_deallocateEPS1_m@PLT
 2064      00
 2065              	.LEHE35:
 161:/usr/include/c++/4.9/bits/stl_vector.h **** 
 2066              		.loc 4 161 0
 2067 0053 488B45E8 		movq	-24(%rbp), %rax
 2068 0057 4889C7   		movq	%rax, %rdi
 2069 005a E8000000 		call	_ZNSt12_Vector_baseIN8UnitTest18DeferredTestResultESaIS1_EE12_Vector_implD1Ev@PLT
 2069      00
 2070 005f EB1A     		jmp	.L110
 2071              	.L109:
 2072 0061 4889C3   		movq	%rax, %rbx
 2073 0064 488B45E8 		movq	-24(%rbp), %rax
 2074 0068 4889C7   		movq	%rax, %rdi
 2075 006b E8000000 		call	_ZNSt12_Vector_baseIN8UnitTest18DeferredTestResultESaIS1_EE12_Vector_implD1Ev@PLT
 2075      00
 2076 0070 4889D8   		movq	%rbx, %rax
 2077 0073 4889C7   		movq	%rax, %rdi
 2078              	.LEHB36:
 2079 0076 E8000000 		call	_Unwind_Resume@PLT
 2079      00
 2080              	.LEHE36:
 2081              	.L110:
 2082              	.LBE26:
 2083 007b 4883C418 		addq	$24, %rsp
 2084 007f 5B       		popq	%rbx
 2085 0080 5D       		popq	%rbp
 2086              		.cfi_def_cfa 7, 8
 2087 0081 C3       		ret
 2088              		.cfi_endproc
 2089              	.LFE1431:
 2090              		.section	.gcc_except_table
 2091              	.LLSDA1431:
 2092 00ca FF       		.byte	0xff
 2093 00cb FF       		.byte	0xff
 2094 00cc 01       		.byte	0x1
 2095 00cd 08       		.uleb128 .LLSDACSE1431-.LLSDACSB1431
 2096              	.LLSDACSB1431:
 2097 00ce 4E       		.uleb128 .LEHB35-.LFB1431
 2098 00cf 05       		.uleb128 .LEHE35-.LEHB35
 2099 00d0 61       		.uleb128 .L109-.LFB1431
 2100 00d1 00       		.uleb128 0
 2101 00d2 76       		.uleb128 .LEHB36-.LFB1431
 2102 00d3 05       		.uleb128 .LEHE36-.LEHB36
 2103 00d4 00       		.uleb128 0
 2104 00d5 00       		.uleb128 0
 2105              	.LLSDACSE1431:
 2106              		.section	.text._ZNSt12_Vector_baseIN8UnitTest18DeferredTestResultESaIS1_EED2Ev,"axG",@progbits,_ZN
 2108              		.weak	_ZNSt12_Vector_baseIN8UnitTest18DeferredTestResultESaIS1_EED1Ev
 2109              		.set	_ZNSt12_Vector_baseIN8UnitTest18DeferredTestResultESaIS1_EED1Ev,_ZNSt12_Vector_baseIN8UnitTes
 2110              		.section	.text._ZNSt12_Vector_baseIN8UnitTest18DeferredTestResultESaIS1_EE19_M_get_Tp_allocatorEv,
 2111              		.align 2
 2112              		.weak	_ZNSt12_Vector_baseIN8UnitTest18DeferredTestResultESaIS1_EE19_M_get_Tp_allocatorEv
 2114              	_ZNSt12_Vector_baseIN8UnitTest18DeferredTestResultESaIS1_EE19_M_get_Tp_allocatorEv:
 2115              	.LFB1433:
 113:/usr/include/c++/4.9/bits/stl_vector.h ****       { return *static_cast<_Tp_alloc_type*>(&this->_M_impl); }
 2116              		.loc 4 113 0
 2117              		.cfi_startproc
 2118 0000 55       		pushq	%rbp
 2119              		.cfi_def_cfa_offset 16
 2120              		.cfi_offset 6, -16
 2121 0001 4889E5   		movq	%rsp, %rbp
 2122              		.cfi_def_cfa_register 6
 2123 0004 48897DF8 		movq	%rdi, -8(%rbp)
 114:/usr/include/c++/4.9/bits/stl_vector.h **** 
 2124              		.loc 4 114 0
 2125 0008 488B45F8 		movq	-8(%rbp), %rax
 2126 000c 5D       		popq	%rbp
 2127              		.cfi_def_cfa 7, 8
 2128 000d C3       		ret
 2129              		.cfi_endproc
 2130              	.LFE1433:
 2132              		.section	.text._ZSt8_DestroyIPN8UnitTest18DeferredTestResultES1_EvT_S3_RSaIT0_E,"axG",@progbits,_Z
 2133              		.weak	_ZSt8_DestroyIPN8UnitTest18DeferredTestResultES1_EvT_S3_RSaIT0_E
 2135              	_ZSt8_DestroyIPN8UnitTest18DeferredTestResultES1_EvT_S3_RSaIT0_E:
 2136              	.LFB1434:
 2137              		.file 6 "/usr/include/c++/4.9/bits/stl_construct.h"
   1:/usr/include/c++/4.9/bits/stl_construct.h **** // nonstandard construct and destroy functions -*- C++ -*-
   2:/usr/include/c++/4.9/bits/stl_construct.h **** 
   3:/usr/include/c++/4.9/bits/stl_construct.h **** // Copyright (C) 2001-2014 Free Software Foundation, Inc.
   4:/usr/include/c++/4.9/bits/stl_construct.h **** //
   5:/usr/include/c++/4.9/bits/stl_construct.h **** // This file is part of the GNU ISO C++ Library.  This library is free
   6:/usr/include/c++/4.9/bits/stl_construct.h **** // software; you can redistribute it and/or modify it under the
   7:/usr/include/c++/4.9/bits/stl_construct.h **** // terms of the GNU General Public License as published by the
   8:/usr/include/c++/4.9/bits/stl_construct.h **** // Free Software Foundation; either version 3, or (at your option)
   9:/usr/include/c++/4.9/bits/stl_construct.h **** // any later version.
  10:/usr/include/c++/4.9/bits/stl_construct.h **** 
  11:/usr/include/c++/4.9/bits/stl_construct.h **** // This library is distributed in the hope that it will be useful,
  12:/usr/include/c++/4.9/bits/stl_construct.h **** // but WITHOUT ANY WARRANTY; without even the implied warranty of
  13:/usr/include/c++/4.9/bits/stl_construct.h **** // MERCHANTABILITY or FITNESS FOR A PARTICULAR PURPOSE.  See the
  14:/usr/include/c++/4.9/bits/stl_construct.h **** // GNU General Public License for more details.
  15:/usr/include/c++/4.9/bits/stl_construct.h **** 
  16:/usr/include/c++/4.9/bits/stl_construct.h **** // Under Section 7 of GPL version 3, you are granted additional
  17:/usr/include/c++/4.9/bits/stl_construct.h **** // permissions described in the GCC Runtime Library Exception, version
  18:/usr/include/c++/4.9/bits/stl_construct.h **** // 3.1, as published by the Free Software Foundation.
  19:/usr/include/c++/4.9/bits/stl_construct.h **** 
  20:/usr/include/c++/4.9/bits/stl_construct.h **** // You should have received a copy of the GNU General Public License and
  21:/usr/include/c++/4.9/bits/stl_construct.h **** // a copy of the GCC Runtime Library Exception along with this program;
  22:/usr/include/c++/4.9/bits/stl_construct.h **** // see the files COPYING3 and COPYING.RUNTIME respectively.  If not, see
  23:/usr/include/c++/4.9/bits/stl_construct.h **** // <http://www.gnu.org/licenses/>.
  24:/usr/include/c++/4.9/bits/stl_construct.h **** 
  25:/usr/include/c++/4.9/bits/stl_construct.h **** /*
  26:/usr/include/c++/4.9/bits/stl_construct.h ****  *
  27:/usr/include/c++/4.9/bits/stl_construct.h ****  * Copyright (c) 1994
  28:/usr/include/c++/4.9/bits/stl_construct.h ****  * Hewlett-Packard Company
  29:/usr/include/c++/4.9/bits/stl_construct.h ****  *
  30:/usr/include/c++/4.9/bits/stl_construct.h ****  * Permission to use, copy, modify, distribute and sell this software
  31:/usr/include/c++/4.9/bits/stl_construct.h ****  * and its documentation for any purpose is hereby granted without fee,
  32:/usr/include/c++/4.9/bits/stl_construct.h ****  * provided that the above copyright notice appear in all copies and
  33:/usr/include/c++/4.9/bits/stl_construct.h ****  * that both that copyright notice and this permission notice appear
  34:/usr/include/c++/4.9/bits/stl_construct.h ****  * in supporting documentation.  Hewlett-Packard Company makes no
  35:/usr/include/c++/4.9/bits/stl_construct.h ****  * representations about the suitability of this software for any
  36:/usr/include/c++/4.9/bits/stl_construct.h ****  * purpose.  It is provided "as is" without express or implied warranty.
  37:/usr/include/c++/4.9/bits/stl_construct.h ****  *
  38:/usr/include/c++/4.9/bits/stl_construct.h ****  *
  39:/usr/include/c++/4.9/bits/stl_construct.h ****  * Copyright (c) 1996,1997
  40:/usr/include/c++/4.9/bits/stl_construct.h ****  * Silicon Graphics Computer Systems, Inc.
  41:/usr/include/c++/4.9/bits/stl_construct.h ****  *
  42:/usr/include/c++/4.9/bits/stl_construct.h ****  * Permission to use, copy, modify, distribute and sell this software
  43:/usr/include/c++/4.9/bits/stl_construct.h ****  * and its documentation for any purpose is hereby granted without fee,
  44:/usr/include/c++/4.9/bits/stl_construct.h ****  * provided that the above copyright notice appear in all copies and
  45:/usr/include/c++/4.9/bits/stl_construct.h ****  * that both that copyright notice and this permission notice appear
  46:/usr/include/c++/4.9/bits/stl_construct.h ****  * in supporting documentation.  Silicon Graphics makes no
  47:/usr/include/c++/4.9/bits/stl_construct.h ****  * representations about the suitability of this software for any
  48:/usr/include/c++/4.9/bits/stl_construct.h ****  * purpose.  It is provided "as is" without express or implied warranty.
  49:/usr/include/c++/4.9/bits/stl_construct.h ****  */
  50:/usr/include/c++/4.9/bits/stl_construct.h **** 
  51:/usr/include/c++/4.9/bits/stl_construct.h **** /** @file bits/stl_construct.h
  52:/usr/include/c++/4.9/bits/stl_construct.h ****  *  This is an internal header file, included by other library headers.
  53:/usr/include/c++/4.9/bits/stl_construct.h ****  *  Do not attempt to use it directly. @headername{memory}
  54:/usr/include/c++/4.9/bits/stl_construct.h ****  */
  55:/usr/include/c++/4.9/bits/stl_construct.h **** 
  56:/usr/include/c++/4.9/bits/stl_construct.h **** #ifndef _STL_CONSTRUCT_H
  57:/usr/include/c++/4.9/bits/stl_construct.h **** #define _STL_CONSTRUCT_H 1
  58:/usr/include/c++/4.9/bits/stl_construct.h **** 
  59:/usr/include/c++/4.9/bits/stl_construct.h **** #include <new>
  60:/usr/include/c++/4.9/bits/stl_construct.h **** #include <bits/move.h>
  61:/usr/include/c++/4.9/bits/stl_construct.h **** #include <ext/alloc_traits.h>
  62:/usr/include/c++/4.9/bits/stl_construct.h **** 
  63:/usr/include/c++/4.9/bits/stl_construct.h **** namespace std _GLIBCXX_VISIBILITY(default)
  64:/usr/include/c++/4.9/bits/stl_construct.h **** {
  65:/usr/include/c++/4.9/bits/stl_construct.h **** _GLIBCXX_BEGIN_NAMESPACE_VERSION
  66:/usr/include/c++/4.9/bits/stl_construct.h **** 
  67:/usr/include/c++/4.9/bits/stl_construct.h ****   /**
  68:/usr/include/c++/4.9/bits/stl_construct.h ****    * Constructs an object in existing memory by invoking an allocated
  69:/usr/include/c++/4.9/bits/stl_construct.h ****    * object's constructor with an initializer.
  70:/usr/include/c++/4.9/bits/stl_construct.h ****    */
  71:/usr/include/c++/4.9/bits/stl_construct.h **** #if __cplusplus >= 201103L
  72:/usr/include/c++/4.9/bits/stl_construct.h ****   template<typename _T1, typename... _Args>
  73:/usr/include/c++/4.9/bits/stl_construct.h ****     inline void
  74:/usr/include/c++/4.9/bits/stl_construct.h ****     _Construct(_T1* __p, _Args&&... __args)
  75:/usr/include/c++/4.9/bits/stl_construct.h ****     { ::new(static_cast<void*>(__p)) _T1(std::forward<_Args>(__args)...); }
  76:/usr/include/c++/4.9/bits/stl_construct.h **** #else
  77:/usr/include/c++/4.9/bits/stl_construct.h ****   template<typename _T1, typename _T2>
  78:/usr/include/c++/4.9/bits/stl_construct.h ****     inline void
  79:/usr/include/c++/4.9/bits/stl_construct.h ****     _Construct(_T1* __p, const _T2& __value)
  80:/usr/include/c++/4.9/bits/stl_construct.h ****     {
  81:/usr/include/c++/4.9/bits/stl_construct.h ****       // _GLIBCXX_RESOLVE_LIB_DEFECTS
  82:/usr/include/c++/4.9/bits/stl_construct.h ****       // 402. wrong new expression in [some_]allocator::construct
  83:/usr/include/c++/4.9/bits/stl_construct.h ****       ::new(static_cast<void*>(__p)) _T1(__value);
  84:/usr/include/c++/4.9/bits/stl_construct.h ****     }
  85:/usr/include/c++/4.9/bits/stl_construct.h **** #endif
  86:/usr/include/c++/4.9/bits/stl_construct.h **** 
  87:/usr/include/c++/4.9/bits/stl_construct.h ****   /**
  88:/usr/include/c++/4.9/bits/stl_construct.h ****    * Destroy the object pointed to by a pointer type.
  89:/usr/include/c++/4.9/bits/stl_construct.h ****    */
  90:/usr/include/c++/4.9/bits/stl_construct.h ****   template<typename _Tp>
  91:/usr/include/c++/4.9/bits/stl_construct.h ****     inline void
  92:/usr/include/c++/4.9/bits/stl_construct.h ****     _Destroy(_Tp* __pointer)
  93:/usr/include/c++/4.9/bits/stl_construct.h ****     { __pointer->~_Tp(); }
  94:/usr/include/c++/4.9/bits/stl_construct.h **** 
  95:/usr/include/c++/4.9/bits/stl_construct.h ****   template<bool>
  96:/usr/include/c++/4.9/bits/stl_construct.h ****     struct _Destroy_aux
  97:/usr/include/c++/4.9/bits/stl_construct.h ****     {
  98:/usr/include/c++/4.9/bits/stl_construct.h ****       template<typename _ForwardIterator>
  99:/usr/include/c++/4.9/bits/stl_construct.h ****         static void
 100:/usr/include/c++/4.9/bits/stl_construct.h ****         __destroy(_ForwardIterator __first, _ForwardIterator __last)
 101:/usr/include/c++/4.9/bits/stl_construct.h **** 	{
 102:/usr/include/c++/4.9/bits/stl_construct.h **** 	  for (; __first != __last; ++__first)
 103:/usr/include/c++/4.9/bits/stl_construct.h **** 	    std::_Destroy(std::__addressof(*__first));
 104:/usr/include/c++/4.9/bits/stl_construct.h **** 	}
 105:/usr/include/c++/4.9/bits/stl_construct.h ****     };
 106:/usr/include/c++/4.9/bits/stl_construct.h **** 
 107:/usr/include/c++/4.9/bits/stl_construct.h ****   template<>
 108:/usr/include/c++/4.9/bits/stl_construct.h ****     struct _Destroy_aux<true>
 109:/usr/include/c++/4.9/bits/stl_construct.h ****     {
 110:/usr/include/c++/4.9/bits/stl_construct.h ****       template<typename _ForwardIterator>
 111:/usr/include/c++/4.9/bits/stl_construct.h ****         static void
 112:/usr/include/c++/4.9/bits/stl_construct.h ****         __destroy(_ForwardIterator, _ForwardIterator) { }
 113:/usr/include/c++/4.9/bits/stl_construct.h ****     };
 114:/usr/include/c++/4.9/bits/stl_construct.h **** 
 115:/usr/include/c++/4.9/bits/stl_construct.h ****   /**
 116:/usr/include/c++/4.9/bits/stl_construct.h ****    * Destroy a range of objects.  If the value_type of the object has
 117:/usr/include/c++/4.9/bits/stl_construct.h ****    * a trivial destructor, the compiler should optimize all of this
 118:/usr/include/c++/4.9/bits/stl_construct.h ****    * away, otherwise the objects' destructors must be invoked.
 119:/usr/include/c++/4.9/bits/stl_construct.h ****    */
 120:/usr/include/c++/4.9/bits/stl_construct.h ****   template<typename _ForwardIterator>
 121:/usr/include/c++/4.9/bits/stl_construct.h ****     inline void
 122:/usr/include/c++/4.9/bits/stl_construct.h ****     _Destroy(_ForwardIterator __first, _ForwardIterator __last)
 123:/usr/include/c++/4.9/bits/stl_construct.h ****     {
 124:/usr/include/c++/4.9/bits/stl_construct.h ****       typedef typename iterator_traits<_ForwardIterator>::value_type
 125:/usr/include/c++/4.9/bits/stl_construct.h ****                        _Value_type;
 126:/usr/include/c++/4.9/bits/stl_construct.h ****       std::_Destroy_aux<__has_trivial_destructor(_Value_type)>::
 127:/usr/include/c++/4.9/bits/stl_construct.h **** 	__destroy(__first, __last);
 128:/usr/include/c++/4.9/bits/stl_construct.h ****     }
 129:/usr/include/c++/4.9/bits/stl_construct.h **** 
 130:/usr/include/c++/4.9/bits/stl_construct.h ****   /**
 131:/usr/include/c++/4.9/bits/stl_construct.h ****    * Destroy a range of objects using the supplied allocator.  For
 132:/usr/include/c++/4.9/bits/stl_construct.h ****    * nondefault allocators we do not optimize away invocation of 
 133:/usr/include/c++/4.9/bits/stl_construct.h ****    * destroy() even if _Tp has a trivial destructor.
 134:/usr/include/c++/4.9/bits/stl_construct.h ****    */
 135:/usr/include/c++/4.9/bits/stl_construct.h **** 
 136:/usr/include/c++/4.9/bits/stl_construct.h ****   template<typename _ForwardIterator, typename _Allocator>
 137:/usr/include/c++/4.9/bits/stl_construct.h ****     void
 138:/usr/include/c++/4.9/bits/stl_construct.h ****     _Destroy(_ForwardIterator __first, _ForwardIterator __last,
 139:/usr/include/c++/4.9/bits/stl_construct.h **** 	     _Allocator& __alloc)
 140:/usr/include/c++/4.9/bits/stl_construct.h ****     {
 141:/usr/include/c++/4.9/bits/stl_construct.h ****       typedef __gnu_cxx::__alloc_traits<_Allocator> __traits;
 142:/usr/include/c++/4.9/bits/stl_construct.h ****       for (; __first != __last; ++__first)
 143:/usr/include/c++/4.9/bits/stl_construct.h **** 	__traits::destroy(__alloc, std::__addressof(*__first));
 144:/usr/include/c++/4.9/bits/stl_construct.h ****     }
 145:/usr/include/c++/4.9/bits/stl_construct.h **** 
 146:/usr/include/c++/4.9/bits/stl_construct.h ****   template<typename _ForwardIterator, typename _Tp>
 147:/usr/include/c++/4.9/bits/stl_construct.h ****     inline void
 148:/usr/include/c++/4.9/bits/stl_construct.h ****     _Destroy(_ForwardIterator __first, _ForwardIterator __last,
 2138              		.loc 6 148 0
 2139              		.cfi_startproc
 2140 0000 55       		pushq	%rbp
 2141              		.cfi_def_cfa_offset 16
 2142              		.cfi_offset 6, -16
 2143 0001 4889E5   		movq	%rsp, %rbp
 2144              		.cfi_def_cfa_register 6
 2145 0004 4883EC20 		subq	$32, %rsp
 2146 0008 48897DF8 		movq	%rdi, -8(%rbp)
 2147 000c 488975F0 		movq	%rsi, -16(%rbp)
 2148 0010 488955E8 		movq	%rdx, -24(%rbp)
 149:/usr/include/c++/4.9/bits/stl_construct.h **** 	     allocator<_Tp>&)
 150:/usr/include/c++/4.9/bits/stl_construct.h ****     {
 151:/usr/include/c++/4.9/bits/stl_construct.h ****       _Destroy(__first, __last);
 2149              		.loc 6 151 0
 2150 0014 488B55F0 		movq	-16(%rbp), %rdx
 2151 0018 488B45F8 		movq	-8(%rbp), %rax
 2152 001c 4889D6   		movq	%rdx, %rsi
 2153 001f 4889C7   		movq	%rax, %rdi
 2154 0022 E8000000 		call	_ZSt8_DestroyIPN8UnitTest18DeferredTestResultEEvT_S3_@PLT
 2154      00
 152:/usr/include/c++/4.9/bits/stl_construct.h ****     }
 2155              		.loc 6 152 0
 2156 0027 C9       		leave
 2157              		.cfi_def_cfa 7, 8
 2158 0028 C3       		ret
 2159              		.cfi_endproc
 2160              	.LFE1434:
 2162              		.section	.text._ZN9__gnu_cxx17__normal_iteratorIPKN8UnitTest18DeferredTestResultESt6vectorIS2_SaIS
 2163              		.align 2
 2164              		.weak	_ZN9__gnu_cxx17__normal_iteratorIPKN8UnitTest18DeferredTestResultESt6vectorIS2_SaIS2_EEEC2ER
 2166              	_ZN9__gnu_cxx17__normal_iteratorIPKN8UnitTest18DeferredTestResultESt6vectorIS2_SaIS2_EEEC2ERKS4_:
 2167              	.LFB1436:
 728:/usr/include/c++/4.9/bits/stl_iterator.h ****       : _M_current(__i) { }
 2168              		.loc 5 728 0
 2169              		.cfi_startproc
 2170 0000 55       		pushq	%rbp
 2171              		.cfi_def_cfa_offset 16
 2172              		.cfi_offset 6, -16
 2173 0001 4889E5   		movq	%rsp, %rbp
 2174              		.cfi_def_cfa_register 6
 2175 0004 48897DF8 		movq	%rdi, -8(%rbp)
 2176 0008 488975F0 		movq	%rsi, -16(%rbp)
 2177              	.LBB27:
 729:/usr/include/c++/4.9/bits/stl_iterator.h **** 
 2178              		.loc 5 729 0
 2179 000c 488B45F0 		movq	-16(%rbp), %rax
 2180 0010 488B10   		movq	(%rax), %rdx
 2181 0013 488B45F8 		movq	-8(%rbp), %rax
 2182 0017 488910   		movq	%rdx, (%rax)
 2183              	.LBE27:
 2184 001a 5D       		popq	%rbp
 2185              		.cfi_def_cfa 7, 8
 2186 001b C3       		ret
 2187              		.cfi_endproc
 2188              	.LFE1436:
 2190              		.weak	_ZN9__gnu_cxx17__normal_iteratorIPKN8UnitTest18DeferredTestResultESt6vectorIS2_SaIS2_EEEC1ER
 2191              		.set	_ZN9__gnu_cxx17__normal_iteratorIPKN8UnitTest18DeferredTestResultESt6vectorIS2_SaIS2_EEEC1ERK
 2192              		.section	.text._ZNK9__gnu_cxx17__normal_iteratorIPKN8UnitTest18DeferredTestResultESt6vectorIS2_SaI
 2193              		.align 2
 2194              		.weak	_ZNK9__gnu_cxx17__normal_iteratorIPKN8UnitTest18DeferredTestResultESt6vectorIS2_SaIS2_EEE4ba
 2196              	_ZNK9__gnu_cxx17__normal_iteratorIPKN8UnitTest18DeferredTestResultESt6vectorIS2_SaIS2_EEE4baseEv:
 2197              	.LFB1438:
 793:/usr/include/c++/4.9/bits/stl_iterator.h ****       { return _M_current; }
 2198              		.loc 5 793 0
 2199              		.cfi_startproc
 2200 0000 55       		pushq	%rbp
 2201              		.cfi_def_cfa_offset 16
 2202              		.cfi_offset 6, -16
 2203 0001 4889E5   		movq	%rsp, %rbp
 2204              		.cfi_def_cfa_register 6
 2205 0004 48897DF8 		movq	%rdi, -8(%rbp)
 794:/usr/include/c++/4.9/bits/stl_iterator.h ****     };
 2206              		.loc 5 794 0
 2207 0008 488B45F8 		movq	-8(%rbp), %rax
 2208 000c 5D       		popq	%rbp
 2209              		.cfi_def_cfa 7, 8
 2210 000d C3       		ret
 2211              		.cfi_endproc
 2212              	.LFE1438:
 2214              		.section	.text._ZN9__gnu_cxx17__normal_iteratorIPKSt4pairIiSsESt6vectorIS2_SaIS2_EEEC2ERKS4_,"axG"
 2215              		.align 2
 2216              		.weak	_ZN9__gnu_cxx17__normal_iteratorIPKSt4pairIiSsESt6vectorIS2_SaIS2_EEEC2ERKS4_
 2218              	_ZN9__gnu_cxx17__normal_iteratorIPKSt4pairIiSsESt6vectorIS2_SaIS2_EEEC2ERKS4_:
 2219              	.LFB1440:
 728:/usr/include/c++/4.9/bits/stl_iterator.h ****       : _M_current(__i) { }
 2220              		.loc 5 728 0
 2221              		.cfi_startproc
 2222 0000 55       		pushq	%rbp
 2223              		.cfi_def_cfa_offset 16
 2224              		.cfi_offset 6, -16
 2225 0001 4889E5   		movq	%rsp, %rbp
 2226              		.cfi_def_cfa_register 6
 2227 0004 48897DF8 		movq	%rdi, -8(%rbp)
 2228 0008 488975F0 		movq	%rsi, -16(%rbp)
 2229              	.LBB28:
 729:/usr/include/c++/4.9/bits/stl_iterator.h **** 
 2230              		.loc 5 729 0
 2231 000c 488B45F0 		movq	-16(%rbp), %rax
 2232 0010 488B10   		movq	(%rax), %rdx
 2233 0013 488B45F8 		movq	-8(%rbp), %rax
 2234 0017 488910   		movq	%rdx, (%rax)
 2235              	.LBE28:
 2236 001a 5D       		popq	%rbp
 2237              		.cfi_def_cfa 7, 8
 2238 001b C3       		ret
 2239              		.cfi_endproc
 2240              	.LFE1440:
 2242              		.weak	_ZN9__gnu_cxx17__normal_iteratorIPKSt4pairIiSsESt6vectorIS2_SaIS2_EEEC1ERKS4_
 2243              		.set	_ZN9__gnu_cxx17__normal_iteratorIPKSt4pairIiSsESt6vectorIS2_SaIS2_EEEC1ERKS4_,_ZN9__gnu_cxx17
 2244              		.section	.text._ZNK9__gnu_cxx17__normal_iteratorIPKSt4pairIiSsESt6vectorIS2_SaIS2_EEE4baseEv,"axG"
 2245              		.align 2
 2246              		.weak	_ZNK9__gnu_cxx17__normal_iteratorIPKSt4pairIiSsESt6vectorIS2_SaIS2_EEE4baseEv
 2248              	_ZNK9__gnu_cxx17__normal_iteratorIPKSt4pairIiSsESt6vectorIS2_SaIS2_EEE4baseEv:
 2249              	.LFB1442:
 793:/usr/include/c++/4.9/bits/stl_iterator.h ****       { return _M_current; }
 2250              		.loc 5 793 0
 2251              		.cfi_startproc
 2252 0000 55       		pushq	%rbp
 2253              		.cfi_def_cfa_offset 16
 2254              		.cfi_offset 6, -16
 2255 0001 4889E5   		movq	%rsp, %rbp
 2256              		.cfi_def_cfa_register 6
 2257 0004 48897DF8 		movq	%rdi, -8(%rbp)
 794:/usr/include/c++/4.9/bits/stl_iterator.h ****     };
 2258              		.loc 5 794 0
 2259 0008 488B45F8 		movq	-8(%rbp), %rax
 2260 000c 5D       		popq	%rbp
 2261              		.cfi_def_cfa 7, 8
 2262 000d C3       		ret
 2263              		.cfi_endproc
 2264              	.LFE1442:
 2266              		.section	.text._ZNSt12_Vector_baseIN8UnitTest18DeferredTestResultESaIS1_EE12_Vector_implC2Ev,"axG"
 2267              		.align 2
 2268              		.weak	_ZNSt12_Vector_baseIN8UnitTest18DeferredTestResultESaIS1_EE12_Vector_implC2Ev
 2270              	_ZNSt12_Vector_baseIN8UnitTest18DeferredTestResultESaIS1_EE12_Vector_implC2Ev:
 2271              	.LFB1463:
  86:/usr/include/c++/4.9/bits/stl_vector.h **** 	: _Tp_alloc_type(), _M_start(0), _M_finish(0), _M_end_of_storage(0)
 2272              		.loc 4 86 0
 2273              		.cfi_startproc
 2274 0000 55       		pushq	%rbp
 2275              		.cfi_def_cfa_offset 16
 2276              		.cfi_offset 6, -16
 2277 0001 4889E5   		movq	%rsp, %rbp
 2278              		.cfi_def_cfa_register 6
 2279 0004 4883EC10 		subq	$16, %rsp
 2280 0008 48897DF8 		movq	%rdi, -8(%rbp)
 2281              	.LBB29:
  87:/usr/include/c++/4.9/bits/stl_vector.h **** 	{ }
 2282              		.loc 4 87 0
 2283 000c 488B45F8 		movq	-8(%rbp), %rax
 2284 0010 4889C7   		movq	%rax, %rdi
 2285 0013 E8000000 		call	_ZNSaIN8UnitTest18DeferredTestResultEEC2Ev@PLT
 2285      00
 2286 0018 488B45F8 		movq	-8(%rbp), %rax
 2287 001c 48C70000 		movq	$0, (%rax)
 2287      000000
 2288 0023 488B45F8 		movq	-8(%rbp), %rax
 2289 0027 48C74008 		movq	$0, 8(%rax)
 2289      00000000 
 2290 002f 488B45F8 		movq	-8(%rbp), %rax
 2291 0033 48C74010 		movq	$0, 16(%rax)
 2291      00000000 
 2292              	.LBE29:
  88:/usr/include/c++/4.9/bits/stl_vector.h **** 
 2293              		.loc 4 88 0
 2294 003b C9       		leave
 2295              		.cfi_def_cfa 7, 8
 2296 003c C3       		ret
 2297              		.cfi_endproc
 2298              	.LFE1463:
 2300              		.weak	_ZNSt12_Vector_baseIN8UnitTest18DeferredTestResultESaIS1_EE12_Vector_implC1Ev
 2301              		.set	_ZNSt12_Vector_baseIN8UnitTest18DeferredTestResultESaIS1_EE12_Vector_implC1Ev,_ZNSt12_Vector_
 2302              		.section	.text._ZNSaIN8UnitTest18DeferredTestResultEED2Ev,"axG",@progbits,_ZNSaIN8UnitTest18Deferr
 2303              		.align 2
 2304              		.weak	_ZNSaIN8UnitTest18DeferredTestResultEED2Ev
 2306              	_ZNSaIN8UnitTest18DeferredTestResultEED2Ev:
 2307              	.LFB1466:
 2308              		.file 7 "/usr/include/c++/4.9/bits/allocator.h"
   1:/usr/include/c++/4.9/bits/allocator.h **** // Allocators -*- C++ -*-
   2:/usr/include/c++/4.9/bits/allocator.h **** 
   3:/usr/include/c++/4.9/bits/allocator.h **** // Copyright (C) 2001-2014 Free Software Foundation, Inc.
   4:/usr/include/c++/4.9/bits/allocator.h **** //
   5:/usr/include/c++/4.9/bits/allocator.h **** // This file is part of the GNU ISO C++ Library.  This library is free
   6:/usr/include/c++/4.9/bits/allocator.h **** // software; you can redistribute it and/or modify it under the
   7:/usr/include/c++/4.9/bits/allocator.h **** // terms of the GNU General Public License as published by the
   8:/usr/include/c++/4.9/bits/allocator.h **** // Free Software Foundation; either version 3, or (at your option)
   9:/usr/include/c++/4.9/bits/allocator.h **** // any later version.
  10:/usr/include/c++/4.9/bits/allocator.h **** 
  11:/usr/include/c++/4.9/bits/allocator.h **** // This library is distributed in the hope that it will be useful,
  12:/usr/include/c++/4.9/bits/allocator.h **** // but WITHOUT ANY WARRANTY; without even the implied warranty of
  13:/usr/include/c++/4.9/bits/allocator.h **** // MERCHANTABILITY or FITNESS FOR A PARTICULAR PURPOSE.  See the
  14:/usr/include/c++/4.9/bits/allocator.h **** // GNU General Public License for more details.
  15:/usr/include/c++/4.9/bits/allocator.h **** 
  16:/usr/include/c++/4.9/bits/allocator.h **** // Under Section 7 of GPL version 3, you are granted additional
  17:/usr/include/c++/4.9/bits/allocator.h **** // permissions described in the GCC Runtime Library Exception, version
  18:/usr/include/c++/4.9/bits/allocator.h **** // 3.1, as published by the Free Software Foundation.
  19:/usr/include/c++/4.9/bits/allocator.h **** 
  20:/usr/include/c++/4.9/bits/allocator.h **** // You should have received a copy of the GNU General Public License and
  21:/usr/include/c++/4.9/bits/allocator.h **** // a copy of the GCC Runtime Library Exception along with this program;
  22:/usr/include/c++/4.9/bits/allocator.h **** // see the files COPYING3 and COPYING.RUNTIME respectively.  If not, see
  23:/usr/include/c++/4.9/bits/allocator.h **** // <http://www.gnu.org/licenses/>.
  24:/usr/include/c++/4.9/bits/allocator.h **** 
  25:/usr/include/c++/4.9/bits/allocator.h **** /*
  26:/usr/include/c++/4.9/bits/allocator.h ****  * Copyright (c) 1996-1997
  27:/usr/include/c++/4.9/bits/allocator.h ****  * Silicon Graphics Computer Systems, Inc.
  28:/usr/include/c++/4.9/bits/allocator.h ****  *
  29:/usr/include/c++/4.9/bits/allocator.h ****  * Permission to use, copy, modify, distribute and sell this software
  30:/usr/include/c++/4.9/bits/allocator.h ****  * and its documentation for any purpose is hereby granted without fee,
  31:/usr/include/c++/4.9/bits/allocator.h ****  * provided that the above copyright notice appear in all copies and
  32:/usr/include/c++/4.9/bits/allocator.h ****  * that both that copyright notice and this permission notice appear
  33:/usr/include/c++/4.9/bits/allocator.h ****  * in supporting documentation.  Silicon Graphics makes no
  34:/usr/include/c++/4.9/bits/allocator.h ****  * representations about the suitability of this software for any
  35:/usr/include/c++/4.9/bits/allocator.h ****  * purpose.  It is provided "as is" without express or implied warranty.
  36:/usr/include/c++/4.9/bits/allocator.h ****  */
  37:/usr/include/c++/4.9/bits/allocator.h **** 
  38:/usr/include/c++/4.9/bits/allocator.h **** /** @file bits/allocator.h
  39:/usr/include/c++/4.9/bits/allocator.h ****  *  This is an internal header file, included by other library headers.
  40:/usr/include/c++/4.9/bits/allocator.h ****  *  Do not attempt to use it directly. @headername{memory}
  41:/usr/include/c++/4.9/bits/allocator.h ****  */
  42:/usr/include/c++/4.9/bits/allocator.h **** 
  43:/usr/include/c++/4.9/bits/allocator.h **** #ifndef _ALLOCATOR_H
  44:/usr/include/c++/4.9/bits/allocator.h **** #define _ALLOCATOR_H 1
  45:/usr/include/c++/4.9/bits/allocator.h **** 
  46:/usr/include/c++/4.9/bits/allocator.h **** #include <bits/c++allocator.h> // Define the base class to std::allocator.
  47:/usr/include/c++/4.9/bits/allocator.h **** #include <bits/memoryfwd.h>
  48:/usr/include/c++/4.9/bits/allocator.h **** #if __cplusplus >= 201103L
  49:/usr/include/c++/4.9/bits/allocator.h **** #include <type_traits>
  50:/usr/include/c++/4.9/bits/allocator.h **** #endif
  51:/usr/include/c++/4.9/bits/allocator.h **** 
  52:/usr/include/c++/4.9/bits/allocator.h **** namespace std _GLIBCXX_VISIBILITY(default)
  53:/usr/include/c++/4.9/bits/allocator.h **** {
  54:/usr/include/c++/4.9/bits/allocator.h **** _GLIBCXX_BEGIN_NAMESPACE_VERSION
  55:/usr/include/c++/4.9/bits/allocator.h **** 
  56:/usr/include/c++/4.9/bits/allocator.h ****   /**
  57:/usr/include/c++/4.9/bits/allocator.h ****    *  @addtogroup allocators
  58:/usr/include/c++/4.9/bits/allocator.h ****    *  @{
  59:/usr/include/c++/4.9/bits/allocator.h ****    */
  60:/usr/include/c++/4.9/bits/allocator.h **** 
  61:/usr/include/c++/4.9/bits/allocator.h ****   /// allocator<void> specialization.
  62:/usr/include/c++/4.9/bits/allocator.h ****   template<>
  63:/usr/include/c++/4.9/bits/allocator.h ****     class allocator<void>
  64:/usr/include/c++/4.9/bits/allocator.h ****     {
  65:/usr/include/c++/4.9/bits/allocator.h ****     public:
  66:/usr/include/c++/4.9/bits/allocator.h ****       typedef size_t      size_type;
  67:/usr/include/c++/4.9/bits/allocator.h ****       typedef ptrdiff_t   difference_type;
  68:/usr/include/c++/4.9/bits/allocator.h ****       typedef void*       pointer;
