   1              		.file	"testHexIO.cpp"
   2              		.text
   3              	.Ltext0:
   4              		.file 0 "/home/asoreyh/Dropbox/projects/lago/acqua/nexys/src/makestuff/libs/libbuffer/tests" "test
   5              		.section	.text._ZStorSt13_Ios_OpenmodeS_,"axG",@progbits,_ZStorSt13_Ios_OpenmodeS_,comdat
   6              		.weak	_ZStorSt13_Ios_OpenmodeS_
   8              	_ZStorSt13_Ios_OpenmodeS_:
   9              	.LFB714:
  10              		.file 1 "/usr/include/c++/12/bits/ios_base.h"
   1:/usr/include/c++/12/bits/ios_base.h **** // Iostreams base classes -*- C++ -*-
   2:/usr/include/c++/12/bits/ios_base.h **** 
   3:/usr/include/c++/12/bits/ios_base.h **** // Copyright (C) 1997-2022 Free Software Foundation, Inc.
   4:/usr/include/c++/12/bits/ios_base.h **** //
   5:/usr/include/c++/12/bits/ios_base.h **** // This file is part of the GNU ISO C++ Library.  This library is free
   6:/usr/include/c++/12/bits/ios_base.h **** // software; you can redistribute it and/or modify it under the
   7:/usr/include/c++/12/bits/ios_base.h **** // terms of the GNU General Public License as published by the
   8:/usr/include/c++/12/bits/ios_base.h **** // Free Software Foundation; either version 3, or (at your option)
   9:/usr/include/c++/12/bits/ios_base.h **** // any later version.
  10:/usr/include/c++/12/bits/ios_base.h **** 
  11:/usr/include/c++/12/bits/ios_base.h **** // This library is distributed in the hope that it will be useful,
  12:/usr/include/c++/12/bits/ios_base.h **** // but WITHOUT ANY WARRANTY; without even the implied warranty of
  13:/usr/include/c++/12/bits/ios_base.h **** // MERCHANTABILITY or FITNESS FOR A PARTICULAR PURPOSE.  See the
  14:/usr/include/c++/12/bits/ios_base.h **** // GNU General Public License for more details.
  15:/usr/include/c++/12/bits/ios_base.h **** 
  16:/usr/include/c++/12/bits/ios_base.h **** // Under Section 7 of GPL version 3, you are granted additional
  17:/usr/include/c++/12/bits/ios_base.h **** // permissions described in the GCC Runtime Library Exception, version
  18:/usr/include/c++/12/bits/ios_base.h **** // 3.1, as published by the Free Software Foundation.
  19:/usr/include/c++/12/bits/ios_base.h **** 
  20:/usr/include/c++/12/bits/ios_base.h **** // You should have received a copy of the GNU General Public License and
  21:/usr/include/c++/12/bits/ios_base.h **** // a copy of the GCC Runtime Library Exception along with this program;
  22:/usr/include/c++/12/bits/ios_base.h **** // see the files COPYING3 and COPYING.RUNTIME respectively.  If not, see
  23:/usr/include/c++/12/bits/ios_base.h **** // <http://www.gnu.org/licenses/>.
  24:/usr/include/c++/12/bits/ios_base.h **** 
  25:/usr/include/c++/12/bits/ios_base.h **** /** @file bits/ios_base.h
  26:/usr/include/c++/12/bits/ios_base.h ****  *  This is an internal header file, included by other library headers.
  27:/usr/include/c++/12/bits/ios_base.h ****  *  Do not attempt to use it directly. @headername{ios}
  28:/usr/include/c++/12/bits/ios_base.h ****  */
  29:/usr/include/c++/12/bits/ios_base.h **** 
  30:/usr/include/c++/12/bits/ios_base.h **** //
  31:/usr/include/c++/12/bits/ios_base.h **** // ISO C++ 14882: 27.4  Iostreams base classes
  32:/usr/include/c++/12/bits/ios_base.h **** //
  33:/usr/include/c++/12/bits/ios_base.h **** 
  34:/usr/include/c++/12/bits/ios_base.h **** #ifndef _IOS_BASE_H
  35:/usr/include/c++/12/bits/ios_base.h **** #define _IOS_BASE_H 1
  36:/usr/include/c++/12/bits/ios_base.h **** 
  37:/usr/include/c++/12/bits/ios_base.h **** #pragma GCC system_header
  38:/usr/include/c++/12/bits/ios_base.h **** 
  39:/usr/include/c++/12/bits/ios_base.h **** #include <ext/atomicity.h>
  40:/usr/include/c++/12/bits/ios_base.h **** #include <bits/localefwd.h>
  41:/usr/include/c++/12/bits/ios_base.h **** #include <bits/locale_classes.h>
  42:/usr/include/c++/12/bits/ios_base.h **** 
  43:/usr/include/c++/12/bits/ios_base.h **** #if __cplusplus < 201103L
  44:/usr/include/c++/12/bits/ios_base.h **** # include <stdexcept>
  45:/usr/include/c++/12/bits/ios_base.h **** #else
  46:/usr/include/c++/12/bits/ios_base.h **** # include <system_error>
  47:/usr/include/c++/12/bits/ios_base.h **** #endif
  48:/usr/include/c++/12/bits/ios_base.h **** 
  49:/usr/include/c++/12/bits/ios_base.h **** namespace std _GLIBCXX_VISIBILITY(default)
  50:/usr/include/c++/12/bits/ios_base.h **** {
  51:/usr/include/c++/12/bits/ios_base.h **** _GLIBCXX_BEGIN_NAMESPACE_VERSION
  52:/usr/include/c++/12/bits/ios_base.h **** 
  53:/usr/include/c++/12/bits/ios_base.h ****   // The following definitions of bitmask types are enums, not ints,
  54:/usr/include/c++/12/bits/ios_base.h ****   // as permitted (but not required) in the standard, in order to provide
  55:/usr/include/c++/12/bits/ios_base.h ****   // better type safety in iostream calls.  A side effect is that in C++98
  56:/usr/include/c++/12/bits/ios_base.h ****   // expressions involving them are not compile-time constants.
  57:/usr/include/c++/12/bits/ios_base.h ****   enum _Ios_Fmtflags 
  58:/usr/include/c++/12/bits/ios_base.h ****     { 
  59:/usr/include/c++/12/bits/ios_base.h ****       _S_boolalpha 	= 1L << 0,
  60:/usr/include/c++/12/bits/ios_base.h ****       _S_dec 		= 1L << 1,
  61:/usr/include/c++/12/bits/ios_base.h ****       _S_fixed 		= 1L << 2,
  62:/usr/include/c++/12/bits/ios_base.h ****       _S_hex 		= 1L << 3,
  63:/usr/include/c++/12/bits/ios_base.h ****       _S_internal 	= 1L << 4,
  64:/usr/include/c++/12/bits/ios_base.h ****       _S_left 		= 1L << 5,
  65:/usr/include/c++/12/bits/ios_base.h ****       _S_oct 		= 1L << 6,
  66:/usr/include/c++/12/bits/ios_base.h ****       _S_right 		= 1L << 7,
  67:/usr/include/c++/12/bits/ios_base.h ****       _S_scientific 	= 1L << 8,
  68:/usr/include/c++/12/bits/ios_base.h ****       _S_showbase 	= 1L << 9,
  69:/usr/include/c++/12/bits/ios_base.h ****       _S_showpoint 	= 1L << 10,
  70:/usr/include/c++/12/bits/ios_base.h ****       _S_showpos 	= 1L << 11,
  71:/usr/include/c++/12/bits/ios_base.h ****       _S_skipws 	= 1L << 12,
  72:/usr/include/c++/12/bits/ios_base.h ****       _S_unitbuf 	= 1L << 13,
  73:/usr/include/c++/12/bits/ios_base.h ****       _S_uppercase 	= 1L << 14,
  74:/usr/include/c++/12/bits/ios_base.h ****       _S_adjustfield 	= _S_left | _S_right | _S_internal,
  75:/usr/include/c++/12/bits/ios_base.h ****       _S_basefield 	= _S_dec | _S_oct | _S_hex,
  76:/usr/include/c++/12/bits/ios_base.h ****       _S_floatfield 	= _S_scientific | _S_fixed,
  77:/usr/include/c++/12/bits/ios_base.h ****       _S_ios_fmtflags_end = 1L << 16,
  78:/usr/include/c++/12/bits/ios_base.h ****       _S_ios_fmtflags_max = __INT_MAX__,
  79:/usr/include/c++/12/bits/ios_base.h ****       _S_ios_fmtflags_min = ~__INT_MAX__
  80:/usr/include/c++/12/bits/ios_base.h ****     };
  81:/usr/include/c++/12/bits/ios_base.h **** 
  82:/usr/include/c++/12/bits/ios_base.h ****   inline _GLIBCXX_CONSTEXPR _Ios_Fmtflags
  83:/usr/include/c++/12/bits/ios_base.h ****   operator&(_Ios_Fmtflags __a, _Ios_Fmtflags __b)
  84:/usr/include/c++/12/bits/ios_base.h ****   { return _Ios_Fmtflags(static_cast<int>(__a) & static_cast<int>(__b)); }
  85:/usr/include/c++/12/bits/ios_base.h **** 
  86:/usr/include/c++/12/bits/ios_base.h ****   inline _GLIBCXX_CONSTEXPR _Ios_Fmtflags
  87:/usr/include/c++/12/bits/ios_base.h ****   operator|(_Ios_Fmtflags __a, _Ios_Fmtflags __b)
  88:/usr/include/c++/12/bits/ios_base.h ****   { return _Ios_Fmtflags(static_cast<int>(__a) | static_cast<int>(__b)); }
  89:/usr/include/c++/12/bits/ios_base.h **** 
  90:/usr/include/c++/12/bits/ios_base.h ****   inline _GLIBCXX_CONSTEXPR _Ios_Fmtflags
  91:/usr/include/c++/12/bits/ios_base.h ****   operator^(_Ios_Fmtflags __a, _Ios_Fmtflags __b)
  92:/usr/include/c++/12/bits/ios_base.h ****   { return _Ios_Fmtflags(static_cast<int>(__a) ^ static_cast<int>(__b)); }
  93:/usr/include/c++/12/bits/ios_base.h **** 
  94:/usr/include/c++/12/bits/ios_base.h ****   inline _GLIBCXX_CONSTEXPR _Ios_Fmtflags
  95:/usr/include/c++/12/bits/ios_base.h ****   operator~(_Ios_Fmtflags __a)
  96:/usr/include/c++/12/bits/ios_base.h ****   { return _Ios_Fmtflags(~static_cast<int>(__a)); }
  97:/usr/include/c++/12/bits/ios_base.h **** 
  98:/usr/include/c++/12/bits/ios_base.h ****   inline const _Ios_Fmtflags&
  99:/usr/include/c++/12/bits/ios_base.h ****   operator|=(_Ios_Fmtflags& __a, _Ios_Fmtflags __b)
 100:/usr/include/c++/12/bits/ios_base.h ****   { return __a = __a | __b; }
 101:/usr/include/c++/12/bits/ios_base.h **** 
 102:/usr/include/c++/12/bits/ios_base.h ****   inline const _Ios_Fmtflags&
 103:/usr/include/c++/12/bits/ios_base.h ****   operator&=(_Ios_Fmtflags& __a, _Ios_Fmtflags __b)
 104:/usr/include/c++/12/bits/ios_base.h ****   { return __a = __a & __b; }
 105:/usr/include/c++/12/bits/ios_base.h **** 
 106:/usr/include/c++/12/bits/ios_base.h ****   inline const _Ios_Fmtflags&
 107:/usr/include/c++/12/bits/ios_base.h ****   operator^=(_Ios_Fmtflags& __a, _Ios_Fmtflags __b)
 108:/usr/include/c++/12/bits/ios_base.h ****   { return __a = __a ^ __b; }
 109:/usr/include/c++/12/bits/ios_base.h **** 
 110:/usr/include/c++/12/bits/ios_base.h **** 
 111:/usr/include/c++/12/bits/ios_base.h ****   enum _Ios_Openmode 
 112:/usr/include/c++/12/bits/ios_base.h ****     { 
 113:/usr/include/c++/12/bits/ios_base.h ****       _S_app 		= 1L << 0,
 114:/usr/include/c++/12/bits/ios_base.h ****       _S_ate 		= 1L << 1,
 115:/usr/include/c++/12/bits/ios_base.h ****       _S_bin 		= 1L << 2,
 116:/usr/include/c++/12/bits/ios_base.h ****       _S_in 		= 1L << 3,
 117:/usr/include/c++/12/bits/ios_base.h ****       _S_out 		= 1L << 4,
 118:/usr/include/c++/12/bits/ios_base.h ****       _S_trunc 		= 1L << 5,
 119:/usr/include/c++/12/bits/ios_base.h ****       _S_noreplace 	= 1L << 6,
 120:/usr/include/c++/12/bits/ios_base.h ****       _S_ios_openmode_end = 1L << 16,
 121:/usr/include/c++/12/bits/ios_base.h ****       _S_ios_openmode_max = __INT_MAX__,
 122:/usr/include/c++/12/bits/ios_base.h ****       _S_ios_openmode_min = ~__INT_MAX__
 123:/usr/include/c++/12/bits/ios_base.h ****     };
 124:/usr/include/c++/12/bits/ios_base.h **** 
 125:/usr/include/c++/12/bits/ios_base.h ****   inline _GLIBCXX_CONSTEXPR _Ios_Openmode
 126:/usr/include/c++/12/bits/ios_base.h ****   operator&(_Ios_Openmode __a, _Ios_Openmode __b)
 127:/usr/include/c++/12/bits/ios_base.h ****   { return _Ios_Openmode(static_cast<int>(__a) & static_cast<int>(__b)); }
 128:/usr/include/c++/12/bits/ios_base.h **** 
 129:/usr/include/c++/12/bits/ios_base.h ****   inline _GLIBCXX_CONSTEXPR _Ios_Openmode
 130:/usr/include/c++/12/bits/ios_base.h ****   operator|(_Ios_Openmode __a, _Ios_Openmode __b)
 131:/usr/include/c++/12/bits/ios_base.h ****   { return _Ios_Openmode(static_cast<int>(__a) | static_cast<int>(__b)); }
  11              		.loc 1 131 3
  12              		.cfi_startproc
  13 0000 F30F1EFA 		endbr64
  14 0004 55       		pushq	%rbp
  15              		.cfi_def_cfa_offset 16
  16              		.cfi_offset 6, -16
  17 0005 4889E5   		movq	%rsp, %rbp
  18              		.cfi_def_cfa_register 6
  19 0008 897DFC   		movl	%edi, -4(%rbp)
  20 000b 8975F8   		movl	%esi, -8(%rbp)
  21              		.loc 1 131 71
  22 000e 8B45FC   		movl	-4(%rbp), %eax
  23 0011 0B45F8   		orl	-8(%rbp), %eax
  24              		.loc 1 131 74
  25 0014 5D       		popq	%rbp
  26              		.cfi_def_cfa 7, 8
  27 0015 C3       		ret
  28              		.cfi_endproc
  29              	.LFE714:
  31              		.section	.rodata
  32              	.LC0:
  33 0000 44656661 		.string	"DefaultSuite"
  33      756C7453 
  33      75697465 
  33      00
  34              		.section	.text._ZN13UnitTestSuite12GetSuiteNameEv,"axG",@progbits,_ZN13UnitTestSuite12GetSuiteName
  35              		.weak	_ZN13UnitTestSuite12GetSuiteNameEv
  37              	_ZN13UnitTestSuite12GetSuiteNameEv:
  38              	.LFB1159:
  39              		.file 2 "/home/asoreyh/Dropbox/projects/lago/acqua/nexys/src/makestuff/libs/libutpp/TestSuite.h"
   1:/home/asoreyh/Dropbox/projects/lago/acqua/nexys/src/makestuff/libs/libutpp/TestSuite.h **** #ifndef UNITTEST_TESTSUITE_H
   2:/home/asoreyh/Dropbox/projects/lago/acqua/nexys/src/makestuff/libs/libutpp/TestSuite.h **** #define UNITTEST_TESTSUITE_H
   3:/home/asoreyh/Dropbox/projects/lago/acqua/nexys/src/makestuff/libs/libutpp/TestSuite.h **** 
   4:/home/asoreyh/Dropbox/projects/lago/acqua/nexys/src/makestuff/libs/libutpp/TestSuite.h **** namespace UnitTestSuite {
   5:/home/asoreyh/Dropbox/projects/lago/acqua/nexys/src/makestuff/libs/libutpp/TestSuite.h **** 
   6:/home/asoreyh/Dropbox/projects/lago/acqua/nexys/src/makestuff/libs/libutpp/TestSuite.h ****     inline char const* GetSuiteName ()
   7:/home/asoreyh/Dropbox/projects/lago/acqua/nexys/src/makestuff/libs/libutpp/TestSuite.h ****     {
  40              		.loc 2 7 5
  41              		.cfi_startproc
  42 0000 F30F1EFA 		endbr64
  43 0004 55       		pushq	%rbp
  44              		.cfi_def_cfa_offset 16
  45              		.cfi_offset 6, -16
  46 0005 4889E5   		movq	%rsp, %rbp
  47              		.cfi_def_cfa_register 6
   8:/home/asoreyh/Dropbox/projects/lago/acqua/nexys/src/makestuff/libs/libutpp/TestSuite.h ****         return "DefaultSuite";
  48              		.loc 2 8 16
  49 0008 488D0500 		leaq	.LC0(%rip), %rax
  49      000000
   9:/home/asoreyh/Dropbox/projects/lago/acqua/nexys/src/makestuff/libs/libutpp/TestSuite.h ****     }
  50              		.loc 2 9 5
  51 000f 5D       		popq	%rbp
  52              		.cfi_def_cfa 7, 8
  53 0010 C3       		ret
  54              		.cfi_endproc
  55              	.LFE1159:
  57              		.section	.text._ZN8UnitTest15MemoryOutStreamC1Ev,"axG",@progbits,_ZN8UnitTest15MemoryOutStreamC1Ev
  58              		.align 2
  59              		.weak	_ZN8UnitTest15MemoryOutStreamC1Ev
  61              	_ZN8UnitTest15MemoryOutStreamC1Ev:
  62              	.LFB1200:
  63              		.file 3 "/home/asoreyh/Dropbox/projects/lago/acqua/nexys/src/makestuff/libs/libutpp/MemoryOutStrea
   1:/home/asoreyh/Dropbox/projects/lago/acqua/nexys/src/makestuff/libs/libutpp/MemoryOutStream.h **** #ifndef UNITTEST_MEMORYOUTSTREAM_H
   2:/home/asoreyh/Dropbox/projects/lago/acqua/nexys/src/makestuff/libs/libutpp/MemoryOutStream.h **** #define UNITTEST_MEMORYOUTSTREAM_H
   3:/home/asoreyh/Dropbox/projects/lago/acqua/nexys/src/makestuff/libs/libutpp/MemoryOutStream.h **** 
   4:/home/asoreyh/Dropbox/projects/lago/acqua/nexys/src/makestuff/libs/libutpp/MemoryOutStream.h **** #include "Config.h"
   5:/home/asoreyh/Dropbox/projects/lago/acqua/nexys/src/makestuff/libs/libutpp/MemoryOutStream.h **** 
   6:/home/asoreyh/Dropbox/projects/lago/acqua/nexys/src/makestuff/libs/libutpp/MemoryOutStream.h **** #ifndef UNITTEST_USE_CUSTOM_STREAMS
   7:/home/asoreyh/Dropbox/projects/lago/acqua/nexys/src/makestuff/libs/libutpp/MemoryOutStream.h **** 
   8:/home/asoreyh/Dropbox/projects/lago/acqua/nexys/src/makestuff/libs/libutpp/MemoryOutStream.h **** #include <sstream>
   9:/home/asoreyh/Dropbox/projects/lago/acqua/nexys/src/makestuff/libs/libutpp/MemoryOutStream.h **** 
  10:/home/asoreyh/Dropbox/projects/lago/acqua/nexys/src/makestuff/libs/libutpp/MemoryOutStream.h **** namespace UnitTest
  11:/home/asoreyh/Dropbox/projects/lago/acqua/nexys/src/makestuff/libs/libutpp/MemoryOutStream.h **** {
  12:/home/asoreyh/Dropbox/projects/lago/acqua/nexys/src/makestuff/libs/libutpp/MemoryOutStream.h **** 
  13:/home/asoreyh/Dropbox/projects/lago/acqua/nexys/src/makestuff/libs/libutpp/MemoryOutStream.h **** class MemoryOutStream : public std::ostringstream
  14:/home/asoreyh/Dropbox/projects/lago/acqua/nexys/src/makestuff/libs/libutpp/MemoryOutStream.h **** {
  15:/home/asoreyh/Dropbox/projects/lago/acqua/nexys/src/makestuff/libs/libutpp/MemoryOutStream.h **** public:
  16:/home/asoreyh/Dropbox/projects/lago/acqua/nexys/src/makestuff/libs/libutpp/MemoryOutStream.h ****     MemoryOutStream() {}
  64              		.loc 3 16 5
  65              		.cfi_startproc
  66              		.cfi_personality 0x9b,DW.ref.__gxx_personality_v0
  67              		.cfi_lsda 0x1b,.LLSDA1200
  68 0000 F30F1EFA 		endbr64
  69 0004 55       		pushq	%rbp
  70              		.cfi_def_cfa_offset 16
  71              		.cfi_offset 6, -16
  72 0005 4889E5   		movq	%rsp, %rbp
  73              		.cfi_def_cfa_register 6
  74 0008 53       		pushq	%rbx
  75 0009 4883EC18 		subq	$24, %rsp
  76              		.cfi_offset 3, -24
  77 000d 48897DE8 		movq	%rdi, -24(%rbp)
  78              	.LBB5:
  79              		.loc 3 16 23
  80 0011 488B45E8 		movq	-24(%rbp), %rax
  81 0015 48059000 		addq	$144, %rax
  81      0000
  82 001b 4889C7   		movq	%rax, %rdi
  83              	.LEHB0:
  84 001e E8000000 		call	_ZNSt9basic_iosIcSt11char_traitsIcEEC2Ev@PLT
  84      00
  85              	.LEHE0:
  86 0023 488B45E8 		movq	-24(%rbp), %rax
  87 0027 488D1500 		leaq	8+_ZTTN8UnitTest15MemoryOutStreamE(%rip), %rdx
  87      000000
  88 002e 4889D6   		movq	%rdx, %rsi
  89 0031 4889C7   		movq	%rax, %rdi
  90              	.LEHB1:
  91 0034 E8000000 		call	_ZNSt7__cxx1119basic_ostringstreamIcSt11char_traitsIcESaIcEEC2Ev@PLT
  91      00
  92              	.LEHE1:
  93              		.loc 3 16 23 is_stmt 0 discriminator 2
  94 0039 488D1500 		leaq	24+_ZTVN8UnitTest15MemoryOutStreamE(%rip), %rdx
  94      000000
  95 0040 488B45E8 		movq	-24(%rbp), %rax
  96 0044 488910   		movq	%rdx, (%rax)
  97 0047 488B45E8 		movq	-24(%rbp), %rax
  98 004b 48059000 		addq	$144, %rax
  98      0000
  99 0051 488D1500 		leaq	64+_ZTVN8UnitTest15MemoryOutStreamE(%rip), %rdx
  99      000000
 100 0058 488910   		movq	%rdx, (%rax)
 101 005b 488B45E8 		movq	-24(%rbp), %rax
 102 005f 4883C070 		addq	$112, %rax
 103 0063 4889C7   		movq	%rax, %rdi
 104              	.LEHB2:
 105 0066 E8000000 		call	_ZNSt7__cxx1112basic_stringIcSt11char_traitsIcESaIcEEC1Ev@PLT
 105      00
 106              	.LEHE2:
 107              	.LBE5:
 108              		.loc 3 16 24 is_stmt 1
 109 006b EB43     		jmp	.L10
 110              	.L9:
 111 006d F30F1EFA 		endbr64
 112              	.LBB6:
 113 0071 4889C3   		movq	%rax, %rbx
 114 0074 488B45E8 		movq	-24(%rbp), %rax
 115 0078 488D1500 		leaq	8+_ZTTN8UnitTest15MemoryOutStreamE(%rip), %rdx
 115      000000
 116 007f 4889D6   		movq	%rdx, %rsi
 117 0082 4889C7   		movq	%rax, %rdi
 118 0085 E8000000 		call	_ZNSt7__cxx1119basic_ostringstreamIcSt11char_traitsIcESaIcEED2Ev@PLT
 118      00
 119 008a EB07     		jmp	.L7
 120              	.L8:
 121 008c F30F1EFA 		endbr64
 122 0090 4889C3   		movq	%rax, %rbx
 123              	.L7:
 124              		.loc 3 16 24 is_stmt 0 discriminator 1
 125 0093 488B45E8 		movq	-24(%rbp), %rax
 126 0097 48059000 		addq	$144, %rax
 126      0000
 127 009d 4889C7   		movq	%rax, %rdi
 128 00a0 E8000000 		call	_ZNSt9basic_iosIcSt11char_traitsIcEED2Ev@PLT
 128      00
 129 00a5 4889D8   		movq	%rbx, %rax
 130 00a8 4889C7   		movq	%rax, %rdi
 131              	.LEHB3:
 132 00ab E8000000 		call	_Unwind_Resume@PLT
 132      00
 133              	.LEHE3:
 134              	.L10:
 135              	.LBE6:
 136              		.loc 3 16 24
 137 00b0 488B5DF8 		movq	-8(%rbp), %rbx
 138 00b4 C9       		leave
 139              		.cfi_def_cfa 7, 8
 140 00b5 C3       		ret
 141              		.cfi_endproc
 142              	.LFE1200:
 143              		.globl	__gxx_personality_v0
 144              		.section	.gcc_except_table._ZN8UnitTest15MemoryOutStreamC1Ev,"aG",@progbits,_ZN8UnitTest15MemoryOu
 145              	.LLSDA1200:
 146 0000 FF       		.byte	0xff
 147 0001 FF       		.byte	0xff
 148 0002 01       		.byte	0x1
 149 0003 12       		.uleb128 .LLSDACSE1200-.LLSDACSB1200
 150              	.LLSDACSB1200:
 151 0004 1E       		.uleb128 .LEHB0-.LFB1200
 152 0005 05       		.uleb128 .LEHE0-.LEHB0
 153 0006 00       		.uleb128 0
 154 0007 00       		.uleb128 0
 155 0008 34       		.uleb128 .LEHB1-.LFB1200
 156 0009 05       		.uleb128 .LEHE1-.LEHB1
 157 000a 8C01     		.uleb128 .L8-.LFB1200
 158 000c 00       		.uleb128 0
 159 000d 66       		.uleb128 .LEHB2-.LFB1200
 160 000e 05       		.uleb128 .LEHE2-.LEHB2
 161 000f 6D       		.uleb128 .L9-.LFB1200
 162 0010 00       		.uleb128 0
 163 0011 AB01     		.uleb128 .LEHB3-.LFB1200
 164 0013 05       		.uleb128 .LEHE3-.LEHB3
 165 0014 00       		.uleb128 0
 166 0015 00       		.uleb128 0
 167              	.LLSDACSE1200:
 168              		.section	.text._ZN8UnitTest15MemoryOutStreamC1Ev,"axG",@progbits,_ZN8UnitTest15MemoryOutStreamC1Ev
 170              		.section	.rodata
 171              	.LC1:
 172 000d 74657374 		.string	"testHexIO.cpp"
 172      48657849 
 172      4F2E6370 
 172      7000
 173              	.LC2:
 174 001b 48657849 		.string	"HexIO_testValidDataLine"
 174      4F5F7465 
 174      73745661 
 174      6C696444 
 174      6174614C 
 175              		.section	.text._ZN27TestHexIO_testValidDataLineC2Ev,"axG",@progbits,_ZN27TestHexIO_testValidDataLi
 176              		.align 2
 177              		.weak	_ZN27TestHexIO_testValidDataLineC2Ev
 179              	_ZN27TestHexIO_testValidDataLineC2Ev:
 180              	.LFB1217:
 181              		.file 4 "testHexIO.cpp"
   1:testHexIO.cpp **** /*
   2:testHexIO.cpp ****  * Copyright (C) 2009-2012 Chris McClelland
   3:testHexIO.cpp ****  *
   4:testHexIO.cpp ****  * This program is free software: you can redistribute it and/or modify
   5:testHexIO.cpp ****  * it under the terms of the GNU Lesser General Public License as published by
   6:testHexIO.cpp ****  * the Free Software Foundation, either version 3 of the License, or
   7:testHexIO.cpp ****  * (at your option) any later version.
   8:testHexIO.cpp ****  *
   9:testHexIO.cpp ****  * This program is distributed in the hope that it will be useful,
  10:testHexIO.cpp ****  * but WITHOUT ANY WARRANTY; without even the implied warranty of
  11:testHexIO.cpp ****  * MERCHANTABILITY or FITNESS FOR A PARTICULAR PURPOSE.  See the
  12:testHexIO.cpp ****  * GNU Lesser General Public License for more details.
  13:testHexIO.cpp ****  *
  14:testHexIO.cpp ****  * You should have received a copy of the GNU Lesser General Public License
  15:testHexIO.cpp ****  * along with this program.  If not, see <http://www.gnu.org/licenses/>.
  16:testHexIO.cpp ****  */
  17:testHexIO.cpp **** #include <cstdarg>
  18:testHexIO.cpp **** #include <string>
  19:testHexIO.cpp **** #include <fstream>
  20:testHexIO.cpp **** #include <cstring>
  21:testHexIO.cpp **** #include <UnitTest++.h>
  22:testHexIO.cpp **** #include "../private.h"
  23:testHexIO.cpp **** #include "../libbuffer.h"
  24:testHexIO.cpp **** 
  25:testHexIO.cpp **** using namespace std;
  26:testHexIO.cpp **** 
  27:testHexIO.cpp **** TEST(HexIO_testValidDataLine) {
 182              		.loc 4 27 1 is_stmt 1
 183              		.cfi_startproc
 184 0000 F30F1EFA 		endbr64
 185 0004 55       		pushq	%rbp
 186              		.cfi_def_cfa_offset 16
 187              		.cfi_offset 6, -16
 188 0005 4889E5   		movq	%rsp, %rbp
 189              		.cfi_def_cfa_register 6
 190 0008 53       		pushq	%rbx
 191 0009 4883EC18 		subq	$24, %rsp
 192              		.cfi_offset 3, -24
 193 000d 48897DE8 		movq	%rdi, -24(%rbp)
 194              	.LBB7:
 195              		.loc 4 27 1
 196 0011 488B5DE8 		movq	-24(%rbp), %rbx
 197 0015 E8000000 		call	_ZN13UnitTestSuite12GetSuiteNameEv
 197      00
 198 001a 4889C2   		movq	%rax, %rdx
 199 001d 41B81B00 		movl	$27, %r8d
 199      0000
 200 0023 488D0500 		leaq	.LC1(%rip), %rax
 200      000000
 201 002a 4889C1   		movq	%rax, %rcx
 202 002d 488D0500 		leaq	.LC2(%rip), %rax
 202      000000
 203 0034 4889C6   		movq	%rax, %rsi
 204 0037 4889DF   		movq	%rbx, %rdi
 205 003a E8000000 		call	_ZN8UnitTest4TestC2EPKcS2_S2_i@PLT
 205      00
 206 003f 488D1500 		leaq	16+_ZTV27TestHexIO_testValidDataLine(%rip), %rdx
 206      000000
 207 0046 488B45E8 		movq	-24(%rbp), %rax
 208 004a 488910   		movq	%rdx, (%rax)
 209              	.LBE7:
 210 004d 90       		nop
 211 004e 488B5DF8 		movq	-8(%rbp), %rbx
 212 0052 C9       		leave
 213              		.cfi_def_cfa 7, 8
 214 0053 C3       		ret
 215              		.cfi_endproc
 216              	.LFE1217:
 218              		.weak	_ZN27TestHexIO_testValidDataLineC1Ev
 219              		.set	_ZN27TestHexIO_testValidDataLineC1Ev,_ZN27TestHexIO_testValidDataLineC2Ev
 220              		.globl	testHexIO_testValidDataLineInstance
 221              		.bss
 222              		.align 32
 225              	testHexIO_testValidDataLineInstance:
 226 0000 00000000 		.zero	56
 226      00000000 
 226      00000000 
 226      00000000 
 226      00000000 
 227              		.globl	adderHexIO_testValidDataLine
 230              	adderHexIO_testValidDataLine:
 231 0038 00       		.zero	1
 232              		.section	.rodata
 233              	.LC3:
 234 0033 3A303430 		.string	":040BE10075820022F7\n"
 234      42453130 
 234      30373538 
 234      32303032 
 234      3246370A 
 235              		.align 8
 236              	.LC4:
 237 0048 556E6861 		.string	"Unhandled exception in CHECK_EQUAL(BUF_SUCCESS, status)"
 237      6E646C65 
 237      64206578 
 237      63657074 
 237      696F6E20 
 238              		.align 8
 239              	.LC5:
 240 0080 556E6861 		.string	"Unhandled exception in CHECK_EQUAL(0x00, recordType)"
 240      6E646C65 
 240      64206578 
 240      63657074 
 240      696F6E20 
 241 00b5 000000   		.align 8
 242              	.LC6:
 243 00b8 556E6861 		.string	"Unhandled exception in CHECK_EQUAL(0x0BE1+4UL, data.length)"
 243      6E646C65 
 243      64206578 
 243      63657074 
 243      696F6E20 
 244 00f4 00000000 		.align 8
 245              	.LC7:
 246 00f8 556E6861 		.string	"Unhandled exception in CHECK_EQUAL(0x0BE1+4UL, mask.length)"
 246      6E646C65 
 246      64206578 
 246      63657074 
 246      696F6E20 
 247 0134 00000000 		.align 8
 248              	.LC8:
 249 0138 556E6861 		.string	"Unhandled exception in CHECK_EQUAL(4096UL, data.capacity)"
 249      6E646C65 
 249      64206578 
 249      63657074 
 249      696F6E20 
 250 0172 00000000 		.align 8
 250      0000
 251              	.LC9:
 252 0178 556E6861 		.string	"Unhandled exception in CHECK_EQUAL(4096UL, mask.capacity)"
 252      6E646C65 
 252      64206578 
 252      63657074 
 252      696F6E20 
 253 01b2 00000000 		.align 8
 253      0000
 254              	.LC10:
 255 01b8 556E6861 		.string	"Unhandled exception in CHECK_ARRAY_EQUAL(expected, data.data + 0x0BE1)"
 255      6E646C65 
 255      64206578 
 255      63657074 
 255      696F6E20 
 256              		.text
 257              		.align 2
 258              		.globl	_ZNK27TestHexIO_testValidDataLine7RunImplEv
 260              	_ZNK27TestHexIO_testValidDataLine7RunImplEv:
 261              	.LFB1219:
 262              		.loc 4 27 31
 263              		.cfi_startproc
 264              		.cfi_personality 0x9b,DW.ref.__gxx_personality_v0
 265              		.cfi_lsda 0x1b,.LLSDA1219
 266 0000 F30F1EFA 		endbr64
 267 0004 55       		pushq	%rbp
 268              		.cfi_def_cfa_offset 16
 269              		.cfi_offset 6, -16
 270 0005 4889E5   		movq	%rsp, %rbp
 271              		.cfi_def_cfa_register 6
 272 0008 53       		pushq	%rbx
 273 0009 4881ECA8 		subq	$168, %rsp
 273      000000
 274              		.cfi_offset 3, -24
 275 0010 4889BD58 		movq	%rdi, -168(%rbp)
 275      FFFFFF
 276              		.loc 4 27 31
 277 0017 64488B04 		movq	%fs:40, %rax
 277      25280000 
 277      00
 278 0020 488945E8 		movq	%rax, -24(%rbp)
 279 0024 31C0     		xorl	%eax, %eax
  28:testHexIO.cpp **** 	Buffer data, mask;
  29:testHexIO.cpp **** 	BufferStatus status;
  30:testHexIO.cpp **** 	const char *line = ":040BE10075820022F7\n";
 280              		.loc 4 30 14
 281 0026 488D0500 		leaq	.LC3(%rip), %rax
 281      000000
 282 002d 48898578 		movq	%rax, -136(%rbp)
 282      FFFFFF
  31:testHexIO.cpp **** 	uint8 recordType;
  32:testHexIO.cpp **** 	uint32 seg = 0x00000000;
 283              		.loc 4 32 9
 284 0034 C7856CFF 		movl	$0, -148(%rbp)
 284      FFFF0000 
 284      0000
  33:testHexIO.cpp **** 	const uint8 expected[] = {0x75, 0x82, 0x00, 0x22};
 285              		.loc 4 33 14
 286 003e C745E475 		movl	$570458741, -28(%rbp)
 286      820022
  34:testHexIO.cpp **** 	status = bufInitialise(&data, 1024, 0x00, NULL);
 287              		.loc 4 34 24
 288 0045 488D4580 		leaq	-128(%rbp), %rax
 289 0049 B9000000 		movl	$0, %ecx
 289      00
 290 004e BA000000 		movl	$0, %edx
 290      00
 291 0053 BE000400 		movl	$1024, %esi
 291      00
 292 0058 4889C7   		movq	%rax, %rdi
 293              	.LEHB4:
 294 005b E8000000 		call	bufInitialise@PLT
 294      00
 295              	.LEHE4:
 296              		.loc 4 34 9
 297 0060 898568FF 		movl	%eax, -152(%rbp)
 297      FFFF
 298              	.LEHB5:
  35:testHexIO.cpp **** 	CHECK_EQUAL(BUF_SUCCESS, status);
 299              		.loc 4 35 2
 300 0066 E8000000 		call	_ZN8UnitTest11CurrentTest7DetailsEv@PLT
 300      00
 301 006b 488B08   		movq	(%rax), %rcx
 302 006e 488D45C0 		leaq	-64(%rbp), %rax
 303 0072 BA230000 		movl	$35, %edx
 303      00
 304 0077 4889CE   		movq	%rcx, %rsi
 305 007a 4889C7   		movq	%rax, %rdi
 306 007d E8000000 		call	_ZN8UnitTest11TestDetailsC1ERKS0_i@PLT
 306      00
 307              		.loc 4 35 2 is_stmt 0 discriminator 4
 308 0082 C745A000 		movl	$0, -96(%rbp)
 308      000000
 309 0089 E8000000 		call	_ZN8UnitTest11CurrentTest7ResultsEv@PLT
 309      00
 310 008e 488B00   		movq	(%rax), %rax
 311 0091 488D4DC0 		leaq	-64(%rbp), %rcx
 312 0095 488D9568 		leaq	-152(%rbp), %rdx
 312      FFFFFF
 313 009c 488D75A0 		leaq	-96(%rbp), %rsi
 314 00a0 4889C7   		movq	%rax, %rdi
 315 00a3 E8000000 		call	_ZN8UnitTest10CheckEqualI12BufferStatusS1_EEvRNS_11TestResultsERKT_RKT0_RKNS_11TestDetailsE
 315      00
 316              	.LEHE5:
 317              	.L14:
  36:testHexIO.cpp **** 	status = bufInitialise(&mask, 1024, 0x00, NULL);
 318              		.loc 4 36 24 is_stmt 1
 319 00a8 488D45A0 		leaq	-96(%rbp), %rax
 320 00ac B9000000 		movl	$0, %ecx
 320      00
 321 00b1 BA000000 		movl	$0, %edx
 321      00
 322 00b6 BE000400 		movl	$1024, %esi
 322      00
 323 00bb 4889C7   		movq	%rax, %rdi
 324              	.LEHB6:
 325 00be E8000000 		call	bufInitialise@PLT
 325      00
 326              	.LEHE6:
 327              		.loc 4 36 9
 328 00c3 898568FF 		movl	%eax, -152(%rbp)
 328      FFFF
 329              	.LEHB7:
  37:testHexIO.cpp **** 	CHECK_EQUAL(BUF_SUCCESS, status);
 330              		.loc 4 37 2
 331 00c9 E8000000 		call	_ZN8UnitTest11CurrentTest7DetailsEv@PLT
 331      00
 332 00ce 488B08   		movq	(%rax), %rcx
 333 00d1 488D45C0 		leaq	-64(%rbp), %rax
 334 00d5 BA250000 		movl	$37, %edx
 334      00
 335 00da 4889CE   		movq	%rcx, %rsi
 336 00dd 4889C7   		movq	%rax, %rdi
 337 00e0 E8000000 		call	_ZN8UnitTest11TestDetailsC1ERKS0_i@PLT
 337      00
 338              		.loc 4 37 2 is_stmt 0 discriminator 4
 339 00e5 C78570FF 		movl	$0, -144(%rbp)
 339      FFFF0000 
 339      0000
 340 00ef E8000000 		call	_ZN8UnitTest11CurrentTest7ResultsEv@PLT
 340      00
 341 00f4 488B00   		movq	(%rax), %rax
 342 00f7 488D4DC0 		leaq	-64(%rbp), %rcx
 343 00fb 488D9568 		leaq	-152(%rbp), %rdx
 343      FFFFFF
 344 0102 488DB570 		leaq	-144(%rbp), %rsi
 344      FFFFFF
 345 0109 4889C7   		movq	%rax, %rdi
 346 010c E8000000 		call	_ZN8UnitTest10CheckEqualI12BufferStatusS1_EEvRNS_11TestResultsERKT_RKT0_RKNS_11TestDetailsE
 346      00
 347              	.LEHE7:
 348              	.L17:
  38:testHexIO.cpp **** 	status = bufProcessLine(line, 0, &data, &mask, &seg, &recordType, NULL);
 349              		.loc 4 38 25 is_stmt 1
 350 0111 488DBD67 		leaq	-153(%rbp), %rdi
 350      FFFFFF
 351 0118 488DB56C 		leaq	-148(%rbp), %rsi
 351      FFFFFF
 352 011f 488D4DA0 		leaq	-96(%rbp), %rcx
 353 0123 488D5580 		leaq	-128(%rbp), %rdx
 354 0127 488B8578 		movq	-136(%rbp), %rax
 354      FFFFFF
 355 012e 4883EC08 		subq	$8, %rsp
 356 0132 6A00     		pushq	$0
 357 0134 4989F9   		movq	%rdi, %r9
 358 0137 4989F0   		movq	%rsi, %r8
 359 013a BE000000 		movl	$0, %esi
 359      00
 360 013f 4889C7   		movq	%rax, %rdi
 361              	.LEHB8:
 362 0142 E8000000 		call	bufProcessLine@PLT
 362      00
 363              	.LEHE8:
 364 0147 4883C410 		addq	$16, %rsp
 365              		.loc 4 38 9
 366 014b 898568FF 		movl	%eax, -152(%rbp)
 366      FFFF
 367              	.LEHB9:
  39:testHexIO.cpp **** 	CHECK_EQUAL(BUF_SUCCESS, status);
 368              		.loc 4 39 2
 369 0151 E8000000 		call	_ZN8UnitTest11CurrentTest7DetailsEv@PLT
 369      00
 370 0156 488B08   		movq	(%rax), %rcx
 371 0159 488D45C0 		leaq	-64(%rbp), %rax
 372 015d BA270000 		movl	$39, %edx
 372      00
 373 0162 4889CE   		movq	%rcx, %rsi
 374 0165 4889C7   		movq	%rax, %rdi
 375 0168 E8000000 		call	_ZN8UnitTest11TestDetailsC1ERKS0_i@PLT
 375      00
 376              		.loc 4 39 2 is_stmt 0 discriminator 4
 377 016d C78570FF 		movl	$0, -144(%rbp)
 377      FFFF0000 
 377      0000
 378 0177 E8000000 		call	_ZN8UnitTest11CurrentTest7ResultsEv@PLT
 378      00
 379 017c 488B00   		movq	(%rax), %rax
 380 017f 488D4DC0 		leaq	-64(%rbp), %rcx
 381 0183 488D9568 		leaq	-152(%rbp), %rdx
 381      FFFFFF
 382 018a 488DB570 		leaq	-144(%rbp), %rsi
 382      FFFFFF
 383 0191 4889C7   		movq	%rax, %rdi
 384 0194 E8000000 		call	_ZN8UnitTest10CheckEqualI12BufferStatusS1_EEvRNS_11TestResultsERKT_RKT0_RKNS_11TestDetailsE
 384      00
 385              	.LEHE9:
 386              	.L20:
 387              	.LEHB10:
  40:testHexIO.cpp **** 	CHECK_EQUAL(0x00, recordType);
 388              		.loc 4 40 2 is_stmt 1
 389 0199 E8000000 		call	_ZN8UnitTest11CurrentTest7DetailsEv@PLT
 389      00
 390 019e 488B08   		movq	(%rax), %rcx
 391 01a1 488D45C0 		leaq	-64(%rbp), %rax
 392 01a5 BA280000 		movl	$40, %edx
 392      00
 393 01aa 4889CE   		movq	%rcx, %rsi
 394 01ad 4889C7   		movq	%rax, %rdi
 395 01b0 E8000000 		call	_ZN8UnitTest11TestDetailsC1ERKS0_i@PLT
 395      00
 396              		.loc 4 40 2 is_stmt 0 discriminator 4
 397 01b5 C78570FF 		movl	$0, -144(%rbp)
 397      FFFF0000 
 397      0000
 398 01bf E8000000 		call	_ZN8UnitTest11CurrentTest7ResultsEv@PLT
 398      00
 399 01c4 488B00   		movq	(%rax), %rax
 400 01c7 488D4DC0 		leaq	-64(%rbp), %rcx
 401 01cb 488D9567 		leaq	-153(%rbp), %rdx
 401      FFFFFF
 402 01d2 488DB570 		leaq	-144(%rbp), %rsi
 402      FFFFFF
 403 01d9 4889C7   		movq	%rax, %rdi
 404 01dc E8000000 		call	_ZN8UnitTest10CheckEqualIihEEvRNS_11TestResultsERKT_RKT0_RKNS_11TestDetailsE
 404      00
 405              	.LEHE10:
 406              	.L23:
 407              	.LEHB11:
  41:testHexIO.cpp **** 	CHECK_EQUAL(0x0BE1+4UL, data.length);
 408              		.loc 4 41 2 is_stmt 1
 409 01e1 E8000000 		call	_ZN8UnitTest11CurrentTest7DetailsEv@PLT
 409      00
 410 01e6 488B08   		movq	(%rax), %rcx
 411 01e9 488D45C0 		leaq	-64(%rbp), %rax
 412 01ed BA290000 		movl	$41, %edx
 412      00
 413 01f2 4889CE   		movq	%rcx, %rsi
 414 01f5 4889C7   		movq	%rax, %rdi
 415 01f8 E8000000 		call	_ZN8UnitTest11TestDetailsC1ERKS0_i@PLT
 415      00
 416              		.loc 4 41 2 is_stmt 0 discriminator 4
 417 01fd 48C78570 		movq	$3045, -144(%rbp)
 417      FFFFFFE5 
 417      0B0000
 418 0208 E8000000 		call	_ZN8UnitTest11CurrentTest7ResultsEv@PLT
 418      00
 419 020d 488B00   		movq	(%rax), %rax
 420 0210 488D55C0 		leaq	-64(%rbp), %rdx
 421 0214 488D4D80 		leaq	-128(%rbp), %rcx
 422 0218 488D7908 		leaq	8(%rcx), %rdi
 423 021c 488DB570 		leaq	-144(%rbp), %rsi
 423      FFFFFF
 424 0223 4889D1   		movq	%rdx, %rcx
 425 0226 4889FA   		movq	%rdi, %rdx
 426 0229 4889C7   		movq	%rax, %rdi
 427 022c E8000000 		call	_ZN8UnitTest10CheckEqualImjEEvRNS_11TestResultsERKT_RKT0_RKNS_11TestDetailsE
 427      00
 428              	.LEHE11:
 429              	.L26:
 430              	.LEHB12:
  42:testHexIO.cpp **** 	CHECK_EQUAL(0x0BE1+4UL, mask.length);
 431              		.loc 4 42 2 is_stmt 1
 432 0231 E8000000 		call	_ZN8UnitTest11CurrentTest7DetailsEv@PLT
 432      00
 433 0236 488B08   		movq	(%rax), %rcx
 434 0239 488D45C0 		leaq	-64(%rbp), %rax
 435 023d BA2A0000 		movl	$42, %edx
 435      00
 436 0242 4889CE   		movq	%rcx, %rsi
 437 0245 4889C7   		movq	%rax, %rdi
 438 0248 E8000000 		call	_ZN8UnitTest11TestDetailsC1ERKS0_i@PLT
 438      00
 439              		.loc 4 42 2 is_stmt 0 discriminator 4
 440 024d 48C78570 		movq	$3045, -144(%rbp)
 440      FFFFFFE5 
 440      0B0000
 441 0258 E8000000 		call	_ZN8UnitTest11CurrentTest7ResultsEv@PLT
 441      00
 442 025d 488B00   		movq	(%rax), %rax
 443 0260 488D55C0 		leaq	-64(%rbp), %rdx
 444 0264 488D4DA0 		leaq	-96(%rbp), %rcx
 445 0268 488D7908 		leaq	8(%rcx), %rdi
 446 026c 488DB570 		leaq	-144(%rbp), %rsi
 446      FFFFFF
 447 0273 4889D1   		movq	%rdx, %rcx
 448 0276 4889FA   		movq	%rdi, %rdx
 449 0279 4889C7   		movq	%rax, %rdi
 450 027c E8000000 		call	_ZN8UnitTest10CheckEqualImjEEvRNS_11TestResultsERKT_RKT0_RKNS_11TestDetailsE
 450      00
 451              	.LEHE12:
 452              	.L29:
 453              	.LEHB13:
  43:testHexIO.cpp **** 	CHECK_EQUAL(4096UL, data.capacity);
 454              		.loc 4 43 2 is_stmt 1
 455 0281 E8000000 		call	_ZN8UnitTest11CurrentTest7DetailsEv@PLT
 455      00
 456 0286 488B08   		movq	(%rax), %rcx
 457 0289 488D45C0 		leaq	-64(%rbp), %rax
 458 028d BA2B0000 		movl	$43, %edx
 458      00
 459 0292 4889CE   		movq	%rcx, %rsi
 460 0295 4889C7   		movq	%rax, %rdi
 461 0298 E8000000 		call	_ZN8UnitTest11TestDetailsC1ERKS0_i@PLT
 461      00
 462              		.loc 4 43 2 is_stmt 0 discriminator 4
 463 029d 48C78570 		movq	$4096, -144(%rbp)
 463      FFFFFF00 
 463      100000
 464 02a8 E8000000 		call	_ZN8UnitTest11CurrentTest7ResultsEv@PLT
 464      00
 465 02ad 488B00   		movq	(%rax), %rax
 466 02b0 488D55C0 		leaq	-64(%rbp), %rdx
 467 02b4 488D4D80 		leaq	-128(%rbp), %rcx
 468 02b8 488D790C 		leaq	12(%rcx), %rdi
 469 02bc 488DB570 		leaq	-144(%rbp), %rsi
 469      FFFFFF
 470 02c3 4889D1   		movq	%rdx, %rcx
 471 02c6 4889FA   		movq	%rdi, %rdx
 472 02c9 4889C7   		movq	%rax, %rdi
 473 02cc E8000000 		call	_ZN8UnitTest10CheckEqualImjEEvRNS_11TestResultsERKT_RKT0_RKNS_11TestDetailsE
 473      00
 474              	.LEHE13:
 475              	.L32:
 476              	.LEHB14:
  44:testHexIO.cpp **** 	CHECK_EQUAL(4096UL, mask.capacity);
 477              		.loc 4 44 2 is_stmt 1
 478 02d1 E8000000 		call	_ZN8UnitTest11CurrentTest7DetailsEv@PLT
 478      00
 479 02d6 488B08   		movq	(%rax), %rcx
 480 02d9 488D45C0 		leaq	-64(%rbp), %rax
 481 02dd BA2C0000 		movl	$44, %edx
 481      00
 482 02e2 4889CE   		movq	%rcx, %rsi
 483 02e5 4889C7   		movq	%rax, %rdi
 484 02e8 E8000000 		call	_ZN8UnitTest11TestDetailsC1ERKS0_i@PLT
 484      00
 485              		.loc 4 44 2 is_stmt 0 discriminator 4
 486 02ed 48C78570 		movq	$4096, -144(%rbp)
 486      FFFFFF00 
 486      100000
 487 02f8 E8000000 		call	_ZN8UnitTest11CurrentTest7ResultsEv@PLT
 487      00
 488 02fd 488B00   		movq	(%rax), %rax
 489 0300 488D55C0 		leaq	-64(%rbp), %rdx
 490 0304 488D4DA0 		leaq	-96(%rbp), %rcx
 491 0308 488D790C 		leaq	12(%rcx), %rdi
 492 030c 488DB570 		leaq	-144(%rbp), %rsi
 492      FFFFFF
 493 0313 4889D1   		movq	%rdx, %rcx
 494 0316 4889FA   		movq	%rdi, %rdx
 495 0319 4889C7   		movq	%rax, %rdi
 496 031c E8000000 		call	_ZN8UnitTest10CheckEqualImjEEvRNS_11TestResultsERKT_RKT0_RKNS_11TestDetailsE
 496      00
 497              	.LEHE14:
 498              	.L35:
 499              	.LEHB15:
  45:testHexIO.cpp **** 	CHECK_ARRAY_EQUAL(expected, data.data + 0x0BE1, 4);
 500              		.loc 4 45 2 is_stmt 1
 501 0321 E8000000 		call	_ZN8UnitTest11CurrentTest7DetailsEv@PLT
 501      00
 502 0326 488B08   		movq	(%rax), %rcx
 503 0329 488D45C0 		leaq	-64(%rbp), %rax
 504 032d BA2D0000 		movl	$45, %edx
 504      00
 505 0332 4889CE   		movq	%rcx, %rsi
 506 0335 4889C7   		movq	%rax, %rdi
 507 0338 E8000000 		call	_ZN8UnitTest11TestDetailsC1ERKS0_i@PLT
 507      00
 508              		.loc 4 45 2 is_stmt 0 discriminator 4
 509 033d 488B4580 		movq	-128(%rbp), %rax
 510 0341 4805E10B 		addq	$3041, %rax
 510      0000
 511 0347 48898570 		movq	%rax, -144(%rbp)
 511      FFFFFF
 512 034e E8000000 		call	_ZN8UnitTest11CurrentTest7ResultsEv@PLT
 512      00
 513 0353 488B00   		movq	(%rax), %rax
 514 0356 488D4DC0 		leaq	-64(%rbp), %rcx
 515 035a 488D9570 		leaq	-144(%rbp), %rdx
 515      FFFFFF
 516 0361 488D75E4 		leaq	-28(%rbp), %rsi
 517 0365 4989C8   		movq	%rcx, %r8
 518 0368 B9040000 		movl	$4, %ecx
 518      00
 519 036d 4889C7   		movq	%rax, %rdi
 520 0370 E8000000 		call	_ZN8UnitTest15CheckArrayEqualIA4_hPhEEvRNS_11TestResultsERKT_RKT0_iRKNS_11TestDetailsE
 520      00
 521              	.LEHE15:
 522              	.L38:
  46:testHexIO.cpp **** 	bufDestroy(&mask);
 523              		.loc 4 46 12 is_stmt 1
 524 0375 488D45A0 		leaq	-96(%rbp), %rax
 525 0379 4889C7   		movq	%rax, %rdi
 526              	.LEHB16:
 527 037c E8000000 		call	bufDestroy@PLT
 527      00
  47:testHexIO.cpp **** 	bufDestroy(&data);
 528              		.loc 4 47 12
 529 0381 488D4580 		leaq	-128(%rbp), %rax
 530 0385 4889C7   		movq	%rax, %rdi
 531 0388 E8000000 		call	bufDestroy@PLT
 531      00
 532              	.LEHE16:
  48:testHexIO.cpp **** }
 533              		.loc 4 48 1
 534 038d 90       		nop
 535 038e 488B45E8 		movq	-24(%rbp), %rax
 536 0392 64482B04 		subq	%fs:40, %rax
 536      25280000 
 536      00
 537 039b 0F84A903 		je	.L40
 537      0000
 538 03a1 E99F0300 		jmp	.L59
 538      00
 539              	.L41:
 540 03a6 F30F1EFA 		endbr64
  35:testHexIO.cpp **** 	status = bufInitialise(&mask, 1024, 0x00, NULL);
 541              		.loc 4 35 2
 542 03aa 4889C7   		movq	%rax, %rdi
 543 03ad E8000000 		call	__cxa_begin_catch@PLT
 543      00
 544              	.LEHB17:
 545 03b2 E8000000 		call	_ZN8UnitTest11CurrentTest7ResultsEv@PLT
 545      00
  35:testHexIO.cpp **** 	status = bufInitialise(&mask, 1024, 0x00, NULL);
 546              		.loc 4 35 2 is_stmt 0 discriminator 3
 547 03b7 488B18   		movq	(%rax), %rbx
 548 03ba E8000000 		call	_ZN8UnitTest11CurrentTest7DetailsEv@PLT
 548      00
  35:testHexIO.cpp **** 	status = bufInitialise(&mask, 1024, 0x00, NULL);
 549              		.loc 4 35 2 discriminator 11
 550 03bf 488B08   		movq	(%rax), %rcx
 551 03c2 488D45C0 		leaq	-64(%rbp), %rax
 552 03c6 BA230000 		movl	$35, %edx
 552      00
 553 03cb 4889CE   		movq	%rcx, %rsi
 554 03ce 4889C7   		movq	%rax, %rdi
 555 03d1 E8000000 		call	_ZN8UnitTest11TestDetailsC1ERKS0_i@PLT
 555      00
  35:testHexIO.cpp **** 	status = bufInitialise(&mask, 1024, 0x00, NULL);
 556              		.loc 4 35 2 discriminator 15
 557 03d6 488D45C0 		leaq	-64(%rbp), %rax
 558 03da 488D1500 		leaq	.LC4(%rip), %rdx
 558      000000
 559 03e1 4889C6   		movq	%rax, %rsi
 560 03e4 4889DF   		movq	%rbx, %rdi
 561 03e7 E8000000 		call	_ZN8UnitTest11TestResults13OnTestFailureERKNS_11TestDetailsEPKc@PLT
 561      00
 562              	.LEHE17:
 563              	.LEHB18:
  35:testHexIO.cpp **** 	status = bufInitialise(&mask, 1024, 0x00, NULL);
 564              		.loc 4 35 2 discriminator 17
 565 03ec E8000000 		call	__cxa_end_catch@PLT
 565      00
 566              	.LEHE18:
 567 03f1 E9B2FCFF 		jmp	.L14
 567      FF
 568              	.L42:
 569 03f6 F30F1EFA 		endbr64
  35:testHexIO.cpp **** 	status = bufInitialise(&mask, 1024, 0x00, NULL);
 570              		.loc 4 35 2
 571 03fa 4889C3   		movq	%rax, %rbx
 572 03fd E8000000 		call	__cxa_end_catch@PLT
 572      00
 573 0402 4889D8   		movq	%rbx, %rax
 574 0405 4889C7   		movq	%rax, %rdi
 575              	.LEHB19:
 576 0408 E8000000 		call	_Unwind_Resume@PLT
 576      00
 577              	.LEHE19:
 578              	.L43:
 579 040d F30F1EFA 		endbr64
  37:testHexIO.cpp **** 	status = bufProcessLine(line, 0, &data, &mask, &seg, &recordType, NULL);
 580              		.loc 4 37 2 is_stmt 1
 581 0411 4889C7   		movq	%rax, %rdi
 582 0414 E8000000 		call	__cxa_begin_catch@PLT
 582      00
 583              	.LEHB20:
 584 0419 E8000000 		call	_ZN8UnitTest11CurrentTest7ResultsEv@PLT
 584      00
  37:testHexIO.cpp **** 	status = bufProcessLine(line, 0, &data, &mask, &seg, &recordType, NULL);
 585              		.loc 4 37 2 is_stmt 0 discriminator 3
 586 041e 488B18   		movq	(%rax), %rbx
 587 0421 E8000000 		call	_ZN8UnitTest11CurrentTest7DetailsEv@PLT
 587      00
  37:testHexIO.cpp **** 	status = bufProcessLine(line, 0, &data, &mask, &seg, &recordType, NULL);
 588              		.loc 4 37 2 discriminator 11
 589 0426 488B08   		movq	(%rax), %rcx
 590 0429 488D45C0 		leaq	-64(%rbp), %rax
 591 042d BA250000 		movl	$37, %edx
 591      00
 592 0432 4889CE   		movq	%rcx, %rsi
 593 0435 4889C7   		movq	%rax, %rdi
 594 0438 E8000000 		call	_ZN8UnitTest11TestDetailsC1ERKS0_i@PLT
 594      00
  37:testHexIO.cpp **** 	status = bufProcessLine(line, 0, &data, &mask, &seg, &recordType, NULL);
 595              		.loc 4 37 2 discriminator 15
 596 043d 488D45C0 		leaq	-64(%rbp), %rax
 597 0441 488D1500 		leaq	.LC4(%rip), %rdx
 597      000000
 598 0448 4889C6   		movq	%rax, %rsi
 599 044b 4889DF   		movq	%rbx, %rdi
 600 044e E8000000 		call	_ZN8UnitTest11TestResults13OnTestFailureERKNS_11TestDetailsEPKc@PLT
 600      00
 601              	.LEHE20:
 602              	.LEHB21:
  37:testHexIO.cpp **** 	status = bufProcessLine(line, 0, &data, &mask, &seg, &recordType, NULL);
 603              		.loc 4 37 2 discriminator 17
 604 0453 E8000000 		call	__cxa_end_catch@PLT
 604      00
 605              	.LEHE21:
 606 0458 E9B4FCFF 		jmp	.L17
 606      FF
 607              	.L44:
 608 045d F30F1EFA 		endbr64
  37:testHexIO.cpp **** 	status = bufProcessLine(line, 0, &data, &mask, &seg, &recordType, NULL);
 609              		.loc 4 37 2
 610 0461 4889C3   		movq	%rax, %rbx
 611 0464 E8000000 		call	__cxa_end_catch@PLT
 611      00
 612 0469 4889D8   		movq	%rbx, %rax
 613 046c 4889C7   		movq	%rax, %rdi
 614              	.LEHB22:
 615 046f E8000000 		call	_Unwind_Resume@PLT
 615      00
 616              	.LEHE22:
 617              	.L45:
 618 0474 F30F1EFA 		endbr64
  39:testHexIO.cpp **** 	CHECK_EQUAL(0x00, recordType);
 619              		.loc 4 39 2 is_stmt 1
 620 0478 4889C7   		movq	%rax, %rdi
 621 047b E8000000 		call	__cxa_begin_catch@PLT
 621      00
 622              	.LEHB23:
 623 0480 E8000000 		call	_ZN8UnitTest11CurrentTest7ResultsEv@PLT
 623      00
  39:testHexIO.cpp **** 	CHECK_EQUAL(0x00, recordType);
 624              		.loc 4 39 2 is_stmt 0 discriminator 3
 625 0485 488B18   		movq	(%rax), %rbx
 626 0488 E8000000 		call	_ZN8UnitTest11CurrentTest7DetailsEv@PLT
 626      00
  39:testHexIO.cpp **** 	CHECK_EQUAL(0x00, recordType);
 627              		.loc 4 39 2 discriminator 11
 628 048d 488B08   		movq	(%rax), %rcx
 629 0490 488D45C0 		leaq	-64(%rbp), %rax
 630 0494 BA270000 		movl	$39, %edx
 630      00
 631 0499 4889CE   		movq	%rcx, %rsi
 632 049c 4889C7   		movq	%rax, %rdi
 633 049f E8000000 		call	_ZN8UnitTest11TestDetailsC1ERKS0_i@PLT
 633      00
  39:testHexIO.cpp **** 	CHECK_EQUAL(0x00, recordType);
 634              		.loc 4 39 2 discriminator 15
 635 04a4 488D45C0 		leaq	-64(%rbp), %rax
 636 04a8 488D1500 		leaq	.LC4(%rip), %rdx
 636      000000
 637 04af 4889C6   		movq	%rax, %rsi
 638 04b2 4889DF   		movq	%rbx, %rdi
 639 04b5 E8000000 		call	_ZN8UnitTest11TestResults13OnTestFailureERKNS_11TestDetailsEPKc@PLT
 639      00
 640              	.LEHE23:
 641              	.LEHB24:
  39:testHexIO.cpp **** 	CHECK_EQUAL(0x00, recordType);
 642              		.loc 4 39 2 discriminator 17
 643 04ba E8000000 		call	__cxa_end_catch@PLT
 643      00
 644              	.LEHE24:
 645 04bf E9D5FCFF 		jmp	.L20
 645      FF
 646              	.L46:
 647 04c4 F30F1EFA 		endbr64
  39:testHexIO.cpp **** 	CHECK_EQUAL(0x00, recordType);
 648              		.loc 4 39 2
 649 04c8 4889C3   		movq	%rax, %rbx
 650 04cb E8000000 		call	__cxa_end_catch@PLT
 650      00
 651 04d0 4889D8   		movq	%rbx, %rax
 652 04d3 4889C7   		movq	%rax, %rdi
 653              	.LEHB25:
 654 04d6 E8000000 		call	_Unwind_Resume@PLT
 654      00
 655              	.LEHE25:
 656              	.L47:
 657 04db F30F1EFA 		endbr64
  40:testHexIO.cpp **** 	CHECK_EQUAL(0x0BE1+4UL, data.length);
 658              		.loc 4 40 2 is_stmt 1
 659 04df 4889C7   		movq	%rax, %rdi
 660 04e2 E8000000 		call	__cxa_begin_catch@PLT
 660      00
 661              	.LEHB26:
 662 04e7 E8000000 		call	_ZN8UnitTest11CurrentTest7ResultsEv@PLT
 662      00
  40:testHexIO.cpp **** 	CHECK_EQUAL(0x0BE1+4UL, data.length);
 663              		.loc 4 40 2 is_stmt 0 discriminator 3
 664 04ec 488B18   		movq	(%rax), %rbx
 665 04ef E8000000 		call	_ZN8UnitTest11CurrentTest7DetailsEv@PLT
 665      00
  40:testHexIO.cpp **** 	CHECK_EQUAL(0x0BE1+4UL, data.length);
 666              		.loc 4 40 2 discriminator 11
 667 04f4 488B08   		movq	(%rax), %rcx
 668 04f7 488D45C0 		leaq	-64(%rbp), %rax
 669 04fb BA280000 		movl	$40, %edx
 669      00
 670 0500 4889CE   		movq	%rcx, %rsi
 671 0503 4889C7   		movq	%rax, %rdi
 672 0506 E8000000 		call	_ZN8UnitTest11TestDetailsC1ERKS0_i@PLT
 672      00
  40:testHexIO.cpp **** 	CHECK_EQUAL(0x0BE1+4UL, data.length);
 673              		.loc 4 40 2 discriminator 15
 674 050b 488D45C0 		leaq	-64(%rbp), %rax
 675 050f 488D1500 		leaq	.LC5(%rip), %rdx
 675      000000
 676 0516 4889C6   		movq	%rax, %rsi
 677 0519 4889DF   		movq	%rbx, %rdi
 678 051c E8000000 		call	_ZN8UnitTest11TestResults13OnTestFailureERKNS_11TestDetailsEPKc@PLT
 678      00
 679              	.LEHE26:
 680              	.LEHB27:
  40:testHexIO.cpp **** 	CHECK_EQUAL(0x0BE1+4UL, data.length);
 681              		.loc 4 40 2 discriminator 17
 682 0521 E8000000 		call	__cxa_end_catch@PLT
 682      00
 683              	.LEHE27:
 684 0526 E9B6FCFF 		jmp	.L23
 684      FF
 685              	.L48:
 686 052b F30F1EFA 		endbr64
  40:testHexIO.cpp **** 	CHECK_EQUAL(0x0BE1+4UL, data.length);
 687              		.loc 4 40 2
 688 052f 4889C3   		movq	%rax, %rbx
 689 0532 E8000000 		call	__cxa_end_catch@PLT
 689      00
 690 0537 4889D8   		movq	%rbx, %rax
 691 053a 4889C7   		movq	%rax, %rdi
 692              	.LEHB28:
 693 053d E8000000 		call	_Unwind_Resume@PLT
 693      00
 694              	.LEHE28:
 695              	.L49:
 696 0542 F30F1EFA 		endbr64
  41:testHexIO.cpp **** 	CHECK_EQUAL(0x0BE1+4UL, mask.length);
 697              		.loc 4 41 2 is_stmt 1
 698 0546 4889C7   		movq	%rax, %rdi
 699 0549 E8000000 		call	__cxa_begin_catch@PLT
 699      00
 700              	.LEHB29:
 701 054e E8000000 		call	_ZN8UnitTest11CurrentTest7ResultsEv@PLT
 701      00
  41:testHexIO.cpp **** 	CHECK_EQUAL(0x0BE1+4UL, mask.length);
 702              		.loc 4 41 2 is_stmt 0 discriminator 3
 703 0553 488B18   		movq	(%rax), %rbx
 704 0556 E8000000 		call	_ZN8UnitTest11CurrentTest7DetailsEv@PLT
 704      00
  41:testHexIO.cpp **** 	CHECK_EQUAL(0x0BE1+4UL, mask.length);
 705              		.loc 4 41 2 discriminator 11
 706 055b 488B08   		movq	(%rax), %rcx
 707 055e 488D45C0 		leaq	-64(%rbp), %rax
 708 0562 BA290000 		movl	$41, %edx
 708      00
 709 0567 4889CE   		movq	%rcx, %rsi
 710 056a 4889C7   		movq	%rax, %rdi
 711 056d E8000000 		call	_ZN8UnitTest11TestDetailsC1ERKS0_i@PLT
 711      00
  41:testHexIO.cpp **** 	CHECK_EQUAL(0x0BE1+4UL, mask.length);
 712              		.loc 4 41 2 discriminator 15
 713 0572 488D45C0 		leaq	-64(%rbp), %rax
 714 0576 488D1500 		leaq	.LC6(%rip), %rdx
 714      000000
 715 057d 4889C6   		movq	%rax, %rsi
 716 0580 4889DF   		movq	%rbx, %rdi
 717 0583 E8000000 		call	_ZN8UnitTest11TestResults13OnTestFailureERKNS_11TestDetailsEPKc@PLT
 717      00
 718              	.LEHE29:
 719              	.LEHB30:
  41:testHexIO.cpp **** 	CHECK_EQUAL(0x0BE1+4UL, mask.length);
 720              		.loc 4 41 2 discriminator 17
 721 0588 E8000000 		call	__cxa_end_catch@PLT
 721      00
 722              	.LEHE30:
 723 058d E99FFCFF 		jmp	.L26
 723      FF
 724              	.L50:
 725 0592 F30F1EFA 		endbr64
  41:testHexIO.cpp **** 	CHECK_EQUAL(0x0BE1+4UL, mask.length);
 726              		.loc 4 41 2
 727 0596 4889C3   		movq	%rax, %rbx
 728 0599 E8000000 		call	__cxa_end_catch@PLT
 728      00
 729 059e 4889D8   		movq	%rbx, %rax
 730 05a1 4889C7   		movq	%rax, %rdi
 731              	.LEHB31:
 732 05a4 E8000000 		call	_Unwind_Resume@PLT
 732      00
 733              	.LEHE31:
 734              	.L51:
 735 05a9 F30F1EFA 		endbr64
  42:testHexIO.cpp **** 	CHECK_EQUAL(4096UL, data.capacity);
 736              		.loc 4 42 2 is_stmt 1
 737 05ad 4889C7   		movq	%rax, %rdi
 738 05b0 E8000000 		call	__cxa_begin_catch@PLT
 738      00
 739              	.LEHB32:
 740 05b5 E8000000 		call	_ZN8UnitTest11CurrentTest7ResultsEv@PLT
 740      00
  42:testHexIO.cpp **** 	CHECK_EQUAL(4096UL, data.capacity);
 741              		.loc 4 42 2 is_stmt 0 discriminator 3
 742 05ba 488B18   		movq	(%rax), %rbx
 743 05bd E8000000 		call	_ZN8UnitTest11CurrentTest7DetailsEv@PLT
 743      00
  42:testHexIO.cpp **** 	CHECK_EQUAL(4096UL, data.capacity);
 744              		.loc 4 42 2 discriminator 11
 745 05c2 488B08   		movq	(%rax), %rcx
 746 05c5 488D45C0 		leaq	-64(%rbp), %rax
 747 05c9 BA2A0000 		movl	$42, %edx
 747      00
 748 05ce 4889CE   		movq	%rcx, %rsi
 749 05d1 4889C7   		movq	%rax, %rdi
 750 05d4 E8000000 		call	_ZN8UnitTest11TestDetailsC1ERKS0_i@PLT
 750      00
  42:testHexIO.cpp **** 	CHECK_EQUAL(4096UL, data.capacity);
 751              		.loc 4 42 2 discriminator 15
 752 05d9 488D45C0 		leaq	-64(%rbp), %rax
 753 05dd 488D1500 		leaq	.LC7(%rip), %rdx
 753      000000
 754 05e4 4889C6   		movq	%rax, %rsi
 755 05e7 4889DF   		movq	%rbx, %rdi
 756 05ea E8000000 		call	_ZN8UnitTest11TestResults13OnTestFailureERKNS_11TestDetailsEPKc@PLT
 756      00
 757              	.LEHE32:
 758              	.LEHB33:
  42:testHexIO.cpp **** 	CHECK_EQUAL(4096UL, data.capacity);
 759              		.loc 4 42 2 discriminator 17
 760 05ef E8000000 		call	__cxa_end_catch@PLT
 760      00
 761              	.LEHE33:
 762 05f4 E988FCFF 		jmp	.L29
 762      FF
 763              	.L52:
 764 05f9 F30F1EFA 		endbr64
  42:testHexIO.cpp **** 	CHECK_EQUAL(4096UL, data.capacity);
 765              		.loc 4 42 2
 766 05fd 4889C3   		movq	%rax, %rbx
 767 0600 E8000000 		call	__cxa_end_catch@PLT
 767      00
 768 0605 4889D8   		movq	%rbx, %rax
 769 0608 4889C7   		movq	%rax, %rdi
 770              	.LEHB34:
 771 060b E8000000 		call	_Unwind_Resume@PLT
 771      00
 772              	.LEHE34:
 773              	.L53:
 774 0610 F30F1EFA 		endbr64
  43:testHexIO.cpp **** 	CHECK_EQUAL(4096UL, mask.capacity);
 775              		.loc 4 43 2 is_stmt 1
 776 0614 4889C7   		movq	%rax, %rdi
 777 0617 E8000000 		call	__cxa_begin_catch@PLT
 777      00
 778              	.LEHB35:
 779 061c E8000000 		call	_ZN8UnitTest11CurrentTest7ResultsEv@PLT
 779      00
  43:testHexIO.cpp **** 	CHECK_EQUAL(4096UL, mask.capacity);
 780              		.loc 4 43 2 is_stmt 0 discriminator 3
 781 0621 488B18   		movq	(%rax), %rbx
 782 0624 E8000000 		call	_ZN8UnitTest11CurrentTest7DetailsEv@PLT
 782      00
  43:testHexIO.cpp **** 	CHECK_EQUAL(4096UL, mask.capacity);
 783              		.loc 4 43 2 discriminator 11
 784 0629 488B08   		movq	(%rax), %rcx
 785 062c 488D45C0 		leaq	-64(%rbp), %rax
 786 0630 BA2B0000 		movl	$43, %edx
 786      00
 787 0635 4889CE   		movq	%rcx, %rsi
 788 0638 4889C7   		movq	%rax, %rdi
 789 063b E8000000 		call	_ZN8UnitTest11TestDetailsC1ERKS0_i@PLT
 789      00
  43:testHexIO.cpp **** 	CHECK_EQUAL(4096UL, mask.capacity);
 790              		.loc 4 43 2 discriminator 15
 791 0640 488D45C0 		leaq	-64(%rbp), %rax
 792 0644 488D1500 		leaq	.LC8(%rip), %rdx
 792      000000
 793 064b 4889C6   		movq	%rax, %rsi
 794 064e 4889DF   		movq	%rbx, %rdi
 795 0651 E8000000 		call	_ZN8UnitTest11TestResults13OnTestFailureERKNS_11TestDetailsEPKc@PLT
 795      00
 796              	.LEHE35:
 797              	.LEHB36:
  43:testHexIO.cpp **** 	CHECK_EQUAL(4096UL, mask.capacity);
 798              		.loc 4 43 2 discriminator 17
 799 0656 E8000000 		call	__cxa_end_catch@PLT
 799      00
 800              	.LEHE36:
 801 065b E971FCFF 		jmp	.L32
 801      FF
 802              	.L54:
 803 0660 F30F1EFA 		endbr64
  43:testHexIO.cpp **** 	CHECK_EQUAL(4096UL, mask.capacity);
 804              		.loc 4 43 2
 805 0664 4889C3   		movq	%rax, %rbx
 806 0667 E8000000 		call	__cxa_end_catch@PLT
 806      00
 807 066c 4889D8   		movq	%rbx, %rax
 808 066f 4889C7   		movq	%rax, %rdi
 809              	.LEHB37:
 810 0672 E8000000 		call	_Unwind_Resume@PLT
 810      00
 811              	.LEHE37:
 812              	.L55:
 813 0677 F30F1EFA 		endbr64
  44:testHexIO.cpp **** 	CHECK_ARRAY_EQUAL(expected, data.data + 0x0BE1, 4);
 814              		.loc 4 44 2 is_stmt 1
 815 067b 4889C7   		movq	%rax, %rdi
 816 067e E8000000 		call	__cxa_begin_catch@PLT
 816      00
 817              	.LEHB38:
 818 0683 E8000000 		call	_ZN8UnitTest11CurrentTest7ResultsEv@PLT
 818      00
  44:testHexIO.cpp **** 	CHECK_ARRAY_EQUAL(expected, data.data + 0x0BE1, 4);
 819              		.loc 4 44 2 is_stmt 0 discriminator 3
 820 0688 488B18   		movq	(%rax), %rbx
 821 068b E8000000 		call	_ZN8UnitTest11CurrentTest7DetailsEv@PLT
 821      00
  44:testHexIO.cpp **** 	CHECK_ARRAY_EQUAL(expected, data.data + 0x0BE1, 4);
 822              		.loc 4 44 2 discriminator 11
 823 0690 488B08   		movq	(%rax), %rcx
 824 0693 488D45C0 		leaq	-64(%rbp), %rax
 825 0697 BA2C0000 		movl	$44, %edx
 825      00
 826 069c 4889CE   		movq	%rcx, %rsi
 827 069f 4889C7   		movq	%rax, %rdi
 828 06a2 E8000000 		call	_ZN8UnitTest11TestDetailsC1ERKS0_i@PLT
 828      00
  44:testHexIO.cpp **** 	CHECK_ARRAY_EQUAL(expected, data.data + 0x0BE1, 4);
 829              		.loc 4 44 2 discriminator 15
 830 06a7 488D45C0 		leaq	-64(%rbp), %rax
 831 06ab 488D1500 		leaq	.LC9(%rip), %rdx
 831      000000
 832 06b2 4889C6   		movq	%rax, %rsi
 833 06b5 4889DF   		movq	%rbx, %rdi
 834 06b8 E8000000 		call	_ZN8UnitTest11TestResults13OnTestFailureERKNS_11TestDetailsEPKc@PLT
 834      00
 835              	.LEHE38:
 836              	.LEHB39:
  44:testHexIO.cpp **** 	CHECK_ARRAY_EQUAL(expected, data.data + 0x0BE1, 4);
 837              		.loc 4 44 2 discriminator 17
 838 06bd E8000000 		call	__cxa_end_catch@PLT
 838      00
 839              	.LEHE39:
 840 06c2 E95AFCFF 		jmp	.L35
 840      FF
 841              	.L56:
 842 06c7 F30F1EFA 		endbr64
  44:testHexIO.cpp **** 	CHECK_ARRAY_EQUAL(expected, data.data + 0x0BE1, 4);
 843              		.loc 4 44 2
 844 06cb 4889C3   		movq	%rax, %rbx
 845 06ce E8000000 		call	__cxa_end_catch@PLT
 845      00
 846 06d3 4889D8   		movq	%rbx, %rax
 847 06d6 4889C7   		movq	%rax, %rdi
 848              	.LEHB40:
 849 06d9 E8000000 		call	_Unwind_Resume@PLT
 849      00
 850              	.LEHE40:
 851              	.L57:
 852 06de F30F1EFA 		endbr64
  45:testHexIO.cpp **** 	bufDestroy(&mask);
 853              		.loc 4 45 2 is_stmt 1
 854 06e2 4889C7   		movq	%rax, %rdi
 855 06e5 E8000000 		call	__cxa_begin_catch@PLT
 855      00
 856              	.LEHB41:
 857 06ea E8000000 		call	_ZN8UnitTest11CurrentTest7ResultsEv@PLT
 857      00
  45:testHexIO.cpp **** 	bufDestroy(&mask);
 858              		.loc 4 45 2 is_stmt 0 discriminator 3
 859 06ef 488B18   		movq	(%rax), %rbx
 860 06f2 E8000000 		call	_ZN8UnitTest11CurrentTest7DetailsEv@PLT
 860      00
  45:testHexIO.cpp **** 	bufDestroy(&mask);
 861              		.loc 4 45 2 discriminator 11
 862 06f7 488B08   		movq	(%rax), %rcx
 863 06fa 488D45C0 		leaq	-64(%rbp), %rax
 864 06fe BA2D0000 		movl	$45, %edx
 864      00
 865 0703 4889CE   		movq	%rcx, %rsi
 866 0706 4889C7   		movq	%rax, %rdi
 867 0709 E8000000 		call	_ZN8UnitTest11TestDetailsC1ERKS0_i@PLT
 867      00
  45:testHexIO.cpp **** 	bufDestroy(&mask);
 868              		.loc 4 45 2 discriminator 15
 869 070e 488D45C0 		leaq	-64(%rbp), %rax
 870 0712 488D1500 		leaq	.LC10(%rip), %rdx
 870      000000
 871 0719 4889C6   		movq	%rax, %rsi
 872 071c 4889DF   		movq	%rbx, %rdi
 873 071f E8000000 		call	_ZN8UnitTest11TestResults13OnTestFailureERKNS_11TestDetailsEPKc@PLT
 873      00
 874              	.LEHE41:
 875              	.LEHB42:
  45:testHexIO.cpp **** 	bufDestroy(&mask);
 876              		.loc 4 45 2 discriminator 17
 877 0724 E8000000 		call	__cxa_end_catch@PLT
 877      00
 878              	.LEHE42:
 879 0729 E947FCFF 		jmp	.L38
 879      FF
 880              	.L58:
 881 072e F30F1EFA 		endbr64
  45:testHexIO.cpp **** 	bufDestroy(&mask);
 882              		.loc 4 45 2
 883 0732 4889C3   		movq	%rax, %rbx
 884 0735 E8000000 		call	__cxa_end_catch@PLT
 884      00
 885 073a 4889D8   		movq	%rbx, %rax
 886 073d 4889C7   		movq	%rax, %rdi
 887              	.LEHB43:
 888 0740 E8000000 		call	_Unwind_Resume@PLT
 888      00
 889              	.LEHE43:
 890              	.L59:
 891              		.loc 4 48 1 is_stmt 1
 892 0745 E8000000 		call	__stack_chk_fail@PLT
 892      00
 893              	.L40:
 894 074a 488B5DF8 		movq	-8(%rbp), %rbx
 895 074e C9       		leave
 896              		.cfi_def_cfa 7, 8
 897 074f C3       		ret
 898              		.cfi_endproc
 899              	.LFE1219:
 900              		.section	.gcc_except_table,"a",@progbits
 901              		.align 4
 902              	.LLSDA1219:
 903 0000 FF       		.byte	0xff
 904 0001 9B       		.byte	0x9b
 905 0002 E401     		.uleb128 .LLSDATT1219-.LLSDATTD1219
 906              	.LLSDATTD1219:
 907 0004 01       		.byte	0x1
 908 0005 D801     		.uleb128 .LLSDACSE1219-.LLSDACSB1219
 909              	.LLSDACSB1219:
 910 0007 5B       		.uleb128 .LEHB4-.LFB1219
 911 0008 05       		.uleb128 .LEHE4-.LEHB4
 912 0009 00       		.uleb128 0
 913 000a 00       		.uleb128 0
 914 000b 66       		.uleb128 .LEHB5-.LFB1219
 915 000c 42       		.uleb128 .LEHE5-.LEHB5
 916 000d A607     		.uleb128 .L41-.LFB1219
 917 000f 01       		.uleb128 0x1
 918 0010 BE01     		.uleb128 .LEHB6-.LFB1219
 919 0012 05       		.uleb128 .LEHE6-.LEHB6
 920 0013 00       		.uleb128 0
 921 0014 00       		.uleb128 0
 922 0015 C901     		.uleb128 .LEHB7-.LFB1219
 923 0017 48       		.uleb128 .LEHE7-.LEHB7
 924 0018 8D08     		.uleb128 .L43-.LFB1219
 925 001a 01       		.uleb128 0x1
 926 001b C202     		.uleb128 .LEHB8-.LFB1219
 927 001d 05       		.uleb128 .LEHE8-.LEHB8
 928 001e 00       		.uleb128 0
 929 001f 00       		.uleb128 0
 930 0020 D102     		.uleb128 .LEHB9-.LFB1219
 931 0022 48       		.uleb128 .LEHE9-.LEHB9
 932 0023 F408     		.uleb128 .L45-.LFB1219
 933 0025 01       		.uleb128 0x1
 934 0026 9903     		.uleb128 .LEHB10-.LFB1219
 935 0028 48       		.uleb128 .LEHE10-.LEHB10
 936 0029 DB09     		.uleb128 .L47-.LFB1219
 937 002b 01       		.uleb128 0x1
 938 002c E103     		.uleb128 .LEHB11-.LFB1219
 939 002e 50       		.uleb128 .LEHE11-.LEHB11
 940 002f C20A     		.uleb128 .L49-.LFB1219
 941 0031 01       		.uleb128 0x1
 942 0032 B104     		.uleb128 .LEHB12-.LFB1219
 943 0034 50       		.uleb128 .LEHE12-.LEHB12
 944 0035 A90B     		.uleb128 .L51-.LFB1219
 945 0037 01       		.uleb128 0x1
 946 0038 8105     		.uleb128 .LEHB13-.LFB1219
 947 003a 50       		.uleb128 .LEHE13-.LEHB13
 948 003b 900C     		.uleb128 .L53-.LFB1219
 949 003d 01       		.uleb128 0x1
 950 003e D105     		.uleb128 .LEHB14-.LFB1219
 951 0040 50       		.uleb128 .LEHE14-.LEHB14
 952 0041 F70C     		.uleb128 .L55-.LFB1219
 953 0043 01       		.uleb128 0x1
 954 0044 A106     		.uleb128 .LEHB15-.LFB1219
 955 0046 54       		.uleb128 .LEHE15-.LEHB15
 956 0047 DE0D     		.uleb128 .L57-.LFB1219
 957 0049 01       		.uleb128 0x1
 958 004a FC06     		.uleb128 .LEHB16-.LFB1219
 959 004c 11       		.uleb128 .LEHE16-.LEHB16
 960 004d 00       		.uleb128 0
 961 004e 00       		.uleb128 0
 962 004f B207     		.uleb128 .LEHB17-.LFB1219
 963 0051 3A       		.uleb128 .LEHE17-.LEHB17
 964 0052 F607     		.uleb128 .L42-.LFB1219
 965 0054 00       		.uleb128 0
 966 0055 EC07     		.uleb128 .LEHB18-.LFB1219
 967 0057 05       		.uleb128 .LEHE18-.LEHB18
 968 0058 00       		.uleb128 0
 969 0059 00       		.uleb128 0
 970 005a 8808     		.uleb128 .LEHB19-.LFB1219
 971 005c 05       		.uleb128 .LEHE19-.LEHB19
 972 005d 00       		.uleb128 0
 973 005e 00       		.uleb128 0
 974 005f 9908     		.uleb128 .LEHB20-.LFB1219
 975 0061 3A       		.uleb128 .LEHE20-.LEHB20
 976 0062 DD08     		.uleb128 .L44-.LFB1219
 977 0064 00       		.uleb128 0
 978 0065 D308     		.uleb128 .LEHB21-.LFB1219
 979 0067 05       		.uleb128 .LEHE21-.LEHB21
 980 0068 00       		.uleb128 0
 981 0069 00       		.uleb128 0
 982 006a EF08     		.uleb128 .LEHB22-.LFB1219
 983 006c 05       		.uleb128 .LEHE22-.LEHB22
 984 006d 00       		.uleb128 0
 985 006e 00       		.uleb128 0
 986 006f 8009     		.uleb128 .LEHB23-.LFB1219
 987 0071 3A       		.uleb128 .LEHE23-.LEHB23
 988 0072 C409     		.uleb128 .L46-.LFB1219
 989 0074 00       		.uleb128 0
 990 0075 BA09     		.uleb128 .LEHB24-.LFB1219
 991 0077 05       		.uleb128 .LEHE24-.LEHB24
 992 0078 00       		.uleb128 0
 993 0079 00       		.uleb128 0
 994 007a D609     		.uleb128 .LEHB25-.LFB1219
 995 007c 05       		.uleb128 .LEHE25-.LEHB25
 996 007d 00       		.uleb128 0
 997 007e 00       		.uleb128 0
 998 007f E709     		.uleb128 .LEHB26-.LFB1219
 999 0081 3A       		.uleb128 .LEHE26-.LEHB26
 1000 0082 AB0A     		.uleb128 .L48-.LFB1219
 1001 0084 00       		.uleb128 0
 1002 0085 A10A     		.uleb128 .LEHB27-.LFB1219
 1003 0087 05       		.uleb128 .LEHE27-.LEHB27
 1004 0088 00       		.uleb128 0
 1005 0089 00       		.uleb128 0
 1006 008a BD0A     		.uleb128 .LEHB28-.LFB1219
 1007 008c 05       		.uleb128 .LEHE28-.LEHB28
 1008 008d 00       		.uleb128 0
 1009 008e 00       		.uleb128 0
 1010 008f CE0A     		.uleb128 .LEHB29-.LFB1219
 1011 0091 3A       		.uleb128 .LEHE29-.LEHB29
 1012 0092 920B     		.uleb128 .L50-.LFB1219
 1013 0094 00       		.uleb128 0
 1014 0095 880B     		.uleb128 .LEHB30-.LFB1219
 1015 0097 05       		.uleb128 .LEHE30-.LEHB30
 1016 0098 00       		.uleb128 0
 1017 0099 00       		.uleb128 0
 1018 009a A40B     		.uleb128 .LEHB31-.LFB1219
 1019 009c 05       		.uleb128 .LEHE31-.LEHB31
 1020 009d 00       		.uleb128 0
 1021 009e 00       		.uleb128 0
 1022 009f B50B     		.uleb128 .LEHB32-.LFB1219
 1023 00a1 3A       		.uleb128 .LEHE32-.LEHB32
 1024 00a2 F90B     		.uleb128 .L52-.LFB1219
 1025 00a4 00       		.uleb128 0
 1026 00a5 EF0B     		.uleb128 .LEHB33-.LFB1219
 1027 00a7 05       		.uleb128 .LEHE33-.LEHB33
 1028 00a8 00       		.uleb128 0
 1029 00a9 00       		.uleb128 0
 1030 00aa 8B0C     		.uleb128 .LEHB34-.LFB1219
 1031 00ac 05       		.uleb128 .LEHE34-.LEHB34
 1032 00ad 00       		.uleb128 0
 1033 00ae 00       		.uleb128 0
 1034 00af 9C0C     		.uleb128 .LEHB35-.LFB1219
 1035 00b1 3A       		.uleb128 .LEHE35-.LEHB35
 1036 00b2 E00C     		.uleb128 .L54-.LFB1219
 1037 00b4 00       		.uleb128 0
 1038 00b5 D60C     		.uleb128 .LEHB36-.LFB1219
 1039 00b7 05       		.uleb128 .LEHE36-.LEHB36
 1040 00b8 00       		.uleb128 0
 1041 00b9 00       		.uleb128 0
 1042 00ba F20C     		.uleb128 .LEHB37-.LFB1219
 1043 00bc 05       		.uleb128 .LEHE37-.LEHB37
 1044 00bd 00       		.uleb128 0
 1045 00be 00       		.uleb128 0
 1046 00bf 830D     		.uleb128 .LEHB38-.LFB1219
 1047 00c1 3A       		.uleb128 .LEHE38-.LEHB38
 1048 00c2 C70D     		.uleb128 .L56-.LFB1219
 1049 00c4 00       		.uleb128 0
 1050 00c5 BD0D     		.uleb128 .LEHB39-.LFB1219
 1051 00c7 05       		.uleb128 .LEHE39-.LEHB39
 1052 00c8 00       		.uleb128 0
 1053 00c9 00       		.uleb128 0
 1054 00ca D90D     		.uleb128 .LEHB40-.LFB1219
 1055 00cc 05       		.uleb128 .LEHE40-.LEHB40
 1056 00cd 00       		.uleb128 0
 1057 00ce 00       		.uleb128 0
 1058 00cf EA0D     		.uleb128 .LEHB41-.LFB1219
 1059 00d1 3A       		.uleb128 .LEHE41-.LEHB41
 1060 00d2 AE0E     		.uleb128 .L58-.LFB1219
 1061 00d4 00       		.uleb128 0
 1062 00d5 A40E     		.uleb128 .LEHB42-.LFB1219
 1063 00d7 05       		.uleb128 .LEHE42-.LEHB42
 1064 00d8 00       		.uleb128 0
 1065 00d9 00       		.uleb128 0
 1066 00da C00E     		.uleb128 .LEHB43-.LFB1219
 1067 00dc 05       		.uleb128 .LEHE43-.LEHB43
 1068 00dd 00       		.uleb128 0
 1069 00de 00       		.uleb128 0
 1070              	.LLSDACSE1219:
 1071 00df 01       		.byte	0x1
 1072 00e0 00       		.byte	0
 1073 00e1 000000   		.align 4
 1074 00e4 00000000 		.long	0
 1075              	
 1076              	.LLSDATT1219:
 1077              		.text
 1079              		.section	.rodata
 1080              	.LC11:
 1081 01ff 48657849 		.string	"HexIO_testValidEOF"
 1081      4F5F7465 
 1081      73745661 
 1081      6C696445 
 1081      4F4600
 1082              		.section	.text._ZN22TestHexIO_testValidEOFC2Ev,"axG",@progbits,_ZN22TestHexIO_testValidEOFC5Ev,com
 1083              		.align 2
 1084              		.weak	_ZN22TestHexIO_testValidEOFC2Ev
 1086              	_ZN22TestHexIO_testValidEOFC2Ev:
 1087              	.LFB1221:
  49:testHexIO.cpp **** 
  50:testHexIO.cpp **** TEST(HexIO_testValidEOF) {
 1088              		.loc 4 50 1
 1089              		.cfi_startproc
 1090 0000 F30F1EFA 		endbr64
 1091 0004 55       		pushq	%rbp
 1092              		.cfi_def_cfa_offset 16
 1093              		.cfi_offset 6, -16
 1094 0005 4889E5   		movq	%rsp, %rbp
 1095              		.cfi_def_cfa_register 6
 1096 0008 53       		pushq	%rbx
 1097 0009 4883EC18 		subq	$24, %rsp
 1098              		.cfi_offset 3, -24
 1099 000d 48897DE8 		movq	%rdi, -24(%rbp)
 1100              	.LBB8:
 1101              		.loc 4 50 1
 1102 0011 488B5DE8 		movq	-24(%rbp), %rbx
 1103 0015 E8000000 		call	_ZN13UnitTestSuite12GetSuiteNameEv
 1103      00
 1104 001a 4889C2   		movq	%rax, %rdx
 1105 001d 41B83200 		movl	$50, %r8d
 1105      0000
 1106 0023 488D0500 		leaq	.LC1(%rip), %rax
 1106      000000
 1107 002a 4889C1   		movq	%rax, %rcx
 1108 002d 488D0500 		leaq	.LC11(%rip), %rax
 1108      000000
 1109 0034 4889C6   		movq	%rax, %rsi
 1110 0037 4889DF   		movq	%rbx, %rdi
 1111 003a E8000000 		call	_ZN8UnitTest4TestC2EPKcS2_S2_i@PLT
 1111      00
 1112 003f 488D1500 		leaq	16+_ZTV22TestHexIO_testValidEOF(%rip), %rdx
 1112      000000
 1113 0046 488B45E8 		movq	-24(%rbp), %rax
 1114 004a 488910   		movq	%rdx, (%rax)
 1115              	.LBE8:
 1116 004d 90       		nop
 1117 004e 488B5DF8 		movq	-8(%rbp), %rbx
 1118 0052 C9       		leave
 1119              		.cfi_def_cfa 7, 8
 1120 0053 C3       		ret
 1121              		.cfi_endproc
 1122              	.LFE1221:
 1124              		.weak	_ZN22TestHexIO_testValidEOFC1Ev
 1125              		.set	_ZN22TestHexIO_testValidEOFC1Ev,_ZN22TestHexIO_testValidEOFC2Ev
 1126              		.globl	testHexIO_testValidEOFInstance
 1127              		.bss
 1128 0039 00000000 		.align 32
 1128      000000
 1131              	testHexIO_testValidEOFInstance:
 1132 0040 00000000 		.zero	56
 1132      00000000 
 1132      00000000 
 1132      00000000 
 1132      00000000 
 1133              		.globl	adderHexIO_testValidEOF
 1136              	adderHexIO_testValidEOF:
 1137 0078 00       		.zero	1
 1138              		.section	.rodata
 1139              	.LC12:
 1140 0212 3A303030 		.string	":00000001FF\n"
 1140      30303030 
 1140      3146460A 
 1140      00
 1141 021f 00       		.align 8
 1142              	.LC13:
 1143 0220 556E6861 		.string	"Unhandled exception in CHECK_EQUAL(0x01, recordType)"
 1143      6E646C65 
 1143      64206578 
 1143      63657074 
 1143      696F6E20 
 1144 0255 000000   		.align 8
 1145              	.LC14:
 1146 0258 556E6861 		.string	"Unhandled exception in CHECK_EQUAL(0UL, data.length)"
 1146      6E646C65 
 1146      64206578 
 1146      63657074 
 1146      696F6E20 
 1147 028d 000000   		.align 8
 1148              	.LC15:
 1149 0290 556E6861 		.string	"Unhandled exception in CHECK_EQUAL(0UL, mask.length)"
 1149      6E646C65 
 1149      64206578 
 1149      63657074 
 1149      696F6E20 
 1150              		.text
 1151              		.align 2
 1152              		.globl	_ZNK22TestHexIO_testValidEOF7RunImplEv
 1154              	_ZNK22TestHexIO_testValidEOF7RunImplEv:
 1155              	.LFB1223:
 1156              		.loc 4 50 26
 1157              		.cfi_startproc
 1158              		.cfi_personality 0x9b,DW.ref.__gxx_personality_v0
 1159              		.cfi_lsda 0x1b,.LLSDA1223
 1160 0750 F30F1EFA 		endbr64
 1161 0754 55       		pushq	%rbp
 1162              		.cfi_def_cfa_offset 16
 1163              		.cfi_offset 6, -16
 1164 0755 4889E5   		movq	%rsp, %rbp
 1165              		.cfi_def_cfa_register 6
 1166 0758 53       		pushq	%rbx
 1167 0759 4881ECA8 		subq	$168, %rsp
 1167      000000
 1168              		.cfi_offset 3, -24
 1169 0760 4889BD58 		movq	%rdi, -168(%rbp)
 1169      FFFFFF
 1170              		.loc 4 50 26
 1171 0767 64488B04 		movq	%fs:40, %rax
 1171      25280000 
 1171      00
 1172 0770 488945E8 		movq	%rax, -24(%rbp)
 1173 0774 31C0     		xorl	%eax, %eax
  51:testHexIO.cpp **** 	Buffer data, mask;
  52:testHexIO.cpp **** 	BufferStatus status;
  53:testHexIO.cpp **** 	const char *line = ":00000001FF\n";
 1174              		.loc 4 53 14
 1175 0776 488D0500 		leaq	.LC12(%rip), %rax
 1175      000000
 1176 077d 48898578 		movq	%rax, -136(%rbp)
 1176      FFFFFF
  54:testHexIO.cpp **** 	uint8 recordType;
  55:testHexIO.cpp **** 	uint32 seg = 0x00000000;
 1177              		.loc 4 55 9
 1178 0784 C7856CFF 		movl	$0, -148(%rbp)
 1178      FFFF0000 
 1178      0000
  56:testHexIO.cpp **** 	status = bufInitialise(&data, 1024, 0x00, NULL);
 1179              		.loc 4 56 24
 1180 078e 488D4580 		leaq	-128(%rbp), %rax
 1181 0792 B9000000 		movl	$0, %ecx
 1181      00
 1182 0797 BA000000 		movl	$0, %edx
 1182      00
 1183 079c BE000400 		movl	$1024, %esi
 1183      00
 1184 07a1 4889C7   		movq	%rax, %rdi
 1185              	.LEHB44:
 1186 07a4 E8000000 		call	bufInitialise@PLT
 1186      00
 1187              	.LEHE44:
 1188              		.loc 4 56 9
 1189 07a9 898568FF 		movl	%eax, -152(%rbp)
 1189      FFFF
 1190              	.LEHB45:
  57:testHexIO.cpp **** 	CHECK_EQUAL(BUF_SUCCESS, status);
 1191              		.loc 4 57 2
 1192 07af E8000000 		call	_ZN8UnitTest11CurrentTest7DetailsEv@PLT
 1192      00
 1193 07b4 488B08   		movq	(%rax), %rcx
 1194 07b7 488D45C0 		leaq	-64(%rbp), %rax
 1195 07bb BA390000 		movl	$57, %edx
 1195      00
 1196 07c0 4889CE   		movq	%rcx, %rsi
 1197 07c3 4889C7   		movq	%rax, %rdi
 1198 07c6 E8000000 		call	_ZN8UnitTest11TestDetailsC1ERKS0_i@PLT
 1198      00
 1199              		.loc 4 57 2 is_stmt 0 discriminator 4
 1200 07cb C745A000 		movl	$0, -96(%rbp)
 1200      000000
 1201 07d2 E8000000 		call	_ZN8UnitTest11CurrentTest7ResultsEv@PLT
 1201      00
 1202 07d7 488B00   		movq	(%rax), %rax
 1203 07da 488D4DC0 		leaq	-64(%rbp), %rcx
 1204 07de 488D9568 		leaq	-152(%rbp), %rdx
 1204      FFFFFF
 1205 07e5 488D75A0 		leaq	-96(%rbp), %rsi
 1206 07e9 4889C7   		movq	%rax, %rdi
 1207 07ec E8000000 		call	_ZN8UnitTest10CheckEqualI12BufferStatusS1_EEvRNS_11TestResultsERKT_RKT0_RKNS_11TestDetailsE
 1207      00
 1208              	.LEHE45:
 1209              	.L63:
  58:testHexIO.cpp **** 	status = bufInitialise(&mask, 1024, 0x00, NULL);
 1210              		.loc 4 58 24 is_stmt 1
 1211 07f1 488D45A0 		leaq	-96(%rbp), %rax
 1212 07f5 B9000000 		movl	$0, %ecx
 1212      00
 1213 07fa BA000000 		movl	$0, %edx
 1213      00
 1214 07ff BE000400 		movl	$1024, %esi
 1214      00
 1215 0804 4889C7   		movq	%rax, %rdi
 1216              	.LEHB46:
 1217 0807 E8000000 		call	bufInitialise@PLT
 1217      00
 1218              	.LEHE46:
 1219              		.loc 4 58 9
 1220 080c 898568FF 		movl	%eax, -152(%rbp)
 1220      FFFF
 1221              	.LEHB47:
  59:testHexIO.cpp **** 	CHECK_EQUAL(BUF_SUCCESS, status);
 1222              		.loc 4 59 2
 1223 0812 E8000000 		call	_ZN8UnitTest11CurrentTest7DetailsEv@PLT
 1223      00
 1224 0817 488B08   		movq	(%rax), %rcx
 1225 081a 488D45C0 		leaq	-64(%rbp), %rax
 1226 081e BA3B0000 		movl	$59, %edx
 1226      00
 1227 0823 4889CE   		movq	%rcx, %rsi
 1228 0826 4889C7   		movq	%rax, %rdi
 1229 0829 E8000000 		call	_ZN8UnitTest11TestDetailsC1ERKS0_i@PLT
 1229      00
 1230              		.loc 4 59 2 is_stmt 0 discriminator 4
 1231 082e C78570FF 		movl	$0, -144(%rbp)
 1231      FFFF0000 
 1231      0000
 1232 0838 E8000000 		call	_ZN8UnitTest11CurrentTest7ResultsEv@PLT
 1232      00
 1233 083d 488B00   		movq	(%rax), %rax
 1234 0840 488D4DC0 		leaq	-64(%rbp), %rcx
 1235 0844 488D9568 		leaq	-152(%rbp), %rdx
 1235      FFFFFF
 1236 084b 488DB570 		leaq	-144(%rbp), %rsi
 1236      FFFFFF
 1237 0852 4889C7   		movq	%rax, %rdi
 1238 0855 E8000000 		call	_ZN8UnitTest10CheckEqualI12BufferStatusS1_EEvRNS_11TestResultsERKT_RKT0_RKNS_11TestDetailsE
 1238      00
 1239              	.LEHE47:
 1240              	.L66:
  60:testHexIO.cpp **** 	status = bufProcessLine(line, 0, &data, &mask, &seg, &recordType, NULL);
 1241              		.loc 4 60 25 is_stmt 1
 1242 085a 488DBD67 		leaq	-153(%rbp), %rdi
 1242      FFFFFF
 1243 0861 488DB56C 		leaq	-148(%rbp), %rsi
 1243      FFFFFF
 1244 0868 488D4DA0 		leaq	-96(%rbp), %rcx
 1245 086c 488D5580 		leaq	-128(%rbp), %rdx
 1246 0870 488B8578 		movq	-136(%rbp), %rax
 1246      FFFFFF
 1247 0877 4883EC08 		subq	$8, %rsp
 1248 087b 6A00     		pushq	$0
 1249 087d 4989F9   		movq	%rdi, %r9
 1250 0880 4989F0   		movq	%rsi, %r8
 1251 0883 BE000000 		movl	$0, %esi
 1251      00
 1252 0888 4889C7   		movq	%rax, %rdi
 1253              	.LEHB48:
 1254 088b E8000000 		call	bufProcessLine@PLT
 1254      00
 1255              	.LEHE48:
 1256 0890 4883C410 		addq	$16, %rsp
 1257              		.loc 4 60 9
 1258 0894 898568FF 		movl	%eax, -152(%rbp)
 1258      FFFF
 1259              	.LEHB49:
  61:testHexIO.cpp **** 	CHECK_EQUAL(BUF_SUCCESS, status);
 1260              		.loc 4 61 2
 1261 089a E8000000 		call	_ZN8UnitTest11CurrentTest7DetailsEv@PLT
 1261      00
 1262 089f 488B08   		movq	(%rax), %rcx
 1263 08a2 488D45C0 		leaq	-64(%rbp), %rax
 1264 08a6 BA3D0000 		movl	$61, %edx
 1264      00
 1265 08ab 4889CE   		movq	%rcx, %rsi
 1266 08ae 4889C7   		movq	%rax, %rdi
 1267 08b1 E8000000 		call	_ZN8UnitTest11TestDetailsC1ERKS0_i@PLT
 1267      00
 1268              		.loc 4 61 2 is_stmt 0 discriminator 4
 1269 08b6 C78570FF 		movl	$0, -144(%rbp)
 1269      FFFF0000 
 1269      0000
 1270 08c0 E8000000 		call	_ZN8UnitTest11CurrentTest7ResultsEv@PLT
 1270      00
 1271 08c5 488B00   		movq	(%rax), %rax
 1272 08c8 488D4DC0 		leaq	-64(%rbp), %rcx
 1273 08cc 488D9568 		leaq	-152(%rbp), %rdx
 1273      FFFFFF
 1274 08d3 488DB570 		leaq	-144(%rbp), %rsi
 1274      FFFFFF
 1275 08da 4889C7   		movq	%rax, %rdi
 1276 08dd E8000000 		call	_ZN8UnitTest10CheckEqualI12BufferStatusS1_EEvRNS_11TestResultsERKT_RKT0_RKNS_11TestDetailsE
 1276      00
 1277              	.LEHE49:
 1278              	.L69:
 1279              	.LEHB50:
  62:testHexIO.cpp **** 	CHECK_EQUAL(0x01, recordType);
 1280              		.loc 4 62 2 is_stmt 1
 1281 08e2 E8000000 		call	_ZN8UnitTest11CurrentTest7DetailsEv@PLT
 1281      00
 1282 08e7 488B08   		movq	(%rax), %rcx
 1283 08ea 488D45C0 		leaq	-64(%rbp), %rax
 1284 08ee BA3E0000 		movl	$62, %edx
 1284      00
 1285 08f3 4889CE   		movq	%rcx, %rsi
 1286 08f6 4889C7   		movq	%rax, %rdi
 1287 08f9 E8000000 		call	_ZN8UnitTest11TestDetailsC1ERKS0_i@PLT
 1287      00
 1288              		.loc 4 62 2 is_stmt 0 discriminator 4
 1289 08fe C78570FF 		movl	$1, -144(%rbp)
 1289      FFFF0100 
 1289      0000
 1290 0908 E8000000 		call	_ZN8UnitTest11CurrentTest7ResultsEv@PLT
 1290      00
 1291 090d 488B00   		movq	(%rax), %rax
 1292 0910 488D4DC0 		leaq	-64(%rbp), %rcx
 1293 0914 488D9567 		leaq	-153(%rbp), %rdx
 1293      FFFFFF
 1294 091b 488DB570 		leaq	-144(%rbp), %rsi
 1294      FFFFFF
 1295 0922 4889C7   		movq	%rax, %rdi
 1296 0925 E8000000 		call	_ZN8UnitTest10CheckEqualIihEEvRNS_11TestResultsERKT_RKT0_RKNS_11TestDetailsE
 1296      00
 1297              	.LEHE50:
 1298              	.L72:
 1299              	.LEHB51:
  63:testHexIO.cpp **** 	CHECK_EQUAL(0UL, data.length);
 1300              		.loc 4 63 2 is_stmt 1
 1301 092a E8000000 		call	_ZN8UnitTest11CurrentTest7DetailsEv@PLT
 1301      00
 1302 092f 488B08   		movq	(%rax), %rcx
 1303 0932 488D45C0 		leaq	-64(%rbp), %rax
 1304 0936 BA3F0000 		movl	$63, %edx
 1304      00
 1305 093b 4889CE   		movq	%rcx, %rsi
 1306 093e 4889C7   		movq	%rax, %rdi
 1307 0941 E8000000 		call	_ZN8UnitTest11TestDetailsC1ERKS0_i@PLT
 1307      00
 1308              		.loc 4 63 2 is_stmt 0 discriminator 4
 1309 0946 48C78570 		movq	$0, -144(%rbp)
 1309      FFFFFF00 
 1309      000000
 1310 0951 E8000000 		call	_ZN8UnitTest11CurrentTest7ResultsEv@PLT
 1310      00
 1311 0956 488B00   		movq	(%rax), %rax
 1312 0959 488D55C0 		leaq	-64(%rbp), %rdx
 1313 095d 488D4D80 		leaq	-128(%rbp), %rcx
 1314 0961 488D7908 		leaq	8(%rcx), %rdi
 1315 0965 488DB570 		leaq	-144(%rbp), %rsi
 1315      FFFFFF
 1316 096c 4889D1   		movq	%rdx, %rcx
 1317 096f 4889FA   		movq	%rdi, %rdx
 1318 0972 4889C7   		movq	%rax, %rdi
 1319 0975 E8000000 		call	_ZN8UnitTest10CheckEqualImjEEvRNS_11TestResultsERKT_RKT0_RKNS_11TestDetailsE
 1319      00
 1320              	.LEHE51:
 1321              	.L75:
 1322              	.LEHB52:
  64:testHexIO.cpp **** 	CHECK_EQUAL(0UL, mask.length);
 1323              		.loc 4 64 2 is_stmt 1
 1324 097a E8000000 		call	_ZN8UnitTest11CurrentTest7DetailsEv@PLT
 1324      00
 1325 097f 488B08   		movq	(%rax), %rcx
 1326 0982 488D45C0 		leaq	-64(%rbp), %rax
 1327 0986 BA400000 		movl	$64, %edx
 1327      00
 1328 098b 4889CE   		movq	%rcx, %rsi
 1329 098e 4889C7   		movq	%rax, %rdi
 1330 0991 E8000000 		call	_ZN8UnitTest11TestDetailsC1ERKS0_i@PLT
 1330      00
 1331              		.loc 4 64 2 is_stmt 0 discriminator 4
 1332 0996 48C78570 		movq	$0, -144(%rbp)
 1332      FFFFFF00 
 1332      000000
 1333 09a1 E8000000 		call	_ZN8UnitTest11CurrentTest7ResultsEv@PLT
 1333      00
 1334 09a6 488B00   		movq	(%rax), %rax
 1335 09a9 488D55C0 		leaq	-64(%rbp), %rdx
 1336 09ad 488D4DA0 		leaq	-96(%rbp), %rcx
 1337 09b1 488D7908 		leaq	8(%rcx), %rdi
 1338 09b5 488DB570 		leaq	-144(%rbp), %rsi
 1338      FFFFFF
 1339 09bc 4889D1   		movq	%rdx, %rcx
 1340 09bf 4889FA   		movq	%rdi, %rdx
 1341 09c2 4889C7   		movq	%rax, %rdi
 1342 09c5 E8000000 		call	_ZN8UnitTest10CheckEqualImjEEvRNS_11TestResultsERKT_RKT0_RKNS_11TestDetailsE
 1342      00
 1343              	.LEHE52:
 1344              	.L78:
  65:testHexIO.cpp **** 	bufDestroy(&mask);
 1345              		.loc 4 65 12 is_stmt 1
 1346 09ca 488D45A0 		leaq	-96(%rbp), %rax
 1347 09ce 4889C7   		movq	%rax, %rdi
 1348              	.LEHB53:
 1349 09d1 E8000000 		call	bufDestroy@PLT
 1349      00
  66:testHexIO.cpp **** 	bufDestroy(&data);
 1350              		.loc 4 66 12
 1351 09d6 488D4580 		leaq	-128(%rbp), %rax
 1352 09da 4889C7   		movq	%rax, %rdi
 1353 09dd E8000000 		call	bufDestroy@PLT
 1353      00
 1354              	.LEHE53:
  67:testHexIO.cpp **** }
 1355              		.loc 4 67 1
 1356 09e2 90       		nop
 1357 09e3 488B45E8 		movq	-24(%rbp), %rax
 1358 09e7 64482B04 		subq	%fs:40, %rax
 1358      25280000 
 1358      00
 1359 09f0 0F847402 		je	.L80
 1359      0000
 1360 09f6 E96A0200 		jmp	.L93
 1360      00
 1361              	.L81:
 1362 09fb F30F1EFA 		endbr64
  57:testHexIO.cpp **** 	status = bufInitialise(&mask, 1024, 0x00, NULL);
 1363              		.loc 4 57 2
 1364 09ff 4889C7   		movq	%rax, %rdi
 1365 0a02 E8000000 		call	__cxa_begin_catch@PLT
 1365      00
 1366              	.LEHB54:
 1367 0a07 E8000000 		call	_ZN8UnitTest11CurrentTest7ResultsEv@PLT
 1367      00
  57:testHexIO.cpp **** 	status = bufInitialise(&mask, 1024, 0x00, NULL);
 1368              		.loc 4 57 2 is_stmt 0 discriminator 3
 1369 0a0c 488B18   		movq	(%rax), %rbx
 1370 0a0f E8000000 		call	_ZN8UnitTest11CurrentTest7DetailsEv@PLT
 1370      00
  57:testHexIO.cpp **** 	status = bufInitialise(&mask, 1024, 0x00, NULL);
 1371              		.loc 4 57 2 discriminator 11
 1372 0a14 488B08   		movq	(%rax), %rcx
 1373 0a17 488D45C0 		leaq	-64(%rbp), %rax
 1374 0a1b BA390000 		movl	$57, %edx
 1374      00
 1375 0a20 4889CE   		movq	%rcx, %rsi
 1376 0a23 4889C7   		movq	%rax, %rdi
 1377 0a26 E8000000 		call	_ZN8UnitTest11TestDetailsC1ERKS0_i@PLT
 1377      00
  57:testHexIO.cpp **** 	status = bufInitialise(&mask, 1024, 0x00, NULL);
 1378              		.loc 4 57 2 discriminator 15
 1379 0a2b 488D45C0 		leaq	-64(%rbp), %rax
 1380 0a2f 488D1500 		leaq	.LC4(%rip), %rdx
 1380      000000
 1381 0a36 4889C6   		movq	%rax, %rsi
 1382 0a39 4889DF   		movq	%rbx, %rdi
 1383 0a3c E8000000 		call	_ZN8UnitTest11TestResults13OnTestFailureERKNS_11TestDetailsEPKc@PLT
 1383      00
 1384              	.LEHE54:
 1385              	.LEHB55:
  57:testHexIO.cpp **** 	status = bufInitialise(&mask, 1024, 0x00, NULL);
 1386              		.loc 4 57 2 discriminator 17
 1387 0a41 E8000000 		call	__cxa_end_catch@PLT
 1387      00
 1388              	.LEHE55:
 1389 0a46 E9A6FDFF 		jmp	.L63
 1389      FF
 1390              	.L82:
 1391 0a4b F30F1EFA 		endbr64
  57:testHexIO.cpp **** 	status = bufInitialise(&mask, 1024, 0x00, NULL);
 1392              		.loc 4 57 2
 1393 0a4f 4889C3   		movq	%rax, %rbx
 1394 0a52 E8000000 		call	__cxa_end_catch@PLT
 1394      00
 1395 0a57 4889D8   		movq	%rbx, %rax
 1396 0a5a 4889C7   		movq	%rax, %rdi
 1397              	.LEHB56:
 1398 0a5d E8000000 		call	_Unwind_Resume@PLT
 1398      00
 1399              	.LEHE56:
 1400              	.L83:
 1401 0a62 F30F1EFA 		endbr64
  59:testHexIO.cpp **** 	status = bufProcessLine(line, 0, &data, &mask, &seg, &recordType, NULL);
 1402              		.loc 4 59 2 is_stmt 1
 1403 0a66 4889C7   		movq	%rax, %rdi
 1404 0a69 E8000000 		call	__cxa_begin_catch@PLT
 1404      00
 1405              	.LEHB57:
 1406 0a6e E8000000 		call	_ZN8UnitTest11CurrentTest7ResultsEv@PLT
 1406      00
  59:testHexIO.cpp **** 	status = bufProcessLine(line, 0, &data, &mask, &seg, &recordType, NULL);
 1407              		.loc 4 59 2 is_stmt 0 discriminator 3
 1408 0a73 488B18   		movq	(%rax), %rbx
 1409 0a76 E8000000 		call	_ZN8UnitTest11CurrentTest7DetailsEv@PLT
 1409      00
  59:testHexIO.cpp **** 	status = bufProcessLine(line, 0, &data, &mask, &seg, &recordType, NULL);
 1410              		.loc 4 59 2 discriminator 11
 1411 0a7b 488B08   		movq	(%rax), %rcx
 1412 0a7e 488D45C0 		leaq	-64(%rbp), %rax
 1413 0a82 BA3B0000 		movl	$59, %edx
 1413      00
 1414 0a87 4889CE   		movq	%rcx, %rsi
 1415 0a8a 4889C7   		movq	%rax, %rdi
 1416 0a8d E8000000 		call	_ZN8UnitTest11TestDetailsC1ERKS0_i@PLT
 1416      00
  59:testHexIO.cpp **** 	status = bufProcessLine(line, 0, &data, &mask, &seg, &recordType, NULL);
 1417              		.loc 4 59 2 discriminator 15
 1418 0a92 488D45C0 		leaq	-64(%rbp), %rax
 1419 0a96 488D1500 		leaq	.LC4(%rip), %rdx
 1419      000000
 1420 0a9d 4889C6   		movq	%rax, %rsi
 1421 0aa0 4889DF   		movq	%rbx, %rdi
 1422 0aa3 E8000000 		call	_ZN8UnitTest11TestResults13OnTestFailureERKNS_11TestDetailsEPKc@PLT
 1422      00
 1423              	.LEHE57:
 1424              	.LEHB58:
  59:testHexIO.cpp **** 	status = bufProcessLine(line, 0, &data, &mask, &seg, &recordType, NULL);
 1425              		.loc 4 59 2 discriminator 17
 1426 0aa8 E8000000 		call	__cxa_end_catch@PLT
 1426      00
 1427              	.LEHE58:
 1428 0aad E9A8FDFF 		jmp	.L66
 1428      FF
 1429              	.L84:
 1430 0ab2 F30F1EFA 		endbr64
  59:testHexIO.cpp **** 	status = bufProcessLine(line, 0, &data, &mask, &seg, &recordType, NULL);
 1431              		.loc 4 59 2
 1432 0ab6 4889C3   		movq	%rax, %rbx
 1433 0ab9 E8000000 		call	__cxa_end_catch@PLT
 1433      00
 1434 0abe 4889D8   		movq	%rbx, %rax
 1435 0ac1 4889C7   		movq	%rax, %rdi
 1436              	.LEHB59:
 1437 0ac4 E8000000 		call	_Unwind_Resume@PLT
 1437      00
 1438              	.LEHE59:
 1439              	.L85:
 1440 0ac9 F30F1EFA 		endbr64
  61:testHexIO.cpp **** 	CHECK_EQUAL(0x01, recordType);
 1441              		.loc 4 61 2 is_stmt 1
 1442 0acd 4889C7   		movq	%rax, %rdi
 1443 0ad0 E8000000 		call	__cxa_begin_catch@PLT
 1443      00
 1444              	.LEHB60:
 1445 0ad5 E8000000 		call	_ZN8UnitTest11CurrentTest7ResultsEv@PLT
 1445      00
  61:testHexIO.cpp **** 	CHECK_EQUAL(0x01, recordType);
 1446              		.loc 4 61 2 is_stmt 0 discriminator 3
 1447 0ada 488B18   		movq	(%rax), %rbx
 1448 0add E8000000 		call	_ZN8UnitTest11CurrentTest7DetailsEv@PLT
 1448      00
  61:testHexIO.cpp **** 	CHECK_EQUAL(0x01, recordType);
 1449              		.loc 4 61 2 discriminator 11
 1450 0ae2 488B08   		movq	(%rax), %rcx
 1451 0ae5 488D45C0 		leaq	-64(%rbp), %rax
 1452 0ae9 BA3D0000 		movl	$61, %edx
 1452      00
 1453 0aee 4889CE   		movq	%rcx, %rsi
 1454 0af1 4889C7   		movq	%rax, %rdi
 1455 0af4 E8000000 		call	_ZN8UnitTest11TestDetailsC1ERKS0_i@PLT
 1455      00
  61:testHexIO.cpp **** 	CHECK_EQUAL(0x01, recordType);
 1456              		.loc 4 61 2 discriminator 15
 1457 0af9 488D45C0 		leaq	-64(%rbp), %rax
 1458 0afd 488D1500 		leaq	.LC4(%rip), %rdx
 1458      000000
 1459 0b04 4889C6   		movq	%rax, %rsi
 1460 0b07 4889DF   		movq	%rbx, %rdi
 1461 0b0a E8000000 		call	_ZN8UnitTest11TestResults13OnTestFailureERKNS_11TestDetailsEPKc@PLT
 1461      00
 1462              	.LEHE60:
 1463              	.LEHB61:
  61:testHexIO.cpp **** 	CHECK_EQUAL(0x01, recordType);
 1464              		.loc 4 61 2 discriminator 17
 1465 0b0f E8000000 		call	__cxa_end_catch@PLT
 1465      00
 1466              	.LEHE61:
 1467 0b14 E9C9FDFF 		jmp	.L69
 1467      FF
 1468              	.L86:
 1469 0b19 F30F1EFA 		endbr64
  61:testHexIO.cpp **** 	CHECK_EQUAL(0x01, recordType);
 1470              		.loc 4 61 2
 1471 0b1d 4889C3   		movq	%rax, %rbx
 1472 0b20 E8000000 		call	__cxa_end_catch@PLT
 1472      00
 1473 0b25 4889D8   		movq	%rbx, %rax
 1474 0b28 4889C7   		movq	%rax, %rdi
 1475              	.LEHB62:
 1476 0b2b E8000000 		call	_Unwind_Resume@PLT
 1476      00
 1477              	.LEHE62:
 1478              	.L87:
 1479 0b30 F30F1EFA 		endbr64
  62:testHexIO.cpp **** 	CHECK_EQUAL(0UL, data.length);
 1480              		.loc 4 62 2 is_stmt 1
 1481 0b34 4889C7   		movq	%rax, %rdi
 1482 0b37 E8000000 		call	__cxa_begin_catch@PLT
 1482      00
 1483              	.LEHB63:
 1484 0b3c E8000000 		call	_ZN8UnitTest11CurrentTest7ResultsEv@PLT
 1484      00
  62:testHexIO.cpp **** 	CHECK_EQUAL(0UL, data.length);
 1485              		.loc 4 62 2 is_stmt 0 discriminator 3
 1486 0b41 488B18   		movq	(%rax), %rbx
 1487 0b44 E8000000 		call	_ZN8UnitTest11CurrentTest7DetailsEv@PLT
 1487      00
  62:testHexIO.cpp **** 	CHECK_EQUAL(0UL, data.length);
 1488              		.loc 4 62 2 discriminator 11
 1489 0b49 488B08   		movq	(%rax), %rcx
 1490 0b4c 488D45C0 		leaq	-64(%rbp), %rax
 1491 0b50 BA3E0000 		movl	$62, %edx
 1491      00
 1492 0b55 4889CE   		movq	%rcx, %rsi
 1493 0b58 4889C7   		movq	%rax, %rdi
 1494 0b5b E8000000 		call	_ZN8UnitTest11TestDetailsC1ERKS0_i@PLT
 1494      00
  62:testHexIO.cpp **** 	CHECK_EQUAL(0UL, data.length);
 1495              		.loc 4 62 2 discriminator 15
 1496 0b60 488D45C0 		leaq	-64(%rbp), %rax
 1497 0b64 488D1500 		leaq	.LC13(%rip), %rdx
 1497      000000
 1498 0b6b 4889C6   		movq	%rax, %rsi
 1499 0b6e 4889DF   		movq	%rbx, %rdi
 1500 0b71 E8000000 		call	_ZN8UnitTest11TestResults13OnTestFailureERKNS_11TestDetailsEPKc@PLT
 1500      00
 1501              	.LEHE63:
 1502              	.LEHB64:
  62:testHexIO.cpp **** 	CHECK_EQUAL(0UL, data.length);
 1503              		.loc 4 62 2 discriminator 17
 1504 0b76 E8000000 		call	__cxa_end_catch@PLT
 1504      00
 1505              	.LEHE64:
 1506 0b7b E9AAFDFF 		jmp	.L72
 1506      FF
 1507              	.L88:
 1508 0b80 F30F1EFA 		endbr64
  62:testHexIO.cpp **** 	CHECK_EQUAL(0UL, data.length);
 1509              		.loc 4 62 2
 1510 0b84 4889C3   		movq	%rax, %rbx
 1511 0b87 E8000000 		call	__cxa_end_catch@PLT
 1511      00
 1512 0b8c 4889D8   		movq	%rbx, %rax
 1513 0b8f 4889C7   		movq	%rax, %rdi
 1514              	.LEHB65:
 1515 0b92 E8000000 		call	_Unwind_Resume@PLT
 1515      00
 1516              	.LEHE65:
 1517              	.L89:
 1518 0b97 F30F1EFA 		endbr64
  63:testHexIO.cpp **** 	CHECK_EQUAL(0UL, mask.length);
 1519              		.loc 4 63 2 is_stmt 1
 1520 0b9b 4889C7   		movq	%rax, %rdi
 1521 0b9e E8000000 		call	__cxa_begin_catch@PLT
 1521      00
 1522              	.LEHB66:
 1523 0ba3 E8000000 		call	_ZN8UnitTest11CurrentTest7ResultsEv@PLT
 1523      00
  63:testHexIO.cpp **** 	CHECK_EQUAL(0UL, mask.length);
 1524              		.loc 4 63 2 is_stmt 0 discriminator 3
 1525 0ba8 488B18   		movq	(%rax), %rbx
 1526 0bab E8000000 		call	_ZN8UnitTest11CurrentTest7DetailsEv@PLT
 1526      00
  63:testHexIO.cpp **** 	CHECK_EQUAL(0UL, mask.length);
 1527              		.loc 4 63 2 discriminator 11
 1528 0bb0 488B08   		movq	(%rax), %rcx
 1529 0bb3 488D45C0 		leaq	-64(%rbp), %rax
 1530 0bb7 BA3F0000 		movl	$63, %edx
 1530      00
 1531 0bbc 4889CE   		movq	%rcx, %rsi
 1532 0bbf 4889C7   		movq	%rax, %rdi
 1533 0bc2 E8000000 		call	_ZN8UnitTest11TestDetailsC1ERKS0_i@PLT
 1533      00
  63:testHexIO.cpp **** 	CHECK_EQUAL(0UL, mask.length);
 1534              		.loc 4 63 2 discriminator 15
 1535 0bc7 488D45C0 		leaq	-64(%rbp), %rax
 1536 0bcb 488D1500 		leaq	.LC14(%rip), %rdx
 1536      000000
 1537 0bd2 4889C6   		movq	%rax, %rsi
 1538 0bd5 4889DF   		movq	%rbx, %rdi
 1539 0bd8 E8000000 		call	_ZN8UnitTest11TestResults13OnTestFailureERKNS_11TestDetailsEPKc@PLT
 1539      00
 1540              	.LEHE66:
 1541              	.LEHB67:
  63:testHexIO.cpp **** 	CHECK_EQUAL(0UL, mask.length);
 1542              		.loc 4 63 2 discriminator 17
 1543 0bdd E8000000 		call	__cxa_end_catch@PLT
 1543      00
 1544              	.LEHE67:
 1545 0be2 E993FDFF 		jmp	.L75
 1545      FF
 1546              	.L90:
 1547 0be7 F30F1EFA 		endbr64
  63:testHexIO.cpp **** 	CHECK_EQUAL(0UL, mask.length);
 1548              		.loc 4 63 2
 1549 0beb 4889C3   		movq	%rax, %rbx
 1550 0bee E8000000 		call	__cxa_end_catch@PLT
 1550      00
 1551 0bf3 4889D8   		movq	%rbx, %rax
 1552 0bf6 4889C7   		movq	%rax, %rdi
 1553              	.LEHB68:
 1554 0bf9 E8000000 		call	_Unwind_Resume@PLT
 1554      00
 1555              	.LEHE68:
 1556              	.L91:
 1557 0bfe F30F1EFA 		endbr64
  64:testHexIO.cpp **** 	bufDestroy(&mask);
 1558              		.loc 4 64 2 is_stmt 1
 1559 0c02 4889C7   		movq	%rax, %rdi
 1560 0c05 E8000000 		call	__cxa_begin_catch@PLT
 1560      00
 1561              	.LEHB69:
 1562 0c0a E8000000 		call	_ZN8UnitTest11CurrentTest7ResultsEv@PLT
 1562      00
  64:testHexIO.cpp **** 	bufDestroy(&mask);
 1563              		.loc 4 64 2 is_stmt 0 discriminator 3
 1564 0c0f 488B18   		movq	(%rax), %rbx
 1565 0c12 E8000000 		call	_ZN8UnitTest11CurrentTest7DetailsEv@PLT
 1565      00
  64:testHexIO.cpp **** 	bufDestroy(&mask);
 1566              		.loc 4 64 2 discriminator 11
 1567 0c17 488B08   		movq	(%rax), %rcx
 1568 0c1a 488D45C0 		leaq	-64(%rbp), %rax
 1569 0c1e BA400000 		movl	$64, %edx
 1569      00
 1570 0c23 4889CE   		movq	%rcx, %rsi
 1571 0c26 4889C7   		movq	%rax, %rdi
 1572 0c29 E8000000 		call	_ZN8UnitTest11TestDetailsC1ERKS0_i@PLT
 1572      00
  64:testHexIO.cpp **** 	bufDestroy(&mask);
 1573              		.loc 4 64 2 discriminator 15
 1574 0c2e 488D45C0 		leaq	-64(%rbp), %rax
 1575 0c32 488D1500 		leaq	.LC15(%rip), %rdx
 1575      000000
 1576 0c39 4889C6   		movq	%rax, %rsi
 1577 0c3c 4889DF   		movq	%rbx, %rdi
 1578 0c3f E8000000 		call	_ZN8UnitTest11TestResults13OnTestFailureERKNS_11TestDetailsEPKc@PLT
 1578      00
 1579              	.LEHE69:
 1580              	.LEHB70:
  64:testHexIO.cpp **** 	bufDestroy(&mask);
 1581              		.loc 4 64 2 discriminator 17
 1582 0c44 E8000000 		call	__cxa_end_catch@PLT
 1582      00
 1583              	.LEHE70:
 1584 0c49 E97CFDFF 		jmp	.L78
 1584      FF
 1585              	.L92:
 1586 0c4e F30F1EFA 		endbr64
  64:testHexIO.cpp **** 	bufDestroy(&mask);
 1587              		.loc 4 64 2
 1588 0c52 4889C3   		movq	%rax, %rbx
 1589 0c55 E8000000 		call	__cxa_end_catch@PLT
 1589      00
 1590 0c5a 4889D8   		movq	%rbx, %rax
 1591 0c5d 4889C7   		movq	%rax, %rdi
 1592              	.LEHB71:
 1593 0c60 E8000000 		call	_Unwind_Resume@PLT
 1593      00
 1594              	.LEHE71:
 1595              	.L93:
 1596              		.loc 4 67 1 is_stmt 1
 1597 0c65 E8000000 		call	__stack_chk_fail@PLT
 1597      00
 1598              	.L80:
 1599 0c6a 488B5DF8 		movq	-8(%rbp), %rbx
 1600 0c6e C9       		leave
 1601              		.cfi_def_cfa 7, 8
 1602 0c6f C3       		ret
 1603              		.cfi_endproc
 1604              	.LFE1223:
 1605              		.section	.gcc_except_table
 1606              		.align 4
 1607              	.LLSDA1223:
 1608 00e8 FF       		.byte	0xff
 1609 00e9 9B       		.byte	0x9b
 1610 00ea A001     		.uleb128 .LLSDATT1223-.LLSDATTD1223
 1611              	.LLSDATTD1223:
 1612 00ec 01       		.byte	0x1
 1613 00ed 9601     		.uleb128 .LLSDACSE1223-.LLSDACSB1223
 1614              	.LLSDACSB1223:
 1615 00ef 54       		.uleb128 .LEHB44-.LFB1223
 1616 00f0 05       		.uleb128 .LEHE44-.LEHB44
 1617 00f1 00       		.uleb128 0
 1618 00f2 00       		.uleb128 0
 1619 00f3 5F       		.uleb128 .LEHB45-.LFB1223
 1620 00f4 42       		.uleb128 .LEHE45-.LEHB45
 1621 00f5 AB05     		.uleb128 .L81-.LFB1223
 1622 00f7 01       		.uleb128 0x1
 1623 00f8 B701     		.uleb128 .LEHB46-.LFB1223
 1624 00fa 05       		.uleb128 .LEHE46-.LEHB46
 1625 00fb 00       		.uleb128 0
 1626 00fc 00       		.uleb128 0
 1627 00fd C201     		.uleb128 .LEHB47-.LFB1223
 1628 00ff 48       		.uleb128 .LEHE47-.LEHB47
 1629 0100 9206     		.uleb128 .L83-.LFB1223
 1630 0102 01       		.uleb128 0x1
 1631 0103 BB02     		.uleb128 .LEHB48-.LFB1223
 1632 0105 05       		.uleb128 .LEHE48-.LEHB48
 1633 0106 00       		.uleb128 0
 1634 0107 00       		.uleb128 0
 1635 0108 CA02     		.uleb128 .LEHB49-.LFB1223
 1636 010a 48       		.uleb128 .LEHE49-.LEHB49
 1637 010b F906     		.uleb128 .L85-.LFB1223
 1638 010d 01       		.uleb128 0x1
 1639 010e 9203     		.uleb128 .LEHB50-.LFB1223
 1640 0110 48       		.uleb128 .LEHE50-.LEHB50
 1641 0111 E007     		.uleb128 .L87-.LFB1223
 1642 0113 01       		.uleb128 0x1
 1643 0114 DA03     		.uleb128 .LEHB51-.LFB1223
 1644 0116 50       		.uleb128 .LEHE51-.LEHB51
 1645 0117 C708     		.uleb128 .L89-.LFB1223
 1646 0119 01       		.uleb128 0x1
 1647 011a AA04     		.uleb128 .LEHB52-.LFB1223
 1648 011c 50       		.uleb128 .LEHE52-.LEHB52
 1649 011d AE09     		.uleb128 .L91-.LFB1223
 1650 011f 01       		.uleb128 0x1
 1651 0120 8105     		.uleb128 .LEHB53-.LFB1223
 1652 0122 11       		.uleb128 .LEHE53-.LEHB53
 1653 0123 00       		.uleb128 0
 1654 0124 00       		.uleb128 0
 1655 0125 B705     		.uleb128 .LEHB54-.LFB1223
 1656 0127 3A       		.uleb128 .LEHE54-.LEHB54
 1657 0128 FB05     		.uleb128 .L82-.LFB1223
 1658 012a 00       		.uleb128 0
 1659 012b F105     		.uleb128 .LEHB55-.LFB1223
 1660 012d 05       		.uleb128 .LEHE55-.LEHB55
 1661 012e 00       		.uleb128 0
 1662 012f 00       		.uleb128 0
 1663 0130 8D06     		.uleb128 .LEHB56-.LFB1223
 1664 0132 05       		.uleb128 .LEHE56-.LEHB56
 1665 0133 00       		.uleb128 0
 1666 0134 00       		.uleb128 0
 1667 0135 9E06     		.uleb128 .LEHB57-.LFB1223
 1668 0137 3A       		.uleb128 .LEHE57-.LEHB57
 1669 0138 E206     		.uleb128 .L84-.LFB1223
 1670 013a 00       		.uleb128 0
 1671 013b D806     		.uleb128 .LEHB58-.LFB1223
 1672 013d 05       		.uleb128 .LEHE58-.LEHB58
 1673 013e 00       		.uleb128 0
 1674 013f 00       		.uleb128 0
 1675 0140 F406     		.uleb128 .LEHB59-.LFB1223
 1676 0142 05       		.uleb128 .LEHE59-.LEHB59
 1677 0143 00       		.uleb128 0
 1678 0144 00       		.uleb128 0
 1679 0145 8507     		.uleb128 .LEHB60-.LFB1223
 1680 0147 3A       		.uleb128 .LEHE60-.LEHB60
 1681 0148 C907     		.uleb128 .L86-.LFB1223
 1682 014a 00       		.uleb128 0
 1683 014b BF07     		.uleb128 .LEHB61-.LFB1223
 1684 014d 05       		.uleb128 .LEHE61-.LEHB61
 1685 014e 00       		.uleb128 0
 1686 014f 00       		.uleb128 0
 1687 0150 DB07     		.uleb128 .LEHB62-.LFB1223
 1688 0152 05       		.uleb128 .LEHE62-.LEHB62
 1689 0153 00       		.uleb128 0
 1690 0154 00       		.uleb128 0
 1691 0155 EC07     		.uleb128 .LEHB63-.LFB1223
 1692 0157 3A       		.uleb128 .LEHE63-.LEHB63
 1693 0158 B008     		.uleb128 .L88-.LFB1223
 1694 015a 00       		.uleb128 0
 1695 015b A608     		.uleb128 .LEHB64-.LFB1223
 1696 015d 05       		.uleb128 .LEHE64-.LEHB64
 1697 015e 00       		.uleb128 0
 1698 015f 00       		.uleb128 0
 1699 0160 C208     		.uleb128 .LEHB65-.LFB1223
 1700 0162 05       		.uleb128 .LEHE65-.LEHB65
 1701 0163 00       		.uleb128 0
 1702 0164 00       		.uleb128 0
 1703 0165 D308     		.uleb128 .LEHB66-.LFB1223
 1704 0167 3A       		.uleb128 .LEHE66-.LEHB66
 1705 0168 9709     		.uleb128 .L90-.LFB1223
 1706 016a 00       		.uleb128 0
 1707 016b 8D09     		.uleb128 .LEHB67-.LFB1223
 1708 016d 05       		.uleb128 .LEHE67-.LEHB67
 1709 016e 00       		.uleb128 0
 1710 016f 00       		.uleb128 0
 1711 0170 A909     		.uleb128 .LEHB68-.LFB1223
 1712 0172 05       		.uleb128 .LEHE68-.LEHB68
 1713 0173 00       		.uleb128 0
 1714 0174 00       		.uleb128 0
 1715 0175 BA09     		.uleb128 .LEHB69-.LFB1223
 1716 0177 3A       		.uleb128 .LEHE69-.LEHB69
 1717 0178 FE09     		.uleb128 .L92-.LFB1223
 1718 017a 00       		.uleb128 0
 1719 017b F409     		.uleb128 .LEHB70-.LFB1223
 1720 017d 05       		.uleb128 .LEHE70-.LEHB70
 1721 017e 00       		.uleb128 0
 1722 017f 00       		.uleb128 0
 1723 0180 900A     		.uleb128 .LEHB71-.LFB1223
 1724 0182 05       		.uleb128 .LEHE71-.LEHB71
 1725 0183 00       		.uleb128 0
 1726 0184 00       		.uleb128 0
 1727              	.LLSDACSE1223:
 1728 0185 01       		.byte	0x1
 1729 0186 00       		.byte	0
 1730 0187 00       		.align 4
 1731 0188 00000000 		.long	0
 1732              	
 1733              	.LLSDATT1223:
 1734              		.text
 1736              		.section	.rodata
 1737              	.LC16:
 1738 02c5 48657849 		.string	"HexIO_testJunkStartCode"
 1738      4F5F7465 
 1738      73744A75 
 1738      6E6B5374 
 1738      61727443 
 1739              		.section	.text._ZN27TestHexIO_testJunkStartCodeC2Ev,"axG",@progbits,_ZN27TestHexIO_testJunkStartCo
 1740              		.align 2
 1741              		.weak	_ZN27TestHexIO_testJunkStartCodeC2Ev
 1743              	_ZN27TestHexIO_testJunkStartCodeC2Ev:
 1744              	.LFB1225:
  68:testHexIO.cpp **** 
  69:testHexIO.cpp **** TEST(HexIO_testJunkStartCode) {
 1745              		.loc 4 69 1
 1746              		.cfi_startproc
 1747 0000 F30F1EFA 		endbr64
 1748 0004 55       		pushq	%rbp
 1749              		.cfi_def_cfa_offset 16
 1750              		.cfi_offset 6, -16
 1751 0005 4889E5   		movq	%rsp, %rbp
 1752              		.cfi_def_cfa_register 6
 1753 0008 53       		pushq	%rbx
 1754 0009 4883EC18 		subq	$24, %rsp
 1755              		.cfi_offset 3, -24
 1756 000d 48897DE8 		movq	%rdi, -24(%rbp)
 1757              	.LBB9:
 1758              		.loc 4 69 1
 1759 0011 488B5DE8 		movq	-24(%rbp), %rbx
 1760 0015 E8000000 		call	_ZN13UnitTestSuite12GetSuiteNameEv
 1760      00
 1761 001a 4889C2   		movq	%rax, %rdx
 1762 001d 41B84500 		movl	$69, %r8d
 1762      0000
 1763 0023 488D0500 		leaq	.LC1(%rip), %rax
 1763      000000
 1764 002a 4889C1   		movq	%rax, %rcx
 1765 002d 488D0500 		leaq	.LC16(%rip), %rax
 1765      000000
 1766 0034 4889C6   		movq	%rax, %rsi
 1767 0037 4889DF   		movq	%rbx, %rdi
 1768 003a E8000000 		call	_ZN8UnitTest4TestC2EPKcS2_S2_i@PLT
 1768      00
 1769 003f 488D1500 		leaq	16+_ZTV27TestHexIO_testJunkStartCode(%rip), %rdx
 1769      000000
 1770 0046 488B45E8 		movq	-24(%rbp), %rax
 1771 004a 488910   		movq	%rdx, (%rax)
 1772              	.LBE9:
 1773 004d 90       		nop
 1774 004e 488B5DF8 		movq	-8(%rbp), %rbx
 1775 0052 C9       		leave
 1776              		.cfi_def_cfa 7, 8
 1777 0053 C3       		ret
 1778              		.cfi_endproc
 1779              	.LFE1225:
 1781              		.weak	_ZN27TestHexIO_testJunkStartCodeC1Ev
 1782              		.set	_ZN27TestHexIO_testJunkStartCodeC1Ev,_ZN27TestHexIO_testJunkStartCodeC2Ev
 1783              		.globl	testHexIO_testJunkStartCodeInstance
 1784              		.bss
 1785 0079 00000000 		.align 32
 1785      000000
 1788              	testHexIO_testJunkStartCodeInstance:
 1789 0080 00000000 		.zero	56
 1789      00000000 
 1789      00000000 
 1789      00000000 
 1789      00000000 
 1790              		.globl	adderHexIO_testJunkStartCode
 1793              	adderHexIO_testJunkStartCode:
 1794 00b8 00       		.zero	1
 1795              		.section	.rodata
 1796              	.LC17:
 1797 02dd 2E303430 		.string	".040BE10075820022F7\n"
 1797      42453130 
 1797      30373538 
 1797      32303032 
 1797      3246370A 
 1798 02f2 00000000 		.align 8
 1798      0000
 1799              	.LC18:
 1800 02f8 556E6861 		.string	"Unhandled exception in CHECK_EQUAL(HEX_JUNK_START_CODE, status)"
 1800      6E646C65 
 1800      64206578 
 1800      63657074 
 1800      696F6E20 
 1801              		.text
 1802              		.align 2
 1803              		.globl	_ZNK27TestHexIO_testJunkStartCode7RunImplEv
 1805              	_ZNK27TestHexIO_testJunkStartCode7RunImplEv:
 1806              	.LFB1227:
 1807              		.loc 4 69 31
 1808              		.cfi_startproc
 1809              		.cfi_personality 0x9b,DW.ref.__gxx_personality_v0
 1810              		.cfi_lsda 0x1b,.LLSDA1227
 1811 0c70 F30F1EFA 		endbr64
 1812 0c74 55       		pushq	%rbp
 1813              		.cfi_def_cfa_offset 16
 1814              		.cfi_offset 6, -16
 1815 0c75 4889E5   		movq	%rsp, %rbp
 1816              		.cfi_def_cfa_register 6
 1817 0c78 53       		pushq	%rbx
 1818 0c79 4881EC88 		subq	$136, %rsp
 1818      000000
 1819              		.cfi_offset 3, -24
 1820 0c80 4889BD78 		movq	%rdi, -136(%rbp)
 1820      FFFFFF
 1821              		.loc 4 69 31
 1822 0c87 64488B04 		movq	%fs:40, %rax
 1822      25280000 
 1822      00
 1823 0c90 488945E8 		movq	%rax, -24(%rbp)
 1824 0c94 31C0     		xorl	%eax, %eax
  70:testHexIO.cpp **** 	Buffer data;
  71:testHexIO.cpp **** 	BufferStatus status;
  72:testHexIO.cpp **** 	const char *line = ".040BE10075820022F7\n";
 1825              		.loc 4 72 14
 1826 0c96 488D0500 		leaq	.LC17(%rip), %rax
 1826      000000
 1827 0c9d 48894598 		movq	%rax, -104(%rbp)
  73:testHexIO.cpp **** 	uint8 recordType;
  74:testHexIO.cpp **** 	uint32 seg = 0x00000000;
 1828              		.loc 4 74 9
 1829 0ca1 C7459000 		movl	$0, -112(%rbp)
 1829      000000
  75:testHexIO.cpp **** 	status = bufInitialise(&data, 1024, 0x00, NULL);
 1830              		.loc 4 75 24
 1831 0ca8 488D45A0 		leaq	-96(%rbp), %rax
 1832 0cac B9000000 		movl	$0, %ecx
 1832      00
 1833 0cb1 BA000000 		movl	$0, %edx
 1833      00
 1834 0cb6 BE000400 		movl	$1024, %esi
 1834      00
 1835 0cbb 4889C7   		movq	%rax, %rdi
 1836              	.LEHB72:
 1837 0cbe E8000000 		call	bufInitialise@PLT
 1837      00
 1838              	.LEHE72:
 1839              		.loc 4 75 9
 1840 0cc3 89458C   		movl	%eax, -116(%rbp)
 1841              	.LEHB73:
  76:testHexIO.cpp **** 	CHECK_EQUAL(BUF_SUCCESS, status);
 1842              		.loc 4 76 2
 1843 0cc6 E8000000 		call	_ZN8UnitTest11CurrentTest7DetailsEv@PLT
 1843      00
 1844 0ccb 488B08   		movq	(%rax), %rcx
 1845 0cce 488D45C0 		leaq	-64(%rbp), %rax
 1846 0cd2 BA4C0000 		movl	$76, %edx
 1846      00
 1847 0cd7 4889CE   		movq	%rcx, %rsi
 1848 0cda 4889C7   		movq	%rax, %rdi
 1849 0cdd E8000000 		call	_ZN8UnitTest11TestDetailsC1ERKS0_i@PLT
 1849      00
 1850              		.loc 4 76 2 is_stmt 0 discriminator 4
 1851 0ce2 C7459400 		movl	$0, -108(%rbp)
 1851      000000
 1852 0ce9 E8000000 		call	_ZN8UnitTest11CurrentTest7ResultsEv@PLT
 1852      00
 1853 0cee 488B00   		movq	(%rax), %rax
 1854 0cf1 488D4DC0 		leaq	-64(%rbp), %rcx
 1855 0cf5 488D558C 		leaq	-116(%rbp), %rdx
 1856 0cf9 488D7594 		leaq	-108(%rbp), %rsi
 1857 0cfd 4889C7   		movq	%rax, %rdi
 1858 0d00 E8000000 		call	_ZN8UnitTest10CheckEqualI12BufferStatusS1_EEvRNS_11TestResultsERKT_RKT0_RKNS_11TestDetailsE
 1858      00
 1859              	.LEHE73:
 1860              	.L97:
  77:testHexIO.cpp **** 	status = bufProcessLine(line, 0, &data, NULL, &seg, &recordType, NULL);
 1861              		.loc 4 77 25 is_stmt 1
 1862 0d05 488D758B 		leaq	-117(%rbp), %rsi
 1863 0d09 488D4D90 		leaq	-112(%rbp), %rcx
 1864 0d0d 488D55A0 		leaq	-96(%rbp), %rdx
 1865 0d11 488B4598 		movq	-104(%rbp), %rax
 1866 0d15 4883EC08 		subq	$8, %rsp
 1867 0d19 6A00     		pushq	$0
 1868 0d1b 4989F1   		movq	%rsi, %r9
 1869 0d1e 4989C8   		movq	%rcx, %r8
 1870 0d21 B9000000 		movl	$0, %ecx
 1870      00
 1871 0d26 BE000000 		movl	$0, %esi
 1871      00
 1872 0d2b 4889C7   		movq	%rax, %rdi
 1873              	.LEHB74:
 1874 0d2e E8000000 		call	bufProcessLine@PLT
 1874      00
 1875              	.LEHE74:
 1876 0d33 4883C410 		addq	$16, %rsp
 1877              		.loc 4 77 9
 1878 0d37 89458C   		movl	%eax, -116(%rbp)
 1879              	.LEHB75:
  78:testHexIO.cpp **** 	CHECK_EQUAL(HEX_JUNK_START_CODE, status);
 1880              		.loc 4 78 2
 1881 0d3a E8000000 		call	_ZN8UnitTest11CurrentTest7DetailsEv@PLT
 1881      00
 1882 0d3f 488B08   		movq	(%rax), %rcx
 1883 0d42 488D45C0 		leaq	-64(%rbp), %rax
 1884 0d46 BA4E0000 		movl	$78, %edx
 1884      00
 1885 0d4b 4889CE   		movq	%rcx, %rsi
 1886 0d4e 4889C7   		movq	%rax, %rdi
 1887 0d51 E8000000 		call	_ZN8UnitTest11TestDetailsC1ERKS0_i@PLT
 1887      00
 1888              		.loc 4 78 2 is_stmt 0 discriminator 4
 1889 0d56 C7459407 		movl	$7, -108(%rbp)
 1889      000000
 1890 0d5d E8000000 		call	_ZN8UnitTest11CurrentTest7ResultsEv@PLT
 1890      00
 1891 0d62 488B00   		movq	(%rax), %rax
 1892 0d65 488D4DC0 		leaq	-64(%rbp), %rcx
 1893 0d69 488D558C 		leaq	-116(%rbp), %rdx
 1894 0d6d 488D7594 		leaq	-108(%rbp), %rsi
 1895 0d71 4889C7   		movq	%rax, %rdi
 1896 0d74 E8000000 		call	_ZN8UnitTest10CheckEqualI12BufferStatusS1_EEvRNS_11TestResultsERKT_RKT0_RKNS_11TestDetailsE
 1896      00
 1897              	.LEHE75:
 1898              	.L100:
  79:testHexIO.cpp **** 	bufDestroy(&data);
 1899              		.loc 4 79 12 is_stmt 1
 1900 0d79 488D45A0 		leaq	-96(%rbp), %rax
 1901 0d7d 4889C7   		movq	%rax, %rdi
 1902              	.LEHB76:
 1903 0d80 E8000000 		call	bufDestroy@PLT
 1903      00
 1904              	.LEHE76:
  80:testHexIO.cpp **** }
 1905              		.loc 4 80 1
 1906 0d85 90       		nop
 1907 0d86 488B45E8 		movq	-24(%rbp), %rax
 1908 0d8a 64482B04 		subq	%fs:40, %rax
 1908      25280000 
 1908      00
 1909 0d93 0F84D800 		je	.L102
 1909      0000
 1910 0d99 E9CE0000 		jmp	.L107
 1910      00
 1911              	.L103:
 1912 0d9e F30F1EFA 		endbr64
  76:testHexIO.cpp **** 	status = bufProcessLine(line, 0, &data, NULL, &seg, &recordType, NULL);
 1913              		.loc 4 76 2
 1914 0da2 4889C7   		movq	%rax, %rdi
 1915 0da5 E8000000 		call	__cxa_begin_catch@PLT
 1915      00
 1916              	.LEHB77:
 1917 0daa E8000000 		call	_ZN8UnitTest11CurrentTest7ResultsEv@PLT
 1917      00
  76:testHexIO.cpp **** 	status = bufProcessLine(line, 0, &data, NULL, &seg, &recordType, NULL);
 1918              		.loc 4 76 2 is_stmt 0 discriminator 3
 1919 0daf 488B18   		movq	(%rax), %rbx
 1920 0db2 E8000000 		call	_ZN8UnitTest11CurrentTest7DetailsEv@PLT
 1920      00
  76:testHexIO.cpp **** 	status = bufProcessLine(line, 0, &data, NULL, &seg, &recordType, NULL);
 1921              		.loc 4 76 2 discriminator 11
 1922 0db7 488B08   		movq	(%rax), %rcx
 1923 0dba 488D45C0 		leaq	-64(%rbp), %rax
 1924 0dbe BA4C0000 		movl	$76, %edx
 1924      00
 1925 0dc3 4889CE   		movq	%rcx, %rsi
 1926 0dc6 4889C7   		movq	%rax, %rdi
 1927 0dc9 E8000000 		call	_ZN8UnitTest11TestDetailsC1ERKS0_i@PLT
 1927      00
  76:testHexIO.cpp **** 	status = bufProcessLine(line, 0, &data, NULL, &seg, &recordType, NULL);
 1928              		.loc 4 76 2 discriminator 15
 1929 0dce 488D45C0 		leaq	-64(%rbp), %rax
 1930 0dd2 488D1500 		leaq	.LC4(%rip), %rdx
 1930      000000
 1931 0dd9 4889C6   		movq	%rax, %rsi
 1932 0ddc 4889DF   		movq	%rbx, %rdi
 1933 0ddf E8000000 		call	_ZN8UnitTest11TestResults13OnTestFailureERKNS_11TestDetailsEPKc@PLT
 1933      00
 1934              	.LEHE77:
 1935              	.LEHB78:
  76:testHexIO.cpp **** 	status = bufProcessLine(line, 0, &data, NULL, &seg, &recordType, NULL);
 1936              		.loc 4 76 2 discriminator 17
 1937 0de4 E8000000 		call	__cxa_end_catch@PLT
 1937      00
 1938              	.LEHE78:
 1939 0de9 E917FFFF 		jmp	.L97
 1939      FF
 1940              	.L104:
 1941 0dee F30F1EFA 		endbr64
  76:testHexIO.cpp **** 	status = bufProcessLine(line, 0, &data, NULL, &seg, &recordType, NULL);
 1942              		.loc 4 76 2
 1943 0df2 4889C3   		movq	%rax, %rbx
 1944 0df5 E8000000 		call	__cxa_end_catch@PLT
 1944      00
 1945 0dfa 4889D8   		movq	%rbx, %rax
 1946 0dfd 4889C7   		movq	%rax, %rdi
 1947              	.LEHB79:
 1948 0e00 E8000000 		call	_Unwind_Resume@PLT
 1948      00
 1949              	.LEHE79:
 1950              	.L105:
 1951 0e05 F30F1EFA 		endbr64
  78:testHexIO.cpp **** 	bufDestroy(&data);
 1952              		.loc 4 78 2 is_stmt 1
 1953 0e09 4889C7   		movq	%rax, %rdi
 1954 0e0c E8000000 		call	__cxa_begin_catch@PLT
 1954      00
 1955              	.LEHB80:
 1956 0e11 E8000000 		call	_ZN8UnitTest11CurrentTest7ResultsEv@PLT
 1956      00
  78:testHexIO.cpp **** 	bufDestroy(&data);
 1957              		.loc 4 78 2 is_stmt 0 discriminator 3
 1958 0e16 488B18   		movq	(%rax), %rbx
 1959 0e19 E8000000 		call	_ZN8UnitTest11CurrentTest7DetailsEv@PLT
 1959      00
  78:testHexIO.cpp **** 	bufDestroy(&data);
 1960              		.loc 4 78 2 discriminator 11
 1961 0e1e 488B08   		movq	(%rax), %rcx
 1962 0e21 488D45C0 		leaq	-64(%rbp), %rax
 1963 0e25 BA4E0000 		movl	$78, %edx
 1963      00
 1964 0e2a 4889CE   		movq	%rcx, %rsi
 1965 0e2d 4889C7   		movq	%rax, %rdi
 1966 0e30 E8000000 		call	_ZN8UnitTest11TestDetailsC1ERKS0_i@PLT
 1966      00
  78:testHexIO.cpp **** 	bufDestroy(&data);
 1967              		.loc 4 78 2 discriminator 15
 1968 0e35 488D45C0 		leaq	-64(%rbp), %rax
 1969 0e39 488D1500 		leaq	.LC18(%rip), %rdx
 1969      000000
 1970 0e40 4889C6   		movq	%rax, %rsi
 1971 0e43 4889DF   		movq	%rbx, %rdi
 1972 0e46 E8000000 		call	_ZN8UnitTest11TestResults13OnTestFailureERKNS_11TestDetailsEPKc@PLT
 1972      00
 1973              	.LEHE80:
 1974              	.LEHB81:
  78:testHexIO.cpp **** 	bufDestroy(&data);
 1975              		.loc 4 78 2 discriminator 17
 1976 0e4b E8000000 		call	__cxa_end_catch@PLT
 1976      00
 1977              	.LEHE81:
 1978 0e50 E924FFFF 		jmp	.L100
 1978      FF
 1979              	.L106:
 1980 0e55 F30F1EFA 		endbr64
  78:testHexIO.cpp **** 	bufDestroy(&data);
 1981              		.loc 4 78 2
 1982 0e59 4889C3   		movq	%rax, %rbx
 1983 0e5c E8000000 		call	__cxa_end_catch@PLT
 1983      00
 1984 0e61 4889D8   		movq	%rbx, %rax
 1985 0e64 4889C7   		movq	%rax, %rdi
 1986              	.LEHB82:
 1987 0e67 E8000000 		call	_Unwind_Resume@PLT
 1987      00
 1988              	.LEHE82:
 1989              	.L107:
 1990              		.loc 4 80 1 is_stmt 1
 1991 0e6c E8000000 		call	__stack_chk_fail@PLT
 1991      00
 1992              	.L102:
 1993 0e71 488B5DF8 		movq	-8(%rbp), %rbx
 1994 0e75 C9       		leave
 1995              		.cfi_def_cfa 7, 8
 1996 0e76 C3       		ret
 1997              		.cfi_endproc
 1998              	.LFE1227:
 1999              		.section	.gcc_except_table
 2000              		.align 4
 2001              	.LLSDA1227:
 2002 018c FF       		.byte	0xff
 2003 018d 9B       		.byte	0x9b
 2004 018e 41       		.uleb128 .LLSDATT1227-.LLSDATTD1227
 2005              	.LLSDATTD1227:
 2006 018f 01       		.byte	0x1
 2007 0190 39       		.uleb128 .LLSDACSE1227-.LLSDACSB1227
 2008              	.LLSDACSB1227:
 2009 0191 4E       		.uleb128 .LEHB72-.LFB1227
 2010 0192 05       		.uleb128 .LEHE72-.LEHB72
 2011 0193 00       		.uleb128 0
 2012 0194 00       		.uleb128 0
 2013 0195 56       		.uleb128 .LEHB73-.LFB1227
 2014 0196 3F       		.uleb128 .LEHE73-.LEHB73
 2015 0197 AE02     		.uleb128 .L103-.LFB1227
 2016 0199 01       		.uleb128 0x1
 2017 019a BE01     		.uleb128 .LEHB74-.LFB1227
 2018 019c 05       		.uleb128 .LEHE74-.LEHB74
 2019 019d 00       		.uleb128 0
 2020 019e 00       		.uleb128 0
 2021 019f CA01     		.uleb128 .LEHB75-.LFB1227
 2022 01a1 3F       		.uleb128 .LEHE75-.LEHB75
 2023 01a2 9503     		.uleb128 .L105-.LFB1227
 2024 01a4 01       		.uleb128 0x1
 2025 01a5 9002     		.uleb128 .LEHB76-.LFB1227
 2026 01a7 05       		.uleb128 .LEHE76-.LEHB76
 2027 01a8 00       		.uleb128 0
 2028 01a9 00       		.uleb128 0
 2029 01aa BA02     		.uleb128 .LEHB77-.LFB1227
 2030 01ac 3A       		.uleb128 .LEHE77-.LEHB77
 2031 01ad FE02     		.uleb128 .L104-.LFB1227
 2032 01af 00       		.uleb128 0
 2033 01b0 F402     		.uleb128 .LEHB78-.LFB1227
 2034 01b2 05       		.uleb128 .LEHE78-.LEHB78
 2035 01b3 00       		.uleb128 0
 2036 01b4 00       		.uleb128 0
 2037 01b5 9003     		.uleb128 .LEHB79-.LFB1227
 2038 01b7 05       		.uleb128 .LEHE79-.LEHB79
 2039 01b8 00       		.uleb128 0
 2040 01b9 00       		.uleb128 0
 2041 01ba A103     		.uleb128 .LEHB80-.LFB1227
 2042 01bc 3A       		.uleb128 .LEHE80-.LEHB80
 2043 01bd E503     		.uleb128 .L106-.LFB1227
 2044 01bf 00       		.uleb128 0
 2045 01c0 DB03     		.uleb128 .LEHB81-.LFB1227
 2046 01c2 05       		.uleb128 .LEHE81-.LEHB81
 2047 01c3 00       		.uleb128 0
 2048 01c4 00       		.uleb128 0
 2049 01c5 F703     		.uleb128 .LEHB82-.LFB1227
 2050 01c7 05       		.uleb128 .LEHE82-.LEHB82
 2051 01c8 00       		.uleb128 0
 2052 01c9 00       		.uleb128 0
 2053              	.LLSDACSE1227:
 2054 01ca 01       		.byte	0x1
 2055 01cb 00       		.byte	0
 2056              		.align 4
 2057 01cc 00000000 		.long	0
 2058              	
 2059              	.LLSDATT1227:
 2060              		.text
 2062              		.section	.rodata
 2063              	.LC19:
 2064 0338 48657849 		.string	"HexIO_testJunkByteCount"
 2064      4F5F7465 
 2064      73744A75 
 2064      6E6B4279 
 2064      7465436F 
 2065              		.section	.text._ZN27TestHexIO_testJunkByteCountC2Ev,"axG",@progbits,_ZN27TestHexIO_testJunkByteCou
 2066              		.align 2
 2067              		.weak	_ZN27TestHexIO_testJunkByteCountC2Ev
 2069              	_ZN27TestHexIO_testJunkByteCountC2Ev:
 2070              	.LFB1229:
  81:testHexIO.cpp **** 
  82:testHexIO.cpp **** TEST(HexIO_testJunkByteCount) {
 2071              		.loc 4 82 1
 2072              		.cfi_startproc
 2073 0000 F30F1EFA 		endbr64
 2074 0004 55       		pushq	%rbp
 2075              		.cfi_def_cfa_offset 16
 2076              		.cfi_offset 6, -16
 2077 0005 4889E5   		movq	%rsp, %rbp
 2078              		.cfi_def_cfa_register 6
 2079 0008 53       		pushq	%rbx
 2080 0009 4883EC18 		subq	$24, %rsp
 2081              		.cfi_offset 3, -24
 2082 000d 48897DE8 		movq	%rdi, -24(%rbp)
 2083              	.LBB10:
 2084              		.loc 4 82 1
 2085 0011 488B5DE8 		movq	-24(%rbp), %rbx
 2086 0015 E8000000 		call	_ZN13UnitTestSuite12GetSuiteNameEv
 2086      00
 2087 001a 4889C2   		movq	%rax, %rdx
 2088 001d 41B85200 		movl	$82, %r8d
 2088      0000
 2089 0023 488D0500 		leaq	.LC1(%rip), %rax
 2089      000000
 2090 002a 4889C1   		movq	%rax, %rcx
 2091 002d 488D0500 		leaq	.LC19(%rip), %rax
 2091      000000
 2092 0034 4889C6   		movq	%rax, %rsi
 2093 0037 4889DF   		movq	%rbx, %rdi
 2094 003a E8000000 		call	_ZN8UnitTest4TestC2EPKcS2_S2_i@PLT
 2094      00
 2095 003f 488D1500 		leaq	16+_ZTV27TestHexIO_testJunkByteCount(%rip), %rdx
 2095      000000
 2096 0046 488B45E8 		movq	-24(%rbp), %rax
 2097 004a 488910   		movq	%rdx, (%rax)
 2098              	.LBE10:
 2099 004d 90       		nop
 2100 004e 488B5DF8 		movq	-8(%rbp), %rbx
 2101 0052 C9       		leave
 2102              		.cfi_def_cfa 7, 8
 2103 0053 C3       		ret
 2104              		.cfi_endproc
 2105              	.LFE1229:
 2107              		.weak	_ZN27TestHexIO_testJunkByteCountC1Ev
 2108              		.set	_ZN27TestHexIO_testJunkByteCountC1Ev,_ZN27TestHexIO_testJunkByteCountC2Ev
 2109              		.globl	testHexIO_testJunkByteCountInstance
 2110              		.bss
 2111 00b9 00000000 		.align 32
 2111      000000
 2114              	testHexIO_testJunkByteCountInstance:
 2115 00c0 00000000 		.zero	56
 2115      00000000 
 2115      00000000 
 2115      00000000 
 2115      00000000 
 2116              		.globl	adderHexIO_testJunkByteCount
 2119              	adderHexIO_testJunkByteCount:
 2120 00f8 00       		.zero	1
 2121              		.section	.rodata
 2122              	.LC20:
 2123 0350 3A2E2E30 		.string	":..0BE10075820022F7\n"
 2123      42453130 
 2123      30373538 
 2123      32303032 
 2123      3246370A 
 2124 0365 000000   		.align 8
 2125              	.LC21:
 2126 0368 556E6861 		.string	"Unhandled exception in CHECK_EQUAL(HEX_JUNK_BYTE_COUNT, status)"
 2126      6E646C65 
 2126      64206578 
 2126      63657074 
 2126      696F6E20 
 2127              		.text
 2128 0e77 90       		.align 2
 2129              		.globl	_ZNK27TestHexIO_testJunkByteCount7RunImplEv
 2131              	_ZNK27TestHexIO_testJunkByteCount7RunImplEv:
 2132              	.LFB1231:
 2133              		.loc 4 82 31
 2134              		.cfi_startproc
 2135              		.cfi_personality 0x9b,DW.ref.__gxx_personality_v0
 2136              		.cfi_lsda 0x1b,.LLSDA1231
 2137 0e78 F30F1EFA 		endbr64
 2138 0e7c 55       		pushq	%rbp
 2139              		.cfi_def_cfa_offset 16
 2140              		.cfi_offset 6, -16
 2141 0e7d 4889E5   		movq	%rsp, %rbp
 2142              		.cfi_def_cfa_register 6
 2143 0e80 53       		pushq	%rbx
 2144 0e81 4881EC88 		subq	$136, %rsp
 2144      000000
 2145              		.cfi_offset 3, -24
 2146 0e88 4889BD78 		movq	%rdi, -136(%rbp)
 2146      FFFFFF
 2147              		.loc 4 82 31
 2148 0e8f 64488B04 		movq	%fs:40, %rax
 2148      25280000 
 2148      00
 2149 0e98 488945E8 		movq	%rax, -24(%rbp)
 2150 0e9c 31C0     		xorl	%eax, %eax
  83:testHexIO.cpp **** 	Buffer data;
  84:testHexIO.cpp **** 	BufferStatus status;
  85:testHexIO.cpp **** 	const char *line = ":..0BE10075820022F7\n";
 2151              		.loc 4 85 14
 2152 0e9e 488D0500 		leaq	.LC20(%rip), %rax
 2152      000000
 2153 0ea5 48894598 		movq	%rax, -104(%rbp)
  86:testHexIO.cpp **** 	uint8 recordType;
  87:testHexIO.cpp **** 	uint32 seg = 0x00000000;
 2154              		.loc 4 87 9
 2155 0ea9 C7459000 		movl	$0, -112(%rbp)
 2155      000000
  88:testHexIO.cpp **** 	status = bufInitialise(&data, 1024, 0x00, NULL);
 2156              		.loc 4 88 24
 2157 0eb0 488D45A0 		leaq	-96(%rbp), %rax
 2158 0eb4 B9000000 		movl	$0, %ecx
 2158      00
 2159 0eb9 BA000000 		movl	$0, %edx
 2159      00
 2160 0ebe BE000400 		movl	$1024, %esi
 2160      00
 2161 0ec3 4889C7   		movq	%rax, %rdi
 2162              	.LEHB83:
 2163 0ec6 E8000000 		call	bufInitialise@PLT
 2163      00
 2164              	.LEHE83:
 2165              		.loc 4 88 9
 2166 0ecb 89458C   		movl	%eax, -116(%rbp)
 2167              	.LEHB84:
  89:testHexIO.cpp **** 	CHECK_EQUAL(BUF_SUCCESS, status);
 2168              		.loc 4 89 2
 2169 0ece E8000000 		call	_ZN8UnitTest11CurrentTest7DetailsEv@PLT
 2169      00
 2170 0ed3 488B08   		movq	(%rax), %rcx
 2171 0ed6 488D45C0 		leaq	-64(%rbp), %rax
 2172 0eda BA590000 		movl	$89, %edx
 2172      00
 2173 0edf 4889CE   		movq	%rcx, %rsi
 2174 0ee2 4889C7   		movq	%rax, %rdi
 2175 0ee5 E8000000 		call	_ZN8UnitTest11TestDetailsC1ERKS0_i@PLT
 2175      00
 2176              		.loc 4 89 2 is_stmt 0 discriminator 4
 2177 0eea C7459400 		movl	$0, -108(%rbp)
 2177      000000
 2178 0ef1 E8000000 		call	_ZN8UnitTest11CurrentTest7ResultsEv@PLT
 2178      00
 2179 0ef6 488B00   		movq	(%rax), %rax
 2180 0ef9 488D4DC0 		leaq	-64(%rbp), %rcx
 2181 0efd 488D558C 		leaq	-116(%rbp), %rdx
 2182 0f01 488D7594 		leaq	-108(%rbp), %rsi
 2183 0f05 4889C7   		movq	%rax, %rdi
 2184 0f08 E8000000 		call	_ZN8UnitTest10CheckEqualI12BufferStatusS1_EEvRNS_11TestResultsERKT_RKT0_RKNS_11TestDetailsE
 2184      00
 2185              	.LEHE84:
 2186              	.L111:
  90:testHexIO.cpp **** 	status = bufProcessLine(line, 0, &data, NULL, &seg, &recordType, NULL);
 2187              		.loc 4 90 25 is_stmt 1
 2188 0f0d 488D758B 		leaq	-117(%rbp), %rsi
 2189 0f11 488D4D90 		leaq	-112(%rbp), %rcx
 2190 0f15 488D55A0 		leaq	-96(%rbp), %rdx
 2191 0f19 488B4598 		movq	-104(%rbp), %rax
 2192 0f1d 4883EC08 		subq	$8, %rsp
 2193 0f21 6A00     		pushq	$0
 2194 0f23 4989F1   		movq	%rsi, %r9
 2195 0f26 4989C8   		movq	%rcx, %r8
 2196 0f29 B9000000 		movl	$0, %ecx
 2196      00
 2197 0f2e BE000000 		movl	$0, %esi
 2197      00
 2198 0f33 4889C7   		movq	%rax, %rdi
 2199              	.LEHB85:
 2200 0f36 E8000000 		call	bufProcessLine@PLT
 2200      00
 2201              	.LEHE85:
 2202 0f3b 4883C410 		addq	$16, %rsp
 2203              		.loc 4 90 9
 2204 0f3f 89458C   		movl	%eax, -116(%rbp)
 2205              	.LEHB86:
  91:testHexIO.cpp **** 	CHECK_EQUAL(HEX_JUNK_BYTE_COUNT, status);
 2206              		.loc 4 91 2
 2207 0f42 E8000000 		call	_ZN8UnitTest11CurrentTest7DetailsEv@PLT
 2207      00
 2208 0f47 488B08   		movq	(%rax), %rcx
 2209 0f4a 488D45C0 		leaq	-64(%rbp), %rax
 2210 0f4e BA5B0000 		movl	$91, %edx
 2210      00
 2211 0f53 4889CE   		movq	%rcx, %rsi
 2212 0f56 4889C7   		movq	%rax, %rdi
 2213 0f59 E8000000 		call	_ZN8UnitTest11TestDetailsC1ERKS0_i@PLT
 2213      00
 2214              		.loc 4 91 2 is_stmt 0 discriminator 4
 2215 0f5e C7459408 		movl	$8, -108(%rbp)
 2215      000000
 2216 0f65 E8000000 		call	_ZN8UnitTest11CurrentTest7ResultsEv@PLT
 2216      00
 2217 0f6a 488B00   		movq	(%rax), %rax
 2218 0f6d 488D4DC0 		leaq	-64(%rbp), %rcx
 2219 0f71 488D558C 		leaq	-116(%rbp), %rdx
 2220 0f75 488D7594 		leaq	-108(%rbp), %rsi
 2221 0f79 4889C7   		movq	%rax, %rdi
 2222 0f7c E8000000 		call	_ZN8UnitTest10CheckEqualI12BufferStatusS1_EEvRNS_11TestResultsERKT_RKT0_RKNS_11TestDetailsE
 2222      00
 2223              	.LEHE86:
 2224              	.L114:
  92:testHexIO.cpp **** 	bufDestroy(&data);
 2225              		.loc 4 92 12 is_stmt 1
 2226 0f81 488D45A0 		leaq	-96(%rbp), %rax
 2227 0f85 4889C7   		movq	%rax, %rdi
 2228              	.LEHB87:
 2229 0f88 E8000000 		call	bufDestroy@PLT
 2229      00
 2230              	.LEHE87:
  93:testHexIO.cpp **** }
 2231              		.loc 4 93 1
 2232 0f8d 90       		nop
 2233 0f8e 488B45E8 		movq	-24(%rbp), %rax
 2234 0f92 64482B04 		subq	%fs:40, %rax
 2234      25280000 
 2234      00
 2235 0f9b 0F84D800 		je	.L116
 2235      0000
 2236 0fa1 E9CE0000 		jmp	.L121
 2236      00
 2237              	.L117:
 2238 0fa6 F30F1EFA 		endbr64
  89:testHexIO.cpp **** 	status = bufProcessLine(line, 0, &data, NULL, &seg, &recordType, NULL);
 2239              		.loc 4 89 2
 2240 0faa 4889C7   		movq	%rax, %rdi
 2241 0fad E8000000 		call	__cxa_begin_catch@PLT
 2241      00
 2242              	.LEHB88:
 2243 0fb2 E8000000 		call	_ZN8UnitTest11CurrentTest7ResultsEv@PLT
 2243      00
  89:testHexIO.cpp **** 	status = bufProcessLine(line, 0, &data, NULL, &seg, &recordType, NULL);
 2244              		.loc 4 89 2 is_stmt 0 discriminator 3
 2245 0fb7 488B18   		movq	(%rax), %rbx
 2246 0fba E8000000 		call	_ZN8UnitTest11CurrentTest7DetailsEv@PLT
 2246      00
  89:testHexIO.cpp **** 	status = bufProcessLine(line, 0, &data, NULL, &seg, &recordType, NULL);
 2247              		.loc 4 89 2 discriminator 11
 2248 0fbf 488B08   		movq	(%rax), %rcx
 2249 0fc2 488D45C0 		leaq	-64(%rbp), %rax
 2250 0fc6 BA590000 		movl	$89, %edx
 2250      00
 2251 0fcb 4889CE   		movq	%rcx, %rsi
 2252 0fce 4889C7   		movq	%rax, %rdi
 2253 0fd1 E8000000 		call	_ZN8UnitTest11TestDetailsC1ERKS0_i@PLT
 2253      00
  89:testHexIO.cpp **** 	status = bufProcessLine(line, 0, &data, NULL, &seg, &recordType, NULL);
 2254              		.loc 4 89 2 discriminator 15
 2255 0fd6 488D45C0 		leaq	-64(%rbp), %rax
 2256 0fda 488D1500 		leaq	.LC4(%rip), %rdx
 2256      000000
 2257 0fe1 4889C6   		movq	%rax, %rsi
 2258 0fe4 4889DF   		movq	%rbx, %rdi
 2259 0fe7 E8000000 		call	_ZN8UnitTest11TestResults13OnTestFailureERKNS_11TestDetailsEPKc@PLT
 2259      00
 2260              	.LEHE88:
 2261              	.LEHB89:
  89:testHexIO.cpp **** 	status = bufProcessLine(line, 0, &data, NULL, &seg, &recordType, NULL);
 2262              		.loc 4 89 2 discriminator 17
 2263 0fec E8000000 		call	__cxa_end_catch@PLT
 2263      00
 2264              	.LEHE89:
 2265 0ff1 E917FFFF 		jmp	.L111
 2265      FF
 2266              	.L118:
 2267 0ff6 F30F1EFA 		endbr64
  89:testHexIO.cpp **** 	status = bufProcessLine(line, 0, &data, NULL, &seg, &recordType, NULL);
 2268              		.loc 4 89 2
 2269 0ffa 4889C3   		movq	%rax, %rbx
 2270 0ffd E8000000 		call	__cxa_end_catch@PLT
 2270      00
 2271 1002 4889D8   		movq	%rbx, %rax
 2272 1005 4889C7   		movq	%rax, %rdi
 2273              	.LEHB90:
 2274 1008 E8000000 		call	_Unwind_Resume@PLT
 2274      00
 2275              	.LEHE90:
 2276              	.L119:
 2277 100d F30F1EFA 		endbr64
  91:testHexIO.cpp **** 	bufDestroy(&data);
 2278              		.loc 4 91 2 is_stmt 1
 2279 1011 4889C7   		movq	%rax, %rdi
 2280 1014 E8000000 		call	__cxa_begin_catch@PLT
 2280      00
 2281              	.LEHB91:
 2282 1019 E8000000 		call	_ZN8UnitTest11CurrentTest7ResultsEv@PLT
 2282      00
  91:testHexIO.cpp **** 	bufDestroy(&data);
 2283              		.loc 4 91 2 is_stmt 0 discriminator 3
 2284 101e 488B18   		movq	(%rax), %rbx
 2285 1021 E8000000 		call	_ZN8UnitTest11CurrentTest7DetailsEv@PLT
 2285      00
  91:testHexIO.cpp **** 	bufDestroy(&data);
 2286              		.loc 4 91 2 discriminator 11
 2287 1026 488B08   		movq	(%rax), %rcx
 2288 1029 488D45C0 		leaq	-64(%rbp), %rax
 2289 102d BA5B0000 		movl	$91, %edx
 2289      00
 2290 1032 4889CE   		movq	%rcx, %rsi
 2291 1035 4889C7   		movq	%rax, %rdi
 2292 1038 E8000000 		call	_ZN8UnitTest11TestDetailsC1ERKS0_i@PLT
 2292      00
  91:testHexIO.cpp **** 	bufDestroy(&data);
 2293              		.loc 4 91 2 discriminator 15
 2294 103d 488D45C0 		leaq	-64(%rbp), %rax
 2295 1041 488D1500 		leaq	.LC21(%rip), %rdx
 2295      000000
 2296 1048 4889C6   		movq	%rax, %rsi
 2297 104b 4889DF   		movq	%rbx, %rdi
 2298 104e E8000000 		call	_ZN8UnitTest11TestResults13OnTestFailureERKNS_11TestDetailsEPKc@PLT
 2298      00
 2299              	.LEHE91:
 2300              	.LEHB92:
  91:testHexIO.cpp **** 	bufDestroy(&data);
 2301              		.loc 4 91 2 discriminator 17
 2302 1053 E8000000 		call	__cxa_end_catch@PLT
 2302      00
 2303              	.LEHE92:
 2304 1058 E924FFFF 		jmp	.L114
 2304      FF
 2305              	.L120:
 2306 105d F30F1EFA 		endbr64
  91:testHexIO.cpp **** 	bufDestroy(&data);
 2307              		.loc 4 91 2
 2308 1061 4889C3   		movq	%rax, %rbx
 2309 1064 E8000000 		call	__cxa_end_catch@PLT
 2309      00
 2310 1069 4889D8   		movq	%rbx, %rax
 2311 106c 4889C7   		movq	%rax, %rdi
 2312              	.LEHB93:
 2313 106f E8000000 		call	_Unwind_Resume@PLT
 2313      00
 2314              	.LEHE93:
 2315              	.L121:
 2316              		.loc 4 93 1 is_stmt 1
 2317 1074 E8000000 		call	__stack_chk_fail@PLT
 2317      00
 2318              	.L116:
 2319 1079 488B5DF8 		movq	-8(%rbp), %rbx
 2320 107d C9       		leave
 2321              		.cfi_def_cfa 7, 8
 2322 107e C3       		ret
 2323              		.cfi_endproc
 2324              	.LFE1231:
 2325              		.section	.gcc_except_table
 2326              		.align 4
 2327              	.LLSDA1231:
 2328 01d0 FF       		.byte	0xff
 2329 01d1 9B       		.byte	0x9b
 2330 01d2 41       		.uleb128 .LLSDATT1231-.LLSDATTD1231
 2331              	.LLSDATTD1231:
 2332 01d3 01       		.byte	0x1
 2333 01d4 39       		.uleb128 .LLSDACSE1231-.LLSDACSB1231
 2334              	.LLSDACSB1231:
 2335 01d5 4E       		.uleb128 .LEHB83-.LFB1231
 2336 01d6 05       		.uleb128 .LEHE83-.LEHB83
 2337 01d7 00       		.uleb128 0
 2338 01d8 00       		.uleb128 0
 2339 01d9 56       		.uleb128 .LEHB84-.LFB1231
 2340 01da 3F       		.uleb128 .LEHE84-.LEHB84
 2341 01db AE02     		.uleb128 .L117-.LFB1231
 2342 01dd 01       		.uleb128 0x1
 2343 01de BE01     		.uleb128 .LEHB85-.LFB1231
 2344 01e0 05       		.uleb128 .LEHE85-.LEHB85
 2345 01e1 00       		.uleb128 0
 2346 01e2 00       		.uleb128 0
 2347 01e3 CA01     		.uleb128 .LEHB86-.LFB1231
 2348 01e5 3F       		.uleb128 .LEHE86-.LEHB86
 2349 01e6 9503     		.uleb128 .L119-.LFB1231
 2350 01e8 01       		.uleb128 0x1
 2351 01e9 9002     		.uleb128 .LEHB87-.LFB1231
 2352 01eb 05       		.uleb128 .LEHE87-.LEHB87
 2353 01ec 00       		.uleb128 0
 2354 01ed 00       		.uleb128 0
 2355 01ee BA02     		.uleb128 .LEHB88-.LFB1231
 2356 01f0 3A       		.uleb128 .LEHE88-.LEHB88
 2357 01f1 FE02     		.uleb128 .L118-.LFB1231
 2358 01f3 00       		.uleb128 0
 2359 01f4 F402     		.uleb128 .LEHB89-.LFB1231
 2360 01f6 05       		.uleb128 .LEHE89-.LEHB89
 2361 01f7 00       		.uleb128 0
 2362 01f8 00       		.uleb128 0
 2363 01f9 9003     		.uleb128 .LEHB90-.LFB1231
 2364 01fb 05       		.uleb128 .LEHE90-.LEHB90
 2365 01fc 00       		.uleb128 0
 2366 01fd 00       		.uleb128 0
 2367 01fe A103     		.uleb128 .LEHB91-.LFB1231
 2368 0200 3A       		.uleb128 .LEHE91-.LEHB91
 2369 0201 E503     		.uleb128 .L120-.LFB1231
 2370 0203 00       		.uleb128 0
 2371 0204 DB03     		.uleb128 .LEHB92-.LFB1231
 2372 0206 05       		.uleb128 .LEHE92-.LEHB92
 2373 0207 00       		.uleb128 0
 2374 0208 00       		.uleb128 0
 2375 0209 F703     		.uleb128 .LEHB93-.LFB1231
 2376 020b 05       		.uleb128 .LEHE93-.LEHB93
 2377 020c 00       		.uleb128 0
 2378 020d 00       		.uleb128 0
 2379              	.LLSDACSE1231:
 2380 020e 01       		.byte	0x1
 2381 020f 00       		.byte	0
 2382              		.align 4
 2383 0210 00000000 		.long	0
 2384              	
 2385              	.LLSDATT1231:
 2386              		.text
 2388              		.section	.rodata
 2389              	.LC22:
 2390 03a8 48657849 		.string	"HexIO_testJunkAddrMsb"
 2390      4F5F7465 
 2390      73744A75 
 2390      6E6B4164 
 2390      64724D73 
 2391              		.section	.text._ZN25TestHexIO_testJunkAddrMsbC2Ev,"axG",@progbits,_ZN25TestHexIO_testJunkAddrMsbC5
 2392              		.align 2
 2393              		.weak	_ZN25TestHexIO_testJunkAddrMsbC2Ev
 2395              	_ZN25TestHexIO_testJunkAddrMsbC2Ev:
 2396              	.LFB1233:
  94:testHexIO.cpp **** 
  95:testHexIO.cpp **** TEST(HexIO_testJunkAddrMsb) {
 2397              		.loc 4 95 1
 2398              		.cfi_startproc
 2399 0000 F30F1EFA 		endbr64
 2400 0004 55       		pushq	%rbp
 2401              		.cfi_def_cfa_offset 16
 2402              		.cfi_offset 6, -16
 2403 0005 4889E5   		movq	%rsp, %rbp
 2404              		.cfi_def_cfa_register 6
 2405 0008 53       		pushq	%rbx
 2406 0009 4883EC18 		subq	$24, %rsp
 2407              		.cfi_offset 3, -24
 2408 000d 48897DE8 		movq	%rdi, -24(%rbp)
 2409              	.LBB11:
 2410              		.loc 4 95 1
 2411 0011 488B5DE8 		movq	-24(%rbp), %rbx
 2412 0015 E8000000 		call	_ZN13UnitTestSuite12GetSuiteNameEv
 2412      00
 2413 001a 4889C2   		movq	%rax, %rdx
 2414 001d 41B85F00 		movl	$95, %r8d
 2414      0000
 2415 0023 488D0500 		leaq	.LC1(%rip), %rax
 2415      000000
 2416 002a 4889C1   		movq	%rax, %rcx
 2417 002d 488D0500 		leaq	.LC22(%rip), %rax
 2417      000000
 2418 0034 4889C6   		movq	%rax, %rsi
 2419 0037 4889DF   		movq	%rbx, %rdi
 2420 003a E8000000 		call	_ZN8UnitTest4TestC2EPKcS2_S2_i@PLT
 2420      00
 2421 003f 488D1500 		leaq	16+_ZTV25TestHexIO_testJunkAddrMsb(%rip), %rdx
 2421      000000
 2422 0046 488B45E8 		movq	-24(%rbp), %rax
 2423 004a 488910   		movq	%rdx, (%rax)
 2424              	.LBE11:
 2425 004d 90       		nop
 2426 004e 488B5DF8 		movq	-8(%rbp), %rbx
 2427 0052 C9       		leave
 2428              		.cfi_def_cfa 7, 8
 2429 0053 C3       		ret
 2430              		.cfi_endproc
 2431              	.LFE1233:
 2433              		.weak	_ZN25TestHexIO_testJunkAddrMsbC1Ev
 2434              		.set	_ZN25TestHexIO_testJunkAddrMsbC1Ev,_ZN25TestHexIO_testJunkAddrMsbC2Ev
 2435              		.globl	testHexIO_testJunkAddrMsbInstance
 2436              		.bss
 2437 00f9 00000000 		.align 32
 2437      000000
 2440              	testHexIO_testJunkAddrMsbInstance:
 2441 0100 00000000 		.zero	56
 2441      00000000 
 2441      00000000 
 2441      00000000 
 2441      00000000 
 2442              		.globl	adderHexIO_testJunkAddrMsb
 2445              	adderHexIO_testJunkAddrMsb:
 2446 0138 00       		.zero	1
 2447              		.section	.rodata
 2448              	.LC23:
 2449 03be 3A30342E 		.string	":04..E10075820022F7\n"
 2449      2E453130 
 2449      30373538 
 2449      32303032 
 2449      3246370A 
 2450 03d3 00000000 		.align 8
 2450      00
 2451              	.LC24:
 2452 03d8 556E6861 		.string	"Unhandled exception in CHECK_EQUAL(HEX_JUNK_ADDR_MSB, status)"
 2452      6E646C65 
 2452      64206578 
 2452      63657074 
 2452      696F6E20 
 2453              		.text
 2454 107f 90       		.align 2
 2455              		.globl	_ZNK25TestHexIO_testJunkAddrMsb7RunImplEv
 2457              	_ZNK25TestHexIO_testJunkAddrMsb7RunImplEv:
 2458              	.LFB1235:
 2459              		.loc 4 95 29
 2460              		.cfi_startproc
 2461              		.cfi_personality 0x9b,DW.ref.__gxx_personality_v0
 2462              		.cfi_lsda 0x1b,.LLSDA1235
 2463 1080 F30F1EFA 		endbr64
 2464 1084 55       		pushq	%rbp
 2465              		.cfi_def_cfa_offset 16
 2466              		.cfi_offset 6, -16
 2467 1085 4889E5   		movq	%rsp, %rbp
 2468              		.cfi_def_cfa_register 6
 2469 1088 53       		pushq	%rbx
 2470 1089 4881EC88 		subq	$136, %rsp
 2470      000000
 2471              		.cfi_offset 3, -24
 2472 1090 4889BD78 		movq	%rdi, -136(%rbp)
 2472      FFFFFF
 2473              		.loc 4 95 29
 2474 1097 64488B04 		movq	%fs:40, %rax
 2474      25280000 
 2474      00
 2475 10a0 488945E8 		movq	%rax, -24(%rbp)
 2476 10a4 31C0     		xorl	%eax, %eax
  96:testHexIO.cpp **** 	Buffer data;
  97:testHexIO.cpp **** 	BufferStatus status;
  98:testHexIO.cpp **** 	const char *line = ":04..E10075820022F7\n";
 2477              		.loc 4 98 14
 2478 10a6 488D0500 		leaq	.LC23(%rip), %rax
 2478      000000
 2479 10ad 48894598 		movq	%rax, -104(%rbp)
  99:testHexIO.cpp **** 	uint8 recordType;
 100:testHexIO.cpp **** 	uint32 seg = 0x00000000;
 2480              		.loc 4 100 9
 2481 10b1 C7459000 		movl	$0, -112(%rbp)
 2481      000000
 101:testHexIO.cpp **** 	status = bufInitialise(&data, 1024, 0x00, NULL);
 2482              		.loc 4 101 24
 2483 10b8 488D45A0 		leaq	-96(%rbp), %rax
 2484 10bc B9000000 		movl	$0, %ecx
 2484      00
 2485 10c1 BA000000 		movl	$0, %edx
 2485      00
 2486 10c6 BE000400 		movl	$1024, %esi
 2486      00
 2487 10cb 4889C7   		movq	%rax, %rdi
 2488              	.LEHB94:
 2489 10ce E8000000 		call	bufInitialise@PLT
 2489      00
 2490              	.LEHE94:
 2491              		.loc 4 101 9
 2492 10d3 89458C   		movl	%eax, -116(%rbp)
 2493              	.LEHB95:
 102:testHexIO.cpp **** 	CHECK_EQUAL(BUF_SUCCESS, status);
 2494              		.loc 4 102 2
 2495 10d6 E8000000 		call	_ZN8UnitTest11CurrentTest7DetailsEv@PLT
 2495      00
 2496 10db 488B08   		movq	(%rax), %rcx
 2497 10de 488D45C0 		leaq	-64(%rbp), %rax
 2498 10e2 BA660000 		movl	$102, %edx
 2498      00
 2499 10e7 4889CE   		movq	%rcx, %rsi
 2500 10ea 4889C7   		movq	%rax, %rdi
 2501 10ed E8000000 		call	_ZN8UnitTest11TestDetailsC1ERKS0_i@PLT
 2501      00
 2502              		.loc 4 102 2 is_stmt 0 discriminator 4
 2503 10f2 C7459400 		movl	$0, -108(%rbp)
 2503      000000
 2504 10f9 E8000000 		call	_ZN8UnitTest11CurrentTest7ResultsEv@PLT
 2504      00
 2505 10fe 488B00   		movq	(%rax), %rax
 2506 1101 488D4DC0 		leaq	-64(%rbp), %rcx
 2507 1105 488D558C 		leaq	-116(%rbp), %rdx
 2508 1109 488D7594 		leaq	-108(%rbp), %rsi
 2509 110d 4889C7   		movq	%rax, %rdi
 2510 1110 E8000000 		call	_ZN8UnitTest10CheckEqualI12BufferStatusS1_EEvRNS_11TestResultsERKT_RKT0_RKNS_11TestDetailsE
 2510      00
 2511              	.LEHE95:
 2512              	.L125:
 103:testHexIO.cpp **** 	status = bufProcessLine(line, 0, &data, NULL, &seg, &recordType, NULL);
 2513              		.loc 4 103 25 is_stmt 1
 2514 1115 488D758B 		leaq	-117(%rbp), %rsi
 2515 1119 488D4D90 		leaq	-112(%rbp), %rcx
 2516 111d 488D55A0 		leaq	-96(%rbp), %rdx
 2517 1121 488B4598 		movq	-104(%rbp), %rax
 2518 1125 4883EC08 		subq	$8, %rsp
 2519 1129 6A00     		pushq	$0
 2520 112b 4989F1   		movq	%rsi, %r9
 2521 112e 4989C8   		movq	%rcx, %r8
 2522 1131 B9000000 		movl	$0, %ecx
 2522      00
 2523 1136 BE000000 		movl	$0, %esi
 2523      00
 2524 113b 4889C7   		movq	%rax, %rdi
 2525              	.LEHB96:
 2526 113e E8000000 		call	bufProcessLine@PLT
 2526      00
 2527              	.LEHE96:
 2528 1143 4883C410 		addq	$16, %rsp
 2529              		.loc 4 103 9
 2530 1147 89458C   		movl	%eax, -116(%rbp)
 2531              	.LEHB97:
 104:testHexIO.cpp **** 	CHECK_EQUAL(HEX_JUNK_ADDR_MSB, status);
 2532              		.loc 4 104 2
 2533 114a E8000000 		call	_ZN8UnitTest11CurrentTest7DetailsEv@PLT
 2533      00
 2534 114f 488B08   		movq	(%rax), %rcx
 2535 1152 488D45C0 		leaq	-64(%rbp), %rax
 2536 1156 BA680000 		movl	$104, %edx
 2536      00
 2537 115b 4889CE   		movq	%rcx, %rsi
 2538 115e 4889C7   		movq	%rax, %rdi
 2539 1161 E8000000 		call	_ZN8UnitTest11TestDetailsC1ERKS0_i@PLT
 2539      00
 2540              		.loc 4 104 2 is_stmt 0 discriminator 4
 2541 1166 C7459409 		movl	$9, -108(%rbp)
 2541      000000
 2542 116d E8000000 		call	_ZN8UnitTest11CurrentTest7ResultsEv@PLT
 2542      00
 2543 1172 488B00   		movq	(%rax), %rax
 2544 1175 488D4DC0 		leaq	-64(%rbp), %rcx
 2545 1179 488D558C 		leaq	-116(%rbp), %rdx
 2546 117d 488D7594 		leaq	-108(%rbp), %rsi
 2547 1181 4889C7   		movq	%rax, %rdi
 2548 1184 E8000000 		call	_ZN8UnitTest10CheckEqualI12BufferStatusS1_EEvRNS_11TestResultsERKT_RKT0_RKNS_11TestDetailsE
 2548      00
 2549              	.LEHE97:
 2550              	.L128:
 105:testHexIO.cpp **** 	bufDestroy(&data);
 2551              		.loc 4 105 12 is_stmt 1
 2552 1189 488D45A0 		leaq	-96(%rbp), %rax
 2553 118d 4889C7   		movq	%rax, %rdi
 2554              	.LEHB98:
 2555 1190 E8000000 		call	bufDestroy@PLT
 2555      00
 2556              	.LEHE98:
 106:testHexIO.cpp **** }
 2557              		.loc 4 106 1
 2558 1195 90       		nop
 2559 1196 488B45E8 		movq	-24(%rbp), %rax
 2560 119a 64482B04 		subq	%fs:40, %rax
 2560      25280000 
 2560      00
 2561 11a3 0F84D800 		je	.L130
 2561      0000
 2562 11a9 E9CE0000 		jmp	.L135
 2562      00
 2563              	.L131:
 2564 11ae F30F1EFA 		endbr64
 102:testHexIO.cpp **** 	status = bufProcessLine(line, 0, &data, NULL, &seg, &recordType, NULL);
 2565              		.loc 4 102 2
 2566 11b2 4889C7   		movq	%rax, %rdi
 2567 11b5 E8000000 		call	__cxa_begin_catch@PLT
 2567      00
 2568              	.LEHB99:
 2569 11ba E8000000 		call	_ZN8UnitTest11CurrentTest7ResultsEv@PLT
 2569      00
 102:testHexIO.cpp **** 	status = bufProcessLine(line, 0, &data, NULL, &seg, &recordType, NULL);
 2570              		.loc 4 102 2 is_stmt 0 discriminator 3
 2571 11bf 488B18   		movq	(%rax), %rbx
 2572 11c2 E8000000 		call	_ZN8UnitTest11CurrentTest7DetailsEv@PLT
 2572      00
 102:testHexIO.cpp **** 	status = bufProcessLine(line, 0, &data, NULL, &seg, &recordType, NULL);
 2573              		.loc 4 102 2 discriminator 11
 2574 11c7 488B08   		movq	(%rax), %rcx
 2575 11ca 488D45C0 		leaq	-64(%rbp), %rax
 2576 11ce BA660000 		movl	$102, %edx
 2576      00
 2577 11d3 4889CE   		movq	%rcx, %rsi
 2578 11d6 4889C7   		movq	%rax, %rdi
 2579 11d9 E8000000 		call	_ZN8UnitTest11TestDetailsC1ERKS0_i@PLT
 2579      00
 102:testHexIO.cpp **** 	status = bufProcessLine(line, 0, &data, NULL, &seg, &recordType, NULL);
 2580              		.loc 4 102 2 discriminator 15
 2581 11de 488D45C0 		leaq	-64(%rbp), %rax
 2582 11e2 488D1500 		leaq	.LC4(%rip), %rdx
 2582      000000
 2583 11e9 4889C6   		movq	%rax, %rsi
 2584 11ec 4889DF   		movq	%rbx, %rdi
 2585 11ef E8000000 		call	_ZN8UnitTest11TestResults13OnTestFailureERKNS_11TestDetailsEPKc@PLT
 2585      00
 2586              	.LEHE99:
 2587              	.LEHB100:
 102:testHexIO.cpp **** 	status = bufProcessLine(line, 0, &data, NULL, &seg, &recordType, NULL);
 2588              		.loc 4 102 2 discriminator 17
 2589 11f4 E8000000 		call	__cxa_end_catch@PLT
 2589      00
 2590              	.LEHE100:
 2591 11f9 E917FFFF 		jmp	.L125
 2591      FF
 2592              	.L132:
 2593 11fe F30F1EFA 		endbr64
 102:testHexIO.cpp **** 	status = bufProcessLine(line, 0, &data, NULL, &seg, &recordType, NULL);
 2594              		.loc 4 102 2
 2595 1202 4889C3   		movq	%rax, %rbx
 2596 1205 E8000000 		call	__cxa_end_catch@PLT
 2596      00
 2597 120a 4889D8   		movq	%rbx, %rax
 2598 120d 4889C7   		movq	%rax, %rdi
 2599              	.LEHB101:
 2600 1210 E8000000 		call	_Unwind_Resume@PLT
 2600      00
 2601              	.LEHE101:
 2602              	.L133:
 2603 1215 F30F1EFA 		endbr64
 104:testHexIO.cpp **** 	bufDestroy(&data);
 2604              		.loc 4 104 2 is_stmt 1
 2605 1219 4889C7   		movq	%rax, %rdi
 2606 121c E8000000 		call	__cxa_begin_catch@PLT
 2606      00
 2607              	.LEHB102:
 2608 1221 E8000000 		call	_ZN8UnitTest11CurrentTest7ResultsEv@PLT
 2608      00
 104:testHexIO.cpp **** 	bufDestroy(&data);
 2609              		.loc 4 104 2 is_stmt 0 discriminator 3
 2610 1226 488B18   		movq	(%rax), %rbx
 2611 1229 E8000000 		call	_ZN8UnitTest11CurrentTest7DetailsEv@PLT
 2611      00
 104:testHexIO.cpp **** 	bufDestroy(&data);
 2612              		.loc 4 104 2 discriminator 11
 2613 122e 488B08   		movq	(%rax), %rcx
 2614 1231 488D45C0 		leaq	-64(%rbp), %rax
 2615 1235 BA680000 		movl	$104, %edx
 2615      00
 2616 123a 4889CE   		movq	%rcx, %rsi
 2617 123d 4889C7   		movq	%rax, %rdi
 2618 1240 E8000000 		call	_ZN8UnitTest11TestDetailsC1ERKS0_i@PLT
 2618      00
 104:testHexIO.cpp **** 	bufDestroy(&data);
 2619              		.loc 4 104 2 discriminator 15
 2620 1245 488D45C0 		leaq	-64(%rbp), %rax
 2621 1249 488D1500 		leaq	.LC24(%rip), %rdx
 2621      000000
 2622 1250 4889C6   		movq	%rax, %rsi
 2623 1253 4889DF   		movq	%rbx, %rdi
 2624 1256 E8000000 		call	_ZN8UnitTest11TestResults13OnTestFailureERKNS_11TestDetailsEPKc@PLT
 2624      00
 2625              	.LEHE102:
 2626              	.LEHB103:
 104:testHexIO.cpp **** 	bufDestroy(&data);
 2627              		.loc 4 104 2 discriminator 17
 2628 125b E8000000 		call	__cxa_end_catch@PLT
 2628      00
 2629              	.LEHE103:
 2630 1260 E924FFFF 		jmp	.L128
 2630      FF
 2631              	.L134:
 2632 1265 F30F1EFA 		endbr64
 104:testHexIO.cpp **** 	bufDestroy(&data);
 2633              		.loc 4 104 2
 2634 1269 4889C3   		movq	%rax, %rbx
 2635 126c E8000000 		call	__cxa_end_catch@PLT
 2635      00
 2636 1271 4889D8   		movq	%rbx, %rax
 2637 1274 4889C7   		movq	%rax, %rdi
 2638              	.LEHB104:
 2639 1277 E8000000 		call	_Unwind_Resume@PLT
 2639      00
 2640              	.LEHE104:
 2641              	.L135:
 2642              		.loc 4 106 1 is_stmt 1
 2643 127c E8000000 		call	__stack_chk_fail@PLT
 2643      00
 2644              	.L130:
 2645 1281 488B5DF8 		movq	-8(%rbp), %rbx
 2646 1285 C9       		leave
 2647              		.cfi_def_cfa 7, 8
 2648 1286 C3       		ret
 2649              		.cfi_endproc
 2650              	.LFE1235:
 2651              		.section	.gcc_except_table
 2652              		.align 4
 2653              	.LLSDA1235:
 2654 0214 FF       		.byte	0xff
 2655 0215 9B       		.byte	0x9b
 2656 0216 41       		.uleb128 .LLSDATT1235-.LLSDATTD1235
 2657              	.LLSDATTD1235:
 2658 0217 01       		.byte	0x1
 2659 0218 39       		.uleb128 .LLSDACSE1235-.LLSDACSB1235
 2660              	.LLSDACSB1235:
 2661 0219 4E       		.uleb128 .LEHB94-.LFB1235
 2662 021a 05       		.uleb128 .LEHE94-.LEHB94
 2663 021b 00       		.uleb128 0
 2664 021c 00       		.uleb128 0
 2665 021d 56       		.uleb128 .LEHB95-.LFB1235
 2666 021e 3F       		.uleb128 .LEHE95-.LEHB95
 2667 021f AE02     		.uleb128 .L131-.LFB1235
 2668 0221 01       		.uleb128 0x1
 2669 0222 BE01     		.uleb128 .LEHB96-.LFB1235
 2670 0224 05       		.uleb128 .LEHE96-.LEHB96
 2671 0225 00       		.uleb128 0
 2672 0226 00       		.uleb128 0
 2673 0227 CA01     		.uleb128 .LEHB97-.LFB1235
 2674 0229 3F       		.uleb128 .LEHE97-.LEHB97
 2675 022a 9503     		.uleb128 .L133-.LFB1235
 2676 022c 01       		.uleb128 0x1
 2677 022d 9002     		.uleb128 .LEHB98-.LFB1235
 2678 022f 05       		.uleb128 .LEHE98-.LEHB98
 2679 0230 00       		.uleb128 0
 2680 0231 00       		.uleb128 0
 2681 0232 BA02     		.uleb128 .LEHB99-.LFB1235
 2682 0234 3A       		.uleb128 .LEHE99-.LEHB99
 2683 0235 FE02     		.uleb128 .L132-.LFB1235
 2684 0237 00       		.uleb128 0
 2685 0238 F402     		.uleb128 .LEHB100-.LFB1235
 2686 023a 05       		.uleb128 .LEHE100-.LEHB100
 2687 023b 00       		.uleb128 0
 2688 023c 00       		.uleb128 0
 2689 023d 9003     		.uleb128 .LEHB101-.LFB1235
 2690 023f 05       		.uleb128 .LEHE101-.LEHB101
 2691 0240 00       		.uleb128 0
 2692 0241 00       		.uleb128 0
 2693 0242 A103     		.uleb128 .LEHB102-.LFB1235
 2694 0244 3A       		.uleb128 .LEHE102-.LEHB102
 2695 0245 E503     		.uleb128 .L134-.LFB1235
 2696 0247 00       		.uleb128 0
 2697 0248 DB03     		.uleb128 .LEHB103-.LFB1235
 2698 024a 05       		.uleb128 .LEHE103-.LEHB103
 2699 024b 00       		.uleb128 0
 2700 024c 00       		.uleb128 0
 2701 024d F703     		.uleb128 .LEHB104-.LFB1235
 2702 024f 05       		.uleb128 .LEHE104-.LEHB104
 2703 0250 00       		.uleb128 0
 2704 0251 00       		.uleb128 0
 2705              	.LLSDACSE1235:
 2706 0252 01       		.byte	0x1
 2707 0253 00       		.byte	0
 2708              		.align 4
 2709 0254 00000000 		.long	0
 2710              	
 2711              	.LLSDATT1235:
 2712              		.text
 2714              		.section	.rodata
 2715              	.LC25:
 2716 0416 48657849 		.string	"HexIO_testJunkAddrLsb"
 2716      4F5F7465 
 2716      73744A75 
 2716      6E6B4164 
 2716      64724C73 
 2717              		.section	.text._ZN25TestHexIO_testJunkAddrLsbC2Ev,"axG",@progbits,_ZN25TestHexIO_testJunkAddrLsbC5
 2718              		.align 2
 2719              		.weak	_ZN25TestHexIO_testJunkAddrLsbC2Ev
 2721              	_ZN25TestHexIO_testJunkAddrLsbC2Ev:
 2722              	.LFB1237:
 107:testHexIO.cpp **** 
 108:testHexIO.cpp **** TEST(HexIO_testJunkAddrLsb) {
 2723              		.loc 4 108 1
 2724              		.cfi_startproc
 2725 0000 F30F1EFA 		endbr64
 2726 0004 55       		pushq	%rbp
 2727              		.cfi_def_cfa_offset 16
 2728              		.cfi_offset 6, -16
 2729 0005 4889E5   		movq	%rsp, %rbp
 2730              		.cfi_def_cfa_register 6
 2731 0008 53       		pushq	%rbx
 2732 0009 4883EC18 		subq	$24, %rsp
 2733              		.cfi_offset 3, -24
 2734 000d 48897DE8 		movq	%rdi, -24(%rbp)
 2735              	.LBB12:
 2736              		.loc 4 108 1
 2737 0011 488B5DE8 		movq	-24(%rbp), %rbx
 2738 0015 E8000000 		call	_ZN13UnitTestSuite12GetSuiteNameEv
 2738      00
 2739 001a 4889C2   		movq	%rax, %rdx
 2740 001d 41B86C00 		movl	$108, %r8d
 2740      0000
 2741 0023 488D0500 		leaq	.LC1(%rip), %rax
 2741      000000
 2742 002a 4889C1   		movq	%rax, %rcx
 2743 002d 488D0500 		leaq	.LC25(%rip), %rax
 2743      000000
 2744 0034 4889C6   		movq	%rax, %rsi
 2745 0037 4889DF   		movq	%rbx, %rdi
 2746 003a E8000000 		call	_ZN8UnitTest4TestC2EPKcS2_S2_i@PLT
 2746      00
 2747 003f 488D1500 		leaq	16+_ZTV25TestHexIO_testJunkAddrLsb(%rip), %rdx
 2747      000000
 2748 0046 488B45E8 		movq	-24(%rbp), %rax
 2749 004a 488910   		movq	%rdx, (%rax)
 2750              	.LBE12:
 2751 004d 90       		nop
 2752 004e 488B5DF8 		movq	-8(%rbp), %rbx
 2753 0052 C9       		leave
 2754              		.cfi_def_cfa 7, 8
 2755 0053 C3       		ret
 2756              		.cfi_endproc
 2757              	.LFE1237:
 2759              		.weak	_ZN25TestHexIO_testJunkAddrLsbC1Ev
 2760              		.set	_ZN25TestHexIO_testJunkAddrLsbC1Ev,_ZN25TestHexIO_testJunkAddrLsbC2Ev
 2761              		.globl	testHexIO_testJunkAddrLsbInstance
 2762              		.bss
 2763 0139 00000000 		.align 32
 2763      000000
 2766              	testHexIO_testJunkAddrLsbInstance:
 2767 0140 00000000 		.zero	56
 2767      00000000 
 2767      00000000 
 2767      00000000 
 2767      00000000 
 2768              		.globl	adderHexIO_testJunkAddrLsb
 2771              	adderHexIO_testJunkAddrLsb:
 2772 0178 00       		.zero	1
 2773              		.section	.rodata
 2774              	.LC26:
 2775 042c 3A303430 		.string	":040B..0075820022F7\n"
 2775      422E2E30 
 2775      30373538 
 2775      32303032 
 2775      3246370A 
 2776 0441 00000000 		.align 8
 2776      000000
 2777              	.LC27:
 2778 0448 556E6861 		.string	"Unhandled exception in CHECK_EQUAL(HEX_JUNK_ADDR_LSB, status)"
 2778      6E646C65 
 2778      64206578 
 2778      63657074 
 2778      696F6E20 
 2779              		.text
 2780 1287 90       		.align 2
 2781              		.globl	_ZNK25TestHexIO_testJunkAddrLsb7RunImplEv
 2783              	_ZNK25TestHexIO_testJunkAddrLsb7RunImplEv:
 2784              	.LFB1239:
 2785              		.loc 4 108 29
 2786              		.cfi_startproc
 2787              		.cfi_personality 0x9b,DW.ref.__gxx_personality_v0
 2788              		.cfi_lsda 0x1b,.LLSDA1239
 2789 1288 F30F1EFA 		endbr64
 2790 128c 55       		pushq	%rbp
 2791              		.cfi_def_cfa_offset 16
 2792              		.cfi_offset 6, -16
 2793 128d 4889E5   		movq	%rsp, %rbp
 2794              		.cfi_def_cfa_register 6
 2795 1290 53       		pushq	%rbx
 2796 1291 4881EC88 		subq	$136, %rsp
 2796      000000
 2797              		.cfi_offset 3, -24
 2798 1298 4889BD78 		movq	%rdi, -136(%rbp)
 2798      FFFFFF
 2799              		.loc 4 108 29
 2800 129f 64488B04 		movq	%fs:40, %rax
 2800      25280000 
 2800      00
 2801 12a8 488945E8 		movq	%rax, -24(%rbp)
 2802 12ac 31C0     		xorl	%eax, %eax
 109:testHexIO.cpp **** 	Buffer data;
 110:testHexIO.cpp **** 	BufferStatus status;
 111:testHexIO.cpp **** 	const char *line = ":040B..0075820022F7\n";
 2803              		.loc 4 111 14
 2804 12ae 488D0500 		leaq	.LC26(%rip), %rax
 2804      000000
 2805 12b5 48894598 		movq	%rax, -104(%rbp)
 112:testHexIO.cpp **** 	uint8 recordType;
 113:testHexIO.cpp **** 	uint32 seg = 0x00000000;
 2806              		.loc 4 113 9
 2807 12b9 C7459000 		movl	$0, -112(%rbp)
 2807      000000
 114:testHexIO.cpp **** 	status = bufInitialise(&data, 1024, 0x00, NULL);
 2808              		.loc 4 114 24
 2809 12c0 488D45A0 		leaq	-96(%rbp), %rax
 2810 12c4 B9000000 		movl	$0, %ecx
 2810      00
 2811 12c9 BA000000 		movl	$0, %edx
 2811      00
 2812 12ce BE000400 		movl	$1024, %esi
 2812      00
 2813 12d3 4889C7   		movq	%rax, %rdi
 2814              	.LEHB105:
 2815 12d6 E8000000 		call	bufInitialise@PLT
 2815      00
 2816              	.LEHE105:
 2817              		.loc 4 114 9
 2818 12db 89458C   		movl	%eax, -116(%rbp)
 2819              	.LEHB106:
 115:testHexIO.cpp **** 	CHECK_EQUAL(BUF_SUCCESS, status);
 2820              		.loc 4 115 2
 2821 12de E8000000 		call	_ZN8UnitTest11CurrentTest7DetailsEv@PLT
 2821      00
 2822 12e3 488B08   		movq	(%rax), %rcx
 2823 12e6 488D45C0 		leaq	-64(%rbp), %rax
 2824 12ea BA730000 		movl	$115, %edx
 2824      00
 2825 12ef 4889CE   		movq	%rcx, %rsi
 2826 12f2 4889C7   		movq	%rax, %rdi
 2827 12f5 E8000000 		call	_ZN8UnitTest11TestDetailsC1ERKS0_i@PLT
 2827      00
 2828              		.loc 4 115 2 is_stmt 0 discriminator 4
 2829 12fa C7459400 		movl	$0, -108(%rbp)
 2829      000000
 2830 1301 E8000000 		call	_ZN8UnitTest11CurrentTest7ResultsEv@PLT
 2830      00
 2831 1306 488B00   		movq	(%rax), %rax
 2832 1309 488D4DC0 		leaq	-64(%rbp), %rcx
 2833 130d 488D558C 		leaq	-116(%rbp), %rdx
 2834 1311 488D7594 		leaq	-108(%rbp), %rsi
 2835 1315 4889C7   		movq	%rax, %rdi
 2836 1318 E8000000 		call	_ZN8UnitTest10CheckEqualI12BufferStatusS1_EEvRNS_11TestResultsERKT_RKT0_RKNS_11TestDetailsE
 2836      00
 2837              	.LEHE106:
 2838              	.L139:
 116:testHexIO.cpp **** 	status = bufProcessLine(line, 0, &data, NULL, &seg, &recordType, NULL);
 2839              		.loc 4 116 25 is_stmt 1
 2840 131d 488D758B 		leaq	-117(%rbp), %rsi
 2841 1321 488D4D90 		leaq	-112(%rbp), %rcx
 2842 1325 488D55A0 		leaq	-96(%rbp), %rdx
 2843 1329 488B4598 		movq	-104(%rbp), %rax
 2844 132d 4883EC08 		subq	$8, %rsp
 2845 1331 6A00     		pushq	$0
 2846 1333 4989F1   		movq	%rsi, %r9
 2847 1336 4989C8   		movq	%rcx, %r8
 2848 1339 B9000000 		movl	$0, %ecx
 2848      00
 2849 133e BE000000 		movl	$0, %esi
 2849      00
 2850 1343 4889C7   		movq	%rax, %rdi
 2851              	.LEHB107:
 2852 1346 E8000000 		call	bufProcessLine@PLT
 2852      00
 2853              	.LEHE107:
 2854 134b 4883C410 		addq	$16, %rsp
 2855              		.loc 4 116 9
 2856 134f 89458C   		movl	%eax, -116(%rbp)
 2857              	.LEHB108:
 117:testHexIO.cpp **** 	CHECK_EQUAL(HEX_JUNK_ADDR_LSB, status);
 2858              		.loc 4 117 2
 2859 1352 E8000000 		call	_ZN8UnitTest11CurrentTest7DetailsEv@PLT
 2859      00
 2860 1357 488B08   		movq	(%rax), %rcx
 2861 135a 488D45C0 		leaq	-64(%rbp), %rax
 2862 135e BA750000 		movl	$117, %edx
 2862      00
 2863 1363 4889CE   		movq	%rcx, %rsi
 2864 1366 4889C7   		movq	%rax, %rdi
 2865 1369 E8000000 		call	_ZN8UnitTest11TestDetailsC1ERKS0_i@PLT
 2865      00
 2866              		.loc 4 117 2 is_stmt 0 discriminator 4
 2867 136e C745940A 		movl	$10, -108(%rbp)
 2867      000000
 2868 1375 E8000000 		call	_ZN8UnitTest11CurrentTest7ResultsEv@PLT
 2868      00
 2869 137a 488B00   		movq	(%rax), %rax
 2870 137d 488D4DC0 		leaq	-64(%rbp), %rcx
 2871 1381 488D558C 		leaq	-116(%rbp), %rdx
 2872 1385 488D7594 		leaq	-108(%rbp), %rsi
 2873 1389 4889C7   		movq	%rax, %rdi
 2874 138c E8000000 		call	_ZN8UnitTest10CheckEqualI12BufferStatusS1_EEvRNS_11TestResultsERKT_RKT0_RKNS_11TestDetailsE
 2874      00
 2875              	.LEHE108:
 2876              	.L142:
 118:testHexIO.cpp **** 	bufDestroy(&data);
 2877              		.loc 4 118 12 is_stmt 1
 2878 1391 488D45A0 		leaq	-96(%rbp), %rax
 2879 1395 4889C7   		movq	%rax, %rdi
 2880              	.LEHB109:
 2881 1398 E8000000 		call	bufDestroy@PLT
 2881      00
 2882              	.LEHE109:
 119:testHexIO.cpp **** }
 2883              		.loc 4 119 1
 2884 139d 90       		nop
 2885 139e 488B45E8 		movq	-24(%rbp), %rax
 2886 13a2 64482B04 		subq	%fs:40, %rax
 2886      25280000 
 2886      00
 2887 13ab 0F84D800 		je	.L144
 2887      0000
 2888 13b1 E9CE0000 		jmp	.L149
 2888      00
 2889              	.L145:
 2890 13b6 F30F1EFA 		endbr64
 115:testHexIO.cpp **** 	status = bufProcessLine(line, 0, &data, NULL, &seg, &recordType, NULL);
 2891              		.loc 4 115 2
 2892 13ba 4889C7   		movq	%rax, %rdi
 2893 13bd E8000000 		call	__cxa_begin_catch@PLT
 2893      00
 2894              	.LEHB110:
 2895 13c2 E8000000 		call	_ZN8UnitTest11CurrentTest7ResultsEv@PLT
 2895      00
 115:testHexIO.cpp **** 	status = bufProcessLine(line, 0, &data, NULL, &seg, &recordType, NULL);
 2896              		.loc 4 115 2 is_stmt 0 discriminator 3
 2897 13c7 488B18   		movq	(%rax), %rbx
 2898 13ca E8000000 		call	_ZN8UnitTest11CurrentTest7DetailsEv@PLT
 2898      00
 115:testHexIO.cpp **** 	status = bufProcessLine(line, 0, &data, NULL, &seg, &recordType, NULL);
 2899              		.loc 4 115 2 discriminator 11
 2900 13cf 488B08   		movq	(%rax), %rcx
 2901 13d2 488D45C0 		leaq	-64(%rbp), %rax
 2902 13d6 BA730000 		movl	$115, %edx
 2902      00
 2903 13db 4889CE   		movq	%rcx, %rsi
 2904 13de 4889C7   		movq	%rax, %rdi
 2905 13e1 E8000000 		call	_ZN8UnitTest11TestDetailsC1ERKS0_i@PLT
 2905      00
 115:testHexIO.cpp **** 	status = bufProcessLine(line, 0, &data, NULL, &seg, &recordType, NULL);
 2906              		.loc 4 115 2 discriminator 15
 2907 13e6 488D45C0 		leaq	-64(%rbp), %rax
 2908 13ea 488D1500 		leaq	.LC4(%rip), %rdx
 2908      000000
 2909 13f1 4889C6   		movq	%rax, %rsi
 2910 13f4 4889DF   		movq	%rbx, %rdi
 2911 13f7 E8000000 		call	_ZN8UnitTest11TestResults13OnTestFailureERKNS_11TestDetailsEPKc@PLT
 2911      00
 2912              	.LEHE110:
 2913              	.LEHB111:
 115:testHexIO.cpp **** 	status = bufProcessLine(line, 0, &data, NULL, &seg, &recordType, NULL);
 2914              		.loc 4 115 2 discriminator 17
 2915 13fc E8000000 		call	__cxa_end_catch@PLT
 2915      00
 2916              	.LEHE111:
 2917 1401 E917FFFF 		jmp	.L139
 2917      FF
 2918              	.L146:
 2919 1406 F30F1EFA 		endbr64
 115:testHexIO.cpp **** 	status = bufProcessLine(line, 0, &data, NULL, &seg, &recordType, NULL);
 2920              		.loc 4 115 2
 2921 140a 4889C3   		movq	%rax, %rbx
 2922 140d E8000000 		call	__cxa_end_catch@PLT
 2922      00
 2923 1412 4889D8   		movq	%rbx, %rax
 2924 1415 4889C7   		movq	%rax, %rdi
 2925              	.LEHB112:
 2926 1418 E8000000 		call	_Unwind_Resume@PLT
 2926      00
 2927              	.LEHE112:
 2928              	.L147:
 2929 141d F30F1EFA 		endbr64
 117:testHexIO.cpp **** 	bufDestroy(&data);
 2930              		.loc 4 117 2 is_stmt 1
 2931 1421 4889C7   		movq	%rax, %rdi
 2932 1424 E8000000 		call	__cxa_begin_catch@PLT
 2932      00
 2933              	.LEHB113:
 2934 1429 E8000000 		call	_ZN8UnitTest11CurrentTest7ResultsEv@PLT
 2934      00
 117:testHexIO.cpp **** 	bufDestroy(&data);
 2935              		.loc 4 117 2 is_stmt 0 discriminator 3
 2936 142e 488B18   		movq	(%rax), %rbx
 2937 1431 E8000000 		call	_ZN8UnitTest11CurrentTest7DetailsEv@PLT
 2937      00
 117:testHexIO.cpp **** 	bufDestroy(&data);
 2938              		.loc 4 117 2 discriminator 11
 2939 1436 488B08   		movq	(%rax), %rcx
 2940 1439 488D45C0 		leaq	-64(%rbp), %rax
 2941 143d BA750000 		movl	$117, %edx
 2941      00
 2942 1442 4889CE   		movq	%rcx, %rsi
 2943 1445 4889C7   		movq	%rax, %rdi
 2944 1448 E8000000 		call	_ZN8UnitTest11TestDetailsC1ERKS0_i@PLT
 2944      00
 117:testHexIO.cpp **** 	bufDestroy(&data);
 2945              		.loc 4 117 2 discriminator 15
 2946 144d 488D45C0 		leaq	-64(%rbp), %rax
 2947 1451 488D1500 		leaq	.LC27(%rip), %rdx
 2947      000000
 2948 1458 4889C6   		movq	%rax, %rsi
 2949 145b 4889DF   		movq	%rbx, %rdi
 2950 145e E8000000 		call	_ZN8UnitTest11TestResults13OnTestFailureERKNS_11TestDetailsEPKc@PLT
 2950      00
 2951              	.LEHE113:
 2952              	.LEHB114:
 117:testHexIO.cpp **** 	bufDestroy(&data);
 2953              		.loc 4 117 2 discriminator 17
 2954 1463 E8000000 		call	__cxa_end_catch@PLT
 2954      00
 2955              	.LEHE114:
 2956 1468 E924FFFF 		jmp	.L142
 2956      FF
 2957              	.L148:
 2958 146d F30F1EFA 		endbr64
 117:testHexIO.cpp **** 	bufDestroy(&data);
 2959              		.loc 4 117 2
 2960 1471 4889C3   		movq	%rax, %rbx
 2961 1474 E8000000 		call	__cxa_end_catch@PLT
 2961      00
 2962 1479 4889D8   		movq	%rbx, %rax
 2963 147c 4889C7   		movq	%rax, %rdi
 2964              	.LEHB115:
 2965 147f E8000000 		call	_Unwind_Resume@PLT
 2965      00
 2966              	.LEHE115:
 2967              	.L149:
 2968              		.loc 4 119 1 is_stmt 1
 2969 1484 E8000000 		call	__stack_chk_fail@PLT
 2969      00
 2970              	.L144:
 2971 1489 488B5DF8 		movq	-8(%rbp), %rbx
 2972 148d C9       		leave
 2973              		.cfi_def_cfa 7, 8
 2974 148e C3       		ret
 2975              		.cfi_endproc
 2976              	.LFE1239:
 2977              		.section	.gcc_except_table
 2978              		.align 4
 2979              	.LLSDA1239:
 2980 0258 FF       		.byte	0xff
 2981 0259 9B       		.byte	0x9b
 2982 025a 41       		.uleb128 .LLSDATT1239-.LLSDATTD1239
 2983              	.LLSDATTD1239:
 2984 025b 01       		.byte	0x1
 2985 025c 39       		.uleb128 .LLSDACSE1239-.LLSDACSB1239
 2986              	.LLSDACSB1239:
 2987 025d 4E       		.uleb128 .LEHB105-.LFB1239
 2988 025e 05       		.uleb128 .LEHE105-.LEHB105
 2989 025f 00       		.uleb128 0
 2990 0260 00       		.uleb128 0
 2991 0261 56       		.uleb128 .LEHB106-.LFB1239
 2992 0262 3F       		.uleb128 .LEHE106-.LEHB106
 2993 0263 AE02     		.uleb128 .L145-.LFB1239
 2994 0265 01       		.uleb128 0x1
 2995 0266 BE01     		.uleb128 .LEHB107-.LFB1239
 2996 0268 05       		.uleb128 .LEHE107-.LEHB107
 2997 0269 00       		.uleb128 0
 2998 026a 00       		.uleb128 0
 2999 026b CA01     		.uleb128 .LEHB108-.LFB1239
 3000 026d 3F       		.uleb128 .LEHE108-.LEHB108
 3001 026e 9503     		.uleb128 .L147-.LFB1239
 3002 0270 01       		.uleb128 0x1
 3003 0271 9002     		.uleb128 .LEHB109-.LFB1239
 3004 0273 05       		.uleb128 .LEHE109-.LEHB109
 3005 0274 00       		.uleb128 0
 3006 0275 00       		.uleb128 0
 3007 0276 BA02     		.uleb128 .LEHB110-.LFB1239
 3008 0278 3A       		.uleb128 .LEHE110-.LEHB110
 3009 0279 FE02     		.uleb128 .L146-.LFB1239
 3010 027b 00       		.uleb128 0
 3011 027c F402     		.uleb128 .LEHB111-.LFB1239
 3012 027e 05       		.uleb128 .LEHE111-.LEHB111
 3013 027f 00       		.uleb128 0
 3014 0280 00       		.uleb128 0
 3015 0281 9003     		.uleb128 .LEHB112-.LFB1239
 3016 0283 05       		.uleb128 .LEHE112-.LEHB112
 3017 0284 00       		.uleb128 0
 3018 0285 00       		.uleb128 0
 3019 0286 A103     		.uleb128 .LEHB113-.LFB1239
 3020 0288 3A       		.uleb128 .LEHE113-.LEHB113
 3021 0289 E503     		.uleb128 .L148-.LFB1239
 3022 028b 00       		.uleb128 0
 3023 028c DB03     		.uleb128 .LEHB114-.LFB1239
 3024 028e 05       		.uleb128 .LEHE114-.LEHB114
 3025 028f 00       		.uleb128 0
 3026 0290 00       		.uleb128 0
 3027 0291 F703     		.uleb128 .LEHB115-.LFB1239
 3028 0293 05       		.uleb128 .LEHE115-.LEHB115
 3029 0294 00       		.uleb128 0
 3030 0295 00       		.uleb128 0
 3031              	.LLSDACSE1239:
 3032 0296 01       		.byte	0x1
 3033 0297 00       		.byte	0
 3034              		.align 4
 3035 0298 00000000 		.long	0
 3036              	
 3037              	.LLSDATT1239:
 3038              		.text
 3040              		.section	.rodata
 3041              	.LC28:
 3042 0486 48657849 		.string	"HexIO_testJunkRecType"
 3042      4F5F7465 
 3042      73744A75 
 3042      6E6B5265 
 3042      63547970 
 3043              		.section	.text._ZN25TestHexIO_testJunkRecTypeC2Ev,"axG",@progbits,_ZN25TestHexIO_testJunkRecTypeC5
 3044              		.align 2
 3045              		.weak	_ZN25TestHexIO_testJunkRecTypeC2Ev
 3047              	_ZN25TestHexIO_testJunkRecTypeC2Ev:
 3048              	.LFB1241:
 120:testHexIO.cpp **** 
 121:testHexIO.cpp **** TEST(HexIO_testJunkRecType) {
 3049              		.loc 4 121 1
 3050              		.cfi_startproc
 3051 0000 F30F1EFA 		endbr64
 3052 0004 55       		pushq	%rbp
 3053              		.cfi_def_cfa_offset 16
 3054              		.cfi_offset 6, -16
 3055 0005 4889E5   		movq	%rsp, %rbp
 3056              		.cfi_def_cfa_register 6
 3057 0008 53       		pushq	%rbx
 3058 0009 4883EC18 		subq	$24, %rsp
 3059              		.cfi_offset 3, -24
 3060 000d 48897DE8 		movq	%rdi, -24(%rbp)
 3061              	.LBB13:
 3062              		.loc 4 121 1
 3063 0011 488B5DE8 		movq	-24(%rbp), %rbx
 3064 0015 E8000000 		call	_ZN13UnitTestSuite12GetSuiteNameEv
 3064      00
 3065 001a 4889C2   		movq	%rax, %rdx
 3066 001d 41B87900 		movl	$121, %r8d
 3066      0000
 3067 0023 488D0500 		leaq	.LC1(%rip), %rax
 3067      000000
 3068 002a 4889C1   		movq	%rax, %rcx
 3069 002d 488D0500 		leaq	.LC28(%rip), %rax
 3069      000000
 3070 0034 4889C6   		movq	%rax, %rsi
 3071 0037 4889DF   		movq	%rbx, %rdi
 3072 003a E8000000 		call	_ZN8UnitTest4TestC2EPKcS2_S2_i@PLT
 3072      00
 3073 003f 488D1500 		leaq	16+_ZTV25TestHexIO_testJunkRecType(%rip), %rdx
 3073      000000
 3074 0046 488B45E8 		movq	-24(%rbp), %rax
 3075 004a 488910   		movq	%rdx, (%rax)
 3076              	.LBE13:
 3077 004d 90       		nop
 3078 004e 488B5DF8 		movq	-8(%rbp), %rbx
 3079 0052 C9       		leave
 3080              		.cfi_def_cfa 7, 8
 3081 0053 C3       		ret
 3082              		.cfi_endproc
 3083              	.LFE1241:
 3085              		.weak	_ZN25TestHexIO_testJunkRecTypeC1Ev
 3086              		.set	_ZN25TestHexIO_testJunkRecTypeC1Ev,_ZN25TestHexIO_testJunkRecTypeC2Ev
 3087              		.globl	testHexIO_testJunkRecTypeInstance
 3088              		.bss
 3089 0179 00000000 		.align 32
 3089      000000
 3092              	testHexIO_testJunkRecTypeInstance:
 3093 0180 00000000 		.zero	56
 3093      00000000 
 3093      00000000 
 3093      00000000 
 3093      00000000 
 3094              		.globl	adderHexIO_testJunkRecType
 3097              	adderHexIO_testJunkRecType:
 3098 01b8 00       		.zero	1
 3099              		.section	.rodata
 3100              	.LC29:
 3101 049c 3A303430 		.string	":040BE1..75820022F7\n"
 3101      4245312E 
 3101      2E373538 
 3101      32303032 
 3101      3246370A 
 3102 04b1 00000000 		.align 8
 3102      000000
 3103              	.LC30:
 3104 04b8 556E6861 		.string	"Unhandled exception in CHECK_EQUAL(HEX_JUNK_REC_TYPE, status)"
 3104      6E646C65 
 3104      64206578 
 3104      63657074 
 3104      696F6E20 
 3105              		.text
 3106 148f 90       		.align 2
 3107              		.globl	_ZNK25TestHexIO_testJunkRecType7RunImplEv
 3109              	_ZNK25TestHexIO_testJunkRecType7RunImplEv:
 3110              	.LFB1243:
 3111              		.loc 4 121 29
 3112              		.cfi_startproc
 3113              		.cfi_personality 0x9b,DW.ref.__gxx_personality_v0
 3114              		.cfi_lsda 0x1b,.LLSDA1243
 3115 1490 F30F1EFA 		endbr64
 3116 1494 55       		pushq	%rbp
 3117              		.cfi_def_cfa_offset 16
 3118              		.cfi_offset 6, -16
 3119 1495 4889E5   		movq	%rsp, %rbp
 3120              		.cfi_def_cfa_register 6
 3121 1498 53       		pushq	%rbx
 3122 1499 4881EC88 		subq	$136, %rsp
 3122      000000
 3123              		.cfi_offset 3, -24
 3124 14a0 4889BD78 		movq	%rdi, -136(%rbp)
 3124      FFFFFF
 3125              		.loc 4 121 29
 3126 14a7 64488B04 		movq	%fs:40, %rax
 3126      25280000 
 3126      00
 3127 14b0 488945E8 		movq	%rax, -24(%rbp)
 3128 14b4 31C0     		xorl	%eax, %eax
 122:testHexIO.cpp **** 	Buffer data;
 123:testHexIO.cpp **** 	BufferStatus status;
 124:testHexIO.cpp **** 	const char *line = ":040BE1..75820022F7\n";
 3129              		.loc 4 124 14
 3130 14b6 488D0500 		leaq	.LC29(%rip), %rax
 3130      000000
 3131 14bd 48894598 		movq	%rax, -104(%rbp)
 125:testHexIO.cpp **** 	uint8 recordType;
 126:testHexIO.cpp **** 	uint32 seg = 0x00000000;
 3132              		.loc 4 126 9
 3133 14c1 C7459000 		movl	$0, -112(%rbp)
 3133      000000
 127:testHexIO.cpp **** 	status = bufInitialise(&data, 1024, 0x00, NULL);
 3134              		.loc 4 127 24
 3135 14c8 488D45A0 		leaq	-96(%rbp), %rax
 3136 14cc B9000000 		movl	$0, %ecx
 3136      00
 3137 14d1 BA000000 		movl	$0, %edx
 3137      00
 3138 14d6 BE000400 		movl	$1024, %esi
 3138      00
 3139 14db 4889C7   		movq	%rax, %rdi
 3140              	.LEHB116:
 3141 14de E8000000 		call	bufInitialise@PLT
 3141      00
 3142              	.LEHE116:
 3143              		.loc 4 127 9
 3144 14e3 89458C   		movl	%eax, -116(%rbp)
 3145              	.LEHB117:
 128:testHexIO.cpp **** 	CHECK_EQUAL(BUF_SUCCESS, status);
 3146              		.loc 4 128 2
 3147 14e6 E8000000 		call	_ZN8UnitTest11CurrentTest7DetailsEv@PLT
 3147      00
 3148 14eb 488B08   		movq	(%rax), %rcx
 3149 14ee 488D45C0 		leaq	-64(%rbp), %rax
 3150 14f2 BA800000 		movl	$128, %edx
 3150      00
 3151 14f7 4889CE   		movq	%rcx, %rsi
 3152 14fa 4889C7   		movq	%rax, %rdi
 3153 14fd E8000000 		call	_ZN8UnitTest11TestDetailsC1ERKS0_i@PLT
 3153      00
 3154              		.loc 4 128 2 is_stmt 0 discriminator 4
 3155 1502 C7459400 		movl	$0, -108(%rbp)
 3155      000000
 3156 1509 E8000000 		call	_ZN8UnitTest11CurrentTest7ResultsEv@PLT
 3156      00
 3157 150e 488B00   		movq	(%rax), %rax
 3158 1511 488D4DC0 		leaq	-64(%rbp), %rcx
 3159 1515 488D558C 		leaq	-116(%rbp), %rdx
 3160 1519 488D7594 		leaq	-108(%rbp), %rsi
 3161 151d 4889C7   		movq	%rax, %rdi
 3162 1520 E8000000 		call	_ZN8UnitTest10CheckEqualI12BufferStatusS1_EEvRNS_11TestResultsERKT_RKT0_RKNS_11TestDetailsE
 3162      00
 3163              	.LEHE117:
 3164              	.L153:
 129:testHexIO.cpp **** 	status = bufProcessLine(line, 0, &data, NULL, &seg, &recordType, NULL);
 3165              		.loc 4 129 25 is_stmt 1
 3166 1525 488D758B 		leaq	-117(%rbp), %rsi
 3167 1529 488D4D90 		leaq	-112(%rbp), %rcx
 3168 152d 488D55A0 		leaq	-96(%rbp), %rdx
 3169 1531 488B4598 		movq	-104(%rbp), %rax
 3170 1535 4883EC08 		subq	$8, %rsp
 3171 1539 6A00     		pushq	$0
 3172 153b 4989F1   		movq	%rsi, %r9
 3173 153e 4989C8   		movq	%rcx, %r8
 3174 1541 B9000000 		movl	$0, %ecx
 3174      00
 3175 1546 BE000000 		movl	$0, %esi
 3175      00
 3176 154b 4889C7   		movq	%rax, %rdi
 3177              	.LEHB118:
 3178 154e E8000000 		call	bufProcessLine@PLT
 3178      00
 3179              	.LEHE118:
 3180 1553 4883C410 		addq	$16, %rsp
 3181              		.loc 4 129 9
 3182 1557 89458C   		movl	%eax, -116(%rbp)
 3183              	.LEHB119:
 130:testHexIO.cpp **** 	CHECK_EQUAL(HEX_JUNK_REC_TYPE, status);
 3184              		.loc 4 130 2
 3185 155a E8000000 		call	_ZN8UnitTest11CurrentTest7DetailsEv@PLT
 3185      00
 3186 155f 488B08   		movq	(%rax), %rcx
 3187 1562 488D45C0 		leaq	-64(%rbp), %rax
 3188 1566 BA820000 		movl	$130, %edx
 3188      00
 3189 156b 4889CE   		movq	%rcx, %rsi
 3190 156e 4889C7   		movq	%rax, %rdi
 3191 1571 E8000000 		call	_ZN8UnitTest11TestDetailsC1ERKS0_i@PLT
 3191      00
 3192              		.loc 4 130 2 is_stmt 0 discriminator 4
 3193 1576 C745940B 		movl	$11, -108(%rbp)
 3193      000000
 3194 157d E8000000 		call	_ZN8UnitTest11CurrentTest7ResultsEv@PLT
 3194      00
 3195 1582 488B00   		movq	(%rax), %rax
 3196 1585 488D4DC0 		leaq	-64(%rbp), %rcx
 3197 1589 488D558C 		leaq	-116(%rbp), %rdx
 3198 158d 488D7594 		leaq	-108(%rbp), %rsi
 3199 1591 4889C7   		movq	%rax, %rdi
 3200 1594 E8000000 		call	_ZN8UnitTest10CheckEqualI12BufferStatusS1_EEvRNS_11TestResultsERKT_RKT0_RKNS_11TestDetailsE
 3200      00
 3201              	.LEHE119:
 3202              	.L156:
 131:testHexIO.cpp **** 	bufDestroy(&data);
 3203              		.loc 4 131 12 is_stmt 1
 3204 1599 488D45A0 		leaq	-96(%rbp), %rax
 3205 159d 4889C7   		movq	%rax, %rdi
 3206              	.LEHB120:
 3207 15a0 E8000000 		call	bufDestroy@PLT
 3207      00
 3208              	.LEHE120:
 132:testHexIO.cpp **** }
 3209              		.loc 4 132 1
 3210 15a5 90       		nop
 3211 15a6 488B45E8 		movq	-24(%rbp), %rax
 3212 15aa 64482B04 		subq	%fs:40, %rax
 3212      25280000 
 3212      00
 3213 15b3 0F84D800 		je	.L158
 3213      0000
 3214 15b9 E9CE0000 		jmp	.L163
 3214      00
 3215              	.L159:
 3216 15be F30F1EFA 		endbr64
 128:testHexIO.cpp **** 	status = bufProcessLine(line, 0, &data, NULL, &seg, &recordType, NULL);
 3217              		.loc 4 128 2
 3218 15c2 4889C7   		movq	%rax, %rdi
 3219 15c5 E8000000 		call	__cxa_begin_catch@PLT
 3219      00
 3220              	.LEHB121:
 3221 15ca E8000000 		call	_ZN8UnitTest11CurrentTest7ResultsEv@PLT
 3221      00
 128:testHexIO.cpp **** 	status = bufProcessLine(line, 0, &data, NULL, &seg, &recordType, NULL);
 3222              		.loc 4 128 2 is_stmt 0 discriminator 3
 3223 15cf 488B18   		movq	(%rax), %rbx
 3224 15d2 E8000000 		call	_ZN8UnitTest11CurrentTest7DetailsEv@PLT
 3224      00
 128:testHexIO.cpp **** 	status = bufProcessLine(line, 0, &data, NULL, &seg, &recordType, NULL);
 3225              		.loc 4 128 2 discriminator 11
 3226 15d7 488B08   		movq	(%rax), %rcx
 3227 15da 488D45C0 		leaq	-64(%rbp), %rax
 3228 15de BA800000 		movl	$128, %edx
 3228      00
 3229 15e3 4889CE   		movq	%rcx, %rsi
 3230 15e6 4889C7   		movq	%rax, %rdi
 3231 15e9 E8000000 		call	_ZN8UnitTest11TestDetailsC1ERKS0_i@PLT
 3231      00
 128:testHexIO.cpp **** 	status = bufProcessLine(line, 0, &data, NULL, &seg, &recordType, NULL);
 3232              		.loc 4 128 2 discriminator 15
 3233 15ee 488D45C0 		leaq	-64(%rbp), %rax
 3234 15f2 488D1500 		leaq	.LC4(%rip), %rdx
 3234      000000
 3235 15f9 4889C6   		movq	%rax, %rsi
 3236 15fc 4889DF   		movq	%rbx, %rdi
 3237 15ff E8000000 		call	_ZN8UnitTest11TestResults13OnTestFailureERKNS_11TestDetailsEPKc@PLT
 3237      00
 3238              	.LEHE121:
 3239              	.LEHB122:
 128:testHexIO.cpp **** 	status = bufProcessLine(line, 0, &data, NULL, &seg, &recordType, NULL);
 3240              		.loc 4 128 2 discriminator 17
 3241 1604 E8000000 		call	__cxa_end_catch@PLT
 3241      00
 3242              	.LEHE122:
 3243 1609 E917FFFF 		jmp	.L153
 3243      FF
 3244              	.L160:
 3245 160e F30F1EFA 		endbr64
 128:testHexIO.cpp **** 	status = bufProcessLine(line, 0, &data, NULL, &seg, &recordType, NULL);
 3246              		.loc 4 128 2
 3247 1612 4889C3   		movq	%rax, %rbx
 3248 1615 E8000000 		call	__cxa_end_catch@PLT
 3248      00
 3249 161a 4889D8   		movq	%rbx, %rax
 3250 161d 4889C7   		movq	%rax, %rdi
 3251              	.LEHB123:
 3252 1620 E8000000 		call	_Unwind_Resume@PLT
 3252      00
 3253              	.LEHE123:
 3254              	.L161:
 3255 1625 F30F1EFA 		endbr64
 130:testHexIO.cpp **** 	bufDestroy(&data);
 3256              		.loc 4 130 2 is_stmt 1
 3257 1629 4889C7   		movq	%rax, %rdi
 3258 162c E8000000 		call	__cxa_begin_catch@PLT
 3258      00
 3259              	.LEHB124:
 3260 1631 E8000000 		call	_ZN8UnitTest11CurrentTest7ResultsEv@PLT
 3260      00
 130:testHexIO.cpp **** 	bufDestroy(&data);
 3261              		.loc 4 130 2 is_stmt 0 discriminator 3
 3262 1636 488B18   		movq	(%rax), %rbx
 3263 1639 E8000000 		call	_ZN8UnitTest11CurrentTest7DetailsEv@PLT
 3263      00
 130:testHexIO.cpp **** 	bufDestroy(&data);
 3264              		.loc 4 130 2 discriminator 11
 3265 163e 488B08   		movq	(%rax), %rcx
 3266 1641 488D45C0 		leaq	-64(%rbp), %rax
 3267 1645 BA820000 		movl	$130, %edx
 3267      00
 3268 164a 4889CE   		movq	%rcx, %rsi
 3269 164d 4889C7   		movq	%rax, %rdi
 3270 1650 E8000000 		call	_ZN8UnitTest11TestDetailsC1ERKS0_i@PLT
 3270      00
 130:testHexIO.cpp **** 	bufDestroy(&data);
 3271              		.loc 4 130 2 discriminator 15
 3272 1655 488D45C0 		leaq	-64(%rbp), %rax
 3273 1659 488D1500 		leaq	.LC30(%rip), %rdx
 3273      000000
 3274 1660 4889C6   		movq	%rax, %rsi
 3275 1663 4889DF   		movq	%rbx, %rdi
 3276 1666 E8000000 		call	_ZN8UnitTest11TestResults13OnTestFailureERKNS_11TestDetailsEPKc@PLT
 3276      00
 3277              	.LEHE124:
 3278              	.LEHB125:
 130:testHexIO.cpp **** 	bufDestroy(&data);
 3279              		.loc 4 130 2 discriminator 17
 3280 166b E8000000 		call	__cxa_end_catch@PLT
 3280      00
 3281              	.LEHE125:
 3282 1670 E924FFFF 		jmp	.L156
 3282      FF
 3283              	.L162:
 3284 1675 F30F1EFA 		endbr64
 130:testHexIO.cpp **** 	bufDestroy(&data);
 3285              		.loc 4 130 2
 3286 1679 4889C3   		movq	%rax, %rbx
 3287 167c E8000000 		call	__cxa_end_catch@PLT
 3287      00
 3288 1681 4889D8   		movq	%rbx, %rax
 3289 1684 4889C7   		movq	%rax, %rdi
 3290              	.LEHB126:
 3291 1687 E8000000 		call	_Unwind_Resume@PLT
 3291      00
 3292              	.LEHE126:
 3293              	.L163:
 3294              		.loc 4 132 1 is_stmt 1
 3295 168c E8000000 		call	__stack_chk_fail@PLT
 3295      00
 3296              	.L158:
 3297 1691 488B5DF8 		movq	-8(%rbp), %rbx
 3298 1695 C9       		leave
 3299              		.cfi_def_cfa 7, 8
 3300 1696 C3       		ret
 3301              		.cfi_endproc
 3302              	.LFE1243:
 3303              		.section	.gcc_except_table
 3304              		.align 4
 3305              	.LLSDA1243:
 3306 029c FF       		.byte	0xff
 3307 029d 9B       		.byte	0x9b
 3308 029e 41       		.uleb128 .LLSDATT1243-.LLSDATTD1243
 3309              	.LLSDATTD1243:
 3310 029f 01       		.byte	0x1
 3311 02a0 39       		.uleb128 .LLSDACSE1243-.LLSDACSB1243
 3312              	.LLSDACSB1243:
 3313 02a1 4E       		.uleb128 .LEHB116-.LFB1243
 3314 02a2 05       		.uleb128 .LEHE116-.LEHB116
 3315 02a3 00       		.uleb128 0
 3316 02a4 00       		.uleb128 0
 3317 02a5 56       		.uleb128 .LEHB117-.LFB1243
 3318 02a6 3F       		.uleb128 .LEHE117-.LEHB117
 3319 02a7 AE02     		.uleb128 .L159-.LFB1243
 3320 02a9 01       		.uleb128 0x1
 3321 02aa BE01     		.uleb128 .LEHB118-.LFB1243
 3322 02ac 05       		.uleb128 .LEHE118-.LEHB118
 3323 02ad 00       		.uleb128 0
 3324 02ae 00       		.uleb128 0
 3325 02af CA01     		.uleb128 .LEHB119-.LFB1243
 3326 02b1 3F       		.uleb128 .LEHE119-.LEHB119
 3327 02b2 9503     		.uleb128 .L161-.LFB1243
 3328 02b4 01       		.uleb128 0x1
 3329 02b5 9002     		.uleb128 .LEHB120-.LFB1243
 3330 02b7 05       		.uleb128 .LEHE120-.LEHB120
 3331 02b8 00       		.uleb128 0
 3332 02b9 00       		.uleb128 0
 3333 02ba BA02     		.uleb128 .LEHB121-.LFB1243
 3334 02bc 3A       		.uleb128 .LEHE121-.LEHB121
 3335 02bd FE02     		.uleb128 .L160-.LFB1243
 3336 02bf 00       		.uleb128 0
 3337 02c0 F402     		.uleb128 .LEHB122-.LFB1243
 3338 02c2 05       		.uleb128 .LEHE122-.LEHB122
 3339 02c3 00       		.uleb128 0
 3340 02c4 00       		.uleb128 0
 3341 02c5 9003     		.uleb128 .LEHB123-.LFB1243
 3342 02c7 05       		.uleb128 .LEHE123-.LEHB123
 3343 02c8 00       		.uleb128 0
 3344 02c9 00       		.uleb128 0
 3345 02ca A103     		.uleb128 .LEHB124-.LFB1243
 3346 02cc 3A       		.uleb128 .LEHE124-.LEHB124
 3347 02cd E503     		.uleb128 .L162-.LFB1243
 3348 02cf 00       		.uleb128 0
 3349 02d0 DB03     		.uleb128 .LEHB125-.LFB1243
 3350 02d2 05       		.uleb128 .LEHE125-.LEHB125
 3351 02d3 00       		.uleb128 0
 3352 02d4 00       		.uleb128 0
 3353 02d5 F703     		.uleb128 .LEHB126-.LFB1243
 3354 02d7 05       		.uleb128 .LEHE126-.LEHB126
 3355 02d8 00       		.uleb128 0
 3356 02d9 00       		.uleb128 0
 3357              	.LLSDACSE1243:
 3358 02da 01       		.byte	0x1
 3359 02db 00       		.byte	0
 3360              		.align 4
 3361 02dc 00000000 		.long	0
 3362              	
 3363              	.LLSDATT1243:
 3364              		.text
 3366              		.section	.rodata
 3367              	.LC31:
 3368 04f6 48657849 		.string	"HexIO_testJunkDataByte"
 3368      4F5F7465 
 3368      73744A75 
 3368      6E6B4461 
 3368      74614279 
 3369              		.section	.text._ZN26TestHexIO_testJunkDataByteC2Ev,"axG",@progbits,_ZN26TestHexIO_testJunkDataByte
 3370              		.align 2
 3371              		.weak	_ZN26TestHexIO_testJunkDataByteC2Ev
 3373              	_ZN26TestHexIO_testJunkDataByteC2Ev:
 3374              	.LFB1245:
 133:testHexIO.cpp **** 
 134:testHexIO.cpp **** TEST(HexIO_testJunkDataByte) {
 3375              		.loc 4 134 1
 3376              		.cfi_startproc
 3377 0000 F30F1EFA 		endbr64
 3378 0004 55       		pushq	%rbp
 3379              		.cfi_def_cfa_offset 16
 3380              		.cfi_offset 6, -16
 3381 0005 4889E5   		movq	%rsp, %rbp
 3382              		.cfi_def_cfa_register 6
 3383 0008 53       		pushq	%rbx
 3384 0009 4883EC18 		subq	$24, %rsp
 3385              		.cfi_offset 3, -24
 3386 000d 48897DE8 		movq	%rdi, -24(%rbp)
 3387              	.LBB14:
 3388              		.loc 4 134 1
 3389 0011 488B5DE8 		movq	-24(%rbp), %rbx
 3390 0015 E8000000 		call	_ZN13UnitTestSuite12GetSuiteNameEv
 3390      00
 3391 001a 4889C2   		movq	%rax, %rdx
 3392 001d 41B88600 		movl	$134, %r8d
 3392      0000
 3393 0023 488D0500 		leaq	.LC1(%rip), %rax
 3393      000000
 3394 002a 4889C1   		movq	%rax, %rcx
 3395 002d 488D0500 		leaq	.LC31(%rip), %rax
 3395      000000
 3396 0034 4889C6   		movq	%rax, %rsi
 3397 0037 4889DF   		movq	%rbx, %rdi
 3398 003a E8000000 		call	_ZN8UnitTest4TestC2EPKcS2_S2_i@PLT
 3398      00
 3399 003f 488D1500 		leaq	16+_ZTV26TestHexIO_testJunkDataByte(%rip), %rdx
 3399      000000
 3400 0046 488B45E8 		movq	-24(%rbp), %rax
 3401 004a 488910   		movq	%rdx, (%rax)
 3402              	.LBE14:
 3403 004d 90       		nop
 3404 004e 488B5DF8 		movq	-8(%rbp), %rbx
 3405 0052 C9       		leave
 3406              		.cfi_def_cfa 7, 8
 3407 0053 C3       		ret
 3408              		.cfi_endproc
 3409              	.LFE1245:
 3411              		.weak	_ZN26TestHexIO_testJunkDataByteC1Ev
 3412              		.set	_ZN26TestHexIO_testJunkDataByteC1Ev,_ZN26TestHexIO_testJunkDataByteC2Ev
 3413              		.globl	testHexIO_testJunkDataByteInstance
 3414              		.bss
 3415 01b9 00000000 		.align 32
 3415      000000
 3418              	testHexIO_testJunkDataByteInstance:
 3419 01c0 00000000 		.zero	56
 3419      00000000 
 3419      00000000 
 3419      00000000 
 3419      00000000 
 3420              		.globl	adderHexIO_testJunkDataByte
 3423              	adderHexIO_testJunkDataByte:
 3424 01f8 00       		.zero	1
 3425              		.section	.rodata
 3426              	.LC32:
 3427 050d 3A303430 		.string	":040BE100..820022F7\n"
 3427      42453130 
 3427      302E2E38 
 3427      32303032 
 3427      3246370A 
 3428 0522 00000000 		.align 8
 3428      0000
 3429              	.LC33:
 3430 0528 556E6861 		.string	"Unhandled exception in CHECK_EQUAL(HEX_JUNK_DATA_BYTE, status)"
 3430      6E646C65 
 3430      64206578 
 3430      63657074 
 3430      696F6E20 
 3431              		.text
 3432 1697 90       		.align 2
 3433              		.globl	_ZNK26TestHexIO_testJunkDataByte7RunImplEv
 3435              	_ZNK26TestHexIO_testJunkDataByte7RunImplEv:
 3436              	.LFB1247:
 3437              		.loc 4 134 30
 3438              		.cfi_startproc
 3439              		.cfi_personality 0x9b,DW.ref.__gxx_personality_v0
 3440              		.cfi_lsda 0x1b,.LLSDA1247
 3441 1698 F30F1EFA 		endbr64
 3442 169c 55       		pushq	%rbp
 3443              		.cfi_def_cfa_offset 16
 3444              		.cfi_offset 6, -16
 3445 169d 4889E5   		movq	%rsp, %rbp
 3446              		.cfi_def_cfa_register 6
 3447 16a0 53       		pushq	%rbx
 3448 16a1 4881EC88 		subq	$136, %rsp
 3448      000000
 3449              		.cfi_offset 3, -24
 3450 16a8 4889BD78 		movq	%rdi, -136(%rbp)
 3450      FFFFFF
 3451              		.loc 4 134 30
 3452 16af 64488B04 		movq	%fs:40, %rax
 3452      25280000 
 3452      00
 3453 16b8 488945E8 		movq	%rax, -24(%rbp)
 3454 16bc 31C0     		xorl	%eax, %eax
 135:testHexIO.cpp **** 	Buffer data;
 136:testHexIO.cpp **** 	BufferStatus status;
 137:testHexIO.cpp **** 	const char *line = ":040BE100..820022F7\n";
 3455              		.loc 4 137 14
 3456 16be 488D0500 		leaq	.LC32(%rip), %rax
 3456      000000
 3457 16c5 48894598 		movq	%rax, -104(%rbp)
 138:testHexIO.cpp **** 	uint8 recordType;
 139:testHexIO.cpp **** 	uint32 seg = 0x00000000;
 3458              		.loc 4 139 9
 3459 16c9 C7459000 		movl	$0, -112(%rbp)
 3459      000000
 140:testHexIO.cpp **** 	status = bufInitialise(&data, 1024, 0x00, NULL);
 3460              		.loc 4 140 24
 3461 16d0 488D45A0 		leaq	-96(%rbp), %rax
 3462 16d4 B9000000 		movl	$0, %ecx
 3462      00
 3463 16d9 BA000000 		movl	$0, %edx
 3463      00
 3464 16de BE000400 		movl	$1024, %esi
 3464      00
 3465 16e3 4889C7   		movq	%rax, %rdi
 3466              	.LEHB127:
 3467 16e6 E8000000 		call	bufInitialise@PLT
 3467      00
 3468              	.LEHE127:
 3469              		.loc 4 140 9
 3470 16eb 89458C   		movl	%eax, -116(%rbp)
 3471              	.LEHB128:
 141:testHexIO.cpp **** 	CHECK_EQUAL(BUF_SUCCESS, status);
 3472              		.loc 4 141 2
 3473 16ee E8000000 		call	_ZN8UnitTest11CurrentTest7DetailsEv@PLT
 3473      00
 3474 16f3 488B08   		movq	(%rax), %rcx
 3475 16f6 488D45C0 		leaq	-64(%rbp), %rax
 3476 16fa BA8D0000 		movl	$141, %edx
 3476      00
 3477 16ff 4889CE   		movq	%rcx, %rsi
 3478 1702 4889C7   		movq	%rax, %rdi
 3479 1705 E8000000 		call	_ZN8UnitTest11TestDetailsC1ERKS0_i@PLT
 3479      00
 3480              		.loc 4 141 2 is_stmt 0 discriminator 4
 3481 170a C7459400 		movl	$0, -108(%rbp)
 3481      000000
 3482 1711 E8000000 		call	_ZN8UnitTest11CurrentTest7ResultsEv@PLT
 3482      00
 3483 1716 488B00   		movq	(%rax), %rax
 3484 1719 488D4DC0 		leaq	-64(%rbp), %rcx
 3485 171d 488D558C 		leaq	-116(%rbp), %rdx
 3486 1721 488D7594 		leaq	-108(%rbp), %rsi
 3487 1725 4889C7   		movq	%rax, %rdi
 3488 1728 E8000000 		call	_ZN8UnitTest10CheckEqualI12BufferStatusS1_EEvRNS_11TestResultsERKT_RKT0_RKNS_11TestDetailsE
 3488      00
 3489              	.LEHE128:
 3490              	.L167:
 142:testHexIO.cpp **** 	status = bufProcessLine(line, 0, &data, NULL, &seg, &recordType, NULL);
 3491              		.loc 4 142 25 is_stmt 1
 3492 172d 488D758B 		leaq	-117(%rbp), %rsi
 3493 1731 488D4D90 		leaq	-112(%rbp), %rcx
 3494 1735 488D55A0 		leaq	-96(%rbp), %rdx
 3495 1739 488B4598 		movq	-104(%rbp), %rax
 3496 173d 4883EC08 		subq	$8, %rsp
 3497 1741 6A00     		pushq	$0
 3498 1743 4989F1   		movq	%rsi, %r9
 3499 1746 4989C8   		movq	%rcx, %r8
 3500 1749 B9000000 		movl	$0, %ecx
 3500      00
 3501 174e BE000000 		movl	$0, %esi
 3501      00
 3502 1753 4889C7   		movq	%rax, %rdi
 3503              	.LEHB129:
 3504 1756 E8000000 		call	bufProcessLine@PLT
 3504      00
 3505              	.LEHE129:
 3506 175b 4883C410 		addq	$16, %rsp
 3507              		.loc 4 142 9
 3508 175f 89458C   		movl	%eax, -116(%rbp)
 3509              	.LEHB130:
 143:testHexIO.cpp **** 	CHECK_EQUAL(HEX_JUNK_DATA_BYTE, status);
 3510              		.loc 4 143 2
 3511 1762 E8000000 		call	_ZN8UnitTest11CurrentTest7DetailsEv@PLT
 3511      00
 3512 1767 488B08   		movq	(%rax), %rcx
 3513 176a 488D45C0 		leaq	-64(%rbp), %rax
 3514 176e BA8F0000 		movl	$143, %edx
 3514      00
 3515 1773 4889CE   		movq	%rcx, %rsi
 3516 1776 4889C7   		movq	%rax, %rdi
 3517 1779 E8000000 		call	_ZN8UnitTest11TestDetailsC1ERKS0_i@PLT
 3517      00
 3518              		.loc 4 143 2 is_stmt 0 discriminator 4
 3519 177e C745940D 		movl	$13, -108(%rbp)
 3519      000000
 3520 1785 E8000000 		call	_ZN8UnitTest11CurrentTest7ResultsEv@PLT
 3520      00
 3521 178a 488B00   		movq	(%rax), %rax
 3522 178d 488D4DC0 		leaq	-64(%rbp), %rcx
 3523 1791 488D558C 		leaq	-116(%rbp), %rdx
 3524 1795 488D7594 		leaq	-108(%rbp), %rsi
 3525 1799 4889C7   		movq	%rax, %rdi
 3526 179c E8000000 		call	_ZN8UnitTest10CheckEqualI12BufferStatusS1_EEvRNS_11TestResultsERKT_RKT0_RKNS_11TestDetailsE
 3526      00
 3527              	.LEHE130:
 3528              	.L170:
 144:testHexIO.cpp **** 	bufDestroy(&data);
 3529              		.loc 4 144 12 is_stmt 1
 3530 17a1 488D45A0 		leaq	-96(%rbp), %rax
 3531 17a5 4889C7   		movq	%rax, %rdi
 3532              	.LEHB131:
 3533 17a8 E8000000 		call	bufDestroy@PLT
 3533      00
 3534              	.LEHE131:
 145:testHexIO.cpp **** }
 3535              		.loc 4 145 1
 3536 17ad 90       		nop
 3537 17ae 488B45E8 		movq	-24(%rbp), %rax
 3538 17b2 64482B04 		subq	%fs:40, %rax
 3538      25280000 
 3538      00
 3539 17bb 0F84D800 		je	.L172
 3539      0000
 3540 17c1 E9CE0000 		jmp	.L177
 3540      00
 3541              	.L173:
 3542 17c6 F30F1EFA 		endbr64
 141:testHexIO.cpp **** 	status = bufProcessLine(line, 0, &data, NULL, &seg, &recordType, NULL);
 3543              		.loc 4 141 2
 3544 17ca 4889C7   		movq	%rax, %rdi
 3545 17cd E8000000 		call	__cxa_begin_catch@PLT
 3545      00
 3546              	.LEHB132:
 3547 17d2 E8000000 		call	_ZN8UnitTest11CurrentTest7ResultsEv@PLT
 3547      00
 141:testHexIO.cpp **** 	status = bufProcessLine(line, 0, &data, NULL, &seg, &recordType, NULL);
 3548              		.loc 4 141 2 is_stmt 0 discriminator 3
 3549 17d7 488B18   		movq	(%rax), %rbx
 3550 17da E8000000 		call	_ZN8UnitTest11CurrentTest7DetailsEv@PLT
 3550      00
 141:testHexIO.cpp **** 	status = bufProcessLine(line, 0, &data, NULL, &seg, &recordType, NULL);
 3551              		.loc 4 141 2 discriminator 11
 3552 17df 488B08   		movq	(%rax), %rcx
 3553 17e2 488D45C0 		leaq	-64(%rbp), %rax
 3554 17e6 BA8D0000 		movl	$141, %edx
 3554      00
 3555 17eb 4889CE   		movq	%rcx, %rsi
 3556 17ee 4889C7   		movq	%rax, %rdi
 3557 17f1 E8000000 		call	_ZN8UnitTest11TestDetailsC1ERKS0_i@PLT
 3557      00
 141:testHexIO.cpp **** 	status = bufProcessLine(line, 0, &data, NULL, &seg, &recordType, NULL);
 3558              		.loc 4 141 2 discriminator 15
 3559 17f6 488D45C0 		leaq	-64(%rbp), %rax
 3560 17fa 488D1500 		leaq	.LC4(%rip), %rdx
 3560      000000
 3561 1801 4889C6   		movq	%rax, %rsi
 3562 1804 4889DF   		movq	%rbx, %rdi
 3563 1807 E8000000 		call	_ZN8UnitTest11TestResults13OnTestFailureERKNS_11TestDetailsEPKc@PLT
 3563      00
 3564              	.LEHE132:
 3565              	.LEHB133:
 141:testHexIO.cpp **** 	status = bufProcessLine(line, 0, &data, NULL, &seg, &recordType, NULL);
 3566              		.loc 4 141 2 discriminator 17
 3567 180c E8000000 		call	__cxa_end_catch@PLT
 3567      00
 3568              	.LEHE133:
 3569 1811 E917FFFF 		jmp	.L167
 3569      FF
 3570              	.L174:
 3571 1816 F30F1EFA 		endbr64
 141:testHexIO.cpp **** 	status = bufProcessLine(line, 0, &data, NULL, &seg, &recordType, NULL);
 3572              		.loc 4 141 2
 3573 181a 4889C3   		movq	%rax, %rbx
 3574 181d E8000000 		call	__cxa_end_catch@PLT
 3574      00
 3575 1822 4889D8   		movq	%rbx, %rax
 3576 1825 4889C7   		movq	%rax, %rdi
 3577              	.LEHB134:
 3578 1828 E8000000 		call	_Unwind_Resume@PLT
 3578      00
 3579              	.LEHE134:
 3580              	.L175:
 3581 182d F30F1EFA 		endbr64
 143:testHexIO.cpp **** 	bufDestroy(&data);
 3582              		.loc 4 143 2 is_stmt 1
 3583 1831 4889C7   		movq	%rax, %rdi
 3584 1834 E8000000 		call	__cxa_begin_catch@PLT
 3584      00
 3585              	.LEHB135:
 3586 1839 E8000000 		call	_ZN8UnitTest11CurrentTest7ResultsEv@PLT
 3586      00
 143:testHexIO.cpp **** 	bufDestroy(&data);
 3587              		.loc 4 143 2 is_stmt 0 discriminator 3
 3588 183e 488B18   		movq	(%rax), %rbx
 3589 1841 E8000000 		call	_ZN8UnitTest11CurrentTest7DetailsEv@PLT
 3589      00
 143:testHexIO.cpp **** 	bufDestroy(&data);
 3590              		.loc 4 143 2 discriminator 11
 3591 1846 488B08   		movq	(%rax), %rcx
 3592 1849 488D45C0 		leaq	-64(%rbp), %rax
 3593 184d BA8F0000 		movl	$143, %edx
 3593      00
 3594 1852 4889CE   		movq	%rcx, %rsi
 3595 1855 4889C7   		movq	%rax, %rdi
 3596 1858 E8000000 		call	_ZN8UnitTest11TestDetailsC1ERKS0_i@PLT
 3596      00
 143:testHexIO.cpp **** 	bufDestroy(&data);
 3597              		.loc 4 143 2 discriminator 15
 3598 185d 488D45C0 		leaq	-64(%rbp), %rax
 3599 1861 488D1500 		leaq	.LC33(%rip), %rdx
 3599      000000
 3600 1868 4889C6   		movq	%rax, %rsi
 3601 186b 4889DF   		movq	%rbx, %rdi
 3602 186e E8000000 		call	_ZN8UnitTest11TestResults13OnTestFailureERKNS_11TestDetailsEPKc@PLT
 3602      00
 3603              	.LEHE135:
 3604              	.LEHB136:
 143:testHexIO.cpp **** 	bufDestroy(&data);
 3605              		.loc 4 143 2 discriminator 17
 3606 1873 E8000000 		call	__cxa_end_catch@PLT
 3606      00
 3607              	.LEHE136:
 3608 1878 E924FFFF 		jmp	.L170
 3608      FF
 3609              	.L176:
 3610 187d F30F1EFA 		endbr64
 143:testHexIO.cpp **** 	bufDestroy(&data);
 3611              		.loc 4 143 2
 3612 1881 4889C3   		movq	%rax, %rbx
 3613 1884 E8000000 		call	__cxa_end_catch@PLT
 3613      00
 3614 1889 4889D8   		movq	%rbx, %rax
 3615 188c 4889C7   		movq	%rax, %rdi
 3616              	.LEHB137:
 3617 188f E8000000 		call	_Unwind_Resume@PLT
 3617      00
 3618              	.LEHE137:
 3619              	.L177:
 3620              		.loc 4 145 1 is_stmt 1
 3621 1894 E8000000 		call	__stack_chk_fail@PLT
 3621      00
 3622              	.L172:
 3623 1899 488B5DF8 		movq	-8(%rbp), %rbx
 3624 189d C9       		leave
 3625              		.cfi_def_cfa 7, 8
 3626 189e C3       		ret
 3627              		.cfi_endproc
 3628              	.LFE1247:
 3629              		.section	.gcc_except_table
 3630              		.align 4
 3631              	.LLSDA1247:
 3632 02e0 FF       		.byte	0xff
 3633 02e1 9B       		.byte	0x9b
 3634 02e2 41       		.uleb128 .LLSDATT1247-.LLSDATTD1247
 3635              	.LLSDATTD1247:
 3636 02e3 01       		.byte	0x1
 3637 02e4 39       		.uleb128 .LLSDACSE1247-.LLSDACSB1247
 3638              	.LLSDACSB1247:
 3639 02e5 4E       		.uleb128 .LEHB127-.LFB1247
 3640 02e6 05       		.uleb128 .LEHE127-.LEHB127
 3641 02e7 00       		.uleb128 0
 3642 02e8 00       		.uleb128 0
 3643 02e9 56       		.uleb128 .LEHB128-.LFB1247
 3644 02ea 3F       		.uleb128 .LEHE128-.LEHB128
 3645 02eb AE02     		.uleb128 .L173-.LFB1247
 3646 02ed 01       		.uleb128 0x1
 3647 02ee BE01     		.uleb128 .LEHB129-.LFB1247
 3648 02f0 05       		.uleb128 .LEHE129-.LEHB129
 3649 02f1 00       		.uleb128 0
 3650 02f2 00       		.uleb128 0
 3651 02f3 CA01     		.uleb128 .LEHB130-.LFB1247
 3652 02f5 3F       		.uleb128 .LEHE130-.LEHB130
 3653 02f6 9503     		.uleb128 .L175-.LFB1247
 3654 02f8 01       		.uleb128 0x1
 3655 02f9 9002     		.uleb128 .LEHB131-.LFB1247
 3656 02fb 05       		.uleb128 .LEHE131-.LEHB131
 3657 02fc 00       		.uleb128 0
 3658 02fd 00       		.uleb128 0
 3659 02fe BA02     		.uleb128 .LEHB132-.LFB1247
 3660 0300 3A       		.uleb128 .LEHE132-.LEHB132
 3661 0301 FE02     		.uleb128 .L174-.LFB1247
 3662 0303 00       		.uleb128 0
 3663 0304 F402     		.uleb128 .LEHB133-.LFB1247
 3664 0306 05       		.uleb128 .LEHE133-.LEHB133
 3665 0307 00       		.uleb128 0
 3666 0308 00       		.uleb128 0
 3667 0309 9003     		.uleb128 .LEHB134-.LFB1247
 3668 030b 05       		.uleb128 .LEHE134-.LEHB134
 3669 030c 00       		.uleb128 0
 3670 030d 00       		.uleb128 0
 3671 030e A103     		.uleb128 .LEHB135-.LFB1247
 3672 0310 3A       		.uleb128 .LEHE135-.LEHB135
 3673 0311 E503     		.uleb128 .L176-.LFB1247
 3674 0313 00       		.uleb128 0
 3675 0314 DB03     		.uleb128 .LEHB136-.LFB1247
 3676 0316 05       		.uleb128 .LEHE136-.LEHB136
 3677 0317 00       		.uleb128 0
 3678 0318 00       		.uleb128 0
 3679 0319 F703     		.uleb128 .LEHB137-.LFB1247
 3680 031b 05       		.uleb128 .LEHE137-.LEHB137
 3681 031c 00       		.uleb128 0
 3682 031d 00       		.uleb128 0
 3683              	.LLSDACSE1247:
 3684 031e 01       		.byte	0x1
 3685 031f 00       		.byte	0
 3686              		.align 4
 3687 0320 00000000 		.long	0
 3688              	
 3689              	.LLSDATT1247:
 3690              		.text
 3692              		.section	.rodata
 3693              	.LC34:
 3694 0567 48657849 		.string	"HexIO_testJunkChecksum"
 3694      4F5F7465 
 3694      73744A75 
 3694      6E6B4368 
 3694      65636B73 
 3695              		.section	.text._ZN26TestHexIO_testJunkChecksumC2Ev,"axG",@progbits,_ZN26TestHexIO_testJunkChecksum
 3696              		.align 2
 3697              		.weak	_ZN26TestHexIO_testJunkChecksumC2Ev
 3699              	_ZN26TestHexIO_testJunkChecksumC2Ev:
 3700              	.LFB1249:
 146:testHexIO.cpp **** 
 147:testHexIO.cpp **** TEST(HexIO_testJunkChecksum) {
 3701              		.loc 4 147 1
 3702              		.cfi_startproc
 3703 0000 F30F1EFA 		endbr64
 3704 0004 55       		pushq	%rbp
 3705              		.cfi_def_cfa_offset 16
 3706              		.cfi_offset 6, -16
 3707 0005 4889E5   		movq	%rsp, %rbp
 3708              		.cfi_def_cfa_register 6
 3709 0008 53       		pushq	%rbx
 3710 0009 4883EC18 		subq	$24, %rsp
 3711              		.cfi_offset 3, -24
 3712 000d 48897DE8 		movq	%rdi, -24(%rbp)
 3713              	.LBB15:
 3714              		.loc 4 147 1
 3715 0011 488B5DE8 		movq	-24(%rbp), %rbx
 3716 0015 E8000000 		call	_ZN13UnitTestSuite12GetSuiteNameEv
 3716      00
 3717 001a 4889C2   		movq	%rax, %rdx
 3718 001d 41B89300 		movl	$147, %r8d
 3718      0000
 3719 0023 488D0500 		leaq	.LC1(%rip), %rax
 3719      000000
 3720 002a 4889C1   		movq	%rax, %rcx
 3721 002d 488D0500 		leaq	.LC34(%rip), %rax
 3721      000000
 3722 0034 4889C6   		movq	%rax, %rsi
 3723 0037 4889DF   		movq	%rbx, %rdi
 3724 003a E8000000 		call	_ZN8UnitTest4TestC2EPKcS2_S2_i@PLT
 3724      00
 3725 003f 488D1500 		leaq	16+_ZTV26TestHexIO_testJunkChecksum(%rip), %rdx
 3725      000000
 3726 0046 488B45E8 		movq	-24(%rbp), %rax
 3727 004a 488910   		movq	%rdx, (%rax)
 3728              	.LBE15:
 3729 004d 90       		nop
 3730 004e 488B5DF8 		movq	-8(%rbp), %rbx
 3731 0052 C9       		leave
 3732              		.cfi_def_cfa 7, 8
 3733 0053 C3       		ret
 3734              		.cfi_endproc
 3735              	.LFE1249:
 3737              		.weak	_ZN26TestHexIO_testJunkChecksumC1Ev
 3738              		.set	_ZN26TestHexIO_testJunkChecksumC1Ev,_ZN26TestHexIO_testJunkChecksumC2Ev
 3739              		.globl	testHexIO_testJunkChecksumInstance
 3740              		.bss
 3741 01f9 00000000 		.align 32
 3741      000000
 3744              	testHexIO_testJunkChecksumInstance:
 3745 0200 00000000 		.zero	56
 3745      00000000 
 3745      00000000 
 3745      00000000 
 3745      00000000 
 3746              		.globl	adderHexIO_testJunkChecksum
 3749              	adderHexIO_testJunkChecksum:
 3750 0238 00       		.zero	1
 3751              		.section	.rodata
 3752              	.LC35:
 3753 057e 3A303430 		.string	":040BE10075820022..\n"
 3753      42453130 
 3753      30373538 
 3753      32303032 
 3753      322E2E0A 
 3754 0593 00000000 		.align 8
 3754      00
 3755              	.LC36:
 3756 0598 556E6861 		.string	"Unhandled exception in CHECK_EQUAL(HEX_JUNK_CHECKSUM, status)"
 3756      6E646C65 
 3756      64206578 
 3756      63657074 
 3756      696F6E20 
 3757              		.text
 3758 189f 90       		.align 2
 3759              		.globl	_ZNK26TestHexIO_testJunkChecksum7RunImplEv
 3761              	_ZNK26TestHexIO_testJunkChecksum7RunImplEv:
 3762              	.LFB1251:
 3763              		.loc 4 147 30
 3764              		.cfi_startproc
 3765              		.cfi_personality 0x9b,DW.ref.__gxx_personality_v0
 3766              		.cfi_lsda 0x1b,.LLSDA1251
 3767 18a0 F30F1EFA 		endbr64
 3768 18a4 55       		pushq	%rbp
 3769              		.cfi_def_cfa_offset 16
 3770              		.cfi_offset 6, -16
 3771 18a5 4889E5   		movq	%rsp, %rbp
 3772              		.cfi_def_cfa_register 6
 3773 18a8 53       		pushq	%rbx
 3774 18a9 4881EC88 		subq	$136, %rsp
 3774      000000
 3775              		.cfi_offset 3, -24
 3776 18b0 4889BD78 		movq	%rdi, -136(%rbp)
 3776      FFFFFF
 3777              		.loc 4 147 30
 3778 18b7 64488B04 		movq	%fs:40, %rax
 3778      25280000 
 3778      00
 3779 18c0 488945E8 		movq	%rax, -24(%rbp)
 3780 18c4 31C0     		xorl	%eax, %eax
 148:testHexIO.cpp **** 	Buffer data;
 149:testHexIO.cpp **** 	BufferStatus status;
 150:testHexIO.cpp **** 	const char *line = ":040BE10075820022..\n";
 3781              		.loc 4 150 14
 3782 18c6 488D0500 		leaq	.LC35(%rip), %rax
 3782      000000
 3783 18cd 48894598 		movq	%rax, -104(%rbp)
 151:testHexIO.cpp **** 	uint8 recordType;
 152:testHexIO.cpp **** 	uint32 seg = 0x00000000;
 3784              		.loc 4 152 9
 3785 18d1 C7459000 		movl	$0, -112(%rbp)
 3785      000000
 153:testHexIO.cpp **** 	status = bufInitialise(&data, 1024, 0x00, NULL);
 3786              		.loc 4 153 24
 3787 18d8 488D45A0 		leaq	-96(%rbp), %rax
 3788 18dc B9000000 		movl	$0, %ecx
 3788      00
 3789 18e1 BA000000 		movl	$0, %edx
 3789      00
 3790 18e6 BE000400 		movl	$1024, %esi
 3790      00
 3791 18eb 4889C7   		movq	%rax, %rdi
 3792              	.LEHB138:
 3793 18ee E8000000 		call	bufInitialise@PLT
 3793      00
 3794              	.LEHE138:
 3795              		.loc 4 153 9
 3796 18f3 89458C   		movl	%eax, -116(%rbp)
 3797              	.LEHB139:
 154:testHexIO.cpp **** 	CHECK_EQUAL(BUF_SUCCESS, status);
 3798              		.loc 4 154 2
 3799 18f6 E8000000 		call	_ZN8UnitTest11CurrentTest7DetailsEv@PLT
 3799      00
 3800 18fb 488B08   		movq	(%rax), %rcx
 3801 18fe 488D45C0 		leaq	-64(%rbp), %rax
 3802 1902 BA9A0000 		movl	$154, %edx
 3802      00
 3803 1907 4889CE   		movq	%rcx, %rsi
 3804 190a 4889C7   		movq	%rax, %rdi
 3805 190d E8000000 		call	_ZN8UnitTest11TestDetailsC1ERKS0_i@PLT
 3805      00
 3806              		.loc 4 154 2 is_stmt 0 discriminator 4
 3807 1912 C7459400 		movl	$0, -108(%rbp)
 3807      000000
 3808 1919 E8000000 		call	_ZN8UnitTest11CurrentTest7ResultsEv@PLT
 3808      00
 3809 191e 488B00   		movq	(%rax), %rax
 3810 1921 488D4DC0 		leaq	-64(%rbp), %rcx
 3811 1925 488D558C 		leaq	-116(%rbp), %rdx
 3812 1929 488D7594 		leaq	-108(%rbp), %rsi
 3813 192d 4889C7   		movq	%rax, %rdi
 3814 1930 E8000000 		call	_ZN8UnitTest10CheckEqualI12BufferStatusS1_EEvRNS_11TestResultsERKT_RKT0_RKNS_11TestDetailsE
 3814      00
 3815              	.LEHE139:
 3816              	.L181:
 155:testHexIO.cpp **** 	status = bufProcessLine(line, 0, &data, NULL, &seg, &recordType, NULL);
 3817              		.loc 4 155 25 is_stmt 1
 3818 1935 488D758B 		leaq	-117(%rbp), %rsi
 3819 1939 488D4D90 		leaq	-112(%rbp), %rcx
 3820 193d 488D55A0 		leaq	-96(%rbp), %rdx
 3821 1941 488B4598 		movq	-104(%rbp), %rax
 3822 1945 4883EC08 		subq	$8, %rsp
 3823 1949 6A00     		pushq	$0
 3824 194b 4989F1   		movq	%rsi, %r9
 3825 194e 4989C8   		movq	%rcx, %r8
 3826 1951 B9000000 		movl	$0, %ecx
 3826      00
 3827 1956 BE000000 		movl	$0, %esi
 3827      00
 3828 195b 4889C7   		movq	%rax, %rdi
 3829              	.LEHB140:
 3830 195e E8000000 		call	bufProcessLine@PLT
 3830      00
 3831              	.LEHE140:
 3832 1963 4883C410 		addq	$16, %rsp
 3833              		.loc 4 155 9
 3834 1967 89458C   		movl	%eax, -116(%rbp)
 3835              	.LEHB141:
 156:testHexIO.cpp **** 	CHECK_EQUAL(HEX_JUNK_CHECKSUM, status);
 3836              		.loc 4 156 2
 3837 196a E8000000 		call	_ZN8UnitTest11CurrentTest7DetailsEv@PLT
 3837      00
 3838 196f 488B08   		movq	(%rax), %rcx
 3839 1972 488D45C0 		leaq	-64(%rbp), %rax
 3840 1976 BA9C0000 		movl	$156, %edx
 3840      00
 3841 197b 4889CE   		movq	%rcx, %rsi
 3842 197e 4889C7   		movq	%rax, %rdi
 3843 1981 E8000000 		call	_ZN8UnitTest11TestDetailsC1ERKS0_i@PLT
 3843      00
 3844              		.loc 4 156 2 is_stmt 0 discriminator 4
 3845 1986 C745940E 		movl	$14, -108(%rbp)
 3845      000000
 3846 198d E8000000 		call	_ZN8UnitTest11CurrentTest7ResultsEv@PLT
 3846      00
 3847 1992 488B00   		movq	(%rax), %rax
 3848 1995 488D4DC0 		leaq	-64(%rbp), %rcx
 3849 1999 488D558C 		leaq	-116(%rbp), %rdx
 3850 199d 488D7594 		leaq	-108(%rbp), %rsi
 3851 19a1 4889C7   		movq	%rax, %rdi
 3852 19a4 E8000000 		call	_ZN8UnitTest10CheckEqualI12BufferStatusS1_EEvRNS_11TestResultsERKT_RKT0_RKNS_11TestDetailsE
 3852      00
 3853              	.LEHE141:
 3854              	.L184:
 157:testHexIO.cpp **** 	bufDestroy(&data);
 3855              		.loc 4 157 12 is_stmt 1
 3856 19a9 488D45A0 		leaq	-96(%rbp), %rax
 3857 19ad 4889C7   		movq	%rax, %rdi
 3858              	.LEHB142:
 3859 19b0 E8000000 		call	bufDestroy@PLT
 3859      00
 3860              	.LEHE142:
 158:testHexIO.cpp **** }
 3861              		.loc 4 158 1
 3862 19b5 90       		nop
 3863 19b6 488B45E8 		movq	-24(%rbp), %rax
 3864 19ba 64482B04 		subq	%fs:40, %rax
 3864      25280000 
 3864      00
 3865 19c3 0F84D800 		je	.L186
 3865      0000
 3866 19c9 E9CE0000 		jmp	.L191
 3866      00
 3867              	.L187:
 3868 19ce F30F1EFA 		endbr64
 154:testHexIO.cpp **** 	status = bufProcessLine(line, 0, &data, NULL, &seg, &recordType, NULL);
 3869              		.loc 4 154 2
 3870 19d2 4889C7   		movq	%rax, %rdi
 3871 19d5 E8000000 		call	__cxa_begin_catch@PLT
 3871      00
 3872              	.LEHB143:
 3873 19da E8000000 		call	_ZN8UnitTest11CurrentTest7ResultsEv@PLT
 3873      00
 154:testHexIO.cpp **** 	status = bufProcessLine(line, 0, &data, NULL, &seg, &recordType, NULL);
 3874              		.loc 4 154 2 is_stmt 0 discriminator 3
 3875 19df 488B18   		movq	(%rax), %rbx
 3876 19e2 E8000000 		call	_ZN8UnitTest11CurrentTest7DetailsEv@PLT
 3876      00
 154:testHexIO.cpp **** 	status = bufProcessLine(line, 0, &data, NULL, &seg, &recordType, NULL);
 3877              		.loc 4 154 2 discriminator 11
 3878 19e7 488B08   		movq	(%rax), %rcx
 3879 19ea 488D45C0 		leaq	-64(%rbp), %rax
 3880 19ee BA9A0000 		movl	$154, %edx
 3880      00
 3881 19f3 4889CE   		movq	%rcx, %rsi
 3882 19f6 4889C7   		movq	%rax, %rdi
 3883 19f9 E8000000 		call	_ZN8UnitTest11TestDetailsC1ERKS0_i@PLT
 3883      00
 154:testHexIO.cpp **** 	status = bufProcessLine(line, 0, &data, NULL, &seg, &recordType, NULL);
 3884              		.loc 4 154 2 discriminator 15
 3885 19fe 488D45C0 		leaq	-64(%rbp), %rax
 3886 1a02 488D1500 		leaq	.LC4(%rip), %rdx
 3886      000000
 3887 1a09 4889C6   		movq	%rax, %rsi
 3888 1a0c 4889DF   		movq	%rbx, %rdi
 3889 1a0f E8000000 		call	_ZN8UnitTest11TestResults13OnTestFailureERKNS_11TestDetailsEPKc@PLT
 3889      00
 3890              	.LEHE143:
 3891              	.LEHB144:
 154:testHexIO.cpp **** 	status = bufProcessLine(line, 0, &data, NULL, &seg, &recordType, NULL);
 3892              		.loc 4 154 2 discriminator 17
 3893 1a14 E8000000 		call	__cxa_end_catch@PLT
 3893      00
 3894              	.LEHE144:
 3895 1a19 E917FFFF 		jmp	.L181
 3895      FF
 3896              	.L188:
 3897 1a1e F30F1EFA 		endbr64
 154:testHexIO.cpp **** 	status = bufProcessLine(line, 0, &data, NULL, &seg, &recordType, NULL);
 3898              		.loc 4 154 2
 3899 1a22 4889C3   		movq	%rax, %rbx
 3900 1a25 E8000000 		call	__cxa_end_catch@PLT
 3900      00
 3901 1a2a 4889D8   		movq	%rbx, %rax
 3902 1a2d 4889C7   		movq	%rax, %rdi
 3903              	.LEHB145:
 3904 1a30 E8000000 		call	_Unwind_Resume@PLT
 3904      00
 3905              	.LEHE145:
 3906              	.L189:
 3907 1a35 F30F1EFA 		endbr64
 156:testHexIO.cpp **** 	bufDestroy(&data);
 3908              		.loc 4 156 2 is_stmt 1
 3909 1a39 4889C7   		movq	%rax, %rdi
 3910 1a3c E8000000 		call	__cxa_begin_catch@PLT
 3910      00
 3911              	.LEHB146:
 3912 1a41 E8000000 		call	_ZN8UnitTest11CurrentTest7ResultsEv@PLT
 3912      00
 156:testHexIO.cpp **** 	bufDestroy(&data);
 3913              		.loc 4 156 2 is_stmt 0 discriminator 3
 3914 1a46 488B18   		movq	(%rax), %rbx
 3915 1a49 E8000000 		call	_ZN8UnitTest11CurrentTest7DetailsEv@PLT
 3915      00
 156:testHexIO.cpp **** 	bufDestroy(&data);
 3916              		.loc 4 156 2 discriminator 11
 3917 1a4e 488B08   		movq	(%rax), %rcx
 3918 1a51 488D45C0 		leaq	-64(%rbp), %rax
 3919 1a55 BA9C0000 		movl	$156, %edx
 3919      00
 3920 1a5a 4889CE   		movq	%rcx, %rsi
 3921 1a5d 4889C7   		movq	%rax, %rdi
 3922 1a60 E8000000 		call	_ZN8UnitTest11TestDetailsC1ERKS0_i@PLT
 3922      00
 156:testHexIO.cpp **** 	bufDestroy(&data);
 3923              		.loc 4 156 2 discriminator 15
 3924 1a65 488D45C0 		leaq	-64(%rbp), %rax
 3925 1a69 488D1500 		leaq	.LC36(%rip), %rdx
 3925      000000
 3926 1a70 4889C6   		movq	%rax, %rsi
 3927 1a73 4889DF   		movq	%rbx, %rdi
 3928 1a76 E8000000 		call	_ZN8UnitTest11TestResults13OnTestFailureERKNS_11TestDetailsEPKc@PLT
 3928      00
 3929              	.LEHE146:
 3930              	.LEHB147:
 156:testHexIO.cpp **** 	bufDestroy(&data);
 3931              		.loc 4 156 2 discriminator 17
 3932 1a7b E8000000 		call	__cxa_end_catch@PLT
 3932      00
 3933              	.LEHE147:
 3934 1a80 E924FFFF 		jmp	.L184
 3934      FF
 3935              	.L190:
 3936 1a85 F30F1EFA 		endbr64
 156:testHexIO.cpp **** 	bufDestroy(&data);
 3937              		.loc 4 156 2
 3938 1a89 4889C3   		movq	%rax, %rbx
 3939 1a8c E8000000 		call	__cxa_end_catch@PLT
 3939      00
 3940 1a91 4889D8   		movq	%rbx, %rax
 3941 1a94 4889C7   		movq	%rax, %rdi
 3942              	.LEHB148:
 3943 1a97 E8000000 		call	_Unwind_Resume@PLT
 3943      00
 3944              	.LEHE148:
 3945              	.L191:
 3946              		.loc 4 158 1 is_stmt 1
 3947 1a9c E8000000 		call	__stack_chk_fail@PLT
 3947      00
 3948              	.L186:
 3949 1aa1 488B5DF8 		movq	-8(%rbp), %rbx
 3950 1aa5 C9       		leave
 3951              		.cfi_def_cfa 7, 8
 3952 1aa6 C3       		ret
 3953              		.cfi_endproc
 3954              	.LFE1251:
 3955              		.section	.gcc_except_table
 3956              		.align 4
 3957              	.LLSDA1251:
 3958 0324 FF       		.byte	0xff
 3959 0325 9B       		.byte	0x9b
 3960 0326 41       		.uleb128 .LLSDATT1251-.LLSDATTD1251
 3961              	.LLSDATTD1251:
 3962 0327 01       		.byte	0x1
 3963 0328 39       		.uleb128 .LLSDACSE1251-.LLSDACSB1251
 3964              	.LLSDACSB1251:
 3965 0329 4E       		.uleb128 .LEHB138-.LFB1251
 3966 032a 05       		.uleb128 .LEHE138-.LEHB138
 3967 032b 00       		.uleb128 0
 3968 032c 00       		.uleb128 0
 3969 032d 56       		.uleb128 .LEHB139-.LFB1251
 3970 032e 3F       		.uleb128 .LEHE139-.LEHB139
 3971 032f AE02     		.uleb128 .L187-.LFB1251
 3972 0331 01       		.uleb128 0x1
 3973 0332 BE01     		.uleb128 .LEHB140-.LFB1251
 3974 0334 05       		.uleb128 .LEHE140-.LEHB140
 3975 0335 00       		.uleb128 0
 3976 0336 00       		.uleb128 0
 3977 0337 CA01     		.uleb128 .LEHB141-.LFB1251
 3978 0339 3F       		.uleb128 .LEHE141-.LEHB141
 3979 033a 9503     		.uleb128 .L189-.LFB1251
 3980 033c 01       		.uleb128 0x1
 3981 033d 9002     		.uleb128 .LEHB142-.LFB1251
 3982 033f 05       		.uleb128 .LEHE142-.LEHB142
 3983 0340 00       		.uleb128 0
 3984 0341 00       		.uleb128 0
 3985 0342 BA02     		.uleb128 .LEHB143-.LFB1251
 3986 0344 3A       		.uleb128 .LEHE143-.LEHB143
 3987 0345 FE02     		.uleb128 .L188-.LFB1251
 3988 0347 00       		.uleb128 0
 3989 0348 F402     		.uleb128 .LEHB144-.LFB1251
 3990 034a 05       		.uleb128 .LEHE144-.LEHB144
 3991 034b 00       		.uleb128 0
 3992 034c 00       		.uleb128 0
 3993 034d 9003     		.uleb128 .LEHB145-.LFB1251
 3994 034f 05       		.uleb128 .LEHE145-.LEHB145
 3995 0350 00       		.uleb128 0
 3996 0351 00       		.uleb128 0
 3997 0352 A103     		.uleb128 .LEHB146-.LFB1251
 3998 0354 3A       		.uleb128 .LEHE146-.LEHB146
 3999 0355 E503     		.uleb128 .L190-.LFB1251
 4000 0357 00       		.uleb128 0
 4001 0358 DB03     		.uleb128 .LEHB147-.LFB1251
 4002 035a 05       		.uleb128 .LEHE147-.LEHB147
 4003 035b 00       		.uleb128 0
 4004 035c 00       		.uleb128 0
 4005 035d F703     		.uleb128 .LEHB148-.LFB1251
 4006 035f 05       		.uleb128 .LEHE148-.LEHB148
 4007 0360 00       		.uleb128 0
 4008 0361 00       		.uleb128 0
 4009              	.LLSDACSE1251:
 4010 0362 01       		.byte	0x1
 4011 0363 00       		.byte	0
 4012              		.align 4
 4013 0364 00000000 		.long	0
 4014              	
 4015              	.LLSDATT1251:
 4016              		.text
 4018              		.section	.rodata
 4019              	.LC37:
 4020 05d6 48657849 		.string	"HexIO_testBadChecksum"
 4020      4F5F7465 
 4020      73744261 
 4020      64436865 
 4020      636B7375 
 4021              		.section	.text._ZN25TestHexIO_testBadChecksumC2Ev,"axG",@progbits,_ZN25TestHexIO_testBadChecksumC5
 4022              		.align 2
 4023              		.weak	_ZN25TestHexIO_testBadChecksumC2Ev
 4025              	_ZN25TestHexIO_testBadChecksumC2Ev:
 4026              	.LFB1253:
 159:testHexIO.cpp **** 
 160:testHexIO.cpp **** TEST(HexIO_testBadChecksum) {
 4027              		.loc 4 160 1
 4028              		.cfi_startproc
 4029 0000 F30F1EFA 		endbr64
 4030 0004 55       		pushq	%rbp
 4031              		.cfi_def_cfa_offset 16
 4032              		.cfi_offset 6, -16
 4033 0005 4889E5   		movq	%rsp, %rbp
 4034              		.cfi_def_cfa_register 6
 4035 0008 53       		pushq	%rbx
 4036 0009 4883EC18 		subq	$24, %rsp
 4037              		.cfi_offset 3, -24
 4038 000d 48897DE8 		movq	%rdi, -24(%rbp)
 4039              	.LBB16:
 4040              		.loc 4 160 1
 4041 0011 488B5DE8 		movq	-24(%rbp), %rbx
 4042 0015 E8000000 		call	_ZN13UnitTestSuite12GetSuiteNameEv
 4042      00
 4043 001a 4889C2   		movq	%rax, %rdx
 4044 001d 41B8A000 		movl	$160, %r8d
 4044      0000
 4045 0023 488D0500 		leaq	.LC1(%rip), %rax
 4045      000000
 4046 002a 4889C1   		movq	%rax, %rcx
 4047 002d 488D0500 		leaq	.LC37(%rip), %rax
 4047      000000
 4048 0034 4889C6   		movq	%rax, %rsi
 4049 0037 4889DF   		movq	%rbx, %rdi
 4050 003a E8000000 		call	_ZN8UnitTest4TestC2EPKcS2_S2_i@PLT
 4050      00
 4051 003f 488D1500 		leaq	16+_ZTV25TestHexIO_testBadChecksum(%rip), %rdx
 4051      000000
 4052 0046 488B45E8 		movq	-24(%rbp), %rax
 4053 004a 488910   		movq	%rdx, (%rax)
 4054              	.LBE16:
 4055 004d 90       		nop
 4056 004e 488B5DF8 		movq	-8(%rbp), %rbx
 4057 0052 C9       		leave
 4058              		.cfi_def_cfa 7, 8
 4059 0053 C3       		ret
 4060              		.cfi_endproc
 4061              	.LFE1253:
 4063              		.weak	_ZN25TestHexIO_testBadChecksumC1Ev
 4064              		.set	_ZN25TestHexIO_testBadChecksumC1Ev,_ZN25TestHexIO_testBadChecksumC2Ev
 4065              		.globl	testHexIO_testBadChecksumInstance
 4066              		.bss
 4067 0239 00000000 		.align 32
 4067      000000
 4070              	testHexIO_testBadChecksumInstance:
 4071 0240 00000000 		.zero	56
 4071      00000000 
 4071      00000000 
 4071      00000000 
 4071      00000000 
 4072              		.globl	adderHexIO_testBadChecksum
 4075              	adderHexIO_testBadChecksum:
 4076 0278 00       		.zero	1
 4077              		.section	.rodata
 4078              	.LC38:
 4079 05ec 3A303430 		.string	":040BE10075820022F8\n"
 4079      42453130 
 4079      30373538 
 4079      32303032 
 4079      3246380A 
 4080 0601 00000000 		.align 8
 4080      000000
 4081              	.LC39:
 4082 0608 556E6861 		.string	"Unhandled exception in CHECK_EQUAL(HEX_BAD_CHECKSUM, status)"
 4082      6E646C65 
 4082      64206578 
 4082      63657074 
 4082      696F6E20 
 4083              		.text
 4084 1aa7 90       		.align 2
 4085              		.globl	_ZNK25TestHexIO_testBadChecksum7RunImplEv
 4087              	_ZNK25TestHexIO_testBadChecksum7RunImplEv:
 4088              	.LFB1255:
 4089              		.loc 4 160 29
 4090              		.cfi_startproc
 4091              		.cfi_personality 0x9b,DW.ref.__gxx_personality_v0
 4092              		.cfi_lsda 0x1b,.LLSDA1255
 4093 1aa8 F30F1EFA 		endbr64
 4094 1aac 55       		pushq	%rbp
 4095              		.cfi_def_cfa_offset 16
 4096              		.cfi_offset 6, -16
 4097 1aad 4889E5   		movq	%rsp, %rbp
 4098              		.cfi_def_cfa_register 6
 4099 1ab0 53       		pushq	%rbx
 4100 1ab1 4881EC88 		subq	$136, %rsp
 4100      000000
 4101              		.cfi_offset 3, -24
 4102 1ab8 4889BD78 		movq	%rdi, -136(%rbp)
 4102      FFFFFF
 4103              		.loc 4 160 29
 4104 1abf 64488B04 		movq	%fs:40, %rax
 4104      25280000 
 4104      00
 4105 1ac8 488945E8 		movq	%rax, -24(%rbp)
 4106 1acc 31C0     		xorl	%eax, %eax
 161:testHexIO.cpp **** 	Buffer data;
 162:testHexIO.cpp **** 	BufferStatus status;
 163:testHexIO.cpp **** 	const char *line = ":040BE10075820022F8\n";
 4107              		.loc 4 163 14
 4108 1ace 488D0500 		leaq	.LC38(%rip), %rax
 4108      000000
 4109 1ad5 48894598 		movq	%rax, -104(%rbp)
 164:testHexIO.cpp **** 	uint8 recordType;
 165:testHexIO.cpp **** 	uint32 seg = 0x00000000;
 4110              		.loc 4 165 9
 4111 1ad9 C7459000 		movl	$0, -112(%rbp)
 4111      000000
 166:testHexIO.cpp **** 	status = bufInitialise(&data, 1024, 0x00, NULL);
 4112              		.loc 4 166 24
 4113 1ae0 488D45A0 		leaq	-96(%rbp), %rax
 4114 1ae4 B9000000 		movl	$0, %ecx
 4114      00
 4115 1ae9 BA000000 		movl	$0, %edx
 4115      00
 4116 1aee BE000400 		movl	$1024, %esi
 4116      00
 4117 1af3 4889C7   		movq	%rax, %rdi
 4118              	.LEHB149:
 4119 1af6 E8000000 		call	bufInitialise@PLT
 4119      00
 4120              	.LEHE149:
 4121              		.loc 4 166 9
 4122 1afb 89458C   		movl	%eax, -116(%rbp)
 4123              	.LEHB150:
 167:testHexIO.cpp **** 	CHECK_EQUAL(BUF_SUCCESS, status);
 4124              		.loc 4 167 2
 4125 1afe E8000000 		call	_ZN8UnitTest11CurrentTest7DetailsEv@PLT
 4125      00
 4126 1b03 488B08   		movq	(%rax), %rcx
 4127 1b06 488D45C0 		leaq	-64(%rbp), %rax
 4128 1b0a BAA70000 		movl	$167, %edx
 4128      00
 4129 1b0f 4889CE   		movq	%rcx, %rsi
 4130 1b12 4889C7   		movq	%rax, %rdi
 4131 1b15 E8000000 		call	_ZN8UnitTest11TestDetailsC1ERKS0_i@PLT
 4131      00
 4132              		.loc 4 167 2 is_stmt 0 discriminator 4
 4133 1b1a C7459400 		movl	$0, -108(%rbp)
 4133      000000
 4134 1b21 E8000000 		call	_ZN8UnitTest11CurrentTest7ResultsEv@PLT
 4134      00
 4135 1b26 488B00   		movq	(%rax), %rax
 4136 1b29 488D4DC0 		leaq	-64(%rbp), %rcx
 4137 1b2d 488D558C 		leaq	-116(%rbp), %rdx
 4138 1b31 488D7594 		leaq	-108(%rbp), %rsi
 4139 1b35 4889C7   		movq	%rax, %rdi
 4140 1b38 E8000000 		call	_ZN8UnitTest10CheckEqualI12BufferStatusS1_EEvRNS_11TestResultsERKT_RKT0_RKNS_11TestDetailsE
 4140      00
 4141              	.LEHE150:
 4142              	.L195:
 168:testHexIO.cpp **** 	status = bufProcessLine(line, 0, &data, NULL, &seg, &recordType, NULL);
 4143              		.loc 4 168 25 is_stmt 1
 4144 1b3d 488D758B 		leaq	-117(%rbp), %rsi
 4145 1b41 488D4D90 		leaq	-112(%rbp), %rcx
 4146 1b45 488D55A0 		leaq	-96(%rbp), %rdx
 4147 1b49 488B4598 		movq	-104(%rbp), %rax
 4148 1b4d 4883EC08 		subq	$8, %rsp
 4149 1b51 6A00     		pushq	$0
 4150 1b53 4989F1   		movq	%rsi, %r9
 4151 1b56 4989C8   		movq	%rcx, %r8
 4152 1b59 B9000000 		movl	$0, %ecx
 4152      00
 4153 1b5e BE000000 		movl	$0, %esi
 4153      00
 4154 1b63 4889C7   		movq	%rax, %rdi
 4155              	.LEHB151:
 4156 1b66 E8000000 		call	bufProcessLine@PLT
 4156      00
 4157              	.LEHE151:
 4158 1b6b 4883C410 		addq	$16, %rsp
 4159              		.loc 4 168 9
 4160 1b6f 89458C   		movl	%eax, -116(%rbp)
 4161              	.LEHB152:
 169:testHexIO.cpp **** 	CHECK_EQUAL(HEX_BAD_CHECKSUM, status);
 4162              		.loc 4 169 2
 4163 1b72 E8000000 		call	_ZN8UnitTest11CurrentTest7DetailsEv@PLT
 4163      00
 4164 1b77 488B08   		movq	(%rax), %rcx
 4165 1b7a 488D45C0 		leaq	-64(%rbp), %rax
 4166 1b7e BAA90000 		movl	$169, %edx
 4166      00
 4167 1b83 4889CE   		movq	%rcx, %rsi
 4168 1b86 4889C7   		movq	%rax, %rdi
 4169 1b89 E8000000 		call	_ZN8UnitTest11TestDetailsC1ERKS0_i@PLT
 4169      00
 4170              		.loc 4 169 2 is_stmt 0 discriminator 4
 4171 1b8e C745940F 		movl	$15, -108(%rbp)
 4171      000000
 4172 1b95 E8000000 		call	_ZN8UnitTest11CurrentTest7ResultsEv@PLT
 4172      00
 4173 1b9a 488B00   		movq	(%rax), %rax
 4174 1b9d 488D4DC0 		leaq	-64(%rbp), %rcx
 4175 1ba1 488D558C 		leaq	-116(%rbp), %rdx
 4176 1ba5 488D7594 		leaq	-108(%rbp), %rsi
 4177 1ba9 4889C7   		movq	%rax, %rdi
 4178 1bac E8000000 		call	_ZN8UnitTest10CheckEqualI12BufferStatusS1_EEvRNS_11TestResultsERKT_RKT0_RKNS_11TestDetailsE
 4178      00
 4179              	.LEHE152:
 4180              	.L198:
 170:testHexIO.cpp **** 	bufDestroy(&data);
 4181              		.loc 4 170 12 is_stmt 1
 4182 1bb1 488D45A0 		leaq	-96(%rbp), %rax
 4183 1bb5 4889C7   		movq	%rax, %rdi
 4184              	.LEHB153:
 4185 1bb8 E8000000 		call	bufDestroy@PLT
 4185      00
 4186              	.LEHE153:
 171:testHexIO.cpp **** }
 4187              		.loc 4 171 1
 4188 1bbd 90       		nop
 4189 1bbe 488B45E8 		movq	-24(%rbp), %rax
 4190 1bc2 64482B04 		subq	%fs:40, %rax
 4190      25280000 
 4190      00
 4191 1bcb 0F84D800 		je	.L200
 4191      0000
 4192 1bd1 E9CE0000 		jmp	.L205
 4192      00
 4193              	.L201:
 4194 1bd6 F30F1EFA 		endbr64
 167:testHexIO.cpp **** 	status = bufProcessLine(line, 0, &data, NULL, &seg, &recordType, NULL);
 4195              		.loc 4 167 2
 4196 1bda 4889C7   		movq	%rax, %rdi
 4197 1bdd E8000000 		call	__cxa_begin_catch@PLT
 4197      00
 4198              	.LEHB154:
 4199 1be2 E8000000 		call	_ZN8UnitTest11CurrentTest7ResultsEv@PLT
 4199      00
 167:testHexIO.cpp **** 	status = bufProcessLine(line, 0, &data, NULL, &seg, &recordType, NULL);
 4200              		.loc 4 167 2 is_stmt 0 discriminator 3
 4201 1be7 488B18   		movq	(%rax), %rbx
 4202 1bea E8000000 		call	_ZN8UnitTest11CurrentTest7DetailsEv@PLT
 4202      00
 167:testHexIO.cpp **** 	status = bufProcessLine(line, 0, &data, NULL, &seg, &recordType, NULL);
 4203              		.loc 4 167 2 discriminator 11
 4204 1bef 488B08   		movq	(%rax), %rcx
 4205 1bf2 488D45C0 		leaq	-64(%rbp), %rax
 4206 1bf6 BAA70000 		movl	$167, %edx
 4206      00
 4207 1bfb 4889CE   		movq	%rcx, %rsi
 4208 1bfe 4889C7   		movq	%rax, %rdi
 4209 1c01 E8000000 		call	_ZN8UnitTest11TestDetailsC1ERKS0_i@PLT
 4209      00
 167:testHexIO.cpp **** 	status = bufProcessLine(line, 0, &data, NULL, &seg, &recordType, NULL);
 4210              		.loc 4 167 2 discriminator 15
 4211 1c06 488D45C0 		leaq	-64(%rbp), %rax
 4212 1c0a 488D1500 		leaq	.LC4(%rip), %rdx
 4212      000000
 4213 1c11 4889C6   		movq	%rax, %rsi
 4214 1c14 4889DF   		movq	%rbx, %rdi
 4215 1c17 E8000000 		call	_ZN8UnitTest11TestResults13OnTestFailureERKNS_11TestDetailsEPKc@PLT
 4215      00
 4216              	.LEHE154:
 4217              	.LEHB155:
 167:testHexIO.cpp **** 	status = bufProcessLine(line, 0, &data, NULL, &seg, &recordType, NULL);
 4218              		.loc 4 167 2 discriminator 17
 4219 1c1c E8000000 		call	__cxa_end_catch@PLT
 4219      00
 4220              	.LEHE155:
 4221 1c21 E917FFFF 		jmp	.L195
 4221      FF
 4222              	.L202:
 4223 1c26 F30F1EFA 		endbr64
 167:testHexIO.cpp **** 	status = bufProcessLine(line, 0, &data, NULL, &seg, &recordType, NULL);
 4224              		.loc 4 167 2
 4225 1c2a 4889C3   		movq	%rax, %rbx
 4226 1c2d E8000000 		call	__cxa_end_catch@PLT
 4226      00
 4227 1c32 4889D8   		movq	%rbx, %rax
 4228 1c35 4889C7   		movq	%rax, %rdi
 4229              	.LEHB156:
 4230 1c38 E8000000 		call	_Unwind_Resume@PLT
 4230      00
 4231              	.LEHE156:
 4232              	.L203:
 4233 1c3d F30F1EFA 		endbr64
 169:testHexIO.cpp **** 	bufDestroy(&data);
 4234              		.loc 4 169 2 is_stmt 1
 4235 1c41 4889C7   		movq	%rax, %rdi
 4236 1c44 E8000000 		call	__cxa_begin_catch@PLT
 4236      00
 4237              	.LEHB157:
 4238 1c49 E8000000 		call	_ZN8UnitTest11CurrentTest7ResultsEv@PLT
 4238      00
 169:testHexIO.cpp **** 	bufDestroy(&data);
 4239              		.loc 4 169 2 is_stmt 0 discriminator 3
 4240 1c4e 488B18   		movq	(%rax), %rbx
 4241 1c51 E8000000 		call	_ZN8UnitTest11CurrentTest7DetailsEv@PLT
 4241      00
 169:testHexIO.cpp **** 	bufDestroy(&data);
 4242              		.loc 4 169 2 discriminator 11
 4243 1c56 488B08   		movq	(%rax), %rcx
 4244 1c59 488D45C0 		leaq	-64(%rbp), %rax
 4245 1c5d BAA90000 		movl	$169, %edx
 4245      00
 4246 1c62 4889CE   		movq	%rcx, %rsi
 4247 1c65 4889C7   		movq	%rax, %rdi
 4248 1c68 E8000000 		call	_ZN8UnitTest11TestDetailsC1ERKS0_i@PLT
 4248      00
 169:testHexIO.cpp **** 	bufDestroy(&data);
 4249              		.loc 4 169 2 discriminator 15
 4250 1c6d 488D45C0 		leaq	-64(%rbp), %rax
 4251 1c71 488D1500 		leaq	.LC39(%rip), %rdx
 4251      000000
 4252 1c78 4889C6   		movq	%rax, %rsi
 4253 1c7b 4889DF   		movq	%rbx, %rdi
 4254 1c7e E8000000 		call	_ZN8UnitTest11TestResults13OnTestFailureERKNS_11TestDetailsEPKc@PLT
 4254      00
 4255              	.LEHE157:
 4256              	.LEHB158:
 169:testHexIO.cpp **** 	bufDestroy(&data);
 4257              		.loc 4 169 2 discriminator 17
 4258 1c83 E8000000 		call	__cxa_end_catch@PLT
 4258      00
 4259              	.LEHE158:
 4260 1c88 E924FFFF 		jmp	.L198
 4260      FF
 4261              	.L204:
 4262 1c8d F30F1EFA 		endbr64
 169:testHexIO.cpp **** 	bufDestroy(&data);
 4263              		.loc 4 169 2
 4264 1c91 4889C3   		movq	%rax, %rbx
 4265 1c94 E8000000 		call	__cxa_end_catch@PLT
 4265      00
 4266 1c99 4889D8   		movq	%rbx, %rax
 4267 1c9c 4889C7   		movq	%rax, %rdi
 4268              	.LEHB159:
 4269 1c9f E8000000 		call	_Unwind_Resume@PLT
 4269      00
 4270              	.LEHE159:
 4271              	.L205:
 4272              		.loc 4 171 1 is_stmt 1
 4273 1ca4 E8000000 		call	__stack_chk_fail@PLT
 4273      00
 4274              	.L200:
 4275 1ca9 488B5DF8 		movq	-8(%rbp), %rbx
 4276 1cad C9       		leave
 4277              		.cfi_def_cfa 7, 8
 4278 1cae C3       		ret
 4279              		.cfi_endproc
 4280              	.LFE1255:
 4281              		.section	.gcc_except_table
 4282              		.align 4
 4283              	.LLSDA1255:
 4284 0368 FF       		.byte	0xff
 4285 0369 9B       		.byte	0x9b
 4286 036a 41       		.uleb128 .LLSDATT1255-.LLSDATTD1255
 4287              	.LLSDATTD1255:
 4288 036b 01       		.byte	0x1
 4289 036c 39       		.uleb128 .LLSDACSE1255-.LLSDACSB1255
 4290              	.LLSDACSB1255:
 4291 036d 4E       		.uleb128 .LEHB149-.LFB1255
 4292 036e 05       		.uleb128 .LEHE149-.LEHB149
 4293 036f 00       		.uleb128 0
 4294 0370 00       		.uleb128 0
 4295 0371 56       		.uleb128 .LEHB150-.LFB1255
 4296 0372 3F       		.uleb128 .LEHE150-.LEHB150
 4297 0373 AE02     		.uleb128 .L201-.LFB1255
 4298 0375 01       		.uleb128 0x1
 4299 0376 BE01     		.uleb128 .LEHB151-.LFB1255
 4300 0378 05       		.uleb128 .LEHE151-.LEHB151
 4301 0379 00       		.uleb128 0
 4302 037a 00       		.uleb128 0
 4303 037b CA01     		.uleb128 .LEHB152-.LFB1255
 4304 037d 3F       		.uleb128 .LEHE152-.LEHB152
 4305 037e 9503     		.uleb128 .L203-.LFB1255
 4306 0380 01       		.uleb128 0x1
 4307 0381 9002     		.uleb128 .LEHB153-.LFB1255
 4308 0383 05       		.uleb128 .LEHE153-.LEHB153
 4309 0384 00       		.uleb128 0
 4310 0385 00       		.uleb128 0
 4311 0386 BA02     		.uleb128 .LEHB154-.LFB1255
 4312 0388 3A       		.uleb128 .LEHE154-.LEHB154
 4313 0389 FE02     		.uleb128 .L202-.LFB1255
 4314 038b 00       		.uleb128 0
 4315 038c F402     		.uleb128 .LEHB155-.LFB1255
 4316 038e 05       		.uleb128 .LEHE155-.LEHB155
 4317 038f 00       		.uleb128 0
 4318 0390 00       		.uleb128 0
 4319 0391 9003     		.uleb128 .LEHB156-.LFB1255
 4320 0393 05       		.uleb128 .LEHE156-.LEHB156
 4321 0394 00       		.uleb128 0
 4322 0395 00       		.uleb128 0
 4323 0396 A103     		.uleb128 .LEHB157-.LFB1255
 4324 0398 3A       		.uleb128 .LEHE157-.LEHB157
 4325 0399 E503     		.uleb128 .L204-.LFB1255
 4326 039b 00       		.uleb128 0
 4327 039c DB03     		.uleb128 .LEHB158-.LFB1255
 4328 039e 05       		.uleb128 .LEHE158-.LEHB158
 4329 039f 00       		.uleb128 0
 4330 03a0 00       		.uleb128 0
 4331 03a1 F703     		.uleb128 .LEHB159-.LFB1255
 4332 03a3 05       		.uleb128 .LEHE159-.LEHB159
 4333 03a4 00       		.uleb128 0
 4334 03a5 00       		.uleb128 0
 4335              	.LLSDACSE1255:
 4336 03a6 01       		.byte	0x1
 4337 03a7 00       		.byte	0
 4338              		.align 4
 4339 03a8 00000000 		.long	0
 4340              	
 4341              	.LLSDATT1255:
 4342              		.text
 4344              		.section	.rodata
 4345              	.LC40:
 4346 0645 48657849 		.string	"HexIO_testCorruptLine"
 4346      4F5F7465 
 4346      7374436F 
 4346      72727570 
 4346      744C696E 
 4347              		.section	.text._ZN25TestHexIO_testCorruptLineC2Ev,"axG",@progbits,_ZN25TestHexIO_testCorruptLineC5
 4348              		.align 2
 4349              		.weak	_ZN25TestHexIO_testCorruptLineC2Ev
 4351              	_ZN25TestHexIO_testCorruptLineC2Ev:
 4352              	.LFB1257:
 172:testHexIO.cpp **** 
 173:testHexIO.cpp **** TEST(HexIO_testCorruptLine) {
 4353              		.loc 4 173 1
 4354              		.cfi_startproc
 4355 0000 F30F1EFA 		endbr64
 4356 0004 55       		pushq	%rbp
 4357              		.cfi_def_cfa_offset 16
 4358              		.cfi_offset 6, -16
 4359 0005 4889E5   		movq	%rsp, %rbp
 4360              		.cfi_def_cfa_register 6
 4361 0008 53       		pushq	%rbx
 4362 0009 4883EC18 		subq	$24, %rsp
 4363              		.cfi_offset 3, -24
 4364 000d 48897DE8 		movq	%rdi, -24(%rbp)
 4365              	.LBB17:
 4366              		.loc 4 173 1
 4367 0011 488B5DE8 		movq	-24(%rbp), %rbx
 4368 0015 E8000000 		call	_ZN13UnitTestSuite12GetSuiteNameEv
 4368      00
 4369 001a 4889C2   		movq	%rax, %rdx
 4370 001d 41B8AD00 		movl	$173, %r8d
 4370      0000
 4371 0023 488D0500 		leaq	.LC1(%rip), %rax
 4371      000000
 4372 002a 4889C1   		movq	%rax, %rcx
 4373 002d 488D0500 		leaq	.LC40(%rip), %rax
 4373      000000
 4374 0034 4889C6   		movq	%rax, %rsi
 4375 0037 4889DF   		movq	%rbx, %rdi
 4376 003a E8000000 		call	_ZN8UnitTest4TestC2EPKcS2_S2_i@PLT
 4376      00
 4377 003f 488D1500 		leaq	16+_ZTV25TestHexIO_testCorruptLine(%rip), %rdx
 4377      000000
 4378 0046 488B45E8 		movq	-24(%rbp), %rax
 4379 004a 488910   		movq	%rdx, (%rax)
 4380              	.LBE17:
 4381 004d 90       		nop
 4382 004e 488B5DF8 		movq	-8(%rbp), %rbx
 4383 0052 C9       		leave
 4384              		.cfi_def_cfa 7, 8
 4385 0053 C3       		ret
 4386              		.cfi_endproc
 4387              	.LFE1257:
 4389              		.weak	_ZN25TestHexIO_testCorruptLineC1Ev
 4390              		.set	_ZN25TestHexIO_testCorruptLineC1Ev,_ZN25TestHexIO_testCorruptLineC2Ev
 4391              		.globl	testHexIO_testCorruptLineInstance
 4392              		.bss
 4393 0279 00000000 		.align 32
 4393      000000
 4396              	testHexIO_testCorruptLineInstance:
 4397 0280 00000000 		.zero	56
 4397      00000000 
 4397      00000000 
 4397      00000000 
 4397      00000000 
 4398              		.globl	adderHexIO_testCorruptLine
 4401              	adderHexIO_testCorruptLine:
 4402 02b8 00       		.zero	1
 4403              		.section	.rodata
 4404              	.LC41:
 4405 065b 3A303430 		.string	":040BE10075820022F7 \n"
 4405      42453130 
 4405      30373538 
 4405      32303032 
 4405      32463720 
 4406 0671 00000000 		.align 8
 4406      000000
 4407              	.LC42:
 4408 0678 556E6861 		.string	"Unhandled exception in CHECK_EQUAL(HEX_CORRUPT_LINE, status)"
 4408      6E646C65 
 4408      64206578 
 4408      63657074 
 4408      696F6E20 
 4409              		.text
 4410 1caf 90       		.align 2
 4411              		.globl	_ZNK25TestHexIO_testCorruptLine7RunImplEv
 4413              	_ZNK25TestHexIO_testCorruptLine7RunImplEv:
 4414              	.LFB1259:
 4415              		.loc 4 173 29
 4416              		.cfi_startproc
 4417              		.cfi_personality 0x9b,DW.ref.__gxx_personality_v0
 4418              		.cfi_lsda 0x1b,.LLSDA1259
 4419 1cb0 F30F1EFA 		endbr64
 4420 1cb4 55       		pushq	%rbp
 4421              		.cfi_def_cfa_offset 16
 4422              		.cfi_offset 6, -16
 4423 1cb5 4889E5   		movq	%rsp, %rbp
 4424              		.cfi_def_cfa_register 6
 4425 1cb8 53       		pushq	%rbx
 4426 1cb9 4881EC88 		subq	$136, %rsp
 4426      000000
 4427              		.cfi_offset 3, -24
 4428 1cc0 4889BD78 		movq	%rdi, -136(%rbp)
 4428      FFFFFF
 4429              		.loc 4 173 29
 4430 1cc7 64488B04 		movq	%fs:40, %rax
 4430      25280000 
 4430      00
 4431 1cd0 488945E8 		movq	%rax, -24(%rbp)
 4432 1cd4 31C0     		xorl	%eax, %eax
 174:testHexIO.cpp **** 	Buffer data;
 175:testHexIO.cpp **** 	BufferStatus status;
 176:testHexIO.cpp **** 	const char *line = ":040BE10075820022F7 \n";
 4433              		.loc 4 176 14
 4434 1cd6 488D0500 		leaq	.LC41(%rip), %rax
 4434      000000
 4435 1cdd 48894598 		movq	%rax, -104(%rbp)
 177:testHexIO.cpp **** 	uint8 recordType;
 178:testHexIO.cpp **** 	uint32 seg = 0x00000000;
 4436              		.loc 4 178 9
 4437 1ce1 C7459000 		movl	$0, -112(%rbp)
 4437      000000
 179:testHexIO.cpp **** 	status = bufInitialise(&data, 1024, 0x00, NULL);
 4438              		.loc 4 179 24
 4439 1ce8 488D45A0 		leaq	-96(%rbp), %rax
 4440 1cec B9000000 		movl	$0, %ecx
 4440      00
 4441 1cf1 BA000000 		movl	$0, %edx
 4441      00
 4442 1cf6 BE000400 		movl	$1024, %esi
 4442      00
 4443 1cfb 4889C7   		movq	%rax, %rdi
 4444              	.LEHB160:
 4445 1cfe E8000000 		call	bufInitialise@PLT
 4445      00
 4446              	.LEHE160:
 4447              		.loc 4 179 9
 4448 1d03 89458C   		movl	%eax, -116(%rbp)
 4449              	.LEHB161:
 180:testHexIO.cpp **** 	CHECK_EQUAL(BUF_SUCCESS, status);
 4450              		.loc 4 180 2
 4451 1d06 E8000000 		call	_ZN8UnitTest11CurrentTest7DetailsEv@PLT
 4451      00
 4452 1d0b 488B08   		movq	(%rax), %rcx
 4453 1d0e 488D45C0 		leaq	-64(%rbp), %rax
 4454 1d12 BAB40000 		movl	$180, %edx
 4454      00
 4455 1d17 4889CE   		movq	%rcx, %rsi
 4456 1d1a 4889C7   		movq	%rax, %rdi
 4457 1d1d E8000000 		call	_ZN8UnitTest11TestDetailsC1ERKS0_i@PLT
 4457      00
 4458              		.loc 4 180 2 is_stmt 0 discriminator 4
 4459 1d22 C7459400 		movl	$0, -108(%rbp)
 4459      000000
 4460 1d29 E8000000 		call	_ZN8UnitTest11CurrentTest7ResultsEv@PLT
 4460      00
 4461 1d2e 488B00   		movq	(%rax), %rax
 4462 1d31 488D4DC0 		leaq	-64(%rbp), %rcx
 4463 1d35 488D558C 		leaq	-116(%rbp), %rdx
 4464 1d39 488D7594 		leaq	-108(%rbp), %rsi
 4465 1d3d 4889C7   		movq	%rax, %rdi
 4466 1d40 E8000000 		call	_ZN8UnitTest10CheckEqualI12BufferStatusS1_EEvRNS_11TestResultsERKT_RKT0_RKNS_11TestDetailsE
 4466      00
 4467              	.LEHE161:
 4468              	.L209:
 181:testHexIO.cpp **** 	status = bufProcessLine(line, 0, &data, NULL, &seg, &recordType, NULL);
 4469              		.loc 4 181 25 is_stmt 1
 4470 1d45 488D758B 		leaq	-117(%rbp), %rsi
 4471 1d49 488D4D90 		leaq	-112(%rbp), %rcx
 4472 1d4d 488D55A0 		leaq	-96(%rbp), %rdx
 4473 1d51 488B4598 		movq	-104(%rbp), %rax
 4474 1d55 4883EC08 		subq	$8, %rsp
 4475 1d59 6A00     		pushq	$0
 4476 1d5b 4989F1   		movq	%rsi, %r9
 4477 1d5e 4989C8   		movq	%rcx, %r8
 4478 1d61 B9000000 		movl	$0, %ecx
 4478      00
 4479 1d66 BE000000 		movl	$0, %esi
 4479      00
 4480 1d6b 4889C7   		movq	%rax, %rdi
 4481              	.LEHB162:
 4482 1d6e E8000000 		call	bufProcessLine@PLT
 4482      00
 4483              	.LEHE162:
 4484 1d73 4883C410 		addq	$16, %rsp
 4485              		.loc 4 181 9
 4486 1d77 89458C   		movl	%eax, -116(%rbp)
 4487              	.LEHB163:
 182:testHexIO.cpp **** 	CHECK_EQUAL(HEX_CORRUPT_LINE, status);
 4488              		.loc 4 182 2
 4489 1d7a E8000000 		call	_ZN8UnitTest11CurrentTest7DetailsEv@PLT
 4489      00
 4490 1d7f 488B08   		movq	(%rax), %rcx
 4491 1d82 488D45C0 		leaq	-64(%rbp), %rax
 4492 1d86 BAB60000 		movl	$182, %edx
 4492      00
 4493 1d8b 4889CE   		movq	%rcx, %rsi
 4494 1d8e 4889C7   		movq	%rax, %rdi
 4495 1d91 E8000000 		call	_ZN8UnitTest11TestDetailsC1ERKS0_i@PLT
 4495      00
 4496              		.loc 4 182 2 is_stmt 0 discriminator 4
 4497 1d96 C7459410 		movl	$16, -108(%rbp)
 4497      000000
 4498 1d9d E8000000 		call	_ZN8UnitTest11CurrentTest7ResultsEv@PLT
 4498      00
 4499 1da2 488B00   		movq	(%rax), %rax
 4500 1da5 488D4DC0 		leaq	-64(%rbp), %rcx
 4501 1da9 488D558C 		leaq	-116(%rbp), %rdx
 4502 1dad 488D7594 		leaq	-108(%rbp), %rsi
 4503 1db1 4889C7   		movq	%rax, %rdi
 4504 1db4 E8000000 		call	_ZN8UnitTest10CheckEqualI12BufferStatusS1_EEvRNS_11TestResultsERKT_RKT0_RKNS_11TestDetailsE
 4504      00
 4505              	.LEHE163:
 4506              	.L212:
 183:testHexIO.cpp **** 	bufDestroy(&data);
 4507              		.loc 4 183 12 is_stmt 1
 4508 1db9 488D45A0 		leaq	-96(%rbp), %rax
 4509 1dbd 4889C7   		movq	%rax, %rdi
 4510              	.LEHB164:
 4511 1dc0 E8000000 		call	bufDestroy@PLT
 4511      00
 4512              	.LEHE164:
 184:testHexIO.cpp **** }
 4513              		.loc 4 184 1
 4514 1dc5 90       		nop
 4515 1dc6 488B45E8 		movq	-24(%rbp), %rax
 4516 1dca 64482B04 		subq	%fs:40, %rax
 4516      25280000 
 4516      00
 4517 1dd3 0F84D800 		je	.L214
 4517      0000
 4518 1dd9 E9CE0000 		jmp	.L219
 4518      00
 4519              	.L215:
 4520 1dde F30F1EFA 		endbr64
 180:testHexIO.cpp **** 	status = bufProcessLine(line, 0, &data, NULL, &seg, &recordType, NULL);
 4521              		.loc 4 180 2
 4522 1de2 4889C7   		movq	%rax, %rdi
 4523 1de5 E8000000 		call	__cxa_begin_catch@PLT
 4523      00
 4524              	.LEHB165:
 4525 1dea E8000000 		call	_ZN8UnitTest11CurrentTest7ResultsEv@PLT
 4525      00
 180:testHexIO.cpp **** 	status = bufProcessLine(line, 0, &data, NULL, &seg, &recordType, NULL);
 4526              		.loc 4 180 2 is_stmt 0 discriminator 3
 4527 1def 488B18   		movq	(%rax), %rbx
 4528 1df2 E8000000 		call	_ZN8UnitTest11CurrentTest7DetailsEv@PLT
 4528      00
 180:testHexIO.cpp **** 	status = bufProcessLine(line, 0, &data, NULL, &seg, &recordType, NULL);
 4529              		.loc 4 180 2 discriminator 11
 4530 1df7 488B08   		movq	(%rax), %rcx
 4531 1dfa 488D45C0 		leaq	-64(%rbp), %rax
 4532 1dfe BAB40000 		movl	$180, %edx
 4532      00
 4533 1e03 4889CE   		movq	%rcx, %rsi
 4534 1e06 4889C7   		movq	%rax, %rdi
 4535 1e09 E8000000 		call	_ZN8UnitTest11TestDetailsC1ERKS0_i@PLT
 4535      00
 180:testHexIO.cpp **** 	status = bufProcessLine(line, 0, &data, NULL, &seg, &recordType, NULL);
 4536              		.loc 4 180 2 discriminator 15
 4537 1e0e 488D45C0 		leaq	-64(%rbp), %rax
 4538 1e12 488D1500 		leaq	.LC4(%rip), %rdx
 4538      000000
 4539 1e19 4889C6   		movq	%rax, %rsi
 4540 1e1c 4889DF   		movq	%rbx, %rdi
 4541 1e1f E8000000 		call	_ZN8UnitTest11TestResults13OnTestFailureERKNS_11TestDetailsEPKc@PLT
 4541      00
 4542              	.LEHE165:
 4543              	.LEHB166:
 180:testHexIO.cpp **** 	status = bufProcessLine(line, 0, &data, NULL, &seg, &recordType, NULL);
 4544              		.loc 4 180 2 discriminator 17
 4545 1e24 E8000000 		call	__cxa_end_catch@PLT
 4545      00
 4546              	.LEHE166:
 4547 1e29 E917FFFF 		jmp	.L209
 4547      FF
 4548              	.L216:
 4549 1e2e F30F1EFA 		endbr64
 180:testHexIO.cpp **** 	status = bufProcessLine(line, 0, &data, NULL, &seg, &recordType, NULL);
 4550              		.loc 4 180 2
 4551 1e32 4889C3   		movq	%rax, %rbx
 4552 1e35 E8000000 		call	__cxa_end_catch@PLT
 4552      00
 4553 1e3a 4889D8   		movq	%rbx, %rax
 4554 1e3d 4889C7   		movq	%rax, %rdi
 4555              	.LEHB167:
 4556 1e40 E8000000 		call	_Unwind_Resume@PLT
 4556      00
 4557              	.LEHE167:
 4558              	.L217:
 4559 1e45 F30F1EFA 		endbr64
 182:testHexIO.cpp **** 	bufDestroy(&data);
 4560              		.loc 4 182 2 is_stmt 1
 4561 1e49 4889C7   		movq	%rax, %rdi
 4562 1e4c E8000000 		call	__cxa_begin_catch@PLT
 4562      00
 4563              	.LEHB168:
 4564 1e51 E8000000 		call	_ZN8UnitTest11CurrentTest7ResultsEv@PLT
 4564      00
 182:testHexIO.cpp **** 	bufDestroy(&data);
 4565              		.loc 4 182 2 is_stmt 0 discriminator 3
 4566 1e56 488B18   		movq	(%rax), %rbx
 4567 1e59 E8000000 		call	_ZN8UnitTest11CurrentTest7DetailsEv@PLT
 4567      00
 182:testHexIO.cpp **** 	bufDestroy(&data);
 4568              		.loc 4 182 2 discriminator 11
 4569 1e5e 488B08   		movq	(%rax), %rcx
 4570 1e61 488D45C0 		leaq	-64(%rbp), %rax
 4571 1e65 BAB60000 		movl	$182, %edx
 4571      00
 4572 1e6a 4889CE   		movq	%rcx, %rsi
 4573 1e6d 4889C7   		movq	%rax, %rdi
 4574 1e70 E8000000 		call	_ZN8UnitTest11TestDetailsC1ERKS0_i@PLT
 4574      00
 182:testHexIO.cpp **** 	bufDestroy(&data);
 4575              		.loc 4 182 2 discriminator 15
 4576 1e75 488D45C0 		leaq	-64(%rbp), %rax
 4577 1e79 488D1500 		leaq	.LC42(%rip), %rdx
 4577      000000
 4578 1e80 4889C6   		movq	%rax, %rsi
 4579 1e83 4889DF   		movq	%rbx, %rdi
 4580 1e86 E8000000 		call	_ZN8UnitTest11TestResults13OnTestFailureERKNS_11TestDetailsEPKc@PLT
 4580      00
 4581              	.LEHE168:
 4582              	.LEHB169:
 182:testHexIO.cpp **** 	bufDestroy(&data);
 4583              		.loc 4 182 2 discriminator 17
 4584 1e8b E8000000 		call	__cxa_end_catch@PLT
 4584      00
 4585              	.LEHE169:
 4586 1e90 E924FFFF 		jmp	.L212
 4586      FF
 4587              	.L218:
 4588 1e95 F30F1EFA 		endbr64
 182:testHexIO.cpp **** 	bufDestroy(&data);
 4589              		.loc 4 182 2
 4590 1e99 4889C3   		movq	%rax, %rbx
 4591 1e9c E8000000 		call	__cxa_end_catch@PLT
 4591      00
 4592 1ea1 4889D8   		movq	%rbx, %rax
 4593 1ea4 4889C7   		movq	%rax, %rdi
 4594              	.LEHB170:
 4595 1ea7 E8000000 		call	_Unwind_Resume@PLT
 4595      00
 4596              	.LEHE170:
 4597              	.L219:
 4598              		.loc 4 184 1 is_stmt 1
 4599 1eac E8000000 		call	__stack_chk_fail@PLT
 4599      00
 4600              	.L214:
 4601 1eb1 488B5DF8 		movq	-8(%rbp), %rbx
 4602 1eb5 C9       		leave
 4603              		.cfi_def_cfa 7, 8
 4604 1eb6 C3       		ret
 4605              		.cfi_endproc
 4606              	.LFE1259:
 4607              		.section	.gcc_except_table
 4608              		.align 4
 4609              	.LLSDA1259:
 4610 03ac FF       		.byte	0xff
 4611 03ad 9B       		.byte	0x9b
 4612 03ae 41       		.uleb128 .LLSDATT1259-.LLSDATTD1259
 4613              	.LLSDATTD1259:
 4614 03af 01       		.byte	0x1
 4615 03b0 39       		.uleb128 .LLSDACSE1259-.LLSDACSB1259
 4616              	.LLSDACSB1259:
 4617 03b1 4E       		.uleb128 .LEHB160-.LFB1259
 4618 03b2 05       		.uleb128 .LEHE160-.LEHB160
 4619 03b3 00       		.uleb128 0
 4620 03b4 00       		.uleb128 0
 4621 03b5 56       		.uleb128 .LEHB161-.LFB1259
 4622 03b6 3F       		.uleb128 .LEHE161-.LEHB161
 4623 03b7 AE02     		.uleb128 .L215-.LFB1259
 4624 03b9 01       		.uleb128 0x1
 4625 03ba BE01     		.uleb128 .LEHB162-.LFB1259
 4626 03bc 05       		.uleb128 .LEHE162-.LEHB162
 4627 03bd 00       		.uleb128 0
 4628 03be 00       		.uleb128 0
 4629 03bf CA01     		.uleb128 .LEHB163-.LFB1259
 4630 03c1 3F       		.uleb128 .LEHE163-.LEHB163
 4631 03c2 9503     		.uleb128 .L217-.LFB1259
 4632 03c4 01       		.uleb128 0x1
 4633 03c5 9002     		.uleb128 .LEHB164-.LFB1259
 4634 03c7 05       		.uleb128 .LEHE164-.LEHB164
 4635 03c8 00       		.uleb128 0
 4636 03c9 00       		.uleb128 0
 4637 03ca BA02     		.uleb128 .LEHB165-.LFB1259
 4638 03cc 3A       		.uleb128 .LEHE165-.LEHB165
 4639 03cd FE02     		.uleb128 .L216-.LFB1259
 4640 03cf 00       		.uleb128 0
 4641 03d0 F402     		.uleb128 .LEHB166-.LFB1259
 4642 03d2 05       		.uleb128 .LEHE166-.LEHB166
 4643 03d3 00       		.uleb128 0
 4644 03d4 00       		.uleb128 0
 4645 03d5 9003     		.uleb128 .LEHB167-.LFB1259
 4646 03d7 05       		.uleb128 .LEHE167-.LEHB167
 4647 03d8 00       		.uleb128 0
 4648 03d9 00       		.uleb128 0
 4649 03da A103     		.uleb128 .LEHB168-.LFB1259
 4650 03dc 3A       		.uleb128 .LEHE168-.LEHB168
 4651 03dd E503     		.uleb128 .L218-.LFB1259
 4652 03df 00       		.uleb128 0
 4653 03e0 DB03     		.uleb128 .LEHB169-.LFB1259
 4654 03e2 05       		.uleb128 .LEHE169-.LEHB169
 4655 03e3 00       		.uleb128 0
 4656 03e4 00       		.uleb128 0
 4657 03e5 F703     		.uleb128 .LEHB170-.LFB1259
 4658 03e7 05       		.uleb128 .LEHE170-.LEHB170
 4659 03e8 00       		.uleb128 0
 4660 03e9 00       		.uleb128 0
 4661              	.LLSDACSE1259:
 4662 03ea 01       		.byte	0x1
 4663 03eb 00       		.byte	0
 4664              		.align 4
 4665 03ec 00000000 		.long	0
 4666              	
 4667              	.LLSDATT1259:
 4668              		.text
 4670              		.section	.rodata
 4671              	.LC43:
 4672 06b5 746D7046 		.string	"tmpFile.hex"
 4672      696C652E 
 4672      68657800 
 4673              	.LC44:
 4674 06c1 66696C65 		.string	"file.is_open()"
 4674      2E69735F 
 4674      6F70656E 
 4674      282900
 4675              		.align 8
 4676              	.LC45:
 4677 06d0 556E6861 		.string	"Unhandled exception in CHECK(file.is_open())"
 4677      6E646C65 
 4677      64206578 
 4677      63657074 
 4677      696F6E20 
 4678 06fd 000000   		.align 8
 4679              	.LC46:
 4680 0700 556E6861 		.string	"Unhandled exception in CHECK_EQUAL(expected.size(), (unsigned int)length)"
 4680      6E646C65 
 4680      64206578 
 4680      63657074 
 4680      696F6E20 
 4681 074a 00000000 		.align 8
 4681      0000
 4682              	.LC47:
 4683 0750 556E6861 		.string	"Unhandled exception in CHECK_ARRAY_EQUAL(expected.c_str(), (const char *)fileData)"
 4683      6E646C65 
 4683      64206578 
 4683      63657074 
 4683      696F6E20 
 4684 07a3 00000000 		.align 8
 4684      00
 4685              	.LC48:
 4686 07a8 556E6861 		.string	"Unhandled exception in CHECK_EQUAL(data.length, readbackData.length)"
 4686      6E646C65 
 4686      64206578 
 4686      63657074 
 4686      696F6E20 
 4687 07ed 000000   		.align 8
 4688              	.LC49:
 4689 07f0 556E6861 		.string	"Unhandled exception in CHECK_ARRAY_EQUAL(data.data, readbackData.data)"
 4689      6E646C65 
 4689      64206578 
 4689      63657074 
 4689      696F6E20 
 4690 0837 00       		.align 8
 4691              	.LC50:
 4692 0838 556E6861 		.string	"Unhandled exception in CHECK_EQUAL(mask.length, readbackMask.length)"
 4692      6E646C65 
 4692      64206578 
 4692      63657074 
 4692      696F6E20 
 4693 087d 000000   		.align 8
 4694              	.LC51:
 4695 0880 556E6861 		.string	"Unhandled exception in CHECK_ARRAY_EQUAL(mask.data, readbackMask.data)"
 4695      6E646C65 
 4695      64206578 
 4695      63657074 
 4695      696F6E20 
 4696              		.text
 4697              		.globl	_Z13testRoundTripPKcz
 4699              	_Z13testRoundTripPKcz:
 4700              	.LFB1260:
 185:testHexIO.cpp **** 
 186:testHexIO.cpp **** void testRoundTrip(const char *firstLine, ...) {
 4701              		.loc 4 186 48
 4702              		.cfi_startproc
 4703              		.cfi_personality 0x9b,DW.ref.__gxx_personality_v0
 4704              		.cfi_lsda 0x1b,.LLSDA1260
 4705 1eb7 F30F1EFA 		endbr64
 4706 1ebb 55       		pushq	%rbp
 4707              		.cfi_def_cfa_offset 16
 4708              		.cfi_offset 6, -16
 4709 1ebc 4889E5   		movq	%rsp, %rbp
 4710              		.cfi_def_cfa_register 6
 4711 1ebf 53       		pushq	%rbx
 4712 1ec0 4881ECF8 		subq	$1016, %rsp
 4712      030000
 4713              		.cfi_offset 3, -24
 4714 1ec7 4889BD08 		movq	%rdi, -1016(%rbp)
 4714      FCFFFF
 4715 1ece 4889B548 		movq	%rsi, -184(%rbp)
 4715      FFFFFF
 4716 1ed5 48899550 		movq	%rdx, -176(%rbp)
 4716      FFFFFF
 4717 1edc 48898D58 		movq	%rcx, -168(%rbp)
 4717      FFFFFF
 4718 1ee3 4C898560 		movq	%r8, -160(%rbp)
 4718      FFFFFF
 4719 1eea 4C898D68 		movq	%r9, -152(%rbp)
 4719      FFFFFF
 4720 1ef1 84C0     		testb	%al, %al
 4721 1ef3 7423     		je	.L221
 4722 1ef5 0F298570 		movaps	%xmm0, -144(%rbp)
 4722      FFFFFF
 4723 1efc 0F294D80 		movaps	%xmm1, -128(%rbp)
 4724 1f00 0F295590 		movaps	%xmm2, -112(%rbp)
 4725 1f04 0F295DA0 		movaps	%xmm3, -96(%rbp)
 4726 1f08 0F2965B0 		movaps	%xmm4, -80(%rbp)
 4727 1f0c 0F296DC0 		movaps	%xmm5, -64(%rbp)
 4728 1f10 0F2975D0 		movaps	%xmm6, -48(%rbp)
 4729 1f14 0F297DE0 		movaps	%xmm7, -32(%rbp)
 4730              	.L221:
 4731              		.loc 4 186 48
 4732 1f18 64488B04 		movq	%fs:40, %rax
 4732      25280000 
 4732      00
 4733 1f21 48898538 		movq	%rax, -200(%rbp)
 4733      FFFFFF
 4734 1f28 31C0     		xorl	%eax, %eax
 187:testHexIO.cpp **** 	const char *const FILENAME = "tmpFile.hex";
 4735              		.loc 4 187 20
 4736 1f2a 488D0500 		leaq	.LC43(%rip), %rax
 4736      000000
 4737 1f31 48898530 		movq	%rax, -976(%rbp)
 4737      FCFFFF
 188:testHexIO.cpp **** 	Buffer data, mask, readbackData, readbackMask;
 189:testHexIO.cpp **** 	BufferStatus status;
 190:testHexIO.cpp **** 	va_list vl;
 191:testHexIO.cpp **** 	const char *line;
 192:testHexIO.cpp **** 	string expected;
 4738              		.loc 4 192 9
 4739 1f38 488D8510 		leaq	-752(%rbp), %rax
 4739      FDFFFF
 4740 1f3f 4889C7   		movq	%rax, %rdi
 4741              	.LEHB171:
 4742 1f42 E8000000 		call	_ZNSt7__cxx1112basic_stringIcSt11char_traitsIcESaIcEEC1Ev@PLT
 4742      00
 4743              	.LEHE171:
 193:testHexIO.cpp **** 	uint8 recordType;
 194:testHexIO.cpp **** 	uint32 seg = 0x00000000;
 4744              		.loc 4 194 9
 4745 1f47 C78520FC 		movl	$0, -992(%rbp)
 4745      FFFF0000 
 4745      0000
 195:testHexIO.cpp **** 	status = bufInitialise(&data, 1024, 0x00, NULL);
 4746              		.loc 4 195 24
 4747 1f51 488D8540 		leaq	-960(%rbp), %rax
 4747      FCFFFF
 4748 1f58 B9000000 		movl	$0, %ecx
 4748      00
 4749 1f5d BA000000 		movl	$0, %edx
 4749      00
 4750 1f62 BE000400 		movl	$1024, %esi
 4750      00
 4751 1f67 4889C7   		movq	%rax, %rdi
 4752              	.LEHB172:
 4753 1f6a E8000000 		call	bufInitialise@PLT
 4753      00
 4754              	.LEHE172:
 4755              		.loc 4 195 9
 4756 1f6f 89851CFC 		movl	%eax, -996(%rbp)
 4756      FFFF
 4757              	.LEHB173:
 196:testHexIO.cpp **** 	CHECK_EQUAL(BUF_SUCCESS, status);
 4758              		.loc 4 196 2
 4759 1f75 E8000000 		call	_ZN8UnitTest11CurrentTest7DetailsEv@PLT
 4759      00
 4760              		.loc 4 196 2 is_stmt 0 discriminator 1
 4761 1f7a 488B08   		movq	(%rax), %rcx
 4762 1f7d 488D85C0 		leaq	-832(%rbp), %rax
 4762      FCFFFF
 4763 1f84 BAC40000 		movl	$196, %edx
 4763      00
 4764 1f89 4889CE   		movq	%rcx, %rsi
 4765 1f8c 4889C7   		movq	%rax, %rdi
 4766 1f8f E8000000 		call	_ZN8UnitTest11TestDetailsC1ERKS0_i@PLT
 4766      00
 4767              		.loc 4 196 2 discriminator 4
 4768 1f94 C785A0FC 		movl	$0, -864(%rbp)
 4768      FFFF0000 
 4768      0000
 4769 1f9e E8000000 		call	_ZN8UnitTest11CurrentTest7ResultsEv@PLT
 4769      00
 4770 1fa3 488B00   		movq	(%rax), %rax
 4771 1fa6 488D8DC0 		leaq	-832(%rbp), %rcx
 4771      FCFFFF
 4772 1fad 488D951C 		leaq	-996(%rbp), %rdx
 4772      FCFFFF
 4773 1fb4 488DB5A0 		leaq	-864(%rbp), %rsi
 4773      FCFFFF
 4774 1fbb 4889C7   		movq	%rax, %rdi
 4775 1fbe E8000000 		call	_ZN8UnitTest10CheckEqualI12BufferStatusS1_EEvRNS_11TestResultsERKT_RKT0_RKNS_11TestDetailsE
 4775      00
 4776              	.LEHE173:
 4777              	.L227:
 197:testHexIO.cpp **** 	status = bufInitialise(&mask, 1024, 0x00, NULL);
 4778              		.loc 4 197 24 is_stmt 1
 4779 1fc3 488D8560 		leaq	-928(%rbp), %rax
 4779      FCFFFF
 4780 1fca B9000000 		movl	$0, %ecx
 4780      00
 4781 1fcf BA000000 		movl	$0, %edx
 4781      00
 4782 1fd4 BE000400 		movl	$1024, %esi
 4782      00
 4783 1fd9 4889C7   		movq	%rax, %rdi
 4784              	.LEHB174:
 4785 1fdc E8000000 		call	bufInitialise@PLT
 4785      00
 4786              	.LEHE174:
 4787              		.loc 4 197 9
 4788 1fe1 89851CFC 		movl	%eax, -996(%rbp)
 4788      FFFF
 4789              	.LEHB175:
 198:testHexIO.cpp **** 	CHECK_EQUAL(BUF_SUCCESS, status);
 4790              		.loc 4 198 2
 4791 1fe7 E8000000 		call	_ZN8UnitTest11CurrentTest7DetailsEv@PLT
 4791      00
 4792              		.loc 4 198 2 is_stmt 0 discriminator 1
 4793 1fec 488B08   		movq	(%rax), %rcx
 4794 1fef 488D85C0 		leaq	-832(%rbp), %rax
 4794      FCFFFF
 4795 1ff6 BAC60000 		movl	$198, %edx
 4795      00
 4796 1ffb 4889CE   		movq	%rcx, %rsi
 4797 1ffe 4889C7   		movq	%rax, %rdi
 4798 2001 E8000000 		call	_ZN8UnitTest11TestDetailsC1ERKS0_i@PLT
 4798      00
 4799              		.loc 4 198 2 discriminator 4
 4800 2006 C785A0FC 		movl	$0, -864(%rbp)
 4800      FFFF0000 
 4800      0000
 4801 2010 E8000000 		call	_ZN8UnitTest11CurrentTest7ResultsEv@PLT
 4801      00
 4802 2015 488B00   		movq	(%rax), %rax
 4803 2018 488D8DC0 		leaq	-832(%rbp), %rcx
 4803      FCFFFF
 4804 201f 488D951C 		leaq	-996(%rbp), %rdx
 4804      FCFFFF
 4805 2026 488DB5A0 		leaq	-864(%rbp), %rsi
 4805      FCFFFF
 4806 202d 4889C7   		movq	%rax, %rdi
 4807 2030 E8000000 		call	_ZN8UnitTest10CheckEqualI12BufferStatusS1_EEvRNS_11TestResultsERKT_RKT0_RKNS_11TestDetailsE
 4807      00
 4808              	.LEHE175:
 4809              	.L231:
 199:testHexIO.cpp **** 	va_start(vl, firstLine);
 4810              		.loc 4 199 2 is_stmt 1
 4811 2035 C785F8FC 		movl	$8, -776(%rbp)
 4811      FFFF0800 
 4811      0000
 4812 203f C785FCFC 		movl	$48, -772(%rbp)
 4812      FFFF3000 
 4812      0000
 4813 2049 488D4510 		leaq	16(%rbp), %rax
 4814 204d 48898500 		movq	%rax, -768(%rbp)
 4814      FDFFFF
 4815 2054 488D8540 		leaq	-192(%rbp), %rax
 4815      FFFFFF
 4816 205b 48898508 		movq	%rax, -760(%rbp)
 4816      FDFFFF
 200:testHexIO.cpp **** 	line = firstLine;
 4817              		.loc 4 200 7
 4818 2062 488B8508 		movq	-1016(%rbp), %rax
 4818      FCFFFF
 4819 2069 48898528 		movq	%rax, -984(%rbp)
 4819      FCFFFF
 4820              	.L224:
 201:testHexIO.cpp **** 	do {
 202:testHexIO.cpp **** 		status = bufProcessLine(line, 0, &data, &mask, &seg, &recordType, NULL);
 4821              		.loc 4 202 26
 4822 2070 488DBD1B 		leaq	-997(%rbp), %rdi
 4822      FCFFFF
 4823 2077 488DB520 		leaq	-992(%rbp), %rsi
 4823      FCFFFF
 4824 207e 488D8D60 		leaq	-928(%rbp), %rcx
 4824      FCFFFF
 4825 2085 488D9540 		leaq	-960(%rbp), %rdx
 4825      FCFFFF
 4826 208c 488B8528 		movq	-984(%rbp), %rax
 4826      FCFFFF
 4827 2093 4883EC08 		subq	$8, %rsp
 4828 2097 6A00     		pushq	$0
 4829 2099 4989F9   		movq	%rdi, %r9
 4830 209c 4989F0   		movq	%rsi, %r8
 4831 209f BE000000 		movl	$0, %esi
 4831      00
 4832 20a4 4889C7   		movq	%rax, %rdi
 4833              	.LEHB176:
 4834              		.cfi_escape 0x2e,0x10
 4835 20a7 E8000000 		call	bufProcessLine@PLT
 4835      00
 4836              	.LEHE176:
 4837 20ac 4883C410 		addq	$16, %rsp
 4838              		.loc 4 202 10
 4839 20b0 89851CFC 		movl	%eax, -996(%rbp)
 4839      FFFF
 4840              	.LEHB177:
 4841              		.cfi_escape 0x2e,0
 203:testHexIO.cpp **** 		CHECK_EQUAL(BUF_SUCCESS, status);
 4842              		.loc 4 203 3
 4843 20b6 E8000000 		call	_ZN8UnitTest11CurrentTest7DetailsEv@PLT
 4843      00
 4844              		.loc 4 203 3 is_stmt 0 discriminator 1
 4845 20bb 488B08   		movq	(%rax), %rcx
 4846 20be 488D85C0 		leaq	-832(%rbp), %rax
 4846      FCFFFF
 4847 20c5 BACB0000 		movl	$203, %edx
 4847      00
 4848 20ca 4889CE   		movq	%rcx, %rsi
 4849 20cd 4889C7   		movq	%rax, %rdi
 4850 20d0 E8000000 		call	_ZN8UnitTest11TestDetailsC1ERKS0_i@PLT
 4850      00
 4851              		.loc 4 203 3 discriminator 4
 4852 20d5 C785A0FC 		movl	$0, -864(%rbp)
 4852      FFFF0000 
 4852      0000
 4853 20df E8000000 		call	_ZN8UnitTest11CurrentTest7ResultsEv@PLT
 4853      00
 4854 20e4 488B00   		movq	(%rax), %rax
 4855 20e7 488D8DC0 		leaq	-832(%rbp), %rcx
 4855      FCFFFF
 4856 20ee 488D951C 		leaq	-996(%rbp), %rdx
 4856      FCFFFF
 4857 20f5 488DB5A0 		leaq	-864(%rbp), %rsi
 4857      FCFFFF
 4858 20fc 4889C7   		movq	%rax, %rdi
 4859 20ff E8000000 		call	_ZN8UnitTest10CheckEqualI12BufferStatusS1_EEvRNS_11TestResultsERKT_RKT0_RKNS_11TestDetailsE
 4859      00
 4860              	.LEHE177:
 4861              	.L234:
 204:testHexIO.cpp **** 		expected += line;
 4862              		.loc 4 204 15 is_stmt 1
 4863 2104 488B9528 		movq	-984(%rbp), %rdx
 4863      FCFFFF
 4864 210b 488D8510 		leaq	-752(%rbp), %rax
 4864      FDFFFF
 4865 2112 4889D6   		movq	%rdx, %rsi
 4866 2115 4889C7   		movq	%rax, %rdi
 4867              	.LEHB178:
 4868 2118 E8000000 		call	_ZNSt7__cxx1112basic_stringIcSt11char_traitsIcESaIcEEpLEPKc@PLT
 4868      00
 205:testHexIO.cpp **** 		expected += '\n';
 4869              		.loc 4 205 15
 4870 211d 488D8510 		leaq	-752(%rbp), %rax
 4870      FDFFFF
 4871 2124 BE0A0000 		movl	$10, %esi
 4871      00
 4872 2129 4889C7   		movq	%rax, %rdi
 4873 212c E8000000 		call	_ZNSt7__cxx1112basic_stringIcSt11char_traitsIcESaIcEEpLEc@PLT
 4873      00
 206:testHexIO.cpp **** 		line = va_arg(vl, const char *);
 4874              		.loc 4 206 8
 4875 2131 8B85F8FC 		movl	-776(%rbp), %eax
 4875      FFFF
 4876 2137 83F82F   		cmpl	$47, %eax
 4877 213a 7723     		ja	.L222
 4878 213c 488B8508 		movq	-760(%rbp), %rax
 4878      FDFFFF
 4879 2143 8B95F8FC 		movl	-776(%rbp), %edx
 4879      FFFF
 4880 2149 89D2     		movl	%edx, %edx
 4881 214b 4801D0   		addq	%rdx, %rax
 4882 214e 8B95F8FC 		movl	-776(%rbp), %edx
 4882      FFFF
 4883 2154 83C208   		addl	$8, %edx
 4884 2157 8995F8FC 		movl	%edx, -776(%rbp)
 4884      FFFF
 4885 215d EB12     		jmp	.L223
 4886              	.L222:
 4887 215f 488B8500 		movq	-768(%rbp), %rax
 4887      FDFFFF
 4888 2166 488D5008 		leaq	8(%rax), %rdx
 4889 216a 48899500 		movq	%rdx, -768(%rbp)
 4889      FDFFFF
 4890              	.L223:
 4891 2171 488B00   		movq	(%rax), %rax
 4892 2174 48898528 		movq	%rax, -984(%rbp)
 4892      FCFFFF
 207:testHexIO.cpp **** 	} while ( line );
 4893              		.loc 4 207 12
 4894 217b 4883BD28 		cmpq	$0, -984(%rbp)
 4894      FCFFFF00 
 4895 2183 0F85E7FE 		jne	.L224
 4895      FFFF
 208:testHexIO.cpp **** 	expected += ":00000001FF\n";
 4896              		.loc 4 208 14
 4897 2189 488D8510 		leaq	-752(%rbp), %rax
 4897      FDFFFF
 4898 2190 488D1500 		leaq	.LC12(%rip), %rdx
 4898      000000
 4899 2197 4889D6   		movq	%rdx, %rsi
 4900 219a 4889C7   		movq	%rax, %rdi
 4901 219d E8000000 		call	_ZNSt7__cxx1112basic_stringIcSt11char_traitsIcESaIcEEpLEPKc@PLT
 4901      00
 209:testHexIO.cpp **** 	va_end(vl);
 210:testHexIO.cpp **** 	status = bufWriteToIntelHexFile(&data, &mask, FILENAME, 16, false, NULL);
 4902              		.loc 4 210 33
 4903 21a2 488DB560 		leaq	-928(%rbp), %rsi
 4903      FCFFFF
 4904 21a9 488D8540 		leaq	-960(%rbp), %rax
 4904      FCFFFF
 4905 21b0 41B90000 		movl	$0, %r9d
 4905      0000
 4906 21b6 41B80000 		movl	$0, %r8d
 4906      0000
 4907 21bc B9100000 		movl	$16, %ecx
 4907      00
 4908 21c1 488D1500 		leaq	.LC43(%rip), %rdx
 4908      000000
 4909 21c8 4889C7   		movq	%rax, %rdi
 4910 21cb E8000000 		call	bufWriteToIntelHexFile@PLT
 4910      00
 4911              	.LEHE178:
 4912              		.loc 4 210 9
 4913 21d0 89851CFC 		movl	%eax, -996(%rbp)
 4913      FFFF
 4914              	.LEHB179:
 211:testHexIO.cpp **** 	CHECK_EQUAL(BUF_SUCCESS, status);
 4915              		.loc 4 211 2
 4916 21d6 E8000000 		call	_ZN8UnitTest11CurrentTest7DetailsEv@PLT
 4916      00
 4917              		.loc 4 211 2 is_stmt 0 discriminator 1
 4918 21db 488B08   		movq	(%rax), %rcx
 4919 21de 488D85C0 		leaq	-832(%rbp), %rax
 4919      FCFFFF
 4920 21e5 BAD30000 		movl	$211, %edx
 4920      00
 4921 21ea 4889CE   		movq	%rcx, %rsi
 4922 21ed 4889C7   		movq	%rax, %rdi
 4923 21f0 E8000000 		call	_ZN8UnitTest11TestDetailsC1ERKS0_i@PLT
 4923      00
 4924              		.loc 4 211 2 discriminator 4
 4925 21f5 C785A0FC 		movl	$0, -864(%rbp)
 4925      FFFF0000 
 4925      0000
 4926 21ff E8000000 		call	_ZN8UnitTest11CurrentTest7ResultsEv@PLT
 4926      00
 4927 2204 488B00   		movq	(%rax), %rax
 4928 2207 488D8DC0 		leaq	-832(%rbp), %rcx
 4928      FCFFFF
 4929 220e 488D951C 		leaq	-996(%rbp), %rdx
 4929      FCFFFF
 4930 2215 488DB5A0 		leaq	-864(%rbp), %rsi
 4930      FCFFFF
 4931 221c 4889C7   		movq	%rax, %rdi
 4932 221f E8000000 		call	_ZN8UnitTest10CheckEqualI12BufferStatusS1_EEvRNS_11TestResultsERKT_RKT0_RKNS_11TestDetailsE
 4932      00
 4933              	.LEHE179:
 4934              	.L237:
 212:testHexIO.cpp **** 
 213:testHexIO.cpp **** 	ifstream file;
 4935              		.loc 4 213 11 is_stmt 1
 4936 2224 488D8530 		leaq	-720(%rbp), %rax
 4936      FDFFFF
 4937 222b 4889C7   		movq	%rax, %rdi
 4938              	.LEHB180:
 4939 222e E8000000 		call	_ZNSt14basic_ifstreamIcSt11char_traitsIcEEC1Ev@PLT
 4939      00
 4940              	.LEHE180:
 214:testHexIO.cpp **** 	ifstream::pos_type length;
 4941              		.loc 4 214 21
 4942 2233 488D85E0 		leaq	-800(%rbp), %rax
 4942      FCFFFF
 4943 223a 4889C7   		movq	%rax, %rdi
 4944 223d E8000000 		call	_ZNSt4fposI11__mbstate_tEC1Ev
 4944      00
 215:testHexIO.cpp **** 	file.open(FILENAME, ios::in|ios::ate);
 4945              		.loc 4 215 11
 4946 2242 BE020000 		movl	$2, %esi
 4946      00
 4947 2247 BF080000 		movl	$8, %edi
 4947      00
 4948 224c E8000000 		call	_ZStorSt13_Ios_OpenmodeS_
 4948      00
 4949 2251 89C2     		movl	%eax, %edx
 4950 2253 488D8530 		leaq	-720(%rbp), %rax
 4950      FDFFFF
 4951 225a 488D0D00 		leaq	.LC43(%rip), %rcx
 4951      000000
 4952 2261 4889CE   		movq	%rcx, %rsi
 4953 2264 4889C7   		movq	%rax, %rdi
 4954              	.LEHB181:
 4955 2267 E8000000 		call	_ZNSt14basic_ifstreamIcSt11char_traitsIcEE4openEPKcSt13_Ios_Openmode@PLT
 4955      00
 4956              	.LEHE181:
 216:testHexIO.cpp **** 	CHECK(file.is_open());
 4957              		.loc 4 216 2
 4958 226c 488D8530 		leaq	-720(%rbp), %rax
 4958      FDFFFF
 4959 2273 4889C7   		movq	%rax, %rdi
 4960 2276 E8000000 		call	_ZNSt14basic_ifstreamIcSt11char_traitsIcEE7is_openEv@PLT
 4960      00
 4961 227b 0FB6C0   		movzbl	%al, %eax
 4962 227e 89C7     		movl	%eax, %edi
 4963 2280 E8000000 		call	_ZN8UnitTest5CheckIbEEbT_
 4963      00
 4964 2285 83F001   		xorl	$1, %eax
 4965 2288 84C0     		testb	%al, %al
 4966 228a 7440     		je	.L225
 4967              	.LEHB182:
 4968              		.loc 4 216 2 is_stmt 0 discriminator 1
 4969 228c E8000000 		call	_ZN8UnitTest11CurrentTest7ResultsEv@PLT
 4969      00
 4970 2291 488B18   		movq	(%rax), %rbx
 4971 2294 E8000000 		call	_ZN8UnitTest11CurrentTest7DetailsEv@PLT
 4971      00
 4972              		.loc 4 216 2 discriminator 3
 4973 2299 488B08   		movq	(%rax), %rcx
 4974 229c 488D85C0 		leaq	-832(%rbp), %rax
 4974      FCFFFF
 4975 22a3 BAD80000 		movl	$216, %edx
 4975      00
 4976 22a8 4889CE   		movq	%rcx, %rsi
 4977 22ab 4889C7   		movq	%rax, %rdi
 4978 22ae E8000000 		call	_ZN8UnitTest11TestDetailsC1ERKS0_i@PLT
 4978      00
 4979              		.loc 4 216 2 discriminator 7
 4980 22b3 488D85C0 		leaq	-832(%rbp), %rax
 4980      FCFFFF
 4981 22ba 488D1500 		leaq	.LC44(%rip), %rdx
 4981      000000
 4982 22c1 4889C6   		movq	%rax, %rsi
 4983 22c4 4889DF   		movq	%rbx, %rdi
 4984 22c7 E8000000 		call	_ZN8UnitTest11TestResults13OnTestFailureERKNS_11TestDetailsEPKc@PLT
 4984      00
 4985              	.LEHE182:
 4986              	.L225:
 217:testHexIO.cpp **** 	length = file.tellg();
 4987              		.loc 4 217 21 is_stmt 1
 4988 22cc 488D8530 		leaq	-720(%rbp), %rax
 4988      FDFFFF
 4989 22d3 4889C7   		movq	%rax, %rdi
 4990              	.LEHB183:
 4991 22d6 E8000000 		call	_ZNSi5tellgEv@PLT
 4991      00
 4992              	.LEHE183:
 4993 22db 488985E0 		movq	%rax, -800(%rbp)
 4993      FCFFFF
 4994 22e2 488995E8 		movq	%rdx, -792(%rbp)
 4994      FCFFFF
 4995              	.LEHB184:
 218:testHexIO.cpp **** 	CHECK_EQUAL(expected.size(), (unsigned int)length);
 4996              		.loc 4 218 2
 4997 22e9 E8000000 		call	_ZN8UnitTest11CurrentTest7DetailsEv@PLT
 4997      00
 4998 22ee 488B08   		movq	(%rax), %rcx
 4999 22f1 488D85C0 		leaq	-832(%rbp), %rax
 4999      FCFFFF
 5000 22f8 BADA0000 		movl	$218, %edx
 5000      00
 5001 22fd 4889CE   		movq	%rcx, %rsi
 5002 2300 4889C7   		movq	%rax, %rdi
 5003 2303 E8000000 		call	_ZN8UnitTest11TestDetailsC1ERKS0_i@PLT
 5003      00
 5004              		.loc 4 218 2 is_stmt 0 discriminator 4
 5005 2308 488D85E0 		leaq	-800(%rbp), %rax
 5005      FCFFFF
 5006 230f 4889C7   		movq	%rax, %rdi
 5007 2312 E8000000 		call	_ZNKSt4fposI11__mbstate_tEcvlEv
 5007      00
 5008 2317 898580FC 		movl	%eax, -896(%rbp)
 5008      FFFF
 5009 231d 488D8510 		leaq	-752(%rbp), %rax
 5009      FDFFFF
 5010 2324 4889C7   		movq	%rax, %rdi
 5011 2327 E8000000 		call	_ZNKSt7__cxx1112basic_stringIcSt11char_traitsIcESaIcEE4sizeEv@PLT
 5011      00
 5012 232c 488985A0 		movq	%rax, -864(%rbp)
 5012      FCFFFF
 5013 2333 E8000000 		call	_ZN8UnitTest11CurrentTest7ResultsEv@PLT
 5013      00
 5014 2338 488B00   		movq	(%rax), %rax
 5015 233b 488D8DC0 		leaq	-832(%rbp), %rcx
 5015      FCFFFF
 5016 2342 488D9580 		leaq	-896(%rbp), %rdx
 5016      FCFFFF
 5017 2349 488DB5A0 		leaq	-864(%rbp), %rsi
 5017      FCFFFF
 5018 2350 4889C7   		movq	%rax, %rdi
 5019 2353 E8000000 		call	_ZN8UnitTest10CheckEqualImjEEvRNS_11TestResultsERKT_RKT0_RKNS_11TestDetailsE
 5019      00
 5020              	.LEHE184:
 5021              	.L243:
 219:testHexIO.cpp **** 	char *fileData = new char[(unsigned int)length];
 5022              		.loc 4 219 42 is_stmt 1
 5023 2358 488D85E0 		leaq	-800(%rbp), %rax
 5023      FCFFFF
 5024 235f 4889C7   		movq	%rax, %rdi
 5025 2362 E8000000 		call	_ZNKSt4fposI11__mbstate_tEcvlEv
 5025      00
 5026              		.loc 4 219 28
 5027 2367 89C0     		movl	%eax, %eax
 5028              		.loc 4 219 48
 5029 2369 4889C7   		movq	%rax, %rdi
 5030              	.LEHB185:
 5031 236c E8000000 		call	_Znam@PLT
 5031      00
 5032 2371 48898538 		movq	%rax, -968(%rbp)
 5032      FCFFFF
 220:testHexIO.cpp **** 	file.seekg(0, ios::beg);
 5033              		.loc 4 220 12
 5034 2378 488D8530 		leaq	-720(%rbp), %rax
 5034      FDFFFF
 5035 237f BA000000 		movl	$0, %edx
 5035      00
 5036 2384 BE000000 		movl	$0, %esi
 5036      00
 5037 2389 4889C7   		movq	%rax, %rdi
 5038 238c E8000000 		call	_ZNSi5seekgElSt12_Ios_Seekdir@PLT
 5038      00
 221:testHexIO.cpp **** 	file.read(fileData, length);
 5039              		.loc 4 221 11
 5040 2391 488D85E0 		leaq	-800(%rbp), %rax
 5040      FCFFFF
 5041 2398 4889C7   		movq	%rax, %rdi
 5042 239b E8000000 		call	_ZNKSt4fposI11__mbstate_tEcvlEv
 5042      00
 5043 23a0 4889C2   		movq	%rax, %rdx
 5044 23a3 488B8D38 		movq	-968(%rbp), %rcx
 5044      FCFFFF
 5045 23aa 488D8530 		leaq	-720(%rbp), %rax
 5045      FDFFFF
 5046 23b1 4889CE   		movq	%rcx, %rsi
 5047 23b4 4889C7   		movq	%rax, %rdi
 5048 23b7 E8000000 		call	_ZNSi4readEPcl@PLT
 5048      00
 222:testHexIO.cpp **** 	file.close();
 5049              		.loc 4 222 12
 5050 23bc 488D8530 		leaq	-720(%rbp), %rax
 5050      FDFFFF
 5051 23c3 4889C7   		movq	%rax, %rdi
 5052 23c6 E8000000 		call	_ZNSt14basic_ifstreamIcSt11char_traitsIcEE5closeEv@PLT
 5052      00
 5053              	.LEHE185:
 5054              	.LEHB186:
 223:testHexIO.cpp **** 	CHECK_ARRAY_EQUAL(expected.c_str(), (const char *)fileData, (int)length);
 5055              		.loc 4 223 2
 5056 23cb E8000000 		call	_ZN8UnitTest11CurrentTest7DetailsEv@PLT
 5056      00
 5057 23d0 488B08   		movq	(%rax), %rcx
 5058 23d3 488D85C0 		leaq	-832(%rbp), %rax
 5058      FCFFFF
 5059 23da BADF0000 		movl	$223, %edx
 5059      00
 5060 23df 4889CE   		movq	%rcx, %rsi
 5061 23e2 4889C7   		movq	%rax, %rdi
 5062 23e5 E8000000 		call	_ZN8UnitTest11TestDetailsC1ERKS0_i@PLT
 5062      00
 5063              		.loc 4 223 2 is_stmt 0 discriminator 4
 5064 23ea 488D85E0 		leaq	-800(%rbp), %rax
 5064      FCFFFF
 5065 23f1 4889C7   		movq	%rax, %rdi
 5066 23f4 E8000000 		call	_ZNKSt4fposI11__mbstate_tEcvlEv
 5066      00
 5067 23f9 89C3     		movl	%eax, %ebx
 5068 23fb 488B8538 		movq	-968(%rbp), %rax
 5068      FCFFFF
 5069 2402 488985A0 		movq	%rax, -864(%rbp)
 5069      FCFFFF
 5070 2409 488D8510 		leaq	-752(%rbp), %rax
 5070      FDFFFF
 5071 2410 4889C7   		movq	%rax, %rdi
 5072 2413 E8000000 		call	_ZNKSt7__cxx1112basic_stringIcSt11char_traitsIcESaIcEE5c_strEv@PLT
 5072      00
 5073 2418 48898580 		movq	%rax, -896(%rbp)
 5073      FCFFFF
 5074 241f E8000000 		call	_ZN8UnitTest11CurrentTest7ResultsEv@PLT
 5074      00
 5075              		.loc 4 223 2 discriminator 6
 5076 2424 488B00   		movq	(%rax), %rax
 5077 2427 488D8DC0 		leaq	-832(%rbp), %rcx
 5077      FCFFFF
 5078 242e 488D95A0 		leaq	-864(%rbp), %rdx
 5078      FCFFFF
 5079 2435 488DB580 		leaq	-896(%rbp), %rsi
 5079      FCFFFF
 5080 243c 4989C8   		movq	%rcx, %r8
 5081 243f 89D9     		movl	%ebx, %ecx
 5082 2441 4889C7   		movq	%rax, %rdi
 5083 2444 E8000000 		call	_ZN8UnitTest15CheckArrayEqualIPKcS2_EEvRNS_11TestResultsERKT_RKT0_iRKNS_11TestDetailsE
 5083      00
 5084              	.LEHE186:
 5085              	.L246:
 224:testHexIO.cpp **** 
 225:testHexIO.cpp **** 	status = bufInitialise(&readbackData, 1024, 0x00, NULL);
 5086              		.loc 4 225 24 is_stmt 1
 5087 2449 488D8580 		leaq	-896(%rbp), %rax
 5087      FCFFFF
 5088 2450 B9000000 		movl	$0, %ecx
 5088      00
 5089 2455 BA000000 		movl	$0, %edx
 5089      00
 5090 245a BE000400 		movl	$1024, %esi
 5090      00
 5091 245f 4889C7   		movq	%rax, %rdi
 5092              	.LEHB187:
 5093 2462 E8000000 		call	bufInitialise@PLT
 5093      00
 5094              	.LEHE187:
 5095              		.loc 4 225 9
 5096 2467 89851CFC 		movl	%eax, -996(%rbp)
 5096      FFFF
 5097              	.LEHB188:
 226:testHexIO.cpp **** 	CHECK_EQUAL(BUF_SUCCESS, status);
 5098              		.loc 4 226 2
 5099 246d E8000000 		call	_ZN8UnitTest11CurrentTest7DetailsEv@PLT
 5099      00
 5100              		.loc 4 226 2 is_stmt 0 discriminator 1
 5101 2472 488B08   		movq	(%rax), %rcx
 5102 2475 488D85C0 		leaq	-832(%rbp), %rax
 5102      FCFFFF
 5103 247c BAE20000 		movl	$226, %edx
 5103      00
 5104 2481 4889CE   		movq	%rcx, %rsi
 5105 2484 4889C7   		movq	%rax, %rdi
 5106 2487 E8000000 		call	_ZN8UnitTest11TestDetailsC1ERKS0_i@PLT
 5106      00
 5107              		.loc 4 226 2 discriminator 4
 5108 248c C785A0FC 		movl	$0, -864(%rbp)
 5108      FFFF0000 
 5108      0000
 5109 2496 E8000000 		call	_ZN8UnitTest11CurrentTest7ResultsEv@PLT
 5109      00
 5110 249b 488B00   		movq	(%rax), %rax
 5111 249e 488D8DC0 		leaq	-832(%rbp), %rcx
 5111      FCFFFF
 5112 24a5 488D951C 		leaq	-996(%rbp), %rdx
 5112      FCFFFF
 5113 24ac 488DB5A0 		leaq	-864(%rbp), %rsi
 5113      FCFFFF
 5114 24b3 4889C7   		movq	%rax, %rdi
 5115 24b6 E8000000 		call	_ZN8UnitTest10CheckEqualI12BufferStatusS1_EEvRNS_11TestResultsERKT_RKT0_RKNS_11TestDetailsE
 5115      00
 5116              	.LEHE188:
 5117              	.L249:
 227:testHexIO.cpp **** 	status = bufInitialise(&readbackMask, 1024, 0x00, NULL);
 5118              		.loc 4 227 24 is_stmt 1
 5119 24bb 488D85A0 		leaq	-864(%rbp), %rax
 5119      FCFFFF
 5120 24c2 B9000000 		movl	$0, %ecx
 5120      00
 5121 24c7 BA000000 		movl	$0, %edx
 5121      00
 5122 24cc BE000400 		movl	$1024, %esi
 5122      00
 5123 24d1 4889C7   		movq	%rax, %rdi
 5124              	.LEHB189:
 5125 24d4 E8000000 		call	bufInitialise@PLT
 5125      00
 5126              	.LEHE189:
 5127              		.loc 4 227 9
 5128 24d9 89851CFC 		movl	%eax, -996(%rbp)
 5128      FFFF
 5129              	.LEHB190:
 228:testHexIO.cpp **** 	CHECK_EQUAL(BUF_SUCCESS, status);
 5130              		.loc 4 228 2
 5131 24df E8000000 		call	_ZN8UnitTest11CurrentTest7DetailsEv@PLT
 5131      00
 5132              		.loc 4 228 2 is_stmt 0 discriminator 1
 5133 24e4 488B08   		movq	(%rax), %rcx
 5134 24e7 488D85C0 		leaq	-832(%rbp), %rax
 5134      FCFFFF
 5135 24ee BAE40000 		movl	$228, %edx
 5135      00
 5136 24f3 4889CE   		movq	%rcx, %rsi
 5137 24f6 4889C7   		movq	%rax, %rdi
 5138 24f9 E8000000 		call	_ZN8UnitTest11TestDetailsC1ERKS0_i@PLT
 5138      00
 5139              		.loc 4 228 2 discriminator 4
 5140 24fe C78524FC 		movl	$0, -988(%rbp)
 5140      FFFF0000 
 5140      0000
 5141 2508 E8000000 		call	_ZN8UnitTest11CurrentTest7ResultsEv@PLT
 5141      00
 5142 250d 488B00   		movq	(%rax), %rax
 5143 2510 488D8DC0 		leaq	-832(%rbp), %rcx
 5143      FCFFFF
 5144 2517 488D951C 		leaq	-996(%rbp), %rdx
 5144      FCFFFF
 5145 251e 488DB524 		leaq	-988(%rbp), %rsi
 5145      FCFFFF
 5146 2525 4889C7   		movq	%rax, %rdi
 5147 2528 E8000000 		call	_ZN8UnitTest10CheckEqualI12BufferStatusS1_EEvRNS_11TestResultsERKT_RKT0_RKNS_11TestDetailsE
 5147      00
 5148              	.LEHE190:
 5149              	.L252:
 229:testHexIO.cpp **** 	status = bufReadFromIntelHexFile(&readbackData, &readbackMask, FILENAME, NULL);
 5150              		.loc 4 229 34 is_stmt 1
 5151 252d 488DB5A0 		leaq	-864(%rbp), %rsi
 5151      FCFFFF
 5152 2534 488D8580 		leaq	-896(%rbp), %rax
 5152      FCFFFF
 5153 253b B9000000 		movl	$0, %ecx
 5153      00
 5154 2540 488D1500 		leaq	.LC43(%rip), %rdx
 5154      000000
 5155 2547 4889C7   		movq	%rax, %rdi
 5156              	.LEHB191:
 5157 254a E8000000 		call	bufReadFromIntelHexFile@PLT
 5157      00
 5158              	.LEHE191:
 5159              		.loc 4 229 9
 5160 254f 89851CFC 		movl	%eax, -996(%rbp)
 5160      FFFF
 5161              	.LEHB192:
 230:testHexIO.cpp **** 	CHECK_EQUAL(BUF_SUCCESS, status);
 5162              		.loc 4 230 2
 5163 2555 E8000000 		call	_ZN8UnitTest11CurrentTest7DetailsEv@PLT
 5163      00
 5164              		.loc 4 230 2 is_stmt 0 discriminator 1
 5165 255a 488B08   		movq	(%rax), %rcx
 5166 255d 488D85C0 		leaq	-832(%rbp), %rax
 5166      FCFFFF
 5167 2564 BAE60000 		movl	$230, %edx
 5167      00
 5168 2569 4889CE   		movq	%rcx, %rsi
 5169 256c 4889C7   		movq	%rax, %rdi
 5170 256f E8000000 		call	_ZN8UnitTest11TestDetailsC1ERKS0_i@PLT
 5170      00
 5171              		.loc 4 230 2 discriminator 4
 5172 2574 C78524FC 		movl	$0, -988(%rbp)
 5172      FFFF0000 
 5172      0000
 5173 257e E8000000 		call	_ZN8UnitTest11CurrentTest7ResultsEv@PLT
 5173      00
 5174 2583 488B00   		movq	(%rax), %rax
 5175 2586 488D8DC0 		leaq	-832(%rbp), %rcx
 5175      FCFFFF
 5176 258d 488D951C 		leaq	-996(%rbp), %rdx
 5176      FCFFFF
 5177 2594 488DB524 		leaq	-988(%rbp), %rsi
 5177      FCFFFF
 5178 259b 4889C7   		movq	%rax, %rdi
 5179 259e E8000000 		call	_ZN8UnitTest10CheckEqualI12BufferStatusS1_EEvRNS_11TestResultsERKT_RKT0_RKNS_11TestDetailsE
 5179      00
 5180              	.LEHE192:
 5181              	.L255:
 5182              	.LEHB193:
 231:testHexIO.cpp **** 	CHECK_EQUAL(data.length, readbackData.length);
 5183              		.loc 4 231 2 is_stmt 1
 5184 25a3 E8000000 		call	_ZN8UnitTest11CurrentTest7DetailsEv@PLT
 5184      00
 5185 25a8 488B08   		movq	(%rax), %rcx
 5186 25ab 488D85C0 		leaq	-832(%rbp), %rax
 5186      FCFFFF
 5187 25b2 BAE70000 		movl	$231, %edx
 5187      00
 5188 25b7 4889CE   		movq	%rcx, %rsi
 5189 25ba 4889C7   		movq	%rax, %rdi
 5190 25bd E8000000 		call	_ZN8UnitTest11TestDetailsC1ERKS0_i@PLT
 5190      00
 5191              		.loc 4 231 2 is_stmt 0 discriminator 4
 5192 25c2 E8000000 		call	_ZN8UnitTest11CurrentTest7ResultsEv@PLT
 5192      00
 5193 25c7 488B00   		movq	(%rax), %rax
 5194 25ca 488D95C0 		leaq	-832(%rbp), %rdx
 5194      FCFFFF
 5195 25d1 488D8D80 		leaq	-896(%rbp), %rcx
 5195      FCFFFF
 5196 25d8 488D7908 		leaq	8(%rcx), %rdi
 5197 25dc 488D8D40 		leaq	-960(%rbp), %rcx
 5197      FCFFFF
 5198 25e3 488D7108 		leaq	8(%rcx), %rsi
 5199 25e7 4889D1   		movq	%rdx, %rcx
 5200 25ea 4889FA   		movq	%rdi, %rdx
 5201 25ed 4889C7   		movq	%rax, %rdi
 5202 25f0 E8000000 		call	_ZN8UnitTest10CheckEqualIjjEEvRNS_11TestResultsERKT_RKT0_RKNS_11TestDetailsE
 5202      00
 5203              	.LEHE193:
 5204              	.L258:
 5205              	.LEHB194:
 232:testHexIO.cpp **** 	CHECK_ARRAY_EQUAL(data.data, readbackData.data, data.length);
 5206              		.loc 4 232 2 is_stmt 1
 5207 25f5 E8000000 		call	_ZN8UnitTest11CurrentTest7DetailsEv@PLT
 5207      00
 5208 25fa 488B08   		movq	(%rax), %rcx
 5209 25fd 488D85C0 		leaq	-832(%rbp), %rax
 5209      FCFFFF
 5210 2604 BAE80000 		movl	$232, %edx
 5210      00
 5211 2609 4889CE   		movq	%rcx, %rsi
 5212 260c 4889C7   		movq	%rax, %rdi
 5213 260f E8000000 		call	_ZN8UnitTest11TestDetailsC1ERKS0_i@PLT
 5213      00
 5214              		.loc 4 232 2 is_stmt 0 discriminator 4
 5215 2614 8B8548FC 		movl	-952(%rbp), %eax
 5215      FFFF
 5216 261a 89C3     		movl	%eax, %ebx
 5217 261c E8000000 		call	_ZN8UnitTest11CurrentTest7ResultsEv@PLT
 5217      00
 5218 2621 488B00   		movq	(%rax), %rax
 5219 2624 488D8DC0 		leaq	-832(%rbp), %rcx
 5219      FCFFFF
 5220 262b 488D9580 		leaq	-896(%rbp), %rdx
 5220      FCFFFF
 5221 2632 488DB540 		leaq	-960(%rbp), %rsi
 5221      FCFFFF
 5222 2639 4989C8   		movq	%rcx, %r8
 5223 263c 89D9     		movl	%ebx, %ecx
 5224 263e 4889C7   		movq	%rax, %rdi
 5225 2641 E8000000 		call	_ZN8UnitTest15CheckArrayEqualIPhS1_EEvRNS_11TestResultsERKT_RKT0_iRKNS_11TestDetailsE
 5225      00
 5226              	.LEHE194:
 5227              	.L261:
 5228              	.LEHB195:
 233:testHexIO.cpp **** 	CHECK_EQUAL(mask.length, readbackMask.length);
 5229              		.loc 4 233 2 is_stmt 1
 5230 2646 E8000000 		call	_ZN8UnitTest11CurrentTest7DetailsEv@PLT
 5230      00
 5231 264b 488B08   		movq	(%rax), %rcx
 5232 264e 488D85C0 		leaq	-832(%rbp), %rax
 5232      FCFFFF
 5233 2655 BAE90000 		movl	$233, %edx
 5233      00
 5234 265a 4889CE   		movq	%rcx, %rsi
 5235 265d 4889C7   		movq	%rax, %rdi
 5236 2660 E8000000 		call	_ZN8UnitTest11TestDetailsC1ERKS0_i@PLT
 5236      00
 5237              		.loc 4 233 2 is_stmt 0 discriminator 4
 5238 2665 E8000000 		call	_ZN8UnitTest11CurrentTest7ResultsEv@PLT
 5238      00
 5239 266a 488B00   		movq	(%rax), %rax
 5240 266d 488D95C0 		leaq	-832(%rbp), %rdx
 5240      FCFFFF
 5241 2674 488D8DA0 		leaq	-864(%rbp), %rcx
 5241      FCFFFF
 5242 267b 488D7908 		leaq	8(%rcx), %rdi
 5243 267f 488D8D60 		leaq	-928(%rbp), %rcx
 5243      FCFFFF
 5244 2686 488D7108 		leaq	8(%rcx), %rsi
 5245 268a 4889D1   		movq	%rdx, %rcx
 5246 268d 4889FA   		movq	%rdi, %rdx
 5247 2690 4889C7   		movq	%rax, %rdi
 5248 2693 E8000000 		call	_ZN8UnitTest10CheckEqualIjjEEvRNS_11TestResultsERKT_RKT0_RKNS_11TestDetailsE
 5248      00
 5249              	.LEHE195:
 5250              	.L264:
 5251              	.LEHB196:
 234:testHexIO.cpp **** 	CHECK_ARRAY_EQUAL(mask.data, readbackMask.data, mask.length);
 5252              		.loc 4 234 2 is_stmt 1
 5253 2698 E8000000 		call	_ZN8UnitTest11CurrentTest7DetailsEv@PLT
 5253      00
 5254 269d 488B08   		movq	(%rax), %rcx
 5255 26a0 488D85C0 		leaq	-832(%rbp), %rax
 5255      FCFFFF
 5256 26a7 BAEA0000 		movl	$234, %edx
 5256      00
 5257 26ac 4889CE   		movq	%rcx, %rsi
 5258 26af 4889C7   		movq	%rax, %rdi
 5259 26b2 E8000000 		call	_ZN8UnitTest11TestDetailsC1ERKS0_i@PLT
 5259      00
 5260              		.loc 4 234 2 is_stmt 0 discriminator 4
 5261 26b7 8B8568FC 		movl	-920(%rbp), %eax
 5261      FFFF
 5262 26bd 89C3     		movl	%eax, %ebx
 5263 26bf E8000000 		call	_ZN8UnitTest11CurrentTest7ResultsEv@PLT
 5263      00
 5264 26c4 488B00   		movq	(%rax), %rax
 5265 26c7 488D8DC0 		leaq	-832(%rbp), %rcx
 5265      FCFFFF
 5266 26ce 488D95A0 		leaq	-864(%rbp), %rdx
 5266      FCFFFF
 5267 26d5 488DB560 		leaq	-928(%rbp), %rsi
 5267      FCFFFF
 5268 26dc 4989C8   		movq	%rcx, %r8
 5269 26df 89D9     		movl	%ebx, %ecx
 5270 26e1 4889C7   		movq	%rax, %rdi
 5271 26e4 E8000000 		call	_ZN8UnitTest15CheckArrayEqualIPhS1_EEvRNS_11TestResultsERKT_RKT0_iRKNS_11TestDetailsE
 5271      00
 5272              	.LEHE196:
 5273              	.L267:
 235:testHexIO.cpp **** 	
 236:testHexIO.cpp **** 	bufDestroy(&readbackMask);
 5274              		.loc 4 236 12 is_stmt 1
 5275 26e9 488D85A0 		leaq	-864(%rbp), %rax
 5275      FCFFFF
 5276 26f0 4889C7   		movq	%rax, %rdi
 5277              	.LEHB197:
 5278 26f3 E8000000 		call	bufDestroy@PLT
 5278      00
 237:testHexIO.cpp **** 	bufDestroy(&readbackData);
 5279              		.loc 4 237 12
 5280 26f8 488D8580 		leaq	-896(%rbp), %rax
 5280      FCFFFF
 5281 26ff 4889C7   		movq	%rax, %rdi
 5282 2702 E8000000 		call	bufDestroy@PLT
 5282      00
 238:testHexIO.cpp **** 	bufDestroy(&mask);
 5283              		.loc 4 238 12
 5284 2707 488D8560 		leaq	-928(%rbp), %rax
 5284      FCFFFF
 5285 270e 4889C7   		movq	%rax, %rdi
 5286 2711 E8000000 		call	bufDestroy@PLT
 5286      00
 239:testHexIO.cpp **** 	bufDestroy(&data);
 5287              		.loc 4 239 12
 5288 2716 488D8540 		leaq	-960(%rbp), %rax
 5288      FCFFFF
 5289 271d 4889C7   		movq	%rax, %rdi
 5290 2720 E8000000 		call	bufDestroy@PLT
 5290      00
 5291              	.LEHE197:
 240:testHexIO.cpp **** }
 5292              		.loc 4 240 1
 5293 2725 488D8530 		leaq	-720(%rbp), %rax
 5293      FDFFFF
 5294 272c 4889C7   		movq	%rax, %rdi
 5295              	.LEHB198:
 5296 272f E8000000 		call	_ZNSt14basic_ifstreamIcSt11char_traitsIcEED1Ev@PLT
 5296      00
 5297              	.LEHE198:
 5298              		.loc 4 240 1 is_stmt 0 discriminator 2
 5299 2734 488D8510 		leaq	-752(%rbp), %rax
 5299      FDFFFF
 5300 273b 4889C7   		movq	%rax, %rdi
 5301              	.LEHB199:
 5302 273e E8000000 		call	_ZNSt7__cxx1112basic_stringIcSt11char_traitsIcESaIcEED1Ev@PLT
 5302      00
 5303              	.LEHE199:
 5304 2743 488B8538 		movq	-200(%rbp), %rax
 5304      FFFFFF
 5305 274a 64482B04 		subq	%fs:40, %rax
 5305      25280000 
 5305      00
 5306 2753 0F84DF05 		je	.L269
 5306      0000
 5307 2759 E9D50500 		jmp	.L300
 5307      00
 5308              	.L271:
 5309 275e F30F1EFA 		endbr64
 196:testHexIO.cpp **** 	status = bufInitialise(&mask, 1024, 0x00, NULL);
 5310              		.loc 4 196 2 is_stmt 1
 5311 2762 4889C7   		movq	%rax, %rdi
 5312 2765 E8000000 		call	__cxa_begin_catch@PLT
 5312      00
 5313              	.LEHB200:
 5314 276a E8000000 		call	_ZN8UnitTest11CurrentTest7ResultsEv@PLT
 5314      00
 196:testHexIO.cpp **** 	status = bufInitialise(&mask, 1024, 0x00, NULL);
 5315              		.loc 4 196 2 is_stmt 0 discriminator 3
 5316 276f 488B18   		movq	(%rax), %rbx
 5317 2772 E8000000 		call	_ZN8UnitTest11CurrentTest7DetailsEv@PLT
 5317      00
 196:testHexIO.cpp **** 	status = bufInitialise(&mask, 1024, 0x00, NULL);
 5318              		.loc 4 196 2 discriminator 11
 5319 2777 488B08   		movq	(%rax), %rcx
 5320 277a 488D85C0 		leaq	-832(%rbp), %rax
 5320      FCFFFF
 5321 2781 BAC40000 		movl	$196, %edx
 5321      00
 5322 2786 4889CE   		movq	%rcx, %rsi
 5323 2789 4889C7   		movq	%rax, %rdi
 5324 278c E8000000 		call	_ZN8UnitTest11TestDetailsC1ERKS0_i@PLT
 5324      00
 196:testHexIO.cpp **** 	status = bufInitialise(&mask, 1024, 0x00, NULL);
 5325              		.loc 4 196 2 discriminator 15
 5326 2791 488D85C0 		leaq	-832(%rbp), %rax
 5326      FCFFFF
 5327 2798 488D1500 		leaq	.LC4(%rip), %rdx
 5327      000000
 5328 279f 4889C6   		movq	%rax, %rsi
 5329 27a2 4889DF   		movq	%rbx, %rdi
 5330 27a5 E8000000 		call	_ZN8UnitTest11TestResults13OnTestFailureERKNS_11TestDetailsEPKc@PLT
 5330      00
 5331              	.LEHE200:
 5332              	.LEHB201:
 196:testHexIO.cpp **** 	status = bufInitialise(&mask, 1024, 0x00, NULL);
 5333              		.loc 4 196 2 discriminator 17
 5334 27aa E8000000 		call	__cxa_end_catch@PLT
 5334      00
 5335              	.LEHE201:
 196:testHexIO.cpp **** 	status = bufInitialise(&mask, 1024, 0x00, NULL);
 5336              		.loc 4 196 2
 5337 27af E90FF8FF 		jmp	.L227
 5337      FF
 5338              	.L272:
 5339 27b4 F30F1EFA 		endbr64
 5340 27b8 4889C3   		movq	%rax, %rbx
 5341 27bb E8000000 		call	__cxa_end_catch@PLT
 5341      00
 5342 27c0 E9540500 		jmp	.L229
 5342      00
 5343              	.L273:
 5344 27c5 F30F1EFA 		endbr64
 198:testHexIO.cpp **** 	va_start(vl, firstLine);
 5345              		.loc 4 198 2 is_stmt 1
 5346 27c9 4889C7   		movq	%rax, %rdi
 5347 27cc E8000000 		call	__cxa_begin_catch@PLT
 5347      00
 5348              	.LEHB202:
 5349 27d1 E8000000 		call	_ZN8UnitTest11CurrentTest7ResultsEv@PLT
 5349      00
 198:testHexIO.cpp **** 	va_start(vl, firstLine);
 5350              		.loc 4 198 2 is_stmt 0 discriminator 3
 5351 27d6 488B18   		movq	(%rax), %rbx
 5352 27d9 E8000000 		call	_ZN8UnitTest11CurrentTest7DetailsEv@PLT
 5352      00
 198:testHexIO.cpp **** 	va_start(vl, firstLine);
 5353              		.loc 4 198 2 discriminator 11
 5354 27de 488B08   		movq	(%rax), %rcx
 5355 27e1 488D85C0 		leaq	-832(%rbp), %rax
 5355      FCFFFF
 5356 27e8 BAC60000 		movl	$198, %edx
 5356      00
 5357 27ed 4889CE   		movq	%rcx, %rsi
 5358 27f0 4889C7   		movq	%rax, %rdi
 5359 27f3 E8000000 		call	_ZN8UnitTest11TestDetailsC1ERKS0_i@PLT
 5359      00
 198:testHexIO.cpp **** 	va_start(vl, firstLine);
 5360              		.loc 4 198 2 discriminator 15
 5361 27f8 488D85C0 		leaq	-832(%rbp), %rax
 5361      FCFFFF
 5362 27ff 488D1500 		leaq	.LC4(%rip), %rdx
 5362      000000
 5363 2806 4889C6   		movq	%rax, %rsi
 5364 2809 4889DF   		movq	%rbx, %rdi
 5365 280c E8000000 		call	_ZN8UnitTest11TestResults13OnTestFailureERKNS_11TestDetailsEPKc@PLT
 5365      00
 5366              	.LEHE202:
 5367              	.LEHB203:
 198:testHexIO.cpp **** 	va_start(vl, firstLine);
 5368              		.loc 4 198 2 discriminator 17
 5369 2811 E8000000 		call	__cxa_end_catch@PLT
 5369      00
 5370              	.LEHE203:
 198:testHexIO.cpp **** 	va_start(vl, firstLine);
 5371              		.loc 4 198 2
 5372 2816 E91AF8FF 		jmp	.L231
 5372      FF
 5373              	.L274:
 5374 281b F30F1EFA 		endbr64
 5375 281f 4889C3   		movq	%rax, %rbx
 5376 2822 E8000000 		call	__cxa_end_catch@PLT
 5376      00
 5377 2827 E9ED0400 		jmp	.L229
 5377      00
 5378              	.L275:
 5379 282c F30F1EFA 		endbr64
 203:testHexIO.cpp **** 		expected += line;
 5380              		.loc 4 203 3 is_stmt 1
 5381 2830 4889C7   		movq	%rax, %rdi
 5382 2833 E8000000 		call	__cxa_begin_catch@PLT
 5382      00
 5383              	.LEHB204:
 5384 2838 E8000000 		call	_ZN8UnitTest11CurrentTest7ResultsEv@PLT
 5384      00
 203:testHexIO.cpp **** 		expected += line;
 5385              		.loc 4 203 3 is_stmt 0 discriminator 3
 5386 283d 488B18   		movq	(%rax), %rbx
 5387 2840 E8000000 		call	_ZN8UnitTest11CurrentTest7DetailsEv@PLT
 5387      00
 203:testHexIO.cpp **** 		expected += line;
 5388              		.loc 4 203 3 discriminator 11
 5389 2845 488B08   		movq	(%rax), %rcx
 5390 2848 488D85C0 		leaq	-832(%rbp), %rax
 5390      FCFFFF
 5391 284f BACB0000 		movl	$203, %edx
 5391      00
 5392 2854 4889CE   		movq	%rcx, %rsi
 5393 2857 4889C7   		movq	%rax, %rdi
 5394 285a E8000000 		call	_ZN8UnitTest11TestDetailsC1ERKS0_i@PLT
 5394      00
 203:testHexIO.cpp **** 		expected += line;
 5395              		.loc 4 203 3 discriminator 15
 5396 285f 488D85C0 		leaq	-832(%rbp), %rax
 5396      FCFFFF
 5397 2866 488D1500 		leaq	.LC4(%rip), %rdx
 5397      000000
 5398 286d 4889C6   		movq	%rax, %rsi
 5399 2870 4889DF   		movq	%rbx, %rdi
 5400 2873 E8000000 		call	_ZN8UnitTest11TestResults13OnTestFailureERKNS_11TestDetailsEPKc@PLT
 5400      00
 5401              	.LEHE204:
 5402              	.LEHB205:
 203:testHexIO.cpp **** 		expected += line;
 5403              		.loc 4 203 3 discriminator 17
 5404 2878 E8000000 		call	__cxa_end_catch@PLT
 5404      00
 5405              	.LEHE205:
 203:testHexIO.cpp **** 		expected += line;
 5406              		.loc 4 203 3
 5407 287d E982F8FF 		jmp	.L234
 5407      FF
 5408              	.L276:
 5409 2882 F30F1EFA 		endbr64
 5410 2886 4889C3   		movq	%rax, %rbx
 5411 2889 E8000000 		call	__cxa_end_catch@PLT
 5411      00
 5412 288e E9860400 		jmp	.L229
 5412      00
 5413              	.L277:
 5414 2893 F30F1EFA 		endbr64
 211:testHexIO.cpp **** 
 5415              		.loc 4 211 2 is_stmt 1
 5416 2897 4889C7   		movq	%rax, %rdi
 5417 289a E8000000 		call	__cxa_begin_catch@PLT
 5417      00
 5418              	.LEHB206:
 5419 289f E8000000 		call	_ZN8UnitTest11CurrentTest7ResultsEv@PLT
 5419      00
 211:testHexIO.cpp **** 
 5420              		.loc 4 211 2 is_stmt 0 discriminator 3
 5421 28a4 488B18   		movq	(%rax), %rbx
 5422 28a7 E8000000 		call	_ZN8UnitTest11CurrentTest7DetailsEv@PLT
 5422      00
 211:testHexIO.cpp **** 
 5423              		.loc 4 211 2 discriminator 11
 5424 28ac 488B08   		movq	(%rax), %rcx
 5425 28af 488D85C0 		leaq	-832(%rbp), %rax
 5425      FCFFFF
 5426 28b6 BAD30000 		movl	$211, %edx
 5426      00
 5427 28bb 4889CE   		movq	%rcx, %rsi
 5428 28be 4889C7   		movq	%rax, %rdi
 5429 28c1 E8000000 		call	_ZN8UnitTest11TestDetailsC1ERKS0_i@PLT
 5429      00
 211:testHexIO.cpp **** 
 5430              		.loc 4 211 2 discriminator 15
 5431 28c6 488D85C0 		leaq	-832(%rbp), %rax
 5431      FCFFFF
 5432 28cd 488D1500 		leaq	.LC4(%rip), %rdx
 5432      000000
 5433 28d4 4889C6   		movq	%rax, %rsi
 5434 28d7 4889DF   		movq	%rbx, %rdi
 5435 28da E8000000 		call	_ZN8UnitTest11TestResults13OnTestFailureERKNS_11TestDetailsEPKc@PLT
 5435      00
 5436              	.LEHE206:
 5437              	.LEHB207:
 211:testHexIO.cpp **** 
 5438              		.loc 4 211 2 discriminator 17
 5439 28df E8000000 		call	__cxa_end_catch@PLT
 5439      00
 5440              	.LEHE207:
 211:testHexIO.cpp **** 
 5441              		.loc 4 211 2
 5442 28e4 E93BF9FF 		jmp	.L237
 5442      FF
 5443              	.L278:
 5444 28e9 F30F1EFA 		endbr64
 5445 28ed 4889C3   		movq	%rax, %rbx
 5446 28f0 E8000000 		call	__cxa_end_catch@PLT
 5446      00
 5447 28f5 E91F0400 		jmp	.L229
 5447      00
 5448              	.L280:
 5449 28fa F30F1EFA 		endbr64
 216:testHexIO.cpp **** 	length = file.tellg();
 5450              		.loc 4 216 2 is_stmt 1
 5451 28fe 4889C7   		movq	%rax, %rdi
 5452 2901 E8000000 		call	__cxa_begin_catch@PLT
 5452      00
 5453              	.LEHB208:
 5454 2906 E8000000 		call	_ZN8UnitTest11CurrentTest7ResultsEv@PLT
 5454      00
 216:testHexIO.cpp **** 	length = file.tellg();
 5455              		.loc 4 216 2 is_stmt 0 discriminator 2
 5456 290b 488B18   		movq	(%rax), %rbx
 5457 290e E8000000 		call	_ZN8UnitTest11CurrentTest7DetailsEv@PLT
 5457      00
 216:testHexIO.cpp **** 	length = file.tellg();
 5458              		.loc 4 216 2 discriminator 12
 5459 2913 488B08   		movq	(%rax), %rcx
 5460 2916 488D85C0 		leaq	-832(%rbp), %rax
 5460      FCFFFF
 5461 291d BAD80000 		movl	$216, %edx
 5461      00
 5462 2922 4889CE   		movq	%rcx, %rsi
 5463 2925 4889C7   		movq	%rax, %rdi
 5464 2928 E8000000 		call	_ZN8UnitTest11TestDetailsC1ERKS0_i@PLT
 5464      00
 216:testHexIO.cpp **** 	length = file.tellg();
 5465              		.loc 4 216 2 discriminator 16
 5466 292d 488D85C0 		leaq	-832(%rbp), %rax
 5466      FCFFFF
 5467 2934 488D1500 		leaq	.LC45(%rip), %rdx
 5467      000000
 5468 293b 4889C6   		movq	%rax, %rsi
 5469 293e 4889DF   		movq	%rbx, %rdi
 5470 2941 E8000000 		call	_ZN8UnitTest11TestResults13OnTestFailureERKNS_11TestDetailsEPKc@PLT
 5470      00
 5471              	.LEHE208:
 5472              	.LEHB209:
 216:testHexIO.cpp **** 	length = file.tellg();
 5473              		.loc 4 216 2 discriminator 18
 5474 2946 E8000000 		call	__cxa_end_catch@PLT
 5474      00
 5475              	.LEHE209:
 216:testHexIO.cpp **** 	length = file.tellg();
 5476              		.loc 4 216 2
 5477 294b E97CF9FF 		jmp	.L225
 5477      FF
 5478              	.L281:
 5479 2950 F30F1EFA 		endbr64
 5480 2954 4889C3   		movq	%rax, %rbx
 5481 2957 E8000000 		call	__cxa_end_catch@PLT
 5481      00
 5482 295c E9A00300 		jmp	.L241
 5482      00
 5483              	.L282:
 5484 2961 F30F1EFA 		endbr64
 218:testHexIO.cpp **** 	char *fileData = new char[(unsigned int)length];
 5485              		.loc 4 218 2 is_stmt 1
 5486 2965 4889C7   		movq	%rax, %rdi
 5487 2968 E8000000 		call	__cxa_begin_catch@PLT
 5487      00
 5488              	.LEHB210:
 5489 296d E8000000 		call	_ZN8UnitTest11CurrentTest7ResultsEv@PLT
 5489      00
 218:testHexIO.cpp **** 	char *fileData = new char[(unsigned int)length];
 5490              		.loc 4 218 2 is_stmt 0 discriminator 3
 5491 2972 488B18   		movq	(%rax), %rbx
 5492 2975 E8000000 		call	_ZN8UnitTest11CurrentTest7DetailsEv@PLT
 5492      00
 218:testHexIO.cpp **** 	char *fileData = new char[(unsigned int)length];
 5493              		.loc 4 218 2 discriminator 11
 5494 297a 488B08   		movq	(%rax), %rcx
 5495 297d 488D85C0 		leaq	-832(%rbp), %rax
 5495      FCFFFF
 5496 2984 BADA0000 		movl	$218, %edx
 5496      00
 5497 2989 4889CE   		movq	%rcx, %rsi
 5498 298c 4889C7   		movq	%rax, %rdi
 5499 298f E8000000 		call	_ZN8UnitTest11TestDetailsC1ERKS0_i@PLT
 5499      00
 218:testHexIO.cpp **** 	char *fileData = new char[(unsigned int)length];
 5500              		.loc 4 218 2 discriminator 15
 5501 2994 488D85C0 		leaq	-832(%rbp), %rax
 5501      FCFFFF
 5502 299b 488D1500 		leaq	.LC46(%rip), %rdx
 5502      000000
 5503 29a2 4889C6   		movq	%rax, %rsi
 5504 29a5 4889DF   		movq	%rbx, %rdi
 5505 29a8 E8000000 		call	_ZN8UnitTest11TestResults13OnTestFailureERKNS_11TestDetailsEPKc@PLT
 5505      00
 5506              	.LEHE210:
 5507              	.LEHB211:
 218:testHexIO.cpp **** 	char *fileData = new char[(unsigned int)length];
 5508              		.loc 4 218 2 discriminator 17
 5509 29ad E8000000 		call	__cxa_end_catch@PLT
 5509      00
 5510              	.LEHE211:
 218:testHexIO.cpp **** 	char *fileData = new char[(unsigned int)length];
 5511              		.loc 4 218 2
 5512 29b2 E9A1F9FF 		jmp	.L243
 5512      FF
 5513              	.L283:
 5514 29b7 F30F1EFA 		endbr64
 5515 29bb 4889C3   		movq	%rax, %rbx
 5516 29be E8000000 		call	__cxa_end_catch@PLT
 5516      00
 5517 29c3 E9390300 		jmp	.L241
 5517      00
 5518              	.L284:
 5519 29c8 F30F1EFA 		endbr64
 223:testHexIO.cpp **** 
 5520              		.loc 4 223 2 is_stmt 1
 5521 29cc 4889C7   		movq	%rax, %rdi
 5522 29cf E8000000 		call	__cxa_begin_catch@PLT
 5522      00
 5523              	.LEHB212:
 5524 29d4 E8000000 		call	_ZN8UnitTest11CurrentTest7ResultsEv@PLT
 5524      00
 223:testHexIO.cpp **** 
 5525              		.loc 4 223 2 is_stmt 0 discriminator 3
 5526 29d9 488B18   		movq	(%rax), %rbx
 5527 29dc E8000000 		call	_ZN8UnitTest11CurrentTest7DetailsEv@PLT
 5527      00
 223:testHexIO.cpp **** 
 5528              		.loc 4 223 2 discriminator 13
 5529 29e1 488B08   		movq	(%rax), %rcx
 5530 29e4 488D85C0 		leaq	-832(%rbp), %rax
 5530      FCFFFF
 5531 29eb BADF0000 		movl	$223, %edx
 5531      00
 5532 29f0 4889CE   		movq	%rcx, %rsi
 5533 29f3 4889C7   		movq	%rax, %rdi
 5534 29f6 E8000000 		call	_ZN8UnitTest11TestDetailsC1ERKS0_i@PLT
 5534      00
 223:testHexIO.cpp **** 
 5535              		.loc 4 223 2 discriminator 17
 5536 29fb 488D85C0 		leaq	-832(%rbp), %rax
 5536      FCFFFF
 5537 2a02 488D1500 		leaq	.LC47(%rip), %rdx
 5537      000000
 5538 2a09 4889C6   		movq	%rax, %rsi
 5539 2a0c 4889DF   		movq	%rbx, %rdi
 5540 2a0f E8000000 		call	_ZN8UnitTest11TestResults13OnTestFailureERKNS_11TestDetailsEPKc@PLT
 5540      00
 5541              	.LEHE212:
 5542              	.LEHB213:
 223:testHexIO.cpp **** 
 5543              		.loc 4 223 2 discriminator 19
 5544 2a14 E8000000 		call	__cxa_end_catch@PLT
 5544      00
 5545              	.LEHE213:
 223:testHexIO.cpp **** 
 5546              		.loc 4 223 2
 5547 2a19 E92BFAFF 		jmp	.L246
 5547      FF
 5548              	.L285:
 5549 2a1e F30F1EFA 		endbr64
 5550 2a22 4889C3   		movq	%rax, %rbx
 5551 2a25 E8000000 		call	__cxa_end_catch@PLT
 5551      00
 5552 2a2a E9D20200 		jmp	.L241
 5552      00
 5553              	.L286:
 5554 2a2f F30F1EFA 		endbr64
 226:testHexIO.cpp **** 	status = bufInitialise(&readbackMask, 1024, 0x00, NULL);
 5555              		.loc 4 226 2 is_stmt 1
 5556 2a33 4889C7   		movq	%rax, %rdi
 5557 2a36 E8000000 		call	__cxa_begin_catch@PLT
 5557      00
 5558              	.LEHB214:
 5559 2a3b E8000000 		call	_ZN8UnitTest11CurrentTest7ResultsEv@PLT
 5559      00
 226:testHexIO.cpp **** 	status = bufInitialise(&readbackMask, 1024, 0x00, NULL);
 5560              		.loc 4 226 2 is_stmt 0 discriminator 3
 5561 2a40 488B18   		movq	(%rax), %rbx
 5562 2a43 E8000000 		call	_ZN8UnitTest11CurrentTest7DetailsEv@PLT
 5562      00
 226:testHexIO.cpp **** 	status = bufInitialise(&readbackMask, 1024, 0x00, NULL);
 5563              		.loc 4 226 2 discriminator 11
 5564 2a48 488B08   		movq	(%rax), %rcx
 5565 2a4b 488D85C0 		leaq	-832(%rbp), %rax
 5565      FCFFFF
 5566 2a52 BAE20000 		movl	$226, %edx
 5566      00
 5567 2a57 4889CE   		movq	%rcx, %rsi
 5568 2a5a 4889C7   		movq	%rax, %rdi
 5569 2a5d E8000000 		call	_ZN8UnitTest11TestDetailsC1ERKS0_i@PLT
 5569      00
 226:testHexIO.cpp **** 	status = bufInitialise(&readbackMask, 1024, 0x00, NULL);
 5570              		.loc 4 226 2 discriminator 15
 5571 2a62 488D85C0 		leaq	-832(%rbp), %rax
 5571      FCFFFF
 5572 2a69 488D1500 		leaq	.LC4(%rip), %rdx
 5572      000000
 5573 2a70 4889C6   		movq	%rax, %rsi
 5574 2a73 4889DF   		movq	%rbx, %rdi
 5575 2a76 E8000000 		call	_ZN8UnitTest11TestResults13OnTestFailureERKNS_11TestDetailsEPKc@PLT
 5575      00
 5576              	.LEHE214:
 5577              	.LEHB215:
 226:testHexIO.cpp **** 	status = bufInitialise(&readbackMask, 1024, 0x00, NULL);
 5578              		.loc 4 226 2 discriminator 17
 5579 2a7b E8000000 		call	__cxa_end_catch@PLT
 5579      00
 5580              	.LEHE215:
 226:testHexIO.cpp **** 	status = bufInitialise(&readbackMask, 1024, 0x00, NULL);
 5581              		.loc 4 226 2
 5582 2a80 E936FAFF 		jmp	.L249
 5582      FF
 5583              	.L287:
 5584 2a85 F30F1EFA 		endbr64
 5585 2a89 4889C3   		movq	%rax, %rbx
 5586 2a8c E8000000 		call	__cxa_end_catch@PLT
 5586      00
 5587 2a91 E96B0200 		jmp	.L241
 5587      00
 5588              	.L288:
 5589 2a96 F30F1EFA 		endbr64
 228:testHexIO.cpp **** 	status = bufReadFromIntelHexFile(&readbackData, &readbackMask, FILENAME, NULL);
 5590              		.loc 4 228 2 is_stmt 1
 5591 2a9a 4889C7   		movq	%rax, %rdi
 5592 2a9d E8000000 		call	__cxa_begin_catch@PLT
 5592      00
 5593              	.LEHB216:
 5594 2aa2 E8000000 		call	_ZN8UnitTest11CurrentTest7ResultsEv@PLT
 5594      00
 228:testHexIO.cpp **** 	status = bufReadFromIntelHexFile(&readbackData, &readbackMask, FILENAME, NULL);
 5595              		.loc 4 228 2 is_stmt 0 discriminator 3
 5596 2aa7 488B18   		movq	(%rax), %rbx
 5597 2aaa E8000000 		call	_ZN8UnitTest11CurrentTest7DetailsEv@PLT
 5597      00
 228:testHexIO.cpp **** 	status = bufReadFromIntelHexFile(&readbackData, &readbackMask, FILENAME, NULL);
 5598              		.loc 4 228 2 discriminator 11
 5599 2aaf 488B08   		movq	(%rax), %rcx
 5600 2ab2 488D85C0 		leaq	-832(%rbp), %rax
 5600      FCFFFF
 5601 2ab9 BAE40000 		movl	$228, %edx
 5601      00
 5602 2abe 4889CE   		movq	%rcx, %rsi
 5603 2ac1 4889C7   		movq	%rax, %rdi
 5604 2ac4 E8000000 		call	_ZN8UnitTest11TestDetailsC1ERKS0_i@PLT
 5604      00
 228:testHexIO.cpp **** 	status = bufReadFromIntelHexFile(&readbackData, &readbackMask, FILENAME, NULL);
 5605              		.loc 4 228 2 discriminator 15
 5606 2ac9 488D85C0 		leaq	-832(%rbp), %rax
 5606      FCFFFF
 5607 2ad0 488D1500 		leaq	.LC4(%rip), %rdx
 5607      000000
 5608 2ad7 4889C6   		movq	%rax, %rsi
 5609 2ada 4889DF   		movq	%rbx, %rdi
 5610 2add E8000000 		call	_ZN8UnitTest11TestResults13OnTestFailureERKNS_11TestDetailsEPKc@PLT
 5610      00
 5611              	.LEHE216:
 5612              	.LEHB217:
 228:testHexIO.cpp **** 	status = bufReadFromIntelHexFile(&readbackData, &readbackMask, FILENAME, NULL);
 5613              		.loc 4 228 2 discriminator 17
 5614 2ae2 E8000000 		call	__cxa_end_catch@PLT
 5614      00
 5615              	.LEHE217:
 228:testHexIO.cpp **** 	status = bufReadFromIntelHexFile(&readbackData, &readbackMask, FILENAME, NULL);
 5616              		.loc 4 228 2
 5617 2ae7 E941FAFF 		jmp	.L252
 5617      FF
 5618              	.L289:
 5619 2aec F30F1EFA 		endbr64
 5620 2af0 4889C3   		movq	%rax, %rbx
 5621 2af3 E8000000 		call	__cxa_end_catch@PLT
 5621      00
 5622 2af8 E9040200 		jmp	.L241
 5622      00
 5623              	.L290:
 5624 2afd F30F1EFA 		endbr64
 230:testHexIO.cpp **** 	CHECK_EQUAL(data.length, readbackData.length);
 5625              		.loc 4 230 2 is_stmt 1
 5626 2b01 4889C7   		movq	%rax, %rdi
 5627 2b04 E8000000 		call	__cxa_begin_catch@PLT
 5627      00
 5628              	.LEHB218:
 5629 2b09 E8000000 		call	_ZN8UnitTest11CurrentTest7ResultsEv@PLT
 5629      00
 230:testHexIO.cpp **** 	CHECK_EQUAL(data.length, readbackData.length);
 5630              		.loc 4 230 2 is_stmt 0 discriminator 3
 5631 2b0e 488B18   		movq	(%rax), %rbx
 5632 2b11 E8000000 		call	_ZN8UnitTest11CurrentTest7DetailsEv@PLT
 5632      00
 230:testHexIO.cpp **** 	CHECK_EQUAL(data.length, readbackData.length);
 5633              		.loc 4 230 2 discriminator 11
 5634 2b16 488B08   		movq	(%rax), %rcx
 5635 2b19 488D85C0 		leaq	-832(%rbp), %rax
 5635      FCFFFF
 5636 2b20 BAE60000 		movl	$230, %edx
 5636      00
 5637 2b25 4889CE   		movq	%rcx, %rsi
 5638 2b28 4889C7   		movq	%rax, %rdi
 5639 2b2b E8000000 		call	_ZN8UnitTest11TestDetailsC1ERKS0_i@PLT
 5639      00
 230:testHexIO.cpp **** 	CHECK_EQUAL(data.length, readbackData.length);
 5640              		.loc 4 230 2 discriminator 15
 5641 2b30 488D85C0 		leaq	-832(%rbp), %rax
 5641      FCFFFF
 5642 2b37 488D1500 		leaq	.LC4(%rip), %rdx
 5642      000000
 5643 2b3e 4889C6   		movq	%rax, %rsi
 5644 2b41 4889DF   		movq	%rbx, %rdi
 5645 2b44 E8000000 		call	_ZN8UnitTest11TestResults13OnTestFailureERKNS_11TestDetailsEPKc@PLT
 5645      00
 5646              	.LEHE218:
 5647              	.LEHB219:
 230:testHexIO.cpp **** 	CHECK_EQUAL(data.length, readbackData.length);
 5648              		.loc 4 230 2 discriminator 17
 5649 2b49 E8000000 		call	__cxa_end_catch@PLT
 5649      00
 5650              	.LEHE219:
 230:testHexIO.cpp **** 	CHECK_EQUAL(data.length, readbackData.length);
 5651              		.loc 4 230 2
 5652 2b4e E950FAFF 		jmp	.L255
 5652      FF
 5653              	.L291:
 5654 2b53 F30F1EFA 		endbr64
 5655 2b57 4889C3   		movq	%rax, %rbx
 5656 2b5a E8000000 		call	__cxa_end_catch@PLT
 5656      00
 5657 2b5f E99D0100 		jmp	.L241
 5657      00
 5658              	.L292:
 5659 2b64 F30F1EFA 		endbr64
 231:testHexIO.cpp **** 	CHECK_ARRAY_EQUAL(data.data, readbackData.data, data.length);
 5660              		.loc 4 231 2 is_stmt 1
 5661 2b68 4889C7   		movq	%rax, %rdi
 5662 2b6b E8000000 		call	__cxa_begin_catch@PLT
 5662      00
 5663              	.LEHB220:
 5664 2b70 E8000000 		call	_ZN8UnitTest11CurrentTest7ResultsEv@PLT
 5664      00
 231:testHexIO.cpp **** 	CHECK_ARRAY_EQUAL(data.data, readbackData.data, data.length);
 5665              		.loc 4 231 2 is_stmt 0 discriminator 7
 5666 2b75 488B18   		movq	(%rax), %rbx
 5667 2b78 E8000000 		call	_ZN8UnitTest11CurrentTest7DetailsEv@PLT
 5667      00
 231:testHexIO.cpp **** 	CHECK_ARRAY_EQUAL(data.data, readbackData.data, data.length);
 5668              		.loc 4 231 2 discriminator 11
 5669 2b7d 488B08   		movq	(%rax), %rcx
 5670 2b80 488D85C0 		leaq	-832(%rbp), %rax
 5670      FCFFFF
 5671 2b87 BAE70000 		movl	$231, %edx
 5671      00
 5672 2b8c 4889CE   		movq	%rcx, %rsi
 5673 2b8f 4889C7   		movq	%rax, %rdi
 5674 2b92 E8000000 		call	_ZN8UnitTest11TestDetailsC1ERKS0_i@PLT
 5674      00
 231:testHexIO.cpp **** 	CHECK_ARRAY_EQUAL(data.data, readbackData.data, data.length);
 5675              		.loc 4 231 2 discriminator 15
 5676 2b97 488D85C0 		leaq	-832(%rbp), %rax
 5676      FCFFFF
 5677 2b9e 488D1500 		leaq	.LC48(%rip), %rdx
 5677      000000
 5678 2ba5 4889C6   		movq	%rax, %rsi
 5679 2ba8 4889DF   		movq	%rbx, %rdi
 5680 2bab E8000000 		call	_ZN8UnitTest11TestResults13OnTestFailureERKNS_11TestDetailsEPKc@PLT
 5680      00
 5681              	.LEHE220:
 5682              	.LEHB221:
 231:testHexIO.cpp **** 	CHECK_ARRAY_EQUAL(data.data, readbackData.data, data.length);
 5683              		.loc 4 231 2 discriminator 17
 5684 2bb0 E8000000 		call	__cxa_end_catch@PLT
 5684      00
 5685              	.LEHE221:
 231:testHexIO.cpp **** 	CHECK_ARRAY_EQUAL(data.data, readbackData.data, data.length);
 5686              		.loc 4 231 2
 5687 2bb5 E93BFAFF 		jmp	.L258
 5687      FF
 5688              	.L293:
 5689 2bba F30F1EFA 		endbr64
 5690 2bbe 4889C3   		movq	%rax, %rbx
 5691 2bc1 E8000000 		call	__cxa_end_catch@PLT
 5691      00
 5692 2bc6 E9360100 		jmp	.L241
 5692      00
 5693              	.L294:
 5694 2bcb F30F1EFA 		endbr64
 232:testHexIO.cpp **** 	CHECK_EQUAL(mask.length, readbackMask.length);
 5695              		.loc 4 232 2 is_stmt 1
 5696 2bcf 4889C7   		movq	%rax, %rdi
 5697 2bd2 E8000000 		call	__cxa_begin_catch@PLT
 5697      00
 5698              	.LEHB222:
 5699 2bd7 E8000000 		call	_ZN8UnitTest11CurrentTest7ResultsEv@PLT
 5699      00
 232:testHexIO.cpp **** 	CHECK_EQUAL(mask.length, readbackMask.length);
 5700              		.loc 4 232 2 is_stmt 0 discriminator 7
 5701 2bdc 488B18   		movq	(%rax), %rbx
 5702 2bdf E8000000 		call	_ZN8UnitTest11CurrentTest7DetailsEv@PLT
 5702      00
 232:testHexIO.cpp **** 	CHECK_EQUAL(mask.length, readbackMask.length);
 5703              		.loc 4 232 2 discriminator 11
 5704 2be4 488B08   		movq	(%rax), %rcx
 5705 2be7 488D85C0 		leaq	-832(%rbp), %rax
 5705      FCFFFF
 5706 2bee BAE80000 		movl	$232, %edx
 5706      00
 5707 2bf3 4889CE   		movq	%rcx, %rsi
 5708 2bf6 4889C7   		movq	%rax, %rdi
 5709 2bf9 E8000000 		call	_ZN8UnitTest11TestDetailsC1ERKS0_i@PLT
 5709      00
 232:testHexIO.cpp **** 	CHECK_EQUAL(mask.length, readbackMask.length);
 5710              		.loc 4 232 2 discriminator 15
 5711 2bfe 488D85C0 		leaq	-832(%rbp), %rax
 5711      FCFFFF
 5712 2c05 488D1500 		leaq	.LC49(%rip), %rdx
 5712      000000
 5713 2c0c 4889C6   		movq	%rax, %rsi
 5714 2c0f 4889DF   		movq	%rbx, %rdi
 5715 2c12 E8000000 		call	_ZN8UnitTest11TestResults13OnTestFailureERKNS_11TestDetailsEPKc@PLT
 5715      00
 5716              	.LEHE222:
 5717              	.LEHB223:
 232:testHexIO.cpp **** 	CHECK_EQUAL(mask.length, readbackMask.length);
 5718              		.loc 4 232 2 discriminator 17
 5719 2c17 E8000000 		call	__cxa_end_catch@PLT
 5719      00
 5720              	.LEHE223:
 232:testHexIO.cpp **** 	CHECK_EQUAL(mask.length, readbackMask.length);
 5721              		.loc 4 232 2
 5722 2c1c E925FAFF 		jmp	.L261
 5722      FF
 5723              	.L295:
 5724 2c21 F30F1EFA 		endbr64
 5725 2c25 4889C3   		movq	%rax, %rbx
 5726 2c28 E8000000 		call	__cxa_end_catch@PLT
 5726      00
 5727 2c2d E9CF0000 		jmp	.L241
 5727      00
 5728              	.L296:
 5729 2c32 F30F1EFA 		endbr64
 233:testHexIO.cpp **** 	CHECK_ARRAY_EQUAL(mask.data, readbackMask.data, mask.length);
 5730              		.loc 4 233 2 is_stmt 1
 5731 2c36 4889C7   		movq	%rax, %rdi
 5732 2c39 E8000000 		call	__cxa_begin_catch@PLT
 5732      00
 5733              	.LEHB224:
 5734 2c3e E8000000 		call	_ZN8UnitTest11CurrentTest7ResultsEv@PLT
 5734      00
 233:testHexIO.cpp **** 	CHECK_ARRAY_EQUAL(mask.data, readbackMask.data, mask.length);
 5735              		.loc 4 233 2 is_stmt 0 discriminator 7
 5736 2c43 488B18   		movq	(%rax), %rbx
 5737 2c46 E8000000 		call	_ZN8UnitTest11CurrentTest7DetailsEv@PLT
 5737      00
 233:testHexIO.cpp **** 	CHECK_ARRAY_EQUAL(mask.data, readbackMask.data, mask.length);
 5738              		.loc 4 233 2 discriminator 11
 5739 2c4b 488B08   		movq	(%rax), %rcx
 5740 2c4e 488D85C0 		leaq	-832(%rbp), %rax
 5740      FCFFFF
 5741 2c55 BAE90000 		movl	$233, %edx
 5741      00
 5742 2c5a 4889CE   		movq	%rcx, %rsi
 5743 2c5d 4889C7   		movq	%rax, %rdi
 5744 2c60 E8000000 		call	_ZN8UnitTest11TestDetailsC1ERKS0_i@PLT
 5744      00
 233:testHexIO.cpp **** 	CHECK_ARRAY_EQUAL(mask.data, readbackMask.data, mask.length);
 5745              		.loc 4 233 2 discriminator 15
 5746 2c65 488D85C0 		leaq	-832(%rbp), %rax
 5746      FCFFFF
 5747 2c6c 488D1500 		leaq	.LC50(%rip), %rdx
 5747      000000
 5748 2c73 4889C6   		movq	%rax, %rsi
 5749 2c76 4889DF   		movq	%rbx, %rdi
 5750 2c79 E8000000 		call	_ZN8UnitTest11TestResults13OnTestFailureERKNS_11TestDetailsEPKc@PLT
 5750      00
 5751              	.LEHE224:
 5752              	.LEHB225:
 233:testHexIO.cpp **** 	CHECK_ARRAY_EQUAL(mask.data, readbackMask.data, mask.length);
 5753              		.loc 4 233 2 discriminator 17
 5754 2c7e E8000000 		call	__cxa_end_catch@PLT
 5754      00
 5755              	.LEHE225:
 233:testHexIO.cpp **** 	CHECK_ARRAY_EQUAL(mask.data, readbackMask.data, mask.length);
 5756              		.loc 4 233 2
 5757 2c83 E910FAFF 		jmp	.L264
 5757      FF
 5758              	.L297:
 5759 2c88 F30F1EFA 		endbr64
 5760 2c8c 4889C3   		movq	%rax, %rbx
 5761 2c8f E8000000 		call	__cxa_end_catch@PLT
 5761      00
 5762 2c94 EB6B     		jmp	.L241
 5763              	.L298:
 5764 2c96 F30F1EFA 		endbr64
 234:testHexIO.cpp **** 	
 5765              		.loc 4 234 2 is_stmt 1
 5766 2c9a 4889C7   		movq	%rax, %rdi
 5767 2c9d E8000000 		call	__cxa_begin_catch@PLT
 5767      00
 5768              	.LEHB226:
 5769 2ca2 E8000000 		call	_ZN8UnitTest11CurrentTest7ResultsEv@PLT
 5769      00
 234:testHexIO.cpp **** 	
 5770              		.loc 4 234 2 is_stmt 0 discriminator 7
 5771 2ca7 488B18   		movq	(%rax), %rbx
 5772 2caa E8000000 		call	_ZN8UnitTest11CurrentTest7DetailsEv@PLT
 5772      00
 234:testHexIO.cpp **** 	
 5773              		.loc 4 234 2 discriminator 11
 5774 2caf 488B08   		movq	(%rax), %rcx
 5775 2cb2 488D85C0 		leaq	-832(%rbp), %rax
 5775      FCFFFF
 5776 2cb9 BAEA0000 		movl	$234, %edx
 5776      00
 5777 2cbe 4889CE   		movq	%rcx, %rsi
 5778 2cc1 4889C7   		movq	%rax, %rdi
 5779 2cc4 E8000000 		call	_ZN8UnitTest11TestDetailsC1ERKS0_i@PLT
 5779      00
 234:testHexIO.cpp **** 	
 5780              		.loc 4 234 2 discriminator 15
 5781 2cc9 488D85C0 		leaq	-832(%rbp), %rax
 5781      FCFFFF
 5782 2cd0 488D1500 		leaq	.LC51(%rip), %rdx
 5782      000000
 5783 2cd7 4889C6   		movq	%rax, %rsi
 5784 2cda 4889DF   		movq	%rbx, %rdi
 5785 2cdd E8000000 		call	_ZN8UnitTest11TestResults13OnTestFailureERKNS_11TestDetailsEPKc@PLT
 5785      00
 5786              	.LEHE226:
 5787              	.LEHB227:
 234:testHexIO.cpp **** 	
 5788              		.loc 4 234 2 discriminator 17
 5789 2ce2 E8000000 		call	__cxa_end_catch@PLT
 5789      00
 5790              	.LEHE227:
 234:testHexIO.cpp **** 	
 5791              		.loc 4 234 2
 5792 2ce7 E9FDF9FF 		jmp	.L267
 5792      FF
 5793              	.L299:
 5794 2cec F30F1EFA 		endbr64
 5795 2cf0 4889C3   		movq	%rax, %rbx
 5796 2cf3 E8000000 		call	__cxa_end_catch@PLT
 5796      00
 5797 2cf8 EB07     		jmp	.L241
 5798              	.L279:
 5799 2cfa F30F1EFA 		endbr64
 5800              		.loc 4 240 1 is_stmt 1
 5801 2cfe 4889C3   		movq	%rax, %rbx
 5802              	.L241:
 5803 2d01 488D8530 		leaq	-720(%rbp), %rax
 5803      FDFFFF
 5804 2d08 4889C7   		movq	%rax, %rdi
 5805 2d0b E8000000 		call	_ZNSt14basic_ifstreamIcSt11char_traitsIcEED1Ev@PLT
 5805      00
 5806 2d10 EB07     		jmp	.L229
 5807              	.L270:
 5808 2d12 F30F1EFA 		endbr64
 5809 2d16 4889C3   		movq	%rax, %rbx
 5810              	.L229:
 5811              		.loc 4 240 1 is_stmt 0 discriminator 1
 5812 2d19 488D8510 		leaq	-752(%rbp), %rax
 5812      FDFFFF
 5813 2d20 4889C7   		movq	%rax, %rdi
 5814 2d23 E8000000 		call	_ZNSt7__cxx1112basic_stringIcSt11char_traitsIcESaIcEED1Ev@PLT
 5814      00
 5815 2d28 4889D8   		movq	%rbx, %rax
 5816 2d2b 4889C7   		movq	%rax, %rdi
 5817              	.LEHB228:
 5818 2d2e E8000000 		call	_Unwind_Resume@PLT
 5818      00
 5819              	.LEHE228:
 5820              	.L300:
 5821              		.loc 4 240 1
 5822 2d33 E8000000 		call	__stack_chk_fail@PLT
 5822      00
 5823              	.L269:
 5824 2d38 488B5DF8 		movq	-8(%rbp), %rbx
 5825 2d3c C9       		leave
 5826              		.cfi_def_cfa 7, 8
 5827 2d3d C3       		ret
 5828              		.cfi_endproc
 5829              	.LFE1260:
 5830              		.section	.gcc_except_table
 5831              		.align 4
 5832              	.LLSDA1260:
 5833 03f0 FF       		.byte	0xff
 5834 03f1 9B       		.byte	0x9b
 5835 03f2 E402     		.uleb128 .LLSDATT1260-.LLSDATTD1260
 5836              	.LLSDATTD1260:
 5837 03f4 01       		.byte	0x1
 5838 03f5 DA02     		.uleb128 .LLSDACSE1260-.LLSDACSB1260
 5839              	.LLSDACSB1260:
 5840 03f7 8B01     		.uleb128 .LEHB171-.LFB1260
 5841 03f9 05       		.uleb128 .LEHE171-.LEHB171
 5842 03fa 00       		.uleb128 0
 5843 03fb 00       		.uleb128 0
 5844 03fc B301     		.uleb128 .LEHB172-.LFB1260
 5845 03fe 05       		.uleb128 .LEHE172-.LEHB172
 5846 03ff DB1C     		.uleb128 .L270-.LFB1260
 5847 0401 00       		.uleb128 0
 5848 0402 BE01     		.uleb128 .LEHB173-.LFB1260
 5849 0404 4E       		.uleb128 .LEHE173-.LEHB173
 5850 0405 A711     		.uleb128 .L271-.LFB1260
 5851 0407 01       		.uleb128 0x1
 5852 0408 A502     		.uleb128 .LEHB174-.LFB1260
 5853 040a 05       		.uleb128 .LEHE174-.LEHB174
 5854 040b DB1C     		.uleb128 .L270-.LFB1260
 5855 040d 00       		.uleb128 0
 5856 040e B002     		.uleb128 .LEHB175-.LFB1260
 5857 0410 4E       		.uleb128 .LEHE175-.LEHB175
 5858 0411 8E12     		.uleb128 .L273-.LFB1260
 5859 0413 01       		.uleb128 0x1
 5860 0414 F003     		.uleb128 .LEHB176-.LFB1260
 5861 0416 05       		.uleb128 .LEHE176-.LEHB176
 5862 0417 DB1C     		.uleb128 .L270-.LFB1260
 5863 0419 00       		.uleb128 0
 5864 041a FF03     		.uleb128 .LEHB177-.LFB1260
 5865 041c 4E       		.uleb128 .LEHE177-.LEHB177
 5866 041d F512     		.uleb128 .L275-.LFB1260
 5867 041f 01       		.uleb128 0x1
 5868 0420 E104     		.uleb128 .LEHB178-.LFB1260
 5869 0422 B801     		.uleb128 .LEHE178-.LEHB178
 5870 0424 DB1C     		.uleb128 .L270-.LFB1260
 5871 0426 00       		.uleb128 0
 5872 0427 9F06     		.uleb128 .LEHB179-.LFB1260
 5873 0429 4E       		.uleb128 .LEHE179-.LEHB179
 5874 042a DC13     		.uleb128 .L277-.LFB1260
 5875 042c 01       		.uleb128 0x1
 5876 042d F706     		.uleb128 .LEHB180-.LFB1260
 5877 042f 05       		.uleb128 .LEHE180-.LEHB180
 5878 0430 DB1C     		.uleb128 .L270-.LFB1260
 5879 0432 00       		.uleb128 0
 5880 0433 B007     		.uleb128 .LEHB181-.LFB1260
 5881 0435 05       		.uleb128 .LEHE181-.LEHB181
 5882 0436 C31C     		.uleb128 .L279-.LFB1260
 5883 0438 00       		.uleb128 0
 5884 0439 D507     		.uleb128 .LEHB182-.LFB1260
 5885 043b 40       		.uleb128 .LEHE182-.LEHB182
 5886 043c C314     		.uleb128 .L280-.LFB1260
 5887 043e 01       		.uleb128 0x1
 5888 043f 9F08     		.uleb128 .LEHB183-.LFB1260
 5889 0441 05       		.uleb128 .LEHE183-.LEHB183
 5890 0442 C31C     		.uleb128 .L279-.LFB1260
 5891 0444 00       		.uleb128 0
 5892 0445 B208     		.uleb128 .LEHB184-.LFB1260
 5893 0447 6F       		.uleb128 .LEHE184-.LEHB184
 5894 0448 AA15     		.uleb128 .L282-.LFB1260
 5895 044a 01       		.uleb128 0x1
 5896 044b B509     		.uleb128 .LEHB185-.LFB1260
 5897 044d 5F       		.uleb128 .LEHE185-.LEHB185
 5898 044e C31C     		.uleb128 .L279-.LFB1260
 5899 0450 00       		.uleb128 0
 5900 0451 940A     		.uleb128 .LEHB186-.LFB1260
 5901 0453 7E       		.uleb128 .LEHE186-.LEHB186
 5902 0454 9116     		.uleb128 .L284-.LFB1260
 5903 0456 01       		.uleb128 0x1
 5904 0457 AB0B     		.uleb128 .LEHB187-.LFB1260
 5905 0459 05       		.uleb128 .LEHE187-.LEHB187
 5906 045a C31C     		.uleb128 .L279-.LFB1260
 5907 045c 00       		.uleb128 0
 5908 045d B60B     		.uleb128 .LEHB188-.LFB1260
 5909 045f 4E       		.uleb128 .LEHE188-.LEHB188
 5910 0460 F816     		.uleb128 .L286-.LFB1260
 5911 0462 01       		.uleb128 0x1
 5912 0463 9D0C     		.uleb128 .LEHB189-.LFB1260
 5913 0465 05       		.uleb128 .LEHE189-.LEHB189
 5914 0466 C31C     		.uleb128 .L279-.LFB1260
 5915 0468 00       		.uleb128 0
 5916 0469 A80C     		.uleb128 .LEHB190-.LFB1260
 5917 046b 4E       		.uleb128 .LEHE190-.LEHB190
 5918 046c DF17     		.uleb128 .L288-.LFB1260
 5919 046e 01       		.uleb128 0x1
 5920 046f 930D     		.uleb128 .LEHB191-.LFB1260
 5921 0471 05       		.uleb128 .LEHE191-.LEHB191
 5922 0472 C31C     		.uleb128 .L279-.LFB1260
 5923 0474 00       		.uleb128 0
 5924 0475 9E0D     		.uleb128 .LEHB192-.LFB1260
 5925 0477 4E       		.uleb128 .LEHE192-.LEHB192
 5926 0478 C618     		.uleb128 .L290-.LFB1260
 5927 047a 01       		.uleb128 0x1
 5928 047b EC0D     		.uleb128 .LEHB193-.LFB1260
 5929 047d 52       		.uleb128 .LEHE193-.LEHB193
 5930 047e AD19     		.uleb128 .L292-.LFB1260
 5931 0480 01       		.uleb128 0x1
 5932 0481 BE0E     		.uleb128 .LEHB194-.LFB1260
 5933 0483 51       		.uleb128 .LEHE194-.LEHB194
 5934 0484 941A     		.uleb128 .L294-.LFB1260
 5935 0486 01       		.uleb128 0x1
 5936 0487 8F0F     		.uleb128 .LEHB195-.LFB1260
 5937 0489 52       		.uleb128 .LEHE195-.LEHB195
 5938 048a FB1A     		.uleb128 .L296-.LFB1260
 5939 048c 01       		.uleb128 0x1
 5940 048d E10F     		.uleb128 .LEHB196-.LFB1260
 5941 048f 51       		.uleb128 .LEHE196-.LEHB196
 5942 0490 DF1B     		.uleb128 .L298-.LFB1260
 5943 0492 01       		.uleb128 0x1
 5944 0493 BC10     		.uleb128 .LEHB197-.LFB1260
 5945 0495 32       		.uleb128 .LEHE197-.LEHB197
 5946 0496 C31C     		.uleb128 .L279-.LFB1260
 5947 0498 00       		.uleb128 0
 5948 0499 F810     		.uleb128 .LEHB198-.LFB1260
 5949 049b 05       		.uleb128 .LEHE198-.LEHB198
 5950 049c DB1C     		.uleb128 .L270-.LFB1260
 5951 049e 00       		.uleb128 0
 5952 049f 8711     		.uleb128 .LEHB199-.LFB1260
 5953 04a1 05       		.uleb128 .LEHE199-.LEHB199
 5954 04a2 00       		.uleb128 0
 5955 04a3 00       		.uleb128 0
 5956 04a4 B311     		.uleb128 .LEHB200-.LFB1260
 5957 04a6 40       		.uleb128 .LEHE200-.LEHB200
 5958 04a7 FD11     		.uleb128 .L272-.LFB1260
 5959 04a9 00       		.uleb128 0
 5960 04aa F311     		.uleb128 .LEHB201-.LFB1260
 5961 04ac 05       		.uleb128 .LEHE201-.LEHB201
 5962 04ad DB1C     		.uleb128 .L270-.LFB1260
 5963 04af 00       		.uleb128 0
 5964 04b0 9A12     		.uleb128 .LEHB202-.LFB1260
 5965 04b2 40       		.uleb128 .LEHE202-.LEHB202
 5966 04b3 E412     		.uleb128 .L274-.LFB1260
 5967 04b5 00       		.uleb128 0
 5968 04b6 DA12     		.uleb128 .LEHB203-.LFB1260
 5969 04b8 05       		.uleb128 .LEHE203-.LEHB203
 5970 04b9 DB1C     		.uleb128 .L270-.LFB1260
 5971 04bb 00       		.uleb128 0
 5972 04bc 8113     		.uleb128 .LEHB204-.LFB1260
 5973 04be 40       		.uleb128 .LEHE204-.LEHB204
 5974 04bf CB13     		.uleb128 .L276-.LFB1260
 5975 04c1 00       		.uleb128 0
 5976 04c2 C113     		.uleb128 .LEHB205-.LFB1260
 5977 04c4 05       		.uleb128 .LEHE205-.LEHB205
 5978 04c5 DB1C     		.uleb128 .L270-.LFB1260
 5979 04c7 00       		.uleb128 0
 5980 04c8 E813     		.uleb128 .LEHB206-.LFB1260
 5981 04ca 40       		.uleb128 .LEHE206-.LEHB206
 5982 04cb B214     		.uleb128 .L278-.LFB1260
 5983 04cd 00       		.uleb128 0
 5984 04ce A814     		.uleb128 .LEHB207-.LFB1260
 5985 04d0 05       		.uleb128 .LEHE207-.LEHB207
 5986 04d1 DB1C     		.uleb128 .L270-.LFB1260
 5987 04d3 00       		.uleb128 0
 5988 04d4 CF14     		.uleb128 .LEHB208-.LFB1260
 5989 04d6 40       		.uleb128 .LEHE208-.LEHB208
 5990 04d7 9915     		.uleb128 .L281-.LFB1260
 5991 04d9 00       		.uleb128 0
 5992 04da 8F15     		.uleb128 .LEHB209-.LFB1260
 5993 04dc 05       		.uleb128 .LEHE209-.LEHB209
 5994 04dd C31C     		.uleb128 .L279-.LFB1260
 5995 04df 00       		.uleb128 0
 5996 04e0 B615     		.uleb128 .LEHB210-.LFB1260
 5997 04e2 40       		.uleb128 .LEHE210-.LEHB210
 5998 04e3 8016     		.uleb128 .L283-.LFB1260
 5999 04e5 00       		.uleb128 0
 6000 04e6 F615     		.uleb128 .LEHB211-.LFB1260
 6001 04e8 05       		.uleb128 .LEHE211-.LEHB211
 6002 04e9 C31C     		.uleb128 .L279-.LFB1260
 6003 04eb 00       		.uleb128 0
 6004 04ec 9D16     		.uleb128 .LEHB212-.LFB1260
 6005 04ee 40       		.uleb128 .LEHE212-.LEHB212
 6006 04ef E716     		.uleb128 .L285-.LFB1260
 6007 04f1 00       		.uleb128 0
 6008 04f2 DD16     		.uleb128 .LEHB213-.LFB1260
 6009 04f4 05       		.uleb128 .LEHE213-.LEHB213
 6010 04f5 C31C     		.uleb128 .L279-.LFB1260
 6011 04f7 00       		.uleb128 0
 6012 04f8 8417     		.uleb128 .LEHB214-.LFB1260
 6013 04fa 40       		.uleb128 .LEHE214-.LEHB214
 6014 04fb CE17     		.uleb128 .L287-.LFB1260
 6015 04fd 00       		.uleb128 0
 6016 04fe C417     		.uleb128 .LEHB215-.LFB1260
 6017 0500 05       		.uleb128 .LEHE215-.LEHB215
 6018 0501 C31C     		.uleb128 .L279-.LFB1260
 6019 0503 00       		.uleb128 0
 6020 0504 EB17     		.uleb128 .LEHB216-.LFB1260
 6021 0506 40       		.uleb128 .LEHE216-.LEHB216
 6022 0507 B518     		.uleb128 .L289-.LFB1260
 6023 0509 00       		.uleb128 0
 6024 050a AB18     		.uleb128 .LEHB217-.LFB1260
 6025 050c 05       		.uleb128 .LEHE217-.LEHB217
 6026 050d C31C     		.uleb128 .L279-.LFB1260
 6027 050f 00       		.uleb128 0
 6028 0510 D218     		.uleb128 .LEHB218-.LFB1260
 6029 0512 40       		.uleb128 .LEHE218-.LEHB218
 6030 0513 9C19     		.uleb128 .L291-.LFB1260
 6031 0515 00       		.uleb128 0
 6032 0516 9219     		.uleb128 .LEHB219-.LFB1260
 6033 0518 05       		.uleb128 .LEHE219-.LEHB219
 6034 0519 C31C     		.uleb128 .L279-.LFB1260
 6035 051b 00       		.uleb128 0
 6036 051c B919     		.uleb128 .LEHB220-.LFB1260
 6037 051e 40       		.uleb128 .LEHE220-.LEHB220
 6038 051f 831A     		.uleb128 .L293-.LFB1260
 6039 0521 00       		.uleb128 0
 6040 0522 F919     		.uleb128 .LEHB221-.LFB1260
 6041 0524 05       		.uleb128 .LEHE221-.LEHB221
 6042 0525 C31C     		.uleb128 .L279-.LFB1260
 6043 0527 00       		.uleb128 0
 6044 0528 A01A     		.uleb128 .LEHB222-.LFB1260
 6045 052a 40       		.uleb128 .LEHE222-.LEHB222
 6046 052b EA1A     		.uleb128 .L295-.LFB1260
 6047 052d 00       		.uleb128 0
 6048 052e E01A     		.uleb128 .LEHB223-.LFB1260
 6049 0530 05       		.uleb128 .LEHE223-.LEHB223
 6050 0531 C31C     		.uleb128 .L279-.LFB1260
 6051 0533 00       		.uleb128 0
 6052 0534 871B     		.uleb128 .LEHB224-.LFB1260
 6053 0536 40       		.uleb128 .LEHE224-.LEHB224
 6054 0537 D11B     		.uleb128 .L297-.LFB1260
 6055 0539 00       		.uleb128 0
 6056 053a C71B     		.uleb128 .LEHB225-.LFB1260
 6057 053c 05       		.uleb128 .LEHE225-.LEHB225
 6058 053d C31C     		.uleb128 .L279-.LFB1260
 6059 053f 00       		.uleb128 0
 6060 0540 EB1B     		.uleb128 .LEHB226-.LFB1260
 6061 0542 40       		.uleb128 .LEHE226-.LEHB226
 6062 0543 B51C     		.uleb128 .L299-.LFB1260
 6063 0545 00       		.uleb128 0
 6064 0546 AB1C     		.uleb128 .LEHB227-.LFB1260
 6065 0548 05       		.uleb128 .LEHE227-.LEHB227
 6066 0549 C31C     		.uleb128 .L279-.LFB1260
 6067 054b 00       		.uleb128 0
 6068 054c F71C     		.uleb128 .LEHB228-.LFB1260
 6069 054e 05       		.uleb128 .LEHE228-.LEHB228
 6070 054f 00       		.uleb128 0
 6071 0550 00       		.uleb128 0
 6072              	.LLSDACSE1260:
 6073 0551 01       		.byte	0x1
 6074 0552 00       		.byte	0
 6075 0553 00       		.align 4
 6076 0554 00000000 		.long	0
 6077              	
 6078              	.LLSDATT1260:
 6079              		.text
 6081              		.section	.rodata
 6082              	.LC52:
 6083 08c7 48657849 		.string	"HexIO_testRoundTrip"
 6083      4F5F7465 
 6083      7374526F 
 6083      756E6454 
 6083      72697000 
 6084              		.section	.text._ZN23TestHexIO_testRoundTripC2Ev,"axG",@progbits,_ZN23TestHexIO_testRoundTripC5Ev,c
 6085              		.align 2
 6086              		.weak	_ZN23TestHexIO_testRoundTripC2Ev
 6088              	_ZN23TestHexIO_testRoundTripC2Ev:
 6089              	.LFB1262:
 241:testHexIO.cpp **** 
 242:testHexIO.cpp **** TEST(HexIO_testRoundTrip) {
 6090              		.loc 4 242 1 is_stmt 1
 6091              		.cfi_startproc
 6092 0000 F30F1EFA 		endbr64
 6093 0004 55       		pushq	%rbp
 6094              		.cfi_def_cfa_offset 16
 6095              		.cfi_offset 6, -16
 6096 0005 4889E5   		movq	%rsp, %rbp
 6097              		.cfi_def_cfa_register 6
 6098 0008 53       		pushq	%rbx
 6099 0009 4883EC18 		subq	$24, %rsp
 6100              		.cfi_offset 3, -24
 6101 000d 48897DE8 		movq	%rdi, -24(%rbp)
 6102              	.LBB18:
 6103              		.loc 4 242 1
 6104 0011 488B5DE8 		movq	-24(%rbp), %rbx
 6105 0015 E8000000 		call	_ZN13UnitTestSuite12GetSuiteNameEv
 6105      00
 6106 001a 4889C2   		movq	%rax, %rdx
 6107 001d 41B8F200 		movl	$242, %r8d
 6107      0000
 6108 0023 488D0500 		leaq	.LC1(%rip), %rax
 6108      000000
 6109 002a 4889C1   		movq	%rax, %rcx
 6110 002d 488D0500 		leaq	.LC52(%rip), %rax
 6110      000000
 6111 0034 4889C6   		movq	%rax, %rsi
 6112 0037 4889DF   		movq	%rbx, %rdi
 6113 003a E8000000 		call	_ZN8UnitTest4TestC2EPKcS2_S2_i@PLT
 6113      00
 6114 003f 488D1500 		leaq	16+_ZTV23TestHexIO_testRoundTrip(%rip), %rdx
 6114      000000
 6115 0046 488B45E8 		movq	-24(%rbp), %rax
 6116 004a 488910   		movq	%rdx, (%rax)
 6117              	.LBE18:
 6118 004d 90       		nop
 6119 004e 488B5DF8 		movq	-8(%rbp), %rbx
 6120 0052 C9       		leave
 6121              		.cfi_def_cfa 7, 8
 6122 0053 C3       		ret
 6123              		.cfi_endproc
 6124              	.LFE1262:
 6126              		.weak	_ZN23TestHexIO_testRoundTripC1Ev
 6127              		.set	_ZN23TestHexIO_testRoundTripC1Ev,_ZN23TestHexIO_testRoundTripC2Ev
 6128              		.globl	testHexIO_testRoundTripInstance
 6129              		.bss
 6130 02b9 00000000 		.align 32
 6130      000000
 6133              	testHexIO_testRoundTripInstance:
 6134 02c0 00000000 		.zero	56
 6134      00000000 
 6134      00000000 
 6134      00000000 
 6134      00000000 
 6135              		.globl	adderHexIO_testRoundTrip
 6138              	adderHexIO_testRoundTrip:
 6139 02f8 00       		.zero	1
 6140              		.section	.rodata
 6141              	.LC53:
 6142 08db 3A303631 		.string	":061270000895F894FFCF81"
 6142      32373030 
 6142      30303839 
 6142      35463839 
 6142      34464643 
 6143 08f3 00000000 		.align 8
 6143      00
 6144              	.LC54:
 6145 08f8 3A313031 		.string	":10126000E80083FF01C03DDC17701093E9001F9177"
 6145      32363030 
 6145      30453830 
 6145      30383346 
 6145      46303143 
 6146 0924 00000000 		.align 8
 6147              	.LC55:
 6148 0928 3A313031 		.string	":101250000801882361F01091E9001092E900809163"
 6148      32353030 
 6148      30303830 
 6148      31383832 
 6148      33363146 
 6149 0954 00000000 		.align 8
 6150              	.LC56:
 6151 0958 3A313031 		.string	":10121000E10082FF0AC08091E20082FF06C0809157"
 6151      32313030 
 6151      30453130 
 6151      30383246 
 6151      46304143 
 6152 0984 00000000 		.align 8
 6153              	.LC57:
 6154 0988 3A313031 		.string	":10120000E200A5DD80E060E042E18EDD71DF8091EB"
 6154      32303030 
 6154      30453230 
 6154      30413544 
 6154      44383045 
 6155 09b4 00000000 		.align 8
 6156              	.LC58:
 6157 09b8 3A313031 		.string	":1011F000E2008E7F8093E2008091E2008061809324"
 6157      31463030 
 6157      30453230 
 6157      30384537 
 6157      46383039 
 6158              	.LC59:
 6159 09e4 3A303631 		.string	":061220000895F894FFCFD1"
 6159      32323030 
 6159      30303839 
 6159      35463839 
 6159      34464643 
 6160              	.LC60:
 6161 09fc 3A303130 		.string	":0100CF00CF61"
 6161      30434630 
 6161      30434636 
 6161      3100
 6162 0a0a 00000000 		.align 8
 6162      0000
 6163              	.LC61:
 6164 0a10 3A304530 		.string	":0E00C00085BF889585B78F7D85BFF8CFF894F2"
 6164      30433030 
 6164      30383542 
 6164      46383839 
 6164      35383542 
 6165              		.align 8
 6166              	.LC62:
 6167 0a38 3A313030 		.string	":1000B0009BBD8ABD89B7806489BF789485B780620B"
 6167      30423030 
 6167      30394242 
 6167      44384142 
 6167      44383942 
 6168 0a64 00000000 		.align 8
 6169              	.LC63:
 6170 0a68 3A313030 		.string	":1000A00018958FEF8ABB1FBC8DE08EBD89E09DE364"
 6170      30413030 
 6170      30313839 
 6170      35384645 
 6170      46384142 
 6171 0a94 00000000 		.align 8
 6172              	.LC64:
 6173 0a98 3A313030 		.string	":1000B0009BBD8ABD89B7FFFFFFFFFF9485B78062B4"
 6173      30423030 
 6173      30394242 
 6173      44384142 
 6173      44383942 
 6174 0ac4 00000000 		.align 8
 6175              	.LC65:
 6176 0ac8 3A313030 		.string	":10001000BEBAFECA6E3B8209D926430DADDEADDE07"
 6176      30313030 
 6176      30424542 
 6176      41464543 
 6176      41364533 
 6177 0af4 00000000 		.align 8
 6178              	.LC66:
 6179 0af8 3A313030 		.string	":10000000BEBAFECA6E3B8209D926430DADDEADDE17"
 6179      30303030 
 6179      30424542 
 6179      41464543 
 6179      41364533 
 6180              	.LC67:
 6181 0b24 3A303230 		.string	":020000021000EC"
 6181      30303030 
 6181      32313030 
 6181      30454300 
 6182 0b34 00000000 		.align 8
 6183              	.LC68:
 6184 0b38 3A313046 		.string	":10FFF000BEBAFECA6E3B8209D926430DADDEADDE28"
 6184      46463030 
 6184      30424542 
 6184      41464543 
 6184      41364533 
 6185 0b64 00000000 		.align 8
 6186              	.LC69:
 6187 0b68 3A313046 		.string	":10FFE000BEBAFECA6E3B8209D926430DADDEADDE38"
 6187      46453030 
 6187      30424542 
 6187      41464543 
 6187      41364533 
 6188              		.text
 6189              		.align 2
 6190              		.globl	_ZNK23TestHexIO_testRoundTrip7RunImplEv
 6192              	_ZNK23TestHexIO_testRoundTrip7RunImplEv:
 6193              	.LFB1264:
 6194              		.loc 4 242 27
 6195              		.cfi_startproc
 6196 2d3e F30F1EFA 		endbr64
 6197 2d42 55       		pushq	%rbp
 6198              		.cfi_def_cfa_offset 16
 6199              		.cfi_offset 6, -16
 6200 2d43 4889E5   		movq	%rsp, %rbp
 6201              		.cfi_def_cfa_register 6
 6202 2d46 4883EC10 		subq	$16, %rsp
 6203 2d4a 48897DF8 		movq	%rdi, -8(%rbp)
 243:testHexIO.cpp **** 	testRoundTrip(
 6204              		.loc 4 243 15
 6205 2d4e 4883EC08 		subq	$8, %rsp
 6206 2d52 6A00     		pushq	$0
 6207 2d54 4C8D0D00 		leaq	.LC53(%rip), %r9
 6207      000000
 6208 2d5b 4C8D0500 		leaq	.LC54(%rip), %r8
 6208      000000
 6209 2d62 488D0500 		leaq	.LC55(%rip), %rax
 6209      000000
 6210 2d69 4889C1   		movq	%rax, %rcx
 6211 2d6c 488D0500 		leaq	.LC56(%rip), %rax
 6211      000000
 6212 2d73 4889C2   		movq	%rax, %rdx
 6213 2d76 488D0500 		leaq	.LC57(%rip), %rax
 6213      000000
 6214 2d7d 4889C6   		movq	%rax, %rsi
 6215 2d80 488D0500 		leaq	.LC58(%rip), %rax
 6215      000000
 6216 2d87 4889C7   		movq	%rax, %rdi
 6217 2d8a B8000000 		movl	$0, %eax
 6217      00
 6218 2d8f E8000000 		call	_Z13testRoundTripPKcz
 6218      00
 6219 2d94 4883C410 		addq	$16, %rsp
 244:testHexIO.cpp **** 		":1011F000E2008E7F8093E2008091E2008061809324",
 245:testHexIO.cpp **** 		":10120000E200A5DD80E060E042E18EDD71DF8091EB",
 246:testHexIO.cpp **** 		":10121000E10082FF0AC08091E20082FF06C0809157",
 247:testHexIO.cpp **** 		":101250000801882361F01091E9001092E900809163",
 248:testHexIO.cpp **** 		":10126000E80083FF01C03DDC17701093E9001F9177",
 249:testHexIO.cpp **** 		":061270000895F894FFCF81",
 250:testHexIO.cpp **** 		NULL);
 251:testHexIO.cpp **** 	testRoundTrip(
 6220              		.loc 4 251 15
 6221 2d98 6A00     		pushq	$0
 6222 2d9a 488D0500 		leaq	.LC53(%rip), %rax
 6222      000000
 6223 2da1 50       		pushq	%rax
 6224 2da2 4C8D0D00 		leaq	.LC54(%rip), %r9
 6224      000000
 6225 2da9 4C8D0500 		leaq	.LC55(%rip), %r8
 6225      000000
 6226 2db0 488D0500 		leaq	.LC59(%rip), %rax
 6226      000000
 6227 2db7 4889C1   		movq	%rax, %rcx
 6228 2dba 488D0500 		leaq	.LC56(%rip), %rax
 6228      000000
 6229 2dc1 4889C2   		movq	%rax, %rdx
 6230 2dc4 488D0500 		leaq	.LC57(%rip), %rax
 6230      000000
 6231 2dcb 4889C6   		movq	%rax, %rsi
 6232 2dce 488D0500 		leaq	.LC58(%rip), %rax
 6232      000000
 6233 2dd5 4889C7   		movq	%rax, %rdi
 6234 2dd8 B8000000 		movl	$0, %eax
 6234      00
 6235 2ddd E8000000 		call	_Z13testRoundTripPKcz
 6235      00
 6236 2de2 4883C410 		addq	$16, %rsp
 252:testHexIO.cpp **** 		":1011F000E2008E7F8093E2008091E2008061809324",
 253:testHexIO.cpp **** 		":10120000E200A5DD80E060E042E18EDD71DF8091EB",
 254:testHexIO.cpp **** 		":10121000E10082FF0AC08091E20082FF06C0809157",
 255:testHexIO.cpp **** 		":061220000895F894FFCFD1",
 256:testHexIO.cpp **** 		":101250000801882361F01091E9001092E900809163",
 257:testHexIO.cpp **** 		":10126000E80083FF01C03DDC17701093E9001F9177",
 258:testHexIO.cpp **** 		":061270000895F894FFCF81",
 259:testHexIO.cpp **** 		NULL);
 260:testHexIO.cpp **** 	testRoundTrip(
 6237              		.loc 4 260 15
 6238 2de6 41B80000 		movl	$0, %r8d
 6238      0000
 6239 2dec 488D0500 		leaq	.LC60(%rip), %rax
 6239      000000
 6240 2df3 4889C1   		movq	%rax, %rcx
 6241 2df6 488D0500 		leaq	.LC61(%rip), %rax
 6241      000000
 6242 2dfd 4889C2   		movq	%rax, %rdx
 6243 2e00 488D0500 		leaq	.LC62(%rip), %rax
 6243      000000
 6244 2e07 4889C6   		movq	%rax, %rsi
 6245 2e0a 488D0500 		leaq	.LC63(%rip), %rax
 6245      000000
 6246 2e11 4889C7   		movq	%rax, %rdi
 6247 2e14 B8000000 		movl	$0, %eax
 6247      00
 6248 2e19 E8000000 		call	_Z13testRoundTripPKcz
 6248      00
 261:testHexIO.cpp **** 		":1000A00018958FEF8ABB1FBC8DE08EBD89E09DE364",
 262:testHexIO.cpp **** 		":1000B0009BBD8ABD89B7806489BF789485B780620B",
 263:testHexIO.cpp **** 		":0E00C00085BF889585B78F7D85BFF8CFF894F2",
 264:testHexIO.cpp **** 		":0100CF00CF61",
 265:testHexIO.cpp **** 		NULL);
 266:testHexIO.cpp **** 	testRoundTrip(
 6249              		.loc 4 266 15
 6250 2e1e BE000000 		movl	$0, %esi
 6250      00
 6251 2e23 488D0500 		leaq	.LC64(%rip), %rax
 6251      000000
 6252 2e2a 4889C7   		movq	%rax, %rdi
 6253 2e2d B8000000 		movl	$0, %eax
 6253      00
 6254 2e32 E8000000 		call	_Z13testRoundTripPKcz
 6254      00
 267:testHexIO.cpp **** 		":1000B0009BBD8ABD89B7FFFFFFFFFF9485B78062B4",
 268:testHexIO.cpp **** 		NULL);
 269:testHexIO.cpp **** 	testRoundTrip(
 6255              		.loc 4 269 15
 6256 2e37 41B90000 		movl	$0, %r9d
 6256      0000
 6257 2e3d 4C8D0500 		leaq	.LC65(%rip), %r8
 6257      000000
 6258 2e44 488D0500 		leaq	.LC66(%rip), %rax
 6258      000000
 6259 2e4b 4889C1   		movq	%rax, %rcx
 6260 2e4e 488D0500 		leaq	.LC67(%rip), %rax
 6260      000000
 6261 2e55 4889C2   		movq	%rax, %rdx
 6262 2e58 488D0500 		leaq	.LC68(%rip), %rax
 6262      000000
 6263 2e5f 4889C6   		movq	%rax, %rsi
 6264 2e62 488D0500 		leaq	.LC69(%rip), %rax
 6264      000000
 6265 2e69 4889C7   		movq	%rax, %rdi
 6266 2e6c B8000000 		movl	$0, %eax
 6266      00
 6267 2e71 E8000000 		call	_Z13testRoundTripPKcz
 6267      00
 270:testHexIO.cpp **** 		":10FFE000BEBAFECA6E3B8209D926430DADDEADDE38",
 271:testHexIO.cpp **** 		":10FFF000BEBAFECA6E3B8209D926430DADDEADDE28",
 272:testHexIO.cpp **** 		":020000021000EC",
 273:testHexIO.cpp **** 		":10000000BEBAFECA6E3B8209D926430DADDEADDE17",
 274:testHexIO.cpp **** 		":10001000BEBAFECA6E3B8209D926430DADDEADDE07",
 275:testHexIO.cpp **** 		NULL);
 276:testHexIO.cpp **** 	}
 6268              		.loc 4 276 2
 6269 2e76 90       		nop
 6270 2e77 C9       		leave
 6271              		.cfi_def_cfa 7, 8
 6272 2e78 C3       		ret
 6273              		.cfi_endproc
 6274              	.LFE1264:
 6276              		.section	.rodata
 6277 0b94 00000000 		.align 8
 6278              	.LC70:
 6279 0b98 556E6861 		.string	"Unhandled exception in CHECK_EQUAL(data.length, mask.length)"
 6279      6E646C65 
 6279      64206578 
 6279      63657074 
 6279      696F6E20 
 6280 0bd5 000000   		.align 8
 6281              	.LC71:
 6282 0bd8 556E6861 		.string	"Unhandled exception in CHECK_ARRAY_EQUAL(expectedWriteMap, mask.data)"
 6282      6E646C65 
 6282      64206578 
 6282      63657074 
 6282      696F6E20 
 6283              		.text
 6284              		.globl	_Z18testDeriveWriteMapPKcS0_
 6286              	_Z18testDeriveWriteMapPKcS0_:
 6287              	.LFB1265:
 277:testHexIO.cpp **** 
 278:testHexIO.cpp **** 
 279:testHexIO.cpp **** void testDeriveWriteMap(const char *inputData, const char *expectedWriteMap) {
 6288              		.loc 4 279 78
 6289              		.cfi_startproc
 6290              		.cfi_personality 0x9b,DW.ref.__gxx_personality_v0
 6291              		.cfi_lsda 0x1b,.LLSDA1265
 6292 2e79 F30F1EFA 		endbr64
 6293 2e7d 55       		pushq	%rbp
 6294              		.cfi_def_cfa_offset 16
 6295              		.cfi_offset 6, -16
 6296 2e7e 4889E5   		movq	%rsp, %rbp
 6297              		.cfi_def_cfa_register 6
 6298 2e81 53       		pushq	%rbx
 6299 2e82 4881EC98 		subq	$152, %rsp
 6299      000000
 6300              		.cfi_offset 3, -24
 6301 2e89 4889BD68 		movq	%rdi, -152(%rbp)
 6301      FFFFFF
 6302 2e90 4889B560 		movq	%rsi, -160(%rbp)
 6302      FFFFFF
 6303              		.loc 4 279 78
 6304 2e97 64488B04 		movq	%fs:40, %rax
 6304      25280000 
 6304      00
 6305 2ea0 488945E8 		movq	%rax, -24(%rbp)
 6306 2ea4 31C0     		xorl	%eax, %eax
 280:testHexIO.cpp **** 	Buffer data, mask;
 281:testHexIO.cpp **** 	BufferStatus status;
 282:testHexIO.cpp **** 	status = bufInitialise(&data, 1024, '.', NULL);
 6307              		.loc 4 282 24
 6308 2ea6 488D4580 		leaq	-128(%rbp), %rax
 6309 2eaa B9000000 		movl	$0, %ecx
 6309      00
 6310 2eaf BA2E0000 		movl	$46, %edx
 6310      00
 6311 2eb4 BE000400 		movl	$1024, %esi
 6311      00
 6312 2eb9 4889C7   		movq	%rax, %rdi
 6313              	.LEHB229:
 6314 2ebc E8000000 		call	bufInitialise@PLT
 6314      00
 6315              	.LEHE229:
 6316              		.loc 4 282 9
 6317 2ec1 898574FF 		movl	%eax, -140(%rbp)
 6317      FFFF
 6318              	.LEHB230:
 283:testHexIO.cpp **** 	CHECK_EQUAL(BUF_SUCCESS, status);
 6319              		.loc 4 283 2
 6320 2ec7 E8000000 		call	_ZN8UnitTest11CurrentTest7DetailsEv@PLT
 6320      00
 6321 2ecc 488B08   		movq	(%rax), %rcx
 6322 2ecf 488D45C0 		leaq	-64(%rbp), %rax
 6323 2ed3 BA1B0100 		movl	$283, %edx
 6323      00
 6324 2ed8 4889CE   		movq	%rcx, %rsi
 6325 2edb 4889C7   		movq	%rax, %rdi
 6326 2ede E8000000 		call	_ZN8UnitTest11TestDetailsC1ERKS0_i@PLT
 6326      00
 6327              		.loc 4 283 2 is_stmt 0 discriminator 4
 6328 2ee3 C745A000 		movl	$0, -96(%rbp)
 6328      000000
 6329 2eea E8000000 		call	_ZN8UnitTest11CurrentTest7ResultsEv@PLT
 6329      00
 6330 2eef 488B00   		movq	(%rax), %rax
 6331 2ef2 488D4DC0 		leaq	-64(%rbp), %rcx
 6332 2ef6 488D9574 		leaq	-140(%rbp), %rdx
 6332      FFFFFF
 6333 2efd 488D75A0 		leaq	-96(%rbp), %rsi
 6334 2f01 4889C7   		movq	%rax, %rdi
 6335 2f04 E8000000 		call	_ZN8UnitTest10CheckEqualI12BufferStatusS1_EEvRNS_11TestResultsERKT_RKT0_RKNS_11TestDetailsE
 6335      00
 6336              	.LEHE230:
 6337              	.L309:
 284:testHexIO.cpp **** 	status = bufInitialise(&mask, 1024, 0x00, NULL);
 6338              		.loc 4 284 24 is_stmt 1
 6339 2f09 488D45A0 		leaq	-96(%rbp), %rax
 6340 2f0d B9000000 		movl	$0, %ecx
 6340      00
 6341 2f12 BA000000 		movl	$0, %edx
 6341      00
 6342 2f17 BE000400 		movl	$1024, %esi
 6342      00
 6343 2f1c 4889C7   		movq	%rax, %rdi
 6344              	.LEHB231:
 6345 2f1f E8000000 		call	bufInitialise@PLT
 6345      00
 6346              	.LEHE231:
 6347              		.loc 4 284 9
 6348 2f24 898574FF 		movl	%eax, -140(%rbp)
 6348      FFFF
 6349              	.LEHB232:
 285:testHexIO.cpp **** 	CHECK_EQUAL(BUF_SUCCESS, status);
 6350              		.loc 4 285 2
 6351 2f2a E8000000 		call	_ZN8UnitTest11CurrentTest7DetailsEv@PLT
 6351      00
 6352 2f2f 488B08   		movq	(%rax), %rcx
 6353 2f32 488D45C0 		leaq	-64(%rbp), %rax
 6354 2f36 BA1D0100 		movl	$285, %edx
 6354      00
 6355 2f3b 4889CE   		movq	%rcx, %rsi
 6356 2f3e 4889C7   		movq	%rax, %rdi
 6357 2f41 E8000000 		call	_ZN8UnitTest11TestDetailsC1ERKS0_i@PLT
 6357      00
 6358              		.loc 4 285 2 is_stmt 0 discriminator 4
 6359 2f46 C78578FF 		movl	$0, -136(%rbp)
 6359      FFFF0000 
 6359      0000
 6360 2f50 E8000000 		call	_ZN8UnitTest11CurrentTest7ResultsEv@PLT
 6360      00
 6361 2f55 488B00   		movq	(%rax), %rax
 6362 2f58 488D4DC0 		leaq	-64(%rbp), %rcx
 6363 2f5c 488D9574 		leaq	-140(%rbp), %rdx
 6363      FFFFFF
 6364 2f63 488DB578 		leaq	-136(%rbp), %rsi
 6364      FFFFFF
 6365 2f6a 4889C7   		movq	%rax, %rdi
 6366 2f6d E8000000 		call	_ZN8UnitTest10CheckEqualI12BufferStatusS1_EEvRNS_11TestResultsERKT_RKT0_RKNS_11TestDetailsE
 6366      00
 6367              	.LEHE232:
 6368              	.L312:
 286:testHexIO.cpp **** 	status = bufWriteBlock(&data, 0x00000000, (const uint8 *)inputData, strlen(inputData), NULL);
 6369              		.loc 4 286 76 is_stmt 1
 6370 2f72 488B8568 		movq	-152(%rbp), %rax
 6370      FFFFFF
 6371 2f79 4889C7   		movq	%rax, %rdi
 6372 2f7c E8000000 		call	strlen@PLT
 6372      00
 6373              		.loc 4 286 24
 6374 2f81 89C1     		movl	%eax, %ecx
 6375 2f83 488B9568 		movq	-152(%rbp), %rdx
 6375      FFFFFF
 6376 2f8a 488D4580 		leaq	-128(%rbp), %rax
 6377 2f8e 41B80000 		movl	$0, %r8d
 6377      0000
 6378 2f94 BE000000 		movl	$0, %esi
 6378      00
 6379 2f99 4889C7   		movq	%rax, %rdi
 6380              	.LEHB233:
 6381 2f9c E8000000 		call	bufWriteBlock@PLT
 6381      00
 6382              	.LEHE233:
 6383              		.loc 4 286 9
 6384 2fa1 898574FF 		movl	%eax, -140(%rbp)
 6384      FFFF
 6385              	.LEHB234:
 287:testHexIO.cpp **** 	CHECK_EQUAL(BUF_SUCCESS, status);
 6386              		.loc 4 287 2
 6387 2fa7 E8000000 		call	_ZN8UnitTest11CurrentTest7DetailsEv@PLT
 6387      00
 6388 2fac 488B08   		movq	(%rax), %rcx
 6389 2faf 488D45C0 		leaq	-64(%rbp), %rax
 6390 2fb3 BA1F0100 		movl	$287, %edx
 6390      00
 6391 2fb8 4889CE   		movq	%rcx, %rsi
 6392 2fbb 4889C7   		movq	%rax, %rdi
 6393 2fbe E8000000 		call	_ZN8UnitTest11TestDetailsC1ERKS0_i@PLT
 6393      00
 6394              		.loc 4 287 2 is_stmt 0 discriminator 4
 6395 2fc3 C78578FF 		movl	$0, -136(%rbp)
 6395      FFFF0000 
 6395      0000
 6396 2fcd E8000000 		call	_ZN8UnitTest11CurrentTest7ResultsEv@PLT
 6396      00
 6397 2fd2 488B00   		movq	(%rax), %rax
 6398 2fd5 488D4DC0 		leaq	-64(%rbp), %rcx
 6399 2fd9 488D9574 		leaq	-140(%rbp), %rdx
 6399      FFFFFF
 6400 2fe0 488DB578 		leaq	-136(%rbp), %rsi
 6400      FFFFFF
 6401 2fe7 4889C7   		movq	%rax, %rdi
 6402 2fea E8000000 		call	_ZN8UnitTest10CheckEqualI12BufferStatusS1_EEvRNS_11TestResultsERKT_RKT0_RKNS_11TestDetailsE
 6402      00
 6403              	.LEHE234:
 6404              	.L315:
 288:testHexIO.cpp **** 	status = bufDeriveMask(&data, &mask, NULL);
 6405              		.loc 4 288 24 is_stmt 1
 6406 2fef 488D4DA0 		leaq	-96(%rbp), %rcx
 6407 2ff3 488D4580 		leaq	-128(%rbp), %rax
 6408 2ff7 BA000000 		movl	$0, %edx
 6408      00
 6409 2ffc 4889CE   		movq	%rcx, %rsi
 6410 2fff 4889C7   		movq	%rax, %rdi
 6411              	.LEHB235:
 6412 3002 E8000000 		call	bufDeriveMask@PLT
 6412      00
 6413              	.LEHE235:
 6414              		.loc 4 288 9
 6415 3007 898574FF 		movl	%eax, -140(%rbp)
 6415      FFFF
 6416              	.LEHB236:
 289:testHexIO.cpp **** 	CHECK_EQUAL(BUF_SUCCESS, status);
 6417              		.loc 4 289 2
 6418 300d E8000000 		call	_ZN8UnitTest11CurrentTest7DetailsEv@PLT
 6418      00
 6419 3012 488B08   		movq	(%rax), %rcx
 6420 3015 488D45C0 		leaq	-64(%rbp), %rax
 6421 3019 BA210100 		movl	$289, %edx
 6421      00
 6422 301e 4889CE   		movq	%rcx, %rsi
 6423 3021 4889C7   		movq	%rax, %rdi
 6424 3024 E8000000 		call	_ZN8UnitTest11TestDetailsC1ERKS0_i@PLT
 6424      00
 6425              		.loc 4 289 2 is_stmt 0 discriminator 4
 6426 3029 C78578FF 		movl	$0, -136(%rbp)
 6426      FFFF0000 
 6426      0000
 6427 3033 E8000000 		call	_ZN8UnitTest11CurrentTest7ResultsEv@PLT
 6427      00
 6428 3038 488B00   		movq	(%rax), %rax
 6429 303b 488D4DC0 		leaq	-64(%rbp), %rcx
 6430 303f 488D9574 		leaq	-140(%rbp), %rdx
 6430      FFFFFF
 6431 3046 488DB578 		leaq	-136(%rbp), %rsi
 6431      FFFFFF
 6432 304d 4889C7   		movq	%rax, %rdi
 6433 3050 E8000000 		call	_ZN8UnitTest10CheckEqualI12BufferStatusS1_EEvRNS_11TestResultsERKT_RKT0_RKNS_11TestDetailsE
 6433      00
 6434              	.LEHE236:
 6435              	.L318:
 6436              	.LEHB237:
 290:testHexIO.cpp **** 	CHECK_EQUAL(data.length, mask.length);
 6437              		.loc 4 290 2 is_stmt 1
 6438 3055 E8000000 		call	_ZN8UnitTest11CurrentTest7DetailsEv@PLT
 6438      00
 6439 305a 488B08   		movq	(%rax), %rcx
 6440 305d 488D45C0 		leaq	-64(%rbp), %rax
 6441 3061 BA220100 		movl	$290, %edx
 6441      00
 6442 3066 4889CE   		movq	%rcx, %rsi
 6443 3069 4889C7   		movq	%rax, %rdi
 6444 306c E8000000 		call	_ZN8UnitTest11TestDetailsC1ERKS0_i@PLT
 6444      00
 6445              		.loc 4 290 2 is_stmt 0 discriminator 4
 6446 3071 E8000000 		call	_ZN8UnitTest11CurrentTest7ResultsEv@PLT
 6446      00
 6447 3076 488B00   		movq	(%rax), %rax
 6448 3079 488D55C0 		leaq	-64(%rbp), %rdx
 6449 307d 488D4DA0 		leaq	-96(%rbp), %rcx
 6450 3081 488D7908 		leaq	8(%rcx), %rdi
 6451 3085 488D4D80 		leaq	-128(%rbp), %rcx
 6452 3089 488D7108 		leaq	8(%rcx), %rsi
 6453 308d 4889D1   		movq	%rdx, %rcx
 6454 3090 4889FA   		movq	%rdi, %rdx
 6455 3093 4889C7   		movq	%rax, %rdi
 6456 3096 E8000000 		call	_ZN8UnitTest10CheckEqualIjjEEvRNS_11TestResultsERKT_RKT0_RKNS_11TestDetailsE
 6456      00
 6457              	.LEHE237:
 6458              	.L321:
 6459              	.LBB19:
 291:testHexIO.cpp **** 	for ( uint32 i = 0; i < mask.length; i++ ) {
 6460              		.loc 4 291 15 is_stmt 1
 6461 309b C7857CFF 		movl	$0, -132(%rbp)
 6461      FFFF0000 
 6461      0000
 6462              		.loc 4 291 2
 6463 30a5 EB3D     		jmp	.L304
 6464              	.L307:
 292:testHexIO.cpp **** 		if ( mask.data[i] ) {
 6465              		.loc 4 292 13
 6466 30a7 488B55A0 		movq	-96(%rbp), %rdx
 6467              		.loc 4 292 18
 6468 30ab 8B857CFF 		movl	-132(%rbp), %eax
 6468      FFFF
 6469              		.loc 4 292 19
 6470 30b1 4801D0   		addq	%rdx, %rax
 6471 30b4 0FB600   		movzbl	(%rax), %eax
 6472              		.loc 4 292 3
 6473 30b7 84C0     		testb	%al, %al
 6474 30b9 7412     		je	.L305
 293:testHexIO.cpp **** 			mask.data[i] = '*';
 6475              		.loc 4 293 9
 6476 30bb 488B55A0 		movq	-96(%rbp), %rdx
 6477              		.loc 4 293 14
 6478 30bf 8B857CFF 		movl	-132(%rbp), %eax
 6478      FFFF
 6479              		.loc 4 293 15
 6480 30c5 4801D0   		addq	%rdx, %rax
 6481              		.loc 4 293 17
 6482 30c8 C6002A   		movb	$42, (%rax)
 6483 30cb EB10     		jmp	.L306
 6484              	.L305:
 294:testHexIO.cpp **** 		} else {
 295:testHexIO.cpp **** 			mask.data[i] = '.';
 6485              		.loc 4 295 9
 6486 30cd 488B55A0 		movq	-96(%rbp), %rdx
 6487              		.loc 4 295 14
 6488 30d1 8B857CFF 		movl	-132(%rbp), %eax
 6488      FFFF
 6489              		.loc 4 295 15
 6490 30d7 4801D0   		addq	%rdx, %rax
 6491              		.loc 4 295 17
 6492 30da C6002E   		movb	$46, (%rax)
 6493              	.L306:
 291:testHexIO.cpp **** 		if ( mask.data[i] ) {
 6494              		.loc 4 291 2 discriminator 2
 6495 30dd 83857CFF 		addl	$1, -132(%rbp)
 6495      FFFF01
 6496              	.L304:
 291:testHexIO.cpp **** 		if ( mask.data[i] ) {
 6497              		.loc 4 291 31 discriminator 1
 6498 30e4 8B45A8   		movl	-88(%rbp), %eax
 291:testHexIO.cpp **** 		if ( mask.data[i] ) {
 6499              		.loc 4 291 24 discriminator 1
 6500 30e7 39857CFF 		cmpl	%eax, -132(%rbp)
 6500      FFFF
 6501 30ed 72B8     		jb	.L307
 6502              	.LEHB238:
 6503              	.LBE19:
 296:testHexIO.cpp **** 		}
 297:testHexIO.cpp **** 	}
 298:testHexIO.cpp **** 	CHECK_ARRAY_EQUAL(expectedWriteMap, mask.data, mask.length);
 6504              		.loc 4 298 2
 6505 30ef E8000000 		call	_ZN8UnitTest11CurrentTest7DetailsEv@PLT
 6505      00
 6506 30f4 488B08   		movq	(%rax), %rcx
 6507 30f7 488D45C0 		leaq	-64(%rbp), %rax
 6508 30fb BA2A0100 		movl	$298, %edx
 6508      00
 6509 3100 4889CE   		movq	%rcx, %rsi
 6510 3103 4889C7   		movq	%rax, %rdi
 6511 3106 E8000000 		call	_ZN8UnitTest11TestDetailsC1ERKS0_i@PLT
 6511      00
 6512              		.loc 4 298 2 is_stmt 0 discriminator 4
 6513 310b 8B45A8   		movl	-88(%rbp), %eax
 6514 310e 89C3     		movl	%eax, %ebx
 6515 3110 E8000000 		call	_ZN8UnitTest11CurrentTest7ResultsEv@PLT
 6515      00
 6516 3115 488B00   		movq	(%rax), %rax
 6517 3118 488D4DC0 		leaq	-64(%rbp), %rcx
 6518 311c 488D55A0 		leaq	-96(%rbp), %rdx
 6519 3120 488DB560 		leaq	-160(%rbp), %rsi
 6519      FFFFFF
 6520 3127 4989C8   		movq	%rcx, %r8
 6521 312a 89D9     		movl	%ebx, %ecx
 6522 312c 4889C7   		movq	%rax, %rdi
 6523 312f E8000000 		call	_ZN8UnitTest15CheckArrayEqualIPKcPhEEvRNS_11TestResultsERKT_RKT0_iRKNS_11TestDetailsE
 6523      00
 6524              	.LEHE238:
 6525              	.L324:
 299:testHexIO.cpp **** 	bufDestroy(&data);
 6526              		.loc 4 299 12 is_stmt 1
 6527 3134 488D4580 		leaq	-128(%rbp), %rax
 6528 3138 4889C7   		movq	%rax, %rdi
 6529              	.LEHB239:
 6530 313b E8000000 		call	bufDestroy@PLT
 6530      00
 300:testHexIO.cpp **** 	bufDestroy(&mask);
 6531              		.loc 4 300 12
 6532 3140 488D45A0 		leaq	-96(%rbp), %rax
 6533 3144 4889C7   		movq	%rax, %rdi
 6534 3147 E8000000 		call	bufDestroy@PLT
 6534      00
 6535              	.LEHE239:
 301:testHexIO.cpp **** }
 6536              		.loc 4 301 1
 6537 314c 90       		nop
 6538 314d 488B45E8 		movq	-24(%rbp), %rax
 6539 3151 64482B04 		subq	%fs:40, %rax
 6539      25280000 
 6539      00
 6540 315a 0F847402 		je	.L326
 6540      0000
 6541 3160 E96A0200 		jmp	.L339
 6541      00
 6542              	.L327:
 6543 3165 F30F1EFA 		endbr64
 283:testHexIO.cpp **** 	status = bufInitialise(&mask, 1024, 0x00, NULL);
 6544              		.loc 4 283 2
 6545 3169 4889C7   		movq	%rax, %rdi
 6546 316c E8000000 		call	__cxa_begin_catch@PLT
 6546      00
 6547              	.LEHB240:
 6548 3171 E8000000 		call	_ZN8UnitTest11CurrentTest7ResultsEv@PLT
 6548      00
 283:testHexIO.cpp **** 	status = bufInitialise(&mask, 1024, 0x00, NULL);
 6549              		.loc 4 283 2 is_stmt 0 discriminator 3
 6550 3176 488B18   		movq	(%rax), %rbx
 6551 3179 E8000000 		call	_ZN8UnitTest11CurrentTest7DetailsEv@PLT
 6551      00
 283:testHexIO.cpp **** 	status = bufInitialise(&mask, 1024, 0x00, NULL);
 6552              		.loc 4 283 2 discriminator 11
 6553 317e 488B08   		movq	(%rax), %rcx
 6554 3181 488D45C0 		leaq	-64(%rbp), %rax
 6555 3185 BA1B0100 		movl	$283, %edx
 6555      00
 6556 318a 4889CE   		movq	%rcx, %rsi
 6557 318d 4889C7   		movq	%rax, %rdi
 6558 3190 E8000000 		call	_ZN8UnitTest11TestDetailsC1ERKS0_i@PLT
 6558      00
 283:testHexIO.cpp **** 	status = bufInitialise(&mask, 1024, 0x00, NULL);
 6559              		.loc 4 283 2 discriminator 15
 6560 3195 488D45C0 		leaq	-64(%rbp), %rax
 6561 3199 488D1500 		leaq	.LC4(%rip), %rdx
 6561      000000
 6562 31a0 4889C6   		movq	%rax, %rsi
 6563 31a3 4889DF   		movq	%rbx, %rdi
 6564 31a6 E8000000 		call	_ZN8UnitTest11TestResults13OnTestFailureERKNS_11TestDetailsEPKc@PLT
 6564      00
 6565              	.LEHE240:
 6566              	.LEHB241:
 283:testHexIO.cpp **** 	status = bufInitialise(&mask, 1024, 0x00, NULL);
 6567              		.loc 4 283 2 discriminator 17
 6568 31ab E8000000 		call	__cxa_end_catch@PLT
 6568      00
 6569              	.LEHE241:
 6570 31b0 E954FDFF 		jmp	.L309
 6570      FF
 6571              	.L328:
 6572 31b5 F30F1EFA 		endbr64
 283:testHexIO.cpp **** 	status = bufInitialise(&mask, 1024, 0x00, NULL);
 6573              		.loc 4 283 2
 6574 31b9 4889C3   		movq	%rax, %rbx
 6575 31bc E8000000 		call	__cxa_end_catch@PLT
 6575      00
 6576 31c1 4889D8   		movq	%rbx, %rax
 6577 31c4 4889C7   		movq	%rax, %rdi
 6578              	.LEHB242:
 6579 31c7 E8000000 		call	_Unwind_Resume@PLT
 6579      00
 6580              	.LEHE242:
 6581              	.L329:
 6582 31cc F30F1EFA 		endbr64
 285:testHexIO.cpp **** 	status = bufWriteBlock(&data, 0x00000000, (const uint8 *)inputData, strlen(inputData), NULL);
 6583              		.loc 4 285 2 is_stmt 1
 6584 31d0 4889C7   		movq	%rax, %rdi
 6585 31d3 E8000000 		call	__cxa_begin_catch@PLT
 6585      00
 6586              	.LEHB243:
 6587 31d8 E8000000 		call	_ZN8UnitTest11CurrentTest7ResultsEv@PLT
 6587      00
 285:testHexIO.cpp **** 	status = bufWriteBlock(&data, 0x00000000, (const uint8 *)inputData, strlen(inputData), NULL);
 6588              		.loc 4 285 2 is_stmt 0 discriminator 3
 6589 31dd 488B18   		movq	(%rax), %rbx
 6590 31e0 E8000000 		call	_ZN8UnitTest11CurrentTest7DetailsEv@PLT
 6590      00
 285:testHexIO.cpp **** 	status = bufWriteBlock(&data, 0x00000000, (const uint8 *)inputData, strlen(inputData), NULL);
 6591              		.loc 4 285 2 discriminator 11
 6592 31e5 488B08   		movq	(%rax), %rcx
 6593 31e8 488D45C0 		leaq	-64(%rbp), %rax
 6594 31ec BA1D0100 		movl	$285, %edx
 6594      00
 6595 31f1 4889CE   		movq	%rcx, %rsi
 6596 31f4 4889C7   		movq	%rax, %rdi
 6597 31f7 E8000000 		call	_ZN8UnitTest11TestDetailsC1ERKS0_i@PLT
 6597      00
 285:testHexIO.cpp **** 	status = bufWriteBlock(&data, 0x00000000, (const uint8 *)inputData, strlen(inputData), NULL);
 6598              		.loc 4 285 2 discriminator 15
 6599 31fc 488D45C0 		leaq	-64(%rbp), %rax
 6600 3200 488D1500 		leaq	.LC4(%rip), %rdx
 6600      000000
 6601 3207 4889C6   		movq	%rax, %rsi
 6602 320a 4889DF   		movq	%rbx, %rdi
 6603 320d E8000000 		call	_ZN8UnitTest11TestResults13OnTestFailureERKNS_11TestDetailsEPKc@PLT
 6603      00
 6604              	.LEHE243:
 6605              	.LEHB244:
 285:testHexIO.cpp **** 	status = bufWriteBlock(&data, 0x00000000, (const uint8 *)inputData, strlen(inputData), NULL);
 6606              		.loc 4 285 2 discriminator 17
 6607 3212 E8000000 		call	__cxa_end_catch@PLT
 6607      00
 6608              	.LEHE244:
 6609 3217 E956FDFF 		jmp	.L312
 6609      FF
 6610              	.L330:
 6611 321c F30F1EFA 		endbr64
 285:testHexIO.cpp **** 	status = bufWriteBlock(&data, 0x00000000, (const uint8 *)inputData, strlen(inputData), NULL);
 6612              		.loc 4 285 2
 6613 3220 4889C3   		movq	%rax, %rbx
 6614 3223 E8000000 		call	__cxa_end_catch@PLT
 6614      00
 6615 3228 4889D8   		movq	%rbx, %rax
 6616 322b 4889C7   		movq	%rax, %rdi
 6617              	.LEHB245:
 6618 322e E8000000 		call	_Unwind_Resume@PLT
 6618      00
 6619              	.LEHE245:
 6620              	.L331:
 6621 3233 F30F1EFA 		endbr64
 287:testHexIO.cpp **** 	status = bufDeriveMask(&data, &mask, NULL);
 6622              		.loc 4 287 2 is_stmt 1
 6623 3237 4889C7   		movq	%rax, %rdi
 6624 323a E8000000 		call	__cxa_begin_catch@PLT
 6624      00
 6625              	.LEHB246:
 6626 323f E8000000 		call	_ZN8UnitTest11CurrentTest7ResultsEv@PLT
 6626      00
 287:testHexIO.cpp **** 	status = bufDeriveMask(&data, &mask, NULL);
 6627              		.loc 4 287 2 is_stmt 0 discriminator 3
 6628 3244 488B18   		movq	(%rax), %rbx
 6629 3247 E8000000 		call	_ZN8UnitTest11CurrentTest7DetailsEv@PLT
 6629      00
 287:testHexIO.cpp **** 	status = bufDeriveMask(&data, &mask, NULL);
 6630              		.loc 4 287 2 discriminator 11
 6631 324c 488B08   		movq	(%rax), %rcx
 6632 324f 488D45C0 		leaq	-64(%rbp), %rax
 6633 3253 BA1F0100 		movl	$287, %edx
 6633      00
 6634 3258 4889CE   		movq	%rcx, %rsi
 6635 325b 4889C7   		movq	%rax, %rdi
 6636 325e E8000000 		call	_ZN8UnitTest11TestDetailsC1ERKS0_i@PLT
 6636      00
 287:testHexIO.cpp **** 	status = bufDeriveMask(&data, &mask, NULL);
 6637              		.loc 4 287 2 discriminator 15
 6638 3263 488D45C0 		leaq	-64(%rbp), %rax
 6639 3267 488D1500 		leaq	.LC4(%rip), %rdx
 6639      000000
 6640 326e 4889C6   		movq	%rax, %rsi
 6641 3271 4889DF   		movq	%rbx, %rdi
 6642 3274 E8000000 		call	_ZN8UnitTest11TestResults13OnTestFailureERKNS_11TestDetailsEPKc@PLT
 6642      00
 6643              	.LEHE246:
 6644              	.LEHB247:
 287:testHexIO.cpp **** 	status = bufDeriveMask(&data, &mask, NULL);
 6645              		.loc 4 287 2 discriminator 17
 6646 3279 E8000000 		call	__cxa_end_catch@PLT
 6646      00
 6647              	.LEHE247:
 6648 327e E96CFDFF 		jmp	.L315
 6648      FF
 6649              	.L332:
 6650 3283 F30F1EFA 		endbr64
 287:testHexIO.cpp **** 	status = bufDeriveMask(&data, &mask, NULL);
 6651              		.loc 4 287 2
 6652 3287 4889C3   		movq	%rax, %rbx
 6653 328a E8000000 		call	__cxa_end_catch@PLT
 6653      00
 6654 328f 4889D8   		movq	%rbx, %rax
 6655 3292 4889C7   		movq	%rax, %rdi
 6656              	.LEHB248:
 6657 3295 E8000000 		call	_Unwind_Resume@PLT
 6657      00
 6658              	.LEHE248:
 6659              	.L333:
 6660 329a F30F1EFA 		endbr64
 289:testHexIO.cpp **** 	CHECK_EQUAL(data.length, mask.length);
 6661              		.loc 4 289 2 is_stmt 1
 6662 329e 4889C7   		movq	%rax, %rdi
 6663 32a1 E8000000 		call	__cxa_begin_catch@PLT
 6663      00
 6664              	.LEHB249:
 6665 32a6 E8000000 		call	_ZN8UnitTest11CurrentTest7ResultsEv@PLT
 6665      00
 289:testHexIO.cpp **** 	CHECK_EQUAL(data.length, mask.length);
 6666              		.loc 4 289 2 is_stmt 0 discriminator 3
 6667 32ab 488B18   		movq	(%rax), %rbx
 6668 32ae E8000000 		call	_ZN8UnitTest11CurrentTest7DetailsEv@PLT
 6668      00
 289:testHexIO.cpp **** 	CHECK_EQUAL(data.length, mask.length);
 6669              		.loc 4 289 2 discriminator 11
 6670 32b3 488B08   		movq	(%rax), %rcx
 6671 32b6 488D45C0 		leaq	-64(%rbp), %rax
 6672 32ba BA210100 		movl	$289, %edx
 6672      00
 6673 32bf 4889CE   		movq	%rcx, %rsi
 6674 32c2 4889C7   		movq	%rax, %rdi
 6675 32c5 E8000000 		call	_ZN8UnitTest11TestDetailsC1ERKS0_i@PLT
 6675      00
 289:testHexIO.cpp **** 	CHECK_EQUAL(data.length, mask.length);
 6676              		.loc 4 289 2 discriminator 15
 6677 32ca 488D45C0 		leaq	-64(%rbp), %rax
 6678 32ce 488D1500 		leaq	.LC4(%rip), %rdx
 6678      000000
 6679 32d5 4889C6   		movq	%rax, %rsi
 6680 32d8 4889DF   		movq	%rbx, %rdi
 6681 32db E8000000 		call	_ZN8UnitTest11TestResults13OnTestFailureERKNS_11TestDetailsEPKc@PLT
 6681      00
 6682              	.LEHE249:
 6683              	.LEHB250:
 289:testHexIO.cpp **** 	CHECK_EQUAL(data.length, mask.length);
 6684              		.loc 4 289 2 discriminator 17
 6685 32e0 E8000000 		call	__cxa_end_catch@PLT
 6685      00
 6686              	.LEHE250:
 6687 32e5 E96BFDFF 		jmp	.L318
 6687      FF
 6688              	.L334:
 6689 32ea F30F1EFA 		endbr64
 289:testHexIO.cpp **** 	CHECK_EQUAL(data.length, mask.length);
 6690              		.loc 4 289 2
 6691 32ee 4889C3   		movq	%rax, %rbx
 6692 32f1 E8000000 		call	__cxa_end_catch@PLT
 6692      00
 6693 32f6 4889D8   		movq	%rbx, %rax
 6694 32f9 4889C7   		movq	%rax, %rdi
 6695              	.LEHB251:
 6696 32fc E8000000 		call	_Unwind_Resume@PLT
 6696      00
 6697              	.LEHE251:
 6698              	.L335:
 6699 3301 F30F1EFA 		endbr64
 290:testHexIO.cpp **** 	for ( uint32 i = 0; i < mask.length; i++ ) {
 6700              		.loc 4 290 2 is_stmt 1
 6701 3305 4889C7   		movq	%rax, %rdi
 6702 3308 E8000000 		call	__cxa_begin_catch@PLT
 6702      00
 6703              	.LEHB252:
 6704 330d E8000000 		call	_ZN8UnitTest11CurrentTest7ResultsEv@PLT
 6704      00
 290:testHexIO.cpp **** 	for ( uint32 i = 0; i < mask.length; i++ ) {
 6705              		.loc 4 290 2 is_stmt 0 discriminator 7
 6706 3312 488B18   		movq	(%rax), %rbx
 6707 3315 E8000000 		call	_ZN8UnitTest11CurrentTest7DetailsEv@PLT
 6707      00
 290:testHexIO.cpp **** 	for ( uint32 i = 0; i < mask.length; i++ ) {
 6708              		.loc 4 290 2 discriminator 11
 6709 331a 488B08   		movq	(%rax), %rcx
 6710 331d 488D45C0 		leaq	-64(%rbp), %rax
 6711 3321 BA220100 		movl	$290, %edx
 6711      00
 6712 3326 4889CE   		movq	%rcx, %rsi
 6713 3329 4889C7   		movq	%rax, %rdi
 6714 332c E8000000 		call	_ZN8UnitTest11TestDetailsC1ERKS0_i@PLT
 6714      00
 290:testHexIO.cpp **** 	for ( uint32 i = 0; i < mask.length; i++ ) {
 6715              		.loc 4 290 2 discriminator 15
 6716 3331 488D45C0 		leaq	-64(%rbp), %rax
 6717 3335 488D1500 		leaq	.LC70(%rip), %rdx
 6717      000000
 6718 333c 4889C6   		movq	%rax, %rsi
 6719 333f 4889DF   		movq	%rbx, %rdi
 6720 3342 E8000000 		call	_ZN8UnitTest11TestResults13OnTestFailureERKNS_11TestDetailsEPKc@PLT
 6720      00
 6721              	.LEHE252:
 6722              	.LEHB253:
 290:testHexIO.cpp **** 	for ( uint32 i = 0; i < mask.length; i++ ) {
 6723              		.loc 4 290 2 discriminator 17
 6724 3347 E8000000 		call	__cxa_end_catch@PLT
 6724      00
 6725              	.LEHE253:
 6726 334c E94AFDFF 		jmp	.L321
 6726      FF
 6727              	.L336:
 6728 3351 F30F1EFA 		endbr64
 290:testHexIO.cpp **** 	for ( uint32 i = 0; i < mask.length; i++ ) {
 6729              		.loc 4 290 2
 6730 3355 4889C3   		movq	%rax, %rbx
 6731 3358 E8000000 		call	__cxa_end_catch@PLT
 6731      00
 6732 335d 4889D8   		movq	%rbx, %rax
 6733 3360 4889C7   		movq	%rax, %rdi
 6734              	.LEHB254:
 6735 3363 E8000000 		call	_Unwind_Resume@PLT
 6735      00
 6736              	.LEHE254:
 6737              	.L337:
 6738 3368 F30F1EFA 		endbr64
 298:testHexIO.cpp **** 	bufDestroy(&data);
 6739              		.loc 4 298 2 is_stmt 1
 6740 336c 4889C7   		movq	%rax, %rdi
 6741 336f E8000000 		call	__cxa_begin_catch@PLT
 6741      00
 6742              	.LEHB255:
 6743 3374 E8000000 		call	_ZN8UnitTest11CurrentTest7ResultsEv@PLT
 6743      00
 298:testHexIO.cpp **** 	bufDestroy(&data);
 6744              		.loc 4 298 2 is_stmt 0 discriminator 7
 6745 3379 488B18   		movq	(%rax), %rbx
 6746 337c E8000000 		call	_ZN8UnitTest11CurrentTest7DetailsEv@PLT
 6746      00
 298:testHexIO.cpp **** 	bufDestroy(&data);
 6747              		.loc 4 298 2 discriminator 11
 6748 3381 488B08   		movq	(%rax), %rcx
 6749 3384 488D45C0 		leaq	-64(%rbp), %rax
 6750 3388 BA2A0100 		movl	$298, %edx
 6750      00
 6751 338d 4889CE   		movq	%rcx, %rsi
 6752 3390 4889C7   		movq	%rax, %rdi
 6753 3393 E8000000 		call	_ZN8UnitTest11TestDetailsC1ERKS0_i@PLT
 6753      00
 298:testHexIO.cpp **** 	bufDestroy(&data);
 6754              		.loc 4 298 2 discriminator 15
 6755 3398 488D45C0 		leaq	-64(%rbp), %rax
 6756 339c 488D1500 		leaq	.LC71(%rip), %rdx
 6756      000000
 6757 33a3 4889C6   		movq	%rax, %rsi
 6758 33a6 4889DF   		movq	%rbx, %rdi
 6759 33a9 E8000000 		call	_ZN8UnitTest11TestResults13OnTestFailureERKNS_11TestDetailsEPKc@PLT
 6759      00
 6760              	.LEHE255:
 6761              	.LEHB256:
 298:testHexIO.cpp **** 	bufDestroy(&data);
 6762              		.loc 4 298 2 discriminator 17
 6763 33ae E8000000 		call	__cxa_end_catch@PLT
 6763      00
 6764              	.LEHE256:
 6765 33b3 E97CFDFF 		jmp	.L324
 6765      FF
 6766              	.L338:
 6767 33b8 F30F1EFA 		endbr64
 298:testHexIO.cpp **** 	bufDestroy(&data);
 6768              		.loc 4 298 2
 6769 33bc 4889C3   		movq	%rax, %rbx
 6770 33bf E8000000 		call	__cxa_end_catch@PLT
 6770      00
 6771 33c4 4889D8   		movq	%rbx, %rax
 6772 33c7 4889C7   		movq	%rax, %rdi
 6773              	.LEHB257:
 6774 33ca E8000000 		call	_Unwind_Resume@PLT
 6774      00
 6775              	.LEHE257:
 6776              	.L339:
 6777              		.loc 4 301 1 is_stmt 1
 6778 33cf E8000000 		call	__stack_chk_fail@PLT
 6778      00
 6779              	.L326:
 6780 33d4 488B5DF8 		movq	-8(%rbp), %rbx
 6781 33d8 C9       		leave
 6782              		.cfi_def_cfa 7, 8
 6783 33d9 C3       		ret
 6784              		.cfi_endproc
 6785              	.LFE1265:
 6786              		.section	.gcc_except_table
 6787              		.align 4
 6788              	.LLSDA1265:
 6789 0558 FF       		.byte	0xff
 6790 0559 9B       		.byte	0x9b
 6791 055a A401     		.uleb128 .LLSDATT1265-.LLSDATTD1265
 6792              	.LLSDATTD1265:
 6793 055c 01       		.byte	0x1
 6794 055d 9B01     		.uleb128 .LLSDACSE1265-.LLSDACSB1265
 6795              	.LLSDACSB1265:
 6796 055f 43       		.uleb128 .LEHB229-.LFB1265
 6797 0560 05       		.uleb128 .LEHE229-.LEHB229
 6798 0561 00       		.uleb128 0
 6799 0562 00       		.uleb128 0
 6800 0563 4E       		.uleb128 .LEHB230-.LFB1265
 6801 0564 42       		.uleb128 .LEHE230-.LEHB230
 6802 0565 EC05     		.uleb128 .L327-.LFB1265
 6803 0567 01       		.uleb128 0x1
 6804 0568 A601     		.uleb128 .LEHB231-.LFB1265
 6805 056a 05       		.uleb128 .LEHE231-.LEHB231
 6806 056b 00       		.uleb128 0
 6807 056c 00       		.uleb128 0
 6808 056d B101     		.uleb128 .LEHB232-.LFB1265
 6809 056f 48       		.uleb128 .LEHE232-.LEHB232
 6810 0570 D306     		.uleb128 .L329-.LFB1265
 6811 0572 01       		.uleb128 0x1
 6812 0573 A302     		.uleb128 .LEHB233-.LFB1265
 6813 0575 05       		.uleb128 .LEHE233-.LEHB233
 6814 0576 00       		.uleb128 0
 6815 0577 00       		.uleb128 0
 6816 0578 AE02     		.uleb128 .LEHB234-.LFB1265
 6817 057a 48       		.uleb128 .LEHE234-.LEHB234
 6818 057b BA07     		.uleb128 .L331-.LFB1265
 6819 057d 01       		.uleb128 0x1
 6820 057e 8903     		.uleb128 .LEHB235-.LFB1265
 6821 0580 05       		.uleb128 .LEHE235-.LEHB235
 6822 0581 00       		.uleb128 0
 6823 0582 00       		.uleb128 0
 6824 0583 9403     		.uleb128 .LEHB236-.LFB1265
 6825 0585 48       		.uleb128 .LEHE236-.LEHB236
 6826 0586 A108     		.uleb128 .L333-.LFB1265
 6827 0588 01       		.uleb128 0x1
 6828 0589 DC03     		.uleb128 .LEHB237-.LFB1265
 6829 058b 46       		.uleb128 .LEHE237-.LEHB237
 6830 058c 8809     		.uleb128 .L335-.LFB1265
 6831 058e 01       		.uleb128 0x1
 6832 058f F604     		.uleb128 .LEHB238-.LFB1265
 6833 0591 45       		.uleb128 .LEHE238-.LEHB238
 6834 0592 EF09     		.uleb128 .L337-.LFB1265
 6835 0594 01       		.uleb128 0x1
 6836 0595 C205     		.uleb128 .LEHB239-.LFB1265
 6837 0597 11       		.uleb128 .LEHE239-.LEHB239
 6838 0598 00       		.uleb128 0
 6839 0599 00       		.uleb128 0
 6840 059a F805     		.uleb128 .LEHB240-.LFB1265
 6841 059c 3A       		.uleb128 .LEHE240-.LEHB240
 6842 059d BC06     		.uleb128 .L328-.LFB1265
 6843 059f 00       		.uleb128 0
 6844 05a0 B206     		.uleb128 .LEHB241-.LFB1265
 6845 05a2 05       		.uleb128 .LEHE241-.LEHB241
 6846 05a3 00       		.uleb128 0
 6847 05a4 00       		.uleb128 0
 6848 05a5 CE06     		.uleb128 .LEHB242-.LFB1265
 6849 05a7 05       		.uleb128 .LEHE242-.LEHB242
 6850 05a8 00       		.uleb128 0
 6851 05a9 00       		.uleb128 0
 6852 05aa DF06     		.uleb128 .LEHB243-.LFB1265
 6853 05ac 3A       		.uleb128 .LEHE243-.LEHB243
 6854 05ad A307     		.uleb128 .L330-.LFB1265
 6855 05af 00       		.uleb128 0
 6856 05b0 9907     		.uleb128 .LEHB244-.LFB1265
 6857 05b2 05       		.uleb128 .LEHE244-.LEHB244
 6858 05b3 00       		.uleb128 0
 6859 05b4 00       		.uleb128 0
 6860 05b5 B507     		.uleb128 .LEHB245-.LFB1265
 6861 05b7 05       		.uleb128 .LEHE245-.LEHB245
 6862 05b8 00       		.uleb128 0
 6863 05b9 00       		.uleb128 0
 6864 05ba C607     		.uleb128 .LEHB246-.LFB1265
 6865 05bc 3A       		.uleb128 .LEHE246-.LEHB246
 6866 05bd 8A08     		.uleb128 .L332-.LFB1265
 6867 05bf 00       		.uleb128 0
 6868 05c0 8008     		.uleb128 .LEHB247-.LFB1265
 6869 05c2 05       		.uleb128 .LEHE247-.LEHB247
 6870 05c3 00       		.uleb128 0
 6871 05c4 00       		.uleb128 0
 6872 05c5 9C08     		.uleb128 .LEHB248-.LFB1265
 6873 05c7 05       		.uleb128 .LEHE248-.LEHB248
 6874 05c8 00       		.uleb128 0
 6875 05c9 00       		.uleb128 0
 6876 05ca AD08     		.uleb128 .LEHB249-.LFB1265
 6877 05cc 3A       		.uleb128 .LEHE249-.LEHB249
 6878 05cd F108     		.uleb128 .L334-.LFB1265
 6879 05cf 00       		.uleb128 0
 6880 05d0 E708     		.uleb128 .LEHB250-.LFB1265
 6881 05d2 05       		.uleb128 .LEHE250-.LEHB250
 6882 05d3 00       		.uleb128 0
 6883 05d4 00       		.uleb128 0
 6884 05d5 8309     		.uleb128 .LEHB251-.LFB1265
 6885 05d7 05       		.uleb128 .LEHE251-.LEHB251
 6886 05d8 00       		.uleb128 0
 6887 05d9 00       		.uleb128 0
 6888 05da 9409     		.uleb128 .LEHB252-.LFB1265
 6889 05dc 3A       		.uleb128 .LEHE252-.LEHB252
 6890 05dd D809     		.uleb128 .L336-.LFB1265
 6891 05df 00       		.uleb128 0
 6892 05e0 CE09     		.uleb128 .LEHB253-.LFB1265
 6893 05e2 05       		.uleb128 .LEHE253-.LEHB253
 6894 05e3 00       		.uleb128 0
 6895 05e4 00       		.uleb128 0
 6896 05e5 EA09     		.uleb128 .LEHB254-.LFB1265
 6897 05e7 05       		.uleb128 .LEHE254-.LEHB254
 6898 05e8 00       		.uleb128 0
 6899 05e9 00       		.uleb128 0
 6900 05ea FB09     		.uleb128 .LEHB255-.LFB1265
 6901 05ec 3A       		.uleb128 .LEHE255-.LEHB255
 6902 05ed BF0A     		.uleb128 .L338-.LFB1265
 6903 05ef 00       		.uleb128 0
 6904 05f0 B50A     		.uleb128 .LEHB256-.LFB1265
 6905 05f2 05       		.uleb128 .LEHE256-.LEHB256
 6906 05f3 00       		.uleb128 0
 6907 05f4 00       		.uleb128 0
 6908 05f5 D10A     		.uleb128 .LEHB257-.LFB1265
 6909 05f7 05       		.uleb128 .LEHE257-.LEHB257
 6910 05f8 00       		.uleb128 0
 6911 05f9 00       		.uleb128 0
 6912              	.LLSDACSE1265:
 6913 05fa 01       		.byte	0x1
 6914 05fb 00       		.byte	0
 6915              		.align 4
 6916 05fc 00000000 		.long	0
 6917              	
 6918              	.LLSDATT1265:
 6919              		.text
 6921              		.section	.rodata
 6922              	.LC72:
 6923 0c1e 48657849 		.string	"HexIO_testDeriveWriteMap"
 6923      4F5F7465 
 6923      73744465 
 6923      72697665 
 6923      57726974 
 6924              		.section	.text._ZN28TestHexIO_testDeriveWriteMapC2Ev,"axG",@progbits,_ZN28TestHexIO_testDeriveWrit
 6925              		.align 2
 6926              		.weak	_ZN28TestHexIO_testDeriveWriteMapC2Ev
 6928              	_ZN28TestHexIO_testDeriveWriteMapC2Ev:
 6929              	.LFB1267:
 302:testHexIO.cpp **** 
 303:testHexIO.cpp **** TEST(HexIO_testDeriveWriteMap) {
 6930              		.loc 4 303 1
 6931              		.cfi_startproc
 6932 0000 F30F1EFA 		endbr64
 6933 0004 55       		pushq	%rbp
 6934              		.cfi_def_cfa_offset 16
 6935              		.cfi_offset 6, -16
 6936 0005 4889E5   		movq	%rsp, %rbp
 6937              		.cfi_def_cfa_register 6
 6938 0008 53       		pushq	%rbx
 6939 0009 4883EC18 		subq	$24, %rsp
 6940              		.cfi_offset 3, -24
 6941 000d 48897DE8 		movq	%rdi, -24(%rbp)
 6942              	.LBB20:
 6943              		.loc 4 303 1
 6944 0011 488B5DE8 		movq	-24(%rbp), %rbx
 6945 0015 E8000000 		call	_ZN13UnitTestSuite12GetSuiteNameEv
 6945      00
 6946 001a 4889C2   		movq	%rax, %rdx
 6947 001d 41B82F01 		movl	$303, %r8d
 6947      0000
 6948 0023 488D0500 		leaq	.LC1(%rip), %rax
 6948      000000
 6949 002a 4889C1   		movq	%rax, %rcx
 6950 002d 488D0500 		leaq	.LC72(%rip), %rax
 6950      000000
 6951 0034 4889C6   		movq	%rax, %rsi
 6952 0037 4889DF   		movq	%rbx, %rdi
 6953 003a E8000000 		call	_ZN8UnitTest4TestC2EPKcS2_S2_i@PLT
 6953      00
 6954 003f 488D1500 		leaq	16+_ZTV28TestHexIO_testDeriveWriteMap(%rip), %rdx
 6954      000000
 6955 0046 488B45E8 		movq	-24(%rbp), %rax
 6956 004a 488910   		movq	%rdx, (%rax)
 6957              	.LBE20:
 6958 004d 90       		nop
 6959 004e 488B5DF8 		movq	-8(%rbp), %rbx
 6960 0052 C9       		leave
 6961              		.cfi_def_cfa 7, 8
 6962 0053 C3       		ret
 6963              		.cfi_endproc
 6964              	.LFE1267:
 6966              		.weak	_ZN28TestHexIO_testDeriveWriteMapC1Ev
 6967              		.set	_ZN28TestHexIO_testDeriveWriteMapC1Ev,_ZN28TestHexIO_testDeriveWriteMapC2Ev
 6968              		.globl	testHexIO_testDeriveWriteMapInstance
 6969              		.bss
 6970 02f9 00000000 		.align 32
 6970      000000
 6973              	testHexIO_testDeriveWriteMapInstance:
 6974 0300 00000000 		.zero	56
 6974      00000000 
 6974      00000000 
 6974      00000000 
 6974      00000000 
 6975              		.globl	adderHexIO_testDeriveWriteMap
 6978              	adderHexIO_testDeriveWriteMap:
 6979 0338 00       		.zero	1
 6980              		.section	.rodata
 6981              	.LC73:
 6982 0c37 2A2A2A2A 		.string	"*****........*****"
 6982      2A2E2E2E 
 6982      2E2E2E2E 
 6982      2E2A2A2A 
 6982      2A2A00
 6983              	.LC74:
 6984 0c4a 48656C6C 		.string	"Hello........World"
 6984      6F2E2E2E 
 6984      2E2E2E2E 
 6984      2E576F72 
 6984      6C6400
 6985              	.LC75:
 6986 0c5d 2A2A2A2A 		.string	"*****************"
 6986      2A2A2A2A 
 6986      2A2A2A2A 
 6986      2A2A2A2A 
 6986      2A00
 6987              	.LC76:
 6988 0c6f 48656C6C 		.string	"Hello.......World"
 6988      6F2E2E2E 
 6988      2E2E2E2E 
 6988      576F726C 
 6988      6400
 6989              		.text
 6990              		.align 2
 6991              		.globl	_ZNK28TestHexIO_testDeriveWriteMap7RunImplEv
 6993              	_ZNK28TestHexIO_testDeriveWriteMap7RunImplEv:
 6994              	.LFB1269:
 6995              		.loc 4 303 32
 6996              		.cfi_startproc
 6997 33da F30F1EFA 		endbr64
 6998 33de 55       		pushq	%rbp
 6999              		.cfi_def_cfa_offset 16
 7000              		.cfi_offset 6, -16
 7001 33df 4889E5   		movq	%rsp, %rbp
 7002              		.cfi_def_cfa_register 6
 7003 33e2 4883EC10 		subq	$16, %rsp
 7004 33e6 48897DF8 		movq	%rdi, -8(%rbp)
 304:testHexIO.cpp **** 	testDeriveWriteMap("Hello........World", "*****........*****");
 7005              		.loc 4 304 20
 7006 33ea 488D0500 		leaq	.LC73(%rip), %rax
 7006      000000
 7007 33f1 4889C6   		movq	%rax, %rsi
 7008 33f4 488D0500 		leaq	.LC74(%rip), %rax
 7008      000000
 7009 33fb 4889C7   		movq	%rax, %rdi
 7010 33fe E8000000 		call	_Z18testDeriveWriteMapPKcS0_
 7010      00
 305:testHexIO.cpp **** 	testDeriveWriteMap("Hello.......World", "*****************");
 7011              		.loc 4 305 20
 7012 3403 488D0500 		leaq	.LC75(%rip), %rax
 7012      000000
 7013 340a 4889C6   		movq	%rax, %rsi
 7014 340d 488D0500 		leaq	.LC76(%rip), %rax
 7014      000000
 7015 3414 4889C7   		movq	%rax, %rdi
 7016 3417 E8000000 		call	_Z18testDeriveWriteMapPKcS0_
 7016      00
 306:testHexIO.cpp **** }
 7017              		.loc 4 306 1
 7018 341c 90       		nop
 7019 341d C9       		leave
 7020              		.cfi_def_cfa 7, 8
 7021 341e C3       		ret
 7022              		.cfi_endproc
 7023              	.LFE1269:
 7025              		.section	.text._ZN8UnitTest15MemoryOutStreamD1Ev,"axG",@progbits,_ZN8UnitTest15MemoryOutStreamD1Ev
 7026              		.align 2
 7027              		.weak	_ZN8UnitTest15MemoryOutStreamD1Ev
 7029              	_ZN8UnitTest15MemoryOutStreamD1Ev:
 7030              	.LFB1300:
  13:/home/asoreyh/Dropbox/projects/lago/acqua/nexys/src/makestuff/libs/libutpp/MemoryOutStream.h **** {
 7031              		.loc 3 13 7
 7032              		.cfi_startproc
 7033              		.cfi_personality 0x9b,DW.ref.__gxx_personality_v0
 7034              		.cfi_lsda 0x1b,.LLSDA1300
 7035 0000 F30F1EFA 		endbr64
 7036 0004 55       		pushq	%rbp
 7037              		.cfi_def_cfa_offset 16
 7038              		.cfi_offset 6, -16
 7039 0005 4889E5   		movq	%rsp, %rbp
 7040              		.cfi_def_cfa_register 6
 7041 0008 53       		pushq	%rbx
 7042 0009 4883EC18 		subq	$24, %rsp
 7043              		.cfi_offset 3, -24
 7044 000d 48897DE8 		movq	%rdi, -24(%rbp)
 7045              	.LBB21:
  13:/home/asoreyh/Dropbox/projects/lago/acqua/nexys/src/makestuff/libs/libutpp/MemoryOutStream.h **** {
 7046              		.loc 3 13 7
 7047 0011 488D1500 		leaq	24+_ZTVN8UnitTest15MemoryOutStreamE(%rip), %rdx
 7047      000000
 7048 0018 488B45E8 		movq	-24(%rbp), %rax
 7049 001c 488910   		movq	%rdx, (%rax)
 7050 001f 488B45E8 		movq	-24(%rbp), %rax
 7051 0023 48059000 		addq	$144, %rax
 7051      0000
 7052 0029 488D1500 		leaq	64+_ZTVN8UnitTest15MemoryOutStreamE(%rip), %rdx
 7052      000000
 7053 0030 488910   		movq	%rdx, (%rax)
 7054 0033 488B45E8 		movq	-24(%rbp), %rax
 7055 0037 4883C070 		addq	$112, %rax
 7056 003b 4889C7   		movq	%rax, %rdi
 7057              	.LEHB258:
 7058 003e E8000000 		call	_ZNSt7__cxx1112basic_stringIcSt11char_traitsIcESaIcEED1Ev@PLT
 7058      00
 7059              	.LEHE258:
  13:/home/asoreyh/Dropbox/projects/lago/acqua/nexys/src/makestuff/libs/libutpp/MemoryOutStream.h **** {
 7060              		.loc 3 13 7 is_stmt 0 discriminator 2
 7061 0043 488B45E8 		movq	-24(%rbp), %rax
 7062 0047 488D1500 		leaq	8+_ZTTN8UnitTest15MemoryOutStreamE(%rip), %rdx
 7062      000000
 7063 004e 4889D6   		movq	%rdx, %rsi
 7064 0051 4889C7   		movq	%rax, %rdi
 7065              	.LEHB259:
 7066 0054 E8000000 		call	_ZNSt7__cxx1119basic_ostringstreamIcSt11char_traitsIcESaIcEED2Ev@PLT
 7066      00
 7067              	.LEHE259:
  13:/home/asoreyh/Dropbox/projects/lago/acqua/nexys/src/makestuff/libs/libutpp/MemoryOutStream.h **** {
 7068              		.loc 3 13 7 discriminator 4
 7069 0059 488B45E8 		movq	-24(%rbp), %rax
 7070 005d 48059000 		addq	$144, %rax
 7070      0000
 7071 0063 4889C7   		movq	%rax, %rdi
 7072              	.LEHB260:
 7073 0066 E8000000 		call	_ZNSt9basic_iosIcSt11char_traitsIcEED2Ev@PLT
 7073      00
 7074              	.LEHE260:
 7075              	.LBE21:
 7076 006b EB43     		jmp	.L347
 7077              	.L345:
 7078 006d F30F1EFA 		endbr64
 7079              	.LBB22:
  13:/home/asoreyh/Dropbox/projects/lago/acqua/nexys/src/makestuff/libs/libutpp/MemoryOutStream.h **** {
 7080              		.loc 3 13 7
 7081 0071 4889C3   		movq	%rax, %rbx
 7082 0074 488B45E8 		movq	-24(%rbp), %rax
 7083 0078 488D1500 		leaq	8+_ZTTN8UnitTest15MemoryOutStreamE(%rip), %rdx
 7083      000000
 7084 007f 4889D6   		movq	%rdx, %rsi
 7085 0082 4889C7   		movq	%rax, %rdi
 7086 0085 E8000000 		call	_ZNSt7__cxx1119basic_ostringstreamIcSt11char_traitsIcESaIcEED2Ev@PLT
 7086      00
 7087 008a EB07     		jmp	.L344
 7088              	.L346:
 7089 008c F30F1EFA 		endbr64
 7090 0090 4889C3   		movq	%rax, %rbx
 7091              	.L344:
  13:/home/asoreyh/Dropbox/projects/lago/acqua/nexys/src/makestuff/libs/libutpp/MemoryOutStream.h **** {
 7092              		.loc 3 13 7 discriminator 3
 7093 0093 488B45E8 		movq	-24(%rbp), %rax
 7094 0097 48059000 		addq	$144, %rax
 7094      0000
 7095 009d 4889C7   		movq	%rax, %rdi
 7096 00a0 E8000000 		call	_ZNSt9basic_iosIcSt11char_traitsIcEED2Ev@PLT
 7096      00
 7097 00a5 4889D8   		movq	%rbx, %rax
 7098 00a8 4889C7   		movq	%rax, %rdi
 7099              	.LEHB261:
 7100 00ab E8000000 		call	_Unwind_Resume@PLT
 7100      00
 7101              	.LEHE261:
 7102              	.L347:
 7103              	.LBE22:
  13:/home/asoreyh/Dropbox/projects/lago/acqua/nexys/src/makestuff/libs/libutpp/MemoryOutStream.h **** {
 7104              		.loc 3 13 7
 7105 00b0 488B5DF8 		movq	-8(%rbp), %rbx
 7106 00b4 C9       		leave
 7107              		.cfi_def_cfa 7, 8
 7108 00b5 C3       		ret
 7109              		.cfi_endproc
 7110              	.LFE1300:
 7111              		.section	.gcc_except_table
 7112              	.LLSDA1300:
 7113 0600 FF       		.byte	0xff
 7114 0601 FF       		.byte	0xff
 7115 0602 01       		.byte	0x1
 7116 0603 12       		.uleb128 .LLSDACSE1300-.LLSDACSB1300
 7117              	.LLSDACSB1300:
 7118 0604 3E       		.uleb128 .LEHB258-.LFB1300
 7119 0605 05       		.uleb128 .LEHE258-.LEHB258
 7120 0606 6D       		.uleb128 .L345-.LFB1300
 7121 0607 00       		.uleb128 0
 7122 0608 54       		.uleb128 .LEHB259-.LFB1300
 7123 0609 05       		.uleb128 .LEHE259-.LEHB259
 7124 060a 8C01     		.uleb128 .L346-.LFB1300
 7125 060c 00       		.uleb128 0
 7126 060d 66       		.uleb128 .LEHB260-.LFB1300
 7127 060e 05       		.uleb128 .LEHE260-.LEHB260
 7128 060f 00       		.uleb128 0
 7129 0610 00       		.uleb128 0
 7130 0611 AB01     		.uleb128 .LEHB261-.LFB1300
 7131 0613 05       		.uleb128 .LEHE261-.LEHB261
 7132 0614 00       		.uleb128 0
 7133 0615 00       		.uleb128 0
 7134              	.LLSDACSE1300:
 7135              		.section	.text._ZN8UnitTest15MemoryOutStreamD1Ev,"axG",@progbits,_ZN8UnitTest15MemoryOutStreamD1Ev
 7137              		.set	.LTHUNK0,_ZN8UnitTest15MemoryOutStreamD1Ev
 7138              		.weak	_ZTv0_n24_N8UnitTest15MemoryOutStreamD1Ev
 7140              	_ZTv0_n24_N8UnitTest15MemoryOutStreamD1Ev:
 7141              	.LFB1460:
  13:/home/asoreyh/Dropbox/projects/lago/acqua/nexys/src/makestuff/libs/libutpp/MemoryOutStream.h **** {
 7142              		.loc 3 13 7 is_stmt 1
 7143              		.cfi_startproc
 7144 00b6 F30F1EFA 		endbr64
 7145 00ba 4C8B17   		movq	(%rdi), %r10
 7146 00bd 49037AE8 		addq	-24(%r10), %rdi
 7147 00c1 E93AFFFF 		jmp	.LTHUNK0
 7147      FF
 7148              		.cfi_endproc
 7149              	.LFE1460:
 7151              		.section	.text._ZN8UnitTest15MemoryOutStreamD0Ev,"axG",@progbits,_ZN8UnitTest15MemoryOutStreamD0Ev
 7152              		.align 2
 7153              		.weak	_ZN8UnitTest15MemoryOutStreamD0Ev
 7155              	_ZN8UnitTest15MemoryOutStreamD0Ev:
 7156              	.LFB1301:
  13:/home/asoreyh/Dropbox/projects/lago/acqua/nexys/src/makestuff/libs/libutpp/MemoryOutStream.h **** {
 7157              		.loc 3 13 7
 7158              		.cfi_startproc
 7159              		.cfi_personality 0x9b,DW.ref.__gxx_personality_v0
 7160              		.cfi_lsda 0x1b,.LLSDA1301
 7161 0000 F30F1EFA 		endbr64
 7162 0004 55       		pushq	%rbp
 7163              		.cfi_def_cfa_offset 16
 7164              		.cfi_offset 6, -16
 7165 0005 4889E5   		movq	%rsp, %rbp
 7166              		.cfi_def_cfa_register 6
 7167 0008 53       		pushq	%rbx
 7168 0009 4883EC18 		subq	$24, %rsp
 7169              		.cfi_offset 3, -24
 7170 000d 48897DE8 		movq	%rdi, -24(%rbp)
  13:/home/asoreyh/Dropbox/projects/lago/acqua/nexys/src/makestuff/libs/libutpp/MemoryOutStream.h **** {
 7171              		.loc 3 13 7
 7172 0011 488B45E8 		movq	-24(%rbp), %rax
 7173 0015 4889C7   		movq	%rax, %rdi
 7174              	.LEHB262:
 7175 0018 E8000000 		call	_ZN8UnitTest15MemoryOutStreamD1Ev
 7175      00
 7176              	.LEHE262:
  13:/home/asoreyh/Dropbox/projects/lago/acqua/nexys/src/makestuff/libs/libutpp/MemoryOutStream.h **** {
 7177              		.loc 3 13 7 is_stmt 0 discriminator 2
 7178 001d 488B45E8 		movq	-24(%rbp), %rax
 7179 0021 4889C7   		movq	%rax, %rdi
 7180 0024 E8000000 		call	_ZdlPv@PLT
 7180      00
 7181 0029 EB1E     		jmp	.L351
 7182              	.L350:
 7183 002b F30F1EFA 		endbr64
  13:/home/asoreyh/Dropbox/projects/lago/acqua/nexys/src/makestuff/libs/libutpp/MemoryOutStream.h **** {
 7184              		.loc 3 13 7
 7185 002f 4889C3   		movq	%rax, %rbx
 7186 0032 488B45E8 		movq	-24(%rbp), %rax
 7187 0036 4889C7   		movq	%rax, %rdi
 7188 0039 E8000000 		call	_ZdlPv@PLT
 7188      00
 7189 003e 4889D8   		movq	%rbx, %rax
 7190 0041 4889C7   		movq	%rax, %rdi
 7191              	.LEHB263:
 7192 0044 E8000000 		call	_Unwind_Resume@PLT
 7192      00
 7193              	.LEHE263:
 7194              	.L351:
 7195 0049 488B5DF8 		movq	-8(%rbp), %rbx
 7196 004d C9       		leave
 7197              		.cfi_def_cfa 7, 8
 7198 004e C3       		ret
 7199              		.cfi_endproc
 7200              	.LFE1301:
 7201              		.section	.gcc_except_table
 7202              	.LLSDA1301:
 7203 0616 FF       		.byte	0xff
 7204 0617 FF       		.byte	0xff
 7205 0618 01       		.byte	0x1
 7206 0619 08       		.uleb128 .LLSDACSE1301-.LLSDACSB1301
 7207              	.LLSDACSB1301:
 7208 061a 18       		.uleb128 .LEHB262-.LFB1301
 7209 061b 05       		.uleb128 .LEHE262-.LEHB262
 7210 061c 2B       		.uleb128 .L350-.LFB1301
 7211 061d 00       		.uleb128 0
 7212 061e 44       		.uleb128 .LEHB263-.LFB1301
 7213 061f 05       		.uleb128 .LEHE263-.LEHB263
 7214 0620 00       		.uleb128 0
 7215 0621 00       		.uleb128 0
 7216              	.LLSDACSE1301:
 7217              		.section	.text._ZN8UnitTest15MemoryOutStreamD0Ev,"axG",@progbits,_ZN8UnitTest15MemoryOutStreamD0Ev
 7219              		.set	.LTHUNK1,_ZN8UnitTest15MemoryOutStreamD0Ev
 7220              		.weak	_ZTv0_n24_N8UnitTest15MemoryOutStreamD0Ev
 7222              	_ZTv0_n24_N8UnitTest15MemoryOutStreamD0Ev:
 7223              	.LFB1461:
  13:/home/asoreyh/Dropbox/projects/lago/acqua/nexys/src/makestuff/libs/libutpp/MemoryOutStream.h **** {
 7224              		.loc 3 13 7 is_stmt 1
 7225              		.cfi_startproc
 7226 004f F30F1EFA 		endbr64
 7227 0053 4C8B17   		movq	(%rdi), %r10
 7228 0056 49037AE8 		addq	-24(%r10), %rdi
 7229 005a EBA4     		jmp	.LTHUNK1
 7230              		.cfi_endproc
 7231              	.LFE1461:
 7233              		.section	.rodata
 7234              	.LC77:
 7235 0c81 45787065 		.string	"Expected "
 7235      63746564 
 7235      2000
 7236              	.LC78:
 7237 0c8b 20627574 		.string	" but was "
 7237      20776173 
 7237      2000
 7238              		.section	.text._ZN8UnitTest10CheckEqualI12BufferStatusS1_EEvRNS_11TestResultsERKT_RKT0_RKNS_11Test
 7239              		.weak	_ZN8UnitTest10CheckEqualI12BufferStatusS1_EEvRNS_11TestResultsERKT_RKT0_RKNS_11TestDetailsE
 7241              	_ZN8UnitTest10CheckEqualI12BufferStatusS1_EEvRNS_11TestResultsERKT_RKT0_RKNS_11TestDetailsE:
 7242              	.LFB1297:
 7243              		.file 5 "/home/asoreyh/Dropbox/projects/lago/acqua/nexys/src/makestuff/libs/libutpp/Checks.h"
   1:/home/asoreyh/Dropbox/projects/lago/acqua/nexys/src/makestuff/libs/libutpp/Checks.h **** #ifndef UNITTEST_CHECKS_H
   2:/home/asoreyh/Dropbox/projects/lago/acqua/nexys/src/makestuff/libs/libutpp/Checks.h **** #define UNITTEST_CHECKS_H
   3:/home/asoreyh/Dropbox/projects/lago/acqua/nexys/src/makestuff/libs/libutpp/Checks.h **** 
   4:/home/asoreyh/Dropbox/projects/lago/acqua/nexys/src/makestuff/libs/libutpp/Checks.h **** #include "Config.h"
   5:/home/asoreyh/Dropbox/projects/lago/acqua/nexys/src/makestuff/libs/libutpp/Checks.h **** #include "TestResults.h"
   6:/home/asoreyh/Dropbox/projects/lago/acqua/nexys/src/makestuff/libs/libutpp/Checks.h **** #include "MemoryOutStream.h"
   7:/home/asoreyh/Dropbox/projects/lago/acqua/nexys/src/makestuff/libs/libutpp/Checks.h **** 
   8:/home/asoreyh/Dropbox/projects/lago/acqua/nexys/src/makestuff/libs/libutpp/Checks.h **** namespace UnitTest {
   9:/home/asoreyh/Dropbox/projects/lago/acqua/nexys/src/makestuff/libs/libutpp/Checks.h **** 
  10:/home/asoreyh/Dropbox/projects/lago/acqua/nexys/src/makestuff/libs/libutpp/Checks.h **** 
  11:/home/asoreyh/Dropbox/projects/lago/acqua/nexys/src/makestuff/libs/libutpp/Checks.h **** template< typename Value >
  12:/home/asoreyh/Dropbox/projects/lago/acqua/nexys/src/makestuff/libs/libutpp/Checks.h **** bool Check(Value const value)
  13:/home/asoreyh/Dropbox/projects/lago/acqua/nexys/src/makestuff/libs/libutpp/Checks.h **** {
  14:/home/asoreyh/Dropbox/projects/lago/acqua/nexys/src/makestuff/libs/libutpp/Checks.h ****     return !!value; // doing double negative to avoid silly VS warnings
  15:/home/asoreyh/Dropbox/projects/lago/acqua/nexys/src/makestuff/libs/libutpp/Checks.h **** }
  16:/home/asoreyh/Dropbox/projects/lago/acqua/nexys/src/makestuff/libs/libutpp/Checks.h **** 
  17:/home/asoreyh/Dropbox/projects/lago/acqua/nexys/src/makestuff/libs/libutpp/Checks.h **** 
  18:/home/asoreyh/Dropbox/projects/lago/acqua/nexys/src/makestuff/libs/libutpp/Checks.h **** template< typename Expected, typename Actual >
  19:/home/asoreyh/Dropbox/projects/lago/acqua/nexys/src/makestuff/libs/libutpp/Checks.h **** void CheckEqual(TestResults& results, Expected const& expected, Actual const& actual, TestDetails c
 7244              		.loc 5 19 6
 7245              		.cfi_startproc
 7246              		.cfi_personality 0x9b,DW.ref.__gxx_personality_v0
 7247              		.cfi_lsda 0x1b,.LLSDA1297
 7248 0000 F30F1EFA 		endbr64
 7249 0004 55       		pushq	%rbp
 7250              		.cfi_def_cfa_offset 16
 7251              		.cfi_offset 6, -16
 7252 0005 4889E5   		movq	%rsp, %rbp
 7253              		.cfi_def_cfa_register 6
 7254 0008 53       		pushq	%rbx
 7255 0009 4881ECC8 		subq	$456, %rsp
 7255      010000
 7256              		.cfi_offset 3, -24
 7257 0010 4889BD48 		movq	%rdi, -440(%rbp)
 7257      FEFFFF
 7258 0017 4889B540 		movq	%rsi, -448(%rbp)
 7258      FEFFFF
 7259 001e 48899538 		movq	%rdx, -456(%rbp)
 7259      FEFFFF
 7260 0025 48898D30 		movq	%rcx, -464(%rbp)
 7260      FEFFFF
 7261              		.loc 5 19 6
 7262 002c 64488B04 		movq	%fs:40, %rax
 7262      25280000 
 7262      00
 7263 0035 488945E8 		movq	%rax, -24(%rbp)
 7264 0039 31C0     		xorl	%eax, %eax
 7265              	.LBB23:
  20:/home/asoreyh/Dropbox/projects/lago/acqua/nexys/src/makestuff/libs/libutpp/Checks.h **** {
  21:/home/asoreyh/Dropbox/projects/lago/acqua/nexys/src/makestuff/libs/libutpp/Checks.h ****     if (!(expected == actual))
 7266              		.loc 5 21 20
 7267 003b 488B8540 		movq	-448(%rbp), %rax
 7267      FEFFFF
 7268 0042 8B10     		movl	(%rax), %edx
 7269 0044 488B8538 		movq	-456(%rbp), %rax
 7269      FEFFFF
 7270 004b 8B00     		movl	(%rax), %eax
 7271              		.loc 5 21 5
 7272 004d 39C2     		cmpl	%eax, %edx
 7273 004f 0F84C600 		je	.L357
 7273      0000
 7274              	.LBB24:
  22:/home/asoreyh/Dropbox/projects/lago/acqua/nexys/src/makestuff/libs/libutpp/Checks.h ****     {
  23:/home/asoreyh/Dropbox/projects/lago/acqua/nexys/src/makestuff/libs/libutpp/Checks.h ****         UnitTest::MemoryOutStream stream;
 7275              		.loc 5 23 35
 7276 0055 488D8550 		leaq	-432(%rbp), %rax
 7276      FEFFFF
 7277 005c 4889C7   		movq	%rax, %rdi
 7278              	.LEHB264:
 7279 005f E8000000 		call	_ZN8UnitTest15MemoryOutStreamC1Ev
 7279      00
 7280              	.LEHE264:
  24:/home/asoreyh/Dropbox/projects/lago/acqua/nexys/src/makestuff/libs/libutpp/Checks.h ****         stream << "Expected " << expected << " but was " << actual;
 7281              		.loc 5 24 16
 7282 0064 488D8550 		leaq	-432(%rbp), %rax
 7282      FEFFFF
 7283 006b 488D1500 		leaq	.LC77(%rip), %rdx
 7283      000000
 7284 0072 4889D6   		movq	%rdx, %rsi
 7285 0075 4889C7   		movq	%rax, %rdi
 7286              	.LEHB265:
 7287 0078 E8000000 		call	_ZStlsISt11char_traitsIcEERSt13basic_ostreamIcT_ES5_PKc@PLT
 7287      00
 7288 007d 4889C2   		movq	%rax, %rdx
 7289              		.loc 5 24 43
 7290 0080 488B8540 		movq	-448(%rbp), %rax
 7290      FEFFFF
 7291 0087 8B00     		movl	(%rax), %eax
 7292 0089 89C6     		movl	%eax, %esi
 7293 008b 4889D7   		movq	%rdx, %rdi
 7294 008e E8000000 		call	_ZNSolsEi@PLT
 7294      00
 7295              		.loc 5 24 43 is_stmt 0 discriminator 1
 7296 0093 4889C2   		movq	%rax, %rdx
 7297 0096 488D0500 		leaq	.LC78(%rip), %rax
 7297      000000
 7298 009d 4889C6   		movq	%rax, %rsi
 7299 00a0 4889D7   		movq	%rdx, %rdi
 7300 00a3 E8000000 		call	_ZStlsISt11char_traitsIcEERSt13basic_ostreamIcT_ES5_PKc@PLT
 7300      00
 7301              		.loc 5 24 43 discriminator 2
 7302 00a8 4889C2   		movq	%rax, %rdx
 7303              		.loc 5 24 58 is_stmt 1 discriminator 2
 7304 00ab 488B8538 		movq	-456(%rbp), %rax
 7304      FEFFFF
 7305 00b2 8B00     		movl	(%rax), %eax
 7306 00b4 89C6     		movl	%eax, %esi
 7307 00b6 4889D7   		movq	%rdx, %rdi
 7308 00b9 E8000000 		call	_ZNSolsEi@PLT
 7308      00
  25:/home/asoreyh/Dropbox/projects/lago/acqua/nexys/src/makestuff/libs/libutpp/Checks.h **** 
  26:/home/asoreyh/Dropbox/projects/lago/acqua/nexys/src/makestuff/libs/libutpp/Checks.h ****         results.OnTestFailure(details, stream.GetText());
 7309              		.loc 5 26 30
 7310 00be 488D8550 		leaq	-432(%rbp), %rax
 7310      FEFFFF
 7311 00c5 4889C7   		movq	%rax, %rdi
 7312 00c8 E8000000 		call	_ZNK8UnitTest15MemoryOutStream7GetTextEv@PLT
 7312      00
 7313 00cd 4889C2   		movq	%rax, %rdx
 7314 00d0 488B8D30 		movq	-464(%rbp), %rcx
 7314      FEFFFF
 7315 00d7 488B8548 		movq	-440(%rbp), %rax
 7315      FEFFFF
 7316 00de 4889CE   		movq	%rcx, %rsi
 7317 00e1 4889C7   		movq	%rax, %rdi
 7318 00e4 E8000000 		call	_ZN8UnitTest11TestResults13OnTestFailureERKNS_11TestDetailsEPKc@PLT
 7318      00
 7319              	.LEHE265:
  27:/home/asoreyh/Dropbox/projects/lago/acqua/nexys/src/makestuff/libs/libutpp/Checks.h ****     }
 7320              		.loc 5 27 5
 7321 00e9 488D8550 		leaq	-432(%rbp), %rax
 7321      FEFFFF
 7322 00f0 4889C7   		movq	%rax, %rdi
 7323              	.LEHB266:
 7324 00f3 E8000000 		call	_ZN8UnitTest15MemoryOutStreamD1Ev
 7324      00
 7325              	.LEHE266:
 7326              	.LBE24:
 7327              	.LBE23:
  28:/home/asoreyh/Dropbox/projects/lago/acqua/nexys/src/makestuff/libs/libutpp/Checks.h **** }
 7328              		.loc 5 28 1
 7329 00f8 EB21     		jmp	.L357
 7330              	.L356:
 7331 00fa F30F1EFA 		endbr64
 7332              	.LBB26:
 7333              	.LBB25:
  27:/home/asoreyh/Dropbox/projects/lago/acqua/nexys/src/makestuff/libs/libutpp/Checks.h ****     }
 7334              		.loc 5 27 5
 7335 00fe 4889C3   		movq	%rax, %rbx
 7336 0101 488D8550 		leaq	-432(%rbp), %rax
 7336      FEFFFF
 7337 0108 4889C7   		movq	%rax, %rdi
 7338 010b E8000000 		call	_ZN8UnitTest15MemoryOutStreamD1Ev
 7338      00
 7339 0110 4889D8   		movq	%rbx, %rax
 7340 0113 4889C7   		movq	%rax, %rdi
 7341              	.LEHB267:
 7342 0116 E8000000 		call	_Unwind_Resume@PLT
 7342      00
 7343              	.LEHE267:
 7344              	.L357:
 7345              	.LBE25:
 7346              	.LBE26:
 7347              		.loc 5 28 1
 7348 011b 90       		nop
 7349 011c 488B45E8 		movq	-24(%rbp), %rax
 7350 0120 64482B04 		subq	%fs:40, %rax
 7350      25280000 
 7350      00
 7351 0129 7405     		je	.L355
 7352 012b E8000000 		call	__stack_chk_fail@PLT
 7352      00
 7353              	.L355:
 7354 0130 488B5DF8 		movq	-8(%rbp), %rbx
 7355 0134 C9       		leave
 7356              		.cfi_def_cfa 7, 8
 7357 0135 C3       		ret
 7358              		.cfi_endproc
 7359              	.LFE1297:
 7360              		.section	.gcc_except_table
 7361              	.LLSDA1297:
 7362 0622 FF       		.byte	0xff
 7363 0623 FF       		.byte	0xff
 7364 0624 01       		.byte	0x1
 7365 0625 13       		.uleb128 .LLSDACSE1297-.LLSDACSB1297
 7366              	.LLSDACSB1297:
 7367 0626 5F       		.uleb128 .LEHB264-.LFB1297
 7368 0627 05       		.uleb128 .LEHE264-.LEHB264
 7369 0628 00       		.uleb128 0
 7370 0629 00       		.uleb128 0
 7371 062a 78       		.uleb128 .LEHB265-.LFB1297
 7372 062b 71       		.uleb128 .LEHE265-.LEHB265
 7373 062c FA01     		.uleb128 .L356-.LFB1297
 7374 062e 00       		.uleb128 0
 7375 062f F301     		.uleb128 .LEHB266-.LFB1297
 7376 0631 05       		.uleb128 .LEHE266-.LEHB266
 7377 0632 00       		.uleb128 0
 7378 0633 00       		.uleb128 0
 7379 0634 9602     		.uleb128 .LEHB267-.LFB1297
 7380 0636 05       		.uleb128 .LEHE267-.LEHB267
 7381 0637 00       		.uleb128 0
 7382 0638 00       		.uleb128 0
 7383              	.LLSDACSE1297:
 7384              		.section	.text._ZN8UnitTest10CheckEqualI12BufferStatusS1_EEvRNS_11TestResultsERKT_RKT0_RKNS_11Test
 7386              		.section	.text._ZN8UnitTest10CheckEqualIihEEvRNS_11TestResultsERKT_RKT0_RKNS_11TestDetailsE,"axG",
 7387              		.weak	_ZN8UnitTest10CheckEqualIihEEvRNS_11TestResultsERKT_RKT0_RKNS_11TestDetailsE
 7389              	_ZN8UnitTest10CheckEqualIihEEvRNS_11TestResultsERKT_RKT0_RKNS_11TestDetailsE:
 7390              	.LFB1302:
  19:/home/asoreyh/Dropbox/projects/lago/acqua/nexys/src/makestuff/libs/libutpp/Checks.h **** {
 7391              		.loc 5 19 6
 7392              		.cfi_startproc
 7393              		.cfi_personality 0x9b,DW.ref.__gxx_personality_v0
 7394              		.cfi_lsda 0x1b,.LLSDA1302
 7395 0000 F30F1EFA 		endbr64
 7396 0004 55       		pushq	%rbp
 7397              		.cfi_def_cfa_offset 16
 7398              		.cfi_offset 6, -16
 7399 0005 4889E5   		movq	%rsp, %rbp
 7400              		.cfi_def_cfa_register 6
 7401 0008 53       		pushq	%rbx
 7402 0009 4881ECC8 		subq	$456, %rsp
 7402      010000
 7403              		.cfi_offset 3, -24
 7404 0010 4889BD48 		movq	%rdi, -440(%rbp)
 7404      FEFFFF
 7405 0017 4889B540 		movq	%rsi, -448(%rbp)
 7405      FEFFFF
 7406 001e 48899538 		movq	%rdx, -456(%rbp)
 7406      FEFFFF
 7407 0025 48898D30 		movq	%rcx, -464(%rbp)
 7407      FEFFFF
  19:/home/asoreyh/Dropbox/projects/lago/acqua/nexys/src/makestuff/libs/libutpp/Checks.h **** {
 7408              		.loc 5 19 6
 7409 002c 64488B04 		movq	%fs:40, %rax
 7409      25280000 
 7409      00
 7410 0035 488945E8 		movq	%rax, -24(%rbp)
 7411 0039 31C0     		xorl	%eax, %eax
 7412              	.LBB27:
  21:/home/asoreyh/Dropbox/projects/lago/acqua/nexys/src/makestuff/libs/libutpp/Checks.h ****     {
 7413              		.loc 5 21 20
 7414 003b 488B8540 		movq	-448(%rbp), %rax
 7414      FEFFFF
 7415 0042 8B10     		movl	(%rax), %edx
 7416 0044 488B8538 		movq	-456(%rbp), %rax
 7416      FEFFFF
 7417 004b 0FB600   		movzbl	(%rax), %eax
 7418 004e 0FB6C0   		movzbl	%al, %eax
  21:/home/asoreyh/Dropbox/projects/lago/acqua/nexys/src/makestuff/libs/libutpp/Checks.h ****     {
 7419              		.loc 5 21 5
 7420 0051 39C2     		cmpl	%eax, %edx
 7421 0053 0F84CA00 		je	.L363
 7421      0000
 7422              	.LBB28:
  23:/home/asoreyh/Dropbox/projects/lago/acqua/nexys/src/makestuff/libs/libutpp/Checks.h ****         stream << "Expected " << expected << " but was " << actual;
 7423              		.loc 5 23 35
 7424 0059 488D8550 		leaq	-432(%rbp), %rax
 7424      FEFFFF
 7425 0060 4889C7   		movq	%rax, %rdi
 7426              	.LEHB268:
 7427 0063 E8000000 		call	_ZN8UnitTest15MemoryOutStreamC1Ev
 7427      00
 7428              	.LEHE268:
  24:/home/asoreyh/Dropbox/projects/lago/acqua/nexys/src/makestuff/libs/libutpp/Checks.h **** 
 7429              		.loc 5 24 16
 7430 0068 488D8550 		leaq	-432(%rbp), %rax
 7430      FEFFFF
 7431 006f 488D1500 		leaq	.LC77(%rip), %rdx
 7431      000000
 7432 0076 4889D6   		movq	%rdx, %rsi
 7433 0079 4889C7   		movq	%rax, %rdi
 7434              	.LEHB269:
 7435 007c E8000000 		call	_ZStlsISt11char_traitsIcEERSt13basic_ostreamIcT_ES5_PKc@PLT
 7435      00
 7436 0081 4889C2   		movq	%rax, %rdx
  24:/home/asoreyh/Dropbox/projects/lago/acqua/nexys/src/makestuff/libs/libutpp/Checks.h **** 
 7437              		.loc 5 24 58
 7438 0084 488B8540 		movq	-448(%rbp), %rax
 7438      FEFFFF
 7439 008b 8B00     		movl	(%rax), %eax
 7440 008d 89C6     		movl	%eax, %esi
 7441 008f 4889D7   		movq	%rdx, %rdi
 7442 0092 E8000000 		call	_ZNSolsEi@PLT
 7442      00
  24:/home/asoreyh/Dropbox/projects/lago/acqua/nexys/src/makestuff/libs/libutpp/Checks.h **** 
 7443              		.loc 5 24 58 is_stmt 0 discriminator 1
 7444 0097 4889C2   		movq	%rax, %rdx
 7445 009a 488D0500 		leaq	.LC78(%rip), %rax
 7445      000000
 7446 00a1 4889C6   		movq	%rax, %rsi
 7447 00a4 4889D7   		movq	%rdx, %rdi
 7448 00a7 E8000000 		call	_ZStlsISt11char_traitsIcEERSt13basic_ostreamIcT_ES5_PKc@PLT
 7448      00
  24:/home/asoreyh/Dropbox/projects/lago/acqua/nexys/src/makestuff/libs/libutpp/Checks.h **** 
 7449              		.loc 5 24 58 discriminator 2
 7450 00ac 4889C2   		movq	%rax, %rdx
 7451 00af 488B8538 		movq	-456(%rbp), %rax
 7451      FEFFFF
 7452 00b6 0FB600   		movzbl	(%rax), %eax
 7453 00b9 0FB6C0   		movzbl	%al, %eax
 7454 00bc 89C6     		movl	%eax, %esi
 7455 00be 4889D7   		movq	%rdx, %rdi
 7456 00c1 E8000000 		call	_ZStlsISt11char_traitsIcEERSt13basic_ostreamIcT_ES5_h@PLT
 7456      00
  26:/home/asoreyh/Dropbox/projects/lago/acqua/nexys/src/makestuff/libs/libutpp/Checks.h ****     }
 7457              		.loc 5 26 30 is_stmt 1
 7458 00c6 488D8550 		leaq	-432(%rbp), %rax
 7458      FEFFFF
 7459 00cd 4889C7   		movq	%rax, %rdi
 7460 00d0 E8000000 		call	_ZNK8UnitTest15MemoryOutStream7GetTextEv@PLT
 7460      00
 7461 00d5 4889C2   		movq	%rax, %rdx
 7462 00d8 488B8D30 		movq	-464(%rbp), %rcx
 7462      FEFFFF
 7463 00df 488B8548 		movq	-440(%rbp), %rax
 7463      FEFFFF
 7464 00e6 4889CE   		movq	%rcx, %rsi
 7465 00e9 4889C7   		movq	%rax, %rdi
 7466 00ec E8000000 		call	_ZN8UnitTest11TestResults13OnTestFailureERKNS_11TestDetailsEPKc@PLT
 7466      00
 7467              	.LEHE269:
  27:/home/asoreyh/Dropbox/projects/lago/acqua/nexys/src/makestuff/libs/libutpp/Checks.h **** }
 7468              		.loc 5 27 5
 7469 00f1 488D8550 		leaq	-432(%rbp), %rax
 7469      FEFFFF
 7470 00f8 4889C7   		movq	%rax, %rdi
 7471              	.LEHB270:
 7472 00fb E8000000 		call	_ZN8UnitTest15MemoryOutStreamD1Ev
 7472      00
 7473              	.LEHE270:
 7474              	.LBE28:
 7475              	.LBE27:
 7476              		.loc 5 28 1
 7477 0100 EB21     		jmp	.L363
 7478              	.L362:
 7479 0102 F30F1EFA 		endbr64
 7480              	.LBB30:
 7481              	.LBB29:
  27:/home/asoreyh/Dropbox/projects/lago/acqua/nexys/src/makestuff/libs/libutpp/Checks.h **** }
 7482              		.loc 5 27 5
 7483 0106 4889C3   		movq	%rax, %rbx
 7484 0109 488D8550 		leaq	-432(%rbp), %rax
 7484      FEFFFF
 7485 0110 4889C7   		movq	%rax, %rdi
 7486 0113 E8000000 		call	_ZN8UnitTest15MemoryOutStreamD1Ev
 7486      00
 7487 0118 4889D8   		movq	%rbx, %rax
 7488 011b 4889C7   		movq	%rax, %rdi
 7489              	.LEHB271:
 7490 011e E8000000 		call	_Unwind_Resume@PLT
 7490      00
 7491              	.LEHE271:
 7492              	.L363:
 7493              	.LBE29:
 7494              	.LBE30:
 7495              		.loc 5 28 1
 7496 0123 90       		nop
 7497 0124 488B45E8 		movq	-24(%rbp), %rax
 7498 0128 64482B04 		subq	%fs:40, %rax
 7498      25280000 
 7498      00
 7499 0131 7405     		je	.L361
 7500 0133 E8000000 		call	__stack_chk_fail@PLT
 7500      00
 7501              	.L361:
 7502 0138 488B5DF8 		movq	-8(%rbp), %rbx
 7503 013c C9       		leave
 7504              		.cfi_def_cfa 7, 8
 7505 013d C3       		ret
 7506              		.cfi_endproc
 7507              	.LFE1302:
 7508              		.section	.gcc_except_table
 7509              	.LLSDA1302:
 7510 0639 FF       		.byte	0xff
 7511 063a FF       		.byte	0xff
 7512 063b 01       		.byte	0x1
 7513 063c 13       		.uleb128 .LLSDACSE1302-.LLSDACSB1302
 7514              	.LLSDACSB1302:
 7515 063d 63       		.uleb128 .LEHB268-.LFB1302
 7516 063e 05       		.uleb128 .LEHE268-.LEHB268
 7517 063f 00       		.uleb128 0
 7518 0640 00       		.uleb128 0
 7519 0641 7C       		.uleb128 .LEHB269-.LFB1302
 7520 0642 75       		.uleb128 .LEHE269-.LEHB269
 7521 0643 8202     		.uleb128 .L362-.LFB1302
 7522 0645 00       		.uleb128 0
 7523 0646 FB01     		.uleb128 .LEHB270-.LFB1302
 7524 0648 05       		.uleb128 .LEHE270-.LEHB270
 7525 0649 00       		.uleb128 0
 7526 064a 00       		.uleb128 0
 7527 064b 9E02     		.uleb128 .LEHB271-.LFB1302
 7528 064d 05       		.uleb128 .LEHE271-.LEHB271
 7529 064e 00       		.uleb128 0
 7530 064f 00       		.uleb128 0
 7531              	.LLSDACSE1302:
 7532              		.section	.text._ZN8UnitTest10CheckEqualIihEEvRNS_11TestResultsERKT_RKT0_RKNS_11TestDetailsE,"axG",
 7534              		.section	.text._ZN8UnitTest10CheckEqualImjEEvRNS_11TestResultsERKT_RKT0_RKNS_11TestDetailsE,"axG",
 7535              		.weak	_ZN8UnitTest10CheckEqualImjEEvRNS_11TestResultsERKT_RKT0_RKNS_11TestDetailsE
 7537              	_ZN8UnitTest10CheckEqualImjEEvRNS_11TestResultsERKT_RKT0_RKNS_11TestDetailsE:
 7538              	.LFB1303:
  19:/home/asoreyh/Dropbox/projects/lago/acqua/nexys/src/makestuff/libs/libutpp/Checks.h **** {
 7539              		.loc 5 19 6
 7540              		.cfi_startproc
 7541              		.cfi_personality 0x9b,DW.ref.__gxx_personality_v0
 7542              		.cfi_lsda 0x1b,.LLSDA1303
 7543 0000 F30F1EFA 		endbr64
 7544 0004 55       		pushq	%rbp
 7545              		.cfi_def_cfa_offset 16
 7546              		.cfi_offset 6, -16
 7547 0005 4889E5   		movq	%rsp, %rbp
 7548              		.cfi_def_cfa_register 6
 7549 0008 53       		pushq	%rbx
 7550 0009 4881ECC8 		subq	$456, %rsp
 7550      010000
 7551              		.cfi_offset 3, -24
 7552 0010 4889BD48 		movq	%rdi, -440(%rbp)
 7552      FEFFFF
 7553 0017 4889B540 		movq	%rsi, -448(%rbp)
 7553      FEFFFF
 7554 001e 48899538 		movq	%rdx, -456(%rbp)
 7554      FEFFFF
 7555 0025 48898D30 		movq	%rcx, -464(%rbp)
 7555      FEFFFF
  19:/home/asoreyh/Dropbox/projects/lago/acqua/nexys/src/makestuff/libs/libutpp/Checks.h **** {
 7556              		.loc 5 19 6
 7557 002c 64488B04 		movq	%fs:40, %rax
 7557      25280000 
 7557      00
 7558 0035 488945E8 		movq	%rax, -24(%rbp)
 7559 0039 31C0     		xorl	%eax, %eax
 7560              	.LBB31:
  21:/home/asoreyh/Dropbox/projects/lago/acqua/nexys/src/makestuff/libs/libutpp/Checks.h ****     {
 7561              		.loc 5 21 20
 7562 003b 488B8540 		movq	-448(%rbp), %rax
 7562      FEFFFF
 7563 0042 488B10   		movq	(%rax), %rdx
 7564 0045 488B8538 		movq	-456(%rbp), %rax
 7564      FEFFFF
 7565 004c 8B00     		movl	(%rax), %eax
 7566 004e 89C0     		movl	%eax, %eax
  21:/home/asoreyh/Dropbox/projects/lago/acqua/nexys/src/makestuff/libs/libutpp/Checks.h ****     {
 7567              		.loc 5 21 5
 7568 0050 4839C2   		cmpq	%rax, %rdx
 7569 0053 0F84C800 		je	.L369
 7569      0000
 7570              	.LBB32:
  23:/home/asoreyh/Dropbox/projects/lago/acqua/nexys/src/makestuff/libs/libutpp/Checks.h ****         stream << "Expected " << expected << " but was " << actual;
 7571              		.loc 5 23 35
 7572 0059 488D8550 		leaq	-432(%rbp), %rax
 7572      FEFFFF
 7573 0060 4889C7   		movq	%rax, %rdi
 7574              	.LEHB272:
 7575 0063 E8000000 		call	_ZN8UnitTest15MemoryOutStreamC1Ev
 7575      00
 7576              	.LEHE272:
  24:/home/asoreyh/Dropbox/projects/lago/acqua/nexys/src/makestuff/libs/libutpp/Checks.h **** 
 7577              		.loc 5 24 16
 7578 0068 488D8550 		leaq	-432(%rbp), %rax
 7578      FEFFFF
 7579 006f 488D1500 		leaq	.LC77(%rip), %rdx
 7579      000000
 7580 0076 4889D6   		movq	%rdx, %rsi
 7581 0079 4889C7   		movq	%rax, %rdi
 7582              	.LEHB273:
 7583 007c E8000000 		call	_ZStlsISt11char_traitsIcEERSt13basic_ostreamIcT_ES5_PKc@PLT
 7583      00
 7584 0081 4889C2   		movq	%rax, %rdx
  24:/home/asoreyh/Dropbox/projects/lago/acqua/nexys/src/makestuff/libs/libutpp/Checks.h **** 
 7585              		.loc 5 24 31
 7586 0084 488B8540 		movq	-448(%rbp), %rax
 7586      FEFFFF
 7587 008b 488B00   		movq	(%rax), %rax
 7588 008e 4889C6   		movq	%rax, %rsi
 7589 0091 4889D7   		movq	%rdx, %rdi
 7590 0094 E8000000 		call	_ZNSolsEm@PLT
 7590      00
  24:/home/asoreyh/Dropbox/projects/lago/acqua/nexys/src/makestuff/libs/libutpp/Checks.h **** 
 7591              		.loc 5 24 31 is_stmt 0 discriminator 1
 7592 0099 4889C2   		movq	%rax, %rdx
  24:/home/asoreyh/Dropbox/projects/lago/acqua/nexys/src/makestuff/libs/libutpp/Checks.h **** 
 7593              		.loc 5 24 43 is_stmt 1 discriminator 1
 7594 009c 488D0500 		leaq	.LC78(%rip), %rax
 7594      000000
 7595 00a3 4889C6   		movq	%rax, %rsi
 7596 00a6 4889D7   		movq	%rdx, %rdi
 7597 00a9 E8000000 		call	_ZStlsISt11char_traitsIcEERSt13basic_ostreamIcT_ES5_PKc@PLT
 7597      00
  24:/home/asoreyh/Dropbox/projects/lago/acqua/nexys/src/makestuff/libs/libutpp/Checks.h **** 
 7598              		.loc 5 24 43 is_stmt 0 discriminator 2
 7599 00ae 4889C2   		movq	%rax, %rdx
  24:/home/asoreyh/Dropbox/projects/lago/acqua/nexys/src/makestuff/libs/libutpp/Checks.h **** 
 7600              		.loc 5 24 58 is_stmt 1 discriminator 2
 7601 00b1 488B8538 		movq	-456(%rbp), %rax
 7601      FEFFFF
 7602 00b8 8B00     		movl	(%rax), %eax
 7603 00ba 89C6     		movl	%eax, %esi
 7604 00bc 4889D7   		movq	%rdx, %rdi
 7605 00bf E8000000 		call	_ZNSolsEj@PLT
 7605      00
  26:/home/asoreyh/Dropbox/projects/lago/acqua/nexys/src/makestuff/libs/libutpp/Checks.h ****     }
 7606              		.loc 5 26 30
 7607 00c4 488D8550 		leaq	-432(%rbp), %rax
 7607      FEFFFF
 7608 00cb 4889C7   		movq	%rax, %rdi
 7609 00ce E8000000 		call	_ZNK8UnitTest15MemoryOutStream7GetTextEv@PLT
 7609      00
 7610 00d3 4889C2   		movq	%rax, %rdx
 7611 00d6 488B8D30 		movq	-464(%rbp), %rcx
 7611      FEFFFF
 7612 00dd 488B8548 		movq	-440(%rbp), %rax
 7612      FEFFFF
 7613 00e4 4889CE   		movq	%rcx, %rsi
 7614 00e7 4889C7   		movq	%rax, %rdi
 7615 00ea E8000000 		call	_ZN8UnitTest11TestResults13OnTestFailureERKNS_11TestDetailsEPKc@PLT
 7615      00
 7616              	.LEHE273:
  27:/home/asoreyh/Dropbox/projects/lago/acqua/nexys/src/makestuff/libs/libutpp/Checks.h **** }
 7617              		.loc 5 27 5
 7618 00ef 488D8550 		leaq	-432(%rbp), %rax
 7618      FEFFFF
 7619 00f6 4889C7   		movq	%rax, %rdi
 7620              	.LEHB274:
 7621 00f9 E8000000 		call	_ZN8UnitTest15MemoryOutStreamD1Ev
 7621      00
 7622              	.LEHE274:
 7623              	.LBE32:
 7624              	.LBE31:
 7625              		.loc 5 28 1
 7626 00fe EB21     		jmp	.L369
 7627              	.L368:
 7628 0100 F30F1EFA 		endbr64
 7629              	.LBB34:
 7630              	.LBB33:
  27:/home/asoreyh/Dropbox/projects/lago/acqua/nexys/src/makestuff/libs/libutpp/Checks.h **** }
 7631              		.loc 5 27 5
 7632 0104 4889C3   		movq	%rax, %rbx
 7633 0107 488D8550 		leaq	-432(%rbp), %rax
 7633      FEFFFF
 7634 010e 4889C7   		movq	%rax, %rdi
 7635 0111 E8000000 		call	_ZN8UnitTest15MemoryOutStreamD1Ev
 7635      00
 7636 0116 4889D8   		movq	%rbx, %rax
 7637 0119 4889C7   		movq	%rax, %rdi
 7638              	.LEHB275:
 7639 011c E8000000 		call	_Unwind_Resume@PLT
 7639      00
 7640              	.LEHE275:
 7641              	.L369:
 7642              	.LBE33:
 7643              	.LBE34:
 7644              		.loc 5 28 1
 7645 0121 90       		nop
 7646 0122 488B45E8 		movq	-24(%rbp), %rax
 7647 0126 64482B04 		subq	%fs:40, %rax
 7647      25280000 
 7647      00
 7648 012f 7405     		je	.L367
 7649 0131 E8000000 		call	__stack_chk_fail@PLT
 7649      00
 7650              	.L367:
 7651 0136 488B5DF8 		movq	-8(%rbp), %rbx
 7652 013a C9       		leave
 7653              		.cfi_def_cfa 7, 8
 7654 013b C3       		ret
 7655              		.cfi_endproc
 7656              	.LFE1303:
 7657              		.section	.gcc_except_table
 7658              	.LLSDA1303:
 7659 0650 FF       		.byte	0xff
 7660 0651 FF       		.byte	0xff
 7661 0652 01       		.byte	0x1
 7662 0653 13       		.uleb128 .LLSDACSE1303-.LLSDACSB1303
 7663              	.LLSDACSB1303:
 7664 0654 63       		.uleb128 .LEHB272-.LFB1303
 7665 0655 05       		.uleb128 .LEHE272-.LEHB272
 7666 0656 00       		.uleb128 0
 7667 0657 00       		.uleb128 0
 7668 0658 7C       		.uleb128 .LEHB273-.LFB1303
 7669 0659 73       		.uleb128 .LEHE273-.LEHB273
 7670 065a 8002     		.uleb128 .L368-.LFB1303
 7671 065c 00       		.uleb128 0
 7672 065d F901     		.uleb128 .LEHB274-.LFB1303
 7673 065f 05       		.uleb128 .LEHE274-.LEHB274
 7674 0660 00       		.uleb128 0
 7675 0661 00       		.uleb128 0
 7676 0662 9C02     		.uleb128 .LEHB275-.LFB1303
 7677 0664 05       		.uleb128 .LEHE275-.LEHB275
 7678 0665 00       		.uleb128 0
 7679 0666 00       		.uleb128 0
 7680              	.LLSDACSE1303:
 7681              		.section	.text._ZN8UnitTest10CheckEqualImjEEvRNS_11TestResultsERKT_RKT0_RKNS_11TestDetailsE,"axG",
 7683              		.section	.rodata
 7684              	.LC79:
 7685 0c95 45787065 		.string	"Expected [ "
 7685      63746564 
 7685      205B2000 
 7686              	.LC80:
 7687 0ca1 2000     		.string	" "
 7688              	.LC81:
 7689 0ca3 5D206275 		.string	"] but was [ "
 7689      74207761 
 7689      73205B20 
 7689      00
 7690              	.LC82:
 7691 0cb0 5D00     		.string	"]"
 7692              		.section	.text._ZN8UnitTest15CheckArrayEqualIA4_hPhEEvRNS_11TestResultsERKT_RKT0_iRKNS_11TestDetai
 7693              		.weak	_ZN8UnitTest15CheckArrayEqualIA4_hPhEEvRNS_11TestResultsERKT_RKT0_iRKNS_11TestDetailsE
 7695              	_ZN8UnitTest15CheckArrayEqualIA4_hPhEEvRNS_11TestResultsERKT_RKT0_iRKNS_11TestDetailsE:
 7696              	.LFB1304:
  29:/home/asoreyh/Dropbox/projects/lago/acqua/nexys/src/makestuff/libs/libutpp/Checks.h **** 
  30:/home/asoreyh/Dropbox/projects/lago/acqua/nexys/src/makestuff/libs/libutpp/Checks.h **** void CheckEqual(TestResults& results, char const* expected, char const* actual, TestDetails const& 
  31:/home/asoreyh/Dropbox/projects/lago/acqua/nexys/src/makestuff/libs/libutpp/Checks.h **** 
  32:/home/asoreyh/Dropbox/projects/lago/acqua/nexys/src/makestuff/libs/libutpp/Checks.h **** void CheckEqual(TestResults& results, char* expected, char* actual, TestDetails const& details);
  33:/home/asoreyh/Dropbox/projects/lago/acqua/nexys/src/makestuff/libs/libutpp/Checks.h **** 
  34:/home/asoreyh/Dropbox/projects/lago/acqua/nexys/src/makestuff/libs/libutpp/Checks.h **** void CheckEqual(TestResults& results, char* expected, char const* actual, TestDetails const& detail
  35:/home/asoreyh/Dropbox/projects/lago/acqua/nexys/src/makestuff/libs/libutpp/Checks.h **** 
  36:/home/asoreyh/Dropbox/projects/lago/acqua/nexys/src/makestuff/libs/libutpp/Checks.h **** void CheckEqual(TestResults& results, char const* expected, char* actual, TestDetails const& detail
  37:/home/asoreyh/Dropbox/projects/lago/acqua/nexys/src/makestuff/libs/libutpp/Checks.h **** 
  38:/home/asoreyh/Dropbox/projects/lago/acqua/nexys/src/makestuff/libs/libutpp/Checks.h **** template< typename Expected, typename Actual, typename Tolerance >
  39:/home/asoreyh/Dropbox/projects/lago/acqua/nexys/src/makestuff/libs/libutpp/Checks.h **** bool AreClose(Expected const& expected, Actual const& actual, Tolerance const& tolerance)
  40:/home/asoreyh/Dropbox/projects/lago/acqua/nexys/src/makestuff/libs/libutpp/Checks.h **** {
  41:/home/asoreyh/Dropbox/projects/lago/acqua/nexys/src/makestuff/libs/libutpp/Checks.h ****     return (actual >= (expected - tolerance)) && (actual <= (expected + tolerance));
  42:/home/asoreyh/Dropbox/projects/lago/acqua/nexys/src/makestuff/libs/libutpp/Checks.h **** }
  43:/home/asoreyh/Dropbox/projects/lago/acqua/nexys/src/makestuff/libs/libutpp/Checks.h **** 
  44:/home/asoreyh/Dropbox/projects/lago/acqua/nexys/src/makestuff/libs/libutpp/Checks.h **** template< typename Expected, typename Actual, typename Tolerance >
  45:/home/asoreyh/Dropbox/projects/lago/acqua/nexys/src/makestuff/libs/libutpp/Checks.h **** void CheckClose(TestResults& results, Expected const& expected, Actual const& actual, Tolerance con
  46:/home/asoreyh/Dropbox/projects/lago/acqua/nexys/src/makestuff/libs/libutpp/Checks.h ****                 TestDetails const& details)
  47:/home/asoreyh/Dropbox/projects/lago/acqua/nexys/src/makestuff/libs/libutpp/Checks.h **** {
  48:/home/asoreyh/Dropbox/projects/lago/acqua/nexys/src/makestuff/libs/libutpp/Checks.h ****     if (!AreClose(expected, actual, tolerance))
  49:/home/asoreyh/Dropbox/projects/lago/acqua/nexys/src/makestuff/libs/libutpp/Checks.h ****     { 
  50:/home/asoreyh/Dropbox/projects/lago/acqua/nexys/src/makestuff/libs/libutpp/Checks.h ****         UnitTest::MemoryOutStream stream;
  51:/home/asoreyh/Dropbox/projects/lago/acqua/nexys/src/makestuff/libs/libutpp/Checks.h ****         stream << "Expected " << expected << " +/- " << tolerance << " but was " << actual;
  52:/home/asoreyh/Dropbox/projects/lago/acqua/nexys/src/makestuff/libs/libutpp/Checks.h **** 
  53:/home/asoreyh/Dropbox/projects/lago/acqua/nexys/src/makestuff/libs/libutpp/Checks.h ****         results.OnTestFailure(details, stream.GetText());
  54:/home/asoreyh/Dropbox/projects/lago/acqua/nexys/src/makestuff/libs/libutpp/Checks.h ****     }
  55:/home/asoreyh/Dropbox/projects/lago/acqua/nexys/src/makestuff/libs/libutpp/Checks.h **** }
  56:/home/asoreyh/Dropbox/projects/lago/acqua/nexys/src/makestuff/libs/libutpp/Checks.h **** 
  57:/home/asoreyh/Dropbox/projects/lago/acqua/nexys/src/makestuff/libs/libutpp/Checks.h **** 
  58:/home/asoreyh/Dropbox/projects/lago/acqua/nexys/src/makestuff/libs/libutpp/Checks.h **** template< typename Expected, typename Actual >
  59:/home/asoreyh/Dropbox/projects/lago/acqua/nexys/src/makestuff/libs/libutpp/Checks.h **** void CheckArrayEqual(TestResults& results, Expected const& expected, Actual const& actual,
 7697              		.loc 5 59 6
 7698              		.cfi_startproc
 7699              		.cfi_personality 0x9b,DW.ref.__gxx_personality_v0
 7700              		.cfi_lsda 0x1b,.LLSDA1304
 7701 0000 F30F1EFA 		endbr64
 7702 0004 55       		pushq	%rbp
 7703              		.cfi_def_cfa_offset 16
 7704              		.cfi_offset 6, -16
 7705 0005 4889E5   		movq	%rsp, %rbp
 7706              		.cfi_def_cfa_register 6
 7707 0008 53       		pushq	%rbx
 7708 0009 4881ECE8 		subq	$488, %rsp
 7708      010000
 7709              		.cfi_offset 3, -24
 7710 0010 4889BD38 		movq	%rdi, -456(%rbp)
 7710      FEFFFF
 7711 0017 4889B530 		movq	%rsi, -464(%rbp)
 7711      FEFFFF
 7712 001e 48899528 		movq	%rdx, -472(%rbp)
 7712      FEFFFF
 7713 0025 898D24FE 		movl	%ecx, -476(%rbp)
 7713      FFFF
 7714 002b 4C898518 		movq	%r8, -488(%rbp)
 7714      FEFFFF
 7715              		.loc 5 59 6
 7716 0032 64488B04 		movq	%fs:40, %rax
 7716      25280000 
 7716      00
 7717 003b 488945E8 		movq	%rax, -24(%rbp)
 7718 003f 31C0     		xorl	%eax, %eax
  60:/home/asoreyh/Dropbox/projects/lago/acqua/nexys/src/makestuff/libs/libutpp/Checks.h ****                 int const count, TestDetails const& details)
  61:/home/asoreyh/Dropbox/projects/lago/acqua/nexys/src/makestuff/libs/libutpp/Checks.h **** {
  62:/home/asoreyh/Dropbox/projects/lago/acqua/nexys/src/makestuff/libs/libutpp/Checks.h ****     bool equal = true;
 7719              		.loc 5 62 10
 7720 0041 C68543FE 		movb	$1, -445(%rbp)
 7720      FFFF01
 7721              	.LBB35:
  63:/home/asoreyh/Dropbox/projects/lago/acqua/nexys/src/makestuff/libs/libutpp/Checks.h ****     for (int i = 0; i < count; ++i)
 7722              		.loc 5 63 14
 7723 0048 C78544FE 		movl	$0, -444(%rbp)
 7723      FFFF0000 
 7723      0000
 7724              		.loc 5 63 5
 7725 0052 EB4E     		jmp	.L371
 7726              	.L372:
  64:/home/asoreyh/Dropbox/projects/lago/acqua/nexys/src/makestuff/libs/libutpp/Checks.h ****         equal &= (expected[i] == actual[i]);
 7727              		.loc 5 64 15 discriminator 3
 7728 0054 0FB68D43 		movzbl	-445(%rbp), %ecx
 7728      FEFFFF
 7729              		.loc 5 64 27 discriminator 3
 7730 005b 488B9530 		movq	-464(%rbp), %rdx
 7730      FEFFFF
 7731 0062 8B8544FE 		movl	-444(%rbp), %eax
 7731      FFFF
 7732 0068 4898     		cltq
 7733 006a 0FB61402 		movzbl	(%rdx,%rax), %edx
 7734              		.loc 5 64 40 discriminator 3
 7735 006e 488B8528 		movq	-472(%rbp), %rax
 7735      FEFFFF
 7736 0075 488B30   		movq	(%rax), %rsi
 7737              		.loc 5 64 41 discriminator 3
 7738 0078 8B8544FE 		movl	-444(%rbp), %eax
 7738      FFFF
 7739 007e 4898     		cltq
 7740              		.loc 5 64 40 discriminator 3
 7741 0080 4801F0   		addq	%rsi, %rax
 7742              		.loc 5 64 31 discriminator 3
 7743 0083 0FB600   		movzbl	(%rax), %eax
 7744 0086 38C2     		cmpb	%al, %dl
 7745 0088 0F94C0   		sete	%al
 7746 008b 0FB6C0   		movzbl	%al, %eax
 7747              		.loc 5 64 15 discriminator 3
 7748 008e 21C8     		andl	%ecx, %eax
 7749 0090 85C0     		testl	%eax, %eax
 7750 0092 0F95C0   		setne	%al
 7751 0095 888543FE 		movb	%al, -445(%rbp)
 7751      FFFF
  63:/home/asoreyh/Dropbox/projects/lago/acqua/nexys/src/makestuff/libs/libutpp/Checks.h ****     for (int i = 0; i < count; ++i)
 7752              		.loc 5 63 5 discriminator 3
 7753 009b 838544FE 		addl	$1, -444(%rbp)
 7753      FFFF01
 7754              	.L371:
  63:/home/asoreyh/Dropbox/projects/lago/acqua/nexys/src/makestuff/libs/libutpp/Checks.h ****     for (int i = 0; i < count; ++i)
 7755              		.loc 5 63 23 discriminator 1
 7756 00a2 8B8544FE 		movl	-444(%rbp), %eax
 7756      FFFF
 7757 00a8 3B8524FE 		cmpl	-476(%rbp), %eax
 7757      FFFF
 7758 00ae 7CA4     		jl	.L372
 7759              	.LBE35:
 7760              	.LBB36:
  65:/home/asoreyh/Dropbox/projects/lago/acqua/nexys/src/makestuff/libs/libutpp/Checks.h **** 
  66:/home/asoreyh/Dropbox/projects/lago/acqua/nexys/src/makestuff/libs/libutpp/Checks.h ****     if (!equal)
 7761              		.loc 5 66 10
 7762 00b0 0FB68543 		movzbl	-445(%rbp), %eax
 7762      FEFFFF
 7763 00b7 83F001   		xorl	$1, %eax
 7764              		.loc 5 66 5
 7765 00ba 84C0     		testb	%al, %al
 7766 00bc 0F847601 		je	.L381
 7766      0000
 7767              	.LBB37:
  67:/home/asoreyh/Dropbox/projects/lago/acqua/nexys/src/makestuff/libs/libutpp/Checks.h ****     {
  68:/home/asoreyh/Dropbox/projects/lago/acqua/nexys/src/makestuff/libs/libutpp/Checks.h ****         UnitTest::MemoryOutStream stream;
 7768              		.loc 5 68 35
 7769 00c2 488D8550 		leaq	-432(%rbp), %rax
 7769      FEFFFF
 7770 00c9 4889C7   		movq	%rax, %rdi
 7771              	.LEHB276:
 7772 00cc E8000000 		call	_ZN8UnitTest15MemoryOutStreamC1Ev
 7772      00
 7773              	.LEHE276:
  69:/home/asoreyh/Dropbox/projects/lago/acqua/nexys/src/makestuff/libs/libutpp/Checks.h **** 
  70:/home/asoreyh/Dropbox/projects/lago/acqua/nexys/src/makestuff/libs/libutpp/Checks.h **** 		stream << "Expected [ ";
 7774              		.loc 5 70 10
 7775 00d1 488D8550 		leaq	-432(%rbp), %rax
 7775      FEFFFF
 7776 00d8 488D1500 		leaq	.LC79(%rip), %rdx
 7776      000000
 7777 00df 4889D6   		movq	%rdx, %rsi
 7778 00e2 4889C7   		movq	%rax, %rdi
 7779              	.LEHB277:
 7780 00e5 E8000000 		call	_ZStlsISt11char_traitsIcEERSt13basic_ostreamIcT_ES5_PKc@PLT
 7780      00
 7781              	.LBB38:
  71:/home/asoreyh/Dropbox/projects/lago/acqua/nexys/src/makestuff/libs/libutpp/Checks.h **** 
  72:/home/asoreyh/Dropbox/projects/lago/acqua/nexys/src/makestuff/libs/libutpp/Checks.h **** 		for (int expectedIndex = 0; expectedIndex < count; ++expectedIndex)
 7782              		.loc 5 72 12
 7783 00ea C78548FE 		movl	$0, -440(%rbp)
 7783      FFFF0000 
 7783      0000
 7784              		.loc 5 72 3
 7785 00f4 EB43     		jmp	.L374
 7786              	.L375:
  73:/home/asoreyh/Dropbox/projects/lago/acqua/nexys/src/makestuff/libs/libutpp/Checks.h ****             stream << expected[expectedIndex] << " ";
 7787              		.loc 5 73 31
 7788 00f6 488B9530 		movq	-464(%rbp), %rdx
 7788      FEFFFF
 7789 00fd 8B8548FE 		movl	-440(%rbp), %eax
 7789      FFFF
 7790 0103 4898     		cltq
 7791 0105 0FB60402 		movzbl	(%rdx,%rax), %eax
 7792              		.loc 5 73 47
 7793 0109 0FB6D0   		movzbl	%al, %edx
 7794 010c 488D8550 		leaq	-432(%rbp), %rax
 7794      FEFFFF
 7795 0113 89D6     		movl	%edx, %esi
 7796 0115 4889C7   		movq	%rax, %rdi
 7797 0118 E8000000 		call	_ZStlsISt11char_traitsIcEERSt13basic_ostreamIcT_ES5_h@PLT
 7797      00
 7798 011d 4889C2   		movq	%rax, %rdx
 7799 0120 488D0500 		leaq	.LC80(%rip), %rax
 7799      000000
 7800 0127 4889C6   		movq	%rax, %rsi
 7801 012a 4889D7   		movq	%rdx, %rdi
 7802 012d E8000000 		call	_ZStlsISt11char_traitsIcEERSt13basic_ostreamIcT_ES5_PKc@PLT
 7802      00
  72:/home/asoreyh/Dropbox/projects/lago/acqua/nexys/src/makestuff/libs/libutpp/Checks.h ****             stream << expected[expectedIndex] << " ";
 7803              		.loc 5 72 3 discriminator 2
 7804 0132 838548FE 		addl	$1, -440(%rbp)
 7804      FFFF01
 7805              	.L374:
  72:/home/asoreyh/Dropbox/projects/lago/acqua/nexys/src/makestuff/libs/libutpp/Checks.h ****             stream << expected[expectedIndex] << " ";
 7806              		.loc 5 72 45 discriminator 1
 7807 0139 8B8548FE 		movl	-440(%rbp), %eax
 7807      FFFF
 7808 013f 3B8524FE 		cmpl	-476(%rbp), %eax
 7808      FFFF
 7809 0145 7CAF     		jl	.L375
 7810              	.LBE38:
  74:/home/asoreyh/Dropbox/projects/lago/acqua/nexys/src/makestuff/libs/libutpp/Checks.h **** 
  75:/home/asoreyh/Dropbox/projects/lago/acqua/nexys/src/makestuff/libs/libutpp/Checks.h **** 		stream << "] but was [ ";
 7811              		.loc 5 75 10
 7812 0147 488D8550 		leaq	-432(%rbp), %rax
 7812      FEFFFF
 7813 014e 488D1500 		leaq	.LC81(%rip), %rdx
 7813      000000
 7814 0155 4889D6   		movq	%rdx, %rsi
 7815 0158 4889C7   		movq	%rax, %rdi
 7816 015b E8000000 		call	_ZStlsISt11char_traitsIcEERSt13basic_ostreamIcT_ES5_PKc@PLT
 7816      00
 7817              	.LBB39:
  76:/home/asoreyh/Dropbox/projects/lago/acqua/nexys/src/makestuff/libs/libutpp/Checks.h **** 
  77:/home/asoreyh/Dropbox/projects/lago/acqua/nexys/src/makestuff/libs/libutpp/Checks.h **** 		for (int actualIndex = 0; actualIndex < count; ++actualIndex)
 7818              		.loc 5 77 12
 7819 0160 C7854CFE 		movl	$0, -436(%rbp)
 7819      FFFF0000 
 7819      0000
 7820              		.loc 5 77 3
 7821 016a EB48     		jmp	.L376
 7822              	.L377:
  78:/home/asoreyh/Dropbox/projects/lago/acqua/nexys/src/makestuff/libs/libutpp/Checks.h ****             stream << actual[actualIndex] << " ";
 7823              		.loc 5 78 29
 7824 016c 488B8528 		movq	-472(%rbp), %rax
 7824      FEFFFF
 7825 0173 488B10   		movq	(%rax), %rdx
 7826              		.loc 5 78 30
 7827 0176 8B854CFE 		movl	-436(%rbp), %eax
 7827      FFFF
 7828 017c 4898     		cltq
 7829              		.loc 5 78 29
 7830 017e 4801D0   		addq	%rdx, %rax
 7831 0181 0FB600   		movzbl	(%rax), %eax
 7832              		.loc 5 78 43
 7833 0184 0FB6D0   		movzbl	%al, %edx
 7834 0187 488D8550 		leaq	-432(%rbp), %rax
 7834      FEFFFF
 7835 018e 89D6     		movl	%edx, %esi
 7836 0190 4889C7   		movq	%rax, %rdi
 7837 0193 E8000000 		call	_ZStlsISt11char_traitsIcEERSt13basic_ostreamIcT_ES5_h@PLT
 7837      00
 7838 0198 4889C2   		movq	%rax, %rdx
 7839 019b 488D0500 		leaq	.LC80(%rip), %rax
 7839      000000
 7840 01a2 4889C6   		movq	%rax, %rsi
 7841 01a5 4889D7   		movq	%rdx, %rdi
 7842 01a8 E8000000 		call	_ZStlsISt11char_traitsIcEERSt13basic_ostreamIcT_ES5_PKc@PLT
 7842      00
  77:/home/asoreyh/Dropbox/projects/lago/acqua/nexys/src/makestuff/libs/libutpp/Checks.h ****             stream << actual[actualIndex] << " ";
 7843              		.loc 5 77 3 discriminator 2
 7844 01ad 83854CFE 		addl	$1, -436(%rbp)
 7844      FFFF01
 7845              	.L376:
  77:/home/asoreyh/Dropbox/projects/lago/acqua/nexys/src/makestuff/libs/libutpp/Checks.h ****             stream << actual[actualIndex] << " ";
 7846              		.loc 5 77 41 discriminator 1
 7847 01b4 8B854CFE 		movl	-436(%rbp), %eax
 7847      FFFF
 7848 01ba 3B8524FE 		cmpl	-476(%rbp), %eax
 7848      FFFF
 7849 01c0 7CAA     		jl	.L377
 7850              	.LBE39:
  79:/home/asoreyh/Dropbox/projects/lago/acqua/nexys/src/makestuff/libs/libutpp/Checks.h **** 
  80:/home/asoreyh/Dropbox/projects/lago/acqua/nexys/src/makestuff/libs/libutpp/Checks.h **** 		stream << "]";
 7851              		.loc 5 80 10
 7852 01c2 488D8550 		leaq	-432(%rbp), %rax
 7852      FEFFFF
 7853 01c9 488D1500 		leaq	.LC82(%rip), %rdx
 7853      000000
 7854 01d0 4889D6   		movq	%rdx, %rsi
 7855 01d3 4889C7   		movq	%rax, %rdi
 7856 01d6 E8000000 		call	_ZStlsISt11char_traitsIcEERSt13basic_ostreamIcT_ES5_PKc@PLT
 7856      00
  81:/home/asoreyh/Dropbox/projects/lago/acqua/nexys/src/makestuff/libs/libutpp/Checks.h **** 
  82:/home/asoreyh/Dropbox/projects/lago/acqua/nexys/src/makestuff/libs/libutpp/Checks.h ****         results.OnTestFailure(details, stream.GetText());
 7857              		.loc 5 82 30
 7858 01db 488D8550 		leaq	-432(%rbp), %rax
 7858      FEFFFF
 7859 01e2 4889C7   		movq	%rax, %rdi
 7860 01e5 E8000000 		call	_ZNK8UnitTest15MemoryOutStream7GetTextEv@PLT
 7860      00
 7861 01ea 4889C2   		movq	%rax, %rdx
 7862 01ed 488B8D18 		movq	-488(%rbp), %rcx
 7862      FEFFFF
 7863 01f4 488B8538 		movq	-456(%rbp), %rax
 7863      FEFFFF
 7864 01fb 4889CE   		movq	%rcx, %rsi
 7865 01fe 4889C7   		movq	%rax, %rdi
 7866 0201 E8000000 		call	_ZN8UnitTest11TestResults13OnTestFailureERKNS_11TestDetailsEPKc@PLT
 7866      00
 7867              	.LEHE277:
  83:/home/asoreyh/Dropbox/projects/lago/acqua/nexys/src/makestuff/libs/libutpp/Checks.h ****     }
 7868              		.loc 5 83 5
 7869 0206 488D8550 		leaq	-432(%rbp), %rax
 7869      FEFFFF
 7870 020d 4889C7   		movq	%rax, %rdi
 7871              	.LEHB278:
 7872 0210 E8000000 		call	_ZN8UnitTest15MemoryOutStreamD1Ev
 7872      00
 7873              	.LEHE278:
 7874              	.LBE37:
 7875              	.LBE36:
  84:/home/asoreyh/Dropbox/projects/lago/acqua/nexys/src/makestuff/libs/libutpp/Checks.h **** }
 7876              		.loc 5 84 1
 7877 0215 EB21     		jmp	.L381
 7878              	.L380:
 7879 0217 F30F1EFA 		endbr64
 7880              	.LBB41:
 7881              	.LBB40:
  83:/home/asoreyh/Dropbox/projects/lago/acqua/nexys/src/makestuff/libs/libutpp/Checks.h ****     }
 7882              		.loc 5 83 5
 7883 021b 4889C3   		movq	%rax, %rbx
 7884 021e 488D8550 		leaq	-432(%rbp), %rax
 7884      FEFFFF
 7885 0225 4889C7   		movq	%rax, %rdi
 7886 0228 E8000000 		call	_ZN8UnitTest15MemoryOutStreamD1Ev
 7886      00
 7887 022d 4889D8   		movq	%rbx, %rax
 7888 0230 4889C7   		movq	%rax, %rdi
 7889              	.LEHB279:
 7890 0233 E8000000 		call	_Unwind_Resume@PLT
 7890      00
 7891              	.LEHE279:
 7892              	.L381:
 7893              	.LBE40:
 7894              	.LBE41:
 7895              		.loc 5 84 1
 7896 0238 90       		nop
 7897 0239 488B45E8 		movq	-24(%rbp), %rax
 7898 023d 64482B04 		subq	%fs:40, %rax
 7898      25280000 
 7898      00
 7899 0246 7405     		je	.L379
 7900 0248 E8000000 		call	__stack_chk_fail@PLT
 7900      00
 7901              	.L379:
 7902 024d 488B5DF8 		movq	-8(%rbp), %rbx
 7903 0251 C9       		leave
 7904              		.cfi_def_cfa 7, 8
 7905 0252 C3       		ret
 7906              		.cfi_endproc
 7907              	.LFE1304:
 7908              		.section	.gcc_except_table
 7909              	.LLSDA1304:
 7910 0667 FF       		.byte	0xff
 7911 0668 FF       		.byte	0xff
 7912 0669 01       		.byte	0x1
 7913 066a 16       		.uleb128 .LLSDACSE1304-.LLSDACSB1304
 7914              	.LLSDACSB1304:
 7915 066b CC01     		.uleb128 .LEHB276-.LFB1304
 7916 066d 05       		.uleb128 .LEHE276-.LEHB276
 7917 066e 00       		.uleb128 0
 7918 066f 00       		.uleb128 0
 7919 0670 E501     		.uleb128 .LEHB277-.LFB1304
 7920 0672 A102     		.uleb128 .LEHE277-.LEHB277
 7921 0674 9704     		.uleb128 .L380-.LFB1304
 7922 0676 00       		.uleb128 0
 7923 0677 9004     		.uleb128 .LEHB278-.LFB1304
 7924 0679 05       		.uleb128 .LEHE278-.LEHB278
 7925 067a 00       		.uleb128 0
 7926 067b 00       		.uleb128 0
 7927 067c B304     		.uleb128 .LEHB279-.LFB1304
 7928 067e 05       		.uleb128 .LEHE279-.LEHB279
 7929 067f 00       		.uleb128 0
 7930 0680 00       		.uleb128 0
 7931              	.LLSDACSE1304:
 7932              		.section	.text._ZN8UnitTest15CheckArrayEqualIA4_hPhEEvRNS_11TestResultsERKT_RKT0_iRKNS_11TestDetai
 7934              		.section	.text._ZNSt4fposI11__mbstate_tEC2Ev,"axG",@progbits,_ZNSt4fposI11__mbstate_tEC5Ev,comdat
 7935              		.align 2
 7936              		.weak	_ZNSt4fposI11__mbstate_tEC2Ev
 7938              	_ZNSt4fposI11__mbstate_tEC2Ev:
 7939              	.LFB1315:
 7940              		.file 6 "/usr/include/c++/12/bits/postypes.h"
   1:/usr/include/c++/12/bits/postypes.h **** // Position types -*- C++ -*-
   2:/usr/include/c++/12/bits/postypes.h **** 
   3:/usr/include/c++/12/bits/postypes.h **** // Copyright (C) 1997-2022 Free Software Foundation, Inc.
   4:/usr/include/c++/12/bits/postypes.h **** //
   5:/usr/include/c++/12/bits/postypes.h **** // This file is part of the GNU ISO C++ Library.  This library is free
   6:/usr/include/c++/12/bits/postypes.h **** // software; you can redistribute it and/or modify it under the
   7:/usr/include/c++/12/bits/postypes.h **** // terms of the GNU General Public License as published by the
   8:/usr/include/c++/12/bits/postypes.h **** // Free Software Foundation; either version 3, or (at your option)
   9:/usr/include/c++/12/bits/postypes.h **** // any later version.
  10:/usr/include/c++/12/bits/postypes.h **** 
  11:/usr/include/c++/12/bits/postypes.h **** // This library is distributed in the hope that it will be useful,
  12:/usr/include/c++/12/bits/postypes.h **** // but WITHOUT ANY WARRANTY; without even the implied warranty of
  13:/usr/include/c++/12/bits/postypes.h **** // MERCHANTABILITY or FITNESS FOR A PARTICULAR PURPOSE.  See the
  14:/usr/include/c++/12/bits/postypes.h **** // GNU General Public License for more details.
  15:/usr/include/c++/12/bits/postypes.h **** 
  16:/usr/include/c++/12/bits/postypes.h **** // Under Section 7 of GPL version 3, you are granted additional
  17:/usr/include/c++/12/bits/postypes.h **** // permissions described in the GCC Runtime Library Exception, version
  18:/usr/include/c++/12/bits/postypes.h **** // 3.1, as published by the Free Software Foundation.
  19:/usr/include/c++/12/bits/postypes.h **** 
  20:/usr/include/c++/12/bits/postypes.h **** // You should have received a copy of the GNU General Public License and
  21:/usr/include/c++/12/bits/postypes.h **** // a copy of the GCC Runtime Library Exception along with this program;
  22:/usr/include/c++/12/bits/postypes.h **** // see the files COPYING3 and COPYING.RUNTIME respectively.  If not, see
  23:/usr/include/c++/12/bits/postypes.h **** // <http://www.gnu.org/licenses/>.
  24:/usr/include/c++/12/bits/postypes.h **** 
  25:/usr/include/c++/12/bits/postypes.h **** /** @file bits/postypes.h
  26:/usr/include/c++/12/bits/postypes.h ****  *  This is an internal header file, included by other library headers.
  27:/usr/include/c++/12/bits/postypes.h ****  *  Do not attempt to use it directly. @headername{iosfwd}
  28:/usr/include/c++/12/bits/postypes.h ****  */
  29:/usr/include/c++/12/bits/postypes.h **** 
  30:/usr/include/c++/12/bits/postypes.h **** //
  31:/usr/include/c++/12/bits/postypes.h **** // ISO C++ 14882: 27.4.1 - Types
  32:/usr/include/c++/12/bits/postypes.h **** // ISO C++ 14882: 27.4.3 - Template class fpos
  33:/usr/include/c++/12/bits/postypes.h **** //
  34:/usr/include/c++/12/bits/postypes.h **** 
  35:/usr/include/c++/12/bits/postypes.h **** #ifndef _GLIBCXX_POSTYPES_H
  36:/usr/include/c++/12/bits/postypes.h **** #define _GLIBCXX_POSTYPES_H 1
  37:/usr/include/c++/12/bits/postypes.h **** 
  38:/usr/include/c++/12/bits/postypes.h **** #pragma GCC system_header
  39:/usr/include/c++/12/bits/postypes.h **** 
  40:/usr/include/c++/12/bits/postypes.h **** #include <cwchar> // For mbstate_t
  41:/usr/include/c++/12/bits/postypes.h **** 
  42:/usr/include/c++/12/bits/postypes.h **** namespace std _GLIBCXX_VISIBILITY(default)
  43:/usr/include/c++/12/bits/postypes.h **** {
  44:/usr/include/c++/12/bits/postypes.h **** _GLIBCXX_BEGIN_NAMESPACE_VERSION
  45:/usr/include/c++/12/bits/postypes.h **** 
  46:/usr/include/c++/12/bits/postypes.h ****   // The types streamoff, streampos and wstreampos and the class
  47:/usr/include/c++/12/bits/postypes.h ****   // template fpos<> are described in clauses 21.1.2, 21.1.3, 27.1.2,
  48:/usr/include/c++/12/bits/postypes.h ****   // 27.2, 27.4.1, 27.4.3 and D.6. Despite all this verbiage, the
  49:/usr/include/c++/12/bits/postypes.h ****   // behaviour of these types is mostly implementation defined or
  50:/usr/include/c++/12/bits/postypes.h ****   // unspecified. The behaviour in this implementation is as noted
  51:/usr/include/c++/12/bits/postypes.h ****   // below.
  52:/usr/include/c++/12/bits/postypes.h **** 
  53:/usr/include/c++/12/bits/postypes.h ****   /**
  54:/usr/include/c++/12/bits/postypes.h ****    *  @brief  Type used by fpos, char_traits<char>, and char_traits<wchar_t>.
  55:/usr/include/c++/12/bits/postypes.h ****    *
  56:/usr/include/c++/12/bits/postypes.h ****    *  In clauses 21.1.3.1 and 27.4.1 streamoff is described as an
  57:/usr/include/c++/12/bits/postypes.h ****    *  implementation defined type.
  58:/usr/include/c++/12/bits/postypes.h ****    *  Note: In versions of GCC up to and including GCC 3.3, streamoff
  59:/usr/include/c++/12/bits/postypes.h ****    *  was typedef long.
  60:/usr/include/c++/12/bits/postypes.h ****   */  
  61:/usr/include/c++/12/bits/postypes.h **** #ifdef __INT64_TYPE__
  62:/usr/include/c++/12/bits/postypes.h ****   typedef __INT64_TYPE__          streamoff;
  63:/usr/include/c++/12/bits/postypes.h **** #else
  64:/usr/include/c++/12/bits/postypes.h ****   typedef long long     streamoff;
  65:/usr/include/c++/12/bits/postypes.h **** #endif
  66:/usr/include/c++/12/bits/postypes.h **** 
  67:/usr/include/c++/12/bits/postypes.h ****   /// Integral type for I/O operation counts and buffer sizes.
  68:/usr/include/c++/12/bits/postypes.h ****   typedef ptrdiff_t	streamsize; // Signed integral type
  69:/usr/include/c++/12/bits/postypes.h **** 
  70:/usr/include/c++/12/bits/postypes.h ****   /**
  71:/usr/include/c++/12/bits/postypes.h ****    *  @brief  Class representing stream positions.
  72:/usr/include/c++/12/bits/postypes.h ****    *
  73:/usr/include/c++/12/bits/postypes.h ****    *  The standard places no requirements upon the template parameter StateT.
  74:/usr/include/c++/12/bits/postypes.h ****    *  In this implementation StateT must be DefaultConstructible,
  75:/usr/include/c++/12/bits/postypes.h ****    *  CopyConstructible and Assignable.  The standard only requires that fpos
  76:/usr/include/c++/12/bits/postypes.h ****    *  should contain a member of type StateT. In this implementation it also
  77:/usr/include/c++/12/bits/postypes.h ****    *  contains an offset stored as a signed integer.
  78:/usr/include/c++/12/bits/postypes.h ****    *
  79:/usr/include/c++/12/bits/postypes.h ****    *  @param  StateT  Type passed to and returned from state().
  80:/usr/include/c++/12/bits/postypes.h ****    */
  81:/usr/include/c++/12/bits/postypes.h ****   template<typename _StateT>
  82:/usr/include/c++/12/bits/postypes.h ****     class fpos
  83:/usr/include/c++/12/bits/postypes.h ****     {
  84:/usr/include/c++/12/bits/postypes.h ****     private:
  85:/usr/include/c++/12/bits/postypes.h ****       streamoff	                _M_off;
  86:/usr/include/c++/12/bits/postypes.h ****       _StateT			_M_state;
  87:/usr/include/c++/12/bits/postypes.h **** 
  88:/usr/include/c++/12/bits/postypes.h ****     public:
  89:/usr/include/c++/12/bits/postypes.h ****       // The standard doesn't require that fpos objects can be default
  90:/usr/include/c++/12/bits/postypes.h ****       // constructed. This implementation provides a default
  91:/usr/include/c++/12/bits/postypes.h ****       // constructor that initializes the offset to 0 and default
  92:/usr/include/c++/12/bits/postypes.h ****       // constructs the state.
  93:/usr/include/c++/12/bits/postypes.h ****       fpos()
 7941              		.loc 6 93 7
 7942              		.cfi_startproc
 7943 0000 F30F1EFA 		endbr64
 7944 0004 55       		pushq	%rbp
 7945              		.cfi_def_cfa_offset 16
 7946              		.cfi_offset 6, -16
 7947 0005 4889E5   		movq	%rsp, %rbp
 7948              		.cfi_def_cfa_register 6
 7949 0008 48897DF8 		movq	%rdi, -8(%rbp)
 7950              	.LBB42:
  94:/usr/include/c++/12/bits/postypes.h ****       : _M_off(0), _M_state() { }
 7951              		.loc 6 94 9
 7952 000c 488B45F8 		movq	-8(%rbp), %rax
 7953 0010 48C70000 		movq	$0, (%rax)
 7953      000000
 7954              		.loc 6 94 20
 7955 0017 488B45F8 		movq	-8(%rbp), %rax
 7956 001b C7400800 		movl	$0, 8(%rax)
 7956      000000
 7957 0022 488B45F8 		movq	-8(%rbp), %rax
 7958 0026 C7400C00 		movl	$0, 12(%rax)
 7958      000000
 7959              	.LBE42:
 7960              		.loc 6 94 33
 7961 002d 90       		nop
 7962 002e 5D       		popq	%rbp
 7963              		.cfi_def_cfa 7, 8
 7964 002f C3       		ret
 7965              		.cfi_endproc
 7966              	.LFE1315:
 7968              		.weak	_ZNSt4fposI11__mbstate_tEC1Ev
 7969              		.set	_ZNSt4fposI11__mbstate_tEC1Ev,_ZNSt4fposI11__mbstate_tEC2Ev
 7970              		.section	.text._ZN8UnitTest5CheckIbEEbT_,"axG",@progbits,_ZN8UnitTest5CheckIbEEbT_,comdat
 7971              		.weak	_ZN8UnitTest5CheckIbEEbT_
 7973              	_ZN8UnitTest5CheckIbEEbT_:
 7974              	.LFB1319:
  12:/home/asoreyh/Dropbox/projects/lago/acqua/nexys/src/makestuff/libs/libutpp/Checks.h **** {
 7975              		.loc 5 12 6
 7976              		.cfi_startproc
 7977 0000 F30F1EFA 		endbr64
 7978 0004 55       		pushq	%rbp
 7979              		.cfi_def_cfa_offset 16
 7980              		.cfi_offset 6, -16
 7981 0005 4889E5   		movq	%rsp, %rbp
 7982              		.cfi_def_cfa_register 6
 7983 0008 89F8     		movl	%edi, %eax
 7984 000a 8845FC   		movb	%al, -4(%rbp)
  14:/home/asoreyh/Dropbox/projects/lago/acqua/nexys/src/makestuff/libs/libutpp/Checks.h **** }
 7985              		.loc 5 14 14
 7986 000d 0FB645FC 		movzbl	-4(%rbp), %eax
  15:/home/asoreyh/Dropbox/projects/lago/acqua/nexys/src/makestuff/libs/libutpp/Checks.h **** 
 7987              		.loc 5 15 1
 7988 0011 5D       		popq	%rbp
 7989              		.cfi_def_cfa 7, 8
 7990 0012 C3       		ret
 7991              		.cfi_endproc
 7992              	.LFE1319:
 7994              		.section	.text._ZNKSt4fposI11__mbstate_tEcvlEv,"axG",@progbits,_ZNKSt4fposI11__mbstate_tEcvlEv,com
 7995              		.align 2
 7996              		.weak	_ZNKSt4fposI11__mbstate_tEcvlEv
 7998              	_ZNKSt4fposI11__mbstate_tEcvlEv:
 7999              	.LFB1321:
  95:/usr/include/c++/12/bits/postypes.h **** 
  96:/usr/include/c++/12/bits/postypes.h ****       // The standard requires that fpos objects can be constructed
  97:/usr/include/c++/12/bits/postypes.h ****       // from streamoff objects using the constructor syntax, and
  98:/usr/include/c++/12/bits/postypes.h ****       // fails to give any meaningful semantics. In this
  99:/usr/include/c++/12/bits/postypes.h ****       // implementation implicit conversion is also allowed, and this
 100:/usr/include/c++/12/bits/postypes.h ****       // constructor stores the streamoff as the offset and default
 101:/usr/include/c++/12/bits/postypes.h ****       // constructs the state.
 102:/usr/include/c++/12/bits/postypes.h ****       /// Construct position from offset.
 103:/usr/include/c++/12/bits/postypes.h ****       fpos(streamoff __off)
 104:/usr/include/c++/12/bits/postypes.h ****       : _M_off(__off), _M_state() { }
 105:/usr/include/c++/12/bits/postypes.h **** 
 106:/usr/include/c++/12/bits/postypes.h **** #if __cplusplus >= 201103L
 107:/usr/include/c++/12/bits/postypes.h ****       fpos(const fpos&) = default;
 108:/usr/include/c++/12/bits/postypes.h ****       fpos& operator=(const fpos&) = default;
 109:/usr/include/c++/12/bits/postypes.h ****       ~fpos() = default;
 110:/usr/include/c++/12/bits/postypes.h **** #endif
 111:/usr/include/c++/12/bits/postypes.h **** 
 112:/usr/include/c++/12/bits/postypes.h ****       /// Convert to streamoff.
 113:/usr/include/c++/12/bits/postypes.h ****       operator streamoff() const { return _M_off; }
 8000              		.loc 6 113 7
 8001              		.cfi_startproc
 8002 0000 F30F1EFA 		endbr64
 8003 0004 55       		pushq	%rbp
 8004              		.cfi_def_cfa_offset 16
 8005              		.cfi_offset 6, -16
 8006 0005 4889E5   		movq	%rsp, %rbp
 8007              		.cfi_def_cfa_register 6
 8008 0008 48897DF8 		movq	%rdi, -8(%rbp)
 8009              		.loc 6 113 43
 8010 000c 488B45F8 		movq	-8(%rbp), %rax
 8011 0010 488B00   		movq	(%rax), %rax
 8012              		.loc 6 113 51
 8013 0013 5D       		popq	%rbp
 8014              		.cfi_def_cfa 7, 8
 8015 0014 C3       		ret
 8016              		.cfi_endproc
 8017              	.LFE1321:
 8019              		.section	.text._ZN8UnitTest15CheckArrayEqualIPKcS2_EEvRNS_11TestResultsERKT_RKT0_iRKNS_11TestDetai
 8020              		.weak	_ZN8UnitTest15CheckArrayEqualIPKcS2_EEvRNS_11TestResultsERKT_RKT0_iRKNS_11TestDetailsE
 8022              	_ZN8UnitTest15CheckArrayEqualIPKcS2_EEvRNS_11TestResultsERKT_RKT0_iRKNS_11TestDetailsE:
 8023              	.LFB1324:
  59:/home/asoreyh/Dropbox/projects/lago/acqua/nexys/src/makestuff/libs/libutpp/Checks.h ****                 int const count, TestDetails const& details)
 8024              		.loc 5 59 6
 8025              		.cfi_startproc
 8026              		.cfi_personality 0x9b,DW.ref.__gxx_personality_v0
 8027              		.cfi_lsda 0x1b,.LLSDA1324
 8028 0000 F30F1EFA 		endbr64
 8029 0004 55       		pushq	%rbp
 8030              		.cfi_def_cfa_offset 16
 8031              		.cfi_offset 6, -16
 8032 0005 4889E5   		movq	%rsp, %rbp
 8033              		.cfi_def_cfa_register 6
 8034 0008 53       		pushq	%rbx
 8035 0009 4881ECE8 		subq	$488, %rsp
 8035      010000
 8036              		.cfi_offset 3, -24
 8037 0010 4889BD38 		movq	%rdi, -456(%rbp)
 8037      FEFFFF
 8038 0017 4889B530 		movq	%rsi, -464(%rbp)
 8038      FEFFFF
 8039 001e 48899528 		movq	%rdx, -472(%rbp)
 8039      FEFFFF
 8040 0025 898D24FE 		movl	%ecx, -476(%rbp)
 8040      FFFF
 8041 002b 4C898518 		movq	%r8, -488(%rbp)
 8041      FEFFFF
  59:/home/asoreyh/Dropbox/projects/lago/acqua/nexys/src/makestuff/libs/libutpp/Checks.h ****                 int const count, TestDetails const& details)
 8042              		.loc 5 59 6
 8043 0032 64488B04 		movq	%fs:40, %rax
 8043      25280000 
 8043      00
 8044 003b 488945E8 		movq	%rax, -24(%rbp)
 8045 003f 31C0     		xorl	%eax, %eax
  62:/home/asoreyh/Dropbox/projects/lago/acqua/nexys/src/makestuff/libs/libutpp/Checks.h ****     for (int i = 0; i < count; ++i)
 8046              		.loc 5 62 10
 8047 0041 C68543FE 		movb	$1, -445(%rbp)
 8047      FFFF01
 8048              	.LBB43:
  63:/home/asoreyh/Dropbox/projects/lago/acqua/nexys/src/makestuff/libs/libutpp/Checks.h ****         equal &= (expected[i] == actual[i]);
 8049              		.loc 5 63 14
 8050 0048 C78544FE 		movl	$0, -444(%rbp)
 8050      FFFF0000 
 8050      0000
  63:/home/asoreyh/Dropbox/projects/lago/acqua/nexys/src/makestuff/libs/libutpp/Checks.h ****         equal &= (expected[i] == actual[i]);
 8051              		.loc 5 63 5
 8052 0052 EB53     		jmp	.L388
 8053              	.L389:
  64:/home/asoreyh/Dropbox/projects/lago/acqua/nexys/src/makestuff/libs/libutpp/Checks.h **** 
 8054              		.loc 5 64 15 discriminator 3
 8055 0054 0FB69543 		movzbl	-445(%rbp), %edx
 8055      FEFFFF
  64:/home/asoreyh/Dropbox/projects/lago/acqua/nexys/src/makestuff/libs/libutpp/Checks.h **** 
 8056              		.loc 5 64 27 discriminator 3
 8057 005b 488B8530 		movq	-464(%rbp), %rax
 8057      FEFFFF
 8058 0062 488B08   		movq	(%rax), %rcx
  64:/home/asoreyh/Dropbox/projects/lago/acqua/nexys/src/makestuff/libs/libutpp/Checks.h **** 
 8059              		.loc 5 64 28 discriminator 3
 8060 0065 8B8544FE 		movl	-444(%rbp), %eax
 8060      FFFF
 8061 006b 4898     		cltq
  64:/home/asoreyh/Dropbox/projects/lago/acqua/nexys/src/makestuff/libs/libutpp/Checks.h **** 
 8062              		.loc 5 64 27 discriminator 3
 8063 006d 4801C8   		addq	%rcx, %rax
 8064 0070 0FB608   		movzbl	(%rax), %ecx
  64:/home/asoreyh/Dropbox/projects/lago/acqua/nexys/src/makestuff/libs/libutpp/Checks.h **** 
 8065              		.loc 5 64 40 discriminator 3
 8066 0073 488B8528 		movq	-472(%rbp), %rax
 8066      FEFFFF
 8067 007a 488B30   		movq	(%rax), %rsi
  64:/home/asoreyh/Dropbox/projects/lago/acqua/nexys/src/makestuff/libs/libutpp/Checks.h **** 
 8068              		.loc 5 64 41 discriminator 3
 8069 007d 8B8544FE 		movl	-444(%rbp), %eax
 8069      FFFF
 8070 0083 4898     		cltq
  64:/home/asoreyh/Dropbox/projects/lago/acqua/nexys/src/makestuff/libs/libutpp/Checks.h **** 
 8071              		.loc 5 64 40 discriminator 3
 8072 0085 4801F0   		addq	%rsi, %rax
 8073 0088 0FB600   		movzbl	(%rax), %eax
  64:/home/asoreyh/Dropbox/projects/lago/acqua/nexys/src/makestuff/libs/libutpp/Checks.h **** 
 8074              		.loc 5 64 31 discriminator 3
 8075 008b 38C1     		cmpb	%al, %cl
 8076 008d 0F94C0   		sete	%al
 8077 0090 0FB6C0   		movzbl	%al, %eax
  64:/home/asoreyh/Dropbox/projects/lago/acqua/nexys/src/makestuff/libs/libutpp/Checks.h **** 
 8078              		.loc 5 64 15 discriminator 3
 8079 0093 21D0     		andl	%edx, %eax
 8080 0095 85C0     		testl	%eax, %eax
 8081 0097 0F95C0   		setne	%al
 8082 009a 888543FE 		movb	%al, -445(%rbp)
 8082      FFFF
  63:/home/asoreyh/Dropbox/projects/lago/acqua/nexys/src/makestuff/libs/libutpp/Checks.h ****         equal &= (expected[i] == actual[i]);
 8083              		.loc 5 63 5 discriminator 3
 8084 00a0 838544FE 		addl	$1, -444(%rbp)
 8084      FFFF01
 8085              	.L388:
  63:/home/asoreyh/Dropbox/projects/lago/acqua/nexys/src/makestuff/libs/libutpp/Checks.h ****         equal &= (expected[i] == actual[i]);
 8086              		.loc 5 63 23 discriminator 1
 8087 00a7 8B8544FE 		movl	-444(%rbp), %eax
 8087      FFFF
 8088 00ad 3B8524FE 		cmpl	-476(%rbp), %eax
 8088      FFFF
 8089 00b3 7C9F     		jl	.L389
 8090              	.LBE43:
 8091              	.LBB44:
  66:/home/asoreyh/Dropbox/projects/lago/acqua/nexys/src/makestuff/libs/libutpp/Checks.h ****     {
 8092              		.loc 5 66 10
 8093 00b5 0FB68543 		movzbl	-445(%rbp), %eax
 8093      FEFFFF
 8094 00bc 83F001   		xorl	$1, %eax
  66:/home/asoreyh/Dropbox/projects/lago/acqua/nexys/src/makestuff/libs/libutpp/Checks.h ****     {
 8095              		.loc 5 66 5
 8096 00bf 84C0     		testb	%al, %al
 8097 00c1 0F847B01 		je	.L398
 8097      0000
 8098              	.LBB45:
  68:/home/asoreyh/Dropbox/projects/lago/acqua/nexys/src/makestuff/libs/libutpp/Checks.h **** 
 8099              		.loc 5 68 35
 8100 00c7 488D8550 		leaq	-432(%rbp), %rax
 8100      FEFFFF
 8101 00ce 4889C7   		movq	%rax, %rdi
 8102              	.LEHB280:
 8103 00d1 E8000000 		call	_ZN8UnitTest15MemoryOutStreamC1Ev
 8103      00
 8104              	.LEHE280:
  70:/home/asoreyh/Dropbox/projects/lago/acqua/nexys/src/makestuff/libs/libutpp/Checks.h **** 
 8105              		.loc 5 70 10
 8106 00d6 488D8550 		leaq	-432(%rbp), %rax
 8106      FEFFFF
 8107 00dd 488D1500 		leaq	.LC79(%rip), %rdx
 8107      000000
 8108 00e4 4889D6   		movq	%rdx, %rsi
 8109 00e7 4889C7   		movq	%rax, %rdi
 8110              	.LEHB281:
 8111 00ea E8000000 		call	_ZStlsISt11char_traitsIcEERSt13basic_ostreamIcT_ES5_PKc@PLT
 8111      00
 8112              	.LBB46:
  72:/home/asoreyh/Dropbox/projects/lago/acqua/nexys/src/makestuff/libs/libutpp/Checks.h ****             stream << expected[expectedIndex] << " ";
 8113              		.loc 5 72 12
 8114 00ef C78548FE 		movl	$0, -440(%rbp)
 8114      FFFF0000 
 8114      0000
  72:/home/asoreyh/Dropbox/projects/lago/acqua/nexys/src/makestuff/libs/libutpp/Checks.h ****             stream << expected[expectedIndex] << " ";
 8115              		.loc 5 72 3
 8116 00f9 EB48     		jmp	.L391
 8117              	.L392:
  73:/home/asoreyh/Dropbox/projects/lago/acqua/nexys/src/makestuff/libs/libutpp/Checks.h **** 
 8118              		.loc 5 73 31
 8119 00fb 488B8530 		movq	-464(%rbp), %rax
 8119      FEFFFF
 8120 0102 488B10   		movq	(%rax), %rdx
  73:/home/asoreyh/Dropbox/projects/lago/acqua/nexys/src/makestuff/libs/libutpp/Checks.h **** 
 8121              		.loc 5 73 32
 8122 0105 8B8548FE 		movl	-440(%rbp), %eax
 8122      FFFF
 8123 010b 4898     		cltq
  73:/home/asoreyh/Dropbox/projects/lago/acqua/nexys/src/makestuff/libs/libutpp/Checks.h **** 
 8124              		.loc 5 73 31
 8125 010d 4801D0   		addq	%rdx, %rax
 8126 0110 0FB600   		movzbl	(%rax), %eax
  73:/home/asoreyh/Dropbox/projects/lago/acqua/nexys/src/makestuff/libs/libutpp/Checks.h **** 
 8127              		.loc 5 73 47
 8128 0113 0FBED0   		movsbl	%al, %edx
 8129 0116 488D8550 		leaq	-432(%rbp), %rax
 8129      FEFFFF
 8130 011d 89D6     		movl	%edx, %esi
 8131 011f 4889C7   		movq	%rax, %rdi
 8132 0122 E8000000 		call	_ZStlsISt11char_traitsIcEERSt13basic_ostreamIcT_ES5_c@PLT
 8132      00
 8133 0127 4889C2   		movq	%rax, %rdx
 8134 012a 488D0500 		leaq	.LC80(%rip), %rax
 8134      000000
 8135 0131 4889C6   		movq	%rax, %rsi
 8136 0134 4889D7   		movq	%rdx, %rdi
 8137 0137 E8000000 		call	_ZStlsISt11char_traitsIcEERSt13basic_ostreamIcT_ES5_PKc@PLT
 8137      00
  72:/home/asoreyh/Dropbox/projects/lago/acqua/nexys/src/makestuff/libs/libutpp/Checks.h ****             stream << expected[expectedIndex] << " ";
 8138              		.loc 5 72 3 discriminator 2
 8139 013c 838548FE 		addl	$1, -440(%rbp)
 8139      FFFF01
 8140              	.L391:
  72:/home/asoreyh/Dropbox/projects/lago/acqua/nexys/src/makestuff/libs/libutpp/Checks.h ****             stream << expected[expectedIndex] << " ";
 8141              		.loc 5 72 45 discriminator 1
 8142 0143 8B8548FE 		movl	-440(%rbp), %eax
 8142      FFFF
 8143 0149 3B8524FE 		cmpl	-476(%rbp), %eax
 8143      FFFF
 8144 014f 7CAA     		jl	.L392
 8145              	.LBE46:
  75:/home/asoreyh/Dropbox/projects/lago/acqua/nexys/src/makestuff/libs/libutpp/Checks.h **** 
 8146              		.loc 5 75 10
 8147 0151 488D8550 		leaq	-432(%rbp), %rax
 8147      FEFFFF
 8148 0158 488D1500 		leaq	.LC81(%rip), %rdx
 8148      000000
 8149 015f 4889D6   		movq	%rdx, %rsi
 8150 0162 4889C7   		movq	%rax, %rdi
 8151 0165 E8000000 		call	_ZStlsISt11char_traitsIcEERSt13basic_ostreamIcT_ES5_PKc@PLT
 8151      00
 8152              	.LBB47:
  77:/home/asoreyh/Dropbox/projects/lago/acqua/nexys/src/makestuff/libs/libutpp/Checks.h ****             stream << actual[actualIndex] << " ";
 8153              		.loc 5 77 12
 8154 016a C7854CFE 		movl	$0, -436(%rbp)
 8154      FFFF0000 
 8154      0000
  77:/home/asoreyh/Dropbox/projects/lago/acqua/nexys/src/makestuff/libs/libutpp/Checks.h ****             stream << actual[actualIndex] << " ";
 8155              		.loc 5 77 3
 8156 0174 EB48     		jmp	.L393
 8157              	.L394:
  78:/home/asoreyh/Dropbox/projects/lago/acqua/nexys/src/makestuff/libs/libutpp/Checks.h **** 
 8158              		.loc 5 78 29
 8159 0176 488B8528 		movq	-472(%rbp), %rax
 8159      FEFFFF
 8160 017d 488B10   		movq	(%rax), %rdx
  78:/home/asoreyh/Dropbox/projects/lago/acqua/nexys/src/makestuff/libs/libutpp/Checks.h **** 
 8161              		.loc 5 78 30
 8162 0180 8B854CFE 		movl	-436(%rbp), %eax
 8162      FFFF
 8163 0186 4898     		cltq
  78:/home/asoreyh/Dropbox/projects/lago/acqua/nexys/src/makestuff/libs/libutpp/Checks.h **** 
 8164              		.loc 5 78 29
 8165 0188 4801D0   		addq	%rdx, %rax
 8166 018b 0FB600   		movzbl	(%rax), %eax
  78:/home/asoreyh/Dropbox/projects/lago/acqua/nexys/src/makestuff/libs/libutpp/Checks.h **** 
 8167              		.loc 5 78 43
 8168 018e 0FBED0   		movsbl	%al, %edx
 8169 0191 488D8550 		leaq	-432(%rbp), %rax
 8169      FEFFFF
 8170 0198 89D6     		movl	%edx, %esi
 8171 019a 4889C7   		movq	%rax, %rdi
 8172 019d E8000000 		call	_ZStlsISt11char_traitsIcEERSt13basic_ostreamIcT_ES5_c@PLT
 8172      00
 8173 01a2 4889C2   		movq	%rax, %rdx
 8174 01a5 488D0500 		leaq	.LC80(%rip), %rax
 8174      000000
 8175 01ac 4889C6   		movq	%rax, %rsi
 8176 01af 4889D7   		movq	%rdx, %rdi
 8177 01b2 E8000000 		call	_ZStlsISt11char_traitsIcEERSt13basic_ostreamIcT_ES5_PKc@PLT
 8177      00
  77:/home/asoreyh/Dropbox/projects/lago/acqua/nexys/src/makestuff/libs/libutpp/Checks.h ****             stream << actual[actualIndex] << " ";
 8178              		.loc 5 77 3 discriminator 2
 8179 01b7 83854CFE 		addl	$1, -436(%rbp)
 8179      FFFF01
 8180              	.L393:
  77:/home/asoreyh/Dropbox/projects/lago/acqua/nexys/src/makestuff/libs/libutpp/Checks.h ****             stream << actual[actualIndex] << " ";
 8181              		.loc 5 77 41 discriminator 1
 8182 01be 8B854CFE 		movl	-436(%rbp), %eax
 8182      FFFF
 8183 01c4 3B8524FE 		cmpl	-476(%rbp), %eax
 8183      FFFF
 8184 01ca 7CAA     		jl	.L394
 8185              	.LBE47:
  80:/home/asoreyh/Dropbox/projects/lago/acqua/nexys/src/makestuff/libs/libutpp/Checks.h **** 
 8186              		.loc 5 80 10
 8187 01cc 488D8550 		leaq	-432(%rbp), %rax
 8187      FEFFFF
 8188 01d3 488D1500 		leaq	.LC82(%rip), %rdx
 8188      000000
 8189 01da 4889D6   		movq	%rdx, %rsi
 8190 01dd 4889C7   		movq	%rax, %rdi
 8191 01e0 E8000000 		call	_ZStlsISt11char_traitsIcEERSt13basic_ostreamIcT_ES5_PKc@PLT
 8191      00
  82:/home/asoreyh/Dropbox/projects/lago/acqua/nexys/src/makestuff/libs/libutpp/Checks.h ****     }
 8192              		.loc 5 82 30
 8193 01e5 488D8550 		leaq	-432(%rbp), %rax
 8193      FEFFFF
 8194 01ec 4889C7   		movq	%rax, %rdi
 8195 01ef E8000000 		call	_ZNK8UnitTest15MemoryOutStream7GetTextEv@PLT
 8195      00
 8196 01f4 4889C2   		movq	%rax, %rdx
 8197 01f7 488B8D18 		movq	-488(%rbp), %rcx
 8197      FEFFFF
 8198 01fe 488B8538 		movq	-456(%rbp), %rax
 8198      FEFFFF
 8199 0205 4889CE   		movq	%rcx, %rsi
 8200 0208 4889C7   		movq	%rax, %rdi
 8201 020b E8000000 		call	_ZN8UnitTest11TestResults13OnTestFailureERKNS_11TestDetailsEPKc@PLT
 8201      00
 8202              	.LEHE281:
  83:/home/asoreyh/Dropbox/projects/lago/acqua/nexys/src/makestuff/libs/libutpp/Checks.h **** }
 8203              		.loc 5 83 5
 8204 0210 488D8550 		leaq	-432(%rbp), %rax
 8204      FEFFFF
 8205 0217 4889C7   		movq	%rax, %rdi
 8206              	.LEHB282:
 8207 021a E8000000 		call	_ZN8UnitTest15MemoryOutStreamD1Ev
 8207      00
 8208              	.LEHE282:
 8209              	.LBE45:
 8210              	.LBE44:
 8211              		.loc 5 84 1
 8212 021f EB21     		jmp	.L398
 8213              	.L397:
 8214 0221 F30F1EFA 		endbr64
 8215              	.LBB49:
 8216              	.LBB48:
  83:/home/asoreyh/Dropbox/projects/lago/acqua/nexys/src/makestuff/libs/libutpp/Checks.h **** }
 8217              		.loc 5 83 5
 8218 0225 4889C3   		movq	%rax, %rbx
 8219 0228 488D8550 		leaq	-432(%rbp), %rax
 8219      FEFFFF
 8220 022f 4889C7   		movq	%rax, %rdi
 8221 0232 E8000000 		call	_ZN8UnitTest15MemoryOutStreamD1Ev
 8221      00
 8222 0237 4889D8   		movq	%rbx, %rax
 8223 023a 4889C7   		movq	%rax, %rdi
 8224              	.LEHB283:
 8225 023d E8000000 		call	_Unwind_Resume@PLT
 8225      00
 8226              	.LEHE283:
 8227              	.L398:
 8228              	.LBE48:
 8229              	.LBE49:
 8230              		.loc 5 84 1
 8231 0242 90       		nop
 8232 0243 488B45E8 		movq	-24(%rbp), %rax
 8233 0247 64482B04 		subq	%fs:40, %rax
 8233      25280000 
 8233      00
 8234 0250 7405     		je	.L396
 8235 0252 E8000000 		call	__stack_chk_fail@PLT
 8235      00
 8236              	.L396:
 8237 0257 488B5DF8 		movq	-8(%rbp), %rbx
 8238 025b C9       		leave
 8239              		.cfi_def_cfa 7, 8
 8240 025c C3       		ret
 8241              		.cfi_endproc
 8242              	.LFE1324:
 8243              		.section	.gcc_except_table
 8244              	.LLSDA1324:
 8245 0681 FF       		.byte	0xff
 8246 0682 FF       		.byte	0xff
 8247 0683 01       		.byte	0x1
 8248 0684 16       		.uleb128 .LLSDACSE1324-.LLSDACSB1324
 8249              	.LLSDACSB1324:
 8250 0685 D101     		.uleb128 .LEHB280-.LFB1324
 8251 0687 05       		.uleb128 .LEHE280-.LEHB280
 8252 0688 00       		.uleb128 0
 8253 0689 00       		.uleb128 0
 8254 068a EA01     		.uleb128 .LEHB281-.LFB1324
 8255 068c A602     		.uleb128 .LEHE281-.LEHB281
 8256 068e A104     		.uleb128 .L397-.LFB1324
 8257 0690 00       		.uleb128 0
 8258 0691 9A04     		.uleb128 .LEHB282-.LFB1324
 8259 0693 05       		.uleb128 .LEHE282-.LEHB282
 8260 0694 00       		.uleb128 0
 8261 0695 00       		.uleb128 0
 8262 0696 BD04     		.uleb128 .LEHB283-.LFB1324
 8263 0698 05       		.uleb128 .LEHE283-.LEHB283
 8264 0699 00       		.uleb128 0
 8265 069a 00       		.uleb128 0
 8266              	.LLSDACSE1324:
 8267              		.section	.text._ZN8UnitTest15CheckArrayEqualIPKcS2_EEvRNS_11TestResultsERKT_RKT0_iRKNS_11TestDetai
 8269              		.section	.text._ZN8UnitTest10CheckEqualIjjEEvRNS_11TestResultsERKT_RKT0_RKNS_11TestDetailsE,"axG",
 8270              		.weak	_ZN8UnitTest10CheckEqualIjjEEvRNS_11TestResultsERKT_RKT0_RKNS_11TestDetailsE
 8272              	_ZN8UnitTest10CheckEqualIjjEEvRNS_11TestResultsERKT_RKT0_RKNS_11TestDetailsE:
 8273              	.LFB1325:
  19:/home/asoreyh/Dropbox/projects/lago/acqua/nexys/src/makestuff/libs/libutpp/Checks.h **** {
 8274              		.loc 5 19 6
 8275              		.cfi_startproc
 8276              		.cfi_personality 0x9b,DW.ref.__gxx_personality_v0
 8277              		.cfi_lsda 0x1b,.LLSDA1325
 8278 0000 F30F1EFA 		endbr64
 8279 0004 55       		pushq	%rbp
 8280              		.cfi_def_cfa_offset 16
 8281              		.cfi_offset 6, -16
 8282 0005 4889E5   		movq	%rsp, %rbp
 8283              		.cfi_def_cfa_register 6
 8284 0008 53       		pushq	%rbx
 8285 0009 4881ECC8 		subq	$456, %rsp
 8285      010000
 8286              		.cfi_offset 3, -24
 8287 0010 4889BD48 		movq	%rdi, -440(%rbp)
 8287      FEFFFF
 8288 0017 4889B540 		movq	%rsi, -448(%rbp)
 8288      FEFFFF
 8289 001e 48899538 		movq	%rdx, -456(%rbp)
 8289      FEFFFF
 8290 0025 48898D30 		movq	%rcx, -464(%rbp)
 8290      FEFFFF
  19:/home/asoreyh/Dropbox/projects/lago/acqua/nexys/src/makestuff/libs/libutpp/Checks.h **** {
 8291              		.loc 5 19 6
 8292 002c 64488B04 		movq	%fs:40, %rax
 8292      25280000 
 8292      00
 8293 0035 488945E8 		movq	%rax, -24(%rbp)
 8294 0039 31C0     		xorl	%eax, %eax
 8295              	.LBB50:
  21:/home/asoreyh/Dropbox/projects/lago/acqua/nexys/src/makestuff/libs/libutpp/Checks.h ****     {
 8296              		.loc 5 21 20
 8297 003b 488B8540 		movq	-448(%rbp), %rax
 8297      FEFFFF
 8298 0042 8B10     		movl	(%rax), %edx
 8299 0044 488B8538 		movq	-456(%rbp), %rax
 8299      FEFFFF
 8300 004b 8B00     		movl	(%rax), %eax
  21:/home/asoreyh/Dropbox/projects/lago/acqua/nexys/src/makestuff/libs/libutpp/Checks.h ****     {
 8301              		.loc 5 21 5
 8302 004d 39C2     		cmpl	%eax, %edx
 8303 004f 0F84C600 		je	.L404
 8303      0000
 8304              	.LBB51:
  23:/home/asoreyh/Dropbox/projects/lago/acqua/nexys/src/makestuff/libs/libutpp/Checks.h ****         stream << "Expected " << expected << " but was " << actual;
 8305              		.loc 5 23 35
 8306 0055 488D8550 		leaq	-432(%rbp), %rax
 8306      FEFFFF
 8307 005c 4889C7   		movq	%rax, %rdi
 8308              	.LEHB284:
 8309 005f E8000000 		call	_ZN8UnitTest15MemoryOutStreamC1Ev
 8309      00
 8310              	.LEHE284:
  24:/home/asoreyh/Dropbox/projects/lago/acqua/nexys/src/makestuff/libs/libutpp/Checks.h **** 
 8311              		.loc 5 24 16
 8312 0064 488D8550 		leaq	-432(%rbp), %rax
 8312      FEFFFF
 8313 006b 488D1500 		leaq	.LC77(%rip), %rdx
 8313      000000
 8314 0072 4889D6   		movq	%rdx, %rsi
 8315 0075 4889C7   		movq	%rax, %rdi
 8316              	.LEHB285:
 8317 0078 E8000000 		call	_ZStlsISt11char_traitsIcEERSt13basic_ostreamIcT_ES5_PKc@PLT
 8317      00
 8318 007d 4889C2   		movq	%rax, %rdx
  24:/home/asoreyh/Dropbox/projects/lago/acqua/nexys/src/makestuff/libs/libutpp/Checks.h **** 
 8319              		.loc 5 24 31
 8320 0080 488B8540 		movq	-448(%rbp), %rax
 8320      FEFFFF
 8321 0087 8B00     		movl	(%rax), %eax
 8322 0089 89C6     		movl	%eax, %esi
 8323 008b 4889D7   		movq	%rdx, %rdi
 8324 008e E8000000 		call	_ZNSolsEj@PLT
 8324      00
  24:/home/asoreyh/Dropbox/projects/lago/acqua/nexys/src/makestuff/libs/libutpp/Checks.h **** 
 8325              		.loc 5 24 31 is_stmt 0 discriminator 1
 8326 0093 4889C2   		movq	%rax, %rdx
  24:/home/asoreyh/Dropbox/projects/lago/acqua/nexys/src/makestuff/libs/libutpp/Checks.h **** 
 8327              		.loc 5 24 43 is_stmt 1 discriminator 1
 8328 0096 488D0500 		leaq	.LC78(%rip), %rax
 8328      000000
 8329 009d 4889C6   		movq	%rax, %rsi
 8330 00a0 4889D7   		movq	%rdx, %rdi
 8331 00a3 E8000000 		call	_ZStlsISt11char_traitsIcEERSt13basic_ostreamIcT_ES5_PKc@PLT
 8331      00
  24:/home/asoreyh/Dropbox/projects/lago/acqua/nexys/src/makestuff/libs/libutpp/Checks.h **** 
 8332              		.loc 5 24 43 is_stmt 0 discriminator 2
 8333 00a8 4889C2   		movq	%rax, %rdx
  24:/home/asoreyh/Dropbox/projects/lago/acqua/nexys/src/makestuff/libs/libutpp/Checks.h **** 
 8334              		.loc 5 24 58 is_stmt 1 discriminator 2
 8335 00ab 488B8538 		movq	-456(%rbp), %rax
 8335      FEFFFF
 8336 00b2 8B00     		movl	(%rax), %eax
 8337 00b4 89C6     		movl	%eax, %esi
 8338 00b6 4889D7   		movq	%rdx, %rdi
 8339 00b9 E8000000 		call	_ZNSolsEj@PLT
 8339      00
  26:/home/asoreyh/Dropbox/projects/lago/acqua/nexys/src/makestuff/libs/libutpp/Checks.h ****     }
 8340              		.loc 5 26 30
 8341 00be 488D8550 		leaq	-432(%rbp), %rax
 8341      FEFFFF
 8342 00c5 4889C7   		movq	%rax, %rdi
 8343 00c8 E8000000 		call	_ZNK8UnitTest15MemoryOutStream7GetTextEv@PLT
 8343      00
 8344 00cd 4889C2   		movq	%rax, %rdx
 8345 00d0 488B8D30 		movq	-464(%rbp), %rcx
 8345      FEFFFF
 8346 00d7 488B8548 		movq	-440(%rbp), %rax
 8346      FEFFFF
 8347 00de 4889CE   		movq	%rcx, %rsi
 8348 00e1 4889C7   		movq	%rax, %rdi
 8349 00e4 E8000000 		call	_ZN8UnitTest11TestResults13OnTestFailureERKNS_11TestDetailsEPKc@PLT
 8349      00
 8350              	.LEHE285:
  27:/home/asoreyh/Dropbox/projects/lago/acqua/nexys/src/makestuff/libs/libutpp/Checks.h **** }
 8351              		.loc 5 27 5
 8352 00e9 488D8550 		leaq	-432(%rbp), %rax
 8352      FEFFFF
 8353 00f0 4889C7   		movq	%rax, %rdi
 8354              	.LEHB286:
 8355 00f3 E8000000 		call	_ZN8UnitTest15MemoryOutStreamD1Ev
 8355      00
 8356              	.LEHE286:
 8357              	.LBE51:
 8358              	.LBE50:
  28:/home/asoreyh/Dropbox/projects/lago/acqua/nexys/src/makestuff/libs/libutpp/Checks.h **** 
 8359              		.loc 5 28 1
 8360 00f8 EB21     		jmp	.L404
 8361              	.L403:
 8362 00fa F30F1EFA 		endbr64
 8363              	.LBB53:
 8364              	.LBB52:
  27:/home/asoreyh/Dropbox/projects/lago/acqua/nexys/src/makestuff/libs/libutpp/Checks.h **** }
 8365              		.loc 5 27 5
 8366 00fe 4889C3   		movq	%rax, %rbx
 8367 0101 488D8550 		leaq	-432(%rbp), %rax
 8367      FEFFFF
 8368 0108 4889C7   		movq	%rax, %rdi
 8369 010b E8000000 		call	_ZN8UnitTest15MemoryOutStreamD1Ev
 8369      00
 8370 0110 4889D8   		movq	%rbx, %rax
 8371 0113 4889C7   		movq	%rax, %rdi
 8372              	.LEHB287:
 8373 0116 E8000000 		call	_Unwind_Resume@PLT
 8373      00
 8374              	.LEHE287:
 8375              	.L404:
 8376              	.LBE52:
 8377              	.LBE53:
  28:/home/asoreyh/Dropbox/projects/lago/acqua/nexys/src/makestuff/libs/libutpp/Checks.h **** 
 8378              		.loc 5 28 1
 8379 011b 90       		nop
 8380 011c 488B45E8 		movq	-24(%rbp), %rax
 8381 0120 64482B04 		subq	%fs:40, %rax
 8381      25280000 
 8381      00
 8382 0129 7405     		je	.L402
 8383 012b E8000000 		call	__stack_chk_fail@PLT
 8383      00
 8384              	.L402:
 8385 0130 488B5DF8 		movq	-8(%rbp), %rbx
 8386 0134 C9       		leave
 8387              		.cfi_def_cfa 7, 8
 8388 0135 C3       		ret
 8389              		.cfi_endproc
 8390              	.LFE1325:
 8391              		.section	.gcc_except_table
 8392              	.LLSDA1325:
 8393 069b FF       		.byte	0xff
 8394 069c FF       		.byte	0xff
 8395 069d 01       		.byte	0x1
 8396 069e 13       		.uleb128 .LLSDACSE1325-.LLSDACSB1325
 8397              	.LLSDACSB1325:
 8398 069f 5F       		.uleb128 .LEHB284-.LFB1325
 8399 06a0 05       		.uleb128 .LEHE284-.LEHB284
 8400 06a1 00       		.uleb128 0
 8401 06a2 00       		.uleb128 0
 8402 06a3 78       		.uleb128 .LEHB285-.LFB1325
 8403 06a4 71       		.uleb128 .LEHE285-.LEHB285
 8404 06a5 FA01     		.uleb128 .L403-.LFB1325
 8405 06a7 00       		.uleb128 0
 8406 06a8 F301     		.uleb128 .LEHB286-.LFB1325
 8407 06aa 05       		.uleb128 .LEHE286-.LEHB286
 8408 06ab 00       		.uleb128 0
 8409 06ac 00       		.uleb128 0
 8410 06ad 9602     		.uleb128 .LEHB287-.LFB1325
 8411 06af 05       		.uleb128 .LEHE287-.LEHB287
 8412 06b0 00       		.uleb128 0
 8413 06b1 00       		.uleb128 0
 8414              	.LLSDACSE1325:
 8415              		.section	.text._ZN8UnitTest10CheckEqualIjjEEvRNS_11TestResultsERKT_RKT0_RKNS_11TestDetailsE,"axG",
 8417              		.section	.text._ZN8UnitTest15CheckArrayEqualIPhS1_EEvRNS_11TestResultsERKT_RKT0_iRKNS_11TestDetail
 8418              		.weak	_ZN8UnitTest15CheckArrayEqualIPhS1_EEvRNS_11TestResultsERKT_RKT0_iRKNS_11TestDetailsE
 8420              	_ZN8UnitTest15CheckArrayEqualIPhS1_EEvRNS_11TestResultsERKT_RKT0_iRKNS_11TestDetailsE:
 8421              	.LFB1326:
  59:/home/asoreyh/Dropbox/projects/lago/acqua/nexys/src/makestuff/libs/libutpp/Checks.h ****                 int const count, TestDetails const& details)
 8422              		.loc 5 59 6
 8423              		.cfi_startproc
 8424              		.cfi_personality 0x9b,DW.ref.__gxx_personality_v0
 8425              		.cfi_lsda 0x1b,.LLSDA1326
 8426 0000 F30F1EFA 		endbr64
 8427 0004 55       		pushq	%rbp
 8428              		.cfi_def_cfa_offset 16
 8429              		.cfi_offset 6, -16
 8430 0005 4889E5   		movq	%rsp, %rbp
 8431              		.cfi_def_cfa_register 6
 8432 0008 53       		pushq	%rbx
 8433 0009 4881ECE8 		subq	$488, %rsp
 8433      010000
 8434              		.cfi_offset 3, -24
 8435 0010 4889BD38 		movq	%rdi, -456(%rbp)
 8435      FEFFFF
 8436 0017 4889B530 		movq	%rsi, -464(%rbp)
 8436      FEFFFF
 8437 001e 48899528 		movq	%rdx, -472(%rbp)
 8437      FEFFFF
 8438 0025 898D24FE 		movl	%ecx, -476(%rbp)
 8438      FFFF
 8439 002b 4C898518 		movq	%r8, -488(%rbp)
 8439      FEFFFF
  59:/home/asoreyh/Dropbox/projects/lago/acqua/nexys/src/makestuff/libs/libutpp/Checks.h ****                 int const count, TestDetails const& details)
 8440              		.loc 5 59 6
 8441 0032 64488B04 		movq	%fs:40, %rax
 8441      25280000 
 8441      00
 8442 003b 488945E8 		movq	%rax, -24(%rbp)
 8443 003f 31C0     		xorl	%eax, %eax
  62:/home/asoreyh/Dropbox/projects/lago/acqua/nexys/src/makestuff/libs/libutpp/Checks.h ****     for (int i = 0; i < count; ++i)
 8444              		.loc 5 62 10
 8445 0041 C68543FE 		movb	$1, -445(%rbp)
 8445      FFFF01
 8446              	.LBB54:
  63:/home/asoreyh/Dropbox/projects/lago/acqua/nexys/src/makestuff/libs/libutpp/Checks.h ****         equal &= (expected[i] == actual[i]);
 8447              		.loc 5 63 14
 8448 0048 C78544FE 		movl	$0, -444(%rbp)
 8448      FFFF0000 
 8448      0000
  63:/home/asoreyh/Dropbox/projects/lago/acqua/nexys/src/makestuff/libs/libutpp/Checks.h ****         equal &= (expected[i] == actual[i]);
 8449              		.loc 5 63 5
 8450 0052 EB53     		jmp	.L406
 8451              	.L407:
  64:/home/asoreyh/Dropbox/projects/lago/acqua/nexys/src/makestuff/libs/libutpp/Checks.h **** 
 8452              		.loc 5 64 15 discriminator 3
 8453 0054 0FB69543 		movzbl	-445(%rbp), %edx
 8453      FEFFFF
  64:/home/asoreyh/Dropbox/projects/lago/acqua/nexys/src/makestuff/libs/libutpp/Checks.h **** 
 8454              		.loc 5 64 27 discriminator 3
 8455 005b 488B8530 		movq	-464(%rbp), %rax
 8455      FEFFFF
 8456 0062 488B08   		movq	(%rax), %rcx
  64:/home/asoreyh/Dropbox/projects/lago/acqua/nexys/src/makestuff/libs/libutpp/Checks.h **** 
 8457              		.loc 5 64 28 discriminator 3
 8458 0065 8B8544FE 		movl	-444(%rbp), %eax
 8458      FFFF
 8459 006b 4898     		cltq
  64:/home/asoreyh/Dropbox/projects/lago/acqua/nexys/src/makestuff/libs/libutpp/Checks.h **** 
 8460              		.loc 5 64 27 discriminator 3
 8461 006d 4801C8   		addq	%rcx, %rax
 8462 0070 0FB608   		movzbl	(%rax), %ecx
  64:/home/asoreyh/Dropbox/projects/lago/acqua/nexys/src/makestuff/libs/libutpp/Checks.h **** 
 8463              		.loc 5 64 40 discriminator 3
 8464 0073 488B8528 		movq	-472(%rbp), %rax
 8464      FEFFFF
 8465 007a 488B30   		movq	(%rax), %rsi
  64:/home/asoreyh/Dropbox/projects/lago/acqua/nexys/src/makestuff/libs/libutpp/Checks.h **** 
 8466              		.loc 5 64 41 discriminator 3
 8467 007d 8B8544FE 		movl	-444(%rbp), %eax
 8467      FFFF
 8468 0083 4898     		cltq
  64:/home/asoreyh/Dropbox/projects/lago/acqua/nexys/src/makestuff/libs/libutpp/Checks.h **** 
 8469              		.loc 5 64 40 discriminator 3
 8470 0085 4801F0   		addq	%rsi, %rax
 8471 0088 0FB600   		movzbl	(%rax), %eax
  64:/home/asoreyh/Dropbox/projects/lago/acqua/nexys/src/makestuff/libs/libutpp/Checks.h **** 
 8472              		.loc 5 64 31 discriminator 3
 8473 008b 38C1     		cmpb	%al, %cl
 8474 008d 0F94C0   		sete	%al
 8475 0090 0FB6C0   		movzbl	%al, %eax
  64:/home/asoreyh/Dropbox/projects/lago/acqua/nexys/src/makestuff/libs/libutpp/Checks.h **** 
 8476              		.loc 5 64 15 discriminator 3
 8477 0093 21D0     		andl	%edx, %eax
 8478 0095 85C0     		testl	%eax, %eax
 8479 0097 0F95C0   		setne	%al
 8480 009a 888543FE 		movb	%al, -445(%rbp)
 8480      FFFF
  63:/home/asoreyh/Dropbox/projects/lago/acqua/nexys/src/makestuff/libs/libutpp/Checks.h ****         equal &= (expected[i] == actual[i]);
 8481              		.loc 5 63 5 discriminator 3
 8482 00a0 838544FE 		addl	$1, -444(%rbp)
 8482      FFFF01
 8483              	.L406:
  63:/home/asoreyh/Dropbox/projects/lago/acqua/nexys/src/makestuff/libs/libutpp/Checks.h ****         equal &= (expected[i] == actual[i]);
 8484              		.loc 5 63 23 discriminator 1
 8485 00a7 8B8544FE 		movl	-444(%rbp), %eax
 8485      FFFF
 8486 00ad 3B8524FE 		cmpl	-476(%rbp), %eax
 8486      FFFF
 8487 00b3 7C9F     		jl	.L407
 8488              	.LBE54:
 8489              	.LBB55:
  66:/home/asoreyh/Dropbox/projects/lago/acqua/nexys/src/makestuff/libs/libutpp/Checks.h ****     {
 8490              		.loc 5 66 10
 8491 00b5 0FB68543 		movzbl	-445(%rbp), %eax
 8491      FEFFFF
 8492 00bc 83F001   		xorl	$1, %eax
  66:/home/asoreyh/Dropbox/projects/lago/acqua/nexys/src/makestuff/libs/libutpp/Checks.h ****     {
 8493              		.loc 5 66 5
 8494 00bf 84C0     		testb	%al, %al
 8495 00c1 0F847B01 		je	.L416
 8495      0000
 8496              	.LBB56:
  68:/home/asoreyh/Dropbox/projects/lago/acqua/nexys/src/makestuff/libs/libutpp/Checks.h **** 
 8497              		.loc 5 68 35
 8498 00c7 488D8550 		leaq	-432(%rbp), %rax
 8498      FEFFFF
 8499 00ce 4889C7   		movq	%rax, %rdi
 8500              	.LEHB288:
 8501 00d1 E8000000 		call	_ZN8UnitTest15MemoryOutStreamC1Ev
 8501      00
 8502              	.LEHE288:
  70:/home/asoreyh/Dropbox/projects/lago/acqua/nexys/src/makestuff/libs/libutpp/Checks.h **** 
 8503              		.loc 5 70 10
 8504 00d6 488D8550 		leaq	-432(%rbp), %rax
 8504      FEFFFF
 8505 00dd 488D1500 		leaq	.LC79(%rip), %rdx
 8505      000000
 8506 00e4 4889D6   		movq	%rdx, %rsi
 8507 00e7 4889C7   		movq	%rax, %rdi
 8508              	.LEHB289:
 8509 00ea E8000000 		call	_ZStlsISt11char_traitsIcEERSt13basic_ostreamIcT_ES5_PKc@PLT
 8509      00
 8510              	.LBB57:
  72:/home/asoreyh/Dropbox/projects/lago/acqua/nexys/src/makestuff/libs/libutpp/Checks.h ****             stream << expected[expectedIndex] << " ";
 8511              		.loc 5 72 12
 8512 00ef C78548FE 		movl	$0, -440(%rbp)
 8512      FFFF0000 
 8512      0000
  72:/home/asoreyh/Dropbox/projects/lago/acqua/nexys/src/makestuff/libs/libutpp/Checks.h ****             stream << expected[expectedIndex] << " ";
 8513              		.loc 5 72 3
 8514 00f9 EB48     		jmp	.L409
 8515              	.L410:
  73:/home/asoreyh/Dropbox/projects/lago/acqua/nexys/src/makestuff/libs/libutpp/Checks.h **** 
 8516              		.loc 5 73 31
 8517 00fb 488B8530 		movq	-464(%rbp), %rax
 8517      FEFFFF
 8518 0102 488B10   		movq	(%rax), %rdx
  73:/home/asoreyh/Dropbox/projects/lago/acqua/nexys/src/makestuff/libs/libutpp/Checks.h **** 
 8519              		.loc 5 73 32
 8520 0105 8B8548FE 		movl	-440(%rbp), %eax
 8520      FFFF
 8521 010b 4898     		cltq
  73:/home/asoreyh/Dropbox/projects/lago/acqua/nexys/src/makestuff/libs/libutpp/Checks.h **** 
 8522              		.loc 5 73 31
 8523 010d 4801D0   		addq	%rdx, %rax
 8524 0110 0FB600   		movzbl	(%rax), %eax
  73:/home/asoreyh/Dropbox/projects/lago/acqua/nexys/src/makestuff/libs/libutpp/Checks.h **** 
 8525              		.loc 5 73 47
 8526 0113 0FB6D0   		movzbl	%al, %edx
 8527 0116 488D8550 		leaq	-432(%rbp), %rax
 8527      FEFFFF
 8528 011d 89D6     		movl	%edx, %esi
 8529 011f 4889C7   		movq	%rax, %rdi
 8530 0122 E8000000 		call	_ZStlsISt11char_traitsIcEERSt13basic_ostreamIcT_ES5_h@PLT
 8530      00
 8531 0127 4889C2   		movq	%rax, %rdx
 8532 012a 488D0500 		leaq	.LC80(%rip), %rax
 8532      000000
 8533 0131 4889C6   		movq	%rax, %rsi
 8534 0134 4889D7   		movq	%rdx, %rdi
 8535 0137 E8000000 		call	_ZStlsISt11char_traitsIcEERSt13basic_ostreamIcT_ES5_PKc@PLT
 8535      00
  72:/home/asoreyh/Dropbox/projects/lago/acqua/nexys/src/makestuff/libs/libutpp/Checks.h ****             stream << expected[expectedIndex] << " ";
 8536              		.loc 5 72 3 discriminator 2
 8537 013c 838548FE 		addl	$1, -440(%rbp)
 8537      FFFF01
 8538              	.L409:
  72:/home/asoreyh/Dropbox/projects/lago/acqua/nexys/src/makestuff/libs/libutpp/Checks.h ****             stream << expected[expectedIndex] << " ";
 8539              		.loc 5 72 45 discriminator 1
 8540 0143 8B8548FE 		movl	-440(%rbp), %eax
 8540      FFFF
 8541 0149 3B8524FE 		cmpl	-476(%rbp), %eax
 8541      FFFF
 8542 014f 7CAA     		jl	.L410
 8543              	.LBE57:
  75:/home/asoreyh/Dropbox/projects/lago/acqua/nexys/src/makestuff/libs/libutpp/Checks.h **** 
 8544              		.loc 5 75 10
 8545 0151 488D8550 		leaq	-432(%rbp), %rax
 8545      FEFFFF
 8546 0158 488D1500 		leaq	.LC81(%rip), %rdx
 8546      000000
 8547 015f 4889D6   		movq	%rdx, %rsi
 8548 0162 4889C7   		movq	%rax, %rdi
 8549 0165 E8000000 		call	_ZStlsISt11char_traitsIcEERSt13basic_ostreamIcT_ES5_PKc@PLT
 8549      00
 8550              	.LBB58:
  77:/home/asoreyh/Dropbox/projects/lago/acqua/nexys/src/makestuff/libs/libutpp/Checks.h ****             stream << actual[actualIndex] << " ";
 8551              		.loc 5 77 12
 8552 016a C7854CFE 		movl	$0, -436(%rbp)
 8552      FFFF0000 
 8552      0000
  77:/home/asoreyh/Dropbox/projects/lago/acqua/nexys/src/makestuff/libs/libutpp/Checks.h ****             stream << actual[actualIndex] << " ";
 8553              		.loc 5 77 3
 8554 0174 EB48     		jmp	.L411
 8555              	.L412:
  78:/home/asoreyh/Dropbox/projects/lago/acqua/nexys/src/makestuff/libs/libutpp/Checks.h **** 
 8556              		.loc 5 78 29
 8557 0176 488B8528 		movq	-472(%rbp), %rax
 8557      FEFFFF
 8558 017d 488B10   		movq	(%rax), %rdx
  78:/home/asoreyh/Dropbox/projects/lago/acqua/nexys/src/makestuff/libs/libutpp/Checks.h **** 
 8559              		.loc 5 78 30
 8560 0180 8B854CFE 		movl	-436(%rbp), %eax
 8560      FFFF
 8561 0186 4898     		cltq
  78:/home/asoreyh/Dropbox/projects/lago/acqua/nexys/src/makestuff/libs/libutpp/Checks.h **** 
 8562              		.loc 5 78 29
 8563 0188 4801D0   		addq	%rdx, %rax
 8564 018b 0FB600   		movzbl	(%rax), %eax
  78:/home/asoreyh/Dropbox/projects/lago/acqua/nexys/src/makestuff/libs/libutpp/Checks.h **** 
 8565              		.loc 5 78 43
 8566 018e 0FB6D0   		movzbl	%al, %edx
 8567 0191 488D8550 		leaq	-432(%rbp), %rax
 8567      FEFFFF
 8568 0198 89D6     		movl	%edx, %esi
 8569 019a 4889C7   		movq	%rax, %rdi
 8570 019d E8000000 		call	_ZStlsISt11char_traitsIcEERSt13basic_ostreamIcT_ES5_h@PLT
 8570      00
 8571 01a2 4889C2   		movq	%rax, %rdx
 8572 01a5 488D0500 		leaq	.LC80(%rip), %rax
 8572      000000
 8573 01ac 4889C6   		movq	%rax, %rsi
 8574 01af 4889D7   		movq	%rdx, %rdi
 8575 01b2 E8000000 		call	_ZStlsISt11char_traitsIcEERSt13basic_ostreamIcT_ES5_PKc@PLT
 8575      00
  77:/home/asoreyh/Dropbox/projects/lago/acqua/nexys/src/makestuff/libs/libutpp/Checks.h ****             stream << actual[actualIndex] << " ";
 8576              		.loc 5 77 3 discriminator 2
 8577 01b7 83854CFE 		addl	$1, -436(%rbp)
 8577      FFFF01
 8578              	.L411:
  77:/home/asoreyh/Dropbox/projects/lago/acqua/nexys/src/makestuff/libs/libutpp/Checks.h ****             stream << actual[actualIndex] << " ";
 8579              		.loc 5 77 41 discriminator 1
 8580 01be 8B854CFE 		movl	-436(%rbp), %eax
 8580      FFFF
 8581 01c4 3B8524FE 		cmpl	-476(%rbp), %eax
 8581      FFFF
 8582 01ca 7CAA     		jl	.L412
 8583              	.LBE58:
  80:/home/asoreyh/Dropbox/projects/lago/acqua/nexys/src/makestuff/libs/libutpp/Checks.h **** 
 8584              		.loc 5 80 10
 8585 01cc 488D8550 		leaq	-432(%rbp), %rax
 8585      FEFFFF
 8586 01d3 488D1500 		leaq	.LC82(%rip), %rdx
 8586      000000
 8587 01da 4889D6   		movq	%rdx, %rsi
 8588 01dd 4889C7   		movq	%rax, %rdi
 8589 01e0 E8000000 		call	_ZStlsISt11char_traitsIcEERSt13basic_ostreamIcT_ES5_PKc@PLT
 8589      00
  82:/home/asoreyh/Dropbox/projects/lago/acqua/nexys/src/makestuff/libs/libutpp/Checks.h ****     }
 8590              		.loc 5 82 30
 8591 01e5 488D8550 		leaq	-432(%rbp), %rax
 8591      FEFFFF
 8592 01ec 4889C7   		movq	%rax, %rdi
 8593 01ef E8000000 		call	_ZNK8UnitTest15MemoryOutStream7GetTextEv@PLT
 8593      00
 8594 01f4 4889C2   		movq	%rax, %rdx
 8595 01f7 488B8D18 		movq	-488(%rbp), %rcx
 8595      FEFFFF
 8596 01fe 488B8538 		movq	-456(%rbp), %rax
 8596      FEFFFF
 8597 0205 4889CE   		movq	%rcx, %rsi
 8598 0208 4889C7   		movq	%rax, %rdi
 8599 020b E8000000 		call	_ZN8UnitTest11TestResults13OnTestFailureERKNS_11TestDetailsEPKc@PLT
 8599      00
 8600              	.LEHE289:
  83:/home/asoreyh/Dropbox/projects/lago/acqua/nexys/src/makestuff/libs/libutpp/Checks.h **** }
 8601              		.loc 5 83 5
 8602 0210 488D8550 		leaq	-432(%rbp), %rax
 8602      FEFFFF
 8603 0217 4889C7   		movq	%rax, %rdi
 8604              	.LEHB290:
 8605 021a E8000000 		call	_ZN8UnitTest15MemoryOutStreamD1Ev
 8605      00
 8606              	.LEHE290:
 8607              	.LBE56:
 8608              	.LBE55:
 8609              		.loc 5 84 1
 8610 021f EB21     		jmp	.L416
 8611              	.L415:
 8612 0221 F30F1EFA 		endbr64
 8613              	.LBB60:
 8614              	.LBB59:
  83:/home/asoreyh/Dropbox/projects/lago/acqua/nexys/src/makestuff/libs/libutpp/Checks.h **** }
 8615              		.loc 5 83 5
 8616 0225 4889C3   		movq	%rax, %rbx
 8617 0228 488D8550 		leaq	-432(%rbp), %rax
 8617      FEFFFF
 8618 022f 4889C7   		movq	%rax, %rdi
 8619 0232 E8000000 		call	_ZN8UnitTest15MemoryOutStreamD1Ev
 8619      00
 8620 0237 4889D8   		movq	%rbx, %rax
 8621 023a 4889C7   		movq	%rax, %rdi
 8622              	.LEHB291:
 8623 023d E8000000 		call	_Unwind_Resume@PLT
 8623      00
 8624              	.LEHE291:
 8625              	.L416:
 8626              	.LBE59:
 8627              	.LBE60:
 8628              		.loc 5 84 1
 8629 0242 90       		nop
 8630 0243 488B45E8 		movq	-24(%rbp), %rax
 8631 0247 64482B04 		subq	%fs:40, %rax
 8631      25280000 
 8631      00
 8632 0250 7405     		je	.L414
 8633 0252 E8000000 		call	__stack_chk_fail@PLT
 8633      00
 8634              	.L414:
 8635 0257 488B5DF8 		movq	-8(%rbp), %rbx
 8636 025b C9       		leave
 8637              		.cfi_def_cfa 7, 8
 8638 025c C3       		ret
 8639              		.cfi_endproc
 8640              	.LFE1326:
 8641              		.section	.gcc_except_table
 8642              	.LLSDA1326:
 8643 06b2 FF       		.byte	0xff
 8644 06b3 FF       		.byte	0xff
 8645 06b4 01       		.byte	0x1
 8646 06b5 16       		.uleb128 .LLSDACSE1326-.LLSDACSB1326
 8647              	.LLSDACSB1326:
 8648 06b6 D101     		.uleb128 .LEHB288-.LFB1326
 8649 06b8 05       		.uleb128 .LEHE288-.LEHB288
 8650 06b9 00       		.uleb128 0
 8651 06ba 00       		.uleb128 0
 8652 06bb EA01     		.uleb128 .LEHB289-.LFB1326
 8653 06bd A602     		.uleb128 .LEHE289-.LEHB289
 8654 06bf A104     		.uleb128 .L415-.LFB1326
 8655 06c1 00       		.uleb128 0
 8656 06c2 9A04     		.uleb128 .LEHB290-.LFB1326
 8657 06c4 05       		.uleb128 .LEHE290-.LEHB290
 8658 06c5 00       		.uleb128 0
 8659 06c6 00       		.uleb128 0
 8660 06c7 BD04     		.uleb128 .LEHB291-.LFB1326
 8661 06c9 05       		.uleb128 .LEHE291-.LEHB291
 8662 06ca 00       		.uleb128 0
 8663 06cb 00       		.uleb128 0
 8664              	.LLSDACSE1326:
 8665              		.section	.text._ZN8UnitTest15CheckArrayEqualIPhS1_EEvRNS_11TestResultsERKT_RKT0_iRKNS_11TestDetail
 8667              		.section	.text._ZN8UnitTest15CheckArrayEqualIPKcPhEEvRNS_11TestResultsERKT_RKT0_iRKNS_11TestDetail
 8668              		.weak	_ZN8UnitTest15CheckArrayEqualIPKcPhEEvRNS_11TestResultsERKT_RKT0_iRKNS_11TestDetailsE
 8670              	_ZN8UnitTest15CheckArrayEqualIPKcPhEEvRNS_11TestResultsERKT_RKT0_iRKNS_11TestDetailsE:
 8671              	.LFB1327:
  59:/home/asoreyh/Dropbox/projects/lago/acqua/nexys/src/makestuff/libs/libutpp/Checks.h ****                 int const count, TestDetails const& details)
 8672              		.loc 5 59 6
 8673              		.cfi_startproc
 8674              		.cfi_personality 0x9b,DW.ref.__gxx_personality_v0
 8675              		.cfi_lsda 0x1b,.LLSDA1327
 8676 0000 F30F1EFA 		endbr64
 8677 0004 55       		pushq	%rbp
 8678              		.cfi_def_cfa_offset 16
 8679              		.cfi_offset 6, -16
 8680 0005 4889E5   		movq	%rsp, %rbp
 8681              		.cfi_def_cfa_register 6
 8682 0008 53       		pushq	%rbx
 8683 0009 4881ECE8 		subq	$488, %rsp
 8683      010000
 8684              		.cfi_offset 3, -24
 8685 0010 4889BD38 		movq	%rdi, -456(%rbp)
 8685      FEFFFF
 8686 0017 4889B530 		movq	%rsi, -464(%rbp)
 8686      FEFFFF
 8687 001e 48899528 		movq	%rdx, -472(%rbp)
 8687      FEFFFF
 8688 0025 898D24FE 		movl	%ecx, -476(%rbp)
 8688      FFFF
 8689 002b 4C898518 		movq	%r8, -488(%rbp)
 8689      FEFFFF
  59:/home/asoreyh/Dropbox/projects/lago/acqua/nexys/src/makestuff/libs/libutpp/Checks.h ****                 int const count, TestDetails const& details)
 8690              		.loc 5 59 6
 8691 0032 64488B04 		movq	%fs:40, %rax
 8691      25280000 
 8691      00
 8692 003b 488945E8 		movq	%rax, -24(%rbp)
 8693 003f 31C0     		xorl	%eax, %eax
  62:/home/asoreyh/Dropbox/projects/lago/acqua/nexys/src/makestuff/libs/libutpp/Checks.h ****     for (int i = 0; i < count; ++i)
 8694              		.loc 5 62 10
 8695 0041 C68543FE 		movb	$1, -445(%rbp)
 8695      FFFF01
 8696              	.LBB61:
  63:/home/asoreyh/Dropbox/projects/lago/acqua/nexys/src/makestuff/libs/libutpp/Checks.h ****         equal &= (expected[i] == actual[i]);
 8697              		.loc 5 63 14
 8698 0048 C78544FE 		movl	$0, -444(%rbp)
 8698      FFFF0000 
 8698      0000
  63:/home/asoreyh/Dropbox/projects/lago/acqua/nexys/src/makestuff/libs/libutpp/Checks.h ****         equal &= (expected[i] == actual[i]);
 8699              		.loc 5 63 5
 8700 0052 EB59     		jmp	.L418
 8701              	.L419:
  64:/home/asoreyh/Dropbox/projects/lago/acqua/nexys/src/makestuff/libs/libutpp/Checks.h **** 
 8702              		.loc 5 64 15 discriminator 3
 8703 0054 0FB69543 		movzbl	-445(%rbp), %edx
 8703      FEFFFF
  64:/home/asoreyh/Dropbox/projects/lago/acqua/nexys/src/makestuff/libs/libutpp/Checks.h **** 
 8704              		.loc 5 64 27 discriminator 3
 8705 005b 488B8530 		movq	-464(%rbp), %rax
 8705      FEFFFF
 8706 0062 488B08   		movq	(%rax), %rcx
  64:/home/asoreyh/Dropbox/projects/lago/acqua/nexys/src/makestuff/libs/libutpp/Checks.h **** 
 8707              		.loc 5 64 28 discriminator 3
 8708 0065 8B8544FE 		movl	-444(%rbp), %eax
 8708      FFFF
 8709 006b 4898     		cltq
  64:/home/asoreyh/Dropbox/projects/lago/acqua/nexys/src/makestuff/libs/libutpp/Checks.h **** 
 8710              		.loc 5 64 27 discriminator 3
 8711 006d 4801C8   		addq	%rcx, %rax
 8712 0070 0FB600   		movzbl	(%rax), %eax
 8713 0073 0FBEC8   		movsbl	%al, %ecx
  64:/home/asoreyh/Dropbox/projects/lago/acqua/nexys/src/makestuff/libs/libutpp/Checks.h **** 
 8714              		.loc 5 64 40 discriminator 3
 8715 0076 488B8528 		movq	-472(%rbp), %rax
 8715      FEFFFF
 8716 007d 488B30   		movq	(%rax), %rsi
  64:/home/asoreyh/Dropbox/projects/lago/acqua/nexys/src/makestuff/libs/libutpp/Checks.h **** 
 8717              		.loc 5 64 41 discriminator 3
 8718 0080 8B8544FE 		movl	-444(%rbp), %eax
 8718      FFFF
 8719 0086 4898     		cltq
  64:/home/asoreyh/Dropbox/projects/lago/acqua/nexys/src/makestuff/libs/libutpp/Checks.h **** 
 8720              		.loc 5 64 40 discriminator 3
 8721 0088 4801F0   		addq	%rsi, %rax
 8722 008b 0FB600   		movzbl	(%rax), %eax
 8723 008e 0FB6C0   		movzbl	%al, %eax
  64:/home/asoreyh/Dropbox/projects/lago/acqua/nexys/src/makestuff/libs/libutpp/Checks.h **** 
 8724              		.loc 5 64 31 discriminator 3
 8725 0091 39C1     		cmpl	%eax, %ecx
 8726 0093 0F94C0   		sete	%al
 8727 0096 0FB6C0   		movzbl	%al, %eax
  64:/home/asoreyh/Dropbox/projects/lago/acqua/nexys/src/makestuff/libs/libutpp/Checks.h **** 
 8728              		.loc 5 64 15 discriminator 3
 8729 0099 21D0     		andl	%edx, %eax
 8730 009b 85C0     		testl	%eax, %eax
 8731 009d 0F95C0   		setne	%al
 8732 00a0 888543FE 		movb	%al, -445(%rbp)
 8732      FFFF
  63:/home/asoreyh/Dropbox/projects/lago/acqua/nexys/src/makestuff/libs/libutpp/Checks.h ****         equal &= (expected[i] == actual[i]);
 8733              		.loc 5 63 5 discriminator 3
 8734 00a6 838544FE 		addl	$1, -444(%rbp)
 8734      FFFF01
 8735              	.L418:
  63:/home/asoreyh/Dropbox/projects/lago/acqua/nexys/src/makestuff/libs/libutpp/Checks.h ****         equal &= (expected[i] == actual[i]);
 8736              		.loc 5 63 23 discriminator 1
 8737 00ad 8B8544FE 		movl	-444(%rbp), %eax
 8737      FFFF
 8738 00b3 3B8524FE 		cmpl	-476(%rbp), %eax
 8738      FFFF
 8739 00b9 7C99     		jl	.L419
 8740              	.LBE61:
 8741              	.LBB62:
  66:/home/asoreyh/Dropbox/projects/lago/acqua/nexys/src/makestuff/libs/libutpp/Checks.h ****     {
 8742              		.loc 5 66 10
 8743 00bb 0FB68543 		movzbl	-445(%rbp), %eax
 8743      FEFFFF
 8744 00c2 83F001   		xorl	$1, %eax
  66:/home/asoreyh/Dropbox/projects/lago/acqua/nexys/src/makestuff/libs/libutpp/Checks.h ****     {
 8745              		.loc 5 66 5
 8746 00c5 84C0     		testb	%al, %al
 8747 00c7 0F847B01 		je	.L428
 8747      0000
 8748              	.LBB63:
  68:/home/asoreyh/Dropbox/projects/lago/acqua/nexys/src/makestuff/libs/libutpp/Checks.h **** 
 8749              		.loc 5 68 35
 8750 00cd 488D8550 		leaq	-432(%rbp), %rax
 8750      FEFFFF
 8751 00d4 4889C7   		movq	%rax, %rdi
 8752              	.LEHB292:
 8753 00d7 E8000000 		call	_ZN8UnitTest15MemoryOutStreamC1Ev
 8753      00
 8754              	.LEHE292:
  70:/home/asoreyh/Dropbox/projects/lago/acqua/nexys/src/makestuff/libs/libutpp/Checks.h **** 
 8755              		.loc 5 70 10
 8756 00dc 488D8550 		leaq	-432(%rbp), %rax
 8756      FEFFFF
 8757 00e3 488D1500 		leaq	.LC79(%rip), %rdx
 8757      000000
 8758 00ea 4889D6   		movq	%rdx, %rsi
 8759 00ed 4889C7   		movq	%rax, %rdi
 8760              	.LEHB293:
 8761 00f0 E8000000 		call	_ZStlsISt11char_traitsIcEERSt13basic_ostreamIcT_ES5_PKc@PLT
 8761      00
 8762              	.LBB64:
  72:/home/asoreyh/Dropbox/projects/lago/acqua/nexys/src/makestuff/libs/libutpp/Checks.h ****             stream << expected[expectedIndex] << " ";
 8763              		.loc 5 72 12
 8764 00f5 C78548FE 		movl	$0, -440(%rbp)
 8764      FFFF0000 
 8764      0000
  72:/home/asoreyh/Dropbox/projects/lago/acqua/nexys/src/makestuff/libs/libutpp/Checks.h ****             stream << expected[expectedIndex] << " ";
 8765              		.loc 5 72 3
 8766 00ff EB48     		jmp	.L421
 8767              	.L422:
  73:/home/asoreyh/Dropbox/projects/lago/acqua/nexys/src/makestuff/libs/libutpp/Checks.h **** 
 8768              		.loc 5 73 31
 8769 0101 488B8530 		movq	-464(%rbp), %rax
 8769      FEFFFF
 8770 0108 488B10   		movq	(%rax), %rdx
  73:/home/asoreyh/Dropbox/projects/lago/acqua/nexys/src/makestuff/libs/libutpp/Checks.h **** 
 8771              		.loc 5 73 32
 8772 010b 8B8548FE 		movl	-440(%rbp), %eax
 8772      FFFF
 8773 0111 4898     		cltq
  73:/home/asoreyh/Dropbox/projects/lago/acqua/nexys/src/makestuff/libs/libutpp/Checks.h **** 
 8774              		.loc 5 73 31
 8775 0113 4801D0   		addq	%rdx, %rax
 8776 0116 0FB600   		movzbl	(%rax), %eax
  73:/home/asoreyh/Dropbox/projects/lago/acqua/nexys/src/makestuff/libs/libutpp/Checks.h **** 
 8777              		.loc 5 73 47
 8778 0119 0FBED0   		movsbl	%al, %edx
 8779 011c 488D8550 		leaq	-432(%rbp), %rax
 8779      FEFFFF
 8780 0123 89D6     		movl	%edx, %esi
 8781 0125 4889C7   		movq	%rax, %rdi
 8782 0128 E8000000 		call	_ZStlsISt11char_traitsIcEERSt13basic_ostreamIcT_ES5_c@PLT
 8782      00
 8783 012d 4889C2   		movq	%rax, %rdx
 8784 0130 488D0500 		leaq	.LC80(%rip), %rax
 8784      000000
 8785 0137 4889C6   		movq	%rax, %rsi
 8786 013a 4889D7   		movq	%rdx, %rdi
 8787 013d E8000000 		call	_ZStlsISt11char_traitsIcEERSt13basic_ostreamIcT_ES5_PKc@PLT
 8787      00
  72:/home/asoreyh/Dropbox/projects/lago/acqua/nexys/src/makestuff/libs/libutpp/Checks.h ****             stream << expected[expectedIndex] << " ";
 8788              		.loc 5 72 3 discriminator 2
 8789 0142 838548FE 		addl	$1, -440(%rbp)
 8789      FFFF01
 8790              	.L421:
  72:/home/asoreyh/Dropbox/projects/lago/acqua/nexys/src/makestuff/libs/libutpp/Checks.h ****             stream << expected[expectedIndex] << " ";
 8791              		.loc 5 72 45 discriminator 1
 8792 0149 8B8548FE 		movl	-440(%rbp), %eax
 8792      FFFF
 8793 014f 3B8524FE 		cmpl	-476(%rbp), %eax
 8793      FFFF
 8794 0155 7CAA     		jl	.L422
 8795              	.LBE64:
  75:/home/asoreyh/Dropbox/projects/lago/acqua/nexys/src/makestuff/libs/libutpp/Checks.h **** 
 8796              		.loc 5 75 10
 8797 0157 488D8550 		leaq	-432(%rbp), %rax
 8797      FEFFFF
 8798 015e 488D1500 		leaq	.LC81(%rip), %rdx
 8798      000000
 8799 0165 4889D6   		movq	%rdx, %rsi
 8800 0168 4889C7   		movq	%rax, %rdi
 8801 016b E8000000 		call	_ZStlsISt11char_traitsIcEERSt13basic_ostreamIcT_ES5_PKc@PLT
 8801      00
 8802              	.LBB65:
  77:/home/asoreyh/Dropbox/projects/lago/acqua/nexys/src/makestuff/libs/libutpp/Checks.h ****             stream << actual[actualIndex] << " ";
 8803              		.loc 5 77 12
 8804 0170 C7854CFE 		movl	$0, -436(%rbp)
 8804      FFFF0000 
 8804      0000
  77:/home/asoreyh/Dropbox/projects/lago/acqua/nexys/src/makestuff/libs/libutpp/Checks.h ****             stream << actual[actualIndex] << " ";
 8805              		.loc 5 77 3
 8806 017a EB48     		jmp	.L423
 8807              	.L424:
  78:/home/asoreyh/Dropbox/projects/lago/acqua/nexys/src/makestuff/libs/libutpp/Checks.h **** 
 8808              		.loc 5 78 29
 8809 017c 488B8528 		movq	-472(%rbp), %rax
 8809      FEFFFF
 8810 0183 488B10   		movq	(%rax), %rdx
  78:/home/asoreyh/Dropbox/projects/lago/acqua/nexys/src/makestuff/libs/libutpp/Checks.h **** 
 8811              		.loc 5 78 30
 8812 0186 8B854CFE 		movl	-436(%rbp), %eax
 8812      FFFF
 8813 018c 4898     		cltq
  78:/home/asoreyh/Dropbox/projects/lago/acqua/nexys/src/makestuff/libs/libutpp/Checks.h **** 
 8814              		.loc 5 78 29
 8815 018e 4801D0   		addq	%rdx, %rax
 8816 0191 0FB600   		movzbl	(%rax), %eax
  78:/home/asoreyh/Dropbox/projects/lago/acqua/nexys/src/makestuff/libs/libutpp/Checks.h **** 
 8817              		.loc 5 78 43
 8818 0194 0FB6D0   		movzbl	%al, %edx
 8819 0197 488D8550 		leaq	-432(%rbp), %rax
 8819      FEFFFF
 8820 019e 89D6     		movl	%edx, %esi
 8821 01a0 4889C7   		movq	%rax, %rdi
 8822 01a3 E8000000 		call	_ZStlsISt11char_traitsIcEERSt13basic_ostreamIcT_ES5_h@PLT
 8822      00
 8823 01a8 4889C2   		movq	%rax, %rdx
 8824 01ab 488D0500 		leaq	.LC80(%rip), %rax
 8824      000000
 8825 01b2 4889C6   		movq	%rax, %rsi
 8826 01b5 4889D7   		movq	%rdx, %rdi
 8827 01b8 E8000000 		call	_ZStlsISt11char_traitsIcEERSt13basic_ostreamIcT_ES5_PKc@PLT
 8827      00
  77:/home/asoreyh/Dropbox/projects/lago/acqua/nexys/src/makestuff/libs/libutpp/Checks.h ****             stream << actual[actualIndex] << " ";
 8828              		.loc 5 77 3 discriminator 2
 8829 01bd 83854CFE 		addl	$1, -436(%rbp)
 8829      FFFF01
 8830              	.L423:
  77:/home/asoreyh/Dropbox/projects/lago/acqua/nexys/src/makestuff/libs/libutpp/Checks.h ****             stream << actual[actualIndex] << " ";
 8831              		.loc 5 77 41 discriminator 1
 8832 01c4 8B854CFE 		movl	-436(%rbp), %eax
 8832      FFFF
 8833 01ca 3B8524FE 		cmpl	-476(%rbp), %eax
 8833      FFFF
 8834 01d0 7CAA     		jl	.L424
 8835              	.LBE65:
  80:/home/asoreyh/Dropbox/projects/lago/acqua/nexys/src/makestuff/libs/libutpp/Checks.h **** 
 8836              		.loc 5 80 10
 8837 01d2 488D8550 		leaq	-432(%rbp), %rax
 8837      FEFFFF
 8838 01d9 488D1500 		leaq	.LC82(%rip), %rdx
 8838      000000
 8839 01e0 4889D6   		movq	%rdx, %rsi
 8840 01e3 4889C7   		movq	%rax, %rdi
 8841 01e6 E8000000 		call	_ZStlsISt11char_traitsIcEERSt13basic_ostreamIcT_ES5_PKc@PLT
 8841      00
  82:/home/asoreyh/Dropbox/projects/lago/acqua/nexys/src/makestuff/libs/libutpp/Checks.h ****     }
 8842              		.loc 5 82 30
 8843 01eb 488D8550 		leaq	-432(%rbp), %rax
 8843      FEFFFF
 8844 01f2 4889C7   		movq	%rax, %rdi
 8845 01f5 E8000000 		call	_ZNK8UnitTest15MemoryOutStream7GetTextEv@PLT
 8845      00
 8846 01fa 4889C2   		movq	%rax, %rdx
 8847 01fd 488B8D18 		movq	-488(%rbp), %rcx
 8847      FEFFFF
 8848 0204 488B8538 		movq	-456(%rbp), %rax
 8848      FEFFFF
 8849 020b 4889CE   		movq	%rcx, %rsi
 8850 020e 4889C7   		movq	%rax, %rdi
 8851 0211 E8000000 		call	_ZN8UnitTest11TestResults13OnTestFailureERKNS_11TestDetailsEPKc@PLT
 8851      00
 8852              	.LEHE293:
  83:/home/asoreyh/Dropbox/projects/lago/acqua/nexys/src/makestuff/libs/libutpp/Checks.h **** }
 8853              		.loc 5 83 5
 8854 0216 488D8550 		leaq	-432(%rbp), %rax
 8854      FEFFFF
 8855 021d 4889C7   		movq	%rax, %rdi
 8856              	.LEHB294:
 8857 0220 E8000000 		call	_ZN8UnitTest15MemoryOutStreamD1Ev
 8857      00
 8858              	.LEHE294:
 8859              	.LBE63:
 8860              	.LBE62:
 8861              		.loc 5 84 1
 8862 0225 EB21     		jmp	.L428
 8863              	.L427:
 8864 0227 F30F1EFA 		endbr64
 8865              	.LBB67:
 8866              	.LBB66:
  83:/home/asoreyh/Dropbox/projects/lago/acqua/nexys/src/makestuff/libs/libutpp/Checks.h **** }
 8867              		.loc 5 83 5
 8868 022b 4889C3   		movq	%rax, %rbx
 8869 022e 488D8550 		leaq	-432(%rbp), %rax
 8869      FEFFFF
 8870 0235 4889C7   		movq	%rax, %rdi
 8871 0238 E8000000 		call	_ZN8UnitTest15MemoryOutStreamD1Ev
 8871      00
 8872 023d 4889D8   		movq	%rbx, %rax
 8873 0240 4889C7   		movq	%rax, %rdi
 8874              	.LEHB295:
 8875 0243 E8000000 		call	_Unwind_Resume@PLT
 8875      00
 8876              	.LEHE295:
 8877              	.L428:
 8878              	.LBE66:
 8879              	.LBE67:
 8880              		.loc 5 84 1
 8881 0248 90       		nop
 8882 0249 488B45E8 		movq	-24(%rbp), %rax
 8883 024d 64482B04 		subq	%fs:40, %rax
 8883      25280000 
 8883      00
 8884 0256 7405     		je	.L426
 8885 0258 E8000000 		call	__stack_chk_fail@PLT
 8885      00
 8886              	.L426:
 8887 025d 488B5DF8 		movq	-8(%rbp), %rbx
 8888 0261 C9       		leave
 8889              		.cfi_def_cfa 7, 8
 8890 0262 C3       		ret
 8891              		.cfi_endproc
 8892              	.LFE1327:
 8893              		.section	.gcc_except_table
 8894              	.LLSDA1327:
 8895 06cc FF       		.byte	0xff
 8896 06cd FF       		.byte	0xff
 8897 06ce 01       		.byte	0x1
 8898 06cf 16       		.uleb128 .LLSDACSE1327-.LLSDACSB1327
 8899              	.LLSDACSB1327:
 8900 06d0 D701     		.uleb128 .LEHB292-.LFB1327
 8901 06d2 05       		.uleb128 .LEHE292-.LEHB292
 8902 06d3 00       		.uleb128 0
 8903 06d4 00       		.uleb128 0
 8904 06d5 F001     		.uleb128 .LEHB293-.LFB1327
 8905 06d7 A602     		.uleb128 .LEHE293-.LEHB293
 8906 06d9 A704     		.uleb128 .L427-.LFB1327
 8907 06db 00       		.uleb128 0
 8908 06dc A004     		.uleb128 .LEHB294-.LFB1327
 8909 06de 05       		.uleb128 .LEHE294-.LEHB294
 8910 06df 00       		.uleb128 0
 8911 06e0 00       		.uleb128 0
 8912 06e1 C304     		.uleb128 .LEHB295-.LFB1327
 8913 06e3 05       		.uleb128 .LEHE295-.LEHB295
 8914 06e4 00       		.uleb128 0
 8915 06e5 00       		.uleb128 0
 8916              	.LLSDACSE1327:
 8917              		.section	.text._ZN8UnitTest15CheckArrayEqualIPKcPhEEvRNS_11TestResultsERKT_RKT0_iRKNS_11TestDetail
 8919              		.weak	_ZTV28TestHexIO_testDeriveWriteMap
 8920              		.section	.data.rel.ro.local._ZTV28TestHexIO_testDeriveWriteMap,"awG",@progbits,_ZTV28TestHexIO_tes
 8921              		.align 8
 8924              	_ZTV28TestHexIO_testDeriveWriteMap:
 8925 0000 00000000 		.quad	0
 8925      00000000 
 8926 0008 00000000 		.quad	_ZTI28TestHexIO_testDeriveWriteMap
 8926      00000000 
 8927 0010 00000000 		.quad	_ZN28TestHexIO_testDeriveWriteMapD1Ev
 8927      00000000 
 8928 0018 00000000 		.quad	_ZN28TestHexIO_testDeriveWriteMapD0Ev
 8928      00000000 
 8929 0020 00000000 		.quad	_ZNK28TestHexIO_testDeriveWriteMap7RunImplEv
 8929      00000000 
 8930              		.section	.text._ZN28TestHexIO_testDeriveWriteMapD2Ev,"axG",@progbits,_ZN28TestHexIO_testDeriveWrit
 8931              		.align 2
 8932              		.weak	_ZN28TestHexIO_testDeriveWriteMapD2Ev
 8934              	_ZN28TestHexIO_testDeriveWriteMapD2Ev:
 8935              	.LFB1407:
 303:testHexIO.cpp **** 	testDeriveWriteMap("Hello........World", "*****........*****");
 8936              		.loc 4 303 1
 8937              		.cfi_startproc
 8938 0000 F30F1EFA 		endbr64
 8939 0004 55       		pushq	%rbp
 8940              		.cfi_def_cfa_offset 16
 8941              		.cfi_offset 6, -16
 8942 0005 4889E5   		movq	%rsp, %rbp
 8943              		.cfi_def_cfa_register 6
 8944 0008 4883EC10 		subq	$16, %rsp
 8945 000c 48897DF8 		movq	%rdi, -8(%rbp)
 8946              	.LBB68:
 303:testHexIO.cpp **** 	testDeriveWriteMap("Hello........World", "*****........*****");
 8947              		.loc 4 303 1
 8948 0010 488D1500 		leaq	16+_ZTV28TestHexIO_testDeriveWriteMap(%rip), %rdx
 8948      000000
 8949 0017 488B45F8 		movq	-8(%rbp), %rax
 8950 001b 488910   		movq	%rdx, (%rax)
 8951 001e 488B45F8 		movq	-8(%rbp), %rax
 8952 0022 4889C7   		movq	%rax, %rdi
 8953 0025 E8000000 		call	_ZN8UnitTest4TestD2Ev@PLT
 8953      00
 8954              	.LBE68:
 8955 002a 90       		nop
 8956 002b C9       		leave
 8957              		.cfi_def_cfa 7, 8
 8958 002c C3       		ret
 8959              		.cfi_endproc
 8960              	.LFE1407:
 8962              		.weak	_ZN28TestHexIO_testDeriveWriteMapD1Ev
 8963              		.set	_ZN28TestHexIO_testDeriveWriteMapD1Ev,_ZN28TestHexIO_testDeriveWriteMapD2Ev
 8964              		.section	.text._ZN28TestHexIO_testDeriveWriteMapD0Ev,"axG",@progbits,_ZN28TestHexIO_testDeriveWrit
 8965              		.align 2
 8966              		.weak	_ZN28TestHexIO_testDeriveWriteMapD0Ev
 8968              	_ZN28TestHexIO_testDeriveWriteMapD0Ev:
 8969              	.LFB1409:
 303:testHexIO.cpp **** 	testDeriveWriteMap("Hello........World", "*****........*****");
 8970              		.loc 4 303 1
 8971              		.cfi_startproc
 8972              		.cfi_personality 0x9b,DW.ref.__gxx_personality_v0
 8973              		.cfi_lsda 0x1b,.LLSDA1409
 8974 0000 F30F1EFA 		endbr64
 8975 0004 55       		pushq	%rbp
 8976              		.cfi_def_cfa_offset 16
 8977              		.cfi_offset 6, -16
 8978 0005 4889E5   		movq	%rsp, %rbp
 8979              		.cfi_def_cfa_register 6
 8980 0008 53       		pushq	%rbx
 8981 0009 4883EC18 		subq	$24, %rsp
 8982              		.cfi_offset 3, -24
 8983 000d 48897DE8 		movq	%rdi, -24(%rbp)
 303:testHexIO.cpp **** 	testDeriveWriteMap("Hello........World", "*****........*****");
 8984              		.loc 4 303 1
 8985 0011 488B45E8 		movq	-24(%rbp), %rax
 8986 0015 4889C7   		movq	%rax, %rdi
 8987              	.LEHB296:
 8988 0018 E8000000 		call	_ZN28TestHexIO_testDeriveWriteMapD1Ev
 8988      00
 8989              	.LEHE296:
 303:testHexIO.cpp **** 	testDeriveWriteMap("Hello........World", "*****........*****");
 8990              		.loc 4 303 1 is_stmt 0 discriminator 2
 8991 001d 488B45E8 		movq	-24(%rbp), %rax
 8992 0021 4889C7   		movq	%rax, %rdi
 8993 0024 E8000000 		call	_ZdlPv@PLT
 8993      00
 8994 0029 EB1E     		jmp	.L433
 8995              	.L432:
 8996 002b F30F1EFA 		endbr64
 303:testHexIO.cpp **** 	testDeriveWriteMap("Hello........World", "*****........*****");
 8997              		.loc 4 303 1
 8998 002f 4889C3   		movq	%rax, %rbx
 8999 0032 488B45E8 		movq	-24(%rbp), %rax
 9000 0036 4889C7   		movq	%rax, %rdi
 9001 0039 E8000000 		call	_ZdlPv@PLT
 9001      00
 9002 003e 4889D8   		movq	%rbx, %rax
 9003 0041 4889C7   		movq	%rax, %rdi
 9004              	.LEHB297:
 9005 0044 E8000000 		call	_Unwind_Resume@PLT
 9005      00
 9006              	.LEHE297:
 9007              	.L433:
 9008 0049 488B5DF8 		movq	-8(%rbp), %rbx
 9009 004d C9       		leave
 9010              		.cfi_def_cfa 7, 8
 9011 004e C3       		ret
 9012              		.cfi_endproc
 9013              	.LFE1409:
 9014              		.section	.gcc_except_table
 9015              	.LLSDA1409:
 9016 06e6 FF       		.byte	0xff
 9017 06e7 FF       		.byte	0xff
 9018 06e8 01       		.byte	0x1
 9019 06e9 08       		.uleb128 .LLSDACSE1409-.LLSDACSB1409
 9020              	.LLSDACSB1409:
 9021 06ea 18       		.uleb128 .LEHB296-.LFB1409
 9022 06eb 05       		.uleb128 .LEHE296-.LEHB296
 9023 06ec 2B       		.uleb128 .L432-.LFB1409
 9024 06ed 00       		.uleb128 0
 9025 06ee 44       		.uleb128 .LEHB297-.LFB1409
 9026 06ef 05       		.uleb128 .LEHE297-.LEHB297
 9027 06f0 00       		.uleb128 0
 9028 06f1 00       		.uleb128 0
 9029              	.LLSDACSE1409:
 9030              		.section	.text._ZN28TestHexIO_testDeriveWriteMapD0Ev,"axG",@progbits,_ZN28TestHexIO_testDeriveWrit
 9032              		.weak	_ZTV23TestHexIO_testRoundTrip
 9033              		.section	.data.rel.ro.local._ZTV23TestHexIO_testRoundTrip,"awG",@progbits,_ZTV23TestHexIO_testRoun
 9034              		.align 8
 9037              	_ZTV23TestHexIO_testRoundTrip:
 9038 0000 00000000 		.quad	0
 9038      00000000 
 9039 0008 00000000 		.quad	_ZTI23TestHexIO_testRoundTrip
 9039      00000000 
 9040 0010 00000000 		.quad	_ZN23TestHexIO_testRoundTripD1Ev
 9040      00000000 
 9041 0018 00000000 		.quad	_ZN23TestHexIO_testRoundTripD0Ev
 9041      00000000 
 9042 0020 00000000 		.quad	_ZNK23TestHexIO_testRoundTrip7RunImplEv
 9042      00000000 
 9043              		.section	.text._ZN23TestHexIO_testRoundTripD2Ev,"axG",@progbits,_ZN23TestHexIO_testRoundTripD5Ev,c
 9044              		.align 2
 9045              		.weak	_ZN23TestHexIO_testRoundTripD2Ev
 9047              	_ZN23TestHexIO_testRoundTripD2Ev:
 9048              	.LFB1411:
 242:testHexIO.cpp **** 	testRoundTrip(
 9049              		.loc 4 242 1 is_stmt 1
 9050              		.cfi_startproc
 9051 0000 F30F1EFA 		endbr64
 9052 0004 55       		pushq	%rbp
 9053              		.cfi_def_cfa_offset 16
 9054              		.cfi_offset 6, -16
 9055 0005 4889E5   		movq	%rsp, %rbp
 9056              		.cfi_def_cfa_register 6
 9057 0008 4883EC10 		subq	$16, %rsp
 9058 000c 48897DF8 		movq	%rdi, -8(%rbp)
 9059              	.LBB69:
 242:testHexIO.cpp **** 	testRoundTrip(
 9060              		.loc 4 242 1
 9061 0010 488D1500 		leaq	16+_ZTV23TestHexIO_testRoundTrip(%rip), %rdx
 9061      000000
 9062 0017 488B45F8 		movq	-8(%rbp), %rax
 9063 001b 488910   		movq	%rdx, (%rax)
 9064 001e 488B45F8 		movq	-8(%rbp), %rax
 9065 0022 4889C7   		movq	%rax, %rdi
 9066 0025 E8000000 		call	_ZN8UnitTest4TestD2Ev@PLT
 9066      00
 9067              	.LBE69:
 9068 002a 90       		nop
 9069 002b C9       		leave
 9070              		.cfi_def_cfa 7, 8
 9071 002c C3       		ret
 9072              		.cfi_endproc
 9073              	.LFE1411:
 9075              		.weak	_ZN23TestHexIO_testRoundTripD1Ev
 9076              		.set	_ZN23TestHexIO_testRoundTripD1Ev,_ZN23TestHexIO_testRoundTripD2Ev
 9077              		.section	.text._ZN23TestHexIO_testRoundTripD0Ev,"axG",@progbits,_ZN23TestHexIO_testRoundTripD5Ev,c
 9078              		.align 2
 9079              		.weak	_ZN23TestHexIO_testRoundTripD0Ev
 9081              	_ZN23TestHexIO_testRoundTripD0Ev:
 9082              	.LFB1413:
 242:testHexIO.cpp **** 	testRoundTrip(
 9083              		.loc 4 242 1
 9084              		.cfi_startproc
 9085              		.cfi_personality 0x9b,DW.ref.__gxx_personality_v0
 9086              		.cfi_lsda 0x1b,.LLSDA1413
 9087 0000 F30F1EFA 		endbr64
 9088 0004 55       		pushq	%rbp
 9089              		.cfi_def_cfa_offset 16
 9090              		.cfi_offset 6, -16
 9091 0005 4889E5   		movq	%rsp, %rbp
 9092              		.cfi_def_cfa_register 6
 9093 0008 53       		pushq	%rbx
 9094 0009 4883EC18 		subq	$24, %rsp
 9095              		.cfi_offset 3, -24
 9096 000d 48897DE8 		movq	%rdi, -24(%rbp)
 242:testHexIO.cpp **** 	testRoundTrip(
 9097              		.loc 4 242 1
 9098 0011 488B45E8 		movq	-24(%rbp), %rax
 9099 0015 4889C7   		movq	%rax, %rdi
 9100              	.LEHB298:
 9101 0018 E8000000 		call	_ZN23TestHexIO_testRoundTripD1Ev
 9101      00
 9102              	.LEHE298:
 242:testHexIO.cpp **** 	testRoundTrip(
 9103              		.loc 4 242 1 is_stmt 0 discriminator 2
 9104 001d 488B45E8 		movq	-24(%rbp), %rax
 9105 0021 4889C7   		movq	%rax, %rdi
 9106 0024 E8000000 		call	_ZdlPv@PLT
 9106      00
 9107 0029 EB1E     		jmp	.L438
 9108              	.L437:
 9109 002b F30F1EFA 		endbr64
 242:testHexIO.cpp **** 	testRoundTrip(
 9110              		.loc 4 242 1
 9111 002f 4889C3   		movq	%rax, %rbx
 9112 0032 488B45E8 		movq	-24(%rbp), %rax
 9113 0036 4889C7   		movq	%rax, %rdi
 9114 0039 E8000000 		call	_ZdlPv@PLT
 9114      00
 9115 003e 4889D8   		movq	%rbx, %rax
 9116 0041 4889C7   		movq	%rax, %rdi
 9117              	.LEHB299:
 9118 0044 E8000000 		call	_Unwind_Resume@PLT
 9118      00
 9119              	.LEHE299:
 9120              	.L438:
 9121 0049 488B5DF8 		movq	-8(%rbp), %rbx
 9122 004d C9       		leave
 9123              		.cfi_def_cfa 7, 8
 9124 004e C3       		ret
 9125              		.cfi_endproc
 9126              	.LFE1413:
 9127              		.section	.gcc_except_table
 9128              	.LLSDA1413:
 9129 06f2 FF       		.byte	0xff
 9130 06f3 FF       		.byte	0xff
 9131 06f4 01       		.byte	0x1
 9132 06f5 08       		.uleb128 .LLSDACSE1413-.LLSDACSB1413
 9133              	.LLSDACSB1413:
 9134 06f6 18       		.uleb128 .LEHB298-.LFB1413
 9135 06f7 05       		.uleb128 .LEHE298-.LEHB298
 9136 06f8 2B       		.uleb128 .L437-.LFB1413
 9137 06f9 00       		.uleb128 0
 9138 06fa 44       		.uleb128 .LEHB299-.LFB1413
 9139 06fb 05       		.uleb128 .LEHE299-.LEHB299
 9140 06fc 00       		.uleb128 0
 9141 06fd 00       		.uleb128 0
 9142              	.LLSDACSE1413:
 9143              		.section	.text._ZN23TestHexIO_testRoundTripD0Ev,"axG",@progbits,_ZN23TestHexIO_testRoundTripD5Ev,c
 9145              		.weak	_ZTV25TestHexIO_testCorruptLine
 9146              		.section	.data.rel.ro.local._ZTV25TestHexIO_testCorruptLine,"awG",@progbits,_ZTV25TestHexIO_testCo
 9147              		.align 8
 9150              	_ZTV25TestHexIO_testCorruptLine:
 9151 0000 00000000 		.quad	0
 9151      00000000 
 9152 0008 00000000 		.quad	_ZTI25TestHexIO_testCorruptLine
 9152      00000000 
 9153 0010 00000000 		.quad	_ZN25TestHexIO_testCorruptLineD1Ev
 9153      00000000 
 9154 0018 00000000 		.quad	_ZN25TestHexIO_testCorruptLineD0Ev
 9154      00000000 
 9155 0020 00000000 		.quad	_ZNK25TestHexIO_testCorruptLine7RunImplEv
 9155      00000000 
 9156              		.section	.text._ZN25TestHexIO_testCorruptLineD2Ev,"axG",@progbits,_ZN25TestHexIO_testCorruptLineD5
 9157              		.align 2
 9158              		.weak	_ZN25TestHexIO_testCorruptLineD2Ev
 9160              	_ZN25TestHexIO_testCorruptLineD2Ev:
 9161              	.LFB1415:
 173:testHexIO.cpp **** 	Buffer data;
 9162              		.loc 4 173 1 is_stmt 1
 9163              		.cfi_startproc
 9164 0000 F30F1EFA 		endbr64
 9165 0004 55       		pushq	%rbp
 9166              		.cfi_def_cfa_offset 16
 9167              		.cfi_offset 6, -16
 9168 0005 4889E5   		movq	%rsp, %rbp
 9169              		.cfi_def_cfa_register 6
 9170 0008 4883EC10 		subq	$16, %rsp
 9171 000c 48897DF8 		movq	%rdi, -8(%rbp)
 9172              	.LBB70:
 173:testHexIO.cpp **** 	Buffer data;
 9173              		.loc 4 173 1
 9174 0010 488D1500 		leaq	16+_ZTV25TestHexIO_testCorruptLine(%rip), %rdx
 9174      000000
 9175 0017 488B45F8 		movq	-8(%rbp), %rax
 9176 001b 488910   		movq	%rdx, (%rax)
 9177 001e 488B45F8 		movq	-8(%rbp), %rax
 9178 0022 4889C7   		movq	%rax, %rdi
 9179 0025 E8000000 		call	_ZN8UnitTest4TestD2Ev@PLT
 9179      00
 9180              	.LBE70:
 9181 002a 90       		nop
 9182 002b C9       		leave
 9183              		.cfi_def_cfa 7, 8
 9184 002c C3       		ret
 9185              		.cfi_endproc
 9186              	.LFE1415:
 9188              		.weak	_ZN25TestHexIO_testCorruptLineD1Ev
 9189              		.set	_ZN25TestHexIO_testCorruptLineD1Ev,_ZN25TestHexIO_testCorruptLineD2Ev
 9190              		.section	.text._ZN25TestHexIO_testCorruptLineD0Ev,"axG",@progbits,_ZN25TestHexIO_testCorruptLineD5
 9191              		.align 2
 9192              		.weak	_ZN25TestHexIO_testCorruptLineD0Ev
 9194              	_ZN25TestHexIO_testCorruptLineD0Ev:
 9195              	.LFB1417:
 173:testHexIO.cpp **** 	Buffer data;
 9196              		.loc 4 173 1
 9197              		.cfi_startproc
 9198              		.cfi_personality 0x9b,DW.ref.__gxx_personality_v0
 9199              		.cfi_lsda 0x1b,.LLSDA1417
 9200 0000 F30F1EFA 		endbr64
 9201 0004 55       		pushq	%rbp
 9202              		.cfi_def_cfa_offset 16
 9203              		.cfi_offset 6, -16
 9204 0005 4889E5   		movq	%rsp, %rbp
 9205              		.cfi_def_cfa_register 6
 9206 0008 53       		pushq	%rbx
 9207 0009 4883EC18 		subq	$24, %rsp
 9208              		.cfi_offset 3, -24
 9209 000d 48897DE8 		movq	%rdi, -24(%rbp)
 173:testHexIO.cpp **** 	Buffer data;
 9210              		.loc 4 173 1
 9211 0011 488B45E8 		movq	-24(%rbp), %rax
 9212 0015 4889C7   		movq	%rax, %rdi
 9213              	.LEHB300:
 9214 0018 E8000000 		call	_ZN25TestHexIO_testCorruptLineD1Ev
 9214      00
 9215              	.LEHE300:
 173:testHexIO.cpp **** 	Buffer data;
 9216              		.loc 4 173 1 is_stmt 0 discriminator 2
 9217 001d 488B45E8 		movq	-24(%rbp), %rax
 9218 0021 4889C7   		movq	%rax, %rdi
 9219 0024 E8000000 		call	_ZdlPv@PLT
 9219      00
 9220 0029 EB1E     		jmp	.L443
 9221              	.L442:
 9222 002b F30F1EFA 		endbr64
 173:testHexIO.cpp **** 	Buffer data;
 9223              		.loc 4 173 1
 9224 002f 4889C3   		movq	%rax, %rbx
 9225 0032 488B45E8 		movq	-24(%rbp), %rax
 9226 0036 4889C7   		movq	%rax, %rdi
 9227 0039 E8000000 		call	_ZdlPv@PLT
 9227      00
 9228 003e 4889D8   		movq	%rbx, %rax
 9229 0041 4889C7   		movq	%rax, %rdi
 9230              	.LEHB301:
 9231 0044 E8000000 		call	_Unwind_Resume@PLT
 9231      00
 9232              	.LEHE301:
 9233              	.L443:
 9234 0049 488B5DF8 		movq	-8(%rbp), %rbx
 9235 004d C9       		leave
 9236              		.cfi_def_cfa 7, 8
 9237 004e C3       		ret
 9238              		.cfi_endproc
 9239              	.LFE1417:
 9240              		.section	.gcc_except_table
 9241              	.LLSDA1417:
 9242 06fe FF       		.byte	0xff
 9243 06ff FF       		.byte	0xff
 9244 0700 01       		.byte	0x1
 9245 0701 08       		.uleb128 .LLSDACSE1417-.LLSDACSB1417
 9246              	.LLSDACSB1417:
 9247 0702 18       		.uleb128 .LEHB300-.LFB1417
 9248 0703 05       		.uleb128 .LEHE300-.LEHB300
 9249 0704 2B       		.uleb128 .L442-.LFB1417
 9250 0705 00       		.uleb128 0
 9251 0706 44       		.uleb128 .LEHB301-.LFB1417
 9252 0707 05       		.uleb128 .LEHE301-.LEHB301
 9253 0708 00       		.uleb128 0
 9254 0709 00       		.uleb128 0
 9255              	.LLSDACSE1417:
 9256              		.section	.text._ZN25TestHexIO_testCorruptLineD0Ev,"axG",@progbits,_ZN25TestHexIO_testCorruptLineD5
 9258              		.weak	_ZTV25TestHexIO_testBadChecksum
 9259              		.section	.data.rel.ro.local._ZTV25TestHexIO_testBadChecksum,"awG",@progbits,_ZTV25TestHexIO_testBa
 9260              		.align 8
 9263              	_ZTV25TestHexIO_testBadChecksum:
 9264 0000 00000000 		.quad	0
 9264      00000000 
 9265 0008 00000000 		.quad	_ZTI25TestHexIO_testBadChecksum
 9265      00000000 
 9266 0010 00000000 		.quad	_ZN25TestHexIO_testBadChecksumD1Ev
 9266      00000000 
 9267 0018 00000000 		.quad	_ZN25TestHexIO_testBadChecksumD0Ev
 9267      00000000 
 9268 0020 00000000 		.quad	_ZNK25TestHexIO_testBadChecksum7RunImplEv
 9268      00000000 
 9269              		.section	.text._ZN25TestHexIO_testBadChecksumD2Ev,"axG",@progbits,_ZN25TestHexIO_testBadChecksumD5
 9270              		.align 2
 9271              		.weak	_ZN25TestHexIO_testBadChecksumD2Ev
 9273              	_ZN25TestHexIO_testBadChecksumD2Ev:
 9274              	.LFB1419:
 160:testHexIO.cpp **** 	Buffer data;
 9275              		.loc 4 160 1 is_stmt 1
 9276              		.cfi_startproc
 9277 0000 F30F1EFA 		endbr64
 9278 0004 55       		pushq	%rbp
 9279              		.cfi_def_cfa_offset 16
 9280              		.cfi_offset 6, -16
 9281 0005 4889E5   		movq	%rsp, %rbp
 9282              		.cfi_def_cfa_register 6
 9283 0008 4883EC10 		subq	$16, %rsp
 9284 000c 48897DF8 		movq	%rdi, -8(%rbp)
 9285              	.LBB71:
 160:testHexIO.cpp **** 	Buffer data;
 9286              		.loc 4 160 1
 9287 0010 488D1500 		leaq	16+_ZTV25TestHexIO_testBadChecksum(%rip), %rdx
 9287      000000
 9288 0017 488B45F8 		movq	-8(%rbp), %rax
 9289 001b 488910   		movq	%rdx, (%rax)
 9290 001e 488B45F8 		movq	-8(%rbp), %rax
 9291 0022 4889C7   		movq	%rax, %rdi
 9292 0025 E8000000 		call	_ZN8UnitTest4TestD2Ev@PLT
 9292      00
 9293              	.LBE71:
 9294 002a 90       		nop
 9295 002b C9       		leave
 9296              		.cfi_def_cfa 7, 8
 9297 002c C3       		ret
 9298              		.cfi_endproc
 9299              	.LFE1419:
 9301              		.weak	_ZN25TestHexIO_testBadChecksumD1Ev
 9302              		.set	_ZN25TestHexIO_testBadChecksumD1Ev,_ZN25TestHexIO_testBadChecksumD2Ev
 9303              		.section	.text._ZN25TestHexIO_testBadChecksumD0Ev,"axG",@progbits,_ZN25TestHexIO_testBadChecksumD5
 9304              		.align 2
 9305              		.weak	_ZN25TestHexIO_testBadChecksumD0Ev
 9307              	_ZN25TestHexIO_testBadChecksumD0Ev:
 9308              	.LFB1421:
 160:testHexIO.cpp **** 	Buffer data;
 9309              		.loc 4 160 1
 9310              		.cfi_startproc
 9311              		.cfi_personality 0x9b,DW.ref.__gxx_personality_v0
 9312              		.cfi_lsda 0x1b,.LLSDA1421
 9313 0000 F30F1EFA 		endbr64
 9314 0004 55       		pushq	%rbp
 9315              		.cfi_def_cfa_offset 16
 9316              		.cfi_offset 6, -16
 9317 0005 4889E5   		movq	%rsp, %rbp
 9318              		.cfi_def_cfa_register 6
 9319 0008 53       		pushq	%rbx
 9320 0009 4883EC18 		subq	$24, %rsp
 9321              		.cfi_offset 3, -24
 9322 000d 48897DE8 		movq	%rdi, -24(%rbp)
 160:testHexIO.cpp **** 	Buffer data;
 9323              		.loc 4 160 1
 9324 0011 488B45E8 		movq	-24(%rbp), %rax
 9325 0015 4889C7   		movq	%rax, %rdi
 9326              	.LEHB302:
 9327 0018 E8000000 		call	_ZN25TestHexIO_testBadChecksumD1Ev
 9327      00
 9328              	.LEHE302:
 160:testHexIO.cpp **** 	Buffer data;
 9329              		.loc 4 160 1 is_stmt 0 discriminator 2
 9330 001d 488B45E8 		movq	-24(%rbp), %rax
 9331 0021 4889C7   		movq	%rax, %rdi
 9332 0024 E8000000 		call	_ZdlPv@PLT
 9332      00
 9333 0029 EB1E     		jmp	.L448
 9334              	.L447:
 9335 002b F30F1EFA 		endbr64
 160:testHexIO.cpp **** 	Buffer data;
 9336              		.loc 4 160 1
 9337 002f 4889C3   		movq	%rax, %rbx
 9338 0032 488B45E8 		movq	-24(%rbp), %rax
 9339 0036 4889C7   		movq	%rax, %rdi
 9340 0039 E8000000 		call	_ZdlPv@PLT
 9340      00
 9341 003e 4889D8   		movq	%rbx, %rax
 9342 0041 4889C7   		movq	%rax, %rdi
 9343              	.LEHB303:
 9344 0044 E8000000 		call	_Unwind_Resume@PLT
 9344      00
 9345              	.LEHE303:
 9346              	.L448:
 9347 0049 488B5DF8 		movq	-8(%rbp), %rbx
 9348 004d C9       		leave
 9349              		.cfi_def_cfa 7, 8
 9350 004e C3       		ret
 9351              		.cfi_endproc
 9352              	.LFE1421:
 9353              		.section	.gcc_except_table
 9354              	.LLSDA1421:
 9355 070a FF       		.byte	0xff
 9356 070b FF       		.byte	0xff
 9357 070c 01       		.byte	0x1
 9358 070d 08       		.uleb128 .LLSDACSE1421-.LLSDACSB1421
 9359              	.LLSDACSB1421:
 9360 070e 18       		.uleb128 .LEHB302-.LFB1421
 9361 070f 05       		.uleb128 .LEHE302-.LEHB302
 9362 0710 2B       		.uleb128 .L447-.LFB1421
 9363 0711 00       		.uleb128 0
 9364 0712 44       		.uleb128 .LEHB303-.LFB1421
 9365 0713 05       		.uleb128 .LEHE303-.LEHB303
 9366 0714 00       		.uleb128 0
 9367 0715 00       		.uleb128 0
 9368              	.LLSDACSE1421:
 9369              		.section	.text._ZN25TestHexIO_testBadChecksumD0Ev,"axG",@progbits,_ZN25TestHexIO_testBadChecksumD5
 9371              		.weak	_ZTV26TestHexIO_testJunkChecksum
 9372              		.section	.data.rel.ro.local._ZTV26TestHexIO_testJunkChecksum,"awG",@progbits,_ZTV26TestHexIO_testJ
 9373              		.align 8
 9376              	_ZTV26TestHexIO_testJunkChecksum:
 9377 0000 00000000 		.quad	0
 9377      00000000 
 9378 0008 00000000 		.quad	_ZTI26TestHexIO_testJunkChecksum
 9378      00000000 
 9379 0010 00000000 		.quad	_ZN26TestHexIO_testJunkChecksumD1Ev
 9379      00000000 
 9380 0018 00000000 		.quad	_ZN26TestHexIO_testJunkChecksumD0Ev
 9380      00000000 
 9381 0020 00000000 		.quad	_ZNK26TestHexIO_testJunkChecksum7RunImplEv
 9381      00000000 
 9382              		.section	.text._ZN26TestHexIO_testJunkChecksumD2Ev,"axG",@progbits,_ZN26TestHexIO_testJunkChecksum
 9383              		.align 2
 9384              		.weak	_ZN26TestHexIO_testJunkChecksumD2Ev
 9386              	_ZN26TestHexIO_testJunkChecksumD2Ev:
 9387              	.LFB1423:
 147:testHexIO.cpp **** 	Buffer data;
 9388              		.loc 4 147 1 is_stmt 1
 9389              		.cfi_startproc
 9390 0000 F30F1EFA 		endbr64
 9391 0004 55       		pushq	%rbp
 9392              		.cfi_def_cfa_offset 16
 9393              		.cfi_offset 6, -16
 9394 0005 4889E5   		movq	%rsp, %rbp
 9395              		.cfi_def_cfa_register 6
 9396 0008 4883EC10 		subq	$16, %rsp
 9397 000c 48897DF8 		movq	%rdi, -8(%rbp)
 9398              	.LBB72:
 147:testHexIO.cpp **** 	Buffer data;
 9399              		.loc 4 147 1
 9400 0010 488D1500 		leaq	16+_ZTV26TestHexIO_testJunkChecksum(%rip), %rdx
 9400      000000
 9401 0017 488B45F8 		movq	-8(%rbp), %rax
 9402 001b 488910   		movq	%rdx, (%rax)
 9403 001e 488B45F8 		movq	-8(%rbp), %rax
 9404 0022 4889C7   		movq	%rax, %rdi
 9405 0025 E8000000 		call	_ZN8UnitTest4TestD2Ev@PLT
 9405      00
 9406              	.LBE72:
 9407 002a 90       		nop
 9408 002b C9       		leave
 9409              		.cfi_def_cfa 7, 8
 9410 002c C3       		ret
 9411              		.cfi_endproc
 9412              	.LFE1423:
 9414              		.weak	_ZN26TestHexIO_testJunkChecksumD1Ev
 9415              		.set	_ZN26TestHexIO_testJunkChecksumD1Ev,_ZN26TestHexIO_testJunkChecksumD2Ev
 9416              		.section	.text._ZN26TestHexIO_testJunkChecksumD0Ev,"axG",@progbits,_ZN26TestHexIO_testJunkChecksum
 9417              		.align 2
 9418              		.weak	_ZN26TestHexIO_testJunkChecksumD0Ev
 9420              	_ZN26TestHexIO_testJunkChecksumD0Ev:
 9421              	.LFB1425:
 147:testHexIO.cpp **** 	Buffer data;
 9422              		.loc 4 147 1
 9423              		.cfi_startproc
 9424              		.cfi_personality 0x9b,DW.ref.__gxx_personality_v0
 9425              		.cfi_lsda 0x1b,.LLSDA1425
 9426 0000 F30F1EFA 		endbr64
 9427 0004 55       		pushq	%rbp
 9428              		.cfi_def_cfa_offset 16
 9429              		.cfi_offset 6, -16
 9430 0005 4889E5   		movq	%rsp, %rbp
 9431              		.cfi_def_cfa_register 6
 9432 0008 53       		pushq	%rbx
 9433 0009 4883EC18 		subq	$24, %rsp
 9434              		.cfi_offset 3, -24
 9435 000d 48897DE8 		movq	%rdi, -24(%rbp)
 147:testHexIO.cpp **** 	Buffer data;
 9436              		.loc 4 147 1
 9437 0011 488B45E8 		movq	-24(%rbp), %rax
 9438 0015 4889C7   		movq	%rax, %rdi
 9439              	.LEHB304:
 9440 0018 E8000000 		call	_ZN26TestHexIO_testJunkChecksumD1Ev
 9440      00
 9441              	.LEHE304:
 147:testHexIO.cpp **** 	Buffer data;
 9442              		.loc 4 147 1 is_stmt 0 discriminator 2
 9443 001d 488B45E8 		movq	-24(%rbp), %rax
 9444 0021 4889C7   		movq	%rax, %rdi
 9445 0024 E8000000 		call	_ZdlPv@PLT
 9445      00
 9446 0029 EB1E     		jmp	.L453
 9447              	.L452:
 9448 002b F30F1EFA 		endbr64
 147:testHexIO.cpp **** 	Buffer data;
 9449              		.loc 4 147 1
 9450 002f 4889C3   		movq	%rax, %rbx
 9451 0032 488B45E8 		movq	-24(%rbp), %rax
 9452 0036 4889C7   		movq	%rax, %rdi
 9453 0039 E8000000 		call	_ZdlPv@PLT
 9453      00
 9454 003e 4889D8   		movq	%rbx, %rax
 9455 0041 4889C7   		movq	%rax, %rdi
 9456              	.LEHB305:
 9457 0044 E8000000 		call	_Unwind_Resume@PLT
 9457      00
 9458              	.LEHE305:
 9459              	.L453:
 9460 0049 488B5DF8 		movq	-8(%rbp), %rbx
 9461 004d C9       		leave
 9462              		.cfi_def_cfa 7, 8
 9463 004e C3       		ret
 9464              		.cfi_endproc
 9465              	.LFE1425:
 9466              		.section	.gcc_except_table
 9467              	.LLSDA1425:
 9468 0716 FF       		.byte	0xff
 9469 0717 FF       		.byte	0xff
 9470 0718 01       		.byte	0x1
 9471 0719 08       		.uleb128 .LLSDACSE1425-.LLSDACSB1425
 9472              	.LLSDACSB1425:
 9473 071a 18       		.uleb128 .LEHB304-.LFB1425
 9474 071b 05       		.uleb128 .LEHE304-.LEHB304
 9475 071c 2B       		.uleb128 .L452-.LFB1425
 9476 071d 00       		.uleb128 0
 9477 071e 44       		.uleb128 .LEHB305-.LFB1425
 9478 071f 05       		.uleb128 .LEHE305-.LEHB305
 9479 0720 00       		.uleb128 0
 9480 0721 00       		.uleb128 0
 9481              	.LLSDACSE1425:
 9482              		.section	.text._ZN26TestHexIO_testJunkChecksumD0Ev,"axG",@progbits,_ZN26TestHexIO_testJunkChecksum
 9484              		.weak	_ZTV26TestHexIO_testJunkDataByte
 9485              		.section	.data.rel.ro.local._ZTV26TestHexIO_testJunkDataByte,"awG",@progbits,_ZTV26TestHexIO_testJ
 9486              		.align 8
 9489              	_ZTV26TestHexIO_testJunkDataByte:
 9490 0000 00000000 		.quad	0
 9490      00000000 
 9491 0008 00000000 		.quad	_ZTI26TestHexIO_testJunkDataByte
 9491      00000000 
 9492 0010 00000000 		.quad	_ZN26TestHexIO_testJunkDataByteD1Ev
 9492      00000000 
 9493 0018 00000000 		.quad	_ZN26TestHexIO_testJunkDataByteD0Ev
 9493      00000000 
 9494 0020 00000000 		.quad	_ZNK26TestHexIO_testJunkDataByte7RunImplEv
 9494      00000000 
 9495              		.section	.text._ZN26TestHexIO_testJunkDataByteD2Ev,"axG",@progbits,_ZN26TestHexIO_testJunkDataByte
 9496              		.align 2
 9497              		.weak	_ZN26TestHexIO_testJunkDataByteD2Ev
 9499              	_ZN26TestHexIO_testJunkDataByteD2Ev:
 9500              	.LFB1427:
 134:testHexIO.cpp **** 	Buffer data;
 9501              		.loc 4 134 1 is_stmt 1
 9502              		.cfi_startproc
 9503 0000 F30F1EFA 		endbr64
 9504 0004 55       		pushq	%rbp
 9505              		.cfi_def_cfa_offset 16
 9506              		.cfi_offset 6, -16
 9507 0005 4889E5   		movq	%rsp, %rbp
 9508              		.cfi_def_cfa_register 6
 9509 0008 4883EC10 		subq	$16, %rsp
 9510 000c 48897DF8 		movq	%rdi, -8(%rbp)
 9511              	.LBB73:
 134:testHexIO.cpp **** 	Buffer data;
 9512              		.loc 4 134 1
 9513 0010 488D1500 		leaq	16+_ZTV26TestHexIO_testJunkDataByte(%rip), %rdx
 9513      000000
 9514 0017 488B45F8 		movq	-8(%rbp), %rax
 9515 001b 488910   		movq	%rdx, (%rax)
 9516 001e 488B45F8 		movq	-8(%rbp), %rax
 9517 0022 4889C7   		movq	%rax, %rdi
 9518 0025 E8000000 		call	_ZN8UnitTest4TestD2Ev@PLT
 9518      00
 9519              	.LBE73:
 9520 002a 90       		nop
 9521 002b C9       		leave
 9522              		.cfi_def_cfa 7, 8
 9523 002c C3       		ret
 9524              		.cfi_endproc
 9525              	.LFE1427:
 9527              		.weak	_ZN26TestHexIO_testJunkDataByteD1Ev
 9528              		.set	_ZN26TestHexIO_testJunkDataByteD1Ev,_ZN26TestHexIO_testJunkDataByteD2Ev
 9529              		.section	.text._ZN26TestHexIO_testJunkDataByteD0Ev,"axG",@progbits,_ZN26TestHexIO_testJunkDataByte
 9530              		.align 2
 9531              		.weak	_ZN26TestHexIO_testJunkDataByteD0Ev
 9533              	_ZN26TestHexIO_testJunkDataByteD0Ev:
 9534              	.LFB1429:
 134:testHexIO.cpp **** 	Buffer data;
 9535              		.loc 4 134 1
 9536              		.cfi_startproc
 9537              		.cfi_personality 0x9b,DW.ref.__gxx_personality_v0
 9538              		.cfi_lsda 0x1b,.LLSDA1429
 9539 0000 F30F1EFA 		endbr64
 9540 0004 55       		pushq	%rbp
 9541              		.cfi_def_cfa_offset 16
 9542              		.cfi_offset 6, -16
 9543 0005 4889E5   		movq	%rsp, %rbp
 9544              		.cfi_def_cfa_register 6
 9545 0008 53       		pushq	%rbx
 9546 0009 4883EC18 		subq	$24, %rsp
 9547              		.cfi_offset 3, -24
 9548 000d 48897DE8 		movq	%rdi, -24(%rbp)
 134:testHexIO.cpp **** 	Buffer data;
 9549              		.loc 4 134 1
 9550 0011 488B45E8 		movq	-24(%rbp), %rax
 9551 0015 4889C7   		movq	%rax, %rdi
 9552              	.LEHB306:
 9553 0018 E8000000 		call	_ZN26TestHexIO_testJunkDataByteD1Ev
 9553      00
 9554              	.LEHE306:
 134:testHexIO.cpp **** 	Buffer data;
 9555              		.loc 4 134 1 is_stmt 0 discriminator 2
 9556 001d 488B45E8 		movq	-24(%rbp), %rax
 9557 0021 4889C7   		movq	%rax, %rdi
 9558 0024 E8000000 		call	_ZdlPv@PLT
 9558      00
 9559 0029 EB1E     		jmp	.L458
 9560              	.L457:
 9561 002b F30F1EFA 		endbr64
 134:testHexIO.cpp **** 	Buffer data;
 9562              		.loc 4 134 1
 9563 002f 4889C3   		movq	%rax, %rbx
 9564 0032 488B45E8 		movq	-24(%rbp), %rax
 9565 0036 4889C7   		movq	%rax, %rdi
 9566 0039 E8000000 		call	_ZdlPv@PLT
 9566      00
 9567 003e 4889D8   		movq	%rbx, %rax
 9568 0041 4889C7   		movq	%rax, %rdi
 9569              	.LEHB307:
 9570 0044 E8000000 		call	_Unwind_Resume@PLT
 9570      00
 9571              	.LEHE307:
 9572              	.L458:
 9573 0049 488B5DF8 		movq	-8(%rbp), %rbx
 9574 004d C9       		leave
 9575              		.cfi_def_cfa 7, 8
 9576 004e C3       		ret
 9577              		.cfi_endproc
 9578              	.LFE1429:
 9579              		.section	.gcc_except_table
 9580              	.LLSDA1429:
 9581 0722 FF       		.byte	0xff
 9582 0723 FF       		.byte	0xff
 9583 0724 01       		.byte	0x1
 9584 0725 08       		.uleb128 .LLSDACSE1429-.LLSDACSB1429
 9585              	.LLSDACSB1429:
 9586 0726 18       		.uleb128 .LEHB306-.LFB1429
 9587 0727 05       		.uleb128 .LEHE306-.LEHB306
 9588 0728 2B       		.uleb128 .L457-.LFB1429
 9589 0729 00       		.uleb128 0
 9590 072a 44       		.uleb128 .LEHB307-.LFB1429
 9591 072b 05       		.uleb128 .LEHE307-.LEHB307
 9592 072c 00       		.uleb128 0
 9593 072d 00       		.uleb128 0
 9594              	.LLSDACSE1429:
 9595              		.section	.text._ZN26TestHexIO_testJunkDataByteD0Ev,"axG",@progbits,_ZN26TestHexIO_testJunkDataByte
 9597              		.weak	_ZTV25TestHexIO_testJunkRecType
 9598              		.section	.data.rel.ro.local._ZTV25TestHexIO_testJunkRecType,"awG",@progbits,_ZTV25TestHexIO_testJu
 9599              		.align 8
 9602              	_ZTV25TestHexIO_testJunkRecType:
 9603 0000 00000000 		.quad	0
 9603      00000000 
 9604 0008 00000000 		.quad	_ZTI25TestHexIO_testJunkRecType
 9604      00000000 
 9605 0010 00000000 		.quad	_ZN25TestHexIO_testJunkRecTypeD1Ev
 9605      00000000 
 9606 0018 00000000 		.quad	_ZN25TestHexIO_testJunkRecTypeD0Ev
 9606      00000000 
 9607 0020 00000000 		.quad	_ZNK25TestHexIO_testJunkRecType7RunImplEv
 9607      00000000 
 9608              		.section	.text._ZN25TestHexIO_testJunkRecTypeD2Ev,"axG",@progbits,_ZN25TestHexIO_testJunkRecTypeD5
 9609              		.align 2
 9610              		.weak	_ZN25TestHexIO_testJunkRecTypeD2Ev
 9612              	_ZN25TestHexIO_testJunkRecTypeD2Ev:
 9613              	.LFB1431:
 121:testHexIO.cpp **** 	Buffer data;
 9614              		.loc 4 121 1 is_stmt 1
 9615              		.cfi_startproc
 9616 0000 F30F1EFA 		endbr64
 9617 0004 55       		pushq	%rbp
 9618              		.cfi_def_cfa_offset 16
 9619              		.cfi_offset 6, -16
 9620 0005 4889E5   		movq	%rsp, %rbp
 9621              		.cfi_def_cfa_register 6
 9622 0008 4883EC10 		subq	$16, %rsp
 9623 000c 48897DF8 		movq	%rdi, -8(%rbp)
 9624              	.LBB74:
 121:testHexIO.cpp **** 	Buffer data;
 9625              		.loc 4 121 1
 9626 0010 488D1500 		leaq	16+_ZTV25TestHexIO_testJunkRecType(%rip), %rdx
 9626      000000
 9627 0017 488B45F8 		movq	-8(%rbp), %rax
 9628 001b 488910   		movq	%rdx, (%rax)
 9629 001e 488B45F8 		movq	-8(%rbp), %rax
 9630 0022 4889C7   		movq	%rax, %rdi
 9631 0025 E8000000 		call	_ZN8UnitTest4TestD2Ev@PLT
 9631      00
 9632              	.LBE74:
 9633 002a 90       		nop
 9634 002b C9       		leave
 9635              		.cfi_def_cfa 7, 8
 9636 002c C3       		ret
 9637              		.cfi_endproc
 9638              	.LFE1431:
 9640              		.weak	_ZN25TestHexIO_testJunkRecTypeD1Ev
 9641              		.set	_ZN25TestHexIO_testJunkRecTypeD1Ev,_ZN25TestHexIO_testJunkRecTypeD2Ev
 9642              		.section	.text._ZN25TestHexIO_testJunkRecTypeD0Ev,"axG",@progbits,_ZN25TestHexIO_testJunkRecTypeD5
 9643              		.align 2
 9644              		.weak	_ZN25TestHexIO_testJunkRecTypeD0Ev
 9646              	_ZN25TestHexIO_testJunkRecTypeD0Ev:
 9647              	.LFB1433:
 121:testHexIO.cpp **** 	Buffer data;
 9648              		.loc 4 121 1
 9649              		.cfi_startproc
 9650              		.cfi_personality 0x9b,DW.ref.__gxx_personality_v0
 9651              		.cfi_lsda 0x1b,.LLSDA1433
 9652 0000 F30F1EFA 		endbr64
 9653 0004 55       		pushq	%rbp
 9654              		.cfi_def_cfa_offset 16
 9655              		.cfi_offset 6, -16
 9656 0005 4889E5   		movq	%rsp, %rbp
 9657              		.cfi_def_cfa_register 6
 9658 0008 53       		pushq	%rbx
 9659 0009 4883EC18 		subq	$24, %rsp
 9660              		.cfi_offset 3, -24
 9661 000d 48897DE8 		movq	%rdi, -24(%rbp)
 121:testHexIO.cpp **** 	Buffer data;
 9662              		.loc 4 121 1
 9663 0011 488B45E8 		movq	-24(%rbp), %rax
 9664 0015 4889C7   		movq	%rax, %rdi
 9665              	.LEHB308:
 9666 0018 E8000000 		call	_ZN25TestHexIO_testJunkRecTypeD1Ev
 9666      00
 9667              	.LEHE308:
 121:testHexIO.cpp **** 	Buffer data;
 9668              		.loc 4 121 1 is_stmt 0 discriminator 2
 9669 001d 488B45E8 		movq	-24(%rbp), %rax
 9670 0021 4889C7   		movq	%rax, %rdi
 9671 0024 E8000000 		call	_ZdlPv@PLT
 9671      00
 9672 0029 EB1E     		jmp	.L463
 9673              	.L462:
 9674 002b F30F1EFA 		endbr64
 121:testHexIO.cpp **** 	Buffer data;
 9675              		.loc 4 121 1
 9676 002f 4889C3   		movq	%rax, %rbx
 9677 0032 488B45E8 		movq	-24(%rbp), %rax
 9678 0036 4889C7   		movq	%rax, %rdi
 9679 0039 E8000000 		call	_ZdlPv@PLT
 9679      00
 9680 003e 4889D8   		movq	%rbx, %rax
 9681 0041 4889C7   		movq	%rax, %rdi
 9682              	.LEHB309:
 9683 0044 E8000000 		call	_Unwind_Resume@PLT
 9683      00
 9684              	.LEHE309:
 9685              	.L463:
 9686 0049 488B5DF8 		movq	-8(%rbp), %rbx
 9687 004d C9       		leave
 9688              		.cfi_def_cfa 7, 8
 9689 004e C3       		ret
 9690              		.cfi_endproc
 9691              	.LFE1433:
 9692              		.section	.gcc_except_table
 9693              	.LLSDA1433:
 9694 072e FF       		.byte	0xff
 9695 072f FF       		.byte	0xff
 9696 0730 01       		.byte	0x1
 9697 0731 08       		.uleb128 .LLSDACSE1433-.LLSDACSB1433
 9698              	.LLSDACSB1433:
 9699 0732 18       		.uleb128 .LEHB308-.LFB1433
 9700 0733 05       		.uleb128 .LEHE308-.LEHB308
 9701 0734 2B       		.uleb128 .L462-.LFB1433
 9702 0735 00       		.uleb128 0
 9703 0736 44       		.uleb128 .LEHB309-.LFB1433
 9704 0737 05       		.uleb128 .LEHE309-.LEHB309
 9705 0738 00       		.uleb128 0
 9706 0739 00       		.uleb128 0
 9707              	.LLSDACSE1433:
 9708              		.section	.text._ZN25TestHexIO_testJunkRecTypeD0Ev,"axG",@progbits,_ZN25TestHexIO_testJunkRecTypeD5
 9710              		.weak	_ZTV25TestHexIO_testJunkAddrLsb
 9711              		.section	.data.rel.ro.local._ZTV25TestHexIO_testJunkAddrLsb,"awG",@progbits,_ZTV25TestHexIO_testJu
 9712              		.align 8
 9715              	_ZTV25TestHexIO_testJunkAddrLsb:
 9716 0000 00000000 		.quad	0
 9716      00000000 
 9717 0008 00000000 		.quad	_ZTI25TestHexIO_testJunkAddrLsb
 9717      00000000 
 9718 0010 00000000 		.quad	_ZN25TestHexIO_testJunkAddrLsbD1Ev
 9718      00000000 
 9719 0018 00000000 		.quad	_ZN25TestHexIO_testJunkAddrLsbD0Ev
 9719      00000000 
 9720 0020 00000000 		.quad	_ZNK25TestHexIO_testJunkAddrLsb7RunImplEv
 9720      00000000 
 9721              		.section	.text._ZN25TestHexIO_testJunkAddrLsbD2Ev,"axG",@progbits,_ZN25TestHexIO_testJunkAddrLsbD5
 9722              		.align 2
 9723              		.weak	_ZN25TestHexIO_testJunkAddrLsbD2Ev
 9725              	_ZN25TestHexIO_testJunkAddrLsbD2Ev:
 9726              	.LFB1435:
 108:testHexIO.cpp **** 	Buffer data;
 9727              		.loc 4 108 1 is_stmt 1
 9728              		.cfi_startproc
 9729 0000 F30F1EFA 		endbr64
 9730 0004 55       		pushq	%rbp
 9731              		.cfi_def_cfa_offset 16
 9732              		.cfi_offset 6, -16
 9733 0005 4889E5   		movq	%rsp, %rbp
 9734              		.cfi_def_cfa_register 6
 9735 0008 4883EC10 		subq	$16, %rsp
 9736 000c 48897DF8 		movq	%rdi, -8(%rbp)
 9737              	.LBB75:
 108:testHexIO.cpp **** 	Buffer data;
 9738              		.loc 4 108 1
 9739 0010 488D1500 		leaq	16+_ZTV25TestHexIO_testJunkAddrLsb(%rip), %rdx
 9739      000000
 9740 0017 488B45F8 		movq	-8(%rbp), %rax
 9741 001b 488910   		movq	%rdx, (%rax)
 9742 001e 488B45F8 		movq	-8(%rbp), %rax
 9743 0022 4889C7   		movq	%rax, %rdi
 9744 0025 E8000000 		call	_ZN8UnitTest4TestD2Ev@PLT
 9744      00
 9745              	.LBE75:
 9746 002a 90       		nop
 9747 002b C9       		leave
 9748              		.cfi_def_cfa 7, 8
 9749 002c C3       		ret
 9750              		.cfi_endproc
 9751              	.LFE1435:
 9753              		.weak	_ZN25TestHexIO_testJunkAddrLsbD1Ev
 9754              		.set	_ZN25TestHexIO_testJunkAddrLsbD1Ev,_ZN25TestHexIO_testJunkAddrLsbD2Ev
 9755              		.section	.text._ZN25TestHexIO_testJunkAddrLsbD0Ev,"axG",@progbits,_ZN25TestHexIO_testJunkAddrLsbD5
 9756              		.align 2
 9757              		.weak	_ZN25TestHexIO_testJunkAddrLsbD0Ev
 9759              	_ZN25TestHexIO_testJunkAddrLsbD0Ev:
 9760              	.LFB1437:
 108:testHexIO.cpp **** 	Buffer data;
 9761              		.loc 4 108 1
 9762              		.cfi_startproc
 9763              		.cfi_personality 0x9b,DW.ref.__gxx_personality_v0
 9764              		.cfi_lsda 0x1b,.LLSDA1437
 9765 0000 F30F1EFA 		endbr64
 9766 0004 55       		pushq	%rbp
 9767              		.cfi_def_cfa_offset 16
 9768              		.cfi_offset 6, -16
 9769 0005 4889E5   		movq	%rsp, %rbp
 9770              		.cfi_def_cfa_register 6
 9771 0008 53       		pushq	%rbx
 9772 0009 4883EC18 		subq	$24, %rsp
 9773              		.cfi_offset 3, -24
 9774 000d 48897DE8 		movq	%rdi, -24(%rbp)
 108:testHexIO.cpp **** 	Buffer data;
 9775              		.loc 4 108 1
 9776 0011 488B45E8 		movq	-24(%rbp), %rax
 9777 0015 4889C7   		movq	%rax, %rdi
 9778              	.LEHB310:
 9779 0018 E8000000 		call	_ZN25TestHexIO_testJunkAddrLsbD1Ev
 9779      00
 9780              	.LEHE310:
 108:testHexIO.cpp **** 	Buffer data;
 9781              		.loc 4 108 1 is_stmt 0 discriminator 2
 9782 001d 488B45E8 		movq	-24(%rbp), %rax
 9783 0021 4889C7   		movq	%rax, %rdi
 9784 0024 E8000000 		call	_ZdlPv@PLT
 9784      00
 9785 0029 EB1E     		jmp	.L468
 9786              	.L467:
 9787 002b F30F1EFA 		endbr64
 108:testHexIO.cpp **** 	Buffer data;
 9788              		.loc 4 108 1
 9789 002f 4889C3   		movq	%rax, %rbx
 9790 0032 488B45E8 		movq	-24(%rbp), %rax
 9791 0036 4889C7   		movq	%rax, %rdi
 9792 0039 E8000000 		call	_ZdlPv@PLT
 9792      00
 9793 003e 4889D8   		movq	%rbx, %rax
 9794 0041 4889C7   		movq	%rax, %rdi
 9795              	.LEHB311:
 9796 0044 E8000000 		call	_Unwind_Resume@PLT
 9796      00
 9797              	.LEHE311:
 9798              	.L468:
 9799 0049 488B5DF8 		movq	-8(%rbp), %rbx
 9800 004d C9       		leave
 9801              		.cfi_def_cfa 7, 8
 9802 004e C3       		ret
 9803              		.cfi_endproc
 9804              	.LFE1437:
 9805              		.section	.gcc_except_table
 9806              	.LLSDA1437:
 9807 073a FF       		.byte	0xff
 9808 073b FF       		.byte	0xff
 9809 073c 01       		.byte	0x1
 9810 073d 08       		.uleb128 .LLSDACSE1437-.LLSDACSB1437
 9811              	.LLSDACSB1437:
 9812 073e 18       		.uleb128 .LEHB310-.LFB1437
 9813 073f 05       		.uleb128 .LEHE310-.LEHB310
 9814 0740 2B       		.uleb128 .L467-.LFB1437
 9815 0741 00       		.uleb128 0
 9816 0742 44       		.uleb128 .LEHB311-.LFB1437
 9817 0743 05       		.uleb128 .LEHE311-.LEHB311
 9818 0744 00       		.uleb128 0
 9819 0745 00       		.uleb128 0
 9820              	.LLSDACSE1437:
 9821              		.section	.text._ZN25TestHexIO_testJunkAddrLsbD0Ev,"axG",@progbits,_ZN25TestHexIO_testJunkAddrLsbD5
 9823              		.weak	_ZTV25TestHexIO_testJunkAddrMsb
 9824              		.section	.data.rel.ro.local._ZTV25TestHexIO_testJunkAddrMsb,"awG",@progbits,_ZTV25TestHexIO_testJu
 9825              		.align 8
 9828              	_ZTV25TestHexIO_testJunkAddrMsb:
 9829 0000 00000000 		.quad	0
 9829      00000000 
 9830 0008 00000000 		.quad	_ZTI25TestHexIO_testJunkAddrMsb
 9830      00000000 
 9831 0010 00000000 		.quad	_ZN25TestHexIO_testJunkAddrMsbD1Ev
 9831      00000000 
 9832 0018 00000000 		.quad	_ZN25TestHexIO_testJunkAddrMsbD0Ev
 9832      00000000 
 9833 0020 00000000 		.quad	_ZNK25TestHexIO_testJunkAddrMsb7RunImplEv
 9833      00000000 
 9834              		.section	.text._ZN25TestHexIO_testJunkAddrMsbD2Ev,"axG",@progbits,_ZN25TestHexIO_testJunkAddrMsbD5
 9835              		.align 2
 9836              		.weak	_ZN25TestHexIO_testJunkAddrMsbD2Ev
 9838              	_ZN25TestHexIO_testJunkAddrMsbD2Ev:
 9839              	.LFB1439:
  95:testHexIO.cpp **** 	Buffer data;
 9840              		.loc 4 95 1 is_stmt 1
 9841              		.cfi_startproc
 9842 0000 F30F1EFA 		endbr64
 9843 0004 55       		pushq	%rbp
 9844              		.cfi_def_cfa_offset 16
 9845              		.cfi_offset 6, -16
 9846 0005 4889E5   		movq	%rsp, %rbp
 9847              		.cfi_def_cfa_register 6
 9848 0008 4883EC10 		subq	$16, %rsp
 9849 000c 48897DF8 		movq	%rdi, -8(%rbp)
 9850              	.LBB76:
  95:testHexIO.cpp **** 	Buffer data;
 9851              		.loc 4 95 1
 9852 0010 488D1500 		leaq	16+_ZTV25TestHexIO_testJunkAddrMsb(%rip), %rdx
 9852      000000
 9853 0017 488B45F8 		movq	-8(%rbp), %rax
 9854 001b 488910   		movq	%rdx, (%rax)
 9855 001e 488B45F8 		movq	-8(%rbp), %rax
 9856 0022 4889C7   		movq	%rax, %rdi
 9857 0025 E8000000 		call	_ZN8UnitTest4TestD2Ev@PLT
 9857      00
 9858              	.LBE76:
 9859 002a 90       		nop
 9860 002b C9       		leave
 9861              		.cfi_def_cfa 7, 8
 9862 002c C3       		ret
 9863              		.cfi_endproc
 9864              	.LFE1439:
 9866              		.weak	_ZN25TestHexIO_testJunkAddrMsbD1Ev
 9867              		.set	_ZN25TestHexIO_testJunkAddrMsbD1Ev,_ZN25TestHexIO_testJunkAddrMsbD2Ev
 9868              		.section	.text._ZN25TestHexIO_testJunkAddrMsbD0Ev,"axG",@progbits,_ZN25TestHexIO_testJunkAddrMsbD5
 9869              		.align 2
 9870              		.weak	_ZN25TestHexIO_testJunkAddrMsbD0Ev
 9872              	_ZN25TestHexIO_testJunkAddrMsbD0Ev:
 9873              	.LFB1441:
  95:testHexIO.cpp **** 	Buffer data;
 9874              		.loc 4 95 1
 9875              		.cfi_startproc
 9876              		.cfi_personality 0x9b,DW.ref.__gxx_personality_v0
 9877              		.cfi_lsda 0x1b,.LLSDA1441
 9878 0000 F30F1EFA 		endbr64
 9879 0004 55       		pushq	%rbp
 9880              		.cfi_def_cfa_offset 16
 9881              		.cfi_offset 6, -16
 9882 0005 4889E5   		movq	%rsp, %rbp
 9883              		.cfi_def_cfa_register 6
 9884 0008 53       		pushq	%rbx
 9885 0009 4883EC18 		subq	$24, %rsp
 9886              		.cfi_offset 3, -24
 9887 000d 48897DE8 		movq	%rdi, -24(%rbp)
  95:testHexIO.cpp **** 	Buffer data;
 9888              		.loc 4 95 1
 9889 0011 488B45E8 		movq	-24(%rbp), %rax
 9890 0015 4889C7   		movq	%rax, %rdi
 9891              	.LEHB312:
 9892 0018 E8000000 		call	_ZN25TestHexIO_testJunkAddrMsbD1Ev
 9892      00
 9893              	.LEHE312:
  95:testHexIO.cpp **** 	Buffer data;
 9894              		.loc 4 95 1 is_stmt 0 discriminator 2
 9895 001d 488B45E8 		movq	-24(%rbp), %rax
 9896 0021 4889C7   		movq	%rax, %rdi
 9897 0024 E8000000 		call	_ZdlPv@PLT
 9897      00
 9898 0029 EB1E     		jmp	.L473
 9899              	.L472:
 9900 002b F30F1EFA 		endbr64
  95:testHexIO.cpp **** 	Buffer data;
 9901              		.loc 4 95 1
 9902 002f 4889C3   		movq	%rax, %rbx
 9903 0032 488B45E8 		movq	-24(%rbp), %rax
 9904 0036 4889C7   		movq	%rax, %rdi
 9905 0039 E8000000 		call	_ZdlPv@PLT
 9905      00
 9906 003e 4889D8   		movq	%rbx, %rax
 9907 0041 4889C7   		movq	%rax, %rdi
 9908              	.LEHB313:
 9909 0044 E8000000 		call	_Unwind_Resume@PLT
 9909      00
 9910              	.LEHE313:
 9911              	.L473:
 9912 0049 488B5DF8 		movq	-8(%rbp), %rbx
 9913 004d C9       		leave
 9914              		.cfi_def_cfa 7, 8
 9915 004e C3       		ret
 9916              		.cfi_endproc
 9917              	.LFE1441:
 9918              		.section	.gcc_except_table
 9919              	.LLSDA1441:
 9920 0746 FF       		.byte	0xff
 9921 0747 FF       		.byte	0xff
 9922 0748 01       		.byte	0x1
 9923 0749 08       		.uleb128 .LLSDACSE1441-.LLSDACSB1441
 9924              	.LLSDACSB1441:
 9925 074a 18       		.uleb128 .LEHB312-.LFB1441
 9926 074b 05       		.uleb128 .LEHE312-.LEHB312
 9927 074c 2B       		.uleb128 .L472-.LFB1441
 9928 074d 00       		.uleb128 0
 9929 074e 44       		.uleb128 .LEHB313-.LFB1441
 9930 074f 05       		.uleb128 .LEHE313-.LEHB313
 9931 0750 00       		.uleb128 0
 9932 0751 00       		.uleb128 0
 9933              	.LLSDACSE1441:
 9934              		.section	.text._ZN25TestHexIO_testJunkAddrMsbD0Ev,"axG",@progbits,_ZN25TestHexIO_testJunkAddrMsbD5
 9936              		.weak	_ZTV27TestHexIO_testJunkByteCount
 9937              		.section	.data.rel.ro.local._ZTV27TestHexIO_testJunkByteCount,"awG",@progbits,_ZTV27TestHexIO_test
 9938              		.align 8
 9941              	_ZTV27TestHexIO_testJunkByteCount:
 9942 0000 00000000 		.quad	0
 9942      00000000 
 9943 0008 00000000 		.quad	_ZTI27TestHexIO_testJunkByteCount
 9943      00000000 
 9944 0010 00000000 		.quad	_ZN27TestHexIO_testJunkByteCountD1Ev
 9944      00000000 
 9945 0018 00000000 		.quad	_ZN27TestHexIO_testJunkByteCountD0Ev
 9945      00000000 
 9946 0020 00000000 		.quad	_ZNK27TestHexIO_testJunkByteCount7RunImplEv
 9946      00000000 
 9947              		.section	.text._ZN27TestHexIO_testJunkByteCountD2Ev,"axG",@progbits,_ZN27TestHexIO_testJunkByteCou
 9948              		.align 2
 9949              		.weak	_ZN27TestHexIO_testJunkByteCountD2Ev
 9951              	_ZN27TestHexIO_testJunkByteCountD2Ev:
 9952              	.LFB1443:
  82:testHexIO.cpp **** 	Buffer data;
 9953              		.loc 4 82 1 is_stmt 1
 9954              		.cfi_startproc
 9955 0000 F30F1EFA 		endbr64
 9956 0004 55       		pushq	%rbp
 9957              		.cfi_def_cfa_offset 16
 9958              		.cfi_offset 6, -16
 9959 0005 4889E5   		movq	%rsp, %rbp
 9960              		.cfi_def_cfa_register 6
 9961 0008 4883EC10 		subq	$16, %rsp
 9962 000c 48897DF8 		movq	%rdi, -8(%rbp)
 9963              	.LBB77:
  82:testHexIO.cpp **** 	Buffer data;
 9964              		.loc 4 82 1
 9965 0010 488D1500 		leaq	16+_ZTV27TestHexIO_testJunkByteCount(%rip), %rdx
 9965      000000
 9966 0017 488B45F8 		movq	-8(%rbp), %rax
 9967 001b 488910   		movq	%rdx, (%rax)
 9968 001e 488B45F8 		movq	-8(%rbp), %rax
 9969 0022 4889C7   		movq	%rax, %rdi
 9970 0025 E8000000 		call	_ZN8UnitTest4TestD2Ev@PLT
 9970      00
 9971              	.LBE77:
 9972 002a 90       		nop
 9973 002b C9       		leave
 9974              		.cfi_def_cfa 7, 8
 9975 002c C3       		ret
 9976              		.cfi_endproc
 9977              	.LFE1443:
 9979              		.weak	_ZN27TestHexIO_testJunkByteCountD1Ev
 9980              		.set	_ZN27TestHexIO_testJunkByteCountD1Ev,_ZN27TestHexIO_testJunkByteCountD2Ev
 9981              		.section	.text._ZN27TestHexIO_testJunkByteCountD0Ev,"axG",@progbits,_ZN27TestHexIO_testJunkByteCou
 9982              		.align 2
 9983              		.weak	_ZN27TestHexIO_testJunkByteCountD0Ev
 9985              	_ZN27TestHexIO_testJunkByteCountD0Ev:
 9986              	.LFB1445:
  82:testHexIO.cpp **** 	Buffer data;
 9987              		.loc 4 82 1
 9988              		.cfi_startproc
 9989              		.cfi_personality 0x9b,DW.ref.__gxx_personality_v0
 9990              		.cfi_lsda 0x1b,.LLSDA1445
 9991 0000 F30F1EFA 		endbr64
 9992 0004 55       		pushq	%rbp
 9993              		.cfi_def_cfa_offset 16
 9994              		.cfi_offset 6, -16
 9995 0005 4889E5   		movq	%rsp, %rbp
 9996              		.cfi_def_cfa_register 6
 9997 0008 53       		pushq	%rbx
 9998 0009 4883EC18 		subq	$24, %rsp
 9999              		.cfi_offset 3, -24
 10000 000d 48897DE8 		movq	%rdi, -24(%rbp)
  82:testHexIO.cpp **** 	Buffer data;
 10001              		.loc 4 82 1
 10002 0011 488B45E8 		movq	-24(%rbp), %rax
 10003 0015 4889C7   		movq	%rax, %rdi
 10004              	.LEHB314:
 10005 0018 E8000000 		call	_ZN27TestHexIO_testJunkByteCountD1Ev
 10005      00
 10006              	.LEHE314:
  82:testHexIO.cpp **** 	Buffer data;
 10007              		.loc 4 82 1 is_stmt 0 discriminator 2
 10008 001d 488B45E8 		movq	-24(%rbp), %rax
 10009 0021 4889C7   		movq	%rax, %rdi
 10010 0024 E8000000 		call	_ZdlPv@PLT
 10010      00
 10011 0029 EB1E     		jmp	.L478
 10012              	.L477:
 10013 002b F30F1EFA 		endbr64
  82:testHexIO.cpp **** 	Buffer data;
 10014              		.loc 4 82 1
 10015 002f 4889C3   		movq	%rax, %rbx
 10016 0032 488B45E8 		movq	-24(%rbp), %rax
 10017 0036 4889C7   		movq	%rax, %rdi
 10018 0039 E8000000 		call	_ZdlPv@PLT
 10018      00
 10019 003e 4889D8   		movq	%rbx, %rax
 10020 0041 4889C7   		movq	%rax, %rdi
 10021              	.LEHB315:
 10022 0044 E8000000 		call	_Unwind_Resume@PLT
 10022      00
 10023              	.LEHE315:
 10024              	.L478:
 10025 0049 488B5DF8 		movq	-8(%rbp), %rbx
 10026 004d C9       		leave
 10027              		.cfi_def_cfa 7, 8
 10028 004e C3       		ret
 10029              		.cfi_endproc
 10030              	.LFE1445:
 10031              		.section	.gcc_except_table
 10032              	.LLSDA1445:
 10033 0752 FF       		.byte	0xff
 10034 0753 FF       		.byte	0xff
 10035 0754 01       		.byte	0x1
 10036 0755 08       		.uleb128 .LLSDACSE1445-.LLSDACSB1445
 10037              	.LLSDACSB1445:
 10038 0756 18       		.uleb128 .LEHB314-.LFB1445
 10039 0757 05       		.uleb128 .LEHE314-.LEHB314
 10040 0758 2B       		.uleb128 .L477-.LFB1445
 10041 0759 00       		.uleb128 0
 10042 075a 44       		.uleb128 .LEHB315-.LFB1445
 10043 075b 05       		.uleb128 .LEHE315-.LEHB315
 10044 075c 00       		.uleb128 0
 10045 075d 00       		.uleb128 0
 10046              	.LLSDACSE1445:
 10047              		.section	.text._ZN27TestHexIO_testJunkByteCountD0Ev,"axG",@progbits,_ZN27TestHexIO_testJunkByteCou
 10049              		.weak	_ZTV27TestHexIO_testJunkStartCode
 10050              		.section	.data.rel.ro.local._ZTV27TestHexIO_testJunkStartCode,"awG",@progbits,_ZTV27TestHexIO_test
 10051              		.align 8
 10054              	_ZTV27TestHexIO_testJunkStartCode:
 10055 0000 00000000 		.quad	0
 10055      00000000 
 10056 0008 00000000 		.quad	_ZTI27TestHexIO_testJunkStartCode
 10056      00000000 
 10057 0010 00000000 		.quad	_ZN27TestHexIO_testJunkStartCodeD1Ev
 10057      00000000 
 10058 0018 00000000 		.quad	_ZN27TestHexIO_testJunkStartCodeD0Ev
 10058      00000000 
 10059 0020 00000000 		.quad	_ZNK27TestHexIO_testJunkStartCode7RunImplEv
 10059      00000000 
 10060              		.section	.text._ZN27TestHexIO_testJunkStartCodeD2Ev,"axG",@progbits,_ZN27TestHexIO_testJunkStartCo
 10061              		.align 2
 10062              		.weak	_ZN27TestHexIO_testJunkStartCodeD2Ev
 10064              	_ZN27TestHexIO_testJunkStartCodeD2Ev:
 10065              	.LFB1447:
  69:testHexIO.cpp **** 	Buffer data;
 10066              		.loc 4 69 1 is_stmt 1
 10067              		.cfi_startproc
 10068 0000 F30F1EFA 		endbr64
 10069 0004 55       		pushq	%rbp
 10070              		.cfi_def_cfa_offset 16
 10071              		.cfi_offset 6, -16
 10072 0005 4889E5   		movq	%rsp, %rbp
 10073              		.cfi_def_cfa_register 6
 10074 0008 4883EC10 		subq	$16, %rsp
 10075 000c 48897DF8 		movq	%rdi, -8(%rbp)
 10076              	.LBB78:
  69:testHexIO.cpp **** 	Buffer data;
 10077              		.loc 4 69 1
 10078 0010 488D1500 		leaq	16+_ZTV27TestHexIO_testJunkStartCode(%rip), %rdx
 10078      000000
 10079 0017 488B45F8 		movq	-8(%rbp), %rax
 10080 001b 488910   		movq	%rdx, (%rax)
 10081 001e 488B45F8 		movq	-8(%rbp), %rax
 10082 0022 4889C7   		movq	%rax, %rdi
 10083 0025 E8000000 		call	_ZN8UnitTest4TestD2Ev@PLT
 10083      00
 10084              	.LBE78:
 10085 002a 90       		nop
 10086 002b C9       		leave
 10087              		.cfi_def_cfa 7, 8
 10088 002c C3       		ret
 10089              		.cfi_endproc
 10090              	.LFE1447:
 10092              		.weak	_ZN27TestHexIO_testJunkStartCodeD1Ev
 10093              		.set	_ZN27TestHexIO_testJunkStartCodeD1Ev,_ZN27TestHexIO_testJunkStartCodeD2Ev
 10094              		.section	.text._ZN27TestHexIO_testJunkStartCodeD0Ev,"axG",@progbits,_ZN27TestHexIO_testJunkStartCo
 10095              		.align 2
 10096              		.weak	_ZN27TestHexIO_testJunkStartCodeD0Ev
 10098              	_ZN27TestHexIO_testJunkStartCodeD0Ev:
 10099              	.LFB1449:
  69:testHexIO.cpp **** 	Buffer data;
 10100              		.loc 4 69 1
 10101              		.cfi_startproc
 10102              		.cfi_personality 0x9b,DW.ref.__gxx_personality_v0
 10103              		.cfi_lsda 0x1b,.LLSDA1449
 10104 0000 F30F1EFA 		endbr64
 10105 0004 55       		pushq	%rbp
 10106              		.cfi_def_cfa_offset 16
 10107              		.cfi_offset 6, -16
 10108 0005 4889E5   		movq	%rsp, %rbp
 10109              		.cfi_def_cfa_register 6
 10110 0008 53       		pushq	%rbx
 10111 0009 4883EC18 		subq	$24, %rsp
 10112              		.cfi_offset 3, -24
 10113 000d 48897DE8 		movq	%rdi, -24(%rbp)
  69:testHexIO.cpp **** 	Buffer data;
 10114              		.loc 4 69 1
 10115 0011 488B45E8 		movq	-24(%rbp), %rax
 10116 0015 4889C7   		movq	%rax, %rdi
 10117              	.LEHB316:
 10118 0018 E8000000 		call	_ZN27TestHexIO_testJunkStartCodeD1Ev
 10118      00
 10119              	.LEHE316:
  69:testHexIO.cpp **** 	Buffer data;
 10120              		.loc 4 69 1 is_stmt 0 discriminator 2
 10121 001d 488B45E8 		movq	-24(%rbp), %rax
 10122 0021 4889C7   		movq	%rax, %rdi
 10123 0024 E8000000 		call	_ZdlPv@PLT
 10123      00
 10124 0029 EB1E     		jmp	.L483
 10125              	.L482:
 10126 002b F30F1EFA 		endbr64
  69:testHexIO.cpp **** 	Buffer data;
 10127              		.loc 4 69 1
 10128 002f 4889C3   		movq	%rax, %rbx
 10129 0032 488B45E8 		movq	-24(%rbp), %rax
 10130 0036 4889C7   		movq	%rax, %rdi
 10131 0039 E8000000 		call	_ZdlPv@PLT
 10131      00
 10132 003e 4889D8   		movq	%rbx, %rax
 10133 0041 4889C7   		movq	%rax, %rdi
 10134              	.LEHB317:
 10135 0044 E8000000 		call	_Unwind_Resume@PLT
 10135      00
 10136              	.LEHE317:
 10137              	.L483:
 10138 0049 488B5DF8 		movq	-8(%rbp), %rbx
 10139 004d C9       		leave
 10140              		.cfi_def_cfa 7, 8
 10141 004e C3       		ret
 10142              		.cfi_endproc
 10143              	.LFE1449:
 10144              		.section	.gcc_except_table
 10145              	.LLSDA1449:
 10146 075e FF       		.byte	0xff
 10147 075f FF       		.byte	0xff
 10148 0760 01       		.byte	0x1
 10149 0761 08       		.uleb128 .LLSDACSE1449-.LLSDACSB1449
 10150              	.LLSDACSB1449:
 10151 0762 18       		.uleb128 .LEHB316-.LFB1449
 10152 0763 05       		.uleb128 .LEHE316-.LEHB316
 10153 0764 2B       		.uleb128 .L482-.LFB1449
 10154 0765 00       		.uleb128 0
 10155 0766 44       		.uleb128 .LEHB317-.LFB1449
 10156 0767 05       		.uleb128 .LEHE317-.LEHB317
 10157 0768 00       		.uleb128 0
 10158 0769 00       		.uleb128 0
 10159              	.LLSDACSE1449:
 10160              		.section	.text._ZN27TestHexIO_testJunkStartCodeD0Ev,"axG",@progbits,_ZN27TestHexIO_testJunkStartCo
 10162              		.weak	_ZTV22TestHexIO_testValidEOF
 10163              		.section	.data.rel.ro.local._ZTV22TestHexIO_testValidEOF,"awG",@progbits,_ZTV22TestHexIO_testValid
 10164              		.align 8
 10167              	_ZTV22TestHexIO_testValidEOF:
 10168 0000 00000000 		.quad	0
 10168      00000000 
 10169 0008 00000000 		.quad	_ZTI22TestHexIO_testValidEOF
 10169      00000000 
 10170 0010 00000000 		.quad	_ZN22TestHexIO_testValidEOFD1Ev
 10170      00000000 
 10171 0018 00000000 		.quad	_ZN22TestHexIO_testValidEOFD0Ev
 10171      00000000 
 10172 0020 00000000 		.quad	_ZNK22TestHexIO_testValidEOF7RunImplEv
 10172      00000000 
 10173              		.section	.text._ZN22TestHexIO_testValidEOFD2Ev,"axG",@progbits,_ZN22TestHexIO_testValidEOFD5Ev,com
 10174              		.align 2
 10175              		.weak	_ZN22TestHexIO_testValidEOFD2Ev
 10177              	_ZN22TestHexIO_testValidEOFD2Ev:
 10178              	.LFB1451:
  50:testHexIO.cpp **** 	Buffer data, mask;
 10179              		.loc 4 50 1 is_stmt 1
 10180              		.cfi_startproc
 10181 0000 F30F1EFA 		endbr64
 10182 0004 55       		pushq	%rbp
 10183              		.cfi_def_cfa_offset 16
 10184              		.cfi_offset 6, -16
 10185 0005 4889E5   		movq	%rsp, %rbp
 10186              		.cfi_def_cfa_register 6
 10187 0008 4883EC10 		subq	$16, %rsp
 10188 000c 48897DF8 		movq	%rdi, -8(%rbp)
 10189              	.LBB79:
  50:testHexIO.cpp **** 	Buffer data, mask;
 10190              		.loc 4 50 1
 10191 0010 488D1500 		leaq	16+_ZTV22TestHexIO_testValidEOF(%rip), %rdx
 10191      000000
 10192 0017 488B45F8 		movq	-8(%rbp), %rax
 10193 001b 488910   		movq	%rdx, (%rax)
 10194 001e 488B45F8 		movq	-8(%rbp), %rax
 10195 0022 4889C7   		movq	%rax, %rdi
 10196 0025 E8000000 		call	_ZN8UnitTest4TestD2Ev@PLT
 10196      00
 10197              	.LBE79:
 10198 002a 90       		nop
 10199 002b C9       		leave
 10200              		.cfi_def_cfa 7, 8
 10201 002c C3       		ret
 10202              		.cfi_endproc
 10203              	.LFE1451:
 10205              		.weak	_ZN22TestHexIO_testValidEOFD1Ev
 10206              		.set	_ZN22TestHexIO_testValidEOFD1Ev,_ZN22TestHexIO_testValidEOFD2Ev
 10207              		.section	.text._ZN22TestHexIO_testValidEOFD0Ev,"axG",@progbits,_ZN22TestHexIO_testValidEOFD5Ev,com
 10208              		.align 2
 10209              		.weak	_ZN22TestHexIO_testValidEOFD0Ev
 10211              	_ZN22TestHexIO_testValidEOFD0Ev:
 10212              	.LFB1453:
  50:testHexIO.cpp **** 	Buffer data, mask;
 10213              		.loc 4 50 1
 10214              		.cfi_startproc
 10215              		.cfi_personality 0x9b,DW.ref.__gxx_personality_v0
 10216              		.cfi_lsda 0x1b,.LLSDA1453
 10217 0000 F30F1EFA 		endbr64
 10218 0004 55       		pushq	%rbp
 10219              		.cfi_def_cfa_offset 16
 10220              		.cfi_offset 6, -16
 10221 0005 4889E5   		movq	%rsp, %rbp
 10222              		.cfi_def_cfa_register 6
 10223 0008 53       		pushq	%rbx
 10224 0009 4883EC18 		subq	$24, %rsp
 10225              		.cfi_offset 3, -24
 10226 000d 48897DE8 		movq	%rdi, -24(%rbp)
  50:testHexIO.cpp **** 	Buffer data, mask;
 10227              		.loc 4 50 1
 10228 0011 488B45E8 		movq	-24(%rbp), %rax
 10229 0015 4889C7   		movq	%rax, %rdi
 10230              	.LEHB318:
 10231 0018 E8000000 		call	_ZN22TestHexIO_testValidEOFD1Ev
 10231      00
 10232              	.LEHE318:
  50:testHexIO.cpp **** 	Buffer data, mask;
 10233              		.loc 4 50 1 is_stmt 0 discriminator 2
 10234 001d 488B45E8 		movq	-24(%rbp), %rax
 10235 0021 4889C7   		movq	%rax, %rdi
 10236 0024 E8000000 		call	_ZdlPv@PLT
 10236      00
 10237 0029 EB1E     		jmp	.L488
 10238              	.L487:
 10239 002b F30F1EFA 		endbr64
  50:testHexIO.cpp **** 	Buffer data, mask;
 10240              		.loc 4 50 1
 10241 002f 4889C3   		movq	%rax, %rbx
 10242 0032 488B45E8 		movq	-24(%rbp), %rax
 10243 0036 4889C7   		movq	%rax, %rdi
 10244 0039 E8000000 		call	_ZdlPv@PLT
 10244      00
 10245 003e 4889D8   		movq	%rbx, %rax
 10246 0041 4889C7   		movq	%rax, %rdi
 10247              	.LEHB319:
 10248 0044 E8000000 		call	_Unwind_Resume@PLT
 10248      00
 10249              	.LEHE319:
 10250              	.L488:
 10251 0049 488B5DF8 		movq	-8(%rbp), %rbx
 10252 004d C9       		leave
 10253              		.cfi_def_cfa 7, 8
 10254 004e C3       		ret
 10255              		.cfi_endproc
 10256              	.LFE1453:
 10257              		.section	.gcc_except_table
 10258              	.LLSDA1453:
 10259 076a FF       		.byte	0xff
 10260 076b FF       		.byte	0xff
 10261 076c 01       		.byte	0x1
 10262 076d 08       		.uleb128 .LLSDACSE1453-.LLSDACSB1453
 10263              	.LLSDACSB1453:
 10264 076e 18       		.uleb128 .LEHB318-.LFB1453
 10265 076f 05       		.uleb128 .LEHE318-.LEHB318
 10266 0770 2B       		.uleb128 .L487-.LFB1453
 10267 0771 00       		.uleb128 0
 10268 0772 44       		.uleb128 .LEHB319-.LFB1453
 10269 0773 05       		.uleb128 .LEHE319-.LEHB319
 10270 0774 00       		.uleb128 0
 10271 0775 00       		.uleb128 0
 10272              	.LLSDACSE1453:
 10273              		.section	.text._ZN22TestHexIO_testValidEOFD0Ev,"axG",@progbits,_ZN22TestHexIO_testValidEOFD5Ev,com
 10275              		.weak	_ZTV27TestHexIO_testValidDataLine
 10276              		.section	.data.rel.ro.local._ZTV27TestHexIO_testValidDataLine,"awG",@progbits,_ZTV27TestHexIO_test
 10277              		.align 8
 10280              	_ZTV27TestHexIO_testValidDataLine:
 10281 0000 00000000 		.quad	0
 10281      00000000 
 10282 0008 00000000 		.quad	_ZTI27TestHexIO_testValidDataLine
 10282      00000000 
 10283 0010 00000000 		.quad	_ZN27TestHexIO_testValidDataLineD1Ev
 10283      00000000 
 10284 0018 00000000 		.quad	_ZN27TestHexIO_testValidDataLineD0Ev
 10284      00000000 
 10285 0020 00000000 		.quad	_ZNK27TestHexIO_testValidDataLine7RunImplEv
 10285      00000000 
 10286              		.section	.text._ZN27TestHexIO_testValidDataLineD2Ev,"axG",@progbits,_ZN27TestHexIO_testValidDataLi
 10287              		.align 2
 10288              		.weak	_ZN27TestHexIO_testValidDataLineD2Ev
 10290              	_ZN27TestHexIO_testValidDataLineD2Ev:
 10291              	.LFB1455:
  27:testHexIO.cpp **** 	Buffer data, mask;
 10292              		.loc 4 27 1 is_stmt 1
 10293              		.cfi_startproc
 10294 0000 F30F1EFA 		endbr64
 10295 0004 55       		pushq	%rbp
 10296              		.cfi_def_cfa_offset 16
 10297              		.cfi_offset 6, -16
 10298 0005 4889E5   		movq	%rsp, %rbp
 10299              		.cfi_def_cfa_register 6
 10300 0008 4883EC10 		subq	$16, %rsp
 10301 000c 48897DF8 		movq	%rdi, -8(%rbp)
 10302              	.LBB80:
  27:testHexIO.cpp **** 	Buffer data, mask;
 10303              		.loc 4 27 1
 10304 0010 488D1500 		leaq	16+_ZTV27TestHexIO_testValidDataLine(%rip), %rdx
 10304      000000
 10305 0017 488B45F8 		movq	-8(%rbp), %rax
 10306 001b 488910   		movq	%rdx, (%rax)
 10307 001e 488B45F8 		movq	-8(%rbp), %rax
 10308 0022 4889C7   		movq	%rax, %rdi
 10309 0025 E8000000 		call	_ZN8UnitTest4TestD2Ev@PLT
 10309      00
 10310              	.LBE80:
 10311 002a 90       		nop
 10312 002b C9       		leave
 10313              		.cfi_def_cfa 7, 8
 10314 002c C3       		ret
 10315              		.cfi_endproc
 10316              	.LFE1455:
 10318              		.weak	_ZN27TestHexIO_testValidDataLineD1Ev
 10319              		.set	_ZN27TestHexIO_testValidDataLineD1Ev,_ZN27TestHexIO_testValidDataLineD2Ev
 10320              		.section	.text._ZN27TestHexIO_testValidDataLineD0Ev,"axG",@progbits,_ZN27TestHexIO_testValidDataLi
 10321              		.align 2
 10322              		.weak	_ZN27TestHexIO_testValidDataLineD0Ev
 10324              	_ZN27TestHexIO_testValidDataLineD0Ev:
 10325              	.LFB1457:
  27:testHexIO.cpp **** 	Buffer data, mask;
 10326              		.loc 4 27 1
 10327              		.cfi_startproc
 10328              		.cfi_personality 0x9b,DW.ref.__gxx_personality_v0
 10329              		.cfi_lsda 0x1b,.LLSDA1457
 10330 0000 F30F1EFA 		endbr64
 10331 0004 55       		pushq	%rbp
 10332              		.cfi_def_cfa_offset 16
 10333              		.cfi_offset 6, -16
 10334 0005 4889E5   		movq	%rsp, %rbp
 10335              		.cfi_def_cfa_register 6
 10336 0008 53       		pushq	%rbx
 10337 0009 4883EC18 		subq	$24, %rsp
 10338              		.cfi_offset 3, -24
 10339 000d 48897DE8 		movq	%rdi, -24(%rbp)
  27:testHexIO.cpp **** 	Buffer data, mask;
 10340              		.loc 4 27 1
 10341 0011 488B45E8 		movq	-24(%rbp), %rax
 10342 0015 4889C7   		movq	%rax, %rdi
 10343              	.LEHB320:
 10344 0018 E8000000 		call	_ZN27TestHexIO_testValidDataLineD1Ev
 10344      00
 10345              	.LEHE320:
  27:testHexIO.cpp **** 	Buffer data, mask;
 10346              		.loc 4 27 1 is_stmt 0 discriminator 2
 10347 001d 488B45E8 		movq	-24(%rbp), %rax
 10348 0021 4889C7   		movq	%rax, %rdi
 10349 0024 E8000000 		call	_ZdlPv@PLT
 10349      00
 10350 0029 EB1E     		jmp	.L493
 10351              	.L492:
 10352 002b F30F1EFA 		endbr64
  27:testHexIO.cpp **** 	Buffer data, mask;
 10353              		.loc 4 27 1
 10354 002f 4889C3   		movq	%rax, %rbx
 10355 0032 488B45E8 		movq	-24(%rbp), %rax
 10356 0036 4889C7   		movq	%rax, %rdi
 10357 0039 E8000000 		call	_ZdlPv@PLT
 10357      00
 10358 003e 4889D8   		movq	%rbx, %rax
 10359 0041 4889C7   		movq	%rax, %rdi
 10360              	.LEHB321:
 10361 0044 E8000000 		call	_Unwind_Resume@PLT
 10361      00
 10362              	.LEHE321:
 10363              	.L493:
 10364 0049 488B5DF8 		movq	-8(%rbp), %rbx
 10365 004d C9       		leave
 10366              		.cfi_def_cfa 7, 8
 10367 004e C3       		ret
 10368              		.cfi_endproc
 10369              	.LFE1457:
 10370              		.section	.gcc_except_table
 10371              	.LLSDA1457:
 10372 0776 FF       		.byte	0xff
 10373 0777 FF       		.byte	0xff
 10374 0778 01       		.byte	0x1
 10375 0779 08       		.uleb128 .LLSDACSE1457-.LLSDACSB1457
 10376              	.LLSDACSB1457:
 10377 077a 18       		.uleb128 .LEHB320-.LFB1457
 10378 077b 05       		.uleb128 .LEHE320-.LEHB320
 10379 077c 2B       		.uleb128 .L492-.LFB1457
 10380 077d 00       		.uleb128 0
 10381 077e 44       		.uleb128 .LEHB321-.LFB1457
 10382 077f 05       		.uleb128 .LEHE321-.LEHB321
 10383 0780 00       		.uleb128 0
 10384 0781 00       		.uleb128 0
 10385              	.LLSDACSE1457:
 10386              		.section	.text._ZN27TestHexIO_testValidDataLineD0Ev,"axG",@progbits,_ZN27TestHexIO_testValidDataLi
 10388              		.weak	_ZTVN8UnitTest15MemoryOutStreamE
 10389              		.section	.data.rel.ro.local._ZTVN8UnitTest15MemoryOutStreamE,"awG",@progbits,_ZTVN8UnitTest15Memor
 10390              		.align 8
 10393              	_ZTVN8UnitTest15MemoryOutStreamE:
 10394 0000 90000000 		.quad	144
 10394      00000000 
 10395 0008 00000000 		.quad	0
 10395      00000000 
 10396 0010 00000000 		.quad	_ZTIN8UnitTest15MemoryOutStreamE
 10396      00000000 
 10397 0018 00000000 		.quad	_ZN8UnitTest15MemoryOutStreamD1Ev
 10397      00000000 
 10398 0020 00000000 		.quad	_ZN8UnitTest15MemoryOutStreamD0Ev
 10398      00000000 
 10399 0028 70FFFFFF 		.quad	-144
 10399      FFFFFFFF 
 10400 0030 70FFFFFF 		.quad	-144
 10400      FFFFFFFF 
 10401 0038 00000000 		.quad	_ZTIN8UnitTest15MemoryOutStreamE
 10401      00000000 
 10402 0040 00000000 		.quad	_ZTv0_n24_N8UnitTest15MemoryOutStreamD1Ev
 10402      00000000 
 10403 0048 00000000 		.quad	_ZTv0_n24_N8UnitTest15MemoryOutStreamD0Ev
 10403      00000000 
 10404              		.weak	_ZTTN8UnitTest15MemoryOutStreamE
 10405              		.section	.data.rel.ro.local._ZTTN8UnitTest15MemoryOutStreamE,"awG",@progbits,_ZTVN8UnitTest15Memor
 10406              		.align 8
 10409              	_ZTTN8UnitTest15MemoryOutStreamE:
 10410 0000 00000000 		.quad	_ZTVN8UnitTest15MemoryOutStreamE+24
 10410      00000000 
 10411 0008 00000000 		.quad	_ZTCN8UnitTest15MemoryOutStreamE0_NSt7__cxx1119basic_ostringstreamIcSt11char_traitsIcESaIcEE
 10411      00000000 
 10412 0010 00000000 		.quad	_ZTCN8UnitTest15MemoryOutStreamE0_So+24
 10412      00000000 
 10413 0018 00000000 		.quad	_ZTCN8UnitTest15MemoryOutStreamE0_So+64
 10413      00000000 
 10414 0020 00000000 		.quad	_ZTCN8UnitTest15MemoryOutStreamE0_NSt7__cxx1119basic_ostringstreamIcSt11char_traitsIcESaIcEE
 10414      00000000 
 10415 0028 00000000 		.quad	_ZTVN8UnitTest15MemoryOutStreamE+64
 10415      00000000 
 10416              		.hidden	_ZTCN8UnitTest15MemoryOutStreamE0_NSt7__cxx1119basic_ostringstreamIcSt11char_traitsIcESaIc
 10417              		.weak	_ZTCN8UnitTest15MemoryOutStreamE0_NSt7__cxx1119basic_ostringstreamIcSt11char_traitsIcESaIcEE
 10418              		.section	.data.rel.ro._ZTCN8UnitTest15MemoryOutStreamE0_NSt7__cxx1119basic_ostringstreamIcSt11char
 10419              		.align 8
 10422              	_ZTCN8UnitTest15MemoryOutStreamE0_NSt7__cxx1119basic_ostringstreamIcSt11char_traitsIcESaIcEEE:
 10423 0000 90000000 		.quad	144
 10423      00000000 
 10424 0008 00000000 		.quad	0
 10424      00000000 
 10425 0010 00000000 		.quad	_ZTINSt7__cxx1119basic_ostringstreamIcSt11char_traitsIcESaIcEEE
 10425      00000000 
 10426 0018 00000000 		.quad	0
 10426      00000000 
 10427 0020 00000000 		.quad	0
 10427      00000000 
 10428 0028 70FFFFFF 		.quad	-144
 10428      FFFFFFFF 
 10429 0030 70FFFFFF 		.quad	-144
 10429      FFFFFFFF 
 10430 0038 00000000 		.quad	_ZTINSt7__cxx1119basic_ostringstreamIcSt11char_traitsIcESaIcEEE
 10430      00000000 
 10431 0040 00000000 		.quad	0
 10431      00000000 
 10432 0048 00000000 		.quad	0
 10432      00000000 
 10433              		.hidden	_ZTCN8UnitTest15MemoryOutStreamE0_So
 10434              		.weak	_ZTCN8UnitTest15MemoryOutStreamE0_So
 10435              		.section	.data.rel.ro._ZTCN8UnitTest15MemoryOutStreamE0_So,"awG",@progbits,_ZTVN8UnitTest15MemoryO
 10436              		.align 8
 10439              	_ZTCN8UnitTest15MemoryOutStreamE0_So:
 10440 0000 90000000 		.quad	144
 10440      00000000 
 10441 0008 00000000 		.quad	0
 10441      00000000 
 10442 0010 00000000 		.quad	_ZTISo
 10442      00000000 
 10443 0018 00000000 		.quad	0
 10443      00000000 
 10444 0020 00000000 		.quad	0
 10444      00000000 
 10445 0028 70FFFFFF 		.quad	-144
 10445      FFFFFFFF 
 10446 0030 70FFFFFF 		.quad	-144
 10446      FFFFFFFF 
 10447 0038 00000000 		.quad	_ZTISo
 10447      00000000 
 10448 0040 00000000 		.quad	0
 10448      00000000 
 10449 0048 00000000 		.quad	0
 10449      00000000 
 10450              		.weak	_ZTI28TestHexIO_testDeriveWriteMap
 10451              		.section	.data.rel.ro._ZTI28TestHexIO_testDeriveWriteMap,"awG",@progbits,_ZTI28TestHexIO_testDeriv
 10452              		.align 8
 10455              	_ZTI28TestHexIO_testDeriveWriteMap:
 10456 0000 00000000 		.quad	_ZTVN10__cxxabiv120__si_class_type_infoE+16
 10456      00000000 
 10457 0008 00000000 		.quad	_ZTS28TestHexIO_testDeriveWriteMap
 10457      00000000 
 10458 0010 00000000 		.quad	_ZTIN8UnitTest4TestE
 10458      00000000 
 10459              		.weak	_ZTS28TestHexIO_testDeriveWriteMap
 10460              		.section	.rodata._ZTS28TestHexIO_testDeriveWriteMap,"aG",@progbits,_ZTS28TestHexIO_testDeriveWrite
 10461              		.align 16
 10464              	_ZTS28TestHexIO_testDeriveWriteMap:
 10465 0000 32385465 		.string	"28TestHexIO_testDeriveWriteMap"
 10465      73744865 
 10465      78494F5F 
 10465      74657374 
 10465      44657269 
 10466              		.weak	_ZTI23TestHexIO_testRoundTrip
 10467              		.section	.data.rel.ro._ZTI23TestHexIO_testRoundTrip,"awG",@progbits,_ZTI23TestHexIO_testRoundTrip,
 10468              		.align 8
 10471              	_ZTI23TestHexIO_testRoundTrip:
 10472 0000 00000000 		.quad	_ZTVN10__cxxabiv120__si_class_type_infoE+16
 10472      00000000 
 10473 0008 00000000 		.quad	_ZTS23TestHexIO_testRoundTrip
 10473      00000000 
 10474 0010 00000000 		.quad	_ZTIN8UnitTest4TestE
 10474      00000000 
 10475              		.weak	_ZTS23TestHexIO_testRoundTrip
 10476              		.section	.rodata._ZTS23TestHexIO_testRoundTrip,"aG",@progbits,_ZTS23TestHexIO_testRoundTrip,comdat
 10477              		.align 16
 10480              	_ZTS23TestHexIO_testRoundTrip:
 10481 0000 32335465 		.string	"23TestHexIO_testRoundTrip"
 10481      73744865 
 10481      78494F5F 
 10481      74657374 
 10481      526F756E 
 10482              		.weak	_ZTI25TestHexIO_testCorruptLine
 10483              		.section	.data.rel.ro._ZTI25TestHexIO_testCorruptLine,"awG",@progbits,_ZTI25TestHexIO_testCorruptL
 10484              		.align 8
 10487              	_ZTI25TestHexIO_testCorruptLine:
 10488 0000 00000000 		.quad	_ZTVN10__cxxabiv120__si_class_type_infoE+16
 10488      00000000 
 10489 0008 00000000 		.quad	_ZTS25TestHexIO_testCorruptLine
 10489      00000000 
 10490 0010 00000000 		.quad	_ZTIN8UnitTest4TestE
 10490      00000000 
 10491              		.weak	_ZTS25TestHexIO_testCorruptLine
 10492              		.section	.rodata._ZTS25TestHexIO_testCorruptLine,"aG",@progbits,_ZTS25TestHexIO_testCorruptLine,co
 10493              		.align 16
 10496              	_ZTS25TestHexIO_testCorruptLine:
 10497 0000 32355465 		.string	"25TestHexIO_testCorruptLine"
 10497      73744865 
 10497      78494F5F 
 10497      74657374 
 10497      436F7272 
 10498              		.weak	_ZTI25TestHexIO_testBadChecksum
 10499              		.section	.data.rel.ro._ZTI25TestHexIO_testBadChecksum,"awG",@progbits,_ZTI25TestHexIO_testBadCheck
 10500              		.align 8
 10503              	_ZTI25TestHexIO_testBadChecksum:
 10504 0000 00000000 		.quad	_ZTVN10__cxxabiv120__si_class_type_infoE+16
 10504      00000000 
 10505 0008 00000000 		.quad	_ZTS25TestHexIO_testBadChecksum
 10505      00000000 
 10506 0010 00000000 		.quad	_ZTIN8UnitTest4TestE
 10506      00000000 
 10507              		.weak	_ZTS25TestHexIO_testBadChecksum
 10508              		.section	.rodata._ZTS25TestHexIO_testBadChecksum,"aG",@progbits,_ZTS25TestHexIO_testBadChecksum,co
 10509              		.align 16
 10512              	_ZTS25TestHexIO_testBadChecksum:
 10513 0000 32355465 		.string	"25TestHexIO_testBadChecksum"
 10513      73744865 
 10513      78494F5F 
 10513      74657374 
 10513      42616443 
 10514              		.weak	_ZTI26TestHexIO_testJunkChecksum
 10515              		.section	.data.rel.ro._ZTI26TestHexIO_testJunkChecksum,"awG",@progbits,_ZTI26TestHexIO_testJunkChe
 10516              		.align 8
 10519              	_ZTI26TestHexIO_testJunkChecksum:
 10520 0000 00000000 		.quad	_ZTVN10__cxxabiv120__si_class_type_infoE+16
 10520      00000000 
 10521 0008 00000000 		.quad	_ZTS26TestHexIO_testJunkChecksum
 10521      00000000 
 10522 0010 00000000 		.quad	_ZTIN8UnitTest4TestE
 10522      00000000 
 10523              		.weak	_ZTS26TestHexIO_testJunkChecksum
 10524              		.section	.rodata._ZTS26TestHexIO_testJunkChecksum,"aG",@progbits,_ZTS26TestHexIO_testJunkChecksum,
 10525              		.align 16
 10528              	_ZTS26TestHexIO_testJunkChecksum:
 10529 0000 32365465 		.string	"26TestHexIO_testJunkChecksum"
 10529      73744865 
 10529      78494F5F 
 10529      74657374 
 10529      4A756E6B 
 10530              		.weak	_ZTI26TestHexIO_testJunkDataByte
 10531              		.section	.data.rel.ro._ZTI26TestHexIO_testJunkDataByte,"awG",@progbits,_ZTI26TestHexIO_testJunkDat
 10532              		.align 8
 10535              	_ZTI26TestHexIO_testJunkDataByte:
 10536 0000 00000000 		.quad	_ZTVN10__cxxabiv120__si_class_type_infoE+16
 10536      00000000 
 10537 0008 00000000 		.quad	_ZTS26TestHexIO_testJunkDataByte
 10537      00000000 
 10538 0010 00000000 		.quad	_ZTIN8UnitTest4TestE
 10538      00000000 
 10539              		.weak	_ZTS26TestHexIO_testJunkDataByte
 10540              		.section	.rodata._ZTS26TestHexIO_testJunkDataByte,"aG",@progbits,_ZTS26TestHexIO_testJunkDataByte,
 10541              		.align 16
 10544              	_ZTS26TestHexIO_testJunkDataByte:
 10545 0000 32365465 		.string	"26TestHexIO_testJunkDataByte"
 10545      73744865 
 10545      78494F5F 
 10545      74657374 
 10545      4A756E6B 
 10546              		.weak	_ZTI25TestHexIO_testJunkRecType
 10547              		.section	.data.rel.ro._ZTI25TestHexIO_testJunkRecType,"awG",@progbits,_ZTI25TestHexIO_testJunkRecT
 10548              		.align 8
 10551              	_ZTI25TestHexIO_testJunkRecType:
 10552 0000 00000000 		.quad	_ZTVN10__cxxabiv120__si_class_type_infoE+16
 10552      00000000 
 10553 0008 00000000 		.quad	_ZTS25TestHexIO_testJunkRecType
 10553      00000000 
 10554 0010 00000000 		.quad	_ZTIN8UnitTest4TestE
 10554      00000000 
 10555              		.weak	_ZTS25TestHexIO_testJunkRecType
 10556              		.section	.rodata._ZTS25TestHexIO_testJunkRecType,"aG",@progbits,_ZTS25TestHexIO_testJunkRecType,co
 10557              		.align 16
 10560              	_ZTS25TestHexIO_testJunkRecType:
 10561 0000 32355465 		.string	"25TestHexIO_testJunkRecType"
 10561      73744865 
 10561      78494F5F 
 10561      74657374 
 10561      4A756E6B 
 10562              		.weak	_ZTI25TestHexIO_testJunkAddrLsb
 10563              		.section	.data.rel.ro._ZTI25TestHexIO_testJunkAddrLsb,"awG",@progbits,_ZTI25TestHexIO_testJunkAddr
 10564              		.align 8
 10567              	_ZTI25TestHexIO_testJunkAddrLsb:
 10568 0000 00000000 		.quad	_ZTVN10__cxxabiv120__si_class_type_infoE+16
 10568      00000000 
 10569 0008 00000000 		.quad	_ZTS25TestHexIO_testJunkAddrLsb
 10569      00000000 
 10570 0010 00000000 		.quad	_ZTIN8UnitTest4TestE
 10570      00000000 
 10571              		.weak	_ZTS25TestHexIO_testJunkAddrLsb
 10572              		.section	.rodata._ZTS25TestHexIO_testJunkAddrLsb,"aG",@progbits,_ZTS25TestHexIO_testJunkAddrLsb,co
 10573              		.align 16
 10576              	_ZTS25TestHexIO_testJunkAddrLsb:
 10577 0000 32355465 		.string	"25TestHexIO_testJunkAddrLsb"
 10577      73744865 
 10577      78494F5F 
 10577      74657374 
 10577      4A756E6B 
 10578              		.weak	_ZTI25TestHexIO_testJunkAddrMsb
 10579              		.section	.data.rel.ro._ZTI25TestHexIO_testJunkAddrMsb,"awG",@progbits,_ZTI25TestHexIO_testJunkAddr
 10580              		.align 8
 10583              	_ZTI25TestHexIO_testJunkAddrMsb:
 10584 0000 00000000 		.quad	_ZTVN10__cxxabiv120__si_class_type_infoE+16
 10584      00000000 
 10585 0008 00000000 		.quad	_ZTS25TestHexIO_testJunkAddrMsb
 10585      00000000 
 10586 0010 00000000 		.quad	_ZTIN8UnitTest4TestE
 10586      00000000 
 10587              		.weak	_ZTS25TestHexIO_testJunkAddrMsb
 10588              		.section	.rodata._ZTS25TestHexIO_testJunkAddrMsb,"aG",@progbits,_ZTS25TestHexIO_testJunkAddrMsb,co
 10589              		.align 16
 10592              	_ZTS25TestHexIO_testJunkAddrMsb:
 10593 0000 32355465 		.string	"25TestHexIO_testJunkAddrMsb"
 10593      73744865 
 10593      78494F5F 
 10593      74657374 
 10593      4A756E6B 
 10594              		.weak	_ZTI27TestHexIO_testJunkByteCount
 10595              		.section	.data.rel.ro._ZTI27TestHexIO_testJunkByteCount,"awG",@progbits,_ZTI27TestHexIO_testJunkBy
 10596              		.align 8
 10599              	_ZTI27TestHexIO_testJunkByteCount:
 10600 0000 00000000 		.quad	_ZTVN10__cxxabiv120__si_class_type_infoE+16
 10600      00000000 
 10601 0008 00000000 		.quad	_ZTS27TestHexIO_testJunkByteCount
 10601      00000000 
 10602 0010 00000000 		.quad	_ZTIN8UnitTest4TestE
 10602      00000000 
 10603              		.weak	_ZTS27TestHexIO_testJunkByteCount
 10604              		.section	.rodata._ZTS27TestHexIO_testJunkByteCount,"aG",@progbits,_ZTS27TestHexIO_testJunkByteCoun
 10605              		.align 16
 10608              	_ZTS27TestHexIO_testJunkByteCount:
 10609 0000 32375465 		.string	"27TestHexIO_testJunkByteCount"
 10609      73744865 
 10609      78494F5F 
 10609      74657374 
 10609      4A756E6B 
 10610              		.weak	_ZTI27TestHexIO_testJunkStartCode
 10611              		.section	.data.rel.ro._ZTI27TestHexIO_testJunkStartCode,"awG",@progbits,_ZTI27TestHexIO_testJunkSt
 10612              		.align 8
 10615              	_ZTI27TestHexIO_testJunkStartCode:
 10616 0000 00000000 		.quad	_ZTVN10__cxxabiv120__si_class_type_infoE+16
 10616      00000000 
 10617 0008 00000000 		.quad	_ZTS27TestHexIO_testJunkStartCode
 10617      00000000 
 10618 0010 00000000 		.quad	_ZTIN8UnitTest4TestE
 10618      00000000 
 10619              		.weak	_ZTS27TestHexIO_testJunkStartCode
 10620              		.section	.rodata._ZTS27TestHexIO_testJunkStartCode,"aG",@progbits,_ZTS27TestHexIO_testJunkStartCod
 10621              		.align 16
 10624              	_ZTS27TestHexIO_testJunkStartCode:
 10625 0000 32375465 		.string	"27TestHexIO_testJunkStartCode"
 10625      73744865 
 10625      78494F5F 
 10625      74657374 
 10625      4A756E6B 
 10626              		.weak	_ZTI22TestHexIO_testValidEOF
 10627              		.section	.data.rel.ro._ZTI22TestHexIO_testValidEOF,"awG",@progbits,_ZTI22TestHexIO_testValidEOF,co
 10628              		.align 8
 10631              	_ZTI22TestHexIO_testValidEOF:
 10632 0000 00000000 		.quad	_ZTVN10__cxxabiv120__si_class_type_infoE+16
 10632      00000000 
 10633 0008 00000000 		.quad	_ZTS22TestHexIO_testValidEOF
 10633      00000000 
 10634 0010 00000000 		.quad	_ZTIN8UnitTest4TestE
 10634      00000000 
 10635              		.weak	_ZTS22TestHexIO_testValidEOF
 10636              		.section	.rodata._ZTS22TestHexIO_testValidEOF,"aG",@progbits,_ZTS22TestHexIO_testValidEOF,comdat
 10637              		.align 16
 10640              	_ZTS22TestHexIO_testValidEOF:
 10641 0000 32325465 		.string	"22TestHexIO_testValidEOF"
 10641      73744865 
 10641      78494F5F 
 10641      74657374 
 10641      56616C69 
 10642              		.weak	_ZTI27TestHexIO_testValidDataLine
 10643              		.section	.data.rel.ro._ZTI27TestHexIO_testValidDataLine,"awG",@progbits,_ZTI27TestHexIO_testValidD
 10644              		.align 8
 10647              	_ZTI27TestHexIO_testValidDataLine:
 10648 0000 00000000 		.quad	_ZTVN10__cxxabiv120__si_class_type_infoE+16
 10648      00000000 
 10649 0008 00000000 		.quad	_ZTS27TestHexIO_testValidDataLine
 10649      00000000 
 10650 0010 00000000 		.quad	_ZTIN8UnitTest4TestE
 10650      00000000 
 10651              		.weak	_ZTS27TestHexIO_testValidDataLine
 10652              		.section	.rodata._ZTS27TestHexIO_testValidDataLine,"aG",@progbits,_ZTS27TestHexIO_testValidDataLin
 10653              		.align 16
 10656              	_ZTS27TestHexIO_testValidDataLine:
 10657 0000 32375465 		.string	"27TestHexIO_testValidDataLine"
 10657      73744865 
 10657      78494F5F 
 10657      74657374 
 10657      56616C69 
 10658              		.weak	_ZTIN8UnitTest15MemoryOutStreamE
 10659              		.section	.data.rel.ro._ZTIN8UnitTest15MemoryOutStreamE,"awG",@progbits,_ZTIN8UnitTest15MemoryOutSt
 10660              		.align 8
 10663              	_ZTIN8UnitTest15MemoryOutStreamE:
 10664 0000 00000000 		.quad	_ZTVN10__cxxabiv120__si_class_type_infoE+16
 10664      00000000 
 10665 0008 00000000 		.quad	_ZTSN8UnitTest15MemoryOutStreamE
 10665      00000000 
 10666 0010 00000000 		.quad	_ZTINSt7__cxx1119basic_ostringstreamIcSt11char_traitsIcESaIcEEE
 10666      00000000 
 10667              		.weak	_ZTSN8UnitTest15MemoryOutStreamE
 10668              		.section	.rodata._ZTSN8UnitTest15MemoryOutStreamE,"aG",@progbits,_ZTSN8UnitTest15MemoryOutStreamE,
 10669              		.align 16
 10672              	_ZTSN8UnitTest15MemoryOutStreamE:
 10673 0000 4E38556E 		.string	"N8UnitTest15MemoryOutStreamE"
 10673      69745465 
 10673      73743135 
 10673      4D656D6F 
 10673      72794F75 
 10674              		.text
 10676              	_Z41__static_initialization_and_destruction_0ii:
 10677              	.LFB1458:
 10678              		.loc 4 306 1 is_stmt 1
 10679              		.cfi_startproc
 10680 341f F30F1EFA 		endbr64
 10681 3423 55       		pushq	%rbp
 10682              		.cfi_def_cfa_offset 16
 10683              		.cfi_offset 6, -16
 10684 3424 4889E5   		movq	%rsp, %rbp
 10685              		.cfi_def_cfa_register 6
 10686 3427 4883EC10 		subq	$16, %rsp
 10687 342b 897DFC   		movl	%edi, -4(%rbp)
 10688 342e 8975F8   		movl	%esi, -8(%rbp)
 10689              		.loc 4 306 1
 10690 3431 837DFC01 		cmpl	$1, -4(%rbp)
 10691 3435 0F856B04 		jne	.L496
 10691      0000
 10692              		.loc 4 306 1 is_stmt 0 discriminator 1
 10693 343b 817DF8FF 		cmpl	$65535, -8(%rbp)
 10693      FF0000
 10694 3442 0F855E04 		jne	.L496
 10694      0000
  27:testHexIO.cpp **** 	Buffer data, mask;
 10695              		.loc 4 27 1 is_stmt 1
 10696 3448 488D0500 		leaq	testHexIO_testValidDataLineInstance(%rip), %rax
 10696      000000
 10697 344f 4889C7   		movq	%rax, %rdi
 10698 3452 E8000000 		call	_ZN27TestHexIO_testValidDataLineC1Ev
 10698      00
 10699 3457 488D0500 		leaq	__dso_handle(%rip), %rax
 10699      000000
 10700 345e 4889C2   		movq	%rax, %rdx
 10701 3461 488D0500 		leaq	testHexIO_testValidDataLineInstance(%rip), %rax
 10701      000000
 10702 3468 4889C6   		movq	%rax, %rsi
 10703 346b 488D0500 		leaq	_ZN27TestHexIO_testValidDataLineD1Ev(%rip), %rax
 10703      000000
 10704 3472 4889C7   		movq	%rax, %rdi
 10705 3475 E8000000 		call	__cxa_atexit@PLT
 10705      00
 10706 347a E8000000 		call	_ZN8UnitTest4Test11GetTestListEv@PLT
 10706      00
 10707 347f 4889C1   		movq	%rax, %rcx
 10708 3482 488D0500 		leaq	testHexIO_testValidDataLineInstance(%rip), %rax
 10708      000000
 10709 3489 4889C2   		movq	%rax, %rdx
 10710 348c 4889CE   		movq	%rcx, %rsi
 10711 348f 488D0500 		leaq	adderHexIO_testValidDataLine(%rip), %rax
 10711      000000
 10712 3496 4889C7   		movq	%rax, %rdi
 10713 3499 E8000000 		call	_ZN8UnitTest9ListAdderC1ERNS_8TestListEPNS_4TestE@PLT
 10713      00
  50:testHexIO.cpp **** 	Buffer data, mask;
 10714              		.loc 4 50 1
 10715 349e 488D0500 		leaq	testHexIO_testValidEOFInstance(%rip), %rax
 10715      000000
 10716 34a5 4889C7   		movq	%rax, %rdi
 10717 34a8 E8000000 		call	_ZN22TestHexIO_testValidEOFC1Ev
 10717      00
 10718 34ad 488D0500 		leaq	__dso_handle(%rip), %rax
 10718      000000
 10719 34b4 4889C2   		movq	%rax, %rdx
 10720 34b7 488D0500 		leaq	testHexIO_testValidEOFInstance(%rip), %rax
 10720      000000
 10721 34be 4889C6   		movq	%rax, %rsi
 10722 34c1 488D0500 		leaq	_ZN22TestHexIO_testValidEOFD1Ev(%rip), %rax
 10722      000000
 10723 34c8 4889C7   		movq	%rax, %rdi
 10724 34cb E8000000 		call	__cxa_atexit@PLT
 10724      00
 10725 34d0 E8000000 		call	_ZN8UnitTest4Test11GetTestListEv@PLT
 10725      00
 10726 34d5 4889C1   		movq	%rax, %rcx
 10727 34d8 488D0500 		leaq	testHexIO_testValidEOFInstance(%rip), %rax
 10727      000000
 10728 34df 4889C2   		movq	%rax, %rdx
 10729 34e2 4889CE   		movq	%rcx, %rsi
 10730 34e5 488D0500 		leaq	adderHexIO_testValidEOF(%rip), %rax
 10730      000000
 10731 34ec 4889C7   		movq	%rax, %rdi
 10732 34ef E8000000 		call	_ZN8UnitTest9ListAdderC1ERNS_8TestListEPNS_4TestE@PLT
 10732      00
  69:testHexIO.cpp **** 	Buffer data;
 10733              		.loc 4 69 1
 10734 34f4 488D0500 		leaq	testHexIO_testJunkStartCodeInstance(%rip), %rax
 10734      000000
 10735 34fb 4889C7   		movq	%rax, %rdi
 10736 34fe E8000000 		call	_ZN27TestHexIO_testJunkStartCodeC1Ev
 10736      00
 10737 3503 488D0500 		leaq	__dso_handle(%rip), %rax
 10737      000000
 10738 350a 4889C2   		movq	%rax, %rdx
 10739 350d 488D0500 		leaq	testHexIO_testJunkStartCodeInstance(%rip), %rax
 10739      000000
 10740 3514 4889C6   		movq	%rax, %rsi
 10741 3517 488D0500 		leaq	_ZN27TestHexIO_testJunkStartCodeD1Ev(%rip), %rax
 10741      000000
 10742 351e 4889C7   		movq	%rax, %rdi
 10743 3521 E8000000 		call	__cxa_atexit@PLT
 10743      00
 10744 3526 E8000000 		call	_ZN8UnitTest4Test11GetTestListEv@PLT
 10744      00
 10745 352b 4889C1   		movq	%rax, %rcx
 10746 352e 488D0500 		leaq	testHexIO_testJunkStartCodeInstance(%rip), %rax
 10746      000000
 10747 3535 4889C2   		movq	%rax, %rdx
 10748 3538 4889CE   		movq	%rcx, %rsi
 10749 353b 488D0500 		leaq	adderHexIO_testJunkStartCode(%rip), %rax
 10749      000000
 10750 3542 4889C7   		movq	%rax, %rdi
 10751 3545 E8000000 		call	_ZN8UnitTest9ListAdderC1ERNS_8TestListEPNS_4TestE@PLT
 10751      00
  82:testHexIO.cpp **** 	Buffer data;
 10752              		.loc 4 82 1
 10753 354a 488D0500 		leaq	testHexIO_testJunkByteCountInstance(%rip), %rax
 10753      000000
 10754 3551 4889C7   		movq	%rax, %rdi
 10755 3554 E8000000 		call	_ZN27TestHexIO_testJunkByteCountC1Ev
 10755      00
 10756 3559 488D0500 		leaq	__dso_handle(%rip), %rax
 10756      000000
 10757 3560 4889C2   		movq	%rax, %rdx
 10758 3563 488D0500 		leaq	testHexIO_testJunkByteCountInstance(%rip), %rax
 10758      000000
 10759 356a 4889C6   		movq	%rax, %rsi
 10760 356d 488D0500 		leaq	_ZN27TestHexIO_testJunkByteCountD1Ev(%rip), %rax
 10760      000000
 10761 3574 4889C7   		movq	%rax, %rdi
 10762 3577 E8000000 		call	__cxa_atexit@PLT
 10762      00
 10763 357c E8000000 		call	_ZN8UnitTest4Test11GetTestListEv@PLT
 10763      00
 10764 3581 4889C1   		movq	%rax, %rcx
 10765 3584 488D0500 		leaq	testHexIO_testJunkByteCountInstance(%rip), %rax
 10765      000000
 10766 358b 4889C2   		movq	%rax, %rdx
 10767 358e 4889CE   		movq	%rcx, %rsi
 10768 3591 488D0500 		leaq	adderHexIO_testJunkByteCount(%rip), %rax
 10768      000000
 10769 3598 4889C7   		movq	%rax, %rdi
 10770 359b E8000000 		call	_ZN8UnitTest9ListAdderC1ERNS_8TestListEPNS_4TestE@PLT
 10770      00
  95:testHexIO.cpp **** 	Buffer data;
 10771              		.loc 4 95 1
 10772 35a0 488D0500 		leaq	testHexIO_testJunkAddrMsbInstance(%rip), %rax
 10772      000000
 10773 35a7 4889C7   		movq	%rax, %rdi
 10774 35aa E8000000 		call	_ZN25TestHexIO_testJunkAddrMsbC1Ev
 10774      00
 10775 35af 488D0500 		leaq	__dso_handle(%rip), %rax
 10775      000000
 10776 35b6 4889C2   		movq	%rax, %rdx
 10777 35b9 488D0500 		leaq	testHexIO_testJunkAddrMsbInstance(%rip), %rax
 10777      000000
 10778 35c0 4889C6   		movq	%rax, %rsi
 10779 35c3 488D0500 		leaq	_ZN25TestHexIO_testJunkAddrMsbD1Ev(%rip), %rax
 10779      000000
 10780 35ca 4889C7   		movq	%rax, %rdi
 10781 35cd E8000000 		call	__cxa_atexit@PLT
 10781      00
 10782 35d2 E8000000 		call	_ZN8UnitTest4Test11GetTestListEv@PLT
 10782      00
 10783 35d7 4889C1   		movq	%rax, %rcx
 10784 35da 488D0500 		leaq	testHexIO_testJunkAddrMsbInstance(%rip), %rax
 10784      000000
 10785 35e1 4889C2   		movq	%rax, %rdx
 10786 35e4 4889CE   		movq	%rcx, %rsi
 10787 35e7 488D0500 		leaq	adderHexIO_testJunkAddrMsb(%rip), %rax
 10787      000000
 10788 35ee 4889C7   		movq	%rax, %rdi
 10789 35f1 E8000000 		call	_ZN8UnitTest9ListAdderC1ERNS_8TestListEPNS_4TestE@PLT
 10789      00
 108:testHexIO.cpp **** 	Buffer data;
 10790              		.loc 4 108 1
 10791 35f6 488D0500 		leaq	testHexIO_testJunkAddrLsbInstance(%rip), %rax
 10791      000000
 10792 35fd 4889C7   		movq	%rax, %rdi
 10793 3600 E8000000 		call	_ZN25TestHexIO_testJunkAddrLsbC1Ev
 10793      00
 10794 3605 488D0500 		leaq	__dso_handle(%rip), %rax
 10794      000000
 10795 360c 4889C2   		movq	%rax, %rdx
 10796 360f 488D0500 		leaq	testHexIO_testJunkAddrLsbInstance(%rip), %rax
 10796      000000
 10797 3616 4889C6   		movq	%rax, %rsi
 10798 3619 488D0500 		leaq	_ZN25TestHexIO_testJunkAddrLsbD1Ev(%rip), %rax
 10798      000000
 10799 3620 4889C7   		movq	%rax, %rdi
 10800 3623 E8000000 		call	__cxa_atexit@PLT
 10800      00
 10801 3628 E8000000 		call	_ZN8UnitTest4Test11GetTestListEv@PLT
 10801      00
 10802 362d 4889C1   		movq	%rax, %rcx
 10803 3630 488D0500 		leaq	testHexIO_testJunkAddrLsbInstance(%rip), %rax
 10803      000000
 10804 3637 4889C2   		movq	%rax, %rdx
 10805 363a 4889CE   		movq	%rcx, %rsi
 10806 363d 488D0500 		leaq	adderHexIO_testJunkAddrLsb(%rip), %rax
 10806      000000
 10807 3644 4889C7   		movq	%rax, %rdi
 10808 3647 E8000000 		call	_ZN8UnitTest9ListAdderC1ERNS_8TestListEPNS_4TestE@PLT
 10808      00
 121:testHexIO.cpp **** 	Buffer data;
 10809              		.loc 4 121 1
 10810 364c 488D0500 		leaq	testHexIO_testJunkRecTypeInstance(%rip), %rax
 10810      000000
 10811 3653 4889C7   		movq	%rax, %rdi
 10812 3656 E8000000 		call	_ZN25TestHexIO_testJunkRecTypeC1Ev
 10812      00
 10813 365b 488D0500 		leaq	__dso_handle(%rip), %rax
 10813      000000
 10814 3662 4889C2   		movq	%rax, %rdx
 10815 3665 488D0500 		leaq	testHexIO_testJunkRecTypeInstance(%rip), %rax
 10815      000000
 10816 366c 4889C6   		movq	%rax, %rsi
 10817 366f 488D0500 		leaq	_ZN25TestHexIO_testJunkRecTypeD1Ev(%rip), %rax
 10817      000000
 10818 3676 4889C7   		movq	%rax, %rdi
 10819 3679 E8000000 		call	__cxa_atexit@PLT
 10819      00
 10820 367e E8000000 		call	_ZN8UnitTest4Test11GetTestListEv@PLT
 10820      00
 10821 3683 4889C1   		movq	%rax, %rcx
 10822 3686 488D0500 		leaq	testHexIO_testJunkRecTypeInstance(%rip), %rax
 10822      000000
 10823 368d 4889C2   		movq	%rax, %rdx
 10824 3690 4889CE   		movq	%rcx, %rsi
 10825 3693 488D0500 		leaq	adderHexIO_testJunkRecType(%rip), %rax
 10825      000000
 10826 369a 4889C7   		movq	%rax, %rdi
 10827 369d E8000000 		call	_ZN8UnitTest9ListAdderC1ERNS_8TestListEPNS_4TestE@PLT
 10827      00
 134:testHexIO.cpp **** 	Buffer data;
 10828              		.loc 4 134 1
 10829 36a2 488D0500 		leaq	testHexIO_testJunkDataByteInstance(%rip), %rax
 10829      000000
 10830 36a9 4889C7   		movq	%rax, %rdi
 10831 36ac E8000000 		call	_ZN26TestHexIO_testJunkDataByteC1Ev
 10831      00
 10832 36b1 488D0500 		leaq	__dso_handle(%rip), %rax
 10832      000000
 10833 36b8 4889C2   		movq	%rax, %rdx
 10834 36bb 488D0500 		leaq	testHexIO_testJunkDataByteInstance(%rip), %rax
 10834      000000
 10835 36c2 4889C6   		movq	%rax, %rsi
 10836 36c5 488D0500 		leaq	_ZN26TestHexIO_testJunkDataByteD1Ev(%rip), %rax
 10836      000000
 10837 36cc 4889C7   		movq	%rax, %rdi
 10838 36cf E8000000 		call	__cxa_atexit@PLT
 10838      00
 10839 36d4 E8000000 		call	_ZN8UnitTest4Test11GetTestListEv@PLT
 10839      00
 10840 36d9 4889C1   		movq	%rax, %rcx
 10841 36dc 488D0500 		leaq	testHexIO_testJunkDataByteInstance(%rip), %rax
 10841      000000
 10842 36e3 4889C2   		movq	%rax, %rdx
 10843 36e6 4889CE   		movq	%rcx, %rsi
 10844 36e9 488D0500 		leaq	adderHexIO_testJunkDataByte(%rip), %rax
 10844      000000
 10845 36f0 4889C7   		movq	%rax, %rdi
 10846 36f3 E8000000 		call	_ZN8UnitTest9ListAdderC1ERNS_8TestListEPNS_4TestE@PLT
 10846      00
 147:testHexIO.cpp **** 	Buffer data;
 10847              		.loc 4 147 1
 10848 36f8 488D0500 		leaq	testHexIO_testJunkChecksumInstance(%rip), %rax
 10848      000000
 10849 36ff 4889C7   		movq	%rax, %rdi
 10850 3702 E8000000 		call	_ZN26TestHexIO_testJunkChecksumC1Ev
 10850      00
 10851 3707 488D0500 		leaq	__dso_handle(%rip), %rax
 10851      000000
 10852 370e 4889C2   		movq	%rax, %rdx
 10853 3711 488D0500 		leaq	testHexIO_testJunkChecksumInstance(%rip), %rax
 10853      000000
 10854 3718 4889C6   		movq	%rax, %rsi
 10855 371b 488D0500 		leaq	_ZN26TestHexIO_testJunkChecksumD1Ev(%rip), %rax
 10855      000000
 10856 3722 4889C7   		movq	%rax, %rdi
 10857 3725 E8000000 		call	__cxa_atexit@PLT
 10857      00
 10858 372a E8000000 		call	_ZN8UnitTest4Test11GetTestListEv@PLT
 10858      00
 10859 372f 4889C1   		movq	%rax, %rcx
 10860 3732 488D0500 		leaq	testHexIO_testJunkChecksumInstance(%rip), %rax
 10860      000000
 10861 3739 4889C2   		movq	%rax, %rdx
 10862 373c 4889CE   		movq	%rcx, %rsi
 10863 373f 488D0500 		leaq	adderHexIO_testJunkChecksum(%rip), %rax
 10863      000000
 10864 3746 4889C7   		movq	%rax, %rdi
 10865 3749 E8000000 		call	_ZN8UnitTest9ListAdderC1ERNS_8TestListEPNS_4TestE@PLT
 10865      00
 160:testHexIO.cpp **** 	Buffer data;
 10866              		.loc 4 160 1
 10867 374e 488D0500 		leaq	testHexIO_testBadChecksumInstance(%rip), %rax
 10867      000000
 10868 3755 4889C7   		movq	%rax, %rdi
 10869 3758 E8000000 		call	_ZN25TestHexIO_testBadChecksumC1Ev
 10869      00
 10870 375d 488D0500 		leaq	__dso_handle(%rip), %rax
 10870      000000
 10871 3764 4889C2   		movq	%rax, %rdx
 10872 3767 488D0500 		leaq	testHexIO_testBadChecksumInstance(%rip), %rax
 10872      000000
 10873 376e 4889C6   		movq	%rax, %rsi
 10874 3771 488D0500 		leaq	_ZN25TestHexIO_testBadChecksumD1Ev(%rip), %rax
 10874      000000
 10875 3778 4889C7   		movq	%rax, %rdi
 10876 377b E8000000 		call	__cxa_atexit@PLT
 10876      00
 10877 3780 E8000000 		call	_ZN8UnitTest4Test11GetTestListEv@PLT
 10877      00
 10878 3785 4889C1   		movq	%rax, %rcx
 10879 3788 488D0500 		leaq	testHexIO_testBadChecksumInstance(%rip), %rax
 10879      000000
 10880 378f 4889C2   		movq	%rax, %rdx
 10881 3792 4889CE   		movq	%rcx, %rsi
 10882 3795 488D0500 		leaq	adderHexIO_testBadChecksum(%rip), %rax
 10882      000000
 10883 379c 4889C7   		movq	%rax, %rdi
 10884 379f E8000000 		call	_ZN8UnitTest9ListAdderC1ERNS_8TestListEPNS_4TestE@PLT
 10884      00
 173:testHexIO.cpp **** 	Buffer data;
 10885              		.loc 4 173 1
 10886 37a4 488D0500 		leaq	testHexIO_testCorruptLineInstance(%rip), %rax
 10886      000000
 10887 37ab 4889C7   		movq	%rax, %rdi
 10888 37ae E8000000 		call	_ZN25TestHexIO_testCorruptLineC1Ev
 10888      00
 10889 37b3 488D0500 		leaq	__dso_handle(%rip), %rax
 10889      000000
 10890 37ba 4889C2   		movq	%rax, %rdx
 10891 37bd 488D0500 		leaq	testHexIO_testCorruptLineInstance(%rip), %rax
 10891      000000
 10892 37c4 4889C6   		movq	%rax, %rsi
 10893 37c7 488D0500 		leaq	_ZN25TestHexIO_testCorruptLineD1Ev(%rip), %rax
 10893      000000
 10894 37ce 4889C7   		movq	%rax, %rdi
 10895 37d1 E8000000 		call	__cxa_atexit@PLT
 10895      00
 10896 37d6 E8000000 		call	_ZN8UnitTest4Test11GetTestListEv@PLT
 10896      00
 10897 37db 4889C1   		movq	%rax, %rcx
 10898 37de 488D0500 		leaq	testHexIO_testCorruptLineInstance(%rip), %rax
 10898      000000
 10899 37e5 4889C2   		movq	%rax, %rdx
 10900 37e8 4889CE   		movq	%rcx, %rsi
 10901 37eb 488D0500 		leaq	adderHexIO_testCorruptLine(%rip), %rax
 10901      000000
 10902 37f2 4889C7   		movq	%rax, %rdi
 10903 37f5 E8000000 		call	_ZN8UnitTest9ListAdderC1ERNS_8TestListEPNS_4TestE@PLT
 10903      00
 242:testHexIO.cpp **** 	testRoundTrip(
 10904              		.loc 4 242 1
 10905 37fa 488D0500 		leaq	testHexIO_testRoundTripInstance(%rip), %rax
 10905      000000
 10906 3801 4889C7   		movq	%rax, %rdi
 10907 3804 E8000000 		call	_ZN23TestHexIO_testRoundTripC1Ev
 10907      00
 10908 3809 488D0500 		leaq	__dso_handle(%rip), %rax
 10908      000000
 10909 3810 4889C2   		movq	%rax, %rdx
 10910 3813 488D0500 		leaq	testHexIO_testRoundTripInstance(%rip), %rax
 10910      000000
 10911 381a 4889C6   		movq	%rax, %rsi
 10912 381d 488D0500 		leaq	_ZN23TestHexIO_testRoundTripD1Ev(%rip), %rax
 10912      000000
 10913 3824 4889C7   		movq	%rax, %rdi
 10914 3827 E8000000 		call	__cxa_atexit@PLT
 10914      00
 10915 382c E8000000 		call	_ZN8UnitTest4Test11GetTestListEv@PLT
 10915      00
 10916 3831 4889C1   		movq	%rax, %rcx
 10917 3834 488D0500 		leaq	testHexIO_testRoundTripInstance(%rip), %rax
 10917      000000
 10918 383b 4889C2   		movq	%rax, %rdx
 10919 383e 4889CE   		movq	%rcx, %rsi
 10920 3841 488D0500 		leaq	adderHexIO_testRoundTrip(%rip), %rax
 10920      000000
 10921 3848 4889C7   		movq	%rax, %rdi
 10922 384b E8000000 		call	_ZN8UnitTest9ListAdderC1ERNS_8TestListEPNS_4TestE@PLT
 10922      00
 303:testHexIO.cpp **** 	testDeriveWriteMap("Hello........World", "*****........*****");
 10923              		.loc 4 303 1
 10924 3850 488D0500 		leaq	testHexIO_testDeriveWriteMapInstance(%rip), %rax
 10924      000000
 10925 3857 4889C7   		movq	%rax, %rdi
 10926 385a E8000000 		call	_ZN28TestHexIO_testDeriveWriteMapC1Ev
 10926      00
 10927 385f 488D0500 		leaq	__dso_handle(%rip), %rax
 10927      000000
 10928 3866 4889C2   		movq	%rax, %rdx
 10929 3869 488D0500 		leaq	testHexIO_testDeriveWriteMapInstance(%rip), %rax
 10929      000000
 10930 3870 4889C6   		movq	%rax, %rsi
 10931 3873 488D0500 		leaq	_ZN28TestHexIO_testDeriveWriteMapD1Ev(%rip), %rax
 10931      000000
 10932 387a 4889C7   		movq	%rax, %rdi
 10933 387d E8000000 		call	__cxa_atexit@PLT
 10933      00
 10934 3882 E8000000 		call	_ZN8UnitTest4Test11GetTestListEv@PLT
 10934      00
 10935 3887 4889C1   		movq	%rax, %rcx
 10936 388a 488D0500 		leaq	testHexIO_testDeriveWriteMapInstance(%rip), %rax
 10936      000000
 10937 3891 4889C2   		movq	%rax, %rdx
 10938 3894 4889CE   		movq	%rcx, %rsi
 10939 3897 488D0500 		leaq	adderHexIO_testDeriveWriteMap(%rip), %rax
 10939      000000
 10940 389e 4889C7   		movq	%rax, %rdi
 10941 38a1 E8000000 		call	_ZN8UnitTest9ListAdderC1ERNS_8TestListEPNS_4TestE@PLT
 10941      00
 10942              	.L496:
 10943              		.loc 4 306 1
 10944 38a6 90       		nop
 10945 38a7 C9       		leave
 10946              		.cfi_def_cfa 7, 8
 10947 38a8 C3       		ret
 10948              		.cfi_endproc
 10949              	.LFE1458:
 10952              	_GLOBAL__sub_I_testHexIO_testValidDataLineInstance:
 10953              	.LFB1459:
 10954              		.loc 4 306 1
 10955              		.cfi_startproc
 10956 38a9 F30F1EFA 		endbr64
 10957 38ad 55       		pushq	%rbp
 10958              		.cfi_def_cfa_offset 16
 10959              		.cfi_offset 6, -16
 10960 38ae 4889E5   		movq	%rsp, %rbp
 10961              		.cfi_def_cfa_register 6
 10962              		.loc 4 306 1
 10963 38b1 BEFFFF00 		movl	$65535, %esi
 10963      00
 10964 38b6 BF010000 		movl	$1, %edi
 10964      00
 10965 38bb E85FFBFF 		call	_Z41__static_initialization_and_destruction_0ii
 10965      FF
 10966 38c0 5D       		popq	%rbp
 10967              		.cfi_def_cfa 7, 8
 10968 38c1 C3       		ret
 10969              		.cfi_endproc
 10970              	.LFE1459:
 10972              		.section	.init_array,"aw"
 10973              		.align 8
 10974 0000 00000000 		.quad	_GLOBAL__sub_I_testHexIO_testValidDataLineInstance
 10974      00000000 
 10975              		.text
 10976              	.Letext0:
 10977              		.file 7 "<built-in>"
 10978              		.file 8 "/usr/lib/gcc/x86_64-linux-gnu/12/include/stdarg.h"
 10979              		.file 9 "/usr/include/c++/12/cstdarg"
 10980              		.file 10 "/usr/include/c++/12/cwchar"
 10981              		.file 11 "/usr/include/c++/12/bits/char_traits.h"
 10982              		.file 12 "/usr/include/x86_64-linux-gnu/c++/12/bits/c++config.h"
 10983              		.file 13 "/usr/include/c++/12/bits/new_allocator.h"
 10984              		.file 14 "/usr/include/c++/12/bits/allocator.h"
 10985              		.file 15 "/usr/include/c++/12/clocale"
 10986              		.file 16 "/usr/include/c++/12/bits/basic_string.h"
 10987              		.file 17 "/usr/include/c++/12/bits/basic_string.tcc"
 10988              		.file 18 "/usr/include/c++/12/sstream"
 10989              		.file 19 "/usr/include/c++/12/bits/stringfwd.h"
 10990              		.file 20 "/usr/include/c++/12/cwctype"
 10991              		.file 21 "/usr/include/c++/12/bits/ostream.tcc"
 10992              		.file 22 "/usr/include/c++/12/ostream"
 10993              		.file 23 "/usr/include/c++/12/istream"
 10994              		.file 24 "/usr/include/c++/12/cstdio"
 10995              		.file 25 "/usr/include/c++/12/cstring"
 10996              		.file 26 "/usr/include/c++/12/fstream"
 10997              		.file 27 "/usr/include/c++/12/bits/basic_ios.h"
 10998              		.file 28 "/usr/include/c++/12/iosfwd"
 10999              		.file 29 "/usr/lib/gcc/x86_64-linux-gnu/12/include/stddef.h"
 11000              		.file 30 "/usr/include/x86_64-linux-gnu/bits/types/wint_t.h"
 11001              		.file 31 "/usr/include/x86_64-linux-gnu/bits/types/__mbstate_t.h"
 11002              		.file 32 "/usr/include/x86_64-linux-gnu/bits/types/mbstate_t.h"
 11003              		.file 33 "/usr/include/x86_64-linux-gnu/bits/types/__FILE.h"
 11004              		.file 34 "/usr/include/x86_64-linux-gnu/bits/types/struct_FILE.h"
 11005              		.file 35 "/usr/include/x86_64-linux-gnu/bits/types/FILE.h"
 11006              		.file 36 "/usr/include/wchar.h"
 11007              		.file 37 "/usr/include/x86_64-linux-gnu/bits/types/struct_tm.h"
 11008              		.file 38 "/usr/include/c++/12/debug/debug.h"
 11009              		.file 39 "/usr/include/c++/12/bits/predefined_ops.h"
 11010              		.file 40 "/usr/include/c++/12/ext/alloc_traits.h"
 11011              		.file 41 "/usr/include/locale.h"
 11012              		.file 42 "/usr/include/x86_64-linux-gnu/bits/types.h"
 11013              		.file 43 "/usr/include/x86_64-linux-gnu/bits/wctype-wchar.h"
 11014              		.file 44 "/usr/include/wctype.h"
 11015              		.file 45 "/usr/include/x86_64-linux-gnu/bits/types/__fpos_t.h"
 11016              		.file 46 "/usr/include/stdio.h"
 11017              		.file 47 "/usr/include/string.h"
 11018              		.file 48 "/home/asoreyh/Dropbox/projects/lago/acqua/nexys/src/makestuff/libs/libutpp/TestDetails.h
 11019              		.file 49 "/home/asoreyh/Dropbox/projects/lago/acqua/nexys/src/makestuff/libs/libutpp/TestList.h"
 11020              		.file 50 "/home/asoreyh/Dropbox/projects/lago/acqua/nexys/src/makestuff/libs/libutpp/Test.h"
 11021              		.file 51 "/home/asoreyh/Dropbox/projects/lago/acqua/nexys/src/makestuff/libs/libutpp/TestResults.h
 11022              		.file 52 "/home/asoreyh/Dropbox/projects/lago/acqua/nexys/src/makestuff/libs/libutpp/CurrentTest.h
 11023              		.file 53 "/home/asoreyh/Dropbox/projects/lago/acqua/nexys/src/makestuff/common/makestuff.h"
 11024              		.file 54 "../libbuffer.h"
 11025              		.file 55 "../private.h"
 11026              		.file 56 "/usr/include/c++/12/new"
 27998              		.align 8
 28001              	DW.ref.__gxx_personality_v0:
 28002 0000 00000000 		.quad	__gxx_personality_v0
 28002      00000000 
 28003              		.hidden	__dso_handle
 28004              		.ident	"GCC: (Ubuntu 12.2.0-17ubuntu1) 12.2.0"
 28005              		.section	.note.GNU-stack,"",@progbits
 28006              		.section	.note.gnu.property,"a"
 28007              		.align 8
 28008 0000 04000000 		.long	1f - 0f
 28009 0004 10000000 		.long	4f - 1f
 28010 0008 05000000 		.long	5
 28011              	0:
 28012 000c 474E5500 		.string	"GNU"
 28013              	1:
 28014              		.align 8
 28015 0010 020000C0 		.long	0xc0000002
 28016 0014 04000000 		.long	3f - 2f
 28017              	2:
 28018 0018 03000000 		.long	0x3
 28019              	3:
 28020 001c 00000000 		.align 8
 28021              	4:
DEFINED SYMBOLS
                            *ABS*:0000000000000000 testHexIO.cpp
     /tmp/ccvCS24P.s:8      .text._ZStorSt13_Ios_OpenmodeS_:0000000000000000 _ZStorSt13_Ios_OpenmodeS_
     /tmp/ccvCS24P.s:37     .text._ZN13UnitTestSuite12GetSuiteNameEv:0000000000000000 _ZN13UnitTestSuite12GetSuiteNameEv
     /tmp/ccvCS24P.s:61     .text._ZN8UnitTest15MemoryOutStreamC1Ev:0000000000000000 _ZN8UnitTest15MemoryOutStreamC1Ev
     /tmp/ccvCS24P.s:28001  .data.rel.local.DW.ref.__gxx_personality_v0:0000000000000000 DW.ref.__gxx_personality_v0
     /tmp/ccvCS24P.s:10409  .data.rel.ro.local._ZTTN8UnitTest15MemoryOutStreamE:0000000000000000 _ZTTN8UnitTest15MemoryOutStreamE
     /tmp/ccvCS24P.s:10393  .data.rel.ro.local._ZTVN8UnitTest15MemoryOutStreamE:0000000000000000 _ZTVN8UnitTest15MemoryOutStreamE
     /tmp/ccvCS24P.s:179    .text._ZN27TestHexIO_testValidDataLineC2Ev:0000000000000000 _ZN27TestHexIO_testValidDataLineC2Ev
     /tmp/ccvCS24P.s:10280  .data.rel.ro.local._ZTV27TestHexIO_testValidDataLine:0000000000000000 _ZTV27TestHexIO_testValidDataLine
     /tmp/ccvCS24P.s:179    .text._ZN27TestHexIO_testValidDataLineC2Ev:0000000000000000 _ZN27TestHexIO_testValidDataLineC1Ev
     /tmp/ccvCS24P.s:225    .bss:0000000000000000 testHexIO_testValidDataLineInstance
     /tmp/ccvCS24P.s:230    .bss:0000000000000038 adderHexIO_testValidDataLine
     /tmp/ccvCS24P.s:260    .text:0000000000000000 _ZNK27TestHexIO_testValidDataLine7RunImplEv
     /tmp/ccvCS24P.s:7241   .text._ZN8UnitTest10CheckEqualI12BufferStatusS1_EEvRNS_11TestResultsERKT_RKT0_RKNS_11TestDetailsE:0000000000000000 _ZN8UnitTest10CheckEqualI12BufferStatusS1_EEvRNS_11TestResultsERKT_RKT0_RKNS_11TestDetailsE
     /tmp/ccvCS24P.s:7389   .text._ZN8UnitTest10CheckEqualIihEEvRNS_11TestResultsERKT_RKT0_RKNS_11TestDetailsE:0000000000000000 _ZN8UnitTest10CheckEqualIihEEvRNS_11TestResultsERKT_RKT0_RKNS_11TestDetailsE
     /tmp/ccvCS24P.s:7537   .text._ZN8UnitTest10CheckEqualImjEEvRNS_11TestResultsERKT_RKT0_RKNS_11TestDetailsE:0000000000000000 _ZN8UnitTest10CheckEqualImjEEvRNS_11TestResultsERKT_RKT0_RKNS_11TestDetailsE
     /tmp/ccvCS24P.s:7695   .text._ZN8UnitTest15CheckArrayEqualIA4_hPhEEvRNS_11TestResultsERKT_RKT0_iRKNS_11TestDetailsE:0000000000000000 _ZN8UnitTest15CheckArrayEqualIA4_hPhEEvRNS_11TestResultsERKT_RKT0_iRKNS_11TestDetailsE
     /tmp/ccvCS24P.s:1086   .text._ZN22TestHexIO_testValidEOFC2Ev:0000000000000000 _ZN22TestHexIO_testValidEOFC2Ev
     /tmp/ccvCS24P.s:10167  .data.rel.ro.local._ZTV22TestHexIO_testValidEOF:0000000000000000 _ZTV22TestHexIO_testValidEOF
     /tmp/ccvCS24P.s:1086   .text._ZN22TestHexIO_testValidEOFC2Ev:0000000000000000 _ZN22TestHexIO_testValidEOFC1Ev
     /tmp/ccvCS24P.s:1131   .bss:0000000000000040 testHexIO_testValidEOFInstance
     /tmp/ccvCS24P.s:1136   .bss:0000000000000078 adderHexIO_testValidEOF
     /tmp/ccvCS24P.s:1154   .text:0000000000000750 _ZNK22TestHexIO_testValidEOF7RunImplEv
     /tmp/ccvCS24P.s:1743   .text._ZN27TestHexIO_testJunkStartCodeC2Ev:0000000000000000 _ZN27TestHexIO_testJunkStartCodeC2Ev
     /tmp/ccvCS24P.s:10054  .data.rel.ro.local._ZTV27TestHexIO_testJunkStartCode:0000000000000000 _ZTV27TestHexIO_testJunkStartCode
     /tmp/ccvCS24P.s:1743   .text._ZN27TestHexIO_testJunkStartCodeC2Ev:0000000000000000 _ZN27TestHexIO_testJunkStartCodeC1Ev
     /tmp/ccvCS24P.s:1788   .bss:0000000000000080 testHexIO_testJunkStartCodeInstance
     /tmp/ccvCS24P.s:1793   .bss:00000000000000b8 adderHexIO_testJunkStartCode
     /tmp/ccvCS24P.s:1805   .text:0000000000000c70 _ZNK27TestHexIO_testJunkStartCode7RunImplEv
     /tmp/ccvCS24P.s:2069   .text._ZN27TestHexIO_testJunkByteCountC2Ev:0000000000000000 _ZN27TestHexIO_testJunkByteCountC2Ev
     /tmp/ccvCS24P.s:9941   .data.rel.ro.local._ZTV27TestHexIO_testJunkByteCount:0000000000000000 _ZTV27TestHexIO_testJunkByteCount
     /tmp/ccvCS24P.s:2069   .text._ZN27TestHexIO_testJunkByteCountC2Ev:0000000000000000 _ZN27TestHexIO_testJunkByteCountC1Ev
     /tmp/ccvCS24P.s:2114   .bss:00000000000000c0 testHexIO_testJunkByteCountInstance
     /tmp/ccvCS24P.s:2119   .bss:00000000000000f8 adderHexIO_testJunkByteCount
     /tmp/ccvCS24P.s:2131   .text:0000000000000e78 _ZNK27TestHexIO_testJunkByteCount7RunImplEv
     /tmp/ccvCS24P.s:2395   .text._ZN25TestHexIO_testJunkAddrMsbC2Ev:0000000000000000 _ZN25TestHexIO_testJunkAddrMsbC2Ev
     /tmp/ccvCS24P.s:9828   .data.rel.ro.local._ZTV25TestHexIO_testJunkAddrMsb:0000000000000000 _ZTV25TestHexIO_testJunkAddrMsb
     /tmp/ccvCS24P.s:2395   .text._ZN25TestHexIO_testJunkAddrMsbC2Ev:0000000000000000 _ZN25TestHexIO_testJunkAddrMsbC1Ev
     /tmp/ccvCS24P.s:2440   .bss:0000000000000100 testHexIO_testJunkAddrMsbInstance
     /tmp/ccvCS24P.s:2445   .bss:0000000000000138 adderHexIO_testJunkAddrMsb
     /tmp/ccvCS24P.s:2457   .text:0000000000001080 _ZNK25TestHexIO_testJunkAddrMsb7RunImplEv
     /tmp/ccvCS24P.s:2721   .text._ZN25TestHexIO_testJunkAddrLsbC2Ev:0000000000000000 _ZN25TestHexIO_testJunkAddrLsbC2Ev
     /tmp/ccvCS24P.s:9715   .data.rel.ro.local._ZTV25TestHexIO_testJunkAddrLsb:0000000000000000 _ZTV25TestHexIO_testJunkAddrLsb
     /tmp/ccvCS24P.s:2721   .text._ZN25TestHexIO_testJunkAddrLsbC2Ev:0000000000000000 _ZN25TestHexIO_testJunkAddrLsbC1Ev
     /tmp/ccvCS24P.s:2766   .bss:0000000000000140 testHexIO_testJunkAddrLsbInstance
     /tmp/ccvCS24P.s:2771   .bss:0000000000000178 adderHexIO_testJunkAddrLsb
     /tmp/ccvCS24P.s:2783   .text:0000000000001288 _ZNK25TestHexIO_testJunkAddrLsb7RunImplEv
     /tmp/ccvCS24P.s:3047   .text._ZN25TestHexIO_testJunkRecTypeC2Ev:0000000000000000 _ZN25TestHexIO_testJunkRecTypeC2Ev
     /tmp/ccvCS24P.s:9602   .data.rel.ro.local._ZTV25TestHexIO_testJunkRecType:0000000000000000 _ZTV25TestHexIO_testJunkRecType
     /tmp/ccvCS24P.s:3047   .text._ZN25TestHexIO_testJunkRecTypeC2Ev:0000000000000000 _ZN25TestHexIO_testJunkRecTypeC1Ev
     /tmp/ccvCS24P.s:3092   .bss:0000000000000180 testHexIO_testJunkRecTypeInstance
     /tmp/ccvCS24P.s:3097   .bss:00000000000001b8 adderHexIO_testJunkRecType
     /tmp/ccvCS24P.s:3109   .text:0000000000001490 _ZNK25TestHexIO_testJunkRecType7RunImplEv
     /tmp/ccvCS24P.s:3373   .text._ZN26TestHexIO_testJunkDataByteC2Ev:0000000000000000 _ZN26TestHexIO_testJunkDataByteC2Ev
     /tmp/ccvCS24P.s:9489   .data.rel.ro.local._ZTV26TestHexIO_testJunkDataByte:0000000000000000 _ZTV26TestHexIO_testJunkDataByte
     /tmp/ccvCS24P.s:3373   .text._ZN26TestHexIO_testJunkDataByteC2Ev:0000000000000000 _ZN26TestHexIO_testJunkDataByteC1Ev
     /tmp/ccvCS24P.s:3418   .bss:00000000000001c0 testHexIO_testJunkDataByteInstance
     /tmp/ccvCS24P.s:3423   .bss:00000000000001f8 adderHexIO_testJunkDataByte
     /tmp/ccvCS24P.s:3435   .text:0000000000001698 _ZNK26TestHexIO_testJunkDataByte7RunImplEv
     /tmp/ccvCS24P.s:3699   .text._ZN26TestHexIO_testJunkChecksumC2Ev:0000000000000000 _ZN26TestHexIO_testJunkChecksumC2Ev
     /tmp/ccvCS24P.s:9376   .data.rel.ro.local._ZTV26TestHexIO_testJunkChecksum:0000000000000000 _ZTV26TestHexIO_testJunkChecksum
     /tmp/ccvCS24P.s:3699   .text._ZN26TestHexIO_testJunkChecksumC2Ev:0000000000000000 _ZN26TestHexIO_testJunkChecksumC1Ev
     /tmp/ccvCS24P.s:3744   .bss:0000000000000200 testHexIO_testJunkChecksumInstance
     /tmp/ccvCS24P.s:3749   .bss:0000000000000238 adderHexIO_testJunkChecksum
     /tmp/ccvCS24P.s:3761   .text:00000000000018a0 _ZNK26TestHexIO_testJunkChecksum7RunImplEv
     /tmp/ccvCS24P.s:4025   .text._ZN25TestHexIO_testBadChecksumC2Ev:0000000000000000 _ZN25TestHexIO_testBadChecksumC2Ev
     /tmp/ccvCS24P.s:9263   .data.rel.ro.local._ZTV25TestHexIO_testBadChecksum:0000000000000000 _ZTV25TestHexIO_testBadChecksum
     /tmp/ccvCS24P.s:4025   .text._ZN25TestHexIO_testBadChecksumC2Ev:0000000000000000 _ZN25TestHexIO_testBadChecksumC1Ev
     /tmp/ccvCS24P.s:4070   .bss:0000000000000240 testHexIO_testBadChecksumInstance
     /tmp/ccvCS24P.s:4075   .bss:0000000000000278 adderHexIO_testBadChecksum
     /tmp/ccvCS24P.s:4087   .text:0000000000001aa8 _ZNK25TestHexIO_testBadChecksum7RunImplEv
     /tmp/ccvCS24P.s:4351   .text._ZN25TestHexIO_testCorruptLineC2Ev:0000000000000000 _ZN25TestHexIO_testCorruptLineC2Ev
     /tmp/ccvCS24P.s:9150   .data.rel.ro.local._ZTV25TestHexIO_testCorruptLine:0000000000000000 _ZTV25TestHexIO_testCorruptLine
     /tmp/ccvCS24P.s:4351   .text._ZN25TestHexIO_testCorruptLineC2Ev:0000000000000000 _ZN25TestHexIO_testCorruptLineC1Ev
     /tmp/ccvCS24P.s:4396   .bss:0000000000000280 testHexIO_testCorruptLineInstance
     /tmp/ccvCS24P.s:4401   .bss:00000000000002b8 adderHexIO_testCorruptLine
     /tmp/ccvCS24P.s:4413   .text:0000000000001cb0 _ZNK25TestHexIO_testCorruptLine7RunImplEv
     /tmp/ccvCS24P.s:4699   .text:0000000000001eb7 _Z13testRoundTripPKcz
     /tmp/ccvCS24P.s:7938   .text._ZNSt4fposI11__mbstate_tEC2Ev:0000000000000000 _ZNSt4fposI11__mbstate_tEC1Ev
     /tmp/ccvCS24P.s:7973   .text._ZN8UnitTest5CheckIbEEbT_:0000000000000000 _ZN8UnitTest5CheckIbEEbT_
     /tmp/ccvCS24P.s:7998   .text._ZNKSt4fposI11__mbstate_tEcvlEv:0000000000000000 _ZNKSt4fposI11__mbstate_tEcvlEv
     /tmp/ccvCS24P.s:8022   .text._ZN8UnitTest15CheckArrayEqualIPKcS2_EEvRNS_11TestResultsERKT_RKT0_iRKNS_11TestDetailsE:0000000000000000 _ZN8UnitTest15CheckArrayEqualIPKcS2_EEvRNS_11TestResultsERKT_RKT0_iRKNS_11TestDetailsE
     /tmp/ccvCS24P.s:8272   .text._ZN8UnitTest10CheckEqualIjjEEvRNS_11TestResultsERKT_RKT0_RKNS_11TestDetailsE:0000000000000000 _ZN8UnitTest10CheckEqualIjjEEvRNS_11TestResultsERKT_RKT0_RKNS_11TestDetailsE
     /tmp/ccvCS24P.s:8420   .text._ZN8UnitTest15CheckArrayEqualIPhS1_EEvRNS_11TestResultsERKT_RKT0_iRKNS_11TestDetailsE:0000000000000000 _ZN8UnitTest15CheckArrayEqualIPhS1_EEvRNS_11TestResultsERKT_RKT0_iRKNS_11TestDetailsE
     /tmp/ccvCS24P.s:6088   .text._ZN23TestHexIO_testRoundTripC2Ev:0000000000000000 _ZN23TestHexIO_testRoundTripC2Ev
     /tmp/ccvCS24P.s:9037   .data.rel.ro.local._ZTV23TestHexIO_testRoundTrip:0000000000000000 _ZTV23TestHexIO_testRoundTrip
     /tmp/ccvCS24P.s:6088   .text._ZN23TestHexIO_testRoundTripC2Ev:0000000000000000 _ZN23TestHexIO_testRoundTripC1Ev
     /tmp/ccvCS24P.s:6133   .bss:00000000000002c0 testHexIO_testRoundTripInstance
     /tmp/ccvCS24P.s:6138   .bss:00000000000002f8 adderHexIO_testRoundTrip
     /tmp/ccvCS24P.s:6192   .text:0000000000002d3e _ZNK23TestHexIO_testRoundTrip7RunImplEv
     /tmp/ccvCS24P.s:6286   .text:0000000000002e79 _Z18testDeriveWriteMapPKcS0_
     /tmp/ccvCS24P.s:8670   .text._ZN8UnitTest15CheckArrayEqualIPKcPhEEvRNS_11TestResultsERKT_RKT0_iRKNS_11TestDetailsE:0000000000000000 _ZN8UnitTest15CheckArrayEqualIPKcPhEEvRNS_11TestResultsERKT_RKT0_iRKNS_11TestDetailsE
     /tmp/ccvCS24P.s:6928   .text._ZN28TestHexIO_testDeriveWriteMapC2Ev:0000000000000000 _ZN28TestHexIO_testDeriveWriteMapC2Ev
     /tmp/ccvCS24P.s:8924   .data.rel.ro.local._ZTV28TestHexIO_testDeriveWriteMap:0000000000000000 _ZTV28TestHexIO_testDeriveWriteMap
     /tmp/ccvCS24P.s:6928   .text._ZN28TestHexIO_testDeriveWriteMapC2Ev:0000000000000000 _ZN28TestHexIO_testDeriveWriteMapC1Ev
     /tmp/ccvCS24P.s:6973   .bss:0000000000000300 testHexIO_testDeriveWriteMapInstance
     /tmp/ccvCS24P.s:6978   .bss:0000000000000338 adderHexIO_testDeriveWriteMap
     /tmp/ccvCS24P.s:6993   .text:00000000000033da _ZNK28TestHexIO_testDeriveWriteMap7RunImplEv
     /tmp/ccvCS24P.s:7029   .text._ZN8UnitTest15MemoryOutStreamD1Ev:0000000000000000 _ZN8UnitTest15MemoryOutStreamD1Ev
     /tmp/ccvCS24P.s:7140   .text._ZN8UnitTest15MemoryOutStreamD1Ev:00000000000000b6 _ZTv0_n24_N8UnitTest15MemoryOutStreamD1Ev
     /tmp/ccvCS24P.s:7155   .text._ZN8UnitTest15MemoryOutStreamD0Ev:0000000000000000 _ZN8UnitTest15MemoryOutStreamD0Ev
     /tmp/ccvCS24P.s:7222   .text._ZN8UnitTest15MemoryOutStreamD0Ev:000000000000004f _ZTv0_n24_N8UnitTest15MemoryOutStreamD0Ev
     /tmp/ccvCS24P.s:7938   .text._ZNSt4fposI11__mbstate_tEC2Ev:0000000000000000 _ZNSt4fposI11__mbstate_tEC2Ev
     /tmp/ccvCS24P.s:10455  .data.rel.ro._ZTI28TestHexIO_testDeriveWriteMap:0000000000000000 _ZTI28TestHexIO_testDeriveWriteMap
     /tmp/ccvCS24P.s:8934   .text._ZN28TestHexIO_testDeriveWriteMapD2Ev:0000000000000000 _ZN28TestHexIO_testDeriveWriteMapD1Ev
     /tmp/ccvCS24P.s:8968   .text._ZN28TestHexIO_testDeriveWriteMapD0Ev:0000000000000000 _ZN28TestHexIO_testDeriveWriteMapD0Ev
     /tmp/ccvCS24P.s:8934   .text._ZN28TestHexIO_testDeriveWriteMapD2Ev:0000000000000000 _ZN28TestHexIO_testDeriveWriteMapD2Ev
     /tmp/ccvCS24P.s:10471  .data.rel.ro._ZTI23TestHexIO_testRoundTrip:0000000000000000 _ZTI23TestHexIO_testRoundTrip
     /tmp/ccvCS24P.s:9047   .text._ZN23TestHexIO_testRoundTripD2Ev:0000000000000000 _ZN23TestHexIO_testRoundTripD1Ev
     /tmp/ccvCS24P.s:9081   .text._ZN23TestHexIO_testRoundTripD0Ev:0000000000000000 _ZN23TestHexIO_testRoundTripD0Ev
     /tmp/ccvCS24P.s:9047   .text._ZN23TestHexIO_testRoundTripD2Ev:0000000000000000 _ZN23TestHexIO_testRoundTripD2Ev
     /tmp/ccvCS24P.s:10487  .data.rel.ro._ZTI25TestHexIO_testCorruptLine:0000000000000000 _ZTI25TestHexIO_testCorruptLine
     /tmp/ccvCS24P.s:9160   .text._ZN25TestHexIO_testCorruptLineD2Ev:0000000000000000 _ZN25TestHexIO_testCorruptLineD1Ev
     /tmp/ccvCS24P.s:9194   .text._ZN25TestHexIO_testCorruptLineD0Ev:0000000000000000 _ZN25TestHexIO_testCorruptLineD0Ev
     /tmp/ccvCS24P.s:9160   .text._ZN25TestHexIO_testCorruptLineD2Ev:0000000000000000 _ZN25TestHexIO_testCorruptLineD2Ev
     /tmp/ccvCS24P.s:10503  .data.rel.ro._ZTI25TestHexIO_testBadChecksum:0000000000000000 _ZTI25TestHexIO_testBadChecksum
     /tmp/ccvCS24P.s:9273   .text._ZN25TestHexIO_testBadChecksumD2Ev:0000000000000000 _ZN25TestHexIO_testBadChecksumD1Ev
     /tmp/ccvCS24P.s:9307   .text._ZN25TestHexIO_testBadChecksumD0Ev:0000000000000000 _ZN25TestHexIO_testBadChecksumD0Ev
     /tmp/ccvCS24P.s:9273   .text._ZN25TestHexIO_testBadChecksumD2Ev:0000000000000000 _ZN25TestHexIO_testBadChecksumD2Ev
     /tmp/ccvCS24P.s:10519  .data.rel.ro._ZTI26TestHexIO_testJunkChecksum:0000000000000000 _ZTI26TestHexIO_testJunkChecksum
     /tmp/ccvCS24P.s:9386   .text._ZN26TestHexIO_testJunkChecksumD2Ev:0000000000000000 _ZN26TestHexIO_testJunkChecksumD1Ev
     /tmp/ccvCS24P.s:9420   .text._ZN26TestHexIO_testJunkChecksumD0Ev:0000000000000000 _ZN26TestHexIO_testJunkChecksumD0Ev
     /tmp/ccvCS24P.s:9386   .text._ZN26TestHexIO_testJunkChecksumD2Ev:0000000000000000 _ZN26TestHexIO_testJunkChecksumD2Ev
     /tmp/ccvCS24P.s:10535  .data.rel.ro._ZTI26TestHexIO_testJunkDataByte:0000000000000000 _ZTI26TestHexIO_testJunkDataByte
     /tmp/ccvCS24P.s:9499   .text._ZN26TestHexIO_testJunkDataByteD2Ev:0000000000000000 _ZN26TestHexIO_testJunkDataByteD1Ev
     /tmp/ccvCS24P.s:9533   .text._ZN26TestHexIO_testJunkDataByteD0Ev:0000000000000000 _ZN26TestHexIO_testJunkDataByteD0Ev
     /tmp/ccvCS24P.s:9499   .text._ZN26TestHexIO_testJunkDataByteD2Ev:0000000000000000 _ZN26TestHexIO_testJunkDataByteD2Ev
     /tmp/ccvCS24P.s:10551  .data.rel.ro._ZTI25TestHexIO_testJunkRecType:0000000000000000 _ZTI25TestHexIO_testJunkRecType
     /tmp/ccvCS24P.s:9612   .text._ZN25TestHexIO_testJunkRecTypeD2Ev:0000000000000000 _ZN25TestHexIO_testJunkRecTypeD1Ev
     /tmp/ccvCS24P.s:9646   .text._ZN25TestHexIO_testJunkRecTypeD0Ev:0000000000000000 _ZN25TestHexIO_testJunkRecTypeD0Ev
     /tmp/ccvCS24P.s:9612   .text._ZN25TestHexIO_testJunkRecTypeD2Ev:0000000000000000 _ZN25TestHexIO_testJunkRecTypeD2Ev
     /tmp/ccvCS24P.s:10567  .data.rel.ro._ZTI25TestHexIO_testJunkAddrLsb:0000000000000000 _ZTI25TestHexIO_testJunkAddrLsb
     /tmp/ccvCS24P.s:9725   .text._ZN25TestHexIO_testJunkAddrLsbD2Ev:0000000000000000 _ZN25TestHexIO_testJunkAddrLsbD1Ev
     /tmp/ccvCS24P.s:9759   .text._ZN25TestHexIO_testJunkAddrLsbD0Ev:0000000000000000 _ZN25TestHexIO_testJunkAddrLsbD0Ev
     /tmp/ccvCS24P.s:9725   .text._ZN25TestHexIO_testJunkAddrLsbD2Ev:0000000000000000 _ZN25TestHexIO_testJunkAddrLsbD2Ev
     /tmp/ccvCS24P.s:10583  .data.rel.ro._ZTI25TestHexIO_testJunkAddrMsb:0000000000000000 _ZTI25TestHexIO_testJunkAddrMsb
     /tmp/ccvCS24P.s:9838   .text._ZN25TestHexIO_testJunkAddrMsbD2Ev:0000000000000000 _ZN25TestHexIO_testJunkAddrMsbD1Ev
     /tmp/ccvCS24P.s:9872   .text._ZN25TestHexIO_testJunkAddrMsbD0Ev:0000000000000000 _ZN25TestHexIO_testJunkAddrMsbD0Ev
     /tmp/ccvCS24P.s:9838   .text._ZN25TestHexIO_testJunkAddrMsbD2Ev:0000000000000000 _ZN25TestHexIO_testJunkAddrMsbD2Ev
     /tmp/ccvCS24P.s:10599  .data.rel.ro._ZTI27TestHexIO_testJunkByteCount:0000000000000000 _ZTI27TestHexIO_testJunkByteCount
     /tmp/ccvCS24P.s:9951   .text._ZN27TestHexIO_testJunkByteCountD2Ev:0000000000000000 _ZN27TestHexIO_testJunkByteCountD1Ev
     /tmp/ccvCS24P.s:9985   .text._ZN27TestHexIO_testJunkByteCountD0Ev:0000000000000000 _ZN27TestHexIO_testJunkByteCountD0Ev
     /tmp/ccvCS24P.s:9951   .text._ZN27TestHexIO_testJunkByteCountD2Ev:0000000000000000 _ZN27TestHexIO_testJunkByteCountD2Ev
     /tmp/ccvCS24P.s:10615  .data.rel.ro._ZTI27TestHexIO_testJunkStartCode:0000000000000000 _ZTI27TestHexIO_testJunkStartCode
     /tmp/ccvCS24P.s:10064  .text._ZN27TestHexIO_testJunkStartCodeD2Ev:0000000000000000 _ZN27TestHexIO_testJunkStartCodeD1Ev
     /tmp/ccvCS24P.s:10098  .text._ZN27TestHexIO_testJunkStartCodeD0Ev:0000000000000000 _ZN27TestHexIO_testJunkStartCodeD0Ev
     /tmp/ccvCS24P.s:10064  .text._ZN27TestHexIO_testJunkStartCodeD2Ev:0000000000000000 _ZN27TestHexIO_testJunkStartCodeD2Ev
     /tmp/ccvCS24P.s:10631  .data.rel.ro._ZTI22TestHexIO_testValidEOF:0000000000000000 _ZTI22TestHexIO_testValidEOF
     /tmp/ccvCS24P.s:10177  .text._ZN22TestHexIO_testValidEOFD2Ev:0000000000000000 _ZN22TestHexIO_testValidEOFD1Ev
     /tmp/ccvCS24P.s:10211  .text._ZN22TestHexIO_testValidEOFD0Ev:0000000000000000 _ZN22TestHexIO_testValidEOFD0Ev
     /tmp/ccvCS24P.s:10177  .text._ZN22TestHexIO_testValidEOFD2Ev:0000000000000000 _ZN22TestHexIO_testValidEOFD2Ev
     /tmp/ccvCS24P.s:10647  .data.rel.ro._ZTI27TestHexIO_testValidDataLine:0000000000000000 _ZTI27TestHexIO_testValidDataLine
     /tmp/ccvCS24P.s:10290  .text._ZN27TestHexIO_testValidDataLineD2Ev:0000000000000000 _ZN27TestHexIO_testValidDataLineD1Ev
     /tmp/ccvCS24P.s:10324  .text._ZN27TestHexIO_testValidDataLineD0Ev:0000000000000000 _ZN27TestHexIO_testValidDataLineD0Ev
     /tmp/ccvCS24P.s:10290  .text._ZN27TestHexIO_testValidDataLineD2Ev:0000000000000000 _ZN27TestHexIO_testValidDataLineD2Ev
     /tmp/ccvCS24P.s:10663  .data.rel.ro._ZTIN8UnitTest15MemoryOutStreamE:0000000000000000 _ZTIN8UnitTest15MemoryOutStreamE
     /tmp/ccvCS24P.s:10422  .data.rel.ro._ZTCN8UnitTest15MemoryOutStreamE0_NSt7__cxx1119basic_ostringstreamIcSt11char_traitsIcESaIcEEE:0000000000000000 _ZTCN8UnitTest15MemoryOutStreamE0_NSt7__cxx1119basic_ostringstreamIcSt11char_traitsIcESaIcEEE
     /tmp/ccvCS24P.s:10439  .data.rel.ro._ZTCN8UnitTest15MemoryOutStreamE0_So:0000000000000000 _ZTCN8UnitTest15MemoryOutStreamE0_So
     /tmp/ccvCS24P.s:10464  .rodata._ZTS28TestHexIO_testDeriveWriteMap:0000000000000000 _ZTS28TestHexIO_testDeriveWriteMap
     /tmp/ccvCS24P.s:10480  .rodata._ZTS23TestHexIO_testRoundTrip:0000000000000000 _ZTS23TestHexIO_testRoundTrip
     /tmp/ccvCS24P.s:10496  .rodata._ZTS25TestHexIO_testCorruptLine:0000000000000000 _ZTS25TestHexIO_testCorruptLine
     /tmp/ccvCS24P.s:10512  .rodata._ZTS25TestHexIO_testBadChecksum:0000000000000000 _ZTS25TestHexIO_testBadChecksum
     /tmp/ccvCS24P.s:10528  .rodata._ZTS26TestHexIO_testJunkChecksum:0000000000000000 _ZTS26TestHexIO_testJunkChecksum
     /tmp/ccvCS24P.s:10544  .rodata._ZTS26TestHexIO_testJunkDataByte:0000000000000000 _ZTS26TestHexIO_testJunkDataByte
     /tmp/ccvCS24P.s:10560  .rodata._ZTS25TestHexIO_testJunkRecType:0000000000000000 _ZTS25TestHexIO_testJunkRecType
     /tmp/ccvCS24P.s:10576  .rodata._ZTS25TestHexIO_testJunkAddrLsb:0000000000000000 _ZTS25TestHexIO_testJunkAddrLsb
     /tmp/ccvCS24P.s:10592  .rodata._ZTS25TestHexIO_testJunkAddrMsb:0000000000000000 _ZTS25TestHexIO_testJunkAddrMsb
     /tmp/ccvCS24P.s:10608  .rodata._ZTS27TestHexIO_testJunkByteCount:0000000000000000 _ZTS27TestHexIO_testJunkByteCount
     /tmp/ccvCS24P.s:10624  .rodata._ZTS27TestHexIO_testJunkStartCode:0000000000000000 _ZTS27TestHexIO_testJunkStartCode
     /tmp/ccvCS24P.s:10640  .rodata._ZTS22TestHexIO_testValidEOF:0000000000000000 _ZTS22TestHexIO_testValidEOF
     /tmp/ccvCS24P.s:10656  .rodata._ZTS27TestHexIO_testValidDataLine:0000000000000000 _ZTS27TestHexIO_testValidDataLine
     /tmp/ccvCS24P.s:10672  .rodata._ZTSN8UnitTest15MemoryOutStreamE:0000000000000000 _ZTSN8UnitTest15MemoryOutStreamE
     /tmp/ccvCS24P.s:10676  .text:000000000000341f _Z41__static_initialization_and_destruction_0ii
     /tmp/ccvCS24P.s:10952  .text:00000000000038a9 _GLOBAL__sub_I_testHexIO_testValidDataLineInstance
                           .group:0000000000000000 _ZN27TestHexIO_testValidDataLineC5Ev
                           .group:0000000000000000 _ZN22TestHexIO_testValidEOFC5Ev
                           .group:0000000000000000 _ZN27TestHexIO_testJunkStartCodeC5Ev
                           .group:0000000000000000 _ZN27TestHexIO_testJunkByteCountC5Ev
                           .group:0000000000000000 _ZN25TestHexIO_testJunkAddrMsbC5Ev
                           .group:0000000000000000 _ZN25TestHexIO_testJunkAddrLsbC5Ev
                           .group:0000000000000000 _ZN25TestHexIO_testJunkRecTypeC5Ev
                           .group:0000000000000000 _ZN26TestHexIO_testJunkDataByteC5Ev
                           .group:0000000000000000 _ZN26TestHexIO_testJunkChecksumC5Ev
                           .group:0000000000000000 _ZN25TestHexIO_testBadChecksumC5Ev
                           .group:0000000000000000 _ZN25TestHexIO_testCorruptLineC5Ev
                           .group:0000000000000000 _ZN23TestHexIO_testRoundTripC5Ev
                           .group:0000000000000000 _ZN28TestHexIO_testDeriveWriteMapC5Ev
                           .group:0000000000000000 _ZNSt4fposI11__mbstate_tEC5Ev
                           .group:0000000000000000 _ZN28TestHexIO_testDeriveWriteMapD5Ev
                           .group:0000000000000000 _ZN23TestHexIO_testRoundTripD5Ev
                           .group:0000000000000000 _ZN25TestHexIO_testCorruptLineD5Ev
                           .group:0000000000000000 _ZN25TestHexIO_testBadChecksumD5Ev
                           .group:0000000000000000 _ZN26TestHexIO_testJunkChecksumD5Ev
                           .group:0000000000000000 _ZN26TestHexIO_testJunkDataByteD5Ev
                           .group:0000000000000000 _ZN25TestHexIO_testJunkRecTypeD5Ev
                           .group:0000000000000000 _ZN25TestHexIO_testJunkAddrLsbD5Ev
                           .group:0000000000000000 _ZN25TestHexIO_testJunkAddrMsbD5Ev
                           .group:0000000000000000 _ZN27TestHexIO_testJunkByteCountD5Ev
                           .group:0000000000000000 _ZN27TestHexIO_testJunkStartCodeD5Ev
                           .group:0000000000000000 _ZN22TestHexIO_testValidEOFD5Ev
                           .group:0000000000000000 _ZN27TestHexIO_testValidDataLineD5Ev

UNDEFINED SYMBOLS
_ZNSt9basic_iosIcSt11char_traitsIcEEC2Ev
_ZNSt7__cxx1119basic_ostringstreamIcSt11char_traitsIcESaIcEEC2Ev
_ZNSt7__cxx1112basic_stringIcSt11char_traitsIcESaIcEEC1Ev
_ZNSt7__cxx1119basic_ostringstreamIcSt11char_traitsIcESaIcEED2Ev
_ZNSt9basic_iosIcSt11char_traitsIcEED2Ev
_Unwind_Resume
__gxx_personality_v0
_ZN8UnitTest4TestC2EPKcS2_S2_i
bufInitialise
_ZN8UnitTest11CurrentTest7DetailsEv
_ZN8UnitTest11TestDetailsC1ERKS0_i
_ZN8UnitTest11CurrentTest7ResultsEv
bufProcessLine
bufDestroy
__cxa_begin_catch
_ZN8UnitTest11TestResults13OnTestFailureERKNS_11TestDetailsEPKc
__cxa_end_catch
__stack_chk_fail
_ZNSt7__cxx1112basic_stringIcSt11char_traitsIcESaIcEEpLEPKc
_ZNSt7__cxx1112basic_stringIcSt11char_traitsIcESaIcEEpLEc
bufWriteToIntelHexFile
_ZNSt14basic_ifstreamIcSt11char_traitsIcEEC1Ev
_ZNSt14basic_ifstreamIcSt11char_traitsIcEE4openEPKcSt13_Ios_Openmode
_ZNSt14basic_ifstreamIcSt11char_traitsIcEE7is_openEv
_ZNSi5tellgEv
_ZNKSt7__cxx1112basic_stringIcSt11char_traitsIcESaIcEE4sizeEv
_Znam
_ZNSi5seekgElSt12_Ios_Seekdir
_ZNSi4readEPcl
_ZNSt14basic_ifstreamIcSt11char_traitsIcEE5closeEv
_ZNKSt7__cxx1112basic_stringIcSt11char_traitsIcESaIcEE5c_strEv
bufReadFromIntelHexFile
_ZNSt14basic_ifstreamIcSt11char_traitsIcEED1Ev
_ZNSt7__cxx1112basic_stringIcSt11char_traitsIcESaIcEED1Ev
strlen
bufWriteBlock
bufDeriveMask
_ZdlPv
_ZStlsISt11char_traitsIcEERSt13basic_ostreamIcT_ES5_PKc
_ZNSolsEi
_ZNK8UnitTest15MemoryOutStream7GetTextEv
_ZStlsISt11char_traitsIcEERSt13basic_ostreamIcT_ES5_h
_ZNSolsEm
_ZNSolsEj
_ZStlsISt11char_traitsIcEERSt13basic_ostreamIcT_ES5_c
_ZN8UnitTest4TestD2Ev
_ZTINSt7__cxx1119basic_ostringstreamIcSt11char_traitsIcESaIcEEE
_ZTISo
_ZTVN10__cxxabiv120__si_class_type_infoE
_ZTIN8UnitTest4TestE
__dso_handle
__cxa_atexit
_ZN8UnitTest4Test11GetTestListEv
_ZN8UnitTest9ListAdderC1ERNS_8TestListEPNS_4TestE
