   1              		.file	"testBinIO.cpp"
   2              		.text
   3              	.Ltext0:
   4              		.file 0 "/home/asoreyh/Dropbox/projects/lago/acqua/nexys/src/makestuff/libs/libbuffer/tests" "test
   5              		.section	.text._ZStorSt13_Ios_OpenmodeS_,"axG",@progbits,_ZStorSt13_Ios_OpenmodeS_,comdat
   6              		.weak	_ZStorSt13_Ios_OpenmodeS_
   8              	_ZStorSt13_Ios_OpenmodeS_:
   9              	.LFB714:
  10              		.file 1 "/usr/include/c++/12/bits/ios_base.h"
   1:/usr/include/c++/12/bits/ios_base.h **** // Iostreams base classes -*- C++ -*-
   2:/usr/include/c++/12/bits/ios_base.h **** 
   3:/usr/include/c++/12/bits/ios_base.h **** // Copyright (C) 1997-2022 Free Software Foundation, Inc.
   4:/usr/include/c++/12/bits/ios_base.h **** //
   5:/usr/include/c++/12/bits/ios_base.h **** // This file is part of the GNU ISO C++ Library.  This library is free
   6:/usr/include/c++/12/bits/ios_base.h **** // software; you can redistribute it and/or modify it under the
   7:/usr/include/c++/12/bits/ios_base.h **** // terms of the GNU General Public License as published by the
   8:/usr/include/c++/12/bits/ios_base.h **** // Free Software Foundation; either version 3, or (at your option)
   9:/usr/include/c++/12/bits/ios_base.h **** // any later version.
  10:/usr/include/c++/12/bits/ios_base.h **** 
  11:/usr/include/c++/12/bits/ios_base.h **** // This library is distributed in the hope that it will be useful,
  12:/usr/include/c++/12/bits/ios_base.h **** // but WITHOUT ANY WARRANTY; without even the implied warranty of
  13:/usr/include/c++/12/bits/ios_base.h **** // MERCHANTABILITY or FITNESS FOR A PARTICULAR PURPOSE.  See the
  14:/usr/include/c++/12/bits/ios_base.h **** // GNU General Public License for more details.
  15:/usr/include/c++/12/bits/ios_base.h **** 
  16:/usr/include/c++/12/bits/ios_base.h **** // Under Section 7 of GPL version 3, you are granted additional
  17:/usr/include/c++/12/bits/ios_base.h **** // permissions described in the GCC Runtime Library Exception, version
  18:/usr/include/c++/12/bits/ios_base.h **** // 3.1, as published by the Free Software Foundation.
  19:/usr/include/c++/12/bits/ios_base.h **** 
  20:/usr/include/c++/12/bits/ios_base.h **** // You should have received a copy of the GNU General Public License and
  21:/usr/include/c++/12/bits/ios_base.h **** // a copy of the GCC Runtime Library Exception along with this program;
  22:/usr/include/c++/12/bits/ios_base.h **** // see the files COPYING3 and COPYING.RUNTIME respectively.  If not, see
  23:/usr/include/c++/12/bits/ios_base.h **** // <http://www.gnu.org/licenses/>.
  24:/usr/include/c++/12/bits/ios_base.h **** 
  25:/usr/include/c++/12/bits/ios_base.h **** /** @file bits/ios_base.h
  26:/usr/include/c++/12/bits/ios_base.h ****  *  This is an internal header file, included by other library headers.
  27:/usr/include/c++/12/bits/ios_base.h ****  *  Do not attempt to use it directly. @headername{ios}
  28:/usr/include/c++/12/bits/ios_base.h ****  */
  29:/usr/include/c++/12/bits/ios_base.h **** 
  30:/usr/include/c++/12/bits/ios_base.h **** //
  31:/usr/include/c++/12/bits/ios_base.h **** // ISO C++ 14882: 27.4  Iostreams base classes
  32:/usr/include/c++/12/bits/ios_base.h **** //
  33:/usr/include/c++/12/bits/ios_base.h **** 
  34:/usr/include/c++/12/bits/ios_base.h **** #ifndef _IOS_BASE_H
  35:/usr/include/c++/12/bits/ios_base.h **** #define _IOS_BASE_H 1
  36:/usr/include/c++/12/bits/ios_base.h **** 
  37:/usr/include/c++/12/bits/ios_base.h **** #pragma GCC system_header
  38:/usr/include/c++/12/bits/ios_base.h **** 
  39:/usr/include/c++/12/bits/ios_base.h **** #include <ext/atomicity.h>
  40:/usr/include/c++/12/bits/ios_base.h **** #include <bits/localefwd.h>
  41:/usr/include/c++/12/bits/ios_base.h **** #include <bits/locale_classes.h>
  42:/usr/include/c++/12/bits/ios_base.h **** 
  43:/usr/include/c++/12/bits/ios_base.h **** #if __cplusplus < 201103L
  44:/usr/include/c++/12/bits/ios_base.h **** # include <stdexcept>
  45:/usr/include/c++/12/bits/ios_base.h **** #else
  46:/usr/include/c++/12/bits/ios_base.h **** # include <system_error>
  47:/usr/include/c++/12/bits/ios_base.h **** #endif
  48:/usr/include/c++/12/bits/ios_base.h **** 
  49:/usr/include/c++/12/bits/ios_base.h **** namespace std _GLIBCXX_VISIBILITY(default)
  50:/usr/include/c++/12/bits/ios_base.h **** {
  51:/usr/include/c++/12/bits/ios_base.h **** _GLIBCXX_BEGIN_NAMESPACE_VERSION
  52:/usr/include/c++/12/bits/ios_base.h **** 
  53:/usr/include/c++/12/bits/ios_base.h ****   // The following definitions of bitmask types are enums, not ints,
  54:/usr/include/c++/12/bits/ios_base.h ****   // as permitted (but not required) in the standard, in order to provide
  55:/usr/include/c++/12/bits/ios_base.h ****   // better type safety in iostream calls.  A side effect is that in C++98
  56:/usr/include/c++/12/bits/ios_base.h ****   // expressions involving them are not compile-time constants.
  57:/usr/include/c++/12/bits/ios_base.h ****   enum _Ios_Fmtflags 
  58:/usr/include/c++/12/bits/ios_base.h ****     { 
  59:/usr/include/c++/12/bits/ios_base.h ****       _S_boolalpha 	= 1L << 0,
  60:/usr/include/c++/12/bits/ios_base.h ****       _S_dec 		= 1L << 1,
  61:/usr/include/c++/12/bits/ios_base.h ****       _S_fixed 		= 1L << 2,
  62:/usr/include/c++/12/bits/ios_base.h ****       _S_hex 		= 1L << 3,
  63:/usr/include/c++/12/bits/ios_base.h ****       _S_internal 	= 1L << 4,
  64:/usr/include/c++/12/bits/ios_base.h ****       _S_left 		= 1L << 5,
  65:/usr/include/c++/12/bits/ios_base.h ****       _S_oct 		= 1L << 6,
  66:/usr/include/c++/12/bits/ios_base.h ****       _S_right 		= 1L << 7,
  67:/usr/include/c++/12/bits/ios_base.h ****       _S_scientific 	= 1L << 8,
  68:/usr/include/c++/12/bits/ios_base.h ****       _S_showbase 	= 1L << 9,
  69:/usr/include/c++/12/bits/ios_base.h ****       _S_showpoint 	= 1L << 10,
  70:/usr/include/c++/12/bits/ios_base.h ****       _S_showpos 	= 1L << 11,
  71:/usr/include/c++/12/bits/ios_base.h ****       _S_skipws 	= 1L << 12,
  72:/usr/include/c++/12/bits/ios_base.h ****       _S_unitbuf 	= 1L << 13,
  73:/usr/include/c++/12/bits/ios_base.h ****       _S_uppercase 	= 1L << 14,
  74:/usr/include/c++/12/bits/ios_base.h ****       _S_adjustfield 	= _S_left | _S_right | _S_internal,
  75:/usr/include/c++/12/bits/ios_base.h ****       _S_basefield 	= _S_dec | _S_oct | _S_hex,
  76:/usr/include/c++/12/bits/ios_base.h ****       _S_floatfield 	= _S_scientific | _S_fixed,
  77:/usr/include/c++/12/bits/ios_base.h ****       _S_ios_fmtflags_end = 1L << 16,
  78:/usr/include/c++/12/bits/ios_base.h ****       _S_ios_fmtflags_max = __INT_MAX__,
  79:/usr/include/c++/12/bits/ios_base.h ****       _S_ios_fmtflags_min = ~__INT_MAX__
  80:/usr/include/c++/12/bits/ios_base.h ****     };
  81:/usr/include/c++/12/bits/ios_base.h **** 
  82:/usr/include/c++/12/bits/ios_base.h ****   inline _GLIBCXX_CONSTEXPR _Ios_Fmtflags
  83:/usr/include/c++/12/bits/ios_base.h ****   operator&(_Ios_Fmtflags __a, _Ios_Fmtflags __b)
  84:/usr/include/c++/12/bits/ios_base.h ****   { return _Ios_Fmtflags(static_cast<int>(__a) & static_cast<int>(__b)); }
  85:/usr/include/c++/12/bits/ios_base.h **** 
  86:/usr/include/c++/12/bits/ios_base.h ****   inline _GLIBCXX_CONSTEXPR _Ios_Fmtflags
  87:/usr/include/c++/12/bits/ios_base.h ****   operator|(_Ios_Fmtflags __a, _Ios_Fmtflags __b)
  88:/usr/include/c++/12/bits/ios_base.h ****   { return _Ios_Fmtflags(static_cast<int>(__a) | static_cast<int>(__b)); }
  89:/usr/include/c++/12/bits/ios_base.h **** 
  90:/usr/include/c++/12/bits/ios_base.h ****   inline _GLIBCXX_CONSTEXPR _Ios_Fmtflags
  91:/usr/include/c++/12/bits/ios_base.h ****   operator^(_Ios_Fmtflags __a, _Ios_Fmtflags __b)
  92:/usr/include/c++/12/bits/ios_base.h ****   { return _Ios_Fmtflags(static_cast<int>(__a) ^ static_cast<int>(__b)); }
  93:/usr/include/c++/12/bits/ios_base.h **** 
  94:/usr/include/c++/12/bits/ios_base.h ****   inline _GLIBCXX_CONSTEXPR _Ios_Fmtflags
  95:/usr/include/c++/12/bits/ios_base.h ****   operator~(_Ios_Fmtflags __a)
  96:/usr/include/c++/12/bits/ios_base.h ****   { return _Ios_Fmtflags(~static_cast<int>(__a)); }
  97:/usr/include/c++/12/bits/ios_base.h **** 
  98:/usr/include/c++/12/bits/ios_base.h ****   inline const _Ios_Fmtflags&
  99:/usr/include/c++/12/bits/ios_base.h ****   operator|=(_Ios_Fmtflags& __a, _Ios_Fmtflags __b)
 100:/usr/include/c++/12/bits/ios_base.h ****   { return __a = __a | __b; }
 101:/usr/include/c++/12/bits/ios_base.h **** 
 102:/usr/include/c++/12/bits/ios_base.h ****   inline const _Ios_Fmtflags&
 103:/usr/include/c++/12/bits/ios_base.h ****   operator&=(_Ios_Fmtflags& __a, _Ios_Fmtflags __b)
 104:/usr/include/c++/12/bits/ios_base.h ****   { return __a = __a & __b; }
 105:/usr/include/c++/12/bits/ios_base.h **** 
 106:/usr/include/c++/12/bits/ios_base.h ****   inline const _Ios_Fmtflags&
 107:/usr/include/c++/12/bits/ios_base.h ****   operator^=(_Ios_Fmtflags& __a, _Ios_Fmtflags __b)
 108:/usr/include/c++/12/bits/ios_base.h ****   { return __a = __a ^ __b; }
 109:/usr/include/c++/12/bits/ios_base.h **** 
 110:/usr/include/c++/12/bits/ios_base.h **** 
 111:/usr/include/c++/12/bits/ios_base.h ****   enum _Ios_Openmode 
 112:/usr/include/c++/12/bits/ios_base.h ****     { 
 113:/usr/include/c++/12/bits/ios_base.h ****       _S_app 		= 1L << 0,
 114:/usr/include/c++/12/bits/ios_base.h ****       _S_ate 		= 1L << 1,
 115:/usr/include/c++/12/bits/ios_base.h ****       _S_bin 		= 1L << 2,
 116:/usr/include/c++/12/bits/ios_base.h ****       _S_in 		= 1L << 3,
 117:/usr/include/c++/12/bits/ios_base.h ****       _S_out 		= 1L << 4,
 118:/usr/include/c++/12/bits/ios_base.h ****       _S_trunc 		= 1L << 5,
 119:/usr/include/c++/12/bits/ios_base.h ****       _S_noreplace 	= 1L << 6,
 120:/usr/include/c++/12/bits/ios_base.h ****       _S_ios_openmode_end = 1L << 16,
 121:/usr/include/c++/12/bits/ios_base.h ****       _S_ios_openmode_max = __INT_MAX__,
 122:/usr/include/c++/12/bits/ios_base.h ****       _S_ios_openmode_min = ~__INT_MAX__
 123:/usr/include/c++/12/bits/ios_base.h ****     };
 124:/usr/include/c++/12/bits/ios_base.h **** 
 125:/usr/include/c++/12/bits/ios_base.h ****   inline _GLIBCXX_CONSTEXPR _Ios_Openmode
 126:/usr/include/c++/12/bits/ios_base.h ****   operator&(_Ios_Openmode __a, _Ios_Openmode __b)
 127:/usr/include/c++/12/bits/ios_base.h ****   { return _Ios_Openmode(static_cast<int>(__a) & static_cast<int>(__b)); }
 128:/usr/include/c++/12/bits/ios_base.h **** 
 129:/usr/include/c++/12/bits/ios_base.h ****   inline _GLIBCXX_CONSTEXPR _Ios_Openmode
 130:/usr/include/c++/12/bits/ios_base.h ****   operator|(_Ios_Openmode __a, _Ios_Openmode __b)
 131:/usr/include/c++/12/bits/ios_base.h ****   { return _Ios_Openmode(static_cast<int>(__a) | static_cast<int>(__b)); }
  11              		.loc 1 131 3
  12              		.cfi_startproc
  13 0000 F30F1EFA 		endbr64
  14 0004 55       		pushq	%rbp
  15              		.cfi_def_cfa_offset 16
  16              		.cfi_offset 6, -16
  17 0005 4889E5   		movq	%rsp, %rbp
  18              		.cfi_def_cfa_register 6
  19 0008 897DFC   		movl	%edi, -4(%rbp)
  20 000b 8975F8   		movl	%esi, -8(%rbp)
  21              		.loc 1 131 71
  22 000e 8B45FC   		movl	-4(%rbp), %eax
  23 0011 0B45F8   		orl	-8(%rbp), %eax
  24              		.loc 1 131 74
  25 0014 5D       		popq	%rbp
  26              		.cfi_def_cfa 7, 8
  27 0015 C3       		ret
  28              		.cfi_endproc
  29              	.LFE714:
  31              		.section	.rodata
  32              	.LC0:
  33 0000 44656661 		.string	"DefaultSuite"
  33      756C7453 
  33      75697465 
  33      00
  34              		.section	.text._ZN13UnitTestSuite12GetSuiteNameEv,"axG",@progbits,_ZN13UnitTestSuite12GetSuiteName
  35              		.weak	_ZN13UnitTestSuite12GetSuiteNameEv
  37              	_ZN13UnitTestSuite12GetSuiteNameEv:
  38              	.LFB1159:
  39              		.file 2 "/home/asoreyh/Dropbox/projects/lago/acqua/nexys/src/makestuff/libs/libutpp/TestSuite.h"
   1:/home/asoreyh/Dropbox/projects/lago/acqua/nexys/src/makestuff/libs/libutpp/TestSuite.h **** #ifndef UNITTEST_TESTSUITE_H
   2:/home/asoreyh/Dropbox/projects/lago/acqua/nexys/src/makestuff/libs/libutpp/TestSuite.h **** #define UNITTEST_TESTSUITE_H
   3:/home/asoreyh/Dropbox/projects/lago/acqua/nexys/src/makestuff/libs/libutpp/TestSuite.h **** 
   4:/home/asoreyh/Dropbox/projects/lago/acqua/nexys/src/makestuff/libs/libutpp/TestSuite.h **** namespace UnitTestSuite {
   5:/home/asoreyh/Dropbox/projects/lago/acqua/nexys/src/makestuff/libs/libutpp/TestSuite.h **** 
   6:/home/asoreyh/Dropbox/projects/lago/acqua/nexys/src/makestuff/libs/libutpp/TestSuite.h ****     inline char const* GetSuiteName ()
   7:/home/asoreyh/Dropbox/projects/lago/acqua/nexys/src/makestuff/libs/libutpp/TestSuite.h ****     {
  40              		.loc 2 7 5
  41              		.cfi_startproc
  42 0000 F30F1EFA 		endbr64
  43 0004 55       		pushq	%rbp
  44              		.cfi_def_cfa_offset 16
  45              		.cfi_offset 6, -16
  46 0005 4889E5   		movq	%rsp, %rbp
  47              		.cfi_def_cfa_register 6
   8:/home/asoreyh/Dropbox/projects/lago/acqua/nexys/src/makestuff/libs/libutpp/TestSuite.h ****         return "DefaultSuite";
  48              		.loc 2 8 16
  49 0008 488D0500 		leaq	.LC0(%rip), %rax
  49      000000
   9:/home/asoreyh/Dropbox/projects/lago/acqua/nexys/src/makestuff/libs/libutpp/TestSuite.h ****     }
  50              		.loc 2 9 5
  51 000f 5D       		popq	%rbp
  52              		.cfi_def_cfa 7, 8
  53 0010 C3       		ret
  54              		.cfi_endproc
  55              	.LFE1159:
  57              		.section	.text._ZN8UnitTest15MemoryOutStreamC1Ev,"axG",@progbits,_ZN8UnitTest15MemoryOutStreamC1Ev
  58              		.align 2
  59              		.weak	_ZN8UnitTest15MemoryOutStreamC1Ev
  61              	_ZN8UnitTest15MemoryOutStreamC1Ev:
  62              	.LFB1200:
  63              		.file 3 "/home/asoreyh/Dropbox/projects/lago/acqua/nexys/src/makestuff/libs/libutpp/MemoryOutStrea
   1:/home/asoreyh/Dropbox/projects/lago/acqua/nexys/src/makestuff/libs/libutpp/MemoryOutStream.h **** #ifndef UNITTEST_MEMORYOUTSTREAM_H
   2:/home/asoreyh/Dropbox/projects/lago/acqua/nexys/src/makestuff/libs/libutpp/MemoryOutStream.h **** #define UNITTEST_MEMORYOUTSTREAM_H
   3:/home/asoreyh/Dropbox/projects/lago/acqua/nexys/src/makestuff/libs/libutpp/MemoryOutStream.h **** 
   4:/home/asoreyh/Dropbox/projects/lago/acqua/nexys/src/makestuff/libs/libutpp/MemoryOutStream.h **** #include "Config.h"
   5:/home/asoreyh/Dropbox/projects/lago/acqua/nexys/src/makestuff/libs/libutpp/MemoryOutStream.h **** 
   6:/home/asoreyh/Dropbox/projects/lago/acqua/nexys/src/makestuff/libs/libutpp/MemoryOutStream.h **** #ifndef UNITTEST_USE_CUSTOM_STREAMS
   7:/home/asoreyh/Dropbox/projects/lago/acqua/nexys/src/makestuff/libs/libutpp/MemoryOutStream.h **** 
   8:/home/asoreyh/Dropbox/projects/lago/acqua/nexys/src/makestuff/libs/libutpp/MemoryOutStream.h **** #include <sstream>
   9:/home/asoreyh/Dropbox/projects/lago/acqua/nexys/src/makestuff/libs/libutpp/MemoryOutStream.h **** 
  10:/home/asoreyh/Dropbox/projects/lago/acqua/nexys/src/makestuff/libs/libutpp/MemoryOutStream.h **** namespace UnitTest
  11:/home/asoreyh/Dropbox/projects/lago/acqua/nexys/src/makestuff/libs/libutpp/MemoryOutStream.h **** {
  12:/home/asoreyh/Dropbox/projects/lago/acqua/nexys/src/makestuff/libs/libutpp/MemoryOutStream.h **** 
  13:/home/asoreyh/Dropbox/projects/lago/acqua/nexys/src/makestuff/libs/libutpp/MemoryOutStream.h **** class MemoryOutStream : public std::ostringstream
  14:/home/asoreyh/Dropbox/projects/lago/acqua/nexys/src/makestuff/libs/libutpp/MemoryOutStream.h **** {
  15:/home/asoreyh/Dropbox/projects/lago/acqua/nexys/src/makestuff/libs/libutpp/MemoryOutStream.h **** public:
  16:/home/asoreyh/Dropbox/projects/lago/acqua/nexys/src/makestuff/libs/libutpp/MemoryOutStream.h ****     MemoryOutStream() {}
  64              		.loc 3 16 5
  65              		.cfi_startproc
  66              		.cfi_personality 0x9b,DW.ref.__gxx_personality_v0
  67              		.cfi_lsda 0x1b,.LLSDA1200
  68 0000 F30F1EFA 		endbr64
  69 0004 55       		pushq	%rbp
  70              		.cfi_def_cfa_offset 16
  71              		.cfi_offset 6, -16
  72 0005 4889E5   		movq	%rsp, %rbp
  73              		.cfi_def_cfa_register 6
  74 0008 53       		pushq	%rbx
  75 0009 4883EC18 		subq	$24, %rsp
  76              		.cfi_offset 3, -24
  77 000d 48897DE8 		movq	%rdi, -24(%rbp)
  78              	.LBB5:
  79              		.loc 3 16 23
  80 0011 488B45E8 		movq	-24(%rbp), %rax
  81 0015 48059000 		addq	$144, %rax
  81      0000
  82 001b 4889C7   		movq	%rax, %rdi
  83              	.LEHB0:
  84 001e E8000000 		call	_ZNSt9basic_iosIcSt11char_traitsIcEEC2Ev@PLT
  84      00
  85              	.LEHE0:
  86 0023 488B45E8 		movq	-24(%rbp), %rax
  87 0027 488D1500 		leaq	8+_ZTTN8UnitTest15MemoryOutStreamE(%rip), %rdx
  87      000000
  88 002e 4889D6   		movq	%rdx, %rsi
  89 0031 4889C7   		movq	%rax, %rdi
  90              	.LEHB1:
  91 0034 E8000000 		call	_ZNSt7__cxx1119basic_ostringstreamIcSt11char_traitsIcESaIcEEC2Ev@PLT
  91      00
  92              	.LEHE1:
  93              		.loc 3 16 23 is_stmt 0 discriminator 2
  94 0039 488D1500 		leaq	24+_ZTVN8UnitTest15MemoryOutStreamE(%rip), %rdx
  94      000000
  95 0040 488B45E8 		movq	-24(%rbp), %rax
  96 0044 488910   		movq	%rdx, (%rax)
  97 0047 488B45E8 		movq	-24(%rbp), %rax
  98 004b 48059000 		addq	$144, %rax
  98      0000
  99 0051 488D1500 		leaq	64+_ZTVN8UnitTest15MemoryOutStreamE(%rip), %rdx
  99      000000
 100 0058 488910   		movq	%rdx, (%rax)
 101 005b 488B45E8 		movq	-24(%rbp), %rax
 102 005f 4883C070 		addq	$112, %rax
 103 0063 4889C7   		movq	%rax, %rdi
 104              	.LEHB2:
 105 0066 E8000000 		call	_ZNSt7__cxx1112basic_stringIcSt11char_traitsIcESaIcEEC1Ev@PLT
 105      00
 106              	.LEHE2:
 107              	.LBE5:
 108              		.loc 3 16 24 is_stmt 1
 109 006b EB43     		jmp	.L10
 110              	.L9:
 111 006d F30F1EFA 		endbr64
 112              	.LBB6:
 113 0071 4889C3   		movq	%rax, %rbx
 114 0074 488B45E8 		movq	-24(%rbp), %rax
 115 0078 488D1500 		leaq	8+_ZTTN8UnitTest15MemoryOutStreamE(%rip), %rdx
 115      000000
 116 007f 4889D6   		movq	%rdx, %rsi
 117 0082 4889C7   		movq	%rax, %rdi
 118 0085 E8000000 		call	_ZNSt7__cxx1119basic_ostringstreamIcSt11char_traitsIcESaIcEED2Ev@PLT
 118      00
 119 008a EB07     		jmp	.L7
 120              	.L8:
 121 008c F30F1EFA 		endbr64
 122 0090 4889C3   		movq	%rax, %rbx
 123              	.L7:
 124              		.loc 3 16 24 is_stmt 0 discriminator 1
 125 0093 488B45E8 		movq	-24(%rbp), %rax
 126 0097 48059000 		addq	$144, %rax
 126      0000
 127 009d 4889C7   		movq	%rax, %rdi
 128 00a0 E8000000 		call	_ZNSt9basic_iosIcSt11char_traitsIcEED2Ev@PLT
 128      00
 129 00a5 4889D8   		movq	%rbx, %rax
 130 00a8 4889C7   		movq	%rax, %rdi
 131              	.LEHB3:
 132 00ab E8000000 		call	_Unwind_Resume@PLT
 132      00
 133              	.LEHE3:
 134              	.L10:
 135              	.LBE6:
 136              		.loc 3 16 24
 137 00b0 488B5DF8 		movq	-8(%rbp), %rbx
 138 00b4 C9       		leave
 139              		.cfi_def_cfa 7, 8
 140 00b5 C3       		ret
 141              		.cfi_endproc
 142              	.LFE1200:
 143              		.globl	__gxx_personality_v0
 144              		.section	.gcc_except_table._ZN8UnitTest15MemoryOutStreamC1Ev,"aG",@progbits,_ZN8UnitTest15MemoryOu
 145              	.LLSDA1200:
 146 0000 FF       		.byte	0xff
 147 0001 FF       		.byte	0xff
 148 0002 01       		.byte	0x1
 149 0003 12       		.uleb128 .LLSDACSE1200-.LLSDACSB1200
 150              	.LLSDACSB1200:
 151 0004 1E       		.uleb128 .LEHB0-.LFB1200
 152 0005 05       		.uleb128 .LEHE0-.LEHB0
 153 0006 00       		.uleb128 0
 154 0007 00       		.uleb128 0
 155 0008 34       		.uleb128 .LEHB1-.LFB1200
 156 0009 05       		.uleb128 .LEHE1-.LEHB1
 157 000a 8C01     		.uleb128 .L8-.LFB1200
 158 000c 00       		.uleb128 0
 159 000d 66       		.uleb128 .LEHB2-.LFB1200
 160 000e 05       		.uleb128 .LEHE2-.LEHB2
 161 000f 6D       		.uleb128 .L9-.LFB1200
 162 0010 00       		.uleb128 0
 163 0011 AB01     		.uleb128 .LEHB3-.LFB1200
 164 0013 05       		.uleb128 .LEHE3-.LEHB3
 165 0014 00       		.uleb128 0
 166 0015 00       		.uleb128 0
 167              	.LLSDACSE1200:
 168              		.section	.text._ZN8UnitTest15MemoryOutStreamC1Ev,"axG",@progbits,_ZN8UnitTest15MemoryOutStreamC1Ev
 170              		.section	.rodata
 171              	.LC1:
 172 000d 74657374 		.string	"testBinIO.cpp"
 172      42696E49 
 172      4F2E6370 
 172      7000
 173              	.LC2:
 174 001b 42696E49 		.string	"BinIO_testReadNonExistentFile"
 174      4F5F7465 
 174      73745265 
 174      61644E6F 
 174      6E457869 
 175              		.section	.text._ZN33TestBinIO_testReadNonExistentFileC2Ev,"axG",@progbits,_ZN33TestBinIO_testReadN
 176              		.align 2
 177              		.weak	_ZN33TestBinIO_testReadNonExistentFileC2Ev
 179              	_ZN33TestBinIO_testReadNonExistentFileC2Ev:
 180              	.LFB1217:
 181              		.file 4 "testBinIO.cpp"
   1:testBinIO.cpp **** /*
   2:testBinIO.cpp ****  * Copyright (C) 2009-2012 Chris McClelland
   3:testBinIO.cpp ****  *
   4:testBinIO.cpp ****  * This program is free software: you can redistribute it and/or modify
   5:testBinIO.cpp ****  * it under the terms of the GNU Lesser General Public License as published by
   6:testBinIO.cpp ****  * the Free Software Foundation, either version 3 of the License, or
   7:testBinIO.cpp ****  * (at your option) any later version.
   8:testBinIO.cpp ****  *
   9:testBinIO.cpp ****  * This program is distributed in the hope that it will be useful,
  10:testBinIO.cpp ****  * but WITHOUT ANY WARRANTY; without even the implied warranty of
  11:testBinIO.cpp ****  * MERCHANTABILITY or FITNESS FOR A PARTICULAR PURPOSE.  See the
  12:testBinIO.cpp ****  * GNU Lesser General Public License for more details.
  13:testBinIO.cpp ****  *
  14:testBinIO.cpp ****  * You should have received a copy of the GNU Lesser General Public License
  15:testBinIO.cpp ****  * along with this program.  If not, see <http://www.gnu.org/licenses/>.
  16:testBinIO.cpp ****  */
  17:testBinIO.cpp **** #include <string.h>
  18:testBinIO.cpp **** #include <fstream>
  19:testBinIO.cpp **** #include <UnitTest++.h>
  20:testBinIO.cpp **** #include "../libbuffer.h"
  21:testBinIO.cpp **** 
  22:testBinIO.cpp **** using namespace std;
  23:testBinIO.cpp **** 
  24:testBinIO.cpp **** TEST(BinIO_testReadNonExistentFile) {
 182              		.loc 4 24 1 is_stmt 1
 183              		.cfi_startproc
 184 0000 F30F1EFA 		endbr64
 185 0004 55       		pushq	%rbp
 186              		.cfi_def_cfa_offset 16
 187              		.cfi_offset 6, -16
 188 0005 4889E5   		movq	%rsp, %rbp
 189              		.cfi_def_cfa_register 6
 190 0008 53       		pushq	%rbx
 191 0009 4883EC18 		subq	$24, %rsp
 192              		.cfi_offset 3, -24
 193 000d 48897DE8 		movq	%rdi, -24(%rbp)
 194              	.LBB7:
 195              		.loc 4 24 1
 196 0011 488B5DE8 		movq	-24(%rbp), %rbx
 197 0015 E8000000 		call	_ZN13UnitTestSuite12GetSuiteNameEv
 197      00
 198 001a 4889C2   		movq	%rax, %rdx
 199 001d 41B81800 		movl	$24, %r8d
 199      0000
 200 0023 488D0500 		leaq	.LC1(%rip), %rax
 200      000000
 201 002a 4889C1   		movq	%rax, %rcx
 202 002d 488D0500 		leaq	.LC2(%rip), %rax
 202      000000
 203 0034 4889C6   		movq	%rax, %rsi
 204 0037 4889DF   		movq	%rbx, %rdi
 205 003a E8000000 		call	_ZN8UnitTest4TestC2EPKcS2_S2_i@PLT
 205      00
 206 003f 488D1500 		leaq	16+_ZTV33TestBinIO_testReadNonExistentFile(%rip), %rdx
 206      000000
 207 0046 488B45E8 		movq	-24(%rbp), %rax
 208 004a 488910   		movq	%rdx, (%rax)
 209              	.LBE7:
 210 004d 90       		nop
 211 004e 488B5DF8 		movq	-8(%rbp), %rbx
 212 0052 C9       		leave
 213              		.cfi_def_cfa 7, 8
 214 0053 C3       		ret
 215              		.cfi_endproc
 216              	.LFE1217:
 218              		.weak	_ZN33TestBinIO_testReadNonExistentFileC1Ev
 219              		.set	_ZN33TestBinIO_testReadNonExistentFileC1Ev,_ZN33TestBinIO_testReadNonExistentFileC2Ev
 220              		.globl	testBinIO_testReadNonExistentFileInstance
 221              		.bss
 222              		.align 32
 225              	testBinIO_testReadNonExistentFileInstance:
 226 0000 00000000 		.zero	56
 226      00000000 
 226      00000000 
 226      00000000 
 226      00000000 
 227              		.globl	adderBinIO_testReadNonExistentFile
 230              	adderBinIO_testReadNonExistentFile:
 231 0038 00       		.zero	1
 232              		.section	.rodata
 233              	.LC3:
 234 0039 6E6F6E45 		.string	"nonExistentFile.bin"
 234      78697374 
 234      656E7446 
 234      696C652E 
 234      62696E00 
 235 004d 000000   		.align 8
 236              	.LC4:
 237 0050 556E6861 		.string	"Unhandled exception in CHECK_EQUAL(BUF_SUCCESS, status)"
 237      6E646C65 
 237      64206578 
 237      63657074 
 237      696F6E20 
 238              		.align 8
 239              	.LC5:
 240 0088 556E6861 		.string	"Unhandled exception in CHECK_EQUAL(BUF_FOPEN, status)"
 240      6E646C65 
 240      64206578 
 240      63657074 
 240      696F6E20 
 241              		.text
 242              		.align 2
 243              		.globl	_ZNK33TestBinIO_testReadNonExistentFile7RunImplEv
 245              	_ZNK33TestBinIO_testReadNonExistentFile7RunImplEv:
 246              	.LFB1219:
 247              		.loc 4 24 37
 248              		.cfi_startproc
 249              		.cfi_personality 0x9b,DW.ref.__gxx_personality_v0
 250              		.cfi_lsda 0x1b,.LLSDA1219
 251 0000 F30F1EFA 		endbr64
 252 0004 55       		pushq	%rbp
 253              		.cfi_def_cfa_offset 16
 254              		.cfi_offset 6, -16
 255 0005 4889E5   		movq	%rsp, %rbp
 256              		.cfi_def_cfa_register 6
 257 0008 53       		pushq	%rbx
 258 0009 4883EC78 		subq	$120, %rsp
 259              		.cfi_offset 3, -24
 260 000d 48897D88 		movq	%rdi, -120(%rbp)
 261              		.loc 4 24 37
 262 0011 64488B04 		movq	%fs:40, %rax
 262      25280000 
 262      00
 263 001a 488945E8 		movq	%rax, -24(%rbp)
 264 001e 31C0     		xorl	%eax, %eax
  25:testBinIO.cpp **** 	Buffer buf;
  26:testBinIO.cpp **** 	BufferStatus status = bufInitialise(&buf, 8, 0, NULL);
 265              		.loc 4 26 37
 266 0020 488D45A0 		leaq	-96(%rbp), %rax
 267 0024 B9000000 		movl	$0, %ecx
 267      00
 268 0029 BA000000 		movl	$0, %edx
 268      00
 269 002e BE080000 		movl	$8, %esi
 269      00
 270 0033 4889C7   		movq	%rax, %rdi
 271              	.LEHB4:
 272 0036 E8000000 		call	bufInitialise@PLT
 272      00
 273              	.LEHE4:
 274              		.loc 4 26 54
 275 003b 894598   		movl	%eax, -104(%rbp)
 276              	.LEHB5:
  27:testBinIO.cpp **** 	CHECK_EQUAL(BUF_SUCCESS, status);
 277              		.loc 4 27 2
 278 003e E8000000 		call	_ZN8UnitTest11CurrentTest7DetailsEv@PLT
 278      00
 279 0043 488B08   		movq	(%rax), %rcx
 280 0046 488D45C0 		leaq	-64(%rbp), %rax
 281 004a BA1B0000 		movl	$27, %edx
 281      00
 282 004f 4889CE   		movq	%rcx, %rsi
 283 0052 4889C7   		movq	%rax, %rdi
 284 0055 E8000000 		call	_ZN8UnitTest11TestDetailsC1ERKS0_i@PLT
 284      00
 285              		.loc 4 27 2 is_stmt 0 discriminator 4
 286 005a C7459C00 		movl	$0, -100(%rbp)
 286      000000
 287 0061 E8000000 		call	_ZN8UnitTest11CurrentTest7ResultsEv@PLT
 287      00
 288 0066 488B00   		movq	(%rax), %rax
 289 0069 488D4DC0 		leaq	-64(%rbp), %rcx
 290 006d 488D5598 		leaq	-104(%rbp), %rdx
 291 0071 488D759C 		leaq	-100(%rbp), %rsi
 292 0075 4889C7   		movq	%rax, %rdi
 293 0078 E8000000 		call	_ZN8UnitTest10CheckEqualI12BufferStatusS1_EEvRNS_11TestResultsERKT_RKT0_RKNS_11TestDetailsE
 293      00
 294              	.LEHE5:
 295              	.L14:
  28:testBinIO.cpp **** 	status = bufAppendFromBinaryFile(&buf, "nonExistentFile.bin", NULL);
 296              		.loc 4 28 34 is_stmt 1
 297 007d 488D45A0 		leaq	-96(%rbp), %rax
 298 0081 BA000000 		movl	$0, %edx
 298      00
 299 0086 488D0D00 		leaq	.LC3(%rip), %rcx
 299      000000
 300 008d 4889CE   		movq	%rcx, %rsi
 301 0090 4889C7   		movq	%rax, %rdi
 302              	.LEHB6:
 303 0093 E8000000 		call	bufAppendFromBinaryFile@PLT
 303      00
 304              	.LEHE6:
 305              		.loc 4 28 9
 306 0098 894598   		movl	%eax, -104(%rbp)
 307              	.LEHB7:
  29:testBinIO.cpp **** 	CHECK_EQUAL(BUF_FOPEN, status);
 308              		.loc 4 29 2
 309 009b E8000000 		call	_ZN8UnitTest11CurrentTest7DetailsEv@PLT
 309      00
 310 00a0 488B08   		movq	(%rax), %rcx
 311 00a3 488D45C0 		leaq	-64(%rbp), %rax
 312 00a7 BA1D0000 		movl	$29, %edx
 312      00
 313 00ac 4889CE   		movq	%rcx, %rsi
 314 00af 4889C7   		movq	%rax, %rdi
 315 00b2 E8000000 		call	_ZN8UnitTest11TestDetailsC1ERKS0_i@PLT
 315      00
 316              		.loc 4 29 2 is_stmt 0 discriminator 4
 317 00b7 C7459C02 		movl	$2, -100(%rbp)
 317      000000
 318 00be E8000000 		call	_ZN8UnitTest11CurrentTest7ResultsEv@PLT
 318      00
 319 00c3 488B00   		movq	(%rax), %rax
 320 00c6 488D4DC0 		leaq	-64(%rbp), %rcx
 321 00ca 488D5598 		leaq	-104(%rbp), %rdx
 322 00ce 488D759C 		leaq	-100(%rbp), %rsi
 323 00d2 4889C7   		movq	%rax, %rdi
 324 00d5 E8000000 		call	_ZN8UnitTest10CheckEqualI12BufferStatusS1_EEvRNS_11TestResultsERKT_RKT0_RKNS_11TestDetailsE
 324      00
 325              	.LEHE7:
 326              	.L17:
  30:testBinIO.cpp **** 	bufDestroy(&buf);
 327              		.loc 4 30 12 is_stmt 1
 328 00da 488D45A0 		leaq	-96(%rbp), %rax
 329 00de 4889C7   		movq	%rax, %rdi
 330              	.LEHB8:
 331 00e1 E8000000 		call	bufDestroy@PLT
 331      00
 332              	.LEHE8:
  31:testBinIO.cpp **** }
 333              		.loc 4 31 1
 334 00e6 90       		nop
 335 00e7 488B45E8 		movq	-24(%rbp), %rax
 336 00eb 64482B04 		subq	%fs:40, %rax
 336      25280000 
 336      00
 337 00f4 0F84D800 		je	.L19
 337      0000
 338 00fa E9CE0000 		jmp	.L24
 338      00
 339              	.L20:
 340 00ff F30F1EFA 		endbr64
  27:testBinIO.cpp **** 	status = bufAppendFromBinaryFile(&buf, "nonExistentFile.bin", NULL);
 341              		.loc 4 27 2
 342 0103 4889C7   		movq	%rax, %rdi
 343 0106 E8000000 		call	__cxa_begin_catch@PLT
 343      00
 344              	.LEHB9:
 345 010b E8000000 		call	_ZN8UnitTest11CurrentTest7ResultsEv@PLT
 345      00
  27:testBinIO.cpp **** 	status = bufAppendFromBinaryFile(&buf, "nonExistentFile.bin", NULL);
 346              		.loc 4 27 2 is_stmt 0 discriminator 3
 347 0110 488B18   		movq	(%rax), %rbx
 348 0113 E8000000 		call	_ZN8UnitTest11CurrentTest7DetailsEv@PLT
 348      00
  27:testBinIO.cpp **** 	status = bufAppendFromBinaryFile(&buf, "nonExistentFile.bin", NULL);
 349              		.loc 4 27 2 discriminator 11
 350 0118 488B08   		movq	(%rax), %rcx
 351 011b 488D45C0 		leaq	-64(%rbp), %rax
 352 011f BA1B0000 		movl	$27, %edx
 352      00
 353 0124 4889CE   		movq	%rcx, %rsi
 354 0127 4889C7   		movq	%rax, %rdi
 355 012a E8000000 		call	_ZN8UnitTest11TestDetailsC1ERKS0_i@PLT
 355      00
  27:testBinIO.cpp **** 	status = bufAppendFromBinaryFile(&buf, "nonExistentFile.bin", NULL);
 356              		.loc 4 27 2 discriminator 15
 357 012f 488D45C0 		leaq	-64(%rbp), %rax
 358 0133 488D1500 		leaq	.LC4(%rip), %rdx
 358      000000
 359 013a 4889C6   		movq	%rax, %rsi
 360 013d 4889DF   		movq	%rbx, %rdi
 361 0140 E8000000 		call	_ZN8UnitTest11TestResults13OnTestFailureERKNS_11TestDetailsEPKc@PLT
 361      00
 362              	.LEHE9:
 363              	.LEHB10:
  27:testBinIO.cpp **** 	status = bufAppendFromBinaryFile(&buf, "nonExistentFile.bin", NULL);
 364              		.loc 4 27 2 discriminator 17
 365 0145 E8000000 		call	__cxa_end_catch@PLT
 365      00
 366              	.LEHE10:
 367 014a E92EFFFF 		jmp	.L14
 367      FF
 368              	.L21:
 369 014f F30F1EFA 		endbr64
  27:testBinIO.cpp **** 	status = bufAppendFromBinaryFile(&buf, "nonExistentFile.bin", NULL);
 370              		.loc 4 27 2
 371 0153 4889C3   		movq	%rax, %rbx
 372 0156 E8000000 		call	__cxa_end_catch@PLT
 372      00
 373 015b 4889D8   		movq	%rbx, %rax
 374 015e 4889C7   		movq	%rax, %rdi
 375              	.LEHB11:
 376 0161 E8000000 		call	_Unwind_Resume@PLT
 376      00
 377              	.LEHE11:
 378              	.L22:
 379 0166 F30F1EFA 		endbr64
  29:testBinIO.cpp **** 	bufDestroy(&buf);
 380              		.loc 4 29 2 is_stmt 1
 381 016a 4889C7   		movq	%rax, %rdi
 382 016d E8000000 		call	__cxa_begin_catch@PLT
 382      00
 383              	.LEHB12:
 384 0172 E8000000 		call	_ZN8UnitTest11CurrentTest7ResultsEv@PLT
 384      00
  29:testBinIO.cpp **** 	bufDestroy(&buf);
 385              		.loc 4 29 2 is_stmt 0 discriminator 3
 386 0177 488B18   		movq	(%rax), %rbx
 387 017a E8000000 		call	_ZN8UnitTest11CurrentTest7DetailsEv@PLT
 387      00
  29:testBinIO.cpp **** 	bufDestroy(&buf);
 388              		.loc 4 29 2 discriminator 11
 389 017f 488B08   		movq	(%rax), %rcx
 390 0182 488D45C0 		leaq	-64(%rbp), %rax
 391 0186 BA1D0000 		movl	$29, %edx
 391      00
 392 018b 4889CE   		movq	%rcx, %rsi
 393 018e 4889C7   		movq	%rax, %rdi
 394 0191 E8000000 		call	_ZN8UnitTest11TestDetailsC1ERKS0_i@PLT
 394      00
  29:testBinIO.cpp **** 	bufDestroy(&buf);
 395              		.loc 4 29 2 discriminator 15
 396 0196 488D45C0 		leaq	-64(%rbp), %rax
 397 019a 488D1500 		leaq	.LC5(%rip), %rdx
 397      000000
 398 01a1 4889C6   		movq	%rax, %rsi
 399 01a4 4889DF   		movq	%rbx, %rdi
 400 01a7 E8000000 		call	_ZN8UnitTest11TestResults13OnTestFailureERKNS_11TestDetailsEPKc@PLT
 400      00
 401              	.LEHE12:
 402              	.LEHB13:
  29:testBinIO.cpp **** 	bufDestroy(&buf);
 403              		.loc 4 29 2 discriminator 17
 404 01ac E8000000 		call	__cxa_end_catch@PLT
 404      00
 405              	.LEHE13:
 406 01b1 E924FFFF 		jmp	.L17
 406      FF
 407              	.L23:
 408 01b6 F30F1EFA 		endbr64
  29:testBinIO.cpp **** 	bufDestroy(&buf);
 409              		.loc 4 29 2
 410 01ba 4889C3   		movq	%rax, %rbx
 411 01bd E8000000 		call	__cxa_end_catch@PLT
 411      00
 412 01c2 4889D8   		movq	%rbx, %rax
 413 01c5 4889C7   		movq	%rax, %rdi
 414              	.LEHB14:
 415 01c8 E8000000 		call	_Unwind_Resume@PLT
 415      00
 416              	.LEHE14:
 417              	.L24:
 418              		.loc 4 31 1 is_stmt 1
 419 01cd E8000000 		call	__stack_chk_fail@PLT
 419      00
 420              	.L19:
 421 01d2 488B5DF8 		movq	-8(%rbp), %rbx
 422 01d6 C9       		leave
 423              		.cfi_def_cfa 7, 8
 424 01d7 C3       		ret
 425              		.cfi_endproc
 426              	.LFE1219:
 427              		.section	.gcc_except_table,"a",@progbits
 428              		.align 4
 429              	.LLSDA1219:
 430 0000 FF       		.byte	0xff
 431 0001 9B       		.byte	0x9b
 432 0002 41       		.uleb128 .LLSDATT1219-.LLSDATTD1219
 433              	.LLSDATTD1219:
 434 0003 01       		.byte	0x1
 435 0004 39       		.uleb128 .LLSDACSE1219-.LLSDACSB1219
 436              	.LLSDACSB1219:
 437 0005 36       		.uleb128 .LEHB4-.LFB1219
 438 0006 05       		.uleb128 .LEHE4-.LEHB4
 439 0007 00       		.uleb128 0
 440 0008 00       		.uleb128 0
 441 0009 3E       		.uleb128 .LEHB5-.LFB1219
 442 000a 3F       		.uleb128 .LEHE5-.LEHB5
 443 000b FF01     		.uleb128 .L20-.LFB1219
 444 000d 01       		.uleb128 0x1
 445 000e 9301     		.uleb128 .LEHB6-.LFB1219
 446 0010 05       		.uleb128 .LEHE6-.LEHB6
 447 0011 00       		.uleb128 0
 448 0012 00       		.uleb128 0
 449 0013 9B01     		.uleb128 .LEHB7-.LFB1219
 450 0015 3F       		.uleb128 .LEHE7-.LEHB7
 451 0016 E602     		.uleb128 .L22-.LFB1219
 452 0018 01       		.uleb128 0x1
 453 0019 E101     		.uleb128 .LEHB8-.LFB1219
 454 001b 05       		.uleb128 .LEHE8-.LEHB8
 455 001c 00       		.uleb128 0
 456 001d 00       		.uleb128 0
 457 001e 8B02     		.uleb128 .LEHB9-.LFB1219
 458 0020 3A       		.uleb128 .LEHE9-.LEHB9
 459 0021 CF02     		.uleb128 .L21-.LFB1219
 460 0023 00       		.uleb128 0
 461 0024 C502     		.uleb128 .LEHB10-.LFB1219
 462 0026 05       		.uleb128 .LEHE10-.LEHB10
 463 0027 00       		.uleb128 0
 464 0028 00       		.uleb128 0
 465 0029 E102     		.uleb128 .LEHB11-.LFB1219
 466 002b 05       		.uleb128 .LEHE11-.LEHB11
 467 002c 00       		.uleb128 0
 468 002d 00       		.uleb128 0
 469 002e F202     		.uleb128 .LEHB12-.LFB1219
 470 0030 3A       		.uleb128 .LEHE12-.LEHB12
 471 0031 B603     		.uleb128 .L23-.LFB1219
 472 0033 00       		.uleb128 0
 473 0034 AC03     		.uleb128 .LEHB13-.LFB1219
 474 0036 05       		.uleb128 .LEHE13-.LEHB13
 475 0037 00       		.uleb128 0
 476 0038 00       		.uleb128 0
 477 0039 C803     		.uleb128 .LEHB14-.LFB1219
 478 003b 05       		.uleb128 .LEHE14-.LEHB14
 479 003c 00       		.uleb128 0
 480 003d 00       		.uleb128 0
 481              	.LLSDACSE1219:
 482 003e 01       		.byte	0x1
 483 003f 00       		.byte	0
 484              		.align 4
 485 0040 00000000 		.long	0
 486              	
 487              	.LLSDATT1219:
 488              		.text
 490              		.section	.rodata
 491              	.LC6:
 492 00be 42696E49 		.string	"BinIO_testReadExistingFile"
 492      4F5F7465 
 492      73745265 
 492      61644578 
 492      69737469 
 493              		.section	.text._ZN30TestBinIO_testReadExistingFileC2Ev,"axG",@progbits,_ZN30TestBinIO_testReadExis
 494              		.align 2
 495              		.weak	_ZN30TestBinIO_testReadExistingFileC2Ev
 497              	_ZN30TestBinIO_testReadExistingFileC2Ev:
 498              	.LFB1221:
  32:testBinIO.cpp **** 
  33:testBinIO.cpp **** TEST(BinIO_testReadExistingFile) {
 499              		.loc 4 33 1
 500              		.cfi_startproc
 501 0000 F30F1EFA 		endbr64
 502 0004 55       		pushq	%rbp
 503              		.cfi_def_cfa_offset 16
 504              		.cfi_offset 6, -16
 505 0005 4889E5   		movq	%rsp, %rbp
 506              		.cfi_def_cfa_register 6
 507 0008 53       		pushq	%rbx
 508 0009 4883EC18 		subq	$24, %rsp
 509              		.cfi_offset 3, -24
 510 000d 48897DE8 		movq	%rdi, -24(%rbp)
 511              	.LBB8:
 512              		.loc 4 33 1
 513 0011 488B5DE8 		movq	-24(%rbp), %rbx
 514 0015 E8000000 		call	_ZN13UnitTestSuite12GetSuiteNameEv
 514      00
 515 001a 4889C2   		movq	%rax, %rdx
 516 001d 41B82100 		movl	$33, %r8d
 516      0000
 517 0023 488D0500 		leaq	.LC1(%rip), %rax
 517      000000
 518 002a 4889C1   		movq	%rax, %rcx
 519 002d 488D0500 		leaq	.LC6(%rip), %rax
 519      000000
 520 0034 4889C6   		movq	%rax, %rsi
 521 0037 4889DF   		movq	%rbx, %rdi
 522 003a E8000000 		call	_ZN8UnitTest4TestC2EPKcS2_S2_i@PLT
 522      00
 523 003f 488D1500 		leaq	16+_ZTV30TestBinIO_testReadExistingFile(%rip), %rdx
 523      000000
 524 0046 488B45E8 		movq	-24(%rbp), %rax
 525 004a 488910   		movq	%rdx, (%rax)
 526              	.LBE8:
 527 004d 90       		nop
 528 004e 488B5DF8 		movq	-8(%rbp), %rbx
 529 0052 C9       		leave
 530              		.cfi_def_cfa 7, 8
 531 0053 C3       		ret
 532              		.cfi_endproc
 533              	.LFE1221:
 535              		.weak	_ZN30TestBinIO_testReadExistingFileC1Ev
 536              		.set	_ZN30TestBinIO_testReadExistingFileC1Ev,_ZN30TestBinIO_testReadExistingFileC2Ev
 537              		.globl	testBinIO_testReadExistingFileInstance
 538              		.bss
 539 0039 00000000 		.align 32
 539      000000
 542              	testBinIO_testReadExistingFileInstance:
 543 0040 00000000 		.zero	56
 543      00000000 
 543      00000000 
 543      00000000 
 543      00000000 
 544              		.globl	adderBinIO_testReadExistingFile
 547              	adderBinIO_testReadExistingFile:
 548 0078 00       		.zero	1
 549              		.section	.rodata
 550              	.LC7:
 551 00d9 746D7046 		.string	"tmpFile.bin"
 551      696C652E 
 551      62696E00 
 552              	.LC8:
 553 00e5 4A757374 		.string	"Just some test data"
 553      20736F6D 
 553      65207465 
 553      73742064 
 553      61746100 
 554 00f9 00000000 		.align 8
 554      000000
 555              	.LC9:
 556 0100 556E6861 		.string	"Unhandled exception in CHECK_EQUAL(strlen(DATA), buf.length)"
 556      6E646C65 
 556      64206578 
 556      63657074 
 556      696F6E20 
 557 013d 000000   		.align 8
 558              	.LC10:
 559 0140 556E6861 		.string	"Unhandled exception in CHECK_ARRAY_EQUAL(DATA, buf.data)"
 559      6E646C65 
 559      64206578 
 559      63657074 
 559      696F6E20 
 560 0179 00000000 		.align 8
 560      000000
 561              	.LC11:
 562 0180 556E6861 		.string	"Unhandled exception in CHECK_EQUAL(2 * strlen(DATA), buf.length)"
 562      6E646C65 
 562      64206578 
 562      63657074 
 562      696F6E20 
 563 01c1 00000000 		.align 8
 563      000000
 564              	.LC12:
 565 01c8 556E6861 		.string	"Unhandled exception in CHECK_ARRAY_EQUAL(DATA, buf.data + strlen(DATA))"
 565      6E646C65 
 565      64206578 
 565      63657074 
 565      696F6E20 
 566              		.text
 567              		.align 2
 568              		.globl	_ZNK30TestBinIO_testReadExistingFile7RunImplEv
 570              	_ZNK30TestBinIO_testReadExistingFile7RunImplEv:
 571              	.LFB1223:
 572              		.loc 4 33 34
 573              		.cfi_startproc
 574              		.cfi_personality 0x9b,DW.ref.__gxx_personality_v0
 575              		.cfi_lsda 0x1b,.LLSDA1223
 576 01d8 F30F1EFA 		endbr64
 577 01dc 55       		pushq	%rbp
 578              		.cfi_def_cfa_offset 16
 579              		.cfi_offset 6, -16
 580 01dd 4889E5   		movq	%rsp, %rbp
 581              		.cfi_def_cfa_register 6
 582 01e0 53       		pushq	%rbx
 583 01e1 4881EC88 		subq	$648, %rsp
 583      020000
 584              		.cfi_offset 3, -24
 585 01e8 4889BD78 		movq	%rdi, -648(%rbp)
 585      FDFFFF
 586              		.loc 4 33 34
 587 01ef 64488B04 		movq	%fs:40, %rax
 587      25280000 
 587      00
 588 01f8 488945E8 		movq	%rax, -24(%rbp)
 589 01fc 31C0     		xorl	%eax, %eax
  34:testBinIO.cpp **** 	const char *const FILENAME = "tmpFile.bin";
 590              		.loc 4 34 20
 591 01fe 488D0500 		leaq	.LC7(%rip), %rax
 591      000000
 592 0205 48898598 		movq	%rax, -616(%rbp)
 592      FDFFFF
  35:testBinIO.cpp **** 	const char *const DATA = "Just some test data";
 593              		.loc 4 35 20
 594 020c 488D0500 		leaq	.LC8(%rip), %rax
 594      000000
 595 0213 48898588 		movq	%rax, -632(%rbp)
 595      FDFFFF
  36:testBinIO.cpp **** 	ofstream file;
 596              		.loc 4 36 11
 597 021a 488D85E0 		leaq	-544(%rbp), %rax
 597      FDFFFF
 598 0221 4889C7   		movq	%rax, %rdi
 599              	.LEHB15:
 600 0224 E8000000 		call	_ZNSt14basic_ofstreamIcSt11char_traitsIcEEC1Ev@PLT
 600      00
 601              	.LEHE15:
  37:testBinIO.cpp **** 	Buffer buf;
  38:testBinIO.cpp **** 	BufferStatus status = bufInitialise(&buf, 8, 0, NULL);
 602              		.loc 4 38 37
 603 0229 488D85A0 		leaq	-608(%rbp), %rax
 603      FDFFFF
 604 0230 B9000000 		movl	$0, %ecx
 604      00
 605 0235 BA000000 		movl	$0, %edx
 605      00
 606 023a BE080000 		movl	$8, %esi
 606      00
 607 023f 4889C7   		movq	%rax, %rdi
 608              	.LEHB16:
 609 0242 E8000000 		call	bufInitialise@PLT
 609      00
 610              	.LEHE16:
 611              		.loc 4 38 54
 612 0247 898584FD 		movl	%eax, -636(%rbp)
 612      FFFF
 613              	.LEHB17:
  39:testBinIO.cpp **** 	CHECK_EQUAL(BUF_SUCCESS, status);
 614              		.loc 4 39 2
 615 024d E8000000 		call	_ZN8UnitTest11CurrentTest7DetailsEv@PLT
 615      00
 616              		.loc 4 39 2 is_stmt 0 discriminator 1
 617 0252 488B08   		movq	(%rax), %rcx
 618 0255 488D85C0 		leaq	-576(%rbp), %rax
 618      FDFFFF
 619 025c BA270000 		movl	$39, %edx
 619      00
 620 0261 4889CE   		movq	%rcx, %rsi
 621 0264 4889C7   		movq	%rax, %rdi
 622 0267 E8000000 		call	_ZN8UnitTest11TestDetailsC1ERKS0_i@PLT
 622      00
 623              		.loc 4 39 2 discriminator 4
 624 026c C78590FD 		movl	$0, -624(%rbp)
 624      FFFF0000 
 624      0000
 625 0276 E8000000 		call	_ZN8UnitTest11CurrentTest7ResultsEv@PLT
 625      00
 626 027b 488B00   		movq	(%rax), %rax
 627 027e 488D8DC0 		leaq	-576(%rbp), %rcx
 627      FDFFFF
 628 0285 488D9584 		leaq	-636(%rbp), %rdx
 628      FDFFFF
 629 028c 488DB590 		leaq	-624(%rbp), %rsi
 629      FDFFFF
 630 0293 4889C7   		movq	%rax, %rdi
 631 0296 E8000000 		call	_ZN8UnitTest10CheckEqualI12BufferStatusS1_EEvRNS_11TestResultsERKT_RKT0_RKNS_11TestDetailsE
 631      00
 632              	.LEHE17:
 633              	.L28:
  40:testBinIO.cpp **** 	file.open(FILENAME, ios::out|ios::binary);
 634              		.loc 4 40 11 is_stmt 1
 635 029b BE040000 		movl	$4, %esi
 635      00
 636 02a0 BF100000 		movl	$16, %edi
 636      00
 637 02a5 E8000000 		call	_ZStorSt13_Ios_OpenmodeS_
 637      00
 638 02aa 89C2     		movl	%eax, %edx
 639 02ac 488D85E0 		leaq	-544(%rbp), %rax
 639      FDFFFF
 640 02b3 488D0D00 		leaq	.LC7(%rip), %rcx
 640      000000
 641 02ba 4889CE   		movq	%rcx, %rsi
 642 02bd 4889C7   		movq	%rax, %rdi
 643              	.LEHB18:
 644 02c0 E8000000 		call	_ZNSt14basic_ofstreamIcSt11char_traitsIcEE4openEPKcSt13_Ios_Openmode@PLT
 644      00
  41:testBinIO.cpp **** 	file << DATA;
 645              		.loc 4 41 10
 646 02c5 488D85E0 		leaq	-544(%rbp), %rax
 646      FDFFFF
 647 02cc 488D1500 		leaq	.LC8(%rip), %rdx
 647      000000
 648 02d3 4889D6   		movq	%rdx, %rsi
 649 02d6 4889C7   		movq	%rax, %rdi
 650 02d9 E8000000 		call	_ZStlsISt11char_traitsIcEERSt13basic_ostreamIcT_ES5_PKc@PLT
 650      00
  42:testBinIO.cpp **** 	file.close();
 651              		.loc 4 42 12
 652 02de 488D85E0 		leaq	-544(%rbp), %rax
 652      FDFFFF
 653 02e5 4889C7   		movq	%rax, %rdi
 654 02e8 E8000000 		call	_ZNSt14basic_ofstreamIcSt11char_traitsIcEE5closeEv@PLT
 654      00
  43:testBinIO.cpp **** 	status = bufAppendFromBinaryFile(&buf, FILENAME, NULL);
 655              		.loc 4 43 34
 656 02ed 488D85A0 		leaq	-608(%rbp), %rax
 656      FDFFFF
 657 02f4 BA000000 		movl	$0, %edx
 657      00
 658 02f9 488D0D00 		leaq	.LC7(%rip), %rcx
 658      000000
 659 0300 4889CE   		movq	%rcx, %rsi
 660 0303 4889C7   		movq	%rax, %rdi
 661 0306 E8000000 		call	bufAppendFromBinaryFile@PLT
 661      00
 662              	.LEHE18:
 663              		.loc 4 43 9
 664 030b 898584FD 		movl	%eax, -636(%rbp)
 664      FFFF
 665              	.LEHB19:
  44:testBinIO.cpp **** 	CHECK_EQUAL(BUF_SUCCESS, status);
 666              		.loc 4 44 2
 667 0311 E8000000 		call	_ZN8UnitTest11CurrentTest7DetailsEv@PLT
 667      00
 668              		.loc 4 44 2 is_stmt 0 discriminator 1
 669 0316 488B08   		movq	(%rax), %rcx
 670 0319 488D85C0 		leaq	-576(%rbp), %rax
 670      FDFFFF
 671 0320 BA2C0000 		movl	$44, %edx
 671      00
 672 0325 4889CE   		movq	%rcx, %rsi
 673 0328 4889C7   		movq	%rax, %rdi
 674 032b E8000000 		call	_ZN8UnitTest11TestDetailsC1ERKS0_i@PLT
 674      00
 675              		.loc 4 44 2 discriminator 4
 676 0330 C78590FD 		movl	$0, -624(%rbp)
 676      FFFF0000 
 676      0000
 677 033a E8000000 		call	_ZN8UnitTest11CurrentTest7ResultsEv@PLT
 677      00
 678 033f 488B00   		movq	(%rax), %rax
 679 0342 488D8DC0 		leaq	-576(%rbp), %rcx
 679      FDFFFF
 680 0349 488D9584 		leaq	-636(%rbp), %rdx
 680      FDFFFF
 681 0350 488DB590 		leaq	-624(%rbp), %rsi
 681      FDFFFF
 682 0357 4889C7   		movq	%rax, %rdi
 683 035a E8000000 		call	_ZN8UnitTest10CheckEqualI12BufferStatusS1_EEvRNS_11TestResultsERKT_RKT0_RKNS_11TestDetailsE
 683      00
 684              	.LEHE19:
 685              	.L32:
 686              	.LEHB20:
  45:testBinIO.cpp **** 	CHECK_EQUAL(strlen(DATA), buf.length);
 687              		.loc 4 45 2 is_stmt 1
 688 035f E8000000 		call	_ZN8UnitTest11CurrentTest7DetailsEv@PLT
 688      00
 689 0364 488B08   		movq	(%rax), %rcx
 690 0367 488D85C0 		leaq	-576(%rbp), %rax
 690      FDFFFF
 691 036e BA2D0000 		movl	$45, %edx
 691      00
 692 0373 4889CE   		movq	%rcx, %rsi
 693 0376 4889C7   		movq	%rax, %rdi
 694 0379 E8000000 		call	_ZN8UnitTest11TestDetailsC1ERKS0_i@PLT
 694      00
 695              		.loc 4 45 2 is_stmt 0 discriminator 4
 696 037e 48C78590 		movq	$19, -624(%rbp)
 696      FDFFFF13 
 696      000000
 697 0389 E8000000 		call	_ZN8UnitTest11CurrentTest7ResultsEv@PLT
 697      00
 698 038e 488B00   		movq	(%rax), %rax
 699 0391 488D95C0 		leaq	-576(%rbp), %rdx
 699      FDFFFF
 700 0398 488D8DA0 		leaq	-608(%rbp), %rcx
 700      FDFFFF
 701 039f 488D7908 		leaq	8(%rcx), %rdi
 702 03a3 488DB590 		leaq	-624(%rbp), %rsi
 702      FDFFFF
 703 03aa 4889D1   		movq	%rdx, %rcx
 704 03ad 4889FA   		movq	%rdi, %rdx
 705 03b0 4889C7   		movq	%rax, %rdi
 706 03b3 E8000000 		call	_ZN8UnitTest10CheckEqualImjEEvRNS_11TestResultsERKT_RKT0_RKNS_11TestDetailsE
 706      00
 707              	.LEHE20:
 708              	.L35:
 709              	.LEHB21:
  46:testBinIO.cpp **** 	CHECK_ARRAY_EQUAL(DATA, buf.data, buf.length);
 710              		.loc 4 46 2 is_stmt 1
 711 03b8 E8000000 		call	_ZN8UnitTest11CurrentTest7DetailsEv@PLT
 711      00
 712 03bd 488B08   		movq	(%rax), %rcx
 713 03c0 488D85C0 		leaq	-576(%rbp), %rax
 713      FDFFFF
 714 03c7 BA2E0000 		movl	$46, %edx
 714      00
 715 03cc 4889CE   		movq	%rcx, %rsi
 716 03cf 4889C7   		movq	%rax, %rdi
 717 03d2 E8000000 		call	_ZN8UnitTest11TestDetailsC1ERKS0_i@PLT
 717      00
 718              		.loc 4 46 2 is_stmt 0 discriminator 4
 719 03d7 8B85A8FD 		movl	-600(%rbp), %eax
 719      FFFF
 720 03dd 89C3     		movl	%eax, %ebx
 721 03df E8000000 		call	_ZN8UnitTest11CurrentTest7ResultsEv@PLT
 721      00
 722 03e4 488B00   		movq	(%rax), %rax
 723 03e7 488D8DC0 		leaq	-576(%rbp), %rcx
 723      FDFFFF
 724 03ee 488D95A0 		leaq	-608(%rbp), %rdx
 724      FDFFFF
 725 03f5 488DB588 		leaq	-632(%rbp), %rsi
 725      FDFFFF
 726 03fc 4989C8   		movq	%rcx, %r8
 727 03ff 89D9     		movl	%ebx, %ecx
 728 0401 4889C7   		movq	%rax, %rdi
 729 0404 E8000000 		call	_ZN8UnitTest15CheckArrayEqualIPKcPhEEvRNS_11TestResultsERKT_RKT0_iRKNS_11TestDetailsE
 729      00
 730              	.LEHE21:
 731              	.L38:
  47:testBinIO.cpp **** 	status = bufAppendFromBinaryFile(&buf, FILENAME, NULL);
 732              		.loc 4 47 34 is_stmt 1
 733 0409 488D85A0 		leaq	-608(%rbp), %rax
 733      FDFFFF
 734 0410 BA000000 		movl	$0, %edx
 734      00
 735 0415 488D0D00 		leaq	.LC7(%rip), %rcx
 735      000000
 736 041c 4889CE   		movq	%rcx, %rsi
 737 041f 4889C7   		movq	%rax, %rdi
 738              	.LEHB22:
 739 0422 E8000000 		call	bufAppendFromBinaryFile@PLT
 739      00
 740              	.LEHE22:
 741              		.loc 4 47 9
 742 0427 898584FD 		movl	%eax, -636(%rbp)
 742      FFFF
 743              	.LEHB23:
  48:testBinIO.cpp **** 	CHECK_EQUAL(BUF_SUCCESS, status);
 744              		.loc 4 48 2
 745 042d E8000000 		call	_ZN8UnitTest11CurrentTest7DetailsEv@PLT
 745      00
 746              		.loc 4 48 2 is_stmt 0 discriminator 1
 747 0432 488B08   		movq	(%rax), %rcx
 748 0435 488D85C0 		leaq	-576(%rbp), %rax
 748      FDFFFF
 749 043c BA300000 		movl	$48, %edx
 749      00
 750 0441 4889CE   		movq	%rcx, %rsi
 751 0444 4889C7   		movq	%rax, %rdi
 752 0447 E8000000 		call	_ZN8UnitTest11TestDetailsC1ERKS0_i@PLT
 752      00
 753              		.loc 4 48 2 discriminator 4
 754 044c C78590FD 		movl	$0, -624(%rbp)
 754      FFFF0000 
 754      0000
 755 0456 E8000000 		call	_ZN8UnitTest11CurrentTest7ResultsEv@PLT
 755      00
 756 045b 488B00   		movq	(%rax), %rax
 757 045e 488D8DC0 		leaq	-576(%rbp), %rcx
 757      FDFFFF
 758 0465 488D9584 		leaq	-636(%rbp), %rdx
 758      FDFFFF
 759 046c 488DB590 		leaq	-624(%rbp), %rsi
 759      FDFFFF
 760 0473 4889C7   		movq	%rax, %rdi
 761 0476 E8000000 		call	_ZN8UnitTest10CheckEqualI12BufferStatusS1_EEvRNS_11TestResultsERKT_RKT0_RKNS_11TestDetailsE
 761      00
 762              	.LEHE23:
 763              	.L41:
 764              	.LEHB24:
  49:testBinIO.cpp **** 	CHECK_EQUAL(2 * strlen(DATA), buf.length);
 765              		.loc 4 49 2 is_stmt 1
 766 047b E8000000 		call	_ZN8UnitTest11CurrentTest7DetailsEv@PLT
 766      00
 767 0480 488B08   		movq	(%rax), %rcx
 768 0483 488D85C0 		leaq	-576(%rbp), %rax
 768      FDFFFF
 769 048a BA310000 		movl	$49, %edx
 769      00
 770 048f 4889CE   		movq	%rcx, %rsi
 771 0492 4889C7   		movq	%rax, %rdi
 772 0495 E8000000 		call	_ZN8UnitTest11TestDetailsC1ERKS0_i@PLT
 772      00
 773              		.loc 4 49 2 is_stmt 0 discriminator 4
 774 049a 48C78590 		movq	$38, -624(%rbp)
 774      FDFFFF26 
 774      000000
 775 04a5 E8000000 		call	_ZN8UnitTest11CurrentTest7ResultsEv@PLT
 775      00
 776 04aa 488B00   		movq	(%rax), %rax
 777 04ad 488D95C0 		leaq	-576(%rbp), %rdx
 777      FDFFFF
 778 04b4 488D8DA0 		leaq	-608(%rbp), %rcx
 778      FDFFFF
 779 04bb 488D7908 		leaq	8(%rcx), %rdi
 780 04bf 488DB590 		leaq	-624(%rbp), %rsi
 780      FDFFFF
 781 04c6 4889D1   		movq	%rdx, %rcx
 782 04c9 4889FA   		movq	%rdi, %rdx
 783 04cc 4889C7   		movq	%rax, %rdi
 784 04cf E8000000 		call	_ZN8UnitTest10CheckEqualImjEEvRNS_11TestResultsERKT_RKT0_RKNS_11TestDetailsE
 784      00
 785              	.LEHE24:
 786              	.L44:
 787              	.LEHB25:
  50:testBinIO.cpp **** 	CHECK_ARRAY_EQUAL(DATA, buf.data + strlen(DATA), strlen(DATA));
 788              		.loc 4 50 2 is_stmt 1
 789 04d4 E8000000 		call	_ZN8UnitTest11CurrentTest7DetailsEv@PLT
 789      00
 790 04d9 488B08   		movq	(%rax), %rcx
 791 04dc 488D85C0 		leaq	-576(%rbp), %rax
 791      FDFFFF
 792 04e3 BA320000 		movl	$50, %edx
 792      00
 793 04e8 4889CE   		movq	%rcx, %rsi
 794 04eb 4889C7   		movq	%rax, %rdi
 795 04ee E8000000 		call	_ZN8UnitTest11TestDetailsC1ERKS0_i@PLT
 795      00
 796              		.loc 4 50 2 is_stmt 0 discriminator 4
 797 04f3 488B85A0 		movq	-608(%rbp), %rax
 797      FDFFFF
 798 04fa 4883C013 		addq	$19, %rax
 799 04fe 48898590 		movq	%rax, -624(%rbp)
 799      FDFFFF
 800 0505 E8000000 		call	_ZN8UnitTest11CurrentTest7ResultsEv@PLT
 800      00
 801 050a 488B00   		movq	(%rax), %rax
 802 050d 488D8DC0 		leaq	-576(%rbp), %rcx
 802      FDFFFF
 803 0514 488D9590 		leaq	-624(%rbp), %rdx
 803      FDFFFF
 804 051b 488DB588 		leaq	-632(%rbp), %rsi
 804      FDFFFF
 805 0522 4989C8   		movq	%rcx, %r8
 806 0525 B9130000 		movl	$19, %ecx
 806      00
 807 052a 4889C7   		movq	%rax, %rdi
 808 052d E8000000 		call	_ZN8UnitTest15CheckArrayEqualIPKcPhEEvRNS_11TestResultsERKT_RKT0_iRKNS_11TestDetailsE
 808      00
 809              	.LEHE25:
 810              	.L47:
  51:testBinIO.cpp **** 	bufDestroy(&buf);
 811              		.loc 4 51 12 is_stmt 1
 812 0532 488D85A0 		leaq	-608(%rbp), %rax
 812      FDFFFF
 813 0539 4889C7   		movq	%rax, %rdi
 814              	.LEHB26:
 815 053c E8000000 		call	bufDestroy@PLT
 815      00
 816              	.LEHE26:
  52:testBinIO.cpp **** }
 817              		.loc 4 52 1
 818 0541 488D85E0 		leaq	-544(%rbp), %rax
 818      FDFFFF
 819 0548 4889C7   		movq	%rax, %rdi
 820              	.LEHB27:
 821 054b E8000000 		call	_ZNSt14basic_ofstreamIcSt11char_traitsIcEED1Ev@PLT
 821      00
 822              	.LEHE27:
 823 0550 488B45E8 		movq	-24(%rbp), %rax
 824 0554 64482B04 		subq	%fs:40, %rax
 824      25280000 
 824      00
 825 055d 0F84F602 		je	.L49
 825      0000
 826 0563 E9EC0200 		jmp	.L65
 826      00
 827              	.L51:
 828 0568 F30F1EFA 		endbr64
  39:testBinIO.cpp **** 	file.open(FILENAME, ios::out|ios::binary);
 829              		.loc 4 39 2
 830 056c 4889C7   		movq	%rax, %rdi
 831 056f E8000000 		call	__cxa_begin_catch@PLT
 831      00
 832              	.LEHB28:
 833 0574 E8000000 		call	_ZN8UnitTest11CurrentTest7ResultsEv@PLT
 833      00
  39:testBinIO.cpp **** 	file.open(FILENAME, ios::out|ios::binary);
 834              		.loc 4 39 2 is_stmt 0 discriminator 3
 835 0579 488B18   		movq	(%rax), %rbx
 836 057c E8000000 		call	_ZN8UnitTest11CurrentTest7DetailsEv@PLT
 836      00
  39:testBinIO.cpp **** 	file.open(FILENAME, ios::out|ios::binary);
 837              		.loc 4 39 2 discriminator 11
 838 0581 488B08   		movq	(%rax), %rcx
 839 0584 488D85C0 		leaq	-576(%rbp), %rax
 839      FDFFFF
 840 058b BA270000 		movl	$39, %edx
 840      00
 841 0590 4889CE   		movq	%rcx, %rsi
 842 0593 4889C7   		movq	%rax, %rdi
 843 0596 E8000000 		call	_ZN8UnitTest11TestDetailsC1ERKS0_i@PLT
 843      00
  39:testBinIO.cpp **** 	file.open(FILENAME, ios::out|ios::binary);
 844              		.loc 4 39 2 discriminator 15
 845 059b 488D85C0 		leaq	-576(%rbp), %rax
 845      FDFFFF
 846 05a2 488D1500 		leaq	.LC4(%rip), %rdx
 846      000000
 847 05a9 4889C6   		movq	%rax, %rsi
 848 05ac 4889DF   		movq	%rbx, %rdi
 849 05af E8000000 		call	_ZN8UnitTest11TestResults13OnTestFailureERKNS_11TestDetailsEPKc@PLT
 849      00
 850              	.LEHE28:
 851              	.LEHB29:
  39:testBinIO.cpp **** 	file.open(FILENAME, ios::out|ios::binary);
 852              		.loc 4 39 2 discriminator 17
 853 05b4 E8000000 		call	__cxa_end_catch@PLT
 853      00
 854              	.LEHE29:
  39:testBinIO.cpp **** 	file.open(FILENAME, ios::out|ios::binary);
 855              		.loc 4 39 2
 856 05b9 E9DDFCFF 		jmp	.L28
 856      FF
 857              	.L52:
 858 05be F30F1EFA 		endbr64
 859 05c2 4889C3   		movq	%rax, %rbx
 860 05c5 E8000000 		call	__cxa_end_catch@PLT
 860      00
 861 05ca E96B0200 		jmp	.L30
 861      00
 862              	.L53:
 863 05cf F30F1EFA 		endbr64
  44:testBinIO.cpp **** 	CHECK_EQUAL(strlen(DATA), buf.length);
 864              		.loc 4 44 2 is_stmt 1
 865 05d3 4889C7   		movq	%rax, %rdi
 866 05d6 E8000000 		call	__cxa_begin_catch@PLT
 866      00
 867              	.LEHB30:
 868 05db E8000000 		call	_ZN8UnitTest11CurrentTest7ResultsEv@PLT
 868      00
  44:testBinIO.cpp **** 	CHECK_EQUAL(strlen(DATA), buf.length);
 869              		.loc 4 44 2 is_stmt 0 discriminator 3
 870 05e0 488B18   		movq	(%rax), %rbx
 871 05e3 E8000000 		call	_ZN8UnitTest11CurrentTest7DetailsEv@PLT
 871      00
  44:testBinIO.cpp **** 	CHECK_EQUAL(strlen(DATA), buf.length);
 872              		.loc 4 44 2 discriminator 11
 873 05e8 488B08   		movq	(%rax), %rcx
 874 05eb 488D85C0 		leaq	-576(%rbp), %rax
 874      FDFFFF
 875 05f2 BA2C0000 		movl	$44, %edx
 875      00
 876 05f7 4889CE   		movq	%rcx, %rsi
 877 05fa 4889C7   		movq	%rax, %rdi
 878 05fd E8000000 		call	_ZN8UnitTest11TestDetailsC1ERKS0_i@PLT
 878      00
  44:testBinIO.cpp **** 	CHECK_EQUAL(strlen(DATA), buf.length);
 879              		.loc 4 44 2 discriminator 15
 880 0602 488D85C0 		leaq	-576(%rbp), %rax
 880      FDFFFF
 881 0609 488D1500 		leaq	.LC4(%rip), %rdx
 881      000000
 882 0610 4889C6   		movq	%rax, %rsi
 883 0613 4889DF   		movq	%rbx, %rdi
 884 0616 E8000000 		call	_ZN8UnitTest11TestResults13OnTestFailureERKNS_11TestDetailsEPKc@PLT
 884      00
 885              	.LEHE30:
 886              	.LEHB31:
  44:testBinIO.cpp **** 	CHECK_EQUAL(strlen(DATA), buf.length);
 887              		.loc 4 44 2 discriminator 17
 888 061b E8000000 		call	__cxa_end_catch@PLT
 888      00
 889              	.LEHE31:
  44:testBinIO.cpp **** 	CHECK_EQUAL(strlen(DATA), buf.length);
 890              		.loc 4 44 2
 891 0620 E93AFDFF 		jmp	.L32
 891      FF
 892              	.L54:
 893 0625 F30F1EFA 		endbr64
 894 0629 4889C3   		movq	%rax, %rbx
 895 062c E8000000 		call	__cxa_end_catch@PLT
 895      00
 896 0631 E9040200 		jmp	.L30
 896      00
 897              	.L55:
 898 0636 F30F1EFA 		endbr64
  45:testBinIO.cpp **** 	CHECK_ARRAY_EQUAL(DATA, buf.data, buf.length);
 899              		.loc 4 45 2 is_stmt 1
 900 063a 4889C7   		movq	%rax, %rdi
 901 063d E8000000 		call	__cxa_begin_catch@PLT
 901      00
 902              	.LEHB32:
 903 0642 E8000000 		call	_ZN8UnitTest11CurrentTest7ResultsEv@PLT
 903      00
  45:testBinIO.cpp **** 	CHECK_ARRAY_EQUAL(DATA, buf.data, buf.length);
 904              		.loc 4 45 2 is_stmt 0 discriminator 3
 905 0647 488B18   		movq	(%rax), %rbx
 906 064a E8000000 		call	_ZN8UnitTest11CurrentTest7DetailsEv@PLT
 906      00
  45:testBinIO.cpp **** 	CHECK_ARRAY_EQUAL(DATA, buf.data, buf.length);
 907              		.loc 4 45 2 discriminator 11
 908 064f 488B08   		movq	(%rax), %rcx
 909 0652 488D85C0 		leaq	-576(%rbp), %rax
 909      FDFFFF
 910 0659 BA2D0000 		movl	$45, %edx
 910      00
 911 065e 4889CE   		movq	%rcx, %rsi
 912 0661 4889C7   		movq	%rax, %rdi
 913 0664 E8000000 		call	_ZN8UnitTest11TestDetailsC1ERKS0_i@PLT
 913      00
  45:testBinIO.cpp **** 	CHECK_ARRAY_EQUAL(DATA, buf.data, buf.length);
 914              		.loc 4 45 2 discriminator 15
 915 0669 488D85C0 		leaq	-576(%rbp), %rax
 915      FDFFFF
 916 0670 488D1500 		leaq	.LC9(%rip), %rdx
 916      000000
 917 0677 4889C6   		movq	%rax, %rsi
 918 067a 4889DF   		movq	%rbx, %rdi
 919 067d E8000000 		call	_ZN8UnitTest11TestResults13OnTestFailureERKNS_11TestDetailsEPKc@PLT
 919      00
 920              	.LEHE32:
 921              	.LEHB33:
  45:testBinIO.cpp **** 	CHECK_ARRAY_EQUAL(DATA, buf.data, buf.length);
 922              		.loc 4 45 2 discriminator 17
 923 0682 E8000000 		call	__cxa_end_catch@PLT
 923      00
 924              	.LEHE33:
  45:testBinIO.cpp **** 	CHECK_ARRAY_EQUAL(DATA, buf.data, buf.length);
 925              		.loc 4 45 2
 926 0687 E92CFDFF 		jmp	.L35
 926      FF
 927              	.L56:
 928 068c F30F1EFA 		endbr64
 929 0690 4889C3   		movq	%rax, %rbx
 930 0693 E8000000 		call	__cxa_end_catch@PLT
 930      00
 931 0698 E99D0100 		jmp	.L30
 931      00
 932              	.L57:
 933 069d F30F1EFA 		endbr64
  46:testBinIO.cpp **** 	status = bufAppendFromBinaryFile(&buf, FILENAME, NULL);
 934              		.loc 4 46 2 is_stmt 1
 935 06a1 4889C7   		movq	%rax, %rdi
 936 06a4 E8000000 		call	__cxa_begin_catch@PLT
 936      00
 937              	.LEHB34:
 938 06a9 E8000000 		call	_ZN8UnitTest11CurrentTest7ResultsEv@PLT
 938      00
  46:testBinIO.cpp **** 	status = bufAppendFromBinaryFile(&buf, FILENAME, NULL);
 939              		.loc 4 46 2 is_stmt 0 discriminator 7
 940 06ae 488B18   		movq	(%rax), %rbx
 941 06b1 E8000000 		call	_ZN8UnitTest11CurrentTest7DetailsEv@PLT
 941      00
  46:testBinIO.cpp **** 	status = bufAppendFromBinaryFile(&buf, FILENAME, NULL);
 942              		.loc 4 46 2 discriminator 11
 943 06b6 488B08   		movq	(%rax), %rcx
 944 06b9 488D85C0 		leaq	-576(%rbp), %rax
 944      FDFFFF
 945 06c0 BA2E0000 		movl	$46, %edx
 945      00
 946 06c5 4889CE   		movq	%rcx, %rsi
 947 06c8 4889C7   		movq	%rax, %rdi
 948 06cb E8000000 		call	_ZN8UnitTest11TestDetailsC1ERKS0_i@PLT
 948      00
  46:testBinIO.cpp **** 	status = bufAppendFromBinaryFile(&buf, FILENAME, NULL);
 949              		.loc 4 46 2 discriminator 15
 950 06d0 488D85C0 		leaq	-576(%rbp), %rax
 950      FDFFFF
 951 06d7 488D1500 		leaq	.LC10(%rip), %rdx
 951      000000
 952 06de 4889C6   		movq	%rax, %rsi
 953 06e1 4889DF   		movq	%rbx, %rdi
 954 06e4 E8000000 		call	_ZN8UnitTest11TestResults13OnTestFailureERKNS_11TestDetailsEPKc@PLT
 954      00
 955              	.LEHE34:
 956              	.LEHB35:
  46:testBinIO.cpp **** 	status = bufAppendFromBinaryFile(&buf, FILENAME, NULL);
 957              		.loc 4 46 2 discriminator 17
 958 06e9 E8000000 		call	__cxa_end_catch@PLT
 958      00
 959              	.LEHE35:
  46:testBinIO.cpp **** 	status = bufAppendFromBinaryFile(&buf, FILENAME, NULL);
 960              		.loc 4 46 2
 961 06ee E916FDFF 		jmp	.L38
 961      FF
 962              	.L58:
 963 06f3 F30F1EFA 		endbr64
 964 06f7 4889C3   		movq	%rax, %rbx
 965 06fa E8000000 		call	__cxa_end_catch@PLT
 965      00
 966 06ff E9360100 		jmp	.L30
 966      00
 967              	.L59:
 968 0704 F30F1EFA 		endbr64
  48:testBinIO.cpp **** 	CHECK_EQUAL(2 * strlen(DATA), buf.length);
 969              		.loc 4 48 2 is_stmt 1
 970 0708 4889C7   		movq	%rax, %rdi
 971 070b E8000000 		call	__cxa_begin_catch@PLT
 971      00
 972              	.LEHB36:
 973 0710 E8000000 		call	_ZN8UnitTest11CurrentTest7ResultsEv@PLT
 973      00
  48:testBinIO.cpp **** 	CHECK_EQUAL(2 * strlen(DATA), buf.length);
 974              		.loc 4 48 2 is_stmt 0 discriminator 3
 975 0715 488B18   		movq	(%rax), %rbx
 976 0718 E8000000 		call	_ZN8UnitTest11CurrentTest7DetailsEv@PLT
 976      00
  48:testBinIO.cpp **** 	CHECK_EQUAL(2 * strlen(DATA), buf.length);
 977              		.loc 4 48 2 discriminator 11
 978 071d 488B08   		movq	(%rax), %rcx
 979 0720 488D85C0 		leaq	-576(%rbp), %rax
 979      FDFFFF
 980 0727 BA300000 		movl	$48, %edx
 980      00
 981 072c 4889CE   		movq	%rcx, %rsi
 982 072f 4889C7   		movq	%rax, %rdi
 983 0732 E8000000 		call	_ZN8UnitTest11TestDetailsC1ERKS0_i@PLT
 983      00
  48:testBinIO.cpp **** 	CHECK_EQUAL(2 * strlen(DATA), buf.length);
 984              		.loc 4 48 2 discriminator 15
 985 0737 488D85C0 		leaq	-576(%rbp), %rax
 985      FDFFFF
 986 073e 488D1500 		leaq	.LC4(%rip), %rdx
 986      000000
 987 0745 4889C6   		movq	%rax, %rsi
 988 0748 4889DF   		movq	%rbx, %rdi
 989 074b E8000000 		call	_ZN8UnitTest11TestResults13OnTestFailureERKNS_11TestDetailsEPKc@PLT
 989      00
 990              	.LEHE36:
 991              	.LEHB37:
  48:testBinIO.cpp **** 	CHECK_EQUAL(2 * strlen(DATA), buf.length);
 992              		.loc 4 48 2 discriminator 17
 993 0750 E8000000 		call	__cxa_end_catch@PLT
 993      00
 994              	.LEHE37:
  48:testBinIO.cpp **** 	CHECK_EQUAL(2 * strlen(DATA), buf.length);
 995              		.loc 4 48 2
 996 0755 E921FDFF 		jmp	.L41
 996      FF
 997              	.L60:
 998 075a F30F1EFA 		endbr64
 999 075e 4889C3   		movq	%rax, %rbx
 1000 0761 E8000000 		call	__cxa_end_catch@PLT
 1000      00
 1001 0766 E9CF0000 		jmp	.L30
 1001      00
 1002              	.L61:
 1003 076b F30F1EFA 		endbr64
  49:testBinIO.cpp **** 	CHECK_ARRAY_EQUAL(DATA, buf.data + strlen(DATA), strlen(DATA));
 1004              		.loc 4 49 2 is_stmt 1
 1005 076f 4889C7   		movq	%rax, %rdi
 1006 0772 E8000000 		call	__cxa_begin_catch@PLT
 1006      00
 1007              	.LEHB38:
 1008 0777 E8000000 		call	_ZN8UnitTest11CurrentTest7ResultsEv@PLT
 1008      00
  49:testBinIO.cpp **** 	CHECK_ARRAY_EQUAL(DATA, buf.data + strlen(DATA), strlen(DATA));
 1009              		.loc 4 49 2 is_stmt 0 discriminator 3
 1010 077c 488B18   		movq	(%rax), %rbx
 1011 077f E8000000 		call	_ZN8UnitTest11CurrentTest7DetailsEv@PLT
 1011      00
  49:testBinIO.cpp **** 	CHECK_ARRAY_EQUAL(DATA, buf.data + strlen(DATA), strlen(DATA));
 1012              		.loc 4 49 2 discriminator 11
 1013 0784 488B08   		movq	(%rax), %rcx
 1014 0787 488D85C0 		leaq	-576(%rbp), %rax
 1014      FDFFFF
 1015 078e BA310000 		movl	$49, %edx
 1015      00
 1016 0793 4889CE   		movq	%rcx, %rsi
 1017 0796 4889C7   		movq	%rax, %rdi
 1018 0799 E8000000 		call	_ZN8UnitTest11TestDetailsC1ERKS0_i@PLT
 1018      00
  49:testBinIO.cpp **** 	CHECK_ARRAY_EQUAL(DATA, buf.data + strlen(DATA), strlen(DATA));
 1019              		.loc 4 49 2 discriminator 15
 1020 079e 488D85C0 		leaq	-576(%rbp), %rax
 1020      FDFFFF
 1021 07a5 488D1500 		leaq	.LC11(%rip), %rdx
 1021      000000
 1022 07ac 4889C6   		movq	%rax, %rsi
 1023 07af 4889DF   		movq	%rbx, %rdi
 1024 07b2 E8000000 		call	_ZN8UnitTest11TestResults13OnTestFailureERKNS_11TestDetailsEPKc@PLT
 1024      00
 1025              	.LEHE38:
 1026              	.LEHB39:
  49:testBinIO.cpp **** 	CHECK_ARRAY_EQUAL(DATA, buf.data + strlen(DATA), strlen(DATA));
 1027              		.loc 4 49 2 discriminator 17
 1028 07b7 E8000000 		call	__cxa_end_catch@PLT
 1028      00
 1029              	.LEHE39:
  49:testBinIO.cpp **** 	CHECK_ARRAY_EQUAL(DATA, buf.data + strlen(DATA), strlen(DATA));
 1030              		.loc 4 49 2
 1031 07bc E913FDFF 		jmp	.L44
 1031      FF
 1032              	.L62:
 1033 07c1 F30F1EFA 		endbr64
 1034 07c5 4889C3   		movq	%rax, %rbx
 1035 07c8 E8000000 		call	__cxa_end_catch@PLT
 1035      00
 1036 07cd EB6B     		jmp	.L30
 1037              	.L63:
 1038 07cf F30F1EFA 		endbr64
  50:testBinIO.cpp **** 	bufDestroy(&buf);
 1039              		.loc 4 50 2 is_stmt 1
 1040 07d3 4889C7   		movq	%rax, %rdi
 1041 07d6 E8000000 		call	__cxa_begin_catch@PLT
 1041      00
 1042              	.LEHB40:
 1043 07db E8000000 		call	_ZN8UnitTest11CurrentTest7ResultsEv@PLT
 1043      00
  50:testBinIO.cpp **** 	bufDestroy(&buf);
 1044              		.loc 4 50 2 is_stmt 0 discriminator 3
 1045 07e0 488B18   		movq	(%rax), %rbx
 1046 07e3 E8000000 		call	_ZN8UnitTest11CurrentTest7DetailsEv@PLT
 1046      00
  50:testBinIO.cpp **** 	bufDestroy(&buf);
 1047              		.loc 4 50 2 discriminator 11
 1048 07e8 488B08   		movq	(%rax), %rcx
 1049 07eb 488D85C0 		leaq	-576(%rbp), %rax
 1049      FDFFFF
 1050 07f2 BA320000 		movl	$50, %edx
 1050      00
 1051 07f7 4889CE   		movq	%rcx, %rsi
 1052 07fa 4889C7   		movq	%rax, %rdi
 1053 07fd E8000000 		call	_ZN8UnitTest11TestDetailsC1ERKS0_i@PLT
 1053      00
  50:testBinIO.cpp **** 	bufDestroy(&buf);
 1054              		.loc 4 50 2 discriminator 15
 1055 0802 488D85C0 		leaq	-576(%rbp), %rax
 1055      FDFFFF
 1056 0809 488D1500 		leaq	.LC12(%rip), %rdx
 1056      000000
 1057 0810 4889C6   		movq	%rax, %rsi
 1058 0813 4889DF   		movq	%rbx, %rdi
 1059 0816 E8000000 		call	_ZN8UnitTest11TestResults13OnTestFailureERKNS_11TestDetailsEPKc@PLT
 1059      00
 1060              	.LEHE40:
 1061              	.LEHB41:
  50:testBinIO.cpp **** 	bufDestroy(&buf);
 1062              		.loc 4 50 2 discriminator 17
 1063 081b E8000000 		call	__cxa_end_catch@PLT
 1063      00
 1064              	.LEHE41:
  50:testBinIO.cpp **** 	bufDestroy(&buf);
 1065              		.loc 4 50 2
 1066 0820 E90DFDFF 		jmp	.L47
 1066      FF
 1067              	.L64:
 1068 0825 F30F1EFA 		endbr64
 1069 0829 4889C3   		movq	%rax, %rbx
 1070 082c E8000000 		call	__cxa_end_catch@PLT
 1070      00
 1071 0831 EB07     		jmp	.L30
 1072              	.L50:
 1073 0833 F30F1EFA 		endbr64
 1074              		.loc 4 52 1 is_stmt 1
 1075 0837 4889C3   		movq	%rax, %rbx
 1076              	.L30:
 1077 083a 488D85E0 		leaq	-544(%rbp), %rax
 1077      FDFFFF
 1078 0841 4889C7   		movq	%rax, %rdi
 1079 0844 E8000000 		call	_ZNSt14basic_ofstreamIcSt11char_traitsIcEED1Ev@PLT
 1079      00
 1080 0849 4889D8   		movq	%rbx, %rax
 1081 084c 4889C7   		movq	%rax, %rdi
 1082              	.LEHB42:
 1083 084f E8000000 		call	_Unwind_Resume@PLT
 1083      00
 1084              	.LEHE42:
 1085              	.L65:
 1086 0854 E8000000 		call	__stack_chk_fail@PLT
 1086      00
 1087              	.L49:
 1088 0859 488B5DF8 		movq	-8(%rbp), %rbx
 1089 085d C9       		leave
 1090              		.cfi_def_cfa 7, 8
 1091 085e C3       		ret
 1092              		.cfi_endproc
 1093              	.LFE1223:
 1094              		.section	.gcc_except_table
 1095              		.align 4
 1096              	.LLSDA1223:
 1097 0044 FF       		.byte	0xff
 1098 0045 9B       		.byte	0x9b
 1099 0046 AC01     		.uleb128 .LLSDATT1223-.LLSDATTD1223
 1100              	.LLSDATTD1223:
 1101 0048 01       		.byte	0x1
 1102 0049 A201     		.uleb128 .LLSDACSE1223-.LLSDACSB1223
 1103              	.LLSDACSB1223:
 1104 004b 4C       		.uleb128 .LEHB15-.LFB1223
 1105 004c 05       		.uleb128 .LEHE15-.LEHB15
 1106 004d 00       		.uleb128 0
 1107 004e 00       		.uleb128 0
 1108 004f 6A       		.uleb128 .LEHB16-.LFB1223
 1109 0050 05       		.uleb128 .LEHE16-.LEHB16
 1110 0051 DB0C     		.uleb128 .L50-.LFB1223
 1111 0053 00       		.uleb128 0
 1112 0054 75       		.uleb128 .LEHB17-.LFB1223
 1113 0055 4E       		.uleb128 .LEHE17-.LEHB17
 1114 0056 9007     		.uleb128 .L51-.LFB1223
 1115 0058 01       		.uleb128 0x1
 1116 0059 E801     		.uleb128 .LEHB18-.LFB1223
 1117 005b 4B       		.uleb128 .LEHE18-.LEHB18
 1118 005c DB0C     		.uleb128 .L50-.LFB1223
 1119 005e 00       		.uleb128 0
 1120 005f B902     		.uleb128 .LEHB19-.LFB1223
 1121 0061 4E       		.uleb128 .LEHE19-.LEHB19
 1122 0062 F707     		.uleb128 .L53-.LFB1223
 1123 0064 01       		.uleb128 0x1
 1124 0065 8703     		.uleb128 .LEHB20-.LFB1223
 1125 0067 59       		.uleb128 .LEHE20-.LEHB20
 1126 0068 DE08     		.uleb128 .L55-.LFB1223
 1127 006a 01       		.uleb128 0x1
 1128 006b E003     		.uleb128 .LEHB21-.LFB1223
 1129 006d 51       		.uleb128 .LEHE21-.LEHB21
 1130 006e C509     		.uleb128 .L57-.LFB1223
 1131 0070 01       		.uleb128 0x1
 1132 0071 CA04     		.uleb128 .LEHB22-.LFB1223
 1133 0073 05       		.uleb128 .LEHE22-.LEHB22
 1134 0074 DB0C     		.uleb128 .L50-.LFB1223
 1135 0076 00       		.uleb128 0
 1136 0077 D504     		.uleb128 .LEHB23-.LFB1223
 1137 0079 4E       		.uleb128 .LEHE23-.LEHB23
 1138 007a AC0A     		.uleb128 .L59-.LFB1223
 1139 007c 01       		.uleb128 0x1
 1140 007d A305     		.uleb128 .LEHB24-.LFB1223
 1141 007f 59       		.uleb128 .LEHE24-.LEHB24
 1142 0080 930B     		.uleb128 .L61-.LFB1223
 1143 0082 01       		.uleb128 0x1
 1144 0083 FC05     		.uleb128 .LEHB25-.LFB1223
 1145 0085 5E       		.uleb128 .LEHE25-.LEHB25
 1146 0086 F70B     		.uleb128 .L63-.LFB1223
 1147 0088 01       		.uleb128 0x1
 1148 0089 E406     		.uleb128 .LEHB26-.LFB1223
 1149 008b 05       		.uleb128 .LEHE26-.LEHB26
 1150 008c DB0C     		.uleb128 .L50-.LFB1223
 1151 008e 00       		.uleb128 0
 1152 008f F306     		.uleb128 .LEHB27-.LFB1223
 1153 0091 05       		.uleb128 .LEHE27-.LEHB27
 1154 0092 00       		.uleb128 0
 1155 0093 00       		.uleb128 0
 1156 0094 9C07     		.uleb128 .LEHB28-.LFB1223
 1157 0096 40       		.uleb128 .LEHE28-.LEHB28
 1158 0097 E607     		.uleb128 .L52-.LFB1223
 1159 0099 00       		.uleb128 0
 1160 009a DC07     		.uleb128 .LEHB29-.LFB1223
 1161 009c 05       		.uleb128 .LEHE29-.LEHB29
 1162 009d DB0C     		.uleb128 .L50-.LFB1223
 1163 009f 00       		.uleb128 0
 1164 00a0 8308     		.uleb128 .LEHB30-.LFB1223
 1165 00a2 40       		.uleb128 .LEHE30-.LEHB30
 1166 00a3 CD08     		.uleb128 .L54-.LFB1223
 1167 00a5 00       		.uleb128 0
 1168 00a6 C308     		.uleb128 .LEHB31-.LFB1223
 1169 00a8 05       		.uleb128 .LEHE31-.LEHB31
 1170 00a9 DB0C     		.uleb128 .L50-.LFB1223
 1171 00ab 00       		.uleb128 0
 1172 00ac EA08     		.uleb128 .LEHB32-.LFB1223
 1173 00ae 40       		.uleb128 .LEHE32-.LEHB32
 1174 00af B409     		.uleb128 .L56-.LFB1223
 1175 00b1 00       		.uleb128 0
 1176 00b2 AA09     		.uleb128 .LEHB33-.LFB1223
 1177 00b4 05       		.uleb128 .LEHE33-.LEHB33
 1178 00b5 DB0C     		.uleb128 .L50-.LFB1223
 1179 00b7 00       		.uleb128 0
 1180 00b8 D109     		.uleb128 .LEHB34-.LFB1223
 1181 00ba 40       		.uleb128 .LEHE34-.LEHB34
 1182 00bb 9B0A     		.uleb128 .L58-.LFB1223
 1183 00bd 00       		.uleb128 0
 1184 00be 910A     		.uleb128 .LEHB35-.LFB1223
 1185 00c0 05       		.uleb128 .LEHE35-.LEHB35
 1186 00c1 DB0C     		.uleb128 .L50-.LFB1223
 1187 00c3 00       		.uleb128 0
 1188 00c4 B80A     		.uleb128 .LEHB36-.LFB1223
 1189 00c6 40       		.uleb128 .LEHE36-.LEHB36
 1190 00c7 820B     		.uleb128 .L60-.LFB1223
 1191 00c9 00       		.uleb128 0
 1192 00ca F80A     		.uleb128 .LEHB37-.LFB1223
 1193 00cc 05       		.uleb128 .LEHE37-.LEHB37
 1194 00cd DB0C     		.uleb128 .L50-.LFB1223
 1195 00cf 00       		.uleb128 0
 1196 00d0 9F0B     		.uleb128 .LEHB38-.LFB1223
 1197 00d2 40       		.uleb128 .LEHE38-.LEHB38
 1198 00d3 E90B     		.uleb128 .L62-.LFB1223
 1199 00d5 00       		.uleb128 0
 1200 00d6 DF0B     		.uleb128 .LEHB39-.LFB1223
 1201 00d8 05       		.uleb128 .LEHE39-.LEHB39
 1202 00d9 DB0C     		.uleb128 .L50-.LFB1223
 1203 00db 00       		.uleb128 0
 1204 00dc 830C     		.uleb128 .LEHB40-.LFB1223
 1205 00de 40       		.uleb128 .LEHE40-.LEHB40
 1206 00df CD0C     		.uleb128 .L64-.LFB1223
 1207 00e1 00       		.uleb128 0
 1208 00e2 C30C     		.uleb128 .LEHB41-.LFB1223
 1209 00e4 05       		.uleb128 .LEHE41-.LEHB41
 1210 00e5 DB0C     		.uleb128 .L50-.LFB1223
 1211 00e7 00       		.uleb128 0
 1212 00e8 F70C     		.uleb128 .LEHB42-.LFB1223
 1213 00ea 05       		.uleb128 .LEHE42-.LEHB42
 1214 00eb 00       		.uleb128 0
 1215 00ec 00       		.uleb128 0
 1216              	.LLSDACSE1223:
 1217 00ed 01       		.byte	0x1
 1218 00ee 00       		.byte	0
 1219 00ef 00       		.align 4
 1220 00f0 00000000 		.long	0
 1221              	
 1222              	.LLSDATT1223:
 1223              		.text
 1225              		.section	.rodata
 1226              	.LC13:
 1227 0210 42696E49 		.string	"BinIO_testWriteFile"
 1227      4F5F7465 
 1227      73745772 
 1227      69746546 
 1227      696C6500 
 1228              		.section	.text._ZN23TestBinIO_testWriteFileC2Ev,"axG",@progbits,_ZN23TestBinIO_testWriteFileC5Ev,c
 1229              		.align 2
 1230              		.weak	_ZN23TestBinIO_testWriteFileC2Ev
 1232              	_ZN23TestBinIO_testWriteFileC2Ev:
 1233              	.LFB1225:
  53:testBinIO.cpp **** 
  54:testBinIO.cpp **** TEST(BinIO_testWriteFile) {
 1234              		.loc 4 54 1
 1235              		.cfi_startproc
 1236 0000 F30F1EFA 		endbr64
 1237 0004 55       		pushq	%rbp
 1238              		.cfi_def_cfa_offset 16
 1239              		.cfi_offset 6, -16
 1240 0005 4889E5   		movq	%rsp, %rbp
 1241              		.cfi_def_cfa_register 6
 1242 0008 53       		pushq	%rbx
 1243 0009 4883EC18 		subq	$24, %rsp
 1244              		.cfi_offset 3, -24
 1245 000d 48897DE8 		movq	%rdi, -24(%rbp)
 1246              	.LBB9:
 1247              		.loc 4 54 1
 1248 0011 488B5DE8 		movq	-24(%rbp), %rbx
 1249 0015 E8000000 		call	_ZN13UnitTestSuite12GetSuiteNameEv
 1249      00
 1250 001a 4889C2   		movq	%rax, %rdx
 1251 001d 41B83600 		movl	$54, %r8d
 1251      0000
 1252 0023 488D0500 		leaq	.LC1(%rip), %rax
 1252      000000
 1253 002a 4889C1   		movq	%rax, %rcx
 1254 002d 488D0500 		leaq	.LC13(%rip), %rax
 1254      000000
 1255 0034 4889C6   		movq	%rax, %rsi
 1256 0037 4889DF   		movq	%rbx, %rdi
 1257 003a E8000000 		call	_ZN8UnitTest4TestC2EPKcS2_S2_i@PLT
 1257      00
 1258 003f 488D1500 		leaq	16+_ZTV23TestBinIO_testWriteFile(%rip), %rdx
 1258      000000
 1259 0046 488B45E8 		movq	-24(%rbp), %rax
 1260 004a 488910   		movq	%rdx, (%rax)
 1261              	.LBE9:
 1262 004d 90       		nop
 1263 004e 488B5DF8 		movq	-8(%rbp), %rbx
 1264 0052 C9       		leave
 1265              		.cfi_def_cfa 7, 8
 1266 0053 C3       		ret
 1267              		.cfi_endproc
 1268              	.LFE1225:
 1270              		.weak	_ZN23TestBinIO_testWriteFileC1Ev
 1271              		.set	_ZN23TestBinIO_testWriteFileC1Ev,_ZN23TestBinIO_testWriteFileC2Ev
 1272              		.globl	testBinIO_testWriteFileInstance
 1273              		.bss
 1274 0079 00000000 		.align 32
 1274      000000
 1277              	testBinIO_testWriteFileInstance:
 1278 0080 00000000 		.zero	56
 1278      00000000 
 1278      00000000 
 1278      00000000 
 1278      00000000 
 1279              		.globl	adderBinIO_testWriteFile
 1282              	adderBinIO_testWriteFile:
 1283 00b8 00       		.zero	1
 1284              		.section	.rodata
 1285              	.LC14:
 1286 0224 66696C65 		.string	"file.is_open()"
 1286      2E69735F 
 1286      6F70656E 
 1286      282900
 1287 0233 00000000 		.align 8
 1287      00
 1288              	.LC15:
 1289 0238 556E6861 		.string	"Unhandled exception in CHECK(file.is_open())"
 1289      6E646C65 
 1289      64206578 
 1289      63657074 
 1289      696F6E20 
 1290 0265 000000   		.align 8
 1291              	.LC16:
 1292 0268 556E6861 		.string	"Unhandled exception in CHECK_EQUAL(strlen(DATA), (size_t)length)"
 1292      6E646C65 
 1292      64206578 
 1292      63657074 
 1292      696F6E20 
 1293 02a9 00000000 		.align 8
 1293      000000
 1294              	.LC17:
 1295 02b0 556E6861 		.string	"Unhandled exception in CHECK_ARRAY_EQUAL(DATA, fileData)"
 1295      6E646C65 
 1295      64206578 
 1295      63657074 
 1295      696F6E20 
 1296 02e9 00000000 		.align 8
 1296      000000
 1297              	.LC18:
 1298 02f0 556E6861 		.string	"Unhandled exception in CHECK_EQUAL(9, length)"
 1298      6E646C65 
 1298      64206578 
 1298      63657074 
 1298      696F6E20 
 1299 031e 0000     		.align 8
 1300              	.LC19:
 1301 0320 556E6861 		.string	"Unhandled exception in CHECK_ARRAY_EQUAL(DATA+5, fileData)"
 1301      6E646C65 
 1301      64206578 
 1301      63657074 
 1301      696F6E20 
 1302              		.text
 1303 085f 90       		.align 2
 1304              		.globl	_ZNK23TestBinIO_testWriteFile7RunImplEv
 1306              	_ZNK23TestBinIO_testWriteFile7RunImplEv:
 1307              	.LFB1227:
 1308              		.loc 4 54 27
 1309              		.cfi_startproc
 1310              		.cfi_personality 0x9b,DW.ref.__gxx_personality_v0
 1311              		.cfi_lsda 0x1b,.LLSDA1227
 1312 0860 F30F1EFA 		endbr64
 1313 0864 55       		pushq	%rbp
 1314              		.cfi_def_cfa_offset 16
 1315              		.cfi_offset 6, -16
 1316 0865 4889E5   		movq	%rsp, %rbp
 1317              		.cfi_def_cfa_register 6
 1318 0868 53       		pushq	%rbx
 1319 0869 4881ECA8 		subq	$680, %rsp
 1319      020000
 1320              		.cfi_offset 3, -24
 1321 0870 4889BD58 		movq	%rdi, -680(%rbp)
 1321      FDFFFF
 1322              		.loc 4 54 27
 1323 0877 64488B04 		movq	%fs:40, %rax
 1323      25280000 
 1323      00
 1324 0880 488945E8 		movq	%rax, -24(%rbp)
 1325 0884 31C0     		xorl	%eax, %eax
  55:testBinIO.cpp **** 	const char *const FILENAME = "tmpFile.bin";
 1326              		.loc 4 55 20
 1327 0886 488D0500 		leaq	.LC7(%rip), %rax
 1327      000000
 1328 088d 48898588 		movq	%rax, -632(%rbp)
 1328      FDFFFF
  56:testBinIO.cpp **** 	const char *const DATA = "Just some test data";
 1329              		.loc 4 56 20
 1330 0894 488D0500 		leaq	.LC8(%rip), %rax
 1330      000000
 1331 089b 48898570 		movq	%rax, -656(%rbp)
 1331      FDFFFF
  57:testBinIO.cpp **** 	ifstream file;
 1332              		.loc 4 57 11
 1333 08a2 488D85E0 		leaq	-544(%rbp), %rax
 1333      FDFFFF
 1334 08a9 4889C7   		movq	%rax, %rdi
 1335              	.LEHB43:
 1336 08ac E8000000 		call	_ZNSt14basic_ifstreamIcSt11char_traitsIcEEC1Ev@PLT
 1336      00
 1337              	.LEHE43:
  58:testBinIO.cpp **** 	ifstream::pos_type length;
 1338              		.loc 4 58 21
 1339 08b1 488D85D0 		leaq	-560(%rbp), %rax
 1339      FDFFFF
 1340 08b8 4889C7   		movq	%rax, %rdi
 1341 08bb E8000000 		call	_ZNSt4fposI11__mbstate_tEC1Ev
 1341      00
  59:testBinIO.cpp **** 	char *fileData;
  60:testBinIO.cpp **** 	Buffer buf;
  61:testBinIO.cpp **** 	BufferStatus status = bufInitialise(&buf, 8, 0, NULL);
 1342              		.loc 4 61 37
 1343 08c0 488D8590 		leaq	-624(%rbp), %rax
 1343      FDFFFF
 1344 08c7 B9000000 		movl	$0, %ecx
 1344      00
 1345 08cc BA000000 		movl	$0, %edx
 1345      00
 1346 08d1 BE080000 		movl	$8, %esi
 1346      00
 1347 08d6 4889C7   		movq	%rax, %rdi
 1348              	.LEHB44:
 1349 08d9 E8000000 		call	bufInitialise@PLT
 1349      00
 1350              	.LEHE44:
 1351              		.loc 4 61 54
 1352 08de 89856CFD 		movl	%eax, -660(%rbp)
 1352      FFFF
 1353              	.LEHB45:
  62:testBinIO.cpp **** 	CHECK_EQUAL(BUF_SUCCESS, status);
 1354              		.loc 4 62 2
 1355 08e4 E8000000 		call	_ZN8UnitTest11CurrentTest7DetailsEv@PLT
 1355      00
 1356              		.loc 4 62 2 is_stmt 0 discriminator 1
 1357 08e9 488B08   		movq	(%rax), %rcx
 1358 08ec 488D85B0 		leaq	-592(%rbp), %rax
 1358      FDFFFF
 1359 08f3 BA3E0000 		movl	$62, %edx
 1359      00
 1360 08f8 4889CE   		movq	%rcx, %rsi
 1361 08fb 4889C7   		movq	%rax, %rdi
 1362 08fe E8000000 		call	_ZN8UnitTest11TestDetailsC1ERKS0_i@PLT
 1362      00
 1363              		.loc 4 62 2 discriminator 4
 1364 0903 C78580FD 		movl	$0, -640(%rbp)
 1364      FFFF0000 
 1364      0000
 1365 090d E8000000 		call	_ZN8UnitTest11CurrentTest7ResultsEv@PLT
 1365      00
 1366 0912 488B00   		movq	(%rax), %rax
 1367 0915 488D8DB0 		leaq	-592(%rbp), %rcx
 1367      FDFFFF
 1368 091c 488D956C 		leaq	-660(%rbp), %rdx
 1368      FDFFFF
 1369 0923 488DB580 		leaq	-640(%rbp), %rsi
 1369      FDFFFF
 1370 092a 4889C7   		movq	%rax, %rdi
 1371 092d E8000000 		call	_ZN8UnitTest10CheckEqualI12BufferStatusS1_EEvRNS_11TestResultsERKT_RKT0_RKNS_11TestDetailsE
 1371      00
 1372              	.LEHE45:
 1373              	.L72:
  63:testBinIO.cpp **** 	status = bufAppendBlock(&buf, (const uint8 *)DATA, strlen(DATA), NULL);
 1374              		.loc 4 63 25 is_stmt 1
 1375 0932 488D8590 		leaq	-624(%rbp), %rax
 1375      FDFFFF
 1376 0939 B9000000 		movl	$0, %ecx
 1376      00
 1377 093e BA130000 		movl	$19, %edx
 1377      00
 1378 0943 488D3500 		leaq	.LC8(%rip), %rsi
 1378      000000
 1379 094a 4889C7   		movq	%rax, %rdi
 1380              	.LEHB46:
 1381 094d E8000000 		call	bufAppendBlock@PLT
 1381      00
 1382              	.LEHE46:
 1383              		.loc 4 63 9
 1384 0952 89856CFD 		movl	%eax, -660(%rbp)
 1384      FFFF
 1385              	.LEHB47:
  64:testBinIO.cpp **** 	CHECK_EQUAL(BUF_SUCCESS, status);
 1386              		.loc 4 64 2
 1387 0958 E8000000 		call	_ZN8UnitTest11CurrentTest7DetailsEv@PLT
 1387      00
 1388              		.loc 4 64 2 is_stmt 0 discriminator 1
 1389 095d 488B08   		movq	(%rax), %rcx
 1390 0960 488D85B0 		leaq	-592(%rbp), %rax
 1390      FDFFFF
 1391 0967 BA400000 		movl	$64, %edx
 1391      00
 1392 096c 4889CE   		movq	%rcx, %rsi
 1393 096f 4889C7   		movq	%rax, %rdi
 1394 0972 E8000000 		call	_ZN8UnitTest11TestDetailsC1ERKS0_i@PLT
 1394      00
 1395              		.loc 4 64 2 discriminator 4
 1396 0977 C78580FD 		movl	$0, -640(%rbp)
 1396      FFFF0000 
 1396      0000
 1397 0981 E8000000 		call	_ZN8UnitTest11CurrentTest7ResultsEv@PLT
 1397      00
 1398 0986 488B00   		movq	(%rax), %rax
 1399 0989 488D8DB0 		leaq	-592(%rbp), %rcx
 1399      FDFFFF
 1400 0990 488D956C 		leaq	-660(%rbp), %rdx
 1400      FDFFFF
 1401 0997 488DB580 		leaq	-640(%rbp), %rsi
 1401      FDFFFF
 1402 099e 4889C7   		movq	%rax, %rdi
 1403 09a1 E8000000 		call	_ZN8UnitTest10CheckEqualI12BufferStatusS1_EEvRNS_11TestResultsERKT_RKT0_RKNS_11TestDetailsE
 1403      00
 1404              	.LEHE47:
 1405              	.L76:
  65:testBinIO.cpp **** 
  66:testBinIO.cpp **** 	status = bufWriteBinaryFile(&buf, FILENAME, 0, buf.length, NULL);
 1406              		.loc 4 66 29 is_stmt 1
 1407 09a6 8B9598FD 		movl	-616(%rbp), %edx
 1407      FFFF
 1408 09ac 488D8590 		leaq	-624(%rbp), %rax
 1408      FDFFFF
 1409 09b3 41B80000 		movl	$0, %r8d
 1409      0000
 1410 09b9 89D1     		movl	%edx, %ecx
 1411 09bb BA000000 		movl	$0, %edx
 1411      00
 1412 09c0 488D3500 		leaq	.LC7(%rip), %rsi
 1412      000000
 1413 09c7 4889C7   		movq	%rax, %rdi
 1414              	.LEHB48:
 1415 09ca E8000000 		call	bufWriteBinaryFile@PLT
 1415      00
 1416              	.LEHE48:
 1417              		.loc 4 66 9
 1418 09cf 89856CFD 		movl	%eax, -660(%rbp)
 1418      FFFF
 1419              	.LEHB49:
  67:testBinIO.cpp **** 	CHECK_EQUAL(BUF_SUCCESS, status);
 1420              		.loc 4 67 2
 1421 09d5 E8000000 		call	_ZN8UnitTest11CurrentTest7DetailsEv@PLT
 1421      00
 1422              		.loc 4 67 2 is_stmt 0 discriminator 1
 1423 09da 488B08   		movq	(%rax), %rcx
 1424 09dd 488D85B0 		leaq	-592(%rbp), %rax
 1424      FDFFFF
 1425 09e4 BA430000 		movl	$67, %edx
 1425      00
 1426 09e9 4889CE   		movq	%rcx, %rsi
 1427 09ec 4889C7   		movq	%rax, %rdi
 1428 09ef E8000000 		call	_ZN8UnitTest11TestDetailsC1ERKS0_i@PLT
 1428      00
 1429              		.loc 4 67 2 discriminator 4
 1430 09f4 C78580FD 		movl	$0, -640(%rbp)
 1430      FFFF0000 
 1430      0000
 1431 09fe E8000000 		call	_ZN8UnitTest11CurrentTest7ResultsEv@PLT
 1431      00
 1432 0a03 488B00   		movq	(%rax), %rax
 1433 0a06 488D8DB0 		leaq	-592(%rbp), %rcx
 1433      FDFFFF
 1434 0a0d 488D956C 		leaq	-660(%rbp), %rdx
 1434      FDFFFF
 1435 0a14 488DB580 		leaq	-640(%rbp), %rsi
 1435      FDFFFF
 1436 0a1b 4889C7   		movq	%rax, %rdi
 1437 0a1e E8000000 		call	_ZN8UnitTest10CheckEqualI12BufferStatusS1_EEvRNS_11TestResultsERKT_RKT0_RKNS_11TestDetailsE
 1437      00
 1438              	.LEHE49:
 1439              	.L79:
  68:testBinIO.cpp **** 	file.open(FILENAME, ios::in|ios::binary|ios::ate);
 1440              		.loc 4 68 11 is_stmt 1
 1441 0a23 BE040000 		movl	$4, %esi
 1441      00
 1442 0a28 BF080000 		movl	$8, %edi
 1442      00
 1443 0a2d E8000000 		call	_ZStorSt13_Ios_OpenmodeS_
 1443      00
 1444 0a32 BE020000 		movl	$2, %esi
 1444      00
 1445 0a37 89C7     		movl	%eax, %edi
 1446 0a39 E8000000 		call	_ZStorSt13_Ios_OpenmodeS_
 1446      00
 1447 0a3e 89C2     		movl	%eax, %edx
 1448 0a40 488D85E0 		leaq	-544(%rbp), %rax
 1448      FDFFFF
 1449 0a47 488D0D00 		leaq	.LC7(%rip), %rcx
 1449      000000
 1450 0a4e 4889CE   		movq	%rcx, %rsi
 1451 0a51 4889C7   		movq	%rax, %rdi
 1452              	.LEHB50:
 1453 0a54 E8000000 		call	_ZNSt14basic_ifstreamIcSt11char_traitsIcEE4openEPKcSt13_Ios_Openmode@PLT
 1453      00
 1454              	.LEHE50:
  69:testBinIO.cpp **** 	CHECK(file.is_open());
 1455              		.loc 4 69 2
 1456 0a59 488D85E0 		leaq	-544(%rbp), %rax
 1456      FDFFFF
 1457 0a60 4889C7   		movq	%rax, %rdi
 1458 0a63 E8000000 		call	_ZNSt14basic_ifstreamIcSt11char_traitsIcEE7is_openEv@PLT
 1458      00
 1459 0a68 0FB6C0   		movzbl	%al, %eax
 1460 0a6b 89C7     		movl	%eax, %edi
 1461 0a6d E8000000 		call	_ZN8UnitTest5CheckIbEEbT_
 1461      00
 1462 0a72 83F001   		xorl	$1, %eax
 1463 0a75 84C0     		testb	%al, %al
 1464 0a77 7440     		je	.L68
 1465              	.LEHB51:
 1466              		.loc 4 69 2 is_stmt 0 discriminator 1
 1467 0a79 E8000000 		call	_ZN8UnitTest11CurrentTest7ResultsEv@PLT
 1467      00
 1468 0a7e 488B18   		movq	(%rax), %rbx
 1469 0a81 E8000000 		call	_ZN8UnitTest11CurrentTest7DetailsEv@PLT
 1469      00
 1470              		.loc 4 69 2 discriminator 3
 1471 0a86 488B08   		movq	(%rax), %rcx
 1472 0a89 488D85B0 		leaq	-592(%rbp), %rax
 1472      FDFFFF
 1473 0a90 BA450000 		movl	$69, %edx
 1473      00
 1474 0a95 4889CE   		movq	%rcx, %rsi
 1475 0a98 4889C7   		movq	%rax, %rdi
 1476 0a9b E8000000 		call	_ZN8UnitTest11TestDetailsC1ERKS0_i@PLT
 1476      00
 1477              		.loc 4 69 2 discriminator 7
 1478 0aa0 488D85B0 		leaq	-592(%rbp), %rax
 1478      FDFFFF
 1479 0aa7 488D1500 		leaq	.LC14(%rip), %rdx
 1479      000000
 1480 0aae 4889C6   		movq	%rax, %rsi
 1481 0ab1 4889DF   		movq	%rbx, %rdi
 1482 0ab4 E8000000 		call	_ZN8UnitTest11TestResults13OnTestFailureERKNS_11TestDetailsEPKc@PLT
 1482      00
 1483              	.LEHE51:
 1484              	.L68:
  70:testBinIO.cpp **** 	length = file.tellg();
 1485              		.loc 4 70 21 is_stmt 1
 1486 0ab9 488D85E0 		leaq	-544(%rbp), %rax
 1486      FDFFFF
 1487 0ac0 4889C7   		movq	%rax, %rdi
 1488              	.LEHB52:
 1489 0ac3 E8000000 		call	_ZNSi5tellgEv@PLT
 1489      00
 1490              	.LEHE52:
 1491 0ac8 488985D0 		movq	%rax, -560(%rbp)
 1491      FDFFFF
 1492 0acf 488995D8 		movq	%rdx, -552(%rbp)
 1492      FDFFFF
 1493              	.LEHB53:
  71:testBinIO.cpp **** 	CHECK_EQUAL(strlen(DATA), (size_t)length);
 1494              		.loc 4 71 2
 1495 0ad6 E8000000 		call	_ZN8UnitTest11CurrentTest7DetailsEv@PLT
 1495      00
 1496 0adb 488B08   		movq	(%rax), %rcx
 1497 0ade 488D85B0 		leaq	-592(%rbp), %rax
 1497      FDFFFF
 1498 0ae5 BA470000 		movl	$71, %edx
 1498      00
 1499 0aea 4889CE   		movq	%rcx, %rsi
 1500 0aed 4889C7   		movq	%rax, %rdi
 1501 0af0 E8000000 		call	_ZN8UnitTest11TestDetailsC1ERKS0_i@PLT
 1501      00
 1502              		.loc 4 71 2 is_stmt 0 discriminator 4
 1503 0af5 488D85D0 		leaq	-560(%rbp), %rax
 1503      FDFFFF
 1504 0afc 4889C7   		movq	%rax, %rdi
 1505 0aff E8000000 		call	_ZNKSt4fposI11__mbstate_tEcvlEv
 1505      00
 1506 0b04 48898580 		movq	%rax, -640(%rbp)
 1506      FDFFFF
 1507 0b0b 48C78578 		movq	$19, -648(%rbp)
 1507      FDFFFF13 
 1507      000000
 1508 0b16 E8000000 		call	_ZN8UnitTest11CurrentTest7ResultsEv@PLT
 1508      00
 1509 0b1b 488B00   		movq	(%rax), %rax
 1510 0b1e 488D8DB0 		leaq	-592(%rbp), %rcx
 1510      FDFFFF
 1511 0b25 488D9580 		leaq	-640(%rbp), %rdx
 1511      FDFFFF
 1512 0b2c 488DB578 		leaq	-648(%rbp), %rsi
 1512      FDFFFF
 1513 0b33 4889C7   		movq	%rax, %rdi
 1514 0b36 E8000000 		call	_ZN8UnitTest10CheckEqualImmEEvRNS_11TestResultsERKT_RKT0_RKNS_11TestDetailsE
 1514      00
 1515              	.LEHE53:
 1516              	.L84:
  72:testBinIO.cpp **** 	fileData = new char[(unsigned int)length];
 1517              		.loc 4 72 36 is_stmt 1
 1518 0b3b 488D85D0 		leaq	-560(%rbp), %rax
 1518      FDFFFF
 1519 0b42 4889C7   		movq	%rax, %rdi
 1520 0b45 E8000000 		call	_ZNKSt4fposI11__mbstate_tEcvlEv
 1520      00
 1521              		.loc 4 72 22
 1522 0b4a 89C0     		movl	%eax, %eax
 1523              		.loc 4 72 42
 1524 0b4c 4889C7   		movq	%rax, %rdi
 1525              	.LEHB54:
 1526 0b4f E8000000 		call	_Znam@PLT
 1526      00
 1527              		.loc 4 72 11
 1528 0b54 48898578 		movq	%rax, -648(%rbp)
 1528      FDFFFF
  73:testBinIO.cpp **** 	file.seekg(0, ios::beg);
 1529              		.loc 4 73 12
 1530 0b5b 488D85E0 		leaq	-544(%rbp), %rax
 1530      FDFFFF
 1531 0b62 BA000000 		movl	$0, %edx
 1531      00
 1532 0b67 BE000000 		movl	$0, %esi
 1532      00
 1533 0b6c 4889C7   		movq	%rax, %rdi
 1534 0b6f E8000000 		call	_ZNSi5seekgElSt12_Ios_Seekdir@PLT
 1534      00
  74:testBinIO.cpp **** 	file.read(fileData, length);
 1535              		.loc 4 74 11
 1536 0b74 488D85D0 		leaq	-560(%rbp), %rax
 1536      FDFFFF
 1537 0b7b 4889C7   		movq	%rax, %rdi
 1538 0b7e E8000000 		call	_ZNKSt4fposI11__mbstate_tEcvlEv
 1538      00
 1539 0b83 4889C2   		movq	%rax, %rdx
 1540 0b86 488B8D78 		movq	-648(%rbp), %rcx
 1540      FDFFFF
 1541 0b8d 488D85E0 		leaq	-544(%rbp), %rax
 1541      FDFFFF
 1542 0b94 4889CE   		movq	%rcx, %rsi
 1543 0b97 4889C7   		movq	%rax, %rdi
 1544 0b9a E8000000 		call	_ZNSi4readEPcl@PLT
 1544      00
  75:testBinIO.cpp **** 	file.close();
 1545              		.loc 4 75 12
 1546 0b9f 488D85E0 		leaq	-544(%rbp), %rax
 1546      FDFFFF
 1547 0ba6 4889C7   		movq	%rax, %rdi
 1548 0ba9 E8000000 		call	_ZNSt14basic_ifstreamIcSt11char_traitsIcEE5closeEv@PLT
 1548      00
 1549              	.LEHE54:
 1550              	.LEHB55:
  76:testBinIO.cpp **** 	CHECK_ARRAY_EQUAL(DATA, fileData, (int)length);
 1551              		.loc 4 76 2
 1552 0bae E8000000 		call	_ZN8UnitTest11CurrentTest7DetailsEv@PLT
 1552      00
 1553 0bb3 488B08   		movq	(%rax), %rcx
 1554 0bb6 488D85B0 		leaq	-592(%rbp), %rax
 1554      FDFFFF
 1555 0bbd BA4C0000 		movl	$76, %edx
 1555      00
 1556 0bc2 4889CE   		movq	%rcx, %rsi
 1557 0bc5 4889C7   		movq	%rax, %rdi
 1558 0bc8 E8000000 		call	_ZN8UnitTest11TestDetailsC1ERKS0_i@PLT
 1558      00
 1559              		.loc 4 76 2 is_stmt 0 discriminator 4
 1560 0bcd 488D85D0 		leaq	-560(%rbp), %rax
 1560      FDFFFF
 1561 0bd4 4889C7   		movq	%rax, %rdi
 1562 0bd7 E8000000 		call	_ZNKSt4fposI11__mbstate_tEcvlEv
 1562      00
 1563 0bdc 89C3     		movl	%eax, %ebx
 1564 0bde E8000000 		call	_ZN8UnitTest11CurrentTest7ResultsEv@PLT
 1564      00
 1565 0be3 488B00   		movq	(%rax), %rax
 1566 0be6 488D8DB0 		leaq	-592(%rbp), %rcx
 1566      FDFFFF
 1567 0bed 488D9578 		leaq	-648(%rbp), %rdx
 1567      FDFFFF
 1568 0bf4 488DB570 		leaq	-656(%rbp), %rsi
 1568      FDFFFF
 1569 0bfb 4989C8   		movq	%rcx, %r8
 1570 0bfe 89D9     		movl	%ebx, %ecx
 1571 0c00 4889C7   		movq	%rax, %rdi
 1572 0c03 E8000000 		call	_ZN8UnitTest15CheckArrayEqualIPKcPcEEvRNS_11TestResultsERKT_RKT0_iRKNS_11TestDetailsE
 1572      00
 1573              	.LEHE55:
 1574              	.L87:
  77:testBinIO.cpp **** 
  78:testBinIO.cpp **** 	status = bufWriteBinaryFile(&buf, FILENAME, 5, 9, NULL);
 1575              		.loc 4 78 29 is_stmt 1
 1576 0c08 488D8590 		leaq	-624(%rbp), %rax
 1576      FDFFFF
 1577 0c0f 41B80000 		movl	$0, %r8d
 1577      0000
 1578 0c15 B9090000 		movl	$9, %ecx
 1578      00
 1579 0c1a BA050000 		movl	$5, %edx
 1579      00
 1580 0c1f 488D3500 		leaq	.LC7(%rip), %rsi
 1580      000000
 1581 0c26 4889C7   		movq	%rax, %rdi
 1582              	.LEHB56:
 1583 0c29 E8000000 		call	bufWriteBinaryFile@PLT
 1583      00
 1584              	.LEHE56:
 1585              		.loc 4 78 9
 1586 0c2e 89856CFD 		movl	%eax, -660(%rbp)
 1586      FFFF
 1587              	.LEHB57:
  79:testBinIO.cpp **** 	CHECK_EQUAL(BUF_SUCCESS, status);
 1588              		.loc 4 79 2
 1589 0c34 E8000000 		call	_ZN8UnitTest11CurrentTest7DetailsEv@PLT
 1589      00
 1590              		.loc 4 79 2 is_stmt 0 discriminator 1
 1591 0c39 488B08   		movq	(%rax), %rcx
 1592 0c3c 488D85B0 		leaq	-592(%rbp), %rax
 1592      FDFFFF
 1593 0c43 BA4F0000 		movl	$79, %edx
 1593      00
 1594 0c48 4889CE   		movq	%rcx, %rsi
 1595 0c4b 4889C7   		movq	%rax, %rdi
 1596 0c4e E8000000 		call	_ZN8UnitTest11TestDetailsC1ERKS0_i@PLT
 1596      00
 1597              		.loc 4 79 2 discriminator 4
 1598 0c53 C78580FD 		movl	$0, -640(%rbp)
 1598      FFFF0000 
 1598      0000
 1599 0c5d E8000000 		call	_ZN8UnitTest11CurrentTest7ResultsEv@PLT
 1599      00
 1600 0c62 488B00   		movq	(%rax), %rax
 1601 0c65 488D8DB0 		leaq	-592(%rbp), %rcx
 1601      FDFFFF
 1602 0c6c 488D956C 		leaq	-660(%rbp), %rdx
 1602      FDFFFF
 1603 0c73 488DB580 		leaq	-640(%rbp), %rsi
 1603      FDFFFF
 1604 0c7a 4889C7   		movq	%rax, %rdi
 1605 0c7d E8000000 		call	_ZN8UnitTest10CheckEqualI12BufferStatusS1_EEvRNS_11TestResultsERKT_RKT0_RKNS_11TestDetailsE
 1605      00
 1606              	.LEHE57:
 1607              	.L90:
  80:testBinIO.cpp **** 	file.open(FILENAME, ios::in|ios::binary|ios::ate);
 1608              		.loc 4 80 11 is_stmt 1
 1609 0c82 BE040000 		movl	$4, %esi
 1609      00
 1610 0c87 BF080000 		movl	$8, %edi
 1610      00
 1611 0c8c E8000000 		call	_ZStorSt13_Ios_OpenmodeS_
 1611      00
 1612 0c91 BE020000 		movl	$2, %esi
 1612      00
 1613 0c96 89C7     		movl	%eax, %edi
 1614 0c98 E8000000 		call	_ZStorSt13_Ios_OpenmodeS_
 1614      00
 1615 0c9d 89C2     		movl	%eax, %edx
 1616 0c9f 488D85E0 		leaq	-544(%rbp), %rax
 1616      FDFFFF
 1617 0ca6 488D0D00 		leaq	.LC7(%rip), %rcx
 1617      000000
 1618 0cad 4889CE   		movq	%rcx, %rsi
 1619 0cb0 4889C7   		movq	%rax, %rdi
 1620              	.LEHB58:
 1621 0cb3 E8000000 		call	_ZNSt14basic_ifstreamIcSt11char_traitsIcEE4openEPKcSt13_Ios_Openmode@PLT
 1621      00
 1622              	.LEHE58:
  81:testBinIO.cpp **** 	CHECK(file.is_open());
 1623              		.loc 4 81 2
 1624 0cb8 488D85E0 		leaq	-544(%rbp), %rax
 1624      FDFFFF
 1625 0cbf 4889C7   		movq	%rax, %rdi
 1626 0cc2 E8000000 		call	_ZNSt14basic_ifstreamIcSt11char_traitsIcEE7is_openEv@PLT
 1626      00
 1627 0cc7 0FB6C0   		movzbl	%al, %eax
 1628 0cca 89C7     		movl	%eax, %edi
 1629 0ccc E8000000 		call	_ZN8UnitTest5CheckIbEEbT_
 1629      00
 1630 0cd1 83F001   		xorl	$1, %eax
 1631 0cd4 84C0     		testb	%al, %al
 1632 0cd6 7440     		je	.L69
 1633              	.LEHB59:
 1634              		.loc 4 81 2 is_stmt 0 discriminator 1
 1635 0cd8 E8000000 		call	_ZN8UnitTest11CurrentTest7ResultsEv@PLT
 1635      00
 1636 0cdd 488B18   		movq	(%rax), %rbx
 1637 0ce0 E8000000 		call	_ZN8UnitTest11CurrentTest7DetailsEv@PLT
 1637      00
 1638              		.loc 4 81 2 discriminator 3
 1639 0ce5 488B08   		movq	(%rax), %rcx
 1640 0ce8 488D85B0 		leaq	-592(%rbp), %rax
 1640      FDFFFF
 1641 0cef BA510000 		movl	$81, %edx
 1641      00
 1642 0cf4 4889CE   		movq	%rcx, %rsi
 1643 0cf7 4889C7   		movq	%rax, %rdi
 1644 0cfa E8000000 		call	_ZN8UnitTest11TestDetailsC1ERKS0_i@PLT
 1644      00
 1645              		.loc 4 81 2 discriminator 7
 1646 0cff 488D85B0 		leaq	-592(%rbp), %rax
 1646      FDFFFF
 1647 0d06 488D1500 		leaq	.LC14(%rip), %rdx
 1647      000000
 1648 0d0d 4889C6   		movq	%rax, %rsi
 1649 0d10 4889DF   		movq	%rbx, %rdi
 1650 0d13 E8000000 		call	_ZN8UnitTest11TestResults13OnTestFailureERKNS_11TestDetailsEPKc@PLT
 1650      00
 1651              	.LEHE59:
 1652              	.L69:
  82:testBinIO.cpp **** 	length = file.tellg();
 1653              		.loc 4 82 21 is_stmt 1
 1654 0d18 488D85E0 		leaq	-544(%rbp), %rax
 1654      FDFFFF
 1655 0d1f 4889C7   		movq	%rax, %rdi
 1656              	.LEHB60:
 1657 0d22 E8000000 		call	_ZNSi5tellgEv@PLT
 1657      00
 1658              	.LEHE60:
 1659 0d27 488985D0 		movq	%rax, -560(%rbp)
 1659      FDFFFF
 1660 0d2e 488995D8 		movq	%rdx, -552(%rbp)
 1660      FDFFFF
 1661              	.LEHB61:
  83:testBinIO.cpp **** 	CHECK_EQUAL(9, length);
 1662              		.loc 4 83 2
 1663 0d35 E8000000 		call	_ZN8UnitTest11CurrentTest7DetailsEv@PLT
 1663      00
 1664 0d3a 488B08   		movq	(%rax), %rcx
 1665 0d3d 488D85B0 		leaq	-592(%rbp), %rax
 1665      FDFFFF
 1666 0d44 BA530000 		movl	$83, %edx
 1666      00
 1667 0d49 4889CE   		movq	%rcx, %rsi
 1668 0d4c 4889C7   		movq	%rax, %rdi
 1669 0d4f E8000000 		call	_ZN8UnitTest11TestDetailsC1ERKS0_i@PLT
 1669      00
 1670              		.loc 4 83 2 is_stmt 0 discriminator 4
 1671 0d54 C78580FD 		movl	$9, -640(%rbp)
 1671      FFFF0900 
 1671      0000
 1672 0d5e E8000000 		call	_ZN8UnitTest11CurrentTest7ResultsEv@PLT
 1672      00
 1673 0d63 488B00   		movq	(%rax), %rax
 1674 0d66 488D8DB0 		leaq	-592(%rbp), %rcx
 1674      FDFFFF
 1675 0d6d 488D95D0 		leaq	-560(%rbp), %rdx
 1675      FDFFFF
 1676 0d74 488DB580 		leaq	-640(%rbp), %rsi
 1676      FDFFFF
 1677 0d7b 4889C7   		movq	%rax, %rdi
 1678 0d7e E8000000 		call	_ZN8UnitTest10CheckEqualIiSt4fposI11__mbstate_tEEEvRNS_11TestResultsERKT_RKT0_RKNS_11TestDeta
 1678      00
 1679              	.LEHE61:
 1680              	.L95:
  84:testBinIO.cpp **** 	file.seekg(0, ios::beg);
 1681              		.loc 4 84 12 is_stmt 1
 1682 0d83 488D85E0 		leaq	-544(%rbp), %rax
 1682      FDFFFF
 1683 0d8a BA000000 		movl	$0, %edx
 1683      00
 1684 0d8f BE000000 		movl	$0, %esi
 1684      00
 1685 0d94 4889C7   		movq	%rax, %rdi
 1686              	.LEHB62:
 1687 0d97 E8000000 		call	_ZNSi5seekgElSt12_Ios_Seekdir@PLT
 1687      00
  85:testBinIO.cpp **** 	file.read(fileData, length);
 1688              		.loc 4 85 11
 1689 0d9c 488D85D0 		leaq	-560(%rbp), %rax
 1689      FDFFFF
 1690 0da3 4889C7   		movq	%rax, %rdi
 1691 0da6 E8000000 		call	_ZNKSt4fposI11__mbstate_tEcvlEv
 1691      00
 1692 0dab 4889C2   		movq	%rax, %rdx
 1693 0dae 488B8D78 		movq	-648(%rbp), %rcx
 1693      FDFFFF
 1694 0db5 488D85E0 		leaq	-544(%rbp), %rax
 1694      FDFFFF
 1695 0dbc 4889CE   		movq	%rcx, %rsi
 1696 0dbf 4889C7   		movq	%rax, %rdi
 1697 0dc2 E8000000 		call	_ZNSi4readEPcl@PLT
 1697      00
  86:testBinIO.cpp **** 	file.close();
 1698              		.loc 4 86 12
 1699 0dc7 488D85E0 		leaq	-544(%rbp), %rax
 1699      FDFFFF
 1700 0dce 4889C7   		movq	%rax, %rdi
 1701 0dd1 E8000000 		call	_ZNSt14basic_ifstreamIcSt11char_traitsIcEE5closeEv@PLT
 1701      00
 1702              	.LEHE62:
 1703              	.LEHB63:
  87:testBinIO.cpp **** 	CHECK_ARRAY_EQUAL(DATA+5, fileData, (int)length);
 1704              		.loc 4 87 2
 1705 0dd6 E8000000 		call	_ZN8UnitTest11CurrentTest7DetailsEv@PLT
 1705      00
 1706 0ddb 488B08   		movq	(%rax), %rcx
 1707 0dde 488D85B0 		leaq	-592(%rbp), %rax
 1707      FDFFFF
 1708 0de5 BA570000 		movl	$87, %edx
 1708      00
 1709 0dea 4889CE   		movq	%rcx, %rsi
 1710 0ded 4889C7   		movq	%rax, %rdi
 1711 0df0 E8000000 		call	_ZN8UnitTest11TestDetailsC1ERKS0_i@PLT
 1711      00
 1712              		.loc 4 87 2 is_stmt 0 discriminator 4
 1713 0df5 488D85D0 		leaq	-560(%rbp), %rax
 1713      FDFFFF
 1714 0dfc 4889C7   		movq	%rax, %rdi
 1715 0dff E8000000 		call	_ZNKSt4fposI11__mbstate_tEcvlEv
 1715      00
 1716 0e04 89C3     		movl	%eax, %ebx
 1717 0e06 488D0500 		leaq	5+.LC8(%rip), %rax
 1717      000000
 1718 0e0d 48898580 		movq	%rax, -640(%rbp)
 1718      FDFFFF
 1719 0e14 E8000000 		call	_ZN8UnitTest11CurrentTest7ResultsEv@PLT
 1719      00
 1720 0e19 488B00   		movq	(%rax), %rax
 1721 0e1c 488D8DB0 		leaq	-592(%rbp), %rcx
 1721      FDFFFF
 1722 0e23 488D9578 		leaq	-648(%rbp), %rdx
 1722      FDFFFF
 1723 0e2a 488DB580 		leaq	-640(%rbp), %rsi
 1723      FDFFFF
 1724 0e31 4989C8   		movq	%rcx, %r8
 1725 0e34 89D9     		movl	%ebx, %ecx
 1726 0e36 4889C7   		movq	%rax, %rdi
 1727 0e39 E8000000 		call	_ZN8UnitTest15CheckArrayEqualIPKcPcEEvRNS_11TestResultsERKT_RKT0_iRKNS_11TestDetailsE
 1727      00
 1728              	.LEHE63:
 1729              	.L98:
  88:testBinIO.cpp **** 
  89:testBinIO.cpp **** 	delete[] fileData;
 1730              		.loc 4 89 2 is_stmt 1
 1731 0e3e 488B8578 		movq	-648(%rbp), %rax
 1731      FDFFFF
 1732 0e45 4885C0   		testq	%rax, %rax
 1733 0e48 740F     		je	.L70
 1734              		.loc 4 89 11 discriminator 1
 1735 0e4a 488B8578 		movq	-648(%rbp), %rax
 1735      FDFFFF
 1736 0e51 4889C7   		movq	%rax, %rdi
 1737 0e54 E8000000 		call	_ZdaPv@PLT
 1737      00
 1738              	.L70:
  90:testBinIO.cpp **** 	bufDestroy(&buf);
 1739              		.loc 4 90 12
 1740 0e59 488D8590 		leaq	-624(%rbp), %rax
 1740      FDFFFF
 1741 0e60 4889C7   		movq	%rax, %rdi
 1742              	.LEHB64:
 1743 0e63 E8000000 		call	bufDestroy@PLT
 1743      00
 1744              	.LEHE64:
  91:testBinIO.cpp **** }
 1745              		.loc 4 91 1
 1746 0e68 488D85E0 		leaq	-544(%rbp), %rax
 1746      FDFFFF
 1747 0e6f 4889C7   		movq	%rax, %rdi
 1748              	.LEHB65:
 1749 0e72 E8000000 		call	_ZNSt14basic_ifstreamIcSt11char_traitsIcEED1Ev@PLT
 1749      00
 1750              	.LEHE65:
 1751 0e77 488B45E8 		movq	-24(%rbp), %rax
 1752 0e7b 64482B04 		subq	%fs:40, %rax
 1752      25280000 
 1752      00
 1753 0e84 0F842B04 		je	.L100
 1753      0000
 1754 0e8a E9210400 		jmp	.L122
 1754      00
 1755              	.L102:
 1756 0e8f F30F1EFA 		endbr64
  62:testBinIO.cpp **** 	status = bufAppendBlock(&buf, (const uint8 *)DATA, strlen(DATA), NULL);
 1757              		.loc 4 62 2
 1758 0e93 4889C7   		movq	%rax, %rdi
 1759 0e96 E8000000 		call	__cxa_begin_catch@PLT
 1759      00
 1760              	.LEHB66:
 1761 0e9b E8000000 		call	_ZN8UnitTest11CurrentTest7ResultsEv@PLT
 1761      00
  62:testBinIO.cpp **** 	status = bufAppendBlock(&buf, (const uint8 *)DATA, strlen(DATA), NULL);
 1762              		.loc 4 62 2 is_stmt 0 discriminator 3
 1763 0ea0 488B18   		movq	(%rax), %rbx
 1764 0ea3 E8000000 		call	_ZN8UnitTest11CurrentTest7DetailsEv@PLT
 1764      00
  62:testBinIO.cpp **** 	status = bufAppendBlock(&buf, (const uint8 *)DATA, strlen(DATA), NULL);
 1765              		.loc 4 62 2 discriminator 11
 1766 0ea8 488B08   		movq	(%rax), %rcx
 1767 0eab 488D85B0 		leaq	-592(%rbp), %rax
 1767      FDFFFF
 1768 0eb2 BA3E0000 		movl	$62, %edx
 1768      00
 1769 0eb7 4889CE   		movq	%rcx, %rsi
 1770 0eba 4889C7   		movq	%rax, %rdi
 1771 0ebd E8000000 		call	_ZN8UnitTest11TestDetailsC1ERKS0_i@PLT
 1771      00
  62:testBinIO.cpp **** 	status = bufAppendBlock(&buf, (const uint8 *)DATA, strlen(DATA), NULL);
 1772              		.loc 4 62 2 discriminator 15
 1773 0ec2 488D85B0 		leaq	-592(%rbp), %rax
 1773      FDFFFF
 1774 0ec9 488D1500 		leaq	.LC4(%rip), %rdx
 1774      000000
 1775 0ed0 4889C6   		movq	%rax, %rsi
 1776 0ed3 4889DF   		movq	%rbx, %rdi
 1777 0ed6 E8000000 		call	_ZN8UnitTest11TestResults13OnTestFailureERKNS_11TestDetailsEPKc@PLT
 1777      00
 1778              	.LEHE66:
 1779              	.LEHB67:
  62:testBinIO.cpp **** 	status = bufAppendBlock(&buf, (const uint8 *)DATA, strlen(DATA), NULL);
 1780              		.loc 4 62 2 discriminator 17
 1781 0edb E8000000 		call	__cxa_end_catch@PLT
 1781      00
 1782              	.LEHE67:
  62:testBinIO.cpp **** 	status = bufAppendBlock(&buf, (const uint8 *)DATA, strlen(DATA), NULL);
 1783              		.loc 4 62 2
 1784 0ee0 E94DFAFF 		jmp	.L72
 1784      FF
 1785              	.L103:
 1786 0ee5 F30F1EFA 		endbr64
 1787 0ee9 4889C3   		movq	%rax, %rbx
 1788 0eec E8000000 		call	__cxa_end_catch@PLT
 1788      00
 1789 0ef1 E9A00300 		jmp	.L74
 1789      00
 1790              	.L104:
 1791 0ef6 F30F1EFA 		endbr64
  64:testBinIO.cpp **** 
 1792              		.loc 4 64 2 is_stmt 1
 1793 0efa 4889C7   		movq	%rax, %rdi
 1794 0efd E8000000 		call	__cxa_begin_catch@PLT
 1794      00
 1795              	.LEHB68:
 1796 0f02 E8000000 		call	_ZN8UnitTest11CurrentTest7ResultsEv@PLT
 1796      00
  64:testBinIO.cpp **** 
 1797              		.loc 4 64 2 is_stmt 0 discriminator 3
 1798 0f07 488B18   		movq	(%rax), %rbx
 1799 0f0a E8000000 		call	_ZN8UnitTest11CurrentTest7DetailsEv@PLT
 1799      00
  64:testBinIO.cpp **** 
 1800              		.loc 4 64 2 discriminator 11
 1801 0f0f 488B08   		movq	(%rax), %rcx
 1802 0f12 488D85B0 		leaq	-592(%rbp), %rax
 1802      FDFFFF
 1803 0f19 BA400000 		movl	$64, %edx
 1803      00
 1804 0f1e 4889CE   		movq	%rcx, %rsi
 1805 0f21 4889C7   		movq	%rax, %rdi
 1806 0f24 E8000000 		call	_ZN8UnitTest11TestDetailsC1ERKS0_i@PLT
 1806      00
  64:testBinIO.cpp **** 
 1807              		.loc 4 64 2 discriminator 15
 1808 0f29 488D85B0 		leaq	-592(%rbp), %rax
 1808      FDFFFF
 1809 0f30 488D1500 		leaq	.LC4(%rip), %rdx
 1809      000000
 1810 0f37 4889C6   		movq	%rax, %rsi
 1811 0f3a 4889DF   		movq	%rbx, %rdi
 1812 0f3d E8000000 		call	_ZN8UnitTest11TestResults13OnTestFailureERKNS_11TestDetailsEPKc@PLT
 1812      00
 1813              	.LEHE68:
 1814              	.LEHB69:
  64:testBinIO.cpp **** 
 1815              		.loc 4 64 2 discriminator 17
 1816 0f42 E8000000 		call	__cxa_end_catch@PLT
 1816      00
 1817              	.LEHE69:
  64:testBinIO.cpp **** 
 1818              		.loc 4 64 2
 1819 0f47 E95AFAFF 		jmp	.L76
 1819      FF
 1820              	.L105:
 1821 0f4c F30F1EFA 		endbr64
 1822 0f50 4889C3   		movq	%rax, %rbx
 1823 0f53 E8000000 		call	__cxa_end_catch@PLT
 1823      00
 1824 0f58 E9390300 		jmp	.L74
 1824      00
 1825              	.L106:
 1826 0f5d F30F1EFA 		endbr64
  67:testBinIO.cpp **** 	file.open(FILENAME, ios::in|ios::binary|ios::ate);
 1827              		.loc 4 67 2 is_stmt 1
 1828 0f61 4889C7   		movq	%rax, %rdi
 1829 0f64 E8000000 		call	__cxa_begin_catch@PLT
 1829      00
 1830              	.LEHB70:
 1831 0f69 E8000000 		call	_ZN8UnitTest11CurrentTest7ResultsEv@PLT
 1831      00
  67:testBinIO.cpp **** 	file.open(FILENAME, ios::in|ios::binary|ios::ate);
 1832              		.loc 4 67 2 is_stmt 0 discriminator 3
 1833 0f6e 488B18   		movq	(%rax), %rbx
 1834 0f71 E8000000 		call	_ZN8UnitTest11CurrentTest7DetailsEv@PLT
 1834      00
  67:testBinIO.cpp **** 	file.open(FILENAME, ios::in|ios::binary|ios::ate);
 1835              		.loc 4 67 2 discriminator 11
 1836 0f76 488B08   		movq	(%rax), %rcx
 1837 0f79 488D85B0 		leaq	-592(%rbp), %rax
 1837      FDFFFF
 1838 0f80 BA430000 		movl	$67, %edx
 1838      00
 1839 0f85 4889CE   		movq	%rcx, %rsi
 1840 0f88 4889C7   		movq	%rax, %rdi
 1841 0f8b E8000000 		call	_ZN8UnitTest11TestDetailsC1ERKS0_i@PLT
 1841      00
  67:testBinIO.cpp **** 	file.open(FILENAME, ios::in|ios::binary|ios::ate);
 1842              		.loc 4 67 2 discriminator 15
 1843 0f90 488D85B0 		leaq	-592(%rbp), %rax
 1843      FDFFFF
 1844 0f97 488D1500 		leaq	.LC4(%rip), %rdx
 1844      000000
 1845 0f9e 4889C6   		movq	%rax, %rsi
 1846 0fa1 4889DF   		movq	%rbx, %rdi
 1847 0fa4 E8000000 		call	_ZN8UnitTest11TestResults13OnTestFailureERKNS_11TestDetailsEPKc@PLT
 1847      00
 1848              	.LEHE70:
 1849              	.LEHB71:
  67:testBinIO.cpp **** 	file.open(FILENAME, ios::in|ios::binary|ios::ate);
 1850              		.loc 4 67 2 discriminator 17
 1851 0fa9 E8000000 		call	__cxa_end_catch@PLT
 1851      00
 1852              	.LEHE71:
  67:testBinIO.cpp **** 	file.open(FILENAME, ios::in|ios::binary|ios::ate);
 1853              		.loc 4 67 2
 1854 0fae E970FAFF 		jmp	.L79
 1854      FF
 1855              	.L107:
 1856 0fb3 F30F1EFA 		endbr64
 1857 0fb7 4889C3   		movq	%rax, %rbx
 1858 0fba E8000000 		call	__cxa_end_catch@PLT
 1858      00
 1859 0fbf E9D20200 		jmp	.L74
 1859      00
 1860              	.L108:
 1861 0fc4 F30F1EFA 		endbr64
  69:testBinIO.cpp **** 	length = file.tellg();
 1862              		.loc 4 69 2 is_stmt 1
 1863 0fc8 4889C7   		movq	%rax, %rdi
 1864 0fcb E8000000 		call	__cxa_begin_catch@PLT
 1864      00
 1865              	.LEHB72:
 1866 0fd0 E8000000 		call	_ZN8UnitTest11CurrentTest7ResultsEv@PLT
 1866      00
  69:testBinIO.cpp **** 	length = file.tellg();
 1867              		.loc 4 69 2 is_stmt 0 discriminator 2
 1868 0fd5 488B18   		movq	(%rax), %rbx
 1869 0fd8 E8000000 		call	_ZN8UnitTest11CurrentTest7DetailsEv@PLT
 1869      00
  69:testBinIO.cpp **** 	length = file.tellg();
 1870              		.loc 4 69 2 discriminator 12
 1871 0fdd 488B08   		movq	(%rax), %rcx
 1872 0fe0 488D85B0 		leaq	-592(%rbp), %rax
 1872      FDFFFF
 1873 0fe7 BA450000 		movl	$69, %edx
 1873      00
 1874 0fec 4889CE   		movq	%rcx, %rsi
 1875 0fef 4889C7   		movq	%rax, %rdi
 1876 0ff2 E8000000 		call	_ZN8UnitTest11TestDetailsC1ERKS0_i@PLT
 1876      00
  69:testBinIO.cpp **** 	length = file.tellg();
 1877              		.loc 4 69 2 discriminator 16
 1878 0ff7 488D85B0 		leaq	-592(%rbp), %rax
 1878      FDFFFF
 1879 0ffe 488D1500 		leaq	.LC15(%rip), %rdx
 1879      000000
 1880 1005 4889C6   		movq	%rax, %rsi
 1881 1008 4889DF   		movq	%rbx, %rdi
 1882 100b E8000000 		call	_ZN8UnitTest11TestResults13OnTestFailureERKNS_11TestDetailsEPKc@PLT
 1882      00
 1883              	.LEHE72:
 1884              	.LEHB73:
  69:testBinIO.cpp **** 	length = file.tellg();
 1885              		.loc 4 69 2 discriminator 18
 1886 1010 E8000000 		call	__cxa_end_catch@PLT
 1886      00
 1887              	.LEHE73:
  69:testBinIO.cpp **** 	length = file.tellg();
 1888              		.loc 4 69 2
 1889 1015 E99FFAFF 		jmp	.L68
 1889      FF
 1890              	.L109:
 1891 101a F30F1EFA 		endbr64
 1892 101e 4889C3   		movq	%rax, %rbx
 1893 1021 E8000000 		call	__cxa_end_catch@PLT
 1893      00
 1894 1026 E96B0200 		jmp	.L74
 1894      00
 1895              	.L110:
 1896 102b F30F1EFA 		endbr64
  71:testBinIO.cpp **** 	fileData = new char[(unsigned int)length];
 1897              		.loc 4 71 2 is_stmt 1
 1898 102f 4889C7   		movq	%rax, %rdi
 1899 1032 E8000000 		call	__cxa_begin_catch@PLT
 1899      00
 1900              	.LEHB74:
 1901 1037 E8000000 		call	_ZN8UnitTest11CurrentTest7ResultsEv@PLT
 1901      00
  71:testBinIO.cpp **** 	fileData = new char[(unsigned int)length];
 1902              		.loc 4 71 2 is_stmt 0 discriminator 3
 1903 103c 488B18   		movq	(%rax), %rbx
 1904 103f E8000000 		call	_ZN8UnitTest11CurrentTest7DetailsEv@PLT
 1904      00
  71:testBinIO.cpp **** 	fileData = new char[(unsigned int)length];
 1905              		.loc 4 71 2 discriminator 11
 1906 1044 488B08   		movq	(%rax), %rcx
 1907 1047 488D85B0 		leaq	-592(%rbp), %rax
 1907      FDFFFF
 1908 104e BA470000 		movl	$71, %edx
 1908      00
 1909 1053 4889CE   		movq	%rcx, %rsi
 1910 1056 4889C7   		movq	%rax, %rdi
 1911 1059 E8000000 		call	_ZN8UnitTest11TestDetailsC1ERKS0_i@PLT
 1911      00
  71:testBinIO.cpp **** 	fileData = new char[(unsigned int)length];
 1912              		.loc 4 71 2 discriminator 15
 1913 105e 488D85B0 		leaq	-592(%rbp), %rax
 1913      FDFFFF
 1914 1065 488D1500 		leaq	.LC16(%rip), %rdx
 1914      000000
 1915 106c 4889C6   		movq	%rax, %rsi
 1916 106f 4889DF   		movq	%rbx, %rdi
 1917 1072 E8000000 		call	_ZN8UnitTest11TestResults13OnTestFailureERKNS_11TestDetailsEPKc@PLT
 1917      00
 1918              	.LEHE74:
 1919              	.LEHB75:
  71:testBinIO.cpp **** 	fileData = new char[(unsigned int)length];
 1920              		.loc 4 71 2 discriminator 17
 1921 1077 E8000000 		call	__cxa_end_catch@PLT
 1921      00
 1922              	.LEHE75:
  71:testBinIO.cpp **** 	fileData = new char[(unsigned int)length];
 1923              		.loc 4 71 2
 1924 107c E9BAFAFF 		jmp	.L84
 1924      FF
 1925              	.L111:
 1926 1081 F30F1EFA 		endbr64
 1927 1085 4889C3   		movq	%rax, %rbx
 1928 1088 E8000000 		call	__cxa_end_catch@PLT
 1928      00
 1929 108d E9040200 		jmp	.L74
 1929      00
 1930              	.L112:
 1931 1092 F30F1EFA 		endbr64
  76:testBinIO.cpp **** 
 1932              		.loc 4 76 2 is_stmt 1
 1933 1096 4889C7   		movq	%rax, %rdi
 1934 1099 E8000000 		call	__cxa_begin_catch@PLT
 1934      00
 1935              	.LEHB76:
 1936 109e E8000000 		call	_ZN8UnitTest11CurrentTest7ResultsEv@PLT
 1936      00
  76:testBinIO.cpp **** 
 1937              		.loc 4 76 2 is_stmt 0 discriminator 7
 1938 10a3 488B18   		movq	(%rax), %rbx
 1939 10a6 E8000000 		call	_ZN8UnitTest11CurrentTest7DetailsEv@PLT
 1939      00
  76:testBinIO.cpp **** 
 1940              		.loc 4 76 2 discriminator 11
 1941 10ab 488B08   		movq	(%rax), %rcx
 1942 10ae 488D85B0 		leaq	-592(%rbp), %rax
 1942      FDFFFF
 1943 10b5 BA4C0000 		movl	$76, %edx
 1943      00
 1944 10ba 4889CE   		movq	%rcx, %rsi
 1945 10bd 4889C7   		movq	%rax, %rdi
 1946 10c0 E8000000 		call	_ZN8UnitTest11TestDetailsC1ERKS0_i@PLT
 1946      00
  76:testBinIO.cpp **** 
 1947              		.loc 4 76 2 discriminator 15
 1948 10c5 488D85B0 		leaq	-592(%rbp), %rax
 1948      FDFFFF
 1949 10cc 488D1500 		leaq	.LC17(%rip), %rdx
 1949      000000
 1950 10d3 4889C6   		movq	%rax, %rsi
 1951 10d6 4889DF   		movq	%rbx, %rdi
 1952 10d9 E8000000 		call	_ZN8UnitTest11TestResults13OnTestFailureERKNS_11TestDetailsEPKc@PLT
 1952      00
 1953              	.LEHE76:
 1954              	.LEHB77:
  76:testBinIO.cpp **** 
 1955              		.loc 4 76 2 discriminator 17
 1956 10de E8000000 		call	__cxa_end_catch@PLT
 1956      00
 1957              	.LEHE77:
  76:testBinIO.cpp **** 
 1958              		.loc 4 76 2
 1959 10e3 E920FBFF 		jmp	.L87
 1959      FF
 1960              	.L113:
 1961 10e8 F30F1EFA 		endbr64
 1962 10ec 4889C3   		movq	%rax, %rbx
 1963 10ef E8000000 		call	__cxa_end_catch@PLT
 1963      00
 1964 10f4 E99D0100 		jmp	.L74
 1964      00
 1965              	.L114:
 1966 10f9 F30F1EFA 		endbr64
  79:testBinIO.cpp **** 	file.open(FILENAME, ios::in|ios::binary|ios::ate);
 1967              		.loc 4 79 2 is_stmt 1
 1968 10fd 4889C7   		movq	%rax, %rdi
 1969 1100 E8000000 		call	__cxa_begin_catch@PLT
 1969      00
 1970              	.LEHB78:
 1971 1105 E8000000 		call	_ZN8UnitTest11CurrentTest7ResultsEv@PLT
 1971      00
  79:testBinIO.cpp **** 	file.open(FILENAME, ios::in|ios::binary|ios::ate);
 1972              		.loc 4 79 2 is_stmt 0 discriminator 3
 1973 110a 488B18   		movq	(%rax), %rbx
 1974 110d E8000000 		call	_ZN8UnitTest11CurrentTest7DetailsEv@PLT
 1974      00
  79:testBinIO.cpp **** 	file.open(FILENAME, ios::in|ios::binary|ios::ate);
 1975              		.loc 4 79 2 discriminator 11
 1976 1112 488B08   		movq	(%rax), %rcx
 1977 1115 488D85B0 		leaq	-592(%rbp), %rax
 1977      FDFFFF
 1978 111c BA4F0000 		movl	$79, %edx
 1978      00
 1979 1121 4889CE   		movq	%rcx, %rsi
 1980 1124 4889C7   		movq	%rax, %rdi
 1981 1127 E8000000 		call	_ZN8UnitTest11TestDetailsC1ERKS0_i@PLT
 1981      00
  79:testBinIO.cpp **** 	file.open(FILENAME, ios::in|ios::binary|ios::ate);
 1982              		.loc 4 79 2 discriminator 15
 1983 112c 488D85B0 		leaq	-592(%rbp), %rax
 1983      FDFFFF
 1984 1133 488D1500 		leaq	.LC4(%rip), %rdx
 1984      000000
 1985 113a 4889C6   		movq	%rax, %rsi
 1986 113d 4889DF   		movq	%rbx, %rdi
 1987 1140 E8000000 		call	_ZN8UnitTest11TestResults13OnTestFailureERKNS_11TestDetailsEPKc@PLT
 1987      00
 1988              	.LEHE78:
 1989              	.LEHB79:
  79:testBinIO.cpp **** 	file.open(FILENAME, ios::in|ios::binary|ios::ate);
 1990              		.loc 4 79 2 discriminator 17
 1991 1145 E8000000 		call	__cxa_end_catch@PLT
 1991      00
 1992              	.LEHE79:
  79:testBinIO.cpp **** 	file.open(FILENAME, ios::in|ios::binary|ios::ate);
 1993              		.loc 4 79 2
 1994 114a E933FBFF 		jmp	.L90
 1994      FF
 1995              	.L115:
 1996 114f F30F1EFA 		endbr64
 1997 1153 4889C3   		movq	%rax, %rbx
 1998 1156 E8000000 		call	__cxa_end_catch@PLT
 1998      00
 1999 115b E9360100 		jmp	.L74
 1999      00
 2000              	.L116:
 2001 1160 F30F1EFA 		endbr64
  81:testBinIO.cpp **** 	length = file.tellg();
 2002              		.loc 4 81 2 is_stmt 1
 2003 1164 4889C7   		movq	%rax, %rdi
 2004 1167 E8000000 		call	__cxa_begin_catch@PLT
 2004      00
 2005              	.LEHB80:
 2006 116c E8000000 		call	_ZN8UnitTest11CurrentTest7ResultsEv@PLT
 2006      00
  81:testBinIO.cpp **** 	length = file.tellg();
 2007              		.loc 4 81 2 is_stmt 0 discriminator 2
 2008 1171 488B18   		movq	(%rax), %rbx
 2009 1174 E8000000 		call	_ZN8UnitTest11CurrentTest7DetailsEv@PLT
 2009      00
  81:testBinIO.cpp **** 	length = file.tellg();
 2010              		.loc 4 81 2 discriminator 12
 2011 1179 488B08   		movq	(%rax), %rcx
 2012 117c 488D85B0 		leaq	-592(%rbp), %rax
 2012      FDFFFF
 2013 1183 BA510000 		movl	$81, %edx
 2013      00
 2014 1188 4889CE   		movq	%rcx, %rsi
 2015 118b 4889C7   		movq	%rax, %rdi
 2016 118e E8000000 		call	_ZN8UnitTest11TestDetailsC1ERKS0_i@PLT
 2016      00
  81:testBinIO.cpp **** 	length = file.tellg();
 2017              		.loc 4 81 2 discriminator 16
 2018 1193 488D85B0 		leaq	-592(%rbp), %rax
 2018      FDFFFF
 2019 119a 488D1500 		leaq	.LC15(%rip), %rdx
 2019      000000
 2020 11a1 4889C6   		movq	%rax, %rsi
 2021 11a4 4889DF   		movq	%rbx, %rdi
 2022 11a7 E8000000 		call	_ZN8UnitTest11TestResults13OnTestFailureERKNS_11TestDetailsEPKc@PLT
 2022      00
 2023              	.LEHE80:
 2024              	.LEHB81:
  81:testBinIO.cpp **** 	length = file.tellg();
 2025              		.loc 4 81 2 discriminator 18
 2026 11ac E8000000 		call	__cxa_end_catch@PLT
 2026      00
 2027              	.LEHE81:
  81:testBinIO.cpp **** 	length = file.tellg();
 2028              		.loc 4 81 2
 2029 11b1 E962FBFF 		jmp	.L69
 2029      FF
 2030              	.L117:
 2031 11b6 F30F1EFA 		endbr64
 2032 11ba 4889C3   		movq	%rax, %rbx
 2033 11bd E8000000 		call	__cxa_end_catch@PLT
 2033      00
 2034 11c2 E9CF0000 		jmp	.L74
 2034      00
 2035              	.L118:
 2036 11c7 F30F1EFA 		endbr64
  83:testBinIO.cpp **** 	file.seekg(0, ios::beg);
 2037              		.loc 4 83 2 is_stmt 1
 2038 11cb 4889C7   		movq	%rax, %rdi
 2039 11ce E8000000 		call	__cxa_begin_catch@PLT
 2039      00
 2040              	.LEHB82:
 2041 11d3 E8000000 		call	_ZN8UnitTest11CurrentTest7ResultsEv@PLT
 2041      00
  83:testBinIO.cpp **** 	file.seekg(0, ios::beg);
 2042              		.loc 4 83 2 is_stmt 0 discriminator 3
 2043 11d8 488B18   		movq	(%rax), %rbx
 2044 11db E8000000 		call	_ZN8UnitTest11CurrentTest7DetailsEv@PLT
 2044      00
  83:testBinIO.cpp **** 	file.seekg(0, ios::beg);
 2045              		.loc 4 83 2 discriminator 11
 2046 11e0 488B08   		movq	(%rax), %rcx
 2047 11e3 488D85B0 		leaq	-592(%rbp), %rax
 2047      FDFFFF
 2048 11ea BA530000 		movl	$83, %edx
 2048      00
 2049 11ef 4889CE   		movq	%rcx, %rsi
 2050 11f2 4889C7   		movq	%rax, %rdi
 2051 11f5 E8000000 		call	_ZN8UnitTest11TestDetailsC1ERKS0_i@PLT
 2051      00
  83:testBinIO.cpp **** 	file.seekg(0, ios::beg);
 2052              		.loc 4 83 2 discriminator 15
 2053 11fa 488D85B0 		leaq	-592(%rbp), %rax
 2053      FDFFFF
 2054 1201 488D1500 		leaq	.LC18(%rip), %rdx
 2054      000000
 2055 1208 4889C6   		movq	%rax, %rsi
 2056 120b 4889DF   		movq	%rbx, %rdi
 2057 120e E8000000 		call	_ZN8UnitTest11TestResults13OnTestFailureERKNS_11TestDetailsEPKc@PLT
 2057      00
 2058              	.LEHE82:
 2059              	.LEHB83:
  83:testBinIO.cpp **** 	file.seekg(0, ios::beg);
 2060              		.loc 4 83 2 discriminator 17
 2061 1213 E8000000 		call	__cxa_end_catch@PLT
 2061      00
 2062              	.LEHE83:
  83:testBinIO.cpp **** 	file.seekg(0, ios::beg);
 2063              		.loc 4 83 2
 2064 1218 E966FBFF 		jmp	.L95
 2064      FF
 2065              	.L119:
 2066 121d F30F1EFA 		endbr64
 2067 1221 4889C3   		movq	%rax, %rbx
 2068 1224 E8000000 		call	__cxa_end_catch@PLT
 2068      00
 2069 1229 EB6B     		jmp	.L74
 2070              	.L120:
 2071 122b F30F1EFA 		endbr64
  87:testBinIO.cpp **** 
 2072              		.loc 4 87 2 is_stmt 1
 2073 122f 4889C7   		movq	%rax, %rdi
 2074 1232 E8000000 		call	__cxa_begin_catch@PLT
 2074      00
 2075              	.LEHB84:
 2076 1237 E8000000 		call	_ZN8UnitTest11CurrentTest7ResultsEv@PLT
 2076      00
  87:testBinIO.cpp **** 
 2077              		.loc 4 87 2 is_stmt 0 discriminator 3
 2078 123c 488B18   		movq	(%rax), %rbx
 2079 123f E8000000 		call	_ZN8UnitTest11CurrentTest7DetailsEv@PLT
 2079      00
  87:testBinIO.cpp **** 
 2080              		.loc 4 87 2 discriminator 11
 2081 1244 488B08   		movq	(%rax), %rcx
 2082 1247 488D85B0 		leaq	-592(%rbp), %rax
 2082      FDFFFF
 2083 124e BA570000 		movl	$87, %edx
 2083      00
 2084 1253 4889CE   		movq	%rcx, %rsi
 2085 1256 4889C7   		movq	%rax, %rdi
 2086 1259 E8000000 		call	_ZN8UnitTest11TestDetailsC1ERKS0_i@PLT
 2086      00
  87:testBinIO.cpp **** 
 2087              		.loc 4 87 2 discriminator 15
 2088 125e 488D85B0 		leaq	-592(%rbp), %rax
 2088      FDFFFF
 2089 1265 488D1500 		leaq	.LC19(%rip), %rdx
 2089      000000
 2090 126c 4889C6   		movq	%rax, %rsi
 2091 126f 4889DF   		movq	%rbx, %rdi
 2092 1272 E8000000 		call	_ZN8UnitTest11TestResults13OnTestFailureERKNS_11TestDetailsEPKc@PLT
 2092      00
 2093              	.LEHE84:
 2094              	.LEHB85:
  87:testBinIO.cpp **** 
 2095              		.loc 4 87 2 discriminator 17
 2096 1277 E8000000 		call	__cxa_end_catch@PLT
 2096      00
 2097              	.LEHE85:
  87:testBinIO.cpp **** 
 2098              		.loc 4 87 2
 2099 127c E9BDFBFF 		jmp	.L98
 2099      FF
 2100              	.L121:
 2101 1281 F30F1EFA 		endbr64
 2102 1285 4889C3   		movq	%rax, %rbx
 2103 1288 E8000000 		call	__cxa_end_catch@PLT
 2103      00
 2104 128d EB07     		jmp	.L74
 2105              	.L101:
 2106 128f F30F1EFA 		endbr64
 2107              		.loc 4 91 1 is_stmt 1
 2108 1293 4889C3   		movq	%rax, %rbx
 2109              	.L74:
 2110 1296 488D85E0 		leaq	-544(%rbp), %rax
 2110      FDFFFF
 2111 129d 4889C7   		movq	%rax, %rdi
 2112 12a0 E8000000 		call	_ZNSt14basic_ifstreamIcSt11char_traitsIcEED1Ev@PLT
 2112      00
 2113 12a5 4889D8   		movq	%rbx, %rax
 2114 12a8 4889C7   		movq	%rax, %rdi
 2115              	.LEHB86:
 2116 12ab E8000000 		call	_Unwind_Resume@PLT
 2116      00
 2117              	.LEHE86:
 2118              	.L122:
 2119 12b0 E8000000 		call	__stack_chk_fail@PLT
 2119      00
 2120              	.L100:
 2121 12b5 488B5DF8 		movq	-8(%rbp), %rbx
 2122 12b9 C9       		leave
 2123              		.cfi_def_cfa 7, 8
 2124 12ba C3       		ret
 2125              		.cfi_endproc
 2126              	.LFE1227:
 2127              		.section	.gcc_except_table
 2128              		.align 4
 2129              	.LLSDA1227:
 2130 00f4 FF       		.byte	0xff
 2131 00f5 9B       		.byte	0x9b
 2132 00f6 8C02     		.uleb128 .LLSDATT1227-.LLSDATTD1227
 2133              	.LLSDATTD1227:
 2134 00f8 01       		.byte	0x1
 2135 00f9 8302     		.uleb128 .LLSDACSE1227-.LLSDACSB1227
 2136              	.LLSDACSB1227:
 2137 00fb 4C       		.uleb128 .LEHB43-.LFB1227
 2138 00fc 05       		.uleb128 .LEHE43-.LEHB43
 2139 00fd 00       		.uleb128 0
 2140 00fe 00       		.uleb128 0
 2141 00ff 79       		.uleb128 .LEHB44-.LFB1227
 2142 0100 05       		.uleb128 .LEHE44-.LEHB44
 2143 0101 AF14     		.uleb128 .L101-.LFB1227
 2144 0103 00       		.uleb128 0
 2145 0104 8401     		.uleb128 .LEHB45-.LFB1227
 2146 0106 4E       		.uleb128 .LEHE45-.LEHB45
 2147 0107 AF0C     		.uleb128 .L102-.LFB1227
 2148 0109 01       		.uleb128 0x1
 2149 010a ED01     		.uleb128 .LEHB46-.LFB1227
 2150 010c 05       		.uleb128 .LEHE46-.LEHB46
 2151 010d AF14     		.uleb128 .L101-.LFB1227
 2152 010f 00       		.uleb128 0
 2153 0110 F801     		.uleb128 .LEHB47-.LFB1227
 2154 0112 4E       		.uleb128 .LEHE47-.LEHB47
 2155 0113 960D     		.uleb128 .L104-.LFB1227
 2156 0115 01       		.uleb128 0x1
 2157 0116 EA02     		.uleb128 .LEHB48-.LFB1227
 2158 0118 05       		.uleb128 .LEHE48-.LEHB48
 2159 0119 AF14     		.uleb128 .L101-.LFB1227
 2160 011b 00       		.uleb128 0
 2161 011c F502     		.uleb128 .LEHB49-.LFB1227
 2162 011e 4E       		.uleb128 .LEHE49-.LEHB49
 2163 011f FD0D     		.uleb128 .L106-.LFB1227
 2164 0121 01       		.uleb128 0x1
 2165 0122 F403     		.uleb128 .LEHB50-.LFB1227
 2166 0124 05       		.uleb128 .LEHE50-.LEHB50
 2167 0125 AF14     		.uleb128 .L101-.LFB1227
 2168 0127 00       		.uleb128 0
 2169 0128 9904     		.uleb128 .LEHB51-.LFB1227
 2170 012a 40       		.uleb128 .LEHE51-.LEHB51
 2171 012b E40E     		.uleb128 .L108-.LFB1227
 2172 012d 01       		.uleb128 0x1
 2173 012e E304     		.uleb128 .LEHB52-.LFB1227
 2174 0130 05       		.uleb128 .LEHE52-.LEHB52
 2175 0131 AF14     		.uleb128 .L101-.LFB1227
 2176 0133 00       		.uleb128 0
 2177 0134 F604     		.uleb128 .LEHB53-.LFB1227
 2178 0136 65       		.uleb128 .LEHE53-.LEHB53
 2179 0137 CB0F     		.uleb128 .L110-.LFB1227
 2180 0139 01       		.uleb128 0x1
 2181 013a EF05     		.uleb128 .LEHB54-.LFB1227
 2182 013c 5F       		.uleb128 .LEHE54-.LEHB54
 2183 013d AF14     		.uleb128 .L101-.LFB1227
 2184 013f 00       		.uleb128 0
 2185 0140 CE06     		.uleb128 .LEHB55-.LFB1227
 2186 0142 5A       		.uleb128 .LEHE55-.LEHB55
 2187 0143 B210     		.uleb128 .L112-.LFB1227
 2188 0145 01       		.uleb128 0x1
 2189 0146 C907     		.uleb128 .LEHB56-.LFB1227
 2190 0148 05       		.uleb128 .LEHE56-.LEHB56
 2191 0149 AF14     		.uleb128 .L101-.LFB1227
 2192 014b 00       		.uleb128 0
 2193 014c D407     		.uleb128 .LEHB57-.LFB1227
 2194 014e 4E       		.uleb128 .LEHE57-.LEHB57
 2195 014f 9911     		.uleb128 .L114-.LFB1227
 2196 0151 01       		.uleb128 0x1
 2197 0152 D308     		.uleb128 .LEHB58-.LFB1227
 2198 0154 05       		.uleb128 .LEHE58-.LEHB58
 2199 0155 AF14     		.uleb128 .L101-.LFB1227
 2200 0157 00       		.uleb128 0
 2201 0158 F808     		.uleb128 .LEHB59-.LFB1227
 2202 015a 40       		.uleb128 .LEHE59-.LEHB59
 2203 015b 8012     		.uleb128 .L116-.LFB1227
 2204 015d 01       		.uleb128 0x1
 2205 015e C209     		.uleb128 .LEHB60-.LFB1227
 2206 0160 05       		.uleb128 .LEHE60-.LEHB60
 2207 0161 AF14     		.uleb128 .L101-.LFB1227
 2208 0163 00       		.uleb128 0
 2209 0164 D509     		.uleb128 .LEHB61-.LFB1227
 2210 0166 4E       		.uleb128 .LEHE61-.LEHB61
 2211 0167 E712     		.uleb128 .L118-.LFB1227
 2212 0169 01       		.uleb128 0x1
 2213 016a B70A     		.uleb128 .LEHB62-.LFB1227
 2214 016c 3F       		.uleb128 .LEHE62-.LEHB62
 2215 016d AF14     		.uleb128 .L101-.LFB1227
 2216 016f 00       		.uleb128 0
 2217 0170 F60A     		.uleb128 .LEHB63-.LFB1227
 2218 0172 68       		.uleb128 .LEHE63-.LEHB63
 2219 0173 CB13     		.uleb128 .L120-.LFB1227
 2220 0175 01       		.uleb128 0x1
 2221 0176 830C     		.uleb128 .LEHB64-.LFB1227
 2222 0178 05       		.uleb128 .LEHE64-.LEHB64
 2223 0179 AF14     		.uleb128 .L101-.LFB1227
 2224 017b 00       		.uleb128 0
 2225 017c 920C     		.uleb128 .LEHB65-.LFB1227
 2226 017e 05       		.uleb128 .LEHE65-.LEHB65
 2227 017f 00       		.uleb128 0
 2228 0180 00       		.uleb128 0
 2229 0181 BB0C     		.uleb128 .LEHB66-.LFB1227
 2230 0183 40       		.uleb128 .LEHE66-.LEHB66
 2231 0184 850D     		.uleb128 .L103-.LFB1227
 2232 0186 00       		.uleb128 0
 2233 0187 FB0C     		.uleb128 .LEHB67-.LFB1227
 2234 0189 05       		.uleb128 .LEHE67-.LEHB67
 2235 018a AF14     		.uleb128 .L101-.LFB1227
 2236 018c 00       		.uleb128 0
 2237 018d A20D     		.uleb128 .LEHB68-.LFB1227
 2238 018f 40       		.uleb128 .LEHE68-.LEHB68
 2239 0190 EC0D     		.uleb128 .L105-.LFB1227
 2240 0192 00       		.uleb128 0
 2241 0193 E20D     		.uleb128 .LEHB69-.LFB1227
 2242 0195 05       		.uleb128 .LEHE69-.LEHB69
 2243 0196 AF14     		.uleb128 .L101-.LFB1227
 2244 0198 00       		.uleb128 0
 2245 0199 890E     		.uleb128 .LEHB70-.LFB1227
 2246 019b 40       		.uleb128 .LEHE70-.LEHB70
 2247 019c D30E     		.uleb128 .L107-.LFB1227
 2248 019e 00       		.uleb128 0
 2249 019f C90E     		.uleb128 .LEHB71-.LFB1227
 2250 01a1 05       		.uleb128 .LEHE71-.LEHB71
 2251 01a2 AF14     		.uleb128 .L101-.LFB1227
 2252 01a4 00       		.uleb128 0
 2253 01a5 F00E     		.uleb128 .LEHB72-.LFB1227
 2254 01a7 40       		.uleb128 .LEHE72-.LEHB72
 2255 01a8 BA0F     		.uleb128 .L109-.LFB1227
 2256 01aa 00       		.uleb128 0
 2257 01ab B00F     		.uleb128 .LEHB73-.LFB1227
 2258 01ad 05       		.uleb128 .LEHE73-.LEHB73
 2259 01ae AF14     		.uleb128 .L101-.LFB1227
 2260 01b0 00       		.uleb128 0
 2261 01b1 D70F     		.uleb128 .LEHB74-.LFB1227
 2262 01b3 40       		.uleb128 .LEHE74-.LEHB74
 2263 01b4 A110     		.uleb128 .L111-.LFB1227
 2264 01b6 00       		.uleb128 0
 2265 01b7 9710     		.uleb128 .LEHB75-.LFB1227
 2266 01b9 05       		.uleb128 .LEHE75-.LEHB75
 2267 01ba AF14     		.uleb128 .L101-.LFB1227
 2268 01bc 00       		.uleb128 0
 2269 01bd BE10     		.uleb128 .LEHB76-.LFB1227
 2270 01bf 40       		.uleb128 .LEHE76-.LEHB76
 2271 01c0 8811     		.uleb128 .L113-.LFB1227
 2272 01c2 00       		.uleb128 0
 2273 01c3 FE10     		.uleb128 .LEHB77-.LFB1227
 2274 01c5 05       		.uleb128 .LEHE77-.LEHB77
 2275 01c6 AF14     		.uleb128 .L101-.LFB1227
 2276 01c8 00       		.uleb128 0
 2277 01c9 A511     		.uleb128 .LEHB78-.LFB1227
 2278 01cb 40       		.uleb128 .LEHE78-.LEHB78
 2279 01cc EF11     		.uleb128 .L115-.LFB1227
 2280 01ce 00       		.uleb128 0
 2281 01cf E511     		.uleb128 .LEHB79-.LFB1227
 2282 01d1 05       		.uleb128 .LEHE79-.LEHB79
 2283 01d2 AF14     		.uleb128 .L101-.LFB1227
 2284 01d4 00       		.uleb128 0
 2285 01d5 8C12     		.uleb128 .LEHB80-.LFB1227
 2286 01d7 40       		.uleb128 .LEHE80-.LEHB80
 2287 01d8 D612     		.uleb128 .L117-.LFB1227
 2288 01da 00       		.uleb128 0
 2289 01db CC12     		.uleb128 .LEHB81-.LFB1227
 2290 01dd 05       		.uleb128 .LEHE81-.LEHB81
 2291 01de AF14     		.uleb128 .L101-.LFB1227
 2292 01e0 00       		.uleb128 0
 2293 01e1 F312     		.uleb128 .LEHB82-.LFB1227
 2294 01e3 40       		.uleb128 .LEHE82-.LEHB82
 2295 01e4 BD13     		.uleb128 .L119-.LFB1227
 2296 01e6 00       		.uleb128 0
 2297 01e7 B313     		.uleb128 .LEHB83-.LFB1227
 2298 01e9 05       		.uleb128 .LEHE83-.LEHB83
 2299 01ea AF14     		.uleb128 .L101-.LFB1227
 2300 01ec 00       		.uleb128 0
 2301 01ed D713     		.uleb128 .LEHB84-.LFB1227
 2302 01ef 40       		.uleb128 .LEHE84-.LEHB84
 2303 01f0 A114     		.uleb128 .L121-.LFB1227
 2304 01f2 00       		.uleb128 0
 2305 01f3 9714     		.uleb128 .LEHB85-.LFB1227
 2306 01f5 05       		.uleb128 .LEHE85-.LEHB85
 2307 01f6 AF14     		.uleb128 .L101-.LFB1227
 2308 01f8 00       		.uleb128 0
 2309 01f9 CB14     		.uleb128 .LEHB86-.LFB1227
 2310 01fb 05       		.uleb128 .LEHE86-.LEHB86
 2311 01fc 00       		.uleb128 0
 2312 01fd 00       		.uleb128 0
 2313              	.LLSDACSE1227:
 2314 01fe 01       		.byte	0x1
 2315 01ff 00       		.byte	0
 2316              		.align 4
 2317 0200 00000000 		.long	0
 2318              	
 2319              	.LLSDATT1227:
 2320              		.text
 2322              		.section	.text._ZN8UnitTest15MemoryOutStreamD1Ev,"axG",@progbits,_ZN8UnitTest15MemoryOutStreamD1Ev
 2323              		.align 2
 2324              		.weak	_ZN8UnitTest15MemoryOutStreamD1Ev
 2326              	_ZN8UnitTest15MemoryOutStreamD1Ev:
 2327              	.LFB1258:
  13:/home/asoreyh/Dropbox/projects/lago/acqua/nexys/src/makestuff/libs/libutpp/MemoryOutStream.h **** {
 2328              		.loc 3 13 7
 2329              		.cfi_startproc
 2330              		.cfi_personality 0x9b,DW.ref.__gxx_personality_v0
 2331              		.cfi_lsda 0x1b,.LLSDA1258
 2332 0000 F30F1EFA 		endbr64
 2333 0004 55       		pushq	%rbp
 2334              		.cfi_def_cfa_offset 16
 2335              		.cfi_offset 6, -16
 2336 0005 4889E5   		movq	%rsp, %rbp
 2337              		.cfi_def_cfa_register 6
 2338 0008 53       		pushq	%rbx
 2339 0009 4883EC18 		subq	$24, %rsp
 2340              		.cfi_offset 3, -24
 2341 000d 48897DE8 		movq	%rdi, -24(%rbp)
 2342              	.LBB10:
  13:/home/asoreyh/Dropbox/projects/lago/acqua/nexys/src/makestuff/libs/libutpp/MemoryOutStream.h **** {
 2343              		.loc 3 13 7
 2344 0011 488D1500 		leaq	24+_ZTVN8UnitTest15MemoryOutStreamE(%rip), %rdx
 2344      000000
 2345 0018 488B45E8 		movq	-24(%rbp), %rax
 2346 001c 488910   		movq	%rdx, (%rax)
 2347 001f 488B45E8 		movq	-24(%rbp), %rax
 2348 0023 48059000 		addq	$144, %rax
 2348      0000
 2349 0029 488D1500 		leaq	64+_ZTVN8UnitTest15MemoryOutStreamE(%rip), %rdx
 2349      000000
 2350 0030 488910   		movq	%rdx, (%rax)
 2351 0033 488B45E8 		movq	-24(%rbp), %rax
 2352 0037 4883C070 		addq	$112, %rax
 2353 003b 4889C7   		movq	%rax, %rdi
 2354              	.LEHB87:
 2355 003e E8000000 		call	_ZNSt7__cxx1112basic_stringIcSt11char_traitsIcESaIcEED1Ev@PLT
 2355      00
 2356              	.LEHE87:
  13:/home/asoreyh/Dropbox/projects/lago/acqua/nexys/src/makestuff/libs/libutpp/MemoryOutStream.h **** {
 2357              		.loc 3 13 7 is_stmt 0 discriminator 2
 2358 0043 488B45E8 		movq	-24(%rbp), %rax
 2359 0047 488D1500 		leaq	8+_ZTTN8UnitTest15MemoryOutStreamE(%rip), %rdx
 2359      000000
 2360 004e 4889D6   		movq	%rdx, %rsi
 2361 0051 4889C7   		movq	%rax, %rdi
 2362              	.LEHB88:
 2363 0054 E8000000 		call	_ZNSt7__cxx1119basic_ostringstreamIcSt11char_traitsIcESaIcEED2Ev@PLT
 2363      00
 2364              	.LEHE88:
  13:/home/asoreyh/Dropbox/projects/lago/acqua/nexys/src/makestuff/libs/libutpp/MemoryOutStream.h **** {
 2365              		.loc 3 13 7 discriminator 4
 2366 0059 488B45E8 		movq	-24(%rbp), %rax
 2367 005d 48059000 		addq	$144, %rax
 2367      0000
 2368 0063 4889C7   		movq	%rax, %rdi
 2369              	.LEHB89:
 2370 0066 E8000000 		call	_ZNSt9basic_iosIcSt11char_traitsIcEED2Ev@PLT
 2370      00
 2371              	.LEHE89:
 2372              	.LBE10:
 2373 006b EB43     		jmp	.L128
 2374              	.L126:
 2375 006d F30F1EFA 		endbr64
 2376              	.LBB11:
  13:/home/asoreyh/Dropbox/projects/lago/acqua/nexys/src/makestuff/libs/libutpp/MemoryOutStream.h **** {
 2377              		.loc 3 13 7
 2378 0071 4889C3   		movq	%rax, %rbx
 2379 0074 488B45E8 		movq	-24(%rbp), %rax
 2380 0078 488D1500 		leaq	8+_ZTTN8UnitTest15MemoryOutStreamE(%rip), %rdx
 2380      000000
 2381 007f 4889D6   		movq	%rdx, %rsi
 2382 0082 4889C7   		movq	%rax, %rdi
 2383 0085 E8000000 		call	_ZNSt7__cxx1119basic_ostringstreamIcSt11char_traitsIcESaIcEED2Ev@PLT
 2383      00
 2384 008a EB07     		jmp	.L125
 2385              	.L127:
 2386 008c F30F1EFA 		endbr64
 2387 0090 4889C3   		movq	%rax, %rbx
 2388              	.L125:
  13:/home/asoreyh/Dropbox/projects/lago/acqua/nexys/src/makestuff/libs/libutpp/MemoryOutStream.h **** {
 2389              		.loc 3 13 7 discriminator 3
 2390 0093 488B45E8 		movq	-24(%rbp), %rax
 2391 0097 48059000 		addq	$144, %rax
 2391      0000
 2392 009d 4889C7   		movq	%rax, %rdi
 2393 00a0 E8000000 		call	_ZNSt9basic_iosIcSt11char_traitsIcEED2Ev@PLT
 2393      00
 2394 00a5 4889D8   		movq	%rbx, %rax
 2395 00a8 4889C7   		movq	%rax, %rdi
 2396              	.LEHB90:
 2397 00ab E8000000 		call	_Unwind_Resume@PLT
 2397      00
 2398              	.LEHE90:
 2399              	.L128:
 2400              	.LBE11:
  13:/home/asoreyh/Dropbox/projects/lago/acqua/nexys/src/makestuff/libs/libutpp/MemoryOutStream.h **** {
 2401              		.loc 3 13 7
 2402 00b0 488B5DF8 		movq	-8(%rbp), %rbx
 2403 00b4 C9       		leave
 2404              		.cfi_def_cfa 7, 8
 2405 00b5 C3       		ret
 2406              		.cfi_endproc
 2407              	.LFE1258:
 2408              		.section	.gcc_except_table
 2409              	.LLSDA1258:
 2410 0204 FF       		.byte	0xff
 2411 0205 FF       		.byte	0xff
 2412 0206 01       		.byte	0x1
 2413 0207 12       		.uleb128 .LLSDACSE1258-.LLSDACSB1258
 2414              	.LLSDACSB1258:
 2415 0208 3E       		.uleb128 .LEHB87-.LFB1258
 2416 0209 05       		.uleb128 .LEHE87-.LEHB87
 2417 020a 6D       		.uleb128 .L126-.LFB1258
 2418 020b 00       		.uleb128 0
 2419 020c 54       		.uleb128 .LEHB88-.LFB1258
 2420 020d 05       		.uleb128 .LEHE88-.LEHB88
 2421 020e 8C01     		.uleb128 .L127-.LFB1258
 2422 0210 00       		.uleb128 0
 2423 0211 66       		.uleb128 .LEHB89-.LFB1258
 2424 0212 05       		.uleb128 .LEHE89-.LEHB89
 2425 0213 00       		.uleb128 0
 2426 0214 00       		.uleb128 0
 2427 0215 AB01     		.uleb128 .LEHB90-.LFB1258
 2428 0217 05       		.uleb128 .LEHE90-.LEHB90
 2429 0218 00       		.uleb128 0
 2430 0219 00       		.uleb128 0
 2431              	.LLSDACSE1258:
 2432              		.section	.text._ZN8UnitTest15MemoryOutStreamD1Ev,"axG",@progbits,_ZN8UnitTest15MemoryOutStreamD1Ev
 2434              		.set	.LTHUNK0,_ZN8UnitTest15MemoryOutStreamD1Ev
 2435              		.weak	_ZTv0_n24_N8UnitTest15MemoryOutStreamD1Ev
 2437              	_ZTv0_n24_N8UnitTest15MemoryOutStreamD1Ev:
 2438              	.LFB1373:
  13:/home/asoreyh/Dropbox/projects/lago/acqua/nexys/src/makestuff/libs/libutpp/MemoryOutStream.h **** {
 2439              		.loc 3 13 7 is_stmt 1
 2440              		.cfi_startproc
 2441 00b6 F30F1EFA 		endbr64
 2442 00ba 4C8B17   		movq	(%rdi), %r10
 2443 00bd 49037AE8 		addq	-24(%r10), %rdi
 2444 00c1 E93AFFFF 		jmp	.LTHUNK0
 2444      FF
 2445              		.cfi_endproc
 2446              	.LFE1373:
 2448              		.section	.text._ZN8UnitTest15MemoryOutStreamD0Ev,"axG",@progbits,_ZN8UnitTest15MemoryOutStreamD0Ev
 2449              		.align 2
 2450              		.weak	_ZN8UnitTest15MemoryOutStreamD0Ev
 2452              	_ZN8UnitTest15MemoryOutStreamD0Ev:
 2453              	.LFB1259:
  13:/home/asoreyh/Dropbox/projects/lago/acqua/nexys/src/makestuff/libs/libutpp/MemoryOutStream.h **** {
 2454              		.loc 3 13 7
 2455              		.cfi_startproc
 2456              		.cfi_personality 0x9b,DW.ref.__gxx_personality_v0
 2457              		.cfi_lsda 0x1b,.LLSDA1259
 2458 0000 F30F1EFA 		endbr64
 2459 0004 55       		pushq	%rbp
 2460              		.cfi_def_cfa_offset 16
 2461              		.cfi_offset 6, -16
 2462 0005 4889E5   		movq	%rsp, %rbp
 2463              		.cfi_def_cfa_register 6
 2464 0008 53       		pushq	%rbx
 2465 0009 4883EC18 		subq	$24, %rsp
 2466              		.cfi_offset 3, -24
 2467 000d 48897DE8 		movq	%rdi, -24(%rbp)
  13:/home/asoreyh/Dropbox/projects/lago/acqua/nexys/src/makestuff/libs/libutpp/MemoryOutStream.h **** {
 2468              		.loc 3 13 7
 2469 0011 488B45E8 		movq	-24(%rbp), %rax
 2470 0015 4889C7   		movq	%rax, %rdi
 2471              	.LEHB91:
 2472 0018 E8000000 		call	_ZN8UnitTest15MemoryOutStreamD1Ev
 2472      00
 2473              	.LEHE91:
  13:/home/asoreyh/Dropbox/projects/lago/acqua/nexys/src/makestuff/libs/libutpp/MemoryOutStream.h **** {
 2474              		.loc 3 13 7 is_stmt 0 discriminator 2
 2475 001d 488B45E8 		movq	-24(%rbp), %rax
 2476 0021 4889C7   		movq	%rax, %rdi
 2477 0024 E8000000 		call	_ZdlPv@PLT
 2477      00
 2478 0029 EB1E     		jmp	.L132
 2479              	.L131:
 2480 002b F30F1EFA 		endbr64
  13:/home/asoreyh/Dropbox/projects/lago/acqua/nexys/src/makestuff/libs/libutpp/MemoryOutStream.h **** {
 2481              		.loc 3 13 7
 2482 002f 4889C3   		movq	%rax, %rbx
 2483 0032 488B45E8 		movq	-24(%rbp), %rax
 2484 0036 4889C7   		movq	%rax, %rdi
 2485 0039 E8000000 		call	_ZdlPv@PLT
 2485      00
 2486 003e 4889D8   		movq	%rbx, %rax
 2487 0041 4889C7   		movq	%rax, %rdi
 2488              	.LEHB92:
 2489 0044 E8000000 		call	_Unwind_Resume@PLT
 2489      00
 2490              	.LEHE92:
 2491              	.L132:
 2492 0049 488B5DF8 		movq	-8(%rbp), %rbx
 2493 004d C9       		leave
 2494              		.cfi_def_cfa 7, 8
 2495 004e C3       		ret
 2496              		.cfi_endproc
 2497              	.LFE1259:
 2498              		.section	.gcc_except_table
 2499              	.LLSDA1259:
 2500 021a FF       		.byte	0xff
 2501 021b FF       		.byte	0xff
 2502 021c 01       		.byte	0x1
 2503 021d 08       		.uleb128 .LLSDACSE1259-.LLSDACSB1259
 2504              	.LLSDACSB1259:
 2505 021e 18       		.uleb128 .LEHB91-.LFB1259
 2506 021f 05       		.uleb128 .LEHE91-.LEHB91
 2507 0220 2B       		.uleb128 .L131-.LFB1259
 2508 0221 00       		.uleb128 0
 2509 0222 44       		.uleb128 .LEHB92-.LFB1259
 2510 0223 05       		.uleb128 .LEHE92-.LEHB92
 2511 0224 00       		.uleb128 0
 2512 0225 00       		.uleb128 0
 2513              	.LLSDACSE1259:
 2514              		.section	.text._ZN8UnitTest15MemoryOutStreamD0Ev,"axG",@progbits,_ZN8UnitTest15MemoryOutStreamD0Ev
 2516              		.set	.LTHUNK1,_ZN8UnitTest15MemoryOutStreamD0Ev
 2517              		.weak	_ZTv0_n24_N8UnitTest15MemoryOutStreamD0Ev
 2519              	_ZTv0_n24_N8UnitTest15MemoryOutStreamD0Ev:
 2520              	.LFB1374:
  13:/home/asoreyh/Dropbox/projects/lago/acqua/nexys/src/makestuff/libs/libutpp/MemoryOutStream.h **** {
 2521              		.loc 3 13 7 is_stmt 1
 2522              		.cfi_startproc
 2523 004f F30F1EFA 		endbr64
 2524 0053 4C8B17   		movq	(%rdi), %r10
 2525 0056 49037AE8 		addq	-24(%r10), %rdi
 2526 005a EBA4     		jmp	.LTHUNK1
 2527              		.cfi_endproc
 2528              	.LFE1374:
 2530              		.section	.rodata
 2531              	.LC20:
 2532 035b 45787065 		.string	"Expected "
 2532      63746564 
 2532      2000
 2533              	.LC21:
 2534 0365 20627574 		.string	" but was "
 2534      20776173 
 2534      2000
 2535              		.section	.text._ZN8UnitTest10CheckEqualI12BufferStatusS1_EEvRNS_11TestResultsERKT_RKT0_RKNS_11Test
 2536              		.weak	_ZN8UnitTest10CheckEqualI12BufferStatusS1_EEvRNS_11TestResultsERKT_RKT0_RKNS_11TestDetailsE
 2538              	_ZN8UnitTest10CheckEqualI12BufferStatusS1_EEvRNS_11TestResultsERKT_RKT0_RKNS_11TestDetailsE:
 2539              	.LFB1255:
 2540              		.file 5 "/home/asoreyh/Dropbox/projects/lago/acqua/nexys/src/makestuff/libs/libutpp/Checks.h"
   1:/home/asoreyh/Dropbox/projects/lago/acqua/nexys/src/makestuff/libs/libutpp/Checks.h **** #ifndef UNITTEST_CHECKS_H
   2:/home/asoreyh/Dropbox/projects/lago/acqua/nexys/src/makestuff/libs/libutpp/Checks.h **** #define UNITTEST_CHECKS_H
   3:/home/asoreyh/Dropbox/projects/lago/acqua/nexys/src/makestuff/libs/libutpp/Checks.h **** 
   4:/home/asoreyh/Dropbox/projects/lago/acqua/nexys/src/makestuff/libs/libutpp/Checks.h **** #include "Config.h"
   5:/home/asoreyh/Dropbox/projects/lago/acqua/nexys/src/makestuff/libs/libutpp/Checks.h **** #include "TestResults.h"
   6:/home/asoreyh/Dropbox/projects/lago/acqua/nexys/src/makestuff/libs/libutpp/Checks.h **** #include "MemoryOutStream.h"
   7:/home/asoreyh/Dropbox/projects/lago/acqua/nexys/src/makestuff/libs/libutpp/Checks.h **** 
   8:/home/asoreyh/Dropbox/projects/lago/acqua/nexys/src/makestuff/libs/libutpp/Checks.h **** namespace UnitTest {
   9:/home/asoreyh/Dropbox/projects/lago/acqua/nexys/src/makestuff/libs/libutpp/Checks.h **** 
  10:/home/asoreyh/Dropbox/projects/lago/acqua/nexys/src/makestuff/libs/libutpp/Checks.h **** 
  11:/home/asoreyh/Dropbox/projects/lago/acqua/nexys/src/makestuff/libs/libutpp/Checks.h **** template< typename Value >
  12:/home/asoreyh/Dropbox/projects/lago/acqua/nexys/src/makestuff/libs/libutpp/Checks.h **** bool Check(Value const value)
  13:/home/asoreyh/Dropbox/projects/lago/acqua/nexys/src/makestuff/libs/libutpp/Checks.h **** {
  14:/home/asoreyh/Dropbox/projects/lago/acqua/nexys/src/makestuff/libs/libutpp/Checks.h ****     return !!value; // doing double negative to avoid silly VS warnings
  15:/home/asoreyh/Dropbox/projects/lago/acqua/nexys/src/makestuff/libs/libutpp/Checks.h **** }
  16:/home/asoreyh/Dropbox/projects/lago/acqua/nexys/src/makestuff/libs/libutpp/Checks.h **** 
  17:/home/asoreyh/Dropbox/projects/lago/acqua/nexys/src/makestuff/libs/libutpp/Checks.h **** 
  18:/home/asoreyh/Dropbox/projects/lago/acqua/nexys/src/makestuff/libs/libutpp/Checks.h **** template< typename Expected, typename Actual >
  19:/home/asoreyh/Dropbox/projects/lago/acqua/nexys/src/makestuff/libs/libutpp/Checks.h **** void CheckEqual(TestResults& results, Expected const& expected, Actual const& actual, TestDetails c
 2541              		.loc 5 19 6
 2542              		.cfi_startproc
 2543              		.cfi_personality 0x9b,DW.ref.__gxx_personality_v0
 2544              		.cfi_lsda 0x1b,.LLSDA1255
 2545 0000 F30F1EFA 		endbr64
 2546 0004 55       		pushq	%rbp
 2547              		.cfi_def_cfa_offset 16
 2548              		.cfi_offset 6, -16
 2549 0005 4889E5   		movq	%rsp, %rbp
 2550              		.cfi_def_cfa_register 6
 2551 0008 53       		pushq	%rbx
 2552 0009 4881ECC8 		subq	$456, %rsp
 2552      010000
 2553              		.cfi_offset 3, -24
 2554 0010 4889BD48 		movq	%rdi, -440(%rbp)
 2554      FEFFFF
 2555 0017 4889B540 		movq	%rsi, -448(%rbp)
 2555      FEFFFF
 2556 001e 48899538 		movq	%rdx, -456(%rbp)
 2556      FEFFFF
 2557 0025 48898D30 		movq	%rcx, -464(%rbp)
 2557      FEFFFF
 2558              		.loc 5 19 6
 2559 002c 64488B04 		movq	%fs:40, %rax
 2559      25280000 
 2559      00
 2560 0035 488945E8 		movq	%rax, -24(%rbp)
 2561 0039 31C0     		xorl	%eax, %eax
 2562              	.LBB12:
  20:/home/asoreyh/Dropbox/projects/lago/acqua/nexys/src/makestuff/libs/libutpp/Checks.h **** {
  21:/home/asoreyh/Dropbox/projects/lago/acqua/nexys/src/makestuff/libs/libutpp/Checks.h ****     if (!(expected == actual))
 2563              		.loc 5 21 20
 2564 003b 488B8540 		movq	-448(%rbp), %rax
 2564      FEFFFF
 2565 0042 8B10     		movl	(%rax), %edx
 2566 0044 488B8538 		movq	-456(%rbp), %rax
 2566      FEFFFF
 2567 004b 8B00     		movl	(%rax), %eax
 2568              		.loc 5 21 5
 2569 004d 39C2     		cmpl	%eax, %edx
 2570 004f 0F84C600 		je	.L138
 2570      0000
 2571              	.LBB13:
  22:/home/asoreyh/Dropbox/projects/lago/acqua/nexys/src/makestuff/libs/libutpp/Checks.h ****     {
  23:/home/asoreyh/Dropbox/projects/lago/acqua/nexys/src/makestuff/libs/libutpp/Checks.h ****         UnitTest::MemoryOutStream stream;
 2572              		.loc 5 23 35
 2573 0055 488D8550 		leaq	-432(%rbp), %rax
 2573      FEFFFF
 2574 005c 4889C7   		movq	%rax, %rdi
 2575              	.LEHB93:
 2576 005f E8000000 		call	_ZN8UnitTest15MemoryOutStreamC1Ev
 2576      00
 2577              	.LEHE93:
  24:/home/asoreyh/Dropbox/projects/lago/acqua/nexys/src/makestuff/libs/libutpp/Checks.h ****         stream << "Expected " << expected << " but was " << actual;
 2578              		.loc 5 24 16
 2579 0064 488D8550 		leaq	-432(%rbp), %rax
 2579      FEFFFF
 2580 006b 488D1500 		leaq	.LC20(%rip), %rdx
 2580      000000
 2581 0072 4889D6   		movq	%rdx, %rsi
 2582 0075 4889C7   		movq	%rax, %rdi
 2583              	.LEHB94:
 2584 0078 E8000000 		call	_ZStlsISt11char_traitsIcEERSt13basic_ostreamIcT_ES5_PKc@PLT
 2584      00
 2585 007d 4889C2   		movq	%rax, %rdx
 2586              		.loc 5 24 43
 2587 0080 488B8540 		movq	-448(%rbp), %rax
 2587      FEFFFF
 2588 0087 8B00     		movl	(%rax), %eax
 2589 0089 89C6     		movl	%eax, %esi
 2590 008b 4889D7   		movq	%rdx, %rdi
 2591 008e E8000000 		call	_ZNSolsEi@PLT
 2591      00
 2592              		.loc 5 24 43 is_stmt 0 discriminator 1
 2593 0093 4889C2   		movq	%rax, %rdx
 2594 0096 488D0500 		leaq	.LC21(%rip), %rax
 2594      000000
 2595 009d 4889C6   		movq	%rax, %rsi
 2596 00a0 4889D7   		movq	%rdx, %rdi
 2597 00a3 E8000000 		call	_ZStlsISt11char_traitsIcEERSt13basic_ostreamIcT_ES5_PKc@PLT
 2597      00
 2598              		.loc 5 24 43 discriminator 2
 2599 00a8 4889C2   		movq	%rax, %rdx
 2600              		.loc 5 24 58 is_stmt 1 discriminator 2
 2601 00ab 488B8538 		movq	-456(%rbp), %rax
 2601      FEFFFF
 2602 00b2 8B00     		movl	(%rax), %eax
 2603 00b4 89C6     		movl	%eax, %esi
 2604 00b6 4889D7   		movq	%rdx, %rdi
 2605 00b9 E8000000 		call	_ZNSolsEi@PLT
 2605      00
  25:/home/asoreyh/Dropbox/projects/lago/acqua/nexys/src/makestuff/libs/libutpp/Checks.h **** 
  26:/home/asoreyh/Dropbox/projects/lago/acqua/nexys/src/makestuff/libs/libutpp/Checks.h ****         results.OnTestFailure(details, stream.GetText());
 2606              		.loc 5 26 30
 2607 00be 488D8550 		leaq	-432(%rbp), %rax
 2607      FEFFFF
 2608 00c5 4889C7   		movq	%rax, %rdi
 2609 00c8 E8000000 		call	_ZNK8UnitTest15MemoryOutStream7GetTextEv@PLT
 2609      00
 2610 00cd 4889C2   		movq	%rax, %rdx
 2611 00d0 488B8D30 		movq	-464(%rbp), %rcx
 2611      FEFFFF
 2612 00d7 488B8548 		movq	-440(%rbp), %rax
 2612      FEFFFF
 2613 00de 4889CE   		movq	%rcx, %rsi
 2614 00e1 4889C7   		movq	%rax, %rdi
 2615 00e4 E8000000 		call	_ZN8UnitTest11TestResults13OnTestFailureERKNS_11TestDetailsEPKc@PLT
 2615      00
 2616              	.LEHE94:
  27:/home/asoreyh/Dropbox/projects/lago/acqua/nexys/src/makestuff/libs/libutpp/Checks.h ****     }
 2617              		.loc 5 27 5
 2618 00e9 488D8550 		leaq	-432(%rbp), %rax
 2618      FEFFFF
 2619 00f0 4889C7   		movq	%rax, %rdi
 2620              	.LEHB95:
 2621 00f3 E8000000 		call	_ZN8UnitTest15MemoryOutStreamD1Ev
 2621      00
 2622              	.LEHE95:
 2623              	.LBE13:
 2624              	.LBE12:
  28:/home/asoreyh/Dropbox/projects/lago/acqua/nexys/src/makestuff/libs/libutpp/Checks.h **** }
 2625              		.loc 5 28 1
 2626 00f8 EB21     		jmp	.L138
 2627              	.L137:
 2628 00fa F30F1EFA 		endbr64
 2629              	.LBB15:
 2630              	.LBB14:
  27:/home/asoreyh/Dropbox/projects/lago/acqua/nexys/src/makestuff/libs/libutpp/Checks.h ****     }
 2631              		.loc 5 27 5
 2632 00fe 4889C3   		movq	%rax, %rbx
 2633 0101 488D8550 		leaq	-432(%rbp), %rax
 2633      FEFFFF
 2634 0108 4889C7   		movq	%rax, %rdi
 2635 010b E8000000 		call	_ZN8UnitTest15MemoryOutStreamD1Ev
 2635      00
 2636 0110 4889D8   		movq	%rbx, %rax
 2637 0113 4889C7   		movq	%rax, %rdi
 2638              	.LEHB96:
 2639 0116 E8000000 		call	_Unwind_Resume@PLT
 2639      00
 2640              	.LEHE96:
 2641              	.L138:
 2642              	.LBE14:
 2643              	.LBE15:
 2644              		.loc 5 28 1
 2645 011b 90       		nop
 2646 011c 488B45E8 		movq	-24(%rbp), %rax
 2647 0120 64482B04 		subq	%fs:40, %rax
 2647      25280000 
 2647      00
 2648 0129 7405     		je	.L136
 2649 012b E8000000 		call	__stack_chk_fail@PLT
 2649      00
 2650              	.L136:
 2651 0130 488B5DF8 		movq	-8(%rbp), %rbx
 2652 0134 C9       		leave
 2653              		.cfi_def_cfa 7, 8
 2654 0135 C3       		ret
 2655              		.cfi_endproc
 2656              	.LFE1255:
 2657              		.section	.gcc_except_table
 2658              	.LLSDA1255:
 2659 0226 FF       		.byte	0xff
 2660 0227 FF       		.byte	0xff
 2661 0228 01       		.byte	0x1
 2662 0229 13       		.uleb128 .LLSDACSE1255-.LLSDACSB1255
 2663              	.LLSDACSB1255:
 2664 022a 5F       		.uleb128 .LEHB93-.LFB1255
 2665 022b 05       		.uleb128 .LEHE93-.LEHB93
 2666 022c 00       		.uleb128 0
 2667 022d 00       		.uleb128 0
 2668 022e 78       		.uleb128 .LEHB94-.LFB1255
 2669 022f 71       		.uleb128 .LEHE94-.LEHB94
 2670 0230 FA01     		.uleb128 .L137-.LFB1255
 2671 0232 00       		.uleb128 0
 2672 0233 F301     		.uleb128 .LEHB95-.LFB1255
 2673 0235 05       		.uleb128 .LEHE95-.LEHB95
 2674 0236 00       		.uleb128 0
 2675 0237 00       		.uleb128 0
 2676 0238 9602     		.uleb128 .LEHB96-.LFB1255
 2677 023a 05       		.uleb128 .LEHE96-.LEHB96
 2678 023b 00       		.uleb128 0
 2679 023c 00       		.uleb128 0
 2680              	.LLSDACSE1255:
 2681              		.section	.text._ZN8UnitTest10CheckEqualI12BufferStatusS1_EEvRNS_11TestResultsERKT_RKT0_RKNS_11Test
 2683              		.section	.text._ZN8UnitTest10CheckEqualImjEEvRNS_11TestResultsERKT_RKT0_RKNS_11TestDetailsE,"axG",
 2684              		.weak	_ZN8UnitTest10CheckEqualImjEEvRNS_11TestResultsERKT_RKT0_RKNS_11TestDetailsE
 2686              	_ZN8UnitTest10CheckEqualImjEEvRNS_11TestResultsERKT_RKT0_RKNS_11TestDetailsE:
 2687              	.LFB1270:
  19:/home/asoreyh/Dropbox/projects/lago/acqua/nexys/src/makestuff/libs/libutpp/Checks.h **** {
 2688              		.loc 5 19 6
 2689              		.cfi_startproc
 2690              		.cfi_personality 0x9b,DW.ref.__gxx_personality_v0
 2691              		.cfi_lsda 0x1b,.LLSDA1270
 2692 0000 F30F1EFA 		endbr64
 2693 0004 55       		pushq	%rbp
 2694              		.cfi_def_cfa_offset 16
 2695              		.cfi_offset 6, -16
 2696 0005 4889E5   		movq	%rsp, %rbp
 2697              		.cfi_def_cfa_register 6
 2698 0008 53       		pushq	%rbx
 2699 0009 4881ECC8 		subq	$456, %rsp
 2699      010000
 2700              		.cfi_offset 3, -24
 2701 0010 4889BD48 		movq	%rdi, -440(%rbp)
 2701      FEFFFF
 2702 0017 4889B540 		movq	%rsi, -448(%rbp)
 2702      FEFFFF
 2703 001e 48899538 		movq	%rdx, -456(%rbp)
 2703      FEFFFF
 2704 0025 48898D30 		movq	%rcx, -464(%rbp)
 2704      FEFFFF
  19:/home/asoreyh/Dropbox/projects/lago/acqua/nexys/src/makestuff/libs/libutpp/Checks.h **** {
 2705              		.loc 5 19 6
 2706 002c 64488B04 		movq	%fs:40, %rax
 2706      25280000 
 2706      00
 2707 0035 488945E8 		movq	%rax, -24(%rbp)
 2708 0039 31C0     		xorl	%eax, %eax
 2709              	.LBB16:
  21:/home/asoreyh/Dropbox/projects/lago/acqua/nexys/src/makestuff/libs/libutpp/Checks.h ****     {
 2710              		.loc 5 21 20
 2711 003b 488B8540 		movq	-448(%rbp), %rax
 2711      FEFFFF
 2712 0042 488B10   		movq	(%rax), %rdx
 2713 0045 488B8538 		movq	-456(%rbp), %rax
 2713      FEFFFF
 2714 004c 8B00     		movl	(%rax), %eax
 2715 004e 89C0     		movl	%eax, %eax
  21:/home/asoreyh/Dropbox/projects/lago/acqua/nexys/src/makestuff/libs/libutpp/Checks.h ****     {
 2716              		.loc 5 21 5
 2717 0050 4839C2   		cmpq	%rax, %rdx
 2718 0053 0F84C800 		je	.L144
 2718      0000
 2719              	.LBB17:
  23:/home/asoreyh/Dropbox/projects/lago/acqua/nexys/src/makestuff/libs/libutpp/Checks.h ****         stream << "Expected " << expected << " but was " << actual;
 2720              		.loc 5 23 35
 2721 0059 488D8550 		leaq	-432(%rbp), %rax
 2721      FEFFFF
 2722 0060 4889C7   		movq	%rax, %rdi
 2723              	.LEHB97:
 2724 0063 E8000000 		call	_ZN8UnitTest15MemoryOutStreamC1Ev
 2724      00
 2725              	.LEHE97:
  24:/home/asoreyh/Dropbox/projects/lago/acqua/nexys/src/makestuff/libs/libutpp/Checks.h **** 
 2726              		.loc 5 24 16
 2727 0068 488D8550 		leaq	-432(%rbp), %rax
 2727      FEFFFF
 2728 006f 488D1500 		leaq	.LC20(%rip), %rdx
 2728      000000
 2729 0076 4889D6   		movq	%rdx, %rsi
 2730 0079 4889C7   		movq	%rax, %rdi
 2731              	.LEHB98:
 2732 007c E8000000 		call	_ZStlsISt11char_traitsIcEERSt13basic_ostreamIcT_ES5_PKc@PLT
 2732      00
 2733 0081 4889C2   		movq	%rax, %rdx
  24:/home/asoreyh/Dropbox/projects/lago/acqua/nexys/src/makestuff/libs/libutpp/Checks.h **** 
 2734              		.loc 5 24 31
 2735 0084 488B8540 		movq	-448(%rbp), %rax
 2735      FEFFFF
 2736 008b 488B00   		movq	(%rax), %rax
 2737 008e 4889C6   		movq	%rax, %rsi
 2738 0091 4889D7   		movq	%rdx, %rdi
 2739 0094 E8000000 		call	_ZNSolsEm@PLT
 2739      00
  24:/home/asoreyh/Dropbox/projects/lago/acqua/nexys/src/makestuff/libs/libutpp/Checks.h **** 
 2740              		.loc 5 24 31 is_stmt 0 discriminator 1
 2741 0099 4889C2   		movq	%rax, %rdx
  24:/home/asoreyh/Dropbox/projects/lago/acqua/nexys/src/makestuff/libs/libutpp/Checks.h **** 
 2742              		.loc 5 24 43 is_stmt 1 discriminator 1
 2743 009c 488D0500 		leaq	.LC21(%rip), %rax
 2743      000000
 2744 00a3 4889C6   		movq	%rax, %rsi
 2745 00a6 4889D7   		movq	%rdx, %rdi
 2746 00a9 E8000000 		call	_ZStlsISt11char_traitsIcEERSt13basic_ostreamIcT_ES5_PKc@PLT
 2746      00
  24:/home/asoreyh/Dropbox/projects/lago/acqua/nexys/src/makestuff/libs/libutpp/Checks.h **** 
 2747              		.loc 5 24 43 is_stmt 0 discriminator 2
 2748 00ae 4889C2   		movq	%rax, %rdx
  24:/home/asoreyh/Dropbox/projects/lago/acqua/nexys/src/makestuff/libs/libutpp/Checks.h **** 
 2749              		.loc 5 24 58 is_stmt 1 discriminator 2
 2750 00b1 488B8538 		movq	-456(%rbp), %rax
 2750      FEFFFF
 2751 00b8 8B00     		movl	(%rax), %eax
 2752 00ba 89C6     		movl	%eax, %esi
 2753 00bc 4889D7   		movq	%rdx, %rdi
 2754 00bf E8000000 		call	_ZNSolsEj@PLT
 2754      00
  26:/home/asoreyh/Dropbox/projects/lago/acqua/nexys/src/makestuff/libs/libutpp/Checks.h ****     }
 2755              		.loc 5 26 30
 2756 00c4 488D8550 		leaq	-432(%rbp), %rax
 2756      FEFFFF
 2757 00cb 4889C7   		movq	%rax, %rdi
 2758 00ce E8000000 		call	_ZNK8UnitTest15MemoryOutStream7GetTextEv@PLT
 2758      00
 2759 00d3 4889C2   		movq	%rax, %rdx
 2760 00d6 488B8D30 		movq	-464(%rbp), %rcx
 2760      FEFFFF
 2761 00dd 488B8548 		movq	-440(%rbp), %rax
 2761      FEFFFF
 2762 00e4 4889CE   		movq	%rcx, %rsi
 2763 00e7 4889C7   		movq	%rax, %rdi
 2764 00ea E8000000 		call	_ZN8UnitTest11TestResults13OnTestFailureERKNS_11TestDetailsEPKc@PLT
 2764      00
 2765              	.LEHE98:
  27:/home/asoreyh/Dropbox/projects/lago/acqua/nexys/src/makestuff/libs/libutpp/Checks.h **** }
 2766              		.loc 5 27 5
 2767 00ef 488D8550 		leaq	-432(%rbp), %rax
 2767      FEFFFF
 2768 00f6 4889C7   		movq	%rax, %rdi
 2769              	.LEHB99:
 2770 00f9 E8000000 		call	_ZN8UnitTest15MemoryOutStreamD1Ev
 2770      00
 2771              	.LEHE99:
 2772              	.LBE17:
 2773              	.LBE16:
 2774              		.loc 5 28 1
 2775 00fe EB21     		jmp	.L144
 2776              	.L143:
 2777 0100 F30F1EFA 		endbr64
 2778              	.LBB19:
 2779              	.LBB18:
  27:/home/asoreyh/Dropbox/projects/lago/acqua/nexys/src/makestuff/libs/libutpp/Checks.h **** }
 2780              		.loc 5 27 5
 2781 0104 4889C3   		movq	%rax, %rbx
 2782 0107 488D8550 		leaq	-432(%rbp), %rax
 2782      FEFFFF
 2783 010e 4889C7   		movq	%rax, %rdi
 2784 0111 E8000000 		call	_ZN8UnitTest15MemoryOutStreamD1Ev
 2784      00
 2785 0116 4889D8   		movq	%rbx, %rax
 2786 0119 4889C7   		movq	%rax, %rdi
 2787              	.LEHB100:
 2788 011c E8000000 		call	_Unwind_Resume@PLT
 2788      00
 2789              	.LEHE100:
 2790              	.L144:
 2791              	.LBE18:
 2792              	.LBE19:
 2793              		.loc 5 28 1
 2794 0121 90       		nop
 2795 0122 488B45E8 		movq	-24(%rbp), %rax
 2796 0126 64482B04 		subq	%fs:40, %rax
 2796      25280000 
 2796      00
 2797 012f 7405     		je	.L142
 2798 0131 E8000000 		call	__stack_chk_fail@PLT
 2798      00
 2799              	.L142:
 2800 0136 488B5DF8 		movq	-8(%rbp), %rbx
 2801 013a C9       		leave
 2802              		.cfi_def_cfa 7, 8
 2803 013b C3       		ret
 2804              		.cfi_endproc
 2805              	.LFE1270:
 2806              		.section	.gcc_except_table
 2807              	.LLSDA1270:
 2808 023d FF       		.byte	0xff
 2809 023e FF       		.byte	0xff
 2810 023f 01       		.byte	0x1
 2811 0240 13       		.uleb128 .LLSDACSE1270-.LLSDACSB1270
 2812              	.LLSDACSB1270:
 2813 0241 63       		.uleb128 .LEHB97-.LFB1270
 2814 0242 05       		.uleb128 .LEHE97-.LEHB97
 2815 0243 00       		.uleb128 0
 2816 0244 00       		.uleb128 0
 2817 0245 7C       		.uleb128 .LEHB98-.LFB1270
 2818 0246 73       		.uleb128 .LEHE98-.LEHB98
 2819 0247 8002     		.uleb128 .L143-.LFB1270
 2820 0249 00       		.uleb128 0
 2821 024a F901     		.uleb128 .LEHB99-.LFB1270
 2822 024c 05       		.uleb128 .LEHE99-.LEHB99
 2823 024d 00       		.uleb128 0
 2824 024e 00       		.uleb128 0
 2825 024f 9C02     		.uleb128 .LEHB100-.LFB1270
 2826 0251 05       		.uleb128 .LEHE100-.LEHB100
 2827 0252 00       		.uleb128 0
 2828 0253 00       		.uleb128 0
 2829              	.LLSDACSE1270:
 2830              		.section	.text._ZN8UnitTest10CheckEqualImjEEvRNS_11TestResultsERKT_RKT0_RKNS_11TestDetailsE,"axG",
 2832              		.section	.rodata
 2833              	.LC22:
 2834 036f 45787065 		.string	"Expected [ "
 2834      63746564 
 2834      205B2000 
 2835              	.LC23:
 2836 037b 2000     		.string	" "
 2837              	.LC24:
 2838 037d 5D206275 		.string	"] but was [ "
 2838      74207761 
 2838      73205B20 
 2838      00
 2839              	.LC25:
 2840 038a 5D00     		.string	"]"
 2841              		.section	.text._ZN8UnitTest15CheckArrayEqualIPKcPhEEvRNS_11TestResultsERKT_RKT0_iRKNS_11TestDetail
 2842              		.weak	_ZN8UnitTest15CheckArrayEqualIPKcPhEEvRNS_11TestResultsERKT_RKT0_iRKNS_11TestDetailsE
 2844              	_ZN8UnitTest15CheckArrayEqualIPKcPhEEvRNS_11TestResultsERKT_RKT0_iRKNS_11TestDetailsE:
 2845              	.LFB1271:
  29:/home/asoreyh/Dropbox/projects/lago/acqua/nexys/src/makestuff/libs/libutpp/Checks.h **** 
  30:/home/asoreyh/Dropbox/projects/lago/acqua/nexys/src/makestuff/libs/libutpp/Checks.h **** void CheckEqual(TestResults& results, char const* expected, char const* actual, TestDetails const& 
  31:/home/asoreyh/Dropbox/projects/lago/acqua/nexys/src/makestuff/libs/libutpp/Checks.h **** 
  32:/home/asoreyh/Dropbox/projects/lago/acqua/nexys/src/makestuff/libs/libutpp/Checks.h **** void CheckEqual(TestResults& results, char* expected, char* actual, TestDetails const& details);
  33:/home/asoreyh/Dropbox/projects/lago/acqua/nexys/src/makestuff/libs/libutpp/Checks.h **** 
  34:/home/asoreyh/Dropbox/projects/lago/acqua/nexys/src/makestuff/libs/libutpp/Checks.h **** void CheckEqual(TestResults& results, char* expected, char const* actual, TestDetails const& detail
  35:/home/asoreyh/Dropbox/projects/lago/acqua/nexys/src/makestuff/libs/libutpp/Checks.h **** 
  36:/home/asoreyh/Dropbox/projects/lago/acqua/nexys/src/makestuff/libs/libutpp/Checks.h **** void CheckEqual(TestResults& results, char const* expected, char* actual, TestDetails const& detail
  37:/home/asoreyh/Dropbox/projects/lago/acqua/nexys/src/makestuff/libs/libutpp/Checks.h **** 
  38:/home/asoreyh/Dropbox/projects/lago/acqua/nexys/src/makestuff/libs/libutpp/Checks.h **** template< typename Expected, typename Actual, typename Tolerance >
  39:/home/asoreyh/Dropbox/projects/lago/acqua/nexys/src/makestuff/libs/libutpp/Checks.h **** bool AreClose(Expected const& expected, Actual const& actual, Tolerance const& tolerance)
  40:/home/asoreyh/Dropbox/projects/lago/acqua/nexys/src/makestuff/libs/libutpp/Checks.h **** {
  41:/home/asoreyh/Dropbox/projects/lago/acqua/nexys/src/makestuff/libs/libutpp/Checks.h ****     return (actual >= (expected - tolerance)) && (actual <= (expected + tolerance));
  42:/home/asoreyh/Dropbox/projects/lago/acqua/nexys/src/makestuff/libs/libutpp/Checks.h **** }
  43:/home/asoreyh/Dropbox/projects/lago/acqua/nexys/src/makestuff/libs/libutpp/Checks.h **** 
  44:/home/asoreyh/Dropbox/projects/lago/acqua/nexys/src/makestuff/libs/libutpp/Checks.h **** template< typename Expected, typename Actual, typename Tolerance >
  45:/home/asoreyh/Dropbox/projects/lago/acqua/nexys/src/makestuff/libs/libutpp/Checks.h **** void CheckClose(TestResults& results, Expected const& expected, Actual const& actual, Tolerance con
  46:/home/asoreyh/Dropbox/projects/lago/acqua/nexys/src/makestuff/libs/libutpp/Checks.h ****                 TestDetails const& details)
  47:/home/asoreyh/Dropbox/projects/lago/acqua/nexys/src/makestuff/libs/libutpp/Checks.h **** {
  48:/home/asoreyh/Dropbox/projects/lago/acqua/nexys/src/makestuff/libs/libutpp/Checks.h ****     if (!AreClose(expected, actual, tolerance))
  49:/home/asoreyh/Dropbox/projects/lago/acqua/nexys/src/makestuff/libs/libutpp/Checks.h ****     { 
  50:/home/asoreyh/Dropbox/projects/lago/acqua/nexys/src/makestuff/libs/libutpp/Checks.h ****         UnitTest::MemoryOutStream stream;
  51:/home/asoreyh/Dropbox/projects/lago/acqua/nexys/src/makestuff/libs/libutpp/Checks.h ****         stream << "Expected " << expected << " +/- " << tolerance << " but was " << actual;
  52:/home/asoreyh/Dropbox/projects/lago/acqua/nexys/src/makestuff/libs/libutpp/Checks.h **** 
  53:/home/asoreyh/Dropbox/projects/lago/acqua/nexys/src/makestuff/libs/libutpp/Checks.h ****         results.OnTestFailure(details, stream.GetText());
  54:/home/asoreyh/Dropbox/projects/lago/acqua/nexys/src/makestuff/libs/libutpp/Checks.h ****     }
  55:/home/asoreyh/Dropbox/projects/lago/acqua/nexys/src/makestuff/libs/libutpp/Checks.h **** }
  56:/home/asoreyh/Dropbox/projects/lago/acqua/nexys/src/makestuff/libs/libutpp/Checks.h **** 
  57:/home/asoreyh/Dropbox/projects/lago/acqua/nexys/src/makestuff/libs/libutpp/Checks.h **** 
  58:/home/asoreyh/Dropbox/projects/lago/acqua/nexys/src/makestuff/libs/libutpp/Checks.h **** template< typename Expected, typename Actual >
  59:/home/asoreyh/Dropbox/projects/lago/acqua/nexys/src/makestuff/libs/libutpp/Checks.h **** void CheckArrayEqual(TestResults& results, Expected const& expected, Actual const& actual,
 2846              		.loc 5 59 6
 2847              		.cfi_startproc
 2848              		.cfi_personality 0x9b,DW.ref.__gxx_personality_v0
 2849              		.cfi_lsda 0x1b,.LLSDA1271
 2850 0000 F30F1EFA 		endbr64
 2851 0004 55       		pushq	%rbp
 2852              		.cfi_def_cfa_offset 16
 2853              		.cfi_offset 6, -16
 2854 0005 4889E5   		movq	%rsp, %rbp
 2855              		.cfi_def_cfa_register 6
 2856 0008 53       		pushq	%rbx
 2857 0009 4881ECE8 		subq	$488, %rsp
 2857      010000
 2858              		.cfi_offset 3, -24
 2859 0010 4889BD38 		movq	%rdi, -456(%rbp)
 2859      FEFFFF
 2860 0017 4889B530 		movq	%rsi, -464(%rbp)
 2860      FEFFFF
 2861 001e 48899528 		movq	%rdx, -472(%rbp)
 2861      FEFFFF
 2862 0025 898D24FE 		movl	%ecx, -476(%rbp)
 2862      FFFF
 2863 002b 4C898518 		movq	%r8, -488(%rbp)
 2863      FEFFFF
 2864              		.loc 5 59 6
 2865 0032 64488B04 		movq	%fs:40, %rax
 2865      25280000 
 2865      00
 2866 003b 488945E8 		movq	%rax, -24(%rbp)
 2867 003f 31C0     		xorl	%eax, %eax
  60:/home/asoreyh/Dropbox/projects/lago/acqua/nexys/src/makestuff/libs/libutpp/Checks.h ****                 int const count, TestDetails const& details)
  61:/home/asoreyh/Dropbox/projects/lago/acqua/nexys/src/makestuff/libs/libutpp/Checks.h **** {
  62:/home/asoreyh/Dropbox/projects/lago/acqua/nexys/src/makestuff/libs/libutpp/Checks.h ****     bool equal = true;
 2868              		.loc 5 62 10
 2869 0041 C68543FE 		movb	$1, -445(%rbp)
 2869      FFFF01
 2870              	.LBB20:
  63:/home/asoreyh/Dropbox/projects/lago/acqua/nexys/src/makestuff/libs/libutpp/Checks.h ****     for (int i = 0; i < count; ++i)
 2871              		.loc 5 63 14
 2872 0048 C78544FE 		movl	$0, -444(%rbp)
 2872      FFFF0000 
 2872      0000
 2873              		.loc 5 63 5
 2874 0052 EB59     		jmp	.L146
 2875              	.L147:
  64:/home/asoreyh/Dropbox/projects/lago/acqua/nexys/src/makestuff/libs/libutpp/Checks.h ****         equal &= (expected[i] == actual[i]);
 2876              		.loc 5 64 15 discriminator 3
 2877 0054 0FB69543 		movzbl	-445(%rbp), %edx
 2877      FEFFFF
 2878              		.loc 5 64 27 discriminator 3
 2879 005b 488B8530 		movq	-464(%rbp), %rax
 2879      FEFFFF
 2880 0062 488B08   		movq	(%rax), %rcx
 2881              		.loc 5 64 28 discriminator 3
 2882 0065 8B8544FE 		movl	-444(%rbp), %eax
 2882      FFFF
 2883 006b 4898     		cltq
 2884              		.loc 5 64 27 discriminator 3
 2885 006d 4801C8   		addq	%rcx, %rax
 2886 0070 0FB600   		movzbl	(%rax), %eax
 2887 0073 0FBEC8   		movsbl	%al, %ecx
 2888              		.loc 5 64 40 discriminator 3
 2889 0076 488B8528 		movq	-472(%rbp), %rax
 2889      FEFFFF
 2890 007d 488B30   		movq	(%rax), %rsi
 2891              		.loc 5 64 41 discriminator 3
 2892 0080 8B8544FE 		movl	-444(%rbp), %eax
 2892      FFFF
 2893 0086 4898     		cltq
 2894              		.loc 5 64 40 discriminator 3
 2895 0088 4801F0   		addq	%rsi, %rax
 2896 008b 0FB600   		movzbl	(%rax), %eax
 2897 008e 0FB6C0   		movzbl	%al, %eax
 2898              		.loc 5 64 31 discriminator 3
 2899 0091 39C1     		cmpl	%eax, %ecx
 2900 0093 0F94C0   		sete	%al
 2901 0096 0FB6C0   		movzbl	%al, %eax
 2902              		.loc 5 64 15 discriminator 3
 2903 0099 21D0     		andl	%edx, %eax
 2904 009b 85C0     		testl	%eax, %eax
 2905 009d 0F95C0   		setne	%al
 2906 00a0 888543FE 		movb	%al, -445(%rbp)
 2906      FFFF
  63:/home/asoreyh/Dropbox/projects/lago/acqua/nexys/src/makestuff/libs/libutpp/Checks.h ****     for (int i = 0; i < count; ++i)
 2907              		.loc 5 63 5 discriminator 3
 2908 00a6 838544FE 		addl	$1, -444(%rbp)
 2908      FFFF01
 2909              	.L146:
  63:/home/asoreyh/Dropbox/projects/lago/acqua/nexys/src/makestuff/libs/libutpp/Checks.h ****     for (int i = 0; i < count; ++i)
 2910              		.loc 5 63 23 discriminator 1
 2911 00ad 8B8544FE 		movl	-444(%rbp), %eax
 2911      FFFF
 2912 00b3 3B8524FE 		cmpl	-476(%rbp), %eax
 2912      FFFF
 2913 00b9 7C99     		jl	.L147
 2914              	.LBE20:
 2915              	.LBB21:
  65:/home/asoreyh/Dropbox/projects/lago/acqua/nexys/src/makestuff/libs/libutpp/Checks.h **** 
  66:/home/asoreyh/Dropbox/projects/lago/acqua/nexys/src/makestuff/libs/libutpp/Checks.h ****     if (!equal)
 2916              		.loc 5 66 10
 2917 00bb 0FB68543 		movzbl	-445(%rbp), %eax
 2917      FEFFFF
 2918 00c2 83F001   		xorl	$1, %eax
 2919              		.loc 5 66 5
 2920 00c5 84C0     		testb	%al, %al
 2921 00c7 0F847B01 		je	.L156
 2921      0000
 2922              	.LBB22:
  67:/home/asoreyh/Dropbox/projects/lago/acqua/nexys/src/makestuff/libs/libutpp/Checks.h ****     {
  68:/home/asoreyh/Dropbox/projects/lago/acqua/nexys/src/makestuff/libs/libutpp/Checks.h ****         UnitTest::MemoryOutStream stream;
 2923              		.loc 5 68 35
 2924 00cd 488D8550 		leaq	-432(%rbp), %rax
 2924      FEFFFF
 2925 00d4 4889C7   		movq	%rax, %rdi
 2926              	.LEHB101:
 2927 00d7 E8000000 		call	_ZN8UnitTest15MemoryOutStreamC1Ev
 2927      00
 2928              	.LEHE101:
  69:/home/asoreyh/Dropbox/projects/lago/acqua/nexys/src/makestuff/libs/libutpp/Checks.h **** 
  70:/home/asoreyh/Dropbox/projects/lago/acqua/nexys/src/makestuff/libs/libutpp/Checks.h **** 		stream << "Expected [ ";
 2929              		.loc 5 70 10
 2930 00dc 488D8550 		leaq	-432(%rbp), %rax
 2930      FEFFFF
 2931 00e3 488D1500 		leaq	.LC22(%rip), %rdx
 2931      000000
 2932 00ea 4889D6   		movq	%rdx, %rsi
 2933 00ed 4889C7   		movq	%rax, %rdi
 2934              	.LEHB102:
 2935 00f0 E8000000 		call	_ZStlsISt11char_traitsIcEERSt13basic_ostreamIcT_ES5_PKc@PLT
 2935      00
 2936              	.LBB23:
  71:/home/asoreyh/Dropbox/projects/lago/acqua/nexys/src/makestuff/libs/libutpp/Checks.h **** 
  72:/home/asoreyh/Dropbox/projects/lago/acqua/nexys/src/makestuff/libs/libutpp/Checks.h **** 		for (int expectedIndex = 0; expectedIndex < count; ++expectedIndex)
 2937              		.loc 5 72 12
 2938 00f5 C78548FE 		movl	$0, -440(%rbp)
 2938      FFFF0000 
 2938      0000
 2939              		.loc 5 72 3
 2940 00ff EB48     		jmp	.L149
 2941              	.L150:
  73:/home/asoreyh/Dropbox/projects/lago/acqua/nexys/src/makestuff/libs/libutpp/Checks.h ****             stream << expected[expectedIndex] << " ";
 2942              		.loc 5 73 31
 2943 0101 488B8530 		movq	-464(%rbp), %rax
 2943      FEFFFF
 2944 0108 488B10   		movq	(%rax), %rdx
 2945              		.loc 5 73 32
 2946 010b 8B8548FE 		movl	-440(%rbp), %eax
 2946      FFFF
 2947 0111 4898     		cltq
 2948              		.loc 5 73 31
 2949 0113 4801D0   		addq	%rdx, %rax
 2950 0116 0FB600   		movzbl	(%rax), %eax
 2951              		.loc 5 73 47
 2952 0119 0FBED0   		movsbl	%al, %edx
 2953 011c 488D8550 		leaq	-432(%rbp), %rax
 2953      FEFFFF
 2954 0123 89D6     		movl	%edx, %esi
 2955 0125 4889C7   		movq	%rax, %rdi
 2956 0128 E8000000 		call	_ZStlsISt11char_traitsIcEERSt13basic_ostreamIcT_ES5_c@PLT
 2956      00
 2957 012d 4889C2   		movq	%rax, %rdx
 2958 0130 488D0500 		leaq	.LC23(%rip), %rax
 2958      000000
 2959 0137 4889C6   		movq	%rax, %rsi
 2960 013a 4889D7   		movq	%rdx, %rdi
 2961 013d E8000000 		call	_ZStlsISt11char_traitsIcEERSt13basic_ostreamIcT_ES5_PKc@PLT
 2961      00
  72:/home/asoreyh/Dropbox/projects/lago/acqua/nexys/src/makestuff/libs/libutpp/Checks.h ****             stream << expected[expectedIndex] << " ";
 2962              		.loc 5 72 3 discriminator 2
 2963 0142 838548FE 		addl	$1, -440(%rbp)
 2963      FFFF01
 2964              	.L149:
  72:/home/asoreyh/Dropbox/projects/lago/acqua/nexys/src/makestuff/libs/libutpp/Checks.h ****             stream << expected[expectedIndex] << " ";
 2965              		.loc 5 72 45 discriminator 1
 2966 0149 8B8548FE 		movl	-440(%rbp), %eax
 2966      FFFF
 2967 014f 3B8524FE 		cmpl	-476(%rbp), %eax
 2967      FFFF
 2968 0155 7CAA     		jl	.L150
 2969              	.LBE23:
  74:/home/asoreyh/Dropbox/projects/lago/acqua/nexys/src/makestuff/libs/libutpp/Checks.h **** 
  75:/home/asoreyh/Dropbox/projects/lago/acqua/nexys/src/makestuff/libs/libutpp/Checks.h **** 		stream << "] but was [ ";
 2970              		.loc 5 75 10
 2971 0157 488D8550 		leaq	-432(%rbp), %rax
 2971      FEFFFF
 2972 015e 488D1500 		leaq	.LC24(%rip), %rdx
 2972      000000
 2973 0165 4889D6   		movq	%rdx, %rsi
 2974 0168 4889C7   		movq	%rax, %rdi
 2975 016b E8000000 		call	_ZStlsISt11char_traitsIcEERSt13basic_ostreamIcT_ES5_PKc@PLT
 2975      00
 2976              	.LBB24:
  76:/home/asoreyh/Dropbox/projects/lago/acqua/nexys/src/makestuff/libs/libutpp/Checks.h **** 
  77:/home/asoreyh/Dropbox/projects/lago/acqua/nexys/src/makestuff/libs/libutpp/Checks.h **** 		for (int actualIndex = 0; actualIndex < count; ++actualIndex)
 2977              		.loc 5 77 12
 2978 0170 C7854CFE 		movl	$0, -436(%rbp)
 2978      FFFF0000 
 2978      0000
 2979              		.loc 5 77 3
 2980 017a EB48     		jmp	.L151
 2981              	.L152:
  78:/home/asoreyh/Dropbox/projects/lago/acqua/nexys/src/makestuff/libs/libutpp/Checks.h ****             stream << actual[actualIndex] << " ";
 2982              		.loc 5 78 29
 2983 017c 488B8528 		movq	-472(%rbp), %rax
 2983      FEFFFF
 2984 0183 488B10   		movq	(%rax), %rdx
 2985              		.loc 5 78 30
 2986 0186 8B854CFE 		movl	-436(%rbp), %eax
 2986      FFFF
 2987 018c 4898     		cltq
 2988              		.loc 5 78 29
 2989 018e 4801D0   		addq	%rdx, %rax
 2990 0191 0FB600   		movzbl	(%rax), %eax
 2991              		.loc 5 78 43
 2992 0194 0FB6D0   		movzbl	%al, %edx
 2993 0197 488D8550 		leaq	-432(%rbp), %rax
 2993      FEFFFF
 2994 019e 89D6     		movl	%edx, %esi
 2995 01a0 4889C7   		movq	%rax, %rdi
 2996 01a3 E8000000 		call	_ZStlsISt11char_traitsIcEERSt13basic_ostreamIcT_ES5_h@PLT
 2996      00
 2997 01a8 4889C2   		movq	%rax, %rdx
 2998 01ab 488D0500 		leaq	.LC23(%rip), %rax
 2998      000000
 2999 01b2 4889C6   		movq	%rax, %rsi
 3000 01b5 4889D7   		movq	%rdx, %rdi
 3001 01b8 E8000000 		call	_ZStlsISt11char_traitsIcEERSt13basic_ostreamIcT_ES5_PKc@PLT
 3001      00
  77:/home/asoreyh/Dropbox/projects/lago/acqua/nexys/src/makestuff/libs/libutpp/Checks.h ****             stream << actual[actualIndex] << " ";
 3002              		.loc 5 77 3 discriminator 2
 3003 01bd 83854CFE 		addl	$1, -436(%rbp)
 3003      FFFF01
 3004              	.L151:
  77:/home/asoreyh/Dropbox/projects/lago/acqua/nexys/src/makestuff/libs/libutpp/Checks.h ****             stream << actual[actualIndex] << " ";
 3005              		.loc 5 77 41 discriminator 1
 3006 01c4 8B854CFE 		movl	-436(%rbp), %eax
 3006      FFFF
 3007 01ca 3B8524FE 		cmpl	-476(%rbp), %eax
 3007      FFFF
 3008 01d0 7CAA     		jl	.L152
 3009              	.LBE24:
  79:/home/asoreyh/Dropbox/projects/lago/acqua/nexys/src/makestuff/libs/libutpp/Checks.h **** 
  80:/home/asoreyh/Dropbox/projects/lago/acqua/nexys/src/makestuff/libs/libutpp/Checks.h **** 		stream << "]";
 3010              		.loc 5 80 10
 3011 01d2 488D8550 		leaq	-432(%rbp), %rax
 3011      FEFFFF
 3012 01d9 488D1500 		leaq	.LC25(%rip), %rdx
 3012      000000
 3013 01e0 4889D6   		movq	%rdx, %rsi
 3014 01e3 4889C7   		movq	%rax, %rdi
 3015 01e6 E8000000 		call	_ZStlsISt11char_traitsIcEERSt13basic_ostreamIcT_ES5_PKc@PLT
 3015      00
  81:/home/asoreyh/Dropbox/projects/lago/acqua/nexys/src/makestuff/libs/libutpp/Checks.h **** 
  82:/home/asoreyh/Dropbox/projects/lago/acqua/nexys/src/makestuff/libs/libutpp/Checks.h ****         results.OnTestFailure(details, stream.GetText());
 3016              		.loc 5 82 30
 3017 01eb 488D8550 		leaq	-432(%rbp), %rax
 3017      FEFFFF
 3018 01f2 4889C7   		movq	%rax, %rdi
 3019 01f5 E8000000 		call	_ZNK8UnitTest15MemoryOutStream7GetTextEv@PLT
 3019      00
 3020 01fa 4889C2   		movq	%rax, %rdx
 3021 01fd 488B8D18 		movq	-488(%rbp), %rcx
 3021      FEFFFF
 3022 0204 488B8538 		movq	-456(%rbp), %rax
 3022      FEFFFF
 3023 020b 4889CE   		movq	%rcx, %rsi
 3024 020e 4889C7   		movq	%rax, %rdi
 3025 0211 E8000000 		call	_ZN8UnitTest11TestResults13OnTestFailureERKNS_11TestDetailsEPKc@PLT
 3025      00
 3026              	.LEHE102:
  83:/home/asoreyh/Dropbox/projects/lago/acqua/nexys/src/makestuff/libs/libutpp/Checks.h ****     }
 3027              		.loc 5 83 5
 3028 0216 488D8550 		leaq	-432(%rbp), %rax
 3028      FEFFFF
 3029 021d 4889C7   		movq	%rax, %rdi
 3030              	.LEHB103:
 3031 0220 E8000000 		call	_ZN8UnitTest15MemoryOutStreamD1Ev
 3031      00
 3032              	.LEHE103:
 3033              	.LBE22:
 3034              	.LBE21:
  84:/home/asoreyh/Dropbox/projects/lago/acqua/nexys/src/makestuff/libs/libutpp/Checks.h **** }
 3035              		.loc 5 84 1
 3036 0225 EB21     		jmp	.L156
 3037              	.L155:
 3038 0227 F30F1EFA 		endbr64
 3039              	.LBB26:
 3040              	.LBB25:
  83:/home/asoreyh/Dropbox/projects/lago/acqua/nexys/src/makestuff/libs/libutpp/Checks.h ****     }
 3041              		.loc 5 83 5
 3042 022b 4889C3   		movq	%rax, %rbx
 3043 022e 488D8550 		leaq	-432(%rbp), %rax
 3043      FEFFFF
 3044 0235 4889C7   		movq	%rax, %rdi
 3045 0238 E8000000 		call	_ZN8UnitTest15MemoryOutStreamD1Ev
 3045      00
 3046 023d 4889D8   		movq	%rbx, %rax
 3047 0240 4889C7   		movq	%rax, %rdi
 3048              	.LEHB104:
 3049 0243 E8000000 		call	_Unwind_Resume@PLT
 3049      00
 3050              	.LEHE104:
 3051              	.L156:
 3052              	.LBE25:
 3053              	.LBE26:
 3054              		.loc 5 84 1
 3055 0248 90       		nop
 3056 0249 488B45E8 		movq	-24(%rbp), %rax
 3057 024d 64482B04 		subq	%fs:40, %rax
 3057      25280000 
 3057      00
 3058 0256 7405     		je	.L154
 3059 0258 E8000000 		call	__stack_chk_fail@PLT
 3059      00
 3060              	.L154:
 3061 025d 488B5DF8 		movq	-8(%rbp), %rbx
 3062 0261 C9       		leave
 3063              		.cfi_def_cfa 7, 8
 3064 0262 C3       		ret
 3065              		.cfi_endproc
 3066              	.LFE1271:
 3067              		.section	.gcc_except_table
 3068              	.LLSDA1271:
 3069 0254 FF       		.byte	0xff
 3070 0255 FF       		.byte	0xff
 3071 0256 01       		.byte	0x1
 3072 0257 16       		.uleb128 .LLSDACSE1271-.LLSDACSB1271
 3073              	.LLSDACSB1271:
 3074 0258 D701     		.uleb128 .LEHB101-.LFB1271
 3075 025a 05       		.uleb128 .LEHE101-.LEHB101
 3076 025b 00       		.uleb128 0
 3077 025c 00       		.uleb128 0
 3078 025d F001     		.uleb128 .LEHB102-.LFB1271
 3079 025f A602     		.uleb128 .LEHE102-.LEHB102
 3080 0261 A704     		.uleb128 .L155-.LFB1271
 3081 0263 00       		.uleb128 0
 3082 0264 A004     		.uleb128 .LEHB103-.LFB1271
 3083 0266 05       		.uleb128 .LEHE103-.LEHB103
 3084 0267 00       		.uleb128 0
 3085 0268 00       		.uleb128 0
 3086 0269 C304     		.uleb128 .LEHB104-.LFB1271
 3087 026b 05       		.uleb128 .LEHE104-.LEHB104
 3088 026c 00       		.uleb128 0
 3089 026d 00       		.uleb128 0
 3090              	.LLSDACSE1271:
 3091              		.section	.text._ZN8UnitTest15CheckArrayEqualIPKcPhEEvRNS_11TestResultsERKT_RKT0_iRKNS_11TestDetail
 3093              		.section	.text._ZNSt4fposI11__mbstate_tEC2Ev,"axG",@progbits,_ZNSt4fposI11__mbstate_tEC5Ev,comdat
 3094              		.align 2
 3095              		.weak	_ZNSt4fposI11__mbstate_tEC2Ev
 3097              	_ZNSt4fposI11__mbstate_tEC2Ev:
 3098              	.LFB1280:
 3099              		.file 6 "/usr/include/c++/12/bits/postypes.h"
   1:/usr/include/c++/12/bits/postypes.h **** // Position types -*- C++ -*-
   2:/usr/include/c++/12/bits/postypes.h **** 
   3:/usr/include/c++/12/bits/postypes.h **** // Copyright (C) 1997-2022 Free Software Foundation, Inc.
   4:/usr/include/c++/12/bits/postypes.h **** //
   5:/usr/include/c++/12/bits/postypes.h **** // This file is part of the GNU ISO C++ Library.  This library is free
   6:/usr/include/c++/12/bits/postypes.h **** // software; you can redistribute it and/or modify it under the
   7:/usr/include/c++/12/bits/postypes.h **** // terms of the GNU General Public License as published by the
   8:/usr/include/c++/12/bits/postypes.h **** // Free Software Foundation; either version 3, or (at your option)
   9:/usr/include/c++/12/bits/postypes.h **** // any later version.
  10:/usr/include/c++/12/bits/postypes.h **** 
  11:/usr/include/c++/12/bits/postypes.h **** // This library is distributed in the hope that it will be useful,
  12:/usr/include/c++/12/bits/postypes.h **** // but WITHOUT ANY WARRANTY; without even the implied warranty of
  13:/usr/include/c++/12/bits/postypes.h **** // MERCHANTABILITY or FITNESS FOR A PARTICULAR PURPOSE.  See the
  14:/usr/include/c++/12/bits/postypes.h **** // GNU General Public License for more details.
  15:/usr/include/c++/12/bits/postypes.h **** 
  16:/usr/include/c++/12/bits/postypes.h **** // Under Section 7 of GPL version 3, you are granted additional
  17:/usr/include/c++/12/bits/postypes.h **** // permissions described in the GCC Runtime Library Exception, version
  18:/usr/include/c++/12/bits/postypes.h **** // 3.1, as published by the Free Software Foundation.
  19:/usr/include/c++/12/bits/postypes.h **** 
  20:/usr/include/c++/12/bits/postypes.h **** // You should have received a copy of the GNU General Public License and
  21:/usr/include/c++/12/bits/postypes.h **** // a copy of the GCC Runtime Library Exception along with this program;
  22:/usr/include/c++/12/bits/postypes.h **** // see the files COPYING3 and COPYING.RUNTIME respectively.  If not, see
  23:/usr/include/c++/12/bits/postypes.h **** // <http://www.gnu.org/licenses/>.
  24:/usr/include/c++/12/bits/postypes.h **** 
  25:/usr/include/c++/12/bits/postypes.h **** /** @file bits/postypes.h
  26:/usr/include/c++/12/bits/postypes.h ****  *  This is an internal header file, included by other library headers.
  27:/usr/include/c++/12/bits/postypes.h ****  *  Do not attempt to use it directly. @headername{iosfwd}
  28:/usr/include/c++/12/bits/postypes.h ****  */
  29:/usr/include/c++/12/bits/postypes.h **** 
  30:/usr/include/c++/12/bits/postypes.h **** //
  31:/usr/include/c++/12/bits/postypes.h **** // ISO C++ 14882: 27.4.1 - Types
  32:/usr/include/c++/12/bits/postypes.h **** // ISO C++ 14882: 27.4.3 - Template class fpos
  33:/usr/include/c++/12/bits/postypes.h **** //
  34:/usr/include/c++/12/bits/postypes.h **** 
  35:/usr/include/c++/12/bits/postypes.h **** #ifndef _GLIBCXX_POSTYPES_H
  36:/usr/include/c++/12/bits/postypes.h **** #define _GLIBCXX_POSTYPES_H 1
  37:/usr/include/c++/12/bits/postypes.h **** 
  38:/usr/include/c++/12/bits/postypes.h **** #pragma GCC system_header
  39:/usr/include/c++/12/bits/postypes.h **** 
  40:/usr/include/c++/12/bits/postypes.h **** #include <cwchar> // For mbstate_t
  41:/usr/include/c++/12/bits/postypes.h **** 
  42:/usr/include/c++/12/bits/postypes.h **** namespace std _GLIBCXX_VISIBILITY(default)
  43:/usr/include/c++/12/bits/postypes.h **** {
  44:/usr/include/c++/12/bits/postypes.h **** _GLIBCXX_BEGIN_NAMESPACE_VERSION
  45:/usr/include/c++/12/bits/postypes.h **** 
  46:/usr/include/c++/12/bits/postypes.h ****   // The types streamoff, streampos and wstreampos and the class
  47:/usr/include/c++/12/bits/postypes.h ****   // template fpos<> are described in clauses 21.1.2, 21.1.3, 27.1.2,
  48:/usr/include/c++/12/bits/postypes.h ****   // 27.2, 27.4.1, 27.4.3 and D.6. Despite all this verbiage, the
  49:/usr/include/c++/12/bits/postypes.h ****   // behaviour of these types is mostly implementation defined or
  50:/usr/include/c++/12/bits/postypes.h ****   // unspecified. The behaviour in this implementation is as noted
  51:/usr/include/c++/12/bits/postypes.h ****   // below.
  52:/usr/include/c++/12/bits/postypes.h **** 
  53:/usr/include/c++/12/bits/postypes.h ****   /**
  54:/usr/include/c++/12/bits/postypes.h ****    *  @brief  Type used by fpos, char_traits<char>, and char_traits<wchar_t>.
  55:/usr/include/c++/12/bits/postypes.h ****    *
  56:/usr/include/c++/12/bits/postypes.h ****    *  In clauses 21.1.3.1 and 27.4.1 streamoff is described as an
  57:/usr/include/c++/12/bits/postypes.h ****    *  implementation defined type.
  58:/usr/include/c++/12/bits/postypes.h ****    *  Note: In versions of GCC up to and including GCC 3.3, streamoff
  59:/usr/include/c++/12/bits/postypes.h ****    *  was typedef long.
  60:/usr/include/c++/12/bits/postypes.h ****   */  
  61:/usr/include/c++/12/bits/postypes.h **** #ifdef __INT64_TYPE__
  62:/usr/include/c++/12/bits/postypes.h ****   typedef __INT64_TYPE__          streamoff;
  63:/usr/include/c++/12/bits/postypes.h **** #else
  64:/usr/include/c++/12/bits/postypes.h ****   typedef long long     streamoff;
  65:/usr/include/c++/12/bits/postypes.h **** #endif
  66:/usr/include/c++/12/bits/postypes.h **** 
  67:/usr/include/c++/12/bits/postypes.h ****   /// Integral type for I/O operation counts and buffer sizes.
  68:/usr/include/c++/12/bits/postypes.h ****   typedef ptrdiff_t	streamsize; // Signed integral type
  69:/usr/include/c++/12/bits/postypes.h **** 
  70:/usr/include/c++/12/bits/postypes.h ****   /**
  71:/usr/include/c++/12/bits/postypes.h ****    *  @brief  Class representing stream positions.
  72:/usr/include/c++/12/bits/postypes.h ****    *
  73:/usr/include/c++/12/bits/postypes.h ****    *  The standard places no requirements upon the template parameter StateT.
  74:/usr/include/c++/12/bits/postypes.h ****    *  In this implementation StateT must be DefaultConstructible,
  75:/usr/include/c++/12/bits/postypes.h ****    *  CopyConstructible and Assignable.  The standard only requires that fpos
  76:/usr/include/c++/12/bits/postypes.h ****    *  should contain a member of type StateT. In this implementation it also
  77:/usr/include/c++/12/bits/postypes.h ****    *  contains an offset stored as a signed integer.
  78:/usr/include/c++/12/bits/postypes.h ****    *
  79:/usr/include/c++/12/bits/postypes.h ****    *  @param  StateT  Type passed to and returned from state().
  80:/usr/include/c++/12/bits/postypes.h ****    */
  81:/usr/include/c++/12/bits/postypes.h ****   template<typename _StateT>
  82:/usr/include/c++/12/bits/postypes.h ****     class fpos
  83:/usr/include/c++/12/bits/postypes.h ****     {
  84:/usr/include/c++/12/bits/postypes.h ****     private:
  85:/usr/include/c++/12/bits/postypes.h ****       streamoff	                _M_off;
  86:/usr/include/c++/12/bits/postypes.h ****       _StateT			_M_state;
  87:/usr/include/c++/12/bits/postypes.h **** 
  88:/usr/include/c++/12/bits/postypes.h ****     public:
  89:/usr/include/c++/12/bits/postypes.h ****       // The standard doesn't require that fpos objects can be default
  90:/usr/include/c++/12/bits/postypes.h ****       // constructed. This implementation provides a default
  91:/usr/include/c++/12/bits/postypes.h ****       // constructor that initializes the offset to 0 and default
  92:/usr/include/c++/12/bits/postypes.h ****       // constructs the state.
  93:/usr/include/c++/12/bits/postypes.h ****       fpos()
 3100              		.loc 6 93 7
 3101              		.cfi_startproc
 3102 0000 F30F1EFA 		endbr64
 3103 0004 55       		pushq	%rbp
 3104              		.cfi_def_cfa_offset 16
 3105              		.cfi_offset 6, -16
 3106 0005 4889E5   		movq	%rsp, %rbp
 3107              		.cfi_def_cfa_register 6
 3108 0008 48897DF8 		movq	%rdi, -8(%rbp)
 3109              	.LBB27:
  94:/usr/include/c++/12/bits/postypes.h ****       : _M_off(0), _M_state() { }
 3110              		.loc 6 94 9
 3111 000c 488B45F8 		movq	-8(%rbp), %rax
 3112 0010 48C70000 		movq	$0, (%rax)
 3112      000000
 3113              		.loc 6 94 20
 3114 0017 488B45F8 		movq	-8(%rbp), %rax
 3115 001b C7400800 		movl	$0, 8(%rax)
 3115      000000
 3116 0022 488B45F8 		movq	-8(%rbp), %rax
 3117 0026 C7400C00 		movl	$0, 12(%rax)
 3117      000000
 3118              	.LBE27:
 3119              		.loc 6 94 33
 3120 002d 90       		nop
 3121 002e 5D       		popq	%rbp
 3122              		.cfi_def_cfa 7, 8
 3123 002f C3       		ret
 3124              		.cfi_endproc
 3125              	.LFE1280:
 3127              		.weak	_ZNSt4fposI11__mbstate_tEC1Ev
 3128              		.set	_ZNSt4fposI11__mbstate_tEC1Ev,_ZNSt4fposI11__mbstate_tEC2Ev
 3129              		.section	.text._ZN8UnitTest5CheckIbEEbT_,"axG",@progbits,_ZN8UnitTest5CheckIbEEbT_,comdat
 3130              		.weak	_ZN8UnitTest5CheckIbEEbT_
 3132              	_ZN8UnitTest5CheckIbEEbT_:
 3133              	.LFB1284:
  12:/home/asoreyh/Dropbox/projects/lago/acqua/nexys/src/makestuff/libs/libutpp/Checks.h **** {
 3134              		.loc 5 12 6
 3135              		.cfi_startproc
 3136 0000 F30F1EFA 		endbr64
 3137 0004 55       		pushq	%rbp
 3138              		.cfi_def_cfa_offset 16
 3139              		.cfi_offset 6, -16
 3140 0005 4889E5   		movq	%rsp, %rbp
 3141              		.cfi_def_cfa_register 6
 3142 0008 89F8     		movl	%edi, %eax
 3143 000a 8845FC   		movb	%al, -4(%rbp)
  14:/home/asoreyh/Dropbox/projects/lago/acqua/nexys/src/makestuff/libs/libutpp/Checks.h **** }
 3144              		.loc 5 14 14
 3145 000d 0FB645FC 		movzbl	-4(%rbp), %eax
  15:/home/asoreyh/Dropbox/projects/lago/acqua/nexys/src/makestuff/libs/libutpp/Checks.h **** 
 3146              		.loc 5 15 1
 3147 0011 5D       		popq	%rbp
 3148              		.cfi_def_cfa 7, 8
 3149 0012 C3       		ret
 3150              		.cfi_endproc
 3151              	.LFE1284:
 3153              		.section	.text._ZNKSt4fposI11__mbstate_tEcvlEv,"axG",@progbits,_ZNKSt4fposI11__mbstate_tEcvlEv,com
 3154              		.align 2
 3155              		.weak	_ZNKSt4fposI11__mbstate_tEcvlEv
 3157              	_ZNKSt4fposI11__mbstate_tEcvlEv:
 3158              	.LFB1285:
  95:/usr/include/c++/12/bits/postypes.h **** 
  96:/usr/include/c++/12/bits/postypes.h ****       // The standard requires that fpos objects can be constructed
  97:/usr/include/c++/12/bits/postypes.h ****       // from streamoff objects using the constructor syntax, and
  98:/usr/include/c++/12/bits/postypes.h ****       // fails to give any meaningful semantics. In this
  99:/usr/include/c++/12/bits/postypes.h ****       // implementation implicit conversion is also allowed, and this
 100:/usr/include/c++/12/bits/postypes.h ****       // constructor stores the streamoff as the offset and default
 101:/usr/include/c++/12/bits/postypes.h ****       // constructs the state.
 102:/usr/include/c++/12/bits/postypes.h ****       /// Construct position from offset.
 103:/usr/include/c++/12/bits/postypes.h ****       fpos(streamoff __off)
 104:/usr/include/c++/12/bits/postypes.h ****       : _M_off(__off), _M_state() { }
 105:/usr/include/c++/12/bits/postypes.h **** 
 106:/usr/include/c++/12/bits/postypes.h **** #if __cplusplus >= 201103L
 107:/usr/include/c++/12/bits/postypes.h ****       fpos(const fpos&) = default;
 108:/usr/include/c++/12/bits/postypes.h ****       fpos& operator=(const fpos&) = default;
 109:/usr/include/c++/12/bits/postypes.h ****       ~fpos() = default;
 110:/usr/include/c++/12/bits/postypes.h **** #endif
 111:/usr/include/c++/12/bits/postypes.h **** 
 112:/usr/include/c++/12/bits/postypes.h ****       /// Convert to streamoff.
 113:/usr/include/c++/12/bits/postypes.h ****       operator streamoff() const { return _M_off; }
 3159              		.loc 6 113 7
 3160              		.cfi_startproc
 3161 0000 F30F1EFA 		endbr64
 3162 0004 55       		pushq	%rbp
 3163              		.cfi_def_cfa_offset 16
 3164              		.cfi_offset 6, -16
 3165 0005 4889E5   		movq	%rsp, %rbp
 3166              		.cfi_def_cfa_register 6
 3167 0008 48897DF8 		movq	%rdi, -8(%rbp)
 3168              		.loc 6 113 43
 3169 000c 488B45F8 		movq	-8(%rbp), %rax
 3170 0010 488B00   		movq	(%rax), %rax
 3171              		.loc 6 113 51
 3172 0013 5D       		popq	%rbp
 3173              		.cfi_def_cfa 7, 8
 3174 0014 C3       		ret
 3175              		.cfi_endproc
 3176              	.LFE1285:
 3178              		.section	.text._ZN8UnitTest10CheckEqualImmEEvRNS_11TestResultsERKT_RKT0_RKNS_11TestDetailsE,"axG",
 3179              		.weak	_ZN8UnitTest10CheckEqualImmEEvRNS_11TestResultsERKT_RKT0_RKNS_11TestDetailsE
 3181              	_ZN8UnitTest10CheckEqualImmEEvRNS_11TestResultsERKT_RKT0_RKNS_11TestDetailsE:
 3182              	.LFB1286:
  19:/home/asoreyh/Dropbox/projects/lago/acqua/nexys/src/makestuff/libs/libutpp/Checks.h **** {
 3183              		.loc 5 19 6
 3184              		.cfi_startproc
 3185              		.cfi_personality 0x9b,DW.ref.__gxx_personality_v0
 3186              		.cfi_lsda 0x1b,.LLSDA1286
 3187 0000 F30F1EFA 		endbr64
 3188 0004 55       		pushq	%rbp
 3189              		.cfi_def_cfa_offset 16
 3190              		.cfi_offset 6, -16
 3191 0005 4889E5   		movq	%rsp, %rbp
 3192              		.cfi_def_cfa_register 6
 3193 0008 53       		pushq	%rbx
 3194 0009 4881ECC8 		subq	$456, %rsp
 3194      010000
 3195              		.cfi_offset 3, -24
 3196 0010 4889BD48 		movq	%rdi, -440(%rbp)
 3196      FEFFFF
 3197 0017 4889B540 		movq	%rsi, -448(%rbp)
 3197      FEFFFF
 3198 001e 48899538 		movq	%rdx, -456(%rbp)
 3198      FEFFFF
 3199 0025 48898D30 		movq	%rcx, -464(%rbp)
 3199      FEFFFF
  19:/home/asoreyh/Dropbox/projects/lago/acqua/nexys/src/makestuff/libs/libutpp/Checks.h **** {
 3200              		.loc 5 19 6
 3201 002c 64488B04 		movq	%fs:40, %rax
 3201      25280000 
 3201      00
 3202 0035 488945E8 		movq	%rax, -24(%rbp)
 3203 0039 31C0     		xorl	%eax, %eax
 3204              	.LBB28:
  21:/home/asoreyh/Dropbox/projects/lago/acqua/nexys/src/makestuff/libs/libutpp/Checks.h ****     {
 3205              		.loc 5 21 20
 3206 003b 488B8540 		movq	-448(%rbp), %rax
 3206      FEFFFF
 3207 0042 488B10   		movq	(%rax), %rdx
 3208 0045 488B8538 		movq	-456(%rbp), %rax
 3208      FEFFFF
 3209 004c 488B00   		movq	(%rax), %rax
  21:/home/asoreyh/Dropbox/projects/lago/acqua/nexys/src/makestuff/libs/libutpp/Checks.h ****     {
 3210              		.loc 5 21 5
 3211 004f 4839C2   		cmpq	%rax, %rdx
 3212 0052 0F84CA00 		je	.L167
 3212      0000
 3213              	.LBB29:
  23:/home/asoreyh/Dropbox/projects/lago/acqua/nexys/src/makestuff/libs/libutpp/Checks.h ****         stream << "Expected " << expected << " but was " << actual;
 3214              		.loc 5 23 35
 3215 0058 488D8550 		leaq	-432(%rbp), %rax
 3215      FEFFFF
 3216 005f 4889C7   		movq	%rax, %rdi
 3217              	.LEHB105:
 3218 0062 E8000000 		call	_ZN8UnitTest15MemoryOutStreamC1Ev
 3218      00
 3219              	.LEHE105:
  24:/home/asoreyh/Dropbox/projects/lago/acqua/nexys/src/makestuff/libs/libutpp/Checks.h **** 
 3220              		.loc 5 24 16
 3221 0067 488D8550 		leaq	-432(%rbp), %rax
 3221      FEFFFF
 3222 006e 488D1500 		leaq	.LC20(%rip), %rdx
 3222      000000
 3223 0075 4889D6   		movq	%rdx, %rsi
 3224 0078 4889C7   		movq	%rax, %rdi
 3225              	.LEHB106:
 3226 007b E8000000 		call	_ZStlsISt11char_traitsIcEERSt13basic_ostreamIcT_ES5_PKc@PLT
 3226      00
 3227 0080 4889C2   		movq	%rax, %rdx
  24:/home/asoreyh/Dropbox/projects/lago/acqua/nexys/src/makestuff/libs/libutpp/Checks.h **** 
 3228              		.loc 5 24 31
 3229 0083 488B8540 		movq	-448(%rbp), %rax
 3229      FEFFFF
 3230 008a 488B00   		movq	(%rax), %rax
 3231 008d 4889C6   		movq	%rax, %rsi
 3232 0090 4889D7   		movq	%rdx, %rdi
 3233 0093 E8000000 		call	_ZNSolsEm@PLT
 3233      00
  24:/home/asoreyh/Dropbox/projects/lago/acqua/nexys/src/makestuff/libs/libutpp/Checks.h **** 
 3234              		.loc 5 24 31 is_stmt 0 discriminator 1
 3235 0098 4889C2   		movq	%rax, %rdx
  24:/home/asoreyh/Dropbox/projects/lago/acqua/nexys/src/makestuff/libs/libutpp/Checks.h **** 
 3236              		.loc 5 24 43 is_stmt 1 discriminator 1
 3237 009b 488D0500 		leaq	.LC21(%rip), %rax
 3237      000000
 3238 00a2 4889C6   		movq	%rax, %rsi
 3239 00a5 4889D7   		movq	%rdx, %rdi
 3240 00a8 E8000000 		call	_ZStlsISt11char_traitsIcEERSt13basic_ostreamIcT_ES5_PKc@PLT
 3240      00
  24:/home/asoreyh/Dropbox/projects/lago/acqua/nexys/src/makestuff/libs/libutpp/Checks.h **** 
 3241              		.loc 5 24 43 is_stmt 0 discriminator 2
 3242 00ad 4889C2   		movq	%rax, %rdx
  24:/home/asoreyh/Dropbox/projects/lago/acqua/nexys/src/makestuff/libs/libutpp/Checks.h **** 
 3243              		.loc 5 24 58 is_stmt 1 discriminator 2
 3244 00b0 488B8538 		movq	-456(%rbp), %rax
 3244      FEFFFF
 3245 00b7 488B00   		movq	(%rax), %rax
 3246 00ba 4889C6   		movq	%rax, %rsi
 3247 00bd 4889D7   		movq	%rdx, %rdi
 3248 00c0 E8000000 		call	_ZNSolsEm@PLT
 3248      00
  26:/home/asoreyh/Dropbox/projects/lago/acqua/nexys/src/makestuff/libs/libutpp/Checks.h ****     }
 3249              		.loc 5 26 30
 3250 00c5 488D8550 		leaq	-432(%rbp), %rax
 3250      FEFFFF
 3251 00cc 4889C7   		movq	%rax, %rdi
 3252 00cf E8000000 		call	_ZNK8UnitTest15MemoryOutStream7GetTextEv@PLT
 3252      00
 3253 00d4 4889C2   		movq	%rax, %rdx
 3254 00d7 488B8D30 		movq	-464(%rbp), %rcx
 3254      FEFFFF
 3255 00de 488B8548 		movq	-440(%rbp), %rax
 3255      FEFFFF
 3256 00e5 4889CE   		movq	%rcx, %rsi
 3257 00e8 4889C7   		movq	%rax, %rdi
 3258 00eb E8000000 		call	_ZN8UnitTest11TestResults13OnTestFailureERKNS_11TestDetailsEPKc@PLT
 3258      00
 3259              	.LEHE106:
  27:/home/asoreyh/Dropbox/projects/lago/acqua/nexys/src/makestuff/libs/libutpp/Checks.h **** }
 3260              		.loc 5 27 5
 3261 00f0 488D8550 		leaq	-432(%rbp), %rax
 3261      FEFFFF
 3262 00f7 4889C7   		movq	%rax, %rdi
 3263              	.LEHB107:
 3264 00fa E8000000 		call	_ZN8UnitTest15MemoryOutStreamD1Ev
 3264      00
 3265              	.LEHE107:
 3266              	.LBE29:
 3267              	.LBE28:
  28:/home/asoreyh/Dropbox/projects/lago/acqua/nexys/src/makestuff/libs/libutpp/Checks.h **** 
 3268              		.loc 5 28 1
 3269 00ff EB21     		jmp	.L167
 3270              	.L166:
 3271 0101 F30F1EFA 		endbr64
 3272              	.LBB31:
 3273              	.LBB30:
  27:/home/asoreyh/Dropbox/projects/lago/acqua/nexys/src/makestuff/libs/libutpp/Checks.h **** }
 3274              		.loc 5 27 5
 3275 0105 4889C3   		movq	%rax, %rbx
 3276 0108 488D8550 		leaq	-432(%rbp), %rax
 3276      FEFFFF
 3277 010f 4889C7   		movq	%rax, %rdi
 3278 0112 E8000000 		call	_ZN8UnitTest15MemoryOutStreamD1Ev
 3278      00
 3279 0117 4889D8   		movq	%rbx, %rax
 3280 011a 4889C7   		movq	%rax, %rdi
 3281              	.LEHB108:
 3282 011d E8000000 		call	_Unwind_Resume@PLT
 3282      00
 3283              	.LEHE108:
 3284              	.L167:
 3285              	.LBE30:
 3286              	.LBE31:
  28:/home/asoreyh/Dropbox/projects/lago/acqua/nexys/src/makestuff/libs/libutpp/Checks.h **** 
 3287              		.loc 5 28 1
 3288 0122 90       		nop
 3289 0123 488B45E8 		movq	-24(%rbp), %rax
 3290 0127 64482B04 		subq	%fs:40, %rax
 3290      25280000 
 3290      00
 3291 0130 7405     		je	.L165
 3292 0132 E8000000 		call	__stack_chk_fail@PLT
 3292      00
 3293              	.L165:
 3294 0137 488B5DF8 		movq	-8(%rbp), %rbx
 3295 013b C9       		leave
 3296              		.cfi_def_cfa 7, 8
 3297 013c C3       		ret
 3298              		.cfi_endproc
 3299              	.LFE1286:
 3300              		.section	.gcc_except_table
 3301              	.LLSDA1286:
 3302 026e FF       		.byte	0xff
 3303 026f FF       		.byte	0xff
 3304 0270 01       		.byte	0x1
 3305 0271 13       		.uleb128 .LLSDACSE1286-.LLSDACSB1286
 3306              	.LLSDACSB1286:
 3307 0272 62       		.uleb128 .LEHB105-.LFB1286
 3308 0273 05       		.uleb128 .LEHE105-.LEHB105
 3309 0274 00       		.uleb128 0
 3310 0275 00       		.uleb128 0
 3311 0276 7B       		.uleb128 .LEHB106-.LFB1286
 3312 0277 75       		.uleb128 .LEHE106-.LEHB106
 3313 0278 8102     		.uleb128 .L166-.LFB1286
 3314 027a 00       		.uleb128 0
 3315 027b FA01     		.uleb128 .LEHB107-.LFB1286
 3316 027d 05       		.uleb128 .LEHE107-.LEHB107
 3317 027e 00       		.uleb128 0
 3318 027f 00       		.uleb128 0
 3319 0280 9D02     		.uleb128 .LEHB108-.LFB1286
 3320 0282 05       		.uleb128 .LEHE108-.LEHB108
 3321 0283 00       		.uleb128 0
 3322 0284 00       		.uleb128 0
 3323              	.LLSDACSE1286:
 3324              		.section	.text._ZN8UnitTest10CheckEqualImmEEvRNS_11TestResultsERKT_RKT0_RKNS_11TestDetailsE,"axG",
 3326              		.section	.text._ZN8UnitTest15CheckArrayEqualIPKcPcEEvRNS_11TestResultsERKT_RKT0_iRKNS_11TestDetail
 3327              		.weak	_ZN8UnitTest15CheckArrayEqualIPKcPcEEvRNS_11TestResultsERKT_RKT0_iRKNS_11TestDetailsE
 3329              	_ZN8UnitTest15CheckArrayEqualIPKcPcEEvRNS_11TestResultsERKT_RKT0_iRKNS_11TestDetailsE:
 3330              	.LFB1288:
  59:/home/asoreyh/Dropbox/projects/lago/acqua/nexys/src/makestuff/libs/libutpp/Checks.h ****                 int const count, TestDetails const& details)
 3331              		.loc 5 59 6
 3332              		.cfi_startproc
 3333              		.cfi_personality 0x9b,DW.ref.__gxx_personality_v0
 3334              		.cfi_lsda 0x1b,.LLSDA1288
 3335 0000 F30F1EFA 		endbr64
 3336 0004 55       		pushq	%rbp
 3337              		.cfi_def_cfa_offset 16
 3338              		.cfi_offset 6, -16
 3339 0005 4889E5   		movq	%rsp, %rbp
 3340              		.cfi_def_cfa_register 6
 3341 0008 53       		pushq	%rbx
 3342 0009 4881ECE8 		subq	$488, %rsp
 3342      010000
 3343              		.cfi_offset 3, -24
 3344 0010 4889BD38 		movq	%rdi, -456(%rbp)
 3344      FEFFFF
 3345 0017 4889B530 		movq	%rsi, -464(%rbp)
 3345      FEFFFF
 3346 001e 48899528 		movq	%rdx, -472(%rbp)
 3346      FEFFFF
 3347 0025 898D24FE 		movl	%ecx, -476(%rbp)
 3347      FFFF
 3348 002b 4C898518 		movq	%r8, -488(%rbp)
 3348      FEFFFF
  59:/home/asoreyh/Dropbox/projects/lago/acqua/nexys/src/makestuff/libs/libutpp/Checks.h ****                 int const count, TestDetails const& details)
 3349              		.loc 5 59 6
 3350 0032 64488B04 		movq	%fs:40, %rax
 3350      25280000 
 3350      00
 3351 003b 488945E8 		movq	%rax, -24(%rbp)
 3352 003f 31C0     		xorl	%eax, %eax
  62:/home/asoreyh/Dropbox/projects/lago/acqua/nexys/src/makestuff/libs/libutpp/Checks.h ****     for (int i = 0; i < count; ++i)
 3353              		.loc 5 62 10
 3354 0041 C68543FE 		movb	$1, -445(%rbp)
 3354      FFFF01
 3355              	.LBB32:
  63:/home/asoreyh/Dropbox/projects/lago/acqua/nexys/src/makestuff/libs/libutpp/Checks.h ****         equal &= (expected[i] == actual[i]);
 3356              		.loc 5 63 14
 3357 0048 C78544FE 		movl	$0, -444(%rbp)
 3357      FFFF0000 
 3357      0000
  63:/home/asoreyh/Dropbox/projects/lago/acqua/nexys/src/makestuff/libs/libutpp/Checks.h ****         equal &= (expected[i] == actual[i]);
 3358              		.loc 5 63 5
 3359 0052 EB53     		jmp	.L169
 3360              	.L170:
  64:/home/asoreyh/Dropbox/projects/lago/acqua/nexys/src/makestuff/libs/libutpp/Checks.h **** 
 3361              		.loc 5 64 15 discriminator 3
 3362 0054 0FB69543 		movzbl	-445(%rbp), %edx
 3362      FEFFFF
  64:/home/asoreyh/Dropbox/projects/lago/acqua/nexys/src/makestuff/libs/libutpp/Checks.h **** 
 3363              		.loc 5 64 27 discriminator 3
 3364 005b 488B8530 		movq	-464(%rbp), %rax
 3364      FEFFFF
 3365 0062 488B08   		movq	(%rax), %rcx
  64:/home/asoreyh/Dropbox/projects/lago/acqua/nexys/src/makestuff/libs/libutpp/Checks.h **** 
 3366              		.loc 5 64 28 discriminator 3
 3367 0065 8B8544FE 		movl	-444(%rbp), %eax
 3367      FFFF
 3368 006b 4898     		cltq
  64:/home/asoreyh/Dropbox/projects/lago/acqua/nexys/src/makestuff/libs/libutpp/Checks.h **** 
 3369              		.loc 5 64 27 discriminator 3
 3370 006d 4801C8   		addq	%rcx, %rax
 3371 0070 0FB608   		movzbl	(%rax), %ecx
  64:/home/asoreyh/Dropbox/projects/lago/acqua/nexys/src/makestuff/libs/libutpp/Checks.h **** 
 3372              		.loc 5 64 40 discriminator 3
 3373 0073 488B8528 		movq	-472(%rbp), %rax
 3373      FEFFFF
 3374 007a 488B30   		movq	(%rax), %rsi
  64:/home/asoreyh/Dropbox/projects/lago/acqua/nexys/src/makestuff/libs/libutpp/Checks.h **** 
 3375              		.loc 5 64 41 discriminator 3
 3376 007d 8B8544FE 		movl	-444(%rbp), %eax
 3376      FFFF
 3377 0083 4898     		cltq
  64:/home/asoreyh/Dropbox/projects/lago/acqua/nexys/src/makestuff/libs/libutpp/Checks.h **** 
 3378              		.loc 5 64 40 discriminator 3
 3379 0085 4801F0   		addq	%rsi, %rax
  64:/home/asoreyh/Dropbox/projects/lago/acqua/nexys/src/makestuff/libs/libutpp/Checks.h **** 
 3380              		.loc 5 64 31 discriminator 3
 3381 0088 0FB600   		movzbl	(%rax), %eax
 3382 008b 38C1     		cmpb	%al, %cl
 3383 008d 0F94C0   		sete	%al
 3384 0090 0FB6C0   		movzbl	%al, %eax
  64:/home/asoreyh/Dropbox/projects/lago/acqua/nexys/src/makestuff/libs/libutpp/Checks.h **** 
 3385              		.loc 5 64 15 discriminator 3
 3386 0093 21D0     		andl	%edx, %eax
 3387 0095 85C0     		testl	%eax, %eax
 3388 0097 0F95C0   		setne	%al
 3389 009a 888543FE 		movb	%al, -445(%rbp)
 3389      FFFF
  63:/home/asoreyh/Dropbox/projects/lago/acqua/nexys/src/makestuff/libs/libutpp/Checks.h ****         equal &= (expected[i] == actual[i]);
 3390              		.loc 5 63 5 discriminator 3
 3391 00a0 838544FE 		addl	$1, -444(%rbp)
 3391      FFFF01
 3392              	.L169:
  63:/home/asoreyh/Dropbox/projects/lago/acqua/nexys/src/makestuff/libs/libutpp/Checks.h ****         equal &= (expected[i] == actual[i]);
 3393              		.loc 5 63 23 discriminator 1
 3394 00a7 8B8544FE 		movl	-444(%rbp), %eax
 3394      FFFF
 3395 00ad 3B8524FE 		cmpl	-476(%rbp), %eax
 3395      FFFF
 3396 00b3 7C9F     		jl	.L170
 3397              	.LBE32:
 3398              	.LBB33:
  66:/home/asoreyh/Dropbox/projects/lago/acqua/nexys/src/makestuff/libs/libutpp/Checks.h ****     {
 3399              		.loc 5 66 10
 3400 00b5 0FB68543 		movzbl	-445(%rbp), %eax
 3400      FEFFFF
 3401 00bc 83F001   		xorl	$1, %eax
  66:/home/asoreyh/Dropbox/projects/lago/acqua/nexys/src/makestuff/libs/libutpp/Checks.h ****     {
 3402              		.loc 5 66 5
 3403 00bf 84C0     		testb	%al, %al
 3404 00c1 0F847B01 		je	.L179
 3404      0000
 3405              	.LBB34:
  68:/home/asoreyh/Dropbox/projects/lago/acqua/nexys/src/makestuff/libs/libutpp/Checks.h **** 
 3406              		.loc 5 68 35
 3407 00c7 488D8550 		leaq	-432(%rbp), %rax
 3407      FEFFFF
 3408 00ce 4889C7   		movq	%rax, %rdi
 3409              	.LEHB109:
 3410 00d1 E8000000 		call	_ZN8UnitTest15MemoryOutStreamC1Ev
 3410      00
 3411              	.LEHE109:
  70:/home/asoreyh/Dropbox/projects/lago/acqua/nexys/src/makestuff/libs/libutpp/Checks.h **** 
 3412              		.loc 5 70 10
 3413 00d6 488D8550 		leaq	-432(%rbp), %rax
 3413      FEFFFF
 3414 00dd 488D1500 		leaq	.LC22(%rip), %rdx
 3414      000000
 3415 00e4 4889D6   		movq	%rdx, %rsi
 3416 00e7 4889C7   		movq	%rax, %rdi
 3417              	.LEHB110:
 3418 00ea E8000000 		call	_ZStlsISt11char_traitsIcEERSt13basic_ostreamIcT_ES5_PKc@PLT
 3418      00
 3419              	.LBB35:
  72:/home/asoreyh/Dropbox/projects/lago/acqua/nexys/src/makestuff/libs/libutpp/Checks.h ****             stream << expected[expectedIndex] << " ";
 3420              		.loc 5 72 12
 3421 00ef C78548FE 		movl	$0, -440(%rbp)
 3421      FFFF0000 
 3421      0000
  72:/home/asoreyh/Dropbox/projects/lago/acqua/nexys/src/makestuff/libs/libutpp/Checks.h ****             stream << expected[expectedIndex] << " ";
 3422              		.loc 5 72 3
 3423 00f9 EB48     		jmp	.L172
 3424              	.L173:
  73:/home/asoreyh/Dropbox/projects/lago/acqua/nexys/src/makestuff/libs/libutpp/Checks.h **** 
 3425              		.loc 5 73 31
 3426 00fb 488B8530 		movq	-464(%rbp), %rax
 3426      FEFFFF
 3427 0102 488B10   		movq	(%rax), %rdx
  73:/home/asoreyh/Dropbox/projects/lago/acqua/nexys/src/makestuff/libs/libutpp/Checks.h **** 
 3428              		.loc 5 73 32
 3429 0105 8B8548FE 		movl	-440(%rbp), %eax
 3429      FFFF
 3430 010b 4898     		cltq
  73:/home/asoreyh/Dropbox/projects/lago/acqua/nexys/src/makestuff/libs/libutpp/Checks.h **** 
 3431              		.loc 5 73 31
 3432 010d 4801D0   		addq	%rdx, %rax
 3433 0110 0FB600   		movzbl	(%rax), %eax
  73:/home/asoreyh/Dropbox/projects/lago/acqua/nexys/src/makestuff/libs/libutpp/Checks.h **** 
 3434              		.loc 5 73 47
 3435 0113 0FBED0   		movsbl	%al, %edx
 3436 0116 488D8550 		leaq	-432(%rbp), %rax
 3436      FEFFFF
 3437 011d 89D6     		movl	%edx, %esi
 3438 011f 4889C7   		movq	%rax, %rdi
 3439 0122 E8000000 		call	_ZStlsISt11char_traitsIcEERSt13basic_ostreamIcT_ES5_c@PLT
 3439      00
 3440 0127 4889C2   		movq	%rax, %rdx
 3441 012a 488D0500 		leaq	.LC23(%rip), %rax
 3441      000000
 3442 0131 4889C6   		movq	%rax, %rsi
 3443 0134 4889D7   		movq	%rdx, %rdi
 3444 0137 E8000000 		call	_ZStlsISt11char_traitsIcEERSt13basic_ostreamIcT_ES5_PKc@PLT
 3444      00
  72:/home/asoreyh/Dropbox/projects/lago/acqua/nexys/src/makestuff/libs/libutpp/Checks.h ****             stream << expected[expectedIndex] << " ";
 3445              		.loc 5 72 3 discriminator 2
 3446 013c 838548FE 		addl	$1, -440(%rbp)
 3446      FFFF01
 3447              	.L172:
  72:/home/asoreyh/Dropbox/projects/lago/acqua/nexys/src/makestuff/libs/libutpp/Checks.h ****             stream << expected[expectedIndex] << " ";
 3448              		.loc 5 72 45 discriminator 1
 3449 0143 8B8548FE 		movl	-440(%rbp), %eax
 3449      FFFF
 3450 0149 3B8524FE 		cmpl	-476(%rbp), %eax
 3450      FFFF
 3451 014f 7CAA     		jl	.L173
 3452              	.LBE35:
  75:/home/asoreyh/Dropbox/projects/lago/acqua/nexys/src/makestuff/libs/libutpp/Checks.h **** 
 3453              		.loc 5 75 10
 3454 0151 488D8550 		leaq	-432(%rbp), %rax
 3454      FEFFFF
 3455 0158 488D1500 		leaq	.LC24(%rip), %rdx
 3455      000000
 3456 015f 4889D6   		movq	%rdx, %rsi
 3457 0162 4889C7   		movq	%rax, %rdi
 3458 0165 E8000000 		call	_ZStlsISt11char_traitsIcEERSt13basic_ostreamIcT_ES5_PKc@PLT
 3458      00
 3459              	.LBB36:
  77:/home/asoreyh/Dropbox/projects/lago/acqua/nexys/src/makestuff/libs/libutpp/Checks.h ****             stream << actual[actualIndex] << " ";
 3460              		.loc 5 77 12
 3461 016a C7854CFE 		movl	$0, -436(%rbp)
 3461      FFFF0000 
 3461      0000
  77:/home/asoreyh/Dropbox/projects/lago/acqua/nexys/src/makestuff/libs/libutpp/Checks.h ****             stream << actual[actualIndex] << " ";
 3462              		.loc 5 77 3
 3463 0174 EB48     		jmp	.L174
 3464              	.L175:
  78:/home/asoreyh/Dropbox/projects/lago/acqua/nexys/src/makestuff/libs/libutpp/Checks.h **** 
 3465              		.loc 5 78 29
 3466 0176 488B8528 		movq	-472(%rbp), %rax
 3466      FEFFFF
 3467 017d 488B10   		movq	(%rax), %rdx
  78:/home/asoreyh/Dropbox/projects/lago/acqua/nexys/src/makestuff/libs/libutpp/Checks.h **** 
 3468              		.loc 5 78 30
 3469 0180 8B854CFE 		movl	-436(%rbp), %eax
 3469      FFFF
 3470 0186 4898     		cltq
  78:/home/asoreyh/Dropbox/projects/lago/acqua/nexys/src/makestuff/libs/libutpp/Checks.h **** 
 3471              		.loc 5 78 29
 3472 0188 4801D0   		addq	%rdx, %rax
 3473 018b 0FB600   		movzbl	(%rax), %eax
  78:/home/asoreyh/Dropbox/projects/lago/acqua/nexys/src/makestuff/libs/libutpp/Checks.h **** 
 3474              		.loc 5 78 43
 3475 018e 0FBED0   		movsbl	%al, %edx
 3476 0191 488D8550 		leaq	-432(%rbp), %rax
 3476      FEFFFF
 3477 0198 89D6     		movl	%edx, %esi
 3478 019a 4889C7   		movq	%rax, %rdi
 3479 019d E8000000 		call	_ZStlsISt11char_traitsIcEERSt13basic_ostreamIcT_ES5_c@PLT
 3479      00
 3480 01a2 4889C2   		movq	%rax, %rdx
 3481 01a5 488D0500 		leaq	.LC23(%rip), %rax
 3481      000000
 3482 01ac 4889C6   		movq	%rax, %rsi
 3483 01af 4889D7   		movq	%rdx, %rdi
 3484 01b2 E8000000 		call	_ZStlsISt11char_traitsIcEERSt13basic_ostreamIcT_ES5_PKc@PLT
 3484      00
  77:/home/asoreyh/Dropbox/projects/lago/acqua/nexys/src/makestuff/libs/libutpp/Checks.h ****             stream << actual[actualIndex] << " ";
 3485              		.loc 5 77 3 discriminator 2
 3486 01b7 83854CFE 		addl	$1, -436(%rbp)
 3486      FFFF01
 3487              	.L174:
  77:/home/asoreyh/Dropbox/projects/lago/acqua/nexys/src/makestuff/libs/libutpp/Checks.h ****             stream << actual[actualIndex] << " ";
 3488              		.loc 5 77 41 discriminator 1
 3489 01be 8B854CFE 		movl	-436(%rbp), %eax
 3489      FFFF
 3490 01c4 3B8524FE 		cmpl	-476(%rbp), %eax
 3490      FFFF
 3491 01ca 7CAA     		jl	.L175
 3492              	.LBE36:
  80:/home/asoreyh/Dropbox/projects/lago/acqua/nexys/src/makestuff/libs/libutpp/Checks.h **** 
 3493              		.loc 5 80 10
 3494 01cc 488D8550 		leaq	-432(%rbp), %rax
 3494      FEFFFF
 3495 01d3 488D1500 		leaq	.LC25(%rip), %rdx
 3495      000000
 3496 01da 4889D6   		movq	%rdx, %rsi
 3497 01dd 4889C7   		movq	%rax, %rdi
 3498 01e0 E8000000 		call	_ZStlsISt11char_traitsIcEERSt13basic_ostreamIcT_ES5_PKc@PLT
 3498      00
  82:/home/asoreyh/Dropbox/projects/lago/acqua/nexys/src/makestuff/libs/libutpp/Checks.h ****     }
 3499              		.loc 5 82 30
 3500 01e5 488D8550 		leaq	-432(%rbp), %rax
 3500      FEFFFF
 3501 01ec 4889C7   		movq	%rax, %rdi
 3502 01ef E8000000 		call	_ZNK8UnitTest15MemoryOutStream7GetTextEv@PLT
 3502      00
 3503 01f4 4889C2   		movq	%rax, %rdx
 3504 01f7 488B8D18 		movq	-488(%rbp), %rcx
 3504      FEFFFF
 3505 01fe 488B8538 		movq	-456(%rbp), %rax
 3505      FEFFFF
 3506 0205 4889CE   		movq	%rcx, %rsi
 3507 0208 4889C7   		movq	%rax, %rdi
 3508 020b E8000000 		call	_ZN8UnitTest11TestResults13OnTestFailureERKNS_11TestDetailsEPKc@PLT
 3508      00
 3509              	.LEHE110:
  83:/home/asoreyh/Dropbox/projects/lago/acqua/nexys/src/makestuff/libs/libutpp/Checks.h **** }
 3510              		.loc 5 83 5
 3511 0210 488D8550 		leaq	-432(%rbp), %rax
 3511      FEFFFF
 3512 0217 4889C7   		movq	%rax, %rdi
 3513              	.LEHB111:
 3514 021a E8000000 		call	_ZN8UnitTest15MemoryOutStreamD1Ev
 3514      00
 3515              	.LEHE111:
 3516              	.LBE34:
 3517              	.LBE33:
 3518              		.loc 5 84 1
 3519 021f EB21     		jmp	.L179
 3520              	.L178:
 3521 0221 F30F1EFA 		endbr64
 3522              	.LBB38:
 3523              	.LBB37:
  83:/home/asoreyh/Dropbox/projects/lago/acqua/nexys/src/makestuff/libs/libutpp/Checks.h **** }
 3524              		.loc 5 83 5
 3525 0225 4889C3   		movq	%rax, %rbx
 3526 0228 488D8550 		leaq	-432(%rbp), %rax
 3526      FEFFFF
 3527 022f 4889C7   		movq	%rax, %rdi
 3528 0232 E8000000 		call	_ZN8UnitTest15MemoryOutStreamD1Ev
 3528      00
 3529 0237 4889D8   		movq	%rbx, %rax
 3530 023a 4889C7   		movq	%rax, %rdi
 3531              	.LEHB112:
 3532 023d E8000000 		call	_Unwind_Resume@PLT
 3532      00
 3533              	.LEHE112:
 3534              	.L179:
 3535              	.LBE37:
 3536              	.LBE38:
 3537              		.loc 5 84 1
 3538 0242 90       		nop
 3539 0243 488B45E8 		movq	-24(%rbp), %rax
 3540 0247 64482B04 		subq	%fs:40, %rax
 3540      25280000 
 3540      00
 3541 0250 7405     		je	.L177
 3542 0252 E8000000 		call	__stack_chk_fail@PLT
 3542      00
 3543              	.L177:
 3544 0257 488B5DF8 		movq	-8(%rbp), %rbx
 3545 025b C9       		leave
 3546              		.cfi_def_cfa 7, 8
 3547 025c C3       		ret
 3548              		.cfi_endproc
 3549              	.LFE1288:
 3550              		.section	.gcc_except_table
 3551              	.LLSDA1288:
 3552 0285 FF       		.byte	0xff
 3553 0286 FF       		.byte	0xff
 3554 0287 01       		.byte	0x1
 3555 0288 16       		.uleb128 .LLSDACSE1288-.LLSDACSB1288
 3556              	.LLSDACSB1288:
 3557 0289 D101     		.uleb128 .LEHB109-.LFB1288
 3558 028b 05       		.uleb128 .LEHE109-.LEHB109
 3559 028c 00       		.uleb128 0
 3560 028d 00       		.uleb128 0
 3561 028e EA01     		.uleb128 .LEHB110-.LFB1288
 3562 0290 A602     		.uleb128 .LEHE110-.LEHB110
 3563 0292 A104     		.uleb128 .L178-.LFB1288
 3564 0294 00       		.uleb128 0
 3565 0295 9A04     		.uleb128 .LEHB111-.LFB1288
 3566 0297 05       		.uleb128 .LEHE111-.LEHB111
 3567 0298 00       		.uleb128 0
 3568 0299 00       		.uleb128 0
 3569 029a BD04     		.uleb128 .LEHB112-.LFB1288
 3570 029c 05       		.uleb128 .LEHE112-.LEHB112
 3571 029d 00       		.uleb128 0
 3572 029e 00       		.uleb128 0
 3573              	.LLSDACSE1288:
 3574              		.section	.text._ZN8UnitTest15CheckArrayEqualIPKcPcEEvRNS_11TestResultsERKT_RKT0_iRKNS_11TestDetail
 3576              		.section	.text._ZN8UnitTest10CheckEqualIiSt4fposI11__mbstate_tEEEvRNS_11TestResultsERKT_RKT0_RKNS_
 3577              		.weak	_ZN8UnitTest10CheckEqualIiSt4fposI11__mbstate_tEEEvRNS_11TestResultsERKT_RKT0_RKNS_11TestDet
 3579              	_ZN8UnitTest10CheckEqualIiSt4fposI11__mbstate_tEEEvRNS_11TestResultsERKT_RKT0_RKNS_11TestDetailsE:
 3580              	.LFB1289:
  19:/home/asoreyh/Dropbox/projects/lago/acqua/nexys/src/makestuff/libs/libutpp/Checks.h **** {
 3581              		.loc 5 19 6
 3582              		.cfi_startproc
 3583              		.cfi_personality 0x9b,DW.ref.__gxx_personality_v0
 3584              		.cfi_lsda 0x1b,.LLSDA1289
 3585 0000 F30F1EFA 		endbr64
 3586 0004 55       		pushq	%rbp
 3587              		.cfi_def_cfa_offset 16
 3588              		.cfi_offset 6, -16
 3589 0005 4889E5   		movq	%rsp, %rbp
 3590              		.cfi_def_cfa_register 6
 3591 0008 53       		pushq	%rbx
 3592 0009 4881ECC8 		subq	$456, %rsp
 3592      010000
 3593              		.cfi_offset 3, -24
 3594 0010 4889BD48 		movq	%rdi, -440(%rbp)
 3594      FEFFFF
 3595 0017 4889B540 		movq	%rsi, -448(%rbp)
 3595      FEFFFF
 3596 001e 48899538 		movq	%rdx, -456(%rbp)
 3596      FEFFFF
 3597 0025 48898D30 		movq	%rcx, -464(%rbp)
 3597      FEFFFF
  19:/home/asoreyh/Dropbox/projects/lago/acqua/nexys/src/makestuff/libs/libutpp/Checks.h **** {
 3598              		.loc 5 19 6
 3599 002c 64488B04 		movq	%fs:40, %rax
 3599      25280000 
 3599      00
 3600 0035 488945E8 		movq	%rax, -24(%rbp)
 3601 0039 31C0     		xorl	%eax, %eax
 3602              	.LBB39:
  21:/home/asoreyh/Dropbox/projects/lago/acqua/nexys/src/makestuff/libs/libutpp/Checks.h ****     {
 3603              		.loc 5 21 20
 3604 003b 488B8540 		movq	-448(%rbp), %rax
 3604      FEFFFF
 3605 0042 8B00     		movl	(%rax), %eax
 3606 0044 4863D8   		movslq	%eax, %rbx
 3607 0047 488B8538 		movq	-456(%rbp), %rax
 3607      FEFFFF
 3608 004e 4889C7   		movq	%rax, %rdi
 3609 0051 E8000000 		call	_ZNKSt4fposI11__mbstate_tEcvlEv
 3609      00
 3610 0056 4839C3   		cmpq	%rax, %rbx
 3611 0059 0F95C0   		setne	%al
  21:/home/asoreyh/Dropbox/projects/lago/acqua/nexys/src/makestuff/libs/libutpp/Checks.h ****     {
 3612              		.loc 5 21 5
 3613 005c 84C0     		testb	%al, %al
 3614 005e 0F84CD00 		je	.L185
 3614      0000
 3615              	.LBB40:
  23:/home/asoreyh/Dropbox/projects/lago/acqua/nexys/src/makestuff/libs/libutpp/Checks.h ****         stream << "Expected " << expected << " but was " << actual;
 3616              		.loc 5 23 35
 3617 0064 488D8550 		leaq	-432(%rbp), %rax
 3617      FEFFFF
 3618 006b 4889C7   		movq	%rax, %rdi
 3619              	.LEHB113:
 3620 006e E8000000 		call	_ZN8UnitTest15MemoryOutStreamC1Ev
 3620      00
 3621              	.LEHE113:
  24:/home/asoreyh/Dropbox/projects/lago/acqua/nexys/src/makestuff/libs/libutpp/Checks.h **** 
 3622              		.loc 5 24 16
 3623 0073 488D8550 		leaq	-432(%rbp), %rax
 3623      FEFFFF
 3624 007a 488D1500 		leaq	.LC20(%rip), %rdx
 3624      000000
 3625 0081 4889D6   		movq	%rdx, %rsi
 3626 0084 4889C7   		movq	%rax, %rdi
 3627              	.LEHB114:
 3628 0087 E8000000 		call	_ZStlsISt11char_traitsIcEERSt13basic_ostreamIcT_ES5_PKc@PLT
 3628      00
 3629 008c 4889C2   		movq	%rax, %rdx
  24:/home/asoreyh/Dropbox/projects/lago/acqua/nexys/src/makestuff/libs/libutpp/Checks.h **** 
 3630              		.loc 5 24 43
 3631 008f 488B8540 		movq	-448(%rbp), %rax
 3631      FEFFFF
 3632 0096 8B00     		movl	(%rax), %eax
 3633 0098 89C6     		movl	%eax, %esi
 3634 009a 4889D7   		movq	%rdx, %rdi
 3635 009d E8000000 		call	_ZNSolsEi@PLT
 3635      00
  24:/home/asoreyh/Dropbox/projects/lago/acqua/nexys/src/makestuff/libs/libutpp/Checks.h **** 
 3636              		.loc 5 24 43 is_stmt 0 discriminator 1
 3637 00a2 4889C2   		movq	%rax, %rdx
 3638 00a5 488D0500 		leaq	.LC21(%rip), %rax
 3638      000000
 3639 00ac 4889C6   		movq	%rax, %rsi
 3640 00af 4889D7   		movq	%rdx, %rdi
 3641 00b2 E8000000 		call	_ZStlsISt11char_traitsIcEERSt13basic_ostreamIcT_ES5_PKc@PLT
 3641      00
  24:/home/asoreyh/Dropbox/projects/lago/acqua/nexys/src/makestuff/libs/libutpp/Checks.h **** 
 3642              		.loc 5 24 43 discriminator 2
 3643 00b7 4889C3   		movq	%rax, %rbx
  24:/home/asoreyh/Dropbox/projects/lago/acqua/nexys/src/makestuff/libs/libutpp/Checks.h **** 
 3644              		.loc 5 24 58 is_stmt 1 discriminator 2
 3645 00ba 488B8538 		movq	-456(%rbp), %rax
 3645      FEFFFF
 3646 00c1 4889C7   		movq	%rax, %rdi
 3647 00c4 E8000000 		call	_ZNKSt4fposI11__mbstate_tEcvlEv
 3647      00
 3648 00c9 4889C6   		movq	%rax, %rsi
 3649 00cc 4889DF   		movq	%rbx, %rdi
 3650 00cf E8000000 		call	_ZNSolsEl@PLT
 3650      00
  26:/home/asoreyh/Dropbox/projects/lago/acqua/nexys/src/makestuff/libs/libutpp/Checks.h ****     }
 3651              		.loc 5 26 30
 3652 00d4 488D8550 		leaq	-432(%rbp), %rax
 3652      FEFFFF
 3653 00db 4889C7   		movq	%rax, %rdi
 3654 00de E8000000 		call	_ZNK8UnitTest15MemoryOutStream7GetTextEv@PLT
 3654      00
 3655 00e3 4889C2   		movq	%rax, %rdx
 3656 00e6 488B8D30 		movq	-464(%rbp), %rcx
 3656      FEFFFF
 3657 00ed 488B8548 		movq	-440(%rbp), %rax
 3657      FEFFFF
 3658 00f4 4889CE   		movq	%rcx, %rsi
 3659 00f7 4889C7   		movq	%rax, %rdi
 3660 00fa E8000000 		call	_ZN8UnitTest11TestResults13OnTestFailureERKNS_11TestDetailsEPKc@PLT
 3660      00
 3661              	.LEHE114:
  27:/home/asoreyh/Dropbox/projects/lago/acqua/nexys/src/makestuff/libs/libutpp/Checks.h **** }
 3662              		.loc 5 27 5
 3663 00ff 488D8550 		leaq	-432(%rbp), %rax
 3663      FEFFFF
 3664 0106 4889C7   		movq	%rax, %rdi
 3665              	.LEHB115:
 3666 0109 E8000000 		call	_ZN8UnitTest15MemoryOutStreamD1Ev
 3666      00
 3667              	.LEHE115:
 3668              	.LBE40:
 3669              	.LBE39:
  28:/home/asoreyh/Dropbox/projects/lago/acqua/nexys/src/makestuff/libs/libutpp/Checks.h **** 
 3670              		.loc 5 28 1
 3671 010e EB21     		jmp	.L185
 3672              	.L184:
 3673 0110 F30F1EFA 		endbr64
 3674              	.LBB42:
 3675              	.LBB41:
  27:/home/asoreyh/Dropbox/projects/lago/acqua/nexys/src/makestuff/libs/libutpp/Checks.h **** }
 3676              		.loc 5 27 5
 3677 0114 4889C3   		movq	%rax, %rbx
 3678 0117 488D8550 		leaq	-432(%rbp), %rax
 3678      FEFFFF
 3679 011e 4889C7   		movq	%rax, %rdi
 3680 0121 E8000000 		call	_ZN8UnitTest15MemoryOutStreamD1Ev
 3680      00
 3681 0126 4889D8   		movq	%rbx, %rax
 3682 0129 4889C7   		movq	%rax, %rdi
 3683              	.LEHB116:
 3684 012c E8000000 		call	_Unwind_Resume@PLT
 3684      00
 3685              	.LEHE116:
 3686              	.L185:
 3687              	.LBE41:
 3688              	.LBE42:
  28:/home/asoreyh/Dropbox/projects/lago/acqua/nexys/src/makestuff/libs/libutpp/Checks.h **** 
 3689              		.loc 5 28 1
 3690 0131 90       		nop
 3691 0132 488B45E8 		movq	-24(%rbp), %rax
 3692 0136 64482B04 		subq	%fs:40, %rax
 3692      25280000 
 3692      00
 3693 013f 7405     		je	.L183
 3694 0141 E8000000 		call	__stack_chk_fail@PLT
 3694      00
 3695              	.L183:
 3696 0146 488B5DF8 		movq	-8(%rbp), %rbx
 3697 014a C9       		leave
 3698              		.cfi_def_cfa 7, 8
 3699 014b C3       		ret
 3700              		.cfi_endproc
 3701              	.LFE1289:
 3702              		.section	.gcc_except_table
 3703              	.LLSDA1289:
 3704 029f FF       		.byte	0xff
 3705 02a0 FF       		.byte	0xff
 3706 02a1 01       		.byte	0x1
 3707 02a2 14       		.uleb128 .LLSDACSE1289-.LLSDACSB1289
 3708              	.LLSDACSB1289:
 3709 02a3 6E       		.uleb128 .LEHB113-.LFB1289
 3710 02a4 05       		.uleb128 .LEHE113-.LEHB113
 3711 02a5 00       		.uleb128 0
 3712 02a6 00       		.uleb128 0
 3713 02a7 8701     		.uleb128 .LEHB114-.LFB1289
 3714 02a9 78       		.uleb128 .LEHE114-.LEHB114
 3715 02aa 9002     		.uleb128 .L184-.LFB1289
 3716 02ac 00       		.uleb128 0
 3717 02ad 8902     		.uleb128 .LEHB115-.LFB1289
 3718 02af 05       		.uleb128 .LEHE115-.LEHB115
 3719 02b0 00       		.uleb128 0
 3720 02b1 00       		.uleb128 0
 3721 02b2 AC02     		.uleb128 .LEHB116-.LFB1289
 3722 02b4 05       		.uleb128 .LEHE116-.LEHB116
 3723 02b5 00       		.uleb128 0
 3724 02b6 00       		.uleb128 0
 3725              	.LLSDACSE1289:
 3726              		.section	.text._ZN8UnitTest10CheckEqualIiSt4fposI11__mbstate_tEEEvRNS_11TestResultsERKT_RKT0_RKNS_
 3728              		.weak	_ZTV23TestBinIO_testWriteFile
 3729              		.section	.data.rel.ro.local._ZTV23TestBinIO_testWriteFile,"awG",@progbits,_ZTV23TestBinIO_testWrit
 3730              		.align 8
 3733              	_ZTV23TestBinIO_testWriteFile:
 3734 0000 00000000 		.quad	0
 3734      00000000 
 3735 0008 00000000 		.quad	_ZTI23TestBinIO_testWriteFile
 3735      00000000 
 3736 0010 00000000 		.quad	_ZN23TestBinIO_testWriteFileD1Ev
 3736      00000000 
 3737 0018 00000000 		.quad	_ZN23TestBinIO_testWriteFileD0Ev
 3737      00000000 
 3738 0020 00000000 		.quad	_ZNK23TestBinIO_testWriteFile7RunImplEv
 3738      00000000 
 3739              		.section	.text._ZN23TestBinIO_testWriteFileD2Ev,"axG",@progbits,_ZN23TestBinIO_testWriteFileD5Ev,c
 3740              		.align 2
 3741              		.weak	_ZN23TestBinIO_testWriteFileD2Ev
 3743              	_ZN23TestBinIO_testWriteFileD2Ev:
 3744              	.LFB1360:
  54:testBinIO.cpp **** 	const char *const FILENAME = "tmpFile.bin";
 3745              		.loc 4 54 1
 3746              		.cfi_startproc
 3747 0000 F30F1EFA 		endbr64
 3748 0004 55       		pushq	%rbp
 3749              		.cfi_def_cfa_offset 16
 3750              		.cfi_offset 6, -16
 3751 0005 4889E5   		movq	%rsp, %rbp
 3752              		.cfi_def_cfa_register 6
 3753 0008 4883EC10 		subq	$16, %rsp
 3754 000c 48897DF8 		movq	%rdi, -8(%rbp)
 3755              	.LBB43:
  54:testBinIO.cpp **** 	const char *const FILENAME = "tmpFile.bin";
 3756              		.loc 4 54 1
 3757 0010 488D1500 		leaq	16+_ZTV23TestBinIO_testWriteFile(%rip), %rdx
 3757      000000
 3758 0017 488B45F8 		movq	-8(%rbp), %rax
 3759 001b 488910   		movq	%rdx, (%rax)
 3760 001e 488B45F8 		movq	-8(%rbp), %rax
 3761 0022 4889C7   		movq	%rax, %rdi
 3762 0025 E8000000 		call	_ZN8UnitTest4TestD2Ev@PLT
 3762      00
 3763              	.LBE43:
 3764 002a 90       		nop
 3765 002b C9       		leave
 3766              		.cfi_def_cfa 7, 8
 3767 002c C3       		ret
 3768              		.cfi_endproc
 3769              	.LFE1360:
 3771              		.weak	_ZN23TestBinIO_testWriteFileD1Ev
 3772              		.set	_ZN23TestBinIO_testWriteFileD1Ev,_ZN23TestBinIO_testWriteFileD2Ev
 3773              		.section	.text._ZN23TestBinIO_testWriteFileD0Ev,"axG",@progbits,_ZN23TestBinIO_testWriteFileD5Ev,c
 3774              		.align 2
 3775              		.weak	_ZN23TestBinIO_testWriteFileD0Ev
 3777              	_ZN23TestBinIO_testWriteFileD0Ev:
 3778              	.LFB1362:
  54:testBinIO.cpp **** 	const char *const FILENAME = "tmpFile.bin";
 3779              		.loc 4 54 1
 3780              		.cfi_startproc
 3781              		.cfi_personality 0x9b,DW.ref.__gxx_personality_v0
 3782              		.cfi_lsda 0x1b,.LLSDA1362
 3783 0000 F30F1EFA 		endbr64
 3784 0004 55       		pushq	%rbp
 3785              		.cfi_def_cfa_offset 16
 3786              		.cfi_offset 6, -16
 3787 0005 4889E5   		movq	%rsp, %rbp
 3788              		.cfi_def_cfa_register 6
 3789 0008 53       		pushq	%rbx
 3790 0009 4883EC18 		subq	$24, %rsp
 3791              		.cfi_offset 3, -24
 3792 000d 48897DE8 		movq	%rdi, -24(%rbp)
  54:testBinIO.cpp **** 	const char *const FILENAME = "tmpFile.bin";
 3793              		.loc 4 54 1
 3794 0011 488B45E8 		movq	-24(%rbp), %rax
 3795 0015 4889C7   		movq	%rax, %rdi
 3796              	.LEHB117:
 3797 0018 E8000000 		call	_ZN23TestBinIO_testWriteFileD1Ev
 3797      00
 3798              	.LEHE117:
  54:testBinIO.cpp **** 	const char *const FILENAME = "tmpFile.bin";
 3799              		.loc 4 54 1 is_stmt 0 discriminator 2
 3800 001d 488B45E8 		movq	-24(%rbp), %rax
 3801 0021 4889C7   		movq	%rax, %rdi
 3802 0024 E8000000 		call	_ZdlPv@PLT
 3802      00
 3803 0029 EB1E     		jmp	.L190
 3804              	.L189:
 3805 002b F30F1EFA 		endbr64
  54:testBinIO.cpp **** 	const char *const FILENAME = "tmpFile.bin";
 3806              		.loc 4 54 1
 3807 002f 4889C3   		movq	%rax, %rbx
 3808 0032 488B45E8 		movq	-24(%rbp), %rax
 3809 0036 4889C7   		movq	%rax, %rdi
 3810 0039 E8000000 		call	_ZdlPv@PLT
 3810      00
 3811 003e 4889D8   		movq	%rbx, %rax
 3812 0041 4889C7   		movq	%rax, %rdi
 3813              	.LEHB118:
 3814 0044 E8000000 		call	_Unwind_Resume@PLT
 3814      00
 3815              	.LEHE118:
 3816              	.L190:
 3817 0049 488B5DF8 		movq	-8(%rbp), %rbx
 3818 004d C9       		leave
 3819              		.cfi_def_cfa 7, 8
 3820 004e C3       		ret
 3821              		.cfi_endproc
 3822              	.LFE1362:
 3823              		.section	.gcc_except_table
 3824              	.LLSDA1362:
 3825 02b7 FF       		.byte	0xff
 3826 02b8 FF       		.byte	0xff
 3827 02b9 01       		.byte	0x1
 3828 02ba 08       		.uleb128 .LLSDACSE1362-.LLSDACSB1362
 3829              	.LLSDACSB1362:
 3830 02bb 18       		.uleb128 .LEHB117-.LFB1362
 3831 02bc 05       		.uleb128 .LEHE117-.LEHB117
 3832 02bd 2B       		.uleb128 .L189-.LFB1362
 3833 02be 00       		.uleb128 0
 3834 02bf 44       		.uleb128 .LEHB118-.LFB1362
 3835 02c0 05       		.uleb128 .LEHE118-.LEHB118
 3836 02c1 00       		.uleb128 0
 3837 02c2 00       		.uleb128 0
 3838              	.LLSDACSE1362:
 3839              		.section	.text._ZN23TestBinIO_testWriteFileD0Ev,"axG",@progbits,_ZN23TestBinIO_testWriteFileD5Ev,c
 3841              		.weak	_ZTV30TestBinIO_testReadExistingFile
 3842              		.section	.data.rel.ro.local._ZTV30TestBinIO_testReadExistingFile,"awG",@progbits,_ZTV30TestBinIO_t
 3843              		.align 8
 3846              	_ZTV30TestBinIO_testReadExistingFile:
 3847 0000 00000000 		.quad	0
 3847      00000000 
 3848 0008 00000000 		.quad	_ZTI30TestBinIO_testReadExistingFile
 3848      00000000 
 3849 0010 00000000 		.quad	_ZN30TestBinIO_testReadExistingFileD1Ev
 3849      00000000 
 3850 0018 00000000 		.quad	_ZN30TestBinIO_testReadExistingFileD0Ev
 3850      00000000 
 3851 0020 00000000 		.quad	_ZNK30TestBinIO_testReadExistingFile7RunImplEv
 3851      00000000 
 3852              		.section	.text._ZN30TestBinIO_testReadExistingFileD2Ev,"axG",@progbits,_ZN30TestBinIO_testReadExis
 3853              		.align 2
 3854              		.weak	_ZN30TestBinIO_testReadExistingFileD2Ev
 3856              	_ZN30TestBinIO_testReadExistingFileD2Ev:
 3857              	.LFB1364:
  33:testBinIO.cpp **** 	const char *const FILENAME = "tmpFile.bin";
 3858              		.loc 4 33 1 is_stmt 1
 3859              		.cfi_startproc
 3860 0000 F30F1EFA 		endbr64
 3861 0004 55       		pushq	%rbp
 3862              		.cfi_def_cfa_offset 16
 3863              		.cfi_offset 6, -16
 3864 0005 4889E5   		movq	%rsp, %rbp
 3865              		.cfi_def_cfa_register 6
 3866 0008 4883EC10 		subq	$16, %rsp
 3867 000c 48897DF8 		movq	%rdi, -8(%rbp)
 3868              	.LBB44:
  33:testBinIO.cpp **** 	const char *const FILENAME = "tmpFile.bin";
 3869              		.loc 4 33 1
 3870 0010 488D1500 		leaq	16+_ZTV30TestBinIO_testReadExistingFile(%rip), %rdx
 3870      000000
 3871 0017 488B45F8 		movq	-8(%rbp), %rax
 3872 001b 488910   		movq	%rdx, (%rax)
 3873 001e 488B45F8 		movq	-8(%rbp), %rax
 3874 0022 4889C7   		movq	%rax, %rdi
 3875 0025 E8000000 		call	_ZN8UnitTest4TestD2Ev@PLT
 3875      00
 3876              	.LBE44:
 3877 002a 90       		nop
 3878 002b C9       		leave
 3879              		.cfi_def_cfa 7, 8
 3880 002c C3       		ret
 3881              		.cfi_endproc
 3882              	.LFE1364:
 3884              		.weak	_ZN30TestBinIO_testReadExistingFileD1Ev
 3885              		.set	_ZN30TestBinIO_testReadExistingFileD1Ev,_ZN30TestBinIO_testReadExistingFileD2Ev
 3886              		.section	.text._ZN30TestBinIO_testReadExistingFileD0Ev,"axG",@progbits,_ZN30TestBinIO_testReadExis
 3887              		.align 2
 3888              		.weak	_ZN30TestBinIO_testReadExistingFileD0Ev
 3890              	_ZN30TestBinIO_testReadExistingFileD0Ev:
 3891              	.LFB1366:
  33:testBinIO.cpp **** 	const char *const FILENAME = "tmpFile.bin";
 3892              		.loc 4 33 1
 3893              		.cfi_startproc
 3894              		.cfi_personality 0x9b,DW.ref.__gxx_personality_v0
 3895              		.cfi_lsda 0x1b,.LLSDA1366
 3896 0000 F30F1EFA 		endbr64
 3897 0004 55       		pushq	%rbp
 3898              		.cfi_def_cfa_offset 16
 3899              		.cfi_offset 6, -16
 3900 0005 4889E5   		movq	%rsp, %rbp
 3901              		.cfi_def_cfa_register 6
 3902 0008 53       		pushq	%rbx
 3903 0009 4883EC18 		subq	$24, %rsp
 3904              		.cfi_offset 3, -24
 3905 000d 48897DE8 		movq	%rdi, -24(%rbp)
  33:testBinIO.cpp **** 	const char *const FILENAME = "tmpFile.bin";
 3906              		.loc 4 33 1
 3907 0011 488B45E8 		movq	-24(%rbp), %rax
 3908 0015 4889C7   		movq	%rax, %rdi
 3909              	.LEHB119:
 3910 0018 E8000000 		call	_ZN30TestBinIO_testReadExistingFileD1Ev
 3910      00
 3911              	.LEHE119:
  33:testBinIO.cpp **** 	const char *const FILENAME = "tmpFile.bin";
 3912              		.loc 4 33 1 is_stmt 0 discriminator 2
 3913 001d 488B45E8 		movq	-24(%rbp), %rax
 3914 0021 4889C7   		movq	%rax, %rdi
 3915 0024 E8000000 		call	_ZdlPv@PLT
 3915      00
 3916 0029 EB1E     		jmp	.L195
 3917              	.L194:
 3918 002b F30F1EFA 		endbr64
  33:testBinIO.cpp **** 	const char *const FILENAME = "tmpFile.bin";
 3919              		.loc 4 33 1
 3920 002f 4889C3   		movq	%rax, %rbx
 3921 0032 488B45E8 		movq	-24(%rbp), %rax
 3922 0036 4889C7   		movq	%rax, %rdi
 3923 0039 E8000000 		call	_ZdlPv@PLT
 3923      00
 3924 003e 4889D8   		movq	%rbx, %rax
 3925 0041 4889C7   		movq	%rax, %rdi
 3926              	.LEHB120:
 3927 0044 E8000000 		call	_Unwind_Resume@PLT
 3927      00
 3928              	.LEHE120:
 3929              	.L195:
 3930 0049 488B5DF8 		movq	-8(%rbp), %rbx
 3931 004d C9       		leave
 3932              		.cfi_def_cfa 7, 8
 3933 004e C3       		ret
 3934              		.cfi_endproc
 3935              	.LFE1366:
 3936              		.section	.gcc_except_table
 3937              	.LLSDA1366:
 3938 02c3 FF       		.byte	0xff
 3939 02c4 FF       		.byte	0xff
 3940 02c5 01       		.byte	0x1
 3941 02c6 08       		.uleb128 .LLSDACSE1366-.LLSDACSB1366
 3942              	.LLSDACSB1366:
 3943 02c7 18       		.uleb128 .LEHB119-.LFB1366
 3944 02c8 05       		.uleb128 .LEHE119-.LEHB119
 3945 02c9 2B       		.uleb128 .L194-.LFB1366
 3946 02ca 00       		.uleb128 0
 3947 02cb 44       		.uleb128 .LEHB120-.LFB1366
 3948 02cc 05       		.uleb128 .LEHE120-.LEHB120
 3949 02cd 00       		.uleb128 0
 3950 02ce 00       		.uleb128 0
 3951              	.LLSDACSE1366:
 3952              		.section	.text._ZN30TestBinIO_testReadExistingFileD0Ev,"axG",@progbits,_ZN30TestBinIO_testReadExis
 3954              		.weak	_ZTV33TestBinIO_testReadNonExistentFile
 3955              		.section	.data.rel.ro.local._ZTV33TestBinIO_testReadNonExistentFile,"awG",@progbits,_ZTV33TestBinI
 3956              		.align 8
 3959              	_ZTV33TestBinIO_testReadNonExistentFile:
 3960 0000 00000000 		.quad	0
 3960      00000000 
 3961 0008 00000000 		.quad	_ZTI33TestBinIO_testReadNonExistentFile
 3961      00000000 
 3962 0010 00000000 		.quad	_ZN33TestBinIO_testReadNonExistentFileD1Ev
 3962      00000000 
 3963 0018 00000000 		.quad	_ZN33TestBinIO_testReadNonExistentFileD0Ev
 3963      00000000 
 3964 0020 00000000 		.quad	_ZNK33TestBinIO_testReadNonExistentFile7RunImplEv
 3964      00000000 
 3965              		.section	.text._ZN33TestBinIO_testReadNonExistentFileD2Ev,"axG",@progbits,_ZN33TestBinIO_testReadN
 3966              		.align 2
 3967              		.weak	_ZN33TestBinIO_testReadNonExistentFileD2Ev
 3969              	_ZN33TestBinIO_testReadNonExistentFileD2Ev:
 3970              	.LFB1368:
  24:testBinIO.cpp **** 	Buffer buf;
 3971              		.loc 4 24 1 is_stmt 1
 3972              		.cfi_startproc
 3973 0000 F30F1EFA 		endbr64
 3974 0004 55       		pushq	%rbp
 3975              		.cfi_def_cfa_offset 16
 3976              		.cfi_offset 6, -16
 3977 0005 4889E5   		movq	%rsp, %rbp
 3978              		.cfi_def_cfa_register 6
 3979 0008 4883EC10 		subq	$16, %rsp
 3980 000c 48897DF8 		movq	%rdi, -8(%rbp)
 3981              	.LBB45:
  24:testBinIO.cpp **** 	Buffer buf;
 3982              		.loc 4 24 1
 3983 0010 488D1500 		leaq	16+_ZTV33TestBinIO_testReadNonExistentFile(%rip), %rdx
 3983      000000
 3984 0017 488B45F8 		movq	-8(%rbp), %rax
 3985 001b 488910   		movq	%rdx, (%rax)
 3986 001e 488B45F8 		movq	-8(%rbp), %rax
 3987 0022 4889C7   		movq	%rax, %rdi
 3988 0025 E8000000 		call	_ZN8UnitTest4TestD2Ev@PLT
 3988      00
 3989              	.LBE45:
 3990 002a 90       		nop
 3991 002b C9       		leave
 3992              		.cfi_def_cfa 7, 8
 3993 002c C3       		ret
 3994              		.cfi_endproc
 3995              	.LFE1368:
 3997              		.weak	_ZN33TestBinIO_testReadNonExistentFileD1Ev
 3998              		.set	_ZN33TestBinIO_testReadNonExistentFileD1Ev,_ZN33TestBinIO_testReadNonExistentFileD2Ev
 3999              		.section	.text._ZN33TestBinIO_testReadNonExistentFileD0Ev,"axG",@progbits,_ZN33TestBinIO_testReadN
 4000              		.align 2
 4001              		.weak	_ZN33TestBinIO_testReadNonExistentFileD0Ev
 4003              	_ZN33TestBinIO_testReadNonExistentFileD0Ev:
 4004              	.LFB1370:
  24:testBinIO.cpp **** 	Buffer buf;
 4005              		.loc 4 24 1
 4006              		.cfi_startproc
 4007              		.cfi_personality 0x9b,DW.ref.__gxx_personality_v0
 4008              		.cfi_lsda 0x1b,.LLSDA1370
 4009 0000 F30F1EFA 		endbr64
 4010 0004 55       		pushq	%rbp
 4011              		.cfi_def_cfa_offset 16
 4012              		.cfi_offset 6, -16
 4013 0005 4889E5   		movq	%rsp, %rbp
 4014              		.cfi_def_cfa_register 6
 4015 0008 53       		pushq	%rbx
 4016 0009 4883EC18 		subq	$24, %rsp
 4017              		.cfi_offset 3, -24
 4018 000d 48897DE8 		movq	%rdi, -24(%rbp)
  24:testBinIO.cpp **** 	Buffer buf;
 4019              		.loc 4 24 1
 4020 0011 488B45E8 		movq	-24(%rbp), %rax
 4021 0015 4889C7   		movq	%rax, %rdi
 4022              	.LEHB121:
 4023 0018 E8000000 		call	_ZN33TestBinIO_testReadNonExistentFileD1Ev
 4023      00
 4024              	.LEHE121:
  24:testBinIO.cpp **** 	Buffer buf;
 4025              		.loc 4 24 1 is_stmt 0 discriminator 2
 4026 001d 488B45E8 		movq	-24(%rbp), %rax
 4027 0021 4889C7   		movq	%rax, %rdi
 4028 0024 E8000000 		call	_ZdlPv@PLT
 4028      00
 4029 0029 EB1E     		jmp	.L200
 4030              	.L199:
 4031 002b F30F1EFA 		endbr64
  24:testBinIO.cpp **** 	Buffer buf;
 4032              		.loc 4 24 1
 4033 002f 4889C3   		movq	%rax, %rbx
 4034 0032 488B45E8 		movq	-24(%rbp), %rax
 4035 0036 4889C7   		movq	%rax, %rdi
 4036 0039 E8000000 		call	_ZdlPv@PLT
 4036      00
 4037 003e 4889D8   		movq	%rbx, %rax
 4038 0041 4889C7   		movq	%rax, %rdi
 4039              	.LEHB122:
 4040 0044 E8000000 		call	_Unwind_Resume@PLT
 4040      00
 4041              	.LEHE122:
 4042              	.L200:
 4043 0049 488B5DF8 		movq	-8(%rbp), %rbx
 4044 004d C9       		leave
 4045              		.cfi_def_cfa 7, 8
 4046 004e C3       		ret
 4047              		.cfi_endproc
 4048              	.LFE1370:
 4049              		.section	.gcc_except_table
 4050              	.LLSDA1370:
 4051 02cf FF       		.byte	0xff
 4052 02d0 FF       		.byte	0xff
 4053 02d1 01       		.byte	0x1
 4054 02d2 08       		.uleb128 .LLSDACSE1370-.LLSDACSB1370
 4055              	.LLSDACSB1370:
 4056 02d3 18       		.uleb128 .LEHB121-.LFB1370
 4057 02d4 05       		.uleb128 .LEHE121-.LEHB121
 4058 02d5 2B       		.uleb128 .L199-.LFB1370
 4059 02d6 00       		.uleb128 0
 4060 02d7 44       		.uleb128 .LEHB122-.LFB1370
 4061 02d8 05       		.uleb128 .LEHE122-.LEHB122
 4062 02d9 00       		.uleb128 0
 4063 02da 00       		.uleb128 0
 4064              	.LLSDACSE1370:
 4065              		.section	.text._ZN33TestBinIO_testReadNonExistentFileD0Ev,"axG",@progbits,_ZN33TestBinIO_testReadN
 4067              		.weak	_ZTVN8UnitTest15MemoryOutStreamE
 4068              		.section	.data.rel.ro.local._ZTVN8UnitTest15MemoryOutStreamE,"awG",@progbits,_ZTVN8UnitTest15Memor
 4069              		.align 8
 4072              	_ZTVN8UnitTest15MemoryOutStreamE:
 4073 0000 90000000 		.quad	144
 4073      00000000 
 4074 0008 00000000 		.quad	0
 4074      00000000 
 4075 0010 00000000 		.quad	_ZTIN8UnitTest15MemoryOutStreamE
 4075      00000000 
 4076 0018 00000000 		.quad	_ZN8UnitTest15MemoryOutStreamD1Ev
 4076      00000000 
 4077 0020 00000000 		.quad	_ZN8UnitTest15MemoryOutStreamD0Ev
 4077      00000000 
 4078 0028 70FFFFFF 		.quad	-144
 4078      FFFFFFFF 
 4079 0030 70FFFFFF 		.quad	-144
 4079      FFFFFFFF 
 4080 0038 00000000 		.quad	_ZTIN8UnitTest15MemoryOutStreamE
 4080      00000000 
 4081 0040 00000000 		.quad	_ZTv0_n24_N8UnitTest15MemoryOutStreamD1Ev
 4081      00000000 
 4082 0048 00000000 		.quad	_ZTv0_n24_N8UnitTest15MemoryOutStreamD0Ev
 4082      00000000 
 4083              		.weak	_ZTTN8UnitTest15MemoryOutStreamE
 4084              		.section	.data.rel.ro.local._ZTTN8UnitTest15MemoryOutStreamE,"awG",@progbits,_ZTVN8UnitTest15Memor
 4085              		.align 8
 4088              	_ZTTN8UnitTest15MemoryOutStreamE:
 4089 0000 00000000 		.quad	_ZTVN8UnitTest15MemoryOutStreamE+24
 4089      00000000 
 4090 0008 00000000 		.quad	_ZTCN8UnitTest15MemoryOutStreamE0_NSt7__cxx1119basic_ostringstreamIcSt11char_traitsIcESaIcEE
 4090      00000000 
 4091 0010 00000000 		.quad	_ZTCN8UnitTest15MemoryOutStreamE0_So+24
 4091      00000000 
 4092 0018 00000000 		.quad	_ZTCN8UnitTest15MemoryOutStreamE0_So+64
 4092      00000000 
 4093 0020 00000000 		.quad	_ZTCN8UnitTest15MemoryOutStreamE0_NSt7__cxx1119basic_ostringstreamIcSt11char_traitsIcESaIcEE
 4093      00000000 
 4094 0028 00000000 		.quad	_ZTVN8UnitTest15MemoryOutStreamE+64
 4094      00000000 
 4095              		.hidden	_ZTCN8UnitTest15MemoryOutStreamE0_NSt7__cxx1119basic_ostringstreamIcSt11char_traitsIcESaIc
 4096              		.weak	_ZTCN8UnitTest15MemoryOutStreamE0_NSt7__cxx1119basic_ostringstreamIcSt11char_traitsIcESaIcEE
 4097              		.section	.data.rel.ro._ZTCN8UnitTest15MemoryOutStreamE0_NSt7__cxx1119basic_ostringstreamIcSt11char
 4098              		.align 8
 4101              	_ZTCN8UnitTest15MemoryOutStreamE0_NSt7__cxx1119basic_ostringstreamIcSt11char_traitsIcESaIcEEE:
 4102 0000 90000000 		.quad	144
 4102      00000000 
 4103 0008 00000000 		.quad	0
 4103      00000000 
 4104 0010 00000000 		.quad	_ZTINSt7__cxx1119basic_ostringstreamIcSt11char_traitsIcESaIcEEE
 4104      00000000 
 4105 0018 00000000 		.quad	0
 4105      00000000 
 4106 0020 00000000 		.quad	0
 4106      00000000 
 4107 0028 70FFFFFF 		.quad	-144
 4107      FFFFFFFF 
 4108 0030 70FFFFFF 		.quad	-144
 4108      FFFFFFFF 
 4109 0038 00000000 		.quad	_ZTINSt7__cxx1119basic_ostringstreamIcSt11char_traitsIcESaIcEEE
 4109      00000000 
 4110 0040 00000000 		.quad	0
 4110      00000000 
 4111 0048 00000000 		.quad	0
 4111      00000000 
 4112              		.hidden	_ZTCN8UnitTest15MemoryOutStreamE0_So
 4113              		.weak	_ZTCN8UnitTest15MemoryOutStreamE0_So
 4114              		.section	.data.rel.ro._ZTCN8UnitTest15MemoryOutStreamE0_So,"awG",@progbits,_ZTVN8UnitTest15MemoryO
 4115              		.align 8
 4118              	_ZTCN8UnitTest15MemoryOutStreamE0_So:
 4119 0000 90000000 		.quad	144
 4119      00000000 
 4120 0008 00000000 		.quad	0
 4120      00000000 
 4121 0010 00000000 		.quad	_ZTISo
 4121      00000000 
 4122 0018 00000000 		.quad	0
 4122      00000000 
 4123 0020 00000000 		.quad	0
 4123      00000000 
 4124 0028 70FFFFFF 		.quad	-144
 4124      FFFFFFFF 
 4125 0030 70FFFFFF 		.quad	-144
 4125      FFFFFFFF 
 4126 0038 00000000 		.quad	_ZTISo
 4126      00000000 
 4127 0040 00000000 		.quad	0
 4127      00000000 
 4128 0048 00000000 		.quad	0
 4128      00000000 
 4129              		.weak	_ZTI23TestBinIO_testWriteFile
 4130              		.section	.data.rel.ro._ZTI23TestBinIO_testWriteFile,"awG",@progbits,_ZTI23TestBinIO_testWriteFile,
 4131              		.align 8
 4134              	_ZTI23TestBinIO_testWriteFile:
 4135 0000 00000000 		.quad	_ZTVN10__cxxabiv120__si_class_type_infoE+16
 4135      00000000 
 4136 0008 00000000 		.quad	_ZTS23TestBinIO_testWriteFile
 4136      00000000 
 4137 0010 00000000 		.quad	_ZTIN8UnitTest4TestE
 4137      00000000 
 4138              		.weak	_ZTS23TestBinIO_testWriteFile
 4139              		.section	.rodata._ZTS23TestBinIO_testWriteFile,"aG",@progbits,_ZTS23TestBinIO_testWriteFile,comdat
 4140              		.align 16
 4143              	_ZTS23TestBinIO_testWriteFile:
 4144 0000 32335465 		.string	"23TestBinIO_testWriteFile"
 4144      73744269 
 4144      6E494F5F 
 4144      74657374 
 4144      57726974 
 4145              		.weak	_ZTI30TestBinIO_testReadExistingFile
 4146              		.section	.data.rel.ro._ZTI30TestBinIO_testReadExistingFile,"awG",@progbits,_ZTI30TestBinIO_testRea
 4147              		.align 8
 4150              	_ZTI30TestBinIO_testReadExistingFile:
 4151 0000 00000000 		.quad	_ZTVN10__cxxabiv120__si_class_type_infoE+16
 4151      00000000 
 4152 0008 00000000 		.quad	_ZTS30TestBinIO_testReadExistingFile
 4152      00000000 
 4153 0010 00000000 		.quad	_ZTIN8UnitTest4TestE
 4153      00000000 
 4154              		.weak	_ZTS30TestBinIO_testReadExistingFile
 4155              		.section	.rodata._ZTS30TestBinIO_testReadExistingFile,"aG",@progbits,_ZTS30TestBinIO_testReadExist
 4156              		.align 32
 4159              	_ZTS30TestBinIO_testReadExistingFile:
 4160 0000 33305465 		.string	"30TestBinIO_testReadExistingFile"
 4160      73744269 
 4160      6E494F5F 
 4160      74657374 
 4160      52656164 
 4161              		.weak	_ZTI33TestBinIO_testReadNonExistentFile
 4162              		.section	.data.rel.ro._ZTI33TestBinIO_testReadNonExistentFile,"awG",@progbits,_ZTI33TestBinIO_test
 4163              		.align 8
 4166              	_ZTI33TestBinIO_testReadNonExistentFile:
 4167 0000 00000000 		.quad	_ZTVN10__cxxabiv120__si_class_type_infoE+16
 4167      00000000 
 4168 0008 00000000 		.quad	_ZTS33TestBinIO_testReadNonExistentFile
 4168      00000000 
 4169 0010 00000000 		.quad	_ZTIN8UnitTest4TestE
 4169      00000000 
 4170              		.weak	_ZTS33TestBinIO_testReadNonExistentFile
 4171              		.section	.rodata._ZTS33TestBinIO_testReadNonExistentFile,"aG",@progbits,_ZTS33TestBinIO_testReadNo
 4172              		.align 32
 4175              	_ZTS33TestBinIO_testReadNonExistentFile:
 4176 0000 33335465 		.string	"33TestBinIO_testReadNonExistentFile"
 4176      73744269 
 4176      6E494F5F 
 4176      74657374 
 4176      52656164 
 4177              		.weak	_ZTIN8UnitTest15MemoryOutStreamE
 4178              		.section	.data.rel.ro._ZTIN8UnitTest15MemoryOutStreamE,"awG",@progbits,_ZTIN8UnitTest15MemoryOutSt
 4179              		.align 8
 4182              	_ZTIN8UnitTest15MemoryOutStreamE:
 4183 0000 00000000 		.quad	_ZTVN10__cxxabiv120__si_class_type_infoE+16
 4183      00000000 
 4184 0008 00000000 		.quad	_ZTSN8UnitTest15MemoryOutStreamE
 4184      00000000 
 4185 0010 00000000 		.quad	_ZTINSt7__cxx1119basic_ostringstreamIcSt11char_traitsIcESaIcEEE
 4185      00000000 
 4186              		.weak	_ZTSN8UnitTest15MemoryOutStreamE
 4187              		.section	.rodata._ZTSN8UnitTest15MemoryOutStreamE,"aG",@progbits,_ZTSN8UnitTest15MemoryOutStreamE,
 4188              		.align 16
 4191              	_ZTSN8UnitTest15MemoryOutStreamE:
 4192 0000 4E38556E 		.string	"N8UnitTest15MemoryOutStreamE"
 4192      69745465 
 4192      73743135 
 4192      4D656D6F 
 4192      72794F75 
 4193              		.text
 4195              	_Z41__static_initialization_and_destruction_0ii:
 4196              	.LFB1371:
 4197              		.loc 4 91 1 is_stmt 1
 4198              		.cfi_startproc
 4199 12bb F30F1EFA 		endbr64
 4200 12bf 55       		pushq	%rbp
 4201              		.cfi_def_cfa_offset 16
 4202              		.cfi_offset 6, -16
 4203 12c0 4889E5   		movq	%rsp, %rbp
 4204              		.cfi_def_cfa_register 6
 4205 12c3 4883EC10 		subq	$16, %rsp
 4206 12c7 897DFC   		movl	%edi, -4(%rbp)
 4207 12ca 8975F8   		movl	%esi, -8(%rbp)
 4208              		.loc 4 91 1
 4209 12cd 837DFC01 		cmpl	$1, -4(%rbp)
 4210 12d1 0F850F01 		jne	.L203
 4210      0000
 4211              		.loc 4 91 1 is_stmt 0 discriminator 1
 4212 12d7 817DF8FF 		cmpl	$65535, -8(%rbp)
 4212      FF0000
 4213 12de 0F850201 		jne	.L203
 4213      0000
  24:testBinIO.cpp **** 	Buffer buf;
 4214              		.loc 4 24 1 is_stmt 1
 4215 12e4 488D0500 		leaq	testBinIO_testReadNonExistentFileInstance(%rip), %rax
 4215      000000
 4216 12eb 4889C7   		movq	%rax, %rdi
 4217 12ee E8000000 		call	_ZN33TestBinIO_testReadNonExistentFileC1Ev
 4217      00
 4218 12f3 488D0500 		leaq	__dso_handle(%rip), %rax
 4218      000000
 4219 12fa 4889C2   		movq	%rax, %rdx
 4220 12fd 488D0500 		leaq	testBinIO_testReadNonExistentFileInstance(%rip), %rax
 4220      000000
 4221 1304 4889C6   		movq	%rax, %rsi
 4222 1307 488D0500 		leaq	_ZN33TestBinIO_testReadNonExistentFileD1Ev(%rip), %rax
 4222      000000
 4223 130e 4889C7   		movq	%rax, %rdi
 4224 1311 E8000000 		call	__cxa_atexit@PLT
 4224      00
 4225 1316 E8000000 		call	_ZN8UnitTest4Test11GetTestListEv@PLT
 4225      00
 4226 131b 4889C1   		movq	%rax, %rcx
 4227 131e 488D0500 		leaq	testBinIO_testReadNonExistentFileInstance(%rip), %rax
 4227      000000
 4228 1325 4889C2   		movq	%rax, %rdx
 4229 1328 4889CE   		movq	%rcx, %rsi
 4230 132b 488D0500 		leaq	adderBinIO_testReadNonExistentFile(%rip), %rax
 4230      000000
 4231 1332 4889C7   		movq	%rax, %rdi
 4232 1335 E8000000 		call	_ZN8UnitTest9ListAdderC1ERNS_8TestListEPNS_4TestE@PLT
 4232      00
  33:testBinIO.cpp **** 	const char *const FILENAME = "tmpFile.bin";
 4233              		.loc 4 33 1
 4234 133a 488D0500 		leaq	testBinIO_testReadExistingFileInstance(%rip), %rax
 4234      000000
 4235 1341 4889C7   		movq	%rax, %rdi
 4236 1344 E8000000 		call	_ZN30TestBinIO_testReadExistingFileC1Ev
 4236      00
 4237 1349 488D0500 		leaq	__dso_handle(%rip), %rax
 4237      000000
 4238 1350 4889C2   		movq	%rax, %rdx
 4239 1353 488D0500 		leaq	testBinIO_testReadExistingFileInstance(%rip), %rax
 4239      000000
 4240 135a 4889C6   		movq	%rax, %rsi
 4241 135d 488D0500 		leaq	_ZN30TestBinIO_testReadExistingFileD1Ev(%rip), %rax
 4241      000000
 4242 1364 4889C7   		movq	%rax, %rdi
 4243 1367 E8000000 		call	__cxa_atexit@PLT
 4243      00
 4244 136c E8000000 		call	_ZN8UnitTest4Test11GetTestListEv@PLT
 4244      00
 4245 1371 4889C1   		movq	%rax, %rcx
 4246 1374 488D0500 		leaq	testBinIO_testReadExistingFileInstance(%rip), %rax
 4246      000000
 4247 137b 4889C2   		movq	%rax, %rdx
 4248 137e 4889CE   		movq	%rcx, %rsi
 4249 1381 488D0500 		leaq	adderBinIO_testReadExistingFile(%rip), %rax
 4249      000000
 4250 1388 4889C7   		movq	%rax, %rdi
 4251 138b E8000000 		call	_ZN8UnitTest9ListAdderC1ERNS_8TestListEPNS_4TestE@PLT
 4251      00
  54:testBinIO.cpp **** 	const char *const FILENAME = "tmpFile.bin";
 4252              		.loc 4 54 1
 4253 1390 488D0500 		leaq	testBinIO_testWriteFileInstance(%rip), %rax
 4253      000000
 4254 1397 4889C7   		movq	%rax, %rdi
 4255 139a E8000000 		call	_ZN23TestBinIO_testWriteFileC1Ev
 4255      00
 4256 139f 488D0500 		leaq	__dso_handle(%rip), %rax
 4256      000000
 4257 13a6 4889C2   		movq	%rax, %rdx
 4258 13a9 488D0500 		leaq	testBinIO_testWriteFileInstance(%rip), %rax
 4258      000000
 4259 13b0 4889C6   		movq	%rax, %rsi
 4260 13b3 488D0500 		leaq	_ZN23TestBinIO_testWriteFileD1Ev(%rip), %rax
 4260      000000
 4261 13ba 4889C7   		movq	%rax, %rdi
 4262 13bd E8000000 		call	__cxa_atexit@PLT
 4262      00
 4263 13c2 E8000000 		call	_ZN8UnitTest4Test11GetTestListEv@PLT
 4263      00
 4264 13c7 4889C1   		movq	%rax, %rcx
 4265 13ca 488D0500 		leaq	testBinIO_testWriteFileInstance(%rip), %rax
 4265      000000
 4266 13d1 4889C2   		movq	%rax, %rdx
 4267 13d4 4889CE   		movq	%rcx, %rsi
 4268 13d7 488D0500 		leaq	adderBinIO_testWriteFile(%rip), %rax
 4268      000000
 4269 13de 4889C7   		movq	%rax, %rdi
 4270 13e1 E8000000 		call	_ZN8UnitTest9ListAdderC1ERNS_8TestListEPNS_4TestE@PLT
 4270      00
 4271              	.L203:
 4272              		.loc 4 91 1
 4273 13e6 90       		nop
 4274 13e7 C9       		leave
 4275              		.cfi_def_cfa 7, 8
 4276 13e8 C3       		ret
 4277              		.cfi_endproc
 4278              	.LFE1371:
 4281              	_GLOBAL__sub_I_testBinIO_testReadNonExistentFileInstance:
 4282              	.LFB1372:
 4283              		.loc 4 91 1
 4284              		.cfi_startproc
 4285 13e9 F30F1EFA 		endbr64
 4286 13ed 55       		pushq	%rbp
 4287              		.cfi_def_cfa_offset 16
 4288              		.cfi_offset 6, -16
 4289 13ee 4889E5   		movq	%rsp, %rbp
 4290              		.cfi_def_cfa_register 6
 4291              		.loc 4 91 1
 4292 13f1 BEFFFF00 		movl	$65535, %esi
 4292      00
 4293 13f6 BF010000 		movl	$1, %edi
 4293      00
 4294 13fb E8BBFEFF 		call	_Z41__static_initialization_and_destruction_0ii
 4294      FF
 4295 1400 5D       		popq	%rbp
 4296              		.cfi_def_cfa 7, 8
 4297 1401 C3       		ret
 4298              		.cfi_endproc
 4299              	.LFE1372:
 4301              		.section	.init_array,"aw"
 4302              		.align 8
 4303 0000 00000000 		.quad	_GLOBAL__sub_I_testBinIO_testReadNonExistentFileInstance
 4303      00000000 
 4304              		.text
 4305              	.Letext0:
 4306              		.file 7 "<built-in>"
 4307              		.file 8 "/usr/lib/gcc/x86_64-linux-gnu/12/include/stddef.h"
 4308              		.file 9 "/usr/include/x86_64-linux-gnu/bits/types/wint_t.h"
 4309              		.file 10 "/usr/include/x86_64-linux-gnu/bits/types/__mbstate_t.h"
 4310              		.file 11 "/usr/include/x86_64-linux-gnu/bits/types/mbstate_t.h"
 4311              		.file 12 "/usr/include/x86_64-linux-gnu/bits/types/__FILE.h"
 4312              		.file 13 "/usr/include/x86_64-linux-gnu/bits/types/struct_FILE.h"
 4313              		.file 14 "/usr/include/x86_64-linux-gnu/bits/types/FILE.h"
 4314              		.file 15 "/usr/include/c++/12/cwchar"
 4315              		.file 16 "/usr/include/c++/12/bits/char_traits.h"
 4316              		.file 17 "/usr/include/x86_64-linux-gnu/c++/12/bits/c++config.h"
 4317              		.file 18 "/usr/include/c++/12/clocale"
 4318              		.file 19 "/usr/include/c++/12/bits/new_allocator.h"
 4319              		.file 20 "/usr/include/c++/12/bits/allocator.h"
 4320              		.file 21 "/usr/include/c++/12/bits/basic_string.h"
 4321              		.file 22 "/usr/include/c++/12/bits/basic_string.tcc"
 4322              		.file 23 "/usr/include/c++/12/sstream"
 4323              		.file 24 "/usr/include/c++/12/bits/stringfwd.h"
 4324              		.file 25 "/usr/include/c++/12/cwctype"
 4325              		.file 26 "/usr/include/c++/12/bits/ostream.tcc"
 4326              		.file 27 "/usr/include/c++/12/ostream"
 4327              		.file 28 "/usr/include/c++/12/istream"
 4328              		.file 29 "/usr/include/c++/12/cstdio"
 4329              		.file 30 "/usr/include/c++/12/fstream"
 4330              		.file 31 "/usr/include/c++/12/bits/basic_ios.h"
 4331              		.file 32 "/usr/include/c++/12/iosfwd"
 4332              		.file 33 "/usr/include/wchar.h"
 4333              		.file 34 "/usr/include/x86_64-linux-gnu/bits/types/struct_tm.h"
 4334              		.file 35 "/usr/include/c++/12/debug/debug.h"
 4335              		.file 36 "/usr/include/c++/12/bits/predefined_ops.h"
 4336              		.file 37 "/usr/include/c++/12/ext/alloc_traits.h"
 4337              		.file 38 "/usr/include/locale.h"
 4338              		.file 39 "/usr/include/x86_64-linux-gnu/bits/types.h"
 4339              		.file 40 "/usr/include/x86_64-linux-gnu/bits/wctype-wchar.h"
 4340              		.file 41 "/usr/include/wctype.h"
 4341              		.file 42 "/usr/include/x86_64-linux-gnu/bits/types/__fpos_t.h"
 4342              		.file 43 "/usr/include/stdio.h"
 4343              		.file 44 "/home/asoreyh/Dropbox/projects/lago/acqua/nexys/src/makestuff/libs/libutpp/TestDetails.h
 4344              		.file 45 "/home/asoreyh/Dropbox/projects/lago/acqua/nexys/src/makestuff/libs/libutpp/TestList.h"
 4345              		.file 46 "/home/asoreyh/Dropbox/projects/lago/acqua/nexys/src/makestuff/libs/libutpp/Test.h"
 4346              		.file 47 "/home/asoreyh/Dropbox/projects/lago/acqua/nexys/src/makestuff/libs/libutpp/TestResults.h
 4347              		.file 48 "/home/asoreyh/Dropbox/projects/lago/acqua/nexys/src/makestuff/libs/libutpp/CurrentTest.h
 4348              		.file 49 "/home/asoreyh/Dropbox/projects/lago/acqua/nexys/src/makestuff/common/makestuff.h"
 4349              		.file 50 "../libbuffer.h"
 4350              		.file 51 "/usr/include/c++/12/new"
 17931              		.align 8
 17934              	DW.ref.__gxx_personality_v0:
 17935 0000 00000000 		.quad	__gxx_personality_v0
 17935      00000000 
 17936              		.hidden	__dso_handle
 17937              		.ident	"GCC: (Ubuntu 12.2.0-17ubuntu1) 12.2.0"
 17938              		.section	.note.GNU-stack,"",@progbits
 17939              		.section	.note.gnu.property,"a"
 17940              		.align 8
 17941 0000 04000000 		.long	1f - 0f
 17942 0004 10000000 		.long	4f - 1f
 17943 0008 05000000 		.long	5
 17944              	0:
 17945 000c 474E5500 		.string	"GNU"
 17946              	1:
 17947              		.align 8
 17948 0010 020000C0 		.long	0xc0000002
 17949 0014 04000000 		.long	3f - 2f
 17950              	2:
 17951 0018 03000000 		.long	0x3
 17952              	3:
 17953 001c 00000000 		.align 8
 17954              	4:
DEFINED SYMBOLS
                            *ABS*:0000000000000000 testBinIO.cpp
     /tmp/cc6DVTyh.s:8      .text._ZStorSt13_Ios_OpenmodeS_:0000000000000000 _ZStorSt13_Ios_OpenmodeS_
     /tmp/cc6DVTyh.s:37     .text._ZN13UnitTestSuite12GetSuiteNameEv:0000000000000000 _ZN13UnitTestSuite12GetSuiteNameEv
     /tmp/cc6DVTyh.s:61     .text._ZN8UnitTest15MemoryOutStreamC1Ev:0000000000000000 _ZN8UnitTest15MemoryOutStreamC1Ev
     /tmp/cc6DVTyh.s:17934  .data.rel.local.DW.ref.__gxx_personality_v0:0000000000000000 DW.ref.__gxx_personality_v0
     /tmp/cc6DVTyh.s:4088   .data.rel.ro.local._ZTTN8UnitTest15MemoryOutStreamE:0000000000000000 _ZTTN8UnitTest15MemoryOutStreamE
     /tmp/cc6DVTyh.s:4072   .data.rel.ro.local._ZTVN8UnitTest15MemoryOutStreamE:0000000000000000 _ZTVN8UnitTest15MemoryOutStreamE
     /tmp/cc6DVTyh.s:179    .text._ZN33TestBinIO_testReadNonExistentFileC2Ev:0000000000000000 _ZN33TestBinIO_testReadNonExistentFileC2Ev
     /tmp/cc6DVTyh.s:3959   .data.rel.ro.local._ZTV33TestBinIO_testReadNonExistentFile:0000000000000000 _ZTV33TestBinIO_testReadNonExistentFile
     /tmp/cc6DVTyh.s:179    .text._ZN33TestBinIO_testReadNonExistentFileC2Ev:0000000000000000 _ZN33TestBinIO_testReadNonExistentFileC1Ev
     /tmp/cc6DVTyh.s:225    .bss:0000000000000000 testBinIO_testReadNonExistentFileInstance
     /tmp/cc6DVTyh.s:230    .bss:0000000000000038 adderBinIO_testReadNonExistentFile
     /tmp/cc6DVTyh.s:245    .text:0000000000000000 _ZNK33TestBinIO_testReadNonExistentFile7RunImplEv
     /tmp/cc6DVTyh.s:2538   .text._ZN8UnitTest10CheckEqualI12BufferStatusS1_EEvRNS_11TestResultsERKT_RKT0_RKNS_11TestDetailsE:0000000000000000 _ZN8UnitTest10CheckEqualI12BufferStatusS1_EEvRNS_11TestResultsERKT_RKT0_RKNS_11TestDetailsE
     /tmp/cc6DVTyh.s:497    .text._ZN30TestBinIO_testReadExistingFileC2Ev:0000000000000000 _ZN30TestBinIO_testReadExistingFileC2Ev
     /tmp/cc6DVTyh.s:3846   .data.rel.ro.local._ZTV30TestBinIO_testReadExistingFile:0000000000000000 _ZTV30TestBinIO_testReadExistingFile
     /tmp/cc6DVTyh.s:497    .text._ZN30TestBinIO_testReadExistingFileC2Ev:0000000000000000 _ZN30TestBinIO_testReadExistingFileC1Ev
     /tmp/cc6DVTyh.s:542    .bss:0000000000000040 testBinIO_testReadExistingFileInstance
     /tmp/cc6DVTyh.s:547    .bss:0000000000000078 adderBinIO_testReadExistingFile
     /tmp/cc6DVTyh.s:570    .text:00000000000001d8 _ZNK30TestBinIO_testReadExistingFile7RunImplEv
     /tmp/cc6DVTyh.s:2686   .text._ZN8UnitTest10CheckEqualImjEEvRNS_11TestResultsERKT_RKT0_RKNS_11TestDetailsE:0000000000000000 _ZN8UnitTest10CheckEqualImjEEvRNS_11TestResultsERKT_RKT0_RKNS_11TestDetailsE
     /tmp/cc6DVTyh.s:2844   .text._ZN8UnitTest15CheckArrayEqualIPKcPhEEvRNS_11TestResultsERKT_RKT0_iRKNS_11TestDetailsE:0000000000000000 _ZN8UnitTest15CheckArrayEqualIPKcPhEEvRNS_11TestResultsERKT_RKT0_iRKNS_11TestDetailsE
     /tmp/cc6DVTyh.s:1232   .text._ZN23TestBinIO_testWriteFileC2Ev:0000000000000000 _ZN23TestBinIO_testWriteFileC2Ev
     /tmp/cc6DVTyh.s:3733   .data.rel.ro.local._ZTV23TestBinIO_testWriteFile:0000000000000000 _ZTV23TestBinIO_testWriteFile
     /tmp/cc6DVTyh.s:1232   .text._ZN23TestBinIO_testWriteFileC2Ev:0000000000000000 _ZN23TestBinIO_testWriteFileC1Ev
     /tmp/cc6DVTyh.s:1277   .bss:0000000000000080 testBinIO_testWriteFileInstance
     /tmp/cc6DVTyh.s:1282   .bss:00000000000000b8 adderBinIO_testWriteFile
     /tmp/cc6DVTyh.s:1306   .text:0000000000000860 _ZNK23TestBinIO_testWriteFile7RunImplEv
     /tmp/cc6DVTyh.s:3097   .text._ZNSt4fposI11__mbstate_tEC2Ev:0000000000000000 _ZNSt4fposI11__mbstate_tEC1Ev
     /tmp/cc6DVTyh.s:3132   .text._ZN8UnitTest5CheckIbEEbT_:0000000000000000 _ZN8UnitTest5CheckIbEEbT_
     /tmp/cc6DVTyh.s:3157   .text._ZNKSt4fposI11__mbstate_tEcvlEv:0000000000000000 _ZNKSt4fposI11__mbstate_tEcvlEv
     /tmp/cc6DVTyh.s:3181   .text._ZN8UnitTest10CheckEqualImmEEvRNS_11TestResultsERKT_RKT0_RKNS_11TestDetailsE:0000000000000000 _ZN8UnitTest10CheckEqualImmEEvRNS_11TestResultsERKT_RKT0_RKNS_11TestDetailsE
     /tmp/cc6DVTyh.s:3329   .text._ZN8UnitTest15CheckArrayEqualIPKcPcEEvRNS_11TestResultsERKT_RKT0_iRKNS_11TestDetailsE:0000000000000000 _ZN8UnitTest15CheckArrayEqualIPKcPcEEvRNS_11TestResultsERKT_RKT0_iRKNS_11TestDetailsE
     /tmp/cc6DVTyh.s:3579   .text._ZN8UnitTest10CheckEqualIiSt4fposI11__mbstate_tEEEvRNS_11TestResultsERKT_RKT0_RKNS_11TestDetailsE:0000000000000000 _ZN8UnitTest10CheckEqualIiSt4fposI11__mbstate_tEEEvRNS_11TestResultsERKT_RKT0_RKNS_11TestDetailsE
     /tmp/cc6DVTyh.s:2326   .text._ZN8UnitTest15MemoryOutStreamD1Ev:0000000000000000 _ZN8UnitTest15MemoryOutStreamD1Ev
     /tmp/cc6DVTyh.s:2437   .text._ZN8UnitTest15MemoryOutStreamD1Ev:00000000000000b6 _ZTv0_n24_N8UnitTest15MemoryOutStreamD1Ev
     /tmp/cc6DVTyh.s:2452   .text._ZN8UnitTest15MemoryOutStreamD0Ev:0000000000000000 _ZN8UnitTest15MemoryOutStreamD0Ev
     /tmp/cc6DVTyh.s:2519   .text._ZN8UnitTest15MemoryOutStreamD0Ev:000000000000004f _ZTv0_n24_N8UnitTest15MemoryOutStreamD0Ev
     /tmp/cc6DVTyh.s:3097   .text._ZNSt4fposI11__mbstate_tEC2Ev:0000000000000000 _ZNSt4fposI11__mbstate_tEC2Ev
     /tmp/cc6DVTyh.s:4134   .data.rel.ro._ZTI23TestBinIO_testWriteFile:0000000000000000 _ZTI23TestBinIO_testWriteFile
     /tmp/cc6DVTyh.s:3743   .text._ZN23TestBinIO_testWriteFileD2Ev:0000000000000000 _ZN23TestBinIO_testWriteFileD1Ev
     /tmp/cc6DVTyh.s:3777   .text._ZN23TestBinIO_testWriteFileD0Ev:0000000000000000 _ZN23TestBinIO_testWriteFileD0Ev
     /tmp/cc6DVTyh.s:3743   .text._ZN23TestBinIO_testWriteFileD2Ev:0000000000000000 _ZN23TestBinIO_testWriteFileD2Ev
     /tmp/cc6DVTyh.s:4150   .data.rel.ro._ZTI30TestBinIO_testReadExistingFile:0000000000000000 _ZTI30TestBinIO_testReadExistingFile
     /tmp/cc6DVTyh.s:3856   .text._ZN30TestBinIO_testReadExistingFileD2Ev:0000000000000000 _ZN30TestBinIO_testReadExistingFileD1Ev
     /tmp/cc6DVTyh.s:3890   .text._ZN30TestBinIO_testReadExistingFileD0Ev:0000000000000000 _ZN30TestBinIO_testReadExistingFileD0Ev
     /tmp/cc6DVTyh.s:3856   .text._ZN30TestBinIO_testReadExistingFileD2Ev:0000000000000000 _ZN30TestBinIO_testReadExistingFileD2Ev
     /tmp/cc6DVTyh.s:4166   .data.rel.ro._ZTI33TestBinIO_testReadNonExistentFile:0000000000000000 _ZTI33TestBinIO_testReadNonExistentFile
     /tmp/cc6DVTyh.s:3969   .text._ZN33TestBinIO_testReadNonExistentFileD2Ev:0000000000000000 _ZN33TestBinIO_testReadNonExistentFileD1Ev
     /tmp/cc6DVTyh.s:4003   .text._ZN33TestBinIO_testReadNonExistentFileD0Ev:0000000000000000 _ZN33TestBinIO_testReadNonExistentFileD0Ev
     /tmp/cc6DVTyh.s:3969   .text._ZN33TestBinIO_testReadNonExistentFileD2Ev:0000000000000000 _ZN33TestBinIO_testReadNonExistentFileD2Ev
     /tmp/cc6DVTyh.s:4182   .data.rel.ro._ZTIN8UnitTest15MemoryOutStreamE:0000000000000000 _ZTIN8UnitTest15MemoryOutStreamE
     /tmp/cc6DVTyh.s:4101   .data.rel.ro._ZTCN8UnitTest15MemoryOutStreamE0_NSt7__cxx1119basic_ostringstreamIcSt11char_traitsIcESaIcEEE:0000000000000000 _ZTCN8UnitTest15MemoryOutStreamE0_NSt7__cxx1119basic_ostringstreamIcSt11char_traitsIcESaIcEEE
     /tmp/cc6DVTyh.s:4118   .data.rel.ro._ZTCN8UnitTest15MemoryOutStreamE0_So:0000000000000000 _ZTCN8UnitTest15MemoryOutStreamE0_So
     /tmp/cc6DVTyh.s:4143   .rodata._ZTS23TestBinIO_testWriteFile:0000000000000000 _ZTS23TestBinIO_testWriteFile
     /tmp/cc6DVTyh.s:4159   .rodata._ZTS30TestBinIO_testReadExistingFile:0000000000000000 _ZTS30TestBinIO_testReadExistingFile
     /tmp/cc6DVTyh.s:4175   .rodata._ZTS33TestBinIO_testReadNonExistentFile:0000000000000000 _ZTS33TestBinIO_testReadNonExistentFile
     /tmp/cc6DVTyh.s:4191   .rodata._ZTSN8UnitTest15MemoryOutStreamE:0000000000000000 _ZTSN8UnitTest15MemoryOutStreamE
     /tmp/cc6DVTyh.s:4195   .text:00000000000012bb _Z41__static_initialization_and_destruction_0ii
     /tmp/cc6DVTyh.s:4281   .text:00000000000013e9 _GLOBAL__sub_I_testBinIO_testReadNonExistentFileInstance
                           .group:0000000000000000 _ZN33TestBinIO_testReadNonExistentFileC5Ev
                           .group:0000000000000000 _ZN30TestBinIO_testReadExistingFileC5Ev
                           .group:0000000000000000 _ZN23TestBinIO_testWriteFileC5Ev
                           .group:0000000000000000 _ZNSt4fposI11__mbstate_tEC5Ev
                           .group:0000000000000000 _ZN23TestBinIO_testWriteFileD5Ev
                           .group:0000000000000000 _ZN30TestBinIO_testReadExistingFileD5Ev
                           .group:0000000000000000 _ZN33TestBinIO_testReadNonExistentFileD5Ev

UNDEFINED SYMBOLS
_ZNSt9basic_iosIcSt11char_traitsIcEEC2Ev
_ZNSt7__cxx1119basic_ostringstreamIcSt11char_traitsIcESaIcEEC2Ev
_ZNSt7__cxx1112basic_stringIcSt11char_traitsIcESaIcEEC1Ev
_ZNSt7__cxx1119basic_ostringstreamIcSt11char_traitsIcESaIcEED2Ev
_ZNSt9basic_iosIcSt11char_traitsIcEED2Ev
_Unwind_Resume
__gxx_personality_v0
_ZN8UnitTest4TestC2EPKcS2_S2_i
bufInitialise
_ZN8UnitTest11CurrentTest7DetailsEv
_ZN8UnitTest11TestDetailsC1ERKS0_i
_ZN8UnitTest11CurrentTest7ResultsEv
bufAppendFromBinaryFile
bufDestroy
__cxa_begin_catch
_ZN8UnitTest11TestResults13OnTestFailureERKNS_11TestDetailsEPKc
__cxa_end_catch
__stack_chk_fail
_ZNSt14basic_ofstreamIcSt11char_traitsIcEEC1Ev
_ZNSt14basic_ofstreamIcSt11char_traitsIcEE4openEPKcSt13_Ios_Openmode
_ZStlsISt11char_traitsIcEERSt13basic_ostreamIcT_ES5_PKc
_ZNSt14basic_ofstreamIcSt11char_traitsIcEE5closeEv
_ZNSt14basic_ofstreamIcSt11char_traitsIcEED1Ev
_ZNSt14basic_ifstreamIcSt11char_traitsIcEEC1Ev
bufAppendBlock
bufWriteBinaryFile
_ZNSt14basic_ifstreamIcSt11char_traitsIcEE4openEPKcSt13_Ios_Openmode
_ZNSt14basic_ifstreamIcSt11char_traitsIcEE7is_openEv
_ZNSi5tellgEv
_Znam
_ZNSi5seekgElSt12_Ios_Seekdir
_ZNSi4readEPcl
_ZNSt14basic_ifstreamIcSt11char_traitsIcEE5closeEv
_ZdaPv
_ZNSt14basic_ifstreamIcSt11char_traitsIcEED1Ev
_ZNSt7__cxx1112basic_stringIcSt11char_traitsIcESaIcEED1Ev
_ZdlPv
_ZNSolsEi
_ZNK8UnitTest15MemoryOutStream7GetTextEv
_ZNSolsEm
_ZNSolsEj
_ZStlsISt11char_traitsIcEERSt13basic_ostreamIcT_ES5_c
_ZStlsISt11char_traitsIcEERSt13basic_ostreamIcT_ES5_h
_ZNSolsEl
_ZN8UnitTest4TestD2Ev
_ZTINSt7__cxx1119basic_ostringstreamIcSt11char_traitsIcESaIcEEE
_ZTISo
_ZTVN10__cxxabiv120__si_class_type_infoE
_ZTIN8UnitTest4TestE
__dso_handle
__cxa_atexit
_ZN8UnitTest4Test11GetTestListEv
_ZN8UnitTest9ListAdderC1ERNS_8TestListEPNS_4TestE
