   1              		.file	"printConfig.c"
   2              		.section	.rodata.str1.1,"aMS",@progbits,1
   3              	.LC0:
   4 0000 4661696C 		.string	"Failed to get descriptor: %s\n"
   4      65642074 
   4      6F206765 
   4      74206465 
   4      73637269 
   5              		.section	.rodata.str1.8,"aMS",@progbits,1
   6              		.align 8
   7              	.LC1:
   8 0000 636F6E66 		.string	"configDescriptor {\n    bLength = 0x%02X\n    bDescriptorType = 0x%02X\n    wTotalLength 
   8      69674465 
   8      73637269 
   8      70746F72 
   8      207B0A20 
   9              		.section	.rodata.str1.1
  10              	.LC2:
  11 001e 7D0A00   		.string	"}\n"
  12              		.section	.rodata.str1.8
  13 00e9 00000000 		.align 8
  13      000000
  14              	.LC3:
  15 00f0 20202020 		.ascii	"    interfaceDescriptor {\n        bLength = 0x%02X\n       "
  15      696E7465 
  15      72666163 
  15      65446573 
  15      63726970 
  16 012a 206244   		.ascii	" bD"
  17 012d 65736372 		.string	"escriptorType = 0x%02X\n        bInterfaceNumber = 0x%02X\n        bAlternateSetting = 0x
  17      6970746F 
  17      72547970 
  17      65203D20 
  17      30782530 
  18 022e 0000     		.align 8
  19              	.LC4:
  20 0230 20202020 		.ascii	"        endpointDescriptor {\n            bLength = 0x"
  20      20202020 
  20      656E6470 
  20      6F696E74 
  20      44657363 
  21 0265 25303258 		.string	"%02X\n            bDescriptorType = 0x%02X\n            bEndpointAddress = 0x%02X\n      
  21      0A202020 
  21      20202020 
  21      20202020 
  21      20624465 
  22              		.section	.rodata.str1.1
  23              	.LC5:
  24 0021 20202020 		.string	"    }\n"
  24      7D0A00
  25              		.section	.text.unlikely,"ax",@progbits
  26              	.LCOLDB6:
  27              		.text
  28              	.LHOTB6:
  29              		.p2align 4,,15
  30              		.globl	usbPrintConfiguration
  32              	usbPrintConfiguration:
  33              	.LFB35:
  34              		.cfi_startproc
  35 0000 4155     		pushq	%r13
  36              		.cfi_def_cfa_offset 16
  37              		.cfi_offset 13, -16
  38 0002 4154     		pushq	%r12
  39              		.cfi_def_cfa_offset 24
  40              		.cfi_offset 12, -24
  41 0004 4531C0   		xorl	%r8d, %r8d
  42 0007 55       		pushq	%rbp
  43              		.cfi_def_cfa_offset 32
  44              		.cfi_offset 6, -32
  45 0008 53       		pushq	%rbx
  46              		.cfi_def_cfa_offset 40
  47              		.cfi_offset 3, -40
  48 0009 B9000200 		movl	$512, %ecx
  48      00
  49 000e 4989F4   		movq	%rsi, %r12
  50 0011 4889D5   		movq	%rdx, %rbp
  51 0014 BE800000 		movl	$128, %esi
  51      00
  52 0019 4881EC18 		subq	$1048, %rsp
  52      040000
  53              		.cfi_def_cfa_offset 1088
  54 0020 BA060000 		movl	$6, %edx
  54      00
  55 0025 64488B04 		movq	%fs:40, %rax
  55      25280000 
  55      00
  56 002e 48898424 		movq	%rax, 1032(%rsp)
  56      08040000 
  57 0036 31C0     		xorl	%eax, %eax
  58 0038 4889E3   		movq	%rsp, %rbx
  59 003b 68881300 		pushq	$5000
  59      00
  60              		.cfi_def_cfa_offset 1096
  61 0040 68000100 		pushq	$256
  61      00
  62              		.cfi_def_cfa_offset 1104
  63 0045 4989D9   		movq	%rbx, %r9
  64 0048 E8000000 		call	usb_control_msg@PLT
  64      00
  65 004d 85C0     		testl	%eax, %eax
  66 004f 5A       		popq	%rdx
  67              		.cfi_def_cfa_offset 1096
  68 0050 59       		popq	%rcx
  69              		.cfi_def_cfa_offset 1088
  70 0051 0F8E7201 		jle	.L16
  70      0000
  71 0057 4883EC08 		subq	$8, %rsp
  72              		.cfi_def_cfa_offset 1096
  73 005b 488D1500 		leaq	.LC1(%rip), %rdx
  73      000000
  74 0062 BE010000 		movl	$1, %esi
  74      00
  75 0067 0FB64424 		movzbl	16(%rsp), %eax
  75      10
  76 006c 0FB64C24 		movzbl	8(%rsp), %ecx
  76      08
  77 0071 4C89E7   		movq	%r12, %rdi
  78 0074 50       		pushq	%rax
  79              		.cfi_def_cfa_offset 1104
  80 0075 0FB64424 		movzbl	23(%rsp), %eax
  80      17
  81 007a 50       		pushq	%rax
  82              		.cfi_def_cfa_offset 1112
  83 007b 0FB64424 		movzbl	30(%rsp), %eax
  83      1E
  84 0080 50       		pushq	%rax
  85              		.cfi_def_cfa_offset 1120
  86 0081 0FB64424 		movzbl	37(%rsp), %eax
  86      25
  87 0086 50       		pushq	%rax
  88              		.cfi_def_cfa_offset 1128
  89 0087 0FB64424 		movzbl	44(%rsp), %eax
  89      2C
  90 008c 50       		pushq	%rax
  91              		.cfi_def_cfa_offset 1136
  92 008d 440FB74C 		movzwl	50(%rsp), %r9d
  92      2432
  93 0093 31C0     		xorl	%eax, %eax
  94 0095 440FB644 		movzbl	49(%rsp), %r8d
  94      2431
  95 009b E8000000 		call	__fprintf_chk@PLT
  95      00
  96 00a0 0FB64424 		movzbl	48(%rsp), %eax
  96      30
  97 00a5 4883C430 		addq	$48, %rsp
  98              		.cfi_def_cfa_offset 1088
  99 00a9 440FB66C 		movzbl	4(%rsp), %r13d
  99      2404
 100 00af 4801C3   		addq	%rax, %rbx
 101 00b2 4584ED   		testb	%r13b, %r13b
 102 00b5 0F84D500 		je	.L8
 102      0000
 103 00bb 0F1F4400 		.p2align 4,,10
 103      00
 104              		.p2align 3
 105              	.L11:
 106 00c0 0FB64308 		movzbl	8(%rbx), %eax
 107 00c4 0FB60B   		movzbl	(%rbx), %ecx
 108 00c7 488D1500 		leaq	.LC3(%rip), %rdx
 108      000000
 109 00ce BE010000 		movl	$1, %esi
 109      00
 110 00d3 4C89E7   		movq	%r12, %rdi
 111 00d6 50       		pushq	%rax
 112              		.cfi_def_cfa_offset 1096
 113 00d7 0FB64307 		movzbl	7(%rbx), %eax
 114 00db 50       		pushq	%rax
 115              		.cfi_def_cfa_offset 1104
 116 00dc 0FB64306 		movzbl	6(%rbx), %eax
 117 00e0 50       		pushq	%rax
 118              		.cfi_def_cfa_offset 1112
 119 00e1 0FB64305 		movzbl	5(%rbx), %eax
 120 00e5 50       		pushq	%rax
 121              		.cfi_def_cfa_offset 1120
 122 00e6 0FB64304 		movzbl	4(%rbx), %eax
 123 00ea 50       		pushq	%rax
 124              		.cfi_def_cfa_offset 1128
 125 00eb 0FB64303 		movzbl	3(%rbx), %eax
 126 00ef 50       		pushq	%rax
 127              		.cfi_def_cfa_offset 1136
 128 00f0 440FB64B 		movzbl	2(%rbx), %r9d
 128      02
 129 00f5 31C0     		xorl	%eax, %eax
 130 00f7 440FB643 		movzbl	1(%rbx), %r8d
 130      01
 131 00fc E8000000 		call	__fprintf_chk@PLT
 131      00
 132 0101 0FB603   		movzbl	(%rbx), %eax
 133 0104 0FB66B04 		movzbl	4(%rbx), %ebp
 134 0108 4883C430 		addq	$48, %rsp
 135              		.cfi_def_cfa_offset 1088
 136 010c 4801D8   		addq	%rbx, %rax
 137 010f 4084ED   		testb	%bpl, %bpl
 138 0112 4889C3   		movq	%rax, %rbx
 139 0115 7459     		je	.L5
 140 0117 660F1F84 		.p2align 4,,10
 140      00000000 
 140      00
 141              		.p2align 3
 142              	.L6:
 143 0120 0FB64308 		movzbl	8(%rbx), %eax
 144 0124 4883EC08 		subq	$8, %rsp
 145              		.cfi_def_cfa_offset 1096
 146 0128 0FB60B   		movzbl	(%rbx), %ecx
 147 012b 488D1500 		leaq	.LC4(%rip), %rdx
 147      000000
 148 0132 BE010000 		movl	$1, %esi
 148      00
 149 0137 4C89E7   		movq	%r12, %rdi
 150 013a 50       		pushq	%rax
 151              		.cfi_def_cfa_offset 1104
 152 013b 0FB64307 		movzbl	7(%rbx), %eax
 153 013f 50       		pushq	%rax
 154              		.cfi_def_cfa_offset 1112
 155 0140 0FB64306 		movzbl	6(%rbx), %eax
 156 0144 50       		pushq	%rax
 157              		.cfi_def_cfa_offset 1120
 158 0145 0FB74304 		movzwl	4(%rbx), %eax
 159 0149 50       		pushq	%rax
 160              		.cfi_def_cfa_offset 1128
 161 014a 0FB64303 		movzbl	3(%rbx), %eax
 162 014e 50       		pushq	%rax
 163              		.cfi_def_cfa_offset 1136
 164 014f 440FB64B 		movzbl	2(%rbx), %r9d
 164      02
 165 0154 31C0     		xorl	%eax, %eax
 166 0156 440FB643 		movzbl	1(%rbx), %r8d
 166      01
 167 015b E8000000 		call	__fprintf_chk@PLT
 167      00
 168 0160 0FB603   		movzbl	(%rbx), %eax
 169 0163 4883C430 		addq	$48, %rsp
 170              		.cfi_def_cfa_offset 1088
 171 0167 4801C3   		addq	%rax, %rbx
 172 016a 4080ED01 		subb	$1, %bpl
 173 016e 75B0     		jne	.L6
 174              	.L5:
 175 0170 488D1500 		leaq	.LC5(%rip), %rdx
 175      000000
 176 0177 31C0     		xorl	%eax, %eax
 177 0179 BE010000 		movl	$1, %esi
 177      00
 178 017e 4C89E7   		movq	%r12, %rdi
 179 0181 E8000000 		call	__fprintf_chk@PLT
 179      00
 180 0186 4180ED01 		subb	$1, %r13b
 181 018a 0F8530FF 		jne	.L11
 181      FFFF
 182              	.L8:
 183 0190 488D1500 		leaq	.LC2(%rip), %rdx
 183      000000
 184 0197 BE010000 		movl	$1, %esi
 184      00
 185 019c 4C89E7   		movq	%r12, %rdi
 186 019f 31C0     		xorl	%eax, %eax
 187 01a1 E8000000 		call	__fprintf_chk@PLT
 187      00
 188 01a6 31C0     		xorl	%eax, %eax
 189              	.L3:
 190 01a8 488B9424 		movq	1032(%rsp), %rdx
 190      08040000 
 191 01b0 64483314 		xorq	%fs:40, %rdx
 191      25280000 
 191      00
 192 01b9 752E     		jne	.L17
 193 01bb 4881C418 		addq	$1048, %rsp
 193      040000
 194              		.cfi_remember_state
 195              		.cfi_def_cfa_offset 40
 196 01c2 5B       		popq	%rbx
 197              		.cfi_def_cfa_offset 32
 198 01c3 5D       		popq	%rbp
 199              		.cfi_def_cfa_offset 24
 200 01c4 415C     		popq	%r12
 201              		.cfi_def_cfa_offset 16
 202 01c6 415D     		popq	%r13
 203              		.cfi_def_cfa_offset 8
 204 01c8 C3       		ret
 205              	.L16:
 206              		.cfi_restore_state
 207 01c9 E8000000 		call	usb_strerror@PLT
 207      00
 208 01ce 488D3500 		leaq	.LC0(%rip), %rsi
 208      000000
 209 01d5 4889C2   		movq	%rax, %rdx
 210 01d8 4889EF   		movq	%rbp, %rdi
 211 01db 31C0     		xorl	%eax, %eax
 212 01dd E8000000 		call	errRender@PLT
 212      00
 213 01e2 B8080000 		movl	$8, %eax
 213      00
 214 01e7 EBBF     		jmp	.L3
 215              	.L17:
 216 01e9 E8000000 		call	__stack_chk_fail@PLT
 216      00
 217              		.cfi_endproc
 218              	.LFE35:
 220              		.section	.text.unlikely
 221              	.LCOLDE6:
 222              		.text
 223              	.LHOTE6:
 224              		.ident	"GCC: (Ubuntu 4.9.2-10ubuntu13) 4.9.2"
 225              		.section	.note.GNU-stack,"",@progbits
DEFINED SYMBOLS
                            *ABS*:0000000000000000 printConfig.c
     /tmp/ccPvyN5F.s:32     .text:0000000000000000 usbPrintConfiguration
     /tmp/ccPvyN5F.s:7      .rodata.str1.8:0000000000000000 .LC1
     /tmp/ccPvyN5F.s:14     .rodata.str1.8:00000000000000f0 .LC3
     /tmp/ccPvyN5F.s:19     .rodata.str1.8:0000000000000230 .LC4
     /tmp/ccPvyN5F.s:23     .rodata.str1.1:0000000000000021 .LC5
     /tmp/ccPvyN5F.s:10     .rodata.str1.1:000000000000001e .LC2
     /tmp/ccPvyN5F.s:3      .rodata.str1.1:0000000000000000 .LC0

UNDEFINED SYMBOLS
_GLOBAL_OFFSET_TABLE_
usb_control_msg
__fprintf_chk
usb_strerror
errRender
__stack_chk_fail
