   1              		.file	"TestUnitTest++.cpp"
   2              		.text
   3              	.Ltext0:
   4              		.section	.rodata
   5              	.LC0:
   6 0000 44656661 		.string	"DefaultSuite"
   6      756C7453 
   6      75697465 
   6      00
   7              		.section	.text._ZN13UnitTestSuite12GetSuiteNameEv,"axG",@progbits,_ZN13UnitTestSuite12GetSuiteName
   8              		.weak	_ZN13UnitTestSuite12GetSuiteNameEv
  10              	_ZN13UnitTestSuite12GetSuiteNameEv:
  11              	.LFB0:
  12              		.file 1 "../TestSuite.h"
   1:../TestSuite.h **** #ifndef UNITTEST_TESTSUITE_H
   2:../TestSuite.h **** #define UNITTEST_TESTSUITE_H
   3:../TestSuite.h **** 
   4:../TestSuite.h **** namespace UnitTestSuite {
   5:../TestSuite.h **** 
   6:../TestSuite.h ****     inline char const* GetSuiteName ()
   7:../TestSuite.h ****     {
  13              		.loc 1 7 0
  14              		.cfi_startproc
  15 0000 55       		pushq	%rbp
  16              		.cfi_def_cfa_offset 16
  17              		.cfi_offset 6, -16
  18 0001 4889E5   		movq	%rsp, %rbp
  19              		.cfi_def_cfa_register 6
   8:../TestSuite.h ****         return "DefaultSuite";
  20              		.loc 1 8 0
  21 0004 B8000000 		movl	$.LC0, %eax
  21      00
   9:../TestSuite.h ****     }
  22              		.loc 1 9 0
  23 0009 5D       		popq	%rbp
  24              		.cfi_def_cfa 7, 8
  25 000a C3       		ret
  26              		.cfi_endproc
  27              	.LFE0:
  29              		.section	.text._ZN8UnitTest15MemoryOutStreamC1Ev,"axG",@progbits,_ZN8UnitTest15MemoryOutStreamC1Ev
  30              		.align 2
  31              		.weak	_ZN8UnitTest15MemoryOutStreamC1Ev
  33              	_ZN8UnitTest15MemoryOutStreamC1Ev:
  34              	.LFB1053:
  35              		.file 2 "../MemoryOutStream.h"
   1:../MemoryOutStream.h **** #ifndef UNITTEST_MEMORYOUTSTREAM_H
   2:../MemoryOutStream.h **** #define UNITTEST_MEMORYOUTSTREAM_H
   3:../MemoryOutStream.h **** 
   4:../MemoryOutStream.h **** #include "Config.h"
   5:../MemoryOutStream.h **** 
   6:../MemoryOutStream.h **** #ifndef UNITTEST_USE_CUSTOM_STREAMS
   7:../MemoryOutStream.h **** 
   8:../MemoryOutStream.h **** #include <sstream>
   9:../MemoryOutStream.h **** 
  10:../MemoryOutStream.h **** namespace UnitTest
  11:../MemoryOutStream.h **** {
  12:../MemoryOutStream.h **** 
  13:../MemoryOutStream.h **** class MemoryOutStream : public std::ostringstream
  14:../MemoryOutStream.h **** {
  15:../MemoryOutStream.h **** public:
  16:../MemoryOutStream.h ****     MemoryOutStream() {}
  36              		.loc 2 16 0
  37              		.cfi_startproc
  38              		.cfi_personality 0x3,__gxx_personality_v0
  39              		.cfi_lsda 0x3,.LLSDA1053
  40 0000 55       		pushq	%rbp
  41              		.cfi_def_cfa_offset 16
  42              		.cfi_offset 6, -16
  43 0001 4889E5   		movq	%rsp, %rbp
  44              		.cfi_def_cfa_register 6
  45 0004 53       		pushq	%rbx
  46 0005 4883EC18 		subq	$24, %rsp
  47              		.cfi_offset 3, -24
  48 0009 48897DE8 		movq	%rdi, -24(%rbp)
  49              	.LBB2:
  50              		.loc 2 16 0
  51 000d 488B45E8 		movq	-24(%rbp), %rax
  52 0011 4883C060 		addq	$96, %rax
  53 0015 4889C7   		movq	%rax, %rdi
  54              	.LEHB0:
  55 0018 E8000000 		call	_ZNSt9basic_iosIcSt11char_traitsIcEEC2Ev
  55      00
  56              	.LEHE0:
  57 001d B9000000 		movl	$_ZTTN8UnitTest15MemoryOutStreamE+8, %ecx
  57      00
  58 0022 488B45E8 		movq	-24(%rbp), %rax
  59 0026 BA100000 		movl	$16, %edx
  59      00
  60 002b 4889CE   		movq	%rcx, %rsi
  61 002e 4889C7   		movq	%rax, %rdi
  62              	.LEHB1:
  63 0031 E8000000 		call	_ZNSt19basic_ostringstreamIcSt11char_traitsIcESaIcEEC2ESt13_Ios_Openmode
  63      00
  64              	.LEHE1:
  65              		.loc 2 16 0 is_stmt 0 discriminator 9
  66 0036 BA000000 		movl	$_ZTVN8UnitTest15MemoryOutStreamE+24, %edx
  66      00
  67 003b 488B45E8 		movq	-24(%rbp), %rax
  68 003f 488910   		movq	%rdx, (%rax)
  69 0042 BA600000 		movl	$96, %edx
  69      00
  70 0047 488B45E8 		movq	-24(%rbp), %rax
  71 004b 4801D0   		addq	%rdx, %rax
  72 004e BA000000 		movl	$_ZTVN8UnitTest15MemoryOutStreamE+64, %edx
  72      00
  73 0053 488910   		movq	%rdx, (%rax)
  74 0056 488B45E8 		movq	-24(%rbp), %rax
  75 005a 4883C058 		addq	$88, %rax
  76 005e 4889C7   		movq	%rax, %rdi
  77              	.LEHB2:
  78 0061 E8000000 		call	_ZNSsC1Ev
  78      00
  79              	.LEHE2:
  80              	.LBE2:
  81              		.loc 2 16 0
  82 0066 EB37     		jmp	.L8
  83              	.L6:
  84 0068 4889C3   		movq	%rax, %rbx
  85              	.LBB3:
  86 006b BA000000 		movl	$_ZTTN8UnitTest15MemoryOutStreamE+8, %edx
  86      00
  87 0070 488B45E8 		movq	-24(%rbp), %rax
  88 0074 4889D6   		movq	%rdx, %rsi
  89 0077 4889C7   		movq	%rax, %rdi
  90 007a E8000000 		call	_ZNSt19basic_ostringstreamIcSt11char_traitsIcESaIcEED2Ev
  90      00
  91 007f EB03     		jmp	.L5
  92              	.L7:
  93 0081 4889C3   		movq	%rax, %rbx
  94              	.L5:
  95              		.loc 2 16 0 discriminator 28
  96 0084 488B45E8 		movq	-24(%rbp), %rax
  97 0088 4883C060 		addq	$96, %rax
  98 008c 4889C7   		movq	%rax, %rdi
  99 008f E8000000 		call	_ZNSt9basic_iosIcSt11char_traitsIcEED2Ev
  99      00
 100 0094 4889D8   		movq	%rbx, %rax
 101 0097 4889C7   		movq	%rax, %rdi
 102              	.LEHB3:
 103 009a E8000000 		call	_Unwind_Resume
 103      00
 104              	.LEHE3:
 105              	.L8:
 106              	.LBE3:
 107              		.loc 2 16 0
 108 009f 4883C418 		addq	$24, %rsp
 109 00a3 5B       		popq	%rbx
 110 00a4 5D       		popq	%rbp
 111              		.cfi_def_cfa 7, 8
 112 00a5 C3       		ret
 113              		.cfi_endproc
 114              	.LFE1053:
 115              		.globl	__gxx_personality_v0
 116              		.section	.gcc_except_table._ZN8UnitTest15MemoryOutStreamC1Ev,"aG",@progbits,_ZN8UnitTest15MemoryOu
 117              	.LLSDA1053:
 118 0000 FF       		.byte	0xff
 119 0001 FF       		.byte	0xff
 120 0002 01       		.byte	0x1
 121 0003 12       		.uleb128 .LLSDACSE1053-.LLSDACSB1053
 122              	.LLSDACSB1053:
 123 0004 18       		.uleb128 .LEHB0-.LFB1053
 124 0005 05       		.uleb128 .LEHE0-.LEHB0
 125 0006 00       		.uleb128 0
 126 0007 00       		.uleb128 0
 127 0008 31       		.uleb128 .LEHB1-.LFB1053
 128 0009 05       		.uleb128 .LEHE1-.LEHB1
 129 000a 8101     		.uleb128 .L7-.LFB1053
 130 000c 00       		.uleb128 0
 131 000d 61       		.uleb128 .LEHB2-.LFB1053
 132 000e 05       		.uleb128 .LEHE2-.LEHB2
 133 000f 68       		.uleb128 .L6-.LFB1053
 134 0010 00       		.uleb128 0
 135 0011 9A01     		.uleb128 .LEHB3-.LFB1053
 136 0013 05       		.uleb128 .LEHE3-.LEHB3
 137 0014 00       		.uleb128 0
 138 0015 00       		.uleb128 0
 139              	.LLSDACSE1053:
 140              		.section	.text._ZN8UnitTest15MemoryOutStreamC1Ev,"axG",@progbits,_ZN8UnitTest15MemoryOutStreamC1Ev
 142              		.section	.text._ZN17ScopedCurrentTestC2ERN8UnitTest11TestResultsEPKNS0_11TestDetailsE,"axG",@progb
 143              		.align 2
 144              		.weak	_ZN17ScopedCurrentTestC2ERN8UnitTest11TestResultsEPKNS0_11TestDetailsE
 146              	_ZN17ScopedCurrentTestC2ERN8UnitTest11TestResultsEPKNS0_11TestDetailsE:
 147              	.LFB1069:
 148              		.file 3 "ScopedCurrentTest.h"
   1:ScopedCurrentTest.h **** #ifndef UNITTEST_SCOPEDCURRENTTEST_H
   2:ScopedCurrentTest.h **** #define UNITTEST_SCOPEDCURRENTTEST_H
   3:ScopedCurrentTest.h **** 
   4:ScopedCurrentTest.h **** #include "../CurrentTest.h"
   5:ScopedCurrentTest.h **** #include <cstddef>
   6:ScopedCurrentTest.h **** 
   7:ScopedCurrentTest.h **** class ScopedCurrentTest
   8:ScopedCurrentTest.h **** {
   9:ScopedCurrentTest.h **** public:
  10:ScopedCurrentTest.h **** 	ScopedCurrentTest()
  11:ScopedCurrentTest.h **** 		: m_oldTestResults(UnitTest::CurrentTest::Results())
  12:ScopedCurrentTest.h **** 		, m_oldTestDetails(UnitTest::CurrentTest::Details())
  13:ScopedCurrentTest.h **** 	{
  14:ScopedCurrentTest.h **** 	}
  15:ScopedCurrentTest.h **** 
  16:ScopedCurrentTest.h **** 	explicit ScopedCurrentTest(UnitTest::TestResults& newResults, const UnitTest::TestDetails* newDeta
 149              		.loc 3 16 0 is_stmt 1
 150              		.cfi_startproc
 151 0000 55       		pushq	%rbp
 152              		.cfi_def_cfa_offset 16
 153              		.cfi_offset 6, -16
 154 0001 4889E5   		movq	%rsp, %rbp
 155              		.cfi_def_cfa_register 6
 156 0004 4883EC20 		subq	$32, %rsp
 157 0008 48897DF8 		movq	%rdi, -8(%rbp)
 158 000c 488975F0 		movq	%rsi, -16(%rbp)
 159 0010 488955E8 		movq	%rdx, -24(%rbp)
 160              	.LBB4:
  17:ScopedCurrentTest.h **** 		: m_oldTestResults(UnitTest::CurrentTest::Results())
 161              		.loc 3 17 0
 162 0014 E8000000 		call	_ZN8UnitTest11CurrentTest7ResultsEv
 162      00
  18:ScopedCurrentTest.h **** 		, m_oldTestDetails(UnitTest::CurrentTest::Details())
 163              		.loc 3 18 0
 164 0019 488B10   		movq	(%rax), %rdx
 165 001c 488B45F8 		movq	-8(%rbp), %rax
 166 0020 488910   		movq	%rdx, (%rax)
 167 0023 E8000000 		call	_ZN8UnitTest11CurrentTest7DetailsEv
 167      00
 168 0028 488B10   		movq	(%rax), %rdx
 169 002b 488B45F8 		movq	-8(%rbp), %rax
 170 002f 48895008 		movq	%rdx, 8(%rax)
  19:ScopedCurrentTest.h **** 	{
  20:ScopedCurrentTest.h **** 		UnitTest::CurrentTest::Results() = &newResults;
 171              		.loc 3 20 0
 172 0033 E8000000 		call	_ZN8UnitTest11CurrentTest7ResultsEv
 172      00
 173 0038 4889C2   		movq	%rax, %rdx
 174 003b 488B45F0 		movq	-16(%rbp), %rax
 175 003f 488902   		movq	%rax, (%rdx)
  21:ScopedCurrentTest.h **** 
  22:ScopedCurrentTest.h **** 		if (newDetails != NULL)
 176              		.loc 3 22 0
 177 0042 48837DE8 		cmpq	$0, -24(%rbp)
 177      00
 178 0047 740F     		je	.L9
  23:ScopedCurrentTest.h **** 			UnitTest::CurrentTest::Details() = newDetails;
 179              		.loc 3 23 0
 180 0049 E8000000 		call	_ZN8UnitTest11CurrentTest7DetailsEv
 180      00
 181 004e 4889C2   		movq	%rax, %rdx
 182 0051 488B45E8 		movq	-24(%rbp), %rax
 183 0055 488902   		movq	%rax, (%rdx)
 184              	.L9:
 185              	.LBE4:
  24:ScopedCurrentTest.h **** 	}
 186              		.loc 3 24 0
 187 0058 C9       		leave
 188              		.cfi_def_cfa 7, 8
 189 0059 C3       		ret
 190              		.cfi_endproc
 191              	.LFE1069:
 193              		.weak	_ZN17ScopedCurrentTestC1ERN8UnitTest11TestResultsEPKNS0_11TestDetailsE
 194              		.set	_ZN17ScopedCurrentTestC1ERN8UnitTest11TestResultsEPKNS0_11TestDetailsE,_ZN17ScopedCurrentTest
 195              		.section	.text._ZN17ScopedCurrentTestD2Ev,"axG",@progbits,_ZN17ScopedCurrentTestD5Ev,comdat
 196              		.align 2
 197              		.weak	_ZN17ScopedCurrentTestD2Ev
 199              	_ZN17ScopedCurrentTestD2Ev:
 200              	.LFB1072:
  25:ScopedCurrentTest.h **** 
  26:ScopedCurrentTest.h **** 	~ScopedCurrentTest()
 201              		.loc 3 26 0
 202              		.cfi_startproc
 203 0000 55       		pushq	%rbp
 204              		.cfi_def_cfa_offset 16
 205              		.cfi_offset 6, -16
 206 0001 4889E5   		movq	%rsp, %rbp
 207              		.cfi_def_cfa_register 6
 208 0004 4883EC10 		subq	$16, %rsp
 209 0008 48897DF8 		movq	%rdi, -8(%rbp)
 210              	.LBB5:
  27:ScopedCurrentTest.h **** 	{
  28:ScopedCurrentTest.h **** 		UnitTest::CurrentTest::Results() = m_oldTestResults;
 211              		.loc 3 28 0
 212 000c E8000000 		call	_ZN8UnitTest11CurrentTest7ResultsEv
 212      00
 213 0011 4889C2   		movq	%rax, %rdx
 214 0014 488B45F8 		movq	-8(%rbp), %rax
 215 0018 488B00   		movq	(%rax), %rax
 216 001b 488902   		movq	%rax, (%rdx)
  29:ScopedCurrentTest.h **** 		UnitTest::CurrentTest::Details() = m_oldTestDetails;
 217              		.loc 3 29 0
 218 001e E8000000 		call	_ZN8UnitTest11CurrentTest7DetailsEv
 218      00
 219 0023 4889C2   		movq	%rax, %rdx
 220 0026 488B45F8 		movq	-8(%rbp), %rax
 221 002a 488B4008 		movq	8(%rax), %rax
 222 002e 488902   		movq	%rax, (%rdx)
 223              	.LBE5:
  30:ScopedCurrentTest.h **** 	}
 224              		.loc 3 30 0
 225 0031 C9       		leave
 226              		.cfi_def_cfa 7, 8
 227 0032 C3       		ret
 228              		.cfi_endproc
 229              	.LFE1072:
 231              		.weak	_ZN17ScopedCurrentTestD1Ev
 232              		.set	_ZN17ScopedCurrentTestD1Ev,_ZN17ScopedCurrentTestD2Ev
 233              		.section	.rodata
 234              	.LC1:
 235 000d 54657374 		.string	"TestUnitTest++.cpp"
 235      556E6974 
 235      54657374 
 235      2B2B2E63 
 235      707000
 236              	.LC2:
 237 0020 56616C69 		.string	"ValidCheckSucceeds"
 237      64436865 
 237      636B5375 
 237      63636565 
 237      647300
 238              		.text
 239              		.align 2
 241              	_ZN12_GLOBAL__N_122TestValidCheckSucceedsC2Ev:
 242              	.LFB1343:
 243              		.file 4 "TestUnitTest++.cpp"
   1:TestUnitTest++.cpp **** #include "../UnitTest++.h"
   2:TestUnitTest++.cpp **** #include "../ReportAssert.h"
   3:TestUnitTest++.cpp **** #include "ScopedCurrentTest.h"
   4:TestUnitTest++.cpp **** 
   5:TestUnitTest++.cpp **** #include <vector>
   6:TestUnitTest++.cpp **** 
   7:TestUnitTest++.cpp **** // These are sample tests that show the different features of the framework
   8:TestUnitTest++.cpp **** 
   9:TestUnitTest++.cpp **** namespace {
  10:TestUnitTest++.cpp **** 
  11:TestUnitTest++.cpp **** TEST(ValidCheckSucceeds)
 244              		.loc 4 11 0
 245              		.cfi_startproc
 246 0000 55       		pushq	%rbp
 247              		.cfi_def_cfa_offset 16
 248              		.cfi_offset 6, -16
 249 0001 4889E5   		movq	%rsp, %rbp
 250              		.cfi_def_cfa_register 6
 251 0004 4883EC10 		subq	$16, %rsp
 252 0008 48897DF8 		movq	%rdi, -8(%rbp)
 253              	.LBB6:
 254              		.loc 4 11 0
 255 000c E8000000 		call	_ZN13UnitTestSuite12GetSuiteNameEv
 255      00
 256 0011 4889C2   		movq	%rax, %rdx
 257 0014 488B45F8 		movq	-8(%rbp), %rax
 258 0018 41B80B00 		movl	$11, %r8d
 258      0000
 259 001e B9000000 		movl	$.LC1, %ecx
 259      00
 260 0023 BE000000 		movl	$.LC2, %esi
 260      00
 261 0028 4889C7   		movq	%rax, %rdi
 262 002b E8000000 		call	_ZN8UnitTest4TestC2EPKcS2_S2_i
 262      00
 263 0030 488B45F8 		movq	-8(%rbp), %rax
 264 0034 48C70000 		movq	$_ZTVN12_GLOBAL__N_122TestValidCheckSucceedsE+16, (%rax)
 264      000000
 265              	.LBE6:
 266 003b C9       		leave
 267              		.cfi_def_cfa 7, 8
 268 003c C3       		ret
 269              		.cfi_endproc
 270              	.LFE1343:
 272              		.local	_ZN12_GLOBAL__N_130testValidCheckSucceedsInstanceE
 273              		.comm	_ZN12_GLOBAL__N_130testValidCheckSucceedsInstanceE,56,32
 274              		.local	_ZN12_GLOBAL__N_123adderValidCheckSucceedsE
 275              		.comm	_ZN12_GLOBAL__N_123adderValidCheckSucceedsE,1,1
 276              		.section	.rodata
 277              	.LC3:
 278 0033 6200     		.string	"b"
 279 0035 000000   		.align 8
 280              	.LC4:
 281 0038 556E6861 		.string	"Unhandled exception in CHECK(b)"
 281      6E646C65 
 281      64206578 
 281      63657074 
 281      696F6E20 
 282              		.text
 283 003d 90       		.align 2
 285              	_ZNK12_GLOBAL__N_122TestValidCheckSucceeds7RunImplEv:
 286              	.LFB1345:
  12:TestUnitTest++.cpp **** {
 287              		.loc 4 12 0
 288              		.cfi_startproc
 289              		.cfi_personality 0x3,__gxx_personality_v0
 290              		.cfi_lsda 0x3,.LLSDA1345
 291 003e 55       		pushq	%rbp
 292              		.cfi_def_cfa_offset 16
 293              		.cfi_offset 6, -16
 294 003f 4889E5   		movq	%rsp, %rbp
 295              		.cfi_def_cfa_register 6
 296 0042 53       		pushq	%rbx
 297 0043 4883EC58 		subq	$88, %rsp
 298              		.cfi_offset 3, -24
 299 0047 48897DA8 		movq	%rdi, -88(%rbp)
 300              		.loc 4 12 0
 301 004b 64488B04 		movq	%fs:40, %rax
 301      25280000 
 301      00
 302 0054 488945E8 		movq	%rax, -24(%rbp)
 303 0058 31C0     		xorl	%eax, %eax
 304              	.LBB7:
  13:TestUnitTest++.cpp ****     bool const b = true;
 305              		.loc 4 13 0
 306 005a C645BF01 		movb	$1, -65(%rbp)
  14:TestUnitTest++.cpp ****     CHECK(b);
 307              		.loc 4 14 0
 308 005e BF010000 		movl	$1, %edi
 308      00
 309 0063 E8000000 		call	_ZN8UnitTest5CheckIbEEbT_
 309      00
 310 0068 83F001   		xorl	$1, %eax
 311 006b 84C0     		testb	%al, %al
 312 006d 0F849300 		je	.L14
 312      0000
 313              	.LEHB4:
 314              		.loc 4 14 0 is_stmt 0 discriminator 1
 315 0073 E8000000 		call	_ZN8UnitTest11CurrentTest7DetailsEv
 315      00
 316 0078 488B08   		movq	(%rax), %rcx
 317 007b 488D45C0 		leaq	-64(%rbp), %rax
 318 007f BA0E0000 		movl	$14, %edx
 318      00
 319 0084 4889CE   		movq	%rcx, %rsi
 320 0087 4889C7   		movq	%rax, %rdi
 321 008a E8000000 		call	_ZN8UnitTest11TestDetailsC1ERKS0_i
 321      00
 322              		.loc 4 14 0 discriminator 3
 323 008f E8000000 		call	_ZN8UnitTest11CurrentTest7ResultsEv
 323      00
 324 0094 488B00   		movq	(%rax), %rax
 325 0097 488D4DC0 		leaq	-64(%rbp), %rcx
 326 009b BA000000 		movl	$.LC3, %edx
 326      00
 327 00a0 4889CE   		movq	%rcx, %rsi
 328 00a3 4889C7   		movq	%rax, %rdi
 329 00a6 E8000000 		call	_ZN8UnitTest11TestResults13OnTestFailureERKNS_11TestDetailsEPKc
 329      00
 330              	.LEHE4:
 331 00ab EB59     		jmp	.L14
 332              	.L20:
 333 00ad 4889C3   		movq	%rax, %rbx
 334              		.loc 4 14 0
 335 00b0 E8000000 		call	__cxa_end_catch
 335      00
 336 00b5 4889D8   		movq	%rbx, %rax
 337 00b8 4889C7   		movq	%rax, %rdi
 338              	.LEHB5:
 339 00bb E8000000 		call	_Unwind_Resume
 339      00
 340              	.LEHE5:
 341              	.L19:
 342 00c0 4889C7   		movq	%rax, %rdi
 343 00c3 E8000000 		call	__cxa_begin_catch
 343      00
 344              	.LEHB6:
 345 00c8 E8000000 		call	_ZN8UnitTest11CurrentTest7DetailsEv
 345      00
 346 00cd 488B08   		movq	(%rax), %rcx
 347 00d0 488D45C0 		leaq	-64(%rbp), %rax
 348 00d4 BA0E0000 		movl	$14, %edx
 348      00
 349 00d9 4889CE   		movq	%rcx, %rsi
 350 00dc 4889C7   		movq	%rax, %rdi
 351 00df E8000000 		call	_ZN8UnitTest11TestDetailsC1ERKS0_i
 351      00
 352              		.loc 4 14 0 discriminator 11
 353 00e4 E8000000 		call	_ZN8UnitTest11CurrentTest7ResultsEv
 353      00
 354 00e9 488B00   		movq	(%rax), %rax
 355 00ec 488D4DC0 		leaq	-64(%rbp), %rcx
 356 00f0 BA000000 		movl	$.LC4, %edx
 356      00
 357 00f5 4889CE   		movq	%rcx, %rsi
 358 00f8 4889C7   		movq	%rax, %rdi
 359 00fb E8000000 		call	_ZN8UnitTest11TestResults13OnTestFailureERKNS_11TestDetailsEPKc
 359      00
 360              	.LEHE6:
 361              	.LEHB7:
 362              		.loc 4 14 0 discriminator 15
 363 0100 E8000000 		call	__cxa_end_catch
 363      00
 364              	.LEHE7:
 365              	.LBE7:
  15:TestUnitTest++.cpp **** }
 366              		.loc 4 15 0 is_stmt 1 discriminator 15
 367 0105 90       		nop
 368              	.L14:
 369              		.loc 4 15 0 is_stmt 0
 370 0106 488B45E8 		movq	-24(%rbp), %rax
 371 010a 64483304 		xorq	%fs:40, %rax
 371      25280000 
 371      00
 372 0113 7405     		je	.L18
 373 0115 E8000000 		call	__stack_chk_fail
 373      00
 374              	.L18:
 375 011a 4883C458 		addq	$88, %rsp
 376 011e 5B       		popq	%rbx
 377 011f 5D       		popq	%rbp
 378              		.cfi_def_cfa 7, 8
 379 0120 C3       		ret
 380              		.cfi_endproc
 381              	.LFE1345:
 382              		.section	.gcc_except_table,"a",@progbits
 383              		.align 4
 384              	.LLSDA1345:
 385 0000 FF       		.byte	0xff
 386 0001 03       		.byte	0x3
 387 0002 1D       		.uleb128 .LLSDATT1345-.LLSDATTD1345
 388              	.LLSDATTD1345:
 389 0003 01       		.byte	0x1
 390 0004 13       		.uleb128 .LLSDACSE1345-.LLSDACSB1345
 391              	.LLSDACSB1345:
 392 0005 35       		.uleb128 .LEHB4-.LFB1345
 393 0006 38       		.uleb128 .LEHE4-.LEHB4
 394 0007 8201     		.uleb128 .L19-.LFB1345
 395 0009 01       		.uleb128 0x1
 396 000a 7D       		.uleb128 .LEHB5-.LFB1345
 397 000b 05       		.uleb128 .LEHE5-.LEHB5
 398 000c 00       		.uleb128 0
 399 000d 00       		.uleb128 0
 400 000e 8A01     		.uleb128 .LEHB6-.LFB1345
 401 0010 38       		.uleb128 .LEHE6-.LEHB6
 402 0011 6F       		.uleb128 .L20-.LFB1345
 403 0012 00       		.uleb128 0
 404 0013 C201     		.uleb128 .LEHB7-.LFB1345
 405 0015 05       		.uleb128 .LEHE7-.LEHB7
 406 0016 00       		.uleb128 0
 407 0017 00       		.uleb128 0
 408              	.LLSDACSE1345:
 409 0018 01       		.byte	0x1
 410 0019 00       		.byte	0
 411 001a 0000     		.align 4
 412 001c 00000000 		.long	0
 413              	
 414              	.LLSDATT1345:
 415              		.text
 417              		.section	.rodata
 418              	.LC5:
 419 0058 43686563 		.string	"CheckWorksWithPointers"
 419      6B576F72 
 419      6B735769 
 419      7468506F 
 419      696E7465 
 420              		.text
 421 0121 90       		.align 2
 423              	_ZN12_GLOBAL__N_126TestCheckWorksWithPointersC2Ev:
 424              	.LFB1347:
  16:TestUnitTest++.cpp **** 
  17:TestUnitTest++.cpp **** TEST(CheckWorksWithPointers)
 425              		.loc 4 17 0 is_stmt 1
 426              		.cfi_startproc
 427 0122 55       		pushq	%rbp
 428              		.cfi_def_cfa_offset 16
 429              		.cfi_offset 6, -16
 430 0123 4889E5   		movq	%rsp, %rbp
 431              		.cfi_def_cfa_register 6
 432 0126 4883EC10 		subq	$16, %rsp
 433 012a 48897DF8 		movq	%rdi, -8(%rbp)
 434              	.LBB8:
 435              		.loc 4 17 0
 436 012e E8000000 		call	_ZN13UnitTestSuite12GetSuiteNameEv
 436      00
 437 0133 4889C2   		movq	%rax, %rdx
 438 0136 488B45F8 		movq	-8(%rbp), %rax
 439 013a 41B81100 		movl	$17, %r8d
 439      0000
 440 0140 B9000000 		movl	$.LC1, %ecx
 440      00
 441 0145 BE000000 		movl	$.LC5, %esi
 441      00
 442 014a 4889C7   		movq	%rax, %rdi
 443 014d E8000000 		call	_ZN8UnitTest4TestC2EPKcS2_S2_i
 443      00
 444 0152 488B45F8 		movq	-8(%rbp), %rax
 445 0156 48C70000 		movq	$_ZTVN12_GLOBAL__N_126TestCheckWorksWithPointersE+16, (%rax)
 445      000000
 446              	.LBE8:
 447 015d C9       		leave
 448              		.cfi_def_cfa 7, 8
 449 015e C3       		ret
 450              		.cfi_endproc
 451              	.LFE1347:
 453              		.local	_ZN12_GLOBAL__N_134testCheckWorksWithPointersInstanceE
 454              		.comm	_ZN12_GLOBAL__N_134testCheckWorksWithPointersInstanceE,56,32
 455              		.local	_ZN12_GLOBAL__N_127adderCheckWorksWithPointersE
 456              		.comm	_ZN12_GLOBAL__N_127adderCheckWorksWithPointersE,1,1
 457              		.section	.rodata
 458              	.LC6:
 459 006f 7000     		.string	"p"
 460              	.LC7:
 461 0071 7020213D 		.string	"p != 0"
 461      203000
 462              		.align 8
 463              	.LC8:
 464 0078 556E6861 		.string	"Unhandled exception in CHECK(p)"
 464      6E646C65 
 464      64206578 
 464      63657074 
 464      696F6E20 
 465              		.align 8
 466              	.LC9:
 467 0098 556E6861 		.string	"Unhandled exception in CHECK(p != 0)"
 467      6E646C65 
 467      64206578 
 467      63657074 
 467      696F6E20 
 468              		.text
 469 015f 90       		.align 2
 471              	_ZNK12_GLOBAL__N_126TestCheckWorksWithPointers7RunImplEv:
 472              	.LFB1349:
  18:TestUnitTest++.cpp **** {
 473              		.loc 4 18 0
 474              		.cfi_startproc
 475              		.cfi_personality 0x3,__gxx_personality_v0
 476              		.cfi_lsda 0x3,.LLSDA1349
 477 0160 55       		pushq	%rbp
 478              		.cfi_def_cfa_offset 16
 479              		.cfi_offset 6, -16
 480 0161 4889E5   		movq	%rsp, %rbp
 481              		.cfi_def_cfa_register 6
 482 0164 53       		pushq	%rbx
 483 0165 4883EC58 		subq	$88, %rsp
 484              		.cfi_offset 3, -24
 485 0169 48897DA8 		movq	%rdi, -88(%rbp)
 486              		.loc 4 18 0
 487 016d 64488B04 		movq	%fs:40, %rax
 487      25280000 
 487      00
 488 0176 488945E8 		movq	%rax, -24(%rbp)
 489 017a 31C0     		xorl	%eax, %eax
 490              	.LBB9:
  19:TestUnitTest++.cpp ****     void* p = (void *)0x100;
 491              		.loc 4 19 0
 492 017c 48C745B8 		movq	$256, -72(%rbp)
 492      00010000 
  20:TestUnitTest++.cpp ****     CHECK(p);
 493              		.loc 4 20 0
 494 0184 488B45B8 		movq	-72(%rbp), %rax
 495 0188 4889C7   		movq	%rax, %rdi
 496 018b E8000000 		call	_ZN8UnitTest5CheckIPvEEbT_
 496      00
 497 0190 83F001   		xorl	$1, %eax
 498 0193 84C0     		testb	%al, %al
 499 0195 7438     		je	.L23
 500              	.LEHB8:
 501              		.loc 4 20 0 is_stmt 0 discriminator 1
 502 0197 E8000000 		call	_ZN8UnitTest11CurrentTest7DetailsEv
 502      00
 503 019c 488B08   		movq	(%rax), %rcx
 504 019f 488D45C0 		leaq	-64(%rbp), %rax
 505 01a3 BA140000 		movl	$20, %edx
 505      00
 506 01a8 4889CE   		movq	%rcx, %rsi
 507 01ab 4889C7   		movq	%rax, %rdi
 508 01ae E8000000 		call	_ZN8UnitTest11TestDetailsC1ERKS0_i
 508      00
 509              		.loc 4 20 0 discriminator 3
 510 01b3 E8000000 		call	_ZN8UnitTest11CurrentTest7ResultsEv
 510      00
 511 01b8 488B00   		movq	(%rax), %rax
 512 01bb 488D4DC0 		leaq	-64(%rbp), %rcx
 513 01bf BA000000 		movl	$.LC6, %edx
 513      00
 514 01c4 4889CE   		movq	%rcx, %rsi
 515 01c7 4889C7   		movq	%rax, %rdi
 516 01ca E8000000 		call	_ZN8UnitTest11TestResults13OnTestFailureERKNS_11TestDetailsEPKc
 516      00
 517              	.LEHE8:
 518              	.L23:
  21:TestUnitTest++.cpp ****     CHECK(p != 0);
 519              		.loc 4 21 0 is_stmt 1
 520 01cf 48837DB8 		cmpq	$0, -72(%rbp)
 520      00
 521 01d4 0F95C0   		setne	%al
 522 01d7 0FB6C0   		movzbl	%al, %eax
 523 01da 89C7     		movl	%eax, %edi
 524 01dc E8000000 		call	_ZN8UnitTest5CheckIbEEbT_
 524      00
 525 01e1 83F001   		xorl	$1, %eax
 526 01e4 84C0     		testb	%al, %al
 527 01e6 0F84F300 		je	.L22
 527      0000
 528              	.LEHB9:
 529              		.loc 4 21 0 is_stmt 0 discriminator 1
 530 01ec E8000000 		call	_ZN8UnitTest11CurrentTest7DetailsEv
 530      00
 531 01f1 488B08   		movq	(%rax), %rcx
 532 01f4 488D45C0 		leaq	-64(%rbp), %rax
 533 01f8 BA150000 		movl	$21, %edx
 533      00
 534 01fd 4889CE   		movq	%rcx, %rsi
 535 0200 4889C7   		movq	%rax, %rdi
 536 0203 E8000000 		call	_ZN8UnitTest11TestDetailsC1ERKS0_i
 536      00
 537              		.loc 4 21 0 discriminator 3
 538 0208 E8000000 		call	_ZN8UnitTest11CurrentTest7ResultsEv
 538      00
 539 020d 488B00   		movq	(%rax), %rax
 540 0210 488D4DC0 		leaq	-64(%rbp), %rcx
 541 0214 BA000000 		movl	$.LC7, %edx
 541      00
 542 0219 4889CE   		movq	%rcx, %rsi
 543 021c 4889C7   		movq	%rax, %rdi
 544 021f E8000000 		call	_ZN8UnitTest11TestResults13OnTestFailureERKNS_11TestDetailsEPKc
 544      00
 545              	.LEHE9:
 546 0224 E9B60000 		jmp	.L22
 546      00
 547              	.L31:
 548 0229 4889C3   		movq	%rax, %rbx
  20:TestUnitTest++.cpp ****     CHECK(p);
 549              		.loc 4 20 0 is_stmt 1
 550 022c E8000000 		call	__cxa_end_catch
 550      00
 551 0231 4889D8   		movq	%rbx, %rax
 552 0234 4889C7   		movq	%rax, %rdi
 553              	.LEHB10:
 554 0237 E8000000 		call	_Unwind_Resume
 554      00
 555              	.LEHE10:
 556              	.L30:
 557 023c 4889C7   		movq	%rax, %rdi
 558 023f E8000000 		call	__cxa_begin_catch
 558      00
 559              	.LEHB11:
 560 0244 E8000000 		call	_ZN8UnitTest11CurrentTest7DetailsEv
 560      00
 561 0249 488B08   		movq	(%rax), %rcx
 562 024c 488D45C0 		leaq	-64(%rbp), %rax
 563 0250 BA140000 		movl	$20, %edx
 563      00
 564 0255 4889CE   		movq	%rcx, %rsi
 565 0258 4889C7   		movq	%rax, %rdi
 566 025b E8000000 		call	_ZN8UnitTest11TestDetailsC1ERKS0_i
 566      00
  20:TestUnitTest++.cpp ****     CHECK(p);
 567              		.loc 4 20 0 is_stmt 0 discriminator 11
 568 0260 E8000000 		call	_ZN8UnitTest11CurrentTest7ResultsEv
 568      00
 569 0265 488B00   		movq	(%rax), %rax
 570 0268 488D4DC0 		leaq	-64(%rbp), %rcx
 571 026c BA000000 		movl	$.LC8, %edx
 571      00
 572 0271 4889CE   		movq	%rcx, %rsi
 573 0274 4889C7   		movq	%rax, %rdi
 574 0277 E8000000 		call	_ZN8UnitTest11TestResults13OnTestFailureERKNS_11TestDetailsEPKc
 574      00
 575              	.LEHE11:
 576              	.LEHB12:
  20:TestUnitTest++.cpp ****     CHECK(p);
 577              		.loc 4 20 0 discriminator 15
 578 027c E8000000 		call	__cxa_end_catch
 578      00
 579              	.LEHE12:
 580 0281 E949FFFF 		jmp	.L23
 580      FF
 581              	.L33:
 582 0286 4889C3   		movq	%rax, %rbx
 583              		.loc 4 21 0 is_stmt 1
 584 0289 E8000000 		call	__cxa_end_catch
 584      00
 585 028e 4889D8   		movq	%rbx, %rax
 586 0291 4889C7   		movq	%rax, %rdi
 587              	.LEHB13:
 588 0294 E8000000 		call	_Unwind_Resume
 588      00
 589              	.LEHE13:
 590              	.L32:
 591 0299 4889C7   		movq	%rax, %rdi
 592 029c E8000000 		call	__cxa_begin_catch
 592      00
 593              	.LEHB14:
 594 02a1 E8000000 		call	_ZN8UnitTest11CurrentTest7DetailsEv
 594      00
 595 02a6 488B08   		movq	(%rax), %rcx
 596 02a9 488D45C0 		leaq	-64(%rbp), %rax
 597 02ad BA150000 		movl	$21, %edx
 597      00
 598 02b2 4889CE   		movq	%rcx, %rsi
 599 02b5 4889C7   		movq	%rax, %rdi
 600 02b8 E8000000 		call	_ZN8UnitTest11TestDetailsC1ERKS0_i
 600      00
 601              		.loc 4 21 0 is_stmt 0 discriminator 11
 602 02bd E8000000 		call	_ZN8UnitTest11CurrentTest7ResultsEv
 602      00
 603 02c2 488B00   		movq	(%rax), %rax
 604 02c5 488D4DC0 		leaq	-64(%rbp), %rcx
 605 02c9 BA000000 		movl	$.LC9, %edx
 605      00
 606 02ce 4889CE   		movq	%rcx, %rsi
 607 02d1 4889C7   		movq	%rax, %rdi
 608 02d4 E8000000 		call	_ZN8UnitTest11TestResults13OnTestFailureERKNS_11TestDetailsEPKc
 608      00
 609              	.LEHE14:
 610              	.LEHB15:
 611              		.loc 4 21 0 discriminator 15
 612 02d9 E8000000 		call	__cxa_end_catch
 612      00
 613              	.LEHE15:
 614              	.LBE9:
  22:TestUnitTest++.cpp **** }
 615              		.loc 4 22 0 is_stmt 1 discriminator 15
 616 02de 90       		nop
 617              	.L22:
 618              		.loc 4 22 0 is_stmt 0
 619 02df 488B45E8 		movq	-24(%rbp), %rax
 620 02e3 64483304 		xorq	%fs:40, %rax
 620      25280000 
 620      00
 621 02ec 7405     		je	.L29
 622 02ee E8000000 		call	__stack_chk_fail
 622      00
 623              	.L29:
 624 02f3 4883C458 		addq	$88, %rsp
 625 02f7 5B       		popq	%rbx
 626 02f8 5D       		popq	%rbp
 627              		.cfi_def_cfa 7, 8
 628 02f9 C3       		ret
 629              		.cfi_endproc
 630              	.LFE1349:
 631              		.section	.gcc_except_table
 632              		.align 4
 633              	.LLSDA1349:
 634 0020 FF       		.byte	0xff
 635 0021 03       		.byte	0x3
 636 0022 35       		.uleb128 .LLSDATT1349-.LLSDATTD1349
 637              	.LLSDATTD1349:
 638 0023 01       		.byte	0x1
 639 0024 2B       		.uleb128 .LLSDACSE1349-.LLSDACSB1349
 640              	.LLSDACSB1349:
 641 0025 37       		.uleb128 .LEHB8-.LFB1349
 642 0026 38       		.uleb128 .LEHE8-.LEHB8
 643 0027 DC01     		.uleb128 .L30-.LFB1349
 644 0029 01       		.uleb128 0x1
 645 002a 8C01     		.uleb128 .LEHB9-.LFB1349
 646 002c 38       		.uleb128 .LEHE9-.LEHB9
 647 002d B902     		.uleb128 .L32-.LFB1349
 648 002f 01       		.uleb128 0x1
 649 0030 D701     		.uleb128 .LEHB10-.LFB1349
 650 0032 05       		.uleb128 .LEHE10-.LEHB10
 651 0033 00       		.uleb128 0
 652 0034 00       		.uleb128 0
 653 0035 E401     		.uleb128 .LEHB11-.LFB1349
 654 0037 38       		.uleb128 .LEHE11-.LEHB11
 655 0038 C901     		.uleb128 .L31-.LFB1349
 656 003a 00       		.uleb128 0
 657 003b 9C02     		.uleb128 .LEHB12-.LFB1349
 658 003d 05       		.uleb128 .LEHE12-.LEHB12
 659 003e 00       		.uleb128 0
 660 003f 00       		.uleb128 0
 661 0040 B402     		.uleb128 .LEHB13-.LFB1349
 662 0042 05       		.uleb128 .LEHE13-.LEHB13
 663 0043 00       		.uleb128 0
 664 0044 00       		.uleb128 0
 665 0045 C102     		.uleb128 .LEHB14-.LFB1349
 666 0047 38       		.uleb128 .LEHE14-.LEHB14
 667 0048 A602     		.uleb128 .L33-.LFB1349
 668 004a 00       		.uleb128 0
 669 004b F902     		.uleb128 .LEHB15-.LFB1349
 670 004d 05       		.uleb128 .LEHE15-.LEHB15
 671 004e 00       		.uleb128 0
 672 004f 00       		.uleb128 0
 673              	.LLSDACSE1349:
 674 0050 01       		.byte	0x1
 675 0051 00       		.byte	0
 676 0052 0000     		.align 4
 677 0054 00000000 		.long	0
 678              	
 679              	.LLSDATT1349:
 680              		.text
 682              		.section	.rodata
 683              	.LC10:
 684 00bd 56616C69 		.string	"ValidCheckEqualSucceeds"
 684      64436865 
 684      636B4571 
 684      75616C53 
 684      75636365 
 685              		.text
 686              		.align 2
 688              	_ZN12_GLOBAL__N_127TestValidCheckEqualSucceedsC2Ev:
 689              	.LFB1351:
  23:TestUnitTest++.cpp **** 
  24:TestUnitTest++.cpp **** TEST(ValidCheckEqualSucceeds)
 690              		.loc 4 24 0 is_stmt 1
 691              		.cfi_startproc
 692 02fa 55       		pushq	%rbp
 693              		.cfi_def_cfa_offset 16
 694              		.cfi_offset 6, -16
 695 02fb 4889E5   		movq	%rsp, %rbp
 696              		.cfi_def_cfa_register 6
 697 02fe 4883EC10 		subq	$16, %rsp
 698 0302 48897DF8 		movq	%rdi, -8(%rbp)
 699              	.LBB10:
 700              		.loc 4 24 0
 701 0306 E8000000 		call	_ZN13UnitTestSuite12GetSuiteNameEv
 701      00
 702 030b 4889C2   		movq	%rax, %rdx
 703 030e 488B45F8 		movq	-8(%rbp), %rax
 704 0312 41B81800 		movl	$24, %r8d
 704      0000
 705 0318 B9000000 		movl	$.LC1, %ecx
 705      00
 706 031d BE000000 		movl	$.LC10, %esi
 706      00
 707 0322 4889C7   		movq	%rax, %rdi
 708 0325 E8000000 		call	_ZN8UnitTest4TestC2EPKcS2_S2_i
 708      00
 709 032a 488B45F8 		movq	-8(%rbp), %rax
 710 032e 48C70000 		movq	$_ZTVN12_GLOBAL__N_127TestValidCheckEqualSucceedsE+16, (%rax)
 710      000000
 711              	.LBE10:
 712 0335 C9       		leave
 713              		.cfi_def_cfa 7, 8
 714 0336 C3       		ret
 715              		.cfi_endproc
 716              	.LFE1351:
 718              		.local	_ZN12_GLOBAL__N_135testValidCheckEqualSucceedsInstanceE
 719              		.comm	_ZN12_GLOBAL__N_135testValidCheckEqualSucceedsInstanceE,56,32
 720              		.local	_ZN12_GLOBAL__N_128adderValidCheckEqualSucceedsE
 721              		.comm	_ZN12_GLOBAL__N_128adderValidCheckEqualSucceedsE,1,1
 722              		.section	.rodata
 723 00d5 000000   		.align 8
 724              	.LC11:
 725 00d8 556E6861 		.string	"Unhandled exception in CHECK_EQUAL(x, y)"
 725      6E646C65 
 725      64206578 
 725      63657074 
 725      696F6E20 
 726              		.text
 727 0337 90       		.align 2
 729              	_ZNK12_GLOBAL__N_127TestValidCheckEqualSucceeds7RunImplEv:
 730              	.LFB1353:
  25:TestUnitTest++.cpp **** {
 731              		.loc 4 25 0
 732              		.cfi_startproc
 733              		.cfi_personality 0x3,__gxx_personality_v0
 734              		.cfi_lsda 0x3,.LLSDA1353
 735 0338 55       		pushq	%rbp
 736              		.cfi_def_cfa_offset 16
 737              		.cfi_offset 6, -16
 738 0339 4889E5   		movq	%rsp, %rbp
 739              		.cfi_def_cfa_register 6
 740 033c 53       		pushq	%rbx
 741 033d 4883EC58 		subq	$88, %rsp
 742              		.cfi_offset 3, -24
 743 0341 48897DA8 		movq	%rdi, -88(%rbp)
 744              		.loc 4 25 0
 745 0345 64488B04 		movq	%fs:40, %rax
 745      25280000 
 745      00
 746 034e 488945E8 		movq	%rax, -24(%rbp)
 747 0352 31C0     		xorl	%eax, %eax
 748              	.LBB11:
  26:TestUnitTest++.cpp ****     int const x = 3;
 749              		.loc 4 26 0
 750 0354 C745B803 		movl	$3, -72(%rbp)
 750      000000
  27:TestUnitTest++.cpp ****     int const y = 3;
 751              		.loc 4 27 0
 752 035b C745BC03 		movl	$3, -68(%rbp)
 752      000000
 753              	.LEHB16:
  28:TestUnitTest++.cpp ****     CHECK_EQUAL(x, y);
 754              		.loc 4 28 0
 755 0362 E8000000 		call	_ZN8UnitTest11CurrentTest7DetailsEv
 755      00
 756 0367 488B08   		movq	(%rax), %rcx
 757 036a 488D45C0 		leaq	-64(%rbp), %rax
 758 036e BA1C0000 		movl	$28, %edx
 758      00
 759 0373 4889CE   		movq	%rcx, %rsi
 760 0376 4889C7   		movq	%rax, %rdi
 761 0379 E8000000 		call	_ZN8UnitTest11TestDetailsC1ERKS0_i
 761      00
 762              		.loc 4 28 0 is_stmt 0 discriminator 2
 763 037e E8000000 		call	_ZN8UnitTest11CurrentTest7ResultsEv
 763      00
 764 0383 488B00   		movq	(%rax), %rax
 765 0386 488D4DC0 		leaq	-64(%rbp), %rcx
 766 038a 488D55BC 		leaq	-68(%rbp), %rdx
 767 038e 488D75B8 		leaq	-72(%rbp), %rsi
 768 0392 4889C7   		movq	%rax, %rdi
 769 0395 E8000000 		call	_ZN8UnitTest10CheckEqualIiiEEvRNS_11TestResultsERKT_RKT0_RKNS_11TestDetailsE
 769      00
 770              	.LEHE16:
 771              	.LBE11:
  29:TestUnitTest++.cpp **** }
 772              		.loc 4 29 0 is_stmt 1
 773 039a EB58     		jmp	.L42
 774              	.L41:
 775 039c 4889C3   		movq	%rax, %rbx
 776              	.LBB12:
  28:TestUnitTest++.cpp ****     CHECK_EQUAL(x, y);
 777              		.loc 4 28 0
 778 039f E8000000 		call	__cxa_end_catch
 778      00
 779 03a4 4889D8   		movq	%rbx, %rax
 780 03a7 4889C7   		movq	%rax, %rdi
 781              	.LEHB17:
 782 03aa E8000000 		call	_Unwind_Resume
 782      00
 783              	.LEHE17:
 784              	.L40:
 785 03af 4889C7   		movq	%rax, %rdi
 786 03b2 E8000000 		call	__cxa_begin_catch
 786      00
 787              	.LEHB18:
 788 03b7 E8000000 		call	_ZN8UnitTest11CurrentTest7DetailsEv
 788      00
 789 03bc 488B08   		movq	(%rax), %rcx
 790 03bf 488D45C0 		leaq	-64(%rbp), %rax
 791 03c3 BA1C0000 		movl	$28, %edx
 791      00
 792 03c8 4889CE   		movq	%rcx, %rsi
 793 03cb 4889C7   		movq	%rax, %rdi
 794 03ce E8000000 		call	_ZN8UnitTest11TestDetailsC1ERKS0_i
 794      00
  28:TestUnitTest++.cpp ****     CHECK_EQUAL(x, y);
 795              		.loc 4 28 0 is_stmt 0 discriminator 10
 796 03d3 E8000000 		call	_ZN8UnitTest11CurrentTest7ResultsEv
 796      00
 797 03d8 488B00   		movq	(%rax), %rax
 798 03db 488D4DC0 		leaq	-64(%rbp), %rcx
 799 03df BA000000 		movl	$.LC11, %edx
 799      00
 800 03e4 4889CE   		movq	%rcx, %rsi
 801 03e7 4889C7   		movq	%rax, %rdi
 802 03ea E8000000 		call	_ZN8UnitTest11TestResults13OnTestFailureERKNS_11TestDetailsEPKc
 802      00
 803              	.LEHE18:
 804              	.LEHB19:
  28:TestUnitTest++.cpp ****     CHECK_EQUAL(x, y);
 805              		.loc 4 28 0 discriminator 14
 806 03ef E8000000 		call	__cxa_end_catch
 806      00
 807              	.LEHE19:
 808              	.L42:
 809              	.LBE12:
 810              		.loc 4 29 0 is_stmt 1
 811 03f4 90       		nop
 812 03f5 488B45E8 		movq	-24(%rbp), %rax
 813 03f9 64483304 		xorq	%fs:40, %rax
 813      25280000 
 813      00
 814 0402 7405     		je	.L39
 815 0404 E8000000 		call	__stack_chk_fail
 815      00
 816              	.L39:
 817 0409 4883C458 		addq	$88, %rsp
 818 040d 5B       		popq	%rbx
 819 040e 5D       		popq	%rbp
 820              		.cfi_def_cfa 7, 8
 821 040f C3       		ret
 822              		.cfi_endproc
 823              	.LFE1353:
 824              		.section	.gcc_except_table
 825              		.align 4
 826              	.LLSDA1353:
 827 0058 FF       		.byte	0xff
 828 0059 03       		.byte	0x3
 829 005a 19       		.uleb128 .LLSDATT1353-.LLSDATTD1353
 830              	.LLSDATTD1353:
 831 005b 01       		.byte	0x1
 832 005c 11       		.uleb128 .LLSDACSE1353-.LLSDACSB1353
 833              	.LLSDACSB1353:
 834 005d 2A       		.uleb128 .LEHB16-.LFB1353
 835 005e 38       		.uleb128 .LEHE16-.LEHB16
 836 005f 77       		.uleb128 .L40-.LFB1353
 837 0060 01       		.uleb128 0x1
 838 0061 72       		.uleb128 .LEHB17-.LFB1353
 839 0062 05       		.uleb128 .LEHE17-.LEHB17
 840 0063 00       		.uleb128 0
 841 0064 00       		.uleb128 0
 842 0065 7F       		.uleb128 .LEHB18-.LFB1353
 843 0066 38       		.uleb128 .LEHE18-.LEHB18
 844 0067 64       		.uleb128 .L41-.LFB1353
 845 0068 00       		.uleb128 0
 846 0069 B701     		.uleb128 .LEHB19-.LFB1353
 847 006b 05       		.uleb128 .LEHE19-.LEHB19
 848 006c 00       		.uleb128 0
 849 006d 00       		.uleb128 0
 850              	.LLSDACSE1353:
 851 006e 01       		.byte	0x1
 852 006f 00       		.byte	0
 853              		.align 4
 854 0070 00000000 		.long	0
 855              	
 856              	.LLSDATT1353:
 857              		.text
 859              		.section	.rodata
 860              	.LC12:
 861 0101 43686563 		.string	"CheckEqualWorksWithPointers"
 861      6B457175 
 861      616C576F 
 861      726B7357 
 861      69746850 
 862              		.text
 863              		.align 2
 865              	_ZN12_GLOBAL__N_131TestCheckEqualWorksWithPointersC2Ev:
 866              	.LFB1355:
  30:TestUnitTest++.cpp **** 
  31:TestUnitTest++.cpp **** TEST(CheckEqualWorksWithPointers)
 867              		.loc 4 31 0
 868              		.cfi_startproc
 869 0410 55       		pushq	%rbp
 870              		.cfi_def_cfa_offset 16
 871              		.cfi_offset 6, -16
 872 0411 4889E5   		movq	%rsp, %rbp
 873              		.cfi_def_cfa_register 6
 874 0414 4883EC10 		subq	$16, %rsp
 875 0418 48897DF8 		movq	%rdi, -8(%rbp)
 876              	.LBB13:
 877              		.loc 4 31 0
 878 041c E8000000 		call	_ZN13UnitTestSuite12GetSuiteNameEv
 878      00
 879 0421 4889C2   		movq	%rax, %rdx
 880 0424 488B45F8 		movq	-8(%rbp), %rax
 881 0428 41B81F00 		movl	$31, %r8d
 881      0000
 882 042e B9000000 		movl	$.LC1, %ecx
 882      00
 883 0433 BE000000 		movl	$.LC12, %esi
 883      00
 884 0438 4889C7   		movq	%rax, %rdi
 885 043b E8000000 		call	_ZN8UnitTest4TestC2EPKcS2_S2_i
 885      00
 886 0440 488B45F8 		movq	-8(%rbp), %rax
 887 0444 48C70000 		movq	$_ZTVN12_GLOBAL__N_131TestCheckEqualWorksWithPointersE+16, (%rax)
 887      000000
 888              	.LBE13:
 889 044b C9       		leave
 890              		.cfi_def_cfa 7, 8
 891 044c C3       		ret
 892              		.cfi_endproc
 893              	.LFE1355:
 895              		.local	_ZN12_GLOBAL__N_139testCheckEqualWorksWithPointersInstanceE
 896              		.comm	_ZN12_GLOBAL__N_139testCheckEqualWorksWithPointersInstanceE,56,32
 897              		.local	_ZN12_GLOBAL__N_132adderCheckEqualWorksWithPointersE
 898              		.comm	_ZN12_GLOBAL__N_132adderCheckEqualWorksWithPointersE,1,1
 899              		.section	.rodata
 900 011d 000000   		.align 8
 901              	.LC13:
 902 0120 556E6861 		.string	"Unhandled exception in CHECK_EQUAL((void*)0, p)"
 902      6E646C65 
 902      64206578 
 902      63657074 
 902      696F6E20 
 903              		.text
 904 044d 90       		.align 2
 906              	_ZNK12_GLOBAL__N_131TestCheckEqualWorksWithPointers7RunImplEv:
 907              	.LFB1357:
  32:TestUnitTest++.cpp **** {
 908              		.loc 4 32 0
 909              		.cfi_startproc
 910              		.cfi_personality 0x3,__gxx_personality_v0
 911              		.cfi_lsda 0x3,.LLSDA1357
 912 044e 55       		pushq	%rbp
 913              		.cfi_def_cfa_offset 16
 914              		.cfi_offset 6, -16
 915 044f 4889E5   		movq	%rsp, %rbp
 916              		.cfi_def_cfa_register 6
 917 0452 53       		pushq	%rbx
 918 0453 4883EC58 		subq	$88, %rsp
 919              		.cfi_offset 3, -24
 920 0457 48897DA8 		movq	%rdi, -88(%rbp)
 921              		.loc 4 32 0
 922 045b 64488B04 		movq	%fs:40, %rax
 922      25280000 
 922      00
 923 0464 488945E8 		movq	%rax, -24(%rbp)
 924 0468 31C0     		xorl	%eax, %eax
 925              	.LBB14:
  33:TestUnitTest++.cpp ****     void* p = (void *)0;
 926              		.loc 4 33 0
 927 046a 48C745B0 		movq	$0, -80(%rbp)
 927      00000000 
 928              	.LEHB20:
  34:TestUnitTest++.cpp ****     CHECK_EQUAL((void*)0, p);
 929              		.loc 4 34 0
 930 0472 E8000000 		call	_ZN8UnitTest11CurrentTest7DetailsEv
 930      00
 931 0477 488B08   		movq	(%rax), %rcx
 932 047a 488D45C0 		leaq	-64(%rbp), %rax
 933 047e BA220000 		movl	$34, %edx
 933      00
 934 0483 4889CE   		movq	%rcx, %rsi
 935 0486 4889C7   		movq	%rax, %rdi
 936 0489 E8000000 		call	_ZN8UnitTest11TestDetailsC1ERKS0_i
 936      00
 937              		.loc 4 34 0 is_stmt 0 discriminator 2
 938 048e 48C745B8 		movq	$0, -72(%rbp)
 938      00000000 
 939 0496 E8000000 		call	_ZN8UnitTest11CurrentTest7ResultsEv
 939      00
 940 049b 488B00   		movq	(%rax), %rax
 941 049e 488D4DC0 		leaq	-64(%rbp), %rcx
 942 04a2 488D55B0 		leaq	-80(%rbp), %rdx
 943 04a6 488D75B8 		leaq	-72(%rbp), %rsi
 944 04aa 4889C7   		movq	%rax, %rdi
 945 04ad E8000000 		call	_ZN8UnitTest10CheckEqualIPvS1_EEvRNS_11TestResultsERKT_RKT0_RKNS_11TestDetailsE
 945      00
 946              	.LEHE20:
 947              	.LBE14:
  35:TestUnitTest++.cpp **** }
 948              		.loc 4 35 0 is_stmt 1
 949 04b2 EB58     		jmp	.L51
 950              	.L50:
 951 04b4 4889C3   		movq	%rax, %rbx
 952              	.LBB15:
  34:TestUnitTest++.cpp ****     CHECK_EQUAL((void*)0, p);
 953              		.loc 4 34 0
 954 04b7 E8000000 		call	__cxa_end_catch
 954      00
 955 04bc 4889D8   		movq	%rbx, %rax
 956 04bf 4889C7   		movq	%rax, %rdi
 957              	.LEHB21:
 958 04c2 E8000000 		call	_Unwind_Resume
 958      00
 959              	.LEHE21:
 960              	.L49:
 961 04c7 4889C7   		movq	%rax, %rdi
 962 04ca E8000000 		call	__cxa_begin_catch
 962      00
 963              	.LEHB22:
 964 04cf E8000000 		call	_ZN8UnitTest11CurrentTest7DetailsEv
 964      00
 965 04d4 488B08   		movq	(%rax), %rcx
 966 04d7 488D45C0 		leaq	-64(%rbp), %rax
 967 04db BA220000 		movl	$34, %edx
 967      00
 968 04e0 4889CE   		movq	%rcx, %rsi
 969 04e3 4889C7   		movq	%rax, %rdi
 970 04e6 E8000000 		call	_ZN8UnitTest11TestDetailsC1ERKS0_i
 970      00
  34:TestUnitTest++.cpp ****     CHECK_EQUAL((void*)0, p);
 971              		.loc 4 34 0 is_stmt 0 discriminator 10
 972 04eb E8000000 		call	_ZN8UnitTest11CurrentTest7ResultsEv
 972      00
 973 04f0 488B00   		movq	(%rax), %rax
 974 04f3 488D4DC0 		leaq	-64(%rbp), %rcx
 975 04f7 BA000000 		movl	$.LC13, %edx
 975      00
 976 04fc 4889CE   		movq	%rcx, %rsi
 977 04ff 4889C7   		movq	%rax, %rdi
 978 0502 E8000000 		call	_ZN8UnitTest11TestResults13OnTestFailureERKNS_11TestDetailsEPKc
 978      00
 979              	.LEHE22:
 980              	.LEHB23:
  34:TestUnitTest++.cpp ****     CHECK_EQUAL((void*)0, p);
 981              		.loc 4 34 0 discriminator 14
 982 0507 E8000000 		call	__cxa_end_catch
 982      00
 983              	.LEHE23:
 984              	.L51:
 985              	.LBE15:
 986              		.loc 4 35 0 is_stmt 1
 987 050c 90       		nop
 988 050d 488B45E8 		movq	-24(%rbp), %rax
 989 0511 64483304 		xorq	%fs:40, %rax
 989      25280000 
 989      00
 990 051a 7405     		je	.L48
 991 051c E8000000 		call	__stack_chk_fail
 991      00
 992              	.L48:
 993 0521 4883C458 		addq	$88, %rsp
 994 0525 5B       		popq	%rbx
 995 0526 5D       		popq	%rbp
 996              		.cfi_def_cfa 7, 8
 997 0527 C3       		ret
 998              		.cfi_endproc
 999              	.LFE1357:
 1000              		.section	.gcc_except_table
 1001              		.align 4
 1002              	.LLSDA1357:
 1003 0074 FF       		.byte	0xff
 1004 0075 03       		.byte	0x3
 1005 0076 1D       		.uleb128 .LLSDATT1357-.LLSDATTD1357
 1006              	.LLSDATTD1357:
 1007 0077 01       		.byte	0x1
 1008 0078 12       		.uleb128 .LLSDACSE1357-.LLSDACSB1357
 1009              	.LLSDACSB1357:
 1010 0079 24       		.uleb128 .LEHB20-.LFB1357
 1011 007a 40       		.uleb128 .LEHE20-.LEHB20
 1012 007b 79       		.uleb128 .L49-.LFB1357
 1013 007c 01       		.uleb128 0x1
 1014 007d 74       		.uleb128 .LEHB21-.LFB1357
 1015 007e 05       		.uleb128 .LEHE21-.LEHB21
 1016 007f 00       		.uleb128 0
 1017 0080 00       		.uleb128 0
 1018 0081 8101     		.uleb128 .LEHB22-.LFB1357
 1019 0083 38       		.uleb128 .LEHE22-.LEHB22
 1020 0084 66       		.uleb128 .L50-.LFB1357
 1021 0085 00       		.uleb128 0
 1022 0086 B901     		.uleb128 .LEHB23-.LFB1357
 1023 0088 05       		.uleb128 .LEHE23-.LEHB23
 1024 0089 00       		.uleb128 0
 1025 008a 00       		.uleb128 0
 1026              	.LLSDACSE1357:
 1027 008b 01       		.byte	0x1
 1028 008c 00       		.byte	0
 1029 008d 000000   		.align 4
 1030 0090 00000000 		.long	0
 1031              	
 1032              	.LLSDATT1357:
 1033              		.text
 1035              		.section	.rodata
 1036              	.LC14:
 1037 0150 56616C69 		.string	"ValidCheckCloseSucceeds"
 1037      64436865 
 1037      636B436C 
 1037      6F736553 
 1037      75636365 
 1038              		.text
 1039              		.align 2
 1041              	_ZN12_GLOBAL__N_127TestValidCheckCloseSucceedsC2Ev:
 1042              	.LFB1359:
  36:TestUnitTest++.cpp **** 
  37:TestUnitTest++.cpp **** TEST(ValidCheckCloseSucceeds)
 1043              		.loc 4 37 0
 1044              		.cfi_startproc
 1045 0528 55       		pushq	%rbp
 1046              		.cfi_def_cfa_offset 16
 1047              		.cfi_offset 6, -16
 1048 0529 4889E5   		movq	%rsp, %rbp
 1049              		.cfi_def_cfa_register 6
 1050 052c 4883EC10 		subq	$16, %rsp
 1051 0530 48897DF8 		movq	%rdi, -8(%rbp)
 1052              	.LBB16:
 1053              		.loc 4 37 0
 1054 0534 E8000000 		call	_ZN13UnitTestSuite12GetSuiteNameEv
 1054      00
 1055 0539 4889C2   		movq	%rax, %rdx
 1056 053c 488B45F8 		movq	-8(%rbp), %rax
 1057 0540 41B82500 		movl	$37, %r8d
 1057      0000
 1058 0546 B9000000 		movl	$.LC1, %ecx
 1058      00
 1059 054b BE000000 		movl	$.LC14, %esi
 1059      00
 1060 0550 4889C7   		movq	%rax, %rdi
 1061 0553 E8000000 		call	_ZN8UnitTest4TestC2EPKcS2_S2_i
 1061      00
 1062 0558 488B45F8 		movq	-8(%rbp), %rax
 1063 055c 48C70000 		movq	$_ZTVN12_GLOBAL__N_127TestValidCheckCloseSucceedsE+16, (%rax)
 1063      000000
 1064              	.LBE16:
 1065 0563 C9       		leave
 1066              		.cfi_def_cfa 7, 8
 1067 0564 C3       		ret
 1068              		.cfi_endproc
 1069              	.LFE1359:
 1071              		.local	_ZN12_GLOBAL__N_135testValidCheckCloseSucceedsInstanceE
 1072              		.comm	_ZN12_GLOBAL__N_135testValidCheckCloseSucceedsInstanceE,56,32
 1073              		.local	_ZN12_GLOBAL__N_128adderValidCheckCloseSucceedsE
 1074              		.comm	_ZN12_GLOBAL__N_128adderValidCheckCloseSucceedsE,1,1
 1075              		.section	.rodata
 1076              		.align 8
 1077              	.LC18:
 1078 0168 556E6861 		.string	"Unhandled exception in CHECK_CLOSE(2.0f, 2.001f)"
 1078      6E646C65 
 1078      64206578 
 1078      63657074 
 1078      696F6E20 
 1079 0199 00000000 		.align 8
 1079      000000
 1080              	.LC19:
 1081 01a0 556E6861 		.string	"Unhandled exception in CHECK_CLOSE(2.001f, 2.0f)"
 1081      6E646C65 
 1081      64206578 
 1081      63657074 
 1081      696F6E20 
 1082              		.text
 1083 0565 90       		.align 2
 1085              	_ZNK12_GLOBAL__N_127TestValidCheckCloseSucceeds7RunImplEv:
 1086              	.LFB1361:
  38:TestUnitTest++.cpp **** {
 1087              		.loc 4 38 0
 1088              		.cfi_startproc
 1089              		.cfi_personality 0x3,__gxx_personality_v0
 1090              		.cfi_lsda 0x3,.LLSDA1361
 1091 0566 55       		pushq	%rbp
 1092              		.cfi_def_cfa_offset 16
 1093              		.cfi_offset 6, -16
 1094 0567 4889E5   		movq	%rsp, %rbp
 1095              		.cfi_def_cfa_register 6
 1096 056a 53       		pushq	%rbx
 1097 056b 4883EC58 		subq	$88, %rsp
 1098              		.cfi_offset 3, -24
 1099 056f 48897DA8 		movq	%rdi, -88(%rbp)
 1100              		.loc 4 38 0
 1101 0573 64488B04 		movq	%fs:40, %rax
 1101      25280000 
 1101      00
 1102 057c 488945E8 		movq	%rax, -24(%rbp)
 1103 0580 31C0     		xorl	%eax, %eax
 1104              	.LEHB24:
  39:TestUnitTest++.cpp ****     CHECK_CLOSE(2.0f, 2.001f, 0.01f);
 1105              		.loc 4 39 0
 1106 0582 E8000000 		call	_ZN8UnitTest11CurrentTest7DetailsEv
 1106      00
 1107 0587 488B08   		movq	(%rax), %rcx
 1108 058a 488D45C0 		leaq	-64(%rbp), %rax
 1109 058e BA270000 		movl	$39, %edx
 1109      00
 1110 0593 4889CE   		movq	%rcx, %rsi
 1111 0596 4889C7   		movq	%rax, %rdi
 1112 0599 E8000000 		call	_ZN8UnitTest11TestDetailsC1ERKS0_i
 1112      00
 1113              		.loc 4 39 0 is_stmt 0 discriminator 2
 1114 059e 8B050000 		movl	.LC15(%rip), %eax
 1114      0000
 1115 05a4 8945BC   		movl	%eax, -68(%rbp)
 1116 05a7 8B050000 		movl	.LC16(%rip), %eax
 1116      0000
 1117 05ad 8945B8   		movl	%eax, -72(%rbp)
 1118 05b0 8B050000 		movl	.LC17(%rip), %eax
 1118      0000
 1119 05b6 8945B4   		movl	%eax, -76(%rbp)
 1120 05b9 E8000000 		call	_ZN8UnitTest11CurrentTest7ResultsEv
 1120      00
 1121 05be 488B00   		movq	(%rax), %rax
 1122 05c1 488D7DC0 		leaq	-64(%rbp), %rdi
 1123 05c5 488D4DBC 		leaq	-68(%rbp), %rcx
 1124 05c9 488D55B8 		leaq	-72(%rbp), %rdx
 1125 05cd 488D75B4 		leaq	-76(%rbp), %rsi
 1126 05d1 4989F8   		movq	%rdi, %r8
 1127 05d4 4889C7   		movq	%rax, %rdi
 1128 05d7 E8000000 		call	_ZN8UnitTest10CheckCloseIfffEEvRNS_11TestResultsERKT_RKT0_RKT1_RKNS_11TestDetailsE
 1128      00
 1129              	.LEHE24:
 1130              	.L56:
 1131              	.LEHB25:
  40:TestUnitTest++.cpp ****     CHECK_CLOSE(2.001f, 2.0f, 0.01f);
 1132              		.loc 4 40 0 is_stmt 1
 1133 05dc E8000000 		call	_ZN8UnitTest11CurrentTest7DetailsEv
 1133      00
 1134 05e1 488B08   		movq	(%rax), %rcx
 1135 05e4 488D45C0 		leaq	-64(%rbp), %rax
 1136 05e8 BA280000 		movl	$40, %edx
 1136      00
 1137 05ed 4889CE   		movq	%rcx, %rsi
 1138 05f0 4889C7   		movq	%rax, %rdi
 1139 05f3 E8000000 		call	_ZN8UnitTest11TestDetailsC1ERKS0_i
 1139      00
 1140              		.loc 4 40 0 is_stmt 0 discriminator 2
 1141 05f8 8B050000 		movl	.LC15(%rip), %eax
 1141      0000
 1142 05fe 8945BC   		movl	%eax, -68(%rbp)
 1143 0601 8B050000 		movl	.LC17(%rip), %eax
 1143      0000
 1144 0607 8945B8   		movl	%eax, -72(%rbp)
 1145 060a 8B050000 		movl	.LC16(%rip), %eax
 1145      0000
 1146 0610 8945B4   		movl	%eax, -76(%rbp)
 1147 0613 E8000000 		call	_ZN8UnitTest11CurrentTest7ResultsEv
 1147      00
 1148 0618 488B00   		movq	(%rax), %rax
 1149 061b 488D7DC0 		leaq	-64(%rbp), %rdi
 1150 061f 488D4DBC 		leaq	-68(%rbp), %rcx
 1151 0623 488D55B8 		leaq	-72(%rbp), %rdx
 1152 0627 488D75B4 		leaq	-76(%rbp), %rsi
 1153 062b 4989F8   		movq	%rdi, %r8
 1154 062e 4889C7   		movq	%rax, %rdi
 1155 0631 E8000000 		call	_ZN8UnitTest10CheckCloseIfffEEvRNS_11TestResultsERKT_RKT0_RKT1_RKNS_11TestDetailsE
 1155      00
 1156              	.LEHE25:
  41:TestUnitTest++.cpp **** }
 1157              		.loc 4 41 0 is_stmt 1
 1158 0636 E9B50000 		jmp	.L65
 1158      00
 1159              	.L62:
 1160 063b 4889C3   		movq	%rax, %rbx
  39:TestUnitTest++.cpp ****     CHECK_CLOSE(2.0f, 2.001f, 0.01f);
 1161              		.loc 4 39 0
 1162 063e E8000000 		call	__cxa_end_catch
 1162      00
 1163 0643 4889D8   		movq	%rbx, %rax
 1164 0646 4889C7   		movq	%rax, %rdi
 1165              	.LEHB26:
 1166 0649 E8000000 		call	_Unwind_Resume
 1166      00
 1167              	.LEHE26:
 1168              	.L61:
 1169 064e 4889C7   		movq	%rax, %rdi
 1170 0651 E8000000 		call	__cxa_begin_catch
 1170      00
 1171              	.LEHB27:
 1172 0656 E8000000 		call	_ZN8UnitTest11CurrentTest7DetailsEv
 1172      00
 1173 065b 488B08   		movq	(%rax), %rcx
 1174 065e 488D45C0 		leaq	-64(%rbp), %rax
 1175 0662 BA270000 		movl	$39, %edx
 1175      00
 1176 0667 4889CE   		movq	%rcx, %rsi
 1177 066a 4889C7   		movq	%rax, %rdi
 1178 066d E8000000 		call	_ZN8UnitTest11TestDetailsC1ERKS0_i
 1178      00
  39:TestUnitTest++.cpp ****     CHECK_CLOSE(2.0f, 2.001f, 0.01f);
 1179              		.loc 4 39 0 is_stmt 0 discriminator 10
 1180 0672 E8000000 		call	_ZN8UnitTest11CurrentTest7ResultsEv
 1180      00
 1181 0677 488B00   		movq	(%rax), %rax
 1182 067a 488D4DC0 		leaq	-64(%rbp), %rcx
 1183 067e BA000000 		movl	$.LC18, %edx
 1183      00
 1184 0683 4889CE   		movq	%rcx, %rsi
 1185 0686 4889C7   		movq	%rax, %rdi
 1186 0689 E8000000 		call	_ZN8UnitTest11TestResults13OnTestFailureERKNS_11TestDetailsEPKc
 1186      00
 1187              	.LEHE27:
 1188              	.LEHB28:
  39:TestUnitTest++.cpp ****     CHECK_CLOSE(2.0f, 2.001f, 0.01f);
 1189              		.loc 4 39 0 discriminator 14
 1190 068e E8000000 		call	__cxa_end_catch
 1190      00
 1191              	.LEHE28:
 1192 0693 E944FFFF 		jmp	.L56
 1192      FF
 1193              	.L64:
 1194 0698 4889C3   		movq	%rax, %rbx
  40:TestUnitTest++.cpp ****     CHECK_CLOSE(2.001f, 2.0f, 0.01f);
 1195              		.loc 4 40 0 is_stmt 1
 1196 069b E8000000 		call	__cxa_end_catch
 1196      00
 1197 06a0 4889D8   		movq	%rbx, %rax
 1198 06a3 4889C7   		movq	%rax, %rdi
 1199              	.LEHB29:
 1200 06a6 E8000000 		call	_Unwind_Resume
 1200      00
 1201              	.LEHE29:
 1202              	.L63:
 1203 06ab 4889C7   		movq	%rax, %rdi
 1204 06ae E8000000 		call	__cxa_begin_catch
 1204      00
 1205              	.LEHB30:
 1206 06b3 E8000000 		call	_ZN8UnitTest11CurrentTest7DetailsEv
 1206      00
 1207 06b8 488B08   		movq	(%rax), %rcx
 1208 06bb 488D45C0 		leaq	-64(%rbp), %rax
 1209 06bf BA280000 		movl	$40, %edx
 1209      00
 1210 06c4 4889CE   		movq	%rcx, %rsi
 1211 06c7 4889C7   		movq	%rax, %rdi
 1212 06ca E8000000 		call	_ZN8UnitTest11TestDetailsC1ERKS0_i
 1212      00
  40:TestUnitTest++.cpp ****     CHECK_CLOSE(2.001f, 2.0f, 0.01f);
 1213              		.loc 4 40 0 is_stmt 0 discriminator 10
 1214 06cf E8000000 		call	_ZN8UnitTest11CurrentTest7ResultsEv
 1214      00
 1215 06d4 488B00   		movq	(%rax), %rax
 1216 06d7 488D4DC0 		leaq	-64(%rbp), %rcx
 1217 06db BA000000 		movl	$.LC19, %edx
 1217      00
 1218 06e0 4889CE   		movq	%rcx, %rsi
 1219 06e3 4889C7   		movq	%rax, %rdi
 1220 06e6 E8000000 		call	_ZN8UnitTest11TestResults13OnTestFailureERKNS_11TestDetailsEPKc
 1220      00
 1221              	.LEHE30:
 1222              	.LEHB31:
  40:TestUnitTest++.cpp ****     CHECK_CLOSE(2.001f, 2.0f, 0.01f);
 1223              		.loc 4 40 0 discriminator 14
 1224 06eb E8000000 		call	__cxa_end_catch
 1224      00
 1225              	.LEHE31:
 1226              	.L65:
 1227              		.loc 4 41 0 is_stmt 1
 1228 06f0 90       		nop
 1229 06f1 488B45E8 		movq	-24(%rbp), %rax
 1230 06f5 64483304 		xorq	%fs:40, %rax
 1230      25280000 
 1230      00
 1231 06fe 7405     		je	.L60
 1232 0700 E8000000 		call	__stack_chk_fail
 1232      00
 1233              	.L60:
 1234 0705 4883C458 		addq	$88, %rsp
 1235 0709 5B       		popq	%rbx
 1236 070a 5D       		popq	%rbp
 1237              		.cfi_def_cfa 7, 8
 1238 070b C3       		ret
 1239              		.cfi_endproc
 1240              	.LFE1361:
 1241              		.section	.gcc_except_table
 1242              		.align 4
 1243              	.LLSDA1361:
 1244 0094 FF       		.byte	0xff
 1245 0095 03       		.byte	0x3
 1246 0096 35       		.uleb128 .LLSDATT1361-.LLSDATTD1361
 1247              	.LLSDATTD1361:
 1248 0097 01       		.byte	0x1
 1249 0098 2A       		.uleb128 .LLSDACSE1361-.LLSDACSB1361
 1250              	.LLSDACSB1361:
 1251 0099 1C       		.uleb128 .LEHB24-.LFB1361
 1252 009a 5A       		.uleb128 .LEHE24-.LEHB24
 1253 009b E801     		.uleb128 .L61-.LFB1361
 1254 009d 01       		.uleb128 0x1
 1255 009e 76       		.uleb128 .LEHB25-.LFB1361
 1256 009f 5A       		.uleb128 .LEHE25-.LEHB25
 1257 00a0 C502     		.uleb128 .L63-.LFB1361
 1258 00a2 01       		.uleb128 0x1
 1259 00a3 E301     		.uleb128 .LEHB26-.LFB1361
 1260 00a5 05       		.uleb128 .LEHE26-.LEHB26
 1261 00a6 00       		.uleb128 0
 1262 00a7 00       		.uleb128 0
 1263 00a8 F001     		.uleb128 .LEHB27-.LFB1361
 1264 00aa 38       		.uleb128 .LEHE27-.LEHB27
 1265 00ab D501     		.uleb128 .L62-.LFB1361
 1266 00ad 00       		.uleb128 0
 1267 00ae A802     		.uleb128 .LEHB28-.LFB1361
 1268 00b0 05       		.uleb128 .LEHE28-.LEHB28
 1269 00b1 00       		.uleb128 0
 1270 00b2 00       		.uleb128 0
 1271 00b3 C002     		.uleb128 .LEHB29-.LFB1361
 1272 00b5 05       		.uleb128 .LEHE29-.LEHB29
 1273 00b6 00       		.uleb128 0
 1274 00b7 00       		.uleb128 0
 1275 00b8 CD02     		.uleb128 .LEHB30-.LFB1361
 1276 00ba 38       		.uleb128 .LEHE30-.LEHB30
 1277 00bb B202     		.uleb128 .L64-.LFB1361
 1278 00bd 00       		.uleb128 0
 1279 00be 8503     		.uleb128 .LEHB31-.LFB1361
 1280 00c0 05       		.uleb128 .LEHE31-.LEHB31
 1281 00c1 00       		.uleb128 0
 1282 00c2 00       		.uleb128 0
 1283              	.LLSDACSE1361:
 1284 00c3 01       		.byte	0x1
 1285 00c4 00       		.byte	0
 1286 00c5 000000   		.align 4
 1287 00c8 00000000 		.long	0
 1288              	
 1289              	.LLSDATT1361:
 1290              		.text
 1292              		.section	.rodata
 1293              	.LC20:
 1294 01d1 41727261 		.string	"ArrayCloseSucceeds"
 1294      79436C6F 
 1294      73655375 
 1294      63636565 
 1294      647300
 1295              		.text
 1296              		.align 2
 1298              	_ZN12_GLOBAL__N_122TestArrayCloseSucceedsC2Ev:
 1299              	.LFB1363:
  42:TestUnitTest++.cpp **** 
  43:TestUnitTest++.cpp **** TEST(ArrayCloseSucceeds)
 1300              		.loc 4 43 0
 1301              		.cfi_startproc
 1302 070c 55       		pushq	%rbp
 1303              		.cfi_def_cfa_offset 16
 1304              		.cfi_offset 6, -16
 1305 070d 4889E5   		movq	%rsp, %rbp
 1306              		.cfi_def_cfa_register 6
 1307 0710 4883EC10 		subq	$16, %rsp
 1308 0714 48897DF8 		movq	%rdi, -8(%rbp)
 1309              	.LBB17:
 1310              		.loc 4 43 0
 1311 0718 E8000000 		call	_ZN13UnitTestSuite12GetSuiteNameEv
 1311      00
 1312 071d 4889C2   		movq	%rax, %rdx
 1313 0720 488B45F8 		movq	-8(%rbp), %rax
 1314 0724 41B82B00 		movl	$43, %r8d
 1314      0000
 1315 072a B9000000 		movl	$.LC1, %ecx
 1315      00
 1316 072f BE000000 		movl	$.LC20, %esi
 1316      00
 1317 0734 4889C7   		movq	%rax, %rdi
 1318 0737 E8000000 		call	_ZN8UnitTest4TestC2EPKcS2_S2_i
 1318      00
 1319 073c 488B45F8 		movq	-8(%rbp), %rax
 1320 0740 48C70000 		movq	$_ZTVN12_GLOBAL__N_122TestArrayCloseSucceedsE+16, (%rax)
 1320      000000
 1321              	.LBE17:
 1322 0747 C9       		leave
 1323              		.cfi_def_cfa 7, 8
 1324 0748 C3       		ret
 1325              		.cfi_endproc
 1326              	.LFE1363:
 1328              		.local	_ZN12_GLOBAL__N_130testArrayCloseSucceedsInstanceE
 1329              		.comm	_ZN12_GLOBAL__N_130testArrayCloseSucceedsInstanceE,56,32
 1330              		.local	_ZN12_GLOBAL__N_123adderArrayCloseSucceedsE
 1331              		.comm	_ZN12_GLOBAL__N_123adderArrayCloseSucceedsE,1,1
 1332              		.section	.rodata
 1333 01e4 00000000 		.align 8
 1334              	.LC25:
 1335 01e8 556E6861 		.string	"Unhandled exception in CHECK_ARRAY_CLOSE(a1, a2)"
 1335      6E646C65 
 1335      64206578 
 1335      63657074 
 1335      696F6E20 
 1336              		.text
 1337 0749 90       		.align 2
 1339              	_ZNK12_GLOBAL__N_122TestArrayCloseSucceeds7RunImplEv:
 1340              	.LFB1365:
  44:TestUnitTest++.cpp **** {
 1341              		.loc 4 44 0
 1342              		.cfi_startproc
 1343              		.cfi_personality 0x3,__gxx_personality_v0
 1344              		.cfi_lsda 0x3,.LLSDA1365
 1345 074a 55       		pushq	%rbp
 1346              		.cfi_def_cfa_offset 16
 1347              		.cfi_offset 6, -16
 1348 074b 4889E5   		movq	%rsp, %rbp
 1349              		.cfi_def_cfa_register 6
 1350 074e 53       		pushq	%rbx
 1351 074f 4883EC78 		subq	$120, %rsp
 1352              		.cfi_offset 3, -24
 1353 0753 48897D88 		movq	%rdi, -120(%rbp)
 1354              		.loc 4 44 0
 1355 0757 64488B04 		movq	%fs:40, %rax
 1355      25280000 
 1355      00
 1356 0760 488945E8 		movq	%rax, -24(%rbp)
 1357 0764 31C0     		xorl	%eax, %eax
 1358              	.LBB18:
  45:TestUnitTest++.cpp ****     float const a1[] = {1, 2, 3};
 1359              		.loc 4 45 0
 1360 0766 8B050000 		movl	.LC21(%rip), %eax
 1360      0000
 1361 076c 8945A0   		movl	%eax, -96(%rbp)
 1362 076f 8B050000 		movl	.LC17(%rip), %eax
 1362      0000
 1363 0775 8945A4   		movl	%eax, -92(%rbp)
 1364 0778 8B050000 		movl	.LC22(%rip), %eax
 1364      0000
 1365 077e 8945A8   		movl	%eax, -88(%rbp)
  46:TestUnitTest++.cpp ****     float const a2[] = {1, 2.01f, 3};
 1366              		.loc 4 46 0
 1367 0781 8B050000 		movl	.LC21(%rip), %eax
 1367      0000
 1368 0787 8945B0   		movl	%eax, -80(%rbp)
 1369 078a 8B050000 		movl	.LC23(%rip), %eax
 1369      0000
 1370 0790 8945B4   		movl	%eax, -76(%rbp)
 1371 0793 8B050000 		movl	.LC22(%rip), %eax
 1371      0000
 1372 0799 8945B8   		movl	%eax, -72(%rbp)
 1373              	.LEHB32:
  47:TestUnitTest++.cpp ****     CHECK_ARRAY_CLOSE(a1, a2, 3, 0.1f);
 1374              		.loc 4 47 0
 1375 079c E8000000 		call	_ZN8UnitTest11CurrentTest7DetailsEv
 1375      00
 1376 07a1 488B08   		movq	(%rax), %rcx
 1377 07a4 488D45C0 		leaq	-64(%rbp), %rax
 1378 07a8 BA2F0000 		movl	$47, %edx
 1378      00
 1379 07ad 4889CE   		movq	%rcx, %rsi
 1380 07b0 4889C7   		movq	%rax, %rdi
 1381 07b3 E8000000 		call	_ZN8UnitTest11TestDetailsC1ERKS0_i
 1381      00
 1382              		.loc 4 47 0 is_stmt 0 discriminator 2
 1383 07b8 8B050000 		movl	.LC24(%rip), %eax
 1383      0000
 1384 07be 89459C   		movl	%eax, -100(%rbp)
 1385 07c1 E8000000 		call	_ZN8UnitTest11CurrentTest7ResultsEv
 1385      00
 1386 07c6 488B00   		movq	(%rax), %rax
 1387 07c9 488D7DC0 		leaq	-64(%rbp), %rdi
 1388 07cd 488D4D9C 		leaq	-100(%rbp), %rcx
 1389 07d1 488D55B0 		leaq	-80(%rbp), %rdx
 1390 07d5 488D75A0 		leaq	-96(%rbp), %rsi
 1391 07d9 4989F9   		movq	%rdi, %r9
 1392 07dc 4989C8   		movq	%rcx, %r8
 1393 07df B9030000 		movl	$3, %ecx
 1393      00
 1394 07e4 4889C7   		movq	%rax, %rdi
 1395 07e7 E8000000 		call	_ZN8UnitTest15CheckArrayCloseIA3_fS1_fEEvRNS_11TestResultsERKT_RKT0_iRKT1_RKNS_11TestDetailsE
 1395      00
 1396              	.LEHE32:
 1397              	.LBE18:
  48:TestUnitTest++.cpp **** }
 1398              		.loc 4 48 0 is_stmt 1
 1399 07ec EB58     		jmp	.L74
 1400              	.L73:
 1401 07ee 4889C3   		movq	%rax, %rbx
 1402              	.LBB19:
  47:TestUnitTest++.cpp ****     CHECK_ARRAY_CLOSE(a1, a2, 3, 0.1f);
 1403              		.loc 4 47 0
 1404 07f1 E8000000 		call	__cxa_end_catch
 1404      00
 1405 07f6 4889D8   		movq	%rbx, %rax
 1406 07f9 4889C7   		movq	%rax, %rdi
 1407              	.LEHB33:
 1408 07fc E8000000 		call	_Unwind_Resume
 1408      00
 1409              	.LEHE33:
 1410              	.L72:
 1411 0801 4889C7   		movq	%rax, %rdi
 1412 0804 E8000000 		call	__cxa_begin_catch
 1412      00
 1413              	.LEHB34:
 1414 0809 E8000000 		call	_ZN8UnitTest11CurrentTest7DetailsEv
 1414      00
 1415 080e 488B08   		movq	(%rax), %rcx
 1416 0811 488D45C0 		leaq	-64(%rbp), %rax
 1417 0815 BA2F0000 		movl	$47, %edx
 1417      00
 1418 081a 4889CE   		movq	%rcx, %rsi
 1419 081d 4889C7   		movq	%rax, %rdi
 1420 0820 E8000000 		call	_ZN8UnitTest11TestDetailsC1ERKS0_i
 1420      00
  47:TestUnitTest++.cpp ****     CHECK_ARRAY_CLOSE(a1, a2, 3, 0.1f);
 1421              		.loc 4 47 0 is_stmt 0 discriminator 10
 1422 0825 E8000000 		call	_ZN8UnitTest11CurrentTest7ResultsEv
 1422      00
 1423 082a 488B00   		movq	(%rax), %rax
 1424 082d 488D4DC0 		leaq	-64(%rbp), %rcx
 1425 0831 BA000000 		movl	$.LC25, %edx
 1425      00
 1426 0836 4889CE   		movq	%rcx, %rsi
 1427 0839 4889C7   		movq	%rax, %rdi
 1428 083c E8000000 		call	_ZN8UnitTest11TestResults13OnTestFailureERKNS_11TestDetailsEPKc
 1428      00
 1429              	.LEHE34:
 1430              	.LEHB35:
  47:TestUnitTest++.cpp ****     CHECK_ARRAY_CLOSE(a1, a2, 3, 0.1f);
 1431              		.loc 4 47 0 discriminator 14
 1432 0841 E8000000 		call	__cxa_end_catch
 1432      00
 1433              	.LEHE35:
 1434              	.L74:
 1435              	.LBE19:
 1436              		.loc 4 48 0 is_stmt 1
 1437 0846 90       		nop
 1438 0847 488B45E8 		movq	-24(%rbp), %rax
 1439 084b 64483304 		xorq	%fs:40, %rax
 1439      25280000 
 1439      00
 1440 0854 7405     		je	.L71
 1441 0856 E8000000 		call	__stack_chk_fail
 1441      00
 1442              	.L71:
 1443 085b 4883C478 		addq	$120, %rsp
 1444 085f 5B       		popq	%rbx
 1445 0860 5D       		popq	%rbp
 1446              		.cfi_def_cfa 7, 8
 1447 0861 C3       		ret
 1448              		.cfi_endproc
 1449              	.LFE1365:
 1450              		.section	.gcc_except_table
 1451              		.align 4
 1452              	.LLSDA1365:
 1453 00cc FF       		.byte	0xff
 1454 00cd 03       		.byte	0x3
 1455 00ce 1D       		.uleb128 .LLSDATT1365-.LLSDATTD1365
 1456              	.LLSDATTD1365:
 1457 00cf 01       		.byte	0x1
 1458 00d0 15       		.uleb128 .LLSDACSE1365-.LLSDACSB1365
 1459              	.LLSDACSB1365:
 1460 00d1 52       		.uleb128 .LEHB32-.LFB1365
 1461 00d2 50       		.uleb128 .LEHE32-.LEHB32
 1462 00d3 B701     		.uleb128 .L72-.LFB1365
 1463 00d5 01       		.uleb128 0x1
 1464 00d6 B201     		.uleb128 .LEHB33-.LFB1365
 1465 00d8 05       		.uleb128 .LEHE33-.LEHB33
 1466 00d9 00       		.uleb128 0
 1467 00da 00       		.uleb128 0
 1468 00db BF01     		.uleb128 .LEHB34-.LFB1365
 1469 00dd 38       		.uleb128 .LEHE34-.LEHB34
 1470 00de A401     		.uleb128 .L73-.LFB1365
 1471 00e0 00       		.uleb128 0
 1472 00e1 F701     		.uleb128 .LEHB35-.LFB1365
 1473 00e3 05       		.uleb128 .LEHE35-.LEHB35
 1474 00e4 00       		.uleb128 0
 1475 00e5 00       		.uleb128 0
 1476              	.LLSDACSE1365:
 1477 00e6 01       		.byte	0x1
 1478 00e7 00       		.byte	0
 1479              		.align 4
 1480 00e8 00000000 		.long	0
 1481              	
 1482              	.LLSDATT1365:
 1483              		.text
 1485              		.section	.rodata
 1486 0219 00000000 		.align 8
 1486      000000
 1487              	.LC26:
 1488 0220 43686563 		.string	"CheckArrayCloseWorksWithVectors"
 1488      6B417272 
 1488      6179436C 
 1488      6F736557 
 1488      6F726B73 
 1489              		.text
 1490              		.align 2
 1492              	_ZN12_GLOBAL__N_135TestCheckArrayCloseWorksWithVectorsC2Ev:
 1493              	.LFB1367:
  49:TestUnitTest++.cpp **** 
  50:TestUnitTest++.cpp **** TEST (CheckArrayCloseWorksWithVectors)
 1494              		.loc 4 50 0
 1495              		.cfi_startproc
 1496 0862 55       		pushq	%rbp
 1497              		.cfi_def_cfa_offset 16
 1498              		.cfi_offset 6, -16
 1499 0863 4889E5   		movq	%rsp, %rbp
 1500              		.cfi_def_cfa_register 6
 1501 0866 4883EC10 		subq	$16, %rsp
 1502 086a 48897DF8 		movq	%rdi, -8(%rbp)
 1503              	.LBB20:
 1504              		.loc 4 50 0
 1505 086e E8000000 		call	_ZN13UnitTestSuite12GetSuiteNameEv
 1505      00
 1506 0873 4889C2   		movq	%rax, %rdx
 1507 0876 488B45F8 		movq	-8(%rbp), %rax
 1508 087a 41B83200 		movl	$50, %r8d
 1508      0000
 1509 0880 B9000000 		movl	$.LC1, %ecx
 1509      00
 1510 0885 BE000000 		movl	$.LC26, %esi
 1510      00
 1511 088a 4889C7   		movq	%rax, %rdi
 1512 088d E8000000 		call	_ZN8UnitTest4TestC2EPKcS2_S2_i
 1512      00
 1513 0892 488B45F8 		movq	-8(%rbp), %rax
 1514 0896 48C70000 		movq	$_ZTVN12_GLOBAL__N_135TestCheckArrayCloseWorksWithVectorsE+16, (%rax)
 1514      000000
 1515              	.LBE20:
 1516 089d C9       		leave
 1517              		.cfi_def_cfa 7, 8
 1518 089e C3       		ret
 1519              		.cfi_endproc
 1520              	.LFE1367:
 1522              		.local	_ZN12_GLOBAL__N_143testCheckArrayCloseWorksWithVectorsInstanceE
 1523              		.comm	_ZN12_GLOBAL__N_143testCheckArrayCloseWorksWithVectorsInstanceE,56,32
 1524              		.local	_ZN12_GLOBAL__N_136adderCheckArrayCloseWorksWithVectorsE
 1525              		.comm	_ZN12_GLOBAL__N_136adderCheckArrayCloseWorksWithVectorsE,1,1
 1526              		.section	.rodata
 1527              		.align 8
 1528              	.LC29:
 1529 0240 556E6861 		.string	"Unhandled exception in CHECK_ARRAY_CLOSE(a, a)"
 1529      6E646C65 
 1529      64206578 
 1529      63657074 
 1529      696F6E20 
 1530              		.text
 1531 089f 90       		.align 2
 1533              	_ZNK12_GLOBAL__N_135TestCheckArrayCloseWorksWithVectors7RunImplEv:
 1534              	.LFB1369:
  51:TestUnitTest++.cpp **** {
 1535              		.loc 4 51 0
 1536              		.cfi_startproc
 1537              		.cfi_personality 0x3,__gxx_personality_v0
 1538              		.cfi_lsda 0x3,.LLSDA1369
 1539 08a0 55       		pushq	%rbp
 1540              		.cfi_def_cfa_offset 16
 1541              		.cfi_offset 6, -16
 1542 08a1 4889E5   		movq	%rsp, %rbp
 1543              		.cfi_def_cfa_register 6
 1544 08a4 53       		pushq	%rbx
 1545 08a5 4883EC78 		subq	$120, %rsp
 1546              		.cfi_offset 3, -24
 1547 08a9 48897D88 		movq	%rdi, -120(%rbp)
 1548              		.loc 4 51 0
 1549 08ad 64488B04 		movq	%fs:40, %rax
 1549      25280000 
 1549      00
 1550 08b6 488945E8 		movq	%rax, -24(%rbp)
 1551 08ba 31C0     		xorl	%eax, %eax
 1552              	.LBB21:
  52:TestUnitTest++.cpp ****     std::vector< float > a(4);
 1553              		.loc 4 52 0
 1554 08bc 488D4598 		leaq	-104(%rbp), %rax
 1555 08c0 4889C7   		movq	%rax, %rdi
 1556 08c3 E8000000 		call	_ZNSaIfEC1Ev
 1556      00
 1557 08c8 8B050000 		movl	.LC27(%rip), %eax
 1557      0000
 1558 08ce 8945C0   		movl	%eax, -64(%rbp)
 1559 08d1 488D4D98 		leaq	-104(%rbp), %rcx
 1560 08d5 488D55C0 		leaq	-64(%rbp), %rdx
 1561 08d9 488D45A0 		leaq	-96(%rbp), %rax
 1562 08dd BE040000 		movl	$4, %esi
 1562      00
 1563 08e2 4889C7   		movq	%rax, %rdi
 1564              	.LEHB36:
 1565 08e5 E8000000 		call	_ZNSt6vectorIfSaIfEEC1EmRKfRKS0_
 1565      00
 1566              	.LEHE36:
 1567              		.loc 4 52 0 is_stmt 0 discriminator 2
 1568 08ea 488D4598 		leaq	-104(%rbp), %rax
 1569 08ee 4889C7   		movq	%rax, %rdi
 1570 08f1 E8000000 		call	_ZNSaIfED1Ev
 1570      00
 1571              	.LBB22:
  53:TestUnitTest++.cpp ****     for (int i = 0; i < 4; ++i)
 1572              		.loc 4 53 0 is_stmt 1 discriminator 2
 1573 08f6 C7459C00 		movl	$0, -100(%rbp)
 1573      000000
 1574 08fd EB2B     		jmp	.L77
 1575              	.L78:
  54:TestUnitTest++.cpp ****         a[i] = (float)i;
 1576              		.loc 4 54 0 discriminator 3
 1577 08ff 8B459C   		movl	-100(%rbp), %eax
 1578 0902 4863D0   		movslq	%eax, %rdx
 1579 0905 488D45A0 		leaq	-96(%rbp), %rax
 1580 0909 4889D6   		movq	%rdx, %rsi
 1581 090c 4889C7   		movq	%rax, %rdi
 1582 090f E8000000 		call	_ZNSt6vectorIfSaIfEEixEm
 1582      00
 1583 0914 4889C2   		movq	%rax, %rdx
 1584 0917 660FEFC0 		pxor	%xmm0, %xmm0
 1585 091b F30F2A45 		cvtsi2ss	-100(%rbp), %xmm0
 1585      9C
 1586 0920 660F7EC0 		movd	%xmm0, %eax
 1587 0924 8902     		movl	%eax, (%rdx)
  53:TestUnitTest++.cpp ****     for (int i = 0; i < 4; ++i)
 1588              		.loc 4 53 0 discriminator 3
 1589 0926 83459C01 		addl	$1, -100(%rbp)
 1590              	.L77:
  53:TestUnitTest++.cpp ****     for (int i = 0; i < 4; ++i)
 1591              		.loc 4 53 0 is_stmt 0 discriminator 1
 1592 092a 837D9C03 		cmpl	$3, -100(%rbp)
 1593 092e 7ECF     		jle	.L78
 1594              	.LEHB37:
 1595              	.LBE22:
  55:TestUnitTest++.cpp **** 
  56:TestUnitTest++.cpp ****     CHECK_ARRAY_CLOSE(a, a, (int)a.size(), 0.0001f);
 1596              		.loc 4 56 0 is_stmt 1
 1597 0930 E8000000 		call	_ZN8UnitTest11CurrentTest7DetailsEv
 1597      00
 1598 0935 488B08   		movq	(%rax), %rcx
 1599 0938 488D45C0 		leaq	-64(%rbp), %rax
 1600 093c BA380000 		movl	$56, %edx
 1600      00
 1601 0941 4889CE   		movq	%rcx, %rsi
 1602 0944 4889C7   		movq	%rax, %rdi
 1603 0947 E8000000 		call	_ZN8UnitTest11TestDetailsC1ERKS0_i
 1603      00
 1604              		.loc 4 56 0 is_stmt 0 discriminator 2
 1605 094c 8B050000 		movl	.LC28(%rip), %eax
 1605      0000
 1606 0952 894598   		movl	%eax, -104(%rbp)
 1607 0955 488D45A0 		leaq	-96(%rbp), %rax
 1608 0959 4889C7   		movq	%rax, %rdi
 1609 095c E8000000 		call	_ZNKSt6vectorIfSaIfEE4sizeEv
 1609      00
 1610 0961 89C3     		movl	%eax, %ebx
 1611 0963 E8000000 		call	_ZN8UnitTest11CurrentTest7ResultsEv
 1611      00
 1612 0968 488B00   		movq	(%rax), %rax
 1613 096b 488D7DC0 		leaq	-64(%rbp), %rdi
 1614 096f 488D4D98 		leaq	-104(%rbp), %rcx
 1615 0973 488D55A0 		leaq	-96(%rbp), %rdx
 1616 0977 488D75A0 		leaq	-96(%rbp), %rsi
 1617 097b 4989F9   		movq	%rdi, %r9
 1618 097e 4989C8   		movq	%rcx, %r8
 1619 0981 89D9     		movl	%ebx, %ecx
 1620 0983 4889C7   		movq	%rax, %rdi
 1621 0986 E8000000 		call	_ZN8UnitTest15CheckArrayCloseISt6vectorIfSaIfEES3_fEEvRNS_11TestResultsERKT_RKT0_iRKT1_RKNS_1
 1621      00
 1622              	.LEHE37:
 1623              	.L83:
 1624              		.loc 4 56 0 discriminator 7
 1625 098b 488D45A0 		leaq	-96(%rbp), %rax
 1626 098f 4889C7   		movq	%rax, %rdi
 1627              	.LEHB38:
 1628 0992 E8000000 		call	_ZNSt6vectorIfSaIfEED1Ev
 1628      00
 1629              	.LBE21:
  57:TestUnitTest++.cpp **** }
 1630              		.loc 4 57 0 is_stmt 1 discriminator 7
 1631 0997 488B45E8 		movq	-24(%rbp), %rax
 1632 099b 64483304 		xorq	%fs:40, %rax
 1632      25280000 
 1632      00
 1633 09a4 0F849200 		je	.L84
 1633      0000
 1634 09aa E9880000 		jmp	.L89
 1634      00
 1635              	.L85:
 1636 09af 4889C3   		movq	%rax, %rbx
 1637              	.LBB23:
 1638 09b2 488D4598 		leaq	-104(%rbp), %rax
 1639 09b6 4889C7   		movq	%rax, %rdi
 1640 09b9 E8000000 		call	_ZNSaIfED1Ev
 1640      00
 1641 09be 4889D8   		movq	%rbx, %rax
 1642 09c1 4889C7   		movq	%rax, %rdi
 1643 09c4 E8000000 		call	_Unwind_Resume
 1643      00
 1644              	.LEHE38:
 1645              	.L88:
 1646 09c9 4889C3   		movq	%rax, %rbx
  56:TestUnitTest++.cpp **** }
 1647              		.loc 4 56 0
 1648 09cc E8000000 		call	__cxa_end_catch
 1648      00
 1649 09d1 EB4D     		jmp	.L81
 1650              	.L86:
 1651 09d3 4889C7   		movq	%rax, %rdi
 1652 09d6 E8000000 		call	__cxa_begin_catch
 1652      00
 1653              	.LEHB39:
 1654 09db E8000000 		call	_ZN8UnitTest11CurrentTest7DetailsEv
 1654      00
 1655 09e0 488B08   		movq	(%rax), %rcx
 1656 09e3 488D45C0 		leaq	-64(%rbp), %rax
 1657 09e7 BA380000 		movl	$56, %edx
 1657      00
 1658 09ec 4889CE   		movq	%rcx, %rsi
 1659 09ef 4889C7   		movq	%rax, %rdi
 1660 09f2 E8000000 		call	_ZN8UnitTest11TestDetailsC1ERKS0_i
 1660      00
  56:TestUnitTest++.cpp **** }
 1661              		.loc 4 56 0 is_stmt 0 discriminator 11
 1662 09f7 E8000000 		call	_ZN8UnitTest11CurrentTest7ResultsEv
 1662      00
 1663 09fc 488B00   		movq	(%rax), %rax
 1664 09ff 488D4DC0 		leaq	-64(%rbp), %rcx
 1665 0a03 BA000000 		movl	$.LC29, %edx
 1665      00
 1666 0a08 4889CE   		movq	%rcx, %rsi
 1667 0a0b 4889C7   		movq	%rax, %rdi
 1668 0a0e E8000000 		call	_ZN8UnitTest11TestResults13OnTestFailureERKNS_11TestDetailsEPKc
 1668      00
 1669              	.LEHE39:
 1670              	.LEHB40:
  56:TestUnitTest++.cpp **** }
 1671              		.loc 4 56 0 discriminator 15
 1672 0a13 E8000000 		call	__cxa_end_catch
 1672      00
 1673              	.LEHE40:
  56:TestUnitTest++.cpp **** }
 1674              		.loc 4 56 0
 1675 0a18 E96EFFFF 		jmp	.L83
 1675      FF
 1676              	.L87:
 1677 0a1d 4889C3   		movq	%rax, %rbx
 1678              	.L81:
  56:TestUnitTest++.cpp **** }
 1679              		.loc 4 56 0 discriminator 16
 1680 0a20 488D45A0 		leaq	-96(%rbp), %rax
 1681 0a24 4889C7   		movq	%rax, %rdi
 1682 0a27 E8000000 		call	_ZNSt6vectorIfSaIfEED1Ev
 1682      00
 1683 0a2c 4889D8   		movq	%rbx, %rax
 1684 0a2f 4889C7   		movq	%rax, %rdi
 1685              	.LEHB41:
 1686 0a32 E8000000 		call	_Unwind_Resume
 1686      00
 1687              	.LEHE41:
 1688              	.L89:
 1689              	.LBE23:
 1690              		.loc 4 57 0 is_stmt 1
 1691 0a37 E8000000 		call	__stack_chk_fail
 1691      00
 1692              	.L84:
 1693 0a3c 4883C478 		addq	$120, %rsp
 1694 0a40 5B       		popq	%rbx
 1695 0a41 5D       		popq	%rbp
 1696              		.cfi_def_cfa 7, 8
 1697 0a42 C3       		ret
 1698              		.cfi_endproc
 1699              	.LFE1369:
 1700              		.section	.gcc_except_table
 1701              		.align 4
 1702              	.LLSDA1369:
 1703 00ec FF       		.byte	0xff
 1704 00ed 03       		.byte	0x3
 1705 00ee 29       		.uleb128 .LLSDATT1369-.LLSDATTD1369
 1706              	.LLSDATTD1369:
 1707 00ef 01       		.byte	0x1
 1708 00f0 21       		.uleb128 .LLSDACSE1369-.LLSDACSB1369
 1709              	.LLSDACSB1369:
 1710 00f1 45       		.uleb128 .LEHB36-.LFB1369
 1711 00f2 05       		.uleb128 .LEHE36-.LEHB36
 1712 00f3 8F02     		.uleb128 .L85-.LFB1369
 1713 00f5 00       		.uleb128 0
 1714 00f6 9001     		.uleb128 .LEHB37-.LFB1369
 1715 00f8 5B       		.uleb128 .LEHE37-.LEHB37
 1716 00f9 B302     		.uleb128 .L86-.LFB1369
 1717 00fb 01       		.uleb128 0x1
 1718 00fc F201     		.uleb128 .LEHB38-.LFB1369
 1719 00fe 37       		.uleb128 .LEHE38-.LEHB38
 1720 00ff 00       		.uleb128 0
 1721 0100 00       		.uleb128 0
 1722 0101 BB02     		.uleb128 .LEHB39-.LFB1369
 1723 0103 38       		.uleb128 .LEHE39-.LEHB39
 1724 0104 A902     		.uleb128 .L88-.LFB1369
 1725 0106 00       		.uleb128 0
 1726 0107 F302     		.uleb128 .LEHB40-.LFB1369
 1727 0109 05       		.uleb128 .LEHE40-.LEHB40
 1728 010a FD02     		.uleb128 .L87-.LFB1369
 1729 010c 00       		.uleb128 0
 1730 010d 9203     		.uleb128 .LEHB41-.LFB1369
 1731 010f 05       		.uleb128 .LEHE41-.LEHB41
 1732 0110 00       		.uleb128 0
 1733 0111 00       		.uleb128 0
 1734              	.LLSDACSE1369:
 1735 0112 01       		.byte	0x1
 1736 0113 00       		.byte	0
 1737              		.align 4
 1738 0114 00000000 		.long	0
 1739              	
 1740              	.LLSDATT1369:
 1741              		.text
 1743              		.section	.rodata
 1744 026f 00       		.align 8
 1745              	.LC30:
 1746 0270 43686563 		.string	"CheckThrowMacroSucceedsOnCorrectException"
 1746      6B546872 
 1746      6F774D61 
 1746      63726F53 
 1746      75636365 
 1747              		.text
 1748 0a43 90       		.align 2
 1750              	_ZN12_GLOBAL__N_145TestCheckThrowMacroSucceedsOnCorrectExceptionC2Ev:
 1751              	.LFB1371:
  58:TestUnitTest++.cpp **** 
  59:TestUnitTest++.cpp **** TEST(CheckThrowMacroSucceedsOnCorrectException)
 1752              		.loc 4 59 0
 1753              		.cfi_startproc
 1754 0a44 55       		pushq	%rbp
 1755              		.cfi_def_cfa_offset 16
 1756              		.cfi_offset 6, -16
 1757 0a45 4889E5   		movq	%rsp, %rbp
 1758              		.cfi_def_cfa_register 6
 1759 0a48 4883EC10 		subq	$16, %rsp
 1760 0a4c 48897DF8 		movq	%rdi, -8(%rbp)
 1761              	.LBB24:
 1762              		.loc 4 59 0
 1763 0a50 E8000000 		call	_ZN13UnitTestSuite12GetSuiteNameEv
 1763      00
 1764 0a55 4889C2   		movq	%rax, %rdx
 1765 0a58 488B45F8 		movq	-8(%rbp), %rax
 1766 0a5c 41B83B00 		movl	$59, %r8d
 1766      0000
 1767 0a62 B9000000 		movl	$.LC1, %ecx
 1767      00
 1768 0a67 BE000000 		movl	$.LC30, %esi
 1768      00
 1769 0a6c 4889C7   		movq	%rax, %rdi
 1770 0a6f E8000000 		call	_ZN8UnitTest4TestC2EPKcS2_S2_i
 1770      00
 1771 0a74 488B45F8 		movq	-8(%rbp), %rax
 1772 0a78 48C70000 		movq	$_ZTVN12_GLOBAL__N_145TestCheckThrowMacroSucceedsOnCorrectExceptionE+16, (%rax)
 1772      000000
 1773              	.LBE24:
 1774 0a7f C9       		leave
 1775              		.cfi_def_cfa 7, 8
 1776 0a80 C3       		ret
 1777              		.cfi_endproc
 1778              	.LFE1371:
 1780              		.local	_ZN12_GLOBAL__N_153testCheckThrowMacroSucceedsOnCorrectExceptionInstanceE
 1781              		.comm	_ZN12_GLOBAL__N_153testCheckThrowMacroSucceedsOnCorrectExceptionInstanceE,56,32
 1782              		.local	_ZN12_GLOBAL__N_146adderCheckThrowMacroSucceedsOnCorrectExceptionE
 1783              		.comm	_ZN12_GLOBAL__N_146adderCheckThrowMacroSucceedsOnCorrectExceptionE,1,1
 1784              		.section	.rodata
 1785 029a 00000000 		.align 8
 1785      0000
 1786              	.LC31:
 1787 02a0 45787065 		.string	"Expected exception: \"TestException\" not thrown"
 1787      63746564 
 1787      20657863 
 1787      65707469 
 1787      6F6E3A20 
 1788              		.text
 1789 0a81 90       		.align 2
 1791              	_ZNK12_GLOBAL__N_145TestCheckThrowMacroSucceedsOnCorrectException7RunImplEv:
 1792              	.LFB1373:
  60:TestUnitTest++.cpp **** {
 1793              		.loc 4 60 0
 1794              		.cfi_startproc
 1795              		.cfi_personality 0x3,__gxx_personality_v0
 1796              		.cfi_lsda 0x3,.LLSDA1373
 1797 0a82 55       		pushq	%rbp
 1798              		.cfi_def_cfa_offset 16
 1799              		.cfi_offset 6, -16
 1800 0a83 4889E5   		movq	%rsp, %rbp
 1801              		.cfi_def_cfa_register 6
 1802 0a86 4883EC50 		subq	$80, %rsp
 1803 0a8a 48897DB8 		movq	%rdi, -72(%rbp)
 1804              		.loc 4 60 0
 1805 0a8e 64488B04 		movq	%fs:40, %rax
 1805      25280000 
 1805      00
 1806 0a97 488945F8 		movq	%rax, -8(%rbp)
 1807 0a9b 31C0     		xorl	%eax, %eax
 1808              	.LBB25:
 1809              	.LBB26:
  61:TestUnitTest++.cpp ****     struct TestException {};
  62:TestUnitTest++.cpp ****     CHECK_THROW(throw TestException(), TestException);
 1810              		.loc 4 62 0
 1811 0a9d C645C700 		movb	$0, -57(%rbp)
 1812 0aa1 BF010000 		movl	$1, %edi
 1812      00
 1813 0aa6 E8000000 		call	__cxa_allocate_exception
 1813      00
 1814 0aab BA000000 		movl	$0, %edx
 1814      00
 1815 0ab0 BE000000 		movl	$_ZTIZNK12_GLOBAL__N_145TestCheckThrowMacroSucceedsOnCorrectException7RunImplEvE13TestExcepti
 1815      00
 1816 0ab5 4889C7   		movq	%rax, %rdi
 1817              	.LEHB42:
 1818 0ab8 E8000000 		call	__cxa_throw
 1818      00
 1819              	.LEHE42:
 1820              	.L96:
 1821              		.loc 4 62 0 is_stmt 0 discriminator 6
 1822 0abd 0FB645C7 		movzbl	-57(%rbp), %eax
 1823 0ac1 83F001   		xorl	$1, %eax
 1824 0ac4 84C0     		testb	%al, %al
 1825 0ac6 7438     		je	.L92
 1826              	.LEHB43:
 1827              		.loc 4 62 0 discriminator 1
 1828 0ac8 E8000000 		call	_ZN8UnitTest11CurrentTest7DetailsEv
 1828      00
 1829 0acd 488B08   		movq	(%rax), %rcx
 1830 0ad0 488D45D0 		leaq	-48(%rbp), %rax
 1831 0ad4 BA3E0000 		movl	$62, %edx
 1831      00
 1832 0ad9 4889CE   		movq	%rcx, %rsi
 1833 0adc 4889C7   		movq	%rax, %rdi
 1834 0adf E8000000 		call	_ZN8UnitTest11TestDetailsC1ERKS0_i
 1834      00
 1835 0ae4 E8000000 		call	_ZN8UnitTest11CurrentTest7ResultsEv
 1835      00
 1836 0ae9 488B00   		movq	(%rax), %rax
 1837 0aec 488D4DD0 		leaq	-48(%rbp), %rcx
 1838 0af0 BA000000 		movl	$.LC31, %edx
 1838      00
 1839 0af5 4889CE   		movq	%rcx, %rsi
 1840 0af8 4889C7   		movq	%rax, %rdi
 1841 0afb E8000000 		call	_ZN8UnitTest11TestResults13OnTestFailureERKNS_11TestDetailsEPKc
 1841      00
 1842              	.L92:
 1843              	.LBE26:
 1844              	.LBE25:
  63:TestUnitTest++.cpp **** }
 1845              		.loc 4 63 0 is_stmt 1
 1846 0b00 488B45F8 		movq	-8(%rbp), %rax
 1847 0b04 64483304 		xorq	%fs:40, %rax
 1847      25280000 
 1847      00
 1848 0b0d 7433     		je	.L97
 1849 0b0f EB2C     		jmp	.L99
 1850              	.L98:
 1851 0b11 4883FA01 		cmpq	$1, %rdx
 1852 0b15 7517     		jne	.L100
 1853              	.LBB29:
 1854              	.LBB28:
 1855              	.LBB27:
  62:TestUnitTest++.cpp **** }
 1856              		.loc 4 62 0
 1857 0b17 4889C7   		movq	%rax, %rdi
 1858 0b1a E8000000 		call	__cxa_begin_catch
 1858      00
 1859 0b1f 488945C8 		movq	%rax, -56(%rbp)
 1860 0b23 C645C701 		movb	$1, -57(%rbp)
 1861 0b27 E8000000 		call	__cxa_end_catch
 1861      00
 1862 0b2c EB8F     		jmp	.L96
 1863              	.L100:
 1864              	.LBE27:
  62:TestUnitTest++.cpp **** }
 1865              		.loc 4 62 0 is_stmt 0 discriminator 7
 1866 0b2e 4889C7   		movq	%rax, %rdi
 1867 0b31 E8000000 		call	__cxa_begin_catch
 1867      00
 1868 0b36 E8000000 		call	__cxa_end_catch
 1868      00
 1869              	.LEHE43:
 1870 0b3b EB80     		jmp	.L96
 1871              	.L99:
 1872              	.LBE28:
 1873              	.LBE29:
 1874              		.loc 4 63 0 is_stmt 1
 1875 0b3d E8000000 		call	__stack_chk_fail
 1875      00
 1876              	.L97:
 1877 0b42 C9       		leave
 1878              		.cfi_def_cfa 7, 8
 1879 0b43 C3       		ret
 1880              		.cfi_endproc
 1881              	.LFE1373:
 1882              		.section	.gcc_except_table
 1883              		.align 4
 1884              	.LLSDA1373:
 1885 0118 FF       		.byte	0xff
 1886 0119 03       		.byte	0x3
 1887 011a 19       		.uleb128 .LLSDATT1373-.LLSDATTD1373
 1888              	.LLSDATTD1373:
 1889 011b 01       		.byte	0x1
 1890 011c 09       		.uleb128 .LLSDACSE1373-.LLSDACSB1373
 1891              	.LLSDACSB1373:
 1892 011d 36       		.uleb128 .LEHB42-.LFB1373
 1893 011e 05       		.uleb128 .LEHE42-.LEHB42
 1894 011f 8F01     		.uleb128 .L98-.LFB1373
 1895 0121 03       		.uleb128 0x3
 1896 0122 46       		.uleb128 .LEHB43-.LFB1373
 1897 0123 73       		.uleb128 .LEHE43-.LEHB43
 1898 0124 00       		.uleb128 0
 1899 0125 00       		.uleb128 0
 1900              	.LLSDACSE1373:
 1901 0126 02       		.byte	0x2
 1902 0127 00       		.byte	0
 1903 0128 01       		.byte	0x1
 1904 0129 7D       		.byte	0x7d
 1905 012a 0000     		.align 4
 1906 012c 00000000 		.long	0
 1907              	
 1908 0130 00000000 		.long	_ZTIZNK12_GLOBAL__N_145TestCheckThrowMacroSucceedsOnCorrectException7RunImplEvE13TestExcepti
 1909              	.LLSDATT1373:
 1910              		.text
 1912              		.section	.rodata
 1913              	.LC32:
 1914 02cf 43686563 		.string	"CheckAssertSucceeds"
 1914      6B417373 
 1914      65727453 
 1914      75636365 
 1914      65647300 
 1915              		.text
 1916              		.align 2
 1918              	_ZN12_GLOBAL__N_123TestCheckAssertSucceedsC2Ev:
 1919              	.LFB1375:
  64:TestUnitTest++.cpp **** 
  65:TestUnitTest++.cpp **** TEST(CheckAssertSucceeds)
 1920              		.loc 4 65 0
 1921              		.cfi_startproc
 1922 0b44 55       		pushq	%rbp
 1923              		.cfi_def_cfa_offset 16
 1924              		.cfi_offset 6, -16
 1925 0b45 4889E5   		movq	%rsp, %rbp
 1926              		.cfi_def_cfa_register 6
 1927 0b48 4883EC10 		subq	$16, %rsp
 1928 0b4c 48897DF8 		movq	%rdi, -8(%rbp)
 1929              	.LBB30:
 1930              		.loc 4 65 0
 1931 0b50 E8000000 		call	_ZN13UnitTestSuite12GetSuiteNameEv
 1931      00
 1932 0b55 4889C2   		movq	%rax, %rdx
 1933 0b58 488B45F8 		movq	-8(%rbp), %rax
 1934 0b5c 41B84100 		movl	$65, %r8d
 1934      0000
 1935 0b62 B9000000 		movl	$.LC1, %ecx
 1935      00
 1936 0b67 BE000000 		movl	$.LC32, %esi
 1936      00
 1937 0b6c 4889C7   		movq	%rax, %rdi
 1938 0b6f E8000000 		call	_ZN8UnitTest4TestC2EPKcS2_S2_i
 1938      00
 1939 0b74 488B45F8 		movq	-8(%rbp), %rax
 1940 0b78 48C70000 		movq	$_ZTVN12_GLOBAL__N_123TestCheckAssertSucceedsE+16, (%rax)
 1940      000000
 1941              	.LBE30:
 1942 0b7f C9       		leave
 1943              		.cfi_def_cfa 7, 8
 1944 0b80 C3       		ret
 1945              		.cfi_endproc
 1946              	.LFE1375:
 1948              		.local	_ZN12_GLOBAL__N_131testCheckAssertSucceedsInstanceE
 1949              		.comm	_ZN12_GLOBAL__N_131testCheckAssertSucceedsInstanceE,56,32
 1950              		.local	_ZN12_GLOBAL__N_124adderCheckAssertSucceedsE
 1951              		.comm	_ZN12_GLOBAL__N_124adderCheckAssertSucceedsE,1,1
 1952              		.section	.rodata
 1953              	.LC33:
 1954 02e3 66696C65 		.string	"file"
 1954      00
 1955              	.LC34:
 1956 02e8 64657363 		.string	"desc"
 1956      00
 1957 02ed 000000   		.align 8
 1958              	.LC35:
 1959 02f0 45787065 		.string	"Expected exception: \"UnitTest::AssertException\" not thrown"
 1959      63746564 
 1959      20657863 
 1959      65707469 
 1959      6F6E3A20 
 1960              		.text
 1961 0b81 90       		.align 2
 1963              	_ZNK12_GLOBAL__N_123TestCheckAssertSucceeds7RunImplEv:
 1964              	.LFB1377:
  66:TestUnitTest++.cpp **** {
 1965              		.loc 4 66 0
 1966              		.cfi_startproc
 1967              		.cfi_personality 0x3,__gxx_personality_v0
 1968              		.cfi_lsda 0x3,.LLSDA1377
 1969 0b82 55       		pushq	%rbp
 1970              		.cfi_def_cfa_offset 16
 1971              		.cfi_offset 6, -16
 1972 0b83 4889E5   		movq	%rsp, %rbp
 1973              		.cfi_def_cfa_register 6
 1974 0b86 4883EC50 		subq	$80, %rsp
 1975 0b8a 48897DB8 		movq	%rdi, -72(%rbp)
 1976              		.loc 4 66 0
 1977 0b8e 64488B04 		movq	%fs:40, %rax
 1977      25280000 
 1977      00
 1978 0b97 488945F8 		movq	%rax, -8(%rbp)
 1979 0b9b 31C0     		xorl	%eax, %eax
 1980              	.LBB31:
 1981              	.LBB32:
  67:TestUnitTest++.cpp ****     CHECK_ASSERT(UnitTest::ReportAssert("desc", "file", 0));
 1982              		.loc 4 67 0
 1983 0b9d C645C700 		movb	$0, -57(%rbp)
 1984 0ba1 BA000000 		movl	$0, %edx
 1984      00
 1985 0ba6 BE000000 		movl	$.LC33, %esi
 1985      00
 1986 0bab BF000000 		movl	$.LC34, %edi
 1986      00
 1987              	.LEHB44:
 1988 0bb0 E8000000 		call	_ZN8UnitTest12ReportAssertEPKcS1_i
 1988      00
 1989              	.LEHE44:
 1990              	.L107:
 1991              		.loc 4 67 0 is_stmt 0 discriminator 1
 1992 0bb5 0FB645C7 		movzbl	-57(%rbp), %eax
 1993 0bb9 83F001   		xorl	$1, %eax
 1994 0bbc 84C0     		testb	%al, %al
 1995 0bbe 7438     		je	.L103
 1996              	.LEHB45:
 1997              		.loc 4 67 0 discriminator 2
 1998 0bc0 E8000000 		call	_ZN8UnitTest11CurrentTest7DetailsEv
 1998      00
 1999 0bc5 488B08   		movq	(%rax), %rcx
 2000 0bc8 488D45D0 		leaq	-48(%rbp), %rax
 2001 0bcc BA430000 		movl	$67, %edx
 2001      00
 2002 0bd1 4889CE   		movq	%rcx, %rsi
 2003 0bd4 4889C7   		movq	%rax, %rdi
 2004 0bd7 E8000000 		call	_ZN8UnitTest11TestDetailsC1ERKS0_i
 2004      00
 2005 0bdc E8000000 		call	_ZN8UnitTest11CurrentTest7ResultsEv
 2005      00
 2006 0be1 488B00   		movq	(%rax), %rax
 2007 0be4 488D4DD0 		leaq	-48(%rbp), %rcx
 2008 0be8 BA000000 		movl	$.LC35, %edx
 2008      00
 2009 0bed 4889CE   		movq	%rcx, %rsi
 2010 0bf0 4889C7   		movq	%rax, %rdi
 2011 0bf3 E8000000 		call	_ZN8UnitTest11TestResults13OnTestFailureERKNS_11TestDetailsEPKc
 2011      00
 2012              	.L103:
 2013              	.LBE32:
 2014              	.LBE31:
  68:TestUnitTest++.cpp **** }
 2015              		.loc 4 68 0 is_stmt 1
 2016 0bf8 488B45F8 		movq	-8(%rbp), %rax
 2017 0bfc 64483304 		xorq	%fs:40, %rax
 2017      25280000 
 2017      00
 2018 0c05 7433     		je	.L108
 2019 0c07 EB2C     		jmp	.L110
 2020              	.L109:
 2021 0c09 4883FA01 		cmpq	$1, %rdx
 2022 0c0d 7517     		jne	.L111
 2023              	.LBB35:
 2024              	.LBB34:
 2025              	.LBB33:
  67:TestUnitTest++.cpp ****     CHECK_ASSERT(UnitTest::ReportAssert("desc", "file", 0));
 2026              		.loc 4 67 0 discriminator 7
 2027 0c0f 4889C7   		movq	%rax, %rdi
 2028 0c12 E8000000 		call	__cxa_begin_catch
 2028      00
 2029 0c17 488945C8 		movq	%rax, -56(%rbp)
 2030 0c1b C645C701 		movb	$1, -57(%rbp)
 2031 0c1f E8000000 		call	__cxa_end_catch
 2031      00
 2032 0c24 EB8F     		jmp	.L107
 2033              	.L111:
 2034              	.LBE33:
  67:TestUnitTest++.cpp ****     CHECK_ASSERT(UnitTest::ReportAssert("desc", "file", 0));
 2035              		.loc 4 67 0 is_stmt 0 discriminator 8
 2036 0c26 4889C7   		movq	%rax, %rdi
 2037 0c29 E8000000 		call	__cxa_begin_catch
 2037      00
 2038 0c2e E8000000 		call	__cxa_end_catch
 2038      00
 2039              	.LEHE45:
 2040 0c33 EB80     		jmp	.L107
 2041              	.L110:
 2042              	.LBE34:
 2043              	.LBE35:
 2044              		.loc 4 68 0 is_stmt 1
 2045 0c35 E8000000 		call	__stack_chk_fail
 2045      00
 2046              	.L108:
 2047 0c3a C9       		leave
 2048              		.cfi_def_cfa 7, 8
 2049 0c3b C3       		ret
 2050              		.cfi_endproc
 2051              	.LFE1377:
 2052              		.section	.gcc_except_table
 2053              		.align 4
 2054              	.LLSDA1377:
 2055 0134 FF       		.byte	0xff
 2056 0135 03       		.byte	0x3
 2057 0136 19       		.uleb128 .LLSDATT1377-.LLSDATTD1377
 2058              	.LLSDATTD1377:
 2059 0137 01       		.byte	0x1
 2060 0138 09       		.uleb128 .LLSDACSE1377-.LLSDACSB1377
 2061              	.LLSDACSB1377:
 2062 0139 2E       		.uleb128 .LEHB44-.LFB1377
 2063 013a 05       		.uleb128 .LEHE44-.LEHB44
 2064 013b 8701     		.uleb128 .L109-.LFB1377
 2065 013d 03       		.uleb128 0x3
 2066 013e 3E       		.uleb128 .LEHB45-.LFB1377
 2067 013f 73       		.uleb128 .LEHE45-.LEHB45
 2068 0140 00       		.uleb128 0
 2069 0141 00       		.uleb128 0
 2070              	.LLSDACSE1377:
 2071 0142 02       		.byte	0x2
 2072 0143 00       		.byte	0
 2073 0144 01       		.byte	0x1
 2074 0145 7D       		.byte	0x7d
 2075 0146 0000     		.align 4
 2076 0148 00000000 		.long	0
 2077              	
 2078 014c 00000000 		.long	_ZTIN8UnitTest15AssertExceptionE
 2079              	.LLSDATT1377:
 2080              		.text
 2082              		.section	.rodata
 2083 032b 00000000 		.align 8
 2083      00
 2084              	.LC36:
 2085 0330 43686563 		.string	"CheckThrowMacroFailsOnMissingException"
 2085      6B546872 
 2085      6F774D61 
 2085      63726F46 
 2085      61696C73 
 2086              		.text
 2087              		.align 2
 2089              	_ZN12_GLOBAL__N_142TestCheckThrowMacroFailsOnMissingExceptionC2Ev:
 2090              	.LFB1379:
  69:TestUnitTest++.cpp **** 
  70:TestUnitTest++.cpp **** TEST(CheckThrowMacroFailsOnMissingException)
 2091              		.loc 4 70 0
 2092              		.cfi_startproc
 2093 0c3c 55       		pushq	%rbp
 2094              		.cfi_def_cfa_offset 16
 2095              		.cfi_offset 6, -16
 2096 0c3d 4889E5   		movq	%rsp, %rbp
 2097              		.cfi_def_cfa_register 6
 2098 0c40 4883EC10 		subq	$16, %rsp
 2099 0c44 48897DF8 		movq	%rdi, -8(%rbp)
 2100              	.LBB36:
 2101              		.loc 4 70 0
 2102 0c48 E8000000 		call	_ZN13UnitTestSuite12GetSuiteNameEv
 2102      00
 2103 0c4d 4889C2   		movq	%rax, %rdx
 2104 0c50 488B45F8 		movq	-8(%rbp), %rax
 2105 0c54 41B84600 		movl	$70, %r8d
 2105      0000
 2106 0c5a B9000000 		movl	$.LC1, %ecx
 2106      00
 2107 0c5f BE000000 		movl	$.LC36, %esi
 2107      00
 2108 0c64 4889C7   		movq	%rax, %rdi
 2109 0c67 E8000000 		call	_ZN8UnitTest4TestC2EPKcS2_S2_i
 2109      00
 2110 0c6c 488B45F8 		movq	-8(%rbp), %rax
 2111 0c70 48C70000 		movq	$_ZTVN12_GLOBAL__N_142TestCheckThrowMacroFailsOnMissingExceptionE+16, (%rax)
 2111      000000
 2112              	.LBE36:
 2113 0c77 C9       		leave
 2114              		.cfi_def_cfa 7, 8
 2115 0c78 C3       		ret
 2116              		.cfi_endproc
 2117              	.LFE1379:
 2119              		.local	_ZN12_GLOBAL__N_150testCheckThrowMacroFailsOnMissingExceptionInstanceE
 2120              		.comm	_ZN12_GLOBAL__N_150testCheckThrowMacroFailsOnMissingExceptionInstanceE,56,32
 2121              		.local	_ZN12_GLOBAL__N_143adderCheckThrowMacroFailsOnMissingExceptionE
 2122              		.comm	_ZN12_GLOBAL__N_143adderCheckThrowMacroFailsOnMissingExceptionE,1,1
 2123              		.section	.rodata
 2124              	.LC37:
 2125 0357 00       		.string	""
 2126              	.LC38:
 2127 0358 6E6F7468 		.string	"nothrow"
 2127      726F7700 
 2128              		.text
 2129 0c79 90       		.align 2
 2131              	_ZZNK12_GLOBAL__N_142TestCheckThrowMacroFailsOnMissingException7RunImplEvEN11NoThrowTestC2Ev:
 2132              	.LFB1383:
  71:TestUnitTest++.cpp **** {
  72:TestUnitTest++.cpp ****     class NoThrowTest : public UnitTest::Test
  73:TestUnitTest++.cpp ****     {
  74:TestUnitTest++.cpp ****     public:
  75:TestUnitTest++.cpp ****         NoThrowTest() : Test("nothrow") {}
 2133              		.loc 4 75 0
 2134              		.cfi_startproc
 2135 0c7a 55       		pushq	%rbp
 2136              		.cfi_def_cfa_offset 16
 2137              		.cfi_offset 6, -16
 2138 0c7b 4889E5   		movq	%rsp, %rbp
 2139              		.cfi_def_cfa_register 6
 2140 0c7e 4883EC10 		subq	$16, %rsp
 2141 0c82 48897DF8 		movq	%rdi, -8(%rbp)
 2142              	.LBB37:
 2143              		.loc 4 75 0
 2144 0c86 488B45F8 		movq	-8(%rbp), %rax
 2145 0c8a 41B80000 		movl	$0, %r8d
 2145      0000
 2146 0c90 B9000000 		movl	$.LC37, %ecx
 2146      00
 2147 0c95 BA000000 		movl	$.LC0, %edx
 2147      00
 2148 0c9a BE000000 		movl	$.LC38, %esi
 2148      00
 2149 0c9f 4889C7   		movq	%rax, %rdi
 2150 0ca2 E8000000 		call	_ZN8UnitTest4TestC2EPKcS2_S2_i
 2150      00
 2151 0ca7 488B45F8 		movq	-8(%rbp), %rax
 2152 0cab 48C70000 		movq	$_ZTVZNK12_GLOBAL__N_142TestCheckThrowMacroFailsOnMissingException7RunImplEvE11NoThrowTest+16
 2152      000000
 2153              	.LBE37:
 2154 0cb2 C9       		leave
 2155              		.cfi_def_cfa 7, 8
 2156 0cb3 C3       		ret
 2157              		.cfi_endproc
 2158              	.LFE1383:
 2160              		.align 2
 2162              	_ZZNK12_GLOBAL__N_142TestCheckThrowMacroFailsOnMissingException7RunImplEvENK11NoThrowTest9DontThrow
 2163              	.LFB1385:
  76:TestUnitTest++.cpp ****         void DontThrow() const
 2164              		.loc 4 76 0
 2165              		.cfi_startproc
 2166 0cb4 55       		pushq	%rbp
 2167              		.cfi_def_cfa_offset 16
 2168              		.cfi_offset 6, -16
 2169 0cb5 4889E5   		movq	%rsp, %rbp
 2170              		.cfi_def_cfa_register 6
 2171 0cb8 48897DF8 		movq	%rdi, -8(%rbp)
  77:TestUnitTest++.cpp ****         {
  78:TestUnitTest++.cpp ****         }
 2172              		.loc 4 78 0
 2173 0cbc 5D       		popq	%rbp
 2174              		.cfi_def_cfa 7, 8
 2175 0cbd C3       		ret
 2176              		.cfi_endproc
 2177              	.LFE1385:
 2179              		.section	.rodata
 2180              		.align 8
 2181              	.LC39:
 2182 0360 45787065 		.string	"Expected exception: \"int\" not thrown"
 2182      63746564 
 2182      20657863 
 2182      65707469 
 2182      6F6E3A20 
 2183              		.text
 2184              		.align 2
 2186              	_ZZNK12_GLOBAL__N_142TestCheckThrowMacroFailsOnMissingException7RunImplEvENK11NoThrowTest7RunImplEv
 2187              	.LFB1386:
  79:TestUnitTest++.cpp **** 
  80:TestUnitTest++.cpp ****         virtual void RunImpl() const
 2188              		.loc 4 80 0
 2189              		.cfi_startproc
 2190 0cbe 55       		pushq	%rbp
 2191              		.cfi_def_cfa_offset 16
 2192              		.cfi_offset 6, -16
 2193 0cbf 4889E5   		movq	%rsp, %rbp
 2194              		.cfi_def_cfa_register 6
 2195 0cc2 4883EC50 		subq	$80, %rsp
 2196 0cc6 48897DB8 		movq	%rdi, -72(%rbp)
 2197              		.loc 4 80 0
 2198 0cca 64488B04 		movq	%fs:40, %rax
 2198      25280000 
 2198      00
 2199 0cd3 488945F8 		movq	%rax, -8(%rbp)
 2200 0cd7 31C0     		xorl	%eax, %eax
 2201              	.LBB38:
 2202              	.LBB39:
  81:TestUnitTest++.cpp ****         {
  82:TestUnitTest++.cpp ****             CHECK_THROW(DontThrow(), int);
 2203              		.loc 4 82 0
 2204 0cd9 C645CF00 		movb	$0, -49(%rbp)
 2205 0cdd 488B45B8 		movq	-72(%rbp), %rax
 2206 0ce1 4889C7   		movq	%rax, %rdi
 2207 0ce4 E8CBFFFF 		call	_ZZNK12_GLOBAL__N_142TestCheckThrowMacroFailsOnMissingException7RunImplEvENK11NoThrowTest9Don
 2207      FF
 2208 0ce9 0FB645CF 		movzbl	-49(%rbp), %eax
 2209 0ced 83F001   		xorl	$1, %eax
 2210 0cf0 84C0     		testb	%al, %al
 2211 0cf2 7438     		je	.L115
 2212              		.loc 4 82 0 is_stmt 0 discriminator 1
 2213 0cf4 E8000000 		call	_ZN8UnitTest11CurrentTest7DetailsEv
 2213      00
 2214 0cf9 488B08   		movq	(%rax), %rcx
 2215 0cfc 488D45D0 		leaq	-48(%rbp), %rax
 2216 0d00 BA520000 		movl	$82, %edx
 2216      00
 2217 0d05 4889CE   		movq	%rcx, %rsi
 2218 0d08 4889C7   		movq	%rax, %rdi
 2219 0d0b E8000000 		call	_ZN8UnitTest11TestDetailsC1ERKS0_i
 2219      00
 2220 0d10 E8000000 		call	_ZN8UnitTest11CurrentTest7ResultsEv
 2220      00
 2221 0d15 488B00   		movq	(%rax), %rax
 2222 0d18 488D4DD0 		leaq	-48(%rbp), %rcx
 2223 0d1c BA000000 		movl	$.LC39, %edx
 2223      00
 2224 0d21 4889CE   		movq	%rcx, %rsi
 2225 0d24 4889C7   		movq	%rax, %rdi
 2226 0d27 E8000000 		call	_ZN8UnitTest11TestResults13OnTestFailureERKNS_11TestDetailsEPKc
 2226      00
 2227              	.L115:
 2228              	.LBE39:
 2229              	.LBE38:
  83:TestUnitTest++.cpp ****         }
 2230              		.loc 4 83 0 is_stmt 1
 2231 0d2c 488B45F8 		movq	-8(%rbp), %rax
 2232 0d30 64483304 		xorq	%fs:40, %rax
 2232      25280000 
 2232      00
 2233 0d39 7405     		je	.L117
 2234 0d3b E8000000 		call	__stack_chk_fail
 2234      00
 2235              	.L117:
 2236 0d40 C9       		leave
 2237              		.cfi_def_cfa 7, 8
 2238 0d41 C3       		ret
 2239              		.cfi_endproc
 2240              	.LFE1386:
 2242              		.section	.rodata
 2243 0385 000000   		.align 8
 2244              	.LC40:
 2245 0388 556E6861 		.string	"Unhandled exception in CHECK_EQUAL(1, results.GetFailureCount())"
 2245      6E646C65 
 2245      64206578 
 2245      63657074 
 2245      696F6E20 
 2246              		.text
 2247              		.align 2
 2249              	_ZNK12_GLOBAL__N_142TestCheckThrowMacroFailsOnMissingException7RunImplEv:
 2250              	.LFB1381:
  71:TestUnitTest++.cpp ****     class NoThrowTest : public UnitTest::Test
 2251              		.loc 4 71 0
 2252              		.cfi_startproc
 2253              		.cfi_personality 0x3,__gxx_personality_v0
 2254              		.cfi_lsda 0x3,.LLSDA1381
 2255 0d42 55       		pushq	%rbp
 2256              		.cfi_def_cfa_offset 16
 2257              		.cfi_offset 6, -16
 2258 0d43 4889E5   		movq	%rsp, %rbp
 2259              		.cfi_def_cfa_register 6
 2260 0d46 53       		pushq	%rbx
 2261 0d47 4881EC98 		subq	$152, %rsp
 2261      000000
 2262              		.cfi_offset 3, -24
 2263 0d4e 4889BD68 		movq	%rdi, -152(%rbp)
 2263      FFFFFF
  71:TestUnitTest++.cpp ****     class NoThrowTest : public UnitTest::Test
 2264              		.loc 4 71 0
 2265 0d55 64488B04 		movq	%fs:40, %rax
 2265      25280000 
 2265      00
 2266 0d5e 488945E8 		movq	%rax, -24(%rbp)
 2267 0d62 31C0     		xorl	%eax, %eax
 2268              	.LBB40:
  84:TestUnitTest++.cpp ****     };
  85:TestUnitTest++.cpp **** 
  86:TestUnitTest++.cpp ****     UnitTest::TestResults results;
 2269              		.loc 4 86 0
 2270 0d64 488D4590 		leaq	-112(%rbp), %rax
 2271 0d68 BE000000 		movl	$0, %esi
 2271      00
 2272 0d6d 4889C7   		movq	%rax, %rdi
 2273              	.LEHB46:
 2274 0d70 E8000000 		call	_ZN8UnitTest11TestResultsC1EPNS_12TestReporterE
 2274      00
 2275              	.LBB41:
  87:TestUnitTest++.cpp **** 	{
  88:TestUnitTest++.cpp **** 		ScopedCurrentTest scopedResults(results);
 2276              		.loc 4 88 0
 2277 0d75 488D4D90 		leaq	-112(%rbp), %rcx
 2278 0d79 488D4580 		leaq	-128(%rbp), %rax
 2279 0d7d BA000000 		movl	$0, %edx
 2279      00
 2280 0d82 4889CE   		movq	%rcx, %rsi
 2281 0d85 4889C7   		movq	%rax, %rdi
 2282 0d88 E8000000 		call	_ZN17ScopedCurrentTestC1ERN8UnitTest11TestResultsEPKNS0_11TestDetailsE
 2282      00
 2283              	.LEHE46:
  89:TestUnitTest++.cpp **** 
  90:TestUnitTest++.cpp **** 		NoThrowTest test;
 2284              		.loc 4 90 0
 2285 0d8d 488D45B0 		leaq	-80(%rbp), %rax
 2286 0d91 4889C7   		movq	%rax, %rdi
 2287              	.LEHB47:
 2288 0d94 E8E1FEFF 		call	_ZZNK12_GLOBAL__N_142TestCheckThrowMacroFailsOnMissingException7RunImplEvEN11NoThrowTestC2Ev
 2288      FF
 2289              	.LEHE47:
  91:TestUnitTest++.cpp **** 		test.Run();
 2290              		.loc 4 91 0
 2291 0d99 488D45B0 		leaq	-80(%rbp), %rax
 2292 0d9d 4889C7   		movq	%rax, %rdi
 2293              	.LEHB48:
 2294 0da0 E8000000 		call	_ZN8UnitTest4Test3RunEv
 2294      00
 2295              	.LEHE48:
  90:TestUnitTest++.cpp **** 		test.Run();
 2296              		.loc 4 90 0
 2297 0da5 488D45B0 		leaq	-80(%rbp), %rax
 2298 0da9 4889C7   		movq	%rax, %rdi
 2299              	.LEHB49:
 2300 0dac E8B11500 		call	_ZZNK12_GLOBAL__N_142TestCheckThrowMacroFailsOnMissingException7RunImplEvEN11NoThrowTestD2Ev
 2300      00
 2301              	.LEHE49:
 2302              		.loc 4 91 0
 2303 0db1 488D4580 		leaq	-128(%rbp), %rax
 2304 0db5 4889C7   		movq	%rax, %rdi
 2305              	.LEHB50:
 2306 0db8 E8000000 		call	_ZN17ScopedCurrentTestD1Ev
 2306      00
 2307              	.LEHE50:
 2308              	.LEHB51:
 2309              	.LBE41:
  92:TestUnitTest++.cpp **** 	}
  93:TestUnitTest++.cpp **** 
  94:TestUnitTest++.cpp **** 	CHECK_EQUAL(1, results.GetFailureCount());
 2310              		.loc 4 94 0
 2311 0dbd E8000000 		call	_ZN8UnitTest11CurrentTest7DetailsEv
 2311      00
 2312 0dc2 488B08   		movq	(%rax), %rcx
 2313 0dc5 488D45B0 		leaq	-80(%rbp), %rax
 2314 0dc9 BA5E0000 		movl	$94, %edx
 2314      00
 2315 0dce 4889CE   		movq	%rcx, %rsi
 2316 0dd1 4889C7   		movq	%rax, %rdi
 2317 0dd4 E8000000 		call	_ZN8UnitTest11TestDetailsC1ERKS0_i
 2317      00
 2318              		.loc 4 94 0 is_stmt 0 discriminator 2
 2319 0dd9 488D4590 		leaq	-112(%rbp), %rax
 2320 0ddd 4889C7   		movq	%rax, %rdi
 2321 0de0 E8000000 		call	_ZNK8UnitTest11TestResults15GetFailureCountEv
 2321      00
 2322 0de5 894580   		movl	%eax, -128(%rbp)
 2323 0de8 C7857CFF 		movl	$1, -132(%rbp)
 2323      FFFF0100 
 2323      0000
 2324 0df2 E8000000 		call	_ZN8UnitTest11CurrentTest7ResultsEv
 2324      00
 2325              		.loc 4 94 0 discriminator 4
 2326 0df7 488B00   		movq	(%rax), %rax
 2327 0dfa 488D4DB0 		leaq	-80(%rbp), %rcx
 2328 0dfe 488D5580 		leaq	-128(%rbp), %rdx
 2329 0e02 488DB57C 		leaq	-132(%rbp), %rsi
 2329      FFFFFF
 2330 0e09 4889C7   		movq	%rax, %rdi
 2331 0e0c E8000000 		call	_ZN8UnitTest10CheckEqualIiiEEvRNS_11TestResultsERKT_RKT0_RKNS_11TestDetailsE
 2331      00
 2332              	.LEHE51:
 2333              	.LBE40:
  95:TestUnitTest++.cpp **** }
 2334              		.loc 4 95 0 is_stmt 1
 2335 0e11 E9830000 		jmp	.L129
 2335      00
 2336              	.L126:
 2337 0e16 4889C3   		movq	%rax, %rbx
 2338              	.LBB43:
 2339              	.LBB42:
  90:TestUnitTest++.cpp **** 		test.Run();
 2340              		.loc 4 90 0
 2341 0e19 488D45B0 		leaq	-80(%rbp), %rax
 2342 0e1d 4889C7   		movq	%rax, %rdi
 2343 0e20 E83D1500 		call	_ZZNK12_GLOBAL__N_142TestCheckThrowMacroFailsOnMissingException7RunImplEvEN11NoThrowTestD2Ev
 2343      00
 2344 0e25 EB03     		jmp	.L120
 2345              	.L125:
 2346 0e27 4889C3   		movq	%rax, %rbx
 2347              	.L120:
  91:TestUnitTest++.cpp **** 	}
 2348              		.loc 4 91 0
 2349 0e2a 488D4580 		leaq	-128(%rbp), %rax
 2350 0e2e 4889C7   		movq	%rax, %rdi
 2351 0e31 E8000000 		call	_ZN17ScopedCurrentTestD1Ev
 2351      00
 2352 0e36 4889D8   		movq	%rbx, %rax
 2353 0e39 4889C7   		movq	%rax, %rdi
 2354              	.LEHB52:
 2355 0e3c E8000000 		call	_Unwind_Resume
 2355      00
 2356              	.LEHE52:
 2357              	.L128:
 2358 0e41 4889C3   		movq	%rax, %rbx
 2359              	.LBE42:
  94:TestUnitTest++.cpp **** }
 2360              		.loc 4 94 0
 2361 0e44 E8000000 		call	__cxa_end_catch
 2361      00
 2362 0e49 4889D8   		movq	%rbx, %rax
 2363 0e4c 4889C7   		movq	%rax, %rdi
 2364              	.LEHB53:
 2365 0e4f E8000000 		call	_Unwind_Resume
 2365      00
 2366              	.LEHE53:
 2367              	.L127:
 2368 0e54 4889C7   		movq	%rax, %rdi
 2369 0e57 E8000000 		call	__cxa_begin_catch
 2369      00
 2370              	.LEHB54:
 2371 0e5c E8000000 		call	_ZN8UnitTest11CurrentTest7DetailsEv
 2371      00
 2372 0e61 488B08   		movq	(%rax), %rcx
 2373 0e64 488D45B0 		leaq	-80(%rbp), %rax
 2374 0e68 BA5E0000 		movl	$94, %edx
 2374      00
 2375 0e6d 4889CE   		movq	%rcx, %rsi
 2376 0e70 4889C7   		movq	%rax, %rdi
 2377 0e73 E8000000 		call	_ZN8UnitTest11TestDetailsC1ERKS0_i
 2377      00
  94:TestUnitTest++.cpp **** }
 2378              		.loc 4 94 0 is_stmt 0 discriminator 12
 2379 0e78 E8000000 		call	_ZN8UnitTest11CurrentTest7ResultsEv
 2379      00
 2380 0e7d 488B00   		movq	(%rax), %rax
 2381 0e80 488D4DB0 		leaq	-80(%rbp), %rcx
 2382 0e84 BA000000 		movl	$.LC40, %edx
 2382      00
 2383 0e89 4889CE   		movq	%rcx, %rsi
 2384 0e8c 4889C7   		movq	%rax, %rdi
 2385 0e8f E8000000 		call	_ZN8UnitTest11TestResults13OnTestFailureERKNS_11TestDetailsEPKc
 2385      00
 2386              	.LEHE54:
 2387              	.LEHB55:
  94:TestUnitTest++.cpp **** }
 2388              		.loc 4 94 0 discriminator 16
 2389 0e94 E8000000 		call	__cxa_end_catch
 2389      00
 2390              	.LEHE55:
 2391              	.L129:
 2392              	.LBE43:
 2393              		.loc 4 95 0 is_stmt 1
 2394 0e99 90       		nop
 2395 0e9a 488B45E8 		movq	-24(%rbp), %rax
 2396 0e9e 64483304 		xorq	%fs:40, %rax
 2396      25280000 
 2396      00
 2397 0ea7 7405     		je	.L124
 2398 0ea9 E8000000 		call	__stack_chk_fail
 2398      00
 2399              	.L124:
 2400 0eae 4881C498 		addq	$152, %rsp
 2400      000000
 2401 0eb5 5B       		popq	%rbx
 2402 0eb6 5D       		popq	%rbp
 2403              		.cfi_def_cfa 7, 8
 2404 0eb7 C3       		ret
 2405              		.cfi_endproc
 2406              	.LFE1381:
 2407              		.section	.gcc_except_table
 2408              		.align 4
 2409              	.LLSDA1381:
 2410 0150 FF       		.byte	0xff
 2411 0151 03       		.byte	0x3
 2412 0152 39       		.uleb128 .LLSDATT1381-.LLSDATTD1381
 2413              	.LLSDATTD1381:
 2414 0153 01       		.byte	0x1
 2415 0154 31       		.uleb128 .LLSDACSE1381-.LLSDACSB1381
 2416              	.LLSDACSB1381:
 2417 0155 2E       		.uleb128 .LEHB46-.LFB1381
 2418 0156 1D       		.uleb128 .LEHE46-.LEHB46
 2419 0157 00       		.uleb128 0
 2420 0158 00       		.uleb128 0
 2421 0159 52       		.uleb128 .LEHB47-.LFB1381
 2422 015a 05       		.uleb128 .LEHE47-.LEHB47
 2423 015b E501     		.uleb128 .L125-.LFB1381
 2424 015d 00       		.uleb128 0
 2425 015e 5E       		.uleb128 .LEHB48-.LFB1381
 2426 015f 05       		.uleb128 .LEHE48-.LEHB48
 2427 0160 D401     		.uleb128 .L126-.LFB1381
 2428 0162 00       		.uleb128 0
 2429 0163 6A       		.uleb128 .LEHB49-.LFB1381
 2430 0164 05       		.uleb128 .LEHE49-.LEHB49
 2431 0165 E501     		.uleb128 .L125-.LFB1381
 2432 0167 00       		.uleb128 0
 2433 0168 76       		.uleb128 .LEHB50-.LFB1381
 2434 0169 05       		.uleb128 .LEHE50-.LEHB50
 2435 016a 00       		.uleb128 0
 2436 016b 00       		.uleb128 0
 2437 016c 7B       		.uleb128 .LEHB51-.LFB1381
 2438 016d 54       		.uleb128 .LEHE51-.LEHB51
 2439 016e 9202     		.uleb128 .L127-.LFB1381
 2440 0170 01       		.uleb128 0x1
 2441 0171 FA01     		.uleb128 .LEHB52-.LFB1381
 2442 0173 05       		.uleb128 .LEHE52-.LEHB52
 2443 0174 00       		.uleb128 0
 2444 0175 00       		.uleb128 0
 2445 0176 8D02     		.uleb128 .LEHB53-.LFB1381
 2446 0178 05       		.uleb128 .LEHE53-.LEHB53
 2447 0179 00       		.uleb128 0
 2448 017a 00       		.uleb128 0
 2449 017b 9A02     		.uleb128 .LEHB54-.LFB1381
 2450 017d 38       		.uleb128 .LEHE54-.LEHB54
 2451 017e FF01     		.uleb128 .L128-.LFB1381
 2452 0180 00       		.uleb128 0
 2453 0181 D202     		.uleb128 .LEHB55-.LFB1381
 2454 0183 05       		.uleb128 .LEHE55-.LEHB55
 2455 0184 00       		.uleb128 0
 2456 0185 00       		.uleb128 0
 2457              	.LLSDACSE1381:
 2458 0186 01       		.byte	0x1
 2459 0187 00       		.byte	0
 2460              		.align 4
 2461 0188 00000000 		.long	0
 2462              	
 2463              	.LLSDATT1381:
 2464              		.text
 2466              		.section	.rodata
 2467 03c9 00000000 		.align 8
 2467      000000
 2468              	.LC41:
 2469 03d0 43686563 		.string	"CheckThrowMacroFailsOnWrongException"
 2469      6B546872 
 2469      6F774D61 
 2469      63726F46 
 2469      61696C73 
 2470              		.text
 2471              		.align 2
 2473              	_ZN12_GLOBAL__N_140TestCheckThrowMacroFailsOnWrongExceptionC2Ev:
 2474              	.LFB1388:
  96:TestUnitTest++.cpp **** 
  97:TestUnitTest++.cpp **** TEST(CheckThrowMacroFailsOnWrongException)
 2475              		.loc 4 97 0
 2476              		.cfi_startproc
 2477 0eb8 55       		pushq	%rbp
 2478              		.cfi_def_cfa_offset 16
 2479              		.cfi_offset 6, -16
 2480 0eb9 4889E5   		movq	%rsp, %rbp
 2481              		.cfi_def_cfa_register 6
 2482 0ebc 4883EC10 		subq	$16, %rsp
 2483 0ec0 48897DF8 		movq	%rdi, -8(%rbp)
 2484              	.LBB44:
 2485              		.loc 4 97 0
 2486 0ec4 E8000000 		call	_ZN13UnitTestSuite12GetSuiteNameEv
 2486      00
 2487 0ec9 4889C2   		movq	%rax, %rdx
 2488 0ecc 488B45F8 		movq	-8(%rbp), %rax
 2489 0ed0 41B86100 		movl	$97, %r8d
 2489      0000
 2490 0ed6 B9000000 		movl	$.LC1, %ecx
 2490      00
 2491 0edb BE000000 		movl	$.LC41, %esi
 2491      00
 2492 0ee0 4889C7   		movq	%rax, %rdi
 2493 0ee3 E8000000 		call	_ZN8UnitTest4TestC2EPKcS2_S2_i
 2493      00
 2494 0ee8 488B45F8 		movq	-8(%rbp), %rax
 2495 0eec 48C70000 		movq	$_ZTVN12_GLOBAL__N_140TestCheckThrowMacroFailsOnWrongExceptionE+16, (%rax)
 2495      000000
 2496              	.LBE44:
 2497 0ef3 C9       		leave
 2498              		.cfi_def_cfa 7, 8
 2499 0ef4 C3       		ret
 2500              		.cfi_endproc
 2501              	.LFE1388:
 2503              		.local	_ZN12_GLOBAL__N_148testCheckThrowMacroFailsOnWrongExceptionInstanceE
 2504              		.comm	_ZN12_GLOBAL__N_148testCheckThrowMacroFailsOnWrongExceptionInstanceE,56,32
 2505              		.local	_ZN12_GLOBAL__N_141adderCheckThrowMacroFailsOnWrongExceptionE
 2506              		.comm	_ZN12_GLOBAL__N_141adderCheckThrowMacroFailsOnWrongExceptionE,1,1
 2507              		.section	.rodata
 2508              	.LC42:
 2509 03f5 77726F6E 		.string	"wrongthrow"
 2509      67746872 
 2509      6F7700
 2510              		.text
 2511 0ef5 90       		.align 2
 2513              	_ZZNK12_GLOBAL__N_140TestCheckThrowMacroFailsOnWrongException7RunImplEvEN14WrongThrowTestC2Ev:
 2514              	.LFB1392:
  98:TestUnitTest++.cpp **** {
  99:TestUnitTest++.cpp ****     class WrongThrowTest : public UnitTest::Test
 100:TestUnitTest++.cpp ****     {
 101:TestUnitTest++.cpp ****     public:
 102:TestUnitTest++.cpp ****         WrongThrowTest() : Test("wrongthrow") {}
 2515              		.loc 4 102 0
 2516              		.cfi_startproc
 2517 0ef6 55       		pushq	%rbp
 2518              		.cfi_def_cfa_offset 16
 2519              		.cfi_offset 6, -16
 2520 0ef7 4889E5   		movq	%rsp, %rbp
 2521              		.cfi_def_cfa_register 6
 2522 0efa 4883EC10 		subq	$16, %rsp
 2523 0efe 48897DF8 		movq	%rdi, -8(%rbp)
 2524              	.LBB45:
 2525              		.loc 4 102 0
 2526 0f02 488B45F8 		movq	-8(%rbp), %rax
 2527 0f06 41B80000 		movl	$0, %r8d
 2527      0000
 2528 0f0c B9000000 		movl	$.LC37, %ecx
 2528      00
 2529 0f11 BA000000 		movl	$.LC0, %edx
 2529      00
 2530 0f16 BE000000 		movl	$.LC42, %esi
 2530      00
 2531 0f1b 4889C7   		movq	%rax, %rdi
 2532 0f1e E8000000 		call	_ZN8UnitTest4TestC2EPKcS2_S2_i
 2532      00
 2533 0f23 488B45F8 		movq	-8(%rbp), %rax
 2534 0f27 48C70000 		movq	$_ZTVZNK12_GLOBAL__N_140TestCheckThrowMacroFailsOnWrongException7RunImplEvE14WrongThrowTest+1
 2534      000000
 2535              	.LBE45:
 2536 0f2e C9       		leave
 2537              		.cfi_def_cfa 7, 8
 2538 0f2f C3       		ret
 2539              		.cfi_endproc
 2540              	.LFE1392:
 2542              		.section	.rodata
 2543              	.LC43:
 2544 0400 6F6F7073 		.string	"oops"
 2544      00
 2545              		.text
 2546              		.align 2
 2548              	_ZZNK12_GLOBAL__N_140TestCheckThrowMacroFailsOnWrongException7RunImplEvENK14WrongThrowTest7RunImplE
 2549              	.LFB1394:
 103:TestUnitTest++.cpp ****         virtual void RunImpl() const
 2550              		.loc 4 103 0
 2551              		.cfi_startproc
 2552              		.cfi_personality 0x3,__gxx_personality_v0
 2553              		.cfi_lsda 0x3,.LLSDA1394
 2554 0f30 55       		pushq	%rbp
 2555              		.cfi_def_cfa_offset 16
 2556              		.cfi_offset 6, -16
 2557 0f31 4889E5   		movq	%rsp, %rbp
 2558              		.cfi_def_cfa_register 6
 2559 0f34 4883EC50 		subq	$80, %rsp
 2560 0f38 48897DB8 		movq	%rdi, -72(%rbp)
 2561              		.loc 4 103 0
 2562 0f3c 64488B04 		movq	%fs:40, %rax
 2562      25280000 
 2562      00
 2563 0f45 488945F8 		movq	%rax, -8(%rbp)
 2564 0f49 31C0     		xorl	%eax, %eax
 2565              	.LBB46:
 2566              	.LBB47:
 104:TestUnitTest++.cpp ****         {
 105:TestUnitTest++.cpp ****             CHECK_THROW(throw "oops", int);
 2567              		.loc 4 105 0
 2568 0f4b C645C700 		movb	$0, -57(%rbp)
 2569 0f4f BF080000 		movl	$8, %edi
 2569      00
 2570 0f54 E8000000 		call	__cxa_allocate_exception
 2570      00
 2571 0f59 48C70000 		movq	$.LC43, (%rax)
 2571      000000
 2572 0f60 BA000000 		movl	$0, %edx
 2572      00
 2573 0f65 BE000000 		movl	$_ZTIPKc, %esi
 2573      00
 2574 0f6a 4889C7   		movq	%rax, %rdi
 2575              	.LEHB56:
 2576 0f6d E8000000 		call	__cxa_throw
 2576      00
 2577              	.LEHE56:
 2578              	.L137:
 2579              		.loc 4 105 0 is_stmt 0 discriminator 6
 2580 0f72 0FB645C7 		movzbl	-57(%rbp), %eax
 2581 0f76 83F001   		xorl	$1, %eax
 2582 0f79 84C0     		testb	%al, %al
 2583 0f7b 7438     		je	.L133
 2584              	.LEHB57:
 2585              		.loc 4 105 0 discriminator 1
 2586 0f7d E8000000 		call	_ZN8UnitTest11CurrentTest7DetailsEv
 2586      00
 2587 0f82 488B08   		movq	(%rax), %rcx
 2588 0f85 488D45D0 		leaq	-48(%rbp), %rax
 2589 0f89 BA690000 		movl	$105, %edx
 2589      00
 2590 0f8e 4889CE   		movq	%rcx, %rsi
 2591 0f91 4889C7   		movq	%rax, %rdi
 2592 0f94 E8000000 		call	_ZN8UnitTest11TestDetailsC1ERKS0_i
 2592      00
 2593 0f99 E8000000 		call	_ZN8UnitTest11CurrentTest7ResultsEv
 2593      00
 2594 0f9e 488B00   		movq	(%rax), %rax
 2595 0fa1 488D4DD0 		leaq	-48(%rbp), %rcx
 2596 0fa5 BA000000 		movl	$.LC39, %edx
 2596      00
 2597 0faa 4889CE   		movq	%rcx, %rsi
 2598 0fad 4889C7   		movq	%rax, %rdi
 2599 0fb0 E8000000 		call	_ZN8UnitTest11TestResults13OnTestFailureERKNS_11TestDetailsEPKc
 2599      00
 2600              	.L133:
 2601              	.LBE47:
 2602              	.LBE46:
 106:TestUnitTest++.cpp ****         }
 2603              		.loc 4 106 0 is_stmt 1
 2604 0fb5 488B45F8 		movq	-8(%rbp), %rax
 2605 0fb9 64483304 		xorq	%fs:40, %rax
 2605      25280000 
 2605      00
 2606 0fc2 7433     		je	.L138
 2607 0fc4 EB2C     		jmp	.L140
 2608              	.L139:
 2609 0fc6 4883FA01 		cmpq	$1, %rdx
 2610 0fca 7517     		jne	.L141
 2611              	.LBB50:
 2612              	.LBB49:
 2613              	.LBB48:
 105:TestUnitTest++.cpp ****         }
 2614              		.loc 4 105 0
 2615 0fcc 4889C7   		movq	%rax, %rdi
 2616 0fcf E8000000 		call	__cxa_begin_catch
 2616      00
 2617 0fd4 488945C8 		movq	%rax, -56(%rbp)
 2618 0fd8 C645C701 		movb	$1, -57(%rbp)
 2619 0fdc E8000000 		call	__cxa_end_catch
 2619      00
 2620 0fe1 EB8F     		jmp	.L137
 2621              	.L141:
 2622              	.LBE48:
 105:TestUnitTest++.cpp ****         }
 2623              		.loc 4 105 0 is_stmt 0 discriminator 7
 2624 0fe3 4889C7   		movq	%rax, %rdi
 2625 0fe6 E8000000 		call	__cxa_begin_catch
 2625      00
 2626 0feb E8000000 		call	__cxa_end_catch
 2626      00
 2627              	.LEHE57:
 2628 0ff0 EB80     		jmp	.L137
 2629              	.L140:
 2630              	.LBE49:
 2631              	.LBE50:
 2632              		.loc 4 106 0 is_stmt 1
 2633 0ff2 E8000000 		call	__stack_chk_fail
 2633      00
 2634              	.L138:
 2635 0ff7 C9       		leave
 2636              		.cfi_def_cfa 7, 8
 2637 0ff8 C3       		ret
 2638              		.cfi_endproc
 2639              	.LFE1394:
 2640              		.section	.gcc_except_table
 2641              		.align 4
 2642              	.LLSDA1394:
 2643 018c FF       		.byte	0xff
 2644 018d 03       		.byte	0x3
 2645 018e 19       		.uleb128 .LLSDATT1394-.LLSDATTD1394
 2646              	.LLSDATTD1394:
 2647 018f 01       		.byte	0x1
 2648 0190 09       		.uleb128 .LLSDACSE1394-.LLSDACSB1394
 2649              	.LLSDACSB1394:
 2650 0191 3D       		.uleb128 .LEHB56-.LFB1394
 2651 0192 05       		.uleb128 .LEHE56-.LEHB56
 2652 0193 9601     		.uleb128 .L139-.LFB1394
 2653 0195 03       		.uleb128 0x3
 2654 0196 4D       		.uleb128 .LEHB57-.LFB1394
 2655 0197 73       		.uleb128 .LEHE57-.LEHB57
 2656 0198 00       		.uleb128 0
 2657 0199 00       		.uleb128 0
 2658              	.LLSDACSE1394:
 2659 019a 02       		.byte	0x2
 2660 019b 00       		.byte	0
 2661 019c 01       		.byte	0x1
 2662 019d 7D       		.byte	0x7d
 2663 019e 0000     		.align 4
 2664 01a0 00000000 		.long	0
 2665              	
 2666 01a4 00000000 		.long	_ZTIi
 2667              	.LLSDATT1394:
 2668              		.text
 2670 0ff9 90       		.align 2
 2672              	_ZNK12_GLOBAL__N_140TestCheckThrowMacroFailsOnWrongException7RunImplEv:
 2673              	.LFB1390:
  98:TestUnitTest++.cpp ****     class WrongThrowTest : public UnitTest::Test
 2674              		.loc 4 98 0
 2675              		.cfi_startproc
 2676              		.cfi_personality 0x3,__gxx_personality_v0
 2677              		.cfi_lsda 0x3,.LLSDA1390
 2678 0ffa 55       		pushq	%rbp
 2679              		.cfi_def_cfa_offset 16
 2680              		.cfi_offset 6, -16
 2681 0ffb 4889E5   		movq	%rsp, %rbp
 2682              		.cfi_def_cfa_register 6
 2683 0ffe 53       		pushq	%rbx
 2684 0fff 4881EC98 		subq	$152, %rsp
 2684      000000
 2685              		.cfi_offset 3, -24
 2686 1006 4889BD68 		movq	%rdi, -152(%rbp)
 2686      FFFFFF
  98:TestUnitTest++.cpp ****     class WrongThrowTest : public UnitTest::Test
 2687              		.loc 4 98 0
 2688 100d 64488B04 		movq	%fs:40, %rax
 2688      25280000 
 2688      00
 2689 1016 488945E8 		movq	%rax, -24(%rbp)
 2690 101a 31C0     		xorl	%eax, %eax
 2691              	.LBB51:
 107:TestUnitTest++.cpp ****     };
 108:TestUnitTest++.cpp **** 
 109:TestUnitTest++.cpp ****     UnitTest::TestResults results;
 2692              		.loc 4 109 0
 2693 101c 488D4590 		leaq	-112(%rbp), %rax
 2694 1020 BE000000 		movl	$0, %esi
 2694      00
 2695 1025 4889C7   		movq	%rax, %rdi
 2696              	.LEHB58:
 2697 1028 E8000000 		call	_ZN8UnitTest11TestResultsC1EPNS_12TestReporterE
 2697      00
 2698              	.LBB52:
 110:TestUnitTest++.cpp **** 	{
 111:TestUnitTest++.cpp **** 		ScopedCurrentTest scopedResults(results);
 2699              		.loc 4 111 0
 2700 102d 488D4D90 		leaq	-112(%rbp), %rcx
 2701 1031 488D4580 		leaq	-128(%rbp), %rax
 2702 1035 BA000000 		movl	$0, %edx
 2702      00
 2703 103a 4889CE   		movq	%rcx, %rsi
 2704 103d 4889C7   		movq	%rax, %rdi
 2705 1040 E8000000 		call	_ZN17ScopedCurrentTestC1ERN8UnitTest11TestResultsEPKNS0_11TestDetailsE
 2705      00
 2706              	.LEHE58:
 112:TestUnitTest++.cpp **** 
 113:TestUnitTest++.cpp **** 		WrongThrowTest test;
 2707              		.loc 4 113 0
 2708 1045 488D45B0 		leaq	-80(%rbp), %rax
 2709 1049 4889C7   		movq	%rax, %rdi
 2710              	.LEHB59:
 2711 104c E8A5FEFF 		call	_ZZNK12_GLOBAL__N_140TestCheckThrowMacroFailsOnWrongException7RunImplEvEN14WrongThrowTestC2Ev
 2711      FF
 2712              	.LEHE59:
 114:TestUnitTest++.cpp **** 		test.Run();
 2713              		.loc 4 114 0
 2714 1051 488D45B0 		leaq	-80(%rbp), %rax
 2715 1055 4889C7   		movq	%rax, %rdi
 2716              	.LEHB60:
 2717 1058 E8000000 		call	_ZN8UnitTest4Test3RunEv
 2717      00
 2718              	.LEHE60:
 113:TestUnitTest++.cpp **** 		test.Run();
 2719              		.loc 4 113 0
 2720 105d 488D45B0 		leaq	-80(%rbp), %rax
 2721 1061 4889C7   		movq	%rax, %rdi
 2722              	.LEHB61:
 2723 1064 E8391200 		call	_ZZNK12_GLOBAL__N_140TestCheckThrowMacroFailsOnWrongException7RunImplEvEN14WrongThrowTestD2Ev
 2723      00
 2724              	.LEHE61:
 2725              		.loc 4 114 0
 2726 1069 488D4580 		leaq	-128(%rbp), %rax
 2727 106d 4889C7   		movq	%rax, %rdi
 2728              	.LEHB62:
 2729 1070 E8000000 		call	_ZN17ScopedCurrentTestD1Ev
 2729      00
 2730              	.LEHE62:
 2731              	.LEHB63:
 2732              	.LBE52:
 115:TestUnitTest++.cpp **** 	}
 116:TestUnitTest++.cpp **** 
 117:TestUnitTest++.cpp **** 	CHECK_EQUAL(1, results.GetFailureCount());
 2733              		.loc 4 117 0
 2734 1075 E8000000 		call	_ZN8UnitTest11CurrentTest7DetailsEv
 2734      00
 2735 107a 488B08   		movq	(%rax), %rcx
 2736 107d 488D45B0 		leaq	-80(%rbp), %rax
 2737 1081 BA750000 		movl	$117, %edx
 2737      00
 2738 1086 4889CE   		movq	%rcx, %rsi
 2739 1089 4889C7   		movq	%rax, %rdi
 2740 108c E8000000 		call	_ZN8UnitTest11TestDetailsC1ERKS0_i
 2740      00
 2741              		.loc 4 117 0 is_stmt 0 discriminator 2
 2742 1091 488D4590 		leaq	-112(%rbp), %rax
 2743 1095 4889C7   		movq	%rax, %rdi
 2744 1098 E8000000 		call	_ZNK8UnitTest11TestResults15GetFailureCountEv
 2744      00
 2745 109d 894580   		movl	%eax, -128(%rbp)
 2746 10a0 C7857CFF 		movl	$1, -132(%rbp)
 2746      FFFF0100 
 2746      0000
 2747 10aa E8000000 		call	_ZN8UnitTest11CurrentTest7ResultsEv
 2747      00
 2748              		.loc 4 117 0 discriminator 4
 2749 10af 488B00   		movq	(%rax), %rax
 2750 10b2 488D4DB0 		leaq	-80(%rbp), %rcx
 2751 10b6 488D5580 		leaq	-128(%rbp), %rdx
 2752 10ba 488DB57C 		leaq	-132(%rbp), %rsi
 2752      FFFFFF
 2753 10c1 4889C7   		movq	%rax, %rdi
 2754 10c4 E8000000 		call	_ZN8UnitTest10CheckEqualIiiEEvRNS_11TestResultsERKT_RKT0_RKNS_11TestDetailsE
 2754      00
 2755              	.LEHE63:
 2756              	.LBE51:
 118:TestUnitTest++.cpp **** }
 2757              		.loc 4 118 0 is_stmt 1
 2758 10c9 E9830000 		jmp	.L153
 2758      00
 2759              	.L150:
 2760 10ce 4889C3   		movq	%rax, %rbx
 2761              	.LBB54:
 2762              	.LBB53:
 113:TestUnitTest++.cpp **** 		test.Run();
 2763              		.loc 4 113 0
 2764 10d1 488D45B0 		leaq	-80(%rbp), %rax
 2765 10d5 4889C7   		movq	%rax, %rdi
 2766 10d8 E8C51100 		call	_ZZNK12_GLOBAL__N_140TestCheckThrowMacroFailsOnWrongException7RunImplEvEN14WrongThrowTestD2Ev
 2766      00
 2767 10dd EB03     		jmp	.L144
 2768              	.L149:
 2769 10df 4889C3   		movq	%rax, %rbx
 2770              	.L144:
 114:TestUnitTest++.cpp **** 	}
 2771              		.loc 4 114 0
 2772 10e2 488D4580 		leaq	-128(%rbp), %rax
 2773 10e6 4889C7   		movq	%rax, %rdi
 2774 10e9 E8000000 		call	_ZN17ScopedCurrentTestD1Ev
 2774      00
 2775 10ee 4889D8   		movq	%rbx, %rax
 2776 10f1 4889C7   		movq	%rax, %rdi
 2777              	.LEHB64:
 2778 10f4 E8000000 		call	_Unwind_Resume
 2778      00
 2779              	.LEHE64:
 2780              	.L152:
 2781 10f9 4889C3   		movq	%rax, %rbx
 2782              	.LBE53:
 117:TestUnitTest++.cpp **** }
 2783              		.loc 4 117 0
 2784 10fc E8000000 		call	__cxa_end_catch
 2784      00
 2785 1101 4889D8   		movq	%rbx, %rax
 2786 1104 4889C7   		movq	%rax, %rdi
 2787              	.LEHB65:
 2788 1107 E8000000 		call	_Unwind_Resume
 2788      00
 2789              	.LEHE65:
 2790              	.L151:
 2791 110c 4889C7   		movq	%rax, %rdi
 2792 110f E8000000 		call	__cxa_begin_catch
 2792      00
 2793              	.LEHB66:
 2794 1114 E8000000 		call	_ZN8UnitTest11CurrentTest7DetailsEv
 2794      00
 2795 1119 488B08   		movq	(%rax), %rcx
 2796 111c 488D45B0 		leaq	-80(%rbp), %rax
 2797 1120 BA750000 		movl	$117, %edx
 2797      00
 2798 1125 4889CE   		movq	%rcx, %rsi
 2799 1128 4889C7   		movq	%rax, %rdi
 2800 112b E8000000 		call	_ZN8UnitTest11TestDetailsC1ERKS0_i
 2800      00
 117:TestUnitTest++.cpp **** }
 2801              		.loc 4 117 0 is_stmt 0 discriminator 12
 2802 1130 E8000000 		call	_ZN8UnitTest11CurrentTest7ResultsEv
 2802      00
 2803 1135 488B00   		movq	(%rax), %rax
 2804 1138 488D4DB0 		leaq	-80(%rbp), %rcx
 2805 113c BA000000 		movl	$.LC40, %edx
 2805      00
 2806 1141 4889CE   		movq	%rcx, %rsi
 2807 1144 4889C7   		movq	%rax, %rdi
 2808 1147 E8000000 		call	_ZN8UnitTest11TestResults13OnTestFailureERKNS_11TestDetailsEPKc
 2808      00
 2809              	.LEHE66:
 2810              	.LEHB67:
 117:TestUnitTest++.cpp **** }
 2811              		.loc 4 117 0 discriminator 16
 2812 114c E8000000 		call	__cxa_end_catch
 2812      00
 2813              	.LEHE67:
 2814              	.L153:
 2815              	.LBE54:
 2816              		.loc 4 118 0 is_stmt 1
 2817 1151 90       		nop
 2818 1152 488B45E8 		movq	-24(%rbp), %rax
 2819 1156 64483304 		xorq	%fs:40, %rax
 2819      25280000 
 2819      00
 2820 115f 7405     		je	.L148
 2821 1161 E8000000 		call	__stack_chk_fail
 2821      00
 2822              	.L148:
 2823 1166 4881C498 		addq	$152, %rsp
 2823      000000
 2824 116d 5B       		popq	%rbx
 2825 116e 5D       		popq	%rbp
 2826              		.cfi_def_cfa 7, 8
 2827 116f C3       		ret
 2828              		.cfi_endproc
 2829              	.LFE1390:
 2830              		.section	.gcc_except_table
 2831              		.align 4
 2832              	.LLSDA1390:
 2833 01a8 FF       		.byte	0xff
 2834 01a9 03       		.byte	0x3
 2835 01aa 39       		.uleb128 .LLSDATT1390-.LLSDATTD1390
 2836              	.LLSDATTD1390:
 2837 01ab 01       		.byte	0x1
 2838 01ac 31       		.uleb128 .LLSDACSE1390-.LLSDACSB1390
 2839              	.LLSDACSB1390:
 2840 01ad 2E       		.uleb128 .LEHB58-.LFB1390
 2841 01ae 1D       		.uleb128 .LEHE58-.LEHB58
 2842 01af 00       		.uleb128 0
 2843 01b0 00       		.uleb128 0
 2844 01b1 52       		.uleb128 .LEHB59-.LFB1390
 2845 01b2 05       		.uleb128 .LEHE59-.LEHB59
 2846 01b3 E501     		.uleb128 .L149-.LFB1390
 2847 01b5 00       		.uleb128 0
 2848 01b6 5E       		.uleb128 .LEHB60-.LFB1390
 2849 01b7 05       		.uleb128 .LEHE60-.LEHB60
 2850 01b8 D401     		.uleb128 .L150-.LFB1390
 2851 01ba 00       		.uleb128 0
 2852 01bb 6A       		.uleb128 .LEHB61-.LFB1390
 2853 01bc 05       		.uleb128 .LEHE61-.LEHB61
 2854 01bd E501     		.uleb128 .L149-.LFB1390
 2855 01bf 00       		.uleb128 0
 2856 01c0 76       		.uleb128 .LEHB62-.LFB1390
 2857 01c1 05       		.uleb128 .LEHE62-.LEHB62
 2858 01c2 00       		.uleb128 0
 2859 01c3 00       		.uleb128 0
 2860 01c4 7B       		.uleb128 .LEHB63-.LFB1390
 2861 01c5 54       		.uleb128 .LEHE63-.LEHB63
 2862 01c6 9202     		.uleb128 .L151-.LFB1390
 2863 01c8 01       		.uleb128 0x1
 2864 01c9 FA01     		.uleb128 .LEHB64-.LFB1390
 2865 01cb 05       		.uleb128 .LEHE64-.LEHB64
 2866 01cc 00       		.uleb128 0
 2867 01cd 00       		.uleb128 0
 2868 01ce 8D02     		.uleb128 .LEHB65-.LFB1390
 2869 01d0 05       		.uleb128 .LEHE65-.LEHB65
 2870 01d1 00       		.uleb128 0
 2871 01d2 00       		.uleb128 0
 2872 01d3 9A02     		.uleb128 .LEHB66-.LFB1390
 2873 01d5 38       		.uleb128 .LEHE66-.LEHB66
 2874 01d6 FF01     		.uleb128 .L152-.LFB1390
 2875 01d8 00       		.uleb128 0
 2876 01d9 D202     		.uleb128 .LEHB67-.LFB1390
 2877 01db 05       		.uleb128 .LEHE67-.LEHB67
 2878 01dc 00       		.uleb128 0
 2879 01dd 00       		.uleb128 0
 2880              	.LLSDACSE1390:
 2881 01de 01       		.byte	0x1
 2882 01df 00       		.byte	0
 2883              		.align 4
 2884 01e0 00000000 		.long	0
 2885              	
 2886              	.LLSDATT1390:
 2887              		.text
 2889              		.align 2
 2891              	_ZN12_GLOBAL__N_113SimpleFixtureC2Ev:
 2892              	.LFB1396:
 119:TestUnitTest++.cpp **** 
 120:TestUnitTest++.cpp **** struct SimpleFixture
 121:TestUnitTest++.cpp **** {
 122:TestUnitTest++.cpp ****     SimpleFixture()
 2893              		.loc 4 122 0
 2894              		.cfi_startproc
 2895 1170 55       		pushq	%rbp
 2896              		.cfi_def_cfa_offset 16
 2897              		.cfi_offset 6, -16
 2898 1171 4889E5   		movq	%rsp, %rbp
 2899              		.cfi_def_cfa_register 6
 2900 1174 48897DF8 		movq	%rdi, -8(%rbp)
 2901              	.LBB55:
 123:TestUnitTest++.cpp ****     {
 124:TestUnitTest++.cpp ****         ++instanceCount;
 2902              		.loc 4 124 0
 2903 1178 8B050000 		movl	_ZN12_GLOBAL__N_113SimpleFixture13instanceCountE(%rip), %eax
 2903      0000
 2904 117e 83C001   		addl	$1, %eax
 2905 1181 89050000 		movl	%eax, _ZN12_GLOBAL__N_113SimpleFixture13instanceCountE(%rip)
 2905      0000
 2906              	.LBE55:
 125:TestUnitTest++.cpp ****     }
 2907              		.loc 4 125 0
 2908 1187 5D       		popq	%rbp
 2909              		.cfi_def_cfa 7, 8
 2910 1188 C3       		ret
 2911              		.cfi_endproc
 2912              	.LFE1396:
 2914 1189 90       		.align 2
 2916              	_ZN12_GLOBAL__N_113SimpleFixtureD2Ev:
 2917              	.LFB1399:
 126:TestUnitTest++.cpp ****     ~SimpleFixture()
 2918              		.loc 4 126 0
 2919              		.cfi_startproc
 2920 118a 55       		pushq	%rbp
 2921              		.cfi_def_cfa_offset 16
 2922              		.cfi_offset 6, -16
 2923 118b 4889E5   		movq	%rsp, %rbp
 2924              		.cfi_def_cfa_register 6
 2925 118e 48897DF8 		movq	%rdi, -8(%rbp)
 2926              	.LBB56:
 127:TestUnitTest++.cpp ****     {
 128:TestUnitTest++.cpp ****         --instanceCount;
 2927              		.loc 4 128 0
 2928 1192 8B050000 		movl	_ZN12_GLOBAL__N_113SimpleFixture13instanceCountE(%rip), %eax
 2928      0000
 2929 1198 83E801   		subl	$1, %eax
 2930 119b 89050000 		movl	%eax, _ZN12_GLOBAL__N_113SimpleFixture13instanceCountE(%rip)
 2930      0000
 2931              	.LBE56:
 129:TestUnitTest++.cpp ****     }
 2932              		.loc 4 129 0
 2933 11a1 5D       		popq	%rbp
 2934              		.cfi_def_cfa 7, 8
 2935 11a2 C3       		ret
 2936              		.cfi_endproc
 2937              	.LFE1399:
 2939              		.local	_ZN12_GLOBAL__N_113SimpleFixture13instanceCountE
 2940              		.comm	_ZN12_GLOBAL__N_113SimpleFixture13instanceCountE,4,4
 2941 11a3 90       		.align 2
 2943              	_ZN12_GLOBAL__N_145SimpleFixtureDefaultFixtureCtorIsCalledHelperC2ERKN8UnitTest11TestDetailsE:
 2944              	.LFB1402:
 130:TestUnitTest++.cpp **** 
 131:TestUnitTest++.cpp ****     static int instanceCount;
 132:TestUnitTest++.cpp **** };
 133:TestUnitTest++.cpp **** 
 134:TestUnitTest++.cpp **** int SimpleFixture::instanceCount = 0;
 135:TestUnitTest++.cpp **** 
 136:TestUnitTest++.cpp **** TEST_FIXTURE(SimpleFixture, DefaultFixtureCtorIsCalled)
 2945              		.loc 4 136 0
 2946              		.cfi_startproc
 2947 11a4 55       		pushq	%rbp
 2948              		.cfi_def_cfa_offset 16
 2949              		.cfi_offset 6, -16
 2950 11a5 4889E5   		movq	%rsp, %rbp
 2951              		.cfi_def_cfa_register 6
 2952 11a8 4883EC10 		subq	$16, %rsp
 2953 11ac 48897DF8 		movq	%rdi, -8(%rbp)
 2954 11b0 488975F0 		movq	%rsi, -16(%rbp)
 2955              	.LBB57:
 2956              		.loc 4 136 0
 2957 11b4 488B45F8 		movq	-8(%rbp), %rax
 2958 11b8 4889C7   		movq	%rax, %rdi
 2959 11bb E8B0FFFF 		call	_ZN12_GLOBAL__N_113SimpleFixtureC2Ev
 2959      FF
 2960 11c0 488B45F8 		movq	-8(%rbp), %rax
 2961 11c4 488B55F0 		movq	-16(%rbp), %rdx
 2962 11c8 488910   		movq	%rdx, (%rax)
 2963              	.LBE57:
 2964 11cb C9       		leave
 2965              		.cfi_def_cfa 7, 8
 2966 11cc C3       		ret
 2967              		.cfi_endproc
 2968              	.LFE1402:
 2970              		.section	.rodata
 2971              	.LC44:
 2972 0405 44656661 		.string	"DefaultFixtureCtorIsCalled"
 2972      756C7446 
 2972      69787475 
 2972      72654374 
 2972      6F724973 
 2973              		.text
 2974 11cd 90       		.align 2
 2976              	_ZN12_GLOBAL__N_143TestSimpleFixtureDefaultFixtureCtorIsCalledC2Ev:
 2977              	.LFB1405:
 2978              		.loc 4 136 0
 2979              		.cfi_startproc
 2980 11ce 55       		pushq	%rbp
 2981              		.cfi_def_cfa_offset 16
 2982              		.cfi_offset 6, -16
 2983 11cf 4889E5   		movq	%rsp, %rbp
 2984              		.cfi_def_cfa_register 6
 2985 11d2 4883EC10 		subq	$16, %rsp
 2986 11d6 48897DF8 		movq	%rdi, -8(%rbp)
 2987              	.LBB58:
 2988              		.loc 4 136 0
 2989 11da E8000000 		call	_ZN13UnitTestSuite12GetSuiteNameEv
 2989      00
 2990 11df 4889C2   		movq	%rax, %rdx
 2991 11e2 488B45F8 		movq	-8(%rbp), %rax
 2992 11e6 41B88800 		movl	$136, %r8d
 2992      0000
 2993 11ec B9000000 		movl	$.LC1, %ecx
 2993      00
 2994 11f1 BE000000 		movl	$.LC44, %esi
 2994      00
 2995 11f6 4889C7   		movq	%rax, %rdi
 2996 11f9 E8000000 		call	_ZN8UnitTest4TestC2EPKcS2_S2_i
 2996      00
 2997 11fe 488B45F8 		movq	-8(%rbp), %rax
 2998 1202 48C70000 		movq	$_ZTVN12_GLOBAL__N_143TestSimpleFixtureDefaultFixtureCtorIsCalledE+16, (%rax)
 2998      000000
 2999              	.LBE58:
 3000 1209 C9       		leave
 3001              		.cfi_def_cfa 7, 8
 3002 120a C3       		ret
 3003              		.cfi_endproc
 3004              	.LFE1405:
 3006              		.local	_ZN12_GLOBAL__N_151testSimpleFixtureDefaultFixtureCtorIsCalledInstanceE
 3007              		.comm	_ZN12_GLOBAL__N_151testSimpleFixtureDefaultFixtureCtorIsCalledInstanceE,56,32
 3008              		.local	_ZN12_GLOBAL__N_144adderSimpleFixtureDefaultFixtureCtorIsCalledE
 3009              		.comm	_ZN12_GLOBAL__N_144adderSimpleFixtureDefaultFixtureCtorIsCalledE,1,1
 3010 120b 90       		.align 2
 3012              	_ZN12_GLOBAL__N_145SimpleFixtureDefaultFixtureCtorIsCalledHelperD2Ev:
 3013              	.LFB1409:
 3014              		.loc 4 136 0
 3015              		.cfi_startproc
 3016 120c 55       		pushq	%rbp
 3017              		.cfi_def_cfa_offset 16
 3018              		.cfi_offset 6, -16
 3019 120d 4889E5   		movq	%rsp, %rbp
 3020              		.cfi_def_cfa_register 6
 3021 1210 4883EC08 		subq	$8, %rsp
 3022 1214 48897DF8 		movq	%rdi, -8(%rbp)
 3023              	.LBB59:
 3024              		.loc 4 136 0
 3025 1218 488B45F8 		movq	-8(%rbp), %rax
 3026 121c 4889C7   		movq	%rax, %rdi
 3027 121f E866FFFF 		call	_ZN12_GLOBAL__N_113SimpleFixtureD2Ev
 3027      FF
 3028              	.LBE59:
 3029 1224 C9       		leave
 3030              		.cfi_def_cfa 7, 8
 3031 1225 C3       		ret
 3032              		.cfi_endproc
 3033              	.LFE1409:
 3035              		.section	.rodata
 3036              	.LC45:
 3037 0420 556E6861 		.string	"Unhandled exception: "
 3037      6E646C65 
 3037      64206578 
 3037      63657074 
 3037      696F6E3A 
 3038 0436 0000     		.align 8
 3039              	.LC46:
 3040 0438 556E6861 		.string	"Unhandled exception while destroying fixture SimpleFixture"
 3040      6E646C65 
 3040      64206578 
 3040      63657074 
 3040      696F6E20 
 3041 0473 00000000 		.align 8
 3041      00
 3042              	.LC47:
 3043 0478 556E6861 		.string	"Unhandled exception while constructing fixture SimpleFixture"
 3043      6E646C65 
 3043      64206578 
 3043      63657074 
 3043      696F6E20 
 3044              		.text
 3045              		.align 2
 3047              	_ZNK12_GLOBAL__N_143TestSimpleFixtureDefaultFixtureCtorIsCalled7RunImplEv:
 3048              	.LFB1407:
 3049              		.loc 4 136 0
 3050              		.cfi_startproc
 3051              		.cfi_personality 0x3,__gxx_personality_v0
 3052              		.cfi_lsda 0x3,.LLSDA1407
 3053 1226 55       		pushq	%rbp
 3054              		.cfi_def_cfa_offset 16
 3055              		.cfi_offset 6, -16
 3056 1227 4889E5   		movq	%rsp, %rbp
 3057              		.cfi_def_cfa_register 6
 3058 122a 4154     		pushq	%r12
 3059 122c 53       		pushq	%rbx
 3060 122d 4881ECC0 		subq	$448, %rsp
 3060      010000
 3061              		.cfi_offset 12, -24
 3062              		.cfi_offset 3, -32
 3063 1234 4889BD38 		movq	%rdi, -456(%rbp)
 3063      FEFFFF
 3064              		.loc 4 136 0
 3065 123b 64488B04 		movq	%fs:40, %rax
 3065      25280000 
 3065      00
 3066 1244 488945E8 		movq	%rax, -24(%rbp)
 3067 1248 31C0     		xorl	%eax, %eax
 3068              	.LBB60:
 3069 124a C6854FFE 		movb	$0, -433(%rbp)
 3069      FFFF00
 3070              	.LBB61:
 3071 1251 488B8538 		movq	-456(%rbp), %rax
 3071      FEFFFF
 3072 1258 488D5008 		leaq	8(%rax), %rdx
 3073 125c 488D8560 		leaq	-416(%rbp), %rax
 3073      FEFFFF
 3074 1263 4889D6   		movq	%rdx, %rsi
 3075 1266 4889C7   		movq	%rax, %rdi
 3076 1269 E836FFFF 		call	_ZN12_GLOBAL__N_145SimpleFixtureDefaultFixtureCtorIsCalledHelperC2ERKN8UnitTest11TestDetailsE
 3076      FF
 3077 126e C6854FFE 		movb	$1, -433(%rbp)
 3077      FFFF01
 3078 1275 488B8538 		movq	-456(%rbp), %rax
 3078      FEFFFF
 3079 127c 488D5008 		leaq	8(%rax), %rdx
 3080 1280 488D8560 		leaq	-416(%rbp), %rax
 3080      FEFFFF
 3081 1287 4889D6   		movq	%rdx, %rsi
 3082 128a 4889C7   		movq	%rax, %rdi
 3083              	.LEHB68:
 3084 128d E8140900 		call	_ZN8UnitTest11ExecuteTestIN12_GLOBAL__N_145SimpleFixtureDefaultFixtureCtorIsCalledHelperEEEvR
 3084      00
 3085              	.LEHE68:
 3086              		.loc 4 136 0 is_stmt 0 discriminator 2
 3087 1292 488D8560 		leaq	-416(%rbp), %rax
 3087      FEFFFF
 3088 1299 4889C7   		movq	%rax, %rdi
 3089 129c E86BFFFF 		call	_ZN12_GLOBAL__N_145SimpleFixtureDefaultFixtureCtorIsCalledHelperD2Ev
 3089      FF
 3090              	.LBE61:
 3091              	.LBE60:
 3092 12a1 E9620200 		jmp	.L180
 3092      00
 3093              	.L174:
 3094 12a6 4989C4   		movq	%rax, %r12
 3095 12a9 4889D3   		movq	%rdx, %rbx
 3096              	.LBB69:
 3097              	.LBB62:
 3098              		.loc 4 136 0
 3099 12ac 488D8560 		leaq	-416(%rbp), %rax
 3099      FEFFFF
 3100 12b3 4889C7   		movq	%rax, %rdi
 3101 12b6 E851FFFF 		call	_ZN12_GLOBAL__N_145SimpleFixtureDefaultFixtureCtorIsCalledHelperD2Ev
 3101      FF
 3102 12bb 4C89E0   		movq	%r12, %rax
 3103 12be 4889DA   		movq	%rbx, %rdx
 3104 12c1 4883FA01 		cmpq	$1, %rdx
 3105 12c5 745C     		je	.L164
 3106 12c7 4883FA02 		cmpq	$2, %rdx
 3107 12cb 0F84F400 		je	.L165
 3107      0000
 3108 12d1 E9980100 		jmp	.L179
 3108      00
 3109              	.L175:
 3110 12d6 4889C3   		movq	%rax, %rbx
 3111              	.LBE62:
 3112              	.LBB63:
 3113 12d9 E8000000 		call	__cxa_end_catch
 3113      00
 3114 12de 4889D8   		movq	%rbx, %rax
 3115 12e1 4889C7   		movq	%rax, %rdi
 3116              	.LEHB69:
 3117 12e4 E8000000 		call	_Unwind_Resume
 3117      00
 3118              	.LEHE69:
 3119              	.L176:
 3120 12e9 4889C3   		movq	%rax, %rbx
 3121              	.LBE63:
 3122              	.LBB64:
 3123              	.LBB65:
 3124 12ec 488D8580 		leaq	-384(%rbp), %rax
 3124      FEFFFF
 3125 12f3 4889C7   		movq	%rax, %rdi
 3126 12f6 E8000000 		call	_ZN8UnitTest15MemoryOutStreamD1Ev
 3126      00
 3127 12fb EB03     		jmp	.L168
 3128              	.L177:
 3129 12fd 4889C3   		movq	%rax, %rbx
 3130              	.L168:
 3131              	.LBE65:
 3132 1300 E8000000 		call	__cxa_end_catch
 3132      00
 3133 1305 4889D8   		movq	%rbx, %rax
 3134 1308 4889C7   		movq	%rax, %rdi
 3135              	.LEHB70:
 3136 130b E8000000 		call	_Unwind_Resume
 3136      00
 3137              	.LEHE70:
 3138              	.L178:
 3139 1310 4889C3   		movq	%rax, %rbx
 3140              	.LBE64:
 3141 1313 E8000000 		call	__cxa_end_catch
 3141      00
 3142 1318 4889D8   		movq	%rbx, %rax
 3143 131b 4889C7   		movq	%rax, %rdi
 3144              	.LEHB71:
 3145 131e E8000000 		call	_Unwind_Resume
 3145      00
 3146              	.LEHE71:
 3147              	.L164:
 3148              	.LBB67:
 3149 1323 4889C7   		movq	%rax, %rdi
 3150 1326 E8000000 		call	__cxa_begin_catch
 3150      00
 3151 132b 48898550 		movq	%rax, -432(%rbp)
 3151      FEFFFF
 3152 1332 488B8550 		movq	-432(%rbp), %rax
 3152      FEFFFF
 3153 1339 488B00   		movq	(%rax), %rax
 3154 133c 4883C010 		addq	$16, %rax
 3155 1340 488B00   		movq	(%rax), %rax
 3156 1343 488B9550 		movq	-432(%rbp), %rdx
 3156      FEFFFF
 3157 134a 4889D7   		movq	%rdx, %rdi
 3158 134d FFD0     		call	*%rax
 3159 134f 4889C3   		movq	%rax, %rbx
 3160 1352 488B8550 		movq	-432(%rbp), %rax
 3160      FEFFFF
 3161 1359 4889C7   		movq	%rax, %rdi
 3162              	.LEHB72:
 3163 135c E8000000 		call	_ZNK8UnitTest15AssertException10LineNumberEv
 3163      00
 3164 1361 4189C4   		movl	%eax, %r12d
 3165 1364 488B8550 		movq	-432(%rbp), %rax
 3165      FEFFFF
 3166 136b 4889C7   		movq	%rax, %rdi
 3167 136e E8000000 		call	_ZNK8UnitTest15AssertException8FilenameEv
 3167      00
 3168              		.loc 4 136 0 discriminator 4
 3169 1373 4889C1   		movq	%rax, %rcx
 3170 1376 488B8538 		movq	-456(%rbp), %rax
 3170      FEFFFF
 3171 137d 488B5008 		movq	8(%rax), %rdx
 3172 1381 488B8538 		movq	-456(%rbp), %rax
 3172      FEFFFF
 3173 1388 488B7010 		movq	16(%rax), %rsi
 3174 138c 488D8560 		leaq	-416(%rbp), %rax
 3174      FEFFFF
 3175 1393 4589E0   		movl	%r12d, %r8d
 3176 1396 4889C7   		movq	%rax, %rdi
 3177 1399 E8000000 		call	_ZN8UnitTest11TestDetailsC1EPKcS2_S2_i
 3177      00
 3178              		.loc 4 136 0 discriminator 8
 3179 139e E8000000 		call	_ZN8UnitTest11CurrentTest7ResultsEv
 3179      00
 3180 13a3 488B00   		movq	(%rax), %rax
 3181 13a6 488D8D60 		leaq	-416(%rbp), %rcx
 3181      FEFFFF
 3182 13ad 4889DA   		movq	%rbx, %rdx
 3183 13b0 4889CE   		movq	%rcx, %rsi
 3184 13b3 4889C7   		movq	%rax, %rdi
 3185 13b6 E8000000 		call	_ZN8UnitTest11TestResults13OnTestFailureERKNS_11TestDetailsEPKc
 3185      00
 3186              	.LEHE72:
 3187              		.loc 4 136 0 discriminator 12
 3188 13bb E8000000 		call	__cxa_end_catch
 3188      00
 3189              	.LBE67:
 3190              	.LBE69:
 3191 13c0 E9430100 		jmp	.L180
 3191      00
 3192              	.L165:
 3193              	.LBB70:
 3194              	.LBB68:
 3195              		.loc 4 136 0
 3196 13c5 4889C7   		movq	%rax, %rdi
 3197 13c8 E8000000 		call	__cxa_begin_catch
 3197      00
 3198 13cd 48898558 		movq	%rax, -424(%rbp)
 3198      FEFFFF
 3199              	.LBB66:
 3200 13d4 488D8580 		leaq	-384(%rbp), %rax
 3200      FEFFFF
 3201 13db 4889C7   		movq	%rax, %rdi
 3202              	.LEHB73:
 3203 13de E8000000 		call	_ZN8UnitTest15MemoryOutStreamC1Ev
 3203      00
 3204              	.LEHE73:
 3205              		.loc 4 136 0 discriminator 14
 3206 13e3 488B8558 		movq	-424(%rbp), %rax
 3206      FEFFFF
 3207 13ea 488B00   		movq	(%rax), %rax
 3208 13ed 4883C010 		addq	$16, %rax
 3209 13f1 488B00   		movq	(%rax), %rax
 3210 13f4 488B9558 		movq	-424(%rbp), %rdx
 3210      FEFFFF
 3211 13fb 4889D7   		movq	%rdx, %rdi
 3212 13fe FFD0     		call	*%rax
 3213 1400 4889C3   		movq	%rax, %rbx
 3214 1403 488D8580 		leaq	-384(%rbp), %rax
 3214      FEFFFF
 3215 140a BE000000 		movl	$.LC45, %esi
 3215      00
 3216 140f 4889C7   		movq	%rax, %rdi
 3217              	.LEHB74:
 3218 1412 E8000000 		call	_ZStlsISt11char_traitsIcEERSt13basic_ostreamIcT_ES5_PKc
 3218      00
 3219 1417 4889DE   		movq	%rbx, %rsi
 3220 141a 4889C7   		movq	%rax, %rdi
 3221 141d E8000000 		call	_ZStlsISt11char_traitsIcEERSt13basic_ostreamIcT_ES5_PKc
 3221      00
 3222              		.loc 4 136 0 discriminator 18
 3223 1422 488D8580 		leaq	-384(%rbp), %rax
 3223      FEFFFF
 3224 1429 4889C7   		movq	%rax, %rdi
 3225 142c E8000000 		call	_ZNK8UnitTest15MemoryOutStream7GetTextEv
 3225      00
 3226 1431 4989C4   		movq	%rax, %r12
 3227 1434 488B8538 		movq	-456(%rbp), %rax
 3227      FEFFFF
 3228 143b 488D5808 		leaq	8(%rax), %rbx
 3229 143f E8000000 		call	_ZN8UnitTest11CurrentTest7ResultsEv
 3229      00
 3230              		.loc 4 136 0 discriminator 20
 3231 1444 488B00   		movq	(%rax), %rax
 3232 1447 4C89E2   		movq	%r12, %rdx
 3233 144a 4889DE   		movq	%rbx, %rsi
 3234 144d 4889C7   		movq	%rax, %rdi
 3235 1450 E8000000 		call	_ZN8UnitTest11TestResults13OnTestFailureERKNS_11TestDetailsEPKc
 3235      00
 3236              	.LEHE74:
 3237              		.loc 4 136 0 discriminator 24
 3238 1455 488D8580 		leaq	-384(%rbp), %rax
 3238      FEFFFF
 3239 145c 4889C7   		movq	%rax, %rdi
 3240              	.LEHB75:
 3241 145f E8000000 		call	_ZN8UnitTest15MemoryOutStreamD1Ev
 3241      00
 3242              	.LEHE75:
 3243              	.LBE66:
 3244              		.loc 4 136 0 discriminator 25
 3245 1464 E8000000 		call	__cxa_end_catch
 3245      00
 3246              	.LBE68:
 3247              	.LBE70:
 3248 1469 E99A0000 		jmp	.L180
 3248      00
 3249              	.L179:
 3250              	.LBB71:
 3251              		.loc 4 136 0
 3252 146e 4889C7   		movq	%rax, %rdi
 3253 1471 E8000000 		call	__cxa_begin_catch
 3253      00
 3254 1476 80BD4FFE 		cmpb	$0, -433(%rbp)
 3254      FFFF00
 3255 147d 7443     		je	.L171
 3256              		.loc 4 136 0 discriminator 27
 3257 147f 488B8538 		movq	-456(%rbp), %rax
 3257      FEFFFF
 3258 1486 488D4808 		leaq	8(%rax), %rcx
 3259 148a 488D8560 		leaq	-416(%rbp), %rax
 3259      FEFFFF
 3260 1491 BA880000 		movl	$136, %edx
 3260      00
 3261 1496 4889CE   		movq	%rcx, %rsi
 3262 1499 4889C7   		movq	%rax, %rdi
 3263              	.LEHB76:
 3264 149c E8000000 		call	_ZN8UnitTest11TestDetailsC1ERKS0_i
 3264      00
 3265              		.loc 4 136 0 discriminator 30
 3266 14a1 E8000000 		call	_ZN8UnitTest11CurrentTest7ResultsEv
 3266      00
 3267 14a6 488B00   		movq	(%rax), %rax
 3268 14a9 488D8D60 		leaq	-416(%rbp), %rcx
 3268      FEFFFF
 3269 14b0 BA000000 		movl	$.LC46, %edx
 3269      00
 3270 14b5 4889CE   		movq	%rcx, %rsi
 3271 14b8 4889C7   		movq	%rax, %rdi
 3272 14bb E8000000 		call	_ZN8UnitTest11TestResults13OnTestFailureERKNS_11TestDetailsEPKc
 3272      00
 3273 14c0 EB41     		jmp	.L172
 3274              	.L171:
 3275              		.loc 4 136 0 discriminator 28
 3276 14c2 488B8538 		movq	-456(%rbp), %rax
 3276      FEFFFF
 3277 14c9 488D4808 		leaq	8(%rax), %rcx
 3278 14cd 488D8560 		leaq	-416(%rbp), %rax
 3278      FEFFFF
 3279 14d4 BA880000 		movl	$136, %edx
 3279      00
 3280 14d9 4889CE   		movq	%rcx, %rsi
 3281 14dc 4889C7   		movq	%rax, %rdi
 3282 14df E8000000 		call	_ZN8UnitTest11TestDetailsC1ERKS0_i
 3282      00
 3283              		.loc 4 136 0 discriminator 37
 3284 14e4 E8000000 		call	_ZN8UnitTest11CurrentTest7ResultsEv
 3284      00
 3285 14e9 488B00   		movq	(%rax), %rax
 3286 14ec 488D8D60 		leaq	-416(%rbp), %rcx
 3286      FEFFFF
 3287 14f3 BA000000 		movl	$.LC47, %edx
 3287      00
 3288 14f8 4889CE   		movq	%rcx, %rsi
 3289 14fb 4889C7   		movq	%rax, %rdi
 3290 14fe E8000000 		call	_ZN8UnitTest11TestResults13OnTestFailureERKNS_11TestDetailsEPKc
 3290      00
 3291              	.LEHE76:
 3292              	.L172:
 3293              	.LEHB77:
 3294              		.loc 4 136 0 discriminator 42
 3295 1503 E8000000 		call	__cxa_end_catch
 3295      00
 3296              	.LEHE77:
 3297              	.L180:
 3298              	.LBE71:
 3299              		.loc 4 136 0
 3300 1508 90       		nop
 3301 1509 488B45E8 		movq	-24(%rbp), %rax
 3302 150d 64483304 		xorq	%fs:40, %rax
 3302      25280000 
 3302      00
 3303 1516 7405     		je	.L173
 3304 1518 E8000000 		call	__stack_chk_fail
 3304      00
 3305              	.L173:
 3306 151d 4881C4C0 		addq	$448, %rsp
 3306      010000
 3307 1524 5B       		popq	%rbx
 3308 1525 415C     		popq	%r12
 3309 1527 5D       		popq	%rbp
 3310              		.cfi_def_cfa 7, 8
 3311 1528 C3       		ret
 3312              		.cfi_endproc
 3313              	.LFE1407:
 3314              		.section	.gcc_except_table
 3315              		.align 4
 3316              	.LLSDA1407:
 3317 01e4 FF       		.byte	0xff
 3318 01e5 03       		.byte	0x3
 3319 01e6 4D       		.uleb128 .LLSDATT1407-.LLSDATTD1407
 3320              	.LLSDATTD1407:
 3321 01e7 01       		.byte	0x1
 3322 01e8 37       		.uleb128 .LLSDACSE1407-.LLSDACSB1407
 3323              	.LLSDACSB1407:
 3324 01e9 67       		.uleb128 .LEHB68-.LFB1407
 3325 01ea 05       		.uleb128 .LEHE68-.LEHB68
 3326 01eb 8001     		.uleb128 .L174-.LFB1407
 3327 01ed 07       		.uleb128 0x7
 3328 01ee BE01     		.uleb128 .LEHB69-.LFB1407
 3329 01f0 05       		.uleb128 .LEHE69-.LEHB69
 3330 01f1 00       		.uleb128 0
 3331 01f2 00       		.uleb128 0
 3332 01f3 E501     		.uleb128 .LEHB70-.LFB1407
 3333 01f5 05       		.uleb128 .LEHE70-.LEHB70
 3334 01f6 00       		.uleb128 0
 3335 01f7 00       		.uleb128 0
 3336 01f8 F801     		.uleb128 .LEHB71-.LFB1407
 3337 01fa 05       		.uleb128 .LEHE71-.LEHB71
 3338 01fb 00       		.uleb128 0
 3339 01fc 00       		.uleb128 0
 3340 01fd B602     		.uleb128 .LEHB72-.LFB1407
 3341 01ff 5F       		.uleb128 .LEHE72-.LEHB72
 3342 0200 B001     		.uleb128 .L175-.LFB1407
 3343 0202 00       		.uleb128 0
 3344 0203 B803     		.uleb128 .LEHB73-.LFB1407
 3345 0205 05       		.uleb128 .LEHE73-.LEHB73
 3346 0206 D701     		.uleb128 .L177-.LFB1407
 3347 0208 00       		.uleb128 0
 3348 0209 EC03     		.uleb128 .LEHB74-.LFB1407
 3349 020b 43       		.uleb128 .LEHE74-.LEHB74
 3350 020c C301     		.uleb128 .L176-.LFB1407
 3351 020e 00       		.uleb128 0
 3352 020f B904     		.uleb128 .LEHB75-.LFB1407
 3353 0211 05       		.uleb128 .LEHE75-.LEHB75
 3354 0212 D701     		.uleb128 .L177-.LFB1407
 3355 0214 00       		.uleb128 0
 3356 0215 F604     		.uleb128 .LEHB76-.LFB1407
 3357 0217 67       		.uleb128 .LEHE76-.LEHB76
 3358 0218 EA01     		.uleb128 .L178-.LFB1407
 3359 021a 00       		.uleb128 0
 3360 021b DD05     		.uleb128 .LEHB77-.LFB1407
 3361 021d 05       		.uleb128 .LEHE77-.LEHB77
 3362 021e 00       		.uleb128 0
 3363 021f 00       		.uleb128 0
 3364              	.LLSDACSE1407:
 3365 0220 03       		.byte	0x3
 3366 0221 00       		.byte	0
 3367 0222 02       		.byte	0x2
 3368 0223 7D       		.byte	0x7d
 3369 0224 01       		.byte	0x1
 3370 0225 7D       		.byte	0x7d
 3371 0226 00       		.byte	0
 3372 0227 7D       		.byte	0x7d
 3373              		.align 4
 3374 0228 00000000 		.long	0
 3375              	
 3376 022c 00000000 		.long	_ZTISt9exception
 3377 0230 00000000 		.long	_ZTIN8UnitTest15AssertExceptionE
 3378              	.LLSDATT1407:
 3379              		.text
 3381              		.section	.rodata
 3382 04b5 000000   		.align 8
 3383              	.LC48:
 3384 04b8 53696D70 		.string	"SimpleFixture::instanceCount > 0"
 3384      6C654669 
 3384      78747572 
 3384      653A3A69 
 3384      6E737461 
 3385 04d9 00000000 		.align 8
 3385      000000
 3386              	.LC49:
 3387 04e0 556E6861 		.string	"Unhandled exception in CHECK(SimpleFixture::instanceCount > 0)"
 3387      6E646C65 
 3387      64206578 
 3387      63657074 
 3387      696F6E20 
 3388              		.text
 3389 1529 90       		.align 2
 3391              	_ZN12_GLOBAL__N_145SimpleFixtureDefaultFixtureCtorIsCalledHelper7RunImplEv:
 3392              	.LFB1411:
 137:TestUnitTest++.cpp **** {
 3393              		.loc 4 137 0 is_stmt 1
 3394              		.cfi_startproc
 3395              		.cfi_personality 0x3,__gxx_personality_v0
 3396              		.cfi_lsda 0x3,.LLSDA1411
 3397 152a 55       		pushq	%rbp
 3398              		.cfi_def_cfa_offset 16
 3399              		.cfi_offset 6, -16
 3400 152b 4889E5   		movq	%rsp, %rbp
 3401              		.cfi_def_cfa_register 6
 3402 152e 53       		pushq	%rbx
 3403 152f 4883EC48 		subq	$72, %rsp
 3404              		.cfi_offset 3, -24
 3405 1533 48897DB8 		movq	%rdi, -72(%rbp)
 3406              		.loc 4 137 0
 3407 1537 64488B04 		movq	%fs:40, %rax
 3407      25280000 
 3407      00
 3408 1540 488945E8 		movq	%rax, -24(%rbp)
 3409 1544 31C0     		xorl	%eax, %eax
 138:TestUnitTest++.cpp ****     CHECK(SimpleFixture::instanceCount > 0);
 3410              		.loc 4 138 0
 3411 1546 8B050000 		movl	_ZN12_GLOBAL__N_113SimpleFixture13instanceCountE(%rip), %eax
 3411      0000
 3412 154c 85C0     		testl	%eax, %eax
 3413 154e 0F9FC0   		setg	%al
 3414 1551 0FB6C0   		movzbl	%al, %eax
 3415 1554 89C7     		movl	%eax, %edi
 3416 1556 E8000000 		call	_ZN8UnitTest5CheckIbEEbT_
 3416      00
 3417 155b 83F001   		xorl	$1, %eax
 3418 155e 84C0     		testb	%al, %al
 3419 1560 0F849300 		je	.L181
 3419      0000
 3420              	.LEHB78:
 3421              		.loc 4 138 0 is_stmt 0 discriminator 1
 3422 1566 E8000000 		call	_ZN8UnitTest11CurrentTest7DetailsEv
 3422      00
 3423 156b 488B08   		movq	(%rax), %rcx
 3424 156e 488D45C0 		leaq	-64(%rbp), %rax
 3425 1572 BA8A0000 		movl	$138, %edx
 3425      00
 3426 1577 4889CE   		movq	%rcx, %rsi
 3427 157a 4889C7   		movq	%rax, %rdi
 3428 157d E8000000 		call	_ZN8UnitTest11TestDetailsC1ERKS0_i
 3428      00
 3429              		.loc 4 138 0 discriminator 3
 3430 1582 E8000000 		call	_ZN8UnitTest11CurrentTest7ResultsEv
 3430      00
 3431 1587 488B00   		movq	(%rax), %rax
 3432 158a 488D4DC0 		leaq	-64(%rbp), %rcx
 3433 158e BA000000 		movl	$.LC48, %edx
 3433      00
 3434 1593 4889CE   		movq	%rcx, %rsi
 3435 1596 4889C7   		movq	%rax, %rdi
 3436 1599 E8000000 		call	_ZN8UnitTest11TestResults13OnTestFailureERKNS_11TestDetailsEPKc
 3436      00
 3437              	.LEHE78:
 3438 159e EB59     		jmp	.L181
 3439              	.L187:
 3440 15a0 4889C3   		movq	%rax, %rbx
 3441              		.loc 4 138 0
 3442 15a3 E8000000 		call	__cxa_end_catch
 3442      00
 3443 15a8 4889D8   		movq	%rbx, %rax
 3444 15ab 4889C7   		movq	%rax, %rdi
 3445              	.LEHB79:
 3446 15ae E8000000 		call	_Unwind_Resume
 3446      00
 3447              	.LEHE79:
 3448              	.L186:
 3449 15b3 4889C7   		movq	%rax, %rdi
 3450 15b6 E8000000 		call	__cxa_begin_catch
 3450      00
 3451              	.LEHB80:
 3452 15bb E8000000 		call	_ZN8UnitTest11CurrentTest7DetailsEv
 3452      00
 3453 15c0 488B08   		movq	(%rax), %rcx
 3454 15c3 488D45C0 		leaq	-64(%rbp), %rax
 3455 15c7 BA8A0000 		movl	$138, %edx
 3455      00
 3456 15cc 4889CE   		movq	%rcx, %rsi
 3457 15cf 4889C7   		movq	%rax, %rdi
 3458 15d2 E8000000 		call	_ZN8UnitTest11TestDetailsC1ERKS0_i
 3458      00
 3459              		.loc 4 138 0 discriminator 11
 3460 15d7 E8000000 		call	_ZN8UnitTest11CurrentTest7ResultsEv
 3460      00
 3461 15dc 488B00   		movq	(%rax), %rax
 3462 15df 488D4DC0 		leaq	-64(%rbp), %rcx
 3463 15e3 BA000000 		movl	$.LC49, %edx
 3463      00
 3464 15e8 4889CE   		movq	%rcx, %rsi
 3465 15eb 4889C7   		movq	%rax, %rdi
 3466 15ee E8000000 		call	_ZN8UnitTest11TestResults13OnTestFailureERKNS_11TestDetailsEPKc
 3466      00
 3467              	.LEHE80:
 3468              	.LEHB81:
 3469              		.loc 4 138 0 discriminator 15
 3470 15f3 E8000000 		call	__cxa_end_catch
 3470      00
 3471              	.LEHE81:
 139:TestUnitTest++.cpp **** }
 3472              		.loc 4 139 0 is_stmt 1 discriminator 15
 3473 15f8 90       		nop
 3474              	.L181:
 3475              		.loc 4 139 0 is_stmt 0
 3476 15f9 488B45E8 		movq	-24(%rbp), %rax
 3477 15fd 64483304 		xorq	%fs:40, %rax
 3477      25280000 
 3477      00
 3478 1606 7405     		je	.L185
 3479 1608 E8000000 		call	__stack_chk_fail
 3479      00
 3480              	.L185:
 3481 160d 4883C448 		addq	$72, %rsp
 3482 1611 5B       		popq	%rbx
 3483 1612 5D       		popq	%rbp
 3484              		.cfi_def_cfa 7, 8
 3485 1613 C3       		ret
 3486              		.cfi_endproc
 3487              	.LFE1411:
 3488              		.section	.gcc_except_table
 3489              		.align 4
 3490              	.LLSDA1411:
 3491 0234 FF       		.byte	0xff
 3492 0235 03       		.byte	0x3
 3493 0236 1D       		.uleb128 .LLSDATT1411-.LLSDATTD1411
 3494              	.LLSDATTD1411:
 3495 0237 01       		.byte	0x1
 3496 0238 14       		.uleb128 .LLSDACSE1411-.LLSDACSB1411
 3497              	.LLSDACSB1411:
 3498 0239 3C       		.uleb128 .LEHB78-.LFB1411
 3499 023a 38       		.uleb128 .LEHE78-.LEHB78
 3500 023b 8901     		.uleb128 .L186-.LFB1411
 3501 023d 01       		.uleb128 0x1
 3502 023e 8401     		.uleb128 .LEHB79-.LFB1411
 3503 0240 05       		.uleb128 .LEHE79-.LEHB79
 3504 0241 00       		.uleb128 0
 3505 0242 00       		.uleb128 0
 3506 0243 9101     		.uleb128 .LEHB80-.LFB1411
 3507 0245 38       		.uleb128 .LEHE80-.LEHB80
 3508 0246 76       		.uleb128 .L187-.LFB1411
 3509 0247 00       		.uleb128 0
 3510 0248 C901     		.uleb128 .LEHB81-.LFB1411
 3511 024a 05       		.uleb128 .LEHE81-.LEHB81
 3512 024b 00       		.uleb128 0
 3513 024c 00       		.uleb128 0
 3514              	.LLSDACSE1411:
 3515 024d 01       		.byte	0x1
 3516 024e 00       		.byte	0
 3517 024f 00       		.align 4
 3518 0250 00000000 		.long	0
 3519              	
 3520              	.LLSDATT1411:
 3521              		.text
 3523              		.align 2
 3525              	_ZN12_GLOBAL__N_145SimpleFixtureOnlyOneFixtureAliveAtATimeHelperC2ERKN8UnitTest11TestDetailsE:
 3526              	.LFB1413:
 140:TestUnitTest++.cpp **** 
 141:TestUnitTest++.cpp **** TEST_FIXTURE(SimpleFixture, OnlyOneFixtureAliveAtATime)
 3527              		.loc 4 141 0 is_stmt 1
 3528              		.cfi_startproc
 3529 1614 55       		pushq	%rbp
 3530              		.cfi_def_cfa_offset 16
 3531              		.cfi_offset 6, -16
 3532 1615 4889E5   		movq	%rsp, %rbp
 3533              		.cfi_def_cfa_register 6
 3534 1618 4883EC10 		subq	$16, %rsp
 3535 161c 48897DF8 		movq	%rdi, -8(%rbp)
 3536 1620 488975F0 		movq	%rsi, -16(%rbp)
 3537              	.LBB72:
 3538              		.loc 4 141 0
 3539 1624 488B45F8 		movq	-8(%rbp), %rax
 3540 1628 4889C7   		movq	%rax, %rdi
 3541 162b E840FBFF 		call	_ZN12_GLOBAL__N_113SimpleFixtureC2Ev
 3541      FF
 3542 1630 488B45F8 		movq	-8(%rbp), %rax
 3543 1634 488B55F0 		movq	-16(%rbp), %rdx
 3544 1638 488910   		movq	%rdx, (%rax)
 3545              	.LBE72:
 3546 163b C9       		leave
 3547              		.cfi_def_cfa 7, 8
 3548 163c C3       		ret
 3549              		.cfi_endproc
 3550              	.LFE1413:
 3552              		.section	.rodata
 3553              	.LC50:
 3554 051f 4F6E6C79 		.string	"OnlyOneFixtureAliveAtATime"
 3554      4F6E6546 
 3554      69787475 
 3554      7265416C 
 3554      69766541 
 3555              		.text
 3556 163d 90       		.align 2
 3558              	_ZN12_GLOBAL__N_143TestSimpleFixtureOnlyOneFixtureAliveAtATimeC2Ev:
 3559              	.LFB1416:
 3560              		.loc 4 141 0
 3561              		.cfi_startproc
 3562 163e 55       		pushq	%rbp
 3563              		.cfi_def_cfa_offset 16
 3564              		.cfi_offset 6, -16
 3565 163f 4889E5   		movq	%rsp, %rbp
 3566              		.cfi_def_cfa_register 6
 3567 1642 4883EC10 		subq	$16, %rsp
 3568 1646 48897DF8 		movq	%rdi, -8(%rbp)
 3569              	.LBB73:
 3570              		.loc 4 141 0
 3571 164a E8000000 		call	_ZN13UnitTestSuite12GetSuiteNameEv
 3571      00
 3572 164f 4889C2   		movq	%rax, %rdx
 3573 1652 488B45F8 		movq	-8(%rbp), %rax
 3574 1656 41B88D00 		movl	$141, %r8d
 3574      0000
 3575 165c B9000000 		movl	$.LC1, %ecx
 3575      00
 3576 1661 BE000000 		movl	$.LC50, %esi
 3576      00
 3577 1666 4889C7   		movq	%rax, %rdi
 3578 1669 E8000000 		call	_ZN8UnitTest4TestC2EPKcS2_S2_i
 3578      00
 3579 166e 488B45F8 		movq	-8(%rbp), %rax
 3580 1672 48C70000 		movq	$_ZTVN12_GLOBAL__N_143TestSimpleFixtureOnlyOneFixtureAliveAtATimeE+16, (%rax)
 3580      000000
 3581              	.LBE73:
 3582 1679 C9       		leave
 3583              		.cfi_def_cfa 7, 8
 3584 167a C3       		ret
 3585              		.cfi_endproc
 3586              	.LFE1416:
 3588              		.local	_ZN12_GLOBAL__N_151testSimpleFixtureOnlyOneFixtureAliveAtATimeInstanceE
 3589              		.comm	_ZN12_GLOBAL__N_151testSimpleFixtureOnlyOneFixtureAliveAtATimeInstanceE,56,32
 3590              		.local	_ZN12_GLOBAL__N_144adderSimpleFixtureOnlyOneFixtureAliveAtATimeE
 3591              		.comm	_ZN12_GLOBAL__N_144adderSimpleFixtureOnlyOneFixtureAliveAtATimeE,1,1
 3592 167b 90       		.align 2
 3594              	_ZN12_GLOBAL__N_145SimpleFixtureOnlyOneFixtureAliveAtATimeHelperD2Ev:
 3595              	.LFB1420:
 3596              		.loc 4 141 0
 3597              		.cfi_startproc
 3598 167c 55       		pushq	%rbp
 3599              		.cfi_def_cfa_offset 16
 3600              		.cfi_offset 6, -16
 3601 167d 4889E5   		movq	%rsp, %rbp
 3602              		.cfi_def_cfa_register 6
 3603 1680 4883EC08 		subq	$8, %rsp
 3604 1684 48897DF8 		movq	%rdi, -8(%rbp)
 3605              	.LBB74:
 3606              		.loc 4 141 0
 3607 1688 488B45F8 		movq	-8(%rbp), %rax
 3608 168c 4889C7   		movq	%rax, %rdi
 3609 168f E8F6FAFF 		call	_ZN12_GLOBAL__N_113SimpleFixtureD2Ev
 3609      FF
 3610              	.LBE74:
 3611 1694 C9       		leave
 3612              		.cfi_def_cfa 7, 8
 3613 1695 C3       		ret
 3614              		.cfi_endproc
 3615              	.LFE1420:
 3617              		.align 2
 3619              	_ZNK12_GLOBAL__N_143TestSimpleFixtureOnlyOneFixtureAliveAtATime7RunImplEv:
 3620              	.LFB1418:
 3621              		.loc 4 141 0
 3622              		.cfi_startproc
 3623              		.cfi_personality 0x3,__gxx_personality_v0
 3624              		.cfi_lsda 0x3,.LLSDA1418
 3625 1696 55       		pushq	%rbp
 3626              		.cfi_def_cfa_offset 16
 3627              		.cfi_offset 6, -16
 3628 1697 4889E5   		movq	%rsp, %rbp
 3629              		.cfi_def_cfa_register 6
 3630 169a 4154     		pushq	%r12
 3631 169c 53       		pushq	%rbx
 3632 169d 4881ECC0 		subq	$448, %rsp
 3632      010000
 3633              		.cfi_offset 12, -24
 3634              		.cfi_offset 3, -32
 3635 16a4 4889BD38 		movq	%rdi, -456(%rbp)
 3635      FEFFFF
 3636              		.loc 4 141 0
 3637 16ab 64488B04 		movq	%fs:40, %rax
 3637      25280000 
 3637      00
 3638 16b4 488945E8 		movq	%rax, -24(%rbp)
 3639 16b8 31C0     		xorl	%eax, %eax
 3640              	.LBB75:
 3641 16ba C6854FFE 		movb	$0, -433(%rbp)
 3641      FFFF00
 3642              	.LBB76:
 3643 16c1 488B8538 		movq	-456(%rbp), %rax
 3643      FEFFFF
 3644 16c8 488D5008 		leaq	8(%rax), %rdx
 3645 16cc 488D8560 		leaq	-416(%rbp), %rax
 3645      FEFFFF
 3646 16d3 4889D6   		movq	%rdx, %rsi
 3647 16d6 4889C7   		movq	%rax, %rdi
 3648 16d9 E836FFFF 		call	_ZN12_GLOBAL__N_145SimpleFixtureOnlyOneFixtureAliveAtATimeHelperC2ERKN8UnitTest11TestDetailsE
 3648      FF
 3649 16de C6854FFE 		movb	$1, -433(%rbp)
 3649      FFFF01
 3650 16e5 488B8538 		movq	-456(%rbp), %rax
 3650      FEFFFF
 3651 16ec 488D5008 		leaq	8(%rax), %rdx
 3652 16f0 488D8560 		leaq	-416(%rbp), %rax
 3652      FEFFFF
 3653 16f7 4889D6   		movq	%rdx, %rsi
 3654 16fa 4889C7   		movq	%rax, %rdi
 3655              	.LEHB82:
 3656 16fd E8620700 		call	_ZN8UnitTest11ExecuteTestIN12_GLOBAL__N_145SimpleFixtureOnlyOneFixtureAliveAtATimeHelperEEEvR
 3656      00
 3657              	.LEHE82:
 3658              		.loc 4 141 0 is_stmt 0 discriminator 2
 3659 1702 488D8560 		leaq	-416(%rbp), %rax
 3659      FEFFFF
 3660 1709 4889C7   		movq	%rax, %rdi
 3661 170c E86BFFFF 		call	_ZN12_GLOBAL__N_145SimpleFixtureOnlyOneFixtureAliveAtATimeHelperD2Ev
 3661      FF
 3662              	.LBE76:
 3663              	.LBE75:
 3664 1711 E9620200 		jmp	.L211
 3664      00
 3665              	.L205:
 3666 1716 4989C4   		movq	%rax, %r12
 3667 1719 4889D3   		movq	%rdx, %rbx
 3668              	.LBB84:
 3669              	.LBB77:
 3670              		.loc 4 141 0
 3671 171c 488D8560 		leaq	-416(%rbp), %rax
 3671      FEFFFF
 3672 1723 4889C7   		movq	%rax, %rdi
 3673 1726 E851FFFF 		call	_ZN12_GLOBAL__N_145SimpleFixtureOnlyOneFixtureAliveAtATimeHelperD2Ev
 3673      FF
 3674 172b 4C89E0   		movq	%r12, %rax
 3675 172e 4889DA   		movq	%rbx, %rdx
 3676 1731 4883FA01 		cmpq	$1, %rdx
 3677 1735 745C     		je	.L195
 3678 1737 4883FA02 		cmpq	$2, %rdx
 3679 173b 0F84F400 		je	.L196
 3679      0000
 3680 1741 E9980100 		jmp	.L210
 3680      00
 3681              	.L206:
 3682 1746 4889C3   		movq	%rax, %rbx
 3683              	.LBE77:
 3684              	.LBB78:
 3685 1749 E8000000 		call	__cxa_end_catch
 3685      00
 3686 174e 4889D8   		movq	%rbx, %rax
 3687 1751 4889C7   		movq	%rax, %rdi
 3688              	.LEHB83:
 3689 1754 E8000000 		call	_Unwind_Resume
 3689      00
 3690              	.LEHE83:
 3691              	.L207:
 3692 1759 4889C3   		movq	%rax, %rbx
 3693              	.LBE78:
 3694              	.LBB79:
 3695              	.LBB80:
 3696 175c 488D8580 		leaq	-384(%rbp), %rax
 3696      FEFFFF
 3697 1763 4889C7   		movq	%rax, %rdi
 3698 1766 E8000000 		call	_ZN8UnitTest15MemoryOutStreamD1Ev
 3698      00
 3699 176b EB03     		jmp	.L199
 3700              	.L208:
 3701 176d 4889C3   		movq	%rax, %rbx
 3702              	.L199:
 3703              	.LBE80:
 3704 1770 E8000000 		call	__cxa_end_catch
 3704      00
 3705 1775 4889D8   		movq	%rbx, %rax
 3706 1778 4889C7   		movq	%rax, %rdi
 3707              	.LEHB84:
 3708 177b E8000000 		call	_Unwind_Resume
 3708      00
 3709              	.LEHE84:
 3710              	.L209:
 3711 1780 4889C3   		movq	%rax, %rbx
 3712              	.LBE79:
 3713 1783 E8000000 		call	__cxa_end_catch
 3713      00
 3714 1788 4889D8   		movq	%rbx, %rax
 3715 178b 4889C7   		movq	%rax, %rdi
 3716              	.LEHB85:
 3717 178e E8000000 		call	_Unwind_Resume
 3717      00
 3718              	.LEHE85:
 3719              	.L195:
 3720              	.LBB82:
 3721 1793 4889C7   		movq	%rax, %rdi
 3722 1796 E8000000 		call	__cxa_begin_catch
 3722      00
 3723 179b 48898550 		movq	%rax, -432(%rbp)
 3723      FEFFFF
 3724 17a2 488B8550 		movq	-432(%rbp), %rax
 3724      FEFFFF
 3725 17a9 488B00   		movq	(%rax), %rax
 3726 17ac 4883C010 		addq	$16, %rax
 3727 17b0 488B00   		movq	(%rax), %rax
 3728 17b3 488B9550 		movq	-432(%rbp), %rdx
 3728      FEFFFF
 3729 17ba 4889D7   		movq	%rdx, %rdi
 3730 17bd FFD0     		call	*%rax
 3731 17bf 4889C3   		movq	%rax, %rbx
 3732 17c2 488B8550 		movq	-432(%rbp), %rax
 3732      FEFFFF
 3733 17c9 4889C7   		movq	%rax, %rdi
 3734              	.LEHB86:
 3735 17cc E8000000 		call	_ZNK8UnitTest15AssertException10LineNumberEv
 3735      00
 3736 17d1 4189C4   		movl	%eax, %r12d
 3737 17d4 488B8550 		movq	-432(%rbp), %rax
 3737      FEFFFF
 3738 17db 4889C7   		movq	%rax, %rdi
 3739 17de E8000000 		call	_ZNK8UnitTest15AssertException8FilenameEv
 3739      00
 3740              		.loc 4 141 0 discriminator 4
 3741 17e3 4889C1   		movq	%rax, %rcx
 3742 17e6 488B8538 		movq	-456(%rbp), %rax
 3742      FEFFFF
 3743 17ed 488B5008 		movq	8(%rax), %rdx
 3744 17f1 488B8538 		movq	-456(%rbp), %rax
 3744      FEFFFF
 3745 17f8 488B7010 		movq	16(%rax), %rsi
 3746 17fc 488D8560 		leaq	-416(%rbp), %rax
 3746      FEFFFF
 3747 1803 4589E0   		movl	%r12d, %r8d
 3748 1806 4889C7   		movq	%rax, %rdi
 3749 1809 E8000000 		call	_ZN8UnitTest11TestDetailsC1EPKcS2_S2_i
 3749      00
 3750              		.loc 4 141 0 discriminator 8
 3751 180e E8000000 		call	_ZN8UnitTest11CurrentTest7ResultsEv
 3751      00
 3752 1813 488B00   		movq	(%rax), %rax
 3753 1816 488D8D60 		leaq	-416(%rbp), %rcx
 3753      FEFFFF
 3754 181d 4889DA   		movq	%rbx, %rdx
 3755 1820 4889CE   		movq	%rcx, %rsi
 3756 1823 4889C7   		movq	%rax, %rdi
 3757 1826 E8000000 		call	_ZN8UnitTest11TestResults13OnTestFailureERKNS_11TestDetailsEPKc
 3757      00
 3758              	.LEHE86:
 3759              		.loc 4 141 0 discriminator 12
 3760 182b E8000000 		call	__cxa_end_catch
 3760      00
 3761              	.LBE82:
 3762              	.LBE84:
 3763 1830 E9430100 		jmp	.L211
 3763      00
 3764              	.L196:
 3765              	.LBB85:
 3766              	.LBB83:
 3767              		.loc 4 141 0
 3768 1835 4889C7   		movq	%rax, %rdi
 3769 1838 E8000000 		call	__cxa_begin_catch
 3769      00
 3770 183d 48898558 		movq	%rax, -424(%rbp)
 3770      FEFFFF
 3771              	.LBB81:
 3772 1844 488D8580 		leaq	-384(%rbp), %rax
 3772      FEFFFF
 3773 184b 4889C7   		movq	%rax, %rdi
 3774              	.LEHB87:
 3775 184e E8000000 		call	_ZN8UnitTest15MemoryOutStreamC1Ev
 3775      00
 3776              	.LEHE87:
 3777              		.loc 4 141 0 discriminator 14
 3778 1853 488B8558 		movq	-424(%rbp), %rax
 3778      FEFFFF
 3779 185a 488B00   		movq	(%rax), %rax
 3780 185d 4883C010 		addq	$16, %rax
 3781 1861 488B00   		movq	(%rax), %rax
 3782 1864 488B9558 		movq	-424(%rbp), %rdx
 3782      FEFFFF
 3783 186b 4889D7   		movq	%rdx, %rdi
 3784 186e FFD0     		call	*%rax
 3785 1870 4889C3   		movq	%rax, %rbx
 3786 1873 488D8580 		leaq	-384(%rbp), %rax
 3786      FEFFFF
 3787 187a BE000000 		movl	$.LC45, %esi
 3787      00
 3788 187f 4889C7   		movq	%rax, %rdi
 3789              	.LEHB88:
 3790 1882 E8000000 		call	_ZStlsISt11char_traitsIcEERSt13basic_ostreamIcT_ES5_PKc
 3790      00
 3791 1887 4889DE   		movq	%rbx, %rsi
 3792 188a 4889C7   		movq	%rax, %rdi
 3793 188d E8000000 		call	_ZStlsISt11char_traitsIcEERSt13basic_ostreamIcT_ES5_PKc
 3793      00
 3794              		.loc 4 141 0 discriminator 18
 3795 1892 488D8580 		leaq	-384(%rbp), %rax
 3795      FEFFFF
 3796 1899 4889C7   		movq	%rax, %rdi
 3797 189c E8000000 		call	_ZNK8UnitTest15MemoryOutStream7GetTextEv
 3797      00
 3798 18a1 4989C4   		movq	%rax, %r12
 3799 18a4 488B8538 		movq	-456(%rbp), %rax
 3799      FEFFFF
 3800 18ab 488D5808 		leaq	8(%rax), %rbx
 3801 18af E8000000 		call	_ZN8UnitTest11CurrentTest7ResultsEv
 3801      00
 3802              		.loc 4 141 0 discriminator 20
 3803 18b4 488B00   		movq	(%rax), %rax
 3804 18b7 4C89E2   		movq	%r12, %rdx
 3805 18ba 4889DE   		movq	%rbx, %rsi
 3806 18bd 4889C7   		movq	%rax, %rdi
 3807 18c0 E8000000 		call	_ZN8UnitTest11TestResults13OnTestFailureERKNS_11TestDetailsEPKc
 3807      00
 3808              	.LEHE88:
 3809              		.loc 4 141 0 discriminator 24
 3810 18c5 488D8580 		leaq	-384(%rbp), %rax
 3810      FEFFFF
 3811 18cc 4889C7   		movq	%rax, %rdi
 3812              	.LEHB89:
 3813 18cf E8000000 		call	_ZN8UnitTest15MemoryOutStreamD1Ev
 3813      00
 3814              	.LEHE89:
 3815              	.LBE81:
 3816              		.loc 4 141 0 discriminator 25
 3817 18d4 E8000000 		call	__cxa_end_catch
 3817      00
 3818              	.LBE83:
 3819              	.LBE85:
 3820 18d9 E99A0000 		jmp	.L211
 3820      00
 3821              	.L210:
 3822              	.LBB86:
 3823              		.loc 4 141 0
 3824 18de 4889C7   		movq	%rax, %rdi
 3825 18e1 E8000000 		call	__cxa_begin_catch
 3825      00
 3826 18e6 80BD4FFE 		cmpb	$0, -433(%rbp)
 3826      FFFF00
 3827 18ed 7443     		je	.L202
 3828              		.loc 4 141 0 discriminator 27
 3829 18ef 488B8538 		movq	-456(%rbp), %rax
 3829      FEFFFF
 3830 18f6 488D4808 		leaq	8(%rax), %rcx
 3831 18fa 488D8560 		leaq	-416(%rbp), %rax
 3831      FEFFFF
 3832 1901 BA8D0000 		movl	$141, %edx
 3832      00
 3833 1906 4889CE   		movq	%rcx, %rsi
 3834 1909 4889C7   		movq	%rax, %rdi
 3835              	.LEHB90:
 3836 190c E8000000 		call	_ZN8UnitTest11TestDetailsC1ERKS0_i
 3836      00
 3837              		.loc 4 141 0 discriminator 30
 3838 1911 E8000000 		call	_ZN8UnitTest11CurrentTest7ResultsEv
 3838      00
 3839 1916 488B00   		movq	(%rax), %rax
 3840 1919 488D8D60 		leaq	-416(%rbp), %rcx
 3840      FEFFFF
 3841 1920 BA000000 		movl	$.LC46, %edx
 3841      00
 3842 1925 4889CE   		movq	%rcx, %rsi
 3843 1928 4889C7   		movq	%rax, %rdi
 3844 192b E8000000 		call	_ZN8UnitTest11TestResults13OnTestFailureERKNS_11TestDetailsEPKc
 3844      00
 3845 1930 EB41     		jmp	.L203
 3846              	.L202:
 3847              		.loc 4 141 0 discriminator 28
 3848 1932 488B8538 		movq	-456(%rbp), %rax
 3848      FEFFFF
 3849 1939 488D4808 		leaq	8(%rax), %rcx
 3850 193d 488D8560 		leaq	-416(%rbp), %rax
 3850      FEFFFF
 3851 1944 BA8D0000 		movl	$141, %edx
 3851      00
 3852 1949 4889CE   		movq	%rcx, %rsi
 3853 194c 4889C7   		movq	%rax, %rdi
 3854 194f E8000000 		call	_ZN8UnitTest11TestDetailsC1ERKS0_i
 3854      00
 3855              		.loc 4 141 0 discriminator 37
 3856 1954 E8000000 		call	_ZN8UnitTest11CurrentTest7ResultsEv
 3856      00
 3857 1959 488B00   		movq	(%rax), %rax
 3858 195c 488D8D60 		leaq	-416(%rbp), %rcx
 3858      FEFFFF
 3859 1963 BA000000 		movl	$.LC47, %edx
 3859      00
 3860 1968 4889CE   		movq	%rcx, %rsi
 3861 196b 4889C7   		movq	%rax, %rdi
 3862 196e E8000000 		call	_ZN8UnitTest11TestResults13OnTestFailureERKNS_11TestDetailsEPKc
 3862      00
 3863              	.LEHE90:
 3864              	.L203:
 3865              	.LEHB91:
 3866              		.loc 4 141 0 discriminator 42
 3867 1973 E8000000 		call	__cxa_end_catch
 3867      00
 3868              	.LEHE91:
 3869              	.L211:
 3870              	.LBE86:
 3871              		.loc 4 141 0
 3872 1978 90       		nop
 3873 1979 488B45E8 		movq	-24(%rbp), %rax
 3874 197d 64483304 		xorq	%fs:40, %rax
 3874      25280000 
 3874      00
 3875 1986 7405     		je	.L204
 3876 1988 E8000000 		call	__stack_chk_fail
 3876      00
 3877              	.L204:
 3878 198d 4881C4C0 		addq	$448, %rsp
 3878      010000
 3879 1994 5B       		popq	%rbx
 3880 1995 415C     		popq	%r12
 3881 1997 5D       		popq	%rbp
 3882              		.cfi_def_cfa 7, 8
 3883 1998 C3       		ret
 3884              		.cfi_endproc
 3885              	.LFE1418:
 3886              		.section	.gcc_except_table
 3887              		.align 4
 3888              	.LLSDA1418:
 3889 0254 FF       		.byte	0xff
 3890 0255 03       		.byte	0x3
 3891 0256 4D       		.uleb128 .LLSDATT1418-.LLSDATTD1418
 3892              	.LLSDATTD1418:
 3893 0257 01       		.byte	0x1
 3894 0258 37       		.uleb128 .LLSDACSE1418-.LLSDACSB1418
 3895              	.LLSDACSB1418:
 3896 0259 67       		.uleb128 .LEHB82-.LFB1418
 3897 025a 05       		.uleb128 .LEHE82-.LEHB82
 3898 025b 8001     		.uleb128 .L205-.LFB1418
 3899 025d 07       		.uleb128 0x7
 3900 025e BE01     		.uleb128 .LEHB83-.LFB1418
 3901 0260 05       		.uleb128 .LEHE83-.LEHB83
 3902 0261 00       		.uleb128 0
 3903 0262 00       		.uleb128 0
 3904 0263 E501     		.uleb128 .LEHB84-.LFB1418
 3905 0265 05       		.uleb128 .LEHE84-.LEHB84
 3906 0266 00       		.uleb128 0
 3907 0267 00       		.uleb128 0
 3908 0268 F801     		.uleb128 .LEHB85-.LFB1418
 3909 026a 05       		.uleb128 .LEHE85-.LEHB85
 3910 026b 00       		.uleb128 0
 3911 026c 00       		.uleb128 0
 3912 026d B602     		.uleb128 .LEHB86-.LFB1418
 3913 026f 5F       		.uleb128 .LEHE86-.LEHB86
 3914 0270 B001     		.uleb128 .L206-.LFB1418
 3915 0272 00       		.uleb128 0
 3916 0273 B803     		.uleb128 .LEHB87-.LFB1418
 3917 0275 05       		.uleb128 .LEHE87-.LEHB87
 3918 0276 D701     		.uleb128 .L208-.LFB1418
 3919 0278 00       		.uleb128 0
 3920 0279 EC03     		.uleb128 .LEHB88-.LFB1418
 3921 027b 43       		.uleb128 .LEHE88-.LEHB88
 3922 027c C301     		.uleb128 .L207-.LFB1418
 3923 027e 00       		.uleb128 0
 3924 027f B904     		.uleb128 .LEHB89-.LFB1418
 3925 0281 05       		.uleb128 .LEHE89-.LEHB89
 3926 0282 D701     		.uleb128 .L208-.LFB1418
 3927 0284 00       		.uleb128 0
 3928 0285 F604     		.uleb128 .LEHB90-.LFB1418
 3929 0287 67       		.uleb128 .LEHE90-.LEHB90
 3930 0288 EA01     		.uleb128 .L209-.LFB1418
 3931 028a 00       		.uleb128 0
 3932 028b DD05     		.uleb128 .LEHB91-.LFB1418
 3933 028d 05       		.uleb128 .LEHE91-.LEHB91
 3934 028e 00       		.uleb128 0
 3935 028f 00       		.uleb128 0
 3936              	.LLSDACSE1418:
 3937 0290 03       		.byte	0x3
 3938 0291 00       		.byte	0
 3939 0292 02       		.byte	0x2
 3940 0293 7D       		.byte	0x7d
 3941 0294 01       		.byte	0x1
 3942 0295 7D       		.byte	0x7d
 3943 0296 00       		.byte	0
 3944 0297 7D       		.byte	0x7d
 3945              		.align 4
 3946 0298 00000000 		.long	0
 3947              	
 3948 029c 00000000 		.long	_ZTISt9exception
 3949 02a0 00000000 		.long	_ZTIN8UnitTest15AssertExceptionE
 3950              	.LLSDATT1418:
 3951              		.text
 3953              		.section	.rodata
 3954 053a 00000000 		.align 8
 3954      0000
 3955              	.LC51:
 3956 0540 556E6861 		.string	"Unhandled exception in CHECK_EQUAL(1, SimpleFixture::instanceCount)"
 3956      6E646C65 
 3956      64206578 
 3956      63657074 
 3956      696F6E20 
 3957              		.text
 3958 1999 90       		.align 2
 3960              	_ZN12_GLOBAL__N_145SimpleFixtureOnlyOneFixtureAliveAtATimeHelper7RunImplEv:
 3961              	.LFB1422:
 142:TestUnitTest++.cpp **** {
 3962              		.loc 4 142 0 is_stmt 1
 3963              		.cfi_startproc
 3964              		.cfi_personality 0x3,__gxx_personality_v0
 3965              		.cfi_lsda 0x3,.LLSDA1422
 3966 199a 55       		pushq	%rbp
 3967              		.cfi_def_cfa_offset 16
 3968              		.cfi_offset 6, -16
 3969 199b 4889E5   		movq	%rsp, %rbp
 3970              		.cfi_def_cfa_register 6
 3971 199e 53       		pushq	%rbx
 3972 199f 4883EC58 		subq	$88, %rsp
 3973              		.cfi_offset 3, -24
 3974 19a3 48897DA8 		movq	%rdi, -88(%rbp)
 3975              		.loc 4 142 0
 3976 19a7 64488B04 		movq	%fs:40, %rax
 3976      25280000 
 3976      00
 3977 19b0 488945E8 		movq	%rax, -24(%rbp)
 3978 19b4 31C0     		xorl	%eax, %eax
 3979              	.LEHB92:
 143:TestUnitTest++.cpp ****     CHECK_EQUAL(1, SimpleFixture::instanceCount);
 3980              		.loc 4 143 0
 3981 19b6 E8000000 		call	_ZN8UnitTest11CurrentTest7DetailsEv
 3981      00
 3982 19bb 488B08   		movq	(%rax), %rcx
 3983 19be 488D45C0 		leaq	-64(%rbp), %rax
 3984 19c2 BA8F0000 		movl	$143, %edx
 3984      00
 3985 19c7 4889CE   		movq	%rcx, %rsi
 3986 19ca 4889C7   		movq	%rax, %rdi
 3987 19cd E8000000 		call	_ZN8UnitTest11TestDetailsC1ERKS0_i
 3987      00
 3988              		.loc 4 143 0 is_stmt 0 discriminator 2
 3989 19d2 C745BC01 		movl	$1, -68(%rbp)
 3989      000000
 3990 19d9 E8000000 		call	_ZN8UnitTest11CurrentTest7ResultsEv
 3990      00
 3991 19de 488B00   		movq	(%rax), %rax
 3992 19e1 488D55C0 		leaq	-64(%rbp), %rdx
 3993 19e5 488D75BC 		leaq	-68(%rbp), %rsi
 3994 19e9 4889D1   		movq	%rdx, %rcx
 3995 19ec BA000000 		movl	$_ZN12_GLOBAL__N_113SimpleFixture13instanceCountE, %edx
 3995      00
 3996 19f1 4889C7   		movq	%rax, %rdi
 3997 19f4 E8000000 		call	_ZN8UnitTest10CheckEqualIiiEEvRNS_11TestResultsERKT_RKT0_RKNS_11TestDetailsE
 3997      00
 3998              	.LEHE92:
 144:TestUnitTest++.cpp **** }
 3999              		.loc 4 144 0 is_stmt 1
 4000 19f9 EB58     		jmp	.L219
 4001              	.L218:
 4002 19fb 4889C3   		movq	%rax, %rbx
 143:TestUnitTest++.cpp ****     CHECK_EQUAL(1, SimpleFixture::instanceCount);
 4003              		.loc 4 143 0
 4004 19fe E8000000 		call	__cxa_end_catch
 4004      00
 4005 1a03 4889D8   		movq	%rbx, %rax
 4006 1a06 4889C7   		movq	%rax, %rdi
 4007              	.LEHB93:
 4008 1a09 E8000000 		call	_Unwind_Resume
 4008      00
 4009              	.LEHE93:
 4010              	.L217:
 4011 1a0e 4889C7   		movq	%rax, %rdi
 4012 1a11 E8000000 		call	__cxa_begin_catch
 4012      00
 4013              	.LEHB94:
 4014 1a16 E8000000 		call	_ZN8UnitTest11CurrentTest7DetailsEv
 4014      00
 4015 1a1b 488B08   		movq	(%rax), %rcx
 4016 1a1e 488D45C0 		leaq	-64(%rbp), %rax
 4017 1a22 BA8F0000 		movl	$143, %edx
 4017      00
 4018 1a27 4889CE   		movq	%rcx, %rsi
 4019 1a2a 4889C7   		movq	%rax, %rdi
 4020 1a2d E8000000 		call	_ZN8UnitTest11TestDetailsC1ERKS0_i
 4020      00
 143:TestUnitTest++.cpp ****     CHECK_EQUAL(1, SimpleFixture::instanceCount);
 4021              		.loc 4 143 0 is_stmt 0 discriminator 10
 4022 1a32 E8000000 		call	_ZN8UnitTest11CurrentTest7ResultsEv
 4022      00
 4023 1a37 488B00   		movq	(%rax), %rax
 4024 1a3a 488D4DC0 		leaq	-64(%rbp), %rcx
 4025 1a3e BA000000 		movl	$.LC51, %edx
 4025      00
 4026 1a43 4889CE   		movq	%rcx, %rsi
 4027 1a46 4889C7   		movq	%rax, %rdi
 4028 1a49 E8000000 		call	_ZN8UnitTest11TestResults13OnTestFailureERKNS_11TestDetailsEPKc
 4028      00
 4029              	.LEHE94:
 4030              	.LEHB95:
 143:TestUnitTest++.cpp ****     CHECK_EQUAL(1, SimpleFixture::instanceCount);
 4031              		.loc 4 143 0 discriminator 14
 4032 1a4e E8000000 		call	__cxa_end_catch
 4032      00
 4033              	.LEHE95:
 4034              	.L219:
 4035              		.loc 4 144 0 is_stmt 1
 4036 1a53 90       		nop
 4037 1a54 488B45E8 		movq	-24(%rbp), %rax
 4038 1a58 64483304 		xorq	%fs:40, %rax
 4038      25280000 
 4038      00
 4039 1a61 7405     		je	.L216
 4040 1a63 E8000000 		call	__stack_chk_fail
 4040      00
 4041              	.L216:
 4042 1a68 4883C458 		addq	$88, %rsp
 4043 1a6c 5B       		popq	%rbx
 4044 1a6d 5D       		popq	%rbp
 4045              		.cfi_def_cfa 7, 8
 4046 1a6e C3       		ret
 4047              		.cfi_endproc
 4048              	.LFE1422:
 4049              		.section	.gcc_except_table
 4050              		.align 4
 4051              	.LLSDA1422:
 4052 02a4 FF       		.byte	0xff
 4053 02a5 03       		.byte	0x3
 4054 02a6 19       		.uleb128 .LLSDATT1422-.LLSDATTD1422
 4055              	.LLSDATTD1422:
 4056 02a7 01       		.byte	0x1
 4057 02a8 11       		.uleb128 .LLSDACSE1422-.LLSDACSB1422
 4058              	.LLSDACSB1422:
 4059 02a9 1C       		.uleb128 .LEHB92-.LFB1422
 4060 02aa 43       		.uleb128 .LEHE92-.LEHB92
 4061 02ab 74       		.uleb128 .L217-.LFB1422
 4062 02ac 01       		.uleb128 0x1
 4063 02ad 6F       		.uleb128 .LEHB93-.LFB1422
 4064 02ae 05       		.uleb128 .LEHE93-.LEHB93
 4065 02af 00       		.uleb128 0
 4066 02b0 00       		.uleb128 0
 4067 02b1 7C       		.uleb128 .LEHB94-.LFB1422
 4068 02b2 38       		.uleb128 .LEHE94-.LEHB94
 4069 02b3 61       		.uleb128 .L218-.LFB1422
 4070 02b4 00       		.uleb128 0
 4071 02b5 B401     		.uleb128 .LEHB95-.LFB1422
 4072 02b7 05       		.uleb128 .LEHE95-.LEHB95
 4073 02b8 00       		.uleb128 0
 4074 02b9 00       		.uleb128 0
 4075              	.LLSDACSE1422:
 4076 02ba 01       		.byte	0x1
 4077 02bb 00       		.byte	0
 4078              		.align 4
 4079 02bc 00000000 		.long	0
 4080              	
 4081              	.LLSDATT1422:
 4082              		.text
 4085              	_ZN12_GLOBAL__N_19CheckBoolEb:
 4086              	.LFB1423:
 145:TestUnitTest++.cpp **** 
 146:TestUnitTest++.cpp **** void CheckBool(const bool b)
 147:TestUnitTest++.cpp **** {
 4087              		.loc 4 147 0
 4088              		.cfi_startproc
 4089              		.cfi_personality 0x3,__gxx_personality_v0
 4090              		.cfi_lsda 0x3,.LLSDA1423
 4091 1a6f 55       		pushq	%rbp
 4092              		.cfi_def_cfa_offset 16
 4093              		.cfi_offset 6, -16
 4094 1a70 4889E5   		movq	%rsp, %rbp
 4095              		.cfi_def_cfa_register 6
 4096 1a73 53       		pushq	%rbx
 4097 1a74 4883EC48 		subq	$72, %rsp
 4098              		.cfi_offset 3, -24
 4099 1a78 89F8     		movl	%edi, %eax
 4100 1a7a 8845BC   		movb	%al, -68(%rbp)
 4101              		.loc 4 147 0
 4102 1a7d 64488B04 		movq	%fs:40, %rax
 4102      25280000 
 4102      00
 4103 1a86 488945E8 		movq	%rax, -24(%rbp)
 4104 1a8a 31C0     		xorl	%eax, %eax
 148:TestUnitTest++.cpp **** 	CHECK(b);
 4105              		.loc 4 148 0
 4106 1a8c 0FB645BC 		movzbl	-68(%rbp), %eax
 4107 1a90 89C7     		movl	%eax, %edi
 4108 1a92 E8000000 		call	_ZN8UnitTest5CheckIbEEbT_
 4108      00
 4109 1a97 83F001   		xorl	$1, %eax
 4110 1a9a 84C0     		testb	%al, %al
 4111 1a9c 0F849300 		je	.L220
 4111      0000
 4112              	.LEHB96:
 4113              		.loc 4 148 0 is_stmt 0 discriminator 1
 4114 1aa2 E8000000 		call	_ZN8UnitTest11CurrentTest7DetailsEv
 4114      00
 4115 1aa7 488B08   		movq	(%rax), %rcx
 4116 1aaa 488D45C0 		leaq	-64(%rbp), %rax
 4117 1aae BA940000 		movl	$148, %edx
 4117      00
 4118 1ab3 4889CE   		movq	%rcx, %rsi
 4119 1ab6 4889C7   		movq	%rax, %rdi
 4120 1ab9 E8000000 		call	_ZN8UnitTest11TestDetailsC1ERKS0_i
 4120      00
 4121              		.loc 4 148 0 discriminator 3
 4122 1abe E8000000 		call	_ZN8UnitTest11CurrentTest7ResultsEv
 4122      00
 4123 1ac3 488B00   		movq	(%rax), %rax
 4124 1ac6 488D4DC0 		leaq	-64(%rbp), %rcx
 4125 1aca BA000000 		movl	$.LC3, %edx
 4125      00
 4126 1acf 4889CE   		movq	%rcx, %rsi
 4127 1ad2 4889C7   		movq	%rax, %rdi
 4128 1ad5 E8000000 		call	_ZN8UnitTest11TestResults13OnTestFailureERKNS_11TestDetailsEPKc
 4128      00
 4129              	.LEHE96:
 4130 1ada EB59     		jmp	.L220
 4131              	.L226:
 4132 1adc 4889C3   		movq	%rax, %rbx
 4133              		.loc 4 148 0
 4134 1adf E8000000 		call	__cxa_end_catch
 4134      00
 4135 1ae4 4889D8   		movq	%rbx, %rax
 4136 1ae7 4889C7   		movq	%rax, %rdi
 4137              	.LEHB97:
 4138 1aea E8000000 		call	_Unwind_Resume
 4138      00
 4139              	.LEHE97:
 4140              	.L225:
 4141 1aef 4889C7   		movq	%rax, %rdi
 4142 1af2 E8000000 		call	__cxa_begin_catch
 4142      00
 4143              	.LEHB98:
 4144 1af7 E8000000 		call	_ZN8UnitTest11CurrentTest7DetailsEv
 4144      00
 4145 1afc 488B08   		movq	(%rax), %rcx
 4146 1aff 488D45C0 		leaq	-64(%rbp), %rax
 4147 1b03 BA940000 		movl	$148, %edx
 4147      00
 4148 1b08 4889CE   		movq	%rcx, %rsi
 4149 1b0b 4889C7   		movq	%rax, %rdi
 4150 1b0e E8000000 		call	_ZN8UnitTest11TestDetailsC1ERKS0_i
 4150      00
 4151              		.loc 4 148 0 discriminator 11
 4152 1b13 E8000000 		call	_ZN8UnitTest11CurrentTest7ResultsEv
 4152      00
 4153 1b18 488B00   		movq	(%rax), %rax
 4154 1b1b 488D4DC0 		leaq	-64(%rbp), %rcx
 4155 1b1f BA000000 		movl	$.LC4, %edx
 4155      00
 4156 1b24 4889CE   		movq	%rcx, %rsi
 4157 1b27 4889C7   		movq	%rax, %rdi
 4158 1b2a E8000000 		call	_ZN8UnitTest11TestResults13OnTestFailureERKNS_11TestDetailsEPKc
 4158      00
 4159              	.LEHE98:
 4160              	.LEHB99:
 4161              		.loc 4 148 0 discriminator 15
 4162 1b2f E8000000 		call	__cxa_end_catch
 4162      00
 4163              	.LEHE99:
 149:TestUnitTest++.cpp **** }
 4164              		.loc 4 149 0 is_stmt 1 discriminator 15
 4165 1b34 90       		nop
 4166              	.L220:
 4167              		.loc 4 149 0 is_stmt 0
 4168 1b35 488B45E8 		movq	-24(%rbp), %rax
 4169 1b39 64483304 		xorq	%fs:40, %rax
 4169      25280000 
 4169      00
 4170 1b42 7405     		je	.L224
 4171 1b44 E8000000 		call	__stack_chk_fail
 4171      00
 4172              	.L224:
 4173 1b49 4883C448 		addq	$72, %rsp
 4174 1b4d 5B       		popq	%rbx
 4175 1b4e 5D       		popq	%rbp
 4176              		.cfi_def_cfa 7, 8
 4177 1b4f C3       		ret
 4178              		.cfi_endproc
 4179              	.LFE1423:
 4180              		.section	.gcc_except_table
 4181              		.align 4
 4182              	.LLSDA1423:
 4183 02c0 FF       		.byte	0xff
 4184 02c1 03       		.byte	0x3
 4185 02c2 1D       		.uleb128 .LLSDATT1423-.LLSDATTD1423
 4186              	.LLSDATTD1423:
 4187 02c3 01       		.byte	0x1
 4188 02c4 13       		.uleb128 .LLSDACSE1423-.LLSDACSB1423
 4189              	.LLSDACSB1423:
 4190 02c5 33       		.uleb128 .LEHB96-.LFB1423
 4191 02c6 38       		.uleb128 .LEHE96-.LEHB96
 4192 02c7 8001     		.uleb128 .L225-.LFB1423
 4193 02c9 01       		.uleb128 0x1
 4194 02ca 7B       		.uleb128 .LEHB97-.LFB1423
 4195 02cb 05       		.uleb128 .LEHE97-.LEHB97
 4196 02cc 00       		.uleb128 0
 4197 02cd 00       		.uleb128 0
 4198 02ce 8801     		.uleb128 .LEHB98-.LFB1423
 4199 02d0 38       		.uleb128 .LEHE98-.LEHB98
 4200 02d1 6D       		.uleb128 .L226-.LFB1423
 4201 02d2 00       		.uleb128 0
 4202 02d3 C001     		.uleb128 .LEHB99-.LFB1423
 4203 02d5 05       		.uleb128 .LEHE99-.LEHB99
 4204 02d6 00       		.uleb128 0
 4205 02d7 00       		.uleb128 0
 4206              	.LLSDACSE1423:
 4207 02d8 01       		.byte	0x1
 4208 02d9 00       		.byte	0
 4209 02da 0000     		.align 4
 4210 02dc 00000000 		.long	0
 4211              	
 4212              	.LLSDATT1423:
 4213              		.text
 4215              		.section	.rodata
 4216 0584 00000000 		.align 8
 4217              	.LC52:
 4218 0588 43616E43 		.string	"CanCallCHECKOutsideOfTestFunction"
 4218      616C6C43 
 4218      4845434B 
 4218      4F757473 
 4218      6964654F 
 4219              		.text
 4220              		.align 2
 4222              	_ZN12_GLOBAL__N_137TestCanCallCHECKOutsideOfTestFunctionC2Ev:
 4223              	.LFB1425:
 150:TestUnitTest++.cpp **** 
 151:TestUnitTest++.cpp **** TEST(CanCallCHECKOutsideOfTestFunction)
 4224              		.loc 4 151 0 is_stmt 1
 4225              		.cfi_startproc
 4226 1b50 55       		pushq	%rbp
 4227              		.cfi_def_cfa_offset 16
 4228              		.cfi_offset 6, -16
 4229 1b51 4889E5   		movq	%rsp, %rbp
 4230              		.cfi_def_cfa_register 6
 4231 1b54 4883EC10 		subq	$16, %rsp
 4232 1b58 48897DF8 		movq	%rdi, -8(%rbp)
 4233              	.LBB87:
 4234              		.loc 4 151 0
 4235 1b5c E8000000 		call	_ZN13UnitTestSuite12GetSuiteNameEv
 4235      00
 4236 1b61 4889C2   		movq	%rax, %rdx
 4237 1b64 488B45F8 		movq	-8(%rbp), %rax
 4238 1b68 41B89700 		movl	$151, %r8d
 4238      0000
 4239 1b6e B9000000 		movl	$.LC1, %ecx
 4239      00
 4240 1b73 BE000000 		movl	$.LC52, %esi
 4240      00
 4241 1b78 4889C7   		movq	%rax, %rdi
 4242 1b7b E8000000 		call	_ZN8UnitTest4TestC2EPKcS2_S2_i
 4242      00
 4243 1b80 488B45F8 		movq	-8(%rbp), %rax
 4244 1b84 48C70000 		movq	$_ZTVN12_GLOBAL__N_137TestCanCallCHECKOutsideOfTestFunctionE+16, (%rax)
 4244      000000
 4245              	.LBE87:
 4246 1b8b C9       		leave
 4247              		.cfi_def_cfa 7, 8
 4248 1b8c C3       		ret
 4249              		.cfi_endproc
 4250              	.LFE1425:
 4252              		.local	_ZN12_GLOBAL__N_145testCanCallCHECKOutsideOfTestFunctionInstanceE
 4253              		.comm	_ZN12_GLOBAL__N_145testCanCallCHECKOutsideOfTestFunctionInstanceE,56,32
 4254              		.local	_ZN12_GLOBAL__N_138adderCanCallCHECKOutsideOfTestFunctionE
 4255              		.comm	_ZN12_GLOBAL__N_138adderCanCallCHECKOutsideOfTestFunctionE,1,1
 4256 1b8d 90       		.align 2
 4258              	_ZNK12_GLOBAL__N_137TestCanCallCHECKOutsideOfTestFunction7RunImplEv:
 4259              	.LFB1427:
 152:TestUnitTest++.cpp **** {
 4260              		.loc 4 152 0
 4261              		.cfi_startproc
 4262 1b8e 55       		pushq	%rbp
 4263              		.cfi_def_cfa_offset 16
 4264              		.cfi_offset 6, -16
 4265 1b8f 4889E5   		movq	%rsp, %rbp
 4266              		.cfi_def_cfa_register 6
 4267 1b92 4883EC10 		subq	$16, %rsp
 4268 1b96 48897DF8 		movq	%rdi, -8(%rbp)
 153:TestUnitTest++.cpp **** 	CheckBool(true);
 4269              		.loc 4 153 0
 4270 1b9a BF010000 		movl	$1, %edi
 4270      00
 4271 1b9f E8CBFEFF 		call	_ZN12_GLOBAL__N_19CheckBoolEb
 4271      FF
 154:TestUnitTest++.cpp **** }
 4272              		.loc 4 154 0
 4273 1ba4 C9       		leave
 4274              		.cfi_def_cfa 7, 8
 4275 1ba5 C3       		ret
 4276              		.cfi_endproc
 4277              	.LFE1427:
 4279              		.section	.text._ZN8UnitTest5CheckIbEEbT_,"axG",@progbits,_ZN8UnitTest5CheckIbEEbT_,comdat
 4280              		.weak	_ZN8UnitTest5CheckIbEEbT_
 4282              	_ZN8UnitTest5CheckIbEEbT_:
 4283              	.LFB1456:
 4284              		.file 5 "../Checks.h"
   1:../Checks.h   **** #ifndef UNITTEST_CHECKS_H
   2:../Checks.h   **** #define UNITTEST_CHECKS_H
   3:../Checks.h   **** 
   4:../Checks.h   **** #include "Config.h"
   5:../Checks.h   **** #include "TestResults.h"
   6:../Checks.h   **** #include "MemoryOutStream.h"
   7:../Checks.h   **** 
   8:../Checks.h   **** namespace UnitTest {
   9:../Checks.h   **** 
  10:../Checks.h   **** 
  11:../Checks.h   **** template< typename Value >
  12:../Checks.h   **** bool Check(Value const value)
 4285              		.loc 5 12 0
 4286              		.cfi_startproc
 4287 0000 55       		pushq	%rbp
 4288              		.cfi_def_cfa_offset 16
 4289              		.cfi_offset 6, -16
 4290 0001 4889E5   		movq	%rsp, %rbp
 4291              		.cfi_def_cfa_register 6
 4292 0004 89F8     		movl	%edi, %eax
 4293 0006 8845FC   		movb	%al, -4(%rbp)
  13:../Checks.h   **** {
  14:../Checks.h   ****     return !!value; // doing double negative to avoid silly VS warnings
 4294              		.loc 5 14 0
 4295 0009 0FB645FC 		movzbl	-4(%rbp), %eax
  15:../Checks.h   **** }
 4296              		.loc 5 15 0
 4297 000d 5D       		popq	%rbp
 4298              		.cfi_def_cfa 7, 8
 4299 000e C3       		ret
 4300              		.cfi_endproc
 4301              	.LFE1456:
 4303              		.section	.text._ZN8UnitTest5CheckIPvEEbT_,"axG",@progbits,_ZN8UnitTest5CheckIPvEEbT_,comdat
 4304              		.weak	_ZN8UnitTest5CheckIPvEEbT_
 4306              	_ZN8UnitTest5CheckIPvEEbT_:
 4307              	.LFB1457:
  12:../Checks.h   **** {
 4308              		.loc 5 12 0
 4309              		.cfi_startproc
 4310 0000 55       		pushq	%rbp
 4311              		.cfi_def_cfa_offset 16
 4312              		.cfi_offset 6, -16
 4313 0001 4889E5   		movq	%rsp, %rbp
 4314              		.cfi_def_cfa_register 6
 4315 0004 48897DF8 		movq	%rdi, -8(%rbp)
  14:../Checks.h   **** }
 4316              		.loc 5 14 0
 4317 0008 48837DF8 		cmpq	$0, -8(%rbp)
 4317      00
 4318 000d 0F95C0   		setne	%al
 4319              		.loc 5 15 0
 4320 0010 5D       		popq	%rbp
 4321              		.cfi_def_cfa 7, 8
 4322 0011 C3       		ret
 4323              		.cfi_endproc
 4324              	.LFE1457:
 4326              		.section	.rodata
 4327              	.LC53:
 4328 05aa 45787065 		.string	"Expected "
 4328      63746564 
 4328      2000
 4329              	.LC54:
 4330 05b4 20627574 		.string	" but was "
 4330      20776173 
 4330      2000
 4331              		.section	.text._ZN8UnitTest10CheckEqualIiiEEvRNS_11TestResultsERKT_RKT0_RKNS_11TestDetailsE,"axG",
 4332              		.weak	_ZN8UnitTest10CheckEqualIiiEEvRNS_11TestResultsERKT_RKT0_RKNS_11TestDetailsE
 4334              	_ZN8UnitTest10CheckEqualIiiEEvRNS_11TestResultsERKT_RKT0_RKNS_11TestDetailsE:
 4335              	.LFB1458:
  16:../Checks.h   **** 
  17:../Checks.h   **** 
  18:../Checks.h   **** template< typename Expected, typename Actual >
  19:../Checks.h   **** void CheckEqual(TestResults& results, Expected const& expected, Actual const& actual, TestDetails c
 4336              		.loc 5 19 0
 4337              		.cfi_startproc
 4338              		.cfi_personality 0x3,__gxx_personality_v0
 4339              		.cfi_lsda 0x3,.LLSDA1458
 4340 0000 55       		pushq	%rbp
 4341              		.cfi_def_cfa_offset 16
 4342              		.cfi_offset 6, -16
 4343 0001 4889E5   		movq	%rsp, %rbp
 4344              		.cfi_def_cfa_register 6
 4345 0004 4154     		pushq	%r12
 4346 0006 53       		pushq	%rbx
 4347 0007 4881EC90 		subq	$400, %rsp
 4347      010000
 4348              		.cfi_offset 12, -24
 4349              		.cfi_offset 3, -32
 4350 000e 4889BD78 		movq	%rdi, -392(%rbp)
 4350      FEFFFF
 4351 0015 4889B570 		movq	%rsi, -400(%rbp)
 4351      FEFFFF
 4352 001c 48899568 		movq	%rdx, -408(%rbp)
 4352      FEFFFF
 4353 0023 48898D60 		movq	%rcx, -416(%rbp)
 4353      FEFFFF
 4354              		.loc 5 19 0
 4355 002a 64488B04 		movq	%fs:40, %rax
 4355      25280000 
 4355      00
 4356 0033 488945E8 		movq	%rax, -24(%rbp)
 4357 0037 31C0     		xorl	%eax, %eax
 4358              	.LBB88:
 4359              	.LBB89:
  20:../Checks.h   **** {
  21:../Checks.h   ****     if (!(expected == actual))
 4360              		.loc 5 21 0
 4361 0039 488B8570 		movq	-400(%rbp), %rax
 4361      FEFFFF
 4362 0040 8B10     		movl	(%rax), %edx
 4363 0042 488B8568 		movq	-408(%rbp), %rax
 4363      FEFFFF
 4364 0049 8B00     		movl	(%rax), %eax
 4365 004b 39C2     		cmpl	%eax, %edx
 4366 004d 0F849200 		je	.L234
 4366      0000
 4367              	.LBB90:
  22:../Checks.h   ****     {
  23:../Checks.h   ****         UnitTest::MemoryOutStream stream;
 4368              		.loc 5 23 0
 4369 0053 488D8580 		leaq	-384(%rbp), %rax
 4369      FEFFFF
 4370 005a 4889C7   		movq	%rax, %rdi
 4371              	.LEHB100:
 4372 005d E8000000 		call	_ZN8UnitTest15MemoryOutStreamC1Ev
 4372      00
 4373              	.LEHE100:
  24:../Checks.h   ****         stream << "Expected " << expected << " but was " << actual;
 4374              		.loc 5 24 0
 4375 0062 488B8568 		movq	-408(%rbp), %rax
 4375      FEFFFF
 4376 0069 8B18     		movl	(%rax), %ebx
 4377 006b 488B8570 		movq	-400(%rbp), %rax
 4377      FEFFFF
 4378 0072 448B20   		movl	(%rax), %r12d
 4379 0075 488D8580 		leaq	-384(%rbp), %rax
 4379      FEFFFF
 4380 007c BE000000 		movl	$.LC53, %esi
 4380      00
 4381 0081 4889C7   		movq	%rax, %rdi
 4382              	.LEHB101:
 4383 0084 E8000000 		call	_ZStlsISt11char_traitsIcEERSt13basic_ostreamIcT_ES5_PKc
 4383      00
 4384 0089 4489E6   		movl	%r12d, %esi
 4385 008c 4889C7   		movq	%rax, %rdi
 4386 008f E8000000 		call	_ZNSolsEi
 4386      00
 4387              		.loc 5 24 0 is_stmt 0 discriminator 1
 4388 0094 BE000000 		movl	$.LC54, %esi
 4388      00
 4389 0099 4889C7   		movq	%rax, %rdi
 4390 009c E8000000 		call	_ZStlsISt11char_traitsIcEERSt13basic_ostreamIcT_ES5_PKc
 4390      00
 4391              		.loc 5 24 0 discriminator 2
 4392 00a1 89DE     		movl	%ebx, %esi
 4393 00a3 4889C7   		movq	%rax, %rdi
 4394 00a6 E8000000 		call	_ZNSolsEi
 4394      00
  25:../Checks.h   **** 
  26:../Checks.h   ****         results.OnTestFailure(details, stream.GetText());
 4395              		.loc 5 26 0 is_stmt 1
 4396 00ab 488D8580 		leaq	-384(%rbp), %rax
 4396      FEFFFF
 4397 00b2 4889C7   		movq	%rax, %rdi
 4398 00b5 E8000000 		call	_ZNK8UnitTest15MemoryOutStream7GetTextEv
 4398      00
 4399 00ba 4889C2   		movq	%rax, %rdx
 4400 00bd 488B8D60 		movq	-416(%rbp), %rcx
 4400      FEFFFF
 4401 00c4 488B8578 		movq	-392(%rbp), %rax
 4401      FEFFFF
 4402 00cb 4889CE   		movq	%rcx, %rsi
 4403 00ce 4889C7   		movq	%rax, %rdi
 4404 00d1 E8000000 		call	_ZN8UnitTest11TestResults13OnTestFailureERKNS_11TestDetailsEPKc
 4404      00
 4405              	.LEHE101:
 4406              		.loc 5 26 0 is_stmt 0 discriminator 4
 4407 00d6 488D8580 		leaq	-384(%rbp), %rax
 4407      FEFFFF
 4408 00dd 4889C7   		movq	%rax, %rdi
 4409              	.LEHB102:
 4410 00e0 E8000000 		call	_ZN8UnitTest15MemoryOutStreamD1Ev
 4410      00
 4411              	.LEHE102:
 4412              	.L234:
 4413              	.LBE90:
 4414              	.LBE89:
 4415              	.LBE88:
  27:../Checks.h   ****     }
  28:../Checks.h   **** }
 4416              		.loc 5 28 0 is_stmt 1
 4417 00e5 488B45E8 		movq	-24(%rbp), %rax
 4418 00e9 64483304 		xorq	%fs:40, %rax
 4418      25280000 
 4418      00
 4419 00f2 7424     		je	.L236
 4420 00f4 EB1D     		jmp	.L238
 4421              	.L237:
 4422 00f6 4889C3   		movq	%rax, %rbx
 4423              	.LBB93:
 4424              	.LBB92:
 4425              	.LBB91:
  26:../Checks.h   ****     }
 4426              		.loc 5 26 0
 4427 00f9 488D8580 		leaq	-384(%rbp), %rax
 4427      FEFFFF
 4428 0100 4889C7   		movq	%rax, %rdi
 4429 0103 E8000000 		call	_ZN8UnitTest15MemoryOutStreamD1Ev
 4429      00
 4430 0108 4889D8   		movq	%rbx, %rax
 4431 010b 4889C7   		movq	%rax, %rdi
 4432              	.LEHB103:
 4433 010e E8000000 		call	_Unwind_Resume
 4433      00
 4434              	.LEHE103:
 4435              	.L238:
 4436              	.LBE91:
 4437              	.LBE92:
 4438              	.LBE93:
 4439              		.loc 5 28 0
 4440 0113 E8000000 		call	__stack_chk_fail
 4440      00
 4441              	.L236:
 4442 0118 4881C490 		addq	$400, %rsp
 4442      010000
 4443 011f 5B       		popq	%rbx
 4444 0120 415C     		popq	%r12
 4445 0122 5D       		popq	%rbp
 4446              		.cfi_def_cfa 7, 8
 4447 0123 C3       		ret
 4448              		.cfi_endproc
 4449              	.LFE1458:
 4450              		.section	.gcc_except_table
 4451              	.LLSDA1458:
 4452 02e0 FF       		.byte	0xff
 4453 02e1 FF       		.byte	0xff
 4454 02e2 01       		.byte	0x1
 4455 02e3 14       		.uleb128 .LLSDACSE1458-.LLSDACSB1458
 4456              	.LLSDACSB1458:
 4457 02e4 5D       		.uleb128 .LEHB100-.LFB1458
 4458 02e5 05       		.uleb128 .LEHE100-.LEHB100
 4459 02e6 00       		.uleb128 0
 4460 02e7 00       		.uleb128 0
 4461 02e8 8401     		.uleb128 .LEHB101-.LFB1458
 4462 02ea 52       		.uleb128 .LEHE101-.LEHB101
 4463 02eb F601     		.uleb128 .L237-.LFB1458
 4464 02ed 00       		.uleb128 0
 4465 02ee E001     		.uleb128 .LEHB102-.LFB1458
 4466 02f0 05       		.uleb128 .LEHE102-.LEHB102
 4467 02f1 00       		.uleb128 0
 4468 02f2 00       		.uleb128 0
 4469 02f3 8E02     		.uleb128 .LEHB103-.LFB1458
 4470 02f5 05       		.uleb128 .LEHE103-.LEHB103
 4471 02f6 00       		.uleb128 0
 4472 02f7 00       		.uleb128 0
 4473              	.LLSDACSE1458:
 4474              		.section	.text._ZN8UnitTest10CheckEqualIiiEEvRNS_11TestResultsERKT_RKT0_RKNS_11TestDetailsE,"axG",
 4476              		.section	.text._ZN8UnitTest10CheckEqualIPvS1_EEvRNS_11TestResultsERKT_RKT0_RKNS_11TestDetailsE,"ax
 4477              		.weak	_ZN8UnitTest10CheckEqualIPvS1_EEvRNS_11TestResultsERKT_RKT0_RKNS_11TestDetailsE
 4479              	_ZN8UnitTest10CheckEqualIPvS1_EEvRNS_11TestResultsERKT_RKT0_RKNS_11TestDetailsE:
 4480              	.LFB1459:
  19:../Checks.h   **** {
 4481              		.loc 5 19 0
 4482              		.cfi_startproc
 4483              		.cfi_personality 0x3,__gxx_personality_v0
 4484              		.cfi_lsda 0x3,.LLSDA1459
 4485 0000 55       		pushq	%rbp
 4486              		.cfi_def_cfa_offset 16
 4487              		.cfi_offset 6, -16
 4488 0001 4889E5   		movq	%rsp, %rbp
 4489              		.cfi_def_cfa_register 6
 4490 0004 4154     		pushq	%r12
 4491 0006 53       		pushq	%rbx
 4492 0007 4881EC90 		subq	$400, %rsp
 4492      010000
 4493              		.cfi_offset 12, -24
 4494              		.cfi_offset 3, -32
 4495 000e 4889BD78 		movq	%rdi, -392(%rbp)
 4495      FEFFFF
 4496 0015 4889B570 		movq	%rsi, -400(%rbp)
 4496      FEFFFF
 4497 001c 48899568 		movq	%rdx, -408(%rbp)
 4497      FEFFFF
 4498 0023 48898D60 		movq	%rcx, -416(%rbp)
 4498      FEFFFF
  19:../Checks.h   **** {
 4499              		.loc 5 19 0
 4500 002a 64488B04 		movq	%fs:40, %rax
 4500      25280000 
 4500      00
 4501 0033 488945E8 		movq	%rax, -24(%rbp)
 4502 0037 31C0     		xorl	%eax, %eax
 4503              	.LBB94:
 4504              	.LBB95:
  21:../Checks.h   ****     {
 4505              		.loc 5 21 0
 4506 0039 488B8570 		movq	-400(%rbp), %rax
 4506      FEFFFF
 4507 0040 488B10   		movq	(%rax), %rdx
 4508 0043 488B8568 		movq	-408(%rbp), %rax
 4508      FEFFFF
 4509 004a 488B00   		movq	(%rax), %rax
 4510 004d 4839C2   		cmpq	%rax, %rdx
 4511 0050 0F849400 		je	.L240
 4511      0000
 4512              	.LBB96:
  23:../Checks.h   ****         stream << "Expected " << expected << " but was " << actual;
 4513              		.loc 5 23 0
 4514 0056 488D8580 		leaq	-384(%rbp), %rax
 4514      FEFFFF
 4515 005d 4889C7   		movq	%rax, %rdi
 4516              	.LEHB104:
 4517 0060 E8000000 		call	_ZN8UnitTest15MemoryOutStreamC1Ev
 4517      00
 4518              	.LEHE104:
  24:../Checks.h   **** 
 4519              		.loc 5 24 0
 4520 0065 488B8568 		movq	-408(%rbp), %rax
 4520      FEFFFF
 4521 006c 488B18   		movq	(%rax), %rbx
 4522 006f 488B8570 		movq	-400(%rbp), %rax
 4522      FEFFFF
 4523 0076 4C8B20   		movq	(%rax), %r12
 4524 0079 488D8580 		leaq	-384(%rbp), %rax
 4524      FEFFFF
 4525 0080 BE000000 		movl	$.LC53, %esi
 4525      00
 4526 0085 4889C7   		movq	%rax, %rdi
 4527              	.LEHB105:
 4528 0088 E8000000 		call	_ZStlsISt11char_traitsIcEERSt13basic_ostreamIcT_ES5_PKc
 4528      00
 4529 008d 4C89E6   		movq	%r12, %rsi
 4530 0090 4889C7   		movq	%rax, %rdi
 4531 0093 E8000000 		call	_ZNSolsEPKv
 4531      00
  24:../Checks.h   **** 
 4532              		.loc 5 24 0 is_stmt 0 discriminator 1
 4533 0098 BE000000 		movl	$.LC54, %esi
 4533      00
 4534 009d 4889C7   		movq	%rax, %rdi
 4535 00a0 E8000000 		call	_ZStlsISt11char_traitsIcEERSt13basic_ostreamIcT_ES5_PKc
 4535      00
  24:../Checks.h   **** 
 4536              		.loc 5 24 0 discriminator 2
 4537 00a5 4889DE   		movq	%rbx, %rsi
 4538 00a8 4889C7   		movq	%rax, %rdi
 4539 00ab E8000000 		call	_ZNSolsEPKv
 4539      00
  26:../Checks.h   ****     }
 4540              		.loc 5 26 0 is_stmt 1
 4541 00b0 488D8580 		leaq	-384(%rbp), %rax
 4541      FEFFFF
 4542 00b7 4889C7   		movq	%rax, %rdi
 4543 00ba E8000000 		call	_ZNK8UnitTest15MemoryOutStream7GetTextEv
 4543      00
 4544 00bf 4889C2   		movq	%rax, %rdx
 4545 00c2 488B8D60 		movq	-416(%rbp), %rcx
 4545      FEFFFF
 4546 00c9 488B8578 		movq	-392(%rbp), %rax
 4546      FEFFFF
 4547 00d0 4889CE   		movq	%rcx, %rsi
 4548 00d3 4889C7   		movq	%rax, %rdi
 4549 00d6 E8000000 		call	_ZN8UnitTest11TestResults13OnTestFailureERKNS_11TestDetailsEPKc
 4549      00
 4550              	.LEHE105:
  26:../Checks.h   ****     }
 4551              		.loc 5 26 0 is_stmt 0 discriminator 4
 4552 00db 488D8580 		leaq	-384(%rbp), %rax
 4552      FEFFFF
 4553 00e2 4889C7   		movq	%rax, %rdi
 4554              	.LEHB106:
 4555 00e5 E8000000 		call	_ZN8UnitTest15MemoryOutStreamD1Ev
 4555      00
 4556              	.LEHE106:
 4557              	.L240:
 4558              	.LBE96:
 4559              	.LBE95:
 4560              	.LBE94:
 4561              		.loc 5 28 0 is_stmt 1
 4562 00ea 488B45E8 		movq	-24(%rbp), %rax
 4563 00ee 64483304 		xorq	%fs:40, %rax
 4563      25280000 
 4563      00
 4564 00f7 7424     		je	.L242
 4565 00f9 EB1D     		jmp	.L244
 4566              	.L243:
 4567 00fb 4889C3   		movq	%rax, %rbx
 4568              	.LBB99:
 4569              	.LBB98:
 4570              	.LBB97:
  26:../Checks.h   ****     }
 4571              		.loc 5 26 0
 4572 00fe 488D8580 		leaq	-384(%rbp), %rax
 4572      FEFFFF
 4573 0105 4889C7   		movq	%rax, %rdi
 4574 0108 E8000000 		call	_ZN8UnitTest15MemoryOutStreamD1Ev
 4574      00
 4575 010d 4889D8   		movq	%rbx, %rax
 4576 0110 4889C7   		movq	%rax, %rdi
 4577              	.LEHB107:
 4578 0113 E8000000 		call	_Unwind_Resume
 4578      00
 4579              	.LEHE107:
 4580              	.L244:
 4581              	.LBE97:
 4582              	.LBE98:
 4583              	.LBE99:
 4584              		.loc 5 28 0
 4585 0118 E8000000 		call	__stack_chk_fail
 4585      00
 4586              	.L242:
 4587 011d 4881C490 		addq	$400, %rsp
 4587      010000
 4588 0124 5B       		popq	%rbx
 4589 0125 415C     		popq	%r12
 4590 0127 5D       		popq	%rbp
 4591              		.cfi_def_cfa 7, 8
 4592 0128 C3       		ret
 4593              		.cfi_endproc
 4594              	.LFE1459:
 4595              		.section	.gcc_except_table
 4596              	.LLSDA1459:
 4597 02f8 FF       		.byte	0xff
 4598 02f9 FF       		.byte	0xff
 4599 02fa 01       		.byte	0x1
 4600 02fb 14       		.uleb128 .LLSDACSE1459-.LLSDACSB1459
 4601              	.LLSDACSB1459:
 4602 02fc 60       		.uleb128 .LEHB104-.LFB1459
 4603 02fd 05       		.uleb128 .LEHE104-.LEHB104
 4604 02fe 00       		.uleb128 0
 4605 02ff 00       		.uleb128 0
 4606 0300 8801     		.uleb128 .LEHB105-.LFB1459
 4607 0302 53       		.uleb128 .LEHE105-.LEHB105
 4608 0303 FB01     		.uleb128 .L243-.LFB1459
 4609 0305 00       		.uleb128 0
 4610 0306 E501     		.uleb128 .LEHB106-.LFB1459
 4611 0308 05       		.uleb128 .LEHE106-.LEHB106
 4612 0309 00       		.uleb128 0
 4613 030a 00       		.uleb128 0
 4614 030b 9302     		.uleb128 .LEHB107-.LFB1459
 4615 030d 05       		.uleb128 .LEHE107-.LEHB107
 4616 030e 00       		.uleb128 0
 4617 030f 00       		.uleb128 0
 4618              	.LLSDACSE1459:
 4619              		.section	.text._ZN8UnitTest10CheckEqualIPvS1_EEvRNS_11TestResultsERKT_RKT0_RKNS_11TestDetailsE,"ax
 4621              		.section	.rodata
 4622              	.LC55:
 4623 05be 202B2F2D 		.string	" +/- "
 4623      2000
 4624              		.section	.text._ZN8UnitTest10CheckCloseIfffEEvRNS_11TestResultsERKT_RKT0_RKT1_RKNS_11TestDetailsE,
 4625              		.weak	_ZN8UnitTest10CheckCloseIfffEEvRNS_11TestResultsERKT_RKT0_RKT1_RKNS_11TestDetailsE
 4627              	_ZN8UnitTest10CheckCloseIfffEEvRNS_11TestResultsERKT_RKT0_RKT1_RKNS_11TestDetailsE:
 4628              	.LFB1460:
  29:../Checks.h   **** 
  30:../Checks.h   **** void CheckEqual(TestResults& results, char const* expected, char const* actual, TestDetails const& 
  31:../Checks.h   **** 
  32:../Checks.h   **** void CheckEqual(TestResults& results, char* expected, char* actual, TestDetails const& details);
  33:../Checks.h   **** 
  34:../Checks.h   **** void CheckEqual(TestResults& results, char* expected, char const* actual, TestDetails const& detail
  35:../Checks.h   **** 
  36:../Checks.h   **** void CheckEqual(TestResults& results, char const* expected, char* actual, TestDetails const& detail
  37:../Checks.h   **** 
  38:../Checks.h   **** template< typename Expected, typename Actual, typename Tolerance >
  39:../Checks.h   **** bool AreClose(Expected const& expected, Actual const& actual, Tolerance const& tolerance)
  40:../Checks.h   **** {
  41:../Checks.h   ****     return (actual >= (expected - tolerance)) && (actual <= (expected + tolerance));
  42:../Checks.h   **** }
  43:../Checks.h   **** 
  44:../Checks.h   **** template< typename Expected, typename Actual, typename Tolerance >
  45:../Checks.h   **** void CheckClose(TestResults& results, Expected const& expected, Actual const& actual, Tolerance con
 4629              		.loc 5 45 0
 4630              		.cfi_startproc
 4631              		.cfi_personality 0x3,__gxx_personality_v0
 4632              		.cfi_lsda 0x3,.LLSDA1460
 4633 0000 55       		pushq	%rbp
 4634              		.cfi_def_cfa_offset 16
 4635              		.cfi_offset 6, -16
 4636 0001 4889E5   		movq	%rsp, %rbp
 4637              		.cfi_def_cfa_register 6
 4638 0004 4155     		pushq	%r13
 4639 0006 4154     		pushq	%r12
 4640 0008 53       		pushq	%rbx
 4641 0009 4881ECA8 		subq	$424, %rsp
 4641      010000
 4642              		.cfi_offset 13, -24
 4643              		.cfi_offset 12, -32
 4644              		.cfi_offset 3, -40
 4645 0010 4889BD68 		movq	%rdi, -408(%rbp)
 4645      FEFFFF
 4646 0017 4889B560 		movq	%rsi, -416(%rbp)
 4646      FEFFFF
 4647 001e 48899558 		movq	%rdx, -424(%rbp)
 4647      FEFFFF
 4648 0025 48898D50 		movq	%rcx, -432(%rbp)
 4648      FEFFFF
 4649 002c 4C898548 		movq	%r8, -440(%rbp)
 4649      FEFFFF
 4650              		.loc 5 45 0
 4651 0033 64488B04 		movq	%fs:40, %rax
 4651      25280000 
 4651      00
 4652 003c 488945D8 		movq	%rax, -40(%rbp)
 4653 0040 31C0     		xorl	%eax, %eax
 4654              	.LBB100:
 4655              	.LBB101:
  46:../Checks.h   ****                 TestDetails const& details)
  47:../Checks.h   **** {
  48:../Checks.h   ****     if (!AreClose(expected, actual, tolerance))
 4656              		.loc 5 48 0
 4657 0042 488B9550 		movq	-432(%rbp), %rdx
 4657      FEFFFF
 4658 0049 488B8D58 		movq	-424(%rbp), %rcx
 4658      FEFFFF
 4659 0050 488B8560 		movq	-416(%rbp), %rax
 4659      FEFFFF
 4660 0057 4889CE   		movq	%rcx, %rsi
 4661 005a 4889C7   		movq	%rax, %rdi
 4662 005d E8000000 		call	_ZN8UnitTest8AreCloseIfffEEbRKT_RKT0_RKT1_
 4662      00
 4663 0062 83F001   		xorl	$1, %eax
 4664 0065 84C0     		testb	%al, %al
 4665 0067 0F84D800 		je	.L246
 4665      0000
 4666              	.LBB102:
  49:../Checks.h   ****     { 
  50:../Checks.h   ****         UnitTest::MemoryOutStream stream;
 4667              		.loc 5 50 0
 4668 006d 488D8570 		leaq	-400(%rbp), %rax
 4668      FEFFFF
 4669 0074 4889C7   		movq	%rax, %rdi
 4670              	.LEHB108:
 4671 0077 E8000000 		call	_ZN8UnitTest15MemoryOutStreamC1Ev
 4671      00
 4672              	.LEHE108:
  51:../Checks.h   ****         stream << "Expected " << expected << " +/- " << tolerance << " but was " << actual;
 4673              		.loc 5 51 0
 4674 007c 488B8558 		movq	-424(%rbp), %rax
 4674      FEFFFF
 4675 0083 8B18     		movl	(%rax), %ebx
 4676 0085 488B8550 		movq	-432(%rbp), %rax
 4676      FEFFFF
 4677 008c 448B20   		movl	(%rax), %r12d
 4678 008f 488B8560 		movq	-416(%rbp), %rax
 4678      FEFFFF
 4679 0096 448B28   		movl	(%rax), %r13d
 4680 0099 488D8570 		leaq	-400(%rbp), %rax
 4680      FEFFFF
 4681 00a0 BE000000 		movl	$.LC53, %esi
 4681      00
 4682 00a5 4889C7   		movq	%rax, %rdi
 4683              	.LEHB109:
 4684 00a8 E8000000 		call	_ZStlsISt11char_traitsIcEERSt13basic_ostreamIcT_ES5_PKc
 4684      00
 4685 00ad 4489AD44 		movl	%r13d, -444(%rbp)
 4685      FEFFFF
 4686 00b4 F30F1085 		movss	-444(%rbp), %xmm0
 4686      44FEFFFF 
 4687 00bc 4889C7   		movq	%rax, %rdi
 4688 00bf E8000000 		call	_ZNSolsEf
 4688      00
 4689              		.loc 5 51 0 is_stmt 0 discriminator 1
 4690 00c4 BE000000 		movl	$.LC55, %esi
 4690      00
 4691 00c9 4889C7   		movq	%rax, %rdi
 4692 00cc E8000000 		call	_ZStlsISt11char_traitsIcEERSt13basic_ostreamIcT_ES5_PKc
 4692      00
 4693              		.loc 5 51 0 discriminator 2
 4694 00d1 4489A544 		movl	%r12d, -444(%rbp)
 4694      FEFFFF
 4695 00d8 F30F1085 		movss	-444(%rbp), %xmm0
 4695      44FEFFFF 
 4696 00e0 4889C7   		movq	%rax, %rdi
 4697 00e3 E8000000 		call	_ZNSolsEf
 4697      00
 4698              		.loc 5 51 0 discriminator 3
 4699 00e8 BE000000 		movl	$.LC54, %esi
 4699      00
 4700 00ed 4889C7   		movq	%rax, %rdi
 4701 00f0 E8000000 		call	_ZStlsISt11char_traitsIcEERSt13basic_ostreamIcT_ES5_PKc
 4701      00
 4702              		.loc 5 51 0 discriminator 4
 4703 00f5 899D44FE 		movl	%ebx, -444(%rbp)
 4703      FFFF
 4704 00fb F30F1085 		movss	-444(%rbp), %xmm0
 4704      44FEFFFF 
 4705 0103 4889C7   		movq	%rax, %rdi
 4706 0106 E8000000 		call	_ZNSolsEf
 4706      00
  52:../Checks.h   **** 
  53:../Checks.h   ****         results.OnTestFailure(details, stream.GetText());
 4707              		.loc 5 53 0 is_stmt 1
 4708 010b 488D8570 		leaq	-400(%rbp), %rax
 4708      FEFFFF
 4709 0112 4889C7   		movq	%rax, %rdi
 4710 0115 E8000000 		call	_ZNK8UnitTest15MemoryOutStream7GetTextEv
 4710      00
 4711 011a 4889C2   		movq	%rax, %rdx
 4712 011d 488B8D48 		movq	-440(%rbp), %rcx
 4712      FEFFFF
 4713 0124 488B8568 		movq	-408(%rbp), %rax
 4713      FEFFFF
 4714 012b 4889CE   		movq	%rcx, %rsi
 4715 012e 4889C7   		movq	%rax, %rdi
 4716 0131 E8000000 		call	_ZN8UnitTest11TestResults13OnTestFailureERKNS_11TestDetailsEPKc
 4716      00
 4717              	.LEHE109:
 4718              		.loc 5 53 0 is_stmt 0 discriminator 4
 4719 0136 488D8570 		leaq	-400(%rbp), %rax
 4719      FEFFFF
 4720 013d 4889C7   		movq	%rax, %rdi
 4721              	.LEHB110:
 4722 0140 E8000000 		call	_ZN8UnitTest15MemoryOutStreamD1Ev
 4722      00
 4723              	.LEHE110:
 4724              	.L246:
 4725              	.LBE102:
 4726              	.LBE101:
 4727              	.LBE100:
  54:../Checks.h   ****     }
  55:../Checks.h   **** }
 4728              		.loc 5 55 0 is_stmt 1
 4729 0145 488B45D8 		movq	-40(%rbp), %rax
 4730 0149 64483304 		xorq	%fs:40, %rax
 4730      25280000 
 4730      00
 4731 0152 7424     		je	.L248
 4732 0154 EB1D     		jmp	.L250
 4733              	.L249:
 4734 0156 4889C3   		movq	%rax, %rbx
 4735              	.LBB105:
 4736              	.LBB104:
 4737              	.LBB103:
  53:../Checks.h   ****     }
 4738              		.loc 5 53 0
 4739 0159 488D8570 		leaq	-400(%rbp), %rax
 4739      FEFFFF
 4740 0160 4889C7   		movq	%rax, %rdi
 4741 0163 E8000000 		call	_ZN8UnitTest15MemoryOutStreamD1Ev
 4741      00
 4742 0168 4889D8   		movq	%rbx, %rax
 4743 016b 4889C7   		movq	%rax, %rdi
 4744              	.LEHB111:
 4745 016e E8000000 		call	_Unwind_Resume
 4745      00
 4746              	.LEHE111:
 4747              	.L250:
 4748              	.LBE103:
 4749              	.LBE104:
 4750              	.LBE105:
 4751              		.loc 5 55 0
 4752 0173 E8000000 		call	__stack_chk_fail
 4752      00
 4753              	.L248:
 4754 0178 4881C4A8 		addq	$424, %rsp
 4754      010000
 4755 017f 5B       		popq	%rbx
 4756 0180 415C     		popq	%r12
 4757 0182 415D     		popq	%r13
 4758 0184 5D       		popq	%rbp
 4759              		.cfi_def_cfa 7, 8
 4760 0185 C3       		ret
 4761              		.cfi_endproc
 4762              	.LFE1460:
 4763              		.section	.gcc_except_table
 4764              	.LLSDA1460:
 4765 0310 FF       		.byte	0xff
 4766 0311 FF       		.byte	0xff
 4767 0312 01       		.byte	0x1
 4768 0313 15       		.uleb128 .LLSDACSE1460-.LLSDACSB1460
 4769              	.LLSDACSB1460:
 4770 0314 77       		.uleb128 .LEHB108-.LFB1460
 4771 0315 05       		.uleb128 .LEHE108-.LEHB108
 4772 0316 00       		.uleb128 0
 4773 0317 00       		.uleb128 0
 4774 0318 A801     		.uleb128 .LEHB109-.LFB1460
 4775 031a 8E01     		.uleb128 .LEHE109-.LEHB109
 4776 031c D602     		.uleb128 .L249-.LFB1460
 4777 031e 00       		.uleb128 0
 4778 031f C002     		.uleb128 .LEHB110-.LFB1460
 4779 0321 05       		.uleb128 .LEHE110-.LEHB110
 4780 0322 00       		.uleb128 0
 4781 0323 00       		.uleb128 0
 4782 0324 EE02     		.uleb128 .LEHB111-.LFB1460
 4783 0326 05       		.uleb128 .LEHE111-.LEHB111
 4784 0327 00       		.uleb128 0
 4785 0328 00       		.uleb128 0
 4786              	.LLSDACSE1460:
 4787              		.section	.text._ZN8UnitTest10CheckCloseIfffEEvRNS_11TestResultsERKT_RKT0_RKT1_RKNS_11TestDetailsE,
 4789              		.section	.rodata
 4790              	.LC56:
 4791 05c4 45787065 		.string	"Expected [ "
 4791      63746564 
 4791      205B2000 
 4792              	.LC57:
 4793 05d0 2000     		.string	" "
 4794              	.LC58:
 4795 05d2 5D202B2F 		.string	"] +/- "
 4795      2D2000
 4796              	.LC59:
 4797 05d9 20627574 		.string	" but was [ "
 4797      20776173 
 4797      205B2000 
 4798              	.LC60:
 4799 05e5 5D00     		.string	"]"
 4800              		.section	.text._ZN8UnitTest15CheckArrayCloseIA3_fS1_fEEvRNS_11TestResultsERKT_RKT0_iRKT1_RKNS_11Te
 4801              		.weak	_ZN8UnitTest15CheckArrayCloseIA3_fS1_fEEvRNS_11TestResultsERKT_RKT0_iRKT1_RKNS_11TestDetails
 4803              	_ZN8UnitTest15CheckArrayCloseIA3_fS1_fEEvRNS_11TestResultsERKT_RKT0_iRKT1_RKNS_11TestDetailsE:
 4804              	.LFB1461:
  56:../Checks.h   **** 
  57:../Checks.h   **** 
  58:../Checks.h   **** template< typename Expected, typename Actual >
  59:../Checks.h   **** void CheckArrayEqual(TestResults& results, Expected const& expected, Actual const& actual,
  60:../Checks.h   ****                 int const count, TestDetails const& details)
  61:../Checks.h   **** {
  62:../Checks.h   ****     bool equal = true;
  63:../Checks.h   ****     for (int i = 0; i < count; ++i)
  64:../Checks.h   ****         equal &= (expected[i] == actual[i]);
  65:../Checks.h   **** 
  66:../Checks.h   ****     if (!equal)
  67:../Checks.h   ****     {
  68:../Checks.h   ****         UnitTest::MemoryOutStream stream;
  69:../Checks.h   **** 
  70:../Checks.h   **** 		stream << "Expected [ ";
  71:../Checks.h   **** 
  72:../Checks.h   **** 		for (int expectedIndex = 0; expectedIndex < count; ++expectedIndex)
  73:../Checks.h   ****             stream << expected[expectedIndex] << " ";
  74:../Checks.h   **** 
  75:../Checks.h   **** 		stream << "] but was [ ";
  76:../Checks.h   **** 
  77:../Checks.h   **** 		for (int actualIndex = 0; actualIndex < count; ++actualIndex)
  78:../Checks.h   ****             stream << actual[actualIndex] << " ";
  79:../Checks.h   **** 
  80:../Checks.h   **** 		stream << "]";
  81:../Checks.h   **** 
  82:../Checks.h   ****         results.OnTestFailure(details, stream.GetText());
  83:../Checks.h   ****     }
  84:../Checks.h   **** }
  85:../Checks.h   **** 
  86:../Checks.h   **** template< typename Expected, typename Actual, typename Tolerance >
  87:../Checks.h   **** bool ArrayAreClose(Expected const& expected, Actual const& actual, int const count, Tolerance const
  88:../Checks.h   **** {
  89:../Checks.h   ****     bool equal = true;
  90:../Checks.h   ****     for (int i = 0; i < count; ++i)
  91:../Checks.h   ****         equal &= AreClose(expected[i], actual[i], tolerance);
  92:../Checks.h   ****     return equal;
  93:../Checks.h   **** }
  94:../Checks.h   **** 
  95:../Checks.h   **** template< typename Expected, typename Actual, typename Tolerance >
  96:../Checks.h   **** void CheckArrayClose(TestResults& results, Expected const& expected, Actual const& actual,
 4805              		.loc 5 96 0
 4806              		.cfi_startproc
 4807              		.cfi_personality 0x3,__gxx_personality_v0
 4808              		.cfi_lsda 0x3,.LLSDA1461
 4809 0000 55       		pushq	%rbp
 4810              		.cfi_def_cfa_offset 16
 4811              		.cfi_offset 6, -16
 4812 0001 4889E5   		movq	%rsp, %rbp
 4813              		.cfi_def_cfa_register 6
 4814 0004 53       		pushq	%rbx
 4815 0005 4881ECB8 		subq	$440, %rsp
 4815      010000
 4816              		.cfi_offset 3, -24
 4817 000c 4889BD68 		movq	%rdi, -408(%rbp)
 4817      FEFFFF
 4818 0013 4889B560 		movq	%rsi, -416(%rbp)
 4818      FEFFFF
 4819 001a 48899558 		movq	%rdx, -424(%rbp)
 4819      FEFFFF
 4820 0021 898D54FE 		movl	%ecx, -428(%rbp)
 4820      FFFF
 4821 0027 4C898548 		movq	%r8, -440(%rbp)
 4821      FEFFFF
 4822 002e 4C898D40 		movq	%r9, -448(%rbp)
 4822      FEFFFF
 4823              		.loc 5 96 0
 4824 0035 64488B04 		movq	%fs:40, %rax
 4824      25280000 
 4824      00
 4825 003e 488945E8 		movq	%rax, -24(%rbp)
 4826 0042 31C0     		xorl	%eax, %eax
 4827              	.LBB106:
  97:../Checks.h   ****                    int const count, Tolerance const& tolerance, TestDetails const& details)
  98:../Checks.h   **** {
  99:../Checks.h   ****     bool equal = ArrayAreClose(expected, actual, count, tolerance);
 4828              		.loc 5 99 0
 4829 0044 488B8D48 		movq	-440(%rbp), %rcx
 4829      FEFFFF
 4830 004b 8B9554FE 		movl	-428(%rbp), %edx
 4830      FFFF
 4831 0051 488BB558 		movq	-424(%rbp), %rsi
 4831      FEFFFF
 4832 0058 488B8560 		movq	-416(%rbp), %rax
 4832      FEFFFF
 4833 005f 4889C7   		movq	%rax, %rdi
 4834 0062 E8000000 		call	_ZN8UnitTest13ArrayAreCloseIA3_fS1_fEEbRKT_RKT0_iRKT1_
 4834      00
 4835 0067 888577FE 		movb	%al, -393(%rbp)
 4835      FFFF
 4836              	.LBB107:
 100:../Checks.h   **** 
 101:../Checks.h   ****     if (!equal)
 4837              		.loc 5 101 0
 4838 006d 0FB68577 		movzbl	-393(%rbp), %eax
 4838      FEFFFF
 4839 0074 83F001   		xorl	$1, %eax
 4840 0077 84C0     		testb	%al, %al
 4841 0079 0F846D01 		je	.L252
 4841      0000
 4842              	.LBB108:
 102:../Checks.h   ****     {
 103:../Checks.h   ****         UnitTest::MemoryOutStream stream;
 4843              		.loc 5 103 0
 4844 007f 488D8580 		leaq	-384(%rbp), %rax
 4844      FEFFFF
 4845 0086 4889C7   		movq	%rax, %rdi
 4846              	.LEHB112:
 4847 0089 E8000000 		call	_ZN8UnitTest15MemoryOutStreamC1Ev
 4847      00
 4848              	.LEHE112:
 104:../Checks.h   **** 
 105:../Checks.h   ****         stream << "Expected [ ";
 4849              		.loc 5 105 0
 4850 008e 488D8580 		leaq	-384(%rbp), %rax
 4850      FEFFFF
 4851 0095 BE000000 		movl	$.LC56, %esi
 4851      00
 4852 009a 4889C7   		movq	%rax, %rdi
 4853              	.LEHB113:
 4854 009d E8000000 		call	_ZStlsISt11char_traitsIcEERSt13basic_ostreamIcT_ES5_PKc
 4854      00
 4855              	.LBB109:
 106:../Checks.h   ****         for (int expectedIndex = 0; expectedIndex < count; ++expectedIndex)
 4856              		.loc 5 106 0
 4857 00a2 C78578FE 		movl	$0, -392(%rbp)
 4857      FFFF0000 
 4857      0000
 4858 00ac EB44     		jmp	.L253
 4859              	.L254:
 107:../Checks.h   ****             stream << expected[expectedIndex] << " ";
 4860              		.loc 5 107 0
 4861 00ae 488B8560 		movq	-416(%rbp), %rax
 4861      FEFFFF
 4862 00b5 8B9578FE 		movl	-392(%rbp), %edx
 4862      FFFF
 4863 00bb 4863D2   		movslq	%edx, %rdx
 4864 00be 8B1490   		movl	(%rax,%rdx,4), %edx
 4865 00c1 488D8580 		leaq	-384(%rbp), %rax
 4865      FEFFFF
 4866 00c8 899550FE 		movl	%edx, -432(%rbp)
 4866      FFFF
 4867 00ce F30F1085 		movss	-432(%rbp), %xmm0
 4867      50FEFFFF 
 4868 00d6 4889C7   		movq	%rax, %rdi
 4869 00d9 E8000000 		call	_ZNSolsEf
 4869      00
 4870 00de BE000000 		movl	$.LC57, %esi
 4870      00
 4871 00e3 4889C7   		movq	%rax, %rdi
 4872 00e6 E8000000 		call	_ZStlsISt11char_traitsIcEERSt13basic_ostreamIcT_ES5_PKc
 4872      00
 106:../Checks.h   ****         for (int expectedIndex = 0; expectedIndex < count; ++expectedIndex)
 4873              		.loc 5 106 0 discriminator 2
 4874 00eb 838578FE 		addl	$1, -392(%rbp)
 4874      FFFF01
 4875              	.L253:
 106:../Checks.h   ****         for (int expectedIndex = 0; expectedIndex < count; ++expectedIndex)
 4876              		.loc 5 106 0 is_stmt 0 discriminator 1
 4877 00f2 8B8578FE 		movl	-392(%rbp), %eax
 4877      FFFF
 4878 00f8 3B8554FE 		cmpl	-428(%rbp), %eax
 4878      FFFF
 4879 00fe 7CAE     		jl	.L254
 4880              	.LBE109:
 108:../Checks.h   ****         stream << "] +/- " << tolerance << " but was [ ";
 4881              		.loc 5 108 0 is_stmt 1
 4882 0100 488B8548 		movq	-440(%rbp), %rax
 4882      FEFFFF
 4883 0107 8B18     		movl	(%rax), %ebx
 4884 0109 488D8580 		leaq	-384(%rbp), %rax
 4884      FEFFFF
 4885 0110 BE000000 		movl	$.LC58, %esi
 4885      00
 4886 0115 4889C7   		movq	%rax, %rdi
 4887 0118 E8000000 		call	_ZStlsISt11char_traitsIcEERSt13basic_ostreamIcT_ES5_PKc
 4887      00
 4888 011d 899D50FE 		movl	%ebx, -432(%rbp)
 4888      FFFF
 4889 0123 F30F1085 		movss	-432(%rbp), %xmm0
 4889      50FEFFFF 
 4890 012b 4889C7   		movq	%rax, %rdi
 4891 012e E8000000 		call	_ZNSolsEf
 4891      00
 4892              		.loc 5 108 0 is_stmt 0 discriminator 1
 4893 0133 BE000000 		movl	$.LC59, %esi
 4893      00
 4894 0138 4889C7   		movq	%rax, %rdi
 4895 013b E8000000 		call	_ZStlsISt11char_traitsIcEERSt13basic_ostreamIcT_ES5_PKc
 4895      00
 4896              	.LBB110:
 109:../Checks.h   **** 
 110:../Checks.h   **** 		for (int actualIndex = 0; actualIndex < count; ++actualIndex)
 4897              		.loc 5 110 0 is_stmt 1
 4898 0140 C7857CFE 		movl	$0, -388(%rbp)
 4898      FFFF0000 
 4898      0000
 4899 014a EB44     		jmp	.L255
 4900              	.L256:
 111:../Checks.h   ****             stream << actual[actualIndex] << " ";
 4901              		.loc 5 111 0
 4902 014c 488B8558 		movq	-424(%rbp), %rax
 4902      FEFFFF
 4903 0153 8B957CFE 		movl	-388(%rbp), %edx
 4903      FFFF
 4904 0159 4863D2   		movslq	%edx, %rdx
 4905 015c 8B1490   		movl	(%rax,%rdx,4), %edx
 4906 015f 488D8580 		leaq	-384(%rbp), %rax
 4906      FEFFFF
 4907 0166 899550FE 		movl	%edx, -432(%rbp)
 4907      FFFF
 4908 016c F30F1085 		movss	-432(%rbp), %xmm0
 4908      50FEFFFF 
 4909 0174 4889C7   		movq	%rax, %rdi
 4910 0177 E8000000 		call	_ZNSolsEf
 4910      00
 4911 017c BE000000 		movl	$.LC57, %esi
 4911      00
 4912 0181 4889C7   		movq	%rax, %rdi
 4913 0184 E8000000 		call	_ZStlsISt11char_traitsIcEERSt13basic_ostreamIcT_ES5_PKc
 4913      00
 110:../Checks.h   ****             stream << actual[actualIndex] << " ";
 4914              		.loc 5 110 0 discriminator 2
 4915 0189 83857CFE 		addl	$1, -388(%rbp)
 4915      FFFF01
 4916              	.L255:
 110:../Checks.h   ****             stream << actual[actualIndex] << " ";
 4917              		.loc 5 110 0 is_stmt 0 discriminator 1
 4918 0190 8B857CFE 		movl	-388(%rbp), %eax
 4918      FFFF
 4919 0196 3B8554FE 		cmpl	-428(%rbp), %eax
 4919      FFFF
 4920 019c 7CAE     		jl	.L256
 4921              	.LBE110:
 112:../Checks.h   ****         stream << "]";
 4922              		.loc 5 112 0 is_stmt 1
 4923 019e 488D8580 		leaq	-384(%rbp), %rax
 4923      FEFFFF
 4924 01a5 BE000000 		movl	$.LC60, %esi
 4924      00
 4925 01aa 4889C7   		movq	%rax, %rdi
 4926 01ad E8000000 		call	_ZStlsISt11char_traitsIcEERSt13basic_ostreamIcT_ES5_PKc
 4926      00
 113:../Checks.h   **** 
 114:../Checks.h   ****         results.OnTestFailure(details, stream.GetText());
 4927              		.loc 5 114 0
 4928 01b2 488D8580 		leaq	-384(%rbp), %rax
 4928      FEFFFF
 4929 01b9 4889C7   		movq	%rax, %rdi
 4930 01bc E8000000 		call	_ZNK8UnitTest15MemoryOutStream7GetTextEv
 4930      00
 4931 01c1 4889C2   		movq	%rax, %rdx
 4932 01c4 488B8D40 		movq	-448(%rbp), %rcx
 4932      FEFFFF
 4933 01cb 488B8568 		movq	-408(%rbp), %rax
 4933      FEFFFF
 4934 01d2 4889CE   		movq	%rcx, %rsi
 4935 01d5 4889C7   		movq	%rax, %rdi
 4936 01d8 E8000000 		call	_ZN8UnitTest11TestResults13OnTestFailureERKNS_11TestDetailsEPKc
 4936      00
 4937              	.LEHE113:
 4938              		.loc 5 114 0 is_stmt 0 discriminator 4
 4939 01dd 488D8580 		leaq	-384(%rbp), %rax
 4939      FEFFFF
 4940 01e4 4889C7   		movq	%rax, %rdi
 4941              	.LEHB114:
 4942 01e7 E8000000 		call	_ZN8UnitTest15MemoryOutStreamD1Ev
 4942      00
 4943              	.LEHE114:
 4944              	.L252:
 4945              	.LBE108:
 4946              	.LBE107:
 4947              	.LBE106:
 115:../Checks.h   ****     }
 116:../Checks.h   **** }
 4948              		.loc 5 116 0 is_stmt 1
 4949 01ec 488B45E8 		movq	-24(%rbp), %rax
 4950 01f0 64483304 		xorq	%fs:40, %rax
 4950      25280000 
 4950      00
 4951 01f9 7424     		je	.L258
 4952 01fb EB1D     		jmp	.L260
 4953              	.L259:
 4954 01fd 4889C3   		movq	%rax, %rbx
 4955              	.LBB113:
 4956              	.LBB112:
 4957              	.LBB111:
 114:../Checks.h   ****     }
 4958              		.loc 5 114 0
 4959 0200 488D8580 		leaq	-384(%rbp), %rax
 4959      FEFFFF
 4960 0207 4889C7   		movq	%rax, %rdi
 4961 020a E8000000 		call	_ZN8UnitTest15MemoryOutStreamD1Ev
 4961      00
 4962 020f 4889D8   		movq	%rbx, %rax
 4963 0212 4889C7   		movq	%rax, %rdi
 4964              	.LEHB115:
 4965 0215 E8000000 		call	_Unwind_Resume
 4965      00
 4966              	.LEHE115:
 4967              	.L260:
 4968              	.LBE111:
 4969              	.LBE112:
 4970              	.LBE113:
 4971              		.loc 5 116 0
 4972 021a E8000000 		call	__stack_chk_fail
 4972      00
 4973              	.L258:
 4974 021f 4881C4B8 		addq	$440, %rsp
 4974      010000
 4975 0226 5B       		popq	%rbx
 4976 0227 5D       		popq	%rbp
 4977              		.cfi_def_cfa 7, 8
 4978 0228 C3       		ret
 4979              		.cfi_endproc
 4980              	.LFE1461:
 4981              		.section	.gcc_except_table
 4982              	.LLSDA1461:
 4983 0329 FF       		.byte	0xff
 4984 032a FF       		.byte	0xff
 4985 032b 01       		.byte	0x1
 4986 032c 16       		.uleb128 .LLSDACSE1461-.LLSDACSB1461
 4987              	.LLSDACSB1461:
 4988 032d 8901     		.uleb128 .LEHB112-.LFB1461
 4989 032f 05       		.uleb128 .LEHE112-.LEHB112
 4990 0330 00       		.uleb128 0
 4991 0331 00       		.uleb128 0
 4992 0332 9D01     		.uleb128 .LEHB113-.LFB1461
 4993 0334 C002     		.uleb128 .LEHE113-.LEHB113
 4994 0336 FD03     		.uleb128 .L259-.LFB1461
 4995 0338 00       		.uleb128 0
 4996 0339 E703     		.uleb128 .LEHB114-.LFB1461
 4997 033b 05       		.uleb128 .LEHE114-.LEHB114
 4998 033c 00       		.uleb128 0
 4999 033d 00       		.uleb128 0
 5000 033e 9504     		.uleb128 .LEHB115-.LFB1461
 5001 0340 05       		.uleb128 .LEHE115-.LEHB115
 5002 0341 00       		.uleb128 0
 5003 0342 00       		.uleb128 0
 5004              	.LLSDACSE1461:
 5005              		.section	.text._ZN8UnitTest15CheckArrayCloseIA3_fS1_fEEvRNS_11TestResultsERKT_RKT0_iRKT1_RKNS_11Te
 5007              		.section	.text._ZNSaIfEC2Ev,"axG",@progbits,_ZNSaIfEC5Ev,comdat
 5008              		.align 2
 5009              		.weak	_ZNSaIfEC2Ev
 5011              	_ZNSaIfEC2Ev:
 5012              	.LFB1463:
 5013              		.file 6 "/usr/include/c++/4.9/bits/allocator.h"
   1:/usr/include/c++/4.9/bits/allocator.h **** // Allocators -*- C++ -*-
   2:/usr/include/c++/4.9/bits/allocator.h **** 
   3:/usr/include/c++/4.9/bits/allocator.h **** // Copyright (C) 2001-2014 Free Software Foundation, Inc.
   4:/usr/include/c++/4.9/bits/allocator.h **** //
   5:/usr/include/c++/4.9/bits/allocator.h **** // This file is part of the GNU ISO C++ Library.  This library is free
   6:/usr/include/c++/4.9/bits/allocator.h **** // software; you can redistribute it and/or modify it under the
   7:/usr/include/c++/4.9/bits/allocator.h **** // terms of the GNU General Public License as published by the
   8:/usr/include/c++/4.9/bits/allocator.h **** // Free Software Foundation; either version 3, or (at your option)
   9:/usr/include/c++/4.9/bits/allocator.h **** // any later version.
  10:/usr/include/c++/4.9/bits/allocator.h **** 
  11:/usr/include/c++/4.9/bits/allocator.h **** // This library is distributed in the hope that it will be useful,
  12:/usr/include/c++/4.9/bits/allocator.h **** // but WITHOUT ANY WARRANTY; without even the implied warranty of
  13:/usr/include/c++/4.9/bits/allocator.h **** // MERCHANTABILITY or FITNESS FOR A PARTICULAR PURPOSE.  See the
  14:/usr/include/c++/4.9/bits/allocator.h **** // GNU General Public License for more details.
  15:/usr/include/c++/4.9/bits/allocator.h **** 
  16:/usr/include/c++/4.9/bits/allocator.h **** // Under Section 7 of GPL version 3, you are granted additional
  17:/usr/include/c++/4.9/bits/allocator.h **** // permissions described in the GCC Runtime Library Exception, version
  18:/usr/include/c++/4.9/bits/allocator.h **** // 3.1, as published by the Free Software Foundation.
  19:/usr/include/c++/4.9/bits/allocator.h **** 
  20:/usr/include/c++/4.9/bits/allocator.h **** // You should have received a copy of the GNU General Public License and
  21:/usr/include/c++/4.9/bits/allocator.h **** // a copy of the GCC Runtime Library Exception along with this program;
  22:/usr/include/c++/4.9/bits/allocator.h **** // see the files COPYING3 and COPYING.RUNTIME respectively.  If not, see
  23:/usr/include/c++/4.9/bits/allocator.h **** // <http://www.gnu.org/licenses/>.
  24:/usr/include/c++/4.9/bits/allocator.h **** 
  25:/usr/include/c++/4.9/bits/allocator.h **** /*
  26:/usr/include/c++/4.9/bits/allocator.h ****  * Copyright (c) 1996-1997
  27:/usr/include/c++/4.9/bits/allocator.h ****  * Silicon Graphics Computer Systems, Inc.
  28:/usr/include/c++/4.9/bits/allocator.h ****  *
  29:/usr/include/c++/4.9/bits/allocator.h ****  * Permission to use, copy, modify, distribute and sell this software
  30:/usr/include/c++/4.9/bits/allocator.h ****  * and its documentation for any purpose is hereby granted without fee,
  31:/usr/include/c++/4.9/bits/allocator.h ****  * provided that the above copyright notice appear in all copies and
  32:/usr/include/c++/4.9/bits/allocator.h ****  * that both that copyright notice and this permission notice appear
  33:/usr/include/c++/4.9/bits/allocator.h ****  * in supporting documentation.  Silicon Graphics makes no
  34:/usr/include/c++/4.9/bits/allocator.h ****  * representations about the suitability of this software for any
  35:/usr/include/c++/4.9/bits/allocator.h ****  * purpose.  It is provided "as is" without express or implied warranty.
  36:/usr/include/c++/4.9/bits/allocator.h ****  */
  37:/usr/include/c++/4.9/bits/allocator.h **** 
  38:/usr/include/c++/4.9/bits/allocator.h **** /** @file bits/allocator.h
  39:/usr/include/c++/4.9/bits/allocator.h ****  *  This is an internal header file, included by other library headers.
  40:/usr/include/c++/4.9/bits/allocator.h ****  *  Do not attempt to use it directly. @headername{memory}
  41:/usr/include/c++/4.9/bits/allocator.h ****  */
  42:/usr/include/c++/4.9/bits/allocator.h **** 
  43:/usr/include/c++/4.9/bits/allocator.h **** #ifndef _ALLOCATOR_H
  44:/usr/include/c++/4.9/bits/allocator.h **** #define _ALLOCATOR_H 1
  45:/usr/include/c++/4.9/bits/allocator.h **** 
  46:/usr/include/c++/4.9/bits/allocator.h **** #include <bits/c++allocator.h> // Define the base class to std::allocator.
  47:/usr/include/c++/4.9/bits/allocator.h **** #include <bits/memoryfwd.h>
  48:/usr/include/c++/4.9/bits/allocator.h **** #if __cplusplus >= 201103L
  49:/usr/include/c++/4.9/bits/allocator.h **** #include <type_traits>
  50:/usr/include/c++/4.9/bits/allocator.h **** #endif
  51:/usr/include/c++/4.9/bits/allocator.h **** 
  52:/usr/include/c++/4.9/bits/allocator.h **** namespace std _GLIBCXX_VISIBILITY(default)
  53:/usr/include/c++/4.9/bits/allocator.h **** {
  54:/usr/include/c++/4.9/bits/allocator.h **** _GLIBCXX_BEGIN_NAMESPACE_VERSION
  55:/usr/include/c++/4.9/bits/allocator.h **** 
  56:/usr/include/c++/4.9/bits/allocator.h ****   /**
  57:/usr/include/c++/4.9/bits/allocator.h ****    *  @addtogroup allocators
  58:/usr/include/c++/4.9/bits/allocator.h ****    *  @{
  59:/usr/include/c++/4.9/bits/allocator.h ****    */
  60:/usr/include/c++/4.9/bits/allocator.h **** 
  61:/usr/include/c++/4.9/bits/allocator.h ****   /// allocator<void> specialization.
  62:/usr/include/c++/4.9/bits/allocator.h ****   template<>
  63:/usr/include/c++/4.9/bits/allocator.h ****     class allocator<void>
  64:/usr/include/c++/4.9/bits/allocator.h ****     {
  65:/usr/include/c++/4.9/bits/allocator.h ****     public:
  66:/usr/include/c++/4.9/bits/allocator.h ****       typedef size_t      size_type;
  67:/usr/include/c++/4.9/bits/allocator.h ****       typedef ptrdiff_t   difference_type;
  68:/usr/include/c++/4.9/bits/allocator.h ****       typedef void*       pointer;
  69:/usr/include/c++/4.9/bits/allocator.h ****       typedef const void* const_pointer;
  70:/usr/include/c++/4.9/bits/allocator.h ****       typedef void        value_type;
  71:/usr/include/c++/4.9/bits/allocator.h **** 
  72:/usr/include/c++/4.9/bits/allocator.h ****       template<typename _Tp1>
  73:/usr/include/c++/4.9/bits/allocator.h ****         struct rebind
  74:/usr/include/c++/4.9/bits/allocator.h ****         { typedef allocator<_Tp1> other; };
  75:/usr/include/c++/4.9/bits/allocator.h **** 
  76:/usr/include/c++/4.9/bits/allocator.h **** #if __cplusplus >= 201103L
  77:/usr/include/c++/4.9/bits/allocator.h ****       // _GLIBCXX_RESOLVE_LIB_DEFECTS
  78:/usr/include/c++/4.9/bits/allocator.h ****       // 2103. std::allocator propagate_on_container_move_assignment
  79:/usr/include/c++/4.9/bits/allocator.h ****       typedef true_type propagate_on_container_move_assignment;
  80:/usr/include/c++/4.9/bits/allocator.h **** #endif
  81:/usr/include/c++/4.9/bits/allocator.h ****     };
  82:/usr/include/c++/4.9/bits/allocator.h **** 
  83:/usr/include/c++/4.9/bits/allocator.h ****   /**
  84:/usr/include/c++/4.9/bits/allocator.h ****    * @brief  The @a standard allocator, as per [20.4].
  85:/usr/include/c++/4.9/bits/allocator.h ****    *
  86:/usr/include/c++/4.9/bits/allocator.h ****    *  See http://gcc.gnu.org/onlinedocs/libstdc++/manual/bk01pt04ch11.html
  87:/usr/include/c++/4.9/bits/allocator.h ****    *  for further details.
  88:/usr/include/c++/4.9/bits/allocator.h ****    *
  89:/usr/include/c++/4.9/bits/allocator.h ****    *  @tparam  _Tp  Type of allocated object.
  90:/usr/include/c++/4.9/bits/allocator.h ****    */
  91:/usr/include/c++/4.9/bits/allocator.h ****   template<typename _Tp>
  92:/usr/include/c++/4.9/bits/allocator.h ****     class allocator: public __allocator_base<_Tp>
  93:/usr/include/c++/4.9/bits/allocator.h ****     {
  94:/usr/include/c++/4.9/bits/allocator.h ****    public:
  95:/usr/include/c++/4.9/bits/allocator.h ****       typedef size_t     size_type;
  96:/usr/include/c++/4.9/bits/allocator.h ****       typedef ptrdiff_t  difference_type;
  97:/usr/include/c++/4.9/bits/allocator.h ****       typedef _Tp*       pointer;
  98:/usr/include/c++/4.9/bits/allocator.h ****       typedef const _Tp* const_pointer;
  99:/usr/include/c++/4.9/bits/allocator.h ****       typedef _Tp&       reference;
 100:/usr/include/c++/4.9/bits/allocator.h ****       typedef const _Tp& const_reference;
 101:/usr/include/c++/4.9/bits/allocator.h ****       typedef _Tp        value_type;
 102:/usr/include/c++/4.9/bits/allocator.h **** 
 103:/usr/include/c++/4.9/bits/allocator.h ****       template<typename _Tp1>
 104:/usr/include/c++/4.9/bits/allocator.h ****         struct rebind
 105:/usr/include/c++/4.9/bits/allocator.h ****         { typedef allocator<_Tp1> other; };
 106:/usr/include/c++/4.9/bits/allocator.h **** 
 107:/usr/include/c++/4.9/bits/allocator.h **** #if __cplusplus >= 201103L
 108:/usr/include/c++/4.9/bits/allocator.h ****       // _GLIBCXX_RESOLVE_LIB_DEFECTS
 109:/usr/include/c++/4.9/bits/allocator.h ****       // 2103. std::allocator propagate_on_container_move_assignment
 110:/usr/include/c++/4.9/bits/allocator.h ****       typedef true_type propagate_on_container_move_assignment;
 111:/usr/include/c++/4.9/bits/allocator.h **** #endif
 112:/usr/include/c++/4.9/bits/allocator.h **** 
 113:/usr/include/c++/4.9/bits/allocator.h ****       allocator() throw() { }
 5014              		.loc 6 113 0
 5015              		.cfi_startproc
 5016 0000 55       		pushq	%rbp
 5017              		.cfi_def_cfa_offset 16
 5018              		.cfi_offset 6, -16
 5019 0001 4889E5   		movq	%rsp, %rbp
 5020              		.cfi_def_cfa_register 6
 5021 0004 4883EC10 		subq	$16, %rsp
 5022 0008 48897DF8 		movq	%rdi, -8(%rbp)
 5023              	.LBB114:
 5024              		.loc 6 113 0
 5025 000c 488B45F8 		movq	-8(%rbp), %rax
 5026 0010 4889C7   		movq	%rax, %rdi
 5027 0013 E8000000 		call	_ZN9__gnu_cxx13new_allocatorIfEC2Ev
 5027      00
 5028              	.LBE114:
 5029 0018 C9       		leave
 5030              		.cfi_def_cfa 7, 8
 5031 0019 C3       		ret
 5032              		.cfi_endproc
 5033              	.LFE1463:
 5035              		.weak	_ZNSaIfEC1Ev
 5036              		.set	_ZNSaIfEC1Ev,_ZNSaIfEC2Ev
 5037              		.section	.text._ZNSaIfED2Ev,"axG",@progbits,_ZNSaIfED5Ev,comdat
 5038              		.align 2
 5039              		.weak	_ZNSaIfED2Ev
 5041              	_ZNSaIfED2Ev:
 5042              	.LFB1466:
 114:/usr/include/c++/4.9/bits/allocator.h **** 
 115:/usr/include/c++/4.9/bits/allocator.h ****       allocator(const allocator& __a) throw()
 116:/usr/include/c++/4.9/bits/allocator.h ****       : __allocator_base<_Tp>(__a) { }
 117:/usr/include/c++/4.9/bits/allocator.h **** 
 118:/usr/include/c++/4.9/bits/allocator.h ****       template<typename _Tp1>
 119:/usr/include/c++/4.9/bits/allocator.h ****         allocator(const allocator<_Tp1>&) throw() { }
 120:/usr/include/c++/4.9/bits/allocator.h **** 
 121:/usr/include/c++/4.9/bits/allocator.h ****       ~allocator() throw() { }
 5043              		.loc 6 121 0
 5044              		.cfi_startproc
 5045 0000 55       		pushq	%rbp
 5046              		.cfi_def_cfa_offset 16
 5047              		.cfi_offset 6, -16
 5048 0001 4889E5   		movq	%rsp, %rbp
