   1              		.file	"TestXmlTestReporter.cpp"
   2              		.text
   3              	.Ltext0:
   4              		.section	.rodata
   5              	.LC0:
   6 0000 44656661 		.string	"DefaultSuite"
   6      756C7453 
   6      75697465 
   6      00
   7              		.section	.text._ZN13UnitTestSuite12GetSuiteNameEv,"axG",@progbits,_ZN13UnitTestSuite12GetSuiteName
   8              		.weak	_ZN13UnitTestSuite12GetSuiteNameEv
  10              	_ZN13UnitTestSuite12GetSuiteNameEv:
  11              	.LFB0:
  12              		.file 1 "../TestSuite.h"
   1:../TestSuite.h **** #ifndef UNITTEST_TESTSUITE_H
   2:../TestSuite.h **** #define UNITTEST_TESTSUITE_H
   3:../TestSuite.h **** 
   4:../TestSuite.h **** namespace UnitTestSuite {
   5:../TestSuite.h **** 
   6:../TestSuite.h ****     inline char const* GetSuiteName ()
   7:../TestSuite.h ****     {
  13              		.loc 1 7 0
  14              		.cfi_startproc
  15 0000 55       		pushq	%rbp
  16              		.cfi_def_cfa_offset 16
  17              		.cfi_offset 6, -16
  18 0001 4889E5   		movq	%rsp, %rbp
  19              		.cfi_def_cfa_register 6
   8:../TestSuite.h ****         return "DefaultSuite";
  20              		.loc 1 8 0
  21 0004 B8000000 		movl	$.LC0, %eax
  21      00
   9:../TestSuite.h ****     }
  22              		.loc 1 9 0
  23 0009 5D       		popq	%rbp
  24              		.cfi_def_cfa 7, 8
  25 000a C3       		ret
  26              		.cfi_endproc
  27              	.LFE0:
  29              		.section	.text._ZN8UnitTest15MemoryOutStreamC1Ev,"axG",@progbits,_ZN8UnitTest15MemoryOutStreamC1Ev
  30              		.align 2
  31              		.weak	_ZN8UnitTest15MemoryOutStreamC1Ev
  33              	_ZN8UnitTest15MemoryOutStreamC1Ev:
  34              	.LFB1053:
  35              		.file 2 "../MemoryOutStream.h"
   1:../MemoryOutStream.h **** #ifndef UNITTEST_MEMORYOUTSTREAM_H
   2:../MemoryOutStream.h **** #define UNITTEST_MEMORYOUTSTREAM_H
   3:../MemoryOutStream.h **** 
   4:../MemoryOutStream.h **** #include "Config.h"
   5:../MemoryOutStream.h **** 
   6:../MemoryOutStream.h **** #ifndef UNITTEST_USE_CUSTOM_STREAMS
   7:../MemoryOutStream.h **** 
   8:../MemoryOutStream.h **** #include <sstream>
   9:../MemoryOutStream.h **** 
  10:../MemoryOutStream.h **** namespace UnitTest
  11:../MemoryOutStream.h **** {
  12:../MemoryOutStream.h **** 
  13:../MemoryOutStream.h **** class MemoryOutStream : public std::ostringstream
  14:../MemoryOutStream.h **** {
  15:../MemoryOutStream.h **** public:
  16:../MemoryOutStream.h ****     MemoryOutStream() {}
  36              		.loc 2 16 0
  37              		.cfi_startproc
  38              		.cfi_personality 0x3,__gxx_personality_v0
  39              		.cfi_lsda 0x3,.LLSDA1053
  40 0000 55       		pushq	%rbp
  41              		.cfi_def_cfa_offset 16
  42              		.cfi_offset 6, -16
  43 0001 4889E5   		movq	%rsp, %rbp
  44              		.cfi_def_cfa_register 6
  45 0004 53       		pushq	%rbx
  46 0005 4883EC18 		subq	$24, %rsp
  47              		.cfi_offset 3, -24
  48 0009 48897DE8 		movq	%rdi, -24(%rbp)
  49              	.LBB2:
  50              		.loc 2 16 0
  51 000d 488B45E8 		movq	-24(%rbp), %rax
  52 0011 4883C060 		addq	$96, %rax
  53 0015 4889C7   		movq	%rax, %rdi
  54              	.LEHB0:
  55 0018 E8000000 		call	_ZNSt9basic_iosIcSt11char_traitsIcEEC2Ev
  55      00
  56              	.LEHE0:
  57 001d B9000000 		movl	$_ZTTN8UnitTest15MemoryOutStreamE+8, %ecx
  57      00
  58 0022 488B45E8 		movq	-24(%rbp), %rax
  59 0026 BA100000 		movl	$16, %edx
  59      00
  60 002b 4889CE   		movq	%rcx, %rsi
  61 002e 4889C7   		movq	%rax, %rdi
  62              	.LEHB1:
  63 0031 E8000000 		call	_ZNSt19basic_ostringstreamIcSt11char_traitsIcESaIcEEC2ESt13_Ios_Openmode
  63      00
  64              	.LEHE1:
  65              		.loc 2 16 0 is_stmt 0 discriminator 9
  66 0036 BA000000 		movl	$_ZTVN8UnitTest15MemoryOutStreamE+24, %edx
  66      00
  67 003b 488B45E8 		movq	-24(%rbp), %rax
  68 003f 488910   		movq	%rdx, (%rax)
  69 0042 BA600000 		movl	$96, %edx
  69      00
  70 0047 488B45E8 		movq	-24(%rbp), %rax
  71 004b 4801D0   		addq	%rdx, %rax
  72 004e BA000000 		movl	$_ZTVN8UnitTest15MemoryOutStreamE+64, %edx
  72      00
  73 0053 488910   		movq	%rdx, (%rax)
  74 0056 488B45E8 		movq	-24(%rbp), %rax
  75 005a 4883C058 		addq	$88, %rax
  76 005e 4889C7   		movq	%rax, %rdi
  77              	.LEHB2:
  78 0061 E8000000 		call	_ZNSsC1Ev
  78      00
  79              	.LEHE2:
  80              	.LBE2:
  81              		.loc 2 16 0
  82 0066 EB37     		jmp	.L8
  83              	.L6:
  84 0068 4889C3   		movq	%rax, %rbx
  85              	.LBB3:
  86 006b BA000000 		movl	$_ZTTN8UnitTest15MemoryOutStreamE+8, %edx
  86      00
  87 0070 488B45E8 		movq	-24(%rbp), %rax
  88 0074 4889D6   		movq	%rdx, %rsi
  89 0077 4889C7   		movq	%rax, %rdi
  90 007a E8000000 		call	_ZNSt19basic_ostringstreamIcSt11char_traitsIcESaIcEED2Ev
  90      00
  91 007f EB03     		jmp	.L5
  92              	.L7:
  93 0081 4889C3   		movq	%rax, %rbx
  94              	.L5:
  95              		.loc 2 16 0 discriminator 28
  96 0084 488B45E8 		movq	-24(%rbp), %rax
  97 0088 4883C060 		addq	$96, %rax
  98 008c 4889C7   		movq	%rax, %rdi
  99 008f E8000000 		call	_ZNSt9basic_iosIcSt11char_traitsIcEED2Ev
  99      00
 100 0094 4889D8   		movq	%rbx, %rax
 101 0097 4889C7   		movq	%rax, %rdi
 102              	.LEHB3:
 103 009a E8000000 		call	_Unwind_Resume
 103      00
 104              	.LEHE3:
 105              	.L8:
 106              	.LBE3:
 107              		.loc 2 16 0
 108 009f 4883C418 		addq	$24, %rsp
 109 00a3 5B       		popq	%rbx
 110 00a4 5D       		popq	%rbp
 111              		.cfi_def_cfa 7, 8
 112 00a5 C3       		ret
 113              		.cfi_endproc
 114              	.LFE1053:
 115              		.globl	__gxx_personality_v0
 116              		.section	.gcc_except_table._ZN8UnitTest15MemoryOutStreamC1Ev,"aG",@progbits,_ZN8UnitTest15MemoryOu
 117              	.LLSDA1053:
 118 0000 FF       		.byte	0xff
 119 0001 FF       		.byte	0xff
 120 0002 01       		.byte	0x1
 121 0003 12       		.uleb128 .LLSDACSE1053-.LLSDACSB1053
 122              	.LLSDACSB1053:
 123 0004 18       		.uleb128 .LEHB0-.LFB1053
 124 0005 05       		.uleb128 .LEHE0-.LEHB0
 125 0006 00       		.uleb128 0
 126 0007 00       		.uleb128 0
 127 0008 31       		.uleb128 .LEHB1-.LFB1053
 128 0009 05       		.uleb128 .LEHE1-.LEHB1
 129 000a 8101     		.uleb128 .L7-.LFB1053
 130 000c 00       		.uleb128 0
 131 000d 61       		.uleb128 .LEHB2-.LFB1053
 132 000e 05       		.uleb128 .LEHE2-.LEHB2
 133 000f 68       		.uleb128 .L6-.LFB1053
 134 0010 00       		.uleb128 0
 135 0011 9A01     		.uleb128 .LEHB3-.LFB1053
 136 0013 05       		.uleb128 .LEHE3-.LEHB3
 137 0014 00       		.uleb128 0
 138 0015 00       		.uleb128 0
 139              	.LLSDACSE1053:
 140              		.section	.text._ZN8UnitTest15MemoryOutStreamC1Ev,"axG",@progbits,_ZN8UnitTest15MemoryOutStreamC1Ev
 142              		.text
 143              		.align 2
 145              	_ZN12_GLOBAL__N_122XmlTestReporterFixtureC2Ev:
 146              	.LFB1334:
 147              		.file 3 "TestXmlTestReporter.cpp"
   1:TestXmlTestReporter.cpp **** #include "../UnitTest++.h"
   2:TestXmlTestReporter.cpp **** #include "../XmlTestReporter.h"
   3:TestXmlTestReporter.cpp **** 
   4:TestXmlTestReporter.cpp **** #include <sstream>
   5:TestXmlTestReporter.cpp **** 
   6:TestXmlTestReporter.cpp **** using namespace UnitTest;
   7:TestXmlTestReporter.cpp **** using std::ostringstream;
   8:TestXmlTestReporter.cpp **** 
   9:TestXmlTestReporter.cpp **** namespace
  10:TestXmlTestReporter.cpp **** {
  11:TestXmlTestReporter.cpp **** 
  12:TestXmlTestReporter.cpp **** #ifdef UNITTEST_USE_CUSTOM_STREAMS
  13:TestXmlTestReporter.cpp **** 
  14:TestXmlTestReporter.cpp **** // Overload to let MemoryOutStream accept std::string
  15:TestXmlTestReporter.cpp **** MemoryOutStream& operator<<(MemoryOutStream& s, const std::string& value)
  16:TestXmlTestReporter.cpp **** {
  17:TestXmlTestReporter.cpp ****     s << value.c_str();
  18:TestXmlTestReporter.cpp ****     return s;
  19:TestXmlTestReporter.cpp **** }
  20:TestXmlTestReporter.cpp **** 
  21:TestXmlTestReporter.cpp **** #endif
  22:TestXmlTestReporter.cpp **** 
  23:TestXmlTestReporter.cpp **** struct XmlTestReporterFixture
  24:TestXmlTestReporter.cpp **** {
  25:TestXmlTestReporter.cpp ****     XmlTestReporterFixture()
 148              		.loc 3 25 0 is_stmt 1
 149              		.cfi_startproc
 150              		.cfi_personality 0x3,__gxx_personality_v0
 151              		.cfi_lsda 0x3,.LLSDA1334
 152 0000 55       		pushq	%rbp
 153              		.cfi_def_cfa_offset 16
 154              		.cfi_offset 6, -16
 155 0001 4889E5   		movq	%rsp, %rbp
 156              		.cfi_def_cfa_register 6
 157 0004 53       		pushq	%rbx
 158 0005 4883EC18 		subq	$24, %rsp
 159              		.cfi_offset 3, -24
 160 0009 48897DE8 		movq	%rdi, -24(%rbp)
 161              	.LBB4:
  26:TestXmlTestReporter.cpp ****         : reporter(output)
 162              		.loc 3 26 0
 163 000d 488B45E8 		movq	-24(%rbp), %rax
 164 0011 BE100000 		movl	$16, %esi
 164      00
 165 0016 4889C7   		movq	%rax, %rdi
 166              	.LEHB4:
 167 0019 E8000000 		call	_ZNSt19basic_ostringstreamIcSt11char_traitsIcESaIcEEC1ESt13_Ios_Openmode
 167      00
 168              	.LEHE4:
 169 001e 488B45E8 		movq	-24(%rbp), %rax
 170 0022 488B55E8 		movq	-24(%rbp), %rdx
 171 0026 4881C260 		addq	$352, %rdx
 171      010000
 172 002d 4889C6   		movq	%rax, %rsi
 173 0030 4889D7   		movq	%rdx, %rdi
 174              	.LEHB5:
 175 0033 E8000000 		call	_ZN8UnitTest15XmlTestReporterC1ERSo
 175      00
 176              	.LEHE5:
 177              	.LBE4:
  27:TestXmlTestReporter.cpp ****     {
  28:TestXmlTestReporter.cpp ****     }
 178              		.loc 3 28 0
 179 0038 EB1A     		jmp	.L12
 180              	.L11:
 181 003a 4889C3   		movq	%rax, %rbx
 182              	.LBB5:
  26:TestXmlTestReporter.cpp ****         : reporter(output)
 183              		.loc 3 26 0
 184 003d 488B45E8 		movq	-24(%rbp), %rax
 185 0041 4889C7   		movq	%rax, %rdi
 186 0044 E8000000 		call	_ZNSt19basic_ostringstreamIcSt11char_traitsIcESaIcEED1Ev
 186      00
 187 0049 4889D8   		movq	%rbx, %rax
 188 004c 4889C7   		movq	%rax, %rdi
 189              	.LEHB6:
 190 004f E8000000 		call	_Unwind_Resume
 190      00
 191              	.LEHE6:
 192              	.L12:
 193              	.LBE5:
 194              		.loc 3 28 0
 195 0054 4883C418 		addq	$24, %rsp
 196 0058 5B       		popq	%rbx
 197 0059 5D       		popq	%rbp
 198              		.cfi_def_cfa 7, 8
 199 005a C3       		ret
 200              		.cfi_endproc
 201              	.LFE1334:
 202              		.section	.gcc_except_table,"a",@progbits
 203              	.LLSDA1334:
 204 0000 FF       		.byte	0xff
 205 0001 FF       		.byte	0xff
 206 0002 01       		.byte	0x1
 207 0003 0C       		.uleb128 .LLSDACSE1334-.LLSDACSB1334
 208              	.LLSDACSB1334:
 209 0004 19       		.uleb128 .LEHB4-.LFB1334
 210 0005 05       		.uleb128 .LEHE4-.LEHB4
 211 0006 00       		.uleb128 0
 212 0007 00       		.uleb128 0
 213 0008 33       		.uleb128 .LEHB5-.LFB1334
 214 0009 05       		.uleb128 .LEHE5-.LEHB5
 215 000a 3A       		.uleb128 .L11-.LFB1334
 216 000b 00       		.uleb128 0
 217 000c 4F       		.uleb128 .LEHB6-.LFB1334
 218 000d 05       		.uleb128 .LEHE6-.LEHB6
 219 000e 00       		.uleb128 0
 220 000f 00       		.uleb128 0
 221              	.LLSDACSE1334:
 222              		.text
 224 005b 90       		.align 2
 226              	_ZN12_GLOBAL__N_122XmlTestReporterFixtureD2Ev:
 227              	.LFB1338:
  23:TestXmlTestReporter.cpp **** {
 228              		.loc 3 23 0
 229              		.cfi_startproc
 230              		.cfi_personality 0x3,__gxx_personality_v0
 231              		.cfi_lsda 0x3,.LLSDA1338
 232 005c 55       		pushq	%rbp
 233              		.cfi_def_cfa_offset 16
 234              		.cfi_offset 6, -16
 235 005d 4889E5   		movq	%rsp, %rbp
 236              		.cfi_def_cfa_register 6
 237 0060 53       		pushq	%rbx
 238 0061 4883EC18 		subq	$24, %rsp
 239              		.cfi_offset 3, -24
 240 0065 48897DE8 		movq	%rdi, -24(%rbp)
 241              	.LBB6:
  23:TestXmlTestReporter.cpp **** {
 242              		.loc 3 23 0
 243 0069 488B45E8 		movq	-24(%rbp), %rax
 244 006d 48056001 		addq	$352, %rax
 244      0000
 245 0073 4889C7   		movq	%rax, %rdi
 246              	.LEHB7:
 247 0076 E8000000 		call	_ZN8UnitTest15XmlTestReporterD1Ev
 247      00
 248              	.LEHE7:
  23:TestXmlTestReporter.cpp **** {
 249              		.loc 3 23 0 is_stmt 0 discriminator 2
 250 007b 488B45E8 		movq	-24(%rbp), %rax
 251 007f 4889C7   		movq	%rax, %rdi
 252              	.LEHB8:
 253 0082 E8000000 		call	_ZNSt19basic_ostringstreamIcSt11char_traitsIcESaIcEED1Ev
 253      00
 254              	.LEHE8:
 255 0087 EB1A     		jmp	.L17
 256              	.L16:
 257 0089 4889C3   		movq	%rax, %rbx
  23:TestXmlTestReporter.cpp **** {
 258              		.loc 3 23 0
 259 008c 488B45E8 		movq	-24(%rbp), %rax
 260 0090 4889C7   		movq	%rax, %rdi
 261 0093 E8000000 		call	_ZNSt19basic_ostringstreamIcSt11char_traitsIcESaIcEED1Ev
 261      00
 262 0098 4889D8   		movq	%rbx, %rax
 263 009b 4889C7   		movq	%rax, %rdi
 264              	.LEHB9:
 265 009e E8000000 		call	_Unwind_Resume
 265      00
 266              	.LEHE9:
 267              	.L17:
 268              	.LBE6:
 269 00a3 4883C418 		addq	$24, %rsp
 270 00a7 5B       		popq	%rbx
 271 00a8 5D       		popq	%rbp
 272              		.cfi_def_cfa 7, 8
 273 00a9 C3       		ret
 274              		.cfi_endproc
 275              	.LFE1338:
 276              		.section	.gcc_except_table
 277              	.LLSDA1338:
 278 0010 FF       		.byte	0xff
 279 0011 FF       		.byte	0xff
 280 0012 01       		.byte	0x1
 281 0013 0C       		.uleb128 .LLSDACSE1338-.LLSDACSB1338
 282              	.LLSDACSB1338:
 283 0014 1A       		.uleb128 .LEHB7-.LFB1338
 284 0015 05       		.uleb128 .LEHE7-.LEHB7
 285 0016 2D       		.uleb128 .L16-.LFB1338
 286 0017 00       		.uleb128 0
 287 0018 26       		.uleb128 .LEHB8-.LFB1338
 288 0019 05       		.uleb128 .LEHE8-.LEHB8
 289 001a 00       		.uleb128 0
 290 001b 00       		.uleb128 0
 291 001c 42       		.uleb128 .LEHB9-.LFB1338
 292 001d 05       		.uleb128 .LEHE9-.LEHB9
 293 001e 00       		.uleb128 0
 294 001f 00       		.uleb128 0
 295              	.LLSDACSE1338:
 296              		.text
 298              		.align 2
 300              	_ZN12_GLOBAL__N_156XmlTestReporterFixtureMultipleCharactersAreEscapedHelperC2ERKN8UnitTest11TestDet
 301              	.LFB1340:
  29:TestXmlTestReporter.cpp **** 
  30:TestXmlTestReporter.cpp ****     ostringstream output;
  31:TestXmlTestReporter.cpp ****     XmlTestReporter reporter;
  32:TestXmlTestReporter.cpp **** };
  33:TestXmlTestReporter.cpp **** 
  34:TestXmlTestReporter.cpp **** TEST_FIXTURE(XmlTestReporterFixture, MultipleCharactersAreEscaped)
 302              		.loc 3 34 0 is_stmt 1
 303              		.cfi_startproc
 304 00aa 55       		pushq	%rbp
 305              		.cfi_def_cfa_offset 16
 306              		.cfi_offset 6, -16
 307 00ab 4889E5   		movq	%rsp, %rbp
 308              		.cfi_def_cfa_register 6
 309 00ae 4883EC10 		subq	$16, %rsp
 310 00b2 48897DF8 		movq	%rdi, -8(%rbp)
 311 00b6 488975F0 		movq	%rsi, -16(%rbp)
 312              	.LBB7:
 313              		.loc 3 34 0
 314 00ba 488B45F8 		movq	-8(%rbp), %rax
 315 00be 4889C7   		movq	%rax, %rdi
 316 00c1 E83AFFFF 		call	_ZN12_GLOBAL__N_122XmlTestReporterFixtureC2Ev
 316      FF
 317 00c6 488B45F8 		movq	-8(%rbp), %rax
 318 00ca 488B55F0 		movq	-16(%rbp), %rdx
 319 00ce 48899088 		movq	%rdx, 392(%rax)
 319      010000
 320              	.LBE7:
 321 00d5 C9       		leave
 322              		.cfi_def_cfa 7, 8
 323 00d6 C3       		ret
 324              		.cfi_endproc
 325              	.LFE1340:
 327              		.section	.rodata
 328              	.LC1:
 329 000d 54657374 		.string	"TestXmlTestReporter.cpp"
 329      586D6C54 
 329      65737452 
 329      65706F72 
 329      7465722E 
 330              	.LC2:
 331 0025 4D756C74 		.string	"MultipleCharactersAreEscaped"
 331      69706C65 
 331      43686172 
 331      61637465 
 331      72734172 
 332              		.text
 333 00d7 90       		.align 2
 335              	_ZN12_GLOBAL__N_154TestXmlTestReporterFixtureMultipleCharactersAreEscapedC2Ev:
 336              	.LFB1343:
 337              		.loc 3 34 0
 338              		.cfi_startproc
 339 00d8 55       		pushq	%rbp
 340              		.cfi_def_cfa_offset 16
 341              		.cfi_offset 6, -16
 342 00d9 4889E5   		movq	%rsp, %rbp
 343              		.cfi_def_cfa_register 6
 344 00dc 4883EC10 		subq	$16, %rsp
 345 00e0 48897DF8 		movq	%rdi, -8(%rbp)
 346              	.LBB8:
 347              		.loc 3 34 0
 348 00e4 E8000000 		call	_ZN13UnitTestSuite12GetSuiteNameEv
 348      00
 349 00e9 4889C2   		movq	%rax, %rdx
 350 00ec 488B45F8 		movq	-8(%rbp), %rax
 351 00f0 41B82200 		movl	$34, %r8d
 351      0000
 352 00f6 B9000000 		movl	$.LC1, %ecx
 352      00
 353 00fb BE000000 		movl	$.LC2, %esi
 353      00
 354 0100 4889C7   		movq	%rax, %rdi
 355 0103 E8000000 		call	_ZN8UnitTest4TestC2EPKcS2_S2_i
 355      00
 356 0108 488B45F8 		movq	-8(%rbp), %rax
 357 010c 48C70000 		movq	$_ZTVN12_GLOBAL__N_154TestXmlTestReporterFixtureMultipleCharactersAreEscapedE+16, (%rax)
 357      000000
 358              	.LBE8:
 359 0113 C9       		leave
 360              		.cfi_def_cfa 7, 8
 361 0114 C3       		ret
 362              		.cfi_endproc
 363              	.LFE1343:
 365              		.local	_ZN12_GLOBAL__N_162testXmlTestReporterFixtureMultipleCharactersAreEscapedInstanceE
 366              		.comm	_ZN12_GLOBAL__N_162testXmlTestReporterFixtureMultipleCharactersAreEscapedInstanceE,56,32
 367              		.local	_ZN12_GLOBAL__N_155adderXmlTestReporterFixtureMultipleCharactersAreEscapedE
 368              		.comm	_ZN12_GLOBAL__N_155adderXmlTestReporterFixtureMultipleCharactersAreEscapedE,1,1
 369 0115 90       		.align 2
 371              	_ZN12_GLOBAL__N_156XmlTestReporterFixtureMultipleCharactersAreEscapedHelperD2Ev:
 372              	.LFB1347:
 373              		.loc 3 34 0
 374              		.cfi_startproc
 375 0116 55       		pushq	%rbp
 376              		.cfi_def_cfa_offset 16
 377              		.cfi_offset 6, -16
 378 0117 4889E5   		movq	%rsp, %rbp
 379              		.cfi_def_cfa_register 6
 380 011a 4883EC10 		subq	$16, %rsp
 381 011e 48897DF8 		movq	%rdi, -8(%rbp)
 382              	.LBB9:
 383              		.loc 3 34 0
 384 0122 488B45F8 		movq	-8(%rbp), %rax
 385 0126 4889C7   		movq	%rax, %rdi
 386 0129 E82EFFFF 		call	_ZN12_GLOBAL__N_122XmlTestReporterFixtureD2Ev
 386      FF
 387              	.LBE9:
 388 012e C9       		leave
 389              		.cfi_def_cfa 7, 8
 390 012f C3       		ret
 391              		.cfi_endproc
 392              	.LFE1347:
 394              		.section	.rodata
 395              	.LC3:
 396 0042 556E6861 		.string	"Unhandled exception: "
 396      6E646C65 
 396      64206578 
 396      63657074 
 396      696F6E3A 
 397              		.align 8
 398              	.LC4:
 399 0058 556E6861 		.string	"Unhandled exception while destroying fixture XmlTestReporterFixture"
 399      6E646C65 
 399      64206578 
 399      63657074 
 399      696F6E20 
 400 009c 00000000 		.align 8
 401              	.LC5:
 402 00a0 556E6861 		.string	"Unhandled exception while constructing fixture XmlTestReporterFixture"
 402      6E646C65 
 402      64206578 
 402      63657074 
 402      696F6E20 
 403              		.text
 404              		.align 2
 406              	_ZNK12_GLOBAL__N_154TestXmlTestReporterFixtureMultipleCharactersAreEscaped7RunImplEv:
 407              	.LFB1345:
 408              		.loc 3 34 0
 409              		.cfi_startproc
 410              		.cfi_personality 0x3,__gxx_personality_v0
 411              		.cfi_lsda 0x3,.LLSDA1345
 412 0130 55       		pushq	%rbp
 413              		.cfi_def_cfa_offset 16
 414              		.cfi_offset 6, -16
 415 0131 4889E5   		movq	%rsp, %rbp
 416              		.cfi_def_cfa_register 6
 417 0134 4154     		pushq	%r12
 418 0136 53       		pushq	%rbx
 419 0137 4881ECF0 		subq	$496, %rsp
 419      010000
 420              		.cfi_offset 12, -24
 421              		.cfi_offset 3, -32
 422 013e 4889BD08 		movq	%rdi, -504(%rbp)
 422      FEFFFF
 423              		.loc 3 34 0
 424 0145 64488B04 		movq	%fs:40, %rax
 424      25280000 
 424      00
 425 014e 488945E8 		movq	%rax, -24(%rbp)
 426 0152 31C0     		xorl	%eax, %eax
 427              	.LBB10:
 428 0154 C6851FFE 		movb	$0, -481(%rbp)
 428      FFFF00
 429              	.LBB11:
 430 015b 488B8508 		movq	-504(%rbp), %rax
 430      FEFFFF
 431 0162 488D5008 		leaq	8(%rax), %rdx
 432 0166 488D8550 		leaq	-432(%rbp), %rax
 432      FEFFFF
 433 016d 4889D6   		movq	%rdx, %rsi
 434 0170 4889C7   		movq	%rax, %rdi
 435              	.LEHB10:
 436 0173 E832FFFF 		call	_ZN12_GLOBAL__N_156XmlTestReporterFixtureMultipleCharactersAreEscapedHelperC2ERKN8UnitTest11T
 436      FF
 437              	.LEHE10:
 438              		.loc 3 34 0 is_stmt 0 discriminator 1
 439 0178 C6851FFE 		movb	$1, -481(%rbp)
 439      FFFF01
 440 017f 488B8508 		movq	-504(%rbp), %rax
 440      FEFFFF
 441 0186 488D5008 		leaq	8(%rax), %rdx
 442 018a 488D8550 		leaq	-432(%rbp), %rax
 442      FEFFFF
 443 0191 4889D6   		movq	%rdx, %rsi
 444 0194 4889C7   		movq	%rax, %rdi
 445              	.LEHB11:
 446 0197 E8FF2900 		call	_ZN8UnitTest11ExecuteTestIN12_GLOBAL__N_156XmlTestReporterFixtureMultipleCharactersAreEscaped
 446      00
 447              	.LEHE11:
 448              		.loc 3 34 0 discriminator 3
 449 019c 488D8550 		leaq	-432(%rbp), %rax
 449      FEFFFF
 450 01a3 4889C7   		movq	%rax, %rdi
 451              	.LEHB12:
 452 01a6 E86BFFFF 		call	_ZN12_GLOBAL__N_156XmlTestReporterFixtureMultipleCharactersAreEscapedHelperD2Ev
 452      FF
 453              	.LEHE12:
 454              	.LBE11:
 455              	.LBE10:
 456              		.loc 3 34 0
 457 01ab E9640200 		jmp	.L43
 457      00
 458              	.L37:
 459 01b0 4989C4   		movq	%rax, %r12
 460 01b3 4889D3   		movq	%rdx, %rbx
 461              	.LBB19:
 462              	.LBB12:
 463 01b6 488D8550 		leaq	-432(%rbp), %rax
 463      FEFFFF
 464 01bd 4889C7   		movq	%rax, %rdi
 465 01c0 E851FFFF 		call	_ZN12_GLOBAL__N_156XmlTestReporterFixtureMultipleCharactersAreEscapedHelperD2Ev
 465      FF
 466 01c5 4C89E0   		movq	%r12, %rax
 467 01c8 4889DA   		movq	%rbx, %rdx
 468 01cb EB00     		jmp	.L24
 469              	.L36:
 470              	.L24:
 471 01cd 4883FA01 		cmpq	$1, %rdx
 472 01d1 745C     		je	.L26
 473 01d3 4883FA02 		cmpq	$2, %rdx
 474 01d7 0F84F400 		je	.L27
 474      0000
 475 01dd E9980100 		jmp	.L42
 475      00
 476              	.L38:
 477 01e2 4889C3   		movq	%rax, %rbx
 478              	.LBE12:
 479              	.LBB13:
 480 01e5 E8000000 		call	__cxa_end_catch
 480      00
 481 01ea 4889D8   		movq	%rbx, %rax
 482 01ed 4889C7   		movq	%rax, %rdi
 483              	.LEHB13:
 484 01f0 E8000000 		call	_Unwind_Resume
 484      00
 485              	.LEHE13:
 486              	.L39:
 487 01f5 4889C3   		movq	%rax, %rbx
 488              	.LBE13:
 489              	.LBB14:
 490              	.LBB15:
 491 01f8 488D8550 		leaq	-432(%rbp), %rax
 491      FEFFFF
 492 01ff 4889C7   		movq	%rax, %rdi
 493 0202 E8000000 		call	_ZN8UnitTest15MemoryOutStreamD1Ev
 493      00
 494 0207 EB03     		jmp	.L30
 495              	.L40:
 496 0209 4889C3   		movq	%rax, %rbx
 497              	.L30:
 498              	.LBE15:
 499 020c E8000000 		call	__cxa_end_catch
 499      00
 500 0211 4889D8   		movq	%rbx, %rax
 501 0214 4889C7   		movq	%rax, %rdi
 502              	.LEHB14:
 503 0217 E8000000 		call	_Unwind_Resume
 503      00
 504              	.LEHE14:
 505              	.L41:
 506 021c 4889C3   		movq	%rax, %rbx
 507              	.LBE14:
 508 021f E8000000 		call	__cxa_end_catch
 508      00
 509 0224 4889D8   		movq	%rbx, %rax
 510 0227 4889C7   		movq	%rax, %rdi
 511              	.LEHB15:
 512 022a E8000000 		call	_Unwind_Resume
 512      00
 513              	.LEHE15:
 514              	.L26:
 515              	.LBB17:
 516 022f 4889C7   		movq	%rax, %rdi
 517 0232 E8000000 		call	__cxa_begin_catch
 517      00
 518 0237 48898520 		movq	%rax, -480(%rbp)
 518      FEFFFF
 519 023e 488B8520 		movq	-480(%rbp), %rax
 519      FEFFFF
 520 0245 488B00   		movq	(%rax), %rax
 521 0248 4883C010 		addq	$16, %rax
 522 024c 488B00   		movq	(%rax), %rax
 523 024f 488B9520 		movq	-480(%rbp), %rdx
 523      FEFFFF
 524 0256 4889D7   		movq	%rdx, %rdi
 525 0259 FFD0     		call	*%rax
 526 025b 4889C3   		movq	%rax, %rbx
 527 025e 488B8520 		movq	-480(%rbp), %rax
 527      FEFFFF
 528 0265 4889C7   		movq	%rax, %rdi
 529              	.LEHB16:
 530 0268 E8000000 		call	_ZNK8UnitTest15AssertException10LineNumberEv
 530      00
 531 026d 4189C4   		movl	%eax, %r12d
 532 0270 488B8520 		movq	-480(%rbp), %rax
 532      FEFFFF
 533 0277 4889C7   		movq	%rax, %rdi
 534 027a E8000000 		call	_ZNK8UnitTest15AssertException8FilenameEv
 534      00
 535              		.loc 3 34 0 discriminator 5
 536 027f 4889C1   		movq	%rax, %rcx
 537 0282 488B8508 		movq	-504(%rbp), %rax
 537      FEFFFF
 538 0289 488B5008 		movq	8(%rax), %rdx
 539 028d 488B8508 		movq	-504(%rbp), %rax
 539      FEFFFF
 540 0294 488B7010 		movq	16(%rax), %rsi
 541 0298 488D8530 		leaq	-464(%rbp), %rax
 541      FEFFFF
 542 029f 4589E0   		movl	%r12d, %r8d
 543 02a2 4889C7   		movq	%rax, %rdi
 544 02a5 E8000000 		call	_ZN8UnitTest11TestDetailsC1EPKcS2_S2_i
 544      00
 545              		.loc 3 34 0 discriminator 9
 546 02aa E8000000 		call	_ZN8UnitTest11CurrentTest7ResultsEv
 546      00
 547 02af 488B00   		movq	(%rax), %rax
 548 02b2 488D8D30 		leaq	-464(%rbp), %rcx
 548      FEFFFF
 549 02b9 4889DA   		movq	%rbx, %rdx
 550 02bc 4889CE   		movq	%rcx, %rsi
 551 02bf 4889C7   		movq	%rax, %rdi
 552 02c2 E8000000 		call	_ZN8UnitTest11TestResults13OnTestFailureERKNS_11TestDetailsEPKc
 552      00
 553              	.LEHE16:
 554              		.loc 3 34 0 discriminator 13
 555 02c7 E8000000 		call	__cxa_end_catch
 555      00
 556              	.LBE17:
 557              	.LBE19:
 558 02cc E9430100 		jmp	.L43
 558      00
 559              	.L27:
 560              	.LBB20:
 561              	.LBB18:
 562              		.loc 3 34 0
 563 02d1 4889C7   		movq	%rax, %rdi
 564 02d4 E8000000 		call	__cxa_begin_catch
 564      00
 565 02d9 48898528 		movq	%rax, -472(%rbp)
 565      FEFFFF
 566              	.LBB16:
 567 02e0 488D8550 		leaq	-432(%rbp), %rax
 567      FEFFFF
 568 02e7 4889C7   		movq	%rax, %rdi
 569              	.LEHB17:
 570 02ea E8000000 		call	_ZN8UnitTest15MemoryOutStreamC1Ev
 570      00
 571              	.LEHE17:
 572              		.loc 3 34 0 discriminator 15
 573 02ef 488B8528 		movq	-472(%rbp), %rax
 573      FEFFFF
 574 02f6 488B00   		movq	(%rax), %rax
 575 02f9 4883C010 		addq	$16, %rax
 576 02fd 488B00   		movq	(%rax), %rax
 577 0300 488B9528 		movq	-472(%rbp), %rdx
 577      FEFFFF
 578 0307 4889D7   		movq	%rdx, %rdi
 579 030a FFD0     		call	*%rax
 580 030c 4889C3   		movq	%rax, %rbx
 581 030f 488D8550 		leaq	-432(%rbp), %rax
 581      FEFFFF
 582 0316 BE000000 		movl	$.LC3, %esi
 582      00
 583 031b 4889C7   		movq	%rax, %rdi
 584              	.LEHB18:
 585 031e E8000000 		call	_ZStlsISt11char_traitsIcEERSt13basic_ostreamIcT_ES5_PKc
 585      00
 586 0323 4889DE   		movq	%rbx, %rsi
 587 0326 4889C7   		movq	%rax, %rdi
 588 0329 E8000000 		call	_ZStlsISt11char_traitsIcEERSt13basic_ostreamIcT_ES5_PKc
 588      00
 589              		.loc 3 34 0 discriminator 19
 590 032e 488D8550 		leaq	-432(%rbp), %rax
 590      FEFFFF
 591 0335 4889C7   		movq	%rax, %rdi
 592 0338 E8000000 		call	_ZNK8UnitTest15MemoryOutStream7GetTextEv
 592      00
 593 033d 4989C4   		movq	%rax, %r12
 594 0340 488B8508 		movq	-504(%rbp), %rax
 594      FEFFFF
 595 0347 488D5808 		leaq	8(%rax), %rbx
 596 034b E8000000 		call	_ZN8UnitTest11CurrentTest7ResultsEv
 596      00
 597              		.loc 3 34 0 discriminator 21
 598 0350 488B00   		movq	(%rax), %rax
 599 0353 4C89E2   		movq	%r12, %rdx
 600 0356 4889DE   		movq	%rbx, %rsi
 601 0359 4889C7   		movq	%rax, %rdi
 602 035c E8000000 		call	_ZN8UnitTest11TestResults13OnTestFailureERKNS_11TestDetailsEPKc
 602      00
 603              	.LEHE18:
 604              		.loc 3 34 0 discriminator 25
 605 0361 488D8550 		leaq	-432(%rbp), %rax
 605      FEFFFF
 606 0368 4889C7   		movq	%rax, %rdi
 607              	.LEHB19:
 608 036b E8000000 		call	_ZN8UnitTest15MemoryOutStreamD1Ev
 608      00
 609              	.LEHE19:
 610              	.LBE16:
 611              		.loc 3 34 0 discriminator 26
 612 0370 E8000000 		call	__cxa_end_catch
 612      00
 613              	.LBE18:
 614              	.LBE20:
 615 0375 E99A0000 		jmp	.L43
 615      00
 616              	.L42:
 617              	.LBB21:
 618              		.loc 3 34 0
 619 037a 4889C7   		movq	%rax, %rdi
 620 037d E8000000 		call	__cxa_begin_catch
 620      00
 621 0382 80BD1FFE 		cmpb	$0, -481(%rbp)
 621      FFFF00
 622 0389 7443     		je	.L33
 623              		.loc 3 34 0 discriminator 28
 624 038b 488B8508 		movq	-504(%rbp), %rax
 624      FEFFFF
 625 0392 488D4808 		leaq	8(%rax), %rcx
 626 0396 488D8530 		leaq	-464(%rbp), %rax
 626      FEFFFF
 627 039d BA220000 		movl	$34, %edx
 627      00
 628 03a2 4889CE   		movq	%rcx, %rsi
 629 03a5 4889C7   		movq	%rax, %rdi
 630              	.LEHB20:
 631 03a8 E8000000 		call	_ZN8UnitTest11TestDetailsC1ERKS0_i
 631      00
 632              		.loc 3 34 0 discriminator 31
 633 03ad E8000000 		call	_ZN8UnitTest11CurrentTest7ResultsEv
 633      00
 634 03b2 488B00   		movq	(%rax), %rax
 635 03b5 488D8D30 		leaq	-464(%rbp), %rcx
 635      FEFFFF
 636 03bc BA000000 		movl	$.LC4, %edx
 636      00
 637 03c1 4889CE   		movq	%rcx, %rsi
 638 03c4 4889C7   		movq	%rax, %rdi
 639 03c7 E8000000 		call	_ZN8UnitTest11TestResults13OnTestFailureERKNS_11TestDetailsEPKc
 639      00
 640 03cc EB41     		jmp	.L34
 641              	.L33:
 642              		.loc 3 34 0 discriminator 29
 643 03ce 488B8508 		movq	-504(%rbp), %rax
 643      FEFFFF
 644 03d5 488D4808 		leaq	8(%rax), %rcx
 645 03d9 488D8530 		leaq	-464(%rbp), %rax
 645      FEFFFF
 646 03e0 BA220000 		movl	$34, %edx
 646      00
 647 03e5 4889CE   		movq	%rcx, %rsi
 648 03e8 4889C7   		movq	%rax, %rdi
 649 03eb E8000000 		call	_ZN8UnitTest11TestDetailsC1ERKS0_i
 649      00
 650              		.loc 3 34 0 discriminator 38
 651 03f0 E8000000 		call	_ZN8UnitTest11CurrentTest7ResultsEv
 651      00
 652 03f5 488B00   		movq	(%rax), %rax
 653 03f8 488D8D30 		leaq	-464(%rbp), %rcx
 653      FEFFFF
 654 03ff BA000000 		movl	$.LC5, %edx
 654      00
 655 0404 4889CE   		movq	%rcx, %rsi
 656 0407 4889C7   		movq	%rax, %rdi
 657 040a E8000000 		call	_ZN8UnitTest11TestResults13OnTestFailureERKNS_11TestDetailsEPKc
 657      00
 658              	.LEHE20:
 659              	.L34:
 660              	.LEHB21:
 661              		.loc 3 34 0 discriminator 43
 662 040f E8000000 		call	__cxa_end_catch
 662      00
 663              	.LEHE21:
 664              	.L43:
 665              	.LBE21:
 666              		.loc 3 34 0
 667 0414 90       		nop
 668 0415 488B45E8 		movq	-24(%rbp), %rax
 669 0419 64483304 		xorq	%fs:40, %rax
 669      25280000 
 669      00
 670 0422 7405     		je	.L35
 671 0424 E8000000 		call	__stack_chk_fail
 671      00
 672              	.L35:
 673 0429 4881C4F0 		addq	$496, %rsp
 673      010000
 674 0430 5B       		popq	%rbx
 675 0431 415C     		popq	%r12
 676 0433 5D       		popq	%rbp
 677              		.cfi_def_cfa 7, 8
 678 0434 C3       		ret
 679              		.cfi_endproc
 680              	.LFE1345:
 681              		.section	.gcc_except_table
 682              		.align 4
 683              	.LLSDA1345:
 684 0020 FF       		.byte	0xff
 685 0021 03       		.byte	0x3
 686 0022 59       		.uleb128 .LLSDATT1345-.LLSDATTD1345
 687              	.LLSDATTD1345:
 688 0023 01       		.byte	0x1
 689 0024 41       		.uleb128 .LLSDACSE1345-.LLSDACSB1345
 690              	.LLSDACSB1345:
 691 0025 43       		.uleb128 .LEHB10-.LFB1345
 692 0026 05       		.uleb128 .LEHE10-.LEHB10
 693 0027 9D01     		.uleb128 .L36-.LFB1345
 694 0029 05       		.uleb128 0x5
 695 002a 67       		.uleb128 .LEHB11-.LFB1345
 696 002b 05       		.uleb128 .LEHE11-.LEHB11
 697 002c 8001     		.uleb128 .L37-.LFB1345
 698 002e 07       		.uleb128 0x7
 699 002f 76       		.uleb128 .LEHB12-.LFB1345
 700 0030 05       		.uleb128 .LEHE12-.LEHB12
 701 0031 9D01     		.uleb128 .L36-.LFB1345
 702 0033 05       		.uleb128 0x5
 703 0034 C001     		.uleb128 .LEHB13-.LFB1345
 704 0036 05       		.uleb128 .LEHE13-.LEHB13
 705 0037 00       		.uleb128 0
 706 0038 00       		.uleb128 0
 707 0039 E701     		.uleb128 .LEHB14-.LFB1345
 708 003b 05       		.uleb128 .LEHE14-.LEHB14
 709 003c 00       		.uleb128 0
 710 003d 00       		.uleb128 0
 711 003e FA01     		.uleb128 .LEHB15-.LFB1345
 712 0040 05       		.uleb128 .LEHE15-.LEHB15
 713 0041 00       		.uleb128 0
 714 0042 00       		.uleb128 0
 715 0043 B802     		.uleb128 .LEHB16-.LFB1345
 716 0045 5F       		.uleb128 .LEHE16-.LEHB16
 717 0046 B201     		.uleb128 .L38-.LFB1345
 718 0048 00       		.uleb128 0
 719 0049 BA03     		.uleb128 .LEHB17-.LFB1345
 720 004b 05       		.uleb128 .LEHE17-.LEHB17
 721 004c D901     		.uleb128 .L40-.LFB1345
 722 004e 00       		.uleb128 0
 723 004f EE03     		.uleb128 .LEHB18-.LFB1345
 724 0051 43       		.uleb128 .LEHE18-.LEHB18
 725 0052 C501     		.uleb128 .L39-.LFB1345
 726 0054 00       		.uleb128 0
 727 0055 BB04     		.uleb128 .LEHB19-.LFB1345
 728 0057 05       		.uleb128 .LEHE19-.LEHB19
 729 0058 D901     		.uleb128 .L40-.LFB1345
 730 005a 00       		.uleb128 0
 731 005b F804     		.uleb128 .LEHB20-.LFB1345
 732 005d 67       		.uleb128 .LEHE20-.LEHB20
 733 005e EC01     		.uleb128 .L41-.LFB1345
 734 0060 00       		.uleb128 0
 735 0061 DF05     		.uleb128 .LEHB21-.LFB1345
 736 0063 05       		.uleb128 .LEHE21-.LEHB21
 737 0064 00       		.uleb128 0
 738 0065 00       		.uleb128 0
 739              	.LLSDACSE1345:
 740 0066 03       		.byte	0x3
 741 0067 00       		.byte	0
 742 0068 02       		.byte	0x2
 743 0069 7D       		.byte	0x7d
 744 006a 01       		.byte	0x1
 745 006b 7D       		.byte	0x7d
 746 006c 00       		.byte	0
 747 006d 7D       		.byte	0x7d
 748 006e 0000     		.align 4
 749 0070 00000000 		.long	0
 750              	
 751 0074 00000000 		.long	_ZTISt9exception
 752 0078 00000000 		.long	_ZTIN8UnitTest15AssertExceptionE
 753              	.LLSDATT1345:
 754              		.text
 756              		.section	.rodata
 757              	.LC6:
 758 00e6 66696C65 		.string	"filename.h"
 758      6E616D65 
 758      2E6800
 759              	.LC7:
 760 00f1 73756974 		.string	"suite"
 760      6500
 761              	.LC8:
 762 00f7 54657374 		.string	"TestName"
 762      4E616D65 
 762      00
 763              	.LC9:
 764 0100 22222727 		.string	"\"\"''&&<<>>"
 764      26263C3C 
 764      3E3E00
 765 010b 00000000 		.align 8
 765      00
 766              	.LC11:
 767 0110 3C3F786D 		.string	"<?xml version=\"1.0\"?><unittest-results tests=\"1\" failedtests=\"2\" failures=\"3\" tim
 767      6C207665 
 767      7273696F 
 767      6E3D2231 
 767      2E30223F 
 768 020d 000000   		.align 8
 769              	.LC12:
 770 0210 556E6861 		.string	"Unhandled exception in CHECK_EQUAL(expected, output.str())"
 770      6E646C65 
 770      64206578 
 770      63657074 
 770      696F6E20 
 771              		.text
 772 0435 90       		.align 2
 774              	_ZN12_GLOBAL__N_156XmlTestReporterFixtureMultipleCharactersAreEscapedHelper7RunImplEv:
 775              	.LFB1349:
  35:TestXmlTestReporter.cpp **** {
 776              		.loc 3 35 0 is_stmt 1
 777              		.cfi_startproc
 778              		.cfi_personality 0x3,__gxx_personality_v0
 779              		.cfi_lsda 0x3,.LLSDA1349
 780 0436 55       		pushq	%rbp
 781              		.cfi_def_cfa_offset 16
 782              		.cfi_offset 6, -16
 783 0437 4889E5   		movq	%rsp, %rbp
 784              		.cfi_def_cfa_register 6
 785 043a 53       		pushq	%rbx
 786 043b 4883EC78 		subq	$120, %rsp
 787              		.cfi_offset 3, -24
 788 043f 48897D88 		movq	%rdi, -120(%rbp)
 789              		.loc 3 35 0
 790 0443 64488B04 		movq	%fs:40, %rax
 790      25280000 
 790      00
 791 044c 488945E8 		movq	%rax, -24(%rbp)
 792 0450 31C0     		xorl	%eax, %eax
 793              	.LBB22:
  36:TestXmlTestReporter.cpp ****     TestDetails const details("TestName", "suite", "filename.h", 4321);
 794              		.loc 3 36 0
 795 0452 488D45A0 		leaq	-96(%rbp), %rax
 796 0456 41B8E110 		movl	$4321, %r8d
 796      0000
 797 045c B9000000 		movl	$.LC6, %ecx
 797      00
 798 0461 BA000000 		movl	$.LC7, %edx
 798      00
 799 0466 BE000000 		movl	$.LC8, %esi
 799      00
 800 046b 4889C7   		movq	%rax, %rdi
 801              	.LEHB22:
 802 046e E8000000 		call	_ZN8UnitTest11TestDetailsC1EPKcS2_S2_i
 802      00
  37:TestXmlTestReporter.cpp **** 
  38:TestXmlTestReporter.cpp ****     reporter.ReportTestStart(details);
 803              		.loc 3 38 0
 804 0473 488B4588 		movq	-120(%rbp), %rax
 805 0477 488D9060 		leaq	352(%rax), %rdx
 805      010000
 806 047e 488D45A0 		leaq	-96(%rbp), %rax
 807 0482 4889C6   		movq	%rax, %rsi
 808 0485 4889D7   		movq	%rdx, %rdi
 809 0488 E8000000 		call	_ZN8UnitTest20DeferredTestReporter15ReportTestStartERKNS_11TestDetailsE
 809      00
  39:TestXmlTestReporter.cpp ****     reporter.ReportFailure(details, "\"\"\'\'&&<<>>");
 810              		.loc 3 39 0
 811 048d 488B4588 		movq	-120(%rbp), %rax
 812 0491 488D8860 		leaq	352(%rax), %rcx
 812      010000
 813 0498 488D45A0 		leaq	-96(%rbp), %rax
 814 049c BA000000 		movl	$.LC9, %edx
 814      00
 815 04a1 4889C6   		movq	%rax, %rsi
 816 04a4 4889CF   		movq	%rcx, %rdi
 817 04a7 E8000000 		call	_ZN8UnitTest20DeferredTestReporter13ReportFailureERKNS_11TestDetailsEPKc
 817      00
  40:TestXmlTestReporter.cpp ****     reporter.ReportTestFinish(details, 0.1f);
 818              		.loc 3 40 0
 819 04ac 488B4588 		movq	-120(%rbp), %rax
 820 04b0 488D9060 		leaq	352(%rax), %rdx
 820      010000
 821 04b7 488D45A0 		leaq	-96(%rbp), %rax
 822 04bb F30F1005 		movss	.LC10(%rip), %xmm0
 822      00000000 
 823 04c3 4889C6   		movq	%rax, %rsi
 824 04c6 4889D7   		movq	%rdx, %rdi
 825 04c9 E8000000 		call	_ZN8UnitTest20DeferredTestReporter16ReportTestFinishERKNS_11TestDetailsEf
 825      00
  41:TestXmlTestReporter.cpp ****     reporter.ReportSummary(1, 2, 3, 0.1f);
 826              		.loc 3 41 0
 827 04ce 488B4588 		movq	-120(%rbp), %rax
 828 04d2 48056001 		addq	$352, %rax
 828      0000
 829 04d8 F30F1005 		movss	.LC10(%rip), %xmm0
 829      00000000 
 830 04e0 B9030000 		movl	$3, %ecx
 830      00
 831 04e5 BA020000 		movl	$2, %edx
 831      00
 832 04ea BE010000 		movl	$1, %esi
 832      00
 833 04ef 4889C7   		movq	%rax, %rdi
 834 04f2 E8000000 		call	_ZN8UnitTest15XmlTestReporter13ReportSummaryEiiif
 834      00
 835              	.LEHE22:
  42:TestXmlTestReporter.cpp **** 
  43:TestXmlTestReporter.cpp ****     char const* expected =
  44:TestXmlTestReporter.cpp ****         "<?xml version=\"1.0\"?>"
  45:TestXmlTestReporter.cpp ****         "<unittest-results tests=\"1\" failedtests=\"2\" failures=\"3\" time=\"0.1\">"
  46:TestXmlTestReporter.cpp ****         "<test suite=\"suite\" name=\"TestName\" time=\"0.1\">"
  47:TestXmlTestReporter.cpp ****         "<failure message=\"filename.h(4321) : "
  48:TestXmlTestReporter.cpp ****         "&quot;&quot;&apos;&apos;&amp;&amp;&lt;&lt;&gt;&gt;\"/>"
  49:TestXmlTestReporter.cpp ****         "</test>"
  50:TestXmlTestReporter.cpp ****         "</unittest-results>";
 836              		.loc 3 50 0
 837 04f7 48C74598 		movq	$.LC11, -104(%rbp)
 837      00000000 
 838              	.LEHB23:
  51:TestXmlTestReporter.cpp **** 
  52:TestXmlTestReporter.cpp ****     CHECK_EQUAL(expected, output.str());
 839              		.loc 3 52 0
 840 04ff E8000000 		call	_ZN8UnitTest11CurrentTest7DetailsEv
 840      00
 841 0504 488B08   		movq	(%rax), %rcx
 842 0507 488D45C0 		leaq	-64(%rbp), %rax
 843 050b BA340000 		movl	$52, %edx
 843      00
 844 0510 4889CE   		movq	%rcx, %rsi
 845 0513 4889C7   		movq	%rax, %rdi
 846 0516 E8000000 		call	_ZN8UnitTest11TestDetailsC1ERKS0_i
 846      00
 847              		.loc 3 52 0 is_stmt 0 discriminator 2
 848 051b 488B5588 		movq	-120(%rbp), %rdx
 849 051f 488D4590 		leaq	-112(%rbp), %rax
 850 0523 4889D6   		movq	%rdx, %rsi
 851 0526 4889C7   		movq	%rax, %rdi
 852 0529 E8000000 		call	_ZNKSt19basic_ostringstreamIcSt11char_traitsIcESaIcEE3strEv
 852      00
 853              	.LEHE23:
 854              	.LEHB24:
 855              		.loc 3 52 0 discriminator 4
 856 052e E8000000 		call	_ZN8UnitTest11CurrentTest7ResultsEv
 856      00
 857 0533 488B00   		movq	(%rax), %rax
 858 0536 488D4DC0 		leaq	-64(%rbp), %rcx
 859 053a 488D5590 		leaq	-112(%rbp), %rdx
 860 053e 488D7598 		leaq	-104(%rbp), %rsi
 861 0542 4889C7   		movq	%rax, %rdi
 862 0545 E8000000 		call	_ZN8UnitTest10CheckEqualIPKcSsEEvRNS_11TestResultsERKT_RKT0_RKNS_11TestDetailsE
 862      00
 863              	.LEHE24:
 864              		.loc 3 52 0 discriminator 8
 865 054a 488D4590 		leaq	-112(%rbp), %rax
 866 054e 4889C7   		movq	%rax, %rdi
 867              	.LEHB25:
 868 0551 E8000000 		call	_ZNSsD1Ev
 868      00
 869              	.LEHE25:
 870              	.LBE22:
  53:TestXmlTestReporter.cpp **** }
 871              		.loc 3 53 0 is_stmt 1
 872 0556 EB6C     		jmp	.L53
 873              	.L51:
 874 0558 4889C3   		movq	%rax, %rbx
 875              	.LBB23:
  52:TestXmlTestReporter.cpp **** }
 876              		.loc 3 52 0
 877 055b 488D4590 		leaq	-112(%rbp), %rax
 878 055f 4889C7   		movq	%rax, %rdi
 879 0562 E8000000 		call	_ZNSsD1Ev
 879      00
 880 0567 4889D8   		movq	%rbx, %rax
 881 056a EB13     		jmp	.L46
 882              	.L52:
 883 056c 4889C3   		movq	%rax, %rbx
 884 056f E8000000 		call	__cxa_end_catch
 884      00
 885 0574 4889D8   		movq	%rbx, %rax
 886 0577 4889C7   		movq	%rax, %rdi
 887              	.LEHB26:
 888 057a E8000000 		call	_Unwind_Resume
 888      00
 889              	.LEHE26:
 890              	.L50:
 891              	.L46:
 892 057f 4889C7   		movq	%rax, %rdi
 893 0582 E8000000 		call	__cxa_begin_catch
 893      00
 894              	.LEHB27:
 895 0587 E8000000 		call	_ZN8UnitTest11CurrentTest7DetailsEv
 895      00
 896 058c 488B08   		movq	(%rax), %rcx
 897 058f 488D45C0 		leaq	-64(%rbp), %rax
 898 0593 BA340000 		movl	$52, %edx
 898      00
 899 0598 4889CE   		movq	%rcx, %rsi
 900 059b 4889C7   		movq	%rax, %rdi
 901 059e E8000000 		call	_ZN8UnitTest11TestDetailsC1ERKS0_i
 901      00
  52:TestXmlTestReporter.cpp **** }
 902              		.loc 3 52 0 is_stmt 0 discriminator 14
 903 05a3 E8000000 		call	_ZN8UnitTest11CurrentTest7ResultsEv
 903      00
 904 05a8 488B00   		movq	(%rax), %rax
 905 05ab 488D4DC0 		leaq	-64(%rbp), %rcx
 906 05af BA000000 		movl	$.LC12, %edx
 906      00
 907 05b4 4889CE   		movq	%rcx, %rsi
 908 05b7 4889C7   		movq	%rax, %rdi
 909 05ba E8000000 		call	_ZN8UnitTest11TestResults13OnTestFailureERKNS_11TestDetailsEPKc
 909      00
 910              	.LEHE27:
 911              	.LEHB28:
  52:TestXmlTestReporter.cpp **** }
 912              		.loc 3 52 0 discriminator 18
 913 05bf E8000000 		call	__cxa_end_catch
 913      00
 914              	.LEHE28:
 915              	.L53:
 916              	.LBE23:
 917              		.loc 3 53 0 is_stmt 1
 918 05c4 90       		nop
 919 05c5 488B45E8 		movq	-24(%rbp), %rax
 920 05c9 64483304 		xorq	%fs:40, %rax
 920      25280000 
 920      00
 921 05d2 7405     		je	.L49
 922 05d4 E8000000 		call	__stack_chk_fail
 922      00
 923              	.L49:
 924 05d9 4883C478 		addq	$120, %rsp
 925 05dd 5B       		popq	%rbx
 926 05de 5D       		popq	%rbp
 927              		.cfi_def_cfa 7, 8
 928 05df C3       		ret
 929              		.cfi_endproc
 930              	.LFE1349:
 931              		.section	.gcc_except_table
 932              		.align 4
 933              	.LLSDA1349:
 934 007c FF       		.byte	0xff
 935 007d 03       		.byte	0x3
 936 007e 31       		.uleb128 .LLSDATT1349-.LLSDATTD1349
 937              	.LLSDATTD1349:
 938 007f 01       		.byte	0x1
 939 0080 27       		.uleb128 .LLSDACSE1349-.LLSDACSB1349
 940              	.LLSDACSB1349:
 941 0081 38       		.uleb128 .LEHB22-.LFB1349
 942 0082 8901     		.uleb128 .LEHE22-.LEHB22
 943 0084 00       		.uleb128 0
 944 0085 00       		.uleb128 0
 945 0086 C901     		.uleb128 .LEHB23-.LFB1349
 946 0088 2F       		.uleb128 .LEHE23-.LEHB23
 947 0089 C902     		.uleb128 .L50-.LFB1349
 948 008b 01       		.uleb128 0x1
 949 008c F801     		.uleb128 .LEHB24-.LFB1349
 950 008e 1C       		.uleb128 .LEHE24-.LEHB24
 951 008f A202     		.uleb128 .L51-.LFB1349
 952 0091 03       		.uleb128 0x3
 953 0092 9B02     		.uleb128 .LEHB25-.LFB1349
 954 0094 05       		.uleb128 .LEHE25-.LEHB25
 955 0095 C902     		.uleb128 .L50-.LFB1349
 956 0097 01       		.uleb128 0x1
 957 0098 C402     		.uleb128 .LEHB26-.LFB1349
 958 009a 05       		.uleb128 .LEHE26-.LEHB26
 959 009b 00       		.uleb128 0
 960 009c 00       		.uleb128 0
 961 009d D102     		.uleb128 .LEHB27-.LFB1349
 962 009f 38       		.uleb128 .LEHE27-.LEHB27
 963 00a0 B602     		.uleb128 .L52-.LFB1349
 964 00a2 00       		.uleb128 0
 965 00a3 8903     		.uleb128 .LEHB28-.LFB1349
 966 00a5 05       		.uleb128 .LEHE28-.LEHB28
 967 00a6 00       		.uleb128 0
 968 00a7 00       		.uleb128 0
 969              	.LLSDACSE1349:
 970 00a8 01       		.byte	0x1
 971 00a9 00       		.byte	0
 972 00aa 00       		.byte	0
 973 00ab 7D       		.byte	0x7d
 974              		.align 4
 975 00ac 00000000 		.long	0
 976              	
 977              	.LLSDATT1349:
 978              		.text
 980              		.align 2
 982              	_ZN12_GLOBAL__N_168XmlTestReporterFixtureOutputIsCachedUntilReportSummaryIsCalledHelperC2ERKN8UnitT
 983              	.LFB1351:
  54:TestXmlTestReporter.cpp **** 
  55:TestXmlTestReporter.cpp **** TEST_FIXTURE(XmlTestReporterFixture, OutputIsCachedUntilReportSummaryIsCalled)
 984              		.loc 3 55 0
 985              		.cfi_startproc
 986 05e0 55       		pushq	%rbp
 987              		.cfi_def_cfa_offset 16
 988              		.cfi_offset 6, -16
 989 05e1 4889E5   		movq	%rsp, %rbp
 990              		.cfi_def_cfa_register 6
 991 05e4 4883EC10 		subq	$16, %rsp
 992 05e8 48897DF8 		movq	%rdi, -8(%rbp)
 993 05ec 488975F0 		movq	%rsi, -16(%rbp)
 994              	.LBB24:
 995              		.loc 3 55 0
 996 05f0 488B45F8 		movq	-8(%rbp), %rax
 997 05f4 4889C7   		movq	%rax, %rdi
 998 05f7 E804FAFF 		call	_ZN12_GLOBAL__N_122XmlTestReporterFixtureC2Ev
 998      FF
 999 05fc 488B45F8 		movq	-8(%rbp), %rax
 1000 0600 488B55F0 		movq	-16(%rbp), %rdx
 1001 0604 48899088 		movq	%rdx, 392(%rax)
 1001      010000
 1002              	.LBE24:
 1003 060b C9       		leave
 1004              		.cfi_def_cfa 7, 8
 1005 060c C3       		ret
 1006              		.cfi_endproc
 1007              	.LFE1351:
 1009              		.section	.rodata
 1010 024b 00000000 		.align 8
 1010      00
 1011              	.LC13:
 1012 0250 4F757470 		.string	"OutputIsCachedUntilReportSummaryIsCalled"
 1012      75744973 
 1012      43616368 
 1012      6564556E 
 1012      74696C52 
 1013              		.text
 1014 060d 90       		.align 2
 1016              	_ZN12_GLOBAL__N_166TestXmlTestReporterFixtureOutputIsCachedUntilReportSummaryIsCalledC2Ev:
 1017              	.LFB1354:
 1018              		.loc 3 55 0
 1019              		.cfi_startproc
 1020 060e 55       		pushq	%rbp
 1021              		.cfi_def_cfa_offset 16
 1022              		.cfi_offset 6, -16
 1023 060f 4889E5   		movq	%rsp, %rbp
 1024              		.cfi_def_cfa_register 6
 1025 0612 4883EC10 		subq	$16, %rsp
 1026 0616 48897DF8 		movq	%rdi, -8(%rbp)
 1027              	.LBB25:
 1028              		.loc 3 55 0
 1029 061a E8000000 		call	_ZN13UnitTestSuite12GetSuiteNameEv
 1029      00
 1030 061f 4889C2   		movq	%rax, %rdx
 1031 0622 488B45F8 		movq	-8(%rbp), %rax
 1032 0626 41B83700 		movl	$55, %r8d
 1032      0000
 1033 062c B9000000 		movl	$.LC1, %ecx
 1033      00
 1034 0631 BE000000 		movl	$.LC13, %esi
 1034      00
 1035 0636 4889C7   		movq	%rax, %rdi
 1036 0639 E8000000 		call	_ZN8UnitTest4TestC2EPKcS2_S2_i
 1036      00
 1037 063e 488B45F8 		movq	-8(%rbp), %rax
 1038 0642 48C70000 		movq	$_ZTVN12_GLOBAL__N_166TestXmlTestReporterFixtureOutputIsCachedUntilReportSummaryIsCalledE+16,
 1038      000000
 1039              	.LBE25:
 1040 0649 C9       		leave
 1041              		.cfi_def_cfa 7, 8
 1042 064a C3       		ret
 1043              		.cfi_endproc
 1044              	.LFE1354:
 1046              		.local	_ZN12_GLOBAL__N_174testXmlTestReporterFixtureOutputIsCachedUntilReportSummaryIsCalledInstan
 1047              		.comm	_ZN12_GLOBAL__N_174testXmlTestReporterFixtureOutputIsCachedUntilReportSummaryIsCalledInstanc
 1048              		.local	_ZN12_GLOBAL__N_167adderXmlTestReporterFixtureOutputIsCachedUntilReportSummaryIsCalledE
 1049              		.comm	_ZN12_GLOBAL__N_167adderXmlTestReporterFixtureOutputIsCachedUntilReportSummaryIsCalledE,1,1
 1050 064b 90       		.align 2
 1052              	_ZN12_GLOBAL__N_168XmlTestReporterFixtureOutputIsCachedUntilReportSummaryIsCalledHelperD2Ev:
 1053              	.LFB1358:
 1054              		.loc 3 55 0
 1055              		.cfi_startproc
 1056 064c 55       		pushq	%rbp
 1057              		.cfi_def_cfa_offset 16
 1058              		.cfi_offset 6, -16
 1059 064d 4889E5   		movq	%rsp, %rbp
 1060              		.cfi_def_cfa_register 6
 1061 0650 4883EC10 		subq	$16, %rsp
 1062 0654 48897DF8 		movq	%rdi, -8(%rbp)
 1063              	.LBB26:
 1064              		.loc 3 55 0
 1065 0658 488B45F8 		movq	-8(%rbp), %rax
 1066 065c 4889C7   		movq	%rax, %rdi
 1067 065f E8F8F9FF 		call	_ZN12_GLOBAL__N_122XmlTestReporterFixtureD2Ev
 1067      FF
 1068              	.LBE26:
 1069 0664 C9       		leave
 1070              		.cfi_def_cfa 7, 8
 1071 0665 C3       		ret
 1072              		.cfi_endproc
 1073              	.LFE1358:
 1075              		.align 2
 1077              	_ZNK12_GLOBAL__N_166TestXmlTestReporterFixtureOutputIsCachedUntilReportSummaryIsCalled7RunImplEv:
 1078              	.LFB1356:
 1079              		.loc 3 55 0
 1080              		.cfi_startproc
 1081              		.cfi_personality 0x3,__gxx_personality_v0
 1082              		.cfi_lsda 0x3,.LLSDA1356
 1083 0666 55       		pushq	%rbp
 1084              		.cfi_def_cfa_offset 16
 1085              		.cfi_offset 6, -16
 1086 0667 4889E5   		movq	%rsp, %rbp
 1087              		.cfi_def_cfa_register 6
 1088 066a 4154     		pushq	%r12
 1089 066c 53       		pushq	%rbx
 1090 066d 4881ECF0 		subq	$496, %rsp
 1090      010000
 1091              		.cfi_offset 12, -24
 1092              		.cfi_offset 3, -32
 1093 0674 4889BD08 		movq	%rdi, -504(%rbp)
 1093      FEFFFF
 1094              		.loc 3 55 0
 1095 067b 64488B04 		movq	%fs:40, %rax
 1095      25280000 
 1095      00
 1096 0684 488945E8 		movq	%rax, -24(%rbp)
 1097 0688 31C0     		xorl	%eax, %eax
 1098              	.LBB27:
 1099 068a C6851FFE 		movb	$0, -481(%rbp)
 1099      FFFF00
 1100              	.LBB28:
 1101 0691 488B8508 		movq	-504(%rbp), %rax
 1101      FEFFFF
 1102 0698 488D5008 		leaq	8(%rax), %rdx
 1103 069c 488D8550 		leaq	-432(%rbp), %rax
 1103      FEFFFF
 1104 06a3 4889D6   		movq	%rdx, %rsi
 1105 06a6 4889C7   		movq	%rax, %rdi
 1106              	.LEHB29:
 1107 06a9 E832FFFF 		call	_ZN12_GLOBAL__N_168XmlTestReporterFixtureOutputIsCachedUntilReportSummaryIsCalledHelperC2ERKN
 1107      FF
 1108              	.LEHE29:
 1109              		.loc 3 55 0 is_stmt 0 discriminator 1
 1110 06ae C6851FFE 		movb	$1, -481(%rbp)
 1110      FFFF01
 1111 06b5 488B8508 		movq	-504(%rbp), %rax
 1111      FEFFFF
 1112 06bc 488D5008 		leaq	8(%rax), %rdx
 1113 06c0 488D8550 		leaq	-432(%rbp), %rax
 1113      FEFFFF
 1114 06c7 4889D6   		movq	%rdx, %rsi
 1115 06ca 4889C7   		movq	%rax, %rdi
 1116              	.LEHB30:
 1117 06cd E8872700 		call	_ZN8UnitTest11ExecuteTestIN12_GLOBAL__N_168XmlTestReporterFixtureOutputIsCachedUntilReportSum
 1117      00
 1118              	.LEHE30:
 1119              		.loc 3 55 0 discriminator 3
 1120 06d2 488D8550 		leaq	-432(%rbp), %rax
 1120      FEFFFF
 1121 06d9 4889C7   		movq	%rax, %rdi
 1122              	.LEHB31:
 1123 06dc E86BFFFF 		call	_ZN12_GLOBAL__N_168XmlTestReporterFixtureOutputIsCachedUntilReportSummaryIsCalledHelperD2Ev
 1123      FF
 1124              	.LEHE31:
 1125              	.LBE28:
 1126              	.LBE27:
 1127              		.loc 3 55 0
 1128 06e1 E9640200 		jmp	.L79
 1128      00
 1129              	.L73:
 1130 06e6 4989C4   		movq	%rax, %r12
 1131 06e9 4889D3   		movq	%rdx, %rbx
 1132              	.LBB36:
 1133              	.LBB29:
 1134 06ec 488D8550 		leaq	-432(%rbp), %rax
 1134      FEFFFF
 1135 06f3 4889C7   		movq	%rax, %rdi
 1136 06f6 E851FFFF 		call	_ZN12_GLOBAL__N_168XmlTestReporterFixtureOutputIsCachedUntilReportSummaryIsCalledHelperD2Ev
 1136      FF
 1137 06fb 4C89E0   		movq	%r12, %rax
 1138 06fe 4889DA   		movq	%rbx, %rdx
 1139 0701 EB00     		jmp	.L60
 1140              	.L72:
 1141              	.L60:
 1142 0703 4883FA01 		cmpq	$1, %rdx
 1143 0707 745C     		je	.L62
 1144 0709 4883FA02 		cmpq	$2, %rdx
 1145 070d 0F84F400 		je	.L63
 1145      0000
 1146 0713 E9980100 		jmp	.L78
 1146      00
 1147              	.L74:
 1148 0718 4889C3   		movq	%rax, %rbx
 1149              	.LBE29:
 1150              	.LBB30:
 1151 071b E8000000 		call	__cxa_end_catch
 1151      00
 1152 0720 4889D8   		movq	%rbx, %rax
 1153 0723 4889C7   		movq	%rax, %rdi
 1154              	.LEHB32:
 1155 0726 E8000000 		call	_Unwind_Resume
 1155      00
 1156              	.LEHE32:
 1157              	.L75:
 1158 072b 4889C3   		movq	%rax, %rbx
 1159              	.LBE30:
 1160              	.LBB31:
 1161              	.LBB32:
 1162 072e 488D8550 		leaq	-432(%rbp), %rax
 1162      FEFFFF
 1163 0735 4889C7   		movq	%rax, %rdi
 1164 0738 E8000000 		call	_ZN8UnitTest15MemoryOutStreamD1Ev
 1164      00
 1165 073d EB03     		jmp	.L66
 1166              	.L76:
 1167 073f 4889C3   		movq	%rax, %rbx
 1168              	.L66:
 1169              	.LBE32:
 1170 0742 E8000000 		call	__cxa_end_catch
 1170      00
 1171 0747 4889D8   		movq	%rbx, %rax
 1172 074a 4889C7   		movq	%rax, %rdi
 1173              	.LEHB33:
 1174 074d E8000000 		call	_Unwind_Resume
 1174      00
 1175              	.LEHE33:
 1176              	.L77:
 1177 0752 4889C3   		movq	%rax, %rbx
 1178              	.LBE31:
 1179 0755 E8000000 		call	__cxa_end_catch
 1179      00
 1180 075a 4889D8   		movq	%rbx, %rax
 1181 075d 4889C7   		movq	%rax, %rdi
 1182              	.LEHB34:
 1183 0760 E8000000 		call	_Unwind_Resume
 1183      00
 1184              	.LEHE34:
 1185              	.L62:
 1186              	.LBB34:
 1187 0765 4889C7   		movq	%rax, %rdi
 1188 0768 E8000000 		call	__cxa_begin_catch
 1188      00
 1189 076d 48898520 		movq	%rax, -480(%rbp)
 1189      FEFFFF
 1190 0774 488B8520 		movq	-480(%rbp), %rax
 1190      FEFFFF
 1191 077b 488B00   		movq	(%rax), %rax
 1192 077e 4883C010 		addq	$16, %rax
 1193 0782 488B00   		movq	(%rax), %rax
 1194 0785 488B9520 		movq	-480(%rbp), %rdx
 1194      FEFFFF
 1195 078c 4889D7   		movq	%rdx, %rdi
 1196 078f FFD0     		call	*%rax
 1197 0791 4889C3   		movq	%rax, %rbx
 1198 0794 488B8520 		movq	-480(%rbp), %rax
 1198      FEFFFF
 1199 079b 4889C7   		movq	%rax, %rdi
 1200              	.LEHB35:
 1201 079e E8000000 		call	_ZNK8UnitTest15AssertException10LineNumberEv
 1201      00
 1202 07a3 4189C4   		movl	%eax, %r12d
 1203 07a6 488B8520 		movq	-480(%rbp), %rax
 1203      FEFFFF
 1204 07ad 4889C7   		movq	%rax, %rdi
 1205 07b0 E8000000 		call	_ZNK8UnitTest15AssertException8FilenameEv
 1205      00
 1206              		.loc 3 55 0 discriminator 5
 1207 07b5 4889C1   		movq	%rax, %rcx
 1208 07b8 488B8508 		movq	-504(%rbp), %rax
 1208      FEFFFF
 1209 07bf 488B5008 		movq	8(%rax), %rdx
 1210 07c3 488B8508 		movq	-504(%rbp), %rax
 1210      FEFFFF
 1211 07ca 488B7010 		movq	16(%rax), %rsi
 1212 07ce 488D8530 		leaq	-464(%rbp), %rax
 1212      FEFFFF
 1213 07d5 4589E0   		movl	%r12d, %r8d
 1214 07d8 4889C7   		movq	%rax, %rdi
 1215 07db E8000000 		call	_ZN8UnitTest11TestDetailsC1EPKcS2_S2_i
 1215      00
 1216              		.loc 3 55 0 discriminator 9
 1217 07e0 E8000000 		call	_ZN8UnitTest11CurrentTest7ResultsEv
 1217      00
 1218 07e5 488B00   		movq	(%rax), %rax
 1219 07e8 488D8D30 		leaq	-464(%rbp), %rcx
 1219      FEFFFF
 1220 07ef 4889DA   		movq	%rbx, %rdx
 1221 07f2 4889CE   		movq	%rcx, %rsi
 1222 07f5 4889C7   		movq	%rax, %rdi
 1223 07f8 E8000000 		call	_ZN8UnitTest11TestResults13OnTestFailureERKNS_11TestDetailsEPKc
 1223      00
 1224              	.LEHE35:
 1225              		.loc 3 55 0 discriminator 13
 1226 07fd E8000000 		call	__cxa_end_catch
 1226      00
 1227              	.LBE34:
 1228              	.LBE36:
 1229 0802 E9430100 		jmp	.L79
 1229      00
 1230              	.L63:
 1231              	.LBB37:
 1232              	.LBB35:
 1233              		.loc 3 55 0
 1234 0807 4889C7   		movq	%rax, %rdi
 1235 080a E8000000 		call	__cxa_begin_catch
 1235      00
 1236 080f 48898528 		movq	%rax, -472(%rbp)
 1236      FEFFFF
 1237              	.LBB33:
 1238 0816 488D8550 		leaq	-432(%rbp), %rax
 1238      FEFFFF
 1239 081d 4889C7   		movq	%rax, %rdi
 1240              	.LEHB36:
 1241 0820 E8000000 		call	_ZN8UnitTest15MemoryOutStreamC1Ev
 1241      00
 1242              	.LEHE36:
 1243              		.loc 3 55 0 discriminator 15
 1244 0825 488B8528 		movq	-472(%rbp), %rax
 1244      FEFFFF
 1245 082c 488B00   		movq	(%rax), %rax
 1246 082f 4883C010 		addq	$16, %rax
 1247 0833 488B00   		movq	(%rax), %rax
 1248 0836 488B9528 		movq	-472(%rbp), %rdx
 1248      FEFFFF
 1249 083d 4889D7   		movq	%rdx, %rdi
 1250 0840 FFD0     		call	*%rax
 1251 0842 4889C3   		movq	%rax, %rbx
 1252 0845 488D8550 		leaq	-432(%rbp), %rax
 1252      FEFFFF
 1253 084c BE000000 		movl	$.LC3, %esi
 1253      00
 1254 0851 4889C7   		movq	%rax, %rdi
 1255              	.LEHB37:
 1256 0854 E8000000 		call	_ZStlsISt11char_traitsIcEERSt13basic_ostreamIcT_ES5_PKc
 1256      00
 1257 0859 4889DE   		movq	%rbx, %rsi
 1258 085c 4889C7   		movq	%rax, %rdi
 1259 085f E8000000 		call	_ZStlsISt11char_traitsIcEERSt13basic_ostreamIcT_ES5_PKc
 1259      00
 1260              		.loc 3 55 0 discriminator 19
 1261 0864 488D8550 		leaq	-432(%rbp), %rax
 1261      FEFFFF
 1262 086b 4889C7   		movq	%rax, %rdi
 1263 086e E8000000 		call	_ZNK8UnitTest15MemoryOutStream7GetTextEv
 1263      00
 1264 0873 4989C4   		movq	%rax, %r12
 1265 0876 488B8508 		movq	-504(%rbp), %rax
 1265      FEFFFF
 1266 087d 488D5808 		leaq	8(%rax), %rbx
 1267 0881 E8000000 		call	_ZN8UnitTest11CurrentTest7ResultsEv
 1267      00
 1268              		.loc 3 55 0 discriminator 21
 1269 0886 488B00   		movq	(%rax), %rax
 1270 0889 4C89E2   		movq	%r12, %rdx
 1271 088c 4889DE   		movq	%rbx, %rsi
 1272 088f 4889C7   		movq	%rax, %rdi
 1273 0892 E8000000 		call	_ZN8UnitTest11TestResults13OnTestFailureERKNS_11TestDetailsEPKc
 1273      00
 1274              	.LEHE37:
 1275              		.loc 3 55 0 discriminator 25
 1276 0897 488D8550 		leaq	-432(%rbp), %rax
 1276      FEFFFF
 1277 089e 4889C7   		movq	%rax, %rdi
 1278              	.LEHB38:
 1279 08a1 E8000000 		call	_ZN8UnitTest15MemoryOutStreamD1Ev
 1279      00
 1280              	.LEHE38:
 1281              	.LBE33:
 1282              		.loc 3 55 0 discriminator 26
 1283 08a6 E8000000 		call	__cxa_end_catch
 1283      00
 1284              	.LBE35:
 1285              	.LBE37:
 1286 08ab E99A0000 		jmp	.L79
 1286      00
 1287              	.L78:
 1288              	.LBB38:
 1289              		.loc 3 55 0
 1290 08b0 4889C7   		movq	%rax, %rdi
 1291 08b3 E8000000 		call	__cxa_begin_catch
 1291      00
 1292 08b8 80BD1FFE 		cmpb	$0, -481(%rbp)
 1292      FFFF00
 1293 08bf 7443     		je	.L69
 1294              		.loc 3 55 0 discriminator 28
 1295 08c1 488B8508 		movq	-504(%rbp), %rax
 1295      FEFFFF
 1296 08c8 488D4808 		leaq	8(%rax), %rcx
 1297 08cc 488D8530 		leaq	-464(%rbp), %rax
 1297      FEFFFF
 1298 08d3 BA370000 		movl	$55, %edx
 1298      00
 1299 08d8 4889CE   		movq	%rcx, %rsi
 1300 08db 4889C7   		movq	%rax, %rdi
 1301              	.LEHB39:
 1302 08de E8000000 		call	_ZN8UnitTest11TestDetailsC1ERKS0_i
 1302      00
 1303              		.loc 3 55 0 discriminator 31
 1304 08e3 E8000000 		call	_ZN8UnitTest11CurrentTest7ResultsEv
 1304      00
 1305 08e8 488B00   		movq	(%rax), %rax
 1306 08eb 488D8D30 		leaq	-464(%rbp), %rcx
 1306      FEFFFF
 1307 08f2 BA000000 		movl	$.LC4, %edx
 1307      00
 1308 08f7 4889CE   		movq	%rcx, %rsi
 1309 08fa 4889C7   		movq	%rax, %rdi
 1310 08fd E8000000 		call	_ZN8UnitTest11TestResults13OnTestFailureERKNS_11TestDetailsEPKc
 1310      00
 1311 0902 EB41     		jmp	.L70
 1312              	.L69:
 1313              		.loc 3 55 0 discriminator 29
 1314 0904 488B8508 		movq	-504(%rbp), %rax
 1314      FEFFFF
 1315 090b 488D4808 		leaq	8(%rax), %rcx
 1316 090f 488D8530 		leaq	-464(%rbp), %rax
 1316      FEFFFF
 1317 0916 BA370000 		movl	$55, %edx
 1317      00
 1318 091b 4889CE   		movq	%rcx, %rsi
 1319 091e 4889C7   		movq	%rax, %rdi
 1320 0921 E8000000 		call	_ZN8UnitTest11TestDetailsC1ERKS0_i
 1320      00
 1321              		.loc 3 55 0 discriminator 38
 1322 0926 E8000000 		call	_ZN8UnitTest11CurrentTest7ResultsEv
 1322      00
 1323 092b 488B00   		movq	(%rax), %rax
 1324 092e 488D8D30 		leaq	-464(%rbp), %rcx
 1324      FEFFFF
 1325 0935 BA000000 		movl	$.LC5, %edx
 1325      00
 1326 093a 4889CE   		movq	%rcx, %rsi
 1327 093d 4889C7   		movq	%rax, %rdi
 1328 0940 E8000000 		call	_ZN8UnitTest11TestResults13OnTestFailureERKNS_11TestDetailsEPKc
 1328      00
 1329              	.LEHE39:
 1330              	.L70:
 1331              	.LEHB40:
 1332              		.loc 3 55 0 discriminator 43
 1333 0945 E8000000 		call	__cxa_end_catch
 1333      00
 1334              	.LEHE40:
 1335              	.L79:
 1336              	.LBE38:
 1337              		.loc 3 55 0
 1338 094a 90       		nop
 1339 094b 488B45E8 		movq	-24(%rbp), %rax
 1340 094f 64483304 		xorq	%fs:40, %rax
 1340      25280000 
 1340      00
 1341 0958 7405     		je	.L71
 1342 095a E8000000 		call	__stack_chk_fail
 1342      00
 1343              	.L71:
 1344 095f 4881C4F0 		addq	$496, %rsp
 1344      010000
 1345 0966 5B       		popq	%rbx
 1346 0967 415C     		popq	%r12
 1347 0969 5D       		popq	%rbp
 1348              		.cfi_def_cfa 7, 8
 1349 096a C3       		ret
 1350              		.cfi_endproc
 1351              	.LFE1356:
 1352              		.section	.gcc_except_table
 1353              		.align 4
 1354              	.LLSDA1356:
 1355 00b0 FF       		.byte	0xff
 1356 00b1 03       		.byte	0x3
 1357 00b2 59       		.uleb128 .LLSDATT1356-.LLSDATTD1356
 1358              	.LLSDATTD1356:
 1359 00b3 01       		.byte	0x1
 1360 00b4 41       		.uleb128 .LLSDACSE1356-.LLSDACSB1356
 1361              	.LLSDACSB1356:
 1362 00b5 43       		.uleb128 .LEHB29-.LFB1356
 1363 00b6 05       		.uleb128 .LEHE29-.LEHB29
 1364 00b7 9D01     		.uleb128 .L72-.LFB1356
 1365 00b9 05       		.uleb128 0x5
 1366 00ba 67       		.uleb128 .LEHB30-.LFB1356
 1367 00bb 05       		.uleb128 .LEHE30-.LEHB30
 1368 00bc 8001     		.uleb128 .L73-.LFB1356
 1369 00be 07       		.uleb128 0x7
 1370 00bf 76       		.uleb128 .LEHB31-.LFB1356
 1371 00c0 05       		.uleb128 .LEHE31-.LEHB31
 1372 00c1 9D01     		.uleb128 .L72-.LFB1356
 1373 00c3 05       		.uleb128 0x5
 1374 00c4 C001     		.uleb128 .LEHB32-.LFB1356
 1375 00c6 05       		.uleb128 .LEHE32-.LEHB32
 1376 00c7 00       		.uleb128 0
 1377 00c8 00       		.uleb128 0
 1378 00c9 E701     		.uleb128 .LEHB33-.LFB1356
 1379 00cb 05       		.uleb128 .LEHE33-.LEHB33
 1380 00cc 00       		.uleb128 0
 1381 00cd 00       		.uleb128 0
 1382 00ce FA01     		.uleb128 .LEHB34-.LFB1356
 1383 00d0 05       		.uleb128 .LEHE34-.LEHB34
 1384 00d1 00       		.uleb128 0
 1385 00d2 00       		.uleb128 0
 1386 00d3 B802     		.uleb128 .LEHB35-.LFB1356
 1387 00d5 5F       		.uleb128 .LEHE35-.LEHB35
 1388 00d6 B201     		.uleb128 .L74-.LFB1356
 1389 00d8 00       		.uleb128 0
 1390 00d9 BA03     		.uleb128 .LEHB36-.LFB1356
 1391 00db 05       		.uleb128 .LEHE36-.LEHB36
 1392 00dc D901     		.uleb128 .L76-.LFB1356
 1393 00de 00       		.uleb128 0
 1394 00df EE03     		.uleb128 .LEHB37-.LFB1356
 1395 00e1 43       		.uleb128 .LEHE37-.LEHB37
 1396 00e2 C501     		.uleb128 .L75-.LFB1356
 1397 00e4 00       		.uleb128 0
 1398 00e5 BB04     		.uleb128 .LEHB38-.LFB1356
 1399 00e7 05       		.uleb128 .LEHE38-.LEHB38
 1400 00e8 D901     		.uleb128 .L76-.LFB1356
 1401 00ea 00       		.uleb128 0
 1402 00eb F804     		.uleb128 .LEHB39-.LFB1356
 1403 00ed 67       		.uleb128 .LEHE39-.LEHB39
 1404 00ee EC01     		.uleb128 .L77-.LFB1356
 1405 00f0 00       		.uleb128 0
 1406 00f1 DF05     		.uleb128 .LEHB40-.LFB1356
 1407 00f3 05       		.uleb128 .LEHE40-.LEHB40
 1408 00f4 00       		.uleb128 0
 1409 00f5 00       		.uleb128 0
 1410              	.LLSDACSE1356:
 1411 00f6 03       		.byte	0x3
 1412 00f7 00       		.byte	0
 1413 00f8 02       		.byte	0x2
 1414 00f9 7D       		.byte	0x7d
 1415 00fa 01       		.byte	0x1
 1416 00fb 7D       		.byte	0x7d
 1417 00fc 00       		.byte	0
 1418 00fd 7D       		.byte	0x7d
 1419 00fe 0000     		.align 4
 1420 0100 00000000 		.long	0
 1421              	
 1422 0104 00000000 		.long	_ZTISt9exception
 1423 0108 00000000 		.long	_ZTIN8UnitTest15AssertExceptionE
 1424              	.LLSDATT1356:
 1425              		.text
 1427              		.section	.rodata
 1428              	.LC14:
 1429 0279 00       		.string	""
 1430              	.LC15:
 1431 027a 6D657373 		.string	"message"
 1431      61676500 
 1432              	.LC17:
 1433 0282 6F757470 		.string	"output.str().empty()"
 1433      75742E73 
 1433      74722829 
 1433      2E656D70 
 1433      74792829 
 1434              	.LC18:
 1435 0297 216F7574 		.string	"!output.str().empty()"
 1435      7075742E 
 1435      73747228 
 1435      292E656D 
 1435      70747928 
 1436 02ad 000000   		.align 8
 1437              	.LC19:
 1438 02b0 556E6861 		.string	"Unhandled exception in CHECK(output.str().empty())"
 1438      6E646C65 
 1438      64206578 
 1438      63657074 
 1438      696F6E20 
 1439 02e3 00000000 		.align 8
 1439      00
 1440              	.LC20:
 1441 02e8 556E6861 		.string	"Unhandled exception in CHECK(!output.str().empty())"
 1441      6E646C65 
 1441      64206578 
 1441      63657074 
 1441      696F6E20 
 1442              		.text
 1443 096b 90       		.align 2
 1445              	_ZN12_GLOBAL__N_168XmlTestReporterFixtureOutputIsCachedUntilReportSummaryIsCalledHelper7RunImplEv:
 1446              	.LFB1360:
  56:TestXmlTestReporter.cpp **** {
 1447              		.loc 3 56 0 is_stmt 1
 1448              		.cfi_startproc
 1449              		.cfi_personality 0x3,__gxx_personality_v0
 1450              		.cfi_lsda 0x3,.LLSDA1360
 1451 096c 55       		pushq	%rbp
 1452              		.cfi_def_cfa_offset 16
 1453              		.cfi_offset 6, -16
 1454 096d 4889E5   		movq	%rsp, %rbp
 1455              		.cfi_def_cfa_register 6
 1456 0970 53       		pushq	%rbx
 1457 0971 4881EC88 		subq	$136, %rsp
 1457      000000
 1458              		.cfi_offset 3, -24
 1459 0978 4889BD78 		movq	%rdi, -136(%rbp)
 1459      FFFFFF
 1460              		.loc 3 56 0
 1461 097f 64488B04 		movq	%fs:40, %rax
 1461      25280000 
 1461      00
 1462 0988 488945E8 		movq	%rax, -24(%rbp)
 1463 098c 31C0     		xorl	%eax, %eax
 1464              	.LBB39:
  57:TestXmlTestReporter.cpp ****     TestDetails const details("", "", "", 0);
 1465              		.loc 3 57 0
 1466 098e 488D45A0 		leaq	-96(%rbp), %rax
 1467 0992 41B80000 		movl	$0, %r8d
 1467      0000
 1468 0998 B9000000 		movl	$.LC14, %ecx
 1468      00
 1469 099d BA000000 		movl	$.LC14, %edx
 1469      00
 1470 09a2 BE000000 		movl	$.LC14, %esi
 1470      00
 1471 09a7 4889C7   		movq	%rax, %rdi
 1472              	.LEHB41:
 1473 09aa E8000000 		call	_ZN8UnitTest11TestDetailsC1EPKcS2_S2_i
 1473      00
  58:TestXmlTestReporter.cpp **** 
  59:TestXmlTestReporter.cpp ****     reporter.ReportTestStart(details);
 1474              		.loc 3 59 0
 1475 09af 488B8578 		movq	-136(%rbp), %rax
 1475      FFFFFF
 1476 09b6 488D9060 		leaq	352(%rax), %rdx
 1476      010000
 1477 09bd 488D45A0 		leaq	-96(%rbp), %rax
 1478 09c1 4889C6   		movq	%rax, %rsi
 1479 09c4 4889D7   		movq	%rdx, %rdi
 1480 09c7 E8000000 		call	_ZN8UnitTest20DeferredTestReporter15ReportTestStartERKNS_11TestDetailsE
 1480      00
  60:TestXmlTestReporter.cpp ****     reporter.ReportFailure(details, "message");
 1481              		.loc 3 60 0
 1482 09cc 488B8578 		movq	-136(%rbp), %rax
 1482      FFFFFF
 1483 09d3 488D8860 		leaq	352(%rax), %rcx
 1483      010000
 1484 09da 488D45A0 		leaq	-96(%rbp), %rax
 1485 09de BA000000 		movl	$.LC15, %edx
 1485      00
 1486 09e3 4889C6   		movq	%rax, %rsi
 1487 09e6 4889CF   		movq	%rcx, %rdi
 1488 09e9 E8000000 		call	_ZN8UnitTest20DeferredTestReporter13ReportFailureERKNS_11TestDetailsEPKc
 1488      00
  61:TestXmlTestReporter.cpp ****     reporter.ReportTestFinish(details, 1.0F);
 1489              		.loc 3 61 0
 1490 09ee 488B8578 		movq	-136(%rbp), %rax
 1490      FFFFFF
 1491 09f5 488D9060 		leaq	352(%rax), %rdx
 1491      010000
 1492 09fc 488D45A0 		leaq	-96(%rbp), %rax
 1493 0a00 F30F1005 		movss	.LC16(%rip), %xmm0
 1493      00000000 
 1494 0a08 4889C6   		movq	%rax, %rsi
 1495 0a0b 4889D7   		movq	%rdx, %rdi
 1496 0a0e E8000000 		call	_ZN8UnitTest20DeferredTestReporter16ReportTestFinishERKNS_11TestDetailsEf
 1496      00
 1497              	.LEHE41:
  62:TestXmlTestReporter.cpp ****     CHECK(output.str().empty());
 1498              		.loc 3 62 0
 1499 0a13 488B9578 		movq	-136(%rbp), %rdx
 1499      FFFFFF
 1500 0a1a 488D4580 		leaq	-128(%rbp), %rax
 1501 0a1e 4889D6   		movq	%rdx, %rsi
 1502 0a21 4889C7   		movq	%rax, %rdi
 1503              	.LEHB42:
 1504 0a24 E8000000 		call	_ZNKSt19basic_ostringstreamIcSt11char_traitsIcESaIcEE3strEv
 1504      00
 1505              	.LEHE42:
 1506              		.loc 3 62 0 is_stmt 0 discriminator 1
 1507 0a29 488D4580 		leaq	-128(%rbp), %rax
 1508 0a2d 4889C7   		movq	%rax, %rdi
 1509              	.LEHB43:
 1510 0a30 E8000000 		call	_ZNKSs5emptyEv
 1510      00
 1511              	.LEHE43:
 1512 0a35 0FB6C0   		movzbl	%al, %eax
 1513 0a38 89C7     		movl	%eax, %edi
 1514 0a3a E8000000 		call	_ZN8UnitTest5CheckIbEEbT_
 1514      00
 1515 0a3f 83F001   		xorl	$1, %eax
 1516 0a42 89C3     		movl	%eax, %ebx
 1517 0a44 488D4580 		leaq	-128(%rbp), %rax
 1518 0a48 4889C7   		movq	%rax, %rdi
 1519              	.LEHB44:
 1520 0a4b E8000000 		call	_ZNSsD1Ev
 1520      00
 1521              		.loc 3 62 0 discriminator 4
 1522 0a50 84DB     		testb	%bl, %bl
 1523 0a52 7438     		je	.L81
 1524              		.loc 3 62 0 discriminator 5
 1525 0a54 E8000000 		call	_ZN8UnitTest11CurrentTest7DetailsEv
 1525      00
 1526 0a59 488B08   		movq	(%rax), %rcx
 1527 0a5c 488D45C0 		leaq	-64(%rbp), %rax
 1528 0a60 BA3E0000 		movl	$62, %edx
 1528      00
 1529 0a65 4889CE   		movq	%rcx, %rsi
 1530 0a68 4889C7   		movq	%rax, %rdi
 1531 0a6b E8000000 		call	_ZN8UnitTest11TestDetailsC1ERKS0_i
 1531      00
 1532              		.loc 3 62 0 discriminator 7
 1533 0a70 E8000000 		call	_ZN8UnitTest11CurrentTest7ResultsEv
 1533      00
 1534 0a75 488B00   		movq	(%rax), %rax
 1535 0a78 488D4DC0 		leaq	-64(%rbp), %rcx
 1536 0a7c BA000000 		movl	$.LC17, %edx
 1536      00
 1537 0a81 4889CE   		movq	%rcx, %rsi
 1538 0a84 4889C7   		movq	%rax, %rdi
 1539 0a87 E8000000 		call	_ZN8UnitTest11TestResults13OnTestFailureERKNS_11TestDetailsEPKc
 1539      00
 1540              	.LEHE44:
 1541              	.L81:
  63:TestXmlTestReporter.cpp **** 
  64:TestXmlTestReporter.cpp ****     reporter.ReportSummary(1, 1, 1, 1.0f);
 1542              		.loc 3 64 0 is_stmt 1
 1543 0a8c 488B8578 		movq	-136(%rbp), %rax
 1543      FFFFFF
 1544 0a93 48056001 		addq	$352, %rax
 1544      0000
 1545 0a99 F30F1005 		movss	.LC16(%rip), %xmm0
 1545      00000000 
 1546 0aa1 B9010000 		movl	$1, %ecx
 1546      00
 1547 0aa6 BA010000 		movl	$1, %edx
 1547      00
 1548 0aab BE010000 		movl	$1, %esi
 1548      00
 1549 0ab0 4889C7   		movq	%rax, %rdi
 1550              	.LEHB45:
 1551 0ab3 E8000000 		call	_ZN8UnitTest15XmlTestReporter13ReportSummaryEiiif
 1551      00
 1552              	.LEHE45:
  65:TestXmlTestReporter.cpp ****     CHECK(!output.str().empty());
 1553              		.loc 3 65 0
 1554 0ab8 488B9578 		movq	-136(%rbp), %rdx
 1554      FFFFFF
 1555 0abf 488D4590 		leaq	-112(%rbp), %rax
 1556 0ac3 4889D6   		movq	%rdx, %rsi
 1557 0ac6 4889C7   		movq	%rax, %rdi
 1558              	.LEHB46:
 1559 0ac9 E8000000 		call	_ZNKSt19basic_ostringstreamIcSt11char_traitsIcESaIcEE3strEv
 1559      00
 1560              	.LEHE46:
 1561              		.loc 3 65 0 is_stmt 0 discriminator 1
 1562 0ace 488D4590 		leaq	-112(%rbp), %rax
 1563 0ad2 4889C7   		movq	%rax, %rdi
 1564              	.LEHB47:
 1565 0ad5 E8000000 		call	_ZNKSs5emptyEv
 1565      00
 1566              	.LEHE47:
 1567 0ada 83F001   		xorl	$1, %eax
 1568 0add 0FB6C0   		movzbl	%al, %eax
 1569 0ae0 89C7     		movl	%eax, %edi
 1570 0ae2 E8000000 		call	_ZN8UnitTest5CheckIbEEbT_
 1570      00
 1571 0ae7 83F001   		xorl	$1, %eax
 1572 0aea 89C3     		movl	%eax, %ebx
 1573 0aec 488D4590 		leaq	-112(%rbp), %rax
 1574 0af0 4889C7   		movq	%rax, %rdi
 1575              	.LEHB48:
 1576 0af3 E8000000 		call	_ZNSsD1Ev
 1576      00
 1577              		.loc 3 65 0 discriminator 4
 1578 0af8 84DB     		testb	%bl, %bl
 1579 0afa 0F841B01 		je	.L80
 1579      0000
 1580              		.loc 3 65 0 discriminator 5
 1581 0b00 E8000000 		call	_ZN8UnitTest11CurrentTest7DetailsEv
 1581      00
 1582 0b05 488B08   		movq	(%rax), %rcx
 1583 0b08 488D45C0 		leaq	-64(%rbp), %rax
 1584 0b0c BA410000 		movl	$65, %edx
 1584      00
 1585 0b11 4889CE   		movq	%rcx, %rsi
 1586 0b14 4889C7   		movq	%rax, %rdi
 1587 0b17 E8000000 		call	_ZN8UnitTest11TestDetailsC1ERKS0_i
 1587      00
 1588              		.loc 3 65 0 discriminator 7
 1589 0b1c E8000000 		call	_ZN8UnitTest11CurrentTest7ResultsEv
 1589      00
 1590 0b21 488B00   		movq	(%rax), %rax
 1591 0b24 488D4DC0 		leaq	-64(%rbp), %rcx
 1592 0b28 BA000000 		movl	$.LC18, %edx
 1592      00
 1593 0b2d 4889CE   		movq	%rcx, %rsi
 1594 0b30 4889C7   		movq	%rax, %rdi
 1595 0b33 E8000000 		call	_ZN8UnitTest11TestResults13OnTestFailureERKNS_11TestDetailsEPKc
 1595      00
 1596              	.LEHE48:
 1597 0b38 E9DE0000 		jmp	.L80
 1597      00
 1598              	.L91:
 1599 0b3d 4889C3   		movq	%rax, %rbx
  62:TestXmlTestReporter.cpp ****     CHECK(output.str().empty());
 1600              		.loc 3 62 0 is_stmt 1
 1601 0b40 488D4580 		leaq	-128(%rbp), %rax
 1602 0b44 4889C7   		movq	%rax, %rdi
 1603 0b47 E8000000 		call	_ZNSsD1Ev
 1603      00
 1604 0b4c 4889D8   		movq	%rbx, %rax
 1605 0b4f EB13     		jmp	.L84
 1606              	.L92:
 1607 0b51 4889C3   		movq	%rax, %rbx
 1608 0b54 E8000000 		call	__cxa_end_catch
 1608      00
 1609 0b59 4889D8   		movq	%rbx, %rax
 1610 0b5c 4889C7   		movq	%rax, %rdi
 1611              	.LEHB49:
 1612 0b5f E8000000 		call	_Unwind_Resume
 1612      00
 1613              	.LEHE49:
 1614              	.L90:
 1615              	.L84:
 1616 0b64 4889C7   		movq	%rax, %rdi
 1617 0b67 E8000000 		call	__cxa_begin_catch
 1617      00
 1618              	.LEHB50:
 1619 0b6c E8000000 		call	_ZN8UnitTest11CurrentTest7DetailsEv
 1619      00
 1620 0b71 488B08   		movq	(%rax), %rcx
 1621 0b74 488D45C0 		leaq	-64(%rbp), %rax
 1622 0b78 BA3E0000 		movl	$62, %edx
 1622      00
 1623 0b7d 4889CE   		movq	%rcx, %rsi
 1624 0b80 4889C7   		movq	%rax, %rdi
 1625 0b83 E8000000 		call	_ZN8UnitTest11TestDetailsC1ERKS0_i
 1625      00
  62:TestXmlTestReporter.cpp ****     CHECK(output.str().empty());
 1626              		.loc 3 62 0 is_stmt 0 discriminator 15
 1627 0b88 E8000000 		call	_ZN8UnitTest11CurrentTest7ResultsEv
 1627      00
 1628 0b8d 488B00   		movq	(%rax), %rax
 1629 0b90 488D4DC0 		leaq	-64(%rbp), %rcx
 1630 0b94 BA000000 		movl	$.LC19, %edx
 1630      00
 1631 0b99 4889CE   		movq	%rcx, %rsi
 1632 0b9c 4889C7   		movq	%rax, %rdi
 1633 0b9f E8000000 		call	_ZN8UnitTest11TestResults13OnTestFailureERKNS_11TestDetailsEPKc
 1633      00
 1634              	.LEHE50:
 1635              	.LEHB51:
  62:TestXmlTestReporter.cpp ****     CHECK(output.str().empty());
 1636              		.loc 3 62 0 discriminator 19
 1637 0ba4 E8000000 		call	__cxa_end_catch
 1637      00
 1638              	.LEHE51:
 1639 0ba9 E9DEFEFF 		jmp	.L81
 1639      FF
 1640              	.L94:
 1641 0bae 4889C3   		movq	%rax, %rbx
 1642              		.loc 3 65 0 is_stmt 1
 1643 0bb1 488D4590 		leaq	-112(%rbp), %rax
 1644 0bb5 4889C7   		movq	%rax, %rdi
 1645 0bb8 E8000000 		call	_ZNSsD1Ev
 1645      00
 1646 0bbd 4889D8   		movq	%rbx, %rax
 1647 0bc0 EB13     		jmp	.L87
 1648              	.L95:
 1649 0bc2 4889C3   		movq	%rax, %rbx
 1650 0bc5 E8000000 		call	__cxa_end_catch
 1650      00
 1651 0bca 4889D8   		movq	%rbx, %rax
 1652 0bcd 4889C7   		movq	%rax, %rdi
 1653              	.LEHB52:
 1654 0bd0 E8000000 		call	_Unwind_Resume
 1654      00
 1655              	.LEHE52:
 1656              	.L93:
 1657              	.L87:
 1658 0bd5 4889C7   		movq	%rax, %rdi
 1659 0bd8 E8000000 		call	__cxa_begin_catch
 1659      00
 1660              	.LEHB53:
 1661 0bdd E8000000 		call	_ZN8UnitTest11CurrentTest7DetailsEv
 1661      00
 1662 0be2 488B08   		movq	(%rax), %rcx
 1663 0be5 488D45C0 		leaq	-64(%rbp), %rax
 1664 0be9 BA410000 		movl	$65, %edx
 1664      00
 1665 0bee 4889CE   		movq	%rcx, %rsi
 1666 0bf1 4889C7   		movq	%rax, %rdi
 1667 0bf4 E8000000 		call	_ZN8UnitTest11TestDetailsC1ERKS0_i
 1667      00
 1668              		.loc 3 65 0 is_stmt 0 discriminator 15
 1669 0bf9 E8000000 		call	_ZN8UnitTest11CurrentTest7ResultsEv
 1669      00
 1670 0bfe 488B00   		movq	(%rax), %rax
 1671 0c01 488D4DC0 		leaq	-64(%rbp), %rcx
 1672 0c05 BA000000 		movl	$.LC20, %edx
 1672      00
 1673 0c0a 4889CE   		movq	%rcx, %rsi
 1674 0c0d 4889C7   		movq	%rax, %rdi
 1675 0c10 E8000000 		call	_ZN8UnitTest11TestResults13OnTestFailureERKNS_11TestDetailsEPKc
 1675      00
 1676              	.LEHE53:
 1677              	.LEHB54:
 1678              		.loc 3 65 0 discriminator 19
 1679 0c15 E8000000 		call	__cxa_end_catch
 1679      00
 1680              	.LEHE54:
 1681              	.LBE39:
  66:TestXmlTestReporter.cpp **** }
 1682              		.loc 3 66 0 is_stmt 1 discriminator 19
 1683 0c1a 90       		nop
 1684              	.L80:
 1685              		.loc 3 66 0 is_stmt 0
 1686 0c1b 488B45E8 		movq	-24(%rbp), %rax
 1687 0c1f 64483304 		xorq	%fs:40, %rax
 1687      25280000 
 1687      00
 1688 0c28 7405     		je	.L89
 1689 0c2a E8000000 		call	__stack_chk_fail
 1689      00
 1690              	.L89:
 1691 0c2f 4881C488 		addq	$136, %rsp
 1691      000000
 1692 0c36 5B       		popq	%rbx
 1693 0c37 5D       		popq	%rbp
 1694              		.cfi_def_cfa 7, 8
 1695 0c38 C3       		ret
 1696              		.cfi_endproc
 1697              	.LFE1360:
 1698              		.section	.gcc_except_table
 1699              		.align 4
 1700              	.LLSDA1360:
 1701 010c FF       		.byte	0xff
 1702 010d 03       		.byte	0x3
 1703 010e 59       		.uleb128 .LLSDATT1360-.LLSDATTD1360
 1704              	.LLSDATTD1360:
 1705 010f 01       		.byte	0x1
 1706 0110 4D       		.uleb128 .LLSDACSE1360-.LLSDACSB1360
 1707              	.LLSDACSB1360:
 1708 0111 3E       		.uleb128 .LEHB41-.LFB1360
 1709 0112 69       		.uleb128 .LEHE41-.LEHB41
 1710 0113 00       		.uleb128 0
 1711 0114 00       		.uleb128 0
 1712 0115 B801     		.uleb128 .LEHB42-.LFB1360
 1713 0117 05       		.uleb128 .LEHE42-.LEHB42
 1714 0118 F803     		.uleb128 .L90-.LFB1360
 1715 011a 01       		.uleb128 0x1
 1716 011b C401     		.uleb128 .LEHB43-.LFB1360
 1717 011d 05       		.uleb128 .LEHE43-.LEHB43
 1718 011e D103     		.uleb128 .L91-.LFB1360
 1719 0120 03       		.uleb128 0x3
 1720 0121 DF01     		.uleb128 .LEHB44-.LFB1360
 1721 0123 41       		.uleb128 .LEHE44-.LEHB44
 1722 0124 F803     		.uleb128 .L90-.LFB1360
 1723 0126 01       		.uleb128 0x1
 1724 0127 C702     		.uleb128 .LEHB45-.LFB1360
 1725 0129 05       		.uleb128 .LEHE45-.LEHB45
 1726 012a 00       		.uleb128 0
 1727 012b 00       		.uleb128 0
 1728 012c DD02     		.uleb128 .LEHB46-.LFB1360
 1729 012e 05       		.uleb128 .LEHE46-.LEHB46
 1730 012f E904     		.uleb128 .L93-.LFB1360
 1731 0131 01       		.uleb128 0x1
 1732 0132 E902     		.uleb128 .LEHB47-.LFB1360
 1733 0134 05       		.uleb128 .LEHE47-.LEHB47
 1734 0135 C204     		.uleb128 .L94-.LFB1360
 1735 0137 03       		.uleb128 0x3
 1736 0138 8703     		.uleb128 .LEHB48-.LFB1360
 1737 013a 45       		.uleb128 .LEHE48-.LEHB48
 1738 013b E904     		.uleb128 .L93-.LFB1360
 1739 013d 01       		.uleb128 0x1
 1740 013e F303     		.uleb128 .LEHB49-.LFB1360
 1741 0140 05       		.uleb128 .LEHE49-.LEHB49
 1742 0141 00       		.uleb128 0
 1743 0142 00       		.uleb128 0
 1744 0143 8004     		.uleb128 .LEHB50-.LFB1360
 1745 0145 38       		.uleb128 .LEHE50-.LEHB50
 1746 0146 E503     		.uleb128 .L92-.LFB1360
 1747 0148 00       		.uleb128 0
 1748 0149 B804     		.uleb128 .LEHB51-.LFB1360
 1749 014b 05       		.uleb128 .LEHE51-.LEHB51
 1750 014c 00       		.uleb128 0
 1751 014d 00       		.uleb128 0
 1752 014e E404     		.uleb128 .LEHB52-.LFB1360
 1753 0150 05       		.uleb128 .LEHE52-.LEHB52
 1754 0151 00       		.uleb128 0
 1755 0152 00       		.uleb128 0
 1756 0153 F104     		.uleb128 .LEHB53-.LFB1360
 1757 0155 38       		.uleb128 .LEHE53-.LEHB53
 1758 0156 D604     		.uleb128 .L95-.LFB1360
 1759 0158 00       		.uleb128 0
 1760 0159 A905     		.uleb128 .LEHB54-.LFB1360
 1761 015b 05       		.uleb128 .LEHE54-.LEHB54
 1762 015c 00       		.uleb128 0
 1763 015d 00       		.uleb128 0
 1764              	.LLSDACSE1360:
 1765 015e 01       		.byte	0x1
 1766 015f 00       		.byte	0
 1767 0160 00       		.byte	0
 1768 0161 7D       		.byte	0x7d
 1769 0162 0000     		.align 4
 1770 0164 00000000 		.long	0
 1771              	
 1772              	.LLSDATT1360:
 1773              		.text
 1775 0c39 90       		.align 2
 1777              	_ZN12_GLOBAL__N_152XmlTestReporterFixtureEmptyReportSummaryFormatHelperC2ERKN8UnitTest11TestDetails
 1778              	.LFB1362:
  67:TestXmlTestReporter.cpp **** 
  68:TestXmlTestReporter.cpp **** TEST_FIXTURE(XmlTestReporterFixture, EmptyReportSummaryFormat)
 1779              		.loc 3 68 0 is_stmt 1
 1780              		.cfi_startproc
 1781 0c3a 55       		pushq	%rbp
 1782              		.cfi_def_cfa_offset 16
 1783              		.cfi_offset 6, -16
 1784 0c3b 4889E5   		movq	%rsp, %rbp
 1785              		.cfi_def_cfa_register 6
 1786 0c3e 4883EC10 		subq	$16, %rsp
 1787 0c42 48897DF8 		movq	%rdi, -8(%rbp)
 1788 0c46 488975F0 		movq	%rsi, -16(%rbp)
 1789              	.LBB40:
 1790              		.loc 3 68 0
 1791 0c4a 488B45F8 		movq	-8(%rbp), %rax
 1792 0c4e 4889C7   		movq	%rax, %rdi
 1793 0c51 E8AAF3FF 		call	_ZN12_GLOBAL__N_122XmlTestReporterFixtureC2Ev
 1793      FF
 1794 0c56 488B45F8 		movq	-8(%rbp), %rax
 1795 0c5a 488B55F0 		movq	-16(%rbp), %rdx
 1796 0c5e 48899088 		movq	%rdx, 392(%rax)
 1796      010000
 1797              	.LBE40:
 1798 0c65 C9       		leave
 1799              		.cfi_def_cfa 7, 8
 1800 0c66 C3       		ret
 1801              		.cfi_endproc
 1802              	.LFE1362:
 1804              		.section	.rodata
 1805              	.LC21:
 1806 031c 456D7074 		.string	"EmptyReportSummaryFormat"
 1806      79526570 
 1806      6F727453 
 1806      756D6D61 
 1806      7279466F 
 1807              		.text
 1808 0c67 90       		.align 2
 1810              	_ZN12_GLOBAL__N_150TestXmlTestReporterFixtureEmptyReportSummaryFormatC2Ev:
 1811              	.LFB1365:
 1812              		.loc 3 68 0
 1813              		.cfi_startproc
 1814 0c68 55       		pushq	%rbp
 1815              		.cfi_def_cfa_offset 16
 1816              		.cfi_offset 6, -16
 1817 0c69 4889E5   		movq	%rsp, %rbp
 1818              		.cfi_def_cfa_register 6
 1819 0c6c 4883EC10 		subq	$16, %rsp
 1820 0c70 48897DF8 		movq	%rdi, -8(%rbp)
 1821              	.LBB41:
 1822              		.loc 3 68 0
 1823 0c74 E8000000 		call	_ZN13UnitTestSuite12GetSuiteNameEv
 1823      00
 1824 0c79 4889C2   		movq	%rax, %rdx
 1825 0c7c 488B45F8 		movq	-8(%rbp), %rax
 1826 0c80 41B84400 		movl	$68, %r8d
 1826      0000
 1827 0c86 B9000000 		movl	$.LC1, %ecx
 1827      00
 1828 0c8b BE000000 		movl	$.LC21, %esi
 1828      00
 1829 0c90 4889C7   		movq	%rax, %rdi
 1830 0c93 E8000000 		call	_ZN8UnitTest4TestC2EPKcS2_S2_i
 1830      00
 1831 0c98 488B45F8 		movq	-8(%rbp), %rax
 1832 0c9c 48C70000 		movq	$_ZTVN12_GLOBAL__N_150TestXmlTestReporterFixtureEmptyReportSummaryFormatE+16, (%rax)
 1832      000000
 1833              	.LBE41:
 1834 0ca3 C9       		leave
 1835              		.cfi_def_cfa 7, 8
 1836 0ca4 C3       		ret
 1837              		.cfi_endproc
 1838              	.LFE1365:
 1840              		.local	_ZN12_GLOBAL__N_158testXmlTestReporterFixtureEmptyReportSummaryFormatInstanceE
 1841              		.comm	_ZN12_GLOBAL__N_158testXmlTestReporterFixtureEmptyReportSummaryFormatInstanceE,56,32
 1842              		.local	_ZN12_GLOBAL__N_151adderXmlTestReporterFixtureEmptyReportSummaryFormatE
 1843              		.comm	_ZN12_GLOBAL__N_151adderXmlTestReporterFixtureEmptyReportSummaryFormatE,1,1
 1844 0ca5 90       		.align 2
 1846              	_ZN12_GLOBAL__N_152XmlTestReporterFixtureEmptyReportSummaryFormatHelperD2Ev:
 1847              	.LFB1369:
 1848              		.loc 3 68 0
 1849              		.cfi_startproc
 1850 0ca6 55       		pushq	%rbp
 1851              		.cfi_def_cfa_offset 16
 1852              		.cfi_offset 6, -16
 1853 0ca7 4889E5   		movq	%rsp, %rbp
 1854              		.cfi_def_cfa_register 6
 1855 0caa 4883EC10 		subq	$16, %rsp
 1856 0cae 48897DF8 		movq	%rdi, -8(%rbp)
 1857              	.LBB42:
 1858              		.loc 3 68 0
 1859 0cb2 488B45F8 		movq	-8(%rbp), %rax
 1860 0cb6 4889C7   		movq	%rax, %rdi
 1861 0cb9 E89EF3FF 		call	_ZN12_GLOBAL__N_122XmlTestReporterFixtureD2Ev
 1861      FF
 1862              	.LBE42:
 1863 0cbe C9       		leave
 1864              		.cfi_def_cfa 7, 8
 1865 0cbf C3       		ret
 1866              		.cfi_endproc
 1867              	.LFE1369:
 1869              		.align 2
 1871              	_ZNK12_GLOBAL__N_150TestXmlTestReporterFixtureEmptyReportSummaryFormat7RunImplEv:
 1872              	.LFB1367:
 1873              		.loc 3 68 0
 1874              		.cfi_startproc
 1875              		.cfi_personality 0x3,__gxx_personality_v0
 1876              		.cfi_lsda 0x3,.LLSDA1367
 1877 0cc0 55       		pushq	%rbp
 1878              		.cfi_def_cfa_offset 16
 1879              		.cfi_offset 6, -16
 1880 0cc1 4889E5   		movq	%rsp, %rbp
 1881              		.cfi_def_cfa_register 6
 1882 0cc4 4154     		pushq	%r12
 1883 0cc6 53       		pushq	%rbx
 1884 0cc7 4881ECF0 		subq	$496, %rsp
 1884      010000
 1885              		.cfi_offset 12, -24
 1886              		.cfi_offset 3, -32
 1887 0cce 4889BD08 		movq	%rdi, -504(%rbp)
 1887      FEFFFF
 1888              		.loc 3 68 0
 1889 0cd5 64488B04 		movq	%fs:40, %rax
 1889      25280000 
 1889      00
 1890 0cde 488945E8 		movq	%rax, -24(%rbp)
 1891 0ce2 31C0     		xorl	%eax, %eax
 1892              	.LBB43:
 1893 0ce4 C6851FFE 		movb	$0, -481(%rbp)
 1893      FFFF00
 1894              	.LBB44:
 1895 0ceb 488B8508 		movq	-504(%rbp), %rax
 1895      FEFFFF
 1896 0cf2 488D5008 		leaq	8(%rax), %rdx
 1897 0cf6 488D8550 		leaq	-432(%rbp), %rax
 1897      FEFFFF
 1898 0cfd 4889D6   		movq	%rdx, %rsi
 1899 0d00 4889C7   		movq	%rax, %rdi
 1900              	.LEHB55:
 1901 0d03 E832FFFF 		call	_ZN12_GLOBAL__N_152XmlTestReporterFixtureEmptyReportSummaryFormatHelperC2ERKN8UnitTest11TestD
 1901      FF
 1902              	.LEHE55:
 1903              		.loc 3 68 0 is_stmt 0 discriminator 1
 1904 0d08 C6851FFE 		movb	$1, -481(%rbp)
 1904      FFFF01
 1905 0d0f 488B8508 		movq	-504(%rbp), %rax
 1905      FEFFFF
 1906 0d16 488D5008 		leaq	8(%rax), %rdx
 1907 0d1a 488D8550 		leaq	-432(%rbp), %rax
 1907      FEFFFF
 1908 0d21 4889D6   		movq	%rdx, %rsi
 1909 0d24 4889C7   		movq	%rax, %rdi
 1910              	.LEHB56:
 1911 0d27 E8EB2300 		call	_ZN8UnitTest11ExecuteTestIN12_GLOBAL__N_152XmlTestReporterFixtureEmptyReportSummaryFormatHelp
 1911      00
 1912              	.LEHE56:
 1913              		.loc 3 68 0 discriminator 3
 1914 0d2c 488D8550 		leaq	-432(%rbp), %rax
 1914      FEFFFF
 1915 0d33 4889C7   		movq	%rax, %rdi
 1916              	.LEHB57:
 1917 0d36 E86BFFFF 		call	_ZN12_GLOBAL__N_152XmlTestReporterFixtureEmptyReportSummaryFormatHelperD2Ev
 1917      FF
 1918              	.LEHE57:
 1919              	.LBE44:
 1920              	.LBE43:
 1921              		.loc 3 68 0
 1922 0d3b E9640200 		jmp	.L121
 1922      00
 1923              	.L115:
 1924 0d40 4989C4   		movq	%rax, %r12
 1925 0d43 4889D3   		movq	%rdx, %rbx
 1926              	.LBB52:
 1927              	.LBB45:
 1928 0d46 488D8550 		leaq	-432(%rbp), %rax
 1928      FEFFFF
 1929 0d4d 4889C7   		movq	%rax, %rdi
 1930 0d50 E851FFFF 		call	_ZN12_GLOBAL__N_152XmlTestReporterFixtureEmptyReportSummaryFormatHelperD2Ev
 1930      FF
 1931 0d55 4C89E0   		movq	%r12, %rax
 1932 0d58 4889DA   		movq	%rbx, %rdx
 1933 0d5b EB00     		jmp	.L102
 1934              	.L114:
 1935              	.L102:
 1936 0d5d 4883FA01 		cmpq	$1, %rdx
 1937 0d61 745C     		je	.L104
 1938 0d63 4883FA02 		cmpq	$2, %rdx
 1939 0d67 0F84F400 		je	.L105
 1939      0000
 1940 0d6d E9980100 		jmp	.L120
 1940      00
 1941              	.L116:
 1942 0d72 4889C3   		movq	%rax, %rbx
 1943              	.LBE45:
 1944              	.LBB46:
 1945 0d75 E8000000 		call	__cxa_end_catch
 1945      00
 1946 0d7a 4889D8   		movq	%rbx, %rax
 1947 0d7d 4889C7   		movq	%rax, %rdi
 1948              	.LEHB58:
 1949 0d80 E8000000 		call	_Unwind_Resume
 1949      00
 1950              	.LEHE58:
 1951              	.L117:
 1952 0d85 4889C3   		movq	%rax, %rbx
 1953              	.LBE46:
 1954              	.LBB47:
 1955              	.LBB48:
 1956 0d88 488D8550 		leaq	-432(%rbp), %rax
 1956      FEFFFF
 1957 0d8f 4889C7   		movq	%rax, %rdi
 1958 0d92 E8000000 		call	_ZN8UnitTest15MemoryOutStreamD1Ev
 1958      00
 1959 0d97 EB03     		jmp	.L108
 1960              	.L118:
 1961 0d99 4889C3   		movq	%rax, %rbx
 1962              	.L108:
 1963              	.LBE48:
 1964 0d9c E8000000 		call	__cxa_end_catch
 1964      00
 1965 0da1 4889D8   		movq	%rbx, %rax
 1966 0da4 4889C7   		movq	%rax, %rdi
 1967              	.LEHB59:
 1968 0da7 E8000000 		call	_Unwind_Resume
 1968      00
 1969              	.LEHE59:
 1970              	.L119:
 1971 0dac 4889C3   		movq	%rax, %rbx
 1972              	.LBE47:
 1973 0daf E8000000 		call	__cxa_end_catch
 1973      00
 1974 0db4 4889D8   		movq	%rbx, %rax
 1975 0db7 4889C7   		movq	%rax, %rdi
 1976              	.LEHB60:
 1977 0dba E8000000 		call	_Unwind_Resume
 1977      00
 1978              	.LEHE60:
 1979              	.L104:
 1980              	.LBB50:
 1981 0dbf 4889C7   		movq	%rax, %rdi
 1982 0dc2 E8000000 		call	__cxa_begin_catch
 1982      00
 1983 0dc7 48898520 		movq	%rax, -480(%rbp)
 1983      FEFFFF
 1984 0dce 488B8520 		movq	-480(%rbp), %rax
 1984      FEFFFF
 1985 0dd5 488B00   		movq	(%rax), %rax
 1986 0dd8 4883C010 		addq	$16, %rax
 1987 0ddc 488B00   		movq	(%rax), %rax
 1988 0ddf 488B9520 		movq	-480(%rbp), %rdx
 1988      FEFFFF
 1989 0de6 4889D7   		movq	%rdx, %rdi
 1990 0de9 FFD0     		call	*%rax
 1991 0deb 4889C3   		movq	%rax, %rbx
 1992 0dee 488B8520 		movq	-480(%rbp), %rax
 1992      FEFFFF
 1993 0df5 4889C7   		movq	%rax, %rdi
 1994              	.LEHB61:
 1995 0df8 E8000000 		call	_ZNK8UnitTest15AssertException10LineNumberEv
 1995      00
 1996 0dfd 4189C4   		movl	%eax, %r12d
 1997 0e00 488B8520 		movq	-480(%rbp), %rax
 1997      FEFFFF
 1998 0e07 4889C7   		movq	%rax, %rdi
 1999 0e0a E8000000 		call	_ZNK8UnitTest15AssertException8FilenameEv
 1999      00
 2000              		.loc 3 68 0 discriminator 5
 2001 0e0f 4889C1   		movq	%rax, %rcx
 2002 0e12 488B8508 		movq	-504(%rbp), %rax
 2002      FEFFFF
 2003 0e19 488B5008 		movq	8(%rax), %rdx
 2004 0e1d 488B8508 		movq	-504(%rbp), %rax
 2004      FEFFFF
 2005 0e24 488B7010 		movq	16(%rax), %rsi
 2006 0e28 488D8530 		leaq	-464(%rbp), %rax
 2006      FEFFFF
 2007 0e2f 4589E0   		movl	%r12d, %r8d
 2008 0e32 4889C7   		movq	%rax, %rdi
 2009 0e35 E8000000 		call	_ZN8UnitTest11TestDetailsC1EPKcS2_S2_i
 2009      00
 2010              		.loc 3 68 0 discriminator 9
 2011 0e3a E8000000 		call	_ZN8UnitTest11CurrentTest7ResultsEv
 2011      00
 2012 0e3f 488B00   		movq	(%rax), %rax
 2013 0e42 488D8D30 		leaq	-464(%rbp), %rcx
 2013      FEFFFF
 2014 0e49 4889DA   		movq	%rbx, %rdx
 2015 0e4c 4889CE   		movq	%rcx, %rsi
 2016 0e4f 4889C7   		movq	%rax, %rdi
 2017 0e52 E8000000 		call	_ZN8UnitTest11TestResults13OnTestFailureERKNS_11TestDetailsEPKc
 2017      00
 2018              	.LEHE61:
 2019              		.loc 3 68 0 discriminator 13
 2020 0e57 E8000000 		call	__cxa_end_catch
 2020      00
 2021              	.LBE50:
 2022              	.LBE52:
 2023 0e5c E9430100 		jmp	.L121
 2023      00
 2024              	.L105:
 2025              	.LBB53:
 2026              	.LBB51:
 2027              		.loc 3 68 0
 2028 0e61 4889C7   		movq	%rax, %rdi
 2029 0e64 E8000000 		call	__cxa_begin_catch
 2029      00
 2030 0e69 48898528 		movq	%rax, -472(%rbp)
 2030      FEFFFF
 2031              	.LBB49:
 2032 0e70 488D8550 		leaq	-432(%rbp), %rax
 2032      FEFFFF
 2033 0e77 4889C7   		movq	%rax, %rdi
 2034              	.LEHB62:
 2035 0e7a E8000000 		call	_ZN8UnitTest15MemoryOutStreamC1Ev
 2035      00
 2036              	.LEHE62:
 2037              		.loc 3 68 0 discriminator 15
 2038 0e7f 488B8528 		movq	-472(%rbp), %rax
 2038      FEFFFF
 2039 0e86 488B00   		movq	(%rax), %rax
 2040 0e89 4883C010 		addq	$16, %rax
 2041 0e8d 488B00   		movq	(%rax), %rax
 2042 0e90 488B9528 		movq	-472(%rbp), %rdx
 2042      FEFFFF
 2043 0e97 4889D7   		movq	%rdx, %rdi
 2044 0e9a FFD0     		call	*%rax
 2045 0e9c 4889C3   		movq	%rax, %rbx
 2046 0e9f 488D8550 		leaq	-432(%rbp), %rax
 2046      FEFFFF
 2047 0ea6 BE000000 		movl	$.LC3, %esi
 2047      00
 2048 0eab 4889C7   		movq	%rax, %rdi
 2049              	.LEHB63:
 2050 0eae E8000000 		call	_ZStlsISt11char_traitsIcEERSt13basic_ostreamIcT_ES5_PKc
 2050      00
 2051 0eb3 4889DE   		movq	%rbx, %rsi
 2052 0eb6 4889C7   		movq	%rax, %rdi
 2053 0eb9 E8000000 		call	_ZStlsISt11char_traitsIcEERSt13basic_ostreamIcT_ES5_PKc
 2053      00
 2054              		.loc 3 68 0 discriminator 19
 2055 0ebe 488D8550 		leaq	-432(%rbp), %rax
 2055      FEFFFF
 2056 0ec5 4889C7   		movq	%rax, %rdi
 2057 0ec8 E8000000 		call	_ZNK8UnitTest15MemoryOutStream7GetTextEv
 2057      00
 2058 0ecd 4989C4   		movq	%rax, %r12
 2059 0ed0 488B8508 		movq	-504(%rbp), %rax
 2059      FEFFFF
 2060 0ed7 488D5808 		leaq	8(%rax), %rbx
 2061 0edb E8000000 		call	_ZN8UnitTest11CurrentTest7ResultsEv
 2061      00
 2062              		.loc 3 68 0 discriminator 21
 2063 0ee0 488B00   		movq	(%rax), %rax
 2064 0ee3 4C89E2   		movq	%r12, %rdx
 2065 0ee6 4889DE   		movq	%rbx, %rsi
 2066 0ee9 4889C7   		movq	%rax, %rdi
 2067 0eec E8000000 		call	_ZN8UnitTest11TestResults13OnTestFailureERKNS_11TestDetailsEPKc
 2067      00
 2068              	.LEHE63:
 2069              		.loc 3 68 0 discriminator 25
 2070 0ef1 488D8550 		leaq	-432(%rbp), %rax
 2070      FEFFFF
 2071 0ef8 4889C7   		movq	%rax, %rdi
 2072              	.LEHB64:
 2073 0efb E8000000 		call	_ZN8UnitTest15MemoryOutStreamD1Ev
 2073      00
 2074              	.LEHE64:
 2075              	.LBE49:
 2076              		.loc 3 68 0 discriminator 26
 2077 0f00 E8000000 		call	__cxa_end_catch
 2077      00
 2078              	.LBE51:
 2079              	.LBE53:
 2080 0f05 E99A0000 		jmp	.L121
 2080      00
 2081              	.L120:
 2082              	.LBB54:
 2083              		.loc 3 68 0
 2084 0f0a 4889C7   		movq	%rax, %rdi
 2085 0f0d E8000000 		call	__cxa_begin_catch
 2085      00
 2086 0f12 80BD1FFE 		cmpb	$0, -481(%rbp)
 2086      FFFF00
 2087 0f19 7443     		je	.L111
 2088              		.loc 3 68 0 discriminator 28
 2089 0f1b 488B8508 		movq	-504(%rbp), %rax
 2089      FEFFFF
 2090 0f22 488D4808 		leaq	8(%rax), %rcx
 2091 0f26 488D8530 		leaq	-464(%rbp), %rax
 2091      FEFFFF
 2092 0f2d BA440000 		movl	$68, %edx
 2092      00
 2093 0f32 4889CE   		movq	%rcx, %rsi
 2094 0f35 4889C7   		movq	%rax, %rdi
 2095              	.LEHB65:
 2096 0f38 E8000000 		call	_ZN8UnitTest11TestDetailsC1ERKS0_i
 2096      00
 2097              		.loc 3 68 0 discriminator 31
 2098 0f3d E8000000 		call	_ZN8UnitTest11CurrentTest7ResultsEv
 2098      00
 2099 0f42 488B00   		movq	(%rax), %rax
 2100 0f45 488D8D30 		leaq	-464(%rbp), %rcx
 2100      FEFFFF
 2101 0f4c BA000000 		movl	$.LC4, %edx
 2101      00
 2102 0f51 4889CE   		movq	%rcx, %rsi
 2103 0f54 4889C7   		movq	%rax, %rdi
 2104 0f57 E8000000 		call	_ZN8UnitTest11TestResults13OnTestFailureERKNS_11TestDetailsEPKc
 2104      00
 2105 0f5c EB41     		jmp	.L112
 2106              	.L111:
 2107              		.loc 3 68 0 discriminator 29
 2108 0f5e 488B8508 		movq	-504(%rbp), %rax
 2108      FEFFFF
 2109 0f65 488D4808 		leaq	8(%rax), %rcx
 2110 0f69 488D8530 		leaq	-464(%rbp), %rax
 2110      FEFFFF
 2111 0f70 BA440000 		movl	$68, %edx
 2111      00
 2112 0f75 4889CE   		movq	%rcx, %rsi
 2113 0f78 4889C7   		movq	%rax, %rdi
 2114 0f7b E8000000 		call	_ZN8UnitTest11TestDetailsC1ERKS0_i
 2114      00
 2115              		.loc 3 68 0 discriminator 38
 2116 0f80 E8000000 		call	_ZN8UnitTest11CurrentTest7ResultsEv
 2116      00
 2117 0f85 488B00   		movq	(%rax), %rax
 2118 0f88 488D8D30 		leaq	-464(%rbp), %rcx
 2118      FEFFFF
 2119 0f8f BA000000 		movl	$.LC5, %edx
 2119      00
 2120 0f94 4889CE   		movq	%rcx, %rsi
 2121 0f97 4889C7   		movq	%rax, %rdi
 2122 0f9a E8000000 		call	_ZN8UnitTest11TestResults13OnTestFailureERKNS_11TestDetailsEPKc
 2122      00
 2123              	.LEHE65:
 2124              	.L112:
 2125              	.LEHB66:
 2126              		.loc 3 68 0 discriminator 43
 2127 0f9f E8000000 		call	__cxa_end_catch
 2127      00
 2128              	.LEHE66:
 2129              	.L121:
 2130              	.LBE54:
 2131              		.loc 3 68 0
 2132 0fa4 90       		nop
 2133 0fa5 488B45E8 		movq	-24(%rbp), %rax
 2134 0fa9 64483304 		xorq	%fs:40, %rax
 2134      25280000 
 2134      00
 2135 0fb2 7405     		je	.L113
 2136 0fb4 E8000000 		call	__stack_chk_fail
 2136      00
 2137              	.L113:
 2138 0fb9 4881C4F0 		addq	$496, %rsp
 2138      010000
 2139 0fc0 5B       		popq	%rbx
 2140 0fc1 415C     		popq	%r12
 2141 0fc3 5D       		popq	%rbp
 2142              		.cfi_def_cfa 7, 8
 2143 0fc4 C3       		ret
 2144              		.cfi_endproc
 2145              	.LFE1367:
 2146              		.section	.gcc_except_table
 2147              		.align 4
 2148              	.LLSDA1367:
 2149 0168 FF       		.byte	0xff
 2150 0169 03       		.byte	0x3
 2151 016a 59       		.uleb128 .LLSDATT1367-.LLSDATTD1367
 2152              	.LLSDATTD1367:
 2153 016b 01       		.byte	0x1
 2154 016c 41       		.uleb128 .LLSDACSE1367-.LLSDACSB1367
 2155              	.LLSDACSB1367:
 2156 016d 43       		.uleb128 .LEHB55-.LFB1367
 2157 016e 05       		.uleb128 .LEHE55-.LEHB55
 2158 016f 9D01     		.uleb128 .L114-.LFB1367
 2159 0171 05       		.uleb128 0x5
 2160 0172 67       		.uleb128 .LEHB56-.LFB1367
 2161 0173 05       		.uleb128 .LEHE56-.LEHB56
 2162 0174 8001     		.uleb128 .L115-.LFB1367
 2163 0176 07       		.uleb128 0x7
 2164 0177 76       		.uleb128 .LEHB57-.LFB1367
 2165 0178 05       		.uleb128 .LEHE57-.LEHB57
 2166 0179 9D01     		.uleb128 .L114-.LFB1367
 2167 017b 05       		.uleb128 0x5
 2168 017c C001     		.uleb128 .LEHB58-.LFB1367
 2169 017e 05       		.uleb128 .LEHE58-.LEHB58
 2170 017f 00       		.uleb128 0
 2171 0180 00       		.uleb128 0
 2172 0181 E701     		.uleb128 .LEHB59-.LFB1367
 2173 0183 05       		.uleb128 .LEHE59-.LEHB59
 2174 0184 00       		.uleb128 0
 2175 0185 00       		.uleb128 0
 2176 0186 FA01     		.uleb128 .LEHB60-.LFB1367
 2177 0188 05       		.uleb128 .LEHE60-.LEHB60
 2178 0189 00       		.uleb128 0
 2179 018a 00       		.uleb128 0
 2180 018b B802     		.uleb128 .LEHB61-.LFB1367
 2181 018d 5F       		.uleb128 .LEHE61-.LEHB61
 2182 018e B201     		.uleb128 .L116-.LFB1367
 2183 0190 00       		.uleb128 0
 2184 0191 BA03     		.uleb128 .LEHB62-.LFB1367
 2185 0193 05       		.uleb128 .LEHE62-.LEHB62
 2186 0194 D901     		.uleb128 .L118-.LFB1367
 2187 0196 00       		.uleb128 0
 2188 0197 EE03     		.uleb128 .LEHB63-.LFB1367
 2189 0199 43       		.uleb128 .LEHE63-.LEHB63
 2190 019a C501     		.uleb128 .L117-.LFB1367
 2191 019c 00       		.uleb128 0
 2192 019d BB04     		.uleb128 .LEHB64-.LFB1367
 2193 019f 05       		.uleb128 .LEHE64-.LEHB64
 2194 01a0 D901     		.uleb128 .L118-.LFB1367
 2195 01a2 00       		.uleb128 0
 2196 01a3 F804     		.uleb128 .LEHB65-.LFB1367
 2197 01a5 67       		.uleb128 .LEHE65-.LEHB65
 2198 01a6 EC01     		.uleb128 .L119-.LFB1367
 2199 01a8 00       		.uleb128 0
 2200 01a9 DF05     		.uleb128 .LEHB66-.LFB1367
 2201 01ab 05       		.uleb128 .LEHE66-.LEHB66
 2202 01ac 00       		.uleb128 0
 2203 01ad 00       		.uleb128 0
 2204              	.LLSDACSE1367:
 2205 01ae 03       		.byte	0x3
 2206 01af 00       		.byte	0
 2207 01b0 02       		.byte	0x2
 2208 01b1 7D       		.byte	0x7d
 2209 01b2 01       		.byte	0x1
 2210 01b3 7D       		.byte	0x7d
 2211 01b4 00       		.byte	0
 2212 01b5 7D       		.byte	0x7d
 2213 01b6 0000     		.align 4
 2214 01b8 00000000 		.long	0
 2215              	
 2216 01bc 00000000 		.long	_ZTISt9exception
 2217 01c0 00000000 		.long	_ZTIN8UnitTest15AssertExceptionE
 2218              	.LLSDATT1367:
 2219              		.text
 2221              		.section	.rodata
 2222 0335 000000   		.align 8
 2223              	.LC22:
 2224 0338 3C3F786D 		.string	"<?xml version=\"1.0\"?><unittest-results tests=\"0\" failedtests=\"0\" failures=\"0\" tim
 2224      6C207665 
 2224      7273696F 
 2224      6E3D2231 
 2224      2E30223F 
 2225              		.text
 2226 0fc5 90       		.align 2
 2228              	_ZN12_GLOBAL__N_152XmlTestReporterFixtureEmptyReportSummaryFormatHelper7RunImplEv:
 2229              	.LFB1371:
  69:TestXmlTestReporter.cpp **** {
 2230              		.loc 3 69 0 is_stmt 1
 2231              		.cfi_startproc
 2232              		.cfi_personality 0x3,__gxx_personality_v0
 2233              		.cfi_lsda 0x3,.LLSDA1371
 2234 0fc6 55       		pushq	%rbp
 2235              		.cfi_def_cfa_offset 16
 2236              		.cfi_offset 6, -16
 2237 0fc7 4889E5   		movq	%rsp, %rbp
 2238              		.cfi_def_cfa_register 6
 2239 0fca 53       		pushq	%rbx
 2240 0fcb 4883EC58 		subq	$88, %rsp
 2241              		.cfi_offset 3, -24
 2242 0fcf 48897DA8 		movq	%rdi, -88(%rbp)
 2243              		.loc 3 69 0
 2244 0fd3 64488B04 		movq	%fs:40, %rax
 2244      25280000 
 2244      00
 2245 0fdc 488945E8 		movq	%rax, -24(%rbp)
 2246 0fe0 31C0     		xorl	%eax, %eax
 2247              	.LBB55:
  70:TestXmlTestReporter.cpp ****     reporter.ReportSummary(0, 0, 0, 0.1f);
 2248              		.loc 3 70 0
 2249 0fe2 488B45A8 		movq	-88(%rbp), %rax
 2250 0fe6 48056001 		addq	$352, %rax
 2250      0000
 2251 0fec F30F1005 		movss	.LC10(%rip), %xmm0
 2251      00000000 
 2252 0ff4 B9000000 		movl	$0, %ecx
 2252      00
 2253 0ff9 BA000000 		movl	$0, %edx
 2253      00
 2254 0ffe BE000000 		movl	$0, %esi
 2254      00
 2255 1003 4889C7   		movq	%rax, %rdi
 2256              	.LEHB67:
 2257 1006 E8000000 		call	_ZN8UnitTest15XmlTestReporter13ReportSummaryEiiif
 2257      00
 2258              	.LEHE67:
  71:TestXmlTestReporter.cpp **** 
  72:TestXmlTestReporter.cpp ****     const char *expected =
  73:TestXmlTestReporter.cpp **** "<?xml version=\"1.0\"?>"
  74:TestXmlTestReporter.cpp **** "<unittest-results tests=\"0\" failedtests=\"0\" failures=\"0\" time=\"0.1\">"
  75:TestXmlTestReporter.cpp **** "</unittest-results>";
 2259              		.loc 3 75 0
 2260 100b 48C745B8 		movq	$.LC22, -72(%rbp)
 2260      00000000 
 2261              	.LEHB68:
  76:TestXmlTestReporter.cpp **** 
  77:TestXmlTestReporter.cpp ****     CHECK_EQUAL(expected, output.str());
 2262              		.loc 3 77 0
 2263 1013 E8000000 		call	_ZN8UnitTest11CurrentTest7DetailsEv
 2263      00
 2264 1018 488B08   		movq	(%rax), %rcx
 2265 101b 488D45C0 		leaq	-64(%rbp), %rax
 2266 101f BA4D0000 		movl	$77, %edx
 2266      00
 2267 1024 4889CE   		movq	%rcx, %rsi
 2268 1027 4889C7   		movq	%rax, %rdi
 2269 102a E8000000 		call	_ZN8UnitTest11TestDetailsC1ERKS0_i
 2269      00
 2270              		.loc 3 77 0 is_stmt 0 discriminator 2
 2271 102f 488B55A8 		movq	-88(%rbp), %rdx
 2272 1033 488D45B0 		leaq	-80(%rbp), %rax
 2273 1037 4889D6   		movq	%rdx, %rsi
 2274 103a 4889C7   		movq	%rax, %rdi
 2275 103d E8000000 		call	_ZNKSt19basic_ostringstreamIcSt11char_traitsIcESaIcEE3strEv
 2275      00
 2276              	.LEHE68:
 2277              	.LEHB69:
 2278              		.loc 3 77 0 discriminator 4
 2279 1042 E8000000 		call	_ZN8UnitTest11CurrentTest7ResultsEv
 2279      00
 2280 1047 488B00   		movq	(%rax), %rax
 2281 104a 488D4DC0 		leaq	-64(%rbp), %rcx
 2282 104e 488D55B0 		leaq	-80(%rbp), %rdx
 2283 1052 488D75B8 		leaq	-72(%rbp), %rsi
 2284 1056 4889C7   		movq	%rax, %rdi
 2285 1059 E8000000 		call	_ZN8UnitTest10CheckEqualIPKcSsEEvRNS_11TestResultsERKT_RKT0_RKNS_11TestDetailsE
 2285      00
 2286              	.LEHE69:
 2287              		.loc 3 77 0 discriminator 8
 2288 105e 488D45B0 		leaq	-80(%rbp), %rax
 2289 1062 4889C7   		movq	%rax, %rdi
 2290              	.LEHB70:
 2291 1065 E8000000 		call	_ZNSsD1Ev
 2291      00
 2292              	.LEHE70:
 2293              	.LBE55:
  78:TestXmlTestReporter.cpp **** }
 2294              		.loc 3 78 0 is_stmt 1
 2295 106a EB6C     		jmp	.L131
 2296              	.L129:
 2297 106c 4889C3   		movq	%rax, %rbx
 2298              	.LBB56:
  77:TestXmlTestReporter.cpp **** }
 2299              		.loc 3 77 0
 2300 106f 488D45B0 		leaq	-80(%rbp), %rax
 2301 1073 4889C7   		movq	%rax, %rdi
 2302 1076 E8000000 		call	_ZNSsD1Ev
 2302      00
 2303 107b 4889D8   		movq	%rbx, %rax
 2304 107e EB13     		jmp	.L124
 2305              	.L130:
 2306 1080 4889C3   		movq	%rax, %rbx
 2307 1083 E8000000 		call	__cxa_end_catch
 2307      00
 2308 1088 4889D8   		movq	%rbx, %rax
 2309 108b 4889C7   		movq	%rax, %rdi
 2310              	.LEHB71:
 2311 108e E8000000 		call	_Unwind_Resume
 2311      00
 2312              	.LEHE71:
 2313              	.L128:
 2314              	.L124:
 2315 1093 4889C7   		movq	%rax, %rdi
 2316 1096 E8000000 		call	__cxa_begin_catch
 2316      00
 2317              	.LEHB72:
 2318 109b E8000000 		call	_ZN8UnitTest11CurrentTest7DetailsEv
 2318      00
 2319 10a0 488B08   		movq	(%rax), %rcx
 2320 10a3 488D45C0 		leaq	-64(%rbp), %rax
 2321 10a7 BA4D0000 		movl	$77, %edx
 2321      00
 2322 10ac 4889CE   		movq	%rcx, %rsi
 2323 10af 4889C7   		movq	%rax, %rdi
 2324 10b2 E8000000 		call	_ZN8UnitTest11TestDetailsC1ERKS0_i
 2324      00
  77:TestXmlTestReporter.cpp **** }
 2325              		.loc 3 77 0 is_stmt 0 discriminator 14
 2326 10b7 E8000000 		call	_ZN8UnitTest11CurrentTest7ResultsEv
 2326      00
 2327 10bc 488B00   		movq	(%rax), %rax
 2328 10bf 488D4DC0 		leaq	-64(%rbp), %rcx
 2329 10c3 BA000000 		movl	$.LC12, %edx
 2329      00
 2330 10c8 4889CE   		movq	%rcx, %rsi
 2331 10cb 4889C7   		movq	%rax, %rdi
 2332 10ce E8000000 		call	_ZN8UnitTest11TestResults13OnTestFailureERKNS_11TestDetailsEPKc
 2332      00
 2333              	.LEHE72:
 2334              	.LEHB73:
  77:TestXmlTestReporter.cpp **** }
 2335              		.loc 3 77 0 discriminator 18
 2336 10d3 E8000000 		call	__cxa_end_catch
 2336      00
 2337              	.LEHE73:
 2338              	.L131:
 2339              	.LBE56:
 2340              		.loc 3 78 0 is_stmt 1
 2341 10d8 90       		nop
 2342 10d9 488B45E8 		movq	-24(%rbp), %rax
 2343 10dd 64483304 		xorq	%fs:40, %rax
 2343      25280000 
 2343      00
 2344 10e6 7405     		je	.L127
 2345 10e8 E8000000 		call	__stack_chk_fail
 2345      00
 2346              	.L127:
 2347 10ed 4883C458 		addq	$88, %rsp
 2348 10f1 5B       		popq	%rbx
 2349 10f2 5D       		popq	%rbp
 2350              		.cfi_def_cfa 7, 8
 2351 10f3 C3       		ret
 2352              		.cfi_endproc
 2353              	.LFE1371:
 2354              		.section	.gcc_except_table
 2355              		.align 4
 2356              	.LLSDA1371:
 2357 01c4 FF       		.byte	0xff
 2358 01c5 03       		.byte	0x3
 2359 01c6 31       		.uleb128 .LLSDATT1371-.LLSDATTD1371
 2360              	.LLSDATTD1371:
 2361 01c7 01       		.byte	0x1
 2362 01c8 24       		.uleb128 .LLSDACSE1371-.LLSDACSB1371
 2363              	.LLSDACSB1371:
 2364 01c9 40       		.uleb128 .LEHB67-.LFB1371
 2365 01ca 05       		.uleb128 .LEHE67-.LEHB67
 2366 01cb 00       		.uleb128 0
 2367 01cc 00       		.uleb128 0
 2368 01cd 4D       		.uleb128 .LEHB68-.LFB1371
 2369 01ce 2F       		.uleb128 .LEHE68-.LEHB68
 2370 01cf CD01     		.uleb128 .L128-.LFB1371
 2371 01d1 01       		.uleb128 0x1
 2372 01d2 7C       		.uleb128 .LEHB69-.LFB1371
 2373 01d3 1C       		.uleb128 .LEHE69-.LEHB69
 2374 01d4 A601     		.uleb128 .L129-.LFB1371
 2375 01d6 03       		.uleb128 0x3
 2376 01d7 9F01     		.uleb128 .LEHB70-.LFB1371
 2377 01d9 05       		.uleb128 .LEHE70-.LEHB70
 2378 01da CD01     		.uleb128 .L128-.LFB1371
 2379 01dc 01       		.uleb128 0x1
 2380 01dd C801     		.uleb128 .LEHB71-.LFB1371
 2381 01df 05       		.uleb128 .LEHE71-.LEHB71
 2382 01e0 00       		.uleb128 0
 2383 01e1 00       		.uleb128 0
 2384 01e2 D501     		.uleb128 .LEHB72-.LFB1371
 2385 01e4 38       		.uleb128 .LEHE72-.LEHB72
 2386 01e5 BA01     		.uleb128 .L130-.LFB1371
 2387 01e7 00       		.uleb128 0
 2388 01e8 8D02     		.uleb128 .LEHB73-.LFB1371
 2389 01ea 05       		.uleb128 .LEHE73-.LEHB73
 2390 01eb 00       		.uleb128 0
 2391 01ec 00       		.uleb128 0
 2392              	.LLSDACSE1371:
 2393 01ed 01       		.byte	0x1
 2394 01ee 00       		.byte	0
 2395 01ef 00       		.byte	0
 2396 01f0 7D       		.byte	0x7d
 2397 01f1 000000   		.align 4
 2398 01f4 00000000 		.long	0
 2399              	
 2400              	.LLSDATT1371:
 2401              		.text
 2403              		.align 2
 2405              	_ZN12_GLOBAL__N_167XmlTestReporterFixtureSingleSuccessfulTestReportSummaryFormatHelperC2ERKN8UnitTe
 2406              	.LFB1373:
  79:TestXmlTestReporter.cpp **** 
  80:TestXmlTestReporter.cpp **** TEST_FIXTURE(XmlTestReporterFixture, SingleSuccessfulTestReportSummaryFormat)
 2407              		.loc 3 80 0
 2408              		.cfi_startproc
 2409 10f4 55       		pushq	%rbp
 2410              		.cfi_def_cfa_offset 16
 2411              		.cfi_offset 6, -16
 2412 10f5 4889E5   		movq	%rsp, %rbp
 2413              		.cfi_def_cfa_register 6
 2414 10f8 4883EC10 		subq	$16, %rsp
 2415 10fc 48897DF8 		movq	%rdi, -8(%rbp)
 2416 1100 488975F0 		movq	%rsi, -16(%rbp)
 2417              	.LBB57:
 2418              		.loc 3 80 0
 2419 1104 488B45F8 		movq	-8(%rbp), %rax
 2420 1108 4889C7   		movq	%rax, %rdi
 2421 110b E8F0EEFF 		call	_ZN12_GLOBAL__N_122XmlTestReporterFixtureC2Ev
 2421      FF
 2422 1110 488B45F8 		movq	-8(%rbp), %rax
 2423 1114 488B55F0 		movq	-16(%rbp), %rdx
 2424 1118 48899088 		movq	%rdx, 392(%rax)
 2424      010000
 2425              	.LBE57:
 2426 111f C9       		leave
 2427              		.cfi_def_cfa 7, 8
 2428 1120 C3       		ret
 2429              		.cfi_endproc
 2430              	.LFE1373:
 2432              		.section	.rodata
 2433 03a5 000000   		.align 8
 2434              	.LC23:
 2435 03a8 53696E67 		.string	"SingleSuccessfulTestReportSummaryFormat"
 2435      6C655375 
 2435      63636573 
 2435      7366756C 
 2435      54657374 
 2436              		.text
 2437 1121 90       		.align 2
 2439              	_ZN12_GLOBAL__N_165TestXmlTestReporterFixtureSingleSuccessfulTestReportSummaryFormatC2Ev:
 2440              	.LFB1376:
 2441              		.loc 3 80 0
 2442              		.cfi_startproc
 2443 1122 55       		pushq	%rbp
 2444              		.cfi_def_cfa_offset 16
 2445              		.cfi_offset 6, -16
 2446 1123 4889E5   		movq	%rsp, %rbp
 2447              		.cfi_def_cfa_register 6
 2448 1126 4883EC10 		subq	$16, %rsp
 2449 112a 48897DF8 		movq	%rdi, -8(%rbp)
 2450              	.LBB58:
 2451              		.loc 3 80 0
 2452 112e E8000000 		call	_ZN13UnitTestSuite12GetSuiteNameEv
 2452      00
 2453 1133 4889C2   		movq	%rax, %rdx
 2454 1136 488B45F8 		movq	-8(%rbp), %rax
 2455 113a 41B85000 		movl	$80, %r8d
 2455      0000
 2456 1140 B9000000 		movl	$.LC1, %ecx
 2456      00
 2457 1145 BE000000 		movl	$.LC23, %esi
 2457      00
 2458 114a 4889C7   		movq	%rax, %rdi
 2459 114d E8000000 		call	_ZN8UnitTest4TestC2EPKcS2_S2_i
 2459      00
 2460 1152 488B45F8 		movq	-8(%rbp), %rax
 2461 1156 48C70000 		movq	$_ZTVN12_GLOBAL__N_165TestXmlTestReporterFixtureSingleSuccessfulTestReportSummaryFormatE+16, 
 2461      000000
 2462              	.LBE58:
 2463 115d C9       		leave
 2464              		.cfi_def_cfa 7, 8
 2465 115e C3       		ret
 2466              		.cfi_endproc
 2467              	.LFE1376:
 2469              		.local	_ZN12_GLOBAL__N_173testXmlTestReporterFixtureSingleSuccessfulTestReportSummaryFormatInstanc
 2470              		.comm	_ZN12_GLOBAL__N_173testXmlTestReporterFixtureSingleSuccessfulTestReportSummaryFormatInstance
 2471              		.local	_ZN12_GLOBAL__N_166adderXmlTestReporterFixtureSingleSuccessfulTestReportSummaryFormatE
 2472              		.comm	_ZN12_GLOBAL__N_166adderXmlTestReporterFixtureSingleSuccessfulTestReportSummaryFormatE,1,1
 2473 115f 90       		.align 2
 2475              	_ZN12_GLOBAL__N_167XmlTestReporterFixtureSingleSuccessfulTestReportSummaryFormatHelperD2Ev:
 2476              	.LFB1380:
 2477              		.loc 3 80 0
 2478              		.cfi_startproc
 2479 1160 55       		pushq	%rbp
 2480              		.cfi_def_cfa_offset 16
 2481              		.cfi_offset 6, -16
 2482 1161 4889E5   		movq	%rsp, %rbp
 2483              		.cfi_def_cfa_register 6
 2484 1164 4883EC10 		subq	$16, %rsp
 2485 1168 48897DF8 		movq	%rdi, -8(%rbp)
 2486              	.LBB59:
 2487              		.loc 3 80 0
 2488 116c 488B45F8 		movq	-8(%rbp), %rax
 2489 1170 4889C7   		movq	%rax, %rdi
 2490 1173 E8E4EEFF 		call	_ZN12_GLOBAL__N_122XmlTestReporterFixtureD2Ev
 2490      FF
 2491              	.LBE59:
 2492 1178 C9       		leave
 2493              		.cfi_def_cfa 7, 8
 2494 1179 C3       		ret
 2495              		.cfi_endproc
 2496              	.LFE1380:
 2498              		.align 2
 2500              	_ZNK12_GLOBAL__N_165TestXmlTestReporterFixtureSingleSuccessfulTestReportSummaryFormat7RunImplEv:
 2501              	.LFB1378:
 2502              		.loc 3 80 0
 2503              		.cfi_startproc
 2504              		.cfi_personality 0x3,__gxx_personality_v0
 2505              		.cfi_lsda 0x3,.LLSDA1378
 2506 117a 55       		pushq	%rbp
 2507              		.cfi_def_cfa_offset 16
 2508              		.cfi_offset 6, -16
 2509 117b 4889E5   		movq	%rsp, %rbp
 2510              		.cfi_def_cfa_register 6
 2511 117e 4154     		pushq	%r12
 2512 1180 53       		pushq	%rbx
 2513 1181 4881ECF0 		subq	$496, %rsp
 2513      010000
 2514              		.cfi_offset 12, -24
 2515              		.cfi_offset 3, -32
 2516 1188 4889BD08 		movq	%rdi, -504(%rbp)
 2516      FEFFFF
 2517              		.loc 3 80 0
 2518 118f 64488B04 		movq	%fs:40, %rax
 2518      25280000 
 2518      00
 2519 1198 488945E8 		movq	%rax, -24(%rbp)
 2520 119c 31C0     		xorl	%eax, %eax
 2521              	.LBB60:
 2522 119e C6851FFE 		movb	$0, -481(%rbp)
 2522      FFFF00
 2523              	.LBB61:
 2524 11a5 488B8508 		movq	-504(%rbp), %rax
 2524      FEFFFF
 2525 11ac 488D5008 		leaq	8(%rax), %rdx
 2526 11b0 488D8550 		leaq	-432(%rbp), %rax
 2526      FEFFFF
 2527 11b7 4889D6   		movq	%rdx, %rsi
 2528 11ba 4889C7   		movq	%rax, %rdi
 2529              	.LEHB74:
 2530 11bd E832FFFF 		call	_ZN12_GLOBAL__N_167XmlTestReporterFixtureSingleSuccessfulTestReportSummaryFormatHelperC2ERKN8
 2530      FF
 2531              	.LEHE74:
 2532              		.loc 3 80 0 is_stmt 0 discriminator 1
 2533 11c2 C6851FFE 		movb	$1, -481(%rbp)
 2533      FFFF01
 2534 11c9 488B8508 		movq	-504(%rbp), %rax
 2534      FEFFFF
 2535 11d0 488D5008 		leaq	8(%rax), %rdx
 2536 11d4 488D8550 		leaq	-432(%rbp), %rax
 2536      FEFFFF
 2537 11db 4889D6   		movq	%rdx, %rsi
 2538 11de 4889C7   		movq	%rax, %rdi
 2539              	.LEHB75:
 2540 11e1 E8EF2100 		call	_ZN8UnitTest11ExecuteTestIN12_GLOBAL__N_167XmlTestReporterFixtureSingleSuccessfulTestReportSu
 2540      00
 2541              	.LEHE75:
 2542              		.loc 3 80 0 discriminator 3
 2543 11e6 488D8550 		leaq	-432(%rbp), %rax
 2543      FEFFFF
 2544 11ed 4889C7   		movq	%rax, %rdi
 2545              	.LEHB76:
 2546 11f0 E86BFFFF 		call	_ZN12_GLOBAL__N_167XmlTestReporterFixtureSingleSuccessfulTestReportSummaryFormatHelperD2Ev
 2546      FF
 2547              	.LEHE76:
 2548              	.LBE61:
 2549              	.LBE60:
 2550              		.loc 3 80 0
 2551 11f5 E9640200 		jmp	.L157
 2551      00
 2552              	.L151:
 2553 11fa 4989C4   		movq	%rax, %r12
 2554 11fd 4889D3   		movq	%rdx, %rbx
 2555              	.LBB69:
 2556              	.LBB62:
 2557 1200 488D8550 		leaq	-432(%rbp), %rax
 2557      FEFFFF
 2558 1207 4889C7   		movq	%rax, %rdi
 2559 120a E851FFFF 		call	_ZN12_GLOBAL__N_167XmlTestReporterFixtureSingleSuccessfulTestReportSummaryFormatHelperD2Ev
 2559      FF
 2560 120f 4C89E0   		movq	%r12, %rax
 2561 1212 4889DA   		movq	%rbx, %rdx
 2562 1215 EB00     		jmp	.L138
 2563              	.L150:
 2564              	.L138:
 2565 1217 4883FA01 		cmpq	$1, %rdx
 2566 121b 745C     		je	.L140
 2567 121d 4883FA02 		cmpq	$2, %rdx
 2568 1221 0F84F400 		je	.L141
 2568      0000
 2569 1227 E9980100 		jmp	.L156
 2569      00
 2570              	.L152:
 2571 122c 4889C3   		movq	%rax, %rbx
 2572              	.LBE62:
 2573              	.LBB63:
 2574 122f E8000000 		call	__cxa_end_catch
 2574      00
 2575 1234 4889D8   		movq	%rbx, %rax
 2576 1237 4889C7   		movq	%rax, %rdi
 2577              	.LEHB77:
 2578 123a E8000000 		call	_Unwind_Resume
 2578      00
 2579              	.LEHE77:
 2580              	.L153:
 2581 123f 4889C3   		movq	%rax, %rbx
 2582              	.LBE63:
 2583              	.LBB64:
 2584              	.LBB65:
 2585 1242 488D8550 		leaq	-432(%rbp), %rax
 2585      FEFFFF
 2586 1249 4889C7   		movq	%rax, %rdi
 2587 124c E8000000 		call	_ZN8UnitTest15MemoryOutStreamD1Ev
 2587      00
 2588 1251 EB03     		jmp	.L144
 2589              	.L154:
 2590 1253 4889C3   		movq	%rax, %rbx
 2591              	.L144:
 2592              	.LBE65:
 2593 1256 E8000000 		call	__cxa_end_catch
 2593      00
 2594 125b 4889D8   		movq	%rbx, %rax
 2595 125e 4889C7   		movq	%rax, %rdi
 2596              	.LEHB78:
 2597 1261 E8000000 		call	_Unwind_Resume
 2597      00
 2598              	.LEHE78:
 2599              	.L155:
 2600 1266 4889C3   		movq	%rax, %rbx
 2601              	.LBE64:
 2602 1269 E8000000 		call	__cxa_end_catch
 2602      00
 2603 126e 4889D8   		movq	%rbx, %rax
 2604 1271 4889C7   		movq	%rax, %rdi
 2605              	.LEHB79:
 2606 1274 E8000000 		call	_Unwind_Resume
 2606      00
 2607              	.LEHE79:
 2608              	.L140:
 2609              	.LBB67:
 2610 1279 4889C7   		movq	%rax, %rdi
 2611 127c E8000000 		call	__cxa_begin_catch
 2611      00
 2612 1281 48898520 		movq	%rax, -480(%rbp)
 2612      FEFFFF
 2613 1288 488B8520 		movq	-480(%rbp), %rax
 2613      FEFFFF
 2614 128f 488B00   		movq	(%rax), %rax
 2615 1292 4883C010 		addq	$16, %rax
 2616 1296 488B00   		movq	(%rax), %rax
 2617 1299 488B9520 		movq	-480(%rbp), %rdx
 2617      FEFFFF
 2618 12a0 4889D7   		movq	%rdx, %rdi
 2619 12a3 FFD0     		call	*%rax
 2620 12a5 4889C3   		movq	%rax, %rbx
 2621 12a8 488B8520 		movq	-480(%rbp), %rax
 2621      FEFFFF
 2622 12af 4889C7   		movq	%rax, %rdi
 2623              	.LEHB80:
 2624 12b2 E8000000 		call	_ZNK8UnitTest15AssertException10LineNumberEv
 2624      00
 2625 12b7 4189C4   		movl	%eax, %r12d
 2626 12ba 488B8520 		movq	-480(%rbp), %rax
 2626      FEFFFF
 2627 12c1 4889C7   		movq	%rax, %rdi
 2628 12c4 E8000000 		call	_ZNK8UnitTest15AssertException8FilenameEv
 2628      00
 2629              		.loc 3 80 0 discriminator 5
 2630 12c9 4889C1   		movq	%rax, %rcx
 2631 12cc 488B8508 		movq	-504(%rbp), %rax
 2631      FEFFFF
 2632 12d3 488B5008 		movq	8(%rax), %rdx
 2633 12d7 488B8508 		movq	-504(%rbp), %rax
 2633      FEFFFF
 2634 12de 488B7010 		movq	16(%rax), %rsi
 2635 12e2 488D8530 		leaq	-464(%rbp), %rax
 2635      FEFFFF
 2636 12e9 4589E0   		movl	%r12d, %r8d
 2637 12ec 4889C7   		movq	%rax, %rdi
 2638 12ef E8000000 		call	_ZN8UnitTest11TestDetailsC1EPKcS2_S2_i
 2638      00
 2639              		.loc 3 80 0 discriminator 9
 2640 12f4 E8000000 		call	_ZN8UnitTest11CurrentTest7ResultsEv
 2640      00
 2641 12f9 488B00   		movq	(%rax), %rax
 2642 12fc 488D8D30 		leaq	-464(%rbp), %rcx
 2642      FEFFFF
 2643 1303 4889DA   		movq	%rbx, %rdx
 2644 1306 4889CE   		movq	%rcx, %rsi
 2645 1309 4889C7   		movq	%rax, %rdi
 2646 130c E8000000 		call	_ZN8UnitTest11TestResults13OnTestFailureERKNS_11TestDetailsEPKc
 2646      00
 2647              	.LEHE80:
 2648              		.loc 3 80 0 discriminator 13
 2649 1311 E8000000 		call	__cxa_end_catch
 2649      00
 2650              	.LBE67:
 2651              	.LBE69:
 2652 1316 E9430100 		jmp	.L157
 2652      00
 2653              	.L141:
 2654              	.LBB70:
 2655              	.LBB68:
 2656              		.loc 3 80 0
 2657 131b 4889C7   		movq	%rax, %rdi
 2658 131e E8000000 		call	__cxa_begin_catch
 2658      00
 2659 1323 48898528 		movq	%rax, -472(%rbp)
 2659      FEFFFF
 2660              	.LBB66:
 2661 132a 488D8550 		leaq	-432(%rbp), %rax
 2661      FEFFFF
 2662 1331 4889C7   		movq	%rax, %rdi
 2663              	.LEHB81:
 2664 1334 E8000000 		call	_ZN8UnitTest15MemoryOutStreamC1Ev
 2664      00
 2665              	.LEHE81:
 2666              		.loc 3 80 0 discriminator 15
 2667 1339 488B8528 		movq	-472(%rbp), %rax
 2667      FEFFFF
 2668 1340 488B00   		movq	(%rax), %rax
 2669 1343 4883C010 		addq	$16, %rax
 2670 1347 488B00   		movq	(%rax), %rax
 2671 134a 488B9528 		movq	-472(%rbp), %rdx
 2671      FEFFFF
 2672 1351 4889D7   		movq	%rdx, %rdi
 2673 1354 FFD0     		call	*%rax
 2674 1356 4889C3   		movq	%rax, %rbx
 2675 1359 488D8550 		leaq	-432(%rbp), %rax
 2675      FEFFFF
 2676 1360 BE000000 		movl	$.LC3, %esi
 2676      00
 2677 1365 4889C7   		movq	%rax, %rdi
 2678              	.LEHB82:
 2679 1368 E8000000 		call	_ZStlsISt11char_traitsIcEERSt13basic_ostreamIcT_ES5_PKc
 2679      00
 2680 136d 4889DE   		movq	%rbx, %rsi
 2681 1370 4889C7   		movq	%rax, %rdi
 2682 1373 E8000000 		call	_ZStlsISt11char_traitsIcEERSt13basic_ostreamIcT_ES5_PKc
 2682      00
 2683              		.loc 3 80 0 discriminator 19
 2684 1378 488D8550 		leaq	-432(%rbp), %rax
 2684      FEFFFF
 2685 137f 4889C7   		movq	%rax, %rdi
 2686 1382 E8000000 		call	_ZNK8UnitTest15MemoryOutStream7GetTextEv
 2686      00
 2687 1387 4989C4   		movq	%rax, %r12
 2688 138a 488B8508 		movq	-504(%rbp), %rax
 2688      FEFFFF
 2689 1391 488D5808 		leaq	8(%rax), %rbx
 2690 1395 E8000000 		call	_ZN8UnitTest11CurrentTest7ResultsEv
 2690      00
 2691              		.loc 3 80 0 discriminator 21
 2692 139a 488B00   		movq	(%rax), %rax
 2693 139d 4C89E2   		movq	%r12, %rdx
 2694 13a0 4889DE   		movq	%rbx, %rsi
 2695 13a3 4889C7   		movq	%rax, %rdi
 2696 13a6 E8000000 		call	_ZN8UnitTest11TestResults13OnTestFailureERKNS_11TestDetailsEPKc
 2696      00
 2697              	.LEHE82:
 2698              		.loc 3 80 0 discriminator 25
 2699 13ab 488D8550 		leaq	-432(%rbp), %rax
 2699      FEFFFF
 2700 13b2 4889C7   		movq	%rax, %rdi
 2701              	.LEHB83:
 2702 13b5 E8000000 		call	_ZN8UnitTest15MemoryOutStreamD1Ev
 2702      00
 2703              	.LEHE83:
 2704              	.LBE66:
 2705              		.loc 3 80 0 discriminator 26
 2706 13ba E8000000 		call	__cxa_end_catch
 2706      00
 2707              	.LBE68:
 2708              	.LBE70:
 2709 13bf E99A0000 		jmp	.L157
 2709      00
 2710              	.L156:
 2711              	.LBB71:
 2712              		.loc 3 80 0
 2713 13c4 4889C7   		movq	%rax, %rdi
 2714 13c7 E8000000 		call	__cxa_begin_catch
 2714      00
 2715 13cc 80BD1FFE 		cmpb	$0, -481(%rbp)
 2715      FFFF00
 2716 13d3 7443     		je	.L147
 2717              		.loc 3 80 0 discriminator 28
 2718 13d5 488B8508 		movq	-504(%rbp), %rax
 2718      FEFFFF
 2719 13dc 488D4808 		leaq	8(%rax), %rcx
 2720 13e0 488D8530 		leaq	-464(%rbp), %rax
 2720      FEFFFF
 2721 13e7 BA500000 		movl	$80, %edx
 2721      00
 2722 13ec 4889CE   		movq	%rcx, %rsi
 2723 13ef 4889C7   		movq	%rax, %rdi
 2724              	.LEHB84:
 2725 13f2 E8000000 		call	_ZN8UnitTest11TestDetailsC1ERKS0_i
 2725      00
 2726              		.loc 3 80 0 discriminator 31
 2727 13f7 E8000000 		call	_ZN8UnitTest11CurrentTest7ResultsEv
 2727      00
 2728 13fc 488B00   		movq	(%rax), %rax
 2729 13ff 488D8D30 		leaq	-464(%rbp), %rcx
 2729      FEFFFF
 2730 1406 BA000000 		movl	$.LC4, %edx
 2730      00
 2731 140b 4889CE   		movq	%rcx, %rsi
 2732 140e 4889C7   		movq	%rax, %rdi
 2733 1411 E8000000 		call	_ZN8UnitTest11TestResults13OnTestFailureERKNS_11TestDetailsEPKc
 2733      00
 2734 1416 EB41     		jmp	.L148
 2735              	.L147:
 2736              		.loc 3 80 0 discriminator 29
 2737 1418 488B8508 		movq	-504(%rbp), %rax
 2737      FEFFFF
 2738 141f 488D4808 		leaq	8(%rax), %rcx
 2739 1423 488D8530 		leaq	-464(%rbp), %rax
 2739      FEFFFF
 2740 142a BA500000 		movl	$80, %edx
 2740      00
 2741 142f 4889CE   		movq	%rcx, %rsi
 2742 1432 4889C7   		movq	%rax, %rdi
 2743 1435 E8000000 		call	_ZN8UnitTest11TestDetailsC1ERKS0_i
 2743      00
 2744              		.loc 3 80 0 discriminator 38
 2745 143a E8000000 		call	_ZN8UnitTest11CurrentTest7ResultsEv
 2745      00
 2746 143f 488B00   		movq	(%rax), %rax
 2747 1442 488D8D30 		leaq	-464(%rbp), %rcx
 2747      FEFFFF
 2748 1449 BA000000 		movl	$.LC5, %edx
 2748      00
 2749 144e 4889CE   		movq	%rcx, %rsi
 2750 1451 4889C7   		movq	%rax, %rdi
 2751 1454 E8000000 		call	_ZN8UnitTest11TestResults13OnTestFailureERKNS_11TestDetailsEPKc
 2751      00
 2752              	.LEHE84:
 2753              	.L148:
 2754              	.LEHB85:
 2755              		.loc 3 80 0 discriminator 43
 2756 1459 E8000000 		call	__cxa_end_catch
 2756      00
 2757              	.LEHE85:
 2758              	.L157:
 2759              	.LBE71:
 2760              		.loc 3 80 0
 2761 145e 90       		nop
 2762 145f 488B45E8 		movq	-24(%rbp), %rax
 2763 1463 64483304 		xorq	%fs:40, %rax
 2763      25280000 
 2763      00
 2764 146c 7405     		je	.L149
 2765 146e E8000000 		call	__stack_chk_fail
 2765      00
 2766              	.L149:
 2767 1473 4881C4F0 		addq	$496, %rsp
 2767      010000
 2768 147a 5B       		popq	%rbx
 2769 147b 415C     		popq	%r12
 2770 147d 5D       		popq	%rbp
 2771              		.cfi_def_cfa 7, 8
 2772 147e C3       		ret
 2773              		.cfi_endproc
 2774              	.LFE1378:
 2775              		.section	.gcc_except_table
 2776              		.align 4
 2777              	.LLSDA1378:
 2778 01f8 FF       		.byte	0xff
 2779 01f9 03       		.byte	0x3
 2780 01fa 59       		.uleb128 .LLSDATT1378-.LLSDATTD1378
 2781              	.LLSDATTD1378:
 2782 01fb 01       		.byte	0x1
 2783 01fc 41       		.uleb128 .LLSDACSE1378-.LLSDACSB1378
 2784              	.LLSDACSB1378:
 2785 01fd 43       		.uleb128 .LEHB74-.LFB1378
 2786 01fe 05       		.uleb128 .LEHE74-.LEHB74
 2787 01ff 9D01     		.uleb128 .L150-.LFB1378
 2788 0201 05       		.uleb128 0x5
 2789 0202 67       		.uleb128 .LEHB75-.LFB1378
 2790 0203 05       		.uleb128 .LEHE75-.LEHB75
 2791 0204 8001     		.uleb128 .L151-.LFB1378
 2792 0206 07       		.uleb128 0x7
 2793 0207 76       		.uleb128 .LEHB76-.LFB1378
 2794 0208 05       		.uleb128 .LEHE76-.LEHB76
 2795 0209 9D01     		.uleb128 .L150-.LFB1378
 2796 020b 05       		.uleb128 0x5
 2797 020c C001     		.uleb128 .LEHB77-.LFB1378
 2798 020e 05       		.uleb128 .LEHE77-.LEHB77
 2799 020f 00       		.uleb128 0
 2800 0210 00       		.uleb128 0
 2801 0211 E701     		.uleb128 .LEHB78-.LFB1378
 2802 0213 05       		.uleb128 .LEHE78-.LEHB78
 2803 0214 00       		.uleb128 0
 2804 0215 00       		.uleb128 0
 2805 0216 FA01     		.uleb128 .LEHB79-.LFB1378
 2806 0218 05       		.uleb128 .LEHE79-.LEHB79
 2807 0219 00       		.uleb128 0
 2808 021a 00       		.uleb128 0
 2809 021b B802     		.uleb128 .LEHB80-.LFB1378
 2810 021d 5F       		.uleb128 .LEHE80-.LEHB80
 2811 021e B201     		.uleb128 .L152-.LFB1378
 2812 0220 00       		.uleb128 0
 2813 0221 BA03     		.uleb128 .LEHB81-.LFB1378
 2814 0223 05       		.uleb128 .LEHE81-.LEHB81
 2815 0224 D901     		.uleb128 .L154-.LFB1378
 2816 0226 00       		.uleb128 0
 2817 0227 EE03     		.uleb128 .LEHB82-.LFB1378
 2818 0229 43       		.uleb128 .LEHE82-.LEHB82
 2819 022a C501     		.uleb128 .L153-.LFB1378
 2820 022c 00       		.uleb128 0
 2821 022d BB04     		.uleb128 .LEHB83-.LFB1378
 2822 022f 05       		.uleb128 .LEHE83-.LEHB83
 2823 0230 D901     		.uleb128 .L154-.LFB1378
 2824 0232 00       		.uleb128 0
 2825 0233 F804     		.uleb128 .LEHB84-.LFB1378
 2826 0235 67       		.uleb128 .LEHE84-.LEHB84
 2827 0236 EC01     		.uleb128 .L155-.LFB1378
 2828 0238 00       		.uleb128 0
 2829 0239 DF05     		.uleb128 .LEHB85-.LFB1378
 2830 023b 05       		.uleb128 .LEHE85-.LEHB85
 2831 023c 00       		.uleb128 0
 2832 023d 00       		.uleb128 0
 2833              	.LLSDACSE1378:
 2834 023e 03       		.byte	0x3
 2835 023f 00       		.byte	0
 2836 0240 02       		.byte	0x2
 2837 0241 7D       		.byte	0x7d
 2838 0242 01       		.byte	0x1
 2839 0243 7D       		.byte	0x7d
 2840 0244 00       		.byte	0
 2841 0245 7D       		.byte	0x7d
 2842 0246 0000     		.align 4
 2843 0248 00000000 		.long	0
 2844              	
 2845 024c 00000000 		.long	_ZTISt9exception
 2846 0250 00000000 		.long	_ZTIN8UnitTest15AssertExceptionE
 2847              	.LLSDATT1378:
 2848              		.text
 2850              		.section	.rodata
 2851              		.align 8
 2852              	.LC24:
 2853 03d0 3C3F786D 		.string	"<?xml version=\"1.0\"?><unittest-results tests=\"1\" failedtests=\"0\" failures=\"0\" tim
 2853      6C207665 
 2853      7273696F 
 2853      6E3D2231 
 2853      2E30223F 
 2854              		.text
 2855 147f 90       		.align 2
 2857              	_ZN12_GLOBAL__N_167XmlTestReporterFixtureSingleSuccessfulTestReportSummaryFormatHelper7RunImplEv:
 2858              	.LFB1382:
  81:TestXmlTestReporter.cpp **** {
 2859              		.loc 3 81 0 is_stmt 1
 2860              		.cfi_startproc
 2861              		.cfi_personality 0x3,__gxx_personality_v0
 2862              		.cfi_lsda 0x3,.LLSDA1382
 2863 1480 55       		pushq	%rbp
 2864              		.cfi_def_cfa_offset 16
 2865              		.cfi_offset 6, -16
 2866 1481 4889E5   		movq	%rsp, %rbp
 2867              		.cfi_def_cfa_register 6
 2868 1484 53       		pushq	%rbx
 2869 1485 4883EC78 		subq	$120, %rsp
 2870              		.cfi_offset 3, -24
 2871 1489 48897D88 		movq	%rdi, -120(%rbp)
 2872              		.loc 3 81 0
 2873 148d 64488B04 		movq	%fs:40, %rax
 2873      25280000 
 2873      00
 2874 1496 488945E8 		movq	%rax, -24(%rbp)
 2875 149a 31C0     		xorl	%eax, %eax
 2876              	.LBB72:
  82:TestXmlTestReporter.cpp ****     TestDetails const details("TestName", "DefaultSuite", "", 0);
 2877              		.loc 3 82 0
 2878 149c 488D45A0 		leaq	-96(%rbp), %rax
 2879 14a0 41B80000 		movl	$0, %r8d
 2879      0000
 2880 14a6 B9000000 		movl	$.LC14, %ecx
 2880      00
 2881 14ab BA000000 		movl	$.LC0, %edx
 2881      00
 2882 14b0 BE000000 		movl	$.LC8, %esi
 2882      00
 2883 14b5 4889C7   		movq	%rax, %rdi
 2884              	.LEHB86:
 2885 14b8 E8000000 		call	_ZN8UnitTest11TestDetailsC1EPKcS2_S2_i
 2885      00
  83:TestXmlTestReporter.cpp **** 
  84:TestXmlTestReporter.cpp ****     reporter.ReportTestStart(details);
 2886              		.loc 3 84 0
 2887 14bd 488B4588 		movq	-120(%rbp), %rax
 2888 14c1 488D9060 		leaq	352(%rax), %rdx
 2888      010000
 2889 14c8 488D45A0 		leaq	-96(%rbp), %rax
 2890 14cc 4889C6   		movq	%rax, %rsi
 2891 14cf 4889D7   		movq	%rdx, %rdi
 2892 14d2 E8000000 		call	_ZN8UnitTest20DeferredTestReporter15ReportTestStartERKNS_11TestDetailsE
 2892      00
  85:TestXmlTestReporter.cpp ****     reporter.ReportSummary(1, 0, 0, 0.1f);
 2893              		.loc 3 85 0
 2894 14d7 488B4588 		movq	-120(%rbp), %rax
 2895 14db 48056001 		addq	$352, %rax
 2895      0000
 2896 14e1 F30F1005 		movss	.LC10(%rip), %xmm0
 2896      00000000 
 2897 14e9 B9000000 		movl	$0, %ecx
 2897      00
 2898 14ee BA000000 		movl	$0, %edx
 2898      00
 2899 14f3 BE010000 		movl	$1, %esi
 2899      00
 2900 14f8 4889C7   		movq	%rax, %rdi
 2901 14fb E8000000 		call	_ZN8UnitTest15XmlTestReporter13ReportSummaryEiiif
 2901      00
 2902              	.LEHE86:
  86:TestXmlTestReporter.cpp **** 
  87:TestXmlTestReporter.cpp ****     const char *expected =
  88:TestXmlTestReporter.cpp **** "<?xml version=\"1.0\"?>"
  89:TestXmlTestReporter.cpp **** "<unittest-results tests=\"1\" failedtests=\"0\" failures=\"0\" time=\"0.1\">"
  90:TestXmlTestReporter.cpp **** "<test suite=\"DefaultSuite\" name=\"TestName\" time=\"0\"/>"
  91:TestXmlTestReporter.cpp **** "</unittest-results>";
 2903              		.loc 3 91 0
 2904 1500 48C74598 		movq	$.LC24, -104(%rbp)
 2904      00000000 
 2905              	.LEHB87:
  92:TestXmlTestReporter.cpp **** 
  93:TestXmlTestReporter.cpp ****     CHECK_EQUAL(expected, output.str());
 2906              		.loc 3 93 0
 2907 1508 E8000000 		call	_ZN8UnitTest11CurrentTest7DetailsEv
 2907      00
 2908 150d 488B08   		movq	(%rax), %rcx
 2909 1510 488D45C0 		leaq	-64(%rbp), %rax
 2910 1514 BA5D0000 		movl	$93, %edx
 2910      00
 2911 1519 4889CE   		movq	%rcx, %rsi
 2912 151c 4889C7   		movq	%rax, %rdi
 2913 151f E8000000 		call	_ZN8UnitTest11TestDetailsC1ERKS0_i
 2913      00
 2914              		.loc 3 93 0 is_stmt 0 discriminator 2
 2915 1524 488B5588 		movq	-120(%rbp), %rdx
 2916 1528 488D4590 		leaq	-112(%rbp), %rax
 2917 152c 4889D6   		movq	%rdx, %rsi
 2918 152f 4889C7   		movq	%rax, %rdi
 2919 1532 E8000000 		call	_ZNKSt19basic_ostringstreamIcSt11char_traitsIcESaIcEE3strEv
 2919      00
 2920              	.LEHE87:
 2921              	.LEHB88:
 2922              		.loc 3 93 0 discriminator 4
 2923 1537 E8000000 		call	_ZN8UnitTest11CurrentTest7ResultsEv
 2923      00
 2924 153c 488B00   		movq	(%rax), %rax
 2925 153f 488D4DC0 		leaq	-64(%rbp), %rcx
 2926 1543 488D5590 		leaq	-112(%rbp), %rdx
 2927 1547 488D7598 		leaq	-104(%rbp), %rsi
 2928 154b 4889C7   		movq	%rax, %rdi
 2929 154e E8000000 		call	_ZN8UnitTest10CheckEqualIPKcSsEEvRNS_11TestResultsERKT_RKT0_RKNS_11TestDetailsE
 2929      00
 2930              	.LEHE88:
 2931              		.loc 3 93 0 discriminator 8
 2932 1553 488D4590 		leaq	-112(%rbp), %rax
 2933 1557 4889C7   		movq	%rax, %rdi
 2934              	.LEHB89:
 2935 155a E8000000 		call	_ZNSsD1Ev
 2935      00
 2936              	.LEHE89:
 2937              	.LBE72:
  94:TestXmlTestReporter.cpp **** }
 2938              		.loc 3 94 0 is_stmt 1
 2939 155f EB6C     		jmp	.L167
 2940              	.L165:
 2941 1561 4889C3   		movq	%rax, %rbx
 2942              	.LBB73:
  93:TestXmlTestReporter.cpp **** }
 2943              		.loc 3 93 0
 2944 1564 488D4590 		leaq	-112(%rbp), %rax
 2945 1568 4889C7   		movq	%rax, %rdi
 2946 156b E8000000 		call	_ZNSsD1Ev
 2946      00
 2947 1570 4889D8   		movq	%rbx, %rax
 2948 1573 EB13     		jmp	.L160
 2949              	.L166:
 2950 1575 4889C3   		movq	%rax, %rbx
 2951 1578 E8000000 		call	__cxa_end_catch
 2951      00
 2952 157d 4889D8   		movq	%rbx, %rax
 2953 1580 4889C7   		movq	%rax, %rdi
 2954              	.LEHB90:
 2955 1583 E8000000 		call	_Unwind_Resume
 2955      00
 2956              	.LEHE90:
 2957              	.L164:
 2958              	.L160:
 2959 1588 4889C7   		movq	%rax, %rdi
 2960 158b E8000000 		call	__cxa_begin_catch
 2960      00
 2961              	.LEHB91:
 2962 1590 E8000000 		call	_ZN8UnitTest11CurrentTest7DetailsEv
 2962      00
 2963 1595 488B08   		movq	(%rax), %rcx
 2964 1598 488D45C0 		leaq	-64(%rbp), %rax
 2965 159c BA5D0000 		movl	$93, %edx
 2965      00
 2966 15a1 4889CE   		movq	%rcx, %rsi
 2967 15a4 4889C7   		movq	%rax, %rdi
 2968 15a7 E8000000 		call	_ZN8UnitTest11TestDetailsC1ERKS0_i
 2968      00
  93:TestXmlTestReporter.cpp **** }
 2969              		.loc 3 93 0 is_stmt 0 discriminator 14
 2970 15ac E8000000 		call	_ZN8UnitTest11CurrentTest7ResultsEv
 2970      00
 2971 15b1 488B00   		movq	(%rax), %rax
 2972 15b4 488D4DC0 		leaq	-64(%rbp), %rcx
 2973 15b8 BA000000 		movl	$.LC12, %edx
 2973      00
 2974 15bd 4889CE   		movq	%rcx, %rsi
 2975 15c0 4889C7   		movq	%rax, %rdi
 2976 15c3 E8000000 		call	_ZN8UnitTest11TestResults13OnTestFailureERKNS_11TestDetailsEPKc
 2976      00
 2977              	.LEHE91:
 2978              	.LEHB92:
  93:TestXmlTestReporter.cpp **** }
 2979              		.loc 3 93 0 discriminator 18
 2980 15c8 E8000000 		call	__cxa_end_catch
 2980      00
 2981              	.LEHE92:
 2982              	.L167:
 2983              	.LBE73:
 2984              		.loc 3 94 0 is_stmt 1
 2985 15cd 90       		nop
 2986 15ce 488B45E8 		movq	-24(%rbp), %rax
 2987 15d2 64483304 		xorq	%fs:40, %rax
 2987      25280000 
 2987      00
 2988 15db 7405     		je	.L163
 2989 15dd E8000000 		call	__stack_chk_fail
 2989      00
 2990              	.L163:
 2991 15e2 4883C478 		addq	$120, %rsp
 2992 15e6 5B       		popq	%rbx
 2993 15e7 5D       		popq	%rbp
 2994              		.cfi_def_cfa 7, 8
 2995 15e8 C3       		ret
 2996              		.cfi_endproc
 2997              	.LFE1382:
 2998              		.section	.gcc_except_table
 2999              		.align 4
 3000              	.LLSDA1382:
 3001 0254 FF       		.byte	0xff
 3002 0255 03       		.byte	0x3
 3003 0256 31       		.uleb128 .LLSDATT1382-.LLSDATTD1382
 3004              	.LLSDATTD1382:
 3005 0257 01       		.byte	0x1
 3006 0258 26       		.uleb128 .LLSDACSE1382-.LLSDACSB1382
 3007              	.LLSDACSB1382:
 3008 0259 38       		.uleb128 .LEHB86-.LFB1382
 3009 025a 48       		.uleb128 .LEHE86-.LEHB86
 3010 025b 00       		.uleb128 0
 3011 025c 00       		.uleb128 0
 3012 025d 8801     		.uleb128 .LEHB87-.LFB1382
 3013 025f 2F       		.uleb128 .LEHE87-.LEHB87
 3014 0260 8802     		.uleb128 .L164-.LFB1382
 3015 0262 01       		.uleb128 0x1
 3016 0263 B701     		.uleb128 .LEHB88-.LFB1382
 3017 0265 1C       		.uleb128 .LEHE88-.LEHB88
 3018 0266 E101     		.uleb128 .L165-.LFB1382
 3019 0268 03       		.uleb128 0x3
 3020 0269 DA01     		.uleb128 .LEHB89-.LFB1382
 3021 026b 05       		.uleb128 .LEHE89-.LEHB89
 3022 026c 8802     		.uleb128 .L164-.LFB1382
 3023 026e 01       		.uleb128 0x1
 3024 026f 8302     		.uleb128 .LEHB90-.LFB1382
 3025 0271 05       		.uleb128 .LEHE90-.LEHB90
 3026 0272 00       		.uleb128 0
 3027 0273 00       		.uleb128 0
 3028 0274 9002     		.uleb128 .LEHB91-.LFB1382
 3029 0276 38       		.uleb128 .LEHE91-.LEHB91
 3030 0277 F501     		.uleb128 .L166-.LFB1382
 3031 0279 00       		.uleb128 0
 3032 027a C802     		.uleb128 .LEHB92-.LFB1382
 3033 027c 05       		.uleb128 .LEHE92-.LEHB92
 3034 027d 00       		.uleb128 0
 3035 027e 00       		.uleb128 0
 3036              	.LLSDACSE1382:
 3037 027f 01       		.byte	0x1
 3038 0280 00       		.byte	0
 3039 0281 00       		.byte	0
 3040 0282 7D       		.byte	0x7d
 3041 0283 00       		.align 4
 3042 0284 00000000 		.long	0
 3043              	
 3044              	.LLSDATT1382:
 3045              		.text
 3047 15e9 90       		.align 2
 3049              	_ZN12_GLOBAL__N_163XmlTestReporterFixtureSingleFailedTestReportSummaryFormatHelperC2ERKN8UnitTest11
 3050              	.LFB1384:
  95:TestXmlTestReporter.cpp **** 
  96:TestXmlTestReporter.cpp **** TEST_FIXTURE(XmlTestReporterFixture, SingleFailedTestReportSummaryFormat)
 3051              		.loc 3 96 0
 3052              		.cfi_startproc
 3053 15ea 55       		pushq	%rbp
 3054              		.cfi_def_cfa_offset 16
 3055              		.cfi_offset 6, -16
 3056 15eb 4889E5   		movq	%rsp, %rbp
 3057              		.cfi_def_cfa_register 6
 3058 15ee 4883EC10 		subq	$16, %rsp
 3059 15f2 48897DF8 		movq	%rdi, -8(%rbp)
 3060 15f6 488975F0 		movq	%rsi, -16(%rbp)
 3061              	.LBB74:
 3062              		.loc 3 96 0
 3063 15fa 488B45F8 		movq	-8(%rbp), %rax
 3064 15fe 4889C7   		movq	%rax, %rdi
 3065 1601 E8FAE9FF 		call	_ZN12_GLOBAL__N_122XmlTestReporterFixtureC2Ev
 3065      FF
 3066 1606 488B45F8 		movq	-8(%rbp), %rax
 3067 160a 488B55F0 		movq	-16(%rbp), %rdx
 3068 160e 48899088 		movq	%rdx, 392(%rax)
 3068      010000
 3069              	.LBE74:
 3070 1615 C9       		leave
 3071              		.cfi_def_cfa 7, 8
 3072 1616 C3       		ret
 3073              		.cfi_endproc
 3074              	.LFE1384:
 3076              		.section	.rodata
 3077 0472 00000000 		.align 8
 3077      0000
 3078              	.LC25:
 3079 0478 53696E67 		.string	"SingleFailedTestReportSummaryFormat"
 3079      6C654661 
 3079      696C6564 
 3079      54657374 
 3079      5265706F 
 3080              		.text
 3081 1617 90       		.align 2
 3083              	_ZN12_GLOBAL__N_161TestXmlTestReporterFixtureSingleFailedTestReportSummaryFormatC2Ev:
 3084              	.LFB1387:
 3085              		.loc 3 96 0
 3086              		.cfi_startproc
 3087 1618 55       		pushq	%rbp
 3088              		.cfi_def_cfa_offset 16
 3089              		.cfi_offset 6, -16
 3090 1619 4889E5   		movq	%rsp, %rbp
 3091              		.cfi_def_cfa_register 6
 3092 161c 4883EC10 		subq	$16, %rsp
 3093 1620 48897DF8 		movq	%rdi, -8(%rbp)
 3094              	.LBB75:
 3095              		.loc 3 96 0
 3096 1624 E8000000 		call	_ZN13UnitTestSuite12GetSuiteNameEv
 3096      00
 3097 1629 4889C2   		movq	%rax, %rdx
 3098 162c 488B45F8 		movq	-8(%rbp), %rax
 3099 1630 41B86000 		movl	$96, %r8d
 3099      0000
 3100 1636 B9000000 		movl	$.LC1, %ecx
 3100      00
 3101 163b BE000000 		movl	$.LC25, %esi
 3101      00
 3102 1640 4889C7   		movq	%rax, %rdi
 3103 1643 E8000000 		call	_ZN8UnitTest4TestC2EPKcS2_S2_i
 3103      00
 3104 1648 488B45F8 		movq	-8(%rbp), %rax
 3105 164c 48C70000 		movq	$_ZTVN12_GLOBAL__N_161TestXmlTestReporterFixtureSingleFailedTestReportSummaryFormatE+16, (%ra
 3105      000000
 3106              	.LBE75:
 3107 1653 C9       		leave
 3108              		.cfi_def_cfa 7, 8
 3109 1654 C3       		ret
 3110              		.cfi_endproc
 3111              	.LFE1387:
 3113              		.local	_ZN12_GLOBAL__N_169testXmlTestReporterFixtureSingleFailedTestReportSummaryFormatInstanceE
 3114              		.comm	_ZN12_GLOBAL__N_169testXmlTestReporterFixtureSingleFailedTestReportSummaryFormatInstanceE,56
 3115              		.local	_ZN12_GLOBAL__N_162adderXmlTestReporterFixtureSingleFailedTestReportSummaryFormatE
 3116              		.comm	_ZN12_GLOBAL__N_162adderXmlTestReporterFixtureSingleFailedTestReportSummaryFormatE,1,1
 3117 1655 90       		.align 2
 3119              	_ZN12_GLOBAL__N_163XmlTestReporterFixtureSingleFailedTestReportSummaryFormatHelperD2Ev:
 3120              	.LFB1391:
 3121              		.loc 3 96 0
 3122              		.cfi_startproc
 3123 1656 55       		pushq	%rbp
 3124              		.cfi_def_cfa_offset 16
 3125              		.cfi_offset 6, -16
 3126 1657 4889E5   		movq	%rsp, %rbp
 3127              		.cfi_def_cfa_register 6
 3128 165a 4883EC10 		subq	$16, %rsp
 3129 165e 48897DF8 		movq	%rdi, -8(%rbp)
 3130              	.LBB76:
 3131              		.loc 3 96 0
 3132 1662 488B45F8 		movq	-8(%rbp), %rax
 3133 1666 4889C7   		movq	%rax, %rdi
 3134 1669 E8EEE9FF 		call	_ZN12_GLOBAL__N_122XmlTestReporterFixtureD2Ev
 3134      FF
 3135              	.LBE76:
 3136 166e C9       		leave
 3137              		.cfi_def_cfa 7, 8
 3138 166f C3       		ret
 3139              		.cfi_endproc
 3140              	.LFE1391:
 3142              		.align 2
 3144              	_ZNK12_GLOBAL__N_161TestXmlTestReporterFixtureSingleFailedTestReportSummaryFormat7RunImplEv:
 3145              	.LFB1389:
 3146              		.loc 3 96 0
 3147              		.cfi_startproc
 3148              		.cfi_personality 0x3,__gxx_personality_v0
 3149              		.cfi_lsda 0x3,.LLSDA1389
 3150 1670 55       		pushq	%rbp
 3151              		.cfi_def_cfa_offset 16
 3152              		.cfi_offset 6, -16
 3153 1671 4889E5   		movq	%rsp, %rbp
 3154              		.cfi_def_cfa_register 6
 3155 1674 4154     		pushq	%r12
 3156 1676 53       		pushq	%rbx
 3157 1677 4881ECF0 		subq	$496, %rsp
 3157      010000
 3158              		.cfi_offset 12, -24
 3159              		.cfi_offset 3, -32
 3160 167e 4889BD08 		movq	%rdi, -504(%rbp)
 3160      FEFFFF
 3161              		.loc 3 96 0
 3162 1685 64488B04 		movq	%fs:40, %rax
 3162      25280000 
 3162      00
 3163 168e 488945E8 		movq	%rax, -24(%rbp)
 3164 1692 31C0     		xorl	%eax, %eax
 3165              	.LBB77:
 3166 1694 C6851FFE 		movb	$0, -481(%rbp)
 3166      FFFF00
 3167              	.LBB78:
 3168 169b 488B8508 		movq	-504(%rbp), %rax
 3168      FEFFFF
 3169 16a2 488D5008 		leaq	8(%rax), %rdx
 3170 16a6 488D8550 		leaq	-432(%rbp), %rax
 3170      FEFFFF
 3171 16ad 4889D6   		movq	%rdx, %rsi
 3172 16b0 4889C7   		movq	%rax, %rdi
 3173              	.LEHB93:
 3174 16b3 E832FFFF 		call	_ZN12_GLOBAL__N_163XmlTestReporterFixtureSingleFailedTestReportSummaryFormatHelperC2ERKN8Unit
 3174      FF
 3175              	.LEHE93:
 3176              		.loc 3 96 0 is_stmt 0 discriminator 1
 3177 16b8 C6851FFE 		movb	$1, -481(%rbp)
 3177      FFFF01
 3178 16bf 488B8508 		movq	-504(%rbp), %rax
 3178      FEFFFF
 3179 16c6 488D5008 		leaq	8(%rax), %rdx
 3180 16ca 488D8550 		leaq	-432(%rbp), %rax
 3180      FEFFFF
 3181 16d1 4889D6   		movq	%rdx, %rsi
 3182 16d4 4889C7   		movq	%rax, %rdi
 3183              	.LEHB94:
 3184 16d7 E8B71F00 		call	_ZN8UnitTest11ExecuteTestIN12_GLOBAL__N_163XmlTestReporterFixtureSingleFailedTestReportSummar
 3184      00
 3185              	.LEHE94:
 3186              		.loc 3 96 0 discriminator 3
 3187 16dc 488D8550 		leaq	-432(%rbp), %rax
 3187      FEFFFF
 3188 16e3 4889C7   		movq	%rax, %rdi
 3189              	.LEHB95:
 3190 16e6 E86BFFFF 		call	_ZN12_GLOBAL__N_163XmlTestReporterFixtureSingleFailedTestReportSummaryFormatHelperD2Ev
 3190      FF
 3191              	.LEHE95:
 3192              	.LBE78:
 3193              	.LBE77:
 3194              		.loc 3 96 0
 3195 16eb E9640200 		jmp	.L193
 3195      00
 3196              	.L187:
 3197 16f0 4989C4   		movq	%rax, %r12
 3198 16f3 4889D3   		movq	%rdx, %rbx
 3199              	.LBB86:
 3200              	.LBB79:
 3201 16f6 488D8550 		leaq	-432(%rbp), %rax
 3201      FEFFFF
 3202 16fd 4889C7   		movq	%rax, %rdi
 3203 1700 E851FFFF 		call	_ZN12_GLOBAL__N_163XmlTestReporterFixtureSingleFailedTestReportSummaryFormatHelperD2Ev
 3203      FF
 3204 1705 4C89E0   		movq	%r12, %rax
 3205 1708 4889DA   		movq	%rbx, %rdx
 3206 170b EB00     		jmp	.L174
 3207              	.L186:
 3208              	.L174:
 3209 170d 4883FA01 		cmpq	$1, %rdx
 3210 1711 745C     		je	.L176
 3211 1713 4883FA02 		cmpq	$2, %rdx
 3212 1717 0F84F400 		je	.L177
 3212      0000
 3213 171d E9980100 		jmp	.L192
 3213      00
 3214              	.L188:
 3215 1722 4889C3   		movq	%rax, %rbx
 3216              	.LBE79:
 3217              	.LBB80:
 3218 1725 E8000000 		call	__cxa_end_catch
 3218      00
 3219 172a 4889D8   		movq	%rbx, %rax
 3220 172d 4889C7   		movq	%rax, %rdi
 3221              	.LEHB96:
 3222 1730 E8000000 		call	_Unwind_Resume
 3222      00
 3223              	.LEHE96:
 3224              	.L189:
 3225 1735 4889C3   		movq	%rax, %rbx
 3226              	.LBE80:
 3227              	.LBB81:
 3228              	.LBB82:
 3229 1738 488D8550 		leaq	-432(%rbp), %rax
 3229      FEFFFF
 3230 173f 4889C7   		movq	%rax, %rdi
 3231 1742 E8000000 		call	_ZN8UnitTest15MemoryOutStreamD1Ev
 3231      00
 3232 1747 EB03     		jmp	.L180
 3233              	.L190:
 3234 1749 4889C3   		movq	%rax, %rbx
 3235              	.L180:
 3236              	.LBE82:
 3237 174c E8000000 		call	__cxa_end_catch
 3237      00
 3238 1751 4889D8   		movq	%rbx, %rax
 3239 1754 4889C7   		movq	%rax, %rdi
 3240              	.LEHB97:
 3241 1757 E8000000 		call	_Unwind_Resume
 3241      00
 3242              	.LEHE97:
 3243              	.L191:
 3244 175c 4889C3   		movq	%rax, %rbx
 3245              	.LBE81:
 3246 175f E8000000 		call	__cxa_end_catch
 3246      00
 3247 1764 4889D8   		movq	%rbx, %rax
 3248 1767 4889C7   		movq	%rax, %rdi
 3249              	.LEHB98:
 3250 176a E8000000 		call	_Unwind_Resume
 3250      00
 3251              	.LEHE98:
 3252              	.L176:
 3253              	.LBB84:
 3254 176f 4889C7   		movq	%rax, %rdi
 3255 1772 E8000000 		call	__cxa_begin_catch
 3255      00
 3256 1777 48898520 		movq	%rax, -480(%rbp)
 3256      FEFFFF
 3257 177e 488B8520 		movq	-480(%rbp), %rax
 3257      FEFFFF
 3258 1785 488B00   		movq	(%rax), %rax
 3259 1788 4883C010 		addq	$16, %rax
 3260 178c 488B00   		movq	(%rax), %rax
 3261 178f 488B9520 		movq	-480(%rbp), %rdx
 3261      FEFFFF
 3262 1796 4889D7   		movq	%rdx, %rdi
 3263 1799 FFD0     		call	*%rax
 3264 179b 4889C3   		movq	%rax, %rbx
 3265 179e 488B8520 		movq	-480(%rbp), %rax
 3265      FEFFFF
 3266 17a5 4889C7   		movq	%rax, %rdi
 3267              	.LEHB99:
 3268 17a8 E8000000 		call	_ZNK8UnitTest15AssertException10LineNumberEv
 3268      00
 3269 17ad 4189C4   		movl	%eax, %r12d
 3270 17b0 488B8520 		movq	-480(%rbp), %rax
 3270      FEFFFF
 3271 17b7 4889C7   		movq	%rax, %rdi
 3272 17ba E8000000 		call	_ZNK8UnitTest15AssertException8FilenameEv
 3272      00
 3273              		.loc 3 96 0 discriminator 5
 3274 17bf 4889C1   		movq	%rax, %rcx
 3275 17c2 488B8508 		movq	-504(%rbp), %rax
 3275      FEFFFF
 3276 17c9 488B5008 		movq	8(%rax), %rdx
 3277 17cd 488B8508 		movq	-504(%rbp), %rax
 3277      FEFFFF
 3278 17d4 488B7010 		movq	16(%rax), %rsi
 3279 17d8 488D8530 		leaq	-464(%rbp), %rax
 3279      FEFFFF
 3280 17df 4589E0   		movl	%r12d, %r8d
 3281 17e2 4889C7   		movq	%rax, %rdi
 3282 17e5 E8000000 		call	_ZN8UnitTest11TestDetailsC1EPKcS2_S2_i
 3282      00
 3283              		.loc 3 96 0 discriminator 9
 3284 17ea E8000000 		call	_ZN8UnitTest11CurrentTest7ResultsEv
 3284      00
 3285 17ef 488B00   		movq	(%rax), %rax
 3286 17f2 488D8D30 		leaq	-464(%rbp), %rcx
 3286      FEFFFF
 3287 17f9 4889DA   		movq	%rbx, %rdx
 3288 17fc 4889CE   		movq	%rcx, %rsi
 3289 17ff 4889C7   		movq	%rax, %rdi
 3290 1802 E8000000 		call	_ZN8UnitTest11TestResults13OnTestFailureERKNS_11TestDetailsEPKc
 3290      00
 3291              	.LEHE99:
 3292              		.loc 3 96 0 discriminator 13
 3293 1807 E8000000 		call	__cxa_end_catch
 3293      00
 3294              	.LBE84:
 3295              	.LBE86:
 3296 180c E9430100 		jmp	.L193
 3296      00
 3297              	.L177:
 3298              	.LBB87:
 3299              	.LBB85:
 3300              		.loc 3 96 0
 3301 1811 4889C7   		movq	%rax, %rdi
 3302 1814 E8000000 		call	__cxa_begin_catch
 3302      00
 3303 1819 48898528 		movq	%rax, -472(%rbp)
 3303      FEFFFF
 3304              	.LBB83:
 3305 1820 488D8550 		leaq	-432(%rbp), %rax
 3305      FEFFFF
 3306 1827 4889C7   		movq	%rax, %rdi
 3307              	.LEHB100:
 3308 182a E8000000 		call	_ZN8UnitTest15MemoryOutStreamC1Ev
 3308      00
 3309              	.LEHE100:
 3310              		.loc 3 96 0 discriminator 15
 3311 182f 488B8528 		movq	-472(%rbp), %rax
 3311      FEFFFF
 3312 1836 488B00   		movq	(%rax), %rax
 3313 1839 4883C010 		addq	$16, %rax
 3314 183d 488B00   		movq	(%rax), %rax
 3315 1840 488B9528 		movq	-472(%rbp), %rdx
 3315      FEFFFF
 3316 1847 4889D7   		movq	%rdx, %rdi
 3317 184a FFD0     		call	*%rax
 3318 184c 4889C3   		movq	%rax, %rbx
 3319 184f 488D8550 		leaq	-432(%rbp), %rax
 3319      FEFFFF
 3320 1856 BE000000 		movl	$.LC3, %esi
 3320      00
 3321 185b 4889C7   		movq	%rax, %rdi
 3322              	.LEHB101:
 3323 185e E8000000 		call	_ZStlsISt11char_traitsIcEERSt13basic_ostreamIcT_ES5_PKc
 3323      00
 3324 1863 4889DE   		movq	%rbx, %rsi
 3325 1866 4889C7   		movq	%rax, %rdi
 3326 1869 E8000000 		call	_ZStlsISt11char_traitsIcEERSt13basic_ostreamIcT_ES5_PKc
 3326      00
 3327              		.loc 3 96 0 discriminator 19
 3328 186e 488D8550 		leaq	-432(%rbp), %rax
 3328      FEFFFF
 3329 1875 4889C7   		movq	%rax, %rdi
 3330 1878 E8000000 		call	_ZNK8UnitTest15MemoryOutStream7GetTextEv
 3330      00
 3331 187d 4989C4   		movq	%rax, %r12
 3332 1880 488B8508 		movq	-504(%rbp), %rax
 3332      FEFFFF
 3333 1887 488D5808 		leaq	8(%rax), %rbx
 3334 188b E8000000 		call	_ZN8UnitTest11CurrentTest7ResultsEv
 3334      00
 3335              		.loc 3 96 0 discriminator 21
 3336 1890 488B00   		movq	(%rax), %rax
 3337 1893 4C89E2   		movq	%r12, %rdx
 3338 1896 4889DE   		movq	%rbx, %rsi
 3339 1899 4889C7   		movq	%rax, %rdi
 3340 189c E8000000 		call	_ZN8UnitTest11TestResults13OnTestFailureERKNS_11TestDetailsEPKc
 3340      00
 3341              	.LEHE101:
 3342              		.loc 3 96 0 discriminator 25
 3343 18a1 488D8550 		leaq	-432(%rbp), %rax
 3343      FEFFFF
 3344 18a8 4889C7   		movq	%rax, %rdi
 3345              	.LEHB102:
 3346 18ab E8000000 		call	_ZN8UnitTest15MemoryOutStreamD1Ev
 3346      00
 3347              	.LEHE102:
 3348              	.LBE83:
 3349              		.loc 3 96 0 discriminator 26
 3350 18b0 E8000000 		call	__cxa_end_catch
 3350      00
 3351              	.LBE85:
 3352              	.LBE87:
 3353 18b5 E99A0000 		jmp	.L193
 3353      00
 3354              	.L192:
 3355              	.LBB88:
 3356              		.loc 3 96 0
 3357 18ba 4889C7   		movq	%rax, %rdi
 3358 18bd E8000000 		call	__cxa_begin_catch
 3358      00
 3359 18c2 80BD1FFE 		cmpb	$0, -481(%rbp)
 3359      FFFF00
 3360 18c9 7443     		je	.L183
 3361              		.loc 3 96 0 discriminator 28
 3362 18cb 488B8508 		movq	-504(%rbp), %rax
 3362      FEFFFF
 3363 18d2 488D4808 		leaq	8(%rax), %rcx
 3364 18d6 488D8530 		leaq	-464(%rbp), %rax
 3364      FEFFFF
 3365 18dd BA600000 		movl	$96, %edx
 3365      00
 3366 18e2 4889CE   		movq	%rcx, %rsi
 3367 18e5 4889C7   		movq	%rax, %rdi
 3368              	.LEHB103:
 3369 18e8 E8000000 		call	_ZN8UnitTest11TestDetailsC1ERKS0_i
 3369      00
 3370              		.loc 3 96 0 discriminator 31
 3371 18ed E8000000 		call	_ZN8UnitTest11CurrentTest7ResultsEv
 3371      00
 3372 18f2 488B00   		movq	(%rax), %rax
 3373 18f5 488D8D30 		leaq	-464(%rbp), %rcx
 3373      FEFFFF
 3374 18fc BA000000 		movl	$.LC4, %edx
 3374      00
 3375 1901 4889CE   		movq	%rcx, %rsi
 3376 1904 4889C7   		movq	%rax, %rdi
 3377 1907 E8000000 		call	_ZN8UnitTest11TestResults13OnTestFailureERKNS_11TestDetailsEPKc
 3377      00
 3378 190c EB41     		jmp	.L184
 3379              	.L183:
 3380              		.loc 3 96 0 discriminator 29
 3381 190e 488B8508 		movq	-504(%rbp), %rax
 3381      FEFFFF
 3382 1915 488D4808 		leaq	8(%rax), %rcx
 3383 1919 488D8530 		leaq	-464(%rbp), %rax
 3383      FEFFFF
 3384 1920 BA600000 		movl	$96, %edx
 3384      00
 3385 1925 4889CE   		movq	%rcx, %rsi
 3386 1928 4889C7   		movq	%rax, %rdi
 3387 192b E8000000 		call	_ZN8UnitTest11TestDetailsC1ERKS0_i
 3387      00
 3388              		.loc 3 96 0 discriminator 38
 3389 1930 E8000000 		call	_ZN8UnitTest11CurrentTest7ResultsEv
 3389      00
 3390 1935 488B00   		movq	(%rax), %rax
 3391 1938 488D8D30 		leaq	-464(%rbp), %rcx
 3391      FEFFFF
 3392 193f BA000000 		movl	$.LC5, %edx
 3392      00
 3393 1944 4889CE   		movq	%rcx, %rsi
 3394 1947 4889C7   		movq	%rax, %rdi
 3395 194a E8000000 		call	_ZN8UnitTest11TestResults13OnTestFailureERKNS_11TestDetailsEPKc
 3395      00
 3396              	.LEHE103:
 3397              	.L184:
 3398              	.LEHB104:
 3399              		.loc 3 96 0 discriminator 43
 3400 194f E8000000 		call	__cxa_end_catch
 3400      00
 3401              	.LEHE104:
 3402              	.L193:
 3403              	.LBE88:
 3404              		.loc 3 96 0
 3405 1954 90       		nop
 3406 1955 488B45E8 		movq	-24(%rbp), %rax
 3407 1959 64483304 		xorq	%fs:40, %rax
 3407      25280000 
 3407      00
 3408 1962 7405     		je	.L185
 3409 1964 E8000000 		call	__stack_chk_fail
 3409      00
 3410              	.L185:
 3411 1969 4881C4F0 		addq	$496, %rsp
 3411      010000
 3412 1970 5B       		popq	%rbx
 3413 1971 415C     		popq	%r12
 3414 1973 5D       		popq	%rbp
 3415              		.cfi_def_cfa 7, 8
 3416 1974 C3       		ret
 3417              		.cfi_endproc
 3418              	.LFE1389:
 3419              		.section	.gcc_except_table
 3420              		.align 4
 3421              	.LLSDA1389:
 3422 0288 FF       		.byte	0xff
 3423 0289 03       		.byte	0x3
 3424 028a 59       		.uleb128 .LLSDATT1389-.LLSDATTD1389
 3425              	.LLSDATTD1389:
 3426 028b 01       		.byte	0x1
 3427 028c 41       		.uleb128 .LLSDACSE1389-.LLSDACSB1389
 3428              	.LLSDACSB1389:
 3429 028d 43       		.uleb128 .LEHB93-.LFB1389
 3430 028e 05       		.uleb128 .LEHE93-.LEHB93
 3431 028f 9D01     		.uleb128 .L186-.LFB1389
 3432 0291 05       		.uleb128 0x5
 3433 0292 67       		.uleb128 .LEHB94-.LFB1389
 3434 0293 05       		.uleb128 .LEHE94-.LEHB94
 3435 0294 8001     		.uleb128 .L187-.LFB1389
 3436 0296 07       		.uleb128 0x7
 3437 0297 76       		.uleb128 .LEHB95-.LFB1389
 3438 0298 05       		.uleb128 .LEHE95-.LEHB95
 3439 0299 9D01     		.uleb128 .L186-.LFB1389
 3440 029b 05       		.uleb128 0x5
 3441 029c C001     		.uleb128 .LEHB96-.LFB1389
 3442 029e 05       		.uleb128 .LEHE96-.LEHB96
 3443 029f 00       		.uleb128 0
 3444 02a0 00       		.uleb128 0
 3445 02a1 E701     		.uleb128 .LEHB97-.LFB1389
 3446 02a3 05       		.uleb128 .LEHE97-.LEHB97
 3447 02a4 00       		.uleb128 0
 3448 02a5 00       		.uleb128 0
 3449 02a6 FA01     		.uleb128 .LEHB98-.LFB1389
 3450 02a8 05       		.uleb128 .LEHE98-.LEHB98
 3451 02a9 00       		.uleb128 0
 3452 02aa 00       		.uleb128 0
 3453 02ab B802     		.uleb128 .LEHB99-.LFB1389
 3454 02ad 5F       		.uleb128 .LEHE99-.LEHB99
 3455 02ae B201     		.uleb128 .L188-.LFB1389
 3456 02b0 00       		.uleb128 0
 3457 02b1 BA03     		.uleb128 .LEHB100-.LFB1389
 3458 02b3 05       		.uleb128 .LEHE100-.LEHB100
 3459 02b4 D901     		.uleb128 .L190-.LFB1389
 3460 02b6 00       		.uleb128 0
 3461 02b7 EE03     		.uleb128 .LEHB101-.LFB1389
 3462 02b9 43       		.uleb128 .LEHE101-.LEHB101
 3463 02ba C501     		.uleb128 .L189-.LFB1389
 3464 02bc 00       		.uleb128 0
 3465 02bd BB04     		.uleb128 .LEHB102-.LFB1389
 3466 02bf 05       		.uleb128 .LEHE102-.LEHB102
 3467 02c0 D901     		.uleb128 .L190-.LFB1389
 3468 02c2 00       		.uleb128 0
 3469 02c3 F804     		.uleb128 .LEHB103-.LFB1389
 3470 02c5 67       		.uleb128 .LEHE103-.LEHB103
 3471 02c6 EC01     		.uleb128 .L191-.LFB1389
 3472 02c8 00       		.uleb128 0
 3473 02c9 DF05     		.uleb128 .LEHB104-.LFB1389
 3474 02cb 05       		.uleb128 .LEHE104-.LEHB104
 3475 02cc 00       		.uleb128 0
 3476 02cd 00       		.uleb128 0
 3477              	.LLSDACSE1389:
 3478 02ce 03       		.byte	0x3
 3479 02cf 00       		.byte	0
 3480 02d0 02       		.byte	0x2
 3481 02d1 7D       		.byte	0x7d
 3482 02d2 01       		.byte	0x1
 3483 02d3 7D       		.byte	0x7d
 3484 02d4 00       		.byte	0
 3485 02d5 7D       		.byte	0x7d
 3486 02d6 0000     		.align 4
 3487 02d8 00000000 		.long	0
 3488              	
 3489 02dc 00000000 		.long	_ZTISt9exception
 3490 02e0 00000000 		.long	_ZTIN8UnitTest15AssertExceptionE
 3491              	.LLSDATT1389:
 3492              		.text
 3494              		.section	.rodata
 3495              	.LC26:
 3496 049c 41204669 		.string	"A File"
 3496      6C6500
 3497              	.LC27:
 3498 04a3 41205465 		.string	"A Test"
 3498      737400
 3499              	.LC28:
 3500 04aa 41204661 		.string	"A Failure"
 3500      696C7572 
 3500      6500
 3501 04b4 00000000 		.align 8
 3502              	.LC29:
 3503 04b8 3C3F786D 		.string	"<?xml version=\"1.0\"?><unittest-results tests=\"1\" failedtests=\"1\" failures=\"1\" tim
 3503      6C207665 
 3503      7273696F 
 3503      6E3D2231 
 3503      2E30223F 
 3504              		.text
 3505 1975 90       		.align 2
 3507              	_ZN12_GLOBAL__N_163XmlTestReporterFixtureSingleFailedTestReportSummaryFormatHelper7RunImplEv:
 3508              	.LFB1393:
  97:TestXmlTestReporter.cpp **** {
 3509              		.loc 3 97 0 is_stmt 1
 3510              		.cfi_startproc
 3511              		.cfi_personality 0x3,__gxx_personality_v0
 3512              		.cfi_lsda 0x3,.LLSDA1393
 3513 1976 55       		pushq	%rbp
 3514              		.cfi_def_cfa_offset 16
 3515              		.cfi_offset 6, -16
 3516 1977 4889E5   		movq	%rsp, %rbp
 3517              		.cfi_def_cfa_register 6
 3518 197a 53       		pushq	%rbx
 3519 197b 4883EC78 		subq	$120, %rsp
 3520              		.cfi_offset 3, -24
 3521 197f 48897D88 		movq	%rdi, -120(%rbp)
 3522              		.loc 3 97 0
 3523 1983 64488B04 		movq	%fs:40, %rax
 3523      25280000 
 3523      00
 3524 198c 488945E8 		movq	%rax, -24(%rbp)
 3525 1990 31C0     		xorl	%eax, %eax
 3526              	.LBB89:
  98:TestXmlTestReporter.cpp ****     TestDetails const details("A Test", "suite", "A File", 4321);
 3527              		.loc 3 98 0
 3528 1992 488D45A0 		leaq	-96(%rbp), %rax
 3529 1996 41B8E110 		movl	$4321, %r8d
 3529      0000
 3530 199c B9000000 		movl	$.LC26, %ecx
 3530      00
 3531 19a1 BA000000 		movl	$.LC7, %edx
 3531      00
 3532 19a6 BE000000 		movl	$.LC27, %esi
 3532      00
 3533 19ab 4889C7   		movq	%rax, %rdi
 3534              	.LEHB105:
 3535 19ae E8000000 		call	_ZN8UnitTest11TestDetailsC1EPKcS2_S2_i
 3535      00
  99:TestXmlTestReporter.cpp **** 
 100:TestXmlTestReporter.cpp ****     reporter.ReportTestStart(details);
 3536              		.loc 3 100 0
 3537 19b3 488B4588 		movq	-120(%rbp), %rax
 3538 19b7 488D9060 		leaq	352(%rax), %rdx
 3538      010000
 3539 19be 488D45A0 		leaq	-96(%rbp), %rax
 3540 19c2 4889C6   		movq	%rax, %rsi
 3541 19c5 4889D7   		movq	%rdx, %rdi
 3542 19c8 E8000000 		call	_ZN8UnitTest20DeferredTestReporter15ReportTestStartERKNS_11TestDetailsE
 3542      00
 101:TestXmlTestReporter.cpp ****     reporter.ReportFailure(details, "A Failure");
 3543              		.loc 3 101 0
 3544 19cd 488B4588 		movq	-120(%rbp), %rax
 3545 19d1 488D8860 		leaq	352(%rax), %rcx
 3545      010000
 3546 19d8 488D45A0 		leaq	-96(%rbp), %rax
 3547 19dc BA000000 		movl	$.LC28, %edx
 3547      00
 3548 19e1 4889C6   		movq	%rax, %rsi
 3549 19e4 4889CF   		movq	%rcx, %rdi
 3550 19e7 E8000000 		call	_ZN8UnitTest20DeferredTestReporter13ReportFailureERKNS_11TestDetailsEPKc
 3550      00
 102:TestXmlTestReporter.cpp ****     reporter.ReportSummary(1, 1, 1, 0.1f);
 3551              		.loc 3 102 0
 3552 19ec 488B4588 		movq	-120(%rbp), %rax
 3553 19f0 48056001 		addq	$352, %rax
 3553      0000
 3554 19f6 F30F1005 		movss	.LC10(%rip), %xmm0
 3554      00000000 
 3555 19fe B9010000 		movl	$1, %ecx
 3555      00
 3556 1a03 BA010000 		movl	$1, %edx
 3556      00
 3557 1a08 BE010000 		movl	$1, %esi
 3557      00
 3558 1a0d 4889C7   		movq	%rax, %rdi
 3559 1a10 E8000000 		call	_ZN8UnitTest15XmlTestReporter13ReportSummaryEiiif
 3559      00
 3560              	.LEHE105:
 103:TestXmlTestReporter.cpp **** 
 104:TestXmlTestReporter.cpp ****     const char *expected =
 105:TestXmlTestReporter.cpp ****         "<?xml version=\"1.0\"?>"
 106:TestXmlTestReporter.cpp ****         "<unittest-results tests=\"1\" failedtests=\"1\" failures=\"1\" time=\"0.1\">"
 107:TestXmlTestReporter.cpp ****         "<test suite=\"suite\" name=\"A Test\" time=\"0\">"
 108:TestXmlTestReporter.cpp ****         "<failure message=\"A File(4321) : A Failure\"/>"
 109:TestXmlTestReporter.cpp ****         "</test>"
 110:TestXmlTestReporter.cpp ****         "</unittest-results>";
 3561              		.loc 3 110 0
 3562 1a15 48C74598 		movq	$.LC29, -104(%rbp)
 3562      00000000 
 3563              	.LEHB106:
 111:TestXmlTestReporter.cpp **** 
 112:TestXmlTestReporter.cpp ****     CHECK_EQUAL(expected, output.str());
 3564              		.loc 3 112 0
 3565 1a1d E8000000 		call	_ZN8UnitTest11CurrentTest7DetailsEv
 3565      00
 3566 1a22 488B08   		movq	(%rax), %rcx
 3567 1a25 488D45C0 		leaq	-64(%rbp), %rax
 3568 1a29 BA700000 		movl	$112, %edx
 3568      00
 3569 1a2e 4889CE   		movq	%rcx, %rsi
 3570 1a31 4889C7   		movq	%rax, %rdi
 3571 1a34 E8000000 		call	_ZN8UnitTest11TestDetailsC1ERKS0_i
 3571      00
 3572              		.loc 3 112 0 is_stmt 0 discriminator 2
 3573 1a39 488B5588 		movq	-120(%rbp), %rdx
 3574 1a3d 488D4590 		leaq	-112(%rbp), %rax
 3575 1a41 4889D6   		movq	%rdx, %rsi
 3576 1a44 4889C7   		movq	%rax, %rdi
 3577 1a47 E8000000 		call	_ZNKSt19basic_ostringstreamIcSt11char_traitsIcESaIcEE3strEv
 3577      00
 3578              	.LEHE106:
 3579              	.LEHB107:
 3580              		.loc 3 112 0 discriminator 4
 3581 1a4c E8000000 		call	_ZN8UnitTest11CurrentTest7ResultsEv
 3581      00
 3582 1a51 488B00   		movq	(%rax), %rax
 3583 1a54 488D4DC0 		leaq	-64(%rbp), %rcx
 3584 1a58 488D5590 		leaq	-112(%rbp), %rdx
 3585 1a5c 488D7598 		leaq	-104(%rbp), %rsi
 3586 1a60 4889C7   		movq	%rax, %rdi
 3587 1a63 E8000000 		call	_ZN8UnitTest10CheckEqualIPKcSsEEvRNS_11TestResultsERKT_RKT0_RKNS_11TestDetailsE
 3587      00
 3588              	.LEHE107:
 3589              		.loc 3 112 0 discriminator 8
 3590 1a68 488D4590 		leaq	-112(%rbp), %rax
 3591 1a6c 4889C7   		movq	%rax, %rdi
 3592              	.LEHB108:
 3593 1a6f E8000000 		call	_ZNSsD1Ev
 3593      00
 3594              	.LEHE108:
 3595              	.LBE89:
 113:TestXmlTestReporter.cpp **** }
 3596              		.loc 3 113 0 is_stmt 1
 3597 1a74 EB6C     		jmp	.L203
 3598              	.L201:
 3599 1a76 4889C3   		movq	%rax, %rbx
 3600              	.LBB90:
 112:TestXmlTestReporter.cpp **** }
 3601              		.loc 3 112 0
 3602 1a79 488D4590 		leaq	-112(%rbp), %rax
 3603 1a7d 4889C7   		movq	%rax, %rdi
 3604 1a80 E8000000 		call	_ZNSsD1Ev
 3604      00
 3605 1a85 4889D8   		movq	%rbx, %rax
 3606 1a88 EB13     		jmp	.L196
 3607              	.L202:
 3608 1a8a 4889C3   		movq	%rax, %rbx
 3609 1a8d E8000000 		call	__cxa_end_catch
 3609      00
 3610 1a92 4889D8   		movq	%rbx, %rax
 3611 1a95 4889C7   		movq	%rax, %rdi
 3612              	.LEHB109:
 3613 1a98 E8000000 		call	_Unwind_Resume
 3613      00
 3614              	.LEHE109:
 3615              	.L200:
 3616              	.L196:
 3617 1a9d 4889C7   		movq	%rax, %rdi
 3618 1aa0 E8000000 		call	__cxa_begin_catch
 3618      00
 3619              	.LEHB110:
 3620 1aa5 E8000000 		call	_ZN8UnitTest11CurrentTest7DetailsEv
 3620      00
 3621 1aaa 488B08   		movq	(%rax), %rcx
 3622 1aad 488D45C0 		leaq	-64(%rbp), %rax
 3623 1ab1 BA700000 		movl	$112, %edx
 3623      00
 3624 1ab6 4889CE   		movq	%rcx, %rsi
 3625 1ab9 4889C7   		movq	%rax, %rdi
 3626 1abc E8000000 		call	_ZN8UnitTest11TestDetailsC1ERKS0_i
 3626      00
 112:TestXmlTestReporter.cpp **** }
 3627              		.loc 3 112 0 is_stmt 0 discriminator 14
 3628 1ac1 E8000000 		call	_ZN8UnitTest11CurrentTest7ResultsEv
 3628      00
 3629 1ac6 488B00   		movq	(%rax), %rax
 3630 1ac9 488D4DC0 		leaq	-64(%rbp), %rcx
 3631 1acd BA000000 		movl	$.LC12, %edx
 3631      00
 3632 1ad2 4889CE   		movq	%rcx, %rsi
 3633 1ad5 4889C7   		movq	%rax, %rdi
 3634 1ad8 E8000000 		call	_ZN8UnitTest11TestResults13OnTestFailureERKNS_11TestDetailsEPKc
 3634      00
 3635              	.LEHE110:
 3636              	.LEHB111:
 112:TestXmlTestReporter.cpp **** }
 3637              		.loc 3 112 0 discriminator 18
 3638 1add E8000000 		call	__cxa_end_catch
 3638      00
 3639              	.LEHE111:
 3640              	.L203:
 3641              	.LBE90:
 3642              		.loc 3 113 0 is_stmt 1
 3643 1ae2 90       		nop
 3644 1ae3 488B45E8 		movq	-24(%rbp), %rax
 3645 1ae7 64483304 		xorq	%fs:40, %rax
 3645      25280000 
 3645      00
 3646 1af0 7405     		je	.L199
 3647 1af2 E8000000 		call	__stack_chk_fail
 3647      00
 3648              	.L199:
 3649 1af7 4883C478 		addq	$120, %rsp
 3650 1afb 5B       		popq	%rbx
 3651 1afc 5D       		popq	%rbp
 3652              		.cfi_def_cfa 7, 8
 3653 1afd C3       		ret
 3654              		.cfi_endproc
 3655              	.LFE1393:
 3656              		.section	.gcc_except_table
 3657              		.align 4
 3658              	.LLSDA1393:
 3659 02e4 FF       		.byte	0xff
 3660 02e5 03       		.byte	0x3
 3661 02e6 31       		.uleb128 .LLSDATT1393-.LLSDATTD1393
 3662              	.LLSDATTD1393:
 3663 02e7 01       		.byte	0x1
 3664 02e8 26       		.uleb128 .LLSDACSE1393-.LLSDACSB1393
 3665              	.LLSDACSB1393:
 3666 02e9 38       		.uleb128 .LEHB105-.LFB1393
 3667 02ea 67       		.uleb128 .LEHE105-.LEHB105
 3668 02eb 00       		.uleb128 0
 3669 02ec 00       		.uleb128 0
 3670 02ed A701     		.uleb128 .LEHB106-.LFB1393
 3671 02ef 2F       		.uleb128 .LEHE106-.LEHB106
 3672 02f0 A702     		.uleb128 .L200-.LFB1393
 3673 02f2 01       		.uleb128 0x1
 3674 02f3 D601     		.uleb128 .LEHB107-.LFB1393
 3675 02f5 1C       		.uleb128 .LEHE107-.LEHB107
 3676 02f6 8002     		.uleb128 .L201-.LFB1393
 3677 02f8 03       		.uleb128 0x3
 3678 02f9 F901     		.uleb128 .LEHB108-.LFB1393
 3679 02fb 05       		.uleb128 .LEHE108-.LEHB108
 3680 02fc A702     		.uleb128 .L200-.LFB1393
 3681 02fe 01       		.uleb128 0x1
 3682 02ff A202     		.uleb128 .LEHB109-.LFB1393
 3683 0301 05       		.uleb128 .LEHE109-.LEHB109
 3684 0302 00       		.uleb128 0
 3685 0303 00       		.uleb128 0
 3686 0304 AF02     		.uleb128 .LEHB110-.LFB1393
 3687 0306 38       		.uleb128 .LEHE110-.LEHB110
 3688 0307 9402     		.uleb128 .L202-.LFB1393
 3689 0309 00       		.uleb128 0
 3690 030a E702     		.uleb128 .LEHB111-.LFB1393
 3691 030c 05       		.uleb128 .LEHE111-.LEHB111
 3692 030d 00       		.uleb128 0
 3693 030e 00       		.uleb128 0
 3694              	.LLSDACSE1393:
 3695 030f 01       		.byte	0x1
 3696 0310 00       		.byte	0
 3697 0311 00       		.byte	0
 3698 0312 7D       		.byte	0x7d
 3699 0313 00       		.align 4
 3700 0314 00000000 		.long	0
 3701              	
 3702              	.LLSDATT1393:
 3703              		.text
 3705              		.align 2
 3707              	_ZN12_GLOBAL__N_154XmlTestReporterFixtureFailureMessageIsXMLEscapedHelperC2ERKN8UnitTest11TestDetai
 3708              	.LFB1395:
 114:TestXmlTestReporter.cpp **** 
 115:TestXmlTestReporter.cpp **** TEST_FIXTURE(XmlTestReporterFixture, FailureMessageIsXMLEscaped)
 3709              		.loc 3 115 0
 3710              		.cfi_startproc
 3711 1afe 55       		pushq	%rbp
 3712              		.cfi_def_cfa_offset 16
 3713              		.cfi_offset 6, -16
 3714 1aff 4889E5   		movq	%rsp, %rbp
 3715              		.cfi_def_cfa_register 6
 3716 1b02 4883EC10 		subq	$16, %rsp
 3717 1b06 48897DF8 		movq	%rdi, -8(%rbp)
 3718 1b0a 488975F0 		movq	%rsi, -16(%rbp)
 3719              	.LBB91:
 3720              		.loc 3 115 0
 3721 1b0e 488B45F8 		movq	-8(%rbp), %rax
 3722 1b12 4889C7   		movq	%rax, %rdi
 3723 1b15 E8E6E4FF 		call	_ZN12_GLOBAL__N_122XmlTestReporterFixtureC2Ev
 3723      FF
 3724 1b1a 488B45F8 		movq	-8(%rbp), %rax
 3725 1b1e 488B55F0 		movq	-16(%rbp), %rdx
 3726 1b22 48899088 		movq	%rdx, 392(%rax)
 3726      010000
 3727              	.LBE91:
 3728 1b29 C9       		leave
 3729              		.cfi_def_cfa 7, 8
 3730 1b2a C3       		ret
 3731              		.cfi_endproc
 3732              	.LFE1395:
 3734              		.section	.rodata
 3735              	.LC30:
 3736 0584 4661696C 		.string	"FailureMessageIsXMLEscaped"
 3736      7572654D 
 3736      65737361 
 3736      67654973 
 3736      584D4C45 
 3737              		.text
 3738 1b2b 90       		.align 2
 3740              	_ZN12_GLOBAL__N_152TestXmlTestReporterFixtureFailureMessageIsXMLEscapedC2Ev:
 3741              	.LFB1398:
 3742              		.loc 3 115 0
 3743              		.cfi_startproc
 3744 1b2c 55       		pushq	%rbp
 3745              		.cfi_def_cfa_offset 16
 3746              		.cfi_offset 6, -16
 3747 1b2d 4889E5   		movq	%rsp, %rbp
 3748              		.cfi_def_cfa_register 6
 3749 1b30 4883EC10 		subq	$16, %rsp
 3750 1b34 48897DF8 		movq	%rdi, -8(%rbp)
 3751              	.LBB92:
 3752              		.loc 3 115 0
 3753 1b38 E8000000 		call	_ZN13UnitTestSuite12GetSuiteNameEv
 3753      00
 3754 1b3d 4889C2   		movq	%rax, %rdx
 3755 1b40 488B45F8 		movq	-8(%rbp), %rax
 3756 1b44 41B87300 		movl	$115, %r8d
 3756      0000
 3757 1b4a B9000000 		movl	$.LC1, %ecx
 3757      00
 3758 1b4f BE000000 		movl	$.LC30, %esi
 3758      00
 3759 1b54 4889C7   		movq	%rax, %rdi
 3760 1b57 E8000000 		call	_ZN8UnitTest4TestC2EPKcS2_S2_i
 3760      00
 3761 1b5c 488B45F8 		movq	-8(%rbp), %rax
 3762 1b60 48C70000 		movq	$_ZTVN12_GLOBAL__N_152TestXmlTestReporterFixtureFailureMessageIsXMLEscapedE+16, (%rax)
 3762      000000
 3763              	.LBE92:
 3764 1b67 C9       		leave
 3765              		.cfi_def_cfa 7, 8
 3766 1b68 C3       		ret
 3767              		.cfi_endproc
 3768              	.LFE1398:
 3770              		.local	_ZN12_GLOBAL__N_160testXmlTestReporterFixtureFailureMessageIsXMLEscapedInstanceE
 3771              		.comm	_ZN12_GLOBAL__N_160testXmlTestReporterFixtureFailureMessageIsXMLEscapedInstanceE,56,32
 3772              		.local	_ZN12_GLOBAL__N_153adderXmlTestReporterFixtureFailureMessageIsXMLEscapedE
 3773              		.comm	_ZN12_GLOBAL__N_153adderXmlTestReporterFixtureFailureMessageIsXMLEscapedE,1,1
 3774 1b69 90       		.align 2
 3776              	_ZN12_GLOBAL__N_154XmlTestReporterFixtureFailureMessageIsXMLEscapedHelperD2Ev:
 3777              	.LFB1402:
 3778              		.loc 3 115 0
 3779              		.cfi_startproc
 3780 1b6a 55       		pushq	%rbp
 3781              		.cfi_def_cfa_offset 16
 3782              		.cfi_offset 6, -16
 3783 1b6b 4889E5   		movq	%rsp, %rbp
 3784              		.cfi_def_cfa_register 6
 3785 1b6e 4883EC10 		subq	$16, %rsp
 3786 1b72 48897DF8 		movq	%rdi, -8(%rbp)
 3787              	.LBB93:
 3788              		.loc 3 115 0
 3789 1b76 488B45F8 		movq	-8(%rbp), %rax
 3790 1b7a 4889C7   		movq	%rax, %rdi
 3791 1b7d E8DAE4FF 		call	_ZN12_GLOBAL__N_122XmlTestReporterFixtureD2Ev
 3791      FF
 3792              	.LBE93:
 3793 1b82 C9       		leave
 3794              		.cfi_def_cfa 7, 8
 3795 1b83 C3       		ret
 3796              		.cfi_endproc
 3797              	.LFE1402:
 3799              		.align 2
 3801              	_ZNK12_GLOBAL__N_152TestXmlTestReporterFixtureFailureMessageIsXMLEscaped7RunImplEv:
 3802              	.LFB1400:
 3803              		.loc 3 115 0
 3804              		.cfi_startproc
 3805              		.cfi_personality 0x3,__gxx_personality_v0
 3806              		.cfi_lsda 0x3,.LLSDA1400
 3807 1b84 55       		pushq	%rbp
 3808              		.cfi_def_cfa_offset 16
 3809              		.cfi_offset 6, -16
 3810 1b85 4889E5   		movq	%rsp, %rbp
 3811              		.cfi_def_cfa_register 6
 3812 1b88 4154     		pushq	%r12
 3813 1b8a 53       		pushq	%rbx
 3814 1b8b 4881ECF0 		subq	$496, %rsp
 3814      010000
 3815              		.cfi_offset 12, -24
 3816              		.cfi_offset 3, -32
 3817 1b92 4889BD08 		movq	%rdi, -504(%rbp)
 3817      FEFFFF
 3818              		.loc 3 115 0
 3819 1b99 64488B04 		movq	%fs:40, %rax
 3819      25280000 
 3819      00
 3820 1ba2 488945E8 		movq	%rax, -24(%rbp)
 3821 1ba6 31C0     		xorl	%eax, %eax
 3822              	.LBB94:
 3823 1ba8 C6851FFE 		movb	$0, -481(%rbp)
 3823      FFFF00
 3824              	.LBB95:
 3825 1baf 488B8508 		movq	-504(%rbp), %rax
 3825      FEFFFF
 3826 1bb6 488D5008 		leaq	8(%rax), %rdx
 3827 1bba 488D8550 		leaq	-432(%rbp), %rax
 3827      FEFFFF
 3828 1bc1 4889D6   		movq	%rdx, %rsi
 3829 1bc4 4889C7   		movq	%rax, %rdi
 3830              	.LEHB112:
 3831 1bc7 E832FFFF 		call	_ZN12_GLOBAL__N_154XmlTestReporterFixtureFailureMessageIsXMLEscapedHelperC2ERKN8UnitTest11Tes
 3831      FF
 3832              	.LEHE112:
 3833              		.loc 3 115 0 is_stmt 0 discriminator 1
 3834 1bcc C6851FFE 		movb	$1, -481(%rbp)
 3834      FFFF01
 3835 1bd3 488B8508 		movq	-504(%rbp), %rax
 3835      FEFFFF
 3836 1bda 488D5008 		leaq	8(%rax), %rdx
 3837 1bde 488D8550 		leaq	-432(%rbp), %rax
 3837      FEFFFF
 3838 1be5 4889D6   		movq	%rdx, %rsi
 3839 1be8 4889C7   		movq	%rax, %rdi
 3840              	.LEHB113:
 3841 1beb E8611D00 		call	_ZN8UnitTest11ExecuteTestIN12_GLOBAL__N_154XmlTestReporterFixtureFailureMessageIsXMLEscapedHe
 3841      00
 3842              	.LEHE113:
 3843              		.loc 3 115 0 discriminator 3
 3844 1bf0 488D8550 		leaq	-432(%rbp), %rax
 3844      FEFFFF
 3845 1bf7 4889C7   		movq	%rax, %rdi
 3846              	.LEHB114:
 3847 1bfa E86BFFFF 		call	_ZN12_GLOBAL__N_154XmlTestReporterFixtureFailureMessageIsXMLEscapedHelperD2Ev
 3847      FF
 3848              	.LEHE114:
 3849              	.LBE95:
 3850              	.LBE94:
 3851              		.loc 3 115 0
 3852 1bff E9640200 		jmp	.L229
 3852      00
 3853              	.L223:
 3854 1c04 4989C4   		movq	%rax, %r12
 3855 1c07 4889D3   		movq	%rdx, %rbx
 3856              	.LBB103:
 3857              	.LBB96:
 3858 1c0a 488D8550 		leaq	-432(%rbp), %rax
 3858      FEFFFF
 3859 1c11 4889C7   		movq	%rax, %rdi
 3860 1c14 E851FFFF 		call	_ZN12_GLOBAL__N_154XmlTestReporterFixtureFailureMessageIsXMLEscapedHelperD2Ev
 3860      FF
 3861 1c19 4C89E0   		movq	%r12, %rax
 3862 1c1c 4889DA   		movq	%rbx, %rdx
 3863 1c1f EB00     		jmp	.L210
 3864              	.L222:
 3865              	.L210:
 3866 1c21 4883FA01 		cmpq	$1, %rdx
 3867 1c25 745C     		je	.L212
 3868 1c27 4883FA02 		cmpq	$2, %rdx
 3869 1c2b 0F84F400 		je	.L213
 3869      0000
 3870 1c31 E9980100 		jmp	.L228
 3870      00
 3871              	.L224:
 3872 1c36 4889C3   		movq	%rax, %rbx
 3873              	.LBE96:
 3874              	.LBB97:
 3875 1c39 E8000000 		call	__cxa_end_catch
 3875      00
 3876 1c3e 4889D8   		movq	%rbx, %rax
 3877 1c41 4889C7   		movq	%rax, %rdi
 3878              	.LEHB115:
 3879 1c44 E8000000 		call	_Unwind_Resume
 3879      00
 3880              	.LEHE115:
 3881              	.L225:
 3882 1c49 4889C3   		movq	%rax, %rbx
 3883              	.LBE97:
 3884              	.LBB98:
 3885              	.LBB99:
 3886 1c4c 488D8550 		leaq	-432(%rbp), %rax
 3886      FEFFFF
 3887 1c53 4889C7   		movq	%rax, %rdi
 3888 1c56 E8000000 		call	_ZN8UnitTest15MemoryOutStreamD1Ev
 3888      00
 3889 1c5b EB03     		jmp	.L216
 3890              	.L226:
 3891 1c5d 4889C3   		movq	%rax, %rbx
 3892              	.L216:
 3893              	.LBE99:
 3894 1c60 E8000000 		call	__cxa_end_catch
 3894      00
 3895 1c65 4889D8   		movq	%rbx, %rax
 3896 1c68 4889C7   		movq	%rax, %rdi
 3897              	.LEHB116:
 3898 1c6b E8000000 		call	_Unwind_Resume
 3898      00
 3899              	.LEHE116:
 3900              	.L227:
 3901 1c70 4889C3   		movq	%rax, %rbx
 3902              	.LBE98:
 3903 1c73 E8000000 		call	__cxa_end_catch
 3903      00
 3904 1c78 4889D8   		movq	%rbx, %rax
 3905 1c7b 4889C7   		movq	%rax, %rdi
 3906              	.LEHB117:
 3907 1c7e E8000000 		call	_Unwind_Resume
 3907      00
 3908              	.LEHE117:
 3909              	.L212:
 3910              	.LBB101:
 3911 1c83 4889C7   		movq	%rax, %rdi
 3912 1c86 E8000000 		call	__cxa_begin_catch
 3912      00
 3913 1c8b 48898520 		movq	%rax, -480(%rbp)
 3913      FEFFFF
 3914 1c92 488B8520 		movq	-480(%rbp), %rax
 3914      FEFFFF
 3915 1c99 488B00   		movq	(%rax), %rax
 3916 1c9c 4883C010 		addq	$16, %rax
 3917 1ca0 488B00   		movq	(%rax), %rax
 3918 1ca3 488B9520 		movq	-480(%rbp), %rdx
 3918      FEFFFF
 3919 1caa 4889D7   		movq	%rdx, %rdi
 3920 1cad FFD0     		call	*%rax
 3921 1caf 4889C3   		movq	%rax, %rbx
 3922 1cb2 488B8520 		movq	-480(%rbp), %rax
 3922      FEFFFF
 3923 1cb9 4889C7   		movq	%rax, %rdi
 3924              	.LEHB118:
 3925 1cbc E8000000 		call	_ZNK8UnitTest15AssertException10LineNumberEv
 3925      00
 3926 1cc1 4189C4   		movl	%eax, %r12d
 3927 1cc4 488B8520 		movq	-480(%rbp), %rax
 3927      FEFFFF
 3928 1ccb 4889C7   		movq	%rax, %rdi
 3929 1cce E8000000 		call	_ZNK8UnitTest15AssertException8FilenameEv
 3929      00
 3930              		.loc 3 115 0 discriminator 5
 3931 1cd3 4889C1   		movq	%rax, %rcx
 3932 1cd6 488B8508 		movq	-504(%rbp), %rax
 3932      FEFFFF
 3933 1cdd 488B5008 		movq	8(%rax), %rdx
 3934 1ce1 488B8508 		movq	-504(%rbp), %rax
 3934      FEFFFF
 3935 1ce8 488B7010 		movq	16(%rax), %rsi
 3936 1cec 488D8530 		leaq	-464(%rbp), %rax
 3936      FEFFFF
 3937 1cf3 4589E0   		movl	%r12d, %r8d
 3938 1cf6 4889C7   		movq	%rax, %rdi
 3939 1cf9 E8000000 		call	_ZN8UnitTest11TestDetailsC1EPKcS2_S2_i
 3939      00
 3940              		.loc 3 115 0 discriminator 9
 3941 1cfe E8000000 		call	_ZN8UnitTest11CurrentTest7ResultsEv
 3941      00
 3942 1d03 488B00   		movq	(%rax), %rax
 3943 1d06 488D8D30 		leaq	-464(%rbp), %rcx
 3943      FEFFFF
 3944 1d0d 4889DA   		movq	%rbx, %rdx
 3945 1d10 4889CE   		movq	%rcx, %rsi
 3946 1d13 4889C7   		movq	%rax, %rdi
 3947 1d16 E8000000 		call	_ZN8UnitTest11TestResults13OnTestFailureERKNS_11TestDetailsEPKc
 3947      00
 3948              	.LEHE118:
 3949              		.loc 3 115 0 discriminator 13
 3950 1d1b E8000000 		call	__cxa_end_catch
 3950      00
 3951              	.LBE101:
 3952              	.LBE103:
 3953 1d20 E9430100 		jmp	.L229
 3953      00
 3954              	.L213:
 3955              	.LBB104:
 3956              	.LBB102:
 3957              		.loc 3 115 0
 3958 1d25 4889C7   		movq	%rax, %rdi
 3959 1d28 E8000000 		call	__cxa_begin_catch
 3959      00
 3960 1d2d 48898528 		movq	%rax, -472(%rbp)
 3960      FEFFFF
 3961              	.LBB100:
 3962 1d34 488D8550 		leaq	-432(%rbp), %rax
 3962      FEFFFF
 3963 1d3b 4889C7   		movq	%rax, %rdi
 3964              	.LEHB119:
 3965 1d3e E8000000 		call	_ZN8UnitTest15MemoryOutStreamC1Ev
 3965      00
 3966              	.LEHE119:
 3967              		.loc 3 115 0 discriminator 15
 3968 1d43 488B8528 		movq	-472(%rbp), %rax
 3968      FEFFFF
 3969 1d4a 488B00   		movq	(%rax), %rax
 3970 1d4d 4883C010 		addq	$16, %rax
 3971 1d51 488B00   		movq	(%rax), %rax
 3972 1d54 488B9528 		movq	-472(%rbp), %rdx
 3972      FEFFFF
 3973 1d5b 4889D7   		movq	%rdx, %rdi
 3974 1d5e FFD0     		call	*%rax
 3975 1d60 4889C3   		movq	%rax, %rbx
 3976 1d63 488D8550 		leaq	-432(%rbp), %rax
 3976      FEFFFF
 3977 1d6a BE000000 		movl	$.LC3, %esi
 3977      00
 3978 1d6f 4889C7   		movq	%rax, %rdi
 3979              	.LEHB120:
 3980 1d72 E8000000 		call	_ZStlsISt11char_traitsIcEERSt13basic_ostreamIcT_ES5_PKc
 3980      00
 3981 1d77 4889DE   		movq	%rbx, %rsi
 3982 1d7a 4889C7   		movq	%rax, %rdi
 3983 1d7d E8000000 		call	_ZStlsISt11char_traitsIcEERSt13basic_ostreamIcT_ES5_PKc
 3983      00
 3984              		.loc 3 115 0 discriminator 19
 3985 1d82 488D8550 		leaq	-432(%rbp), %rax
 3985      FEFFFF
 3986 1d89 4889C7   		movq	%rax, %rdi
 3987 1d8c E8000000 		call	_ZNK8UnitTest15MemoryOutStream7GetTextEv
 3987      00
 3988 1d91 4989C4   		movq	%rax, %r12
 3989 1d94 488B8508 		movq	-504(%rbp), %rax
 3989      FEFFFF
 3990 1d9b 488D5808 		leaq	8(%rax), %rbx
 3991 1d9f E8000000 		call	_ZN8UnitTest11CurrentTest7ResultsEv
 3991      00
 3992              		.loc 3 115 0 discriminator 21
 3993 1da4 488B00   		movq	(%rax), %rax
 3994 1da7 4C89E2   		movq	%r12, %rdx
 3995 1daa 4889DE   		movq	%rbx, %rsi
 3996 1dad 4889C7   		movq	%rax, %rdi
 3997 1db0 E8000000 		call	_ZN8UnitTest11TestResults13OnTestFailureERKNS_11TestDetailsEPKc
 3997      00
 3998              	.LEHE120:
 3999              		.loc 3 115 0 discriminator 25
 4000 1db5 488D8550 		leaq	-432(%rbp), %rax
 4000      FEFFFF
 4001 1dbc 4889C7   		movq	%rax, %rdi
 4002              	.LEHB121:
 4003 1dbf E8000000 		call	_ZN8UnitTest15MemoryOutStreamD1Ev
 4003      00
 4004              	.LEHE121:
 4005              	.LBE100:
 4006              		.loc 3 115 0 discriminator 26
 4007 1dc4 E8000000 		call	__cxa_end_catch
 4007      00
 4008              	.LBE102:
 4009              	.LBE104:
 4010 1dc9 E99A0000 		jmp	.L229
 4010      00
 4011              	.L228:
 4012              	.LBB105:
 4013              		.loc 3 115 0
 4014 1dce 4889C7   		movq	%rax, %rdi
 4015 1dd1 E8000000 		call	__cxa_begin_catch
 4015      00
 4016 1dd6 80BD1FFE 		cmpb	$0, -481(%rbp)
 4016      FFFF00
 4017 1ddd 7443     		je	.L219
 4018              		.loc 3 115 0 discriminator 28
 4019 1ddf 488B8508 		movq	-504(%rbp), %rax
 4019      FEFFFF
 4020 1de6 488D4808 		leaq	8(%rax), %rcx
 4021 1dea 488D8530 		leaq	-464(%rbp), %rax
 4021      FEFFFF
 4022 1df1 BA730000 		movl	$115, %edx
 4022      00
 4023 1df6 4889CE   		movq	%rcx, %rsi
 4024 1df9 4889C7   		movq	%rax, %rdi
 4025              	.LEHB122:
 4026 1dfc E8000000 		call	_ZN8UnitTest11TestDetailsC1ERKS0_i
 4026      00
 4027              		.loc 3 115 0 discriminator 31
 4028 1e01 E8000000 		call	_ZN8UnitTest11CurrentTest7ResultsEv
 4028      00
 4029 1e06 488B00   		movq	(%rax), %rax
 4030 1e09 488D8D30 		leaq	-464(%rbp), %rcx
 4030      FEFFFF
 4031 1e10 BA000000 		movl	$.LC4, %edx
 4031      00
 4032 1e15 4889CE   		movq	%rcx, %rsi
 4033 1e18 4889C7   		movq	%rax, %rdi
 4034 1e1b E8000000 		call	_ZN8UnitTest11TestResults13OnTestFailureERKNS_11TestDetailsEPKc
 4034      00
 4035 1e20 EB41     		jmp	.L220
 4036              	.L219:
 4037              		.loc 3 115 0 discriminator 29
 4038 1e22 488B8508 		movq	-504(%rbp), %rax
 4038      FEFFFF
 4039 1e29 488D4808 		leaq	8(%rax), %rcx
 4040 1e2d 488D8530 		leaq	-464(%rbp), %rax
 4040      FEFFFF
 4041 1e34 BA730000 		movl	$115, %edx
 4041      00
 4042 1e39 4889CE   		movq	%rcx, %rsi
 4043 1e3c 4889C7   		movq	%rax, %rdi
 4044 1e3f E8000000 		call	_ZN8UnitTest11TestDetailsC1ERKS0_i
 4044      00
 4045              		.loc 3 115 0 discriminator 38
 4046 1e44 E8000000 		call	_ZN8UnitTest11CurrentTest7ResultsEv
 4046      00
 4047 1e49 488B00   		movq	(%rax), %rax
 4048 1e4c 488D8D30 		leaq	-464(%rbp), %rcx
 4048      FEFFFF
 4049 1e53 BA000000 		movl	$.LC5, %edx
 4049      00
 4050 1e58 4889CE   		movq	%rcx, %rsi
 4051 1e5b 4889C7   		movq	%rax, %rdi
 4052 1e5e E8000000 		call	_ZN8UnitTest11TestResults13OnTestFailureERKNS_11TestDetailsEPKc
 4052      00
 4053              	.LEHE122:
 4054              	.L220:
 4055              	.LEHB123:
 4056              		.loc 3 115 0 discriminator 43
 4057 1e63 E8000000 		call	__cxa_end_catch
 4057      00
 4058              	.LEHE123:
 4059              	.L229:
 4060              	.LBE105:
 4061              		.loc 3 115 0
 4062 1e68 90       		nop
 4063 1e69 488B45E8 		movq	-24(%rbp), %rax
 4064 1e6d 64483304 		xorq	%fs:40, %rax
 4064      25280000 
 4064      00
 4065 1e76 7405     		je	.L221
 4066 1e78 E8000000 		call	__stack_chk_fail
 4066      00
 4067              	.L221:
 4068 1e7d 4881C4F0 		addq	$496, %rsp
 4068      010000
 4069 1e84 5B       		popq	%rbx
 4070 1e85 415C     		popq	%r12
 4071 1e87 5D       		popq	%rbp
 4072              		.cfi_def_cfa 7, 8
 4073 1e88 C3       		ret
 4074              		.cfi_endproc
 4075              	.LFE1400:
 4076              		.section	.gcc_except_table
 4077              		.align 4
 4078              	.LLSDA1400:
 4079 0318 FF       		.byte	0xff
 4080 0319 03       		.byte	0x3
 4081 031a 59       		.uleb128 .LLSDATT1400-.LLSDATTD1400
 4082              	.LLSDATTD1400:
 4083 031b 01       		.byte	0x1
 4084 031c 41       		.uleb128 .LLSDACSE1400-.LLSDACSB1400
 4085              	.LLSDACSB1400:
 4086 031d 43       		.uleb128 .LEHB112-.LFB1400
 4087 031e 05       		.uleb128 .LEHE112-.LEHB112
 4088 031f 9D01     		.uleb128 .L222-.LFB1400
 4089 0321 05       		.uleb128 0x5
 4090 0322 67       		.uleb128 .LEHB113-.LFB1400
 4091 0323 05       		.uleb128 .LEHE113-.LEHB113
 4092 0324 8001     		.uleb128 .L223-.LFB1400
 4093 0326 07       		.uleb128 0x7
 4094 0327 76       		.uleb128 .LEHB114-.LFB1400
 4095 0328 05       		.uleb128 .LEHE114-.LEHB114
 4096 0329 9D01     		.uleb128 .L222-.LFB1400
 4097 032b 05       		.uleb128 0x5
 4098 032c C001     		.uleb128 .LEHB115-.LFB1400
 4099 032e 05       		.uleb128 .LEHE115-.LEHB115
 4100 032f 00       		.uleb128 0
 4101 0330 00       		.uleb128 0
 4102 0331 E701     		.uleb128 .LEHB116-.LFB1400
 4103 0333 05       		.uleb128 .LEHE116-.LEHB116
 4104 0334 00       		.uleb128 0
 4105 0335 00       		.uleb128 0
 4106 0336 FA01     		.uleb128 .LEHB117-.LFB1400
 4107 0338 05       		.uleb128 .LEHE117-.LEHB117
 4108 0339 00       		.uleb128 0
 4109 033a 00       		.uleb128 0
 4110 033b B802     		.uleb128 .LEHB118-.LFB1400
 4111 033d 5F       		.uleb128 .LEHE118-.LEHB118
 4112 033e B201     		.uleb128 .L224-.LFB1400
 4113 0340 00       		.uleb128 0
 4114 0341 BA03     		.uleb128 .LEHB119-.LFB1400
 4115 0343 05       		.uleb128 .LEHE119-.LEHB119
 4116 0344 D901     		.uleb128 .L226-.LFB1400
 4117 0346 00       		.uleb128 0
 4118 0347 EE03     		.uleb128 .LEHB120-.LFB1400
 4119 0349 43       		.uleb128 .LEHE120-.LEHB120
 4120 034a C501     		.uleb128 .L225-.LFB1400
 4121 034c 00       		.uleb128 0
 4122 034d BB04     		.uleb128 .LEHB121-.LFB1400
 4123 034f 05       		.uleb128 .LEHE121-.LEHB121
 4124 0350 D901     		.uleb128 .L226-.LFB1400
 4125 0352 00       		.uleb128 0
 4126 0353 F804     		.uleb128 .LEHB122-.LFB1400
 4127 0355 67       		.uleb128 .LEHE122-.LEHB122
 4128 0356 EC01     		.uleb128 .L227-.LFB1400
 4129 0358 00       		.uleb128 0
 4130 0359 DF05     		.uleb128 .LEHB123-.LFB1400
 4131 035b 05       		.uleb128 .LEHE123-.LEHB123
 4132 035c 00       		.uleb128 0
 4133 035d 00       		.uleb128 0
 4134              	.LLSDACSE1400:
 4135 035e 03       		.byte	0x3
 4136 035f 00       		.byte	0
 4137 0360 02       		.byte	0x2
 4138 0361 7D       		.byte	0x7d
 4139 0362 01       		.byte	0x1
 4140 0363 7D       		.byte	0x7d
 4141 0364 00       		.byte	0
 4142 0365 7D       		.byte	0x7d
 4143 0366 0000     		.align 4
 4144 0368 00000000 		.long	0
 4145              	
 4146 036c 00000000 		.long	_ZTISt9exception
 4147 0370 00000000 		.long	_ZTIN8UnitTest15AssertExceptionE
 4148              	.LLSDATT1400:
 4149              		.text
 4151              		.section	.rodata
 4152              	.LC31:
 4153 059f 2227263C 		.string	"\"'&<>"
 4153      3E00
 4154 05a5 000000   		.align 8
 4155              	.LC32:
 4156 05a8 3C3F786D 		.string	"<?xml version=\"1.0\"?><unittest-results tests=\"1\" failedtests=\"1\" failures=\"1\" tim
 4156      6C207665 
 4156      7273696F 
 4156      6E3D2231 
 4156      2E30223F 
 4157              		.text
 4158 1e89 90       		.align 2
 4160              	_ZN12_GLOBAL__N_154XmlTestReporterFixtureFailureMessageIsXMLEscapedHelper7RunImplEv:
 4161              	.LFB1404:
 116:TestXmlTestReporter.cpp **** {
 4162              		.loc 3 116 0 is_stmt 1
 4163              		.cfi_startproc
 4164              		.cfi_personality 0x3,__gxx_personality_v0
 4165              		.cfi_lsda 0x3,.LLSDA1404
 4166 1e8a 55       		pushq	%rbp
 4167              		.cfi_def_cfa_offset 16
 4168              		.cfi_offset 6, -16
 4169 1e8b 4889E5   		movq	%rsp, %rbp
 4170              		.cfi_def_cfa_register 6
 4171 1e8e 53       		pushq	%rbx
 4172 1e8f 4883EC78 		subq	$120, %rsp
 4173              		.cfi_offset 3, -24
 4174 1e93 48897D88 		movq	%rdi, -120(%rbp)
 4175              		.loc 3 116 0
 4176 1e97 64488B04 		movq	%fs:40, %rax
 4176      25280000 
 4176      00
 4177 1ea0 488945E8 		movq	%rax, -24(%rbp)
 4178 1ea4 31C0     		xorl	%eax, %eax
 4179              	.LBB106:
 117:TestXmlTestReporter.cpp ****     TestDetails const details("TestName", "suite", "filename.h", 4321);
 4180              		.loc 3 117 0
 4181 1ea6 488D45A0 		leaq	-96(%rbp), %rax
 4182 1eaa 41B8E110 		movl	$4321, %r8d
 4182      0000
 4183 1eb0 B9000000 		movl	$.LC6, %ecx
 4183      00
 4184 1eb5 BA000000 		movl	$.LC7, %edx
 4184      00
 4185 1eba BE000000 		movl	$.LC8, %esi
 4185      00
 4186 1ebf 4889C7   		movq	%rax, %rdi
 4187              	.LEHB124:
 4188 1ec2 E8000000 		call	_ZN8UnitTest11TestDetailsC1EPKcS2_S2_i
 4188      00
 118:TestXmlTestReporter.cpp **** 
 119:TestXmlTestReporter.cpp ****     reporter.ReportTestStart(details);
 4189              		.loc 3 119 0
 4190 1ec7 488B4588 		movq	-120(%rbp), %rax
 4191 1ecb 488D9060 		leaq	352(%rax), %rdx
 4191      010000
 4192 1ed2 488D45A0 		leaq	-96(%rbp), %rax
 4193 1ed6 4889C6   		movq	%rax, %rsi
 4194 1ed9 4889D7   		movq	%rdx, %rdi
 4195 1edc E8000000 		call	_ZN8UnitTest20DeferredTestReporter15ReportTestStartERKNS_11TestDetailsE
 4195      00
 120:TestXmlTestReporter.cpp ****     reporter.ReportFailure(details, "\"\'&<>");
 4196              		.loc 3 120 0
 4197 1ee1 488B4588 		movq	-120(%rbp), %rax
 4198 1ee5 488D8860 		leaq	352(%rax), %rcx
 4198      010000
 4199 1eec 488D45A0 		leaq	-96(%rbp), %rax
 4200 1ef0 BA000000 		movl	$.LC31, %edx
 4200      00
 4201 1ef5 4889C6   		movq	%rax, %rsi
 4202 1ef8 4889CF   		movq	%rcx, %rdi
 4203 1efb E8000000 		call	_ZN8UnitTest20DeferredTestReporter13ReportFailureERKNS_11TestDetailsEPKc
 4203      00
 121:TestXmlTestReporter.cpp ****     reporter.ReportTestFinish(details, 0.1f);
 4204              		.loc 3 121 0
 4205 1f00 488B4588 		movq	-120(%rbp), %rax
 4206 1f04 488D9060 		leaq	352(%rax), %rdx
 4206      010000
 4207 1f0b 488D45A0 		leaq	-96(%rbp), %rax
 4208 1f0f F30F1005 		movss	.LC10(%rip), %xmm0
 4208      00000000 
 4209 1f17 4889C6   		movq	%rax, %rsi
 4210 1f1a 4889D7   		movq	%rdx, %rdi
 4211 1f1d E8000000 		call	_ZN8UnitTest20DeferredTestReporter16ReportTestFinishERKNS_11TestDetailsEf
 4211      00
 122:TestXmlTestReporter.cpp ****     reporter.ReportSummary(1, 1, 1, 0.1f);
 4212              		.loc 3 122 0
 4213 1f22 488B4588 		movq	-120(%rbp), %rax
 4214 1f26 48056001 		addq	$352, %rax
 4214      0000
 4215 1f2c F30F1005 		movss	.LC10(%rip), %xmm0
 4215      00000000 
 4216 1f34 B9010000 		movl	$1, %ecx
 4216      00
 4217 1f39 BA010000 		movl	$1, %edx
 4217      00
 4218 1f3e BE010000 		movl	$1, %esi
 4218      00
 4219 1f43 4889C7   		movq	%rax, %rdi
 4220 1f46 E8000000 		call	_ZN8UnitTest15XmlTestReporter13ReportSummaryEiiif
 4220      00
 4221              	.LEHE124:
 123:TestXmlTestReporter.cpp **** 
 124:TestXmlTestReporter.cpp ****     char const* expected =
 125:TestXmlTestReporter.cpp ****         "<?xml version=\"1.0\"?>"
 126:TestXmlTestReporter.cpp ****         "<unittest-results tests=\"1\" failedtests=\"1\" failures=\"1\" time=\"0.1\">"
 127:TestXmlTestReporter.cpp ****         "<test suite=\"suite\" name=\"TestName\" time=\"0.1\">"
 128:TestXmlTestReporter.cpp ****         "<failure message=\"filename.h(4321) : &quot;&apos;&amp;&lt;&gt;\"/>"
 129:TestXmlTestReporter.cpp ****         "</test>"
 130:TestXmlTestReporter.cpp ****         "</unittest-results>";
 4222              		.loc 3 130 0
 4223 1f4b 48C74598 		movq	$.LC32, -104(%rbp)
 4223      00000000 
 4224              	.LEHB125:
 131:TestXmlTestReporter.cpp **** 
 132:TestXmlTestReporter.cpp ****     CHECK_EQUAL(expected, output.str());
 4225              		.loc 3 132 0
 4226 1f53 E8000000 		call	_ZN8UnitTest11CurrentTest7DetailsEv
 4226      00
 4227 1f58 488B08   		movq	(%rax), %rcx
 4228 1f5b 488D45C0 		leaq	-64(%rbp), %rax
 4229 1f5f BA840000 		movl	$132, %edx
 4229      00
 4230 1f64 4889CE   		movq	%rcx, %rsi
 4231 1f67 4889C7   		movq	%rax, %rdi
 4232 1f6a E8000000 		call	_ZN8UnitTest11TestDetailsC1ERKS0_i
 4232      00
 4233              		.loc 3 132 0 is_stmt 0 discriminator 2
 4234 1f6f 488B5588 		movq	-120(%rbp), %rdx
 4235 1f73 488D4590 		leaq	-112(%rbp), %rax
 4236 1f77 4889D6   		movq	%rdx, %rsi
 4237 1f7a 4889C7   		movq	%rax, %rdi
 4238 1f7d E8000000 		call	_ZNKSt19basic_ostringstreamIcSt11char_traitsIcESaIcEE3strEv
 4238      00
 4239              	.LEHE125:
 4240              	.LEHB126:
 4241              		.loc 3 132 0 discriminator 4
 4242 1f82 E8000000 		call	_ZN8UnitTest11CurrentTest7ResultsEv
 4242      00
 4243 1f87 488B00   		movq	(%rax), %rax
 4244 1f8a 488D4DC0 		leaq	-64(%rbp), %rcx
 4245 1f8e 488D5590 		leaq	-112(%rbp), %rdx
 4246 1f92 488D7598 		leaq	-104(%rbp), %rsi
 4247 1f96 4889C7   		movq	%rax, %rdi
 4248 1f99 E8000000 		call	_ZN8UnitTest10CheckEqualIPKcSsEEvRNS_11TestResultsERKT_RKT0_RKNS_11TestDetailsE
 4248      00
 4249              	.LEHE126:
 4250              		.loc 3 132 0 discriminator 8
 4251 1f9e 488D4590 		leaq	-112(%rbp), %rax
 4252 1fa2 4889C7   		movq	%rax, %rdi
 4253              	.LEHB127:
 4254 1fa5 E8000000 		call	_ZNSsD1Ev
 4254      00
 4255              	.LEHE127:
 4256              	.LBE106:
 133:TestXmlTestReporter.cpp **** }
 4257              		.loc 3 133 0 is_stmt 1
 4258 1faa EB6C     		jmp	.L239
 4259              	.L237:
 4260 1fac 4889C3   		movq	%rax, %rbx
 4261              	.LBB107:
 132:TestXmlTestReporter.cpp **** }
 4262              		.loc 3 132 0
 4263 1faf 488D4590 		leaq	-112(%rbp), %rax
 4264 1fb3 4889C7   		movq	%rax, %rdi
 4265 1fb6 E8000000 		call	_ZNSsD1Ev
 4265      00
 4266 1fbb 4889D8   		movq	%rbx, %rax
 4267 1fbe EB13     		jmp	.L232
 4268              	.L238:
 4269 1fc0 4889C3   		movq	%rax, %rbx
 4270 1fc3 E8000000 		call	__cxa_end_catch
 4270      00
 4271 1fc8 4889D8   		movq	%rbx, %rax
 4272 1fcb 4889C7   		movq	%rax, %rdi
 4273              	.LEHB128:
 4274 1fce E8000000 		call	_Unwind_Resume
 4274      00
 4275              	.LEHE128:
 4276              	.L236:
 4277              	.L232:
 4278 1fd3 4889C7   		movq	%rax, %rdi
 4279 1fd6 E8000000 		call	__cxa_begin_catch
 4279      00
 4280              	.LEHB129:
 4281 1fdb E8000000 		call	_ZN8UnitTest11CurrentTest7DetailsEv
 4281      00
 4282 1fe0 488B08   		movq	(%rax), %rcx
 4283 1fe3 488D45C0 		leaq	-64(%rbp), %rax
 4284 1fe7 BA840000 		movl	$132, %edx
 4284      00
 4285 1fec 4889CE   		movq	%rcx, %rsi
 4286 1fef 4889C7   		movq	%rax, %rdi
 4287 1ff2 E8000000 		call	_ZN8UnitTest11TestDetailsC1ERKS0_i
 4287      00
 132:TestXmlTestReporter.cpp **** }
 4288              		.loc 3 132 0 is_stmt 0 discriminator 14
 4289 1ff7 E8000000 		call	_ZN8UnitTest11CurrentTest7ResultsEv
 4289      00
 4290 1ffc 488B00   		movq	(%rax), %rax
 4291 1fff 488D4DC0 		leaq	-64(%rbp), %rcx
 4292 2003 BA000000 		movl	$.LC12, %edx
 4292      00
 4293 2008 4889CE   		movq	%rcx, %rsi
 4294 200b 4889C7   		movq	%rax, %rdi
 4295 200e E8000000 		call	_ZN8UnitTest11TestResults13OnTestFailureERKNS_11TestDetailsEPKc
 4295      00
 4296              	.LEHE129:
 4297              	.LEHB130:
 132:TestXmlTestReporter.cpp **** }
 4298              		.loc 3 132 0 discriminator 18
 4299 2013 E8000000 		call	__cxa_end_catch
 4299      00
 4300              	.LEHE130:
 4301              	.L239:
 4302              	.LBE107:
 4303              		.loc 3 133 0 is_stmt 1
 4304 2018 90       		nop
 4305 2019 488B45E8 		movq	-24(%rbp), %rax
 4306 201d 64483304 		xorq	%fs:40, %rax
 4306      25280000 
 4306      00
 4307 2026 7405     		je	.L235
 4308 2028 E8000000 		call	__stack_chk_fail
 4308      00
 4309              	.L235:
 4310 202d 4883C478 		addq	$120, %rsp
 4311 2031 5B       		popq	%rbx
 4312 2032 5D       		popq	%rbp
 4313              		.cfi_def_cfa 7, 8
 4314 2033 C3       		ret
 4315              		.cfi_endproc
 4316              	.LFE1404:
 4317              		.section	.gcc_except_table
 4318              		.align 4
 4319              	.LLSDA1404:
 4320 0374 FF       		.byte	0xff
 4321 0375 03       		.byte	0x3
 4322 0376 31       		.uleb128 .LLSDATT1404-.LLSDATTD1404
 4323              	.LLSDATTD1404:
 4324 0377 01       		.byte	0x1
 4325 0378 27       		.uleb128 .LLSDACSE1404-.LLSDACSB1404
 4326              	.LLSDACSB1404:
 4327 0379 38       		.uleb128 .LEHB124-.LFB1404
 4328 037a 8901     		.uleb128 .LEHE124-.LEHB124
 4329 037c 00       		.uleb128 0
 4330 037d 00       		.uleb128 0
 4331 037e C901     		.uleb128 .LEHB125-.LFB1404
 4332 0380 2F       		.uleb128 .LEHE125-.LEHB125
 4333 0381 C902     		.uleb128 .L236-.LFB1404
 4334 0383 01       		.uleb128 0x1
 4335 0384 F801     		.uleb128 .LEHB126-.LFB1404
 4336 0386 1C       		.uleb128 .LEHE126-.LEHB126
 4337 0387 A202     		.uleb128 .L237-.LFB1404
 4338 0389 03       		.uleb128 0x3
 4339 038a 9B02     		.uleb128 .LEHB127-.LFB1404
 4340 038c 05       		.uleb128 .LEHE127-.LEHB127
 4341 038d C902     		.uleb128 .L236-.LFB1404
 4342 038f 01       		.uleb128 0x1
 4343 0390 C402     		.uleb128 .LEHB128-.LFB1404
 4344 0392 05       		.uleb128 .LEHE128-.LEHB128
 4345 0393 00       		.uleb128 0
 4346 0394 00       		.uleb128 0
 4347 0395 D102     		.uleb128 .LEHB129-.LFB1404
 4348 0397 38       		.uleb128 .LEHE129-.LEHB129
 4349 0398 B602     		.uleb128 .L238-.LFB1404
 4350 039a 00       		.uleb128 0
 4351 039b 8903     		.uleb128 .LEHB130-.LFB1404
 4352 039d 05       		.uleb128 .LEHE130-.LEHB130
 4353 039e 00       		.uleb128 0
 4354 039f 00       		.uleb128 0
 4355              	.LLSDACSE1404:
 4356 03a0 01       		.byte	0x1
 4357 03a1 00       		.byte	0
 4358 03a2 00       		.byte	0
 4359 03a3 7D       		.byte	0x7d
 4360              		.align 4
 4361 03a4 00000000 		.long	0
 4362              	
 4363              	.LLSDATT1404:
 4364              		.text
 4366              		.align 2
 4368              	_ZN12_GLOBAL__N_151XmlTestReporterFixtureOneFailureAndOneSuccessHelperC2ERKN8UnitTest11TestDetailsE
 4369              	.LFB1406:
 134:TestXmlTestReporter.cpp **** 
 135:TestXmlTestReporter.cpp **** TEST_FIXTURE(XmlTestReporterFixture, OneFailureAndOneSuccess)
 4370              		.loc 3 135 0
 4371              		.cfi_startproc
 4372 2034 55       		pushq	%rbp
 4373              		.cfi_def_cfa_offset 16
 4374              		.cfi_offset 6, -16
 4375 2035 4889E5   		movq	%rsp, %rbp
 4376              		.cfi_def_cfa_register 6
 4377 2038 4883EC10 		subq	$16, %rsp
 4378 203c 48897DF8 		movq	%rdi, -8(%rbp)
 4379 2040 488975F0 		movq	%rsi, -16(%rbp)
 4380              	.LBB108:
 4381              		.loc 3 135 0
 4382 2044 488B45F8 		movq	-8(%rbp), %rax
 4383 2048 4889C7   		movq	%rax, %rdi
 4384 204b E8B0DFFF 		call	_ZN12_GLOBAL__N_122XmlTestReporterFixtureC2Ev
 4384      FF
 4385 2050 488B45F8 		movq	-8(%rbp), %rax
 4386 2054 488B55F0 		movq	-16(%rbp), %rdx
 4387 2058 48899088 		movq	%rdx, 392(%rax)
 4387      010000
 4388              	.LBE108:
 4389 205f C9       		leave
 4390              		.cfi_def_cfa 7, 8
 4391 2060 C3       		ret
 4392              		.cfi_endproc
 4393              	.LFE1406:
 4395              		.section	.rodata
 4396              	.LC33:
 4397 068c 4F6E6546 		.string	"OneFailureAndOneSuccess"
 4397      61696C75 
 4397      7265416E 
 4397      644F6E65 
 4397      53756363 
 4398              		.text
 4399 2061 90       		.align 2
 4401              	_ZN12_GLOBAL__N_149TestXmlTestReporterFixtureOneFailureAndOneSuccessC2Ev:
 4402              	.LFB1409:
 4403              		.loc 3 135 0
 4404              		.cfi_startproc
 4405 2062 55       		pushq	%rbp
 4406              		.cfi_def_cfa_offset 16
 4407              		.cfi_offset 6, -16
 4408 2063 4889E5   		movq	%rsp, %rbp
 4409              		.cfi_def_cfa_register 6
 4410 2066 4883EC10 		subq	$16, %rsp
 4411 206a 48897DF8 		movq	%rdi, -8(%rbp)
 4412              	.LBB109:
 4413              		.loc 3 135 0
 4414 206e E8000000 		call	_ZN13UnitTestSuite12GetSuiteNameEv
 4414      00
 4415 2073 4889C2   		movq	%rax, %rdx
 4416 2076 488B45F8 		movq	-8(%rbp), %rax
 4417 207a 41B88700 		movl	$135, %r8d
 4417      0000
 4418 2080 B9000000 		movl	$.LC1, %ecx
 4418      00
 4419 2085 BE000000 		movl	$.LC33, %esi
 4419      00
 4420 208a 4889C7   		movq	%rax, %rdi
 4421 208d E8000000 		call	_ZN8UnitTest4TestC2EPKcS2_S2_i
 4421      00
 4422 2092 488B45F8 		movq	-8(%rbp), %rax
 4423 2096 48C70000 		movq	$_ZTVN12_GLOBAL__N_149TestXmlTestReporterFixtureOneFailureAndOneSuccessE+16, (%rax)
 4423      000000
 4424              	.LBE109:
 4425 209d C9       		leave
 4426              		.cfi_def_cfa 7, 8
 4427 209e C3       		ret
 4428              		.cfi_endproc
 4429              	.LFE1409:
 4431              		.local	_ZN12_GLOBAL__N_157testXmlTestReporterFixtureOneFailureAndOneSuccessInstanceE
 4432              		.comm	_ZN12_GLOBAL__N_157testXmlTestReporterFixtureOneFailureAndOneSuccessInstanceE,56,32
 4433              		.local	_ZN12_GLOBAL__N_150adderXmlTestReporterFixtureOneFailureAndOneSuccessE
 4434              		.comm	_ZN12_GLOBAL__N_150adderXmlTestReporterFixtureOneFailureAndOneSuccessE,1,1
 4435 209f 90       		.align 2
 4437              	_ZN12_GLOBAL__N_151XmlTestReporterFixtureOneFailureAndOneSuccessHelperD2Ev:
 4438              	.LFB1413:
 4439              		.loc 3 135 0
 4440              		.cfi_startproc
 4441 20a0 55       		pushq	%rbp
 4442              		.cfi_def_cfa_offset 16
 4443              		.cfi_offset 6, -16
 4444 20a1 4889E5   		movq	%rsp, %rbp
 4445              		.cfi_def_cfa_register 6
 4446 20a4 4883EC10 		subq	$16, %rsp
 4447 20a8 48897DF8 		movq	%rdi, -8(%rbp)
 4448              	.LBB110:
 4449              		.loc 3 135 0
 4450 20ac 488B45F8 		movq	-8(%rbp), %rax
 4451 20b0 4889C7   		movq	%rax, %rdi
 4452 20b3 E8A4DFFF 		call	_ZN12_GLOBAL__N_122XmlTestReporterFixtureD2Ev
 4452      FF
 4453              	.LBE110:
 4454 20b8 C9       		leave
 4455              		.cfi_def_cfa 7, 8
 4456 20b9 C3       		ret
 4457              		.cfi_endproc
 4458              	.LFE1413:
 4460              		.align 2
 4462              	_ZNK12_GLOBAL__N_149TestXmlTestReporterFixtureOneFailureAndOneSuccess7RunImplEv:
 4463              	.LFB1411:
 4464              		.loc 3 135 0
 4465              		.cfi_startproc
 4466              		.cfi_personality 0x3,__gxx_personality_v0
 4467              		.cfi_lsda 0x3,.LLSDA1411
 4468 20ba 55       		pushq	%rbp
 4469              		.cfi_def_cfa_offset 16
 4470              		.cfi_offset 6, -16
 4471 20bb 4889E5   		movq	%rsp, %rbp
 4472              		.cfi_def_cfa_register 6
 4473 20be 4154     		pushq	%r12
 4474 20c0 53       		pushq	%rbx
 4475 20c1 4881ECF0 		subq	$496, %rsp
 4475      010000
 4476              		.cfi_offset 12, -24
 4477              		.cfi_offset 3, -32
 4478 20c8 4889BD08 		movq	%rdi, -504(%rbp)
 4478      FEFFFF
 4479              		.loc 3 135 0
 4480 20cf 64488B04 		movq	%fs:40, %rax
 4480      25280000 
 4480      00
 4481 20d8 488945E8 		movq	%rax, -24(%rbp)
 4482 20dc 31C0     		xorl	%eax, %eax
 4483              	.LBB111:
 4484 20de C6851FFE 		movb	$0, -481(%rbp)
 4484      FFFF00
 4485              	.LBB112:
 4486 20e5 488B8508 		movq	-504(%rbp), %rax
 4486      FEFFFF
 4487 20ec 488D5008 		leaq	8(%rax), %rdx
 4488 20f0 488D8550 		leaq	-432(%rbp), %rax
 4488      FEFFFF
 4489 20f7 4889D6   		movq	%rdx, %rsi
 4490 20fa 4889C7   		movq	%rax, %rdi
 4491              	.LEHB131:
 4492 20fd E832FFFF 		call	_ZN12_GLOBAL__N_151XmlTestReporterFixtureOneFailureAndOneSuccessHelperC2ERKN8UnitTest11TestDe
 4492      FF
 4493              	.LEHE131:
 4494              		.loc 3 135 0 is_stmt 0 discriminator 1
 4495 2102 C6851FFE 		movb	$1, -481(%rbp)
 4495      FFFF01
 4496 2109 488B8508 		movq	-504(%rbp), %rax
 4496      FEFFFF
 4497 2110 488D5008 		leaq	8(%rax), %rdx
 4498 2114 488D8550 		leaq	-432(%rbp), %rax
 4498      FEFFFF
 4499 211b 4889D6   		movq	%rdx, %rsi
 4500 211e 4889C7   		movq	%rax, %rdi
 4501              	.LEHB132:
 4502 2121 E8E91A00 		call	_ZN8UnitTest11ExecuteTestIN12_GLOBAL__N_151XmlTestReporterFixtureOneFailureAndOneSuccessHelpe
 4502      00
 4503              	.LEHE132:
 4504              		.loc 3 135 0 discriminator 3
 4505 2126 488D8550 		leaq	-432(%rbp), %rax
 4505      FEFFFF
 4506 212d 4889C7   		movq	%rax, %rdi
 4507              	.LEHB133:
 4508 2130 E86BFFFF 		call	_ZN12_GLOBAL__N_151XmlTestReporterFixtureOneFailureAndOneSuccessHelperD2Ev
 4508      FF
 4509              	.LEHE133:
 4510              	.LBE112:
 4511              	.LBE111:
 4512              		.loc 3 135 0
 4513 2135 E9640200 		jmp	.L265
 4513      00
 4514              	.L259:
 4515 213a 4989C4   		movq	%rax, %r12
 4516 213d 4889D3   		movq	%rdx, %rbx
 4517              	.LBB120:
 4518              	.LBB113:
 4519 2140 488D8550 		leaq	-432(%rbp), %rax
 4519      FEFFFF
 4520 2147 4889C7   		movq	%rax, %rdi
 4521 214a E851FFFF 		call	_ZN12_GLOBAL__N_151XmlTestReporterFixtureOneFailureAndOneSuccessHelperD2Ev
 4521      FF
 4522 214f 4C89E0   		movq	%r12, %rax
 4523 2152 4889DA   		movq	%rbx, %rdx
 4524 2155 EB00     		jmp	.L246
 4525              	.L258:
 4526              	.L246:
 4527 2157 4883FA01 		cmpq	$1, %rdx
 4528 215b 745C     		je	.L248
 4529 215d 4883FA02 		cmpq	$2, %rdx
 4530 2161 0F84F400 		je	.L249
 4530      0000
 4531 2167 E9980100 		jmp	.L264
 4531      00
 4532              	.L260:
 4533 216c 4889C3   		movq	%rax, %rbx
 4534              	.LBE113:
 4535              	.LBB114:
 4536 216f E8000000 		call	__cxa_end_catch
 4536      00
 4537 2174 4889D8   		movq	%rbx, %rax
 4538 2177 4889C7   		movq	%rax, %rdi
 4539              	.LEHB134:
 4540 217a E8000000 		call	_Unwind_Resume
 4540      00
 4541              	.LEHE134:
 4542              	.L261:
 4543 217f 4889C3   		movq	%rax, %rbx
 4544              	.LBE114:
 4545              	.LBB115:
 4546              	.LBB116:
 4547 2182 488D8550 		leaq	-432(%rbp), %rax
 4547      FEFFFF
 4548 2189 4889C7   		movq	%rax, %rdi
 4549 218c E8000000 		call	_ZN8UnitTest15MemoryOutStreamD1Ev
 4549      00
 4550 2191 EB03     		jmp	.L252
 4551              	.L262:
 4552 2193 4889C3   		movq	%rax, %rbx
 4553              	.L252:
 4554              	.LBE116:
 4555 2196 E8000000 		call	__cxa_end_catch
 4555      00
 4556 219b 4889D8   		movq	%rbx, %rax
 4557 219e 4889C7   		movq	%rax, %rdi
 4558              	.LEHB135:
 4559 21a1 E8000000 		call	_Unwind_Resume
 4559      00
 4560              	.LEHE135:
 4561              	.L263:
 4562 21a6 4889C3   		movq	%rax, %rbx
 4563              	.LBE115:
 4564 21a9 E8000000 		call	__cxa_end_catch
 4564      00
 4565 21ae 4889D8   		movq	%rbx, %rax
 4566 21b1 4889C7   		movq	%rax, %rdi
 4567              	.LEHB136:
 4568 21b4 E8000000 		call	_Unwind_Resume
 4568      00
 4569              	.LEHE136:
 4570              	.L248:
 4571              	.LBB118:
 4572 21b9 4889C7   		movq	%rax, %rdi
 4573 21bc E8000000 		call	__cxa_begin_catch
 4573      00
 4574 21c1 48898520 		movq	%rax, -480(%rbp)
 4574      FEFFFF
 4575 21c8 488B8520 		movq	-480(%rbp), %rax
 4575      FEFFFF
 4576 21cf 488B00   		movq	(%rax), %rax
 4577 21d2 4883C010 		addq	$16, %rax
 4578 21d6 488B00   		movq	(%rax), %rax
 4579 21d9 488B9520 		movq	-480(%rbp), %rdx
 4579      FEFFFF
 4580 21e0 4889D7   		movq	%rdx, %rdi
 4581 21e3 FFD0     		call	*%rax
 4582 21e5 4889C3   		movq	%rax, %rbx
 4583 21e8 488B8520 		movq	-480(%rbp), %rax
 4583      FEFFFF
 4584 21ef 4889C7   		movq	%rax, %rdi
 4585              	.LEHB137:
 4586 21f2 E8000000 		call	_ZNK8UnitTest15AssertException10LineNumberEv
 4586      00
 4587 21f7 4189C4   		movl	%eax, %r12d
 4588 21fa 488B8520 		movq	-480(%rbp), %rax
 4588      FEFFFF
 4589 2201 4889C7   		movq	%rax, %rdi
 4590 2204 E8000000 		call	_ZNK8UnitTest15AssertException8FilenameEv
 4590      00
 4591              		.loc 3 135 0 discriminator 5
 4592 2209 4889C1   		movq	%rax, %rcx
 4593 220c 488B8508 		movq	-504(%rbp), %rax
 4593      FEFFFF
 4594 2213 488B5008 		movq	8(%rax), %rdx
 4595 2217 488B8508 		movq	-504(%rbp), %rax
 4595      FEFFFF
 4596 221e 488B7010 		movq	16(%rax), %rsi
 4597 2222 488D8530 		leaq	-464(%rbp), %rax
 4597      FEFFFF
 4598 2229 4589E0   		movl	%r12d, %r8d
 4599 222c 4889C7   		movq	%rax, %rdi
 4600 222f E8000000 		call	_ZN8UnitTest11TestDetailsC1EPKcS2_S2_i
 4600      00
 4601              		.loc 3 135 0 discriminator 9
 4602 2234 E8000000 		call	_ZN8UnitTest11CurrentTest7ResultsEv
 4602      00
 4603 2239 488B00   		movq	(%rax), %rax
 4604 223c 488D8D30 		leaq	-464(%rbp), %rcx
 4604      FEFFFF
 4605 2243 4889DA   		movq	%rbx, %rdx
 4606 2246 4889CE   		movq	%rcx, %rsi
 4607 2249 4889C7   		movq	%rax, %rdi
 4608 224c E8000000 		call	_ZN8UnitTest11TestResults13OnTestFailureERKNS_11TestDetailsEPKc
 4608      00
 4609              	.LEHE137:
 4610              		.loc 3 135 0 discriminator 13
 4611 2251 E8000000 		call	__cxa_end_catch
 4611      00
 4612              	.LBE118:
 4613              	.LBE120:
 4614 2256 E9430100 		jmp	.L265
 4614      00
 4615              	.L249:
 4616              	.LBB121:
 4617              	.LBB119:
 4618              		.loc 3 135 0
 4619 225b 4889C7   		movq	%rax, %rdi
 4620 225e E8000000 		call	__cxa_begin_catch
 4620      00
 4621 2263 48898528 		movq	%rax, -472(%rbp)
 4621      FEFFFF
 4622              	.LBB117:
 4623 226a 488D8550 		leaq	-432(%rbp), %rax
 4623      FEFFFF
 4624 2271 4889C7   		movq	%rax, %rdi
 4625              	.LEHB138:
 4626 2274 E8000000 		call	_ZN8UnitTest15MemoryOutStreamC1Ev
 4626      00
 4627              	.LEHE138:
 4628              		.loc 3 135 0 discriminator 15
 4629 2279 488B8528 		movq	-472(%rbp), %rax
 4629      FEFFFF
 4630 2280 488B00   		movq	(%rax), %rax
 4631 2283 4883C010 		addq	$16, %rax
 4632 2287 488B00   		movq	(%rax), %rax
 4633 228a 488B9528 		movq	-472(%rbp), %rdx
 4633      FEFFFF
 4634 2291 4889D7   		movq	%rdx, %rdi
 4635 2294 FFD0     		call	*%rax
 4636 2296 4889C3   		movq	%rax, %rbx
 4637 2299 488D8550 		leaq	-432(%rbp), %rax
 4637      FEFFFF
 4638 22a0 BE000000 		movl	$.LC3, %esi
 4638      00
 4639 22a5 4889C7   		movq	%rax, %rdi
 4640              	.LEHB139:
 4641 22a8 E8000000 		call	_ZStlsISt11char_traitsIcEERSt13basic_ostreamIcT_ES5_PKc
 4641      00
 4642 22ad 4889DE   		movq	%rbx, %rsi
 4643 22b0 4889C7   		movq	%rax, %rdi
 4644 22b3 E8000000 		call	_ZStlsISt11char_traitsIcEERSt13basic_ostreamIcT_ES5_PKc
 4644      00
 4645              		.loc 3 135 0 discriminator 19
 4646 22b8 488D8550 		leaq	-432(%rbp), %rax
 4646      FEFFFF
 4647 22bf 4889C7   		movq	%rax, %rdi
 4648 22c2 E8000000 		call	_ZNK8UnitTest15MemoryOutStream7GetTextEv
 4648      00
 4649 22c7 4989C4   		movq	%rax, %r12
 4650 22ca 488B8508 		movq	-504(%rbp), %rax
 4650      FEFFFF
 4651 22d1 488D5808 		leaq	8(%rax), %rbx
 4652 22d5 E8000000 		call	_ZN8UnitTest11CurrentTest7ResultsEv
 4652      00
 4653              		.loc 3 135 0 discriminator 21
 4654 22da 488B00   		movq	(%rax), %rax
 4655 22dd 4C89E2   		movq	%r12, %rdx
 4656 22e0 4889DE   		movq	%rbx, %rsi
 4657 22e3 4889C7   		movq	%rax, %rdi
 4658 22e6 E8000000 		call	_ZN8UnitTest11TestResults13OnTestFailureERKNS_11TestDetailsEPKc
 4658      00
 4659              	.LEHE139:
 4660              		.loc 3 135 0 discriminator 25
 4661 22eb 488D8550 		leaq	-432(%rbp), %rax
 4661      FEFFFF
 4662 22f2 4889C7   		movq	%rax, %rdi
 4663              	.LEHB140:
 4664 22f5 E8000000 		call	_ZN8UnitTest15MemoryOutStreamD1Ev
 4664      00
 4665              	.LEHE140:
 4666              	.LBE117:
 4667              		.loc 3 135 0 discriminator 26
 4668 22fa E8000000 		call	__cxa_end_catch
 4668      00
 4669              	.LBE119:
 4670              	.LBE121:
 4671 22ff E99A0000 		jmp	.L265
 4671      00
 4672              	.L264:
 4673              	.LBB122:
 4674              		.loc 3 135 0
 4675 2304 4889C7   		movq	%rax, %rdi
 4676 2307 E8000000 		call	__cxa_begin_catch
 4676      00
 4677 230c 80BD1FFE 		cmpb	$0, -481(%rbp)
 4677      FFFF00
 4678 2313 7443     		je	.L255
 4679              		.loc 3 135 0 discriminator 28
 4680 2315 488B8508 		movq	-504(%rbp), %rax
 4680      FEFFFF
 4681 231c 488D4808 		leaq	8(%rax), %rcx
 4682 2320 488D8530 		leaq	-464(%rbp), %rax
 4682      FEFFFF
 4683 2327 BA870000 		movl	$135, %edx
 4683      00
 4684 232c 4889CE   		movq	%rcx, %rsi
 4685 232f 4889C7   		movq	%rax, %rdi
 4686              	.LEHB141:
 4687 2332 E8000000 		call	_ZN8UnitTest11TestDetailsC1ERKS0_i
 4687      00
 4688              		.loc 3 135 0 discriminator 31
 4689 2337 E8000000 		call	_ZN8UnitTest11CurrentTest7ResultsEv
 4689      00
 4690 233c 488B00   		movq	(%rax), %rax
 4691 233f 488D8D30 		leaq	-464(%rbp), %rcx
 4691      FEFFFF
 4692 2346 BA000000 		movl	$.LC4, %edx
 4692      00
 4693 234b 4889CE   		movq	%rcx, %rsi
 4694 234e 4889C7   		movq	%rax, %rdi
 4695 2351 E8000000 		call	_ZN8UnitTest11TestResults13OnTestFailureERKNS_11TestDetailsEPKc
 4695      00
 4696 2356 EB41     		jmp	.L256
 4697              	.L255:
 4698              		.loc 3 135 0 discriminator 29
 4699 2358 488B8508 		movq	-504(%rbp), %rax
 4699      FEFFFF
 4700 235f 488D4808 		leaq	8(%rax), %rcx
 4701 2363 488D8530 		leaq	-464(%rbp), %rax
 4701      FEFFFF
 4702 236a BA870000 		movl	$135, %edx
 4702      00
 4703 236f 4889CE   		movq	%rcx, %rsi
 4704 2372 4889C7   		movq	%rax, %rdi
 4705 2375 E8000000 		call	_ZN8UnitTest11TestDetailsC1ERKS0_i
 4705      00
 4706              		.loc 3 135 0 discriminator 38
 4707 237a E8000000 		call	_ZN8UnitTest11CurrentTest7ResultsEv
 4707      00
 4708 237f 488B00   		movq	(%rax), %rax
 4709 2382 488D8D30 		leaq	-464(%rbp), %rcx
 4709      FEFFFF
 4710 2389 BA000000 		movl	$.LC5, %edx
 4710      00
 4711 238e 4889CE   		movq	%rcx, %rsi
 4712 2391 4889C7   		movq	%rax, %rdi
 4713 2394 E8000000 		call	_ZN8UnitTest11TestResults13OnTestFailureERKNS_11TestDetailsEPKc
 4713      00
 4714              	.LEHE141:
 4715              	.L256:
 4716              	.LEHB142:
 4717              		.loc 3 135 0 discriminator 43
 4718 2399 E8000000 		call	__cxa_end_catch
 4718      00
 4719              	.LEHE142:
 4720              	.L265:
 4721              	.LBE122:
 4722              		.loc 3 135 0
 4723 239e 90       		nop
 4724 239f 488B45E8 		movq	-24(%rbp), %rax
 4725 23a3 64483304 		xorq	%fs:40, %rax
 4725      25280000 
 4725      00
 4726 23ac 7405     		je	.L257
 4727 23ae E8000000 		call	__stack_chk_fail
 4727      00
 4728              	.L257:
 4729 23b3 4881C4F0 		addq	$496, %rsp
 4729      010000
 4730 23ba 5B       		popq	%rbx
 4731 23bb 415C     		popq	%r12
 4732 23bd 5D       		popq	%rbp
 4733              		.cfi_def_cfa 7, 8
 4734 23be C3       		ret
 4735              		.cfi_endproc
 4736              	.LFE1411:
 4737              		.section	.gcc_except_table
 4738              		.align 4
 4739              	.LLSDA1411:
 4740 03a8 FF       		.byte	0xff
 4741 03a9 03       		.byte	0x3
 4742 03aa 59       		.uleb128 .LLSDATT1411-.LLSDATTD1411
 4743              	.LLSDATTD1411:
 4744 03ab 01       		.byte	0x1
 4745 03ac 41       		.uleb128 .LLSDACSE1411-.LLSDACSB1411
 4746              	.LLSDACSB1411:
 4747 03ad 43       		.uleb128 .LEHB131-.LFB1411
 4748 03ae 05       		.uleb128 .LEHE131-.LEHB131
 4749 03af 9D01     		.uleb128 .L258-.LFB1411
 4750 03b1 05       		.uleb128 0x5
 4751 03b2 67       		.uleb128 .LEHB132-.LFB1411
 4752 03b3 05       		.uleb128 .LEHE132-.LEHB132
 4753 03b4 8001     		.uleb128 .L259-.LFB1411
 4754 03b6 07       		.uleb128 0x7
 4755 03b7 76       		.uleb128 .LEHB133-.LFB1411
 4756 03b8 05       		.uleb128 .LEHE133-.LEHB133
 4757 03b9 9D01     		.uleb128 .L258-.LFB1411
 4758 03bb 05       		.uleb128 0x5
 4759 03bc C001     		.uleb128 .LEHB134-.LFB1411
 4760 03be 05       		.uleb128 .LEHE134-.LEHB134
 4761 03bf 00       		.uleb128 0
 4762 03c0 00       		.uleb128 0
 4763 03c1 E701     		.uleb128 .LEHB135-.LFB1411
 4764 03c3 05       		.uleb128 .LEHE135-.LEHB135
 4765 03c4 00       		.uleb128 0
 4766 03c5 00       		.uleb128 0
 4767 03c6 FA01     		.uleb128 .LEHB136-.LFB1411
 4768 03c8 05       		.uleb128 .LEHE136-.LEHB136
 4769 03c9 00       		.uleb128 0
 4770 03ca 00       		.uleb128 0
 4771 03cb B802     		.uleb128 .LEHB137-.LFB1411
 4772 03cd 5F       		.uleb128 .LEHE137-.LEHB137
 4773 03ce B201     		.uleb128 .L260-.LFB1411
 4774 03d0 00       		.uleb128 0
 4775 03d1 BA03     		.uleb128 .LEHB138-.LFB1411
 4776 03d3 05       		.uleb128 .LEHE138-.LEHB138
 4777 03d4 D901     		.uleb128 .L262-.LFB1411
 4778 03d6 00       		.uleb128 0
 4779 03d7 EE03     		.uleb128 .LEHB139-.LFB1411
 4780 03d9 43       		.uleb128 .LEHE139-.LEHB139
 4781 03da C501     		.uleb128 .L261-.LFB1411
 4782 03dc 00       		.uleb128 0
 4783 03dd BB04     		.uleb128 .LEHB140-.LFB1411
 4784 03df 05       		.uleb128 .LEHE140-.LEHB140
 4785 03e0 D901     		.uleb128 .L262-.LFB1411
 4786 03e2 00       		.uleb128 0
 4787 03e3 F804     		.uleb128 .LEHB141-.LFB1411
 4788 03e5 67       		.uleb128 .LEHE141-.LEHB141
 4789 03e6 EC01     		.uleb128 .L263-.LFB1411
 4790 03e8 00       		.uleb128 0
 4791 03e9 DF05     		.uleb128 .LEHB142-.LFB1411
 4792 03eb 05       		.uleb128 .LEHE142-.LEHB142
 4793 03ec 00       		.uleb128 0
 4794 03ed 00       		.uleb128 0
 4795              	.LLSDACSE1411:
 4796 03ee 03       		.byte	0x3
 4797 03ef 00       		.byte	0
 4798 03f0 02       		.byte	0x2
 4799 03f1 7D       		.byte	0x7d
 4800 03f2 01       		.byte	0x1
 4801 03f3 7D       		.byte	0x7d
 4802 03f4 00       		.byte	0
 4803 03f5 7D       		.byte	0x7d
 4804 03f6 0000     		.align 4
 4805 03f8 00000000 		.long	0
 4806              	
 4807 03fc 00000000 		.long	_ZTISt9exception
 4808 0400 00000000 		.long	_ZTIN8UnitTest15AssertExceptionE
 4809              	.LLSDATT1411:
 4810              		.text
 4812              		.section	.rodata
 4813              	.LC34:
 4814 06a4 6661696C 		.string	"fail.h"
 4814      2E6800
 4815              	.LC35:
 4816 06ab 4661696C 		.string	"FailedTest"
 4816      65645465 
 4816      737400
 4817              	.LC36:
 4818 06b6 65787065 		.string	"expected 1 but was 2"
 4818      63746564 
 4818      20312062 
 4818      75742077 
 4818      61732032 
 4819              	.LC37:
 4820 06cb 53756363 		.string	"SucceededTest"
 4820      65656465 
 4820      64546573 
 4820      7400
 4821 06d9 00000000 		.align 8
 4821      000000
 4822              	.LC39:
 4823 06e0 3C3F786D 		.ascii	"<?xml versio"
 4823      6C207665 
 4823      7273696F 
 4824 06ec 6E3D2231 		.string	"n=\"1.0\"?><unittest-results tests=\"2\" failedtests=\"1\" failures=\"1\" time=\"1.1\"><t
 4824      2E30223F 
 4824      3E3C756E 
 4824      69747465 
 4824      73742D72 
 4825              		.text
 4826 23bf 90       		.align 2
 4828              	_ZN12_GLOBAL__N_151XmlTestReporterFixtureOneFailureAndOneSuccessHelper7RunImplEv:
 4829              	.LFB1415:
 136:TestXmlTestReporter.cpp **** {
 4830              		.loc 3 136 0 is_stmt 1
 4831              		.cfi_startproc
 4832              		.cfi_personality 0x3,__gxx_personality_v0
 4833              		.cfi_lsda 0x3,.LLSDA1415
 4834 23c0 55       		pushq	%rbp
 4835              		.cfi_def_cfa_offset 16
 4836              		.cfi_offset 6, -16
 4837 23c1 4889E5   		movq	%rsp, %rbp
 4838              		.cfi_def_cfa_register 6
 4839 23c4 53       		pushq	%rbx
 4840 23c5 4881EC98 		subq	$152, %rsp
 4840      000000
 4841              		.cfi_offset 3, -24
 4842 23cc 4889BD68 		movq	%rdi, -152(%rbp)
 4842      FFFFFF
 4843              		.loc 3 136 0
 4844 23d3 64488B04 		movq	%fs:40, %rax
 4844      25280000 
 4844      00
 4845 23dc 488945E8 		movq	%rax, -24(%rbp)
 4846 23e0 31C0     		xorl	%eax, %eax
 4847              	.LBB123:
 137:TestXmlTestReporter.cpp ****     TestDetails const failedDetails("FailedTest", "suite", "fail.h", 1);
 4848              		.loc 3 137 0
 4849 23e2 488D4580 		leaq	-128(%rbp), %rax
 4850 23e6 41B80100 		movl	$1, %r8d
 4850      0000
 4851 23ec B9000000 		movl	$.LC34, %ecx
 4851      00
 4852 23f1 BA000000 		movl	$.LC7, %edx
 4852      00
 4853 23f6 BE000000 		movl	$.LC35, %esi
 4853      00
 4854 23fb 4889C7   		movq	%rax, %rdi
 4855              	.LEHB143:
 4856 23fe E8000000 		call	_ZN8UnitTest11TestDetailsC1EPKcS2_S2_i
 4856      00
 138:TestXmlTestReporter.cpp ****     reporter.ReportTestStart(failedDetails);
 4857              		.loc 3 138 0
 4858 2403 488B8568 		movq	-152(%rbp), %rax
 4858      FFFFFF
 4859 240a 488D9060 		leaq	352(%rax), %rdx
 4859      010000
 4860 2411 488D4580 		leaq	-128(%rbp), %rax
 4861 2415 4889C6   		movq	%rax, %rsi
 4862 2418 4889D7   		movq	%rdx, %rdi
 4863 241b E8000000 		call	_ZN8UnitTest20DeferredTestReporter15ReportTestStartERKNS_11TestDetailsE
 4863      00
 139:TestXmlTestReporter.cpp ****     reporter.ReportFailure(failedDetails, "expected 1 but was 2");
 4864              		.loc 3 139 0
 4865 2420 488B8568 		movq	-152(%rbp), %rax
 4865      FFFFFF
 4866 2427 488D8860 		leaq	352(%rax), %rcx
 4866      010000
 4867 242e 488D4580 		leaq	-128(%rbp), %rax
 4868 2432 BA000000 		movl	$.LC36, %edx
 4868      00
 4869 2437 4889C6   		movq	%rax, %rsi
 4870 243a 4889CF   		movq	%rcx, %rdi
 4871 243d E8000000 		call	_ZN8UnitTest20DeferredTestReporter13ReportFailureERKNS_11TestDetailsEPKc
 4871      00
 140:TestXmlTestReporter.cpp ****     reporter.ReportTestFinish(failedDetails, 0.1f);
 4872              		.loc 3 140 0
 4873 2442 488B8568 		movq	-152(%rbp), %rax
 4873      FFFFFF
 4874 2449 488D9060 		leaq	352(%rax), %rdx
 4874      010000
 4875 2450 488D4580 		leaq	-128(%rbp), %rax
 4876 2454 F30F1005 		movss	.LC10(%rip), %xmm0
 4876      00000000 
 4877 245c 4889C6   		movq	%rax, %rsi
 4878 245f 4889D7   		movq	%rdx, %rdi
 4879 2462 E8000000 		call	_ZN8UnitTest20DeferredTestReporter16ReportTestFinishERKNS_11TestDetailsEf
 4879      00
 141:TestXmlTestReporter.cpp **** 
 142:TestXmlTestReporter.cpp ****     TestDetails const succeededDetails("SucceededTest", "suite", "", 0);
 4880              		.loc 3 142 0
 4881 2467 488D45A0 		leaq	-96(%rbp), %rax
 4882 246b 41B80000 		movl	$0, %r8d
 4882      0000
 4883 2471 B9000000 		movl	$.LC14, %ecx
 4883      00
 4884 2476 BA000000 		movl	$.LC7, %edx
 4884      00
 4885 247b BE000000 		movl	$.LC37, %esi
 4885      00
 4886 2480 4889C7   		movq	%rax, %rdi
 4887 2483 E8000000 		call	_ZN8UnitTest11TestDetailsC1EPKcS2_S2_i
 4887      00
 143:TestXmlTestReporter.cpp ****     reporter.ReportTestStart(succeededDetails);
 4888              		.loc 3 143 0
 4889 2488 488B8568 		movq	-152(%rbp), %rax
 4889      FFFFFF
 4890 248f 488D9060 		leaq	352(%rax), %rdx
 4890      010000
 4891 2496 488D45A0 		leaq	-96(%rbp), %rax
 4892 249a 4889C6   		movq	%rax, %rsi
 4893 249d 4889D7   		movq	%rdx, %rdi
 4894 24a0 E8000000 		call	_ZN8UnitTest20DeferredTestReporter15ReportTestStartERKNS_11TestDetailsE
 4894      00
 144:TestXmlTestReporter.cpp ****     reporter.ReportTestFinish(succeededDetails, 1.0f);
 4895              		.loc 3 144 0
 4896 24a5 488B8568 		movq	-152(%rbp), %rax
 4896      FFFFFF
 4897 24ac 488D9060 		leaq	352(%rax), %rdx
 4897      010000
 4898 24b3 488D45A0 		leaq	-96(%rbp), %rax
 4899 24b7 F30F1005 		movss	.LC16(%rip), %xmm0
 4899      00000000 
 4900 24bf 4889C6   		movq	%rax, %rsi
 4901 24c2 4889D7   		movq	%rdx, %rdi
 4902 24c5 E8000000 		call	_ZN8UnitTest20DeferredTestReporter16ReportTestFinishERKNS_11TestDetailsEf
 4902      00
 145:TestXmlTestReporter.cpp ****     reporter.ReportSummary(2, 1, 1, 1.1f);
 4903              		.loc 3 145 0
 4904 24ca 488B8568 		movq	-152(%rbp), %rax
 4904      FFFFFF
 4905 24d1 48056001 		addq	$352, %rax
 4905      0000
 4906 24d7 F30F1005 		movss	.LC38(%rip), %xmm0
 4906      00000000 
 4907 24df B9010000 		movl	$1, %ecx
 4907      00
 4908 24e4 BA010000 		movl	$1, %edx
 4908      00
 4909 24e9 BE020000 		movl	$2, %esi
 4909      00
 4910 24ee 4889C7   		movq	%rax, %rdi
 4911 24f1 E8000000 		call	_ZN8UnitTest15XmlTestReporter13ReportSummaryEiiif
 4911      00
 4912              	.LEHE143:
 146:TestXmlTestReporter.cpp **** 
 147:TestXmlTestReporter.cpp ****     char const* expected =
 148:TestXmlTestReporter.cpp ****         "<?xml version=\"1.0\"?>"
 149:TestXmlTestReporter.cpp ****         "<unittest-results tests=\"2\" failedtests=\"1\" failures=\"1\" time=\"1.1\">"
 150:TestXmlTestReporter.cpp ****         "<test suite=\"suite\" name=\"FailedTest\" time=\"0.1\">"
 151:TestXmlTestReporter.cpp ****         "<failure message=\"fail.h(1) : expected 1 but was 2\"/>"
 152:TestXmlTestReporter.cpp ****         "</test>"
 153:TestXmlTestReporter.cpp ****         "<test suite=\"suite\" name=\"SucceededTest\" time=\"1\"/>"
 154:TestXmlTestReporter.cpp ****         "</unittest-results>";
 4913              		.loc 3 154 0
 4914 24f6 48C78578 		movq	$.LC39, -136(%rbp)
 4914      FFFFFF00 
 4914      000000
 4915              	.LEHB144:
 155:TestXmlTestReporter.cpp **** 
 156:TestXmlTestReporter.cpp ****     CHECK_EQUAL(expected, output.str());
 4916              		.loc 3 156 0
 4917 2501 E8000000 		call	_ZN8UnitTest11CurrentTest7DetailsEv
 4917      00
 4918 2506 488B08   		movq	(%rax), %rcx
 4919 2509 488D45C0 		leaq	-64(%rbp), %rax
 4920 250d BA9C0000 		movl	$156, %edx
 4920      00
 4921 2512 4889CE   		movq	%rcx, %rsi
 4922 2515 4889C7   		movq	%rax, %rdi
 4923 2518 E8000000 		call	_ZN8UnitTest11TestDetailsC1ERKS0_i
 4923      00
 4924              		.loc 3 156 0 is_stmt 0 discriminator 2
 4925 251d 488B9568 		movq	-152(%rbp), %rdx
 4925      FFFFFF
 4926 2524 488D8570 		leaq	-144(%rbp), %rax
 4926      FFFFFF
 4927 252b 4889D6   		movq	%rdx, %rsi
 4928 252e 4889C7   		movq	%rax, %rdi
 4929 2531 E8000000 		call	_ZNKSt19basic_ostringstreamIcSt11char_traitsIcESaIcEE3strEv
 4929      00
 4930              	.LEHE144:
 4931              	.LEHB145:
 4932              		.loc 3 156 0 discriminator 4
 4933 2536 E8000000 		call	_ZN8UnitTest11CurrentTest7ResultsEv
 4933      00
 4934 253b 488B00   		movq	(%rax), %rax
 4935 253e 488D4DC0 		leaq	-64(%rbp), %rcx
 4936 2542 488D9570 		leaq	-144(%rbp), %rdx
 4936      FFFFFF
 4937 2549 488DB578 		leaq	-136(%rbp), %rsi
 4937      FFFFFF
 4938 2550 4889C7   		movq	%rax, %rdi
 4939 2553 E8000000 		call	_ZN8UnitTest10CheckEqualIPKcSsEEvRNS_11TestResultsERKT_RKT0_RKNS_11TestDetailsE
 4939      00
 4940              	.LEHE145:
 4941              		.loc 3 156 0 discriminator 8
 4942 2558 488D8570 		leaq	-144(%rbp), %rax
 4942      FFFFFF
 4943 255f 4889C7   		movq	%rax, %rdi
 4944              	.LEHB146:
 4945 2562 E8000000 		call	_ZNSsD1Ev
 4945      00
 4946              	.LEHE146:
 4947              	.LBE123:
 157:TestXmlTestReporter.cpp **** }
 4948              		.loc 3 157 0 is_stmt 1
 4949 2567 EB6F     		jmp	.L275
 4950              	.L273:
 4951 2569 4889C3   		movq	%rax, %rbx
 4952              	.LBB124:
 156:TestXmlTestReporter.cpp **** }
 4953              		.loc 3 156 0
 4954 256c 488D8570 		leaq	-144(%rbp), %rax
 4954      FFFFFF
 4955 2573 4889C7   		movq	%rax, %rdi
 4956 2576 E8000000 		call	_ZNSsD1Ev
 4956      00
 4957 257b 4889D8   		movq	%rbx, %rax
 4958 257e EB13     		jmp	.L268
 4959              	.L274:
 4960 2580 4889C3   		movq	%rax, %rbx
 4961 2583 E8000000 		call	__cxa_end_catch
 4961      00
 4962 2588 4889D8   		movq	%rbx, %rax
 4963 258b 4889C7   		movq	%rax, %rdi
 4964              	.LEHB147:
 4965 258e E8000000 		call	_Unwind_Resume
 4965      00
 4966              	.LEHE147:
 4967              	.L272:
 4968              	.L268:
 4969 2593 4889C7   		movq	%rax, %rdi
 4970 2596 E8000000 		call	__cxa_begin_catch
 4970      00
 4971              	.LEHB148:
 4972 259b E8000000 		call	_ZN8UnitTest11CurrentTest7DetailsEv
 4972      00
 4973 25a0 488B08   		movq	(%rax), %rcx
 4974 25a3 488D45C0 		leaq	-64(%rbp), %rax
 4975 25a7 BA9C0000 		movl	$156, %edx
 4975      00
 4976 25ac 4889CE   		movq	%rcx, %rsi
 4977 25af 4889C7   		movq	%rax, %rdi
 4978 25b2 E8000000 		call	_ZN8UnitTest11TestDetailsC1ERKS0_i
 4978      00
 156:TestXmlTestReporter.cpp **** }
 4979              		.loc 3 156 0 is_stmt 0 discriminator 14
 4980 25b7 E8000000 		call	_ZN8UnitTest11CurrentTest7ResultsEv
 4980      00
 4981 25bc 488B00   		movq	(%rax), %rax
 4982 25bf 488D4DC0 		leaq	-64(%rbp), %rcx
 4983 25c3 BA000000 		movl	$.LC12, %edx
 4983      00
 4984 25c8 4889CE   		movq	%rcx, %rsi
 4985 25cb 4889C7   		movq	%rax, %rdi
 4986 25ce E8000000 		call	_ZN8UnitTest11TestResults13OnTestFailureERKNS_11TestDetailsEPKc
 4986      00
 4987              	.LEHE148:
 4988              	.LEHB149:
 156:TestXmlTestReporter.cpp **** }
 4989              		.loc 3 156 0 discriminator 18
 4990 25d3 E8000000 		call	__cxa_end_catch
 4990      00
 4991              	.LEHE149:
 4992              	.L275:
 4993              	.LBE124:
 4994              		.loc 3 157 0 is_stmt 1
 4995 25d8 90       		nop
 4996 25d9 488B45E8 		movq	-24(%rbp), %rax
 4997 25dd 64483304 		xorq	%fs:40, %rax
 4997      25280000 
 4997      00
 4998 25e6 7405     		je	.L271
 4999 25e8 E8000000 		call	__stack_chk_fail
 4999      00
 5000              	.L271:
 5001 25ed 4881C498 		addq	$152, %rsp
 5001      000000
 5002 25f4 5B       		popq	%rbx
 5003 25f5 5D       		popq	%rbp
 5004              		.cfi_def_cfa 7, 8
 5005 25f6 C3       		ret
 5006              		.cfi_endproc
 5007              	.LFE1415:
 5008              		.section	.gcc_except_table
 5009              		.align 4
 5010              	.LLSDA1415:
 5011 0404 FF       		.byte	0xff
 5012 0405 03       		.byte	0x3
 5013 0406 31       		.uleb128 .LLSDATT1415-.LLSDATTD1415
 5014              	.LLSDATTD1415:
 5015 0407 01       		.byte	0x1
 5016 0408 27       		.uleb128 .LLSDACSE1415-.LLSDACSB1415
 5017              	.LLSDACSB1415:
 5018 0409 3E       		.uleb128 .LEHB143-.LFB1415
 5019 040a F801     		.uleb128 .LEHE143-.LEHB143
 5020 040c 00       		.uleb128 0
 5021 040d 00       		.uleb128 0
 5022 040e C102     		.uleb128 .LEHB144-.LFB1415
 5023 0410 35       		.uleb128 .LEHE144-.LEHB144
 5024 0411 D303     		.uleb128 .L272-.LFB1415
 5025 0413 01       		.uleb128 0x1
 5026 0414 F602     		.uleb128 .LEHB145-.LFB1415
 5027 0416 22       		.uleb128 .LEHE145-.LEHB145
 5028 0417 A903     		.uleb128 .L273-.LFB1415
 5029 0419 03       		.uleb128 0x3
 5030 041a A203     		.uleb128 .LEHB146-.LFB1415
 5031 041c 05       		.uleb128 .LEHE146-.LEHB146
 5032 041d D303     		.uleb128 .L272-.LFB1415
 5033 041f 01       		.uleb128 0x1
 5034 0420 CE03     		.uleb128 .LEHB147-.LFB1415
 5035 0422 05       		.uleb128 .LEHE147-.LEHB147
 5036 0423 00       		.uleb128 0
 5037 0424 00       		.uleb128 0
 5038 0425 DB03     		.uleb128 .LEHB148-.LFB1415
 5039 0427 38       		.uleb128 .LEHE148-.LEHB148
 5040 0428 C003     		.uleb128 .L274-.LFB1415
 5041 042a 00       		.uleb128 0
 5042 042b 9304     		.uleb128 .LEHB149-.LFB1415
 5043 042d 05       		.uleb128 .LEHE149-.LEHB149
 5044 042e 00       		.uleb128 0
 5045 042f 00       		.uleb128 0
 5046              	.LLSDACSE1415:
 5047 0430 01       		.byte	0x1
 5048 0431 00       		.byte	0
 5049 0432 00       		.byte	0
 5050 0433 7D       		.byte	0x7d
 5051              		.align 4
 5052 0434 00000000 		.long	0
 5053              	
 5054              	.LLSDATT1415:
 5055              		.text
 5057 25f7 90       		.align 2
 5059              	_ZN12_GLOBAL__N_144XmlTestReporterFixtureMultipleFailuresHelperC2ERKN8UnitTest11TestDetailsE:
 5060              	.LFB1417:
 158:TestXmlTestReporter.cpp **** 
 159:TestXmlTestReporter.cpp **** TEST_FIXTURE(XmlTestReporterFixture, MultipleFailures)
 5061              		.loc 3 159 0
 5062              		.cfi_startproc
 5063 25f8 55       		pushq	%rbp
 5064              		.cfi_def_cfa_offset 16
 5065              		.cfi_offset 6, -16
 5066 25f9 4889E5   		movq	%rsp, %rbp
 5067              		.cfi_def_cfa_register 6
 5068 25fc 4883EC10 		subq	$16, %rsp
 5069 2600 48897DF8 		movq	%rdi, -8(%rbp)
 5070 2604 488975F0 		movq	%rsi, -16(%rbp)
 5071              	.LBB125:
 5072              		.loc 3 159 0
 5073 2608 488B45F8 		movq	-8(%rbp), %rax
 5074 260c 4889C7   		movq	%rax, %rdi
 5075 260f E8ECD9FF 		call	_ZN12_GLOBAL__N_122XmlTestReporterFixtureC2Ev
 5075      FF
 5076 2614 488B45F8 		movq	-8(%rbp), %rax
 5077 2618 488B55F0 		movq	-16(%rbp), %rdx
 5078 261c 48899088 		movq	%rdx, 392(%rax)
 5078      010000
 5079              	.LBE125:
 5080 2623 C9       		leave
 5081              		.cfi_def_cfa 7, 8
 5082 2624 C3       		ret
 5083              		.cfi_endproc
 5084              	.LFE1417:
 5086              		.section	.rodata
 5087              	.LC40:
 5088 07ed 4D756C74 		.string	"MultipleFailures"
 5088      69706C65 
 5088      4661696C 
 5088      75726573 
 5088      00
 5089              		.text
 5090 2625 90       		.align 2
 5092              	_ZN12_GLOBAL__N_142TestXmlTestReporterFixtureMultipleFailuresC2Ev:
 5093              	.LFB1420:
 5094              		.loc 3 159 0
 5095              		.cfi_startproc
 5096 2626 55       		pushq	%rbp
 5097              		.cfi_def_cfa_offset 16
 5098              		.cfi_offset 6, -16
 5099 2627 4889E5   		movq	%rsp, %rbp
 5100              		.cfi_def_cfa_register 6
 5101 262a 4883EC10 		subq	$16, %rsp
 5102 262e 48897DF8 		movq	%rdi, -8(%rbp)
 5103              	.LBB126:
 5104              		.loc 3 159 0
 5105 2632 E8000000 		call	_ZN13UnitTestSuite12GetSuiteNameEv
 5105      00
 5106 2637 4889C2   		movq	%rax, %rdx
 5107 263a 488B45F8 		movq	-8(%rbp), %rax
 5108 263e 41B89F00 		movl	$159, %r8d
 5108      0000
 5109 2644 B9000000 		movl	$.LC1, %ecx
 5109      00
 5110 2649 BE000000 		movl	$.LC40, %esi
 5110      00
 5111 264e 4889C7   		movq	%rax, %rdi
 5112 2651 E8000000 		call	_ZN8UnitTest4TestC2EPKcS2_S2_i
 5112      00
 5113 2656 488B45F8 		movq	-8(%rbp), %rax
 5114 265a 48C70000 		movq	$_ZTVN12_GLOBAL__N_142TestXmlTestReporterFixtureMultipleFailuresE+16, (%rax)
 5114      000000
 5115              	.LBE126:
 5116 2661 C9       		leave
 5117              		.cfi_def_cfa 7, 8
 5118 2662 C3       		ret
 5119              		.cfi_endproc
 5120              	.LFE1420:
 5122              		.local	_ZN12_GLOBAL__N_150testXmlTestReporterFixtureMultipleFailuresInstanceE
 5123              		.comm	_ZN12_GLOBAL__N_150testXmlTestReporterFixtureMultipleFailuresInstanceE,56,32
 5124              		.local	_ZN12_GLOBAL__N_143adderXmlTestReporterFixtureMultipleFailuresE
 5125              		.comm	_ZN12_GLOBAL__N_143adderXmlTestReporterFixtureMultipleFailuresE,1,1
 5126 2663 90       		.align 2
 5128              	_ZN12_GLOBAL__N_144XmlTestReporterFixtureMultipleFailuresHelperD2Ev:
 5129              	.LFB1424:
 5130              		.loc 3 159 0
 5131              		.cfi_startproc
 5132 2664 55       		pushq	%rbp
 5133              		.cfi_def_cfa_offset 16
 5134              		.cfi_offset 6, -16
 5135 2665 4889E5   		movq	%rsp, %rbp
 5136              		.cfi_def_cfa_register 6
 5137 2668 4883EC10 		subq	$16, %rsp
 5138 266c 48897DF8 		movq	%rdi, -8(%rbp)
 5139              	.LBB127:
 5140              		.loc 3 159 0
 5141 2670 488B45F8 		movq	-8(%rbp), %rax
 5142 2674 4889C7   		movq	%rax, %rdi
 5143 2677 E8E0D9FF 		call	_ZN12_GLOBAL__N_122XmlTestReporterFixtureD2Ev
 5143      FF
 5144              	.LBE127:
 5145 267c C9       		leave
 5146              		.cfi_def_cfa 7, 8
 5147 267d C3       		ret
 5148              		.cfi_endproc
 5149              	.LFE1424:
 5151              		.align 2
 5153              	_ZNK12_GLOBAL__N_142TestXmlTestReporterFixtureMultipleFailures7RunImplEv:
 5154              	.LFB1422:
 5155              		.loc 3 159 0
 5156              		.cfi_startproc
 5157              		.cfi_personality 0x3,__gxx_personality_v0
 5158              		.cfi_lsda 0x3,.LLSDA1422
 5159 267e 55       		pushq	%rbp
 5160              		.cfi_def_cfa_offset 16
 5161              		.cfi_offset 6, -16
 5162 267f 4889E5   		movq	%rsp, %rbp
 5163              		.cfi_def_cfa_register 6
 5164 2682 4154     		pushq	%r12
 5165 2684 53       		pushq	%rbx
 5166 2685 4881ECF0 		subq	$496, %rsp
 5166      010000
 5167              		.cfi_offset 12, -24
 5168              		.cfi_offset 3, -32
 5169 268c 4889BD08 		movq	%rdi, -504(%rbp)
 5169      FEFFFF
 5170              		.loc 3 159 0
 5171 2693 64488B04 		movq	%fs:40, %rax
 5171      25280000 
 5171      00
 5172 269c 488945E8 		movq	%rax, -24(%rbp)
 5173 26a0 31C0     		xorl	%eax, %eax
 5174              	.LBB128:
 5175 26a2 C6851FFE 		movb	$0, -481(%rbp)
 5175      FFFF00
 5176              	.LBB129:
 5177 26a9 488B8508 		movq	-504(%rbp), %rax
 5177      FEFFFF
 5178 26b0 488D5008 		leaq	8(%rax), %rdx
 5179 26b4 488D8550 		leaq	-432(%rbp), %rax
 5179      FEFFFF
 5180 26bb 4889D6   		movq	%rdx, %rsi
 5181 26be 4889C7   		movq	%rax, %rdi
 5182              	.LEHB150:
 5183 26c1 E832FFFF 		call	_ZN12_GLOBAL__N_144XmlTestReporterFixtureMultipleFailuresHelperC2ERKN8UnitTest11TestDetailsE
 5183      FF
 5184              	.LEHE150:
 5185              		.loc 3 159 0 is_stmt 0 discriminator 1
 5186 26c6 C6851FFE 		movb	$1, -481(%rbp)
 5186      FFFF01
 5187 26cd 488B8508 		movq	-504(%rbp), %rax
 5187      FEFFFF
 5188 26d4 488D5008 		leaq	8(%rax), %rdx
 5189 26d8 488D8550 		leaq	-432(%rbp), %rax
 5189      FEFFFF
 5190 26df 4889D6   		movq	%rdx, %rsi
 5191 26e2 4889C7   		movq	%rax, %rdi
 5192              	.LEHB151:
 5193 26e5 E8E31700 		call	_ZN8UnitTest11ExecuteTestIN12_GLOBAL__N_144XmlTestReporterFixtureMultipleFailuresHelperEEEvRT
 5193      00
 5194              	.LEHE151:
 5195              		.loc 3 159 0 discriminator 3
 5196 26ea 488D8550 		leaq	-432(%rbp), %rax
 5196      FEFFFF
 5197 26f1 4889C7   		movq	%rax, %rdi
 5198              	.LEHB152:
 5199 26f4 E86BFFFF 		call	_ZN12_GLOBAL__N_144XmlTestReporterFixtureMultipleFailuresHelperD2Ev
 5199      FF
 5200              	.LEHE152:
 5201              	.LBE129:
 5202              	.LBE128:
 5203              		.loc 3 159 0
 5204 26f9 E9640200 		jmp	.L301
 5204      00
 5205              	.L295:
 5206 26fe 4989C4   		movq	%rax, %r12
 5207 2701 4889D3   		movq	%rdx, %rbx
 5208              	.LBB137:
 5209              	.LBB130:
 5210 2704 488D8550 		leaq	-432(%rbp), %rax
 5210      FEFFFF
 5211 270b 4889C7   		movq	%rax, %rdi
 5212 270e E851FFFF 		call	_ZN12_GLOBAL__N_144XmlTestReporterFixtureMultipleFailuresHelperD2Ev
 5212      FF
 5213 2713 4C89E0   		movq	%r12, %rax
 5214 2716 4889DA   		movq	%rbx, %rdx
 5215 2719 EB00     		jmp	.L282
 5216              	.L294:
 5217              	.L282:
 5218 271b 4883FA01 		cmpq	$1, %rdx
 5219 271f 745C     		je	.L284
 5220 2721 4883FA02 		cmpq	$2, %rdx
 5221 2725 0F84F400 		je	.L285
 5221      0000
 5222 272b E9980100 		jmp	.L300
 5222      00
 5223              	.L296:
 5224 2730 4889C3   		movq	%rax, %rbx
 5225              	.LBE130:
 5226              	.LBB131:
 5227 2733 E8000000 		call	__cxa_end_catch
 5227      00
 5228 2738 4889D8   		movq	%rbx, %rax
 5229 273b 4889C7   		movq	%rax, %rdi
 5230              	.LEHB153:
 5231 273e E8000000 		call	_Unwind_Resume
 5231      00
 5232              	.LEHE153:
 5233              	.L297:
 5234 2743 4889C3   		movq	%rax, %rbx
 5235              	.LBE131:
 5236              	.LBB132:
 5237              	.LBB133:
 5238 2746 488D8550 		leaq	-432(%rbp), %rax
 5238      FEFFFF
 5239 274d 4889C7   		movq	%rax, %rdi
 5240 2750 E8000000 		call	_ZN8UnitTest15MemoryOutStreamD1Ev
 5240      00
 5241 2755 EB03     		jmp	.L288
 5242              	.L298:
 5243 2757 4889C3   		movq	%rax, %rbx
 5244              	.L288:
 5245              	.LBE133:
 5246 275a E8000000 		call	__cxa_end_catch
 5246      00
 5247 275f 4889D8   		movq	%rbx, %rax
 5248 2762 4889C7   		movq	%rax, %rdi
 5249              	.LEHB154:
 5250 2765 E8000000 		call	_Unwind_Resume
 5250      00
 5251              	.LEHE154:
 5252              	.L299:
 5253 276a 4889C3   		movq	%rax, %rbx
 5254              	.LBE132:
 5255 276d E8000000 		call	__cxa_end_catch
 5255      00
 5256 2772 4889D8   		movq	%rbx, %rax
 5257 2775 4889C7   		movq	%rax, %rdi
 5258              	.LEHB155:
 5259 2778 E8000000 		call	_Unwind_Resume
 5259      00
 5260              	.LEHE155:
 5261              	.L284:
 5262              	.LBB135:
 5263 277d 4889C7   		movq	%rax, %rdi
 5264 2780 E8000000 		call	__cxa_begin_catch
 5264      00
 5265 2785 48898520 		movq	%rax, -480(%rbp)
 5265      FEFFFF
 5266 278c 488B8520 		movq	-480(%rbp), %rax
 5266      FEFFFF
 5267 2793 488B00   		movq	(%rax), %rax
 5268 2796 4883C010 		addq	$16, %rax
 5269 279a 488B00   		movq	(%rax), %rax
 5270 279d 488B9520 		movq	-480(%rbp), %rdx
 5270      FEFFFF
 5271 27a4 4889D7   		movq	%rdx, %rdi
 5272 27a7 FFD0     		call	*%rax
 5273 27a9 4889C3   		movq	%rax, %rbx
 5274 27ac 488B8520 		movq	-480(%rbp), %rax
 5274      FEFFFF
 5275 27b3 4889C7   		movq	%rax, %rdi
 5276              	.LEHB156:
 5277 27b6 E8000000 		call	_ZNK8UnitTest15AssertException10LineNumberEv
 5277      00
 5278 27bb 4189C4   		movl	%eax, %r12d
 5279 27be 488B8520 		movq	-480(%rbp), %rax
 5279      FEFFFF
 5280 27c5 4889C7   		movq	%rax, %rdi
 5281 27c8 E8000000 		call	_ZNK8UnitTest15AssertException8FilenameEv
 5281      00
 5282              		.loc 3 159 0 discriminator 5
 5283 27cd 4889C1   		movq	%rax, %rcx
 5284 27d0 488B8508 		movq	-504(%rbp), %rax
 5284      FEFFFF
 5285 27d7 488B5008 		movq	8(%rax), %rdx
 5286 27db 488B8508 		movq	-504(%rbp), %rax
 5286      FEFFFF
 5287 27e2 488B7010 		movq	16(%rax), %rsi
 5288 27e6 488D8530 		leaq	-464(%rbp), %rax
 5288      FEFFFF
 5289 27ed 4589E0   		movl	%r12d, %r8d
 5290 27f0 4889C7   		movq	%rax, %rdi
 5291 27f3 E8000000 		call	_ZN8UnitTest11TestDetailsC1EPKcS2_S2_i
 5291      00
 5292              		.loc 3 159 0 discriminator 9
 5293 27f8 E8000000 		call	_ZN8UnitTest11CurrentTest7ResultsEv
 5293      00
 5294 27fd 488B00   		movq	(%rax), %rax
 5295 2800 488D8D30 		leaq	-464(%rbp), %rcx
 5295      FEFFFF
 5296 2807 4889DA   		movq	%rbx, %rdx
 5297 280a 4889CE   		movq	%rcx, %rsi
 5298 280d 4889C7   		movq	%rax, %rdi
 5299 2810 E8000000 		call	_ZN8UnitTest11TestResults13OnTestFailureERKNS_11TestDetailsEPKc
 5299      00
 5300              	.LEHE156:
 5301              		.loc 3 159 0 discriminator 13
 5302 2815 E8000000 		call	__cxa_end_catch
 5302      00
 5303              	.LBE135:
 5304              	.LBE137:
 5305 281a E9430100 		jmp	.L301
 5305      00
 5306              	.L285:
 5307              	.LBB138:
 5308              	.LBB136:
 5309              		.loc 3 159 0
 5310 281f 4889C7   		movq	%rax, %rdi
 5311 2822 E8000000 		call	__cxa_begin_catch
 5311      00
 5312 2827 48898528 		movq	%rax, -472(%rbp)
 5312      FEFFFF
 5313              	.LBB134:
 5314 282e 488D8550 		leaq	-432(%rbp), %rax
 5314      FEFFFF
 5315 2835 4889C7   		movq	%rax, %rdi
 5316              	.LEHB157:
 5317 2838 E8000000 		call	_ZN8UnitTest15MemoryOutStreamC1Ev
 5317      00
 5318              	.LEHE157:
 5319              		.loc 3 159 0 discriminator 15
 5320 283d 488B8528 		movq	-472(%rbp), %rax
 5320      FEFFFF
 5321 2844 488B00   		movq	(%rax), %rax
 5322 2847 4883C010 		addq	$16, %rax
 5323 284b 488B00   		movq	(%rax), %rax
 5324 284e 488B9528 		movq	-472(%rbp), %rdx
 5324      FEFFFF
 5325 2855 4889D7   		movq	%rdx, %rdi
 5326 2858 FFD0     		call	*%rax
 5327 285a 4889C3   		movq	%rax, %rbx
 5328 285d 488D8550 		leaq	-432(%rbp), %rax
 5328      FEFFFF
 5329 2864 BE000000 		movl	$.LC3, %esi
 5329      00
 5330 2869 4889C7   		movq	%rax, %rdi
 5331              	.LEHB158:
 5332 286c E8000000 		call	_ZStlsISt11char_traitsIcEERSt13basic_ostreamIcT_ES5_PKc
 5332      00
 5333 2871 4889DE   		movq	%rbx, %rsi
 5334 2874 4889C7   		movq	%rax, %rdi
 5335 2877 E8000000 		call	_ZStlsISt11char_traitsIcEERSt13basic_ostreamIcT_ES5_PKc
 5335      00
 5336              		.loc 3 159 0 discriminator 19
 5337 287c 488D8550 		leaq	-432(%rbp), %rax
 5337      FEFFFF
 5338 2883 4889C7   		movq	%rax, %rdi
 5339 2886 E8000000 		call	_ZNK8UnitTest15MemoryOutStream7GetTextEv
 5339      00
 5340 288b 4989C4   		movq	%rax, %r12
 5341 288e 488B8508 		movq	-504(%rbp), %rax
 5341      FEFFFF
 5342 2895 488D5808 		leaq	8(%rax), %rbx
 5343 2899 E8000000 		call	_ZN8UnitTest11CurrentTest7ResultsEv
 5343      00
 5344              		.loc 3 159 0 discriminator 21
 5345 289e 488B00   		movq	(%rax), %rax
 5346 28a1 4C89E2   		movq	%r12, %rdx
 5347 28a4 4889DE   		movq	%rbx, %rsi
 5348 28a7 4889C7   		movq	%rax, %rdi
 5349 28aa E8000000 		call	_ZN8UnitTest11TestResults13OnTestFailureERKNS_11TestDetailsEPKc
 5349      00
 5350              	.LEHE158:
 5351              		.loc 3 159 0 discriminator 25
 5352 28af 488D8550 		leaq	-432(%rbp), %rax
 5352      FEFFFF
 5353 28b6 4889C7   		movq	%rax, %rdi
 5354              	.LEHB159:
 5355 28b9 E8000000 		call	_ZN8UnitTest15MemoryOutStreamD1Ev
 5355      00
 5356              	.LEHE159:
 5357              	.LBE134:
 5358              		.loc 3 159 0 discriminator 26
 5359 28be E8000000 		call	__cxa_end_catch
 5359      00
 5360              	.LBE136:
 5361              	.LBE138:
 5362 28c3 E99A0000 		jmp	.L301
 5362      00
 5363              	.L300:
 5364              	.LBB139:
 5365              		.loc 3 159 0
 5366 28c8 4889C7   		movq	%rax, %rdi
 5367 28cb E8000000 		call	__cxa_begin_catch
 5367      00
 5368 28d0 80BD1FFE 		cmpb	$0, -481(%rbp)
 5368      FFFF00
 5369 28d7 7443     		je	.L291
 5370              		.loc 3 159 0 discriminator 28
 5371 28d9 488B8508 		movq	-504(%rbp), %rax
 5371      FEFFFF
 5372 28e0 488D4808 		leaq	8(%rax), %rcx
 5373 28e4 488D8530 		leaq	-464(%rbp), %rax
 5373      FEFFFF
 5374 28eb BA9F0000 		movl	$159, %edx
 5374      00
 5375 28f0 4889CE   		movq	%rcx, %rsi
 5376 28f3 4889C7   		movq	%rax, %rdi
 5377              	.LEHB160:
 5378 28f6 E8000000 		call	_ZN8UnitTest11TestDetailsC1ERKS0_i
 5378      00
 5379              		.loc 3 159 0 discriminator 31
 5380 28fb E8000000 		call	_ZN8UnitTest11CurrentTest7ResultsEv
 5380      00
 5381 2900 488B00   		movq	(%rax), %rax
 5382 2903 488D8D30 		leaq	-464(%rbp), %rcx
 5382      FEFFFF
 5383 290a BA000000 		movl	$.LC4, %edx
 5383      00
 5384 290f 4889CE   		movq	%rcx, %rsi
 5385 2912 4889C7   		movq	%rax, %rdi
 5386 2915 E8000000 		call	_ZN8UnitTest11TestResults13OnTestFailureERKNS_11TestDetailsEPKc
 5386      00
 5387 291a EB41     		jmp	.L292
 5388              	.L291:
 5389              		.loc 3 159 0 discriminator 29
 5390 291c 488B8508 		movq	-504(%rbp), %rax
 5390      FEFFFF
 5391 2923 488D4808 		leaq	8(%rax), %rcx
 5392 2927 488D8530 		leaq	-464(%rbp), %rax
 5392      FEFFFF
 5393 292e BA9F0000 		movl	$159, %edx
 5393      00
 5394 2933 4889CE   		movq	%rcx, %rsi
 5395 2936 4889C7   		movq	%rax, %rdi
 5396 2939 E8000000 		call	_ZN8UnitTest11TestDetailsC1ERKS0_i
 5396      00
 5397              		.loc 3 159 0 discriminator 38
 5398 293e E8000000 		call	_ZN8UnitTest11CurrentTest7ResultsEv
 5398      00
 5399 2943 488B00   		movq	(%rax), %rax
 5400 2946 488D8D30 		leaq	-464(%rbp), %rcx
 5400      FEFFFF
 5401 294d BA000000 		movl	$.LC5, %edx
 5401      00
 5402 2952 4889CE   		movq	%rcx, %rsi
 5403 2955 4889C7   		movq	%rax, %rdi
 5404 2958 E8000000 		call	_ZN8UnitTest11TestResults13OnTestFailureERKNS_11TestDetailsEPKc
 5404      00
 5405              	.LEHE160:
 5406              	.L292:
 5407              	.LEHB161:
 5408              		.loc 3 159 0 discriminator 43
 5409 295d E8000000 		call	__cxa_end_catch
 5409      00
 5410              	.LEHE161:
 5411              	.L301:
 5412              	.LBE139:
 5413              		.loc 3 159 0
 5414 2962 90       		nop
 5415 2963 488B45E8 		movq	-24(%rbp), %rax
 5416 2967 64483304 		xorq	%fs:40, %rax
 5416      25280000 
 5416      00
 5417 2970 7405     		je	.L293
 5418 2972 E8000000 		call	__stack_chk_fail
 5418      00
 5419              	.L293:
 5420 2977 4881C4F0 		addq	$496, %rsp
 5420      010000
 5421 297e 5B       		popq	%rbx
 5422 297f 415C     		popq	%r12
 5423 2981 5D       		popq	%rbp
 5424              		.cfi_def_cfa 7, 8
 5425 2982 C3       		ret
 5426              		.cfi_endproc
 5427              	.LFE1422:
 5428              		.section	.gcc_except_table
 5429              		.align 4
 5430              	.LLSDA1422:
 5431 0438 FF       		.byte	0xff
 5432 0439 03       		.byte	0x3
 5433 043a 59       		.uleb128 .LLSDATT1422-.LLSDATTD1422
 5434              	.LLSDATTD1422:
 5435 043b 01       		.byte	0x1
 5436 043c 41       		.uleb128 .LLSDACSE1422-.LLSDACSB1422
 5437              	.LLSDACSB1422:
 5438 043d 43       		.uleb128 .LEHB150-.LFB1422
 5439 043e 05       		.uleb128 .LEHE150-.LEHB150
 5440 043f 9D01     		.uleb128 .L294-.LFB1422
 5441 0441 05       		.uleb128 0x5
 5442 0442 67       		.uleb128 .LEHB151-.LFB1422
 5443 0443 05       		.uleb128 .LEHE151-.LEHB151
 5444 0444 8001     		.uleb128 .L295-.LFB1422
 5445 0446 07       		.uleb128 0x7
 5446 0447 76       		.uleb128 .LEHB152-.LFB1422
 5447 0448 05       		.uleb128 .LEHE152-.LEHB152
 5448 0449 9D01     		.uleb128 .L294-.LFB1422
 5449 044b 05       		.uleb128 0x5
 5450 044c C001     		.uleb128 .LEHB153-.LFB1422
 5451 044e 05       		.uleb128 .LEHE153-.LEHB153
 5452 044f 00       		.uleb128 0
 5453 0450 00       		.uleb128 0
 5454 0451 E701     		.uleb128 .LEHB154-.LFB1422
 5455 0453 05       		.uleb128 .LEHE154-.LEHB154
 5456 0454 00       		.uleb128 0
 5457 0455 00       		.uleb128 0
 5458 0456 FA01     		.uleb128 .LEHB155-.LFB1422
 5459 0458 05       		.uleb128 .LEHE155-.LEHB155
 5460 0459 00       		.uleb128 0
 5461 045a 00       		.uleb128 0
 5462 045b B802     		.uleb128 .LEHB156-.LFB1422
 5463 045d 5F       		.uleb128 .LEHE156-.LEHB156
 5464 045e B201     		.uleb128 .L296-.LFB1422
 5465 0460 00       		.uleb128 0
 5466 0461 BA03     		.uleb128 .LEHB157-.LFB1422
 5467 0463 05       		.uleb128 .LEHE157-.LEHB157
 5468 0464 D901     		.uleb128 .L298-.LFB1422
 5469 0466 00       		.uleb128 0
 5470 0467 EE03     		.uleb128 .LEHB158-.LFB1422
 5471 0469 43       		.uleb128 .LEHE158-.LEHB158
 5472 046a C501     		.uleb128 .L297-.LFB1422
 5473 046c 00       		.uleb128 0
 5474 046d BB04     		.uleb128 .LEHB159-.LFB1422
 5475 046f 05       		.uleb128 .LEHE159-.LEHB159
 5476 0470 D901     		.uleb128 .L298-.LFB1422
 5477 0472 00       		.uleb128 0
 5478 0473 F804     		.uleb128 .LEHB160-.LFB1422
 5479 0475 67       		.uleb128 .LEHE160-.LEHB160
 5480 0476 EC01     		.uleb128 .L299-.LFB1422
 5481 0478 00       		.uleb128 0
 5482 0479 DF05     		.uleb128 .LEHB161-.LFB1422
 5483 047b 05       		.uleb128 .LEHE161-.LEHB161
 5484 047c 00       		.uleb128 0
 5485 047d 00       		.uleb128 0
 5486              	.LLSDACSE1422:
 5487 047e 03       		.byte	0x3
 5488 047f 00       		.byte	0
 5489 0480 02       		.byte	0x2
 5490 0481 7D       		.byte	0x7d
 5491 0482 01       		.byte	0x1
 5492 0483 7D       		.byte	0x7d
 5493 0484 00       		.byte	0
 5494 0485 7D       		.byte	0x7d
 5495 0486 0000     		.align 4
 5496 0488 00000000 		.long	0
 5497              	
 5498 048c 00000000 		.long	_ZTISt9exception
 5499 0490 00000000 		.long	_ZTIN8UnitTest15AssertExceptionE
 5500              	.LLSDATT1422:
 5501              		.text
 5503              		.section	.rodata
 5504              	.LC41:
 5505 07fe 65787065 		.string	"expected one but was two"
 5505      63746564 
 5505      206F6E65 
 5505      20627574 
 5505      20776173 
 5506 0817 00       		.align 8
 5507              	.LC42:
 5508 0818 3C3F786D 		.ascii	"<?xml version=\"1.0\""
 5508      6C207665 
 5508      7273696F 
 5508      6E3D2231 
 5508      2E3022
 5509 082b 3F3E3C75 		.string	"?><unittest-results tests=\"1\" failedtests=\"1\" failures=\"2\" time=\"1.1\"><test suite
 5509      6E697474 
 5509      6573742D 
 5509      72657375 
 5509      6C747320 
 5510              		.text
 5511 2983 90       		.align 2
 5513              	_ZN12_GLOBAL__N_144XmlTestReporterFixtureMultipleFailuresHelper7RunImplEv:
 5514              	.LFB1426:
 160:TestXmlTestReporter.cpp **** {
 5515              		.loc 3 160 0 is_stmt 1
 5516              		.cfi_startproc
 5517              		.cfi_personality 0x3,__gxx_personality_v0
 5518              		.cfi_lsda 0x3,.LLSDA1426
 5519 2984 55       		pushq	%rbp
 5520              		.cfi_def_cfa_offset 16
 5521              		.cfi_offset 6, -16
 5522 2985 4889E5   		movq	%rsp, %rbp
 5523              		.cfi_def_cfa_register 6
 5524 2988 53       		pushq	%rbx
 5525 2989 4881EC98 		subq	$152, %rsp
 5525      000000
 5526              		.cfi_offset 3, -24
 5527 2990 4889BD68 		movq	%rdi, -152(%rbp)
 5527      FFFFFF
 5528              		.loc 3 160 0
 5529 2997 64488B04 		movq	%fs:40, %rax
 5529      25280000 
 5529      00
 5530 29a0 488945E8 		movq	%rax, -24(%rbp)
 5531 29a4 31C0     		xorl	%eax, %eax
 5532              	.LBB140:
 161:TestXmlTestReporter.cpp ****     TestDetails const failedDetails1("FailedTest", "suite", "fail.h", 1);
 5533              		.loc 3 161 0
 5534 29a6 488D4580 		leaq	-128(%rbp), %rax
 5535 29aa 41B80100 		movl	$1, %r8d
 5535      0000
 5536 29b0 B9000000 		movl	$.LC34, %ecx
 5536      00
 5537 29b5 BA000000 		movl	$.LC7, %edx
 5537      00
 5538 29ba BE000000 		movl	$.LC35, %esi
 5538      00
 5539 29bf 4889C7   		movq	%rax, %rdi
 5540              	.LEHB162:
 5541 29c2 E8000000 		call	_ZN8UnitTest11TestDetailsC1EPKcS2_S2_i
 5541      00
 162:TestXmlTestReporter.cpp ****     TestDetails const failedDetails2("FailedTest", "suite", "fail.h", 31);
 5542              		.loc 3 162 0
 5543 29c7 488D45A0 		leaq	-96(%rbp), %rax
 5544 29cb 41B81F00 		movl	$31, %r8d
 5544      0000
 5545 29d1 B9000000 		movl	$.LC34, %ecx
 5545      00
 5546 29d6 BA000000 		movl	$.LC7, %edx
 5546      00
 5547 29db BE000000 		movl	$.LC35, %esi
 5547      00
 5548 29e0 4889C7   		movq	%rax, %rdi
 5549 29e3 E8000000 		call	_ZN8UnitTest11TestDetailsC1EPKcS2_S2_i
 5549      00
 163:TestXmlTestReporter.cpp **** 
 164:TestXmlTestReporter.cpp ****     reporter.ReportTestStart(failedDetails1);
 5550              		.loc 3 164 0
 5551 29e8 488B8568 		movq	-152(%rbp), %rax
 5551      FFFFFF
 5552 29ef 488D9060 		leaq	352(%rax), %rdx
 5552      010000
 5553 29f6 488D4580 		leaq	-128(%rbp), %rax
 5554 29fa 4889C6   		movq	%rax, %rsi
 5555 29fd 4889D7   		movq	%rdx, %rdi
 5556 2a00 E8000000 		call	_ZN8UnitTest20DeferredTestReporter15ReportTestStartERKNS_11TestDetailsE
 5556      00
 165:TestXmlTestReporter.cpp ****     reporter.ReportFailure(failedDetails1, "expected 1 but was 2");
 5557              		.loc 3 165 0
 5558 2a05 488B8568 		movq	-152(%rbp), %rax
 5558      FFFFFF
 5559 2a0c 488D8860 		leaq	352(%rax), %rcx
 5559      010000
 5560 2a13 488D4580 		leaq	-128(%rbp), %rax
 5561 2a17 BA000000 		movl	$.LC36, %edx
 5561      00
 5562 2a1c 4889C6   		movq	%rax, %rsi
 5563 2a1f 4889CF   		movq	%rcx, %rdi
 5564 2a22 E8000000 		call	_ZN8UnitTest20DeferredTestReporter13ReportFailureERKNS_11TestDetailsEPKc
 5564      00
 166:TestXmlTestReporter.cpp ****     reporter.ReportFailure(failedDetails2, "expected one but was two");
 5565              		.loc 3 166 0
 5566 2a27 488B8568 		movq	-152(%rbp), %rax
 5566      FFFFFF
 5567 2a2e 488D8860 		leaq	352(%rax), %rcx
 5567      010000
 5568 2a35 488D45A0 		leaq	-96(%rbp), %rax
 5569 2a39 BA000000 		movl	$.LC41, %edx
 5569      00
 5570 2a3e 4889C6   		movq	%rax, %rsi
 5571 2a41 4889CF   		movq	%rcx, %rdi
 5572 2a44 E8000000 		call	_ZN8UnitTest20DeferredTestReporter13ReportFailureERKNS_11TestDetailsEPKc
 5572      00
 167:TestXmlTestReporter.cpp ****     reporter.ReportTestFinish(failedDetails1, 0.1f);
 5573              		.loc 3 167 0
 5574 2a49 488B8568 		movq	-152(%rbp), %rax
 5574      FFFFFF
 5575 2a50 488D9060 		leaq	352(%rax), %rdx
 5575      010000
 5576 2a57 488D4580 		leaq	-128(%rbp), %rax
 5577 2a5b F30F1005 		movss	.LC10(%rip), %xmm0
 5577      00000000 
 5578 2a63 4889C6   		movq	%rax, %rsi
 5579 2a66 4889D7   		movq	%rdx, %rdi
 5580 2a69 E8000000 		call	_ZN8UnitTest20DeferredTestReporter16ReportTestFinishERKNS_11TestDetailsEf
 5580      00
 168:TestXmlTestReporter.cpp **** 
 169:TestXmlTestReporter.cpp ****     reporter.ReportSummary(1, 1, 2, 1.1f);
 5581              		.loc 3 169 0
 5582 2a6e 488B8568 		movq	-152(%rbp), %rax
 5582      FFFFFF
 5583 2a75 48056001 		addq	$352, %rax
 5583      0000
 5584 2a7b F30F1005 		movss	.LC38(%rip), %xmm0
 5584      00000000 
 5585 2a83 B9020000 		movl	$2, %ecx
 5585      00
 5586 2a88 BA010000 		movl	$1, %edx
 5586      00
 5587 2a8d BE010000 		movl	$1, %esi
 5587      00
 5588 2a92 4889C7   		movq	%rax, %rdi
 5589 2a95 E8000000 		call	_ZN8UnitTest15XmlTestReporter13ReportSummaryEiiif
 5589      00
 5590              	.LEHE162:
 170:TestXmlTestReporter.cpp **** 
 171:TestXmlTestReporter.cpp ****     char const* expected =
 172:TestXmlTestReporter.cpp ****         "<?xml version=\"1.0\"?>"
 173:TestXmlTestReporter.cpp ****         "<unittest-results tests=\"1\" failedtests=\"1\" failures=\"2\" time=\"1.1\">"
 174:TestXmlTestReporter.cpp ****         "<test suite=\"suite\" name=\"FailedTest\" time=\"0.1\">"
 175:TestXmlTestReporter.cpp ****         "<failure message=\"fail.h(1) : expected 1 but was 2\"/>"
 176:TestXmlTestReporter.cpp ****         "<failure message=\"fail.h(31) : expected one but was two\"/>"
 177:TestXmlTestReporter.cpp ****         "</test>"
 178:TestXmlTestReporter.cpp ****         "</unittest-results>";
 5591              		.loc 3 178 0
 5592 2a9a 48C78578 		movq	$.LC42, -136(%rbp)
 5592      FFFFFF00 
 5592      000000
 5593              	.LEHB163:
 179:TestXmlTestReporter.cpp **** 
 180:TestXmlTestReporter.cpp ****     CHECK_EQUAL(expected, output.str());
 5594              		.loc 3 180 0
 5595 2aa5 E8000000 		call	_ZN8UnitTest11CurrentTest7DetailsEv
 5595      00
 5596 2aaa 488B08   		movq	(%rax), %rcx
 5597 2aad 488D45C0 		leaq	-64(%rbp), %rax
 5598 2ab1 BAB40000 		movl	$180, %edx
 5598      00
 5599 2ab6 4889CE   		movq	%rcx, %rsi
 5600 2ab9 4889C7   		movq	%rax, %rdi
 5601 2abc E8000000 		call	_ZN8UnitTest11TestDetailsC1ERKS0_i
 5601      00
 5602              		.loc 3 180 0 is_stmt 0 discriminator 2
 5603 2ac1 488B9568 		movq	-152(%rbp), %rdx
 5603      FFFFFF
 5604 2ac8 488D8570 		leaq	-144(%rbp), %rax
 5604      FFFFFF
 5605 2acf 4889D6   		movq	%rdx, %rsi
 5606 2ad2 4889C7   		movq	%rax, %rdi
 5607 2ad5 E8000000 		call	_ZNKSt19basic_ostringstreamIcSt11char_traitsIcESaIcEE3strEv
 5607      00
 5608              	.LEHE163:
 5609              	.LEHB164:
 5610              		.loc 3 180 0 discriminator 4
 5611 2ada E8000000 		call	_ZN8UnitTest11CurrentTest7ResultsEv
 5611      00
 5612 2adf 488B00   		movq	(%rax), %rax
 5613 2ae2 488D4DC0 		leaq	-64(%rbp), %rcx
 5614 2ae6 488D9570 		leaq	-144(%rbp), %rdx
 5614      FFFFFF
 5615 2aed 488DB578 		leaq	-136(%rbp), %rsi
 5615      FFFFFF
 5616 2af4 4889C7   		movq	%rax, %rdi
 5617 2af7 E8000000 		call	_ZN8UnitTest10CheckEqualIPKcSsEEvRNS_11TestResultsERKT_RKT0_RKNS_11TestDetailsE
 5617      00
 5618              	.LEHE164:
 5619              		.loc 3 180 0 discriminator 8
 5620 2afc 488D8570 		leaq	-144(%rbp), %rax
 5620      FFFFFF
 5621 2b03 4889C7   		movq	%rax, %rdi
 5622              	.LEHB165:
 5623 2b06 E8000000 		call	_ZNSsD1Ev
 5623      00
 5624              	.LEHE165:
 5625              	.LBE140:
 181:TestXmlTestReporter.cpp **** }
 5626              		.loc 3 181 0 is_stmt 1
 5627 2b0b EB6F     		jmp	.L311
 5628              	.L309:
 5629 2b0d 4889C3   		movq	%rax, %rbx
 5630              	.LBB141:
 180:TestXmlTestReporter.cpp **** }
 5631              		.loc 3 180 0
 5632 2b10 488D8570 		leaq	-144(%rbp), %rax
 5632      FFFFFF
 5633 2b17 4889C7   		movq	%rax, %rdi
 5634 2b1a E8000000 		call	_ZNSsD1Ev
 5634      00
 5635 2b1f 4889D8   		movq	%rbx, %rax
 5636 2b22 EB13     		jmp	.L304
 5637              	.L310:
 5638 2b24 4889C3   		movq	%rax, %rbx
 5639 2b27 E8000000 		call	__cxa_end_catch
 5639      00
 5640 2b2c 4889D8   		movq	%rbx, %rax
 5641 2b2f 4889C7   		movq	%rax, %rdi
 5642              	.LEHB166:
 5643 2b32 E8000000 		call	_Unwind_Resume
 5643      00
 5644              	.LEHE166:
 5645              	.L308:
 5646              	.L304:
 5647 2b37 4889C7   		movq	%rax, %rdi
 5648 2b3a E8000000 		call	__cxa_begin_catch
 5648      00
 5649              	.LEHB167:
 5650 2b3f E8000000 		call	_ZN8UnitTest11CurrentTest7DetailsEv
 5650      00
 5651 2b44 488B08   		movq	(%rax), %rcx
 5652 2b47 488D45C0 		leaq	-64(%rbp), %rax
 5653 2b4b BAB40000 		movl	$180, %edx
 5653      00
 5654 2b50 4889CE   		movq	%rcx, %rsi
 5655 2b53 4889C7   		movq	%rax, %rdi
 5656 2b56 E8000000 		call	_ZN8UnitTest11TestDetailsC1ERKS0_i
 5656      00
 180:TestXmlTestReporter.cpp **** }
 5657              		.loc 3 180 0 is_stmt 0 discriminator 14
 5658 2b5b E8000000 		call	_ZN8UnitTest11CurrentTest7ResultsEv
 5658      00
 5659 2b60 488B00   		movq	(%rax), %rax
 5660 2b63 488D4DC0 		leaq	-64(%rbp), %rcx
 5661 2b67 BA000000 		movl	$.LC12, %edx
 5661      00
 5662 2b6c 4889CE   		movq	%rcx, %rsi
 5663 2b6f 4889C7   		movq	%rax, %rdi
 5664 2b72 E8000000 		call	_ZN8UnitTest11TestResults13OnTestFailureERKNS_11TestDetailsEPKc
 5664      00
 5665              	.LEHE167:
 5666              	.LEHB168:
 180:TestXmlTestReporter.cpp **** }
 5667              		.loc 3 180 0 discriminator 18
 5668 2b77 E8000000 		call	__cxa_end_catch
 5668      00
 5669              	.LEHE168:
 5670              	.L311:
 5671              	.LBE141:
 5672              		.loc 3 181 0 is_stmt 1
 5673 2b7c 90       		nop
 5674 2b7d 488B45E8 		movq	-24(%rbp), %rax
 5675 2b81 64483304 		xorq	%fs:40, %rax
 5675      25280000 
 5675      00
 5676 2b8a 7405     		je	.L307
 5677 2b8c E8000000 		call	__stack_chk_fail
 5677      00
 5678              	.L307:
 5679 2b91 4881C498 		addq	$152, %rsp
 5679      000000
 5680 2b98 5B       		popq	%rbx
 5681 2b99 5D       		popq	%rbp
 5682              		.cfi_def_cfa 7, 8
 5683 2b9a C3       		ret
 5684              		.cfi_endproc
 5685              	.LFE1426:
 5686              		.section	.gcc_except_table
 5687              		.align 4
 5688              	.LLSDA1426:
 5689 0494 FF       		.byte	0xff
 5690 0495 03       		.byte	0x3
 5691 0496 31       		.uleb128 .LLSDATT1426-.LLSDATTD1426
 5692              	.LLSDATTD1426:
 5693 0497 01       		.byte	0x1
 5694 0498 27       		.uleb128 .LLSDACSE1426-.LLSDACSB1426
 5695              	.LLSDACSB1426:
 5696 0499 3E       		.uleb128 .LEHB162-.LFB1426
 5697 049a D801     		.uleb128 .LEHE162-.LEHB162
 5698 049c 00       		.uleb128 0
 5699 049d 00       		.uleb128 0
 5700 049e A102     		.uleb128 .LEHB163-.LFB1426
 5701 04a0 35       		.uleb128 .LEHE163-.LEHB163
 5702 04a1 B303     		.uleb128 .L308-.LFB1426
 5703 04a3 01       		.uleb128 0x1
 5704 04a4 D602     		.uleb128 .LEHB164-.LFB1426
 5705 04a6 22       		.uleb128 .LEHE164-.LEHB164
 5706 04a7 8903     		.uleb128 .L309-.LFB1426
 5707 04a9 03       		.uleb128 0x3
 5708 04aa 8203     		.uleb128 .LEHB165-.LFB1426
 5709 04ac 05       		.uleb128 .LEHE165-.LEHB165
 5710 04ad B303     		.uleb128 .L308-.LFB1426
 5711 04af 01       		.uleb128 0x1
 5712 04b0 AE03     		.uleb128 .LEHB166-.LFB1426
 5713 04b2 05       		.uleb128 .LEHE166-.LEHB166
 5714 04b3 00       		.uleb128 0
 5715 04b4 00       		.uleb128 0
 5716 04b5 BB03     		.uleb128 .LEHB167-.LFB1426
 5717 04b7 38       		.uleb128 .LEHE167-.LEHB167
 5718 04b8 A003     		.uleb128 .L310-.LFB1426
 5719 04ba 00       		.uleb128 0
 5720 04bb F303     		.uleb128 .LEHB168-.LFB1426
 5721 04bd 05       		.uleb128 .LEHE168-.LEHB168
 5722 04be 00       		.uleb128 0
 5723 04bf 00       		.uleb128 0
 5724              	.LLSDACSE1426:
 5725 04c0 01       		.byte	0x1
 5726 04c1 00       		.byte	0
 5727 04c2 00       		.byte	0
 5728 04c3 7D       		.byte	0x7d
 5729              		.align 4
 5730 04c4 00000000 		.long	0
 5731              	
 5732              	.LLSDATT1426:
 5733              		.text
 5735              		.section	.rodata
 5736              	.LC43:
 5737 092c 556E6861 		.string	"Unhandled system exception"
 5737      6E646C65 
 5737      64207379 
 5737      7374656D 
 5737      20657863 
 5738              	.LC44:
 5739 0947 556E6861 		.string	"Unhandled exception: Crash!"
 5739      6E646C65 
 5739      64206578 
 5739      63657074 
 5739      696F6E3A 
 5740              		.text
 5742              	_ZN8UnitTest11ExecuteTestIN12_GLOBAL__N_156XmlTestReporterFixtureMultipleCharactersAreEscapedHelper
 5743              	.LFB1455:
 5744              		.file 4 "../ExecuteTest.h"
   1:../ExecuteTest.h **** #ifndef UNITTEST_EXECUTE_TEST_H
   2:../ExecuteTest.h **** #define UNITTEST_EXECUTE_TEST_H
   3:../ExecuteTest.h **** 
   4:../ExecuteTest.h **** #include "TestDetails.h"
   5:../ExecuteTest.h **** #include "MemoryOutStream.h"
   6:../ExecuteTest.h **** #include "AssertException.h"
   7:../ExecuteTest.h **** #include "CurrentTest.h"
   8:../ExecuteTest.h **** 
   9:../ExecuteTest.h **** #ifdef UNITTEST_POSIX
  10:../ExecuteTest.h **** 	#include "PosixUtils/SignalTranslator.h"
  11:../ExecuteTest.h **** #endif
  12:../ExecuteTest.h **** 
  13:../ExecuteTest.h **** namespace UnitTest {
  14:../ExecuteTest.h **** 
  15:../ExecuteTest.h **** template< typename T >
  16:../ExecuteTest.h **** void ExecuteTest(T& testObject, TestDetails const& details)
 5745              		.loc 4 16 0
 5746              		.cfi_startproc
 5747              		.cfi_personality 0x3,__gxx_personality_v0
 5748              		.cfi_lsda 0x3,.LLSDA1455
 5749 2b9b 55       		pushq	%rbp
 5750              		.cfi_def_cfa_offset 16
 5751              		.cfi_offset 6, -16
 5752 2b9c 4889E5   		movq	%rsp, %rbp
 5753              		.cfi_def_cfa_register 6
 5754 2b9f 4154     		pushq	%r12
 5755 2ba1 53       		pushq	%rbx
 5756 2ba2 4881EC20 		subq	$1568, %rsp
 5756      060000
 5757              		.cfi_offset 12, -24
 5758              		.cfi_offset 3, -32
 5759 2ba9 4889BDD8 		movq	%rdi, -1576(%rbp)
 5759      F9FFFF
 5760 2bb0 4889B5D0 		movq	%rsi, -1584(%rbp)
 5760      F9FFFF
 5761              		.loc 4 16 0
 5762 2bb7 64488B04 		movq	%fs:40, %rax
 5762      25280000 
 5762      00
 5763 2bc0 488945E8 		movq	%rax, -24(%rbp)
 5764 2bc4 31C0     		xorl	%eax, %eax
 5765              	.LEHB169:
 5766              	.LBB142:
  17:../ExecuteTest.h **** {
  18:../ExecuteTest.h **** 	CurrentTest::Details() = &details;
 5767              		.loc 4 18 0
 5768 2bc6 E8000000 		call	_ZN8UnitTest11CurrentTest7DetailsEv
 5768      00
 5769              	.LEHE169:
 5770 2bcb 4889C2   		movq	%rax, %rdx
 5771 2bce 488B85D0 		movq	-1584(%rbp), %rax
 5771      F9FFFF
 5772 2bd5 488902   		movq	%rax, (%rdx)
 5773              	.LBB143:
  19:../ExecuteTest.h **** 
  20:../ExecuteTest.h **** 	try
  21:../ExecuteTest.h **** 	{
  22:../ExecuteTest.h **** #ifdef UNITTEST_POSIX
  23:../ExecuteTest.h **** 		UNITTEST_THROW_SIGNALS
 5774              		.loc 4 23 0
 5775 2bd8 488D8580 		leaq	-1152(%rbp), %rax
 5775      FBFFFF
 5776 2bdf 4889C7   		movq	%rax, %rdi
 5777              	.LEHB170:
 5778 2be2 E8000000 		call	_ZN8UnitTest16SignalTranslatorC1Ev
 5778      00
 5779              	.LEHE170:
 5780              		.loc 4 23 0 is_stmt 0 discriminator 1
 5781 2be7 488B0500 		movq	_ZN8UnitTest16SignalTranslator12s_jumpTargetE(%rip), %rax
 5781      000000
 5782 2bee BE010000 		movl	$1, %esi
 5782      00
 5783 2bf3 4889C7   		movq	%rax, %rdi
 5784 2bf6 E8000000 		call	__sigsetjmp
 5784      00
 5785 2bfb 85C0     		testl	%eax, %eax
 5786 2bfd 0F95C0   		setne	%al
 5787 2c00 84C0     		testb	%al, %al
 5788 2c02 7423     		je	.L332
 5789              		.loc 4 23 0 discriminator 3
 5790 2c04 BF080000 		movl	$8, %edi
 5790      00
 5791 2c09 E8000000 		call	__cxa_allocate_exception
 5791      00
 5792 2c0e 48C70000 		movq	$.LC43, (%rax)
 5792      000000
 5793 2c15 BA000000 		movl	$0, %edx
 5793      00
 5794 2c1a BE000000 		movl	$_ZTIPKc, %esi
 5794      00
 5795 2c1f 4889C7   		movq	%rax, %rdi
 5796              	.LEHB171:
 5797 2c22 E8000000 		call	__cxa_throw
 5797      00
 5798              	.L332:
  24:../ExecuteTest.h **** #endif
  25:../ExecuteTest.h **** 		testObject.RunImpl();
 5799              		.loc 4 25 0 is_stmt 1
 5800 2c27 488B85D8 		movq	-1576(%rbp), %rax
 5800      F9FFFF
 5801 2c2e 4889C7   		movq	%rax, %rdi
 5802 2c31 E800D8FF 		call	_ZN12_GLOBAL__N_156XmlTestReporterFixtureMultipleCharactersAreEscapedHelper7RunImplEv
 5802      FF
 5803              	.LEHE171:
 5804              		.loc 4 25 0 is_stmt 0 discriminator 2
 5805 2c36 488D8580 		leaq	-1152(%rbp), %rax
 5805      FBFFFF
 5806 2c3d 4889C7   		movq	%rax, %rdi
 5807              	.LEHB172:
 5808 2c40 E8000000 		call	_ZN8UnitTest16SignalTranslatorD1Ev
 5808      00
 5809              	.LEHE172:
 5810              	.LBE143:
 5811              	.LBE142:
  26:../ExecuteTest.h **** 	}
  27:../ExecuteTest.h **** 	catch (AssertException const& e)
  28:../ExecuteTest.h **** 	{
  29:../ExecuteTest.h **** 		CurrentTest::Results()->OnTestFailure(
  30:../ExecuteTest.h **** 			TestDetails(details.testName, details.suiteName, e.Filename(), e.LineNumber()), e.what());
  31:../ExecuteTest.h **** 	}
  32:../ExecuteTest.h **** 	catch (std::exception const& e)
  33:../ExecuteTest.h **** 	{
  34:../ExecuteTest.h **** 		MemoryOutStream stream;
  35:../ExecuteTest.h **** 		stream << "Unhandled exception: " << e.what();
  36:../ExecuteTest.h **** 		CurrentTest::Results()->OnTestFailure(details, stream.GetText());
  37:../ExecuteTest.h **** 	}
  38:../ExecuteTest.h **** 	catch (...)
  39:../ExecuteTest.h **** 	{
  40:../ExecuteTest.h **** 		CurrentTest::Results()->OnTestFailure(details, "Unhandled exception: Crash!");
  41:../ExecuteTest.h **** 	}
  42:../ExecuteTest.h **** }
 5812              		.loc 4 42 0 is_stmt 1
 5813 2c45 E9EE0100 		jmp	.L334
 5813      00
 5814              	.L327:
 5815 2c4a 4989C4   		movq	%rax, %r12
 5816 2c4d 4889D3   		movq	%rdx, %rbx
 5817              	.LBB151:
 5818              	.LBB144:
  25:../ExecuteTest.h **** 	}
 5819              		.loc 4 25 0
 5820 2c50 488D8580 		leaq	-1152(%rbp), %rax
 5820      FBFFFF
 5821 2c57 4889C7   		movq	%rax, %rdi
 5822 2c5a E8000000 		call	_ZN8UnitTest16SignalTranslatorD1Ev
 5822      00
 5823 2c5f 4C89E0   		movq	%r12, %rax
 5824 2c62 4889DA   		movq	%rbx, %rdx
 5825 2c65 EB00     		jmp	.L316
 5826              	.L326:
 5827              	.L316:
 5828 2c67 4883FA01 		cmpq	$1, %rdx
 5829 2c6b 745C     		je	.L318
 5830 2c6d 4883FA02 		cmpq	$2, %rdx
 5831 2c71 0F84F300 		je	.L319
 5831      0000
 5832 2c77 E9900100 		jmp	.L333
 5832      00
 5833              	.L328:
 5834 2c7c 4889C3   		movq	%rax, %rbx
 5835              	.LBE144:
 5836              	.LBB145:
  27:../ExecuteTest.h **** 	{
 5837              		.loc 4 27 0
 5838 2c7f E8000000 		call	__cxa_end_catch
 5838      00
 5839 2c84 4889D8   		movq	%rbx, %rax
 5840 2c87 4889C7   		movq	%rax, %rdi
 5841              	.LEHB173:
 5842 2c8a E8000000 		call	_Unwind_Resume
 5842      00
 5843              	.LEHE173:
 5844              	.L329:
 5845 2c8f 4889C3   		movq	%rax, %rbx
 5846              	.LBE145:
 5847              	.LBB146:
 5848              	.LBB147:
  36:../ExecuteTest.h **** 	}
 5849              		.loc 4 36 0
 5850 2c92 488D8510 		leaq	-1520(%rbp), %rax
 5850      FAFFFF
 5851 2c99 4889C7   		movq	%rax, %rdi
 5852 2c9c E8000000 		call	_ZN8UnitTest15MemoryOutStreamD1Ev
 5852      00
 5853 2ca1 EB03     		jmp	.L322
 5854              	.L330:
 5855 2ca3 4889C3   		movq	%rax, %rbx
 5856              	.L322:
 5857              	.LBE147:
  32:../ExecuteTest.h **** 	{
 5858              		.loc 4 32 0
 5859 2ca6 E8000000 		call	__cxa_end_catch
 5859      00
 5860 2cab 4889D8   		movq	%rbx, %rax
 5861 2cae 4889C7   		movq	%rax, %rdi
 5862              	.LEHB174:
 5863 2cb1 E8000000 		call	_Unwind_Resume
 5863      00
 5864              	.LEHE174:
 5865              	.L331:
 5866 2cb6 4889C3   		movq	%rax, %rbx
 5867              	.LBE146:
  38:../ExecuteTest.h **** 	{
 5868              		.loc 4 38 0
 5869 2cb9 E8000000 		call	__cxa_end_catch
 5869      00
 5870 2cbe 4889D8   		movq	%rbx, %rax
 5871 2cc1 4889C7   		movq	%rax, %rdi
 5872              	.LEHB175:
 5873 2cc4 E8000000 		call	_Unwind_Resume
 5873      00
 5874              	.LEHE175:
 5875              	.L318:
 5876              	.LBB149:
  27:../ExecuteTest.h **** 	{
 5877              		.loc 4 27 0
 5878 2cc9 4889C7   		movq	%rax, %rdi
 5879 2ccc E8000000 		call	__cxa_begin_catch
 5879      00
 5880 2cd1 488985E0 		movq	%rax, -1568(%rbp)
 5880      F9FFFF
  30:../ExecuteTest.h **** 	}
 5881              		.loc 4 30 0
 5882 2cd8 488B85E0 		movq	-1568(%rbp), %rax
 5882      F9FFFF
 5883 2cdf 488B00   		movq	(%rax), %rax
 5884 2ce2 4883C010 		addq	$16, %rax
 5885 2ce6 488B00   		movq	(%rax), %rax
 5886 2ce9 488B95E0 		movq	-1568(%rbp), %rdx
 5886      F9FFFF
 5887 2cf0 4889D7   		movq	%rdx, %rdi
 5888 2cf3 FFD0     		call	*%rax
 5889 2cf5 4889C3   		movq	%rax, %rbx
 5890 2cf8 488B85E0 		movq	-1568(%rbp), %rax
 5890      F9FFFF
 5891 2cff 4889C7   		movq	%rax, %rdi
 5892              	.LEHB176:
 5893 2d02 E8000000 		call	_ZNK8UnitTest15AssertException10LineNumberEv
 5893      00
  30:../ExecuteTest.h **** 	}
 5894              		.loc 4 30 0 is_stmt 0 discriminator 1
 5895 2d07 4189C4   		movl	%eax, %r12d
 5896 2d0a 488B85E0 		movq	-1568(%rbp), %rax
 5896      F9FFFF
 5897 2d11 4889C7   		movq	%rax, %rdi
 5898 2d14 E8000000 		call	_ZNK8UnitTest15AssertException8FilenameEv
 5898      00
  30:../ExecuteTest.h **** 	}
 5899              		.loc 4 30 0 discriminator 2
 5900 2d19 4889C1   		movq	%rax, %rcx
 5901 2d1c 488B85D0 		movq	-1584(%rbp), %rax
 5901      F9FFFF
 5902 2d23 488B10   		movq	(%rax), %rdx
 5903 2d26 488B85D0 		movq	-1584(%rbp), %rax
 5903      F9FFFF
 5904 2d2d 488B7008 		movq	8(%rax), %rsi
 5905 2d31 488D85F0 		leaq	-1552(%rbp), %rax
 5905      F9FFFF
 5906 2d38 4589E0   		movl	%r12d, %r8d
 5907 2d3b 4889C7   		movq	%rax, %rdi
 5908 2d3e E8000000 		call	_ZN8UnitTest11TestDetailsC1EPKcS2_S2_i
 5908      00
  29:../ExecuteTest.h **** 			TestDetails(details.testName, details.suiteName, e.Filename(), e.LineNumber()), e.what());
 5909              		.loc 4 29 0 is_stmt 1
 5910 2d43 E8000000 		call	_ZN8UnitTest11CurrentTest7ResultsEv
 5910      00
  30:../ExecuteTest.h **** 	}
 5911              		.loc 4 30 0
 5912 2d48 488B00   		movq	(%rax), %rax
  29:../ExecuteTest.h **** 			TestDetails(details.testName, details.suiteName, e.Filename(), e.LineNumber()), e.what());
 5913              		.loc 4 29 0
 5914 2d4b 488D8DF0 		leaq	-1552(%rbp), %rcx
 5914      F9FFFF
 5915 2d52 4889DA   		movq	%rbx, %rdx
 5916 2d55 4889CE   		movq	%rcx, %rsi
 5917 2d58 4889C7   		movq	%rax, %rdi
 5918 2d5b E8000000 		call	_ZN8UnitTest11TestResults13OnTestFailureERKNS_11TestDetailsEPKc
 5918      00
 5919              	.LEHE176:
  27:../ExecuteTest.h **** 	{
 5920              		.loc 4 27 0
 5921 2d60 E8000000 		call	__cxa_end_catch
 5921      00
 5922              	.LBE149:
 5923              	.LBE151:
 5924              		.loc 4 42 0
 5925 2d65 E9CE0000 		jmp	.L334
 5925      00
 5926              	.L319:
 5927              	.LBB152:
 5928              	.LBB150:
  32:../ExecuteTest.h **** 	{
 5929              		.loc 4 32 0
 5930 2d6a 4889C7   		movq	%rax, %rdi
 5931 2d6d E8000000 		call	__cxa_begin_catch
 5931      00
 5932 2d72 488985E8 		movq	%rax, -1560(%rbp)
 5932      F9FFFF
 5933              	.LBB148:
  34:../ExecuteTest.h **** 		stream << "Unhandled exception: " << e.what();
 5934              		.loc 4 34 0
 5935 2d79 488D8510 		leaq	-1520(%rbp), %rax
 5935      FAFFFF
 5936 2d80 4889C7   		movq	%rax, %rdi
 5937              	.LEHB177:
 5938 2d83 E8000000 		call	_ZN8UnitTest15MemoryOutStreamC1Ev
 5938      00
 5939              	.LEHE177:
  35:../ExecuteTest.h **** 		CurrentTest::Results()->OnTestFailure(details, stream.GetText());
 5940              		.loc 4 35 0
 5941 2d88 488B85E8 		movq	-1560(%rbp), %rax
 5941      F9FFFF
 5942 2d8f 488B00   		movq	(%rax), %rax
 5943 2d92 4883C010 		addq	$16, %rax
 5944 2d96 488B00   		movq	(%rax), %rax
 5945 2d99 488B95E8 		movq	-1560(%rbp), %rdx
 5945      F9FFFF
 5946 2da0 4889D7   		movq	%rdx, %rdi
 5947 2da3 FFD0     		call	*%rax
 5948 2da5 4889C3   		movq	%rax, %rbx
 5949 2da8 488D8510 		leaq	-1520(%rbp), %rax
 5949      FAFFFF
 5950 2daf BE000000 		movl	$.LC3, %esi
 5950      00
 5951 2db4 4889C7   		movq	%rax, %rdi
 5952              	.LEHB178:
 5953 2db7 E8000000 		call	_ZStlsISt11char_traitsIcEERSt13basic_ostreamIcT_ES5_PKc
 5953      00
  35:../ExecuteTest.h **** 		CurrentTest::Results()->OnTestFailure(details, stream.GetText());
 5954              		.loc 4 35 0 is_stmt 0 discriminator 1
 5955 2dbc 4889DE   		movq	%rbx, %rsi
 5956 2dbf 4889C7   		movq	%rax, %rdi
 5957 2dc2 E8000000 		call	_ZStlsISt11char_traitsIcEERSt13basic_ostreamIcT_ES5_PKc
 5957      00
  36:../ExecuteTest.h **** 	}
 5958              		.loc 4 36 0 is_stmt 1
 5959 2dc7 488D8510 		leaq	-1520(%rbp), %rax
 5959      FAFFFF
 5960 2dce 4889C7   		movq	%rax, %rdi
 5961 2dd1 E8000000 		call	_ZNK8UnitTest15MemoryOutStream7GetTextEv
 5961      00
 5962 2dd6 4889C3   		movq	%rax, %rbx
 5963 2dd9 E8000000 		call	_ZN8UnitTest11CurrentTest7ResultsEv
 5963      00
  36:../ExecuteTest.h **** 	}
 5964              		.loc 4 36 0 is_stmt 0 discriminator 2
 5965 2dde 488B00   		movq	(%rax), %rax
 5966 2de1 488B8DD0 		movq	-1584(%rbp), %rcx
 5966      F9FFFF
 5967 2de8 4889DA   		movq	%rbx, %rdx
 5968 2deb 4889CE   		movq	%rcx, %rsi
 5969 2dee 4889C7   		movq	%rax, %rdi
 5970 2df1 E8000000 		call	_ZN8UnitTest11TestResults13OnTestFailureERKNS_11TestDetailsEPKc
 5970      00
 5971              	.LEHE178:
  36:../ExecuteTest.h **** 	}
 5972              		.loc 4 36 0 discriminator 6
 5973 2df6 488D8510 		leaq	-1520(%rbp), %rax
 5973      FAFFFF
 5974 2dfd 4889C7   		movq	%rax, %rdi
 5975              	.LEHB179:
 5976 2e00 E8000000 		call	_ZN8UnitTest15MemoryOutStreamD1Ev
 5976      00
 5977              	.LEHE179:
 5978              	.LBE148:
  32:../ExecuteTest.h **** 	{
 5979              		.loc 4 32 0 is_stmt 1
 5980 2e05 E8000000 		call	__cxa_end_catch
 5980      00
 5981              	.LBE150:
 5982              	.LBE152:
 5983              		.loc 4 42 0
 5984 2e0a EB2C     		jmp	.L334
 5985              	.L333:
 5986              	.LBB153:
  38:../ExecuteTest.h **** 	{
 5987              		.loc 4 38 0
 5988 2e0c 4889C7   		movq	%rax, %rdi
 5989 2e0f E8000000 		call	__cxa_begin_catch
 5989      00
 5990              	.LEHB180:
  40:../ExecuteTest.h **** 	}
 5991              		.loc 4 40 0
 5992 2e14 E8000000 		call	_ZN8UnitTest11CurrentTest7ResultsEv
 5992      00
 5993 2e19 488B00   		movq	(%rax), %rax
 5994 2e1c 488B8DD0 		movq	-1584(%rbp), %rcx
 5994      F9FFFF
 5995 2e23 BA000000 		movl	$.LC44, %edx
 5995      00
 5996 2e28 4889CE   		movq	%rcx, %rsi
 5997 2e2b 4889C7   		movq	%rax, %rdi
 5998 2e2e E8000000 		call	_ZN8UnitTest11TestResults13OnTestFailureERKNS_11TestDetailsEPKc
 5998      00
 5999              	.LEHE180:
 6000              	.LEHB181:
  38:../ExecuteTest.h **** 	{
 6001              		.loc 4 38 0
 6002 2e33 E8000000 		call	__cxa_end_catch
 6002      00
 6003              	.LEHE181:
 6004              	.L334:
 6005              	.LBE153:
 6006              		.loc 4 42 0
 6007 2e38 90       		nop
 6008 2e39 488B45E8 		movq	-24(%rbp), %rax
 6009 2e3d 64483304 		xorq	%fs:40, %rax
 6009      25280000 
 6009      00
 6010 2e46 7405     		je	.L325
 6011 2e48 E8000000 		call	__stack_chk_fail
 6011      00
 6012              	.L325:
 6013 2e4d 4881C420 		addq	$1568, %rsp
 6013      060000
 6014 2e54 5B       		popq	%rbx
 6015 2e55 415C     		popq	%r12
 6016 2e57 5D       		popq	%rbp
 6017              		.cfi_def_cfa 7, 8
 6018 2e58 C3       		ret
 6019              		.cfi_endproc
 6020              	.LFE1455:
 6021              		.section	.gcc_except_table
 6022              		.align 4
 6023              	.LLSDA1455:
 6024 04c8 FF       		.byte	0xff
 6025 04c9 03       		.byte	0x3
 6026 04ca 5D       		.uleb128 .LLSDATT1455-.LLSDATTD1455
 6027              	.LLSDATTD1455:
 6028 04cb 01       		.byte	0x1
 6029 04cc 47       		.uleb128 .LLSDACSE1455-.LLSDACSB1455
 6030              	.LLSDACSB1455:
 6031 04cd 2B       		.uleb128 .LEHB169-.LFB1455
 6032 04ce 05       		.uleb128 .LEHE169-.LEHB169
 6033 04cf 00       		.uleb128 0
 6034 04d0 00       		.uleb128 0
 6035 04d1 47       		.uleb128 .LEHB170-.LFB1455
 6036 04d2 05       		.uleb128 .LEHE170-.LEHB170
 6037 04d3 CC01     		.uleb128 .L326-.LFB1455
 6038 04d5 05       		.uleb128 0x5
 6039 04d6 8701     		.uleb128 .LEHB171-.LFB1455
 6040 04d8 14       		.uleb128 .LEHE171-.LEHB171
 6041 04d9 AF01     		.uleb128 .L327-.LFB1455
 6042 04db 07       		.uleb128 0x7
 6043 04dc A501     		.uleb128 .LEHB172-.LFB1455
 6044 04de 05       		.uleb128 .LEHE172-.LEHB172
 6045 04df CC01     		.uleb128 .L326-.LFB1455
 6046 04e1 05       		.uleb128 0x5
 6047 04e2 EF01     		.uleb128 .LEHB173-.LFB1455
 6048 04e4 05       		.uleb128 .LEHE173-.LEHB173
 6049 04e5 00       		.uleb128 0
 6050 04e6 00       		.uleb128 0
 6051 04e7 9602     		.uleb128 .LEHB174-.LFB1455
 6052 04e9 05       		.uleb128 .LEHE174-.LEHB174
 6053 04ea 00       		.uleb128 0
 6054 04eb 00       		.uleb128 0
 6055 04ec A902     		.uleb128 .LEHB175-.LFB1455
 6056 04ee 05       		.uleb128 .LEHE175-.LEHB175
 6057 04ef 00       		.uleb128 0
 6058 04f0 00       		.uleb128 0
 6059 04f1 E702     		.uleb128 .LEHB176-.LFB1455
 6060 04f3 5E       		.uleb128 .LEHE176-.LEHB176
 6061 04f4 E101     		.uleb128 .L328-.LFB1455
 6062 04f6 00       		.uleb128 0
 6063 04f7 E803     		.uleb128 .LEHB177-.LFB1455
 6064 04f9 05       		.uleb128 .LEHE177-.LEHB177
 6065 04fa 8802     		.uleb128 .L330-.LFB1455
 6066 04fc 00       		.uleb128 0
 6067 04fd 9C04     		.uleb128 .LEHB178-.LFB1455
 6068 04ff 3F       		.uleb128 .LEHE178-.LEHB178
 6069 0500 F401     		.uleb128 .L329-.LFB1455
 6070 0502 00       		.uleb128 0
 6071 0503 E504     		.uleb128 .LEHB179-.LFB1455
 6072 0505 05       		.uleb128 .LEHE179-.LEHB179
 6073 0506 8802     		.uleb128 .L330-.LFB1455
 6074 0508 00       		.uleb128 0
 6075 0509 F904     		.uleb128 .LEHB180-.LFB1455
 6076 050b 1F       		.uleb128 .LEHE180-.LEHB180
 6077 050c 9B02     		.uleb128 .L331-.LFB1455
 6078 050e 00       		.uleb128 0
 6079 050f 9805     		.uleb128 .LEHB181-.LFB1455
 6080 0511 05       		.uleb128 .LEHE181-.LEHB181
 6081 0512 00       		.uleb128 0
 6082 0513 00       		.uleb128 0
 6083              	.LLSDACSE1455:
 6084 0514 03       		.byte	0x3
 6085 0515 00       		.byte	0
 6086 0516 02       		.byte	0x2
 6087 0517 7D       		.byte	0x7d
 6088 0518 01       		.byte	0x1
 6089 0519 7D       		.byte	0x7d
 6090 051a 00       		.byte	0
 6091 051b 7D       		.byte	0x7d
 6092              		.align 4
 6093 051c 00000000 		.long	0
 6094              	
 6095 0520 00000000 		.long	_ZTISt9exception
 6096 0524 00000000 		.long	_ZTIN8UnitTest15AssertExceptionE
 6097              	.LLSDATT1455:
 6098              		.text
 6100              		.section	.rodata
 6101              	.LC45:
 6102 0963 45787065 		.string	"Expected "
 6102      63746564 
 6102      2000
 6103              	.LC46:
 6104 096d 20627574 		.string	" but was "
 6104      20776173 
 6104      2000
 6105              		.section	.text._ZN8UnitTest10CheckEqualIPKcSsEEvRNS_11TestResultsERKT_RKT0_RKNS_11TestDetailsE,"ax
 6106              		.weak	_ZN8UnitTest10CheckEqualIPKcSsEEvRNS_11TestResultsERKT_RKT0_RKNS_11TestDetailsE
 6108              	_ZN8UnitTest10CheckEqualIPKcSsEEvRNS_11TestResultsERKT_RKT0_RKNS_11TestDetailsE:
 6109              	.LFB1458:
 6110              		.file 5 "../Checks.h"
   1:../Checks.h   **** #ifndef UNITTEST_CHECKS_H
   2:../Checks.h   **** #define UNITTEST_CHECKS_H
   3:../Checks.h   **** 
   4:../Checks.h   **** #include "Config.h"
   5:../Checks.h   **** #include "TestResults.h"
   6:../Checks.h   **** #include "MemoryOutStream.h"
   7:../Checks.h   **** 
   8:../Checks.h   **** namespace UnitTest {
   9:../Checks.h   **** 
  10:../Checks.h   **** 
  11:../Checks.h   **** template< typename Value >
  12:../Checks.h   **** bool Check(Value const value)
  13:../Checks.h   **** {
  14:../Checks.h   ****     return !!value; // doing double negative to avoid silly VS warnings
  15:../Checks.h   **** }
  16:../Checks.h   **** 
  17:../Checks.h   **** 
  18:../Checks.h   **** template< typename Expected, typename Actual >
  19:../Checks.h   **** void CheckEqual(TestResults& results, Expected const& expected, Actual const& actual, TestDetails c
 6111              		.loc 5 19 0
 6112              		.cfi_startproc
 6113              		.cfi_personality 0x3,__gxx_personality_v0
 6114              		.cfi_lsda 0x3,.LLSDA1458
 6115 0000 55       		pushq	%rbp
 6116              		.cfi_def_cfa_offset 16
 6117              		.cfi_offset 6, -16
 6118 0001 4889E5   		movq	%rsp, %rbp
 6119              		.cfi_def_cfa_register 6
 6120 0004 53       		pushq	%rbx
 6121 0005 4881EC98 		subq	$408, %rsp
 6121      010000
 6122              		.cfi_offset 3, -24
 6123 000c 4889BD78 		movq	%rdi, -392(%rbp)
 6123      FEFFFF
 6124 0013 4889B570 		movq	%rsi, -400(%rbp)
 6124      FEFFFF
 6125 001a 48899568 		movq	%rdx, -408(%rbp)
 6125      FEFFFF
 6126 0021 48898D60 		movq	%rcx, -416(%rbp)
 6126      FEFFFF
 6127              		.loc 5 19 0
 6128 0028 64488B04 		movq	%fs:40, %rax
 6128      25280000 
 6128      00
 6129 0031 488945E8 		movq	%rax, -24(%rbp)
 6130 0035 31C0     		xorl	%eax, %eax
 6131              	.LBB154:
 6132              	.LBB155:
  20:../Checks.h   **** {
  21:../Checks.h   ****     if (!(expected == actual))
 6133              		.loc 5 21 0
 6134 0037 488B8570 		movq	-400(%rbp), %rax
 6134      FEFFFF
 6135 003e 488B00   		movq	(%rax), %rax
 6136 0041 488B9568 		movq	-408(%rbp), %rdx
 6136      FEFFFF
 6137 0048 4889D6   		movq	%rdx, %rsi
 6138 004b 4889C7   		movq	%rax, %rdi
 6139              	.LEHB182:
 6140 004e E8000000 		call	_ZSteqIcSt11char_traitsIcESaIcEEbPKT_RKSbIS3_T0_T1_E
 6140      00
 6141 0053 83F001   		xorl	$1, %eax
 6142 0056 84C0     		testb	%al, %al
 6143 0058 0F849400 		je	.L336
 6143      0000
 6144              	.LBB156:
  22:../Checks.h   ****     {
  23:../Checks.h   ****         UnitTest::MemoryOutStream stream;
 6145              		.loc 5 23 0
 6146 005e 488D8580 		leaq	-384(%rbp), %rax
 6146      FEFFFF
 6147 0065 4889C7   		movq	%rax, %rdi
 6148 0068 E8000000 		call	_ZN8UnitTest15MemoryOutStreamC1Ev
 6148      00
 6149              	.LEHE182:
  24:../Checks.h   ****         stream << "Expected " << expected << " but was " << actual;
 6150              		.loc 5 24 0
 6151 006d 488B8570 		movq	-400(%rbp), %rax
 6151      FEFFFF
 6152 0074 488B18   		movq	(%rax), %rbx
 6153 0077 488D8580 		leaq	-384(%rbp), %rax
 6153      FEFFFF
 6154 007e BE000000 		movl	$.LC45, %esi
 6154      00
 6155 0083 4889C7   		movq	%rax, %rdi
 6156              	.LEHB183:
 6157 0086 E8000000 		call	_ZStlsISt11char_traitsIcEERSt13basic_ostreamIcT_ES5_PKc
 6157      00
 6158 008b 4889DE   		movq	%rbx, %rsi
 6159 008e 4889C7   		movq	%rax, %rdi
 6160 0091 E8000000 		call	_ZStlsISt11char_traitsIcEERSt13basic_ostreamIcT_ES5_PKc
 6160      00
 6161              		.loc 5 24 0 is_stmt 0 discriminator 1
 6162 0096 BE000000 		movl	$.LC46, %esi
 6162      00
 6163 009b 4889C7   		movq	%rax, %rdi
 6164 009e E8000000 		call	_ZStlsISt11char_traitsIcEERSt13basic_ostreamIcT_ES5_PKc
 6164      00
 6165              		.loc 5 24 0 discriminator 2
 6166 00a3 4889C2   		movq	%rax, %rdx
 6167 00a6 488B8568 		movq	-408(%rbp), %rax
 6167      FEFFFF
 6168 00ad 4889C6   		movq	%rax, %rsi
 6169 00b0 4889D7   		movq	%rdx, %rdi
 6170 00b3 E8000000 		call	_ZStlsIcSt11char_traitsIcESaIcEERSt13basic_ostreamIT_T0_ES7_RKSbIS4_S5_T1_E
 6170      00
  25:../Checks.h   **** 
  26:../Checks.h   ****         results.OnTestFailure(details, stream.GetText());
 6171              		.loc 5 26 0 is_stmt 1
 6172 00b8 488D8580 		leaq	-384(%rbp), %rax
 6172      FEFFFF
 6173 00bf 4889C7   		movq	%rax, %rdi
 6174 00c2 E8000000 		call	_ZNK8UnitTest15MemoryOutStream7GetTextEv
 6174      00
 6175 00c7 4889C2   		movq	%rax, %rdx
 6176 00ca 488B8D60 		movq	-416(%rbp), %rcx
 6176      FEFFFF
 6177 00d1 488B8578 		movq	-392(%rbp), %rax
 6177      FEFFFF
 6178 00d8 4889CE   		movq	%rcx, %rsi
 6179 00db 4889C7   		movq	%rax, %rdi
 6180 00de E8000000 		call	_ZN8UnitTest11TestResults13OnTestFailureERKNS_11TestDetailsEPKc
 6180      00
 6181              	.LEHE183:
 6182              		.loc 5 26 0 is_stmt 0 discriminator 4
 6183 00e3 488D8580 		leaq	-384(%rbp), %rax
 6183      FEFFFF
 6184 00ea 4889C7   		movq	%rax, %rdi
 6185              	.LEHB184:
 6186 00ed E8000000 		call	_ZN8UnitTest15MemoryOutStreamD1Ev
 6186      00
 6187              	.LEHE184:
 6188              	.L336:
 6189              	.LBE156:
 6190              	.LBE155:
 6191              	.LBE154:
  27:../Checks.h   ****     }
  28:../Checks.h   **** }
 6192              		.loc 5 28 0 is_stmt 1
 6193 00f2 488B45E8 		movq	-24(%rbp), %rax
 6194 00f6 64483304 		xorq	%fs:40, %rax
 6194      25280000 
 6194      00
 6195 00ff 7424     		je	.L338
 6196 0101 EB1D     		jmp	.L340
 6197              	.L339:
 6198 0103 4889C3   		movq	%rax, %rbx
 6199              	.LBB159:
 6200              	.LBB158:
 6201              	.LBB157:
  26:../Checks.h   ****     }
 6202              		.loc 5 26 0
 6203 0106 488D8580 		leaq	-384(%rbp), %rax
 6203      FEFFFF
 6204 010d 4889C7   		movq	%rax, %rdi
 6205 0110 E8000000 		call	_ZN8UnitTest15MemoryOutStreamD1Ev
 6205      00
 6206 0115 4889D8   		movq	%rbx, %rax
 6207 0118 4889C7   		movq	%rax, %rdi
 6208              	.LEHB185:
 6209 011b E8000000 		call	_Unwind_Resume
 6209      00
 6210              	.LEHE185:
 6211              	.L340:
 6212              	.LBE157:
 6213              	.LBE158:
 6214              	.LBE159:
 6215              		.loc 5 28 0
 6216 0120 E8000000 		call	__stack_chk_fail
 6216      00
 6217              	.L338:
 6218 0125 4881C498 		addq	$408, %rsp
 6218      010000
 6219 012c 5B       		popq	%rbx
 6220 012d 5D       		popq	%rbp
 6221              		.cfi_def_cfa 7, 8
 6222 012e C3       		ret
 6223              		.cfi_endproc
 6224              	.LFE1458:
 6225              		.section	.gcc_except_table
 6226              	.LLSDA1458:
 6227 0528 FF       		.byte	0xff
 6228 0529 FF       		.byte	0xff
 6229 052a 01       		.byte	0x1
 6230 052b 14       		.uleb128 .LLSDACSE1458-.LLSDACSB1458
 6231              	.LLSDACSB1458:
 6232 052c 4E       		.uleb128 .LEHB182-.LFB1458
 6233 052d 1F       		.uleb128 .LEHE182-.LEHB182
 6234 052e 00       		.uleb128 0
 6235 052f 00       		.uleb128 0
 6236 0530 8601     		.uleb128 .LEHB183-.LFB1458
 6237 0532 5D       		.uleb128 .LEHE183-.LEHB183
 6238 0533 8302     		.uleb128 .L339-.LFB1458
 6239 0535 00       		.uleb128 0
 6240 0536 ED01     		.uleb128 .LEHB184-.LFB1458
 6241 0538 05       		.uleb128 .LEHE184-.LEHB184
 6242 0539 00       		.uleb128 0
 6243 053a 00       		.uleb128 0
 6244 053b 9B02     		.uleb128 .LEHB185-.LFB1458
 6245 053d 05       		.uleb128 .LEHE185-.LEHB185
 6246 053e 00       		.uleb128 0
 6247 053f 00       		.uleb128 0
 6248              	.LLSDACSE1458:
 6249              		.section	.text._ZN8UnitTest10CheckEqualIPKcSsEEvRNS_11TestResultsERKT_RKT0_RKNS_11TestDetailsE,"ax
 6251              		.text
 6253              	_ZN8UnitTest11ExecuteTestIN12_GLOBAL__N_168XmlTestReporterFixtureOutputIsCachedUntilReportSummaryIs
 6254              	.LFB1459:
  16:../ExecuteTest.h **** {
 6255              		.loc 4 16 0
 6256              		.cfi_startproc
 6257              		.cfi_personality 0x3,__gxx_personality_v0
 6258              		.cfi_lsda 0x3,.LLSDA1459
 6259 2e59 55       		pushq	%rbp
 6260              		.cfi_def_cfa_offset 16
 6261              		.cfi_offset 6, -16
 6262 2e5a 4889E5   		movq	%rsp, %rbp
 6263              		.cfi_def_cfa_register 6
 6264 2e5d 4154     		pushq	%r12
 6265 2e5f 53       		pushq	%rbx
 6266 2e60 4881EC20 		subq	$1568, %rsp
 6266      060000
 6267              		.cfi_offset 12, -24
 6268              		.cfi_offset 3, -32
 6269 2e67 4889BDD8 		movq	%rdi, -1576(%rbp)
 6269      F9FFFF
 6270 2e6e 4889B5D0 		movq	%rsi, -1584(%rbp)
 6270      F9FFFF
  16:../ExecuteTest.h **** {
 6271              		.loc 4 16 0
 6272 2e75 64488B04 		movq	%fs:40, %rax
 6272      25280000 
 6272      00
 6273 2e7e 488945E8 		movq	%rax, -24(%rbp)
 6274 2e82 31C0     		xorl	%eax, %eax
 6275              	.LEHB186:
 6276              	.LBB160:
  18:../ExecuteTest.h **** 
 6277              		.loc 4 18 0
 6278 2e84 E8000000 		call	_ZN8UnitTest11CurrentTest7DetailsEv
 6278      00
 6279              	.LEHE186:
 6280 2e89 4889C2   		movq	%rax, %rdx
 6281 2e8c 488B85D0 		movq	-1584(%rbp), %rax
 6281      F9FFFF
 6282 2e93 488902   		movq	%rax, (%rdx)
 6283              	.LBB161:
  23:../ExecuteTest.h **** #endif
 6284              		.loc 4 23 0
 6285 2e96 488D8580 		leaq	-1152(%rbp), %rax
 6285      FBFFFF
 6286 2e9d 4889C7   		movq	%rax, %rdi
 6287              	.LEHB187:
 6288 2ea0 E8000000 		call	_ZN8UnitTest16SignalTranslatorC1Ev
 6288      00
 6289              	.LEHE187:
  23:../ExecuteTest.h **** #endif
 6290              		.loc 4 23 0 is_stmt 0 discriminator 1
 6291 2ea5 488B0500 		movq	_ZN8UnitTest16SignalTranslator12s_jumpTargetE(%rip), %rax
 6291      000000
 6292 2eac BE010000 		movl	$1, %esi
 6292      00
 6293 2eb1 4889C7   		movq	%rax, %rdi
 6294 2eb4 E8000000 		call	__sigsetjmp
 6294      00
 6295 2eb9 85C0     		testl	%eax, %eax
 6296 2ebb 0F95C0   		setne	%al
 6297 2ebe 84C0     		testb	%al, %al
 6298 2ec0 7423     		je	.L361
  23:../ExecuteTest.h **** #endif
 6299              		.loc 4 23 0 discriminator 3
 6300 2ec2 BF080000 		movl	$8, %edi
 6300      00
 6301 2ec7 E8000000 		call	__cxa_allocate_exception
 6301      00
 6302 2ecc 48C70000 		movq	$.LC43, (%rax)
 6302      000000
 6303 2ed3 BA000000 		movl	$0, %edx
 6303      00
 6304 2ed8 BE000000 		movl	$_ZTIPKc, %esi
 6304      00
 6305 2edd 4889C7   		movq	%rax, %rdi
 6306              	.LEHB188:
 6307 2ee0 E8000000 		call	__cxa_throw
 6307      00
 6308              	.L361:
  25:../ExecuteTest.h **** 	}
 6309              		.loc 4 25 0 is_stmt 1
 6310 2ee5 488B85D8 		movq	-1576(%rbp), %rax
 6310      F9FFFF
 6311 2eec 4889C7   		movq	%rax, %rdi
 6312 2eef E878DAFF 		call	_ZN12_GLOBAL__N_168XmlTestReporterFixtureOutputIsCachedUntilReportSummaryIsCalledHelper7RunIm
 6312      FF
 6313              	.LEHE188:
  25:../ExecuteTest.h **** 	}
 6314              		.loc 4 25 0 is_stmt 0 discriminator 2
 6315 2ef4 488D8580 		leaq	-1152(%rbp), %rax
 6315      FBFFFF
 6316 2efb 4889C7   		movq	%rax, %rdi
 6317              	.LEHB189:
 6318 2efe E8000000 		call	_ZN8UnitTest16SignalTranslatorD1Ev
 6318      00
 6319              	.LEHE189:
 6320              	.LBE161:
 6321              	.LBE160:
 6322              		.loc 4 42 0 is_stmt 1
 6323 2f03 E9EE0100 		jmp	.L363
 6323      00
 6324              	.L356:
 6325 2f08 4989C4   		movq	%rax, %r12
 6326 2f0b 4889D3   		movq	%rdx, %rbx
 6327              	.LBB169:
 6328              	.LBB162:
  25:../ExecuteTest.h **** 	}
 6329              		.loc 4 25 0
 6330 2f0e 488D8580 		leaq	-1152(%rbp), %rax
 6330      FBFFFF
 6331 2f15 4889C7   		movq	%rax, %rdi
 6332 2f18 E8000000 		call	_ZN8UnitTest16SignalTranslatorD1Ev
 6332      00
 6333 2f1d 4C89E0   		movq	%r12, %rax
 6334 2f20 4889DA   		movq	%rbx, %rdx
 6335 2f23 EB00     		jmp	.L345
 6336              	.L355:
 6337              	.L345:
 6338 2f25 4883FA01 		cmpq	$1, %rdx
 6339 2f29 745C     		je	.L347
 6340 2f2b 4883FA02 		cmpq	$2, %rdx
 6341 2f2f 0F84F300 		je	.L348
 6341      0000
 6342 2f35 E9900100 		jmp	.L362
 6342      00
 6343              	.L357:
 6344 2f3a 4889C3   		movq	%rax, %rbx
 6345              	.LBE162:
 6346              	.LBB163:
  27:../ExecuteTest.h **** 	{
 6347              		.loc 4 27 0
 6348 2f3d E8000000 		call	__cxa_end_catch
 6348      00
 6349 2f42 4889D8   		movq	%rbx, %rax
 6350 2f45 4889C7   		movq	%rax, %rdi
 6351              	.LEHB190:
 6352 2f48 E8000000 		call	_Unwind_Resume
 6352      00
 6353              	.LEHE190:
 6354              	.L358:
 6355 2f4d 4889C3   		movq	%rax, %rbx
 6356              	.LBE163:
 6357              	.LBB164:
 6358              	.LBB165:
  36:../ExecuteTest.h **** 	}
 6359              		.loc 4 36 0
 6360 2f50 488D8510 		leaq	-1520(%rbp), %rax
 6360      FAFFFF
 6361 2f57 4889C7   		movq	%rax, %rdi
 6362 2f5a E8000000 		call	_ZN8UnitTest15MemoryOutStreamD1Ev
 6362      00
 6363 2f5f EB03     		jmp	.L351
 6364              	.L359:
 6365 2f61 4889C3   		movq	%rax, %rbx
 6366              	.L351:
 6367              	.LBE165:
  32:../ExecuteTest.h **** 	{
 6368              		.loc 4 32 0
 6369 2f64 E8000000 		call	__cxa_end_catch
 6369      00
 6370 2f69 4889D8   		movq	%rbx, %rax
 6371 2f6c 4889C7   		movq	%rax, %rdi
 6372              	.LEHB191:
 6373 2f6f E8000000 		call	_Unwind_Resume
 6373      00
 6374              	.LEHE191:
 6375              	.L360:
 6376 2f74 4889C3   		movq	%rax, %rbx
 6377              	.LBE164:
  38:../ExecuteTest.h **** 	{
 6378              		.loc 4 38 0
 6379 2f77 E8000000 		call	__cxa_end_catch
 6379      00
 6380 2f7c 4889D8   		movq	%rbx, %rax
 6381 2f7f 4889C7   		movq	%rax, %rdi
 6382              	.LEHB192:
 6383 2f82 E8000000 		call	_Unwind_Resume
 6383      00
 6384              	.LEHE192:
 6385              	.L347:
 6386              	.LBB167:
  27:../ExecuteTest.h **** 	{
 6387              		.loc 4 27 0
 6388 2f87 4889C7   		movq	%rax, %rdi
 6389 2f8a E8000000 		call	__cxa_begin_catch
 6389      00
 6390 2f8f 488985E0 		movq	%rax, -1568(%rbp)
 6390      F9FFFF
  30:../ExecuteTest.h **** 	}
 6391              		.loc 4 30 0
 6392 2f96 488B85E0 		movq	-1568(%rbp), %rax
 6392      F9FFFF
 6393 2f9d 488B00   		movq	(%rax), %rax
 6394 2fa0 4883C010 		addq	$16, %rax
 6395 2fa4 488B00   		movq	(%rax), %rax
 6396 2fa7 488B95E0 		movq	-1568(%rbp), %rdx
 6396      F9FFFF
 6397 2fae 4889D7   		movq	%rdx, %rdi
 6398 2fb1 FFD0     		call	*%rax
 6399 2fb3 4889C3   		movq	%rax, %rbx
 6400 2fb6 488B85E0 		movq	-1568(%rbp), %rax
 6400      F9FFFF
 6401 2fbd 4889C7   		movq	%rax, %rdi
 6402              	.LEHB193:
 6403 2fc0 E8000000 		call	_ZNK8UnitTest15AssertException10LineNumberEv
 6403      00
  30:../ExecuteTest.h **** 	}
 6404              		.loc 4 30 0 is_stmt 0 discriminator 1
 6405 2fc5 4189C4   		movl	%eax, %r12d
 6406 2fc8 488B85E0 		movq	-1568(%rbp), %rax
 6406      F9FFFF
 6407 2fcf 4889C7   		movq	%rax, %rdi
 6408 2fd2 E8000000 		call	_ZNK8UnitTest15AssertException8FilenameEv
 6408      00
  30:../ExecuteTest.h **** 	}
 6409              		.loc 4 30 0 discriminator 2
 6410 2fd7 4889C1   		movq	%rax, %rcx
 6411 2fda 488B85D0 		movq	-1584(%rbp), %rax
 6411      F9FFFF
 6412 2fe1 488B10   		movq	(%rax), %rdx
 6413 2fe4 488B85D0 		movq	-1584(%rbp), %rax
 6413      F9FFFF
 6414 2feb 488B7008 		movq	8(%rax), %rsi
 6415 2fef 488D85F0 		leaq	-1552(%rbp), %rax
 6415      F9FFFF
 6416 2ff6 4589E0   		movl	%r12d, %r8d
 6417 2ff9 4889C7   		movq	%rax, %rdi
 6418 2ffc E8000000 		call	_ZN8UnitTest11TestDetailsC1EPKcS2_S2_i
 6418      00
  29:../ExecuteTest.h **** 			TestDetails(details.testName, details.suiteName, e.Filename(), e.LineNumber()), e.what());
 6419              		.loc 4 29 0 is_stmt 1
 6420 3001 E8000000 		call	_ZN8UnitTest11CurrentTest7ResultsEv
 6420      00
  30:../ExecuteTest.h **** 	}
 6421              		.loc 4 30 0
 6422 3006 488B00   		movq	(%rax), %rax
  29:../ExecuteTest.h **** 			TestDetails(details.testName, details.suiteName, e.Filename(), e.LineNumber()), e.what());
 6423              		.loc 4 29 0
 6424 3009 488D8DF0 		leaq	-1552(%rbp), %rcx
 6424      F9FFFF
 6425 3010 4889DA   		movq	%rbx, %rdx
 6426 3013 4889CE   		movq	%rcx, %rsi
 6427 3016 4889C7   		movq	%rax, %rdi
 6428 3019 E8000000 		call	_ZN8UnitTest11TestResults13OnTestFailureERKNS_11TestDetailsEPKc
 6428      00
 6429              	.LEHE193:
  27:../ExecuteTest.h **** 	{
 6430              		.loc 4 27 0
 6431 301e E8000000 		call	__cxa_end_catch
 6431      00
 6432              	.LBE167:
 6433              	.LBE169:
 6434              		.loc 4 42 0
 6435 3023 E9CE0000 		jmp	.L363
 6435      00
 6436              	.L348:
 6437              	.LBB170:
 6438              	.LBB168:
  32:../ExecuteTest.h **** 	{
 6439              		.loc 4 32 0
 6440 3028 4889C7   		movq	%rax, %rdi
 6441 302b E8000000 		call	__cxa_begin_catch
 6441      00
 6442 3030 488985E8 		movq	%rax, -1560(%rbp)
 6442      F9FFFF
 6443              	.LBB166:
  34:../ExecuteTest.h **** 		stream << "Unhandled exception: " << e.what();
 6444              		.loc 4 34 0
 6445 3037 488D8510 		leaq	-1520(%rbp), %rax
 6445      FAFFFF
 6446 303e 4889C7   		movq	%rax, %rdi
 6447              	.LEHB194:
 6448 3041 E8000000 		call	_ZN8UnitTest15MemoryOutStreamC1Ev
 6448      00
 6449              	.LEHE194:
  35:../ExecuteTest.h **** 		CurrentTest::Results()->OnTestFailure(details, stream.GetText());
 6450              		.loc 4 35 0
 6451 3046 488B85E8 		movq	-1560(%rbp), %rax
 6451      F9FFFF
 6452 304d 488B00   		movq	(%rax), %rax
 6453 3050 4883C010 		addq	$16, %rax
 6454 3054 488B00   		movq	(%rax), %rax
 6455 3057 488B95E8 		movq	-1560(%rbp), %rdx
 6455      F9FFFF
 6456 305e 4889D7   		movq	%rdx, %rdi
 6457 3061 FFD0     		call	*%rax
 6458 3063 4889C3   		movq	%rax, %rbx
 6459 3066 488D8510 		leaq	-1520(%rbp), %rax
 6459      FAFFFF
 6460 306d BE000000 		movl	$.LC3, %esi
 6460      00
 6461 3072 4889C7   		movq	%rax, %rdi
 6462              	.LEHB195:
 6463 3075 E8000000 		call	_ZStlsISt11char_traitsIcEERSt13basic_ostreamIcT_ES5_PKc
 6463      00
  35:../ExecuteTest.h **** 		CurrentTest::Results()->OnTestFailure(details, stream.GetText());
 6464              		.loc 4 35 0 is_stmt 0 discriminator 1
 6465 307a 4889DE   		movq	%rbx, %rsi
 6466 307d 4889C7   		movq	%rax, %rdi
 6467 3080 E8000000 		call	_ZStlsISt11char_traitsIcEERSt13basic_ostreamIcT_ES5_PKc
 6467      00
  36:../ExecuteTest.h **** 	}
 6468              		.loc 4 36 0 is_stmt 1
 6469 3085 488D8510 		leaq	-1520(%rbp), %rax
 6469      FAFFFF
 6470 308c 4889C7   		movq	%rax, %rdi
 6471 308f E8000000 		call	_ZNK8UnitTest15MemoryOutStream7GetTextEv
 6471      00
 6472 3094 4889C3   		movq	%rax, %rbx
 6473 3097 E8000000 		call	_ZN8UnitTest11CurrentTest7ResultsEv
 6473      00
  36:../ExecuteTest.h **** 	}
 6474              		.loc 4 36 0 is_stmt 0 discriminator 2
 6475 309c 488B00   		movq	(%rax), %rax
 6476 309f 488B8DD0 		movq	-1584(%rbp), %rcx
 6476      F9FFFF
 6477 30a6 4889DA   		movq	%rbx, %rdx
 6478 30a9 4889CE   		movq	%rcx, %rsi
 6479 30ac 4889C7   		movq	%rax, %rdi
 6480 30af E8000000 		call	_ZN8UnitTest11TestResults13OnTestFailureERKNS_11TestDetailsEPKc
 6480      00
 6481              	.LEHE195:
  36:../ExecuteTest.h **** 	}
 6482              		.loc 4 36 0 discriminator 6
 6483 30b4 488D8510 		leaq	-1520(%rbp), %rax
 6483      FAFFFF
 6484 30bb 4889C7   		movq	%rax, %rdi
 6485              	.LEHB196:
 6486 30be E8000000 		call	_ZN8UnitTest15MemoryOutStreamD1Ev
 6486      00
 6487              	.LEHE196:
 6488              	.LBE166:
  32:../ExecuteTest.h **** 	{
 6489              		.loc 4 32 0 is_stmt 1
 6490 30c3 E8000000 		call	__cxa_end_catch
 6490      00
 6491              	.LBE168:
 6492              	.LBE170:
 6493              		.loc 4 42 0
 6494 30c8 EB2C     		jmp	.L363
 6495              	.L362:
 6496              	.LBB171:
  38:../ExecuteTest.h **** 	{
 6497              		.loc 4 38 0
 6498 30ca 4889C7   		movq	%rax, %rdi
 6499 30cd E8000000 		call	__cxa_begin_catch
 6499      00
 6500              	.LEHB197:
  40:../ExecuteTest.h **** 	}
 6501              		.loc 4 40 0
 6502 30d2 E8000000 		call	_ZN8UnitTest11CurrentTest7ResultsEv
 6502      00
 6503 30d7 488B00   		movq	(%rax), %rax
 6504 30da 488B8DD0 		movq	-1584(%rbp), %rcx
 6504      F9FFFF
 6505 30e1 BA000000 		movl	$.LC44, %edx
 6505      00
 6506 30e6 4889CE   		movq	%rcx, %rsi
 6507 30e9 4889C7   		movq	%rax, %rdi
 6508 30ec E8000000 		call	_ZN8UnitTest11TestResults13OnTestFailureERKNS_11TestDetailsEPKc
 6508      00
 6509              	.LEHE197:
 6510              	.LEHB198:
  38:../ExecuteTest.h **** 	{
 6511              		.loc 4 38 0
 6512 30f1 E8000000 		call	__cxa_end_catch
 6512      00
 6513              	.LEHE198:
 6514              	.L363:
 6515              	.LBE171:
 6516              		.loc 4 42 0
 6517 30f6 90       		nop
 6518 30f7 488B45E8 		movq	-24(%rbp), %rax
 6519 30fb 64483304 		xorq	%fs:40, %rax
 6519      25280000 
 6519      00
 6520 3104 7405     		je	.L354
 6521 3106 E8000000 		call	__stack_chk_fail
 6521      00
 6522              	.L354:
 6523 310b 4881C420 		addq	$1568, %rsp
 6523      060000
 6524 3112 5B       		popq	%rbx
 6525 3113 415C     		popq	%r12
 6526 3115 5D       		popq	%rbp
 6527              		.cfi_def_cfa 7, 8
 6528 3116 C3       		ret
 6529              		.cfi_endproc
 6530              	.LFE1459:
 6531              		.section	.gcc_except_table
 6532              		.align 4
 6533              	.LLSDA1459:
 6534 0540 FF       		.byte	0xff
 6535 0541 03       		.byte	0x3
 6536 0542 5D       		.uleb128 .LLSDATT1459-.LLSDATTD1459
 6537              	.LLSDATTD1459:
 6538 0543 01       		.byte	0x1
 6539 0544 47       		.uleb128 .LLSDACSE1459-.LLSDACSB1459
 6540              	.LLSDACSB1459:
 6541 0545 2B       		.uleb128 .LEHB186-.LFB1459
 6542 0546 05       		.uleb128 .LEHE186-.LEHB186
 6543 0547 00       		.uleb128 0
 6544 0548 00       		.uleb128 0
 6545 0549 47       		.uleb128 .LEHB187-.LFB1459
 6546 054a 05       		.uleb128 .LEHE187-.LEHB187
 6547 054b CC01     		.uleb128 .L355-.LFB1459
 6548 054d 05       		.uleb128 0x5
 6549 054e 8701     		.uleb128 .LEHB188-.LFB1459
 6550 0550 14       		.uleb128 .LEHE188-.LEHB188
 6551 0551 AF01     		.uleb128 .L356-.LFB1459
 6552 0553 07       		.uleb128 0x7
 6553 0554 A501     		.uleb128 .LEHB189-.LFB1459
 6554 0556 05       		.uleb128 .LEHE189-.LEHB189
 6555 0557 CC01     		.uleb128 .L355-.LFB1459
 6556 0559 05       		.uleb128 0x5
 6557 055a EF01     		.uleb128 .LEHB190-.LFB1459
 6558 055c 05       		.uleb128 .LEHE190-.LEHB190
 6559 055d 00       		.uleb128 0
 6560 055e 00       		.uleb128 0
 6561 055f 9602     		.uleb128 .LEHB191-.LFB1459
 6562 0561 05       		.uleb128 .LEHE191-.LEHB191
 6563 0562 00       		.uleb128 0
 6564 0563 00       		.uleb128 0
 6565 0564 A902     		.uleb128 .LEHB192-.LFB1459
 6566 0566 05       		.uleb128 .LEHE192-.LEHB192
 6567 0567 00       		.uleb128 0
 6568 0568 00       		.uleb128 0
 6569 0569 E702     		.uleb128 .LEHB193-.LFB1459
 6570 056b 5E       		.uleb128 .LEHE193-.LEHB193
 6571 056c E101     		.uleb128 .L357-.LFB1459
 6572 056e 00       		.uleb128 0
 6573 056f E803     		.uleb128 .LEHB194-.LFB1459
 6574 0571 05       		.uleb128 .LEHE194-.LEHB194
 6575 0572 8802     		.uleb128 .L359-.LFB1459
 6576 0574 00       		.uleb128 0
 6577 0575 9C04     		.uleb128 .LEHB195-.LFB1459
 6578 0577 3F       		.uleb128 .LEHE195-.LEHB195
 6579 0578 F401     		.uleb128 .L358-.LFB1459
 6580 057a 00       		.uleb128 0
 6581 057b E504     		.uleb128 .LEHB196-.LFB1459
 6582 057d 05       		.uleb128 .LEHE196-.LEHB196
 6583 057e 8802     		.uleb128 .L359-.LFB1459
 6584 0580 00       		.uleb128 0
 6585 0581 F904     		.uleb128 .LEHB197-.LFB1459
 6586 0583 1F       		.uleb128 .LEHE197-.LEHB197
 6587 0584 9B02     		.uleb128 .L360-.LFB1459
 6588 0586 00       		.uleb128 0
 6589 0587 9805     		.uleb128 .LEHB198-.LFB1459
 6590 0589 05       		.uleb128 .LEHE198-.LEHB198
 6591 058a 00       		.uleb128 0
 6592 058b 00       		.uleb128 0
 6593              	.LLSDACSE1459:
 6594 058c 03       		.byte	0x3
 6595 058d 00       		.byte	0
 6596 058e 02       		.byte	0x2
 6597 058f 7D       		.byte	0x7d
 6598 0590 01       		.byte	0x1
 6599 0591 7D       		.byte	0x7d
 6600 0592 00       		.byte	0
 6601 0593 7D       		.byte	0x7d
 6602              		.align 4
 6603 0594 00000000 		.long	0
 6604              	
 6605 0598 00000000 		.long	_ZTISt9exception
 6606 059c 00000000 		.long	_ZTIN8UnitTest15AssertExceptionE
 6607              	.LLSDATT1459:
 6608              		.text
 6610              		.section	.text._ZN8UnitTest5CheckIbEEbT_,"axG",@progbits,_ZN8UnitTest5CheckIbEEbT_,comdat
 6611              		.weak	_ZN8UnitTest5CheckIbEEbT_
 6613              	_ZN8UnitTest5CheckIbEEbT_:
 6614              	.LFB1461:
  12:../Checks.h   **** {
 6615              		.loc 5 12 0
 6616              		.cfi_startproc
 6617 0000 55       		pushq	%rbp
 6618              		.cfi_def_cfa_offset 16
 6619              		.cfi_offset 6, -16
 6620 0001 4889E5   		movq	%rsp, %rbp
 6621              		.cfi_def_cfa_register 6
 6622 0004 89F8     		movl	%edi, %eax
 6623 0006 8845FC   		movb	%al, -4(%rbp)
  14:../Checks.h   **** }
 6624              		.loc 5 14 0
 6625 0009 0FB645FC 		movzbl	-4(%rbp), %eax
  15:../Checks.h   **** 
 6626              		.loc 5 15 0
 6627 000d 5D       		popq	%rbp
 6628              		.cfi_def_cfa 7, 8
 6629 000e C3       		ret
 6630              		.cfi_endproc
 6631              	.LFE1461:
 6633              		.text
 6635              	_ZN8UnitTest11ExecuteTestIN12_GLOBAL__N_152XmlTestReporterFixtureEmptyReportSummaryFormatHelperEEEv
 6636              	.LFB1462:
  16:../ExecuteTest.h **** {
 6637              		.loc 4 16 0
 6638              		.cfi_startproc
 6639              		.cfi_personality 0x3,__gxx_personality_v0
 6640              		.cfi_lsda 0x3,.LLSDA1462
 6641 3117 55       		pushq	%rbp
 6642              		.cfi_def_cfa_offset 16
 6643              		.cfi_offset 6, -16
 6644 3118 4889E5   		movq	%rsp, %rbp
 6645              		.cfi_def_cfa_register 6
 6646 311b 4154     		pushq	%r12
 6647 311d 53       		pushq	%rbx
 6648 311e 4881EC20 		subq	$1568, %rsp
 6648      060000
 6649              		.cfi_offset 12, -24
 6650              		.cfi_offset 3, -32
 6651 3125 4889BDD8 		movq	%rdi, -1576(%rbp)
 6651      F9FFFF
 6652 312c 4889B5D0 		movq	%rsi, -1584(%rbp)
 6652      F9FFFF
  16:../ExecuteTest.h **** {
 6653              		.loc 4 16 0
 6654 3133 64488B04 		movq	%fs:40, %rax
 6654      25280000 
 6654      00
 6655 313c 488945E8 		movq	%rax, -24(%rbp)
 6656 3140 31C0     		xorl	%eax, %eax
 6657              	.LEHB199:
 6658              	.LBB172:
  18:../ExecuteTest.h **** 
 6659              		.loc 4 18 0
 6660 3142 E8000000 		call	_ZN8UnitTest11CurrentTest7DetailsEv
 6660      00
 6661              	.LEHE199:
 6662 3147 4889C2   		movq	%rax, %rdx
 6663 314a 488B85D0 		movq	-1584(%rbp), %rax
 6663      F9FFFF
 6664 3151 488902   		movq	%rax, (%rdx)
 6665              	.LBB173:
  23:../ExecuteTest.h **** #endif
 6666              		.loc 4 23 0
 6667 3154 488D8580 		leaq	-1152(%rbp), %rax
 6667      FBFFFF
 6668 315b 4889C7   		movq	%rax, %rdi
 6669              	.LEHB200:
 6670 315e E8000000 		call	_ZN8UnitTest16SignalTranslatorC1Ev
 6670      00
 6671              	.LEHE200:
  23:../ExecuteTest.h **** #endif
 6672              		.loc 4 23 0 is_stmt 0 discriminator 1
 6673 3163 488B0500 		movq	_ZN8UnitTest16SignalTranslator12s_jumpTargetE(%rip), %rax
 6673      000000
 6674 316a BE010000 		movl	$1, %esi
 6674      00
 6675 316f 4889C7   		movq	%rax, %rdi
 6676 3172 E8000000 		call	__sigsetjmp
 6676      00
 6677 3177 85C0     		testl	%eax, %eax
 6678 3179 0F95C0   		setne	%al
 6679 317c 84C0     		testb	%al, %al
 6680 317e 7423     		je	.L386
  23:../ExecuteTest.h **** #endif
 6681              		.loc 4 23 0 discriminator 3
 6682 3180 BF080000 		movl	$8, %edi
 6682      00
 6683 3185 E8000000 		call	__cxa_allocate_exception
 6683      00
 6684 318a 48C70000 		movq	$.LC43, (%rax)
 6684      000000
 6685 3191 BA000000 		movl	$0, %edx
 6685      00
 6686 3196 BE000000 		movl	$_ZTIPKc, %esi
 6686      00
 6687 319b 4889C7   		movq	%rax, %rdi
 6688              	.LEHB201:
 6689 319e E8000000 		call	__cxa_throw
 6689      00
 6690              	.L386:
  25:../ExecuteTest.h **** 	}
 6691              		.loc 4 25 0 is_stmt 1
 6692 31a3 488B85D8 		movq	-1576(%rbp), %rax
 6692      F9FFFF
 6693 31aa 4889C7   		movq	%rax, %rdi
 6694 31ad E814DEFF 		call	_ZN12_GLOBAL__N_152XmlTestReporterFixtureEmptyReportSummaryFormatHelper7RunImplEv
 6694      FF
 6695              	.LEHE201:
  25:../ExecuteTest.h **** 	}
 6696              		.loc 4 25 0 is_stmt 0 discriminator 2
 6697 31b2 488D8580 		leaq	-1152(%rbp), %rax
 6697      FBFFFF
 6698 31b9 4889C7   		movq	%rax, %rdi
 6699              	.LEHB202:
 6700 31bc E8000000 		call	_ZN8UnitTest16SignalTranslatorD1Ev
 6700      00
 6701              	.LEHE202:
 6702              	.LBE173:
 6703              	.LBE172:
 6704              		.loc 4 42 0 is_stmt 1
 6705 31c1 E9EE0100 		jmp	.L388
 6705      00
 6706              	.L381:
 6707 31c6 4989C4   		movq	%rax, %r12
 6708 31c9 4889D3   		movq	%rdx, %rbx
 6709              	.LBB181:
 6710              	.LBB174:
  25:../ExecuteTest.h **** 	}
 6711              		.loc 4 25 0
 6712 31cc 488D8580 		leaq	-1152(%rbp), %rax
 6712      FBFFFF
 6713 31d3 4889C7   		movq	%rax, %rdi
 6714 31d6 E8000000 		call	_ZN8UnitTest16SignalTranslatorD1Ev
 6714      00
 6715 31db 4C89E0   		movq	%r12, %rax
 6716 31de 4889DA   		movq	%rbx, %rdx
 6717 31e1 EB00     		jmp	.L370
 6718              	.L380:
 6719              	.L370:
 6720 31e3 4883FA01 		cmpq	$1, %rdx
 6721 31e7 745C     		je	.L372
 6722 31e9 4883FA02 		cmpq	$2, %rdx
 6723 31ed 0F84F300 		je	.L373
 6723      0000
 6724 31f3 E9900100 		jmp	.L387
 6724      00
 6725              	.L382:
 6726 31f8 4889C3   		movq	%rax, %rbx
 6727              	.LBE174:
 6728              	.LBB175:
  27:../ExecuteTest.h **** 	{
 6729              		.loc 4 27 0
 6730 31fb E8000000 		call	__cxa_end_catch
 6730      00
 6731 3200 4889D8   		movq	%rbx, %rax
 6732 3203 4889C7   		movq	%rax, %rdi
 6733              	.LEHB203:
 6734 3206 E8000000 		call	_Unwind_Resume
 6734      00
 6735              	.LEHE203:
 6736              	.L383:
 6737 320b 4889C3   		movq	%rax, %rbx
 6738              	.LBE175:
 6739              	.LBB176:
 6740              	.LBB177:
  36:../ExecuteTest.h **** 	}
 6741              		.loc 4 36 0
 6742 320e 488D8510 		leaq	-1520(%rbp), %rax
 6742      FAFFFF
 6743 3215 4889C7   		movq	%rax, %rdi
 6744 3218 E8000000 		call	_ZN8UnitTest15MemoryOutStreamD1Ev
 6744      00
 6745 321d EB03     		jmp	.L376
 6746              	.L384:
 6747 321f 4889C3   		movq	%rax, %rbx
 6748              	.L376:
 6749              	.LBE177:
  32:../ExecuteTest.h **** 	{
 6750              		.loc 4 32 0
 6751 3222 E8000000 		call	__cxa_end_catch
 6751      00
 6752 3227 4889D8   		movq	%rbx, %rax
 6753 322a 4889C7   		movq	%rax, %rdi
 6754              	.LEHB204:
 6755 322d E8000000 		call	_Unwind_Resume
 6755      00
 6756              	.LEHE204:
 6757              	.L385:
 6758 3232 4889C3   		movq	%rax, %rbx
 6759              	.LBE176:
  38:../ExecuteTest.h **** 	{
 6760              		.loc 4 38 0
 6761 3235 E8000000 		call	__cxa_end_catch
 6761      00
 6762 323a 4889D8   		movq	%rbx, %rax
 6763 323d 4889C7   		movq	%rax, %rdi
 6764              	.LEHB205:
 6765 3240 E8000000 		call	_Unwind_Resume
 6765      00
 6766              	.LEHE205:
 6767              	.L372:
 6768              	.LBB179:
  27:../ExecuteTest.h **** 	{
 6769              		.loc 4 27 0
 6770 3245 4889C7   		movq	%rax, %rdi
 6771 3248 E8000000 		call	__cxa_begin_catch
 6771      00
 6772 324d 488985E0 		movq	%rax, -1568(%rbp)
 6772      F9FFFF
  30:../ExecuteTest.h **** 	}
 6773              		.loc 4 30 0
 6774 3254 488B85E0 		movq	-1568(%rbp), %rax
 6774      F9FFFF
 6775 325b 488B00   		movq	(%rax), %rax
 6776 325e 4883C010 		addq	$16, %rax
 6777 3262 488B00   		movq	(%rax), %rax
 6778 3265 488B95E0 		movq	-1568(%rbp), %rdx
 6778      F9FFFF
 6779 326c 4889D7   		movq	%rdx, %rdi
 6780 326f FFD0     		call	*%rax
 6781 3271 4889C3   		movq	%rax, %rbx
 6782 3274 488B85E0 		movq	-1568(%rbp), %rax
 6782      F9FFFF
 6783 327b 4889C7   		movq	%rax, %rdi
 6784              	.LEHB206:
 6785 327e E8000000 		call	_ZNK8UnitTest15AssertException10LineNumberEv
 6785      00
  30:../ExecuteTest.h **** 	}
 6786              		.loc 4 30 0 is_stmt 0 discriminator 1
 6787 3283 4189C4   		movl	%eax, %r12d
 6788 3286 488B85E0 		movq	-1568(%rbp), %rax
 6788      F9FFFF
 6789 328d 4889C7   		movq	%rax, %rdi
 6790 3290 E8000000 		call	_ZNK8UnitTest15AssertException8FilenameEv
 6790      00
  30:../ExecuteTest.h **** 	}
 6791              		.loc 4 30 0 discriminator 2
 6792 3295 4889C1   		movq	%rax, %rcx
 6793 3298 488B85D0 		movq	-1584(%rbp), %rax
 6793      F9FFFF
 6794 329f 488B10   		movq	(%rax), %rdx
 6795 32a2 488B85D0 		movq	-1584(%rbp), %rax
 6795      F9FFFF
 6796 32a9 488B7008 		movq	8(%rax), %rsi
 6797 32ad 488D85F0 		leaq	-1552(%rbp), %rax
 6797      F9FFFF
 6798 32b4 4589E0   		movl	%r12d, %r8d
 6799 32b7 4889C7   		movq	%rax, %rdi
 6800 32ba E8000000 		call	_ZN8UnitTest11TestDetailsC1EPKcS2_S2_i
 6800      00
  29:../ExecuteTest.h **** 			TestDetails(details.testName, details.suiteName, e.Filename(), e.LineNumber()), e.what());
 6801              		.loc 4 29 0 is_stmt 1
 6802 32bf E8000000 		call	_ZN8UnitTest11CurrentTest7ResultsEv
 6802      00
  30:../ExecuteTest.h **** 	}
 6803              		.loc 4 30 0
 6804 32c4 488B00   		movq	(%rax), %rax
  29:../ExecuteTest.h **** 			TestDetails(details.testName, details.suiteName, e.Filename(), e.LineNumber()), e.what());
 6805              		.loc 4 29 0
 6806 32c7 488D8DF0 		leaq	-1552(%rbp), %rcx
 6806      F9FFFF
 6807 32ce 4889DA   		movq	%rbx, %rdx
 6808 32d1 4889CE   		movq	%rcx, %rsi
 6809 32d4 4889C7   		movq	%rax, %rdi
 6810 32d7 E8000000 		call	_ZN8UnitTest11TestResults13OnTestFailureERKNS_11TestDetailsEPKc
 6810      00
 6811              	.LEHE206:
  27:../ExecuteTest.h **** 	{
 6812              		.loc 4 27 0
 6813 32dc E8000000 		call	__cxa_end_catch
 6813      00
 6814              	.LBE179:
 6815              	.LBE181:
 6816              		.loc 4 42 0
 6817 32e1 E9CE0000 		jmp	.L388
 6817      00
 6818              	.L373:
 6819              	.LBB182:
 6820              	.LBB180:
  32:../ExecuteTest.h **** 	{
 6821              		.loc 4 32 0
 6822 32e6 4889C7   		movq	%rax, %rdi
 6823 32e9 E8000000 		call	__cxa_begin_catch
 6823      00
 6824 32ee 488985E8 		movq	%rax, -1560(%rbp)
 6824      F9FFFF
 6825              	.LBB178:
  34:../ExecuteTest.h **** 		stream << "Unhandled exception: " << e.what();
 6826              		.loc 4 34 0
 6827 32f5 488D8510 		leaq	-1520(%rbp), %rax
 6827      FAFFFF
 6828 32fc 4889C7   		movq	%rax, %rdi
 6829              	.LEHB207:
 6830 32ff E8000000 		call	_ZN8UnitTest15MemoryOutStreamC1Ev
 6830      00
 6831              	.LEHE207:
  35:../ExecuteTest.h **** 		CurrentTest::Results()->OnTestFailure(details, stream.GetText());
 6832              		.loc 4 35 0
 6833 3304 488B85E8 		movq	-1560(%rbp), %rax
 6833      F9FFFF
 6834 330b 488B00   		movq	(%rax), %rax
 6835 330e 4883C010 		addq	$16, %rax
 6836 3312 488B00   		movq	(%rax), %rax
 6837 3315 488B95E8 		movq	-1560(%rbp), %rdx
 6837      F9FFFF
 6838 331c 4889D7   		movq	%rdx, %rdi
 6839 331f FFD0     		call	*%rax
 6840 3321 4889C3   		movq	%rax, %rbx
 6841 3324 488D8510 		leaq	-1520(%rbp), %rax
 6841      FAFFFF
 6842 332b BE000000 		movl	$.LC3, %esi
 6842      00
 6843 3330 4889C7   		movq	%rax, %rdi
 6844              	.LEHB208:
 6845 3333 E8000000 		call	_ZStlsISt11char_traitsIcEERSt13basic_ostreamIcT_ES5_PKc
 6845      00
  35:../ExecuteTest.h **** 		CurrentTest::Results()->OnTestFailure(details, stream.GetText());
 6846              		.loc 4 35 0 is_stmt 0 discriminator 1
 6847 3338 4889DE   		movq	%rbx, %rsi
 6848 333b 4889C7   		movq	%rax, %rdi
 6849 333e E8000000 		call	_ZStlsISt11char_traitsIcEERSt13basic_ostreamIcT_ES5_PKc
 6849      00
  36:../ExecuteTest.h **** 	}
 6850              		.loc 4 36 0 is_stmt 1
 6851 3343 488D8510 		leaq	-1520(%rbp), %rax
 6851      FAFFFF
 6852 334a 4889C7   		movq	%rax, %rdi
 6853 334d E8000000 		call	_ZNK8UnitTest15MemoryOutStream7GetTextEv
 6853      00
 6854 3352 4889C3   		movq	%rax, %rbx
 6855 3355 E8000000 		call	_ZN8UnitTest11CurrentTest7ResultsEv
 6855      00
  36:../ExecuteTest.h **** 	}
 6856              		.loc 4 36 0 is_stmt 0 discriminator 2
 6857 335a 488B00   		movq	(%rax), %rax
 6858 335d 488B8DD0 		movq	-1584(%rbp), %rcx
 6858      F9FFFF
 6859 3364 4889DA   		movq	%rbx, %rdx
 6860 3367 4889CE   		movq	%rcx, %rsi
 6861 336a 4889C7   		movq	%rax, %rdi
 6862 336d E8000000 		call	_ZN8UnitTest11TestResults13OnTestFailureERKNS_11TestDetailsEPKc
 6862      00
 6863              	.LEHE208:
  36:../ExecuteTest.h **** 	}
 6864              		.loc 4 36 0 discriminator 6
 6865 3372 488D8510 		leaq	-1520(%rbp), %rax
 6865      FAFFFF
 6866 3379 4889C7   		movq	%rax, %rdi
 6867              	.LEHB209:
 6868 337c E8000000 		call	_ZN8UnitTest15MemoryOutStreamD1Ev
 6868      00
 6869              	.LEHE209:
 6870              	.LBE178:
  32:../ExecuteTest.h **** 	{
 6871              		.loc 4 32 0 is_stmt 1
 6872 3381 E8000000 		call	__cxa_end_catch
 6872      00
 6873              	.LBE180:
 6874              	.LBE182:
 6875              		.loc 4 42 0
 6876 3386 EB2C     		jmp	.L388
 6877              	.L387:
 6878              	.LBB183:
  38:../ExecuteTest.h **** 	{
 6879              		.loc 4 38 0
 6880 3388 4889C7   		movq	%rax, %rdi
 6881 338b E8000000 		call	__cxa_begin_catch
 6881      00
 6882              	.LEHB210:
  40:../ExecuteTest.h **** 	}
 6883              		.loc 4 40 0
 6884 3390 E8000000 		call	_ZN8UnitTest11CurrentTest7ResultsEv
 6884      00
 6885 3395 488B00   		movq	(%rax), %rax
 6886 3398 488B8DD0 		movq	-1584(%rbp), %rcx
 6886      F9FFFF
 6887 339f BA000000 		movl	$.LC44, %edx
 6887      00
 6888 33a4 4889CE   		movq	%rcx, %rsi
 6889 33a7 4889C7   		movq	%rax, %rdi
 6890 33aa E8000000 		call	_ZN8UnitTest11TestResults13OnTestFailureERKNS_11TestDetailsEPKc
 6890      00
 6891              	.LEHE210:
 6892              	.LEHB211:
  38:../ExecuteTest.h **** 	{
 6893              		.loc 4 38 0
 6894 33af E8000000 		call	__cxa_end_catch
 6894      00
 6895              	.LEHE211:
 6896              	.L388:
 6897              	.LBE183:
 6898              		.loc 4 42 0
 6899 33b4 90       		nop
 6900 33b5 488B45E8 		movq	-24(%rbp), %rax
 6901 33b9 64483304 		xorq	%fs:40, %rax
 6901      25280000 
 6901      00
 6902 33c2 7405     		je	.L379
 6903 33c4 E8000000 		call	__stack_chk_fail
 6903      00
 6904              	.L379:
 6905 33c9 4881C420 		addq	$1568, %rsp
 6905      060000
 6906 33d0 5B       		popq	%rbx
 6907 33d1 415C     		popq	%r12
 6908 33d3 5D       		popq	%rbp
 6909              		.cfi_def_cfa 7, 8
 6910 33d4 C3       		ret
 6911              		.cfi_endproc
 6912              	.LFE1462:
 6913              		.section	.gcc_except_table
 6914              		.align 4
 6915              	.LLSDA1462:
 6916 05a0 FF       		.byte	0xff
 6917 05a1 03       		.byte	0x3
 6918 05a2 5D       		.uleb128 .LLSDATT1462-.LLSDATTD1462
 6919              	.LLSDATTD1462:
 6920 05a3 01       		.byte	0x1
 6921 05a4 47       		.uleb128 .LLSDACSE1462-.LLSDACSB1462
 6922              	.LLSDACSB1462:
 6923 05a5 2B       		.uleb128 .LEHB199-.LFB1462
 6924 05a6 05       		.uleb128 .LEHE199-.LEHB199
 6925 05a7 00       		.uleb128 0
 6926 05a8 00       		.uleb128 0
 6927 05a9 47       		.uleb128 .LEHB200-.LFB1462
 6928 05aa 05       		.uleb128 .LEHE200-.LEHB200
 6929 05ab CC01     		.uleb128 .L380-.LFB1462
 6930 05ad 05       		.uleb128 0x5
 6931 05ae 8701     		.uleb128 .LEHB201-.LFB1462
 6932 05b0 14       		.uleb128 .LEHE201-.LEHB201
 6933 05b1 AF01     		.uleb128 .L381-.LFB1462
 6934 05b3 07       		.uleb128 0x7
 6935 05b4 A501     		.uleb128 .LEHB202-.LFB1462
 6936 05b6 05       		.uleb128 .LEHE202-.LEHB202
 6937 05b7 CC01     		.uleb128 .L380-.LFB1462
 6938 05b9 05       		.uleb128 0x5
 6939 05ba EF01     		.uleb128 .LEHB203-.LFB1462
 6940 05bc 05       		.uleb128 .LEHE203-.LEHB203
 6941 05bd 00       		.uleb128 0
 6942 05be 00       		.uleb128 0
 6943 05bf 9602     		.uleb128 .LEHB204-.LFB1462
 6944 05c1 05       		.uleb128 .LEHE204-.LEHB204
 6945 05c2 00       		.uleb128 0
 6946 05c3 00       		.uleb128 0
 6947 05c4 A902     		.uleb128 .LEHB205-.LFB1462
 6948 05c6 05       		.uleb128 .LEHE205-.LEHB205
 6949 05c7 00       		.uleb128 0
 6950 05c8 00       		.uleb128 0
 6951 05c9 E702     		.uleb128 .LEHB206-.LFB1462
 6952 05cb 5E       		.uleb128 .LEHE206-.LEHB206
 6953 05cc E101     		.uleb128 .L382-.LFB1462
 6954 05ce 00       		.uleb128 0
 6955 05cf E803     		.uleb128 .LEHB207-.LFB1462
 6956 05d1 05       		.uleb128 .LEHE207-.LEHB207
 6957 05d2 8802     		.uleb128 .L384-.LFB1462
 6958 05d4 00       		.uleb128 0
 6959 05d5 9C04     		.uleb128 .LEHB208-.LFB1462
 6960 05d7 3F       		.uleb128 .LEHE208-.LEHB208
 6961 05d8 F401     		.uleb128 .L383-.LFB1462
 6962 05da 00       		.uleb128 0
 6963 05db E504     		.uleb128 .LEHB209-.LFB1462
 6964 05dd 05       		.uleb128 .LEHE209-.LEHB209
 6965 05de 8802     		.uleb128 .L384-.LFB1462
 6966 05e0 00       		.uleb128 0
 6967 05e1 F904     		.uleb128 .LEHB210-.LFB1462
 6968 05e3 1F       		.uleb128 .LEHE210-.LEHB210
 6969 05e4 9B02     		.uleb128 .L385-.LFB1462
 6970 05e6 00       		.uleb128 0
 6971 05e7 9805     		.uleb128 .LEHB211-.LFB1462
 6972 05e9 05       		.uleb128 .LEHE211-.LEHB211
 6973 05ea 00       		.uleb128 0
 6974 05eb 00       		.uleb128 0
 6975              	.LLSDACSE1462:
 6976 05ec 03       		.byte	0x3
 6977 05ed 00       		.byte	0
 6978 05ee 02       		.byte	0x2
 6979 05ef 7D       		.byte	0x7d
 6980 05f0 01       		.byte	0x1
 6981 05f1 7D       		.byte	0x7d
 6982 05f2 00       		.byte	0
 6983 05f3 7D       		.byte	0x7d
 6984              		.align 4
 6985 05f4 00000000 		.long	0
 6986              	
 6987 05f8 00000000 		.long	_ZTISt9exception
 6988 05fc 00000000 		.long	_ZTIN8UnitTest15AssertExceptionE
 6989              	.LLSDATT1462:
 6990              		.text
 6993              	_ZN8UnitTest11ExecuteTestIN12_GLOBAL__N_167XmlTestReporterFixtureSingleSuccessfulTestReportSummaryF
 6994              	.LFB1463:
  16:../ExecuteTest.h **** {
 6995              		.loc 4 16 0
 6996              		.cfi_startproc
 6997              		.cfi_personality 0x3,__gxx_personality_v0
 6998              		.cfi_lsda 0x3,.LLSDA1463
 6999 33d5 55       		pushq	%rbp
 7000              		.cfi_def_cfa_offset 16
 7001              		.cfi_offset 6, -16
 7002 33d6 4889E5   		movq	%rsp, %rbp
 7003              		.cfi_def_cfa_register 6
 7004 33d9 4154     		pushq	%r12
 7005 33db 53       		pushq	%rbx
 7006 33dc 4881EC20 		subq	$1568, %rsp
 7006      060000
 7007              		.cfi_offset 12, -24
 7008              		.cfi_offset 3, -32
 7009 33e3 4889BDD8 		movq	%rdi, -1576(%rbp)
 7009      F9FFFF
 7010 33ea 4889B5D0 		movq	%rsi, -1584(%rbp)
 7010      F9FFFF
  16:../ExecuteTest.h **** {
 7011              		.loc 4 16 0
 7012 33f1 64488B04 		movq	%fs:40, %rax
 7012      25280000 
 7012      00
 7013 33fa 488945E8 		movq	%rax, -24(%rbp)
 7014 33fe 31C0     		xorl	%eax, %eax
 7015              	.LEHB212:
 7016              	.LBB184:
  18:../ExecuteTest.h **** 
 7017              		.loc 4 18 0
 7018 3400 E8000000 		call	_ZN8UnitTest11CurrentTest7DetailsEv
 7018      00
 7019              	.LEHE212:
 7020 3405 4889C2   		movq	%rax, %rdx
 7021 3408 488B85D0 		movq	-1584(%rbp), %rax
 7021      F9FFFF
 7022 340f 488902   		movq	%rax, (%rdx)
 7023              	.LBB185:
  23:../ExecuteTest.h **** #endif
 7024              		.loc 4 23 0
 7025 3412 488D8580 		leaq	-1152(%rbp), %rax
 7025      FBFFFF
 7026 3419 4889C7   		movq	%rax, %rdi
 7027              	.LEHB213:
 7028 341c E8000000 		call	_ZN8UnitTest16SignalTranslatorC1Ev
 7028      00
 7029              	.LEHE213:
  23:../ExecuteTest.h **** #endif
 7030              		.loc 4 23 0 is_stmt 0 discriminator 1
 7031 3421 488B0500 		movq	_ZN8UnitTest16SignalTranslator12s_jumpTargetE(%rip), %rax
 7031      000000
 7032 3428 BE010000 		movl	$1, %esi
 7032      00
 7033 342d 4889C7   		movq	%rax, %rdi
 7034 3430 E8000000 		call	__sigsetjmp
 7034      00
 7035 3435 85C0     		testl	%eax, %eax
 7036 3437 0F95C0   		setne	%al
 7037 343a 84C0     		testb	%al, %al
 7038 343c 7423     		je	.L409
  23:../ExecuteTest.h **** #endif
 7039              		.loc 4 23 0 discriminator 3
 7040 343e BF080000 		movl	$8, %edi
 7040      00
 7041 3443 E8000000 		call	__cxa_allocate_exception
 7041      00
 7042 3448 48C70000 		movq	$.LC43, (%rax)
 7042      000000
 7043 344f BA000000 		movl	$0, %edx
 7043      00
 7044 3454 BE000000 		movl	$_ZTIPKc, %esi
 7044      00
 7045 3459 4889C7   		movq	%rax, %rdi
 7046              	.LEHB214:
 7047 345c E8000000 		call	__cxa_throw
 7047      00
 7048              	.L409:
  25:../ExecuteTest.h **** 	}
 7049              		.loc 4 25 0 is_stmt 1
 7050 3461 488B85D8 		movq	-1576(%rbp), %rax
 7050      F9FFFF
 7051 3468 4889C7   		movq	%rax, %rdi
 7052 346b E810E0FF 		call	_ZN12_GLOBAL__N_167XmlTestReporterFixtureSingleSuccessfulTestReportSummaryFormatHelper7RunImp
 7052      FF
 7053              	.LEHE214:
  25:../ExecuteTest.h **** 	}
 7054              		.loc 4 25 0 is_stmt 0 discriminator 2
 7055 3470 488D8580 		leaq	-1152(%rbp), %rax
 7055      FBFFFF
 7056 3477 4889C7   		movq	%rax, %rdi
 7057              	.LEHB215:
 7058 347a E8000000 		call	_ZN8UnitTest16SignalTranslatorD1Ev
 7058      00
 7059              	.LEHE215:
 7060              	.LBE185:
 7061              	.LBE184:
 7062              		.loc 4 42 0 is_stmt 1
 7063 347f E9EE0100 		jmp	.L411
 7063      00
 7064              	.L404:
 7065 3484 4989C4   		movq	%rax, %r12
 7066 3487 4889D3   		movq	%rdx, %rbx
 7067              	.LBB193:
 7068              	.LBB186:
  25:../ExecuteTest.h **** 	}
 7069              		.loc 4 25 0
 7070 348a 488D8580 		leaq	-1152(%rbp), %rax
 7070      FBFFFF
 7071 3491 4889C7   		movq	%rax, %rdi
 7072 3494 E8000000 		call	_ZN8UnitTest16SignalTranslatorD1Ev
 7072      00
 7073 3499 4C89E0   		movq	%r12, %rax
 7074 349c 4889DA   		movq	%rbx, %rdx
 7075 349f EB00     		jmp	.L393
 7076              	.L403:
 7077              	.L393:
 7078 34a1 4883FA01 		cmpq	$1, %rdx
 7079 34a5 745C     		je	.L395
 7080 34a7 4883FA02 		cmpq	$2, %rdx
 7081 34ab 0F84F300 		je	.L396
 7081      0000
 7082 34b1 E9900100 		jmp	.L410
 7082      00
 7083              	.L405:
 7084 34b6 4889C3   		movq	%rax, %rbx
 7085              	.LBE186:
 7086              	.LBB187:
  27:../ExecuteTest.h **** 	{
 7087              		.loc 4 27 0
 7088 34b9 E8000000 		call	__cxa_end_catch
 7088      00
 7089 34be 4889D8   		movq	%rbx, %rax
 7090 34c1 4889C7   		movq	%rax, %rdi
 7091              	.LEHB216:
 7092 34c4 E8000000 		call	_Unwind_Resume
 7092      00
 7093              	.LEHE216:
 7094              	.L406:
 7095 34c9 4889C3   		movq	%rax, %rbx
 7096              	.LBE187:
 7097              	.LBB188:
 7098              	.LBB189:
  36:../ExecuteTest.h **** 	}
 7099              		.loc 4 36 0
 7100 34cc 488D8510 		leaq	-1520(%rbp), %rax
 7100      FAFFFF
 7101 34d3 4889C7   		movq	%rax, %rdi
 7102 34d6 E8000000 		call	_ZN8UnitTest15MemoryOutStreamD1Ev
 7102      00
 7103 34db EB03     		jmp	.L399
 7104              	.L407:
 7105 34dd 4889C3   		movq	%rax, %rbx
 7106              	.L399:
 7107              	.LBE189:
  32:../ExecuteTest.h **** 	{
 7108              		.loc 4 32 0
 7109 34e0 E8000000 		call	__cxa_end_catch
 7109      00
 7110 34e5 4889D8   		movq	%rbx, %rax
 7111 34e8 4889C7   		movq	%rax, %rdi
 7112              	.LEHB217:
 7113 34eb E8000000 		call	_Unwind_Resume
 7113      00
 7114              	.LEHE217:
 7115              	.L408:
 7116 34f0 4889C3   		movq	%rax, %rbx
 7117              	.LBE188:
  38:../ExecuteTest.h **** 	{
 7118              		.loc 4 38 0
 7119 34f3 E8000000 		call	__cxa_end_catch
 7119      00
 7120 34f8 4889D8   		movq	%rbx, %rax
 7121 34fb 4889C7   		movq	%rax, %rdi
 7122              	.LEHB218:
 7123 34fe E8000000 		call	_Unwind_Resume
 7123      00
 7124              	.LEHE218:
 7125              	.L395:
 7126              	.LBB191:
  27:../ExecuteTest.h **** 	{
 7127              		.loc 4 27 0
 7128 3503 4889C7   		movq	%rax, %rdi
 7129 3506 E8000000 		call	__cxa_begin_catch
 7129      00
 7130 350b 488985E0 		movq	%rax, -1568(%rbp)
 7130      F9FFFF
  30:../ExecuteTest.h **** 	}
 7131              		.loc 4 30 0
 7132 3512 488B85E0 		movq	-1568(%rbp), %rax
 7132      F9FFFF
 7133 3519 488B00   		movq	(%rax), %rax
 7134 351c 4883C010 		addq	$16, %rax
 7135 3520 488B00   		movq	(%rax), %rax
 7136 3523 488B95E0 		movq	-1568(%rbp), %rdx
 7136      F9FFFF
 7137 352a 4889D7   		movq	%rdx, %rdi
 7138 352d FFD0     		call	*%rax
 7139 352f 4889C3   		movq	%rax, %rbx
 7140 3532 488B85E0 		movq	-1568(%rbp), %rax
 7140      F9FFFF
 7141 3539 4889C7   		movq	%rax, %rdi
 7142              	.LEHB219:
 7143 353c E8000000 		call	_ZNK8UnitTest15AssertException10LineNumberEv
 7143      00
  30:../ExecuteTest.h **** 	}
 7144              		.loc 4 30 0 is_stmt 0 discriminator 1
 7145 3541 4189C4   		movl	%eax, %r12d
 7146 3544 488B85E0 		movq	-1568(%rbp), %rax
 7146      F9FFFF
 7147 354b 4889C7   		movq	%rax, %rdi
 7148 354e E8000000 		call	_ZNK8UnitTest15AssertException8FilenameEv
 7148      00
  30:../ExecuteTest.h **** 	}
 7149              		.loc 4 30 0 discriminator 2
 7150 3553 4889C1   		movq	%rax, %rcx
 7151 3556 488B85D0 		movq	-1584(%rbp), %rax
 7151      F9FFFF
 7152 355d 488B10   		movq	(%rax), %rdx
 7153 3560 488B85D0 		movq	-1584(%rbp), %rax
 7153      F9FFFF
 7154 3567 488B7008 		movq	8(%rax), %rsi
 7155 356b 488D85F0 		leaq	-1552(%rbp), %rax
 7155      F9FFFF
 7156 3572 4589E0   		movl	%r12d, %r8d
 7157 3575 4889C7   		movq	%rax, %rdi
 7158 3578 E8000000 		call	_ZN8UnitTest11TestDetailsC1EPKcS2_S2_i
 7158      00
  29:../ExecuteTest.h **** 			TestDetails(details.testName, details.suiteName, e.Filename(), e.LineNumber()), e.what());
 7159              		.loc 4 29 0 is_stmt 1
 7160 357d E8000000 		call	_ZN8UnitTest11CurrentTest7ResultsEv
 7160      00
  30:../ExecuteTest.h **** 	}
 7161              		.loc 4 30 0
 7162 3582 488B00   		movq	(%rax), %rax
  29:../ExecuteTest.h **** 			TestDetails(details.testName, details.suiteName, e.Filename(), e.LineNumber()), e.what());
 7163              		.loc 4 29 0
 7164 3585 488D8DF0 		leaq	-1552(%rbp), %rcx
 7164      F9FFFF
 7165 358c 4889DA   		movq	%rbx, %rdx
 7166 358f 4889CE   		movq	%rcx, %rsi
 7167 3592 4889C7   		movq	%rax, %rdi
 7168 3595 E8000000 		call	_ZN8UnitTest11TestResults13OnTestFailureERKNS_11TestDetailsEPKc
 7168      00
 7169              	.LEHE219:
  27:../ExecuteTest.h **** 	{
 7170              		.loc 4 27 0
 7171 359a E8000000 		call	__cxa_end_catch
 7171      00
 7172              	.LBE191:
 7173              	.LBE193:
 7174              		.loc 4 42 0
 7175 359f E9CE0000 		jmp	.L411
 7175      00
 7176              	.L396:
 7177              	.LBB194:
 7178              	.LBB192:
  32:../ExecuteTest.h **** 	{
 7179              		.loc 4 32 0
 7180 35a4 4889C7   		movq	%rax, %rdi
 7181 35a7 E8000000 		call	__cxa_begin_catch
 7181      00
 7182 35ac 488985E8 		movq	%rax, -1560(%rbp)
 7182      F9FFFF
 7183              	.LBB190:
  34:../ExecuteTest.h **** 		stream << "Unhandled exception: " << e.what();
 7184              		.loc 4 34 0
 7185 35b3 488D8510 		leaq	-1520(%rbp), %rax
 7185      FAFFFF
 7186 35ba 4889C7   		movq	%rax, %rdi
 7187              	.LEHB220:
 7188 35bd E8000000 		call	_ZN8UnitTest15MemoryOutStreamC1Ev
 7188      00
 7189              	.LEHE220:
  35:../ExecuteTest.h **** 		CurrentTest::Results()->OnTestFailure(details, stream.GetText());
 7190              		.loc 4 35 0
 7191 35c2 488B85E8 		movq	-1560(%rbp), %rax
 7191      F9FFFF
 7192 35c9 488B00   		movq	(%rax), %rax
 7193 35cc 4883C010 		addq	$16, %rax
 7194 35d0 488B00   		movq	(%rax), %rax
 7195 35d3 488B95E8 		movq	-1560(%rbp), %rdx
 7195      F9FFFF
 7196 35da 4889D7   		movq	%rdx, %rdi
 7197 35dd FFD0     		call	*%rax
 7198 35df 4889C3   		movq	%rax, %rbx
 7199 35e2 488D8510 		leaq	-1520(%rbp), %rax
 7199      FAFFFF
 7200 35e9 BE000000 		movl	$.LC3, %esi
 7200      00
 7201 35ee 4889C7   		movq	%rax, %rdi
 7202              	.LEHB221:
 7203 35f1 E8000000 		call	_ZStlsISt11char_traitsIcEERSt13basic_ostreamIcT_ES5_PKc
 7203      00
  35:../ExecuteTest.h **** 		CurrentTest::Results()->OnTestFailure(details, stream.GetText());
 7204              		.loc 4 35 0 is_stmt 0 discriminator 1
 7205 35f6 4889DE   		movq	%rbx, %rsi
 7206 35f9 4889C7   		movq	%rax, %rdi
 7207 35fc E8000000 		call	_ZStlsISt11char_traitsIcEERSt13basic_ostreamIcT_ES5_PKc
 7207      00
  36:../ExecuteTest.h **** 	}
 7208              		.loc 4 36 0 is_stmt 1
 7209 3601 488D8510 		leaq	-1520(%rbp), %rax
 7209      FAFFFF
 7210 3608 4889C7   		movq	%rax, %rdi
 7211 360b E8000000 		call	_ZNK8UnitTest15MemoryOutStream7GetTextEv
 7211      00
 7212 3610 4889C3   		movq	%rax, %rbx
 7213 3613 E8000000 		call	_ZN8UnitTest11CurrentTest7ResultsEv
 7213      00
  36:../ExecuteTest.h **** 	}
 7214              		.loc 4 36 0 is_stmt 0 discriminator 2
 7215 3618 488B00   		movq	(%rax), %rax
 7216 361b 488B8DD0 		movq	-1584(%rbp), %rcx
 7216      F9FFFF
 7217 3622 4889DA   		movq	%rbx, %rdx
 7218 3625 4889CE   		movq	%rcx, %rsi
 7219 3628 4889C7   		movq	%rax, %rdi
 7220 362b E8000000 		call	_ZN8UnitTest11TestResults13OnTestFailureERKNS_11TestDetailsEPKc
 7220      00
 7221              	.LEHE221:
  36:../ExecuteTest.h **** 	}
 7222              		.loc 4 36 0 discriminator 6
 7223 3630 488D8510 		leaq	-1520(%rbp), %rax
 7223      FAFFFF
 7224 3637 4889C7   		movq	%rax, %rdi
 7225              	.LEHB222:
 7226 363a E8000000 		call	_ZN8UnitTest15MemoryOutStreamD1Ev
 7226      00
 7227              	.LEHE222:
 7228              	.LBE190:
  32:../ExecuteTest.h **** 	{
 7229              		.loc 4 32 0 is_stmt 1
 7230 363f E8000000 		call	__cxa_end_catch
 7230      00
 7231              	.LBE192:
 7232              	.LBE194:
 7233              		.loc 4 42 0
 7234 3644 EB2C     		jmp	.L411
 7235              	.L410:
 7236              	.LBB195:
  38:../ExecuteTest.h **** 	{
 7237              		.loc 4 38 0
 7238 3646 4889C7   		movq	%rax, %rdi
 7239 3649 E8000000 		call	__cxa_begin_catch
 7239      00
 7240              	.LEHB223:
  40:../ExecuteTest.h **** 	}
 7241              		.loc 4 40 0
 7242 364e E8000000 		call	_ZN8UnitTest11CurrentTest7ResultsEv
 7242      00
 7243 3653 488B00   		movq	(%rax), %rax
 7244 3656 488B8DD0 		movq	-1584(%rbp), %rcx
 7244      F9FFFF
 7245 365d BA000000 		movl	$.LC44, %edx
 7245      00
 7246 3662 4889CE   		movq	%rcx, %rsi
 7247 3665 4889C7   		movq	%rax, %rdi
 7248 3668 E8000000 		call	_ZN8UnitTest11TestResults13OnTestFailureERKNS_11TestDetailsEPKc
 7248      00
 7249              	.LEHE223:
 7250              	.LEHB224:
  38:../ExecuteTest.h **** 	{
 7251              		.loc 4 38 0
 7252 366d E8000000 		call	__cxa_end_catch
 7252      00
 7253              	.LEHE224:
 7254              	.L411:
 7255              	.LBE195:
 7256              		.loc 4 42 0
 7257 3672 90       		nop
 7258 3673 488B45E8 		movq	-24(%rbp), %rax
 7259 3677 64483304 		xorq	%fs:40, %rax
 7259      25280000 
 7259      00
 7260 3680 7405     		je	.L402
 7261 3682 E8000000 		call	__stack_chk_fail
 7261      00
 7262              	.L402:
 7263 3687 4881C420 		addq	$1568, %rsp
 7263      060000
 7264 368e 5B       		popq	%rbx
 7265 368f 415C     		popq	%r12
 7266 3691 5D       		popq	%rbp
 7267              		.cfi_def_cfa 7, 8
 7268 3692 C3       		ret
 7269              		.cfi_endproc
 7270              	.LFE1463:
 7271              		.section	.gcc_except_table
 7272              		.align 4
 7273              	.LLSDA1463:
 7274 0600 FF       		.byte	0xff
 7275 0601 03       		.byte	0x3
 7276 0602 5D       		.uleb128 .LLSDATT1463-.LLSDATTD1463
 7277              	.LLSDATTD1463:
 7278 0603 01       		.byte	0x1
 7279 0604 47       		.uleb128 .LLSDACSE1463-.LLSDACSB1463
 7280              	.LLSDACSB1463:
 7281 0605 2B       		.uleb128 .LEHB212-.LFB1463
 7282 0606 05       		.uleb128 .LEHE212-.LEHB212
 7283 0607 00       		.uleb128 0
 7284 0608 00       		.uleb128 0
 7285 0609 47       		.uleb128 .LEHB213-.LFB1463
 7286 060a 05       		.uleb128 .LEHE213-.LEHB213
 7287 060b CC01     		.uleb128 .L403-.LFB1463
 7288 060d 05       		.uleb128 0x5
 7289 060e 8701     		.uleb128 .LEHB214-.LFB1463
 7290 0610 14       		.uleb128 .LEHE214-.LEHB214
 7291 0611 AF01     		.uleb128 .L404-.LFB1463
 7292 0613 07       		.uleb128 0x7
 7293 0614 A501     		.uleb128 .LEHB215-.LFB1463
 7294 0616 05       		.uleb128 .LEHE215-.LEHB215
 7295 0617 CC01     		.uleb128 .L403-.LFB1463
 7296 0619 05       		.uleb128 0x5
 7297 061a EF01     		.uleb128 .LEHB216-.LFB1463
 7298 061c 05       		.uleb128 .LEHE216-.LEHB216
 7299 061d 00       		.uleb128 0
 7300 061e 00       		.uleb128 0
 7301 061f 9602     		.uleb128 .LEHB217-.LFB1463
 7302 0621 05       		.uleb128 .LEHE217-.LEHB217
 7303 0622 00       		.uleb128 0
 7304 0623 00       		.uleb128 0
 7305 0624 A902     		.uleb128 .LEHB218-.LFB1463
 7306 0626 05       		.uleb128 .LEHE218-.LEHB218
 7307 0627 00       		.uleb128 0
 7308 0628 00       		.uleb128 0
 7309 0629 E702     		.uleb128 .LEHB219-.LFB1463
 7310 062b 5E       		.uleb128 .LEHE219-.LEHB219
 7311 062c E101     		.uleb128 .L405-.LFB1463
 7312 062e 00       		.uleb128 0
 7313 062f E803     		.uleb128 .LEHB220-.LFB1463
 7314 0631 05       		.uleb128 .LEHE220-.LEHB220
 7315 0632 8802     		.uleb128 .L407-.LFB1463
 7316 0634 00       		.uleb128 0
 7317 0635 9C04     		.uleb128 .LEHB221-.LFB1463
 7318 0637 3F       		.uleb128 .LEHE221-.LEHB221
 7319 0638 F401     		.uleb128 .L406-.LFB1463
 7320 063a 00       		.uleb128 0
 7321 063b E504     		.uleb128 .LEHB222-.LFB1463
 7322 063d 05       		.uleb128 .LEHE222-.LEHB222
 7323 063e 8802     		.uleb128 .L407-.LFB1463
 7324 0640 00       		.uleb128 0
 7325 0641 F904     		.uleb128 .LEHB223-.LFB1463
 7326 0643 1F       		.uleb128 .LEHE223-.LEHB223
 7327 0644 9B02     		.uleb128 .L408-.LFB1463
 7328 0646 00       		.uleb128 0
 7329 0647 9805     		.uleb128 .LEHB224-.LFB1463
 7330 0649 05       		.uleb128 .LEHE224-.LEHB224
 7331 064a 00       		.uleb128 0
 7332 064b 00       		.uleb128 0
 7333              	.LLSDACSE1463:
 7334 064c 03       		.byte	0x3
 7335 064d 00       		.byte	0
 7336 064e 02       		.byte	0x2
 7337 064f 7D       		.byte	0x7d
 7338 0650 01       		.byte	0x1
 7339 0651 7D       		.byte	0x7d
 7340 0652 00       		.byte	0
 7341 0653 7D       		.byte	0x7d
 7342              		.align 4
 7343 0654 00000000 		.long	0
 7344              	
 7345 0658 00000000 		.long	_ZTISt9exception
 7346 065c 00000000 		.long	_ZTIN8UnitTest15AssertExceptionE
 7347              	.LLSDATT1463:
 7348              		.text
 7351              	_ZN8UnitTest11ExecuteTestIN12_GLOBAL__N_163XmlTestReporterFixtureSingleFailedTestReportSummaryForma
 7352              	.LFB1464:
  16:../ExecuteTest.h **** {
 7353              		.loc 4 16 0
 7354              		.cfi_startproc
 7355              		.cfi_personality 0x3,__gxx_personality_v0
 7356              		.cfi_lsda 0x3,.LLSDA1464
 7357 3693 55       		pushq	%rbp
 7358              		.cfi_def_cfa_offset 16
 7359              		.cfi_offset 6, -16
 7360 3694 4889E5   		movq	%rsp, %rbp
 7361              		.cfi_def_cfa_register 6
 7362 3697 4154     		pushq	%r12
 7363 3699 53       		pushq	%rbx
 7364 369a 4881EC20 		subq	$1568, %rsp
 7364      060000
 7365              		.cfi_offset 12, -24
 7366              		.cfi_offset 3, -32
 7367 36a1 4889BDD8 		movq	%rdi, -1576(%rbp)
 7367      F9FFFF
 7368 36a8 4889B5D0 		movq	%rsi, -1584(%rbp)
 7368      F9FFFF
  16:../ExecuteTest.h **** {
 7369              		.loc 4 16 0
 7370 36af 64488B04 		movq	%fs:40, %rax
 7370      25280000 
 7370      00
 7371 36b8 488945E8 		movq	%rax, -24(%rbp)
 7372 36bc 31C0     		xorl	%eax, %eax
 7373              	.LEHB225:
 7374              	.LBB196:
  18:../ExecuteTest.h **** 
 7375              		.loc 4 18 0
 7376 36be E8000000 		call	_ZN8UnitTest11CurrentTest7DetailsEv
 7376      00
 7377              	.LEHE225:
 7378 36c3 4889C2   		movq	%rax, %rdx
 7379 36c6 488B85D0 		movq	-1584(%rbp), %rax
 7379      F9FFFF
 7380 36cd 488902   		movq	%rax, (%rdx)
 7381              	.LBB197:
  23:../ExecuteTest.h **** #endif
 7382              		.loc 4 23 0
 7383 36d0 488D8580 		leaq	-1152(%rbp), %rax
 7383      FBFFFF
 7384 36d7 4889C7   		movq	%rax, %rdi
 7385              	.LEHB226:
 7386 36da E8000000 		call	_ZN8UnitTest16SignalTranslatorC1Ev
 7386      00
 7387              	.LEHE226:
  23:../ExecuteTest.h **** #endif
 7388              		.loc 4 23 0 is_stmt 0 discriminator 1
 7389 36df 488B0500 		movq	_ZN8UnitTest16SignalTranslator12s_jumpTargetE(%rip), %rax
 7389      000000
 7390 36e6 BE010000 		movl	$1, %esi
 7390      00
 7391 36eb 4889C7   		movq	%rax, %rdi
 7392 36ee E8000000 		call	__sigsetjmp
 7392      00
 7393 36f3 85C0     		testl	%eax, %eax
 7394 36f5 0F95C0   		setne	%al
 7395 36f8 84C0     		testb	%al, %al
 7396 36fa 7423     		je	.L432
  23:../ExecuteTest.h **** #endif
 7397              		.loc 4 23 0 discriminator 3
 7398 36fc BF080000 		movl	$8, %edi
 7398      00
 7399 3701 E8000000 		call	__cxa_allocate_exception
 7399      00
 7400 3706 48C70000 		movq	$.LC43, (%rax)
 7400      000000
 7401 370d BA000000 		movl	$0, %edx
 7401      00
 7402 3712 BE000000 		movl	$_ZTIPKc, %esi
 7402      00
 7403 3717 4889C7   		movq	%rax, %rdi
 7404              	.LEHB227:
 7405 371a E8000000 		call	__cxa_throw
 7405      00
 7406              	.L432:
  25:../ExecuteTest.h **** 	}
 7407              		.loc 4 25 0 is_stmt 1
 7408 371f 488B85D8 		movq	-1576(%rbp), %rax
 7408      F9FFFF
 7409 3726 4889C7   		movq	%rax, %rdi
 7410 3729 E848E2FF 		call	_ZN12_GLOBAL__N_163XmlTestReporterFixtureSingleFailedTestReportSummaryFormatHelper7RunImplEv
 7410      FF
 7411              	.LEHE227:
  25:../ExecuteTest.h **** 	}
 7412              		.loc 4 25 0 is_stmt 0 discriminator 2
 7413 372e 488D8580 		leaq	-1152(%rbp), %rax
 7413      FBFFFF
 7414 3735 4889C7   		movq	%rax, %rdi
 7415              	.LEHB228:
 7416 3738 E8000000 		call	_ZN8UnitTest16SignalTranslatorD1Ev
 7416      00
 7417              	.LEHE228:
 7418              	.LBE197:
 7419              	.LBE196:
 7420              		.loc 4 42 0 is_stmt 1
 7421 373d E9EE0100 		jmp	.L434
 7421      00
 7422              	.L427:
 7423 3742 4989C4   		movq	%rax, %r12
 7424 3745 4889D3   		movq	%rdx, %rbx
 7425              	.LBB205:
 7426              	.LBB198:
  25:../ExecuteTest.h **** 	}
 7427              		.loc 4 25 0
 7428 3748 488D8580 		leaq	-1152(%rbp), %rax
 7428      FBFFFF
 7429 374f 4889C7   		movq	%rax, %rdi
 7430 3752 E8000000 		call	_ZN8UnitTest16SignalTranslatorD1Ev
 7430      00
 7431 3757 4C89E0   		movq	%r12, %rax
 7432 375a 4889DA   		movq	%rbx, %rdx
 7433 375d EB00     		jmp	.L416
 7434              	.L426:
 7435              	.L416:
 7436 375f 4883FA01 		cmpq	$1, %rdx
 7437 3763 745C     		je	.L418
 7438 3765 4883FA02 		cmpq	$2, %rdx
 7439 3769 0F84F300 		je	.L419
 7439      0000
 7440 376f E9900100 		jmp	.L433
 7440      00
 7441              	.L428:
 7442 3774 4889C3   		movq	%rax, %rbx
 7443              	.LBE198:
 7444              	.LBB199:
  27:../ExecuteTest.h **** 	{
 7445              		.loc 4 27 0
 7446 3777 E8000000 		call	__cxa_end_catch
 7446      00
 7447 377c 4889D8   		movq	%rbx, %rax
 7448 377f 4889C7   		movq	%rax, %rdi
 7449              	.LEHB229:
 7450 3782 E8000000 		call	_Unwind_Resume
 7450      00
 7451              	.LEHE229:
 7452              	.L429:
 7453 3787 4889C3   		movq	%rax, %rbx
 7454              	.LBE199:
 7455              	.LBB200:
 7456              	.LBB201:
  36:../ExecuteTest.h **** 	}
 7457              		.loc 4 36 0
 7458 378a 488D8510 		leaq	-1520(%rbp), %rax
 7458      FAFFFF
 7459 3791 4889C7   		movq	%rax, %rdi
 7460 3794 E8000000 		call	_ZN8UnitTest15MemoryOutStreamD1Ev
 7460      00
 7461 3799 EB03     		jmp	.L422
 7462              	.L430:
 7463 379b 4889C3   		movq	%rax, %rbx
 7464              	.L422:
 7465              	.LBE201:
  32:../ExecuteTest.h **** 	{
 7466              		.loc 4 32 0
 7467 379e E8000000 		call	__cxa_end_catch
 7467      00
 7468 37a3 4889D8   		movq	%rbx, %rax
 7469 37a6 4889C7   		movq	%rax, %rdi
 7470              	.LEHB230:
 7471 37a9 E8000000 		call	_Unwind_Resume
 7471      00
 7472              	.LEHE230:
 7473              	.L431:
 7474 37ae 4889C3   		movq	%rax, %rbx
 7475              	.LBE200:
  38:../ExecuteTest.h **** 	{
 7476              		.loc 4 38 0
 7477 37b1 E8000000 		call	__cxa_end_catch
 7477      00
 7478 37b6 4889D8   		movq	%rbx, %rax
 7479 37b9 4889C7   		movq	%rax, %rdi
 7480              	.LEHB231:
 7481 37bc E8000000 		call	_Unwind_Resume
 7481      00
 7482              	.LEHE231:
 7483              	.L418:
 7484              	.LBB203:
  27:../ExecuteTest.h **** 	{
 7485              		.loc 4 27 0
 7486 37c1 4889C7   		movq	%rax, %rdi
 7487 37c4 E8000000 		call	__cxa_begin_catch
 7487      00
 7488 37c9 488985E0 		movq	%rax, -1568(%rbp)
 7488      F9FFFF
  30:../ExecuteTest.h **** 	}
 7489              		.loc 4 30 0
 7490 37d0 488B85E0 		movq	-1568(%rbp), %rax
 7490      F9FFFF
 7491 37d7 488B00   		movq	(%rax), %rax
 7492 37da 4883C010 		addq	$16, %rax
 7493 37de 488B00   		movq	(%rax), %rax
 7494 37e1 488B95E0 		movq	-1568(%rbp), %rdx
 7494      F9FFFF
 7495 37e8 4889D7   		movq	%rdx, %rdi
 7496 37eb FFD0     		call	*%rax
 7497 37ed 4889C3   		movq	%rax, %rbx
 7498 37f0 488B85E0 		movq	-1568(%rbp), %rax
 7498      F9FFFF
 7499 37f7 4889C7   		movq	%rax, %rdi
 7500              	.LEHB232:
 7501 37fa E8000000 		call	_ZNK8UnitTest15AssertException10LineNumberEv
 7501      00
  30:../ExecuteTest.h **** 	}
 7502              		.loc 4 30 0 is_stmt 0 discriminator 1
 7503 37ff 4189C4   		movl	%eax, %r12d
 7504 3802 488B85E0 		movq	-1568(%rbp), %rax
 7504      F9FFFF
 7505 3809 4889C7   		movq	%rax, %rdi
 7506 380c E8000000 		call	_ZNK8UnitTest15AssertException8FilenameEv
 7506      00
  30:../ExecuteTest.h **** 	}
 7507              		.loc 4 30 0 discriminator 2
 7508 3811 4889C1   		movq	%rax, %rcx
 7509 3814 488B85D0 		movq	-1584(%rbp), %rax
 7509      F9FFFF
 7510 381b 488B10   		movq	(%rax), %rdx
 7511 381e 488B85D0 		movq	-1584(%rbp), %rax
 7511      F9FFFF
 7512 3825 488B7008 		movq	8(%rax), %rsi
 7513 3829 488D85F0 		leaq	-1552(%rbp), %rax
 7513      F9FFFF
 7514 3830 4589E0   		movl	%r12d, %r8d
 7515 3833 4889C7   		movq	%rax, %rdi
 7516 3836 E8000000 		call	_ZN8UnitTest11TestDetailsC1EPKcS2_S2_i
 7516      00
  29:../ExecuteTest.h **** 			TestDetails(details.testName, details.suiteName, e.Filename(), e.LineNumber()), e.what());
 7517              		.loc 4 29 0 is_stmt 1
 7518 383b E8000000 		call	_ZN8UnitTest11CurrentTest7ResultsEv
 7518      00
  30:../ExecuteTest.h **** 	}
 7519              		.loc 4 30 0
 7520 3840 488B00   		movq	(%rax), %rax
  29:../ExecuteTest.h **** 			TestDetails(details.testName, details.suiteName, e.Filename(), e.LineNumber()), e.what());
 7521              		.loc 4 29 0
 7522 3843 488D8DF0 		leaq	-1552(%rbp), %rcx
 7522      F9FFFF
 7523 384a 4889DA   		movq	%rbx, %rdx
 7524 384d 4889CE   		movq	%rcx, %rsi
 7525 3850 4889C7   		movq	%rax, %rdi
 7526 3853 E8000000 		call	_ZN8UnitTest11TestResults13OnTestFailureERKNS_11TestDetailsEPKc
 7526      00
 7527              	.LEHE232:
  27:../ExecuteTest.h **** 	{
 7528              		.loc 4 27 0
 7529 3858 E8000000 		call	__cxa_end_catch
 7529      00
 7530              	.LBE203:
 7531              	.LBE205:
 7532              		.loc 4 42 0
 7533 385d E9CE0000 		jmp	.L434
 7533      00
 7534              	.L419:
 7535              	.LBB206:
 7536              	.LBB204:
  32:../ExecuteTest.h **** 	{
 7537              		.loc 4 32 0
 7538 3862 4889C7   		movq	%rax, %rdi
 7539 3865 E8000000 		call	__cxa_begin_catch
 7539      00
 7540 386a 488985E8 		movq	%rax, -1560(%rbp)
 7540      F9FFFF
 7541              	.LBB202:
  34:../ExecuteTest.h **** 		stream << "Unhandled exception: " << e.what();
 7542              		.loc 4 34 0
 7543 3871 488D8510 		leaq	-1520(%rbp), %rax
 7543      FAFFFF
 7544 3878 4889C7   		movq	%rax, %rdi
 7545              	.LEHB233:
 7546 387b E8000000 		call	_ZN8UnitTest15MemoryOutStreamC1Ev
 7546      00
 7547              	.LEHE233:
  35:../ExecuteTest.h **** 		CurrentTest::Results()->OnTestFailure(details, stream.GetText());
 7548              		.loc 4 35 0
 7549 3880 488B85E8 		movq	-1560(%rbp), %rax
 7549      F9FFFF
 7550 3887 488B00   		movq	(%rax), %rax
 7551 388a 4883C010 		addq	$16, %rax
 7552 388e 488B00   		movq	(%rax), %rax
 7553 3891 488B95E8 		movq	-1560(%rbp), %rdx
 7553      F9FFFF
 7554 3898 4889D7   		movq	%rdx, %rdi
 7555 389b FFD0     		call	*%rax
 7556 389d 4889C3   		movq	%rax, %rbx
 7557 38a0 488D8510 		leaq	-1520(%rbp), %rax
 7557      FAFFFF
 7558 38a7 BE000000 		movl	$.LC3, %esi
 7558      00
 7559 38ac 4889C7   		movq	%rax, %rdi
 7560              	.LEHB234:
 7561 38af E8000000 		call	_ZStlsISt11char_traitsIcEERSt13basic_ostreamIcT_ES5_PKc
 7561      00
  35:../ExecuteTest.h **** 		CurrentTest::Results()->OnTestFailure(details, stream.GetText());
 7562              		.loc 4 35 0 is_stmt 0 discriminator 1
 7563 38b4 4889DE   		movq	%rbx, %rsi
 7564 38b7 4889C7   		movq	%rax, %rdi
 7565 38ba E8000000 		call	_ZStlsISt11char_traitsIcEERSt13basic_ostreamIcT_ES5_PKc
 7565      00
  36:../ExecuteTest.h **** 	}
 7566              		.loc 4 36 0 is_stmt 1
 7567 38bf 488D8510 		leaq	-1520(%rbp), %rax
 7567      FAFFFF
 7568 38c6 4889C7   		movq	%rax, %rdi
 7569 38c9 E8000000 		call	_ZNK8UnitTest15MemoryOutStream7GetTextEv
 7569      00
 7570 38ce 4889C3   		movq	%rax, %rbx
 7571 38d1 E8000000 		call	_ZN8UnitTest11CurrentTest7ResultsEv
 7571      00
  36:../ExecuteTest.h **** 	}
 7572              		.loc 4 36 0 is_stmt 0 discriminator 2
 7573 38d6 488B00   		movq	(%rax), %rax
 7574 38d9 488B8DD0 		movq	-1584(%rbp), %rcx
 7574      F9FFFF
 7575 38e0 4889DA   		movq	%rbx, %rdx
 7576 38e3 4889CE   		movq	%rcx, %rsi
 7577 38e6 4889C7   		movq	%rax, %rdi
 7578 38e9 E8000000 		call	_ZN8UnitTest11TestResults13OnTestFailureERKNS_11TestDetailsEPKc
 7578      00
 7579              	.LEHE234:
  36:../ExecuteTest.h **** 	}
 7580              		.loc 4 36 0 discriminator 6
 7581 38ee 488D8510 		leaq	-1520(%rbp), %rax
 7581      FAFFFF
 7582 38f5 4889C7   		movq	%rax, %rdi
 7583              	.LEHB235:
 7584 38f8 E8000000 		call	_ZN8UnitTest15MemoryOutStreamD1Ev
 7584      00
 7585              	.LEHE235:
 7586              	.LBE202:
  32:../ExecuteTest.h **** 	{
 7587              		.loc 4 32 0 is_stmt 1
 7588 38fd E8000000 		call	__cxa_end_catch
 7588      00
 7589              	.LBE204:
 7590              	.LBE206:
 7591              		.loc 4 42 0
 7592 3902 EB2C     		jmp	.L434
 7593              	.L433:
 7594              	.LBB207:
  38:../ExecuteTest.h **** 	{
 7595              		.loc 4 38 0
 7596 3904 4889C7   		movq	%rax, %rdi
 7597 3907 E8000000 		call	__cxa_begin_catch
 7597      00
 7598              	.LEHB236:
  40:../ExecuteTest.h **** 	}
 7599              		.loc 4 40 0
 7600 390c E8000000 		call	_ZN8UnitTest11CurrentTest7ResultsEv
 7600      00
 7601 3911 488B00   		movq	(%rax), %rax
 7602 3914 488B8DD0 		movq	-1584(%rbp), %rcx
 7602      F9FFFF
 7603 391b BA000000 		movl	$.LC44, %edx
 7603      00
 7604 3920 4889CE   		movq	%rcx, %rsi
 7605 3923 4889C7   		movq	%rax, %rdi
 7606 3926 E8000000 		call	_ZN8UnitTest11TestResults13OnTestFailureERKNS_11TestDetailsEPKc
 7606      00
 7607              	.LEHE236:
 7608              	.LEHB237:
  38:../ExecuteTest.h **** 	{
 7609              		.loc 4 38 0
 7610 392b E8000000 		call	__cxa_end_catch
 7610      00
 7611              	.LEHE237:
 7612              	.L434:
 7613              	.LBE207:
 7614              		.loc 4 42 0
 7615 3930 90       		nop
 7616 3931 488B45E8 		movq	-24(%rbp), %rax
 7617 3935 64483304 		xorq	%fs:40, %rax
 7617      25280000 
 7617      00
 7618 393e 7405     		je	.L425
 7619 3940 E8000000 		call	__stack_chk_fail
 7619      00
 7620              	.L425:
 7621 3945 4881C420 		addq	$1568, %rsp
 7621      060000
 7622 394c 5B       		popq	%rbx
 7623 394d 415C     		popq	%r12
 7624 394f 5D       		popq	%rbp
 7625              		.cfi_def_cfa 7, 8
 7626 3950 C3       		ret
 7627              		.cfi_endproc
 7628              	.LFE1464:
 7629              		.section	.gcc_except_table
 7630              		.align 4
 7631              	.LLSDA1464:
 7632 0660 FF       		.byte	0xff
 7633 0661 03       		.byte	0x3
 7634 0662 5D       		.uleb128 .LLSDATT1464-.LLSDATTD1464
 7635              	.LLSDATTD1464:
 7636 0663 01       		.byte	0x1
 7637 0664 47       		.uleb128 .LLSDACSE1464-.LLSDACSB1464
 7638              	.LLSDACSB1464:
 7639 0665 2B       		.uleb128 .LEHB225-.LFB1464
 7640 0666 05       		.uleb128 .LEHE225-.LEHB225
 7641 0667 00       		.uleb128 0
 7642 0668 00       		.uleb128 0
 7643 0669 47       		.uleb128 .LEHB226-.LFB1464
 7644 066a 05       		.uleb128 .LEHE226-.LEHB226
 7645 066b CC01     		.uleb128 .L426-.LFB1464
 7646 066d 05       		.uleb128 0x5
 7647 066e 8701     		.uleb128 .LEHB227-.LFB1464
 7648 0670 14       		.uleb128 .LEHE227-.LEHB227
 7649 0671 AF01     		.uleb128 .L427-.LFB1464
 7650 0673 07       		.uleb128 0x7
 7651 0674 A501     		.uleb128 .LEHB228-.LFB1464
 7652 0676 05       		.uleb128 .LEHE228-.LEHB228
 7653 0677 CC01     		.uleb128 .L426-.LFB1464
 7654 0679 05       		.uleb128 0x5
 7655 067a EF01     		.uleb128 .LEHB229-.LFB1464
 7656 067c 05       		.uleb128 .LEHE229-.LEHB229
 7657 067d 00       		.uleb128 0
 7658 067e 00       		.uleb128 0
 7659 067f 9602     		.uleb128 .LEHB230-.LFB1464
 7660 0681 05       		.uleb128 .LEHE230-.LEHB230
 7661 0682 00       		.uleb128 0
 7662 0683 00       		.uleb128 0
 7663 0684 A902     		.uleb128 .LEHB231-.LFB1464
 7664 0686 05       		.uleb128 .LEHE231-.LEHB231
 7665 0687 00       		.uleb128 0
 7666 0688 00       		.uleb128 0
 7667 0689 E702     		.uleb128 .LEHB232-.LFB1464
 7668 068b 5E       		.uleb128 .LEHE232-.LEHB232
 7669 068c E101     		.uleb128 .L428-.LFB1464
 7670 068e 00       		.uleb128 0
 7671 068f E803     		.uleb128 .LEHB233-.LFB1464
 7672 0691 05       		.uleb128 .LEHE233-.LEHB233
 7673 0692 8802     		.uleb128 .L430-.LFB1464
 7674 0694 00       		.uleb128 0
 7675 0695 9C04     		.uleb128 .LEHB234-.LFB1464
 7676 0697 3F       		.uleb128 .LEHE234-.LEHB234
 7677 0698 F401     		.uleb128 .L429-.LFB1464
 7678 069a 00       		.uleb128 0
 7679 069b E504     		.uleb128 .LEHB235-.LFB1464
 7680 069d 05       		.uleb128 .LEHE235-.LEHB235
 7681 069e 8802     		.uleb128 .L430-.LFB1464
 7682 06a0 00       		.uleb128 0
 7683 06a1 F904     		.uleb128 .LEHB236-.LFB1464
 7684 06a3 1F       		.uleb128 .LEHE236-.LEHB236
 7685 06a4 9B02     		.uleb128 .L431-.LFB1464
 7686 06a6 00       		.uleb128 0
 7687 06a7 9805     		.uleb128 .LEHB237-.LFB1464
 7688 06a9 05       		.uleb128 .LEHE237-.LEHB237
 7689 06aa 00       		.uleb128 0
 7690 06ab 00       		.uleb128 0
 7691              	.LLSDACSE1464:
 7692 06ac 03       		.byte	0x3
 7693 06ad 00       		.byte	0
 7694 06ae 02       		.byte	0x2
 7695 06af 7D       		.byte	0x7d
 7696 06b0 01       		.byte	0x1
 7697 06b1 7D       		.byte	0x7d
 7698 06b2 00       		.byte	0
 7699 06b3 7D       		.byte	0x7d
 7700              		.align 4
 7701 06b4 00000000 		.long	0
 7702              	
 7703 06b8 00000000 		.long	_ZTISt9exception
 7704 06bc 00000000 		.long	_ZTIN8UnitTest15AssertExceptionE
 7705              	.LLSDATT1464:
 7706              		.text
 7709              	_ZN8UnitTest11ExecuteTestIN12_GLOBAL__N_154XmlTestReporterFixtureFailureMessageIsXMLEscapedHelperEE
 7710              	.LFB1465:
  16:../ExecuteTest.h **** {
 7711              		.loc 4 16 0
 7712              		.cfi_startproc
 7713              		.cfi_personality 0x3,__gxx_personality_v0
 7714              		.cfi_lsda 0x3,.LLSDA1465
 7715 3951 55       		pushq	%rbp
 7716              		.cfi_def_cfa_offset 16
 7717              		.cfi_offset 6, -16
 7718 3952 4889E5   		movq	%rsp, %rbp
 7719              		.cfi_def_cfa_register 6
 7720 3955 4154     		pushq	%r12
 7721 3957 53       		pushq	%rbx
 7722 3958 4881EC20 		subq	$1568, %rsp
 7722      060000
 7723              		.cfi_offset 12, -24
 7724              		.cfi_offset 3, -32
 7725 395f 4889BDD8 		movq	%rdi, -1576(%rbp)
 7725      F9FFFF
 7726 3966 4889B5D0 		movq	%rsi, -1584(%rbp)
 7726      F9FFFF
  16:../ExecuteTest.h **** {
 7727              		.loc 4 16 0
 7728 396d 64488B04 		movq	%fs:40, %rax
 7728      25280000 
 7728      00
 7729 3976 488945E8 		movq	%rax, -24(%rbp)
 7730 397a 31C0     		xorl	%eax, %eax
 7731              	.LEHB238:
 7732              	.LBB208:
  18:../ExecuteTest.h **** 
 7733              		.loc 4 18 0
 7734 397c E8000000 		call	_ZN8UnitTest11CurrentTest7DetailsEv
 7734      00
 7735              	.LEHE238:
 7736 3981 4889C2   		movq	%rax, %rdx
 7737 3984 488B85D0 		movq	-1584(%rbp), %rax
 7737      F9FFFF
 7738 398b 488902   		movq	%rax, (%rdx)
 7739              	.LBB209:
  23:../ExecuteTest.h **** #endif
 7740              		.loc 4 23 0
 7741 398e 488D8580 		leaq	-1152(%rbp), %rax
 7741      FBFFFF
 7742 3995 4889C7   		movq	%rax, %rdi
 7743              	.LEHB239:
 7744 3998 E8000000 		call	_ZN8UnitTest16SignalTranslatorC1Ev
 7744      00
 7745              	.LEHE239:
  23:../ExecuteTest.h **** #endif
 7746              		.loc 4 23 0 is_stmt 0 discriminator 1
 7747 399d 488B0500 		movq	_ZN8UnitTest16SignalTranslator12s_jumpTargetE(%rip), %rax
 7747      000000
 7748 39a4 BE010000 		movl	$1, %esi
 7748      00
 7749 39a9 4889C7   		movq	%rax, %rdi
 7750 39ac E8000000 		call	__sigsetjmp
 7750      00
 7751 39b1 85C0     		testl	%eax, %eax
 7752 39b3 0F95C0   		setne	%al
 7753 39b6 84C0     		testb	%al, %al
 7754 39b8 7423     		je	.L455
  23:../ExecuteTest.h **** #endif
 7755              		.loc 4 23 0 discriminator 3
 7756 39ba BF080000 		movl	$8, %edi
 7756      00
 7757 39bf E8000000 		call	__cxa_allocate_exception
 7757      00
 7758 39c4 48C70000 		movq	$.LC43, (%rax)
 7758      000000
 7759 39cb BA000000 		movl	$0, %edx
 7759      00
 7760 39d0 BE000000 		movl	$_ZTIPKc, %esi
 7760      00
 7761 39d5 4889C7   		movq	%rax, %rdi
 7762              	.LEHB240:
 7763 39d8 E8000000 		call	__cxa_throw
 7763      00
 7764              	.L455:
  25:../ExecuteTest.h **** 	}
 7765              		.loc 4 25 0 is_stmt 1
 7766 39dd 488B85D8 		movq	-1576(%rbp), %rax
 7766      F9FFFF
 7767 39e4 4889C7   		movq	%rax, %rdi
 7768 39e7 E89EE4FF 		call	_ZN12_GLOBAL__N_154XmlTestReporterFixtureFailureMessageIsXMLEscapedHelper7RunImplEv
 7768      FF
 7769              	.LEHE240:
  25:../ExecuteTest.h **** 	}
 7770              		.loc 4 25 0 is_stmt 0 discriminator 2
 7771 39ec 488D8580 		leaq	-1152(%rbp), %rax
 7771      FBFFFF
 7772 39f3 4889C7   		movq	%rax, %rdi
 7773              	.LEHB241:
 7774 39f6 E8000000 		call	_ZN8UnitTest16SignalTranslatorD1Ev
 7774      00
 7775              	.LEHE241:
 7776              	.LBE209:
 7777              	.LBE208:
 7778              		.loc 4 42 0 is_stmt 1
 7779 39fb E9EE0100 		jmp	.L457
 7779      00
 7780              	.L450:
 7781 3a00 4989C4   		movq	%rax, %r12
 7782 3a03 4889D3   		movq	%rdx, %rbx
 7783              	.LBB217:
 7784              	.LBB210:
  25:../ExecuteTest.h **** 	}
 7785              		.loc 4 25 0
 7786 3a06 488D8580 		leaq	-1152(%rbp), %rax
 7786      FBFFFF
 7787 3a0d 4889C7   		movq	%rax, %rdi
 7788 3a10 E8000000 		call	_ZN8UnitTest16SignalTranslatorD1Ev
 7788      00
 7789 3a15 4C89E0   		movq	%r12, %rax
 7790 3a18 4889DA   		movq	%rbx, %rdx
 7791 3a1b EB00     		jmp	.L439
 7792              	.L449:
 7793              	.L439:
 7794 3a1d 4883FA01 		cmpq	$1, %rdx
 7795 3a21 745C     		je	.L441
 7796 3a23 4883FA02 		cmpq	$2, %rdx
 7797 3a27 0F84F300 		je	.L442
 7797      0000
 7798 3a2d E9900100 		jmp	.L456
 7798      00
 7799              	.L451:
 7800 3a32 4889C3   		movq	%rax, %rbx
 7801              	.LBE210:
 7802              	.LBB211:
  27:../ExecuteTest.h **** 	{
 7803              		.loc 4 27 0
 7804 3a35 E8000000 		call	__cxa_end_catch
 7804      00
 7805 3a3a 4889D8   		movq	%rbx, %rax
 7806 3a3d 4889C7   		movq	%rax, %rdi
 7807              	.LEHB242:
 7808 3a40 E8000000 		call	_Unwind_Resume
 7808      00
 7809              	.LEHE242:
 7810              	.L452:
 7811 3a45 4889C3   		movq	%rax, %rbx
 7812              	.LBE211:
 7813              	.LBB212:
 7814              	.LBB213:
  36:../ExecuteTest.h **** 	}
 7815              		.loc 4 36 0
 7816 3a48 488D8510 		leaq	-1520(%rbp), %rax
 7816      FAFFFF
 7817 3a4f 4889C7   		movq	%rax, %rdi
 7818 3a52 E8000000 		call	_ZN8UnitTest15MemoryOutStreamD1Ev
 7818      00
 7819 3a57 EB03     		jmp	.L445
 7820              	.L453:
 7821 3a59 4889C3   		movq	%rax, %rbx
 7822              	.L445:
 7823              	.LBE213:
  32:../ExecuteTest.h **** 	{
 7824              		.loc 4 32 0
 7825 3a5c E8000000 		call	__cxa_end_catch
 7825      00
 7826 3a61 4889D8   		movq	%rbx, %rax
 7827 3a64 4889C7   		movq	%rax, %rdi
 7828              	.LEHB243:
 7829 3a67 E8000000 		call	_Unwind_Resume
 7829      00
 7830              	.LEHE243:
 7831              	.L454:
 7832 3a6c 4889C3   		movq	%rax, %rbx
 7833              	.LBE212:
  38:../ExecuteTest.h **** 	{
 7834              		.loc 4 38 0
 7835 3a6f E8000000 		call	__cxa_end_catch
 7835      00
 7836 3a74 4889D8   		movq	%rbx, %rax
 7837 3a77 4889C7   		movq	%rax, %rdi
 7838              	.LEHB244:
 7839 3a7a E8000000 		call	_Unwind_Resume
 7839      00
 7840              	.LEHE244:
 7841              	.L441:
 7842              	.LBB215:
  27:../ExecuteTest.h **** 	{
 7843              		.loc 4 27 0
 7844 3a7f 4889C7   		movq	%rax, %rdi
 7845 3a82 E8000000 		call	__cxa_begin_catch
 7845      00
 7846 3a87 488985E0 		movq	%rax, -1568(%rbp)
 7846      F9FFFF
  30:../ExecuteTest.h **** 	}
 7847              		.loc 4 30 0
 7848 3a8e 488B85E0 		movq	-1568(%rbp), %rax
 7848      F9FFFF
 7849 3a95 488B00   		movq	(%rax), %rax
 7850 3a98 4883C010 		addq	$16, %rax
 7851 3a9c 488B00   		movq	(%rax), %rax
 7852 3a9f 488B95E0 		movq	-1568(%rbp), %rdx
 7852      F9FFFF
 7853 3aa6 4889D7   		movq	%rdx, %rdi
 7854 3aa9 FFD0     		call	*%rax
 7855 3aab 4889C3   		movq	%rax, %rbx
 7856 3aae 488B85E0 		movq	-1568(%rbp), %rax
 7856      F9FFFF
 7857 3ab5 4889C7   		movq	%rax, %rdi
 7858              	.LEHB245:
 7859 3ab8 E8000000 		call	_ZNK8UnitTest15AssertException10LineNumberEv
 7859      00
  30:../ExecuteTest.h **** 	}
 7860              		.loc 4 30 0 is_stmt 0 discriminator 1
 7861 3abd 4189C4   		movl	%eax, %r12d
 7862 3ac0 488B85E0 		movq	-1568(%rbp), %rax
 7862      F9FFFF
 7863 3ac7 4889C7   		movq	%rax, %rdi
 7864 3aca E8000000 		call	_ZNK8UnitTest15AssertException8FilenameEv
 7864      00
  30:../ExecuteTest.h **** 	}
 7865              		.loc 4 30 0 discriminator 2
 7866 3acf 4889C1   		movq	%rax, %rcx
 7867 3ad2 488B85D0 		movq	-1584(%rbp), %rax
 7867      F9FFFF
 7868 3ad9 488B10   		movq	(%rax), %rdx
 7869 3adc 488B85D0 		movq	-1584(%rbp), %rax
 7869      F9FFFF
 7870 3ae3 488B7008 		movq	8(%rax), %rsi
 7871 3ae7 488D85F0 		leaq	-1552(%rbp), %rax
 7871      F9FFFF
 7872 3aee 4589E0   		movl	%r12d, %r8d
 7873 3af1 4889C7   		movq	%rax, %rdi
 7874 3af4 E8000000 		call	_ZN8UnitTest11TestDetailsC1EPKcS2_S2_i
 7874      00
  29:../ExecuteTest.h **** 			TestDetails(details.testName, details.suiteName, e.Filename(), e.LineNumber()), e.what());
 7875              		.loc 4 29 0 is_stmt 1
 7876 3af9 E8000000 		call	_ZN8UnitTest11CurrentTest7ResultsEv
 7876      00
  30:../ExecuteTest.h **** 	}
 7877              		.loc 4 30 0
 7878 3afe 488B00   		movq	(%rax), %rax
  29:../ExecuteTest.h **** 			TestDetails(details.testName, details.suiteName, e.Filename(), e.LineNumber()), e.what());
 7879              		.loc 4 29 0
 7880 3b01 488D8DF0 		leaq	-1552(%rbp), %rcx
 7880      F9FFFF
 7881 3b08 4889DA   		movq	%rbx, %rdx
 7882 3b0b 4889CE   		movq	%rcx, %rsi
 7883 3b0e 4889C7   		movq	%rax, %rdi
 7884 3b11 E8000000 		call	_ZN8UnitTest11TestResults13OnTestFailureERKNS_11TestDetailsEPKc
 7884      00
 7885              	.LEHE245:
  27:../ExecuteTest.h **** 	{
 7886              		.loc 4 27 0
 7887 3b16 E8000000 		call	__cxa_end_catch
 7887      00
 7888              	.LBE215:
 7889              	.LBE217:
 7890              		.loc 4 42 0
 7891 3b1b E9CE0000 		jmp	.L457
 7891      00
 7892              	.L442:
 7893              	.LBB218:
 7894              	.LBB216:
  32:../ExecuteTest.h **** 	{
 7895              		.loc 4 32 0
 7896 3b20 4889C7   		movq	%rax, %rdi
 7897 3b23 E8000000 		call	__cxa_begin_catch
 7897      00
 7898 3b28 488985E8 		movq	%rax, -1560(%rbp)
 7898      F9FFFF
 7899              	.LBB214:
  34:../ExecuteTest.h **** 		stream << "Unhandled exception: " << e.what();
 7900              		.loc 4 34 0
 7901 3b2f 488D8510 		leaq	-1520(%rbp), %rax
 7901      FAFFFF
 7902 3b36 4889C7   		movq	%rax, %rdi
 7903              	.LEHB246:
 7904 3b39 E8000000 		call	_ZN8UnitTest15MemoryOutStreamC1Ev
 7904      00
 7905              	.LEHE246:
  35:../ExecuteTest.h **** 		CurrentTest::Results()->OnTestFailure(details, stream.GetText());
 7906              		.loc 4 35 0
 7907 3b3e 488B85E8 		movq	-1560(%rbp), %rax
 7907      F9FFFF
 7908 3b45 488B00   		movq	(%rax), %rax
 7909 3b48 4883C010 		addq	$16, %rax
 7910 3b4c 488B00   		movq	(%rax), %rax
 7911 3b4f 488B95E8 		movq	-1560(%rbp), %rdx
 7911      F9FFFF
 7912 3b56 4889D7   		movq	%rdx, %rdi
 7913 3b59 FFD0     		call	*%rax
 7914 3b5b 4889C3   		movq	%rax, %rbx
 7915 3b5e 488D8510 		leaq	-1520(%rbp), %rax
 7915      FAFFFF
 7916 3b65 BE000000 		movl	$.LC3, %esi
 7916      00
 7917 3b6a 4889C7   		movq	%rax, %rdi
 7918              	.LEHB247:
 7919 3b6d E8000000 		call	_ZStlsISt11char_traitsIcEERSt13basic_ostreamIcT_ES5_PKc
 7919      00
  35:../ExecuteTest.h **** 		CurrentTest::Results()->OnTestFailure(details, stream.GetText());
 7920              		.loc 4 35 0 is_stmt 0 discriminator 1
 7921 3b72 4889DE   		movq	%rbx, %rsi
 7922 3b75 4889C7   		movq	%rax, %rdi
 7923 3b78 E8000000 		call	_ZStlsISt11char_traitsIcEERSt13basic_ostreamIcT_ES5_PKc
 7923      00
  36:../ExecuteTest.h **** 	}
 7924              		.loc 4 36 0 is_stmt 1
 7925 3b7d 488D8510 		leaq	-1520(%rbp), %rax
 7925      FAFFFF
 7926 3b84 4889C7   		movq	%rax, %rdi
 7927 3b87 E8000000 		call	_ZNK8UnitTest15MemoryOutStream7GetTextEv
 7927      00
 7928 3b8c 4889C3   		movq	%rax, %rbx
 7929 3b8f E8000000 		call	_ZN8UnitTest11CurrentTest7ResultsEv
 7929      00
  36:../ExecuteTest.h **** 	}
 7930              		.loc 4 36 0 is_stmt 0 discriminator 2
 7931 3b94 488B00   		movq	(%rax), %rax
 7932 3b97 488B8DD0 		movq	-1584(%rbp), %rcx
 7932      F9FFFF
 7933 3b9e 4889DA   		movq	%rbx, %rdx
 7934 3ba1 4889CE   		movq	%rcx, %rsi
 7935 3ba4 4889C7   		movq	%rax, %rdi
 7936 3ba7 E8000000 		call	_ZN8UnitTest11TestResults13OnTestFailureERKNS_11TestDetailsEPKc
 7936      00
 7937              	.LEHE247:
  36:../ExecuteTest.h **** 	}
 7938              		.loc 4 36 0 discriminator 6
 7939 3bac 488D8510 		leaq	-1520(%rbp), %rax
 7939      FAFFFF
 7940 3bb3 4889C7   		movq	%rax, %rdi
 7941              	.LEHB248:
 7942 3bb6 E8000000 		call	_ZN8UnitTest15MemoryOutStreamD1Ev
 7942      00
 7943              	.LEHE248:
 7944              	.LBE214:
  32:../ExecuteTest.h **** 	{
 7945              		.loc 4 32 0 is_stmt 1
 7946 3bbb E8000000 		call	__cxa_end_catch
 7946      00
 7947              	.LBE216:
 7948              	.LBE218:
 7949              		.loc 4 42 0
 7950 3bc0 EB2C     		jmp	.L457
 7951              	.L456:
 7952              	.LBB219:
  38:../ExecuteTest.h **** 	{
 7953              		.loc 4 38 0
 7954 3bc2 4889C7   		movq	%rax, %rdi
 7955 3bc5 E8000000 		call	__cxa_begin_catch
 7955      00
 7956              	.LEHB249:
  40:../ExecuteTest.h **** 	}
 7957              		.loc 4 40 0
 7958 3bca E8000000 		call	_ZN8UnitTest11CurrentTest7ResultsEv
 7958      00
 7959 3bcf 488B00   		movq	(%rax), %rax
 7960 3bd2 488B8DD0 		movq	-1584(%rbp), %rcx
 7960      F9FFFF
 7961 3bd9 BA000000 		movl	$.LC44, %edx
 7961      00
 7962 3bde 4889CE   		movq	%rcx, %rsi
 7963 3be1 4889C7   		movq	%rax, %rdi
 7964 3be4 E8000000 		call	_ZN8UnitTest11TestResults13OnTestFailureERKNS_11TestDetailsEPKc
 7964      00
 7965              	.LEHE249:
 7966              	.LEHB250:
  38:../ExecuteTest.h **** 	{
 7967              		.loc 4 38 0
 7968 3be9 E8000000 		call	__cxa_end_catch
 7968      00
 7969              	.LEHE250:
 7970              	.L457:
 7971              	.LBE219:
 7972              		.loc 4 42 0
 7973 3bee 90       		nop
 7974 3bef 488B45E8 		movq	-24(%rbp), %rax
 7975 3bf3 64483304 		xorq	%fs:40, %rax
 7975      25280000 
 7975      00
 7976 3bfc 7405     		je	.L448
 7977 3bfe E8000000 		call	__stack_chk_fail
 7977      00
 7978              	.L448:
 7979 3c03 4881C420 		addq	$1568, %rsp
 7979      060000
 7980 3c0a 5B       		popq	%rbx
 7981 3c0b 415C     		popq	%r12
 7982 3c0d 5D       		popq	%rbp
 7983              		.cfi_def_cfa 7, 8
 7984 3c0e C3       		ret
 7985              		.cfi_endproc
 7986              	.LFE1465:
 7987              		.section	.gcc_except_table
 7988              		.align 4
 7989              	.LLSDA1465:
 7990 06c0 FF       		.byte	0xff
 7991 06c1 03       		.byte	0x3
 7992 06c2 5D       		.uleb128 .LLSDATT1465-.LLSDATTD1465
 7993              	.LLSDATTD1465:
 7994 06c3 01       		.byte	0x1
 7995 06c4 47       		.uleb128 .LLSDACSE1465-.LLSDACSB1465
 7996              	.LLSDACSB1465:
 7997 06c5 2B       		.uleb128 .LEHB238-.LFB1465
 7998 06c6 05       		.uleb128 .LEHE238-.LEHB238
 7999 06c7 00       		.uleb128 0
 8000 06c8 00       		.uleb128 0
 8001 06c9 47       		.uleb128 .LEHB239-.LFB1465
 8002 06ca 05       		.uleb128 .LEHE239-.LEHB239
 8003 06cb CC01     		.uleb128 .L449-.LFB1465
 8004 06cd 05       		.uleb128 0x5
 8005 06ce 8701     		.uleb128 .LEHB240-.LFB1465
 8006 06d0 14       		.uleb128 .LEHE240-.LEHB240
 8007 06d1 AF01     		.uleb128 .L450-.LFB1465
 8008 06d3 07       		.uleb128 0x7
 8009 06d4 A501     		.uleb128 .LEHB241-.LFB1465
 8010 06d6 05       		.uleb128 .LEHE241-.LEHB241
 8011 06d7 CC01     		.uleb128 .L449-.LFB1465
 8012 06d9 05       		.uleb128 0x5
 8013 06da EF01     		.uleb128 .LEHB242-.LFB1465
 8014 06dc 05       		.uleb128 .LEHE242-.LEHB242
 8015 06dd 00       		.uleb128 0
 8016 06de 00       		.uleb128 0
 8017 06df 9602     		.uleb128 .LEHB243-.LFB1465
 8018 06e1 05       		.uleb128 .LEHE243-.LEHB243
 8019 06e2 00       		.uleb128 0
 8020 06e3 00       		.uleb128 0
 8021 06e4 A902     		.uleb128 .LEHB244-.LFB1465
 8022 06e6 05       		.uleb128 .LEHE244-.LEHB244
 8023 06e7 00       		.uleb128 0
 8024 06e8 00       		.uleb128 0
 8025 06e9 E702     		.uleb128 .LEHB245-.LFB1465
 8026 06eb 5E       		.uleb128 .LEHE245-.LEHB245
 8027 06ec E101     		.uleb128 .L451-.LFB1465
 8028 06ee 00       		.uleb128 0
 8029 06ef E803     		.uleb128 .LEHB246-.LFB1465
 8030 06f1 05       		.uleb128 .LEHE246-.LEHB246
 8031 06f2 8802     		.uleb128 .L453-.LFB1465
 8032 06f4 00       		.uleb128 0
 8033 06f5 9C04     		.uleb128 .LEHB247-.LFB1465
 8034 06f7 3F       		.uleb128 .LEHE247-.LEHB247
 8035 06f8 F401     		.uleb128 .L452-.LFB1465
 8036 06fa 00       		.uleb128 0
 8037 06fb E504     		.uleb128 .LEHB248-.LFB1465
 8038 06fd 05       		.uleb128 .LEHE248-.LEHB248
 8039 06fe 8802     		.uleb128 .L453-.LFB1465
 8040 0700 00       		.uleb128 0
 8041 0701 F904     		.uleb128 .LEHB249-.LFB1465
 8042 0703 1F       		.uleb128 .LEHE249-.LEHB249
 8043 0704 9B02     		.uleb128 .L454-.LFB1465
 8044 0706 00       		.uleb128 0
 8045 0707 9805     		.uleb128 .LEHB250-.LFB1465
 8046 0709 05       		.uleb128 .LEHE250-.LEHB250
 8047 070a 00       		.uleb128 0
 8048 070b 00       		.uleb128 0
 8049              	.LLSDACSE1465:
 8050 070c 03       		.byte	0x3
 8051 070d 00       		.byte	0
 8052 070e 02       		.byte	0x2
 8053 070f 7D       		.byte	0x7d
 8054 0710 01       		.byte	0x1
 8055 0711 7D       		.byte	0x7d
 8056 0712 00       		.byte	0
 8057 0713 7D       		.byte	0x7d
 8058              		.align 4
 8059 0714 00000000 		.long	0
 8060              	
 8061 0718 00000000 		.long	_ZTISt9exception
 8062 071c 00000000 		.long	_ZTIN8UnitTest15AssertExceptionE
 8063              	.LLSDATT1465:
 8064              		.text
 8067              	_ZN8UnitTest11ExecuteTestIN12_GLOBAL__N_151XmlTestReporterFixtureOneFailureAndOneSuccessHelperEEEvR
 8068              	.LFB1466:
  16:../ExecuteTest.h **** {
 8069              		.loc 4 16 0
 8070              		.cfi_startproc
 8071              		.cfi_personality 0x3,__gxx_personality_v0
 8072              		.cfi_lsda 0x3,.LLSDA1466
 8073 3c0f 55       		pushq	%rbp
 8074              		.cfi_def_cfa_offset 16
 8075              		.cfi_offset 6, -16
 8076 3c10 4889E5   		movq	%rsp, %rbp
 8077              		.cfi_def_cfa_register 6
 8078 3c13 4154     		pushq	%r12
 8079 3c15 53       		pushq	%rbx
 8080 3c16 4881EC20 		subq	$1568, %rsp
 8080      060000
 8081              		.cfi_offset 12, -24
 8082              		.cfi_offset 3, -32
 8083 3c1d 4889BDD8 		movq	%rdi, -1576(%rbp)
 8083      F9FFFF
 8084 3c24 4889B5D0 		movq	%rsi, -1584(%rbp)
 8084      F9FFFF
  16:../ExecuteTest.h **** {
 8085              		.loc 4 16 0
 8086 3c2b 64488B04 		movq	%fs:40, %rax
 8086      25280000 
 8086      00
 8087 3c34 488945E8 		movq	%rax, -24(%rbp)
 8088 3c38 31C0     		xorl	%eax, %eax
 8089              	.LEHB251:
 8090              	.LBB220:
  18:../ExecuteTest.h **** 
 8091              		.loc 4 18 0
 8092 3c3a E8000000 		call	_ZN8UnitTest11CurrentTest7DetailsEv
 8092      00
 8093              	.LEHE251:
 8094 3c3f 4889C2   		movq	%rax, %rdx
 8095 3c42 488B85D0 		movq	-1584(%rbp), %rax
 8095      F9FFFF
 8096 3c49 488902   		movq	%rax, (%rdx)
 8097              	.LBB221:
  23:../ExecuteTest.h **** #endif
 8098              		.loc 4 23 0
 8099 3c4c 488D8580 		leaq	-1152(%rbp), %rax
 8099      FBFFFF
 8100 3c53 4889C7   		movq	%rax, %rdi
 8101              	.LEHB252:
 8102 3c56 E8000000 		call	_ZN8UnitTest16SignalTranslatorC1Ev
 8102      00
 8103              	.LEHE252:
  23:../ExecuteTest.h **** #endif
 8104              		.loc 4 23 0 is_stmt 0 discriminator 1
 8105 3c5b 488B0500 		movq	_ZN8UnitTest16SignalTranslator12s_jumpTargetE(%rip), %rax
 8105      000000
 8106 3c62 BE010000 		movl	$1, %esi
 8106      00
 8107 3c67 4889C7   		movq	%rax, %rdi
 8108 3c6a E8000000 		call	__sigsetjmp
 8108      00
 8109 3c6f 85C0     		testl	%eax, %eax
 8110 3c71 0F95C0   		setne	%al
 8111 3c74 84C0     		testb	%al, %al
 8112 3c76 7423     		je	.L478
  23:../ExecuteTest.h **** #endif
 8113              		.loc 4 23 0 discriminator 3
 8114 3c78 BF080000 		movl	$8, %edi
 8114      00
 8115 3c7d E8000000 		call	__cxa_allocate_exception
 8115      00
 8116 3c82 48C70000 		movq	$.LC43, (%rax)
 8116      000000
 8117 3c89 BA000000 		movl	$0, %edx
 8117      00
 8118 3c8e BE000000 		movl	$_ZTIPKc, %esi
 8118      00
 8119 3c93 4889C7   		movq	%rax, %rdi
 8120              	.LEHB253:
 8121 3c96 E8000000 		call	__cxa_throw
 8121      00
 8122              	.L478:
  25:../ExecuteTest.h **** 	}
 8123              		.loc 4 25 0 is_stmt 1
 8124 3c9b 488B85D8 		movq	-1576(%rbp), %rax
 8124      F9FFFF
 8125 3ca2 4889C7   		movq	%rax, %rdi
 8126 3ca5 E816E7FF 		call	_ZN12_GLOBAL__N_151XmlTestReporterFixtureOneFailureAndOneSuccessHelper7RunImplEv
 8126      FF
 8127              	.LEHE253:
  25:../ExecuteTest.h **** 	}
 8128              		.loc 4 25 0 is_stmt 0 discriminator 2
 8129 3caa 488D8580 		leaq	-1152(%rbp), %rax
 8129      FBFFFF
 8130 3cb1 4889C7   		movq	%rax, %rdi
 8131              	.LEHB254:
 8132 3cb4 E8000000 		call	_ZN8UnitTest16SignalTranslatorD1Ev
 8132      00
 8133              	.LEHE254:
 8134              	.LBE221:
 8135              	.LBE220:
 8136              		.loc 4 42 0 is_stmt 1
 8137 3cb9 E9EE0100 		jmp	.L480
 8137      00
 8138              	.L473:
 8139 3cbe 4989C4   		movq	%rax, %r12
 8140 3cc1 4889D3   		movq	%rdx, %rbx
 8141              	.LBB229:
 8142              	.LBB222:
  25:../ExecuteTest.h **** 	}
 8143              		.loc 4 25 0
 8144 3cc4 488D8580 		leaq	-1152(%rbp), %rax
 8144      FBFFFF
 8145 3ccb 4889C7   		movq	%rax, %rdi
 8146 3cce E8000000 		call	_ZN8UnitTest16SignalTranslatorD1Ev
 8146      00
 8147 3cd3 4C89E0   		movq	%r12, %rax
 8148 3cd6 4889DA   		movq	%rbx, %rdx
 8149 3cd9 EB00     		jmp	.L462
 8150              	.L472:
 8151              	.L462:
 8152 3cdb 4883FA01 		cmpq	$1, %rdx
 8153 3cdf 745C     		je	.L464
 8154 3ce1 4883FA02 		cmpq	$2, %rdx
 8155 3ce5 0F84F300 		je	.L465
 8155      0000
 8156 3ceb E9900100 		jmp	.L479
 8156      00
 8157              	.L474:
 8158 3cf0 4889C3   		movq	%rax, %rbx
 8159              	.LBE222:
 8160              	.LBB223:
  27:../ExecuteTest.h **** 	{
 8161              		.loc 4 27 0
 8162 3cf3 E8000000 		call	__cxa_end_catch
 8162      00
 8163 3cf8 4889D8   		movq	%rbx, %rax
 8164 3cfb 4889C7   		movq	%rax, %rdi
 8165              	.LEHB255:
 8166 3cfe E8000000 		call	_Unwind_Resume
 8166      00
 8167              	.LEHE255:
 8168              	.L475:
 8169 3d03 4889C3   		movq	%rax, %rbx
 8170              	.LBE223:
 8171              	.LBB224:
 8172              	.LBB225:
  36:../ExecuteTest.h **** 	}
 8173              		.loc 4 36 0
 8174 3d06 488D8510 		leaq	-1520(%rbp), %rax
 8174      FAFFFF
 8175 3d0d 4889C7   		movq	%rax, %rdi
 8176 3d10 E8000000 		call	_ZN8UnitTest15MemoryOutStreamD1Ev
 8176      00
 8177 3d15 EB03     		jmp	.L468
 8178              	.L476:
 8179 3d17 4889C3   		movq	%rax, %rbx
 8180              	.L468:
 8181              	.LBE225:
  32:../ExecuteTest.h **** 	{
 8182              		.loc 4 32 0
 8183 3d1a E8000000 		call	__cxa_end_catch
 8183      00
 8184 3d1f 4889D8   		movq	%rbx, %rax
 8185 3d22 4889C7   		movq	%rax, %rdi
 8186              	.LEHB256:
 8187 3d25 E8000000 		call	_Unwind_Resume
 8187      00
 8188              	.LEHE256:
 8189              	.L477:
 8190 3d2a 4889C3   		movq	%rax, %rbx
 8191              	.LBE224:
  38:../ExecuteTest.h **** 	{
 8192              		.loc 4 38 0
 8193 3d2d E8000000 		call	__cxa_end_catch
 8193      00
 8194 3d32 4889D8   		movq	%rbx, %rax
 8195 3d35 4889C7   		movq	%rax, %rdi
 8196              	.LEHB257:
 8197 3d38 E8000000 		call	_Unwind_Resume
 8197      00
 8198              	.LEHE257:
 8199              	.L464:
 8200              	.LBB227:
  27:../ExecuteTest.h **** 	{
 8201              		.loc 4 27 0
 8202 3d3d 4889C7   		movq	%rax, %rdi
 8203 3d40 E8000000 		call	__cxa_begin_catch
 8203      00
 8204 3d45 488985E0 		movq	%rax, -1568(%rbp)
 8204      F9FFFF
  30:../ExecuteTest.h **** 	}
 8205              		.loc 4 30 0
 8206 3d4c 488B85E0 		movq	-1568(%rbp), %rax
 8206      F9FFFF
 8207 3d53 488B00   		movq	(%rax), %rax
 8208 3d56 4883C010 		addq	$16, %rax
 8209 3d5a 488B00   		movq	(%rax), %rax
 8210 3d5d 488B95E0 		movq	-1568(%rbp), %rdx
 8210      F9FFFF
 8211 3d64 4889D7   		movq	%rdx, %rdi
 8212 3d67 FFD0     		call	*%rax
 8213 3d69 4889C3   		movq	%rax, %rbx
 8214 3d6c 488B85E0 		movq	-1568(%rbp), %rax
 8214      F9FFFF
 8215 3d73 4889C7   		movq	%rax, %rdi
 8216              	.LEHB258:
 8217 3d76 E8000000 		call	_ZNK8UnitTest15AssertException10LineNumberEv
 8217      00
  30:../ExecuteTest.h **** 	}
 8218              		.loc 4 30 0 is_stmt 0 discriminator 1
 8219 3d7b 4189C4   		movl	%eax, %r12d
 8220 3d7e 488B85E0 		movq	-1568(%rbp), %rax
 8220      F9FFFF
 8221 3d85 4889C7   		movq	%rax, %rdi
 8222 3d88 E8000000 		call	_ZNK8UnitTest15AssertException8FilenameEv
 8222      00
  30:../ExecuteTest.h **** 	}
 8223              		.loc 4 30 0 discriminator 2
 8224 3d8d 4889C1   		movq	%rax, %rcx
 8225 3d90 488B85D0 		movq	-1584(%rbp), %rax
 8225      F9FFFF
 8226 3d97 488B10   		movq	(%rax), %rdx
 8227 3d9a 488B85D0 		movq	-1584(%rbp), %rax
 8227      F9FFFF
 8228 3da1 488B7008 		movq	8(%rax), %rsi
 8229 3da5 488D85F0 		leaq	-1552(%rbp), %rax
 8229      F9FFFF
 8230 3dac 4589E0   		movl	%r12d, %r8d
 8231 3daf 4889C7   		movq	%rax, %rdi
 8232 3db2 E8000000 		call	_ZN8UnitTest11TestDetailsC1EPKcS2_S2_i
 8232      00
  29:../ExecuteTest.h **** 			TestDetails(details.testName, details.suiteName, e.Filename(), e.LineNumber()), e.what());
 8233              		.loc 4 29 0 is_stmt 1
 8234 3db7 E8000000 		call	_ZN8UnitTest11CurrentTest7ResultsEv
 8234      00
  30:../ExecuteTest.h **** 	}
 8235              		.loc 4 30 0
 8236 3dbc 488B00   		movq	(%rax), %rax
  29:../ExecuteTest.h **** 			TestDetails(details.testName, details.suiteName, e.Filename(), e.LineNumber()), e.what());
 8237              		.loc 4 29 0
 8238 3dbf 488D8DF0 		leaq	-1552(%rbp), %rcx
 8238      F9FFFF
 8239 3dc6 4889DA   		movq	%rbx, %rdx
 8240 3dc9 4889CE   		movq	%rcx, %rsi
 8241 3dcc 4889C7   		movq	%rax, %rdi
 8242 3dcf E8000000 		call	_ZN8UnitTest11TestResults13OnTestFailureERKNS_11TestDetailsEPKc
 8242      00
 8243              	.LEHE258:
  27:../ExecuteTest.h **** 	{
 8244              		.loc 4 27 0
 8245 3dd4 E8000000 		call	__cxa_end_catch
 8245      00
 8246              	.LBE227:
 8247              	.LBE229:
 8248              		.loc 4 42 0
 8249 3dd9 E9CE0000 		jmp	.L480
 8249      00
 8250              	.L465:
 8251              	.LBB230:
 8252              	.LBB228:
  32:../ExecuteTest.h **** 	{
 8253              		.loc 4 32 0
 8254 3dde 4889C7   		movq	%rax, %rdi
 8255 3de1 E8000000 		call	__cxa_begin_catch
 8255      00
 8256 3de6 488985E8 		movq	%rax, -1560(%rbp)
 8256      F9FFFF
 8257              	.LBB226:
  34:../ExecuteTest.h **** 		stream << "Unhandled exception: " << e.what();
 8258              		.loc 4 34 0
 8259 3ded 488D8510 		leaq	-1520(%rbp), %rax
 8259      FAFFFF
 8260 3df4 4889C7   		movq	%rax, %rdi
 8261              	.LEHB259:
 8262 3df7 E8000000 		call	_ZN8UnitTest15MemoryOutStreamC1Ev
 8262      00
 8263              	.LEHE259:
  35:../ExecuteTest.h **** 		CurrentTest::Results()->OnTestFailure(details, stream.GetText());
 8264              		.loc 4 35 0
 8265 3dfc 488B85E8 		movq	-1560(%rbp), %rax
 8265      F9FFFF
 8266 3e03 488B00   		movq	(%rax), %rax
 8267 3e06 4883C010 		addq	$16, %rax
 8268 3e0a 488B00   		movq	(%rax), %rax
 8269 3e0d 488B95E8 		movq	-1560(%rbp), %rdx
 8269      F9FFFF
 8270 3e14 4889D7   		movq	%rdx, %rdi
 8271 3e17 FFD0     		call	*%rax
 8272 3e19 4889C3   		movq	%rax, %rbx
 8273 3e1c 488D8510 		leaq	-1520(%rbp), %rax
 8273      FAFFFF
 8274 3e23 BE000000 		movl	$.LC3, %esi
 8274      00
 8275 3e28 4889C7   		movq	%rax, %rdi
 8276              	.LEHB260:
 8277 3e2b E8000000 		call	_ZStlsISt11char_traitsIcEERSt13basic_ostreamIcT_ES5_PKc
 8277      00
  35:../ExecuteTest.h **** 		CurrentTest::Results()->OnTestFailure(details, stream.GetText());
 8278              		.loc 4 35 0 is_stmt 0 discriminator 1
 8279 3e30 4889DE   		movq	%rbx, %rsi
 8280 3e33 4889C7   		movq	%rax, %rdi
 8281 3e36 E8000000 		call	_ZStlsISt11char_traitsIcEERSt13basic_ostreamIcT_ES5_PKc
 8281      00
  36:../ExecuteTest.h **** 	}
 8282              		.loc 4 36 0 is_stmt 1
 8283 3e3b 488D8510 		leaq	-1520(%rbp), %rax
 8283      FAFFFF
 8284 3e42 4889C7   		movq	%rax, %rdi
 8285 3e45 E8000000 		call	_ZNK8UnitTest15MemoryOutStream7GetTextEv
 8285      00
 8286 3e4a 4889C3   		movq	%rax, %rbx
 8287 3e4d E8000000 		call	_ZN8UnitTest11CurrentTest7ResultsEv
 8287      00
  36:../ExecuteTest.h **** 	}
 8288              		.loc 4 36 0 is_stmt 0 discriminator 2
 8289 3e52 488B00   		movq	(%rax), %rax
 8290 3e55 488B8DD0 		movq	-1584(%rbp), %rcx
 8290      F9FFFF
 8291 3e5c 4889DA   		movq	%rbx, %rdx
 8292 3e5f 4889CE   		movq	%rcx, %rsi
 8293 3e62 4889C7   		movq	%rax, %rdi
 8294 3e65 E8000000 		call	_ZN8UnitTest11TestResults13OnTestFailureERKNS_11TestDetailsEPKc
 8294      00
 8295              	.LEHE260:
  36:../ExecuteTest.h **** 	}
 8296              		.loc 4 36 0 discriminator 6
 8297 3e6a 488D8510 		leaq	-1520(%rbp), %rax
 8297      FAFFFF
 8298 3e71 4889C7   		movq	%rax, %rdi
 8299              	.LEHB261:
 8300 3e74 E8000000 		call	_ZN8UnitTest15MemoryOutStreamD1Ev
 8300      00
 8301              	.LEHE261:
 8302              	.LBE226:
  32:../ExecuteTest.h **** 	{
 8303              		.loc 4 32 0 is_stmt 1
 8304 3e79 E8000000 		call	__cxa_end_catch
 8304      00
 8305              	.LBE228:
 8306              	.LBE230:
 8307              		.loc 4 42 0
 8308 3e7e EB2C     		jmp	.L480
 8309              	.L479:
 8310              	.LBB231:
  38:../ExecuteTest.h **** 	{
 8311              		.loc 4 38 0
 8312 3e80 4889C7   		movq	%rax, %rdi
 8313 3e83 E8000000 		call	__cxa_begin_catch
 8313      00
 8314              	.LEHB262:
  40:../ExecuteTest.h **** 	}
 8315              		.loc 4 40 0
 8316 3e88 E8000000 		call	_ZN8UnitTest11CurrentTest7ResultsEv
 8316      00
 8317 3e8d 488B00   		movq	(%rax), %rax
 8318 3e90 488B8DD0 		movq	-1584(%rbp), %rcx
 8318      F9FFFF
 8319 3e97 BA000000 		movl	$.LC44, %edx
 8319      00
 8320 3e9c 4889CE   		movq	%rcx, %rsi
 8321 3e9f 4889C7   		movq	%rax, %rdi
 8322 3ea2 E8000000 		call	_ZN8UnitTest11TestResults13OnTestFailureERKNS_11TestDetailsEPKc
 8322      00
 8323              	.LEHE262:
 8324              	.LEHB263:
  38:../ExecuteTest.h **** 	{
 8325              		.loc 4 38 0
 8326 3ea7 E8000000 		call	__cxa_end_catch
 8326      00
 8327              	.LEHE263:
 8328              	.L480:
 8329              	.LBE231:
 8330              		.loc 4 42 0
 8331 3eac 90       		nop
 8332 3ead 488B45E8 		movq	-24(%rbp), %rax
 8333 3eb1 64483304 		xorq	%fs:40, %rax
 8333      25280000 
 8333      00
 8334 3eba 7405     		je	.L471
 8335 3ebc E8000000 		call	__stack_chk_fail
 8335      00
 8336              	.L471:
 8337 3ec1 4881C420 		addq	$1568, %rsp
 8337      060000
 8338 3ec8 5B       		popq	%rbx
 8339 3ec9 415C     		popq	%r12
 8340 3ecb 5D       		popq	%rbp
 8341              		.cfi_def_cfa 7, 8
 8342 3ecc C3       		ret
 8343              		.cfi_endproc
 8344              	.LFE1466:
 8345              		.section	.gcc_except_table
 8346              		.align 4
 8347              	.LLSDA1466:
 8348 0720 FF       		.byte	0xff
 8349 0721 03       		.byte	0x3
 8350 0722 5D       		.uleb128 .LLSDATT1466-.LLSDATTD1466
 8351              	.LLSDATTD1466:
 8352 0723 01       		.byte	0x1
 8353 0724 47       		.uleb128 .LLSDACSE1466-.LLSDACSB1466
 8354              	.LLSDACSB1466:
 8355 0725 2B       		.uleb128 .LEHB251-.LFB1466
 8356 0726 05       		.uleb128 .LEHE251-.LEHB251
 8357 0727 00       		.uleb128 0
 8358 0728 00       		.uleb128 0
 8359 0729 47       		.uleb128 .LEHB252-.LFB1466
 8360 072a 05       		.uleb128 .LEHE252-.LEHB252
 8361 072b CC01     		.uleb128 .L472-.LFB1466
 8362 072d 05       		.uleb128 0x5
 8363 072e 8701     		.uleb128 .LEHB253-.LFB1466
 8364 0730 14       		.uleb128 .LEHE253-.LEHB253
 8365 0731 AF01     		.uleb128 .L473-.LFB1466
 8366 0733 07       		.uleb128 0x7
 8367 0734 A501     		.uleb128 .LEHB254-.LFB1466
 8368 0736 05       		.uleb128 .LEHE254-.LEHB254
 8369 0737 CC01     		.uleb128 .L472-.LFB1466
 8370 0739 05       		.uleb128 0x5
 8371 073a EF01     		.uleb128 .LEHB255-.LFB1466
 8372 073c 05       		.uleb128 .LEHE255-.LEHB255
 8373 073d 00       		.uleb128 0
 8374 073e 00       		.uleb128 0
 8375 073f 9602     		.uleb128 .LEHB256-.LFB1466
 8376 0741 05       		.uleb128 .LEHE256-.LEHB256
 8377 0742 00       		.uleb128 0
 8378 0743 00       		.uleb128 0
 8379 0744 A902     		.uleb128 .LEHB257-.LFB1466
 8380 0746 05       		.uleb128 .LEHE257-.LEHB257
 8381 0747 00       		.uleb128 0
 8382 0748 00       		.uleb128 0
 8383 0749 E702     		.uleb128 .LEHB258-.LFB1466
 8384 074b 5E       		.uleb128 .LEHE258-.LEHB258
 8385 074c E101     		.uleb128 .L474-.LFB1466
 8386 074e 00       		.uleb128 0
 8387 074f E803     		.uleb128 .LEHB259-.LFB1466
 8388 0751 05       		.uleb128 .LEHE259-.LEHB259
 8389 0752 8802     		.uleb128 .L476-.LFB1466
 8390 0754 00       		.uleb128 0
 8391 0755 9C04     		.uleb128 .LEHB260-.LFB1466
 8392 0757 3F       		.uleb128 .LEHE260-.LEHB260
 8393 0758 F401     		.uleb128 .L475-.LFB1466
 8394 075a 00       		.uleb128 0
 8395 075b E504     		.uleb128 .LEHB261-.LFB1466
 8396 075d 05       		.uleb128 .LEHE261-.LEHB261
 8397 075e 8802     		.uleb128 .L476-.LFB1466
 8398 0760 00       		.uleb128 0
 8399 0761 F904     		.uleb128 .LEHB262-.LFB1466
 8400 0763 1F       		.uleb128 .LEHE262-.LEHB262
 8401 0764 9B02     		.uleb128 .L477-.LFB1466
 8402 0766 00       		.uleb128 0
 8403 0767 9805     		.uleb128 .LEHB263-.LFB1466
 8404 0769 05       		.uleb128 .LEHE263-.LEHB263
 8405 076a 00       		.uleb128 0
 8406 076b 00       		.uleb128 0
 8407              	.LLSDACSE1466:
 8408 076c 03       		.byte	0x3
 8409 076d 00       		.byte	0
 8410 076e 02       		.byte	0x2
 8411 076f 7D       		.byte	0x7d
 8412 0770 01       		.byte	0x1
 8413 0771 7D       		.byte	0x7d
 8414 0772 00       		.byte	0
 8415 0773 7D       		.byte	0x7d
 8416              		.align 4
 8417 0774 00000000 		.long	0
 8418              	
 8419 0778 00000000 		.long	_ZTISt9exception
 8420 077c 00000000 		.long	_ZTIN8UnitTest15AssertExceptionE
 8421              	.LLSDATT1466:
 8422              		.text
 8425              	_ZN8UnitTest11ExecuteTestIN12_GLOBAL__N_144XmlTestReporterFixtureMultipleFailuresHelperEEEvRT_RKNS_
 8426              	.LFB1467:
  16:../ExecuteTest.h **** {
 8427              		.loc 4 16 0
 8428              		.cfi_startproc
 8429              		.cfi_personality 0x3,__gxx_personality_v0
 8430              		.cfi_lsda 0x3,.LLSDA1467
 8431 3ecd 55       		pushq	%rbp
 8432              		.cfi_def_cfa_offset 16
 8433              		.cfi_offset 6, -16
 8434 3ece 4889E5   		movq	%rsp, %rbp
 8435              		.cfi_def_cfa_register 6
 8436 3ed1 4154     		pushq	%r12
 8437 3ed3 53       		pushq	%rbx
 8438 3ed4 4881EC20 		subq	$1568, %rsp
 8438      060000
 8439              		.cfi_offset 12, -24
 8440              		.cfi_offset 3, -32
 8441 3edb 4889BDD8 		movq	%rdi, -1576(%rbp)
 8441      F9FFFF
 8442 3ee2 4889B5D0 		movq	%rsi, -1584(%rbp)
 8442      F9FFFF
  16:../ExecuteTest.h **** {
 8443              		.loc 4 16 0
 8444 3ee9 64488B04 		movq	%fs:40, %rax
 8444      25280000 
 8444      00
 8445 3ef2 488945E8 		movq	%rax, -24(%rbp)
 8446 3ef6 31C0     		xorl	%eax, %eax
 8447              	.LEHB264:
 8448              	.LBB232:
  18:../ExecuteTest.h **** 
 8449              		.loc 4 18 0
 8450 3ef8 E8000000 		call	_ZN8UnitTest11CurrentTest7DetailsEv
 8450      00
 8451              	.LEHE264:
 8452 3efd 4889C2   		movq	%rax, %rdx
 8453 3f00 488B85D0 		movq	-1584(%rbp), %rax
 8453      F9FFFF
 8454 3f07 488902   		movq	%rax, (%rdx)
 8455              	.LBB233:
  23:../ExecuteTest.h **** #endif
 8456              		.loc 4 23 0
 8457 3f0a 488D8580 		leaq	-1152(%rbp), %rax
 8457      FBFFFF
 8458 3f11 4889C7   		movq	%rax, %rdi
 8459              	.LEHB265:
 8460 3f14 E8000000 		call	_ZN8UnitTest16SignalTranslatorC1Ev
 8460      00
 8461              	.LEHE265:
  23:../ExecuteTest.h **** #endif
 8462              		.loc 4 23 0 is_stmt 0 discriminator 1
 8463 3f19 488B0500 		movq	_ZN8UnitTest16SignalTranslator12s_jumpTargetE(%rip), %rax
 8463      000000
 8464 3f20 BE010000 		movl	$1, %esi
 8464      00
 8465 3f25 4889C7   		movq	%rax, %rdi
 8466 3f28 E8000000 		call	__sigsetjmp
 8466      00
 8467 3f2d 85C0     		testl	%eax, %eax
 8468 3f2f 0F95C0   		setne	%al
 8469 3f32 84C0     		testb	%al, %al
 8470 3f34 7423     		je	.L501
  23:../ExecuteTest.h **** #endif
 8471              		.loc 4 23 0 discriminator 3
 8472 3f36 BF080000 		movl	$8, %edi
 8472      00
 8473 3f3b E8000000 		call	__cxa_allocate_exception
 8473      00
 8474 3f40 48C70000 		movq	$.LC43, (%rax)
 8474      000000
 8475 3f47 BA000000 		movl	$0, %edx
 8475      00
 8476 3f4c BE000000 		movl	$_ZTIPKc, %esi
 8476      00
 8477 3f51 4889C7   		movq	%rax, %rdi
 8478              	.LEHB266:
 8479 3f54 E8000000 		call	__cxa_throw
 8479      00
 8480              	.L501:
  25:../ExecuteTest.h **** 	}
 8481              		.loc 4 25 0 is_stmt 1
 8482 3f59 488B85D8 		movq	-1576(%rbp), %rax
 8482      F9FFFF
 8483 3f60 4889C7   		movq	%rax, %rdi
 8484 3f63 E81CEAFF 		call	_ZN12_GLOBAL__N_144XmlTestReporterFixtureMultipleFailuresHelper7RunImplEv
 8484      FF
 8485              	.LEHE266:
  25:../ExecuteTest.h **** 	}
 8486              		.loc 4 25 0 is_stmt 0 discriminator 2
 8487 3f68 488D8580 		leaq	-1152(%rbp), %rax
 8487      FBFFFF
 8488 3f6f 4889C7   		movq	%rax, %rdi
 8489              	.LEHB267:
 8490 3f72 E8000000 		call	_ZN8UnitTest16SignalTranslatorD1Ev
 8490      00
 8491              	.LEHE267:
 8492              	.LBE233:
 8493              	.LBE232:
 8494              		.loc 4 42 0 is_stmt 1
 8495 3f77 E9EE0100 		jmp	.L503
 8495      00
 8496              	.L496:
 8497 3f7c 4989C4   		movq	%rax, %r12
 8498 3f7f 4889D3   		movq	%rdx, %rbx
 8499              	.LBB241:
 8500              	.LBB234:
  25:../ExecuteTest.h **** 	}
 8501              		.loc 4 25 0
 8502 3f82 488D8580 		leaq	-1152(%rbp), %rax
 8502      FBFFFF
 8503 3f89 4889C7   		movq	%rax, %rdi
 8504 3f8c E8000000 		call	_ZN8UnitTest16SignalTranslatorD1Ev
 8504      00
 8505 3f91 4C89E0   		movq	%r12, %rax
 8506 3f94 4889DA   		movq	%rbx, %rdx
 8507 3f97 EB00     		jmp	.L485
 8508              	.L495:
 8509              	.L485:
 8510 3f99 4883FA01 		cmpq	$1, %rdx
 8511 3f9d 745C     		je	.L487
 8512 3f9f 4883FA02 		cmpq	$2, %rdx
 8513 3fa3 0F84F300 		je	.L488
 8513      0000
 8514 3fa9 E9900100 		jmp	.L502
 8514      00
 8515              	.L497:
 8516 3fae 4889C3   		movq	%rax, %rbx
 8517              	.LBE234:
 8518              	.LBB235:
  27:../ExecuteTest.h **** 	{
 8519              		.loc 4 27 0
 8520 3fb1 E8000000 		call	__cxa_end_catch
 8520      00
 8521 3fb6 4889D8   		movq	%rbx, %rax
 8522 3fb9 4889C7   		movq	%rax, %rdi
 8523              	.LEHB268:
 8524 3fbc E8000000 		call	_Unwind_Resume
 8524      00
 8525              	.LEHE268:
 8526              	.L498:
 8527 3fc1 4889C3   		movq	%rax, %rbx
 8528              	.LBE235:
 8529              	.LBB236:
 8530              	.LBB237:
  36:../ExecuteTest.h **** 	}
 8531              		.loc 4 36 0
 8532 3fc4 488D8510 		leaq	-1520(%rbp), %rax
 8532      FAFFFF
 8533 3fcb 4889C7   		movq	%rax, %rdi
 8534 3fce E8000000 		call	_ZN8UnitTest15MemoryOutStreamD1Ev
 8534      00
 8535 3fd3 EB03     		jmp	.L491
 8536              	.L499:
 8537 3fd5 4889C3   		movq	%rax, %rbx
 8538              	.L491:
 8539              	.LBE237:
  32:../ExecuteTest.h **** 	{
 8540              		.loc 4 32 0
 8541 3fd8 E8000000 		call	__cxa_end_catch
 8541      00
 8542 3fdd 4889D8   		movq	%rbx, %rax
 8543 3fe0 4889C7   		movq	%rax, %rdi
 8544              	.LEHB269:
 8545 3fe3 E8000000 		call	_Unwind_Resume
 8545      00
 8546              	.LEHE269:
 8547              	.L500:
 8548 3fe8 4889C3   		movq	%rax, %rbx
 8549              	.LBE236:
  38:../ExecuteTest.h **** 	{
 8550              		.loc 4 38 0
 8551 3feb E8000000 		call	__cxa_end_catch
 8551      00
 8552 3ff0 4889D8   		movq	%rbx, %rax
 8553 3ff3 4889C7   		movq	%rax, %rdi
 8554              	.LEHB270:
 8555 3ff6 E8000000 		call	_Unwind_Resume
 8555      00
 8556              	.LEHE270:
 8557              	.L487:
 8558              	.LBB239:
  27:../ExecuteTest.h **** 	{
 8559              		.loc 4 27 0
 8560 3ffb 4889C7   		movq	%rax, %rdi
 8561 3ffe E8000000 		call	__cxa_begin_catch
 8561      00
 8562 4003 488985E0 		movq	%rax, -1568(%rbp)
 8562      F9FFFF
  30:../ExecuteTest.h **** 	}
 8563              		.loc 4 30 0
 8564 400a 488B85E0 		movq	-1568(%rbp), %rax
 8564      F9FFFF
 8565 4011 488B00   		movq	(%rax), %rax
 8566 4014 4883C010 		addq	$16, %rax
 8567 4018 488B00   		movq	(%rax), %rax
 8568 401b 488B95E0 		movq	-1568(%rbp), %rdx
 8568      F9FFFF
 8569 4022 4889D7   		movq	%rdx, %rdi
 8570 4025 FFD0     		call	*%rax
 8571 4027 4889C3   		movq	%rax, %rbx
 8572 402a 488B85E0 		movq	-1568(%rbp), %rax
 8572      F9FFFF
 8573 4031 4889C7   		movq	%rax, %rdi
 8574              	.LEHB271:
 8575 4034 E8000000 		call	_ZNK8UnitTest15AssertException10LineNumberEv
 8575      00
  30:../ExecuteTest.h **** 	}
 8576              		.loc 4 30 0 is_stmt 0 discriminator 1
 8577 4039 4189C4   		movl	%eax, %r12d
 8578 403c 488B85E0 		movq	-1568(%rbp), %rax
 8578      F9FFFF
 8579 4043 4889C7   		movq	%rax, %rdi
 8580 4046 E8000000 		call	_ZNK8UnitTest15AssertException8FilenameEv
 8580      00
  30:../ExecuteTest.h **** 	}
 8581              		.loc 4 30 0 discriminator 2
 8582 404b 4889C1   		movq	%rax, %rcx
 8583 404e 488B85D0 		movq	-1584(%rbp), %rax
 8583      F9FFFF
 8584 4055 488B10   		movq	(%rax), %rdx
 8585 4058 488B85D0 		movq	-1584(%rbp), %rax
 8585      F9FFFF
 8586 405f 488B7008 		movq	8(%rax), %rsi
 8587 4063 488D85F0 		leaq	-1552(%rbp), %rax
 8587      F9FFFF
 8588 406a 4589E0   		movl	%r12d, %r8d
 8589 406d 4889C7   		movq	%rax, %rdi
 8590 4070 E8000000 		call	_ZN8UnitTest11TestDetailsC1EPKcS2_S2_i
 8590      00
  29:../ExecuteTest.h **** 			TestDetails(details.testName, details.suiteName, e.Filename(), e.LineNumber()), e.what());
 8591              		.loc 4 29 0 is_stmt 1
 8592 4075 E8000000 		call	_ZN8UnitTest11CurrentTest7ResultsEv
 8592      00
  30:../ExecuteTest.h **** 	}
 8593              		.loc 4 30 0
 8594 407a 488B00   		movq	(%rax), %rax
  29:../ExecuteTest.h **** 			TestDetails(details.testName, details.suiteName, e.Filename(), e.LineNumber()), e.what());
 8595              		.loc 4 29 0
 8596 407d 488D8DF0 		leaq	-1552(%rbp), %rcx
 8596      F9FFFF
 8597 4084 4889DA   		movq	%rbx, %rdx
 8598 4087 4889CE   		movq	%rcx, %rsi
 8599 408a 4889C7   		movq	%rax, %rdi
 8600 408d E8000000 		call	_ZN8UnitTest11TestResults13OnTestFailureERKNS_11TestDetailsEPKc
 8600      00
 8601              	.LEHE271:
  27:../ExecuteTest.h **** 	{
 8602              		.loc 4 27 0
 8603 4092 E8000000 		call	__cxa_end_catch
 8603      00
 8604              	.LBE239:
 8605              	.LBE241:
 8606              		.loc 4 42 0
 8607 4097 E9CE0000 		jmp	.L503
 8607      00
 8608              	.L488:
 8609              	.LBB242:
 8610              	.LBB240:
  32:../ExecuteTest.h **** 	{
 8611              		.loc 4 32 0
 8612 409c 4889C7   		movq	%rax, %rdi
 8613 409f E8000000 		call	__cxa_begin_catch
 8613      00
 8614 40a4 488985E8 		movq	%rax, -1560(%rbp)
 8614      F9FFFF
 8615              	.LBB238:
  34:../ExecuteTest.h **** 		stream << "Unhandled exception: " << e.what();
 8616              		.loc 4 34 0
 8617 40ab 488D8510 		leaq	-1520(%rbp), %rax
 8617      FAFFFF
 8618 40b2 4889C7   		movq	%rax, %rdi
 8619              	.LEHB272:
 8620 40b5 E8000000 		call	_ZN8UnitTest15MemoryOutStreamC1Ev
 8620      00
 8621              	.LEHE272:
  35:../ExecuteTest.h **** 		CurrentTest::Results()->OnTestFailure(details, stream.GetText());
 8622              		.loc 4 35 0
 8623 40ba 488B85E8 		movq	-1560(%rbp), %rax
 8623      F9FFFF
 8624 40c1 488B00   		movq	(%rax), %rax
 8625 40c4 4883C010 		addq	$16, %rax
 8626 40c8 488B00   		movq	(%rax), %rax
 8627 40cb 488B95E8 		movq	-1560(%rbp), %rdx
 8627      F9FFFF
 8628 40d2 4889D7   		movq	%rdx, %rdi
 8629 40d5 FFD0     		call	*%rax
 8630 40d7 4889C3   		movq	%rax, %rbx
 8631 40da 488D8510 		leaq	-1520(%rbp), %rax
 8631      FAFFFF
 8632 40e1 BE000000 		movl	$.LC3, %esi
 8632      00
 8633 40e6 4889C7   		movq	%rax, %rdi
 8634              	.LEHB273:
 8635 40e9 E8000000 		call	_ZStlsISt11char_traitsIcEERSt13basic_ostreamIcT_ES5_PKc
 8635      00
  35:../ExecuteTest.h **** 		CurrentTest::Results()->OnTestFailure(details, stream.GetText());
 8636              		.loc 4 35 0 is_stmt 0 discriminator 1
 8637 40ee 4889DE   		movq	%rbx, %rsi
 8638 40f1 4889C7   		movq	%rax, %rdi
 8639 40f4 E8000000 		call	_ZStlsISt11char_traitsIcEERSt13basic_ostreamIcT_ES5_PKc
 8639      00
  36:../ExecuteTest.h **** 	}
 8640              		.loc 4 36 0 is_stmt 1
 8641 40f9 488D8510 		leaq	-1520(%rbp), %rax
 8641      FAFFFF
 8642 4100 4889C7   		movq	%rax, %rdi
 8643 4103 E8000000 		call	_ZNK8UnitTest15MemoryOutStream7GetTextEv
 8643      00
 8644 4108 4889C3   		movq	%rax, %rbx
 8645 410b E8000000 		call	_ZN8UnitTest11CurrentTest7ResultsEv
 8645      00
  36:../ExecuteTest.h **** 	}
 8646              		.loc 4 36 0 is_stmt 0 discriminator 2
 8647 4110 488B00   		movq	(%rax), %rax
 8648 4113 488B8DD0 		movq	-1584(%rbp), %rcx
 8648      F9FFFF
 8649 411a 4889DA   		movq	%rbx, %rdx
 8650 411d 4889CE   		movq	%rcx, %rsi
 8651 4120 4889C7   		movq	%rax, %rdi
 8652 4123 E8000000 		call	_ZN8UnitTest11TestResults13OnTestFailureERKNS_11TestDetailsEPKc
 8652      00
 8653              	.LEHE273:
  36:../ExecuteTest.h **** 	}
 8654              		.loc 4 36 0 discriminator 6
 8655 4128 488D8510 		leaq	-1520(%rbp), %rax
 8655      FAFFFF
 8656 412f 4889C7   		movq	%rax, %rdi
 8657              	.LEHB274:
 8658 4132 E8000000 		call	_ZN8UnitTest15MemoryOutStreamD1Ev
 8658      00
 8659              	.LEHE274:
 8660              	.LBE238:
  32:../ExecuteTest.h **** 	{
 8661              		.loc 4 32 0 is_stmt 1
 8662 4137 E8000000 		call	__cxa_end_catch
 8662      00
 8663              	.LBE240:
 8664              	.LBE242:
 8665              		.loc 4 42 0
 8666 413c EB2C     		jmp	.L503
 8667              	.L502:
 8668              	.LBB243:
  38:../ExecuteTest.h **** 	{
 8669              		.loc 4 38 0
 8670 413e 4889C7   		movq	%rax, %rdi
 8671 4141 E8000000 		call	__cxa_begin_catch
 8671      00
 8672              	.LEHB275:
  40:../ExecuteTest.h **** 	}
 8673              		.loc 4 40 0
 8674 4146 E8000000 		call	_ZN8UnitTest11CurrentTest7ResultsEv
 8674      00
 8675 414b 488B00   		movq	(%rax), %rax
 8676 414e 488B8DD0 		movq	-1584(%rbp), %rcx
 8676      F9FFFF
 8677 4155 BA000000 		movl	$.LC44, %edx
 8677      00
 8678 415a 4889CE   		movq	%rcx, %rsi
 8679 415d 4889C7   		movq	%rax, %rdi
 8680 4160 E8000000 		call	_ZN8UnitTest11TestResults13OnTestFailureERKNS_11TestDetailsEPKc
 8680      00
 8681              	.LEHE275:
 8682              	.LEHB276:
  38:../ExecuteTest.h **** 	{
 8683              		.loc 4 38 0
 8684 4165 E8000000 		call	__cxa_end_catch
 8684      00
 8685              	.LEHE276:
 8686              	.L503:
 8687              	.LBE243:
 8688              		.loc 4 42 0
 8689 416a 90       		nop
 8690 416b 488B45E8 		movq	-24(%rbp), %rax
 8691 416f 64483304 		xorq	%fs:40, %rax
 8691      25280000 
 8691      00
 8692 4178 7405     		je	.L494
 8693 417a E8000000 		call	__stack_chk_fail
 8693      00
 8694              	.L494:
 8695 417f 4881C420 		addq	$1568, %rsp
 8695      060000
 8696 4186 5B       		popq	%rbx
 8697 4187 415C     		popq	%r12
 8698 4189 5D       		popq	%rbp
 8699              		.cfi_def_cfa 7, 8
 8700 418a C3       		ret
 8701              		.cfi_endproc
 8702              	.LFE1467:
 8703              		.section	.gcc_except_table
 8704              		.align 4
 8705              	.LLSDA1467:
 8706 0780 FF       		.byte	0xff
 8707 0781 03       		.byte	0x3
 8708 0782 5D       		.uleb128 .LLSDATT1467-.LLSDATTD1467
 8709              	.LLSDATTD1467:
 8710 0783 01       		.byte	0x1
 8711 0784 47       		.uleb128 .LLSDACSE1467-.LLSDACSB1467
 8712              	.LLSDACSB1467:
 8713 0785 2B       		.uleb128 .LEHB264-.LFB1467
 8714 0786 05       		.uleb128 .LEHE264-.LEHB264
 8715 0787 00       		.uleb128 0
 8716 0788 00       		.uleb128 0
 8717 0789 47       		.uleb128 .LEHB265-.LFB1467
 8718 078a 05       		.uleb128 .LEHE265-.LEHB265
 8719 078b CC01     		.uleb128 .L495-.LFB1467
 8720 078d 05       		.uleb128 0x5
 8721 078e 8701     		.uleb128 .LEHB266-.LFB1467
 8722 0790 14       		.uleb128 .LEHE266-.LEHB266
 8723 0791 AF01     		.uleb128 .L496-.LFB1467
 8724 0793 07       		.uleb128 0x7
 8725 0794 A501     		.uleb128 .LEHB267-.LFB1467
 8726 0796 05       		.uleb128 .LEHE267-.LEHB267
 8727 0797 CC01     		.uleb128 .L495-.LFB1467
 8728 0799 05       		.uleb128 0x5
 8729 079a EF01     		.uleb128 .LEHB268-.LFB1467
 8730 079c 05       		.uleb128 .LEHE268-.LEHB268
 8731 079d 00       		.uleb128 0
 8732 079e 00       		.uleb128 0
 8733 079f 9602     		.uleb128 .LEHB269-.LFB1467
 8734 07a1 05       		.uleb128 .LEHE269-.LEHB269
 8735 07a2 00       		.uleb128 0
 8736 07a3 00       		.uleb128 0
 8737 07a4 A902     		.uleb128 .LEHB270-.LFB1467
 8738 07a6 05       		.uleb128 .LEHE270-.LEHB270
 8739 07a7 00       		.uleb128 0
 8740 07a8 00       		.uleb128 0
 8741 07a9 E702     		.uleb128 .LEHB271-.LFB1467
 8742 07ab 5E       		.uleb128 .LEHE271-.LEHB271
 8743 07ac E101     		.uleb128 .L497-.LFB1467
 8744 07ae 00       		.uleb128 0
 8745 07af E803     		.uleb128 .LEHB272-.LFB1467
 8746 07b1 05       		.uleb128 .LEHE272-.LEHB272
 8747 07b2 8802     		.uleb128 .L499-.LFB1467
 8748 07b4 00       		.uleb128 0
 8749 07b5 9C04     		.uleb128 .LEHB273-.LFB1467
 8750 07b7 3F       		.uleb128 .LEHE273-.LEHB273
 8751 07b8 F401     		.uleb128 .L498-.LFB1467
 8752 07ba 00       		.uleb128 0
 8753 07bb E504     		.uleb128 .LEHB274-.LFB1467
 8754 07bd 05       		.uleb128 .LEHE274-.LEHB274
 8755 07be 8802     		.uleb128 .L499-.LFB1467
 8756 07c0 00       		.uleb128 0
 8757 07c1 F904     		.uleb128 .LEHB275-.LFB1467
 8758 07c3 1F       		.uleb128 .LEHE275-.LEHB275
 8759 07c4 9B02     		.uleb128 .L500-.LFB1467
 8760 07c6 00       		.uleb128 0
 8761 07c7 9805     		.uleb128 .LEHB276-.LFB1467
 8762 07c9 05       		.uleb128 .LEHE276-.LEHB276
 8763 07ca 00       		.uleb128 0
 8764 07cb 00       		.uleb128 0
 8765              	.LLSDACSE1467:
 8766 07cc 03       		.byte	0x3
 8767 07cd 00       		.byte	0
 8768 07ce 02       		.byte	0x2
 8769 07cf 7D       		.byte	0x7d
 8770 07d0 01       		.byte	0x1
 8771 07d1 7D       		.byte	0x7d
 8772 07d2 00       		.byte	0
 8773 07d3 7D       		.byte	0x7d
 8774              		.align 4
 8775 07d4 00000000 		.long	0
 8776              	
 8777 07d8 00000000 		.long	_ZTISt9exception
 8778 07dc 00000000 		.long	_ZTIN8UnitTest15AssertExceptionE
 8779              	.LLSDATT1467:
 8780              		.text
 8782              		.section	.text._ZSteqIcSt11char_traitsIcESaIcEEbPKT_RKSbIS3_T0_T1_E,"axG",@progbits,_ZSteqIcSt11ch
 8783              		.weak	_ZSteqIcSt11char_traitsIcESaIcEEbPKT_RKSbIS3_T0_T1_E
 8785              	_ZSteqIcSt11char_traitsIcESaIcEEbPKT_RKSbIS3_T0_T1_E:
 8786              	.LFB1500:
 8787              		.file 6 "/usr/include/c++/4.9/bits/basic_string.h"
   1:/usr/include/c++/4.9/bits/basic_string.h **** // Components for manipulating sequences of characters -*- C++ -*-
   2:/usr/include/c++/4.9/bits/basic_string.h **** 
   3:/usr/include/c++/4.9/bits/basic_string.h **** // Copyright (C) 1997-2014 Free Software Foundation, Inc.
   4:/usr/include/c++/4.9/bits/basic_string.h **** //
   5:/usr/include/c++/4.9/bits/basic_string.h **** // This file is part of the GNU ISO C++ Library.  This library is free
   6:/usr/include/c++/4.9/bits/basic_string.h **** // software; you can redistribute it and/or modify it under the
   7:/usr/include/c++/4.9/bits/basic_string.h **** // terms of the GNU General Public License as published by the
   8:/usr/include/c++/4.9/bits/basic_string.h **** // Free Software Foundation; either version 3, or (at your option)
   9:/usr/include/c++/4.9/bits/basic_string.h **** // any later version.
  10:/usr/include/c++/4.9/bits/basic_string.h **** 
  11:/usr/include/c++/4.9/bits/basic_string.h **** // This library is distributed in the hope that it will be useful,
  12:/usr/include/c++/4.9/bits/basic_string.h **** // but WITHOUT ANY WARRANTY; without even the implied warranty of
  13:/usr/include/c++/4.9/bits/basic_string.h **** // MERCHANTABILITY or FITNESS FOR A PARTICULAR PURPOSE.  See the
  14:/usr/include/c++/4.9/bits/basic_string.h **** // GNU General Public License for more details.
  15:/usr/include/c++/4.9/bits/basic_string.h **** 
  16:/usr/include/c++/4.9/bits/basic_string.h **** // Under Section 7 of GPL version 3, you are granted additional
  17:/usr/include/c++/4.9/bits/basic_string.h **** // permissions described in the GCC Runtime Library Exception, version
  18:/usr/include/c++/4.9/bits/basic_string.h **** // 3.1, as published by the Free Software Foundation.
  19:/usr/include/c++/4.9/bits/basic_string.h **** 
  20:/usr/include/c++/4.9/bits/basic_string.h **** // You should have received a copy of the GNU General Public License and
  21:/usr/include/c++/4.9/bits/basic_string.h **** // a copy of the GCC Runtime Library Exception along with this program;
  22:/usr/include/c++/4.9/bits/basic_string.h **** // see the files COPYING3 and COPYING.RUNTIME respectively.  If not, see
  23:/usr/include/c++/4.9/bits/basic_string.h **** // <http://www.gnu.org/licenses/>.
  24:/usr/include/c++/4.9/bits/basic_string.h **** 
  25:/usr/include/c++/4.9/bits/basic_string.h **** /** @file bits/basic_string.h
  26:/usr/include/c++/4.9/bits/basic_string.h ****  *  This is an internal header file, included by other library headers.
  27:/usr/include/c++/4.9/bits/basic_string.h ****  *  Do not attempt to use it directly. @headername{string}
  28:/usr/include/c++/4.9/bits/basic_string.h ****  */
  29:/usr/include/c++/4.9/bits/basic_string.h **** 
  30:/usr/include/c++/4.9/bits/basic_string.h **** //
  31:/usr/include/c++/4.9/bits/basic_string.h **** // ISO C++ 14882: 21 Strings library
  32:/usr/include/c++/4.9/bits/basic_string.h **** //
  33:/usr/include/c++/4.9/bits/basic_string.h **** 
  34:/usr/include/c++/4.9/bits/basic_string.h **** #ifndef _BASIC_STRING_H
  35:/usr/include/c++/4.9/bits/basic_string.h **** #define _BASIC_STRING_H 1
  36:/usr/include/c++/4.9/bits/basic_string.h **** 
  37:/usr/include/c++/4.9/bits/basic_string.h **** #pragma GCC system_header
  38:/usr/include/c++/4.9/bits/basic_string.h **** 
  39:/usr/include/c++/4.9/bits/basic_string.h **** #include <ext/atomicity.h>
  40:/usr/include/c++/4.9/bits/basic_string.h **** #include <debug/debug.h>
  41:/usr/include/c++/4.9/bits/basic_string.h **** #if __cplusplus >= 201103L
  42:/usr/include/c++/4.9/bits/basic_string.h **** #include <initializer_list>
  43:/usr/include/c++/4.9/bits/basic_string.h **** #endif
  44:/usr/include/c++/4.9/bits/basic_string.h **** 
  45:/usr/include/c++/4.9/bits/basic_string.h **** namespace std _GLIBCXX_VISIBILITY(default)
  46:/usr/include/c++/4.9/bits/basic_string.h **** {
  47:/usr/include/c++/4.9/bits/basic_string.h **** _GLIBCXX_BEGIN_NAMESPACE_VERSION
  48:/usr/include/c++/4.9/bits/basic_string.h **** 
  49:/usr/include/c++/4.9/bits/basic_string.h ****   /**
  50:/usr/include/c++/4.9/bits/basic_string.h ****    *  @class basic_string basic_string.h <string>
  51:/usr/include/c++/4.9/bits/basic_string.h ****    *  @brief  Managing sequences of characters and character-like objects.
  52:/usr/include/c++/4.9/bits/basic_string.h ****    *
  53:/usr/include/c++/4.9/bits/basic_string.h ****    *  @ingroup strings
  54:/usr/include/c++/4.9/bits/basic_string.h ****    *  @ingroup sequences
  55:/usr/include/c++/4.9/bits/basic_string.h ****    *
  56:/usr/include/c++/4.9/bits/basic_string.h ****    *  @tparam _CharT  Type of character
  57:/usr/include/c++/4.9/bits/basic_string.h ****    *  @tparam _Traits  Traits for character type, defaults to
  58:/usr/include/c++/4.9/bits/basic_string.h ****    *                   char_traits<_CharT>.
  59:/usr/include/c++/4.9/bits/basic_string.h ****    *  @tparam _Alloc  Allocator type, defaults to allocator<_CharT>.
  60:/usr/include/c++/4.9/bits/basic_string.h ****    *
  61:/usr/include/c++/4.9/bits/basic_string.h ****    *  Meets the requirements of a <a href="tables.html#65">container</a>, a
  62:/usr/include/c++/4.9/bits/basic_string.h ****    *  <a href="tables.html#66">reversible container</a>, and a
  63:/usr/include/c++/4.9/bits/basic_string.h ****    *  <a href="tables.html#67">sequence</a>.  Of the
  64:/usr/include/c++/4.9/bits/basic_string.h ****    *  <a href="tables.html#68">optional sequence requirements</a>, only
  65:/usr/include/c++/4.9/bits/basic_string.h ****    *  @c push_back, @c at, and @c %array access are supported.
  66:/usr/include/c++/4.9/bits/basic_string.h ****    *
  67:/usr/include/c++/4.9/bits/basic_string.h ****    *  @doctodo
  68:/usr/include/c++/4.9/bits/basic_string.h ****    *
  69:/usr/include/c++/4.9/bits/basic_string.h ****    *
  70:/usr/include/c++/4.9/bits/basic_string.h ****    *  Documentation?  What's that?
  71:/usr/include/c++/4.9/bits/basic_string.h ****    *  Nathan Myers <ncm@cantrip.org>.
  72:/usr/include/c++/4.9/bits/basic_string.h ****    *
  73:/usr/include/c++/4.9/bits/basic_string.h ****    *  A string looks like this:
  74:/usr/include/c++/4.9/bits/basic_string.h ****    *
  75:/usr/include/c++/4.9/bits/basic_string.h ****    *  @code
  76:/usr/include/c++/4.9/bits/basic_string.h ****    *                                        [_Rep]
  77:/usr/include/c++/4.9/bits/basic_string.h ****    *                                        _M_length
  78:/usr/include/c++/4.9/bits/basic_string.h ****    *   [basic_string<char_type>]            _M_capacity
  79:/usr/include/c++/4.9/bits/basic_string.h ****    *   _M_dataplus                          _M_refcount
  80:/usr/include/c++/4.9/bits/basic_string.h ****    *   _M_p ---------------->               unnamed array of char_type
  81:/usr/include/c++/4.9/bits/basic_string.h ****    *  @endcode
  82:/usr/include/c++/4.9/bits/basic_string.h ****    *
  83:/usr/include/c++/4.9/bits/basic_string.h ****    *  Where the _M_p points to the first character in the string, and
  84:/usr/include/c++/4.9/bits/basic_string.h ****    *  you cast it to a pointer-to-_Rep and subtract 1 to get a
  85:/usr/include/c++/4.9/bits/basic_string.h ****    *  pointer to the header.
  86:/usr/include/c++/4.9/bits/basic_string.h ****    *
  87:/usr/include/c++/4.9/bits/basic_string.h ****    *  This approach has the enormous advantage that a string object
  88:/usr/include/c++/4.9/bits/basic_string.h ****    *  requires only one allocation.  All the ugliness is confined
  89:/usr/include/c++/4.9/bits/basic_string.h ****    *  within a single %pair of inline functions, which each compile to
  90:/usr/include/c++/4.9/bits/basic_string.h ****    *  a single @a add instruction: _Rep::_M_data(), and
  91:/usr/include/c++/4.9/bits/basic_string.h ****    *  string::_M_rep(); and the allocation function which gets a
  92:/usr/include/c++/4.9/bits/basic_string.h ****    *  block of raw bytes and with room enough and constructs a _Rep
  93:/usr/include/c++/4.9/bits/basic_string.h ****    *  object at the front.
  94:/usr/include/c++/4.9/bits/basic_string.h ****    *
  95:/usr/include/c++/4.9/bits/basic_string.h ****    *  The reason you want _M_data pointing to the character %array and
  96:/usr/include/c++/4.9/bits/basic_string.h ****    *  not the _Rep is so that the debugger can see the string
  97:/usr/include/c++/4.9/bits/basic_string.h ****    *  contents. (Probably we should add a non-inline member to get
  98:/usr/include/c++/4.9/bits/basic_string.h ****    *  the _Rep for the debugger to use, so users can check the actual
  99:/usr/include/c++/4.9/bits/basic_string.h ****    *  string length.)
 100:/usr/include/c++/4.9/bits/basic_string.h ****    *
 101:/usr/include/c++/4.9/bits/basic_string.h ****    *  Note that the _Rep object is a POD so that you can have a
 102:/usr/include/c++/4.9/bits/basic_string.h ****    *  static <em>empty string</em> _Rep object already @a constructed before
 103:/usr/include/c++/4.9/bits/basic_string.h ****    *  static constructors have run.  The reference-count encoding is
 104:/usr/include/c++/4.9/bits/basic_string.h ****    *  chosen so that a 0 indicates one reference, so you never try to
 105:/usr/include/c++/4.9/bits/basic_string.h ****    *  destroy the empty-string _Rep object.
 106:/usr/include/c++/4.9/bits/basic_string.h ****    *
 107:/usr/include/c++/4.9/bits/basic_string.h ****    *  All but the last paragraph is considered pretty conventional
 108:/usr/include/c++/4.9/bits/basic_string.h ****    *  for a C++ string implementation.
 109:/usr/include/c++/4.9/bits/basic_string.h ****   */
 110:/usr/include/c++/4.9/bits/basic_string.h ****   // 21.3  Template class basic_string
 111:/usr/include/c++/4.9/bits/basic_string.h ****   template<typename _CharT, typename _Traits, typename _Alloc>
 112:/usr/include/c++/4.9/bits/basic_string.h ****     class basic_string
 113:/usr/include/c++/4.9/bits/basic_string.h ****     {
 114:/usr/include/c++/4.9/bits/basic_string.h ****       typedef typename _Alloc::template rebind<_CharT>::other _CharT_alloc_type;
 115:/usr/include/c++/4.9/bits/basic_string.h **** 
 116:/usr/include/c++/4.9/bits/basic_string.h ****       // Types:
 117:/usr/include/c++/4.9/bits/basic_string.h ****     public:
 118:/usr/include/c++/4.9/bits/basic_string.h ****       typedef _Traits					    traits_type;
 119:/usr/include/c++/4.9/bits/basic_string.h ****       typedef typename _Traits::char_type		    value_type;
 120:/usr/include/c++/4.9/bits/basic_string.h ****       typedef _Alloc					    allocator_type;
 121:/usr/include/c++/4.9/bits/basic_string.h ****       typedef typename _CharT_alloc_type::size_type	    size_type;
 122:/usr/include/c++/4.9/bits/basic_string.h ****       typedef typename _CharT_alloc_type::difference_type   difference_type;
 123:/usr/include/c++/4.9/bits/basic_string.h ****       typedef typename _CharT_alloc_type::reference	    reference;
 124:/usr/include/c++/4.9/bits/basic_string.h ****       typedef typename _CharT_alloc_type::const_reference   const_reference;
 125:/usr/include/c++/4.9/bits/basic_string.h ****       typedef typename _CharT_alloc_type::pointer	    pointer;
 126:/usr/include/c++/4.9/bits/basic_string.h ****       typedef typename _CharT_alloc_type::const_pointer	    const_pointer;
 127:/usr/include/c++/4.9/bits/basic_string.h ****       typedef __gnu_cxx::__normal_iterator<pointer, basic_string>  iterator;
 128:/usr/include/c++/4.9/bits/basic_string.h ****       typedef __gnu_cxx::__normal_iterator<const_pointer, basic_string>
 129:/usr/include/c++/4.9/bits/basic_string.h ****                                                             const_iterator;
 130:/usr/include/c++/4.9/bits/basic_string.h ****       typedef std::reverse_iterator<const_iterator>	const_reverse_iterator;
 131:/usr/include/c++/4.9/bits/basic_string.h ****       typedef std::reverse_iterator<iterator>		    reverse_iterator;
 132:/usr/include/c++/4.9/bits/basic_string.h **** 
 133:/usr/include/c++/4.9/bits/basic_string.h ****     private:
 134:/usr/include/c++/4.9/bits/basic_string.h ****       // _Rep: string representation
 135:/usr/include/c++/4.9/bits/basic_string.h ****       //   Invariants:
 136:/usr/include/c++/4.9/bits/basic_string.h ****       //   1. String really contains _M_length + 1 characters: due to 21.3.4
 137:/usr/include/c++/4.9/bits/basic_string.h ****       //      must be kept null-terminated.
 138:/usr/include/c++/4.9/bits/basic_string.h ****       //   2. _M_capacity >= _M_length
 139:/usr/include/c++/4.9/bits/basic_string.h ****       //      Allocated memory is always (_M_capacity + 1) * sizeof(_CharT).
 140:/usr/include/c++/4.9/bits/basic_string.h ****       //   3. _M_refcount has three states:
 141:/usr/include/c++/4.9/bits/basic_string.h ****       //      -1: leaked, one reference, no ref-copies allowed, non-const.
 142:/usr/include/c++/4.9/bits/basic_string.h ****       //       0: one reference, non-const.
 143:/usr/include/c++/4.9/bits/basic_string.h ****       //     n>0: n + 1 references, operations require a lock, const.
 144:/usr/include/c++/4.9/bits/basic_string.h ****       //   4. All fields==0 is an empty string, given the extra storage
 145:/usr/include/c++/4.9/bits/basic_string.h ****       //      beyond-the-end for a null terminator; thus, the shared
 146:/usr/include/c++/4.9/bits/basic_string.h ****       //      empty string representation needs no constructor.
 147:/usr/include/c++/4.9/bits/basic_string.h **** 
 148:/usr/include/c++/4.9/bits/basic_string.h ****       struct _Rep_base
 149:/usr/include/c++/4.9/bits/basic_string.h ****       {
 150:/usr/include/c++/4.9/bits/basic_string.h **** 	size_type		_M_length;
 151:/usr/include/c++/4.9/bits/basic_string.h **** 	size_type		_M_capacity;
 152:/usr/include/c++/4.9/bits/basic_string.h **** 	_Atomic_word		_M_refcount;
 153:/usr/include/c++/4.9/bits/basic_string.h ****       };
 154:/usr/include/c++/4.9/bits/basic_string.h **** 
 155:/usr/include/c++/4.9/bits/basic_string.h ****       struct _Rep : _Rep_base
 156:/usr/include/c++/4.9/bits/basic_string.h ****       {
 157:/usr/include/c++/4.9/bits/basic_string.h **** 	// Types:
 158:/usr/include/c++/4.9/bits/basic_string.h **** 	typedef typename _Alloc::template rebind<char>::other _Raw_bytes_alloc;
 159:/usr/include/c++/4.9/bits/basic_string.h **** 
 160:/usr/include/c++/4.9/bits/basic_string.h **** 	// (Public) Data members:
 161:/usr/include/c++/4.9/bits/basic_string.h **** 
 162:/usr/include/c++/4.9/bits/basic_string.h **** 	// The maximum number of individual char_type elements of an
 163:/usr/include/c++/4.9/bits/basic_string.h **** 	// individual string is determined by _S_max_size. This is the
 164:/usr/include/c++/4.9/bits/basic_string.h **** 	// value that will be returned by max_size().  (Whereas npos
 165:/usr/include/c++/4.9/bits/basic_string.h **** 	// is the maximum number of bytes the allocator can allocate.)
 166:/usr/include/c++/4.9/bits/basic_string.h **** 	// If one was to divvy up the theoretical largest size string,
 167:/usr/include/c++/4.9/bits/basic_string.h **** 	// with a terminating character and m _CharT elements, it'd
 168:/usr/include/c++/4.9/bits/basic_string.h **** 	// look like this:
 169:/usr/include/c++/4.9/bits/basic_string.h **** 	// npos = sizeof(_Rep) + (m * sizeof(_CharT)) + sizeof(_CharT)
 170:/usr/include/c++/4.9/bits/basic_string.h **** 	// Solving for m:
 171:/usr/include/c++/4.9/bits/basic_string.h **** 	// m = ((npos - sizeof(_Rep))/sizeof(CharT)) - 1
 172:/usr/include/c++/4.9/bits/basic_string.h **** 	// In addition, this implementation quarters this amount.
 173:/usr/include/c++/4.9/bits/basic_string.h **** 	static const size_type	_S_max_size;
 174:/usr/include/c++/4.9/bits/basic_string.h **** 	static const _CharT	_S_terminal;
 175:/usr/include/c++/4.9/bits/basic_string.h **** 
 176:/usr/include/c++/4.9/bits/basic_string.h **** 	// The following storage is init'd to 0 by the linker, resulting
 177:/usr/include/c++/4.9/bits/basic_string.h ****         // (carefully) in an empty string with one reference.
 178:/usr/include/c++/4.9/bits/basic_string.h ****         static size_type _S_empty_rep_storage[];
 179:/usr/include/c++/4.9/bits/basic_string.h **** 
 180:/usr/include/c++/4.9/bits/basic_string.h ****         static _Rep&
 181:/usr/include/c++/4.9/bits/basic_string.h ****         _S_empty_rep() _GLIBCXX_NOEXCEPT
 182:/usr/include/c++/4.9/bits/basic_string.h ****         { 
 183:/usr/include/c++/4.9/bits/basic_string.h **** 	  // NB: Mild hack to avoid strict-aliasing warnings.  Note that
 184:/usr/include/c++/4.9/bits/basic_string.h **** 	  // _S_empty_rep_storage is never modified and the punning should
 185:/usr/include/c++/4.9/bits/basic_string.h **** 	  // be reasonably safe in this case.
 186:/usr/include/c++/4.9/bits/basic_string.h **** 	  void* __p = reinterpret_cast<void*>(&_S_empty_rep_storage);
 187:/usr/include/c++/4.9/bits/basic_string.h **** 	  return *reinterpret_cast<_Rep*>(__p);
 188:/usr/include/c++/4.9/bits/basic_string.h **** 	}
 189:/usr/include/c++/4.9/bits/basic_string.h **** 
 190:/usr/include/c++/4.9/bits/basic_string.h ****         bool
 191:/usr/include/c++/4.9/bits/basic_string.h **** 	_M_is_leaked() const _GLIBCXX_NOEXCEPT
 192:/usr/include/c++/4.9/bits/basic_string.h ****         { return this->_M_refcount < 0; }
 193:/usr/include/c++/4.9/bits/basic_string.h **** 
 194:/usr/include/c++/4.9/bits/basic_string.h ****         bool
 195:/usr/include/c++/4.9/bits/basic_string.h **** 	_M_is_shared() const _GLIBCXX_NOEXCEPT
 196:/usr/include/c++/4.9/bits/basic_string.h ****         { return this->_M_refcount > 0; }
 197:/usr/include/c++/4.9/bits/basic_string.h **** 
 198:/usr/include/c++/4.9/bits/basic_string.h ****         void
 199:/usr/include/c++/4.9/bits/basic_string.h **** 	_M_set_leaked() _GLIBCXX_NOEXCEPT
 200:/usr/include/c++/4.9/bits/basic_string.h ****         { this->_M_refcount = -1; }
 201:/usr/include/c++/4.9/bits/basic_string.h **** 
 202:/usr/include/c++/4.9/bits/basic_string.h ****         void
 203:/usr/include/c++/4.9/bits/basic_string.h **** 	_M_set_sharable() _GLIBCXX_NOEXCEPT
 204:/usr/include/c++/4.9/bits/basic_string.h ****         { this->_M_refcount = 0; }
 205:/usr/include/c++/4.9/bits/basic_string.h **** 
 206:/usr/include/c++/4.9/bits/basic_string.h **** 	void
 207:/usr/include/c++/4.9/bits/basic_string.h **** 	_M_set_length_and_sharable(size_type __n) _GLIBCXX_NOEXCEPT
 208:/usr/include/c++/4.9/bits/basic_string.h **** 	{
 209:/usr/include/c++/4.9/bits/basic_string.h **** #if _GLIBCXX_FULLY_DYNAMIC_STRING == 0
 210:/usr/include/c++/4.9/bits/basic_string.h **** 	  if (__builtin_expect(this != &_S_empty_rep(), false))
 211:/usr/include/c++/4.9/bits/basic_string.h **** #endif
 212:/usr/include/c++/4.9/bits/basic_string.h **** 	    {
 213:/usr/include/c++/4.9/bits/basic_string.h **** 	      this->_M_set_sharable();  // One reference.
 214:/usr/include/c++/4.9/bits/basic_string.h **** 	      this->_M_length = __n;
 215:/usr/include/c++/4.9/bits/basic_string.h **** 	      traits_type::assign(this->_M_refdata()[__n], _S_terminal);
 216:/usr/include/c++/4.9/bits/basic_string.h **** 	      // grrr. (per 21.3.4)
 217:/usr/include/c++/4.9/bits/basic_string.h **** 	      // You cannot leave those LWG people alone for a second.
 218:/usr/include/c++/4.9/bits/basic_string.h **** 	    }
 219:/usr/include/c++/4.9/bits/basic_string.h **** 	}
 220:/usr/include/c++/4.9/bits/basic_string.h **** 
 221:/usr/include/c++/4.9/bits/basic_string.h **** 	_CharT*
 222:/usr/include/c++/4.9/bits/basic_string.h **** 	_M_refdata() throw()
 223:/usr/include/c++/4.9/bits/basic_string.h **** 	{ return reinterpret_cast<_CharT*>(this + 1); }
 224:/usr/include/c++/4.9/bits/basic_string.h **** 
 225:/usr/include/c++/4.9/bits/basic_string.h **** 	_CharT*
 226:/usr/include/c++/4.9/bits/basic_string.h **** 	_M_grab(const _Alloc& __alloc1, const _Alloc& __alloc2)
 227:/usr/include/c++/4.9/bits/basic_string.h **** 	{
 228:/usr/include/c++/4.9/bits/basic_string.h **** 	  return (!_M_is_leaked() && __alloc1 == __alloc2)
 229:/usr/include/c++/4.9/bits/basic_string.h **** 	          ? _M_refcopy() : _M_clone(__alloc1);
 230:/usr/include/c++/4.9/bits/basic_string.h **** 	}
 231:/usr/include/c++/4.9/bits/basic_string.h **** 
 232:/usr/include/c++/4.9/bits/basic_string.h **** 	// Create & Destroy
 233:/usr/include/c++/4.9/bits/basic_string.h **** 	static _Rep*
 234:/usr/include/c++/4.9/bits/basic_string.h **** 	_S_create(size_type, size_type, const _Alloc&);
 235:/usr/include/c++/4.9/bits/basic_string.h **** 
 236:/usr/include/c++/4.9/bits/basic_string.h **** 	void
 237:/usr/include/c++/4.9/bits/basic_string.h **** 	_M_dispose(const _Alloc& __a) _GLIBCXX_NOEXCEPT
 238:/usr/include/c++/4.9/bits/basic_string.h **** 	{
 239:/usr/include/c++/4.9/bits/basic_string.h **** #if _GLIBCXX_FULLY_DYNAMIC_STRING == 0
 240:/usr/include/c++/4.9/bits/basic_string.h **** 	  if (__builtin_expect(this != &_S_empty_rep(), false))
 241:/usr/include/c++/4.9/bits/basic_string.h **** #endif
 242:/usr/include/c++/4.9/bits/basic_string.h **** 	    {
 243:/usr/include/c++/4.9/bits/basic_string.h **** 	      // Be race-detector-friendly.  For more info see bits/c++config.
 244:/usr/include/c++/4.9/bits/basic_string.h **** 	      _GLIBCXX_SYNCHRONIZATION_HAPPENS_BEFORE(&this->_M_refcount);
 245:/usr/include/c++/4.9/bits/basic_string.h **** 	      if (__gnu_cxx::__exchange_and_add_dispatch(&this->_M_refcount,
 246:/usr/include/c++/4.9/bits/basic_string.h **** 							 -1) <= 0)
 247:/usr/include/c++/4.9/bits/basic_string.h **** 		{
 248:/usr/include/c++/4.9/bits/basic_string.h **** 		  _GLIBCXX_SYNCHRONIZATION_HAPPENS_AFTER(&this->_M_refcount);
 249:/usr/include/c++/4.9/bits/basic_string.h **** 		  _M_destroy(__a);
 250:/usr/include/c++/4.9/bits/basic_string.h **** 		}
 251:/usr/include/c++/4.9/bits/basic_string.h **** 	    }
 252:/usr/include/c++/4.9/bits/basic_string.h **** 	}  // XXX MT
 253:/usr/include/c++/4.9/bits/basic_string.h **** 
 254:/usr/include/c++/4.9/bits/basic_string.h **** 	void
 255:/usr/include/c++/4.9/bits/basic_string.h **** 	_M_destroy(const _Alloc&) throw();
 256:/usr/include/c++/4.9/bits/basic_string.h **** 
 257:/usr/include/c++/4.9/bits/basic_string.h **** 	_CharT*
 258:/usr/include/c++/4.9/bits/basic_string.h **** 	_M_refcopy() throw()
 259:/usr/include/c++/4.9/bits/basic_string.h **** 	{
 260:/usr/include/c++/4.9/bits/basic_string.h **** #if _GLIBCXX_FULLY_DYNAMIC_STRING == 0
 261:/usr/include/c++/4.9/bits/basic_string.h **** 	  if (__builtin_expect(this != &_S_empty_rep(), false))
 262:/usr/include/c++/4.9/bits/basic_string.h **** #endif
 263:/usr/include/c++/4.9/bits/basic_string.h ****             __gnu_cxx::__atomic_add_dispatch(&this->_M_refcount, 1);
 264:/usr/include/c++/4.9/bits/basic_string.h **** 	  return _M_refdata();
 265:/usr/include/c++/4.9/bits/basic_string.h **** 	}  // XXX MT
 266:/usr/include/c++/4.9/bits/basic_string.h **** 
 267:/usr/include/c++/4.9/bits/basic_string.h **** 	_CharT*
 268:/usr/include/c++/4.9/bits/basic_string.h **** 	_M_clone(const _Alloc&, size_type __res = 0);
 269:/usr/include/c++/4.9/bits/basic_string.h ****       };
 270:/usr/include/c++/4.9/bits/basic_string.h **** 
 271:/usr/include/c++/4.9/bits/basic_string.h ****       // Use empty-base optimization: http://www.cantrip.org/emptyopt.html
 272:/usr/include/c++/4.9/bits/basic_string.h ****       struct _Alloc_hider : _Alloc
 273:/usr/include/c++/4.9/bits/basic_string.h ****       {
 274:/usr/include/c++/4.9/bits/basic_string.h **** 	_Alloc_hider(_CharT* __dat, const _Alloc& __a) _GLIBCXX_NOEXCEPT
 275:/usr/include/c++/4.9/bits/basic_string.h **** 	: _Alloc(__a), _M_p(__dat) { }
 276:/usr/include/c++/4.9/bits/basic_string.h **** 
 277:/usr/include/c++/4.9/bits/basic_string.h **** 	_CharT* _M_p; // The actual data.
 278:/usr/include/c++/4.9/bits/basic_string.h ****       };
 279:/usr/include/c++/4.9/bits/basic_string.h **** 
 280:/usr/include/c++/4.9/bits/basic_string.h ****     public:
 281:/usr/include/c++/4.9/bits/basic_string.h ****       // Data Members (public):
 282:/usr/include/c++/4.9/bits/basic_string.h ****       // NB: This is an unsigned type, and thus represents the maximum
 283:/usr/include/c++/4.9/bits/basic_string.h ****       // size that the allocator can hold.
 284:/usr/include/c++/4.9/bits/basic_string.h ****       ///  Value returned by various member functions when they fail.
 285:/usr/include/c++/4.9/bits/basic_string.h ****       static const size_type	npos = static_cast<size_type>(-1);
 286:/usr/include/c++/4.9/bits/basic_string.h **** 
 287:/usr/include/c++/4.9/bits/basic_string.h ****     private:
 288:/usr/include/c++/4.9/bits/basic_string.h ****       // Data Members (private):
 289:/usr/include/c++/4.9/bits/basic_string.h ****       mutable _Alloc_hider	_M_dataplus;
 290:/usr/include/c++/4.9/bits/basic_string.h **** 
 291:/usr/include/c++/4.9/bits/basic_string.h ****       _CharT*
 292:/usr/include/c++/4.9/bits/basic_string.h ****       _M_data() const _GLIBCXX_NOEXCEPT
 293:/usr/include/c++/4.9/bits/basic_string.h ****       { return  _M_dataplus._M_p; }
 294:/usr/include/c++/4.9/bits/basic_string.h **** 
 295:/usr/include/c++/4.9/bits/basic_string.h ****       _CharT*
 296:/usr/include/c++/4.9/bits/basic_string.h ****       _M_data(_CharT* __p) _GLIBCXX_NOEXCEPT
 297:/usr/include/c++/4.9/bits/basic_string.h ****       { return (_M_dataplus._M_p = __p); }
 298:/usr/include/c++/4.9/bits/basic_string.h **** 
 299:/usr/include/c++/4.9/bits/basic_string.h ****       _Rep*
 300:/usr/include/c++/4.9/bits/basic_string.h ****       _M_rep() const _GLIBCXX_NOEXCEPT
 301:/usr/include/c++/4.9/bits/basic_string.h ****       { return &((reinterpret_cast<_Rep*> (_M_data()))[-1]); }
 302:/usr/include/c++/4.9/bits/basic_string.h **** 
 303:/usr/include/c++/4.9/bits/basic_string.h ****       // For the internal use we have functions similar to `begin'/`end'
 304:/usr/include/c++/4.9/bits/basic_string.h ****       // but they do not call _M_leak.
 305:/usr/include/c++/4.9/bits/basic_string.h ****       iterator
 306:/usr/include/c++/4.9/bits/basic_string.h ****       _M_ibegin() const _GLIBCXX_NOEXCEPT
 307:/usr/include/c++/4.9/bits/basic_string.h ****       { return iterator(_M_data()); }
 308:/usr/include/c++/4.9/bits/basic_string.h **** 
 309:/usr/include/c++/4.9/bits/basic_string.h ****       iterator
 310:/usr/include/c++/4.9/bits/basic_string.h ****       _M_iend() const _GLIBCXX_NOEXCEPT
 311:/usr/include/c++/4.9/bits/basic_string.h ****       { return iterator(_M_data() + this->size()); }
 312:/usr/include/c++/4.9/bits/basic_string.h **** 
 313:/usr/include/c++/4.9/bits/basic_string.h ****       void
 314:/usr/include/c++/4.9/bits/basic_string.h ****       _M_leak()    // for use in begin() & non-const op[]
 315:/usr/include/c++/4.9/bits/basic_string.h ****       {
 316:/usr/include/c++/4.9/bits/basic_string.h **** 	if (!_M_rep()->_M_is_leaked())
 317:/usr/include/c++/4.9/bits/basic_string.h **** 	  _M_leak_hard();
 318:/usr/include/c++/4.9/bits/basic_string.h ****       }
 319:/usr/include/c++/4.9/bits/basic_string.h **** 
 320:/usr/include/c++/4.9/bits/basic_string.h ****       size_type
 321:/usr/include/c++/4.9/bits/basic_string.h ****       _M_check(size_type __pos, const char* __s) const
 322:/usr/include/c++/4.9/bits/basic_string.h ****       {
 323:/usr/include/c++/4.9/bits/basic_string.h **** 	if (__pos > this->size())
 324:/usr/include/c++/4.9/bits/basic_string.h **** 	  __throw_out_of_range_fmt(__N("%s: __pos (which is %zu) > "
 325:/usr/include/c++/4.9/bits/basic_string.h **** 				       "this->size() (which is %zu)"),
 326:/usr/include/c++/4.9/bits/basic_string.h **** 				   __s, __pos, this->size());
 327:/usr/include/c++/4.9/bits/basic_string.h **** 	return __pos;
 328:/usr/include/c++/4.9/bits/basic_string.h ****       }
 329:/usr/include/c++/4.9/bits/basic_string.h **** 
 330:/usr/include/c++/4.9/bits/basic_string.h ****       void
 331:/usr/include/c++/4.9/bits/basic_string.h ****       _M_check_length(size_type __n1, size_type __n2, const char* __s) const
 332:/usr/include/c++/4.9/bits/basic_string.h ****       {
 333:/usr/include/c++/4.9/bits/basic_string.h **** 	if (this->max_size() - (this->size() - __n1) < __n2)
 334:/usr/include/c++/4.9/bits/basic_string.h **** 	  __throw_length_error(__N(__s));
 335:/usr/include/c++/4.9/bits/basic_string.h ****       }
 336:/usr/include/c++/4.9/bits/basic_string.h **** 
 337:/usr/include/c++/4.9/bits/basic_string.h ****       // NB: _M_limit doesn't check for a bad __pos value.
 338:/usr/include/c++/4.9/bits/basic_string.h ****       size_type
 339:/usr/include/c++/4.9/bits/basic_string.h ****       _M_limit(size_type __pos, size_type __off) const _GLIBCXX_NOEXCEPT
 340:/usr/include/c++/4.9/bits/basic_string.h ****       {
 341:/usr/include/c++/4.9/bits/basic_string.h **** 	const bool __testoff =  __off < this->size() - __pos;
 342:/usr/include/c++/4.9/bits/basic_string.h **** 	return __testoff ? __off : this->size() - __pos;
 343:/usr/include/c++/4.9/bits/basic_string.h ****       }
 344:/usr/include/c++/4.9/bits/basic_string.h **** 
 345:/usr/include/c++/4.9/bits/basic_string.h ****       // True if _Rep and source do not overlap.
 346:/usr/include/c++/4.9/bits/basic_string.h ****       bool
 347:/usr/include/c++/4.9/bits/basic_string.h ****       _M_disjunct(const _CharT* __s) const _GLIBCXX_NOEXCEPT
 348:/usr/include/c++/4.9/bits/basic_string.h ****       {
 349:/usr/include/c++/4.9/bits/basic_string.h **** 	return (less<const _CharT*>()(__s, _M_data())
 350:/usr/include/c++/4.9/bits/basic_string.h **** 		|| less<const _CharT*>()(_M_data() + this->size(), __s));
 351:/usr/include/c++/4.9/bits/basic_string.h ****       }
 352:/usr/include/c++/4.9/bits/basic_string.h **** 
 353:/usr/include/c++/4.9/bits/basic_string.h ****       // When __n = 1 way faster than the general multichar
 354:/usr/include/c++/4.9/bits/basic_string.h ****       // traits_type::copy/move/assign.
 355:/usr/include/c++/4.9/bits/basic_string.h ****       static void
 356:/usr/include/c++/4.9/bits/basic_string.h ****       _M_copy(_CharT* __d, const _CharT* __s, size_type __n) _GLIBCXX_NOEXCEPT
 357:/usr/include/c++/4.9/bits/basic_string.h ****       {
 358:/usr/include/c++/4.9/bits/basic_string.h **** 	if (__n == 1)
 359:/usr/include/c++/4.9/bits/basic_string.h **** 	  traits_type::assign(*__d, *__s);
 360:/usr/include/c++/4.9/bits/basic_string.h **** 	else
 361:/usr/include/c++/4.9/bits/basic_string.h **** 	  traits_type::copy(__d, __s, __n);
 362:/usr/include/c++/4.9/bits/basic_string.h ****       }
 363:/usr/include/c++/4.9/bits/basic_string.h **** 
 364:/usr/include/c++/4.9/bits/basic_string.h ****       static void
 365:/usr/include/c++/4.9/bits/basic_string.h ****       _M_move(_CharT* __d, const _CharT* __s, size_type __n) _GLIBCXX_NOEXCEPT
 366:/usr/include/c++/4.9/bits/basic_string.h ****       {
 367:/usr/include/c++/4.9/bits/basic_string.h **** 	if (__n == 1)
 368:/usr/include/c++/4.9/bits/basic_string.h **** 	  traits_type::assign(*__d, *__s);
 369:/usr/include/c++/4.9/bits/basic_string.h **** 	else
 370:/usr/include/c++/4.9/bits/basic_string.h **** 	  traits_type::move(__d, __s, __n);	  
 371:/usr/include/c++/4.9/bits/basic_string.h ****       }
 372:/usr/include/c++/4.9/bits/basic_string.h **** 
 373:/usr/include/c++/4.9/bits/basic_string.h ****       static void
 374:/usr/include/c++/4.9/bits/basic_string.h ****       _M_assign(_CharT* __d, size_type __n, _CharT __c) _GLIBCXX_NOEXCEPT
 375:/usr/include/c++/4.9/bits/basic_string.h ****       {
 376:/usr/include/c++/4.9/bits/basic_string.h **** 	if (__n == 1)
 377:/usr/include/c++/4.9/bits/basic_string.h **** 	  traits_type::assign(*__d, __c);
 378:/usr/include/c++/4.9/bits/basic_string.h **** 	else
 379:/usr/include/c++/4.9/bits/basic_string.h **** 	  traits_type::assign(__d, __n, __c);	  
 380:/usr/include/c++/4.9/bits/basic_string.h ****       }
 381:/usr/include/c++/4.9/bits/basic_string.h **** 
 382:/usr/include/c++/4.9/bits/basic_string.h ****       // _S_copy_chars is a separate template to permit specialization
 383:/usr/include/c++/4.9/bits/basic_string.h ****       // to optimize for the common case of pointers as iterators.
 384:/usr/include/c++/4.9/bits/basic_string.h ****       template<class _Iterator>
 385:/usr/include/c++/4.9/bits/basic_string.h ****         static void
 386:/usr/include/c++/4.9/bits/basic_string.h ****         _S_copy_chars(_CharT* __p, _Iterator __k1, _Iterator __k2)
 387:/usr/include/c++/4.9/bits/basic_string.h **** 	_GLIBCXX_NOEXCEPT
 388:/usr/include/c++/4.9/bits/basic_string.h ****         {
 389:/usr/include/c++/4.9/bits/basic_string.h **** 	  for (; __k1 != __k2; ++__k1, ++__p)
 390:/usr/include/c++/4.9/bits/basic_string.h **** 	    traits_type::assign(*__p, *__k1); // These types are off.
 391:/usr/include/c++/4.9/bits/basic_string.h **** 	}
 392:/usr/include/c++/4.9/bits/basic_string.h **** 
 393:/usr/include/c++/4.9/bits/basic_string.h ****       static void
 394:/usr/include/c++/4.9/bits/basic_string.h ****       _S_copy_chars(_CharT* __p, iterator __k1, iterator __k2) _GLIBCXX_NOEXCEPT
 395:/usr/include/c++/4.9/bits/basic_string.h ****       { _S_copy_chars(__p, __k1.base(), __k2.base()); }
 396:/usr/include/c++/4.9/bits/basic_string.h **** 
 397:/usr/include/c++/4.9/bits/basic_string.h ****       static void
 398:/usr/include/c++/4.9/bits/basic_string.h ****       _S_copy_chars(_CharT* __p, const_iterator __k1, const_iterator __k2)
 399:/usr/include/c++/4.9/bits/basic_string.h ****       _GLIBCXX_NOEXCEPT
 400:/usr/include/c++/4.9/bits/basic_string.h ****       { _S_copy_chars(__p, __k1.base(), __k2.base()); }
 401:/usr/include/c++/4.9/bits/basic_string.h **** 
 402:/usr/include/c++/4.9/bits/basic_string.h ****       static void
 403:/usr/include/c++/4.9/bits/basic_string.h ****       _S_copy_chars(_CharT* __p, _CharT* __k1, _CharT* __k2) _GLIBCXX_NOEXCEPT
 404:/usr/include/c++/4.9/bits/basic_string.h ****       { _M_copy(__p, __k1, __k2 - __k1); }
 405:/usr/include/c++/4.9/bits/basic_string.h **** 
 406:/usr/include/c++/4.9/bits/basic_string.h ****       static void
 407:/usr/include/c++/4.9/bits/basic_string.h ****       _S_copy_chars(_CharT* __p, const _CharT* __k1, const _CharT* __k2)
 408:/usr/include/c++/4.9/bits/basic_string.h ****       _GLIBCXX_NOEXCEPT
 409:/usr/include/c++/4.9/bits/basic_string.h ****       { _M_copy(__p, __k1, __k2 - __k1); }
 410:/usr/include/c++/4.9/bits/basic_string.h **** 
 411:/usr/include/c++/4.9/bits/basic_string.h ****       static int
 412:/usr/include/c++/4.9/bits/basic_string.h ****       _S_compare(size_type __n1, size_type __n2) _GLIBCXX_NOEXCEPT
 413:/usr/include/c++/4.9/bits/basic_string.h ****       {
 414:/usr/include/c++/4.9/bits/basic_string.h **** 	const difference_type __d = difference_type(__n1 - __n2);
 415:/usr/include/c++/4.9/bits/basic_string.h **** 
 416:/usr/include/c++/4.9/bits/basic_string.h **** 	if (__d > __gnu_cxx::__numeric_traits<int>::__max)
 417:/usr/include/c++/4.9/bits/basic_string.h **** 	  return __gnu_cxx::__numeric_traits<int>::__max;
 418:/usr/include/c++/4.9/bits/basic_string.h **** 	else if (__d < __gnu_cxx::__numeric_traits<int>::__min)
 419:/usr/include/c++/4.9/bits/basic_string.h **** 	  return __gnu_cxx::__numeric_traits<int>::__min;
 420:/usr/include/c++/4.9/bits/basic_string.h **** 	else
 421:/usr/include/c++/4.9/bits/basic_string.h **** 	  return int(__d);
 422:/usr/include/c++/4.9/bits/basic_string.h ****       }
 423:/usr/include/c++/4.9/bits/basic_string.h **** 
 424:/usr/include/c++/4.9/bits/basic_string.h ****       void
 425:/usr/include/c++/4.9/bits/basic_string.h ****       _M_mutate(size_type __pos, size_type __len1, size_type __len2);
 426:/usr/include/c++/4.9/bits/basic_string.h **** 
 427:/usr/include/c++/4.9/bits/basic_string.h ****       void
 428:/usr/include/c++/4.9/bits/basic_string.h ****       _M_leak_hard();
 429:/usr/include/c++/4.9/bits/basic_string.h **** 
 430:/usr/include/c++/4.9/bits/basic_string.h ****       static _Rep&
 431:/usr/include/c++/4.9/bits/basic_string.h ****       _S_empty_rep() _GLIBCXX_NOEXCEPT
 432:/usr/include/c++/4.9/bits/basic_string.h ****       { return _Rep::_S_empty_rep(); }
 433:/usr/include/c++/4.9/bits/basic_string.h **** 
 434:/usr/include/c++/4.9/bits/basic_string.h ****     public:
 435:/usr/include/c++/4.9/bits/basic_string.h ****       // Construct/copy/destroy:
 436:/usr/include/c++/4.9/bits/basic_string.h ****       // NB: We overload ctors in some cases instead of using default
 437:/usr/include/c++/4.9/bits/basic_string.h ****       // arguments, per 17.4.4.4 para. 2 item 2.
 438:/usr/include/c++/4.9/bits/basic_string.h **** 
 439:/usr/include/c++/4.9/bits/basic_string.h ****       /**
 440:/usr/include/c++/4.9/bits/basic_string.h ****        *  @brief  Default constructor creates an empty string.
 441:/usr/include/c++/4.9/bits/basic_string.h ****        */
 442:/usr/include/c++/4.9/bits/basic_string.h ****       basic_string()
 443:/usr/include/c++/4.9/bits/basic_string.h **** #if _GLIBCXX_FULLY_DYNAMIC_STRING == 0
 444:/usr/include/c++/4.9/bits/basic_string.h ****       : _M_dataplus(_S_empty_rep()._M_refdata(), _Alloc()) { }
 445:/usr/include/c++/4.9/bits/basic_string.h **** #else
 446:/usr/include/c++/4.9/bits/basic_string.h ****       : _M_dataplus(_S_construct(size_type(), _CharT(), _Alloc()), _Alloc()){ }
 447:/usr/include/c++/4.9/bits/basic_string.h **** #endif
 448:/usr/include/c++/4.9/bits/basic_string.h **** 
 449:/usr/include/c++/4.9/bits/basic_string.h ****       /**
 450:/usr/include/c++/4.9/bits/basic_string.h ****        *  @brief  Construct an empty string using allocator @a a.
 451:/usr/include/c++/4.9/bits/basic_string.h ****        */
 452:/usr/include/c++/4.9/bits/basic_string.h ****       explicit
 453:/usr/include/c++/4.9/bits/basic_string.h ****       basic_string(const _Alloc& __a);
 454:/usr/include/c++/4.9/bits/basic_string.h **** 
 455:/usr/include/c++/4.9/bits/basic_string.h ****       // NB: per LWG issue 42, semantics different from IS:
 456:/usr/include/c++/4.9/bits/basic_string.h ****       /**
 457:/usr/include/c++/4.9/bits/basic_string.h ****        *  @brief  Construct string with copy of value of @a str.
 458:/usr/include/c++/4.9/bits/basic_string.h ****        *  @param  __str  Source string.
 459:/usr/include/c++/4.9/bits/basic_string.h ****        */
 460:/usr/include/c++/4.9/bits/basic_string.h ****       basic_string(const basic_string& __str);
 461:/usr/include/c++/4.9/bits/basic_string.h ****       /**
 462:/usr/include/c++/4.9/bits/basic_string.h ****        *  @brief  Construct string as copy of a substring.
 463:/usr/include/c++/4.9/bits/basic_string.h ****        *  @param  __str  Source string.
 464:/usr/include/c++/4.9/bits/basic_string.h ****        *  @param  __pos  Index of first character to copy from.
 465:/usr/include/c++/4.9/bits/basic_string.h ****        *  @param  __n  Number of characters to copy (default remainder).
 466:/usr/include/c++/4.9/bits/basic_string.h ****        */
 467:/usr/include/c++/4.9/bits/basic_string.h ****       basic_string(const basic_string& __str, size_type __pos,
 468:/usr/include/c++/4.9/bits/basic_string.h **** 		   size_type __n = npos);
 469:/usr/include/c++/4.9/bits/basic_string.h ****       /**
 470:/usr/include/c++/4.9/bits/basic_string.h ****        *  @brief  Construct string as copy of a substring.
 471:/usr/include/c++/4.9/bits/basic_string.h ****        *  @param  __str  Source string.
 472:/usr/include/c++/4.9/bits/basic_string.h ****        *  @param  __pos  Index of first character to copy from.
 473:/usr/include/c++/4.9/bits/basic_string.h ****        *  @param  __n  Number of characters to copy.
 474:/usr/include/c++/4.9/bits/basic_string.h ****        *  @param  __a  Allocator to use.
 475:/usr/include/c++/4.9/bits/basic_string.h ****        */
 476:/usr/include/c++/4.9/bits/basic_string.h ****       basic_string(const basic_string& __str, size_type __pos,
 477:/usr/include/c++/4.9/bits/basic_string.h **** 		   size_type __n, const _Alloc& __a);
 478:/usr/include/c++/4.9/bits/basic_string.h **** 
 479:/usr/include/c++/4.9/bits/basic_string.h ****       /**
 480:/usr/include/c++/4.9/bits/basic_string.h ****        *  @brief  Construct string initialized by a character %array.
 481:/usr/include/c++/4.9/bits/basic_string.h ****        *  @param  __s  Source character %array.
 482:/usr/include/c++/4.9/bits/basic_string.h ****        *  @param  __n  Number of characters to copy.
 483:/usr/include/c++/4.9/bits/basic_string.h ****        *  @param  __a  Allocator to use (default is default allocator).
 484:/usr/include/c++/4.9/bits/basic_string.h ****        *
 485:/usr/include/c++/4.9/bits/basic_string.h ****        *  NB: @a __s must have at least @a __n characters, &apos;\\0&apos;
 486:/usr/include/c++/4.9/bits/basic_string.h ****        *  has no special meaning.
 487:/usr/include/c++/4.9/bits/basic_string.h ****        */
 488:/usr/include/c++/4.9/bits/basic_string.h ****       basic_string(const _CharT* __s, size_type __n,
 489:/usr/include/c++/4.9/bits/basic_string.h **** 		   const _Alloc& __a = _Alloc());
 490:/usr/include/c++/4.9/bits/basic_string.h ****       /**
 491:/usr/include/c++/4.9/bits/basic_string.h ****        *  @brief  Construct string as copy of a C string.
 492:/usr/include/c++/4.9/bits/basic_string.h ****        *  @param  __s  Source C string.
 493:/usr/include/c++/4.9/bits/basic_string.h ****        *  @param  __a  Allocator to use (default is default allocator).
 494:/usr/include/c++/4.9/bits/basic_string.h ****        */
 495:/usr/include/c++/4.9/bits/basic_string.h ****       basic_string(const _CharT* __s, const _Alloc& __a = _Alloc());
 496:/usr/include/c++/4.9/bits/basic_string.h ****       /**
 497:/usr/include/c++/4.9/bits/basic_string.h ****        *  @brief  Construct string as multiple characters.
 498:/usr/include/c++/4.9/bits/basic_string.h ****        *  @param  __n  Number of characters.
 499:/usr/include/c++/4.9/bits/basic_string.h ****        *  @param  __c  Character to use.
 500:/usr/include/c++/4.9/bits/basic_string.h ****        *  @param  __a  Allocator to use (default is default allocator).
 501:/usr/include/c++/4.9/bits/basic_string.h ****        */
 502:/usr/include/c++/4.9/bits/basic_string.h ****       basic_string(size_type __n, _CharT __c, const _Alloc& __a = _Alloc());
 503:/usr/include/c++/4.9/bits/basic_string.h **** 
 504:/usr/include/c++/4.9/bits/basic_string.h **** #if __cplusplus >= 201103L
 505:/usr/include/c++/4.9/bits/basic_string.h ****       /**
 506:/usr/include/c++/4.9/bits/basic_string.h ****        *  @brief  Move construct string.
 507:/usr/include/c++/4.9/bits/basic_string.h ****        *  @param  __str  Source string.
 508:/usr/include/c++/4.9/bits/basic_string.h ****        *
 509:/usr/include/c++/4.9/bits/basic_string.h ****        *  The newly-created string contains the exact contents of @a __str.
 510:/usr/include/c++/4.9/bits/basic_string.h ****        *  @a __str is a valid, but unspecified string.
 511:/usr/include/c++/4.9/bits/basic_string.h ****        **/
 512:/usr/include/c++/4.9/bits/basic_string.h ****       basic_string(basic_string&& __str)
 513:/usr/include/c++/4.9/bits/basic_string.h **** #if _GLIBCXX_FULLY_DYNAMIC_STRING == 0
 514:/usr/include/c++/4.9/bits/basic_string.h ****       noexcept // FIXME C++11: should always be noexcept.
 515:/usr/include/c++/4.9/bits/basic_string.h **** #endif
 516:/usr/include/c++/4.9/bits/basic_string.h ****       : _M_dataplus(__str._M_dataplus)
 517:/usr/include/c++/4.9/bits/basic_string.h ****       {
 518:/usr/include/c++/4.9/bits/basic_string.h **** #if _GLIBCXX_FULLY_DYNAMIC_STRING == 0
 519:/usr/include/c++/4.9/bits/basic_string.h **** 	__str._M_data(_S_empty_rep()._M_refdata());
 520:/usr/include/c++/4.9/bits/basic_string.h **** #else
 521:/usr/include/c++/4.9/bits/basic_string.h **** 	__str._M_data(_S_construct(size_type(), _CharT(), get_allocator()));
 522:/usr/include/c++/4.9/bits/basic_string.h **** #endif
 523:/usr/include/c++/4.9/bits/basic_string.h ****       }
 524:/usr/include/c++/4.9/bits/basic_string.h **** 
 525:/usr/include/c++/4.9/bits/basic_string.h ****       /**
 526:/usr/include/c++/4.9/bits/basic_string.h ****        *  @brief  Construct string from an initializer %list.
 527:/usr/include/c++/4.9/bits/basic_string.h ****        *  @param  __l  std::initializer_list of characters.
 528:/usr/include/c++/4.9/bits/basic_string.h ****        *  @param  __a  Allocator to use (default is default allocator).
 529:/usr/include/c++/4.9/bits/basic_string.h ****        */
 530:/usr/include/c++/4.9/bits/basic_string.h ****       basic_string(initializer_list<_CharT> __l, const _Alloc& __a = _Alloc());
 531:/usr/include/c++/4.9/bits/basic_string.h **** #endif // C++11
 532:/usr/include/c++/4.9/bits/basic_string.h **** 
 533:/usr/include/c++/4.9/bits/basic_string.h ****       /**
 534:/usr/include/c++/4.9/bits/basic_string.h ****        *  @brief  Construct string as copy of a range.
 535:/usr/include/c++/4.9/bits/basic_string.h ****        *  @param  __beg  Start of range.
 536:/usr/include/c++/4.9/bits/basic_string.h ****        *  @param  __end  End of range.
 537:/usr/include/c++/4.9/bits/basic_string.h ****        *  @param  __a  Allocator to use (default is default allocator).
 538:/usr/include/c++/4.9/bits/basic_string.h ****        */
 539:/usr/include/c++/4.9/bits/basic_string.h ****       template<class _InputIterator>
 540:/usr/include/c++/4.9/bits/basic_string.h ****         basic_string(_InputIterator __beg, _InputIterator __end,
 541:/usr/include/c++/4.9/bits/basic_string.h **** 		     const _Alloc& __a = _Alloc());
 542:/usr/include/c++/4.9/bits/basic_string.h **** 
 543:/usr/include/c++/4.9/bits/basic_string.h ****       /**
 544:/usr/include/c++/4.9/bits/basic_string.h ****        *  @brief  Destroy the string instance.
 545:/usr/include/c++/4.9/bits/basic_string.h ****        */
 546:/usr/include/c++/4.9/bits/basic_string.h ****       ~basic_string() _GLIBCXX_NOEXCEPT
 547:/usr/include/c++/4.9/bits/basic_string.h ****       { _M_rep()->_M_dispose(this->get_allocator()); }
 548:/usr/include/c++/4.9/bits/basic_string.h **** 
 549:/usr/include/c++/4.9/bits/basic_string.h ****       /**
 550:/usr/include/c++/4.9/bits/basic_string.h ****        *  @brief  Assign the value of @a str to this string.
 551:/usr/include/c++/4.9/bits/basic_string.h ****        *  @param  __str  Source string.
 552:/usr/include/c++/4.9/bits/basic_string.h ****        */
 553:/usr/include/c++/4.9/bits/basic_string.h ****       basic_string&
 554:/usr/include/c++/4.9/bits/basic_string.h ****       operator=(const basic_string& __str) 
 555:/usr/include/c++/4.9/bits/basic_string.h ****       { return this->assign(__str); }
 556:/usr/include/c++/4.9/bits/basic_string.h **** 
 557:/usr/include/c++/4.9/bits/basic_string.h ****       /**
 558:/usr/include/c++/4.9/bits/basic_string.h ****        *  @brief  Copy contents of @a s into this string.
 559:/usr/include/c++/4.9/bits/basic_string.h ****        *  @param  __s  Source null-terminated string.
 560:/usr/include/c++/4.9/bits/basic_string.h ****        */
 561:/usr/include/c++/4.9/bits/basic_string.h ****       basic_string&
 562:/usr/include/c++/4.9/bits/basic_string.h ****       operator=(const _CharT* __s) 
 563:/usr/include/c++/4.9/bits/basic_string.h ****       { return this->assign(__s); }
 564:/usr/include/c++/4.9/bits/basic_string.h **** 
 565:/usr/include/c++/4.9/bits/basic_string.h ****       /**
 566:/usr/include/c++/4.9/bits/basic_string.h ****        *  @brief  Set value to string of length 1.
 567:/usr/include/c++/4.9/bits/basic_string.h ****        *  @param  __c  Source character.
 568:/usr/include/c++/4.9/bits/basic_string.h ****        *
 569:/usr/include/c++/4.9/bits/basic_string.h ****        *  Assigning to a character makes this string length 1 and
 570:/usr/include/c++/4.9/bits/basic_string.h ****        *  (*this)[0] == @a c.
 571:/usr/include/c++/4.9/bits/basic_string.h ****        */
 572:/usr/include/c++/4.9/bits/basic_string.h ****       basic_string&
 573:/usr/include/c++/4.9/bits/basic_string.h ****       operator=(_CharT __c) 
 574:/usr/include/c++/4.9/bits/basic_string.h ****       { 
 575:/usr/include/c++/4.9/bits/basic_string.h **** 	this->assign(1, __c); 
 576:/usr/include/c++/4.9/bits/basic_string.h **** 	return *this;
 577:/usr/include/c++/4.9/bits/basic_string.h ****       }
 578:/usr/include/c++/4.9/bits/basic_string.h **** 
 579:/usr/include/c++/4.9/bits/basic_string.h **** #if __cplusplus >= 201103L
 580:/usr/include/c++/4.9/bits/basic_string.h ****       /**
 581:/usr/include/c++/4.9/bits/basic_string.h ****        *  @brief  Move assign the value of @a str to this string.
 582:/usr/include/c++/4.9/bits/basic_string.h ****        *  @param  __str  Source string.
 583:/usr/include/c++/4.9/bits/basic_string.h ****        *
 584:/usr/include/c++/4.9/bits/basic_string.h ****        *  The contents of @a str are moved into this string (without copying).
 585:/usr/include/c++/4.9/bits/basic_string.h ****        *  @a str is a valid, but unspecified string.
 586:/usr/include/c++/4.9/bits/basic_string.h ****        **/
 587:/usr/include/c++/4.9/bits/basic_string.h ****       // PR 58265, this should be noexcept.
 588:/usr/include/c++/4.9/bits/basic_string.h ****       basic_string&
 589:/usr/include/c++/4.9/bits/basic_string.h ****       operator=(basic_string&& __str)
 590:/usr/include/c++/4.9/bits/basic_string.h ****       {
 591:/usr/include/c++/4.9/bits/basic_string.h **** 	// NB: DR 1204.
 592:/usr/include/c++/4.9/bits/basic_string.h **** 	this->swap(__str);
 593:/usr/include/c++/4.9/bits/basic_string.h **** 	return *this;
 594:/usr/include/c++/4.9/bits/basic_string.h ****       }
 595:/usr/include/c++/4.9/bits/basic_string.h **** 
 596:/usr/include/c++/4.9/bits/basic_string.h ****       /**
 597:/usr/include/c++/4.9/bits/basic_string.h ****        *  @brief  Set value to string constructed from initializer %list.
 598:/usr/include/c++/4.9/bits/basic_string.h ****        *  @param  __l  std::initializer_list.
 599:/usr/include/c++/4.9/bits/basic_string.h ****        */
 600:/usr/include/c++/4.9/bits/basic_string.h ****       basic_string&
 601:/usr/include/c++/4.9/bits/basic_string.h ****       operator=(initializer_list<_CharT> __l)
 602:/usr/include/c++/4.9/bits/basic_string.h ****       {
 603:/usr/include/c++/4.9/bits/basic_string.h **** 	this->assign(__l.begin(), __l.size());
 604:/usr/include/c++/4.9/bits/basic_string.h **** 	return *this;
 605:/usr/include/c++/4.9/bits/basic_string.h ****       }
 606:/usr/include/c++/4.9/bits/basic_string.h **** #endif // C++11
 607:/usr/include/c++/4.9/bits/basic_string.h **** 
 608:/usr/include/c++/4.9/bits/basic_string.h ****       // Iterators:
 609:/usr/include/c++/4.9/bits/basic_string.h ****       /**
 610:/usr/include/c++/4.9/bits/basic_string.h ****        *  Returns a read/write iterator that points to the first character in
 611:/usr/include/c++/4.9/bits/basic_string.h ****        *  the %string.  Unshares the string.
 612:/usr/include/c++/4.9/bits/basic_string.h ****        */
 613:/usr/include/c++/4.9/bits/basic_string.h ****       iterator
 614:/usr/include/c++/4.9/bits/basic_string.h ****       begin() // FIXME C++11: should be noexcept.
 615:/usr/include/c++/4.9/bits/basic_string.h ****       {
 616:/usr/include/c++/4.9/bits/basic_string.h **** 	_M_leak();
 617:/usr/include/c++/4.9/bits/basic_string.h **** 	return iterator(_M_data());
 618:/usr/include/c++/4.9/bits/basic_string.h ****       }
 619:/usr/include/c++/4.9/bits/basic_string.h **** 
 620:/usr/include/c++/4.9/bits/basic_string.h ****       /**
 621:/usr/include/c++/4.9/bits/basic_string.h ****        *  Returns a read-only (constant) iterator that points to the first
 622:/usr/include/c++/4.9/bits/basic_string.h ****        *  character in the %string.
 623:/usr/include/c++/4.9/bits/basic_string.h ****        */
 624:/usr/include/c++/4.9/bits/basic_string.h ****       const_iterator
 625:/usr/include/c++/4.9/bits/basic_string.h ****       begin() const _GLIBCXX_NOEXCEPT
 626:/usr/include/c++/4.9/bits/basic_string.h ****       { return const_iterator(_M_data()); }
 627:/usr/include/c++/4.9/bits/basic_string.h **** 
 628:/usr/include/c++/4.9/bits/basic_string.h ****       /**
 629:/usr/include/c++/4.9/bits/basic_string.h ****        *  Returns a read/write iterator that points one past the last
 630:/usr/include/c++/4.9/bits/basic_string.h ****        *  character in the %string.  Unshares the string.
 631:/usr/include/c++/4.9/bits/basic_string.h ****        */
 632:/usr/include/c++/4.9/bits/basic_string.h ****       iterator
 633:/usr/include/c++/4.9/bits/basic_string.h ****       end() // FIXME C++11: should be noexcept.
 634:/usr/include/c++/4.9/bits/basic_string.h ****       {
 635:/usr/include/c++/4.9/bits/basic_string.h **** 	_M_leak();
 636:/usr/include/c++/4.9/bits/basic_string.h **** 	return iterator(_M_data() + this->size());
 637:/usr/include/c++/4.9/bits/basic_string.h ****       }
 638:/usr/include/c++/4.9/bits/basic_string.h **** 
 639:/usr/include/c++/4.9/bits/basic_string.h ****       /**
 640:/usr/include/c++/4.9/bits/basic_string.h ****        *  Returns a read-only (constant) iterator that points one past the
 641:/usr/include/c++/4.9/bits/basic_string.h ****        *  last character in the %string.
 642:/usr/include/c++/4.9/bits/basic_string.h ****        */
 643:/usr/include/c++/4.9/bits/basic_string.h ****       const_iterator
 644:/usr/include/c++/4.9/bits/basic_string.h ****       end() const _GLIBCXX_NOEXCEPT
 645:/usr/include/c++/4.9/bits/basic_string.h ****       { return const_iterator(_M_data() + this->size()); }
 646:/usr/include/c++/4.9/bits/basic_string.h **** 
 647:/usr/include/c++/4.9/bits/basic_string.h ****       /**
 648:/usr/include/c++/4.9/bits/basic_string.h ****        *  Returns a read/write reverse iterator that points to the last
 649:/usr/include/c++/4.9/bits/basic_string.h ****        *  character in the %string.  Iteration is done in reverse element
 650:/usr/include/c++/4.9/bits/basic_string.h ****        *  order.  Unshares the string.
 651:/usr/include/c++/4.9/bits/basic_string.h ****        */
 652:/usr/include/c++/4.9/bits/basic_string.h ****       reverse_iterator
 653:/usr/include/c++/4.9/bits/basic_string.h ****       rbegin() // FIXME C++11: should be noexcept.
 654:/usr/include/c++/4.9/bits/basic_string.h ****       { return reverse_iterator(this->end()); }
 655:/usr/include/c++/4.9/bits/basic_string.h **** 
 656:/usr/include/c++/4.9/bits/basic_string.h ****       /**
 657:/usr/include/c++/4.9/bits/basic_string.h ****        *  Returns a read-only (constant) reverse iterator that points
 658:/usr/include/c++/4.9/bits/basic_string.h ****        *  to the last character in the %string.  Iteration is done in
 659:/usr/include/c++/4.9/bits/basic_string.h ****        *  reverse element order.
 660:/usr/include/c++/4.9/bits/basic_string.h ****        */
 661:/usr/include/c++/4.9/bits/basic_string.h ****       const_reverse_iterator
 662:/usr/include/c++/4.9/bits/basic_string.h ****       rbegin() const _GLIBCXX_NOEXCEPT
 663:/usr/include/c++/4.9/bits/basic_string.h ****       { return const_reverse_iterator(this->end()); }
 664:/usr/include/c++/4.9/bits/basic_string.h **** 
 665:/usr/include/c++/4.9/bits/basic_string.h ****       /**
 666:/usr/include/c++/4.9/bits/basic_string.h ****        *  Returns a read/write reverse iterator that points to one before the
 667:/usr/include/c++/4.9/bits/basic_string.h ****        *  first character in the %string.  Iteration is done in reverse
 668:/usr/include/c++/4.9/bits/basic_string.h ****        *  element order.  Unshares the string.
 669:/usr/include/c++/4.9/bits/basic_string.h ****        */
 670:/usr/include/c++/4.9/bits/basic_string.h ****       reverse_iterator
 671:/usr/include/c++/4.9/bits/basic_string.h ****       rend() // FIXME C++11: should be noexcept.
 672:/usr/include/c++/4.9/bits/basic_string.h ****       { return reverse_iterator(this->begin()); }
 673:/usr/include/c++/4.9/bits/basic_string.h **** 
 674:/usr/include/c++/4.9/bits/basic_string.h ****       /**
 675:/usr/include/c++/4.9/bits/basic_string.h ****        *  Returns a read-only (constant) reverse iterator that points
 676:/usr/include/c++/4.9/bits/basic_string.h ****        *  to one before the first character in the %string.  Iteration
 677:/usr/include/c++/4.9/bits/basic_string.h ****        *  is done in reverse element order.
 678:/usr/include/c++/4.9/bits/basic_string.h ****        */
 679:/usr/include/c++/4.9/bits/basic_string.h ****       const_reverse_iterator
 680:/usr/include/c++/4.9/bits/basic_string.h ****       rend() const _GLIBCXX_NOEXCEPT
 681:/usr/include/c++/4.9/bits/basic_string.h ****       { return const_reverse_iterator(this->begin()); }
 682:/usr/include/c++/4.9/bits/basic_string.h **** 
 683:/usr/include/c++/4.9/bits/basic_string.h **** #if __cplusplus >= 201103L
 684:/usr/include/c++/4.9/bits/basic_string.h ****       /**
 685:/usr/include/c++/4.9/bits/basic_string.h ****        *  Returns a read-only (constant) iterator that points to the first
 686:/usr/include/c++/4.9/bits/basic_string.h ****        *  character in the %string.
 687:/usr/include/c++/4.9/bits/basic_string.h ****        */
 688:/usr/include/c++/4.9/bits/basic_string.h ****       const_iterator
 689:/usr/include/c++/4.9/bits/basic_string.h ****       cbegin() const noexcept
 690:/usr/include/c++/4.9/bits/basic_string.h ****       { return const_iterator(this->_M_data()); }
 691:/usr/include/c++/4.9/bits/basic_string.h **** 
 692:/usr/include/c++/4.9/bits/basic_string.h ****       /**
 693:/usr/include/c++/4.9/bits/basic_string.h ****        *  Returns a read-only (constant) iterator that points one past the
 694:/usr/include/c++/4.9/bits/basic_string.h ****        *  last character in the %string.
 695:/usr/include/c++/4.9/bits/basic_string.h ****        */
 696:/usr/include/c++/4.9/bits/basic_string.h ****       const_iterator
 697:/usr/include/c++/4.9/bits/basic_string.h ****       cend() const noexcept
 698:/usr/include/c++/4.9/bits/basic_string.h ****       { return const_iterator(this->_M_data() + this->size()); }
 699:/usr/include/c++/4.9/bits/basic_string.h **** 
 700:/usr/include/c++/4.9/bits/basic_string.h ****       /**
 701:/usr/include/c++/4.9/bits/basic_string.h ****        *  Returns a read-only (constant) reverse iterator that points
 702:/usr/include/c++/4.9/bits/basic_string.h ****        *  to the last character in the %string.  Iteration is done in
 703:/usr/include/c++/4.9/bits/basic_string.h ****        *  reverse element order.
 704:/usr/include/c++/4.9/bits/basic_string.h ****        */
 705:/usr/include/c++/4.9/bits/basic_string.h ****       const_reverse_iterator
 706:/usr/include/c++/4.9/bits/basic_string.h ****       crbegin() const noexcept
 707:/usr/include/c++/4.9/bits/basic_string.h ****       { return const_reverse_iterator(this->end()); }
 708:/usr/include/c++/4.9/bits/basic_string.h **** 
 709:/usr/include/c++/4.9/bits/basic_string.h ****       /**
 710:/usr/include/c++/4.9/bits/basic_string.h ****        *  Returns a read-only (constant) reverse iterator that points
 711:/usr/include/c++/4.9/bits/basic_string.h ****        *  to one before the first character in the %string.  Iteration
 712:/usr/include/c++/4.9/bits/basic_string.h ****        *  is done in reverse element order.
 713:/usr/include/c++/4.9/bits/basic_string.h ****        */
 714:/usr/include/c++/4.9/bits/basic_string.h ****       const_reverse_iterator
 715:/usr/include/c++/4.9/bits/basic_string.h ****       crend() const noexcept
 716:/usr/include/c++/4.9/bits/basic_string.h ****       { return const_reverse_iterator(this->begin()); }
 717:/usr/include/c++/4.9/bits/basic_string.h **** #endif
 718:/usr/include/c++/4.9/bits/basic_string.h **** 
 719:/usr/include/c++/4.9/bits/basic_string.h ****     public:
 720:/usr/include/c++/4.9/bits/basic_string.h ****       // Capacity:
 721:/usr/include/c++/4.9/bits/basic_string.h ****       ///  Returns the number of characters in the string, not including any
 722:/usr/include/c++/4.9/bits/basic_string.h ****       ///  null-termination.
 723:/usr/include/c++/4.9/bits/basic_string.h ****       size_type
 724:/usr/include/c++/4.9/bits/basic_string.h ****       size() const _GLIBCXX_NOEXCEPT
 725:/usr/include/c++/4.9/bits/basic_string.h ****       { return _M_rep()->_M_length; }
 726:/usr/include/c++/4.9/bits/basic_string.h **** 
 727:/usr/include/c++/4.9/bits/basic_string.h ****       ///  Returns the number of characters in the string, not including any
 728:/usr/include/c++/4.9/bits/basic_string.h ****       ///  null-termination.
 729:/usr/include/c++/4.9/bits/basic_string.h ****       size_type
 730:/usr/include/c++/4.9/bits/basic_string.h ****       length() const _GLIBCXX_NOEXCEPT
 731:/usr/include/c++/4.9/bits/basic_string.h ****       { return _M_rep()->_M_length; }
 732:/usr/include/c++/4.9/bits/basic_string.h **** 
 733:/usr/include/c++/4.9/bits/basic_string.h ****       ///  Returns the size() of the largest possible %string.
 734:/usr/include/c++/4.9/bits/basic_string.h ****       size_type
 735:/usr/include/c++/4.9/bits/basic_string.h ****       max_size() const _GLIBCXX_NOEXCEPT
 736:/usr/include/c++/4.9/bits/basic_string.h ****       { return _Rep::_S_max_size; }
 737:/usr/include/c++/4.9/bits/basic_string.h **** 
 738:/usr/include/c++/4.9/bits/basic_string.h ****       /**
 739:/usr/include/c++/4.9/bits/basic_string.h ****        *  @brief  Resizes the %string to the specified number of characters.
 740:/usr/include/c++/4.9/bits/basic_string.h ****        *  @param  __n  Number of characters the %string should contain.
 741:/usr/include/c++/4.9/bits/basic_string.h ****        *  @param  __c  Character to fill any new elements.
 742:/usr/include/c++/4.9/bits/basic_string.h ****        *
 743:/usr/include/c++/4.9/bits/basic_string.h ****        *  This function will %resize the %string to the specified
 744:/usr/include/c++/4.9/bits/basic_string.h ****        *  number of characters.  If the number is smaller than the
 745:/usr/include/c++/4.9/bits/basic_string.h ****        *  %string's current size the %string is truncated, otherwise
 746:/usr/include/c++/4.9/bits/basic_string.h ****        *  the %string is extended and new elements are %set to @a __c.
 747:/usr/include/c++/4.9/bits/basic_string.h ****        */
 748:/usr/include/c++/4.9/bits/basic_string.h ****       void
 749:/usr/include/c++/4.9/bits/basic_string.h ****       resize(size_type __n, _CharT __c);
 750:/usr/include/c++/4.9/bits/basic_string.h **** 
 751:/usr/include/c++/4.9/bits/basic_string.h ****       /**
 752:/usr/include/c++/4.9/bits/basic_string.h ****        *  @brief  Resizes the %string to the specified number of characters.
 753:/usr/include/c++/4.9/bits/basic_string.h ****        *  @param  __n  Number of characters the %string should contain.
 754:/usr/include/c++/4.9/bits/basic_string.h ****        *
 755:/usr/include/c++/4.9/bits/basic_string.h ****        *  This function will resize the %string to the specified length.  If
 756:/usr/include/c++/4.9/bits/basic_string.h ****        *  the new size is smaller than the %string's current size the %string
 757:/usr/include/c++/4.9/bits/basic_string.h ****        *  is truncated, otherwise the %string is extended and new characters
 758:/usr/include/c++/4.9/bits/basic_string.h ****        *  are default-constructed.  For basic types such as char, this means
 759:/usr/include/c++/4.9/bits/basic_string.h ****        *  setting them to 0.
 760:/usr/include/c++/4.9/bits/basic_string.h ****        */
 761:/usr/include/c++/4.9/bits/basic_string.h ****       void
 762:/usr/include/c++/4.9/bits/basic_string.h ****       resize(size_type __n)
 763:/usr/include/c++/4.9/bits/basic_string.h ****       { this->resize(__n, _CharT()); }
 764:/usr/include/c++/4.9/bits/basic_string.h **** 
 765:/usr/include/c++/4.9/bits/basic_string.h **** #if __cplusplus >= 201103L
 766:/usr/include/c++/4.9/bits/basic_string.h ****       ///  A non-binding request to reduce capacity() to size().
 767:/usr/include/c++/4.9/bits/basic_string.h ****       void
 768:/usr/include/c++/4.9/bits/basic_string.h ****       shrink_to_fit() _GLIBCXX_NOEXCEPT
 769:/usr/include/c++/4.9/bits/basic_string.h ****       {
 770:/usr/include/c++/4.9/bits/basic_string.h **** 	if (capacity() > size())
 771:/usr/include/c++/4.9/bits/basic_string.h **** 	  {
 772:/usr/include/c++/4.9/bits/basic_string.h **** 	    __try
 773:/usr/include/c++/4.9/bits/basic_string.h **** 	      { reserve(0); }
 774:/usr/include/c++/4.9/bits/basic_string.h **** 	    __catch(...)
 775:/usr/include/c++/4.9/bits/basic_string.h **** 	      { }
 776:/usr/include/c++/4.9/bits/basic_string.h **** 	  }
 777:/usr/include/c++/4.9/bits/basic_string.h ****       }
 778:/usr/include/c++/4.9/bits/basic_string.h **** #endif
 779:/usr/include/c++/4.9/bits/basic_string.h **** 
 780:/usr/include/c++/4.9/bits/basic_string.h ****       /**
 781:/usr/include/c++/4.9/bits/basic_string.h ****        *  Returns the total number of characters that the %string can hold
 782:/usr/include/c++/4.9/bits/basic_string.h ****        *  before needing to allocate more memory.
 783:/usr/include/c++/4.9/bits/basic_string.h ****        */
 784:/usr/include/c++/4.9/bits/basic_string.h ****       size_type
 785:/usr/include/c++/4.9/bits/basic_string.h ****       capacity() const _GLIBCXX_NOEXCEPT
 786:/usr/include/c++/4.9/bits/basic_string.h ****       { return _M_rep()->_M_capacity; }
 787:/usr/include/c++/4.9/bits/basic_string.h **** 
 788:/usr/include/c++/4.9/bits/basic_string.h ****       /**
 789:/usr/include/c++/4.9/bits/basic_string.h ****        *  @brief  Attempt to preallocate enough memory for specified number of
 790:/usr/include/c++/4.9/bits/basic_string.h ****        *          characters.
 791:/usr/include/c++/4.9/bits/basic_string.h ****        *  @param  __res_arg  Number of characters required.
 792:/usr/include/c++/4.9/bits/basic_string.h ****        *  @throw  std::length_error  If @a __res_arg exceeds @c max_size().
 793:/usr/include/c++/4.9/bits/basic_string.h ****        *
 794:/usr/include/c++/4.9/bits/basic_string.h ****        *  This function attempts to reserve enough memory for the
 795:/usr/include/c++/4.9/bits/basic_string.h ****        *  %string to hold the specified number of characters.  If the
 796:/usr/include/c++/4.9/bits/basic_string.h ****        *  number requested is more than max_size(), length_error is
 797:/usr/include/c++/4.9/bits/basic_string.h ****        *  thrown.
 798:/usr/include/c++/4.9/bits/basic_string.h ****        *
 799:/usr/include/c++/4.9/bits/basic_string.h ****        *  The advantage of this function is that if optimal code is a
 800:/usr/include/c++/4.9/bits/basic_string.h ****        *  necessity and the user can determine the string length that will be
 801:/usr/include/c++/4.9/bits/basic_string.h ****        *  required, the user can reserve the memory in %advance, and thus
 802:/usr/include/c++/4.9/bits/basic_string.h ****        *  prevent a possible reallocation of memory and copying of %string
 803:/usr/include/c++/4.9/bits/basic_string.h ****        *  data.
 804:/usr/include/c++/4.9/bits/basic_string.h ****        */
 805:/usr/include/c++/4.9/bits/basic_string.h ****       void
 806:/usr/include/c++/4.9/bits/basic_string.h ****       reserve(size_type __res_arg = 0);
 807:/usr/include/c++/4.9/bits/basic_string.h **** 
 808:/usr/include/c++/4.9/bits/basic_string.h ****       /**
 809:/usr/include/c++/4.9/bits/basic_string.h ****        *  Erases the string, making it empty.
 810:/usr/include/c++/4.9/bits/basic_string.h ****        */
 811:/usr/include/c++/4.9/bits/basic_string.h ****       // PR 56166: this should not throw.
 812:/usr/include/c++/4.9/bits/basic_string.h ****       void
 813:/usr/include/c++/4.9/bits/basic_string.h ****       clear()
 814:/usr/include/c++/4.9/bits/basic_string.h ****       { _M_mutate(0, this->size(), 0); }
 815:/usr/include/c++/4.9/bits/basic_string.h **** 
 816:/usr/include/c++/4.9/bits/basic_string.h ****       /**
 817:/usr/include/c++/4.9/bits/basic_string.h ****        *  Returns true if the %string is empty.  Equivalent to 
 818:/usr/include/c++/4.9/bits/basic_string.h ****        *  <code>*this == ""</code>.
 819:/usr/include/c++/4.9/bits/basic_string.h ****        */
 820:/usr/include/c++/4.9/bits/basic_string.h ****       bool
 821:/usr/include/c++/4.9/bits/basic_string.h ****       empty() const _GLIBCXX_NOEXCEPT
 822:/usr/include/c++/4.9/bits/basic_string.h ****       { return this->size() == 0; }
 823:/usr/include/c++/4.9/bits/basic_string.h **** 
 824:/usr/include/c++/4.9/bits/basic_string.h ****       // Element access:
 825:/usr/include/c++/4.9/bits/basic_string.h ****       /**
 826:/usr/include/c++/4.9/bits/basic_string.h ****        *  @brief  Subscript access to the data contained in the %string.
 827:/usr/include/c++/4.9/bits/basic_string.h ****        *  @param  __pos  The index of the character to access.
 828:/usr/include/c++/4.9/bits/basic_string.h ****        *  @return  Read-only (constant) reference to the character.
 829:/usr/include/c++/4.9/bits/basic_string.h ****        *
 830:/usr/include/c++/4.9/bits/basic_string.h ****        *  This operator allows for easy, array-style, data access.
 831:/usr/include/c++/4.9/bits/basic_string.h ****        *  Note that data access with this operator is unchecked and
 832:/usr/include/c++/4.9/bits/basic_string.h ****        *  out_of_range lookups are not defined. (For checked lookups
 833:/usr/include/c++/4.9/bits/basic_string.h ****        *  see at().)
 834:/usr/include/c++/4.9/bits/basic_string.h ****        */
 835:/usr/include/c++/4.9/bits/basic_string.h ****       const_reference
 836:/usr/include/c++/4.9/bits/basic_string.h ****       operator[] (size_type __pos) const _GLIBCXX_NOEXCEPT
 837:/usr/include/c++/4.9/bits/basic_string.h ****       {
 838:/usr/include/c++/4.9/bits/basic_string.h **** 	_GLIBCXX_DEBUG_ASSERT(__pos <= size());
 839:/usr/include/c++/4.9/bits/basic_string.h **** 	return _M_data()[__pos];
 840:/usr/include/c++/4.9/bits/basic_string.h ****       }
 841:/usr/include/c++/4.9/bits/basic_string.h **** 
 842:/usr/include/c++/4.9/bits/basic_string.h ****       /**
 843:/usr/include/c++/4.9/bits/basic_string.h ****        *  @brief  Subscript access to the data contained in the %string.
 844:/usr/include/c++/4.9/bits/basic_string.h ****        *  @param  __pos  The index of the character to access.
 845:/usr/include/c++/4.9/bits/basic_string.h ****        *  @return  Read/write reference to the character.
 846:/usr/include/c++/4.9/bits/basic_string.h ****        *
 847:/usr/include/c++/4.9/bits/basic_string.h ****        *  This operator allows for easy, array-style, data access.
 848:/usr/include/c++/4.9/bits/basic_string.h ****        *  Note that data access with this operator is unchecked and
 849:/usr/include/c++/4.9/bits/basic_string.h ****        *  out_of_range lookups are not defined. (For checked lookups
 850:/usr/include/c++/4.9/bits/basic_string.h ****        *  see at().)  Unshares the string.
 851:/usr/include/c++/4.9/bits/basic_string.h ****        */
 852:/usr/include/c++/4.9/bits/basic_string.h ****       reference
 853:/usr/include/c++/4.9/bits/basic_string.h ****       operator[](size_type __pos)
 854:/usr/include/c++/4.9/bits/basic_string.h ****       {
 855:/usr/include/c++/4.9/bits/basic_string.h ****         // Allow pos == size() both in C++98 mode, as v3 extension,
 856:/usr/include/c++/4.9/bits/basic_string.h **** 	// and in C++11 mode.
 857:/usr/include/c++/4.9/bits/basic_string.h **** 	_GLIBCXX_DEBUG_ASSERT(__pos <= size());
 858:/usr/include/c++/4.9/bits/basic_string.h ****         // In pedantic mode be strict in C++98 mode.
 859:/usr/include/c++/4.9/bits/basic_string.h **** 	_GLIBCXX_DEBUG_PEDASSERT(__cplusplus >= 201103L || __pos < size());
 860:/usr/include/c++/4.9/bits/basic_string.h **** 	_M_leak();
 861:/usr/include/c++/4.9/bits/basic_string.h **** 	return _M_data()[__pos];
 862:/usr/include/c++/4.9/bits/basic_string.h ****       }
 863:/usr/include/c++/4.9/bits/basic_string.h **** 
 864:/usr/include/c++/4.9/bits/basic_string.h ****       /**
 865:/usr/include/c++/4.9/bits/basic_string.h ****        *  @brief  Provides access to the data contained in the %string.
 866:/usr/include/c++/4.9/bits/basic_string.h ****        *  @param __n The index of the character to access.
 867:/usr/include/c++/4.9/bits/basic_string.h ****        *  @return  Read-only (const) reference to the character.
 868:/usr/include/c++/4.9/bits/basic_string.h ****        *  @throw  std::out_of_range  If @a n is an invalid index.
 869:/usr/include/c++/4.9/bits/basic_string.h ****        *
 870:/usr/include/c++/4.9/bits/basic_string.h ****        *  This function provides for safer data access.  The parameter is
 871:/usr/include/c++/4.9/bits/basic_string.h ****        *  first checked that it is in the range of the string.  The function
 872:/usr/include/c++/4.9/bits/basic_string.h ****        *  throws out_of_range if the check fails.
 873:/usr/include/c++/4.9/bits/basic_string.h ****        */
 874:/usr/include/c++/4.9/bits/basic_string.h ****       const_reference
 875:/usr/include/c++/4.9/bits/basic_string.h ****       at(size_type __n) const
 876:/usr/include/c++/4.9/bits/basic_string.h ****       {
 877:/usr/include/c++/4.9/bits/basic_string.h **** 	if (__n >= this->size())
 878:/usr/include/c++/4.9/bits/basic_string.h **** 	  __throw_out_of_range_fmt(__N("basic_string::at: __n "
 879:/usr/include/c++/4.9/bits/basic_string.h **** 				       "(which is %zu) >= this->size() "
 880:/usr/include/c++/4.9/bits/basic_string.h **** 				       "(which is %zu)"),
 881:/usr/include/c++/4.9/bits/basic_string.h **** 				   __n, this->size());
 882:/usr/include/c++/4.9/bits/basic_string.h **** 	return _M_data()[__n];
 883:/usr/include/c++/4.9/bits/basic_string.h ****       }
 884:/usr/include/c++/4.9/bits/basic_string.h **** 
 885:/usr/include/c++/4.9/bits/basic_string.h ****       /**
 886:/usr/include/c++/4.9/bits/basic_string.h ****        *  @brief  Provides access to the data contained in the %string.
 887:/usr/include/c++/4.9/bits/basic_string.h ****        *  @param __n The index of the character to access.
 888:/usr/include/c++/4.9/bits/basic_string.h ****        *  @return  Read/write reference to the character.
 889:/usr/include/c++/4.9/bits/basic_string.h ****        *  @throw  std::out_of_range  If @a n is an invalid index.
 890:/usr/include/c++/4.9/bits/basic_string.h ****        *
 891:/usr/include/c++/4.9/bits/basic_string.h ****        *  This function provides for safer data access.  The parameter is
 892:/usr/include/c++/4.9/bits/basic_string.h ****        *  first checked that it is in the range of the string.  The function
 893:/usr/include/c++/4.9/bits/basic_string.h ****        *  throws out_of_range if the check fails.  Success results in
 894:/usr/include/c++/4.9/bits/basic_string.h ****        *  unsharing the string.
 895:/usr/include/c++/4.9/bits/basic_string.h ****        */
 896:/usr/include/c++/4.9/bits/basic_string.h ****       reference
 897:/usr/include/c++/4.9/bits/basic_string.h ****       at(size_type __n)
 898:/usr/include/c++/4.9/bits/basic_string.h ****       {
 899:/usr/include/c++/4.9/bits/basic_string.h **** 	if (__n >= size())
 900:/usr/include/c++/4.9/bits/basic_string.h **** 	  __throw_out_of_range_fmt(__N("basic_string::at: __n "
 901:/usr/include/c++/4.9/bits/basic_string.h **** 				       "(which is %zu) >= this->size() "
 902:/usr/include/c++/4.9/bits/basic_string.h **** 				       "(which is %zu)"),
 903:/usr/include/c++/4.9/bits/basic_string.h **** 				   __n, this->size());
 904:/usr/include/c++/4.9/bits/basic_string.h **** 	_M_leak();
 905:/usr/include/c++/4.9/bits/basic_string.h **** 	return _M_data()[__n];
 906:/usr/include/c++/4.9/bits/basic_string.h ****       }
 907:/usr/include/c++/4.9/bits/basic_string.h **** 
 908:/usr/include/c++/4.9/bits/basic_string.h **** #if __cplusplus >= 201103L
 909:/usr/include/c++/4.9/bits/basic_string.h ****       /**
 910:/usr/include/c++/4.9/bits/basic_string.h ****        *  Returns a read/write reference to the data at the first
 911:/usr/include/c++/4.9/bits/basic_string.h ****        *  element of the %string.
 912:/usr/include/c++/4.9/bits/basic_string.h ****        */
 913:/usr/include/c++/4.9/bits/basic_string.h ****       reference
 914:/usr/include/c++/4.9/bits/basic_string.h ****       front()
 915:/usr/include/c++/4.9/bits/basic_string.h ****       { return operator[](0); }
 916:/usr/include/c++/4.9/bits/basic_string.h **** 
 917:/usr/include/c++/4.9/bits/basic_string.h ****       /**
 918:/usr/include/c++/4.9/bits/basic_string.h ****        *  Returns a read-only (constant) reference to the data at the first
 919:/usr/include/c++/4.9/bits/basic_string.h ****        *  element of the %string.
 920:/usr/include/c++/4.9/bits/basic_string.h ****        */
 921:/usr/include/c++/4.9/bits/basic_string.h ****       const_reference
 922:/usr/include/c++/4.9/bits/basic_string.h ****       front() const _GLIBCXX_NOEXCEPT
 923:/usr/include/c++/4.9/bits/basic_string.h ****       { return operator[](0); }
 924:/usr/include/c++/4.9/bits/basic_string.h **** 
 925:/usr/include/c++/4.9/bits/basic_string.h ****       /**
 926:/usr/include/c++/4.9/bits/basic_string.h ****        *  Returns a read/write reference to the data at the last
 927:/usr/include/c++/4.9/bits/basic_string.h ****        *  element of the %string.
 928:/usr/include/c++/4.9/bits/basic_string.h ****        */
 929:/usr/include/c++/4.9/bits/basic_string.h ****       reference
 930:/usr/include/c++/4.9/bits/basic_string.h ****       back()
 931:/usr/include/c++/4.9/bits/basic_string.h ****       { return operator[](this->size() - 1); }
 932:/usr/include/c++/4.9/bits/basic_string.h **** 
 933:/usr/include/c++/4.9/bits/basic_string.h ****       /**
 934:/usr/include/c++/4.9/bits/basic_string.h ****        *  Returns a read-only (constant) reference to the data at the
 935:/usr/include/c++/4.9/bits/basic_string.h ****        *  last element of the %string.
 936:/usr/include/c++/4.9/bits/basic_string.h ****        */
 937:/usr/include/c++/4.9/bits/basic_string.h ****       const_reference
 938:/usr/include/c++/4.9/bits/basic_string.h ****       back() const _GLIBCXX_NOEXCEPT
 939:/usr/include/c++/4.9/bits/basic_string.h ****       { return operator[](this->size() - 1); }
 940:/usr/include/c++/4.9/bits/basic_string.h **** #endif
 941:/usr/include/c++/4.9/bits/basic_string.h **** 
 942:/usr/include/c++/4.9/bits/basic_string.h ****       // Modifiers:
 943:/usr/include/c++/4.9/bits/basic_string.h ****       /**
 944:/usr/include/c++/4.9/bits/basic_string.h ****        *  @brief  Append a string to this string.
 945:/usr/include/c++/4.9/bits/basic_string.h ****        *  @param __str  The string to append.
 946:/usr/include/c++/4.9/bits/basic_string.h ****        *  @return  Reference to this string.
 947:/usr/include/c++/4.9/bits/basic_string.h ****        */
 948:/usr/include/c++/4.9/bits/basic_string.h ****       basic_string&
 949:/usr/include/c++/4.9/bits/basic_string.h ****       operator+=(const basic_string& __str)
 950:/usr/include/c++/4.9/bits/basic_string.h ****       { return this->append(__str); }
 951:/usr/include/c++/4.9/bits/basic_string.h **** 
 952:/usr/include/c++/4.9/bits/basic_string.h ****       /**
 953:/usr/include/c++/4.9/bits/basic_string.h ****        *  @brief  Append a C string.
 954:/usr/include/c++/4.9/bits/basic_string.h ****        *  @param __s  The C string to append.
 955:/usr/include/c++/4.9/bits/basic_string.h ****        *  @return  Reference to this string.
 956:/usr/include/c++/4.9/bits/basic_string.h ****        */
 957:/usr/include/c++/4.9/bits/basic_string.h ****       basic_string&
 958:/usr/include/c++/4.9/bits/basic_string.h ****       operator+=(const _CharT* __s)
 959:/usr/include/c++/4.9/bits/basic_string.h ****       { return this->append(__s); }
 960:/usr/include/c++/4.9/bits/basic_string.h **** 
 961:/usr/include/c++/4.9/bits/basic_string.h ****       /**
 962:/usr/include/c++/4.9/bits/basic_string.h ****        *  @brief  Append a character.
 963:/usr/include/c++/4.9/bits/basic_string.h ****        *  @param __c  The character to append.
 964:/usr/include/c++/4.9/bits/basic_string.h ****        *  @return  Reference to this string.
 965:/usr/include/c++/4.9/bits/basic_string.h ****        */
 966:/usr/include/c++/4.9/bits/basic_string.h ****       basic_string&
 967:/usr/include/c++/4.9/bits/basic_string.h ****       operator+=(_CharT __c)
 968:/usr/include/c++/4.9/bits/basic_string.h ****       { 
 969:/usr/include/c++/4.9/bits/basic_string.h **** 	this->push_back(__c);
 970:/usr/include/c++/4.9/bits/basic_string.h **** 	return *this;
 971:/usr/include/c++/4.9/bits/basic_string.h ****       }
 972:/usr/include/c++/4.9/bits/basic_string.h **** 
 973:/usr/include/c++/4.9/bits/basic_string.h **** #if __cplusplus >= 201103L
 974:/usr/include/c++/4.9/bits/basic_string.h ****       /**
 975:/usr/include/c++/4.9/bits/basic_string.h ****        *  @brief  Append an initializer_list of characters.
 976:/usr/include/c++/4.9/bits/basic_string.h ****        *  @param __l  The initializer_list of characters to be appended.
 977:/usr/include/c++/4.9/bits/basic_string.h ****        *  @return  Reference to this string.
 978:/usr/include/c++/4.9/bits/basic_string.h ****        */
 979:/usr/include/c++/4.9/bits/basic_string.h ****       basic_string&
 980:/usr/include/c++/4.9/bits/basic_string.h ****       operator+=(initializer_list<_CharT> __l)
 981:/usr/include/c++/4.9/bits/basic_string.h ****       { return this->append(__l.begin(), __l.size()); }
 982:/usr/include/c++/4.9/bits/basic_string.h **** #endif // C++11
 983:/usr/include/c++/4.9/bits/basic_string.h **** 
 984:/usr/include/c++/4.9/bits/basic_string.h ****       /**
 985:/usr/include/c++/4.9/bits/basic_string.h ****        *  @brief  Append a string to this string.
 986:/usr/include/c++/4.9/bits/basic_string.h ****        *  @param __str  The string to append.
 987:/usr/include/c++/4.9/bits/basic_string.h ****        *  @return  Reference to this string.
 988:/usr/include/c++/4.9/bits/basic_string.h ****        */
 989:/usr/include/c++/4.9/bits/basic_string.h ****       basic_string&
 990:/usr/include/c++/4.9/bits/basic_string.h ****       append(const basic_string& __str);
 991:/usr/include/c++/4.9/bits/basic_string.h **** 
 992:/usr/include/c++/4.9/bits/basic_string.h ****       /**
 993:/usr/include/c++/4.9/bits/basic_string.h ****        *  @brief  Append a substring.
 994:/usr/include/c++/4.9/bits/basic_string.h ****        *  @param __str  The string to append.
 995:/usr/include/c++/4.9/bits/basic_string.h ****        *  @param __pos  Index of the first character of str to append.
 996:/usr/include/c++/4.9/bits/basic_string.h ****        *  @param __n  The number of characters to append.
 997:/usr/include/c++/4.9/bits/basic_string.h ****        *  @return  Reference to this string.
 998:/usr/include/c++/4.9/bits/basic_string.h ****        *  @throw  std::out_of_range if @a __pos is not a valid index.
 999:/usr/include/c++/4.9/bits/basic_string.h ****        *
1000:/usr/include/c++/4.9/bits/basic_string.h ****        *  This function appends @a __n characters from @a __str
1001:/usr/include/c++/4.9/bits/basic_string.h ****        *  starting at @a __pos to this string.  If @a __n is is larger
1002:/usr/include/c++/4.9/bits/basic_string.h ****        *  than the number of available characters in @a __str, the
1003:/usr/include/c++/4.9/bits/basic_string.h ****        *  remainder of @a __str is appended.
1004:/usr/include/c++/4.9/bits/basic_string.h ****        */
1005:/usr/include/c++/4.9/bits/basic_string.h ****       basic_string&
1006:/usr/include/c++/4.9/bits/basic_string.h ****       append(const basic_string& __str, size_type __pos, size_type __n);
1007:/usr/include/c++/4.9/bits/basic_string.h **** 
1008:/usr/include/c++/4.9/bits/basic_string.h ****       /**
1009:/usr/include/c++/4.9/bits/basic_string.h ****        *  @brief  Append a C substring.
1010:/usr/include/c++/4.9/bits/basic_string.h ****        *  @param __s  The C string to append.
1011:/usr/include/c++/4.9/bits/basic_string.h ****        *  @param __n  The number of characters to append.
1012:/usr/include/c++/4.9/bits/basic_string.h ****        *  @return  Reference to this string.
1013:/usr/include/c++/4.9/bits/basic_string.h ****        */
1014:/usr/include/c++/4.9/bits/basic_string.h ****       basic_string&
1015:/usr/include/c++/4.9/bits/basic_string.h ****       append(const _CharT* __s, size_type __n);
1016:/usr/include/c++/4.9/bits/basic_string.h **** 
1017:/usr/include/c++/4.9/bits/basic_string.h ****       /**
1018:/usr/include/c++/4.9/bits/basic_string.h ****        *  @brief  Append a C string.
1019:/usr/include/c++/4.9/bits/basic_string.h ****        *  @param __s  The C string to append.
1020:/usr/include/c++/4.9/bits/basic_string.h ****        *  @return  Reference to this string.
1021:/usr/include/c++/4.9/bits/basic_string.h ****        */
1022:/usr/include/c++/4.9/bits/basic_string.h ****       basic_string&
1023:/usr/include/c++/4.9/bits/basic_string.h ****       append(const _CharT* __s)
1024:/usr/include/c++/4.9/bits/basic_string.h ****       {
1025:/usr/include/c++/4.9/bits/basic_string.h **** 	__glibcxx_requires_string(__s);
1026:/usr/include/c++/4.9/bits/basic_string.h **** 	return this->append(__s, traits_type::length(__s));
1027:/usr/include/c++/4.9/bits/basic_string.h ****       }
1028:/usr/include/c++/4.9/bits/basic_string.h **** 
1029:/usr/include/c++/4.9/bits/basic_string.h ****       /**
1030:/usr/include/c++/4.9/bits/basic_string.h ****        *  @brief  Append multiple characters.
1031:/usr/include/c++/4.9/bits/basic_string.h ****        *  @param __n  The number of characters to append.
1032:/usr/include/c++/4.9/bits/basic_string.h ****        *  @param __c  The character to use.
1033:/usr/include/c++/4.9/bits/basic_string.h ****        *  @return  Reference to this string.
1034:/usr/include/c++/4.9/bits/basic_string.h ****        *
1035:/usr/include/c++/4.9/bits/basic_string.h ****        *  Appends __n copies of __c to this string.
1036:/usr/include/c++/4.9/bits/basic_string.h ****        */
1037:/usr/include/c++/4.9/bits/basic_string.h ****       basic_string&
1038:/usr/include/c++/4.9/bits/basic_string.h ****       append(size_type __n, _CharT __c);
1039:/usr/include/c++/4.9/bits/basic_string.h **** 
1040:/usr/include/c++/4.9/bits/basic_string.h **** #if __cplusplus >= 201103L
1041:/usr/include/c++/4.9/bits/basic_string.h ****       /**
1042:/usr/include/c++/4.9/bits/basic_string.h ****        *  @brief  Append an initializer_list of characters.
1043:/usr/include/c++/4.9/bits/basic_string.h ****        *  @param __l  The initializer_list of characters to append.
1044:/usr/include/c++/4.9/bits/basic_string.h ****        *  @return  Reference to this string.
1045:/usr/include/c++/4.9/bits/basic_string.h ****        */
1046:/usr/include/c++/4.9/bits/basic_string.h ****       basic_string&
1047:/usr/include/c++/4.9/bits/basic_string.h ****       append(initializer_list<_CharT> __l)
1048:/usr/include/c++/4.9/bits/basic_string.h ****       { return this->append(__l.begin(), __l.size()); }
1049:/usr/include/c++/4.9/bits/basic_string.h **** #endif // C++11
1050:/usr/include/c++/4.9/bits/basic_string.h **** 
1051:/usr/include/c++/4.9/bits/basic_string.h ****       /**
1052:/usr/include/c++/4.9/bits/basic_string.h ****        *  @brief  Append a range of characters.
1053:/usr/include/c++/4.9/bits/basic_string.h ****        *  @param __first  Iterator referencing the first character to append.
1054:/usr/include/c++/4.9/bits/basic_string.h ****        *  @param __last  Iterator marking the end of the range.
1055:/usr/include/c++/4.9/bits/basic_string.h ****        *  @return  Reference to this string.
1056:/usr/include/c++/4.9/bits/basic_string.h ****        *
1057:/usr/include/c++/4.9/bits/basic_string.h ****        *  Appends characters in the range [__first,__last) to this string.
1058:/usr/include/c++/4.9/bits/basic_string.h ****        */
1059:/usr/include/c++/4.9/bits/basic_string.h ****       template<class _InputIterator>
1060:/usr/include/c++/4.9/bits/basic_string.h ****         basic_string&
1061:/usr/include/c++/4.9/bits/basic_string.h ****         append(_InputIterator __first, _InputIterator __last)
1062:/usr/include/c++/4.9/bits/basic_string.h ****         { return this->replace(_M_iend(), _M_iend(), __first, __last); }
1063:/usr/include/c++/4.9/bits/basic_string.h **** 
1064:/usr/include/c++/4.9/bits/basic_string.h ****       /**
1065:/usr/include/c++/4.9/bits/basic_string.h ****        *  @brief  Append a single character.
1066:/usr/include/c++/4.9/bits/basic_string.h ****        *  @param __c  Character to append.
1067:/usr/include/c++/4.9/bits/basic_string.h ****        */
1068:/usr/include/c++/4.9/bits/basic_string.h ****       void
1069:/usr/include/c++/4.9/bits/basic_string.h ****       push_back(_CharT __c)
1070:/usr/include/c++/4.9/bits/basic_string.h ****       { 
1071:/usr/include/c++/4.9/bits/basic_string.h **** 	const size_type __len = 1 + this->size();
1072:/usr/include/c++/4.9/bits/basic_string.h **** 	if (__len > this->capacity() || _M_rep()->_M_is_shared())
1073:/usr/include/c++/4.9/bits/basic_string.h **** 	  this->reserve(__len);
1074:/usr/include/c++/4.9/bits/basic_string.h **** 	traits_type::assign(_M_data()[this->size()], __c);
1075:/usr/include/c++/4.9/bits/basic_string.h **** 	_M_rep()->_M_set_length_and_sharable(__len);
1076:/usr/include/c++/4.9/bits/basic_string.h ****       }
1077:/usr/include/c++/4.9/bits/basic_string.h **** 
1078:/usr/include/c++/4.9/bits/basic_string.h ****       /**
1079:/usr/include/c++/4.9/bits/basic_string.h ****        *  @brief  Set value to contents of another string.
1080:/usr/include/c++/4.9/bits/basic_string.h ****        *  @param  __str  Source string to use.
1081:/usr/include/c++/4.9/bits/basic_string.h ****        *  @return  Reference to this string.
1082:/usr/include/c++/4.9/bits/basic_string.h ****        */
1083:/usr/include/c++/4.9/bits/basic_string.h ****       basic_string&
1084:/usr/include/c++/4.9/bits/basic_string.h ****       assign(const basic_string& __str);
1085:/usr/include/c++/4.9/bits/basic_string.h **** 
1086:/usr/include/c++/4.9/bits/basic_string.h **** #if __cplusplus >= 201103L
1087:/usr/include/c++/4.9/bits/basic_string.h ****       /**
1088:/usr/include/c++/4.9/bits/basic_string.h ****        *  @brief  Set value to contents of another string.
1089:/usr/include/c++/4.9/bits/basic_string.h ****        *  @param  __str  Source string to use.
1090:/usr/include/c++/4.9/bits/basic_string.h ****        *  @return  Reference to this string.
1091:/usr/include/c++/4.9/bits/basic_string.h ****        *
1092:/usr/include/c++/4.9/bits/basic_string.h ****        *  This function sets this string to the exact contents of @a __str.
1093:/usr/include/c++/4.9/bits/basic_string.h ****        *  @a __str is a valid, but unspecified string.
1094:/usr/include/c++/4.9/bits/basic_string.h ****        */
1095:/usr/include/c++/4.9/bits/basic_string.h ****       // PR 58265, this should be noexcept.
1096:/usr/include/c++/4.9/bits/basic_string.h ****       basic_string&
1097:/usr/include/c++/4.9/bits/basic_string.h ****       assign(basic_string&& __str)
1098:/usr/include/c++/4.9/bits/basic_string.h ****       {
1099:/usr/include/c++/4.9/bits/basic_string.h **** 	this->swap(__str);
1100:/usr/include/c++/4.9/bits/basic_string.h **** 	return *this;
1101:/usr/include/c++/4.9/bits/basic_string.h ****       }
1102:/usr/include/c++/4.9/bits/basic_string.h **** #endif // C++11
1103:/usr/include/c++/4.9/bits/basic_string.h **** 
1104:/usr/include/c++/4.9/bits/basic_string.h ****       /**
1105:/usr/include/c++/4.9/bits/basic_string.h ****        *  @brief  Set value to a substring of a string.
1106:/usr/include/c++/4.9/bits/basic_string.h ****        *  @param __str  The string to use.
1107:/usr/include/c++/4.9/bits/basic_string.h ****        *  @param __pos  Index of the first character of str.
1108:/usr/include/c++/4.9/bits/basic_string.h ****        *  @param __n  Number of characters to use.
1109:/usr/include/c++/4.9/bits/basic_string.h ****        *  @return  Reference to this string.
1110:/usr/include/c++/4.9/bits/basic_string.h ****        *  @throw  std::out_of_range if @a pos is not a valid index.
1111:/usr/include/c++/4.9/bits/basic_string.h ****        *
1112:/usr/include/c++/4.9/bits/basic_string.h ****        *  This function sets this string to the substring of @a __str
1113:/usr/include/c++/4.9/bits/basic_string.h ****        *  consisting of @a __n characters at @a __pos.  If @a __n is
1114:/usr/include/c++/4.9/bits/basic_string.h ****        *  is larger than the number of available characters in @a
1115:/usr/include/c++/4.9/bits/basic_string.h ****        *  __str, the remainder of @a __str is used.
1116:/usr/include/c++/4.9/bits/basic_string.h ****        */
1117:/usr/include/c++/4.9/bits/basic_string.h ****       basic_string&
1118:/usr/include/c++/4.9/bits/basic_string.h ****       assign(const basic_string& __str, size_type __pos, size_type __n)
1119:/usr/include/c++/4.9/bits/basic_string.h ****       { return this->assign(__str._M_data()
1120:/usr/include/c++/4.9/bits/basic_string.h **** 			    + __str._M_check(__pos, "basic_string::assign"),
1121:/usr/include/c++/4.9/bits/basic_string.h **** 			    __str._M_limit(__pos, __n)); }
1122:/usr/include/c++/4.9/bits/basic_string.h **** 
1123:/usr/include/c++/4.9/bits/basic_string.h ****       /**
1124:/usr/include/c++/4.9/bits/basic_string.h ****        *  @brief  Set value to a C substring.
1125:/usr/include/c++/4.9/bits/basic_string.h ****        *  @param __s  The C string to use.
1126:/usr/include/c++/4.9/bits/basic_string.h ****        *  @param __n  Number of characters to use.
1127:/usr/include/c++/4.9/bits/basic_string.h ****        *  @return  Reference to this string.
1128:/usr/include/c++/4.9/bits/basic_string.h ****        *
1129:/usr/include/c++/4.9/bits/basic_string.h ****        *  This function sets the value of this string to the first @a __n
1130:/usr/include/c++/4.9/bits/basic_string.h ****        *  characters of @a __s.  If @a __n is is larger than the number of
1131:/usr/include/c++/4.9/bits/basic_string.h ****        *  available characters in @a __s, the remainder of @a __s is used.
1132:/usr/include/c++/4.9/bits/basic_string.h ****        */
1133:/usr/include/c++/4.9/bits/basic_string.h ****       basic_string&
1134:/usr/include/c++/4.9/bits/basic_string.h ****       assign(const _CharT* __s, size_type __n);
1135:/usr/include/c++/4.9/bits/basic_string.h **** 
1136:/usr/include/c++/4.9/bits/basic_string.h ****       /**
1137:/usr/include/c++/4.9/bits/basic_string.h ****        *  @brief  Set value to contents of a C string.
1138:/usr/include/c++/4.9/bits/basic_string.h ****        *  @param __s  The C string to use.
1139:/usr/include/c++/4.9/bits/basic_string.h ****        *  @return  Reference to this string.
1140:/usr/include/c++/4.9/bits/basic_string.h ****        *
1141:/usr/include/c++/4.9/bits/basic_string.h ****        *  This function sets the value of this string to the value of @a __s.
1142:/usr/include/c++/4.9/bits/basic_string.h ****        *  The data is copied, so there is no dependence on @a __s once the
1143:/usr/include/c++/4.9/bits/basic_string.h ****        *  function returns.
1144:/usr/include/c++/4.9/bits/basic_string.h ****        */
1145:/usr/include/c++/4.9/bits/basic_string.h ****       basic_string&
1146:/usr/include/c++/4.9/bits/basic_string.h ****       assign(const _CharT* __s)
1147:/usr/include/c++/4.9/bits/basic_string.h ****       {
1148:/usr/include/c++/4.9/bits/basic_string.h **** 	__glibcxx_requires_string(__s);
1149:/usr/include/c++/4.9/bits/basic_string.h **** 	return this->assign(__s, traits_type::length(__s));
1150:/usr/include/c++/4.9/bits/basic_string.h ****       }
1151:/usr/include/c++/4.9/bits/basic_string.h **** 
1152:/usr/include/c++/4.9/bits/basic_string.h ****       /**
1153:/usr/include/c++/4.9/bits/basic_string.h ****        *  @brief  Set value to multiple characters.
1154:/usr/include/c++/4.9/bits/basic_string.h ****        *  @param __n  Length of the resulting string.
1155:/usr/include/c++/4.9/bits/basic_string.h ****        *  @param __c  The character to use.
1156:/usr/include/c++/4.9/bits/basic_string.h ****        *  @return  Reference to this string.
1157:/usr/include/c++/4.9/bits/basic_string.h ****        *
1158:/usr/include/c++/4.9/bits/basic_string.h ****        *  This function sets the value of this string to @a __n copies of
1159:/usr/include/c++/4.9/bits/basic_string.h ****        *  character @a __c.
1160:/usr/include/c++/4.9/bits/basic_string.h ****        */
1161:/usr/include/c++/4.9/bits/basic_string.h ****       basic_string&
1162:/usr/include/c++/4.9/bits/basic_string.h ****       assign(size_type __n, _CharT __c)
1163:/usr/include/c++/4.9/bits/basic_string.h ****       { return _M_replace_aux(size_type(0), this->size(), __n, __c); }
1164:/usr/include/c++/4.9/bits/basic_string.h **** 
1165:/usr/include/c++/4.9/bits/basic_string.h ****       /**
1166:/usr/include/c++/4.9/bits/basic_string.h ****        *  @brief  Set value to a range of characters.
1167:/usr/include/c++/4.9/bits/basic_string.h ****        *  @param __first  Iterator referencing the first character to append.
1168:/usr/include/c++/4.9/bits/basic_string.h ****        *  @param __last  Iterator marking the end of the range.
1169:/usr/include/c++/4.9/bits/basic_string.h ****        *  @return  Reference to this string.
1170:/usr/include/c++/4.9/bits/basic_string.h ****        *
1171:/usr/include/c++/4.9/bits/basic_string.h ****        *  Sets value of string to characters in the range [__first,__last).
1172:/usr/include/c++/4.9/bits/basic_string.h ****       */
1173:/usr/include/c++/4.9/bits/basic_string.h ****       template<class _InputIterator>
1174:/usr/include/c++/4.9/bits/basic_string.h ****         basic_string&
1175:/usr/include/c++/4.9/bits/basic_string.h ****         assign(_InputIterator __first, _InputIterator __last)
1176:/usr/include/c++/4.9/bits/basic_string.h ****         { return this->replace(_M_ibegin(), _M_iend(), __first, __last); }
1177:/usr/include/c++/4.9/bits/basic_string.h **** 
1178:/usr/include/c++/4.9/bits/basic_string.h **** #if __cplusplus >= 201103L
1179:/usr/include/c++/4.9/bits/basic_string.h ****       /**
1180:/usr/include/c++/4.9/bits/basic_string.h ****        *  @brief  Set value to an initializer_list of characters.
1181:/usr/include/c++/4.9/bits/basic_string.h ****        *  @param __l  The initializer_list of characters to assign.
1182:/usr/include/c++/4.9/bits/basic_string.h ****        *  @return  Reference to this string.
1183:/usr/include/c++/4.9/bits/basic_string.h ****        */
1184:/usr/include/c++/4.9/bits/basic_string.h ****       basic_string&
1185:/usr/include/c++/4.9/bits/basic_string.h ****       assign(initializer_list<_CharT> __l)
1186:/usr/include/c++/4.9/bits/basic_string.h ****       { return this->assign(__l.begin(), __l.size()); }
1187:/usr/include/c++/4.9/bits/basic_string.h **** #endif // C++11
1188:/usr/include/c++/4.9/bits/basic_string.h **** 
1189:/usr/include/c++/4.9/bits/basic_string.h ****       /**
1190:/usr/include/c++/4.9/bits/basic_string.h ****        *  @brief  Insert multiple characters.
1191:/usr/include/c++/4.9/bits/basic_string.h ****        *  @param __p  Iterator referencing location in string to insert at.
1192:/usr/include/c++/4.9/bits/basic_string.h ****        *  @param __n  Number of characters to insert
1193:/usr/include/c++/4.9/bits/basic_string.h ****        *  @param __c  The character to insert.
1194:/usr/include/c++/4.9/bits/basic_string.h ****        *  @throw  std::length_error  If new length exceeds @c max_size().
1195:/usr/include/c++/4.9/bits/basic_string.h ****        *
1196:/usr/include/c++/4.9/bits/basic_string.h ****        *  Inserts @a __n copies of character @a __c starting at the
1197:/usr/include/c++/4.9/bits/basic_string.h ****        *  position referenced by iterator @a __p.  If adding
1198:/usr/include/c++/4.9/bits/basic_string.h ****        *  characters causes the length to exceed max_size(),
1199:/usr/include/c++/4.9/bits/basic_string.h ****        *  length_error is thrown.  The value of the string doesn't
1200:/usr/include/c++/4.9/bits/basic_string.h ****        *  change if an error is thrown.
1201:/usr/include/c++/4.9/bits/basic_string.h ****       */
1202:/usr/include/c++/4.9/bits/basic_string.h ****       void
1203:/usr/include/c++/4.9/bits/basic_string.h ****       insert(iterator __p, size_type __n, _CharT __c)
1204:/usr/include/c++/4.9/bits/basic_string.h ****       {	this->replace(__p, __p, __n, __c);  }
1205:/usr/include/c++/4.9/bits/basic_string.h **** 
1206:/usr/include/c++/4.9/bits/basic_string.h ****       /**
1207:/usr/include/c++/4.9/bits/basic_string.h ****        *  @brief  Insert a range of characters.
1208:/usr/include/c++/4.9/bits/basic_string.h ****        *  @param __p  Iterator referencing location in string to insert at.
1209:/usr/include/c++/4.9/bits/basic_string.h ****        *  @param __beg  Start of range.
1210:/usr/include/c++/4.9/bits/basic_string.h ****        *  @param __end  End of range.
1211:/usr/include/c++/4.9/bits/basic_string.h ****        *  @throw  std::length_error  If new length exceeds @c max_size().
1212:/usr/include/c++/4.9/bits/basic_string.h ****        *
1213:/usr/include/c++/4.9/bits/basic_string.h ****        *  Inserts characters in range [__beg,__end).  If adding
1214:/usr/include/c++/4.9/bits/basic_string.h ****        *  characters causes the length to exceed max_size(),
1215:/usr/include/c++/4.9/bits/basic_string.h ****        *  length_error is thrown.  The value of the string doesn't
1216:/usr/include/c++/4.9/bits/basic_string.h ****        *  change if an error is thrown.
1217:/usr/include/c++/4.9/bits/basic_string.h ****       */
1218:/usr/include/c++/4.9/bits/basic_string.h ****       template<class _InputIterator>
1219:/usr/include/c++/4.9/bits/basic_string.h ****         void
1220:/usr/include/c++/4.9/bits/basic_string.h ****         insert(iterator __p, _InputIterator __beg, _InputIterator __end)
1221:/usr/include/c++/4.9/bits/basic_string.h ****         { this->replace(__p, __p, __beg, __end); }
1222:/usr/include/c++/4.9/bits/basic_string.h **** 
1223:/usr/include/c++/4.9/bits/basic_string.h **** #if __cplusplus >= 201103L
1224:/usr/include/c++/4.9/bits/basic_string.h ****       /**
1225:/usr/include/c++/4.9/bits/basic_string.h ****        *  @brief  Insert an initializer_list of characters.
1226:/usr/include/c++/4.9/bits/basic_string.h ****        *  @param __p  Iterator referencing location in string to insert at.
1227:/usr/include/c++/4.9/bits/basic_string.h ****        *  @param __l  The initializer_list of characters to insert.
1228:/usr/include/c++/4.9/bits/basic_string.h ****        *  @throw  std::length_error  If new length exceeds @c max_size().
1229:/usr/include/c++/4.9/bits/basic_string.h ****        */
1230:/usr/include/c++/4.9/bits/basic_string.h ****       void
1231:/usr/include/c++/4.9/bits/basic_string.h ****       insert(iterator __p, initializer_list<_CharT> __l)
1232:/usr/include/c++/4.9/bits/basic_string.h ****       {
1233:/usr/include/c++/4.9/bits/basic_string.h **** 	_GLIBCXX_DEBUG_PEDASSERT(__p >= _M_ibegin() && __p <= _M_iend());
1234:/usr/include/c++/4.9/bits/basic_string.h **** 	this->insert(__p - _M_ibegin(), __l.begin(), __l.size());
1235:/usr/include/c++/4.9/bits/basic_string.h ****       }
1236:/usr/include/c++/4.9/bits/basic_string.h **** #endif // C++11
1237:/usr/include/c++/4.9/bits/basic_string.h **** 
1238:/usr/include/c++/4.9/bits/basic_string.h ****       /**
1239:/usr/include/c++/4.9/bits/basic_string.h ****        *  @brief  Insert value of a string.
1240:/usr/include/c++/4.9/bits/basic_string.h ****        *  @param __pos1  Iterator referencing location in string to insert at.
1241:/usr/include/c++/4.9/bits/basic_string.h ****        *  @param __str  The string to insert.
1242:/usr/include/c++/4.9/bits/basic_string.h ****        *  @return  Reference to this string.
1243:/usr/include/c++/4.9/bits/basic_string.h ****        *  @throw  std::length_error  If new length exceeds @c max_size().
1244:/usr/include/c++/4.9/bits/basic_string.h ****        *
1245:/usr/include/c++/4.9/bits/basic_string.h ****        *  Inserts value of @a __str starting at @a __pos1.  If adding
1246:/usr/include/c++/4.9/bits/basic_string.h ****        *  characters causes the length to exceed max_size(),
1247:/usr/include/c++/4.9/bits/basic_string.h ****        *  length_error is thrown.  The value of the string doesn't
1248:/usr/include/c++/4.9/bits/basic_string.h ****        *  change if an error is thrown.
1249:/usr/include/c++/4.9/bits/basic_string.h ****       */
1250:/usr/include/c++/4.9/bits/basic_string.h ****       basic_string&
1251:/usr/include/c++/4.9/bits/basic_string.h ****       insert(size_type __pos1, const basic_string& __str)
1252:/usr/include/c++/4.9/bits/basic_string.h ****       { return this->insert(__pos1, __str, size_type(0), __str.size()); }
1253:/usr/include/c++/4.9/bits/basic_string.h **** 
1254:/usr/include/c++/4.9/bits/basic_string.h ****       /**
1255:/usr/include/c++/4.9/bits/basic_string.h ****        *  @brief  Insert a substring.
1256:/usr/include/c++/4.9/bits/basic_string.h ****        *  @param __pos1  Iterator referencing location in string to insert at.
1257:/usr/include/c++/4.9/bits/basic_string.h ****        *  @param __str  The string to insert.
1258:/usr/include/c++/4.9/bits/basic_string.h ****        *  @param __pos2  Start of characters in str to insert.
1259:/usr/include/c++/4.9/bits/basic_string.h ****        *  @param __n  Number of characters to insert.
1260:/usr/include/c++/4.9/bits/basic_string.h ****        *  @return  Reference to this string.
1261:/usr/include/c++/4.9/bits/basic_string.h ****        *  @throw  std::length_error  If new length exceeds @c max_size().
1262:/usr/include/c++/4.9/bits/basic_string.h ****        *  @throw  std::out_of_range  If @a pos1 > size() or
1263:/usr/include/c++/4.9/bits/basic_string.h ****        *  @a __pos2 > @a str.size().
1264:/usr/include/c++/4.9/bits/basic_string.h ****        *
1265:/usr/include/c++/4.9/bits/basic_string.h ****        *  Starting at @a pos1, insert @a __n character of @a __str
1266:/usr/include/c++/4.9/bits/basic_string.h ****        *  beginning with @a __pos2.  If adding characters causes the
1267:/usr/include/c++/4.9/bits/basic_string.h ****        *  length to exceed max_size(), length_error is thrown.  If @a
1268:/usr/include/c++/4.9/bits/basic_string.h ****        *  __pos1 is beyond the end of this string or @a __pos2 is
1269:/usr/include/c++/4.9/bits/basic_string.h ****        *  beyond the end of @a __str, out_of_range is thrown.  The
1270:/usr/include/c++/4.9/bits/basic_string.h ****        *  value of the string doesn't change if an error is thrown.
1271:/usr/include/c++/4.9/bits/basic_string.h ****       */
1272:/usr/include/c++/4.9/bits/basic_string.h ****       basic_string&
1273:/usr/include/c++/4.9/bits/basic_string.h ****       insert(size_type __pos1, const basic_string& __str,
1274:/usr/include/c++/4.9/bits/basic_string.h **** 	     size_type __pos2, size_type __n)
1275:/usr/include/c++/4.9/bits/basic_string.h ****       { return this->insert(__pos1, __str._M_data()
1276:/usr/include/c++/4.9/bits/basic_string.h **** 			    + __str._M_check(__pos2, "basic_string::insert"),
1277:/usr/include/c++/4.9/bits/basic_string.h **** 			    __str._M_limit(__pos2, __n)); }
1278:/usr/include/c++/4.9/bits/basic_string.h **** 
1279:/usr/include/c++/4.9/bits/basic_string.h ****       /**
1280:/usr/include/c++/4.9/bits/basic_string.h ****        *  @brief  Insert a C substring.
1281:/usr/include/c++/4.9/bits/basic_string.h ****        *  @param __pos  Iterator referencing location in string to insert at.
1282:/usr/include/c++/4.9/bits/basic_string.h ****        *  @param __s  The C string to insert.
1283:/usr/include/c++/4.9/bits/basic_string.h ****        *  @param __n  The number of characters to insert.
1284:/usr/include/c++/4.9/bits/basic_string.h ****        *  @return  Reference to this string.
1285:/usr/include/c++/4.9/bits/basic_string.h ****        *  @throw  std::length_error  If new length exceeds @c max_size().
1286:/usr/include/c++/4.9/bits/basic_string.h ****        *  @throw  std::out_of_range  If @a __pos is beyond the end of this
1287:/usr/include/c++/4.9/bits/basic_string.h ****        *  string.
1288:/usr/include/c++/4.9/bits/basic_string.h ****        *
1289:/usr/include/c++/4.9/bits/basic_string.h ****        *  Inserts the first @a __n characters of @a __s starting at @a
1290:/usr/include/c++/4.9/bits/basic_string.h ****        *  __pos.  If adding characters causes the length to exceed
1291:/usr/include/c++/4.9/bits/basic_string.h ****        *  max_size(), length_error is thrown.  If @a __pos is beyond
1292:/usr/include/c++/4.9/bits/basic_string.h ****        *  end(), out_of_range is thrown.  The value of the string
1293:/usr/include/c++/4.9/bits/basic_string.h ****        *  doesn't change if an error is thrown.
1294:/usr/include/c++/4.9/bits/basic_string.h ****       */
1295:/usr/include/c++/4.9/bits/basic_string.h ****       basic_string&
1296:/usr/include/c++/4.9/bits/basic_string.h ****       insert(size_type __pos, const _CharT* __s, size_type __n);
1297:/usr/include/c++/4.9/bits/basic_string.h **** 
1298:/usr/include/c++/4.9/bits/basic_string.h ****       /**
1299:/usr/include/c++/4.9/bits/basic_string.h ****        *  @brief  Insert a C string.
1300:/usr/include/c++/4.9/bits/basic_string.h ****        *  @param __pos  Iterator referencing location in string to insert at.
1301:/usr/include/c++/4.9/bits/basic_string.h ****        *  @param __s  The C string to insert.
1302:/usr/include/c++/4.9/bits/basic_string.h ****        *  @return  Reference to this string.
1303:/usr/include/c++/4.9/bits/basic_string.h ****        *  @throw  std::length_error  If new length exceeds @c max_size().
1304:/usr/include/c++/4.9/bits/basic_string.h ****        *  @throw  std::out_of_range  If @a pos is beyond the end of this
1305:/usr/include/c++/4.9/bits/basic_string.h ****        *  string.
1306:/usr/include/c++/4.9/bits/basic_string.h ****        *
1307:/usr/include/c++/4.9/bits/basic_string.h ****        *  Inserts the first @a n characters of @a __s starting at @a __pos.  If
1308:/usr/include/c++/4.9/bits/basic_string.h ****        *  adding characters causes the length to exceed max_size(),
1309:/usr/include/c++/4.9/bits/basic_string.h ****        *  length_error is thrown.  If @a __pos is beyond end(), out_of_range is
1310:/usr/include/c++/4.9/bits/basic_string.h ****        *  thrown.  The value of the string doesn't change if an error is
1311:/usr/include/c++/4.9/bits/basic_string.h ****        *  thrown.
1312:/usr/include/c++/4.9/bits/basic_string.h ****       */
1313:/usr/include/c++/4.9/bits/basic_string.h ****       basic_string&
1314:/usr/include/c++/4.9/bits/basic_string.h ****       insert(size_type __pos, const _CharT* __s)
1315:/usr/include/c++/4.9/bits/basic_string.h ****       {
1316:/usr/include/c++/4.9/bits/basic_string.h **** 	__glibcxx_requires_string(__s);
1317:/usr/include/c++/4.9/bits/basic_string.h **** 	return this->insert(__pos, __s, traits_type::length(__s));
1318:/usr/include/c++/4.9/bits/basic_string.h ****       }
1319:/usr/include/c++/4.9/bits/basic_string.h **** 
1320:/usr/include/c++/4.9/bits/basic_string.h ****       /**
1321:/usr/include/c++/4.9/bits/basic_string.h ****        *  @brief  Insert multiple characters.
1322:/usr/include/c++/4.9/bits/basic_string.h ****        *  @param __pos  Index in string to insert at.
1323:/usr/include/c++/4.9/bits/basic_string.h ****        *  @param __n  Number of characters to insert
1324:/usr/include/c++/4.9/bits/basic_string.h ****        *  @param __c  The character to insert.
1325:/usr/include/c++/4.9/bits/basic_string.h ****        *  @return  Reference to this string.
1326:/usr/include/c++/4.9/bits/basic_string.h ****        *  @throw  std::length_error  If new length exceeds @c max_size().
1327:/usr/include/c++/4.9/bits/basic_string.h ****        *  @throw  std::out_of_range  If @a __pos is beyond the end of this
1328:/usr/include/c++/4.9/bits/basic_string.h ****        *  string.
1329:/usr/include/c++/4.9/bits/basic_string.h ****        *
1330:/usr/include/c++/4.9/bits/basic_string.h ****        *  Inserts @a __n copies of character @a __c starting at index
1331:/usr/include/c++/4.9/bits/basic_string.h ****        *  @a __pos.  If adding characters causes the length to exceed
1332:/usr/include/c++/4.9/bits/basic_string.h ****        *  max_size(), length_error is thrown.  If @a __pos > length(),
1333:/usr/include/c++/4.9/bits/basic_string.h ****        *  out_of_range is thrown.  The value of the string doesn't
1334:/usr/include/c++/4.9/bits/basic_string.h ****        *  change if an error is thrown.
1335:/usr/include/c++/4.9/bits/basic_string.h ****       */
1336:/usr/include/c++/4.9/bits/basic_string.h ****       basic_string&
1337:/usr/include/c++/4.9/bits/basic_string.h ****       insert(size_type __pos, size_type __n, _CharT __c)
1338:/usr/include/c++/4.9/bits/basic_string.h ****       { return _M_replace_aux(_M_check(__pos, "basic_string::insert"),
1339:/usr/include/c++/4.9/bits/basic_string.h **** 			      size_type(0), __n, __c); }
1340:/usr/include/c++/4.9/bits/basic_string.h **** 
1341:/usr/include/c++/4.9/bits/basic_string.h ****       /**
1342:/usr/include/c++/4.9/bits/basic_string.h ****        *  @brief  Insert one character.
1343:/usr/include/c++/4.9/bits/basic_string.h ****        *  @param __p  Iterator referencing position in string to insert at.
1344:/usr/include/c++/4.9/bits/basic_string.h ****        *  @param __c  The character to insert.
1345:/usr/include/c++/4.9/bits/basic_string.h ****        *  @return  Iterator referencing newly inserted char.
1346:/usr/include/c++/4.9/bits/basic_string.h ****        *  @throw  std::length_error  If new length exceeds @c max_size().
1347:/usr/include/c++/4.9/bits/basic_string.h ****        *
1348:/usr/include/c++/4.9/bits/basic_string.h ****        *  Inserts character @a __c at position referenced by @a __p.
1349:/usr/include/c++/4.9/bits/basic_string.h ****        *  If adding character causes the length to exceed max_size(),
1350:/usr/include/c++/4.9/bits/basic_string.h ****        *  length_error is thrown.  If @a __p is beyond end of string,
1351:/usr/include/c++/4.9/bits/basic_string.h ****        *  out_of_range is thrown.  The value of the string doesn't
1352:/usr/include/c++/4.9/bits/basic_string.h ****        *  change if an error is thrown.
1353:/usr/include/c++/4.9/bits/basic_string.h ****       */
1354:/usr/include/c++/4.9/bits/basic_string.h ****       iterator
1355:/usr/include/c++/4.9/bits/basic_string.h ****       insert(iterator __p, _CharT __c)
1356:/usr/include/c++/4.9/bits/basic_string.h ****       {
1357:/usr/include/c++/4.9/bits/basic_string.h **** 	_GLIBCXX_DEBUG_PEDASSERT(__p >= _M_ibegin() && __p <= _M_iend());
1358:/usr/include/c++/4.9/bits/basic_string.h **** 	const size_type __pos = __p - _M_ibegin();
1359:/usr/include/c++/4.9/bits/basic_string.h **** 	_M_replace_aux(__pos, size_type(0), size_type(1), __c);
1360:/usr/include/c++/4.9/bits/basic_string.h **** 	_M_rep()->_M_set_leaked();
1361:/usr/include/c++/4.9/bits/basic_string.h **** 	return iterator(_M_data() + __pos);
1362:/usr/include/c++/4.9/bits/basic_string.h ****       }
1363:/usr/include/c++/4.9/bits/basic_string.h **** 
1364:/usr/include/c++/4.9/bits/basic_string.h ****       /**
1365:/usr/include/c++/4.9/bits/basic_string.h ****        *  @brief  Remove characters.
1366:/usr/include/c++/4.9/bits/basic_string.h ****        *  @param __pos  Index of first character to remove (default 0).
1367:/usr/include/c++/4.9/bits/basic_string.h ****        *  @param __n  Number of characters to remove (default remainder).
1368:/usr/include/c++/4.9/bits/basic_string.h ****        *  @return  Reference to this string.
1369:/usr/include/c++/4.9/bits/basic_string.h ****        *  @throw  std::out_of_range  If @a pos is beyond the end of this
1370:/usr/include/c++/4.9/bits/basic_string.h ****        *  string.
1371:/usr/include/c++/4.9/bits/basic_string.h ****        *
1372:/usr/include/c++/4.9/bits/basic_string.h ****        *  Removes @a __n characters from this string starting at @a
1373:/usr/include/c++/4.9/bits/basic_string.h ****        *  __pos.  The length of the string is reduced by @a __n.  If
1374:/usr/include/c++/4.9/bits/basic_string.h ****        *  there are < @a __n characters to remove, the remainder of
1375:/usr/include/c++/4.9/bits/basic_string.h ****        *  the string is truncated.  If @a __p is beyond end of string,
1376:/usr/include/c++/4.9/bits/basic_string.h ****        *  out_of_range is thrown.  The value of the string doesn't
1377:/usr/include/c++/4.9/bits/basic_string.h ****        *  change if an error is thrown.
1378:/usr/include/c++/4.9/bits/basic_string.h ****       */
1379:/usr/include/c++/4.9/bits/basic_string.h ****       basic_string&
1380:/usr/include/c++/4.9/bits/basic_string.h ****       erase(size_type __pos = 0, size_type __n = npos)
1381:/usr/include/c++/4.9/bits/basic_string.h ****       { 
1382:/usr/include/c++/4.9/bits/basic_string.h **** 	_M_mutate(_M_check(__pos, "basic_string::erase"),
1383:/usr/include/c++/4.9/bits/basic_string.h **** 		  _M_limit(__pos, __n), size_type(0));
1384:/usr/include/c++/4.9/bits/basic_string.h **** 	return *this;
1385:/usr/include/c++/4.9/bits/basic_string.h ****       }
1386:/usr/include/c++/4.9/bits/basic_string.h **** 
1387:/usr/include/c++/4.9/bits/basic_string.h ****       /**
1388:/usr/include/c++/4.9/bits/basic_string.h ****        *  @brief  Remove one character.
1389:/usr/include/c++/4.9/bits/basic_string.h ****        *  @param __position  Iterator referencing the character to remove.
1390:/usr/include/c++/4.9/bits/basic_string.h ****        *  @return  iterator referencing same location after removal.
1391:/usr/include/c++/4.9/bits/basic_string.h ****        *
1392:/usr/include/c++/4.9/bits/basic_string.h ****        *  Removes the character at @a __position from this string. The value
1393:/usr/include/c++/4.9/bits/basic_string.h ****        *  of the string doesn't change if an error is thrown.
1394:/usr/include/c++/4.9/bits/basic_string.h ****       */
1395:/usr/include/c++/4.9/bits/basic_string.h ****       iterator
1396:/usr/include/c++/4.9/bits/basic_string.h ****       erase(iterator __position)
1397:/usr/include/c++/4.9/bits/basic_string.h ****       {
1398:/usr/include/c++/4.9/bits/basic_string.h **** 	_GLIBCXX_DEBUG_PEDASSERT(__position >= _M_ibegin()
1399:/usr/include/c++/4.9/bits/basic_string.h **** 				 && __position < _M_iend());
1400:/usr/include/c++/4.9/bits/basic_string.h **** 	const size_type __pos = __position - _M_ibegin();
1401:/usr/include/c++/4.9/bits/basic_string.h **** 	_M_mutate(__pos, size_type(1), size_type(0));
1402:/usr/include/c++/4.9/bits/basic_string.h **** 	_M_rep()->_M_set_leaked();
1403:/usr/include/c++/4.9/bits/basic_string.h **** 	return iterator(_M_data() + __pos);
1404:/usr/include/c++/4.9/bits/basic_string.h ****       }
1405:/usr/include/c++/4.9/bits/basic_string.h **** 
1406:/usr/include/c++/4.9/bits/basic_string.h ****       /**
1407:/usr/include/c++/4.9/bits/basic_string.h ****        *  @brief  Remove a range of characters.
1408:/usr/include/c++/4.9/bits/basic_string.h ****        *  @param __first  Iterator referencing the first character to remove.
1409:/usr/include/c++/4.9/bits/basic_string.h ****        *  @param __last  Iterator referencing the end of the range.
1410:/usr/include/c++/4.9/bits/basic_string.h ****        *  @return  Iterator referencing location of first after removal.
1411:/usr/include/c++/4.9/bits/basic_string.h ****        *
1412:/usr/include/c++/4.9/bits/basic_string.h ****        *  Removes the characters in the range [first,last) from this string.
1413:/usr/include/c++/4.9/bits/basic_string.h ****        *  The value of the string doesn't change if an error is thrown.
1414:/usr/include/c++/4.9/bits/basic_string.h ****       */
1415:/usr/include/c++/4.9/bits/basic_string.h ****       iterator
1416:/usr/include/c++/4.9/bits/basic_string.h ****       erase(iterator __first, iterator __last);
1417:/usr/include/c++/4.9/bits/basic_string.h ****  
1418:/usr/include/c++/4.9/bits/basic_string.h **** #if __cplusplus >= 201103L
1419:/usr/include/c++/4.9/bits/basic_string.h ****       /**
1420:/usr/include/c++/4.9/bits/basic_string.h ****        *  @brief  Remove the last character.
1421:/usr/include/c++/4.9/bits/basic_string.h ****        *
1422:/usr/include/c++/4.9/bits/basic_string.h ****        *  The string must be non-empty.
1423:/usr/include/c++/4.9/bits/basic_string.h ****        */
1424:/usr/include/c++/4.9/bits/basic_string.h ****       void
1425:/usr/include/c++/4.9/bits/basic_string.h ****       pop_back() // FIXME C++11: should be noexcept.
1426:/usr/include/c++/4.9/bits/basic_string.h ****       { erase(size()-1, 1); }
1427:/usr/include/c++/4.9/bits/basic_string.h **** #endif // C++11
1428:/usr/include/c++/4.9/bits/basic_string.h **** 
1429:/usr/include/c++/4.9/bits/basic_string.h ****       /**
1430:/usr/include/c++/4.9/bits/basic_string.h ****        *  @brief  Replace characters with value from another string.
1431:/usr/include/c++/4.9/bits/basic_string.h ****        *  @param __pos  Index of first character to replace.
1432:/usr/include/c++/4.9/bits/basic_string.h ****        *  @param __n  Number of characters to be replaced.
1433:/usr/include/c++/4.9/bits/basic_string.h ****        *  @param __str  String to insert.
1434:/usr/include/c++/4.9/bits/basic_string.h ****        *  @return  Reference to this string.
1435:/usr/include/c++/4.9/bits/basic_string.h ****        *  @throw  std::out_of_range  If @a pos is beyond the end of this
1436:/usr/include/c++/4.9/bits/basic_string.h ****        *  string.
1437:/usr/include/c++/4.9/bits/basic_string.h ****        *  @throw  std::length_error  If new length exceeds @c max_size().
1438:/usr/include/c++/4.9/bits/basic_string.h ****        *
1439:/usr/include/c++/4.9/bits/basic_string.h ****        *  Removes the characters in the range [__pos,__pos+__n) from
1440:/usr/include/c++/4.9/bits/basic_string.h ****        *  this string.  In place, the value of @a __str is inserted.
1441:/usr/include/c++/4.9/bits/basic_string.h ****        *  If @a __pos is beyond end of string, out_of_range is thrown.
1442:/usr/include/c++/4.9/bits/basic_string.h ****        *  If the length of the result exceeds max_size(), length_error
1443:/usr/include/c++/4.9/bits/basic_string.h ****        *  is thrown.  The value of the string doesn't change if an
1444:/usr/include/c++/4.9/bits/basic_string.h ****        *  error is thrown.
1445:/usr/include/c++/4.9/bits/basic_string.h ****       */
1446:/usr/include/c++/4.9/bits/basic_string.h ****       basic_string&
1447:/usr/include/c++/4.9/bits/basic_string.h ****       replace(size_type __pos, size_type __n, const basic_string& __str)
1448:/usr/include/c++/4.9/bits/basic_string.h ****       { return this->replace(__pos, __n, __str._M_data(), __str.size()); }
1449:/usr/include/c++/4.9/bits/basic_string.h **** 
1450:/usr/include/c++/4.9/bits/basic_string.h ****       /**
1451:/usr/include/c++/4.9/bits/basic_string.h ****        *  @brief  Replace characters with value from another string.
1452:/usr/include/c++/4.9/bits/basic_string.h ****        *  @param __pos1  Index of first character to replace.
1453:/usr/include/c++/4.9/bits/basic_string.h ****        *  @param __n1  Number of characters to be replaced.
1454:/usr/include/c++/4.9/bits/basic_string.h ****        *  @param __str  String to insert.
1455:/usr/include/c++/4.9/bits/basic_string.h ****        *  @param __pos2  Index of first character of str to use.
1456:/usr/include/c++/4.9/bits/basic_string.h ****        *  @param __n2  Number of characters from str to use.
1457:/usr/include/c++/4.9/bits/basic_string.h ****        *  @return  Reference to this string.
1458:/usr/include/c++/4.9/bits/basic_string.h ****        *  @throw  std::out_of_range  If @a __pos1 > size() or @a __pos2 >
1459:/usr/include/c++/4.9/bits/basic_string.h ****        *  __str.size().
1460:/usr/include/c++/4.9/bits/basic_string.h ****        *  @throw  std::length_error  If new length exceeds @c max_size().
1461:/usr/include/c++/4.9/bits/basic_string.h ****        *
1462:/usr/include/c++/4.9/bits/basic_string.h ****        *  Removes the characters in the range [__pos1,__pos1 + n) from this
1463:/usr/include/c++/4.9/bits/basic_string.h ****        *  string.  In place, the value of @a __str is inserted.  If @a __pos is
1464:/usr/include/c++/4.9/bits/basic_string.h ****        *  beyond end of string, out_of_range is thrown.  If the length of the
1465:/usr/include/c++/4.9/bits/basic_string.h ****        *  result exceeds max_size(), length_error is thrown.  The value of the
1466:/usr/include/c++/4.9/bits/basic_string.h ****        *  string doesn't change if an error is thrown.
1467:/usr/include/c++/4.9/bits/basic_string.h ****       */
1468:/usr/include/c++/4.9/bits/basic_string.h ****       basic_string&
1469:/usr/include/c++/4.9/bits/basic_string.h ****       replace(size_type __pos1, size_type __n1, const basic_string& __str,
1470:/usr/include/c++/4.9/bits/basic_string.h **** 	      size_type __pos2, size_type __n2)
1471:/usr/include/c++/4.9/bits/basic_string.h ****       { return this->replace(__pos1, __n1, __str._M_data()
1472:/usr/include/c++/4.9/bits/basic_string.h **** 			     + __str._M_check(__pos2, "basic_string::replace"),
1473:/usr/include/c++/4.9/bits/basic_string.h **** 			     __str._M_limit(__pos2, __n2)); }
1474:/usr/include/c++/4.9/bits/basic_string.h **** 
1475:/usr/include/c++/4.9/bits/basic_string.h ****       /**
1476:/usr/include/c++/4.9/bits/basic_string.h ****        *  @brief  Replace characters with value of a C substring.
1477:/usr/include/c++/4.9/bits/basic_string.h ****        *  @param __pos  Index of first character to replace.
1478:/usr/include/c++/4.9/bits/basic_string.h ****        *  @param __n1  Number of characters to be replaced.
1479:/usr/include/c++/4.9/bits/basic_string.h ****        *  @param __s  C string to insert.
1480:/usr/include/c++/4.9/bits/basic_string.h ****        *  @param __n2  Number of characters from @a s to use.
1481:/usr/include/c++/4.9/bits/basic_string.h ****        *  @return  Reference to this string.
1482:/usr/include/c++/4.9/bits/basic_string.h ****        *  @throw  std::out_of_range  If @a pos1 > size().
1483:/usr/include/c++/4.9/bits/basic_string.h ****        *  @throw  std::length_error  If new length exceeds @c max_size().
1484:/usr/include/c++/4.9/bits/basic_string.h ****        *
1485:/usr/include/c++/4.9/bits/basic_string.h ****        *  Removes the characters in the range [__pos,__pos + __n1)
1486:/usr/include/c++/4.9/bits/basic_string.h ****        *  from this string.  In place, the first @a __n2 characters of
1487:/usr/include/c++/4.9/bits/basic_string.h ****        *  @a __s are inserted, or all of @a __s if @a __n2 is too large.  If
1488:/usr/include/c++/4.9/bits/basic_string.h ****        *  @a __pos is beyond end of string, out_of_range is thrown.  If
1489:/usr/include/c++/4.9/bits/basic_string.h ****        *  the length of result exceeds max_size(), length_error is
1490:/usr/include/c++/4.9/bits/basic_string.h ****        *  thrown.  The value of the string doesn't change if an error
1491:/usr/include/c++/4.9/bits/basic_string.h ****        *  is thrown.
1492:/usr/include/c++/4.9/bits/basic_string.h ****       */
1493:/usr/include/c++/4.9/bits/basic_string.h ****       basic_string&
1494:/usr/include/c++/4.9/bits/basic_string.h ****       replace(size_type __pos, size_type __n1, const _CharT* __s,
1495:/usr/include/c++/4.9/bits/basic_string.h **** 	      size_type __n2);
1496:/usr/include/c++/4.9/bits/basic_string.h **** 
1497:/usr/include/c++/4.9/bits/basic_string.h ****       /**
1498:/usr/include/c++/4.9/bits/basic_string.h ****        *  @brief  Replace characters with value of a C string.
1499:/usr/include/c++/4.9/bits/basic_string.h ****        *  @param __pos  Index of first character to replace.
1500:/usr/include/c++/4.9/bits/basic_string.h ****        *  @param __n1  Number of characters to be replaced.
1501:/usr/include/c++/4.9/bits/basic_string.h ****        *  @param __s  C string to insert.
1502:/usr/include/c++/4.9/bits/basic_string.h ****        *  @return  Reference to this string.
1503:/usr/include/c++/4.9/bits/basic_string.h ****        *  @throw  std::out_of_range  If @a pos > size().
1504:/usr/include/c++/4.9/bits/basic_string.h ****        *  @throw  std::length_error  If new length exceeds @c max_size().
1505:/usr/include/c++/4.9/bits/basic_string.h ****        *
1506:/usr/include/c++/4.9/bits/basic_string.h ****        *  Removes the characters in the range [__pos,__pos + __n1)
1507:/usr/include/c++/4.9/bits/basic_string.h ****        *  from this string.  In place, the characters of @a __s are
1508:/usr/include/c++/4.9/bits/basic_string.h ****        *  inserted.  If @a __pos is beyond end of string, out_of_range
1509:/usr/include/c++/4.9/bits/basic_string.h ****        *  is thrown.  If the length of result exceeds max_size(),
1510:/usr/include/c++/4.9/bits/basic_string.h ****        *  length_error is thrown.  The value of the string doesn't
1511:/usr/include/c++/4.9/bits/basic_string.h ****        *  change if an error is thrown.
1512:/usr/include/c++/4.9/bits/basic_string.h ****       */
1513:/usr/include/c++/4.9/bits/basic_string.h ****       basic_string&
1514:/usr/include/c++/4.9/bits/basic_string.h ****       replace(size_type __pos, size_type __n1, const _CharT* __s)
1515:/usr/include/c++/4.9/bits/basic_string.h ****       {
1516:/usr/include/c++/4.9/bits/basic_string.h **** 	__glibcxx_requires_string(__s);
1517:/usr/include/c++/4.9/bits/basic_string.h **** 	return this->replace(__pos, __n1, __s, traits_type::length(__s));
1518:/usr/include/c++/4.9/bits/basic_string.h ****       }
1519:/usr/include/c++/4.9/bits/basic_string.h **** 
1520:/usr/include/c++/4.9/bits/basic_string.h ****       /**
1521:/usr/include/c++/4.9/bits/basic_string.h ****        *  @brief  Replace characters with multiple characters.
1522:/usr/include/c++/4.9/bits/basic_string.h ****        *  @param __pos  Index of first character to replace.
1523:/usr/include/c++/4.9/bits/basic_string.h ****        *  @param __n1  Number of characters to be replaced.
1524:/usr/include/c++/4.9/bits/basic_string.h ****        *  @param __n2  Number of characters to insert.
1525:/usr/include/c++/4.9/bits/basic_string.h ****        *  @param __c  Character to insert.
1526:/usr/include/c++/4.9/bits/basic_string.h ****        *  @return  Reference to this string.
1527:/usr/include/c++/4.9/bits/basic_string.h ****        *  @throw  std::out_of_range  If @a __pos > size().
1528:/usr/include/c++/4.9/bits/basic_string.h ****        *  @throw  std::length_error  If new length exceeds @c max_size().
1529:/usr/include/c++/4.9/bits/basic_string.h ****        *
1530:/usr/include/c++/4.9/bits/basic_string.h ****        *  Removes the characters in the range [pos,pos + n1) from this
1531:/usr/include/c++/4.9/bits/basic_string.h ****        *  string.  In place, @a __n2 copies of @a __c are inserted.
1532:/usr/include/c++/4.9/bits/basic_string.h ****        *  If @a __pos is beyond end of string, out_of_range is thrown.
1533:/usr/include/c++/4.9/bits/basic_string.h ****        *  If the length of result exceeds max_size(), length_error is
1534:/usr/include/c++/4.9/bits/basic_string.h ****        *  thrown.  The value of the string doesn't change if an error
1535:/usr/include/c++/4.9/bits/basic_string.h ****        *  is thrown.
1536:/usr/include/c++/4.9/bits/basic_string.h ****       */
1537:/usr/include/c++/4.9/bits/basic_string.h ****       basic_string&
1538:/usr/include/c++/4.9/bits/basic_string.h ****       replace(size_type __pos, size_type __n1, size_type __n2, _CharT __c)
1539:/usr/include/c++/4.9/bits/basic_string.h ****       { return _M_replace_aux(_M_check(__pos, "basic_string::replace"),
1540:/usr/include/c++/4.9/bits/basic_string.h **** 			      _M_limit(__pos, __n1), __n2, __c); }
1541:/usr/include/c++/4.9/bits/basic_string.h **** 
1542:/usr/include/c++/4.9/bits/basic_string.h ****       /**
1543:/usr/include/c++/4.9/bits/basic_string.h ****        *  @brief  Replace range of characters with string.
1544:/usr/include/c++/4.9/bits/basic_string.h ****        *  @param __i1  Iterator referencing start of range to replace.
1545:/usr/include/c++/4.9/bits/basic_string.h ****        *  @param __i2  Iterator referencing end of range to replace.
1546:/usr/include/c++/4.9/bits/basic_string.h ****        *  @param __str  String value to insert.
1547:/usr/include/c++/4.9/bits/basic_string.h ****        *  @return  Reference to this string.
1548:/usr/include/c++/4.9/bits/basic_string.h ****        *  @throw  std::length_error  If new length exceeds @c max_size().
1549:/usr/include/c++/4.9/bits/basic_string.h ****        *
1550:/usr/include/c++/4.9/bits/basic_string.h ****        *  Removes the characters in the range [__i1,__i2).  In place,
1551:/usr/include/c++/4.9/bits/basic_string.h ****        *  the value of @a __str is inserted.  If the length of result
1552:/usr/include/c++/4.9/bits/basic_string.h ****        *  exceeds max_size(), length_error is thrown.  The value of
1553:/usr/include/c++/4.9/bits/basic_string.h ****        *  the string doesn't change if an error is thrown.
1554:/usr/include/c++/4.9/bits/basic_string.h ****       */
1555:/usr/include/c++/4.9/bits/basic_string.h ****       basic_string&
1556:/usr/include/c++/4.9/bits/basic_string.h ****       replace(iterator __i1, iterator __i2, const basic_string& __str)
1557:/usr/include/c++/4.9/bits/basic_string.h ****       { return this->replace(__i1, __i2, __str._M_data(), __str.size()); }
1558:/usr/include/c++/4.9/bits/basic_string.h **** 
1559:/usr/include/c++/4.9/bits/basic_string.h ****       /**
1560:/usr/include/c++/4.9/bits/basic_string.h ****        *  @brief  Replace range of characters with C substring.
1561:/usr/include/c++/4.9/bits/basic_string.h ****        *  @param __i1  Iterator referencing start of range to replace.
1562:/usr/include/c++/4.9/bits/basic_string.h ****        *  @param __i2  Iterator referencing end of range to replace.
1563:/usr/include/c++/4.9/bits/basic_string.h ****        *  @param __s  C string value to insert.
1564:/usr/include/c++/4.9/bits/basic_string.h ****        *  @param __n  Number of characters from s to insert.
1565:/usr/include/c++/4.9/bits/basic_string.h ****        *  @return  Reference to this string.
1566:/usr/include/c++/4.9/bits/basic_string.h ****        *  @throw  std::length_error  If new length exceeds @c max_size().
1567:/usr/include/c++/4.9/bits/basic_string.h ****        *
1568:/usr/include/c++/4.9/bits/basic_string.h ****        *  Removes the characters in the range [__i1,__i2).  In place,
1569:/usr/include/c++/4.9/bits/basic_string.h ****        *  the first @a __n characters of @a __s are inserted.  If the
1570:/usr/include/c++/4.9/bits/basic_string.h ****        *  length of result exceeds max_size(), length_error is thrown.
1571:/usr/include/c++/4.9/bits/basic_string.h ****        *  The value of the string doesn't change if an error is
1572:/usr/include/c++/4.9/bits/basic_string.h ****        *  thrown.
1573:/usr/include/c++/4.9/bits/basic_string.h ****       */
1574:/usr/include/c++/4.9/bits/basic_string.h ****       basic_string&
1575:/usr/include/c++/4.9/bits/basic_string.h ****       replace(iterator __i1, iterator __i2, const _CharT* __s, size_type __n)
1576:/usr/include/c++/4.9/bits/basic_string.h ****       {
1577:/usr/include/c++/4.9/bits/basic_string.h **** 	_GLIBCXX_DEBUG_PEDASSERT(_M_ibegin() <= __i1 && __i1 <= __i2
1578:/usr/include/c++/4.9/bits/basic_string.h **** 				 && __i2 <= _M_iend());
1579:/usr/include/c++/4.9/bits/basic_string.h **** 	return this->replace(__i1 - _M_ibegin(), __i2 - __i1, __s, __n);
1580:/usr/include/c++/4.9/bits/basic_string.h ****       }
1581:/usr/include/c++/4.9/bits/basic_string.h **** 
1582:/usr/include/c++/4.9/bits/basic_string.h ****       /**
1583:/usr/include/c++/4.9/bits/basic_string.h ****        *  @brief  Replace range of characters with C string.
1584:/usr/include/c++/4.9/bits/basic_string.h ****        *  @param __i1  Iterator referencing start of range to replace.
1585:/usr/include/c++/4.9/bits/basic_string.h ****        *  @param __i2  Iterator referencing end of range to replace.
1586:/usr/include/c++/4.9/bits/basic_string.h ****        *  @param __s  C string value to insert.
1587:/usr/include/c++/4.9/bits/basic_string.h ****        *  @return  Reference to this string.
1588:/usr/include/c++/4.9/bits/basic_string.h ****        *  @throw  std::length_error  If new length exceeds @c max_size().
1589:/usr/include/c++/4.9/bits/basic_string.h ****        *
1590:/usr/include/c++/4.9/bits/basic_string.h ****        *  Removes the characters in the range [__i1,__i2).  In place,
1591:/usr/include/c++/4.9/bits/basic_string.h ****        *  the characters of @a __s are inserted.  If the length of
1592:/usr/include/c++/4.9/bits/basic_string.h ****        *  result exceeds max_size(), length_error is thrown.  The
1593:/usr/include/c++/4.9/bits/basic_string.h ****        *  value of the string doesn't change if an error is thrown.
1594:/usr/include/c++/4.9/bits/basic_string.h ****       */
1595:/usr/include/c++/4.9/bits/basic_string.h ****       basic_string&
1596:/usr/include/c++/4.9/bits/basic_string.h ****       replace(iterator __i1, iterator __i2, const _CharT* __s)
1597:/usr/include/c++/4.9/bits/basic_string.h ****       {
1598:/usr/include/c++/4.9/bits/basic_string.h **** 	__glibcxx_requires_string(__s);
1599:/usr/include/c++/4.9/bits/basic_string.h **** 	return this->replace(__i1, __i2, __s, traits_type::length(__s));
1600:/usr/include/c++/4.9/bits/basic_string.h ****       }
1601:/usr/include/c++/4.9/bits/basic_string.h **** 
1602:/usr/include/c++/4.9/bits/basic_string.h ****       /**
1603:/usr/include/c++/4.9/bits/basic_string.h ****        *  @brief  Replace range of characters with multiple characters
1604:/usr/include/c++/4.9/bits/basic_string.h ****        *  @param __i1  Iterator referencing start of range to replace.
1605:/usr/include/c++/4.9/bits/basic_string.h ****        *  @param __i2  Iterator referencing end of range to replace.
1606:/usr/include/c++/4.9/bits/basic_string.h ****        *  @param __n  Number of characters to insert.
1607:/usr/include/c++/4.9/bits/basic_string.h ****        *  @param __c  Character to insert.
1608:/usr/include/c++/4.9/bits/basic_string.h ****        *  @return  Reference to this string.
1609:/usr/include/c++/4.9/bits/basic_string.h ****        *  @throw  std::length_error  If new length exceeds @c max_size().
1610:/usr/include/c++/4.9/bits/basic_string.h ****        *
1611:/usr/include/c++/4.9/bits/basic_string.h ****        *  Removes the characters in the range [__i1,__i2).  In place,
1612:/usr/include/c++/4.9/bits/basic_string.h ****        *  @a __n copies of @a __c are inserted.  If the length of
1613:/usr/include/c++/4.9/bits/basic_string.h ****        *  result exceeds max_size(), length_error is thrown.  The
1614:/usr/include/c++/4.9/bits/basic_string.h ****        *  value of the string doesn't change if an error is thrown.
1615:/usr/include/c++/4.9/bits/basic_string.h ****       */
1616:/usr/include/c++/4.9/bits/basic_string.h ****       basic_string&
1617:/usr/include/c++/4.9/bits/basic_string.h ****       replace(iterator __i1, iterator __i2, size_type __n, _CharT __c)
1618:/usr/include/c++/4.9/bits/basic_string.h ****       {
1619:/usr/include/c++/4.9/bits/basic_string.h **** 	_GLIBCXX_DEBUG_PEDASSERT(_M_ibegin() <= __i1 && __i1 <= __i2
1620:/usr/include/c++/4.9/bits/basic_string.h **** 				 && __i2 <= _M_iend());
1621:/usr/include/c++/4.9/bits/basic_string.h **** 	return _M_replace_aux(__i1 - _M_ibegin(), __i2 - __i1, __n, __c);
1622:/usr/include/c++/4.9/bits/basic_string.h ****       }
1623:/usr/include/c++/4.9/bits/basic_string.h **** 
1624:/usr/include/c++/4.9/bits/basic_string.h ****       /**
1625:/usr/include/c++/4.9/bits/basic_string.h ****        *  @brief  Replace range of characters with range.
1626:/usr/include/c++/4.9/bits/basic_string.h ****        *  @param __i1  Iterator referencing start of range to replace.
1627:/usr/include/c++/4.9/bits/basic_string.h ****        *  @param __i2  Iterator referencing end of range to replace.
1628:/usr/include/c++/4.9/bits/basic_string.h ****        *  @param __k1  Iterator referencing start of range to insert.
1629:/usr/include/c++/4.9/bits/basic_string.h ****        *  @param __k2  Iterator referencing end of range to insert.
1630:/usr/include/c++/4.9/bits/basic_string.h ****        *  @return  Reference to this string.
1631:/usr/include/c++/4.9/bits/basic_string.h ****        *  @throw  std::length_error  If new length exceeds @c max_size().
1632:/usr/include/c++/4.9/bits/basic_string.h ****        *
1633:/usr/include/c++/4.9/bits/basic_string.h ****        *  Removes the characters in the range [__i1,__i2).  In place,
1634:/usr/include/c++/4.9/bits/basic_string.h ****        *  characters in the range [__k1,__k2) are inserted.  If the
1635:/usr/include/c++/4.9/bits/basic_string.h ****        *  length of result exceeds max_size(), length_error is thrown.
1636:/usr/include/c++/4.9/bits/basic_string.h ****        *  The value of the string doesn't change if an error is
1637:/usr/include/c++/4.9/bits/basic_string.h ****        *  thrown.
1638:/usr/include/c++/4.9/bits/basic_string.h ****       */
1639:/usr/include/c++/4.9/bits/basic_string.h ****       template<class _InputIterator>
1640:/usr/include/c++/4.9/bits/basic_string.h ****         basic_string&
1641:/usr/include/c++/4.9/bits/basic_string.h ****         replace(iterator __i1, iterator __i2,
1642:/usr/include/c++/4.9/bits/basic_string.h **** 		_InputIterator __k1, _InputIterator __k2)
1643:/usr/include/c++/4.9/bits/basic_string.h ****         {
1644:/usr/include/c++/4.9/bits/basic_string.h **** 	  _GLIBCXX_DEBUG_PEDASSERT(_M_ibegin() <= __i1 && __i1 <= __i2
1645:/usr/include/c++/4.9/bits/basic_string.h **** 				   && __i2 <= _M_iend());
1646:/usr/include/c++/4.9/bits/basic_string.h **** 	  __glibcxx_requires_valid_range(__k1, __k2);
1647:/usr/include/c++/4.9/bits/basic_string.h **** 	  typedef typename std::__is_integer<_InputIterator>::__type _Integral;
1648:/usr/include/c++/4.9/bits/basic_string.h **** 	  return _M_replace_dispatch(__i1, __i2, __k1, __k2, _Integral());
1649:/usr/include/c++/4.9/bits/basic_string.h **** 	}
1650:/usr/include/c++/4.9/bits/basic_string.h **** 
1651:/usr/include/c++/4.9/bits/basic_string.h ****       // Specializations for the common case of pointer and iterator:
1652:/usr/include/c++/4.9/bits/basic_string.h ****       // useful to avoid the overhead of temporary buffering in _M_replace.
1653:/usr/include/c++/4.9/bits/basic_string.h ****       basic_string&
1654:/usr/include/c++/4.9/bits/basic_string.h ****       replace(iterator __i1, iterator __i2, _CharT* __k1, _CharT* __k2)
1655:/usr/include/c++/4.9/bits/basic_string.h ****       {
1656:/usr/include/c++/4.9/bits/basic_string.h **** 	_GLIBCXX_DEBUG_PEDASSERT(_M_ibegin() <= __i1 && __i1 <= __i2
1657:/usr/include/c++/4.9/bits/basic_string.h **** 				 && __i2 <= _M_iend());
1658:/usr/include/c++/4.9/bits/basic_string.h **** 	__glibcxx_requires_valid_range(__k1, __k2);
1659:/usr/include/c++/4.9/bits/basic_string.h **** 	return this->replace(__i1 - _M_ibegin(), __i2 - __i1,
1660:/usr/include/c++/4.9/bits/basic_string.h **** 			     __k1, __k2 - __k1);
1661:/usr/include/c++/4.9/bits/basic_string.h ****       }
1662:/usr/include/c++/4.9/bits/basic_string.h **** 
1663:/usr/include/c++/4.9/bits/basic_string.h ****       basic_string&
1664:/usr/include/c++/4.9/bits/basic_string.h ****       replace(iterator __i1, iterator __i2,
1665:/usr/include/c++/4.9/bits/basic_string.h **** 	      const _CharT* __k1, const _CharT* __k2)
1666:/usr/include/c++/4.9/bits/basic_string.h ****       {
1667:/usr/include/c++/4.9/bits/basic_string.h **** 	_GLIBCXX_DEBUG_PEDASSERT(_M_ibegin() <= __i1 && __i1 <= __i2
1668:/usr/include/c++/4.9/bits/basic_string.h **** 				 && __i2 <= _M_iend());
1669:/usr/include/c++/4.9/bits/basic_string.h **** 	__glibcxx_requires_valid_range(__k1, __k2);
1670:/usr/include/c++/4.9/bits/basic_string.h **** 	return this->replace(__i1 - _M_ibegin(), __i2 - __i1,
1671:/usr/include/c++/4.9/bits/basic_string.h **** 			     __k1, __k2 - __k1);
1672:/usr/include/c++/4.9/bits/basic_string.h ****       }
1673:/usr/include/c++/4.9/bits/basic_string.h **** 
1674:/usr/include/c++/4.9/bits/basic_string.h ****       basic_string&
1675:/usr/include/c++/4.9/bits/basic_string.h ****       replace(iterator __i1, iterator __i2, iterator __k1, iterator __k2)
1676:/usr/include/c++/4.9/bits/basic_string.h ****       {
1677:/usr/include/c++/4.9/bits/basic_string.h **** 	_GLIBCXX_DEBUG_PEDASSERT(_M_ibegin() <= __i1 && __i1 <= __i2
1678:/usr/include/c++/4.9/bits/basic_string.h **** 				 && __i2 <= _M_iend());
1679:/usr/include/c++/4.9/bits/basic_string.h **** 	__glibcxx_requires_valid_range(__k1, __k2);
1680:/usr/include/c++/4.9/bits/basic_string.h **** 	return this->replace(__i1 - _M_ibegin(), __i2 - __i1,
1681:/usr/include/c++/4.9/bits/basic_string.h **** 			     __k1.base(), __k2 - __k1);
1682:/usr/include/c++/4.9/bits/basic_string.h ****       }
1683:/usr/include/c++/4.9/bits/basic_string.h **** 
1684:/usr/include/c++/4.9/bits/basic_string.h ****       basic_string&
1685:/usr/include/c++/4.9/bits/basic_string.h ****       replace(iterator __i1, iterator __i2,
1686:/usr/include/c++/4.9/bits/basic_string.h **** 	      const_iterator __k1, const_iterator __k2)
1687:/usr/include/c++/4.9/bits/basic_string.h ****       {
1688:/usr/include/c++/4.9/bits/basic_string.h **** 	_GLIBCXX_DEBUG_PEDASSERT(_M_ibegin() <= __i1 && __i1 <= __i2
1689:/usr/include/c++/4.9/bits/basic_string.h **** 				 && __i2 <= _M_iend());
1690:/usr/include/c++/4.9/bits/basic_string.h **** 	__glibcxx_requires_valid_range(__k1, __k2);
1691:/usr/include/c++/4.9/bits/basic_string.h **** 	return this->replace(__i1 - _M_ibegin(), __i2 - __i1,
1692:/usr/include/c++/4.9/bits/basic_string.h **** 			     __k1.base(), __k2 - __k1);
1693:/usr/include/c++/4.9/bits/basic_string.h ****       }
1694:/usr/include/c++/4.9/bits/basic_string.h ****       
1695:/usr/include/c++/4.9/bits/basic_string.h **** #if __cplusplus >= 201103L
1696:/usr/include/c++/4.9/bits/basic_string.h ****       /**
1697:/usr/include/c++/4.9/bits/basic_string.h ****        *  @brief  Replace range of characters with initializer_list.
1698:/usr/include/c++/4.9/bits/basic_string.h ****        *  @param __i1  Iterator referencing start of range to replace.
1699:/usr/include/c++/4.9/bits/basic_string.h ****        *  @param __i2  Iterator referencing end of range to replace.
1700:/usr/include/c++/4.9/bits/basic_string.h ****        *  @param __l  The initializer_list of characters to insert.
1701:/usr/include/c++/4.9/bits/basic_string.h ****        *  @return  Reference to this string.
1702:/usr/include/c++/4.9/bits/basic_string.h ****        *  @throw  std::length_error  If new length exceeds @c max_size().
1703:/usr/include/c++/4.9/bits/basic_string.h ****        *
1704:/usr/include/c++/4.9/bits/basic_string.h ****        *  Removes the characters in the range [__i1,__i2).  In place,
1705:/usr/include/c++/4.9/bits/basic_string.h ****        *  characters in the range [__k1,__k2) are inserted.  If the
1706:/usr/include/c++/4.9/bits/basic_string.h ****        *  length of result exceeds max_size(), length_error is thrown.
1707:/usr/include/c++/4.9/bits/basic_string.h ****        *  The value of the string doesn't change if an error is
1708:/usr/include/c++/4.9/bits/basic_string.h ****        *  thrown.
1709:/usr/include/c++/4.9/bits/basic_string.h ****       */
1710:/usr/include/c++/4.9/bits/basic_string.h ****       basic_string& replace(iterator __i1, iterator __i2,
1711:/usr/include/c++/4.9/bits/basic_string.h **** 			    initializer_list<_CharT> __l)
1712:/usr/include/c++/4.9/bits/basic_string.h ****       { return this->replace(__i1, __i2, __l.begin(), __l.end()); }
1713:/usr/include/c++/4.9/bits/basic_string.h **** #endif // C++11
1714:/usr/include/c++/4.9/bits/basic_string.h **** 
1715:/usr/include/c++/4.9/bits/basic_string.h ****     private:
1716:/usr/include/c++/4.9/bits/basic_string.h ****       template<class _Integer>
1717:/usr/include/c++/4.9/bits/basic_string.h **** 	basic_string&
1718:/usr/include/c++/4.9/bits/basic_string.h **** 	_M_replace_dispatch(iterator __i1, iterator __i2, _Integer __n,
1719:/usr/include/c++/4.9/bits/basic_string.h **** 			    _Integer __val, __true_type)
1720:/usr/include/c++/4.9/bits/basic_string.h ****         { return _M_replace_aux(__i1 - _M_ibegin(), __i2 - __i1, __n, __val); }
1721:/usr/include/c++/4.9/bits/basic_string.h **** 
1722:/usr/include/c++/4.9/bits/basic_string.h ****       template<class _InputIterator>
1723:/usr/include/c++/4.9/bits/basic_string.h **** 	basic_string&
1724:/usr/include/c++/4.9/bits/basic_string.h **** 	_M_replace_dispatch(iterator __i1, iterator __i2, _InputIterator __k1,
1725:/usr/include/c++/4.9/bits/basic_string.h **** 			    _InputIterator __k2, __false_type);
1726:/usr/include/c++/4.9/bits/basic_string.h **** 
1727:/usr/include/c++/4.9/bits/basic_string.h ****       basic_string&
1728:/usr/include/c++/4.9/bits/basic_string.h ****       _M_replace_aux(size_type __pos1, size_type __n1, size_type __n2,
1729:/usr/include/c++/4.9/bits/basic_string.h **** 		     _CharT __c);
1730:/usr/include/c++/4.9/bits/basic_string.h **** 
1731:/usr/include/c++/4.9/bits/basic_string.h ****       basic_string&
1732:/usr/include/c++/4.9/bits/basic_string.h ****       _M_replace_safe(size_type __pos1, size_type __n1, const _CharT* __s,
1733:/usr/include/c++/4.9/bits/basic_string.h **** 		      size_type __n2);
1734:/usr/include/c++/4.9/bits/basic_string.h **** 
1735:/usr/include/c++/4.9/bits/basic_string.h ****       // _S_construct_aux is used to implement the 21.3.1 para 15 which
1736:/usr/include/c++/4.9/bits/basic_string.h ****       // requires special behaviour if _InIter is an integral type
1737:/usr/include/c++/4.9/bits/basic_string.h ****       template<class _InIterator>
1738:/usr/include/c++/4.9/bits/basic_string.h ****         static _CharT*
1739:/usr/include/c++/4.9/bits/basic_string.h ****         _S_construct_aux(_InIterator __beg, _InIterator __end,
1740:/usr/include/c++/4.9/bits/basic_string.h **** 			 const _Alloc& __a, __false_type)
1741:/usr/include/c++/4.9/bits/basic_string.h **** 	{
1742:/usr/include/c++/4.9/bits/basic_string.h ****           typedef typename iterator_traits<_InIterator>::iterator_category _Tag;
1743:/usr/include/c++/4.9/bits/basic_string.h ****           return _S_construct(__beg, __end, __a, _Tag());
1744:/usr/include/c++/4.9/bits/basic_string.h **** 	}
1745:/usr/include/c++/4.9/bits/basic_string.h **** 
1746:/usr/include/c++/4.9/bits/basic_string.h ****       // _GLIBCXX_RESOLVE_LIB_DEFECTS
1747:/usr/include/c++/4.9/bits/basic_string.h ****       // 438. Ambiguity in the "do the right thing" clause
1748:/usr/include/c++/4.9/bits/basic_string.h ****       template<class _Integer>
1749:/usr/include/c++/4.9/bits/basic_string.h ****         static _CharT*
1750:/usr/include/c++/4.9/bits/basic_string.h ****         _S_construct_aux(_Integer __beg, _Integer __end,
1751:/usr/include/c++/4.9/bits/basic_string.h **** 			 const _Alloc& __a, __true_type)
1752:/usr/include/c++/4.9/bits/basic_string.h ****         { return _S_construct_aux_2(static_cast<size_type>(__beg),
1753:/usr/include/c++/4.9/bits/basic_string.h **** 				    __end, __a); }
1754:/usr/include/c++/4.9/bits/basic_string.h **** 
1755:/usr/include/c++/4.9/bits/basic_string.h ****       static _CharT*
1756:/usr/include/c++/4.9/bits/basic_string.h ****       _S_construct_aux_2(size_type __req, _CharT __c, const _Alloc& __a)
1757:/usr/include/c++/4.9/bits/basic_string.h ****       { return _S_construct(__req, __c, __a); }
1758:/usr/include/c++/4.9/bits/basic_string.h **** 
1759:/usr/include/c++/4.9/bits/basic_string.h ****       template<class _InIterator>
1760:/usr/include/c++/4.9/bits/basic_string.h ****         static _CharT*
1761:/usr/include/c++/4.9/bits/basic_string.h ****         _S_construct(_InIterator __beg, _InIterator __end, const _Alloc& __a)
1762:/usr/include/c++/4.9/bits/basic_string.h **** 	{
1763:/usr/include/c++/4.9/bits/basic_string.h **** 	  typedef typename std::__is_integer<_InIterator>::__type _Integral;
1764:/usr/include/c++/4.9/bits/basic_string.h **** 	  return _S_construct_aux(__beg, __end, __a, _Integral());
1765:/usr/include/c++/4.9/bits/basic_string.h ****         }
1766:/usr/include/c++/4.9/bits/basic_string.h **** 
1767:/usr/include/c++/4.9/bits/basic_string.h ****       // For Input Iterators, used in istreambuf_iterators, etc.
1768:/usr/include/c++/4.9/bits/basic_string.h ****       template<class _InIterator>
1769:/usr/include/c++/4.9/bits/basic_string.h ****         static _CharT*
1770:/usr/include/c++/4.9/bits/basic_string.h ****          _S_construct(_InIterator __beg, _InIterator __end, const _Alloc& __a,
1771:/usr/include/c++/4.9/bits/basic_string.h **** 		      input_iterator_tag);
1772:/usr/include/c++/4.9/bits/basic_string.h **** 
1773:/usr/include/c++/4.9/bits/basic_string.h ****       // For forward_iterators up to random_access_iterators, used for
1774:/usr/include/c++/4.9/bits/basic_string.h ****       // string::iterator, _CharT*, etc.
1775:/usr/include/c++/4.9/bits/basic_string.h ****       template<class _FwdIterator>
1776:/usr/include/c++/4.9/bits/basic_string.h ****         static _CharT*
1777:/usr/include/c++/4.9/bits/basic_string.h ****         _S_construct(_FwdIterator __beg, _FwdIterator __end, const _Alloc& __a,
1778:/usr/include/c++/4.9/bits/basic_string.h **** 		     forward_iterator_tag);
1779:/usr/include/c++/4.9/bits/basic_string.h **** 
1780:/usr/include/c++/4.9/bits/basic_string.h ****       static _CharT*
1781:/usr/include/c++/4.9/bits/basic_string.h ****       _S_construct(size_type __req, _CharT __c, const _Alloc& __a);
1782:/usr/include/c++/4.9/bits/basic_string.h **** 
1783:/usr/include/c++/4.9/bits/basic_string.h ****     public:
1784:/usr/include/c++/4.9/bits/basic_string.h **** 
1785:/usr/include/c++/4.9/bits/basic_string.h ****       /**
1786:/usr/include/c++/4.9/bits/basic_string.h ****        *  @brief  Copy substring into C string.
1787:/usr/include/c++/4.9/bits/basic_string.h ****        *  @param __s  C string to copy value into.
1788:/usr/include/c++/4.9/bits/basic_string.h ****        *  @param __n  Number of characters to copy.
1789:/usr/include/c++/4.9/bits/basic_string.h ****        *  @param __pos  Index of first character to copy.
1790:/usr/include/c++/4.9/bits/basic_string.h ****        *  @return  Number of characters actually copied
1791:/usr/include/c++/4.9/bits/basic_string.h ****        *  @throw  std::out_of_range  If __pos > size().
1792:/usr/include/c++/4.9/bits/basic_string.h ****        *
1793:/usr/include/c++/4.9/bits/basic_string.h ****        *  Copies up to @a __n characters starting at @a __pos into the
1794:/usr/include/c++/4.9/bits/basic_string.h ****        *  C string @a __s.  If @a __pos is %greater than size(),
1795:/usr/include/c++/4.9/bits/basic_string.h ****        *  out_of_range is thrown.
1796:/usr/include/c++/4.9/bits/basic_string.h ****       */
1797:/usr/include/c++/4.9/bits/basic_string.h ****       size_type
1798:/usr/include/c++/4.9/bits/basic_string.h ****       copy(_CharT* __s, size_type __n, size_type __pos = 0) const;
1799:/usr/include/c++/4.9/bits/basic_string.h **** 
1800:/usr/include/c++/4.9/bits/basic_string.h ****       /**
1801:/usr/include/c++/4.9/bits/basic_string.h ****        *  @brief  Swap contents with another string.
1802:/usr/include/c++/4.9/bits/basic_string.h ****        *  @param __s  String to swap with.
1803:/usr/include/c++/4.9/bits/basic_string.h ****        *
1804:/usr/include/c++/4.9/bits/basic_string.h ****        *  Exchanges the contents of this string with that of @a __s in constant
1805:/usr/include/c++/4.9/bits/basic_string.h ****        *  time.
1806:/usr/include/c++/4.9/bits/basic_string.h ****       */
1807:/usr/include/c++/4.9/bits/basic_string.h ****       // PR 58265, this should be noexcept.
1808:/usr/include/c++/4.9/bits/basic_string.h ****       void
1809:/usr/include/c++/4.9/bits/basic_string.h ****       swap(basic_string& __s);
1810:/usr/include/c++/4.9/bits/basic_string.h **** 
1811:/usr/include/c++/4.9/bits/basic_string.h ****       // String operations:
1812:/usr/include/c++/4.9/bits/basic_string.h ****       /**
1813:/usr/include/c++/4.9/bits/basic_string.h ****        *  @brief  Return const pointer to null-terminated contents.
1814:/usr/include/c++/4.9/bits/basic_string.h ****        *
1815:/usr/include/c++/4.9/bits/basic_string.h ****        *  This is a handle to internal data.  Do not modify or dire things may
1816:/usr/include/c++/4.9/bits/basic_string.h ****        *  happen.
1817:/usr/include/c++/4.9/bits/basic_string.h ****       */
1818:/usr/include/c++/4.9/bits/basic_string.h ****       const _CharT*
1819:/usr/include/c++/4.9/bits/basic_string.h ****       c_str() const _GLIBCXX_NOEXCEPT
1820:/usr/include/c++/4.9/bits/basic_string.h ****       { return _M_data(); }
1821:/usr/include/c++/4.9/bits/basic_string.h **** 
1822:/usr/include/c++/4.9/bits/basic_string.h ****       /**
1823:/usr/include/c++/4.9/bits/basic_string.h ****        *  @brief  Return const pointer to contents.
1824:/usr/include/c++/4.9/bits/basic_string.h ****        *
1825:/usr/include/c++/4.9/bits/basic_string.h ****        *  This is a handle to internal data.  Do not modify or dire things may
1826:/usr/include/c++/4.9/bits/basic_string.h ****        *  happen.
1827:/usr/include/c++/4.9/bits/basic_string.h ****       */
1828:/usr/include/c++/4.9/bits/basic_string.h ****       const _CharT*
1829:/usr/include/c++/4.9/bits/basic_string.h ****       data() const _GLIBCXX_NOEXCEPT
1830:/usr/include/c++/4.9/bits/basic_string.h ****       { return _M_data(); }
1831:/usr/include/c++/4.9/bits/basic_string.h **** 
1832:/usr/include/c++/4.9/bits/basic_string.h ****       /**
1833:/usr/include/c++/4.9/bits/basic_string.h ****        *  @brief  Return copy of allocator used to construct this string.
1834:/usr/include/c++/4.9/bits/basic_string.h ****       */
1835:/usr/include/c++/4.9/bits/basic_string.h ****       allocator_type
1836:/usr/include/c++/4.9/bits/basic_string.h ****       get_allocator() const _GLIBCXX_NOEXCEPT
1837:/usr/include/c++/4.9/bits/basic_string.h ****       { return _M_dataplus; }
1838:/usr/include/c++/4.9/bits/basic_string.h **** 
1839:/usr/include/c++/4.9/bits/basic_string.h ****       /**
1840:/usr/include/c++/4.9/bits/basic_string.h ****        *  @brief  Find position of a C substring.
1841:/usr/include/c++/4.9/bits/basic_string.h ****        *  @param __s  C string to locate.
1842:/usr/include/c++/4.9/bits/basic_string.h ****        *  @param __pos  Index of character to search from.
1843:/usr/include/c++/4.9/bits/basic_string.h ****        *  @param __n  Number of characters from @a s to search for.
1844:/usr/include/c++/4.9/bits/basic_string.h ****        *  @return  Index of start of first occurrence.
1845:/usr/include/c++/4.9/bits/basic_string.h ****        *
1846:/usr/include/c++/4.9/bits/basic_string.h ****        *  Starting from @a __pos, searches forward for the first @a
1847:/usr/include/c++/4.9/bits/basic_string.h ****        *  __n characters in @a __s within this string.  If found,
1848:/usr/include/c++/4.9/bits/basic_string.h ****        *  returns the index where it begins.  If not found, returns
1849:/usr/include/c++/4.9/bits/basic_string.h ****        *  npos.
1850:/usr/include/c++/4.9/bits/basic_string.h ****       */
1851:/usr/include/c++/4.9/bits/basic_string.h ****       size_type
1852:/usr/include/c++/4.9/bits/basic_string.h ****       find(const _CharT* __s, size_type __pos, size_type __n) const;
1853:/usr/include/c++/4.9/bits/basic_string.h **** 
1854:/usr/include/c++/4.9/bits/basic_string.h ****       /**
1855:/usr/include/c++/4.9/bits/basic_string.h ****        *  @brief  Find position of a string.
1856:/usr/include/c++/4.9/bits/basic_string.h ****        *  @param __str  String to locate.
1857:/usr/include/c++/4.9/bits/basic_string.h ****        *  @param __pos  Index of character to search from (default 0).
1858:/usr/include/c++/4.9/bits/basic_string.h ****        *  @return  Index of start of first occurrence.
1859:/usr/include/c++/4.9/bits/basic_string.h ****        *
1860:/usr/include/c++/4.9/bits/basic_string.h ****        *  Starting from @a __pos, searches forward for value of @a __str within
1861:/usr/include/c++/4.9/bits/basic_string.h ****        *  this string.  If found, returns the index where it begins.  If not
1862:/usr/include/c++/4.9/bits/basic_string.h ****        *  found, returns npos.
1863:/usr/include/c++/4.9/bits/basic_string.h ****       */
1864:/usr/include/c++/4.9/bits/basic_string.h ****       size_type
1865:/usr/include/c++/4.9/bits/basic_string.h ****       find(const basic_string& __str, size_type __pos = 0) const
1866:/usr/include/c++/4.9/bits/basic_string.h **** 	_GLIBCXX_NOEXCEPT
1867:/usr/include/c++/4.9/bits/basic_string.h ****       { return this->find(__str.data(), __pos, __str.size()); }
1868:/usr/include/c++/4.9/bits/basic_string.h **** 
1869:/usr/include/c++/4.9/bits/basic_string.h ****       /**
1870:/usr/include/c++/4.9/bits/basic_string.h ****        *  @brief  Find position of a C string.
1871:/usr/include/c++/4.9/bits/basic_string.h ****        *  @param __s  C string to locate.
1872:/usr/include/c++/4.9/bits/basic_string.h ****        *  @param __pos  Index of character to search from (default 0).
1873:/usr/include/c++/4.9/bits/basic_string.h ****        *  @return  Index of start of first occurrence.
1874:/usr/include/c++/4.9/bits/basic_string.h ****        *
1875:/usr/include/c++/4.9/bits/basic_string.h ****        *  Starting from @a __pos, searches forward for the value of @a
1876:/usr/include/c++/4.9/bits/basic_string.h ****        *  __s within this string.  If found, returns the index where
1877:/usr/include/c++/4.9/bits/basic_string.h ****        *  it begins.  If not found, returns npos.
1878:/usr/include/c++/4.9/bits/basic_string.h ****       */
1879:/usr/include/c++/4.9/bits/basic_string.h ****       size_type
1880:/usr/include/c++/4.9/bits/basic_string.h ****       find(const _CharT* __s, size_type __pos = 0) const
1881:/usr/include/c++/4.9/bits/basic_string.h ****       {
1882:/usr/include/c++/4.9/bits/basic_string.h **** 	__glibcxx_requires_string(__s);
1883:/usr/include/c++/4.9/bits/basic_string.h **** 	return this->find(__s, __pos, traits_type::length(__s));
1884:/usr/include/c++/4.9/bits/basic_string.h ****       }
1885:/usr/include/c++/4.9/bits/basic_string.h **** 
1886:/usr/include/c++/4.9/bits/basic_string.h ****       /**
1887:/usr/include/c++/4.9/bits/basic_string.h ****        *  @brief  Find position of a character.
1888:/usr/include/c++/4.9/bits/basic_string.h ****        *  @param __c  Character to locate.
1889:/usr/include/c++/4.9/bits/basic_string.h ****        *  @param __pos  Index of character to search from (default 0).
1890:/usr/include/c++/4.9/bits/basic_string.h ****        *  @return  Index of first occurrence.
1891:/usr/include/c++/4.9/bits/basic_string.h ****        *
1892:/usr/include/c++/4.9/bits/basic_string.h ****        *  Starting from @a __pos, searches forward for @a __c within
1893:/usr/include/c++/4.9/bits/basic_string.h ****        *  this string.  If found, returns the index where it was
1894:/usr/include/c++/4.9/bits/basic_string.h ****        *  found.  If not found, returns npos.
1895:/usr/include/c++/4.9/bits/basic_string.h ****       */
1896:/usr/include/c++/4.9/bits/basic_string.h ****       size_type
1897:/usr/include/c++/4.9/bits/basic_string.h ****       find(_CharT __c, size_type __pos = 0) const _GLIBCXX_NOEXCEPT;
1898:/usr/include/c++/4.9/bits/basic_string.h **** 
1899:/usr/include/c++/4.9/bits/basic_string.h ****       /**
1900:/usr/include/c++/4.9/bits/basic_string.h ****        *  @brief  Find last position of a string.
1901:/usr/include/c++/4.9/bits/basic_string.h ****        *  @param __str  String to locate.
1902:/usr/include/c++/4.9/bits/basic_string.h ****        *  @param __pos  Index of character to search back from (default end).
1903:/usr/include/c++/4.9/bits/basic_string.h ****        *  @return  Index of start of last occurrence.
1904:/usr/include/c++/4.9/bits/basic_string.h ****        *
1905:/usr/include/c++/4.9/bits/basic_string.h ****        *  Starting from @a __pos, searches backward for value of @a
1906:/usr/include/c++/4.9/bits/basic_string.h ****        *  __str within this string.  If found, returns the index where
1907:/usr/include/c++/4.9/bits/basic_string.h ****        *  it begins.  If not found, returns npos.
1908:/usr/include/c++/4.9/bits/basic_string.h ****       */
1909:/usr/include/c++/4.9/bits/basic_string.h ****       size_type
1910:/usr/include/c++/4.9/bits/basic_string.h ****       rfind(const basic_string& __str, size_type __pos = npos) const
1911:/usr/include/c++/4.9/bits/basic_string.h **** 	_GLIBCXX_NOEXCEPT
1912:/usr/include/c++/4.9/bits/basic_string.h ****       { return this->rfind(__str.data(), __pos, __str.size()); }
1913:/usr/include/c++/4.9/bits/basic_string.h **** 
1914:/usr/include/c++/4.9/bits/basic_string.h ****       /**
1915:/usr/include/c++/4.9/bits/basic_string.h ****        *  @brief  Find last position of a C substring.
1916:/usr/include/c++/4.9/bits/basic_string.h ****        *  @param __s  C string to locate.
1917:/usr/include/c++/4.9/bits/basic_string.h ****        *  @param __pos  Index of character to search back from.
1918:/usr/include/c++/4.9/bits/basic_string.h ****        *  @param __n  Number of characters from s to search for.
1919:/usr/include/c++/4.9/bits/basic_string.h ****        *  @return  Index of start of last occurrence.
1920:/usr/include/c++/4.9/bits/basic_string.h ****        *
1921:/usr/include/c++/4.9/bits/basic_string.h ****        *  Starting from @a __pos, searches backward for the first @a
1922:/usr/include/c++/4.9/bits/basic_string.h ****        *  __n characters in @a __s within this string.  If found,
1923:/usr/include/c++/4.9/bits/basic_string.h ****        *  returns the index where it begins.  If not found, returns
1924:/usr/include/c++/4.9/bits/basic_string.h ****        *  npos.
1925:/usr/include/c++/4.9/bits/basic_string.h ****       */
1926:/usr/include/c++/4.9/bits/basic_string.h ****       size_type
1927:/usr/include/c++/4.9/bits/basic_string.h ****       rfind(const _CharT* __s, size_type __pos, size_type __n) const;
1928:/usr/include/c++/4.9/bits/basic_string.h **** 
1929:/usr/include/c++/4.9/bits/basic_string.h ****       /**
1930:/usr/include/c++/4.9/bits/basic_string.h ****        *  @brief  Find last position of a C string.
1931:/usr/include/c++/4.9/bits/basic_string.h ****        *  @param __s  C string to locate.
1932:/usr/include/c++/4.9/bits/basic_string.h ****        *  @param __pos  Index of character to start search at (default end).
1933:/usr/include/c++/4.9/bits/basic_string.h ****        *  @return  Index of start of  last occurrence.
1934:/usr/include/c++/4.9/bits/basic_string.h ****        *
1935:/usr/include/c++/4.9/bits/basic_string.h ****        *  Starting from @a __pos, searches backward for the value of
1936:/usr/include/c++/4.9/bits/basic_string.h ****        *  @a __s within this string.  If found, returns the index
1937:/usr/include/c++/4.9/bits/basic_string.h ****        *  where it begins.  If not found, returns npos.
1938:/usr/include/c++/4.9/bits/basic_string.h ****       */
1939:/usr/include/c++/4.9/bits/basic_string.h ****       size_type
1940:/usr/include/c++/4.9/bits/basic_string.h ****       rfind(const _CharT* __s, size_type __pos = npos) const
1941:/usr/include/c++/4.9/bits/basic_string.h ****       {
1942:/usr/include/c++/4.9/bits/basic_string.h **** 	__glibcxx_requires_string(__s);
1943:/usr/include/c++/4.9/bits/basic_string.h **** 	return this->rfind(__s, __pos, traits_type::length(__s));
1944:/usr/include/c++/4.9/bits/basic_string.h ****       }
1945:/usr/include/c++/4.9/bits/basic_string.h **** 
1946:/usr/include/c++/4.9/bits/basic_string.h ****       /**
1947:/usr/include/c++/4.9/bits/basic_string.h ****        *  @brief  Find last position of a character.
1948:/usr/include/c++/4.9/bits/basic_string.h ****        *  @param __c  Character to locate.
1949:/usr/include/c++/4.9/bits/basic_string.h ****        *  @param __pos  Index of character to search back from (default end).
1950:/usr/include/c++/4.9/bits/basic_string.h ****        *  @return  Index of last occurrence.
1951:/usr/include/c++/4.9/bits/basic_string.h ****        *
1952:/usr/include/c++/4.9/bits/basic_string.h ****        *  Starting from @a __pos, searches backward for @a __c within
1953:/usr/include/c++/4.9/bits/basic_string.h ****        *  this string.  If found, returns the index where it was
1954:/usr/include/c++/4.9/bits/basic_string.h ****        *  found.  If not found, returns npos.
1955:/usr/include/c++/4.9/bits/basic_string.h ****       */
1956:/usr/include/c++/4.9/bits/basic_string.h ****       size_type
1957:/usr/include/c++/4.9/bits/basic_string.h ****       rfind(_CharT __c, size_type __pos = npos) const _GLIBCXX_NOEXCEPT;
1958:/usr/include/c++/4.9/bits/basic_string.h **** 
1959:/usr/include/c++/4.9/bits/basic_string.h ****       /**
1960:/usr/include/c++/4.9/bits/basic_string.h ****        *  @brief  Find position of a character of string.
1961:/usr/include/c++/4.9/bits/basic_string.h ****        *  @param __str  String containing characters to locate.
1962:/usr/include/c++/4.9/bits/basic_string.h ****        *  @param __pos  Index of character to search from (default 0).
1963:/usr/include/c++/4.9/bits/basic_string.h ****        *  @return  Index of first occurrence.
1964:/usr/include/c++/4.9/bits/basic_string.h ****        *
1965:/usr/include/c++/4.9/bits/basic_string.h ****        *  Starting from @a __pos, searches forward for one of the
1966:/usr/include/c++/4.9/bits/basic_string.h ****        *  characters of @a __str within this string.  If found,
1967:/usr/include/c++/4.9/bits/basic_string.h ****        *  returns the index where it was found.  If not found, returns
1968:/usr/include/c++/4.9/bits/basic_string.h ****        *  npos.
1969:/usr/include/c++/4.9/bits/basic_string.h ****       */
1970:/usr/include/c++/4.9/bits/basic_string.h ****       size_type
1971:/usr/include/c++/4.9/bits/basic_string.h ****       find_first_of(const basic_string& __str, size_type __pos = 0) const
1972:/usr/include/c++/4.9/bits/basic_string.h **** 	_GLIBCXX_NOEXCEPT
1973:/usr/include/c++/4.9/bits/basic_string.h ****       { return this->find_first_of(__str.data(), __pos, __str.size()); }
1974:/usr/include/c++/4.9/bits/basic_string.h **** 
1975:/usr/include/c++/4.9/bits/basic_string.h ****       /**
1976:/usr/include/c++/4.9/bits/basic_string.h ****        *  @brief  Find position of a character of C substring.
1977:/usr/include/c++/4.9/bits/basic_string.h ****        *  @param __s  String containing characters to locate.
1978:/usr/include/c++/4.9/bits/basic_string.h ****        *  @param __pos  Index of character to search from.
1979:/usr/include/c++/4.9/bits/basic_string.h ****        *  @param __n  Number of characters from s to search for.
1980:/usr/include/c++/4.9/bits/basic_string.h ****        *  @return  Index of first occurrence.
1981:/usr/include/c++/4.9/bits/basic_string.h ****        *
1982:/usr/include/c++/4.9/bits/basic_string.h ****        *  Starting from @a __pos, searches forward for one of the
1983:/usr/include/c++/4.9/bits/basic_string.h ****        *  first @a __n characters of @a __s within this string.  If
1984:/usr/include/c++/4.9/bits/basic_string.h ****        *  found, returns the index where it was found.  If not found,
1985:/usr/include/c++/4.9/bits/basic_string.h ****        *  returns npos.
1986:/usr/include/c++/4.9/bits/basic_string.h ****       */
1987:/usr/include/c++/4.9/bits/basic_string.h ****       size_type
1988:/usr/include/c++/4.9/bits/basic_string.h ****       find_first_of(const _CharT* __s, size_type __pos, size_type __n) const;
1989:/usr/include/c++/4.9/bits/basic_string.h **** 
1990:/usr/include/c++/4.9/bits/basic_string.h ****       /**
1991:/usr/include/c++/4.9/bits/basic_string.h ****        *  @brief  Find position of a character of C string.
1992:/usr/include/c++/4.9/bits/basic_string.h ****        *  @param __s  String containing characters to locate.
1993:/usr/include/c++/4.9/bits/basic_string.h ****        *  @param __pos  Index of character to search from (default 0).
1994:/usr/include/c++/4.9/bits/basic_string.h ****        *  @return  Index of first occurrence.
1995:/usr/include/c++/4.9/bits/basic_string.h ****        *
1996:/usr/include/c++/4.9/bits/basic_string.h ****        *  Starting from @a __pos, searches forward for one of the
1997:/usr/include/c++/4.9/bits/basic_string.h ****        *  characters of @a __s within this string.  If found, returns
1998:/usr/include/c++/4.9/bits/basic_string.h ****        *  the index where it was found.  If not found, returns npos.
1999:/usr/include/c++/4.9/bits/basic_string.h ****       */
2000:/usr/include/c++/4.9/bits/basic_string.h ****       size_type
2001:/usr/include/c++/4.9/bits/basic_string.h ****       find_first_of(const _CharT* __s, size_type __pos = 0) const
2002:/usr/include/c++/4.9/bits/basic_string.h ****       {
2003:/usr/include/c++/4.9/bits/basic_string.h **** 	__glibcxx_requires_string(__s);
2004:/usr/include/c++/4.9/bits/basic_string.h **** 	return this->find_first_of(__s, __pos, traits_type::length(__s));
2005:/usr/include/c++/4.9/bits/basic_string.h ****       }
2006:/usr/include/c++/4.9/bits/basic_string.h **** 
2007:/usr/include/c++/4.9/bits/basic_string.h ****       /**
2008:/usr/include/c++/4.9/bits/basic_string.h ****        *  @brief  Find position of a character.
2009:/usr/include/c++/4.9/bits/basic_string.h ****        *  @param __c  Character to locate.
2010:/usr/include/c++/4.9/bits/basic_string.h ****        *  @param __pos  Index of character to search from (default 0).
2011:/usr/include/c++/4.9/bits/basic_string.h ****        *  @return  Index of first occurrence.
2012:/usr/include/c++/4.9/bits/basic_string.h ****        *
2013:/usr/include/c++/4.9/bits/basic_string.h ****        *  Starting from @a __pos, searches forward for the character
2014:/usr/include/c++/4.9/bits/basic_string.h ****        *  @a __c within this string.  If found, returns the index
2015:/usr/include/c++/4.9/bits/basic_string.h ****        *  where it was found.  If not found, returns npos.
2016:/usr/include/c++/4.9/bits/basic_string.h ****        *
2017:/usr/include/c++/4.9/bits/basic_string.h ****        *  Note: equivalent to find(__c, __pos).
2018:/usr/include/c++/4.9/bits/basic_string.h ****       */
2019:/usr/include/c++/4.9/bits/basic_string.h ****       size_type
2020:/usr/include/c++/4.9/bits/basic_string.h ****       find_first_of(_CharT __c, size_type __pos = 0) const _GLIBCXX_NOEXCEPT
2021:/usr/include/c++/4.9/bits/basic_string.h ****       { return this->find(__c, __pos); }
2022:/usr/include/c++/4.9/bits/basic_string.h **** 
2023:/usr/include/c++/4.9/bits/basic_string.h ****       /**
2024:/usr/include/c++/4.9/bits/basic_string.h ****        *  @brief  Find last position of a character of string.
2025:/usr/include/c++/4.9/bits/basic_string.h ****        *  @param __str  String containing characters to locate.
2026:/usr/include/c++/4.9/bits/basic_string.h ****        *  @param __pos  Index of character to search back from (default end).
2027:/usr/include/c++/4.9/bits/basic_string.h ****        *  @return  Index of last occurrence.
2028:/usr/include/c++/4.9/bits/basic_string.h ****        *
2029:/usr/include/c++/4.9/bits/basic_string.h ****        *  Starting from @a __pos, searches backward for one of the
2030:/usr/include/c++/4.9/bits/basic_string.h ****        *  characters of @a __str within this string.  If found,
2031:/usr/include/c++/4.9/bits/basic_string.h ****        *  returns the index where it was found.  If not found, returns
2032:/usr/include/c++/4.9/bits/basic_string.h ****        *  npos.
2033:/usr/include/c++/4.9/bits/basic_string.h ****       */
2034:/usr/include/c++/4.9/bits/basic_string.h ****       size_type
2035:/usr/include/c++/4.9/bits/basic_string.h ****       find_last_of(const basic_string& __str, size_type __pos = npos) const
2036:/usr/include/c++/4.9/bits/basic_string.h **** 	_GLIBCXX_NOEXCEPT
2037:/usr/include/c++/4.9/bits/basic_string.h ****       { return this->find_last_of(__str.data(), __pos, __str.size()); }
2038:/usr/include/c++/4.9/bits/basic_string.h **** 
2039:/usr/include/c++/4.9/bits/basic_string.h ****       /**
2040:/usr/include/c++/4.9/bits/basic_string.h ****        *  @brief  Find last position of a character of C substring.
2041:/usr/include/c++/4.9/bits/basic_string.h ****        *  @param __s  C string containing characters to locate.
2042:/usr/include/c++/4.9/bits/basic_string.h ****        *  @param __pos  Index of character to search back from.
2043:/usr/include/c++/4.9/bits/basic_string.h ****        *  @param __n  Number of characters from s to search for.
2044:/usr/include/c++/4.9/bits/basic_string.h ****        *  @return  Index of last occurrence.
2045:/usr/include/c++/4.9/bits/basic_string.h ****        *
2046:/usr/include/c++/4.9/bits/basic_string.h ****        *  Starting from @a __pos, searches backward for one of the
2047:/usr/include/c++/4.9/bits/basic_string.h ****        *  first @a __n characters of @a __s within this string.  If
2048:/usr/include/c++/4.9/bits/basic_string.h ****        *  found, returns the index where it was found.  If not found,
2049:/usr/include/c++/4.9/bits/basic_string.h ****        *  returns npos.
2050:/usr/include/c++/4.9/bits/basic_string.h ****       */
2051:/usr/include/c++/4.9/bits/basic_string.h ****       size_type
2052:/usr/include/c++/4.9/bits/basic_string.h ****       find_last_of(const _CharT* __s, size_type __pos, size_type __n) const;
2053:/usr/include/c++/4.9/bits/basic_string.h **** 
2054:/usr/include/c++/4.9/bits/basic_string.h ****       /**
2055:/usr/include/c++/4.9/bits/basic_string.h ****        *  @brief  Find last position of a character of C string.
2056:/usr/include/c++/4.9/bits/basic_string.h ****        *  @param __s  C string containing characters to locate.
2057:/usr/include/c++/4.9/bits/basic_string.h ****        *  @param __pos  Index of character to search back from (default end).
2058:/usr/include/c++/4.9/bits/basic_string.h ****        *  @return  Index of last occurrence.
2059:/usr/include/c++/4.9/bits/basic_string.h ****        *
2060:/usr/include/c++/4.9/bits/basic_string.h ****        *  Starting from @a __pos, searches backward for one of the
2061:/usr/include/c++/4.9/bits/basic_string.h ****        *  characters of @a __s within this string.  If found, returns
2062:/usr/include/c++/4.9/bits/basic_string.h ****        *  the index where it was found.  If not found, returns npos.
2063:/usr/include/c++/4.9/bits/basic_string.h ****       */
2064:/usr/include/c++/4.9/bits/basic_string.h ****       size_type
2065:/usr/include/c++/4.9/bits/basic_string.h ****       find_last_of(const _CharT* __s, size_type __pos = npos) const
2066:/usr/include/c++/4.9/bits/basic_string.h ****       {
2067:/usr/include/c++/4.9/bits/basic_string.h **** 	__glibcxx_requires_string(__s);
2068:/usr/include/c++/4.9/bits/basic_string.h **** 	return this->find_last_of(__s, __pos, traits_type::length(__s));
2069:/usr/include/c++/4.9/bits/basic_string.h ****       }
2070:/usr/include/c++/4.9/bits/basic_string.h **** 
2071:/usr/include/c++/4.9/bits/basic_string.h ****       /**
2072:/usr/include/c++/4.9/bits/basic_string.h ****        *  @brief  Find last position of a character.
2073:/usr/include/c++/4.9/bits/basic_string.h ****        *  @param __c  Character to locate.
2074:/usr/include/c++/4.9/bits/basic_string.h ****        *  @param __pos  Index of character to search back from (default end).
2075:/usr/include/c++/4.9/bits/basic_string.h ****        *  @return  Index of last occurrence.
2076:/usr/include/c++/4.9/bits/basic_string.h ****        *
2077:/usr/include/c++/4.9/bits/basic_string.h ****        *  Starting from @a __pos, searches backward for @a __c within
2078:/usr/include/c++/4.9/bits/basic_string.h ****        *  this string.  If found, returns the index where it was
2079:/usr/include/c++/4.9/bits/basic_string.h ****        *  found.  If not found, returns npos.
2080:/usr/include/c++/4.9/bits/basic_string.h ****        *
2081:/usr/include/c++/4.9/bits/basic_string.h ****        *  Note: equivalent to rfind(__c, __pos).
2082:/usr/include/c++/4.9/bits/basic_string.h ****       */
2083:/usr/include/c++/4.9/bits/basic_string.h ****       size_type
2084:/usr/include/c++/4.9/bits/basic_string.h ****       find_last_of(_CharT __c, size_type __pos = npos) const _GLIBCXX_NOEXCEPT
2085:/usr/include/c++/4.9/bits/basic_string.h ****       { return this->rfind(__c, __pos); }
2086:/usr/include/c++/4.9/bits/basic_string.h **** 
2087:/usr/include/c++/4.9/bits/basic_string.h ****       /**
2088:/usr/include/c++/4.9/bits/basic_string.h ****        *  @brief  Find position of a character not in string.
2089:/usr/include/c++/4.9/bits/basic_string.h ****        *  @param __str  String containing characters to avoid.
2090:/usr/include/c++/4.9/bits/basic_string.h ****        *  @param __pos  Index of character to search from (default 0).
2091:/usr/include/c++/4.9/bits/basic_string.h ****        *  @return  Index of first occurrence.
2092:/usr/include/c++/4.9/bits/basic_string.h ****        *
2093:/usr/include/c++/4.9/bits/basic_string.h ****        *  Starting from @a __pos, searches forward for a character not contained
2094:/usr/include/c++/4.9/bits/basic_string.h ****        *  in @a __str within this string.  If found, returns the index where it
2095:/usr/include/c++/4.9/bits/basic_string.h ****        *  was found.  If not found, returns npos.
2096:/usr/include/c++/4.9/bits/basic_string.h ****       */
2097:/usr/include/c++/4.9/bits/basic_string.h ****       size_type
2098:/usr/include/c++/4.9/bits/basic_string.h ****       find_first_not_of(const basic_string& __str, size_type __pos = 0) const
2099:/usr/include/c++/4.9/bits/basic_string.h **** 	_GLIBCXX_NOEXCEPT
2100:/usr/include/c++/4.9/bits/basic_string.h ****       { return this->find_first_not_of(__str.data(), __pos, __str.size()); }
2101:/usr/include/c++/4.9/bits/basic_string.h **** 
2102:/usr/include/c++/4.9/bits/basic_string.h ****       /**
2103:/usr/include/c++/4.9/bits/basic_string.h ****        *  @brief  Find position of a character not in C substring.
2104:/usr/include/c++/4.9/bits/basic_string.h ****        *  @param __s  C string containing characters to avoid.
2105:/usr/include/c++/4.9/bits/basic_string.h ****        *  @param __pos  Index of character to search from.
2106:/usr/include/c++/4.9/bits/basic_string.h ****        *  @param __n  Number of characters from __s to consider.
2107:/usr/include/c++/4.9/bits/basic_string.h ****        *  @return  Index of first occurrence.
2108:/usr/include/c++/4.9/bits/basic_string.h ****        *
2109:/usr/include/c++/4.9/bits/basic_string.h ****        *  Starting from @a __pos, searches forward for a character not
2110:/usr/include/c++/4.9/bits/basic_string.h ****        *  contained in the first @a __n characters of @a __s within
2111:/usr/include/c++/4.9/bits/basic_string.h ****        *  this string.  If found, returns the index where it was
2112:/usr/include/c++/4.9/bits/basic_string.h ****        *  found.  If not found, returns npos.
2113:/usr/include/c++/4.9/bits/basic_string.h ****       */
2114:/usr/include/c++/4.9/bits/basic_string.h ****       size_type
2115:/usr/include/c++/4.9/bits/basic_string.h ****       find_first_not_of(const _CharT* __s, size_type __pos,
2116:/usr/include/c++/4.9/bits/basic_string.h **** 			size_type __n) const;
2117:/usr/include/c++/4.9/bits/basic_string.h **** 
2118:/usr/include/c++/4.9/bits/basic_string.h ****       /**
2119:/usr/include/c++/4.9/bits/basic_string.h ****        *  @brief  Find position of a character not in C string.
2120:/usr/include/c++/4.9/bits/basic_string.h ****        *  @param __s  C string containing characters to avoid.
2121:/usr/include/c++/4.9/bits/basic_string.h ****        *  @param __pos  Index of character to search from (default 0).
2122:/usr/include/c++/4.9/bits/basic_string.h ****        *  @return  Index of first occurrence.
2123:/usr/include/c++/4.9/bits/basic_string.h ****        *
2124:/usr/include/c++/4.9/bits/basic_string.h ****        *  Starting from @a __pos, searches forward for a character not
2125:/usr/include/c++/4.9/bits/basic_string.h ****        *  contained in @a __s within this string.  If found, returns
2126:/usr/include/c++/4.9/bits/basic_string.h ****        *  the index where it was found.  If not found, returns npos.
2127:/usr/include/c++/4.9/bits/basic_string.h ****       */
2128:/usr/include/c++/4.9/bits/basic_string.h ****       size_type
2129:/usr/include/c++/4.9/bits/basic_string.h ****       find_first_not_of(const _CharT* __s, size_type __pos = 0) const
2130:/usr/include/c++/4.9/bits/basic_string.h ****       {
2131:/usr/include/c++/4.9/bits/basic_string.h **** 	__glibcxx_requires_string(__s);
2132:/usr/include/c++/4.9/bits/basic_string.h **** 	return this->find_first_not_of(__s, __pos, traits_type::length(__s));
2133:/usr/include/c++/4.9/bits/basic_string.h ****       }
2134:/usr/include/c++/4.9/bits/basic_string.h **** 
2135:/usr/include/c++/4.9/bits/basic_string.h ****       /**
2136:/usr/include/c++/4.9/bits/basic_string.h ****        *  @brief  Find position of a different character.
2137:/usr/include/c++/4.9/bits/basic_string.h ****        *  @param __c  Character to avoid.
2138:/usr/include/c++/4.9/bits/basic_string.h ****        *  @param __pos  Index of character to search from (default 0).
2139:/usr/include/c++/4.9/bits/basic_string.h ****        *  @return  Index of first occurrence.
2140:/usr/include/c++/4.9/bits/basic_string.h ****        *
2141:/usr/include/c++/4.9/bits/basic_string.h ****        *  Starting from @a __pos, searches forward for a character
2142:/usr/include/c++/4.9/bits/basic_string.h ****        *  other than @a __c within this string.  If found, returns the
2143:/usr/include/c++/4.9/bits/basic_string.h ****        *  index where it was found.  If not found, returns npos.
2144:/usr/include/c++/4.9/bits/basic_string.h ****       */
2145:/usr/include/c++/4.9/bits/basic_string.h ****       size_type
2146:/usr/include/c++/4.9/bits/basic_string.h ****       find_first_not_of(_CharT __c, size_type __pos = 0) const
2147:/usr/include/c++/4.9/bits/basic_string.h **** 	_GLIBCXX_NOEXCEPT;
2148:/usr/include/c++/4.9/bits/basic_string.h **** 
2149:/usr/include/c++/4.9/bits/basic_string.h ****       /**
2150:/usr/include/c++/4.9/bits/basic_string.h ****        *  @brief  Find last position of a character not in string.
2151:/usr/include/c++/4.9/bits/basic_string.h ****        *  @param __str  String containing characters to avoid.
2152:/usr/include/c++/4.9/bits/basic_string.h ****        *  @param __pos  Index of character to search back from (default end).
2153:/usr/include/c++/4.9/bits/basic_string.h ****        *  @return  Index of last occurrence.
2154:/usr/include/c++/4.9/bits/basic_string.h ****        *
2155:/usr/include/c++/4.9/bits/basic_string.h ****        *  Starting from @a __pos, searches backward for a character
2156:/usr/include/c++/4.9/bits/basic_string.h ****        *  not contained in @a __str within this string.  If found,
2157:/usr/include/c++/4.9/bits/basic_string.h ****        *  returns the index where it was found.  If not found, returns
2158:/usr/include/c++/4.9/bits/basic_string.h ****        *  npos.
2159:/usr/include/c++/4.9/bits/basic_string.h ****       */
2160:/usr/include/c++/4.9/bits/basic_string.h ****       size_type
2161:/usr/include/c++/4.9/bits/basic_string.h ****       find_last_not_of(const basic_string& __str, size_type __pos = npos) const
2162:/usr/include/c++/4.9/bits/basic_string.h **** 	_GLIBCXX_NOEXCEPT
2163:/usr/include/c++/4.9/bits/basic_string.h ****       { return this->find_last_not_of(__str.data(), __pos, __str.size()); }
2164:/usr/include/c++/4.9/bits/basic_string.h **** 
2165:/usr/include/c++/4.9/bits/basic_string.h ****       /**
2166:/usr/include/c++/4.9/bits/basic_string.h ****        *  @brief  Find last position of a character not in C substring.
2167:/usr/include/c++/4.9/bits/basic_string.h ****        *  @param __s  C string containing characters to avoid.
2168:/usr/include/c++/4.9/bits/basic_string.h ****        *  @param __pos  Index of character to search back from.
2169:/usr/include/c++/4.9/bits/basic_string.h ****        *  @param __n  Number of characters from s to consider.
2170:/usr/include/c++/4.9/bits/basic_string.h ****        *  @return  Index of last occurrence.
2171:/usr/include/c++/4.9/bits/basic_string.h ****        *
2172:/usr/include/c++/4.9/bits/basic_string.h ****        *  Starting from @a __pos, searches backward for a character not
2173:/usr/include/c++/4.9/bits/basic_string.h ****        *  contained in the first @a __n characters of @a __s within this string.
2174:/usr/include/c++/4.9/bits/basic_string.h ****        *  If found, returns the index where it was found.  If not found,
2175:/usr/include/c++/4.9/bits/basic_string.h ****        *  returns npos.
2176:/usr/include/c++/4.9/bits/basic_string.h ****       */
2177:/usr/include/c++/4.9/bits/basic_string.h ****       size_type
2178:/usr/include/c++/4.9/bits/basic_string.h ****       find_last_not_of(const _CharT* __s, size_type __pos,
2179:/usr/include/c++/4.9/bits/basic_string.h **** 		       size_type __n) const;
2180:/usr/include/c++/4.9/bits/basic_string.h ****       /**
2181:/usr/include/c++/4.9/bits/basic_string.h ****        *  @brief  Find last position of a character not in C string.
2182:/usr/include/c++/4.9/bits/basic_string.h ****        *  @param __s  C string containing characters to avoid.
2183:/usr/include/c++/4.9/bits/basic_string.h ****        *  @param __pos  Index of character to search back from (default end).
2184:/usr/include/c++/4.9/bits/basic_string.h ****        *  @return  Index of last occurrence.
2185:/usr/include/c++/4.9/bits/basic_string.h ****        *
2186:/usr/include/c++/4.9/bits/basic_string.h ****        *  Starting from @a __pos, searches backward for a character
2187:/usr/include/c++/4.9/bits/basic_string.h ****        *  not contained in @a __s within this string.  If found,
2188:/usr/include/c++/4.9/bits/basic_string.h ****        *  returns the index where it was found.  If not found, returns
2189:/usr/include/c++/4.9/bits/basic_string.h ****        *  npos.
2190:/usr/include/c++/4.9/bits/basic_string.h ****       */
2191:/usr/include/c++/4.9/bits/basic_string.h ****       size_type
2192:/usr/include/c++/4.9/bits/basic_string.h ****       find_last_not_of(const _CharT* __s, size_type __pos = npos) const
2193:/usr/include/c++/4.9/bits/basic_string.h ****       {
2194:/usr/include/c++/4.9/bits/basic_string.h **** 	__glibcxx_requires_string(__s);
2195:/usr/include/c++/4.9/bits/basic_string.h **** 	return this->find_last_not_of(__s, __pos, traits_type::length(__s));
2196:/usr/include/c++/4.9/bits/basic_string.h ****       }
2197:/usr/include/c++/4.9/bits/basic_string.h **** 
2198:/usr/include/c++/4.9/bits/basic_string.h ****       /**
2199:/usr/include/c++/4.9/bits/basic_string.h ****        *  @brief  Find last position of a different character.
2200:/usr/include/c++/4.9/bits/basic_string.h ****        *  @param __c  Character to avoid.
2201:/usr/include/c++/4.9/bits/basic_string.h ****        *  @param __pos  Index of character to search back from (default end).
2202:/usr/include/c++/4.9/bits/basic_string.h ****        *  @return  Index of last occurrence.
2203:/usr/include/c++/4.9/bits/basic_string.h ****        *
2204:/usr/include/c++/4.9/bits/basic_string.h ****        *  Starting from @a __pos, searches backward for a character other than
2205:/usr/include/c++/4.9/bits/basic_string.h ****        *  @a __c within this string.  If found, returns the index where it was
2206:/usr/include/c++/4.9/bits/basic_string.h ****        *  found.  If not found, returns npos.
2207:/usr/include/c++/4.9/bits/basic_string.h ****       */
2208:/usr/include/c++/4.9/bits/basic_string.h ****       size_type
2209:/usr/include/c++/4.9/bits/basic_string.h ****       find_last_not_of(_CharT __c, size_type __pos = npos) const
2210:/usr/include/c++/4.9/bits/basic_string.h **** 	_GLIBCXX_NOEXCEPT;
2211:/usr/include/c++/4.9/bits/basic_string.h **** 
2212:/usr/include/c++/4.9/bits/basic_string.h ****       /**
2213:/usr/include/c++/4.9/bits/basic_string.h ****        *  @brief  Get a substring.
2214:/usr/include/c++/4.9/bits/basic_string.h ****        *  @param __pos  Index of first character (default 0).
2215:/usr/include/c++/4.9/bits/basic_string.h ****        *  @param __n  Number of characters in substring (default remainder).
2216:/usr/include/c++/4.9/bits/basic_string.h ****        *  @return  The new string.
2217:/usr/include/c++/4.9/bits/basic_string.h ****        *  @throw  std::out_of_range  If __pos > size().
2218:/usr/include/c++/4.9/bits/basic_string.h ****        *
2219:/usr/include/c++/4.9/bits/basic_string.h ****        *  Construct and return a new string using the @a __n
2220:/usr/include/c++/4.9/bits/basic_string.h ****        *  characters starting at @a __pos.  If the string is too
2221:/usr/include/c++/4.9/bits/basic_string.h ****        *  short, use the remainder of the characters.  If @a __pos is
2222:/usr/include/c++/4.9/bits/basic_string.h ****        *  beyond the end of the string, out_of_range is thrown.
2223:/usr/include/c++/4.9/bits/basic_string.h ****       */
2224:/usr/include/c++/4.9/bits/basic_string.h ****       basic_string
2225:/usr/include/c++/4.9/bits/basic_string.h ****       substr(size_type __pos = 0, size_type __n = npos) const
2226:/usr/include/c++/4.9/bits/basic_string.h ****       { return basic_string(*this,
2227:/usr/include/c++/4.9/bits/basic_string.h **** 			    _M_check(__pos, "basic_string::substr"), __n); }
2228:/usr/include/c++/4.9/bits/basic_string.h **** 
2229:/usr/include/c++/4.9/bits/basic_string.h ****       /**
2230:/usr/include/c++/4.9/bits/basic_string.h ****        *  @brief  Compare to a string.
2231:/usr/include/c++/4.9/bits/basic_string.h ****        *  @param __str  String to compare against.
2232:/usr/include/c++/4.9/bits/basic_string.h ****        *  @return  Integer < 0, 0, or > 0.
2233:/usr/include/c++/4.9/bits/basic_string.h ****        *
2234:/usr/include/c++/4.9/bits/basic_string.h ****        *  Returns an integer < 0 if this string is ordered before @a
2235:/usr/include/c++/4.9/bits/basic_string.h ****        *  __str, 0 if their values are equivalent, or > 0 if this
2236:/usr/include/c++/4.9/bits/basic_string.h ****        *  string is ordered after @a __str.  Determines the effective
2237:/usr/include/c++/4.9/bits/basic_string.h ****        *  length rlen of the strings to compare as the smallest of
2238:/usr/include/c++/4.9/bits/basic_string.h ****        *  size() and str.size().  The function then compares the two
2239:/usr/include/c++/4.9/bits/basic_string.h ****        *  strings by calling traits::compare(data(), str.data(),rlen).
2240:/usr/include/c++/4.9/bits/basic_string.h ****        *  If the result of the comparison is nonzero returns it,
2241:/usr/include/c++/4.9/bits/basic_string.h ****        *  otherwise the shorter one is ordered first.
2242:/usr/include/c++/4.9/bits/basic_string.h ****       */
2243:/usr/include/c++/4.9/bits/basic_string.h ****       int
2244:/usr/include/c++/4.9/bits/basic_string.h ****       compare(const basic_string& __str) const
2245:/usr/include/c++/4.9/bits/basic_string.h ****       {
2246:/usr/include/c++/4.9/bits/basic_string.h **** 	const size_type __size = this->size();
2247:/usr/include/c++/4.9/bits/basic_string.h **** 	const size_type __osize = __str.size();
2248:/usr/include/c++/4.9/bits/basic_string.h **** 	const size_type __len = std::min(__size, __osize);
2249:/usr/include/c++/4.9/bits/basic_string.h **** 
2250:/usr/include/c++/4.9/bits/basic_string.h **** 	int __r = traits_type::compare(_M_data(), __str.data(), __len);
2251:/usr/include/c++/4.9/bits/basic_string.h **** 	if (!__r)
2252:/usr/include/c++/4.9/bits/basic_string.h **** 	  __r = _S_compare(__size, __osize);
2253:/usr/include/c++/4.9/bits/basic_string.h **** 	return __r;
2254:/usr/include/c++/4.9/bits/basic_string.h ****       }
2255:/usr/include/c++/4.9/bits/basic_string.h **** 
2256:/usr/include/c++/4.9/bits/basic_string.h ****       /**
2257:/usr/include/c++/4.9/bits/basic_string.h ****        *  @brief  Compare substring to a string.
2258:/usr/include/c++/4.9/bits/basic_string.h ****        *  @param __pos  Index of first character of substring.
2259:/usr/include/c++/4.9/bits/basic_string.h ****        *  @param __n  Number of characters in substring.
2260:/usr/include/c++/4.9/bits/basic_string.h ****        *  @param __str  String to compare against.
2261:/usr/include/c++/4.9/bits/basic_string.h ****        *  @return  Integer < 0, 0, or > 0.
2262:/usr/include/c++/4.9/bits/basic_string.h ****        *
2263:/usr/include/c++/4.9/bits/basic_string.h ****        *  Form the substring of this string from the @a __n characters
2264:/usr/include/c++/4.9/bits/basic_string.h ****        *  starting at @a __pos.  Returns an integer < 0 if the
2265:/usr/include/c++/4.9/bits/basic_string.h ****        *  substring is ordered before @a __str, 0 if their values are
2266:/usr/include/c++/4.9/bits/basic_string.h ****        *  equivalent, or > 0 if the substring is ordered after @a
2267:/usr/include/c++/4.9/bits/basic_string.h ****        *  __str.  Determines the effective length rlen of the strings
2268:/usr/include/c++/4.9/bits/basic_string.h ****        *  to compare as the smallest of the length of the substring
2269:/usr/include/c++/4.9/bits/basic_string.h ****        *  and @a __str.size().  The function then compares the two
2270:/usr/include/c++/4.9/bits/basic_string.h ****        *  strings by calling
2271:/usr/include/c++/4.9/bits/basic_string.h ****        *  traits::compare(substring.data(),str.data(),rlen).  If the
2272:/usr/include/c++/4.9/bits/basic_string.h ****        *  result of the comparison is nonzero returns it, otherwise
2273:/usr/include/c++/4.9/bits/basic_string.h ****        *  the shorter one is ordered first.
2274:/usr/include/c++/4.9/bits/basic_string.h ****       */
2275:/usr/include/c++/4.9/bits/basic_string.h ****       int
2276:/usr/include/c++/4.9/bits/basic_string.h ****       compare(size_type __pos, size_type __n, const basic_string& __str) const;
2277:/usr/include/c++/4.9/bits/basic_string.h **** 
2278:/usr/include/c++/4.9/bits/basic_string.h ****       /**
2279:/usr/include/c++/4.9/bits/basic_string.h ****        *  @brief  Compare substring to a substring.
2280:/usr/include/c++/4.9/bits/basic_string.h ****        *  @param __pos1  Index of first character of substring.
2281:/usr/include/c++/4.9/bits/basic_string.h ****        *  @param __n1  Number of characters in substring.
2282:/usr/include/c++/4.9/bits/basic_string.h ****        *  @param __str  String to compare against.
2283:/usr/include/c++/4.9/bits/basic_string.h ****        *  @param __pos2  Index of first character of substring of str.
2284:/usr/include/c++/4.9/bits/basic_string.h ****        *  @param __n2  Number of characters in substring of str.
2285:/usr/include/c++/4.9/bits/basic_string.h ****        *  @return  Integer < 0, 0, or > 0.
2286:/usr/include/c++/4.9/bits/basic_string.h ****        *
2287:/usr/include/c++/4.9/bits/basic_string.h ****        *  Form the substring of this string from the @a __n1
2288:/usr/include/c++/4.9/bits/basic_string.h ****        *  characters starting at @a __pos1.  Form the substring of @a
2289:/usr/include/c++/4.9/bits/basic_string.h ****        *  __str from the @a __n2 characters starting at @a __pos2.
2290:/usr/include/c++/4.9/bits/basic_string.h ****        *  Returns an integer < 0 if this substring is ordered before
2291:/usr/include/c++/4.9/bits/basic_string.h ****        *  the substring of @a __str, 0 if their values are equivalent,
2292:/usr/include/c++/4.9/bits/basic_string.h ****        *  or > 0 if this substring is ordered after the substring of
2293:/usr/include/c++/4.9/bits/basic_string.h ****        *  @a __str.  Determines the effective length rlen of the
2294:/usr/include/c++/4.9/bits/basic_string.h ****        *  strings to compare as the smallest of the lengths of the
2295:/usr/include/c++/4.9/bits/basic_string.h ****        *  substrings.  The function then compares the two strings by
2296:/usr/include/c++/4.9/bits/basic_string.h ****        *  calling
2297:/usr/include/c++/4.9/bits/basic_string.h ****        *  traits::compare(substring.data(),str.substr(pos2,n2).data(),rlen).
2298:/usr/include/c++/4.9/bits/basic_string.h ****        *  If the result of the comparison is nonzero returns it,
2299:/usr/include/c++/4.9/bits/basic_string.h ****        *  otherwise the shorter one is ordered first.
2300:/usr/include/c++/4.9/bits/basic_string.h ****       */
2301:/usr/include/c++/4.9/bits/basic_string.h ****       int
2302:/usr/include/c++/4.9/bits/basic_string.h ****       compare(size_type __pos1, size_type __n1, const basic_string& __str,
2303:/usr/include/c++/4.9/bits/basic_string.h **** 	      size_type __pos2, size_type __n2) const;
2304:/usr/include/c++/4.9/bits/basic_string.h **** 
2305:/usr/include/c++/4.9/bits/basic_string.h ****       /**
2306:/usr/include/c++/4.9/bits/basic_string.h ****        *  @brief  Compare to a C string.
2307:/usr/include/c++/4.9/bits/basic_string.h ****        *  @param __s  C string to compare against.
2308:/usr/include/c++/4.9/bits/basic_string.h ****        *  @return  Integer < 0, 0, or > 0.
2309:/usr/include/c++/4.9/bits/basic_string.h ****        *
2310:/usr/include/c++/4.9/bits/basic_string.h ****        *  Returns an integer < 0 if this string is ordered before @a __s, 0 if
2311:/usr/include/c++/4.9/bits/basic_string.h ****        *  their values are equivalent, or > 0 if this string is ordered after
2312:/usr/include/c++/4.9/bits/basic_string.h ****        *  @a __s.  Determines the effective length rlen of the strings to
2313:/usr/include/c++/4.9/bits/basic_string.h ****        *  compare as the smallest of size() and the length of a string
2314:/usr/include/c++/4.9/bits/basic_string.h ****        *  constructed from @a __s.  The function then compares the two strings
2315:/usr/include/c++/4.9/bits/basic_string.h ****        *  by calling traits::compare(data(),s,rlen).  If the result of the
2316:/usr/include/c++/4.9/bits/basic_string.h ****        *  comparison is nonzero returns it, otherwise the shorter one is
2317:/usr/include/c++/4.9/bits/basic_string.h ****        *  ordered first.
2318:/usr/include/c++/4.9/bits/basic_string.h ****       */
2319:/usr/include/c++/4.9/bits/basic_string.h ****       int
2320:/usr/include/c++/4.9/bits/basic_string.h ****       compare(const _CharT* __s) const;
2321:/usr/include/c++/4.9/bits/basic_string.h **** 
2322:/usr/include/c++/4.9/bits/basic_string.h ****       // _GLIBCXX_RESOLVE_LIB_DEFECTS
2323:/usr/include/c++/4.9/bits/basic_string.h ****       // 5 String::compare specification questionable
2324:/usr/include/c++/4.9/bits/basic_string.h ****       /**
2325:/usr/include/c++/4.9/bits/basic_string.h ****        *  @brief  Compare substring to a C string.
2326:/usr/include/c++/4.9/bits/basic_string.h ****        *  @param __pos  Index of first character of substring.
2327:/usr/include/c++/4.9/bits/basic_string.h ****        *  @param __n1  Number of characters in substring.
2328:/usr/include/c++/4.9/bits/basic_string.h ****        *  @param __s  C string to compare against.
2329:/usr/include/c++/4.9/bits/basic_string.h ****        *  @return  Integer < 0, 0, or > 0.
2330:/usr/include/c++/4.9/bits/basic_string.h ****        *
2331:/usr/include/c++/4.9/bits/basic_string.h ****        *  Form the substring of this string from the @a __n1
2332:/usr/include/c++/4.9/bits/basic_string.h ****        *  characters starting at @a pos.  Returns an integer < 0 if
2333:/usr/include/c++/4.9/bits/basic_string.h ****        *  the substring is ordered before @a __s, 0 if their values
2334:/usr/include/c++/4.9/bits/basic_string.h ****        *  are equivalent, or > 0 if the substring is ordered after @a
2335:/usr/include/c++/4.9/bits/basic_string.h ****        *  __s.  Determines the effective length rlen of the strings to
2336:/usr/include/c++/4.9/bits/basic_string.h ****        *  compare as the smallest of the length of the substring and
2337:/usr/include/c++/4.9/bits/basic_string.h ****        *  the length of a string constructed from @a __s.  The
2338:/usr/include/c++/4.9/bits/basic_string.h ****        *  function then compares the two string by calling
2339:/usr/include/c++/4.9/bits/basic_string.h ****        *  traits::compare(substring.data(),__s,rlen).  If the result of
2340:/usr/include/c++/4.9/bits/basic_string.h ****        *  the comparison is nonzero returns it, otherwise the shorter
2341:/usr/include/c++/4.9/bits/basic_string.h ****        *  one is ordered first.
2342:/usr/include/c++/4.9/bits/basic_string.h ****       */
2343:/usr/include/c++/4.9/bits/basic_string.h ****       int
2344:/usr/include/c++/4.9/bits/basic_string.h ****       compare(size_type __pos, size_type __n1, const _CharT* __s) const;
2345:/usr/include/c++/4.9/bits/basic_string.h **** 
2346:/usr/include/c++/4.9/bits/basic_string.h ****       /**
2347:/usr/include/c++/4.9/bits/basic_string.h ****        *  @brief  Compare substring against a character %array.
2348:/usr/include/c++/4.9/bits/basic_string.h ****        *  @param __pos  Index of first character of substring.
2349:/usr/include/c++/4.9/bits/basic_string.h ****        *  @param __n1  Number of characters in substring.
2350:/usr/include/c++/4.9/bits/basic_string.h ****        *  @param __s  character %array to compare against.
2351:/usr/include/c++/4.9/bits/basic_string.h ****        *  @param __n2  Number of characters of s.
2352:/usr/include/c++/4.9/bits/basic_string.h ****        *  @return  Integer < 0, 0, or > 0.
2353:/usr/include/c++/4.9/bits/basic_string.h ****        *
2354:/usr/include/c++/4.9/bits/basic_string.h ****        *  Form the substring of this string from the @a __n1
2355:/usr/include/c++/4.9/bits/basic_string.h ****        *  characters starting at @a __pos.  Form a string from the
2356:/usr/include/c++/4.9/bits/basic_string.h ****        *  first @a __n2 characters of @a __s.  Returns an integer < 0
2357:/usr/include/c++/4.9/bits/basic_string.h ****        *  if this substring is ordered before the string from @a __s,
2358:/usr/include/c++/4.9/bits/basic_string.h ****        *  0 if their values are equivalent, or > 0 if this substring
2359:/usr/include/c++/4.9/bits/basic_string.h ****        *  is ordered after the string from @a __s.  Determines the
2360:/usr/include/c++/4.9/bits/basic_string.h ****        *  effective length rlen of the strings to compare as the
2361:/usr/include/c++/4.9/bits/basic_string.h ****        *  smallest of the length of the substring and @a __n2.  The
2362:/usr/include/c++/4.9/bits/basic_string.h ****        *  function then compares the two strings by calling
2363:/usr/include/c++/4.9/bits/basic_string.h ****        *  traits::compare(substring.data(),s,rlen).  If the result of
2364:/usr/include/c++/4.9/bits/basic_string.h ****        *  the comparison is nonzero returns it, otherwise the shorter
2365:/usr/include/c++/4.9/bits/basic_string.h ****        *  one is ordered first.
2366:/usr/include/c++/4.9/bits/basic_string.h ****        *
2367:/usr/include/c++/4.9/bits/basic_string.h ****        *  NB: s must have at least n2 characters, &apos;\\0&apos; has
2368:/usr/include/c++/4.9/bits/basic_string.h ****        *  no special meaning.
2369:/usr/include/c++/4.9/bits/basic_string.h ****       */
2370:/usr/include/c++/4.9/bits/basic_string.h ****       int
2371:/usr/include/c++/4.9/bits/basic_string.h ****       compare(size_type __pos, size_type __n1, const _CharT* __s,
2372:/usr/include/c++/4.9/bits/basic_string.h **** 	      size_type __n2) const;
2373:/usr/include/c++/4.9/bits/basic_string.h ****   };
2374:/usr/include/c++/4.9/bits/basic_string.h **** 
2375:/usr/include/c++/4.9/bits/basic_string.h ****   // operator+
2376:/usr/include/c++/4.9/bits/basic_string.h ****   /**
2377:/usr/include/c++/4.9/bits/basic_string.h ****    *  @brief  Concatenate two strings.
2378:/usr/include/c++/4.9/bits/basic_string.h ****    *  @param __lhs  First string.
2379:/usr/include/c++/4.9/bits/basic_string.h ****    *  @param __rhs  Last string.
2380:/usr/include/c++/4.9/bits/basic_string.h ****    *  @return  New string with value of @a __lhs followed by @a __rhs.
2381:/usr/include/c++/4.9/bits/basic_string.h ****    */
2382:/usr/include/c++/4.9/bits/basic_string.h ****   template<typename _CharT, typename _Traits, typename _Alloc>
2383:/usr/include/c++/4.9/bits/basic_string.h ****     basic_string<_CharT, _Traits, _Alloc>
2384:/usr/include/c++/4.9/bits/basic_string.h ****     operator+(const basic_string<_CharT, _Traits, _Alloc>& __lhs,
2385:/usr/include/c++/4.9/bits/basic_string.h **** 	      const basic_string<_CharT, _Traits, _Alloc>& __rhs)
2386:/usr/include/c++/4.9/bits/basic_string.h ****     {
2387:/usr/include/c++/4.9/bits/basic_string.h ****       basic_string<_CharT, _Traits, _Alloc> __str(__lhs);
2388:/usr/include/c++/4.9/bits/basic_string.h ****       __str.append(__rhs);
2389:/usr/include/c++/4.9/bits/basic_string.h ****       return __str;
2390:/usr/include/c++/4.9/bits/basic_string.h ****     }
2391:/usr/include/c++/4.9/bits/basic_string.h **** 
2392:/usr/include/c++/4.9/bits/basic_string.h ****   /**
2393:/usr/include/c++/4.9/bits/basic_string.h ****    *  @brief  Concatenate C string and string.
2394:/usr/include/c++/4.9/bits/basic_string.h ****    *  @param __lhs  First string.
2395:/usr/include/c++/4.9/bits/basic_string.h ****    *  @param __rhs  Last string.
2396:/usr/include/c++/4.9/bits/basic_string.h ****    *  @return  New string with value of @a __lhs followed by @a __rhs.
2397:/usr/include/c++/4.9/bits/basic_string.h ****    */
2398:/usr/include/c++/4.9/bits/basic_string.h ****   template<typename _CharT, typename _Traits, typename _Alloc>
2399:/usr/include/c++/4.9/bits/basic_string.h ****     basic_string<_CharT,_Traits,_Alloc>
2400:/usr/include/c++/4.9/bits/basic_string.h ****     operator+(const _CharT* __lhs,
2401:/usr/include/c++/4.9/bits/basic_string.h **** 	      const basic_string<_CharT,_Traits,_Alloc>& __rhs);
2402:/usr/include/c++/4.9/bits/basic_string.h **** 
2403:/usr/include/c++/4.9/bits/basic_string.h ****   /**
2404:/usr/include/c++/4.9/bits/basic_string.h ****    *  @brief  Concatenate character and string.
2405:/usr/include/c++/4.9/bits/basic_string.h ****    *  @param __lhs  First string.
2406:/usr/include/c++/4.9/bits/basic_string.h ****    *  @param __rhs  Last string.
2407:/usr/include/c++/4.9/bits/basic_string.h ****    *  @return  New string with @a __lhs followed by @a __rhs.
2408:/usr/include/c++/4.9/bits/basic_string.h ****    */
2409:/usr/include/c++/4.9/bits/basic_string.h ****   template<typename _CharT, typename _Traits, typename _Alloc>
2410:/usr/include/c++/4.9/bits/basic_string.h ****     basic_string<_CharT,_Traits,_Alloc>
2411:/usr/include/c++/4.9/bits/basic_string.h ****     operator+(_CharT __lhs, const basic_string<_CharT,_Traits,_Alloc>& __rhs);
2412:/usr/include/c++/4.9/bits/basic_string.h **** 
2413:/usr/include/c++/4.9/bits/basic_string.h ****   /**
2414:/usr/include/c++/4.9/bits/basic_string.h ****    *  @brief  Concatenate string and C string.
2415:/usr/include/c++/4.9/bits/basic_string.h ****    *  @param __lhs  First string.
2416:/usr/include/c++/4.9/bits/basic_string.h ****    *  @param __rhs  Last string.
2417:/usr/include/c++/4.9/bits/basic_string.h ****    *  @return  New string with @a __lhs followed by @a __rhs.
2418:/usr/include/c++/4.9/bits/basic_string.h ****    */
2419:/usr/include/c++/4.9/bits/basic_string.h ****   template<typename _CharT, typename _Traits, typename _Alloc>
2420:/usr/include/c++/4.9/bits/basic_string.h ****     inline basic_string<_CharT, _Traits, _Alloc>
2421:/usr/include/c++/4.9/bits/basic_string.h ****     operator+(const basic_string<_CharT, _Traits, _Alloc>& __lhs,
2422:/usr/include/c++/4.9/bits/basic_string.h **** 	     const _CharT* __rhs)
2423:/usr/include/c++/4.9/bits/basic_string.h ****     {
2424:/usr/include/c++/4.9/bits/basic_string.h ****       basic_string<_CharT, _Traits, _Alloc> __str(__lhs);
2425:/usr/include/c++/4.9/bits/basic_string.h ****       __str.append(__rhs);
2426:/usr/include/c++/4.9/bits/basic_string.h ****       return __str;
2427:/usr/include/c++/4.9/bits/basic_string.h ****     }
2428:/usr/include/c++/4.9/bits/basic_string.h **** 
2429:/usr/include/c++/4.9/bits/basic_string.h ****   /**
2430:/usr/include/c++/4.9/bits/basic_string.h ****    *  @brief  Concatenate string and character.
2431:/usr/include/c++/4.9/bits/basic_string.h ****    *  @param __lhs  First string.
2432:/usr/include/c++/4.9/bits/basic_string.h ****    *  @param __rhs  Last string.
2433:/usr/include/c++/4.9/bits/basic_string.h ****    *  @return  New string with @a __lhs followed by @a __rhs.
2434:/usr/include/c++/4.9/bits/basic_string.h ****    */
2435:/usr/include/c++/4.9/bits/basic_string.h ****   template<typename _CharT, typename _Traits, typename _Alloc>
2436:/usr/include/c++/4.9/bits/basic_string.h ****     inline basic_string<_CharT, _Traits, _Alloc>
2437:/usr/include/c++/4.9/bits/basic_string.h ****     operator+(const basic_string<_CharT, _Traits, _Alloc>& __lhs, _CharT __rhs)
2438:/usr/include/c++/4.9/bits/basic_string.h ****     {
2439:/usr/include/c++/4.9/bits/basic_string.h ****       typedef basic_string<_CharT, _Traits, _Alloc>	__string_type;
2440:/usr/include/c++/4.9/bits/basic_string.h ****       typedef typename __string_type::size_type		__size_type;
2441:/usr/include/c++/4.9/bits/basic_string.h ****       __string_type __str(__lhs);
2442:/usr/include/c++/4.9/bits/basic_string.h ****       __str.append(__size_type(1), __rhs);
2443:/usr/include/c++/4.9/bits/basic_string.h ****       return __str;
2444:/usr/include/c++/4.9/bits/basic_string.h ****     }
2445:/usr/include/c++/4.9/bits/basic_string.h **** 
2446:/usr/include/c++/4.9/bits/basic_string.h **** #if __cplusplus >= 201103L
2447:/usr/include/c++/4.9/bits/basic_string.h ****   template<typename _CharT, typename _Traits, typename _Alloc>
2448:/usr/include/c++/4.9/bits/basic_string.h ****     inline basic_string<_CharT, _Traits, _Alloc>
2449:/usr/include/c++/4.9/bits/basic_string.h ****     operator+(basic_string<_CharT, _Traits, _Alloc>&& __lhs,
2450:/usr/include/c++/4.9/bits/basic_string.h **** 	      const basic_string<_CharT, _Traits, _Alloc>& __rhs)
2451:/usr/include/c++/4.9/bits/basic_string.h ****     { return std::move(__lhs.append(__rhs)); }
2452:/usr/include/c++/4.9/bits/basic_string.h **** 
2453:/usr/include/c++/4.9/bits/basic_string.h ****   template<typename _CharT, typename _Traits, typename _Alloc>
2454:/usr/include/c++/4.9/bits/basic_string.h ****     inline basic_string<_CharT, _Traits, _Alloc>
2455:/usr/include/c++/4.9/bits/basic_string.h ****     operator+(const basic_string<_CharT, _Traits, _Alloc>& __lhs,
2456:/usr/include/c++/4.9/bits/basic_string.h **** 	      basic_string<_CharT, _Traits, _Alloc>&& __rhs)
2457:/usr/include/c++/4.9/bits/basic_string.h ****     { return std::move(__rhs.insert(0, __lhs)); }
2458:/usr/include/c++/4.9/bits/basic_string.h **** 
2459:/usr/include/c++/4.9/bits/basic_string.h ****   template<typename _CharT, typename _Traits, typename _Alloc>
2460:/usr/include/c++/4.9/bits/basic_string.h ****     inline basic_string<_CharT, _Traits, _Alloc>
2461:/usr/include/c++/4.9/bits/basic_string.h ****     operator+(basic_string<_CharT, _Traits, _Alloc>&& __lhs,
2462:/usr/include/c++/4.9/bits/basic_string.h **** 	      basic_string<_CharT, _Traits, _Alloc>&& __rhs)
2463:/usr/include/c++/4.9/bits/basic_string.h ****     {
2464:/usr/include/c++/4.9/bits/basic_string.h ****       const auto __size = __lhs.size() + __rhs.size();
2465:/usr/include/c++/4.9/bits/basic_string.h ****       const bool __cond = (__size > __lhs.capacity()
2466:/usr/include/c++/4.9/bits/basic_string.h **** 			   && __size <= __rhs.capacity());
2467:/usr/include/c++/4.9/bits/basic_string.h ****       return __cond ? std::move(__rhs.insert(0, __lhs))
2468:/usr/include/c++/4.9/bits/basic_string.h **** 	            : std::move(__lhs.append(__rhs));
2469:/usr/include/c++/4.9/bits/basic_string.h ****     }
2470:/usr/include/c++/4.9/bits/basic_string.h **** 
2471:/usr/include/c++/4.9/bits/basic_string.h ****   template<typename _CharT, typename _Traits, typename _Alloc>
2472:/usr/include/c++/4.9/bits/basic_string.h ****     inline basic_string<_CharT, _Traits, _Alloc>
2473:/usr/include/c++/4.9/bits/basic_string.h ****     operator+(const _CharT* __lhs,
2474:/usr/include/c++/4.9/bits/basic_string.h **** 	      basic_string<_CharT, _Traits, _Alloc>&& __rhs)
2475:/usr/include/c++/4.9/bits/basic_string.h ****     { return std::move(__rhs.insert(0, __lhs)); }
2476:/usr/include/c++/4.9/bits/basic_string.h **** 
2477:/usr/include/c++/4.9/bits/basic_string.h ****   template<typename _CharT, typename _Traits, typename _Alloc>
2478:/usr/include/c++/4.9/bits/basic_string.h ****     inline basic_string<_CharT, _Traits, _Alloc>
2479:/usr/include/c++/4.9/bits/basic_string.h ****     operator+(_CharT __lhs,
2480:/usr/include/c++/4.9/bits/basic_string.h **** 	      basic_string<_CharT, _Traits, _Alloc>&& __rhs)
2481:/usr/include/c++/4.9/bits/basic_string.h ****     { return std::move(__rhs.insert(0, 1, __lhs)); }
2482:/usr/include/c++/4.9/bits/basic_string.h **** 
2483:/usr/include/c++/4.9/bits/basic_string.h ****   template<typename _CharT, typename _Traits, typename _Alloc>
2484:/usr/include/c++/4.9/bits/basic_string.h ****     inline basic_string<_CharT, _Traits, _Alloc>
2485:/usr/include/c++/4.9/bits/basic_string.h ****     operator+(basic_string<_CharT, _Traits, _Alloc>&& __lhs,
2486:/usr/include/c++/4.9/bits/basic_string.h **** 	      const _CharT* __rhs)
2487:/usr/include/c++/4.9/bits/basic_string.h ****     { return std::move(__lhs.append(__rhs)); }
2488:/usr/include/c++/4.9/bits/basic_string.h **** 
2489:/usr/include/c++/4.9/bits/basic_string.h ****   template<typename _CharT, typename _Traits, typename _Alloc>
2490:/usr/include/c++/4.9/bits/basic_string.h ****     inline basic_string<_CharT, _Traits, _Alloc>
2491:/usr/include/c++/4.9/bits/basic_string.h ****     operator+(basic_string<_CharT, _Traits, _Alloc>&& __lhs,
2492:/usr/include/c++/4.9/bits/basic_string.h **** 	      _CharT __rhs)
2493:/usr/include/c++/4.9/bits/basic_string.h ****     { return std::move(__lhs.append(1, __rhs)); }
2494:/usr/include/c++/4.9/bits/basic_string.h **** #endif
2495:/usr/include/c++/4.9/bits/basic_string.h **** 
2496:/usr/include/c++/4.9/bits/basic_string.h ****   // operator ==
2497:/usr/include/c++/4.9/bits/basic_string.h ****   /**
2498:/usr/include/c++/4.9/bits/basic_string.h ****    *  @brief  Test equivalence of two strings.
2499:/usr/include/c++/4.9/bits/basic_string.h ****    *  @param __lhs  First string.
2500:/usr/include/c++/4.9/bits/basic_string.h ****    *  @param __rhs  Second string.
2501:/usr/include/c++/4.9/bits/basic_string.h ****    *  @return  True if @a __lhs.compare(@a __rhs) == 0.  False otherwise.
2502:/usr/include/c++/4.9/bits/basic_string.h ****    */
2503:/usr/include/c++/4.9/bits/basic_string.h ****   template<typename _CharT, typename _Traits, typename _Alloc>
2504:/usr/include/c++/4.9/bits/basic_string.h ****     inline bool
2505:/usr/include/c++/4.9/bits/basic_string.h ****     operator==(const basic_string<_CharT, _Traits, _Alloc>& __lhs,
2506:/usr/include/c++/4.9/bits/basic_string.h **** 	       const basic_string<_CharT, _Traits, _Alloc>& __rhs)
2507:/usr/include/c++/4.9/bits/basic_string.h ****     { return __lhs.compare(__rhs) == 0; }
2508:/usr/include/c++/4.9/bits/basic_string.h **** 
2509:/usr/include/c++/4.9/bits/basic_string.h ****   template<typename _CharT>
2510:/usr/include/c++/4.9/bits/basic_string.h ****     inline
2511:/usr/include/c++/4.9/bits/basic_string.h ****     typename __gnu_cxx::__enable_if<__is_char<_CharT>::__value, bool>::__type
2512:/usr/include/c++/4.9/bits/basic_string.h ****     operator==(const basic_string<_CharT>& __lhs,
2513:/usr/include/c++/4.9/bits/basic_string.h **** 	       const basic_string<_CharT>& __rhs)
2514:/usr/include/c++/4.9/bits/basic_string.h ****     { return (__lhs.size() == __rhs.size()
2515:/usr/include/c++/4.9/bits/basic_string.h **** 	      && !std::char_traits<_CharT>::compare(__lhs.data(), __rhs.data(),
2516:/usr/include/c++/4.9/bits/basic_string.h **** 						    __lhs.size())); }
2517:/usr/include/c++/4.9/bits/basic_string.h **** 
2518:/usr/include/c++/4.9/bits/basic_string.h ****   /**
2519:/usr/include/c++/4.9/bits/basic_string.h ****    *  @brief  Test equivalence of C string and string.
2520:/usr/include/c++/4.9/bits/basic_string.h ****    *  @param __lhs  C string.
2521:/usr/include/c++/4.9/bits/basic_string.h ****    *  @param __rhs  String.
2522:/usr/include/c++/4.9/bits/basic_string.h ****    *  @return  True if @a __rhs.compare(@a __lhs) == 0.  False otherwise.
2523:/usr/include/c++/4.9/bits/basic_string.h ****    */
2524:/usr/include/c++/4.9/bits/basic_string.h ****   template<typename _CharT, typename _Traits, typename _Alloc>
2525:/usr/include/c++/4.9/bits/basic_string.h ****     inline bool
2526:/usr/include/c++/4.9/bits/basic_string.h ****     operator==(const _CharT* __lhs,
 8788              		.loc 6 2526 0
 8789              		.cfi_startproc
 8790 0000 55       		pushq	%rbp
 8791              		.cfi_def_cfa_offset 16
 8792              		.cfi_offset 6, -16
 8793 0001 4889E5   		movq	%rsp, %rbp
 8794              		.cfi_def_cfa_register 6
 8795 0004 4883EC10 		subq	$16, %rsp
 8796 0008 48897DF8 		movq	%rdi, -8(%rbp)
 8797 000c 488975F0 		movq	%rsi, -16(%rbp)
2527:/usr/include/c++/4.9/bits/basic_string.h **** 	       const basic_string<_CharT, _Traits, _Alloc>& __rhs)
2528:/usr/include/c++/4.9/bits/basic_string.h ****     { return __rhs.compare(__lhs) == 0; }
 8798              		.loc 6 2528 0
 8799 0010 488B55F8 		movq	-8(%rbp), %rdx
 8800 0014 488B45F0 		movq	-16(%rbp), %rax
 8801 0018 4889D6   		movq	%rdx, %rsi
 8802 001b 4889C7   		movq	%rax, %rdi
 8803 001e E8000000 		call	_ZNKSs7compareEPKc
 8803      00
 8804 0023 85C0     		testl	%eax, %eax
 8805 0025 0F94C0   		sete	%al
 8806 0028 C9       		leave
 8807              		.cfi_def_cfa 7, 8
 8808 0029 C3       		ret
 8809              		.cfi_endproc
 8810              	.LFE1500:
 8812              		.section	.rodata
 8813 0977 00000000 		.align 32
 8813      00000000 
 8813      00
 8816              	_ZTVN12_GLOBAL__N_142TestXmlTestReporterFixtureMultipleFailuresE:
 8817 0980 00000000 		.quad	0
 8817      00000000 
 8818 0988 00000000 		.quad	_ZTIN12_GLOBAL__N_142TestXmlTestReporterFixtureMultipleFailuresE
 8818      00000000 
 8819 0990 00000000 		.quad	_ZN12_GLOBAL__N_142TestXmlTestReporterFixtureMultipleFailuresD1Ev
 8819      00000000 
 8820 0998 00000000 		.quad	_ZN12_GLOBAL__N_142TestXmlTestReporterFixtureMultipleFailuresD0Ev
 8820      00000000 
 8821 09a0 00000000 		.quad	_ZNK12_GLOBAL__N_142TestXmlTestReporterFixtureMultipleFailures7RunImplEv
 8821      00000000 
 8822              		.text
 8823 418b 90       		.align 2
 8825              	_ZN12_GLOBAL__N_142TestXmlTestReporterFixtureMultipleFailuresD2Ev:
 8826              	.LFB1543:
 159:TestXmlTestReporter.cpp **** {
 8827              		.loc 3 159 0
 8828              		.cfi_startproc
 8829 418c 55       		pushq	%rbp
 8830              		.cfi_def_cfa_offset 16
 8831              		.cfi_offset 6, -16
 8832 418d 4889E5   		movq	%rsp, %rbp
 8833              		.cfi_def_cfa_register 6
 8834 4190 4883EC10 		subq	$16, %rsp
 8835 4194 48897DF8 		movq	%rdi, -8(%rbp)
 8836              	.LBB244:
 159:TestXmlTestReporter.cpp **** {
 8837              		.loc 3 159 0
 8838 4198 488B45F8 		movq	-8(%rbp), %rax
 8839 419c 48C70000 		movq	$_ZTVN12_GLOBAL__N_142TestXmlTestReporterFixtureMultipleFailuresE+16, (%rax)
 8839      000000
 8840 41a3 488B45F8 		movq	-8(%rbp), %rax
 8841 41a7 4889C7   		movq	%rax, %rdi
 8842 41aa E8000000 		call	_ZN8UnitTest4TestD2Ev
 8842      00
 8843              	.LBE244:
 8844 41af B8000000 		movl	$0, %eax
 8844      00
 8845 41b4 85C0     		testl	%eax, %eax
 8846 41b6 740C     		je	.L506
 159:TestXmlTestReporter.cpp **** {
 8847              		.loc 3 159 0 is_stmt 0 discriminator 4
 8848 41b8 488B45F8 		movq	-8(%rbp), %rax
 8849 41bc 4889C7   		movq	%rax, %rdi
 8850 41bf E8000000 		call	_ZdlPv
 8850      00
 8851              	.L506:
 159:TestXmlTestReporter.cpp **** {
 8852              		.loc 3 159 0
 8853 41c4 C9       		leave
 8854              		.cfi_def_cfa 7, 8
 8855 41c5 C3       		ret
 8856              		.cfi_endproc
 8857              	.LFE1543:
 8859              		.set	_ZN12_GLOBAL__N_142TestXmlTestReporterFixtureMultipleFailuresD1Ev,_ZN12_GLOBAL__N_142TestXmlT
 8860              		.align 2
 8862              	_ZN12_GLOBAL__N_142TestXmlTestReporterFixtureMultipleFailuresD0Ev:
 8863              	.LFB1545:
 159:TestXmlTestReporter.cpp **** {
 8864              		.loc 3 159 0 is_stmt 1
 8865              		.cfi_startproc
 8866 41c6 55       		pushq	%rbp
 8867              		.cfi_def_cfa_offset 16
 8868              		.cfi_offset 6, -16
 8869 41c7 4889E5   		movq	%rsp, %rbp
 8870              		.cfi_def_cfa_register 6
 8871 41ca 4883EC10 		subq	$16, %rsp
 8872 41ce 48897DF8 		movq	%rdi, -8(%rbp)
 159:TestXmlTestReporter.cpp **** {
 8873              		.loc 3 159 0
 8874 41d2 488B45F8 		movq	-8(%rbp), %rax
 8875 41d6 4889C7   		movq	%rax, %rdi
 8876 41d9 E8AEFFFF 		call	_ZN12_GLOBAL__N_142TestXmlTestReporterFixtureMultipleFailuresD2Ev
 8876      FF
 8877 41de 488B45F8 		movq	-8(%rbp), %rax
 8878 41e2 4889C7   		movq	%rax, %rdi
 8879 41e5 E8000000 		call	_ZdlPv
 8879      00
 8880 41ea C9       		leave
 8881              		.cfi_def_cfa 7, 8
 8882 41eb C3       		ret
 8883              		.cfi_endproc
 8884              	.LFE1545:
 8886              		.section	.rodata
 8887 09a8 00000000 		.align 32
 8887      00000000 
 8887      00000000 
 8887      00000000 
 8887      00000000 
 8890              	_ZTVN12_GLOBAL__N_149TestXmlTestReporterFixtureOneFailureAndOneSuccessE:
 8891 09c0 00000000 		.quad	0
 8891      00000000 
 8892 09c8 00000000 		.quad	_ZTIN12_GLOBAL__N_149TestXmlTestReporterFixtureOneFailureAndOneSuccessE
 8892      00000000 
 8893 09d0 00000000 		.quad	_ZN12_GLOBAL__N_149TestXmlTestReporterFixtureOneFailureAndOneSuccessD1Ev
 8893      00000000 
 8894 09d8 00000000 		.quad	_ZN12_GLOBAL__N_149TestXmlTestReporterFixtureOneFailureAndOneSuccessD0Ev
 8894      00000000 
 8895 09e0 00000000 		.quad	_ZNK12_GLOBAL__N_149TestXmlTestReporterFixtureOneFailureAndOneSuccess7RunImplEv
 8895      00000000 
 8896              		.text
 8897              		.align 2
 8899              	_ZN12_GLOBAL__N_149TestXmlTestReporterFixtureOneFailureAndOneSuccessD2Ev:
 8900              	.LFB1547:
 135:TestXmlTestReporter.cpp **** {
 8901              		.loc 3 135 0
 8902              		.cfi_startproc
 8903 41ec 55       		pushq	%rbp
 8904              		.cfi_def_cfa_offset 16
 8905              		.cfi_offset 6, -16
 8906 41ed 4889E5   		movq	%rsp, %rbp
 8907              		.cfi_def_cfa_register 6
 8908 41f0 4883EC10 		subq	$16, %rsp
 8909 41f4 48897DF8 		movq	%rdi, -8(%rbp)
 8910              	.LBB245:
 135:TestXmlTestReporter.cpp **** {
 8911              		.loc 3 135 0
 8912 41f8 488B45F8 		movq	-8(%rbp), %rax
 8913 41fc 48C70000 		movq	$_ZTVN12_GLOBAL__N_149TestXmlTestReporterFixtureOneFailureAndOneSuccessE+16, (%rax)
 8913      000000
 8914 4203 488B45F8 		movq	-8(%rbp), %rax
 8915 4207 4889C7   		movq	%rax, %rdi
 8916 420a E8000000 		call	_ZN8UnitTest4TestD2Ev
 8916      00
 8917              	.LBE245:
 8918 420f B8000000 		movl	$0, %eax
 8918      00
 8919 4214 85C0     		testl	%eax, %eax
 8920 4216 740C     		je	.L511
 135:TestXmlTestReporter.cpp **** {
 8921              		.loc 3 135 0 is_stmt 0 discriminator 4
 8922 4218 488B45F8 		movq	-8(%rbp), %rax
 8923 421c 4889C7   		movq	%rax, %rdi
 8924 421f E8000000 		call	_ZdlPv
 8924      00
 8925              	.L511:
 135:TestXmlTestReporter.cpp **** {
 8926              		.loc 3 135 0
 8927 4224 C9       		leave
 8928              		.cfi_def_cfa 7, 8
 8929 4225 C3       		ret
 8930              		.cfi_endproc
 8931              	.LFE1547:
 8933              		.set	_ZN12_GLOBAL__N_149TestXmlTestReporterFixtureOneFailureAndOneSuccessD1Ev,_ZN12_GLOBAL__N_149T
 8934              		.align 2
 8936              	_ZN12_GLOBAL__N_149TestXmlTestReporterFixtureOneFailureAndOneSuccessD0Ev:
 8937              	.LFB1549:
 135:TestXmlTestReporter.cpp **** {
 8938              		.loc 3 135 0 is_stmt 1
 8939              		.cfi_startproc
 8940 4226 55       		pushq	%rbp
 8941              		.cfi_def_cfa_offset 16
 8942              		.cfi_offset 6, -16
 8943 4227 4889E5   		movq	%rsp, %rbp
 8944              		.cfi_def_cfa_register 6
 8945 422a 4883EC10 		subq	$16, %rsp
 8946 422e 48897DF8 		movq	%rdi, -8(%rbp)
 135:TestXmlTestReporter.cpp **** {
 8947              		.loc 3 135 0
 8948 4232 488B45F8 		movq	-8(%rbp), %rax
 8949 4236 4889C7   		movq	%rax, %rdi
 8950 4239 E8AEFFFF 		call	_ZN12_GLOBAL__N_149TestXmlTestReporterFixtureOneFailureAndOneSuccessD2Ev
 8950      FF
 8951 423e 488B45F8 		movq	-8(%rbp), %rax
 8952 4242 4889C7   		movq	%rax, %rdi
 8953 4245 E8000000 		call	_ZdlPv
 8953      00
 8954 424a C9       		leave
 8955              		.cfi_def_cfa 7, 8
 8956 424b C3       		ret
 8957              		.cfi_endproc
 8958              	.LFE1549:
 8960              		.section	.rodata
 8961 09e8 00000000 		.align 32
 8961      00000000 
 8961      00000000 
 8961      00000000 
 8961      00000000 
 8964              	_ZTVN12_GLOBAL__N_152TestXmlTestReporterFixtureFailureMessageIsXMLEscapedE:
 8965 0a00 00000000 		.quad	0
 8965      00000000 
 8966 0a08 00000000 		.quad	_ZTIN12_GLOBAL__N_152TestXmlTestReporterFixtureFailureMessageIsXMLEscapedE
 8966      00000000 
 8967 0a10 00000000 		.quad	_ZN12_GLOBAL__N_152TestXmlTestReporterFixtureFailureMessageIsXMLEscapedD1Ev
 8967      00000000 
 8968 0a18 00000000 		.quad	_ZN12_GLOBAL__N_152TestXmlTestReporterFixtureFailureMessageIsXMLEscapedD0Ev
 8968      00000000 
 8969 0a20 00000000 		.quad	_ZNK12_GLOBAL__N_152TestXmlTestReporterFixtureFailureMessageIsXMLEscaped7RunImplEv
 8969      00000000 
 8970              		.text
 8971              		.align 2
 8973              	_ZN12_GLOBAL__N_152TestXmlTestReporterFixtureFailureMessageIsXMLEscapedD2Ev:
 8974              	.LFB1551:
 115:TestXmlTestReporter.cpp **** {
 8975              		.loc 3 115 0
 8976              		.cfi_startproc
 8977 424c 55       		pushq	%rbp
 8978              		.cfi_def_cfa_offset 16
 8979              		.cfi_offset 6, -16
 8980 424d 4889E5   		movq	%rsp, %rbp
 8981              		.cfi_def_cfa_register 6
 8982 4250 4883EC10 		subq	$16, %rsp
 8983 4254 48897DF8 		movq	%rdi, -8(%rbp)
 8984              	.LBB246:
 115:TestXmlTestReporter.cpp **** {
 8985              		.loc 3 115 0
 8986 4258 488B45F8 		movq	-8(%rbp), %rax
 8987 425c 48C70000 		movq	$_ZTVN12_GLOBAL__N_152TestXmlTestReporterFixtureFailureMessageIsXMLEscapedE+16, (%rax)
 8987      000000
 8988 4263 488B45F8 		movq	-8(%rbp), %rax
 8989 4267 4889C7   		movq	%rax, %rdi
 8990 426a E8000000 		call	_ZN8UnitTest4TestD2Ev
 8990      00
 8991              	.LBE246:
 8992 426f B8000000 		movl	$0, %eax
 8992      00
 8993 4274 85C0     		testl	%eax, %eax
 8994 4276 740C     		je	.L516
 115:TestXmlTestReporter.cpp **** {
 8995              		.loc 3 115 0 is_stmt 0 discriminator 4
 8996 4278 488B45F8 		movq	-8(%rbp), %rax
 8997 427c 4889C7   		movq	%rax, %rdi
 8998 427f E8000000 		call	_ZdlPv
 8998      00
 8999              	.L516:
 115:TestXmlTestReporter.cpp **** {
 9000              		.loc 3 115 0
 9001 4284 C9       		leave
 9002              		.cfi_def_cfa 7, 8
 9003 4285 C3       		ret
 9004              		.cfi_endproc
 9005              	.LFE1551:
 9007              		.set	_ZN12_GLOBAL__N_152TestXmlTestReporterFixtureFailureMessageIsXMLEscapedD1Ev,_ZN12_GLOBAL__N_1
 9008              		.align 2
 9010              	_ZN12_GLOBAL__N_152TestXmlTestReporterFixtureFailureMessageIsXMLEscapedD0Ev:
 9011              	.LFB1553:
 115:TestXmlTestReporter.cpp **** {
 9012              		.loc 3 115 0 is_stmt 1
 9013              		.cfi_startproc
 9014 4286 55       		pushq	%rbp
 9015              		.cfi_def_cfa_offset 16
 9016              		.cfi_offset 6, -16
 9017 4287 4889E5   		movq	%rsp, %rbp
 9018              		.cfi_def_cfa_register 6
 9019 428a 4883EC10 		subq	$16, %rsp
 9020 428e 48897DF8 		movq	%rdi, -8(%rbp)
 115:TestXmlTestReporter.cpp **** {
 9021              		.loc 3 115 0
 9022 4292 488B45F8 		movq	-8(%rbp), %rax
 9023 4296 4889C7   		movq	%rax, %rdi
 9024 4299 E8AEFFFF 		call	_ZN12_GLOBAL__N_152TestXmlTestReporterFixtureFailureMessageIsXMLEscapedD2Ev
 9024      FF
 9025 429e 488B45F8 		movq	-8(%rbp), %rax
 9026 42a2 4889C7   		movq	%rax, %rdi
 9027 42a5 E8000000 		call	_ZdlPv
 9027      00
 9028 42aa C9       		leave
 9029              		.cfi_def_cfa 7, 8
 9030 42ab C3       		ret
 9031              		.cfi_endproc
 9032              	.LFE1553:
 9034              		.section	.rodata
 9035 0a28 00000000 		.align 32
 9035      00000000 
 9035      00000000 
 9035      00000000 
 9035      00000000 
 9038              	_ZTVN12_GLOBAL__N_161TestXmlTestReporterFixtureSingleFailedTestReportSummaryFormatE:
 9039 0a40 00000000 		.quad	0
 9039      00000000 
 9040 0a48 00000000 		.quad	_ZTIN12_GLOBAL__N_161TestXmlTestReporterFixtureSingleFailedTestReportSummaryFormatE
 9040      00000000 
 9041 0a50 00000000 		.quad	_ZN12_GLOBAL__N_161TestXmlTestReporterFixtureSingleFailedTestReportSummaryFormatD1Ev
 9041      00000000 
 9042 0a58 00000000 		.quad	_ZN12_GLOBAL__N_161TestXmlTestReporterFixtureSingleFailedTestReportSummaryFormatD0Ev
 9042      00000000 
 9043 0a60 00000000 		.quad	_ZNK12_GLOBAL__N_161TestXmlTestReporterFixtureSingleFailedTestReportSummaryFormat7RunImplEv
 9043      00000000 
 9044              		.text
 9045              		.align 2
 9047              	_ZN12_GLOBAL__N_161TestXmlTestReporterFixtureSingleFailedTestReportSummaryFormatD2Ev:
 9048              	.LFB1555:
  96:TestXmlTestReporter.cpp **** {
 9049              		.loc 3 96 0
 9050              		.cfi_startproc
 9051 42ac 55       		pushq	%rbp
 9052              		.cfi_def_cfa_offset 16
 9053              		.cfi_offset 6, -16
 9054 42ad 4889E5   		movq	%rsp, %rbp
 9055              		.cfi_def_cfa_register 6
 9056 42b0 4883EC10 		subq	$16, %rsp
 9057 42b4 48897DF8 		movq	%rdi, -8(%rbp)
 9058              	.LBB247:
  96:TestXmlTestReporter.cpp **** {
 9059              		.loc 3 96 0
 9060 42b8 488B45F8 		movq	-8(%rbp), %rax
 9061 42bc 48C70000 		movq	$_ZTVN12_GLOBAL__N_161TestXmlTestReporterFixtureSingleFailedTestReportSummaryFormatE+16, (%ra
 9061      000000
 9062 42c3 488B45F8 		movq	-8(%rbp), %rax
 9063 42c7 4889C7   		movq	%rax, %rdi
 9064 42ca E8000000 		call	_ZN8UnitTest4TestD2Ev
 9064      00
 9065              	.LBE247:
 9066 42cf B8000000 		movl	$0, %eax
 9066      00
 9067 42d4 85C0     		testl	%eax, %eax
 9068 42d6 740C     		je	.L521
  96:TestXmlTestReporter.cpp **** {
 9069              		.loc 3 96 0 is_stmt 0 discriminator 4
 9070 42d8 488B45F8 		movq	-8(%rbp), %rax
 9071 42dc 4889C7   		movq	%rax, %rdi
 9072 42df E8000000 		call	_ZdlPv
 9072      00
 9073              	.L521:
  96:TestXmlTestReporter.cpp **** {
 9074              		.loc 3 96 0
 9075 42e4 C9       		leave
 9076              		.cfi_def_cfa 7, 8
 9077 42e5 C3       		ret
 9078              		.cfi_endproc
 9079              	.LFE1555:
 9081              		.set	_ZN12_GLOBAL__N_161TestXmlTestReporterFixtureSingleFailedTestReportSummaryFormatD1Ev,_ZN12_GL
 9082              		.align 2
 9084              	_ZN12_GLOBAL__N_161TestXmlTestReporterFixtureSingleFailedTestReportSummaryFormatD0Ev:
 9085              	.LFB1557:
  96:TestXmlTestReporter.cpp **** {
 9086              		.loc 3 96 0 is_stmt 1
 9087              		.cfi_startproc
 9088 42e6 55       		pushq	%rbp
 9089              		.cfi_def_cfa_offset 16
 9090              		.cfi_offset 6, -16
 9091 42e7 4889E5   		movq	%rsp, %rbp
 9092              		.cfi_def_cfa_register 6
 9093 42ea 4883EC10 		subq	$16, %rsp
 9094 42ee 48897DF8 		movq	%rdi, -8(%rbp)
  96:TestXmlTestReporter.cpp **** {
 9095              		.loc 3 96 0
 9096 42f2 488B45F8 		movq	-8(%rbp), %rax
 9097 42f6 4889C7   		movq	%rax, %rdi
 9098 42f9 E8AEFFFF 		call	_ZN12_GLOBAL__N_161TestXmlTestReporterFixtureSingleFailedTestReportSummaryFormatD2Ev
 9098      FF
 9099 42fe 488B45F8 		movq	-8(%rbp), %rax
 9100 4302 4889C7   		movq	%rax, %rdi
 9101 4305 E8000000 		call	_ZdlPv
 9101      00
 9102 430a C9       		leave
 9103              		.cfi_def_cfa 7, 8
 9104 430b C3       		ret
 9105              		.cfi_endproc
 9106              	.LFE1557:
 9108              		.section	.rodata
 9109 0a68 00000000 		.align 32
 9109      00000000 
 9109      00000000 
 9109      00000000 
 9109      00000000 
 9112              	_ZTVN12_GLOBAL__N_165TestXmlTestReporterFixtureSingleSuccessfulTestReportSummaryFormatE:
 9113 0a80 00000000 		.quad	0
 9113      00000000 
 9114 0a88 00000000 		.quad	_ZTIN12_GLOBAL__N_165TestXmlTestReporterFixtureSingleSuccessfulTestReportSummaryFormatE
 9114      00000000 
 9115 0a90 00000000 		.quad	_ZN12_GLOBAL__N_165TestXmlTestReporterFixtureSingleSuccessfulTestReportSummaryFormatD1Ev
 9115      00000000 
 9116 0a98 00000000 		.quad	_ZN12_GLOBAL__N_165TestXmlTestReporterFixtureSingleSuccessfulTestReportSummaryFormatD0Ev
 9116      00000000 
 9117 0aa0 00000000 		.quad	_ZNK12_GLOBAL__N_165TestXmlTestReporterFixtureSingleSuccessfulTestReportSummaryFormat7RunImp
 9117      00000000 
 9118              		.text
 9119              		.align 2
 9121              	_ZN12_GLOBAL__N_165TestXmlTestReporterFixtureSingleSuccessfulTestReportSummaryFormatD2Ev:
 9122              	.LFB1559:
  80:TestXmlTestReporter.cpp **** {
 9123              		.loc 3 80 0
 9124              		.cfi_startproc
 9125 430c 55       		pushq	%rbp
 9126              		.cfi_def_cfa_offset 16
 9127              		.cfi_offset 6, -16
 9128 430d 4889E5   		movq	%rsp, %rbp
 9129              		.cfi_def_cfa_register 6
 9130 4310 4883EC10 		subq	$16, %rsp
 9131 4314 48897DF8 		movq	%rdi, -8(%rbp)
 9132              	.LBB248:
  80:TestXmlTestReporter.cpp **** {
 9133              		.loc 3 80 0
 9134 4318 488B45F8 		movq	-8(%rbp), %rax
 9135 431c 48C70000 		movq	$_ZTVN12_GLOBAL__N_165TestXmlTestReporterFixtureSingleSuccessfulTestReportSummaryFormatE+16, 
 9135      000000
 9136 4323 488B45F8 		movq	-8(%rbp), %rax
 9137 4327 4889C7   		movq	%rax, %rdi
 9138 432a E8000000 		call	_ZN8UnitTest4TestD2Ev
 9138      00
 9139              	.LBE248:
 9140 432f B8000000 		movl	$0, %eax
 9140      00
 9141 4334 85C0     		testl	%eax, %eax
 9142 4336 740C     		je	.L526
  80:TestXmlTestReporter.cpp **** {
 9143              		.loc 3 80 0 is_stmt 0 discriminator 4
 9144 4338 488B45F8 		movq	-8(%rbp), %rax
 9145 433c 4889C7   		movq	%rax, %rdi
 9146 433f E8000000 		call	_ZdlPv
 9146      00
 9147              	.L526:
  80:TestXmlTestReporter.cpp **** {
 9148              		.loc 3 80 0
 9149 4344 C9       		leave
 9150              		.cfi_def_cfa 7, 8
 9151 4345 C3       		ret
 9152              		.cfi_endproc
 9153              	.LFE1559:
 9155              		.set	_ZN12_GLOBAL__N_165TestXmlTestReporterFixtureSingleSuccessfulTestReportSummaryFormatD1Ev,_ZN1
 9156              		.align 2
 9158              	_ZN12_GLOBAL__N_165TestXmlTestReporterFixtureSingleSuccessfulTestReportSummaryFormatD0Ev:
 9159              	.LFB1561:
  80:TestXmlTestReporter.cpp **** {
 9160              		.loc 3 80 0 is_stmt 1
 9161              		.cfi_startproc
 9162 4346 55       		pushq	%rbp
 9163              		.cfi_def_cfa_offset 16
 9164              		.cfi_offset 6, -16
 9165 4347 4889E5   		movq	%rsp, %rbp
 9166              		.cfi_def_cfa_register 6
 9167 434a 4883EC10 		subq	$16, %rsp
 9168 434e 48897DF8 		movq	%rdi, -8(%rbp)
  80:TestXmlTestReporter.cpp **** {
 9169              		.loc 3 80 0
 9170 4352 488B45F8 		movq	-8(%rbp), %rax
 9171 4356 4889C7   		movq	%rax, %rdi
 9172 4359 E8AEFFFF 		call	_ZN12_GLOBAL__N_165TestXmlTestReporterFixtureSingleSuccessfulTestReportSummaryFormatD2Ev
 9172      FF
 9173 435e 488B45F8 		movq	-8(%rbp), %rax
 9174 4362 4889C7   		movq	%rax, %rdi
 9175 4365 E8000000 		call	_ZdlPv
 9175      00
 9176 436a C9       		leave
 9177              		.cfi_def_cfa 7, 8
 9178 436b C3       		ret
 9179              		.cfi_endproc
 9180              	.LFE1561:
 9182              		.section	.rodata
 9183 0aa8 00000000 		.align 32
 9183      00000000 
 9183      00000000 
 9183      00000000 
 9183      00000000 
 9186              	_ZTVN12_GLOBAL__N_150TestXmlTestReporterFixtureEmptyReportSummaryFormatE:
 9187 0ac0 00000000 		.quad	0
 9187      00000000 
 9188 0ac8 00000000 		.quad	_ZTIN12_GLOBAL__N_150TestXmlTestReporterFixtureEmptyReportSummaryFormatE
 9188      00000000 
 9189 0ad0 00000000 		.quad	_ZN12_GLOBAL__N_150TestXmlTestReporterFixtureEmptyReportSummaryFormatD1Ev
 9189      00000000 
 9190 0ad8 00000000 		.quad	_ZN12_GLOBAL__N_150TestXmlTestReporterFixtureEmptyReportSummaryFormatD0Ev
 9190      00000000 
 9191 0ae0 00000000 		.quad	_ZNK12_GLOBAL__N_150TestXmlTestReporterFixtureEmptyReportSummaryFormat7RunImplEv
 9191      00000000 
 9192              		.text
 9193              		.align 2
 9195              	_ZN12_GLOBAL__N_150TestXmlTestReporterFixtureEmptyReportSummaryFormatD2Ev:
 9196              	.LFB1563:
  68:TestXmlTestReporter.cpp **** {
 9197              		.loc 3 68 0
 9198              		.cfi_startproc
 9199 436c 55       		pushq	%rbp
 9200              		.cfi_def_cfa_offset 16
 9201              		.cfi_offset 6, -16
 9202 436d 4889E5   		movq	%rsp, %rbp
 9203              		.cfi_def_cfa_register 6
 9204 4370 4883EC10 		subq	$16, %rsp
 9205 4374 48897DF8 		movq	%rdi, -8(%rbp)
 9206              	.LBB249:
  68:TestXmlTestReporter.cpp **** {
 9207              		.loc 3 68 0
 9208 4378 488B45F8 		movq	-8(%rbp), %rax
 9209 437c 48C70000 		movq	$_ZTVN12_GLOBAL__N_150TestXmlTestReporterFixtureEmptyReportSummaryFormatE+16, (%rax)
 9209      000000
 9210 4383 488B45F8 		movq	-8(%rbp), %rax
 9211 4387 4889C7   		movq	%rax, %rdi
 9212 438a E8000000 		call	_ZN8UnitTest4TestD2Ev
 9212      00
 9213              	.LBE249:
 9214 438f B8000000 		movl	$0, %eax
 9214      00
 9215 4394 85C0     		testl	%eax, %eax
 9216 4396 740C     		je	.L531
  68:TestXmlTestReporter.cpp **** {
 9217              		.loc 3 68 0 is_stmt 0 discriminator 4
 9218 4398 488B45F8 		movq	-8(%rbp), %rax
 9219 439c 4889C7   		movq	%rax, %rdi
 9220 439f E8000000 		call	_ZdlPv
 9220      00
 9221              	.L531:
  68:TestXmlTestReporter.cpp **** {
 9222              		.loc 3 68 0
 9223 43a4 C9       		leave
 9224              		.cfi_def_cfa 7, 8
 9225 43a5 C3       		ret
 9226              		.cfi_endproc
 9227              	.LFE1563:
 9229              		.set	_ZN12_GLOBAL__N_150TestXmlTestReporterFixtureEmptyReportSummaryFormatD1Ev,_ZN12_GLOBAL__N_150
 9230              		.align 2
 9232              	_ZN12_GLOBAL__N_150TestXmlTestReporterFixtureEmptyReportSummaryFormatD0Ev:
 9233              	.LFB1565:
  68:TestXmlTestReporter.cpp **** {
 9234              		.loc 3 68 0 is_stmt 1
 9235              		.cfi_startproc
 9236 43a6 55       		pushq	%rbp
 9237              		.cfi_def_cfa_offset 16
 9238              		.cfi_offset 6, -16
 9239 43a7 4889E5   		movq	%rsp, %rbp
 9240              		.cfi_def_cfa_register 6
 9241 43aa 4883EC10 		subq	$16, %rsp
 9242 43ae 48897DF8 		movq	%rdi, -8(%rbp)
  68:TestXmlTestReporter.cpp **** {
 9243              		.loc 3 68 0
 9244 43b2 488B45F8 		movq	-8(%rbp), %rax
 9245 43b6 4889C7   		movq	%rax, %rdi
 9246 43b9 E8AEFFFF 		call	_ZN12_GLOBAL__N_150TestXmlTestReporterFixtureEmptyReportSummaryFormatD2Ev
 9246      FF
 9247 43be 488B45F8 		movq	-8(%rbp), %rax
 9248 43c2 4889C7   		movq	%rax, %rdi
 9249 43c5 E8000000 		call	_ZdlPv
 9249      00
 9250 43ca C9       		leave
 9251              		.cfi_def_cfa 7, 8
 9252 43cb C3       		ret
 9253              		.cfi_endproc
 9254              	.LFE1565:
 9256              		.section	.rodata
 9257 0ae8 00000000 		.align 32
 9257      00000000 
 9257      00000000 
 9257      00000000 
 9257      00000000 
 9260              	_ZTVN12_GLOBAL__N_166TestXmlTestReporterFixtureOutputIsCachedUntilReportSummaryIsCalledE:
 9261 0b00 00000000 		.quad	0
 9261      00000000 
 9262 0b08 00000000 		.quad	_ZTIN12_GLOBAL__N_166TestXmlTestReporterFixtureOutputIsCachedUntilReportSummaryIsCalledE
 9262      00000000 
 9263 0b10 00000000 		.quad	_ZN12_GLOBAL__N_166TestXmlTestReporterFixtureOutputIsCachedUntilReportSummaryIsCalledD1Ev
 9263      00000000 
 9264 0b18 00000000 		.quad	_ZN12_GLOBAL__N_166TestXmlTestReporterFixtureOutputIsCachedUntilReportSummaryIsCalledD0Ev
 9264      00000000 
 9265 0b20 00000000 		.quad	_ZNK12_GLOBAL__N_166TestXmlTestReporterFixtureOutputIsCachedUntilReportSummaryIsCalled7RunIm
 9265      00000000 
 9266              		.text
 9267              		.align 2
 9269              	_ZN12_GLOBAL__N_166TestXmlTestReporterFixtureOutputIsCachedUntilReportSummaryIsCalledD2Ev:
 9270              	.LFB1567:
  55:TestXmlTestReporter.cpp **** {
 9271              		.loc 3 55 0
 9272              		.cfi_startproc
 9273 43cc 55       		pushq	%rbp
 9274              		.cfi_def_cfa_offset 16
 9275              		.cfi_offset 6, -16
 9276 43cd 4889E5   		movq	%rsp, %rbp
 9277              		.cfi_def_cfa_register 6
 9278 43d0 4883EC10 		subq	$16, %rsp
 9279 43d4 48897DF8 		movq	%rdi, -8(%rbp)
 9280              	.LBB250:
  55:TestXmlTestReporter.cpp **** {
 9281              		.loc 3 55 0
 9282 43d8 488B45F8 		movq	-8(%rbp), %rax
 9283 43dc 48C70000 		movq	$_ZTVN12_GLOBAL__N_166TestXmlTestReporterFixtureOutputIsCachedUntilReportSummaryIsCalledE+16,
 9283      000000
 9284 43e3 488B45F8 		movq	-8(%rbp), %rax
 9285 43e7 4889C7   		movq	%rax, %rdi
 9286 43ea E8000000 		call	_ZN8UnitTest4TestD2Ev
 9286      00
 9287              	.LBE250:
 9288 43ef B8000000 		movl	$0, %eax
 9288      00
 9289 43f4 85C0     		testl	%eax, %eax
 9290 43f6 740C     		je	.L536
  55:TestXmlTestReporter.cpp **** {
 9291              		.loc 3 55 0 is_stmt 0 discriminator 4
 9292 43f8 488B45F8 		movq	-8(%rbp), %rax
 9293 43fc 4889C7   		movq	%rax, %rdi
 9294 43ff E8000000 		call	_ZdlPv
 9294      00
 9295              	.L536:
  55:TestXmlTestReporter.cpp **** {
 9296              		.loc 3 55 0
 9297 4404 C9       		leave
 9298              		.cfi_def_cfa 7, 8
 9299 4405 C3       		ret
 9300              		.cfi_endproc
 9301              	.LFE1567:
 9303              		.set	_ZN12_GLOBAL__N_166TestXmlTestReporterFixtureOutputIsCachedUntilReportSummaryIsCalledD1Ev,_ZN
 9304              		.align 2
 9306              	_ZN12_GLOBAL__N_166TestXmlTestReporterFixtureOutputIsCachedUntilReportSummaryIsCalledD0Ev:
 9307              	.LFB1569:
  55:TestXmlTestReporter.cpp **** {
 9308              		.loc 3 55 0 is_stmt 1
 9309              		.cfi_startproc
 9310 4406 55       		pushq	%rbp
 9311              		.cfi_def_cfa_offset 16
 9312              		.cfi_offset 6, -16
 9313 4407 4889E5   		movq	%rsp, %rbp
 9314              		.cfi_def_cfa_register 6
 9315 440a 4883EC10 		subq	$16, %rsp
 9316 440e 48897DF8 		movq	%rdi, -8(%rbp)
  55:TestXmlTestReporter.cpp **** {
 9317              		.loc 3 55 0
 9318 4412 488B45F8 		movq	-8(%rbp), %rax
 9319 4416 4889C7   		movq	%rax, %rdi
 9320 4419 E8AEFFFF 		call	_ZN12_GLOBAL__N_166TestXmlTestReporterFixtureOutputIsCachedUntilReportSummaryIsCalledD2Ev
 9320      FF
 9321 441e 488B45F8 		movq	-8(%rbp), %rax
 9322 4422 4889C7   		movq	%rax, %rdi
 9323 4425 E8000000 		call	_ZdlPv
 9323      00
 9324 442a C9       		leave
 9325              		.cfi_def_cfa 7, 8
 9326 442b C3       		ret
 9327              		.cfi_endproc
 9328              	.LFE1569:
 9330              		.section	.rodata
 9331 0b28 00000000 		.align 32
 9331      00000000 
 9331      00000000 
 9331      00000000 
 9331      00000000 
 9334              	_ZTVN12_GLOBAL__N_154TestXmlTestReporterFixtureMultipleCharactersAreEscapedE:
 9335 0b40 00000000 		.quad	0
 9335      00000000 
 9336 0b48 00000000 		.quad	_ZTIN12_GLOBAL__N_154TestXmlTestReporterFixtureMultipleCharactersAreEscapedE
 9336      00000000 
 9337 0b50 00000000 		.quad	_ZN12_GLOBAL__N_154TestXmlTestReporterFixtureMultipleCharactersAreEscapedD1Ev
 9337      00000000 
 9338 0b58 00000000 		.quad	_ZN12_GLOBAL__N_154TestXmlTestReporterFixtureMultipleCharactersAreEscapedD0Ev
 9338      00000000 
 9339 0b60 00000000 		.quad	_ZNK12_GLOBAL__N_154TestXmlTestReporterFixtureMultipleCharactersAreEscaped7RunImplEv
 9339      00000000 
 9340              		.text
 9341              		.align 2
 9343              	_ZN12_GLOBAL__N_154TestXmlTestReporterFixtureMultipleCharactersAreEscapedD2Ev:
 9344              	.LFB1571:
  34:TestXmlTestReporter.cpp **** {
 9345              		.loc 3 34 0
 9346              		.cfi_startproc
 9347 442c 55       		pushq	%rbp
 9348              		.cfi_def_cfa_offset 16
 9349              		.cfi_offset 6, -16
 9350 442d 4889E5   		movq	%rsp, %rbp
 9351              		.cfi_def_cfa_register 6
 9352 4430 4883EC10 		subq	$16, %rsp
 9353 4434 48897DF8 		movq	%rdi, -8(%rbp)
 9354              	.LBB251:
  34:TestXmlTestReporter.cpp **** {
 9355              		.loc 3 34 0
 9356 4438 488B45F8 		movq	-8(%rbp), %rax
 9357 443c 48C70000 		movq	$_ZTVN12_GLOBAL__N_154TestXmlTestReporterFixtureMultipleCharactersAreEscapedE+16, (%rax)
 9357      000000
 9358 4443 488B45F8 		movq	-8(%rbp), %rax
 9359 4447 4889C7   		movq	%rax, %rdi
 9360 444a E8000000 		call	_ZN8UnitTest4TestD2Ev
 9360      00
 9361              	.LBE251:
 9362 444f B8000000 		movl	$0, %eax
 9362      00
 9363 4454 85C0     		testl	%eax, %eax
 9364 4456 740C     		je	.L541
  34:TestXmlTestReporter.cpp **** {
 9365              		.loc 3 34 0 is_stmt 0 discriminator 4
 9366 4458 488B45F8 		movq	-8(%rbp), %rax
 9367 445c 4889C7   		movq	%rax, %rdi
 9368 445f E8000000 		call	_ZdlPv
 9368      00
 9369              	.L541:
  34:TestXmlTestReporter.cpp **** {
 9370              		.loc 3 34 0
 9371 4464 C9       		leave
 9372              		.cfi_def_cfa 7, 8
 9373 4465 C3       		ret
 9374              		.cfi_endproc
 9375              	.LFE1571:
 9377              		.set	_ZN12_GLOBAL__N_154TestXmlTestReporterFixtureMultipleCharactersAreEscapedD1Ev,_ZN12_GLOBAL__N
 9378              		.align 2
 9380              	_ZN12_GLOBAL__N_154TestXmlTestReporterFixtureMultipleCharactersAreEscapedD0Ev:
 9381              	.LFB1573:
  34:TestXmlTestReporter.cpp **** {
 9382              		.loc 3 34 0 is_stmt 1
 9383              		.cfi_startproc
 9384 4466 55       		pushq	%rbp
 9385              		.cfi_def_cfa_offset 16
 9386              		.cfi_offset 6, -16
 9387 4467 4889E5   		movq	%rsp, %rbp
 9388              		.cfi_def_cfa_register 6
 9389 446a 4883EC10 		subq	$16, %rsp
 9390 446e 48897DF8 		movq	%rdi, -8(%rbp)
  34:TestXmlTestReporter.cpp **** {
 9391              		.loc 3 34 0
 9392 4472 488B45F8 		movq	-8(%rbp), %rax
 9393 4476 4889C7   		movq	%rax, %rdi
 9394 4479 E8AEFFFF 		call	_ZN12_GLOBAL__N_154TestXmlTestReporterFixtureMultipleCharactersAreEscapedD2Ev
 9394      FF
 9395 447e 488B45F8 		movq	-8(%rbp), %rax
 9396 4482 4889C7   		movq	%rax, %rdi
 9397 4485 E8000000 		call	_ZdlPv
 9397      00
 9398 448a C9       		leave
 9399              		.cfi_def_cfa 7, 8
 9400 448b C3       		ret
 9401              		.cfi_endproc
 9402              	.LFE1573:
 9404              		.weak	_ZTVN8UnitTest15MemoryOutStreamE
 9405              		.section	.rodata._ZTVN8UnitTest15MemoryOutStreamE,"aG",@progbits,_ZTVN8UnitTest15MemoryOutStreamE,
 9406              		.align 64
 9409              	_ZTVN8UnitTest15MemoryOutStreamE:
 9410 0000 60000000 		.quad	96
 9410      00000000 
 9411 0008 00000000 		.quad	0
 9411      00000000 
 9412 0010 00000000 		.quad	_ZTIN8UnitTest15MemoryOutStreamE
 9412      00000000 
 9413 0018 00000000 		.quad	_ZN8UnitTest15MemoryOutStreamD1Ev
 9413      00000000 
 9414 0020 00000000 		.quad	_ZN8UnitTest15MemoryOutStreamD0Ev
 9414      00000000 
 9415 0028 A0FFFFFF 		.quad	-96
 9415      FFFFFFFF 
 9416 0030 A0FFFFFF 		.quad	-96
 9416      FFFFFFFF 
 9417 0038 00000000 		.quad	_ZTIN8UnitTest15MemoryOutStreamE
 9417      00000000 
 9418 0040 00000000 		.quad	_ZTv0_n24_N8UnitTest15MemoryOutStreamD1Ev
 9418      00000000 
 9419 0048 00000000 		.quad	_ZTv0_n24_N8UnitTest15MemoryOutStreamD0Ev
 9419      00000000 
 9420              		.section	.text._ZN8UnitTest15MemoryOutStreamD1Ev,"axG",@progbits,_ZN8UnitTest15MemoryOutStreamD1Ev
 9421              		.align 2
 9422              		.weak	_ZN8UnitTest15MemoryOutStreamD1Ev
 9424              	_ZN8UnitTest15MemoryOutStreamD1Ev:
 9425              	.LFB1576:
  13:../MemoryOutStream.h **** {
 9426              		.loc 2 13 0
 9427              		.cfi_startproc
 9428              		.cfi_personality 0x3,__gxx_personality_v0
 9429              		.cfi_lsda 0x3,.LLSDA1576
 9430 0000 55       		pushq	%rbp
 9431              		.cfi_def_cfa_offset 16
 9432              		.cfi_offset 6, -16
 9433 0001 4889E5   		movq	%rsp, %rbp
 9434              		.cfi_def_cfa_register 6
 9435 0004 53       		pushq	%rbx
 9436 0005 4883EC18 		subq	$24, %rsp
 9437              		.cfi_offset 3, -24
 9438 0009 48897DE8 		movq	%rdi, -24(%rbp)
 9439              	.LBB252:
  13:../MemoryOutStream.h **** {
 9440              		.loc 2 13 0
 9441 000d BA000000 		movl	$_ZTVN8UnitTest15MemoryOutStreamE+24, %edx
 9441      00
 9442 0012 488B45E8 		movq	-24(%rbp), %rax
 9443 0016 488910   		movq	%rdx, (%rax)
 9444 0019 BA600000 		movl	$96, %edx
 9444      00
 9445 001e 488B45E8 		movq	-24(%rbp), %rax
 9446 0022 4801D0   		addq	%rdx, %rax
 9447 0025 BA000000 		movl	$_ZTVN8UnitTest15MemoryOutStreamE+64, %edx
 9447      00
 9448 002a 488910   		movq	%rdx, (%rax)
 9449 002d 488B45E8 		movq	-24(%rbp), %rax
 9450 0031 4883C058 		addq	$88, %rax
 9451 0035 4889C7   		movq	%rax, %rdi
 9452              	.LEHB277:
 9453 0038 E8000000 		call	_ZNSsD1Ev
 9453      00
 9454              	.LEHE277:
  13:../MemoryOutStream.h **** {
 9455              		.loc 2 13 0 is_stmt 0 discriminator 14
 9456 003d BA000000 		movl	$_ZTTN8UnitTest15MemoryOutStreamE+8, %edx
 9456      00
 9457 0042 488B45E8 		movq	-24(%rbp), %rax
 9458 0046 4889D6   		movq	%rdx, %rsi
 9459 0049 4889C7   		movq	%rax, %rdi
 9460              	.LEHB278:
 9461 004c E8000000 		call	_ZNSt19basic_ostringstreamIcSt11char_traitsIcESaIcEED2Ev
 9461      00
 9462              	.LEHE278:
  13:../MemoryOutStream.h **** {
 9463              		.loc 2 13 0 discriminator 20
 9464 0051 B8020000 		movl	$2, %eax
 9464      00
 9465 0056 85C0     		testl	%eax, %eax
 9466 0058 7410     		je	.L548
  13:../MemoryOutStream.h **** {
 9467              		.loc 2 13 0 discriminator 21
 9468 005a 488B45E8 		movq	-24(%rbp), %rax
 9469 005e 4883C060 		addq	$96, %rax
 9470 0062 4889C7   		movq	%rax, %rdi
 9471              	.LEHB279:
 9472 0065 E8000000 		call	_ZNSt9basic_iosIcSt11char_traitsIcEED2Ev
 9472      00
 9473              	.LEHE279:
 9474              	.L548:
 9475              	.LBE252:
  13:../MemoryOutStream.h **** {
 9476              		.loc 2 13 0 discriminator 24
 9477 006a B8000000 		movl	$0, %eax
 9477      00
 9478 006f 85C0     		testl	%eax, %eax
 9479 0071 744E     		je	.L555
  13:../MemoryOutStream.h **** {
 9480              		.loc 2 13 0 discriminator 25
 9481 0073 488B45E8 		movq	-24(%rbp), %rax
 9482 0077 4889C7   		movq	%rax, %rdi
 9483 007a E8000000 		call	_ZdlPv
 9483      00
 9484 007f EB40     		jmp	.L555
 9485              	.L553:
 9486 0081 4889C3   		movq	%rax, %rbx
 9487              	.LBB253:
  13:../MemoryOutStream.h **** {
 9488              		.loc 2 13 0
 9489 0084 BA000000 		movl	$_ZTTN8UnitTest15MemoryOutStreamE+8, %edx
 9489      00
 9490 0089 488B45E8 		movq	-24(%rbp), %rax
 9491 008d 4889D6   		movq	%rdx, %rsi
 9492 0090 4889C7   		movq	%rax, %rdi
 9493 0093 E8000000 		call	_ZNSt19basic_ostringstreamIcSt11char_traitsIcESaIcEED2Ev
 9493      00
 9494 0098 EB03     		jmp	.L551
 9495              	.L554:
 9496 009a 4889C3   		movq	%rax, %rbx
 9497              	.L551:
  13:../MemoryOutStream.h **** {
 9498              		.loc 2 13 0 discriminator 19
 9499 009d B8020000 		movl	$2, %eax
 9499      00
 9500 00a2 85C0     		testl	%eax, %eax
 9501 00a4 7410     		je	.L552
  13:../MemoryOutStream.h **** {
 9502              		.loc 2 13 0 discriminator 32
 9503 00a6 488B45E8 		movq	-24(%rbp), %rax
 9504 00aa 4883C060 		addq	$96, %rax
 9505 00ae 4889C7   		movq	%rax, %rdi
 9506 00b1 E8000000 		call	_ZNSt9basic_iosIcSt11char_traitsIcEED2Ev
 9506      00
 9507              	.L552:
 9508 00b6 4889D8   		movq	%rbx, %rax
 9509 00b9 4889C7   		movq	%rax, %rdi
 9510              	.LEHB280:
 9511 00bc E8000000 		call	_Unwind_Resume
 9511      00
 9512              	.LEHE280:
 9513              	.L555:
 9514              	.LBE253:
  13:../MemoryOutStream.h **** {
 9515              		.loc 2 13 0
 9516 00c1 4883C418 		addq	$24, %rsp
 9517 00c5 5B       		popq	%rbx
 9518 00c6 5D       		popq	%rbp
 9519              		.cfi_def_cfa 7, 8
 9520 00c7 C3       		ret
 9521              		.cfi_endproc
 9522              	.LFE1576:
 9523              		.section	.gcc_except_table
 9524              	.LLSDA1576:
 9525 07e0 FF       		.byte	0xff
 9526 07e1 FF       		.byte	0xff
 9527 07e2 01       		.byte	0x1
 9528 07e3 13       		.uleb128 .LLSDACSE1576-.LLSDACSB1576
 9529              	.LLSDACSB1576:
 9530 07e4 38       		.uleb128 .LEHB277-.LFB1576
 9531 07e5 05       		.uleb128 .LEHE277-.LEHB277
 9532 07e6 8101     		.uleb128 .L553-.LFB1576
 9533 07e8 00       		.uleb128 0
 9534 07e9 4C       		.uleb128 .LEHB278-.LFB1576
 9535 07ea 05       		.uleb128 .LEHE278-.LEHB278
 9536 07eb 9A01     		.uleb128 .L554-.LFB1576
 9537 07ed 00       		.uleb128 0
 9538 07ee 65       		.uleb128 .LEHB279-.LFB1576
 9539 07ef 05       		.uleb128 .LEHE279-.LEHB279
 9540 07f0 00       		.uleb128 0
 9541 07f1 00       		.uleb128 0
 9542 07f2 BC01     		.uleb128 .LEHB280-.LFB1576
 9543 07f4 05       		.uleb128 .LEHE280-.LEHB280
 9544 07f5 00       		.uleb128 0
 9545 07f6 00       		.uleb128 0
 9546              	.LLSDACSE1576:
 9547              		.section	.text._ZN8UnitTest15MemoryOutStreamD1Ev,"axG",@progbits,_ZN8UnitTest15MemoryOutStreamD1Ev
 9549              		.set	.LTHUNK0,_ZN8UnitTest15MemoryOutStreamD1Ev
 9550              		.weak	_ZTv0_n24_N8UnitTest15MemoryOutStreamD1Ev
 9552              	_ZTv0_n24_N8UnitTest15MemoryOutStreamD1Ev:
 9553              	.LFB1642:
  13:../MemoryOutStream.h **** {
 9554              		.loc 2 13 0 is_stmt 1
 9555              		.cfi_startproc
 9556 00c8 4C8B17   		movq	(%rdi), %r10
 9557 00cb 49037AE8 		addq	-24(%r10), %rdi
 9558 00cf E92CFFFF 		jmp	.LTHUNK0
 9558      FF
 9559              		.cfi_endproc
 9560              	.LFE1642:
 9562              		.section	.text._ZN8UnitTest15MemoryOutStreamD0Ev,"axG",@progbits,_ZN8UnitTest15MemoryOutStreamD0Ev
 9563              		.align 2
 9564              		.weak	_ZN8UnitTest15MemoryOutStreamD0Ev
 9566              	_ZN8UnitTest15MemoryOutStreamD0Ev:
 9567              	.LFB1577:
  13:../MemoryOutStream.h **** {
 9568              		.loc 2 13 0
 9569              		.cfi_startproc
 9570 0000 55       		pushq	%rbp
 9571              		.cfi_def_cfa_offset 16
 9572              		.cfi_offset 6, -16
 9573 0001 4889E5   		movq	%rsp, %rbp
 9574              		.cfi_def_cfa_register 6
 9575 0004 4883EC10 		subq	$16, %rsp
 9576 0008 48897DF8 		movq	%rdi, -8(%rbp)
  13:../MemoryOutStream.h **** {
 9577              		.loc 2 13 0
 9578 000c 488B45F8 		movq	-8(%rbp), %rax
 9579 0010 4889C7   		movq	%rax, %rdi
 9580 0013 E8000000 		call	_ZN8UnitTest15MemoryOutStreamD1Ev
 9580      00
 9581 0018 488B45F8 		movq	-8(%rbp), %rax
 9582 001c 4889C7   		movq	%rax, %rdi
 9583 001f E8000000 		call	_ZdlPv
 9583      00
 9584 0024 C9       		leave
 9585              		.cfi_def_cfa 7, 8
 9586 0025 C3       		ret
 9587              		.cfi_endproc
 9588              	.LFE1577:
 9590              		.set	.LTHUNK1,_ZN8UnitTest15MemoryOutStreamD0Ev
 9591              		.weak	_ZTv0_n24_N8UnitTest15MemoryOutStreamD0Ev
 9593              	_ZTv0_n24_N8UnitTest15MemoryOutStreamD0Ev:
 9594              	.LFB1643:
  13:../MemoryOutStream.h **** {
 9595              		.loc 2 13 0
 9596              		.cfi_startproc
 9597 0026 4C8B17   		movq	(%rdi), %r10
 9598 0029 49037AE8 		addq	-24(%r10), %rdi
 9599 002d EBD1     		jmp	.LTHUNK1
 9600              		.cfi_endproc
 9601              	.LFE1643:
 9603              		.weak	_ZTTN8UnitTest15MemoryOutStreamE
 9604              		.section	.rodata._ZTTN8UnitTest15MemoryOutStreamE,"aG",@progbits,_ZTVN8UnitTest15MemoryOutStreamE,
 9605              		.align 32
 9608              	_ZTTN8UnitTest15MemoryOutStreamE:
 9609 0000 00000000 		.quad	_ZTVN8UnitTest15MemoryOutStreamE+24
 9609      00000000 
 9610 0008 00000000 		.quad	_ZTCN8UnitTest15MemoryOutStreamE0_St19basic_ostringstreamIcSt11char_traitsIcESaIcEE+24
 9610      00000000 
 9611 0010 00000000 		.quad	_ZTCN8UnitTest15MemoryOutStreamE0_So+24
 9611      00000000 
 9612 0018 00000000 		.quad	_ZTCN8UnitTest15MemoryOutStreamE0_So+64
 9612      00000000 
 9613 0020 00000000 		.quad	_ZTCN8UnitTest15MemoryOutStreamE0_St19basic_ostringstreamIcSt11char_traitsIcESaIcEE+64
 9613      00000000 
 9614 0028 00000000 		.quad	_ZTVN8UnitTest15MemoryOutStreamE+64
 9614      00000000 
 9615              		.hidden	_ZTCN8UnitTest15MemoryOutStreamE0_St19basic_ostringstreamIcSt11char_traitsIcESaIcEE
 9616              		.weak	_ZTCN8UnitTest15MemoryOutStreamE0_St19basic_ostringstreamIcSt11char_traitsIcESaIcEE
 9617              		.section	.rodata._ZTCN8UnitTest15MemoryOutStreamE0_St19basic_ostringstreamIcSt11char_traitsIcESaIc
 9618              		.align 64
 9621              	_ZTCN8UnitTest15MemoryOutStreamE0_St19basic_ostringstreamIcSt11char_traitsIcESaIcEE:
 9622 0000 60000000 		.quad	96
 9622      00000000 
 9623 0008 00000000 		.quad	0
 9623      00000000 
 9624 0010 00000000 		.quad	_ZTISt19basic_ostringstreamIcSt11char_traitsIcESaIcEE
 9624      00000000 
 9625 0018 00000000 		.quad	0
 9625      00000000 
 9626 0020 00000000 		.quad	0
 9626      00000000 
 9627 0028 A0FFFFFF 		.quad	-96
 9627      FFFFFFFF 
 9628 0030 A0FFFFFF 		.quad	-96
 9628      FFFFFFFF 
 9629 0038 00000000 		.quad	_ZTISt19basic_ostringstreamIcSt11char_traitsIcESaIcEE
 9629      00000000 
 9630 0040 00000000 		.quad	0
 9630      00000000 
 9631 0048 00000000 		.quad	0
 9631      00000000 
 9632              		.hidden	_ZTCN8UnitTest15MemoryOutStreamE0_So
 9633              		.weak	_ZTCN8UnitTest15MemoryOutStreamE0_So
 9634              		.section	.rodata._ZTCN8UnitTest15MemoryOutStreamE0_So,"aG",@progbits,_ZTVN8UnitTest15MemoryOutStre
 9635              		.align 64
 9638              	_ZTCN8UnitTest15MemoryOutStreamE0_So:
 9639 0000 60000000 		.quad	96
 9639      00000000 
 9640 0008 00000000 		.quad	0
 9640      00000000 
 9641 0010 00000000 		.quad	_ZTISo
 9641      00000000 
 9642 0018 00000000 		.quad	0
 9642      00000000 
 9643 0020 00000000 		.quad	0
 9643      00000000 
 9644 0028 A0FFFFFF 		.quad	-96
 9644      FFFFFFFF 
 9645 0030 A0FFFFFF 		.quad	-96
 9645      FFFFFFFF 
 9646 0038 00000000 		.quad	_ZTISo
 9646      00000000 
 9647 0040 00000000 		.quad	0
 9647      00000000 
 9648 0048 00000000 		.quad	0
 9648      00000000 
 9649              		.weak	_ZTSN8UnitTest15MemoryOutStreamE
 9650              		.section	.rodata._ZTSN8UnitTest15MemoryOutStreamE,"aG",@progbits,_ZTSN8UnitTest15MemoryOutStreamE,
 9651              		.align 16
 9654              	_ZTSN8UnitTest15MemoryOutStreamE:
 9655 0000 4E38556E 		.string	"N8UnitTest15MemoryOutStreamE"
 9655      69745465 
 9655      73743135 
 9655      4D656D6F 
 9655      72794F75 
 9656              		.weak	_ZTIN8UnitTest15MemoryOutStreamE
 9657              		.section	.rodata._ZTIN8UnitTest15MemoryOutStreamE,"aG",@progbits,_ZTIN8UnitTest15MemoryOutStreamE,
 9658              		.align 16
 9661              	_ZTIN8UnitTest15MemoryOutStreamE:
 9662 0000 00000000 		.quad	_ZTVN10__cxxabiv120__si_class_type_infoE+16
 9662      00000000 
 9663 0008 00000000 		.quad	_ZTSN8UnitTest15MemoryOutStreamE
 9663      00000000 
 9664 0010 00000000 		.quad	_ZTISt19basic_ostringstreamIcSt11char_traitsIcESaIcEE
 9664      00000000 
 9665              		.text
 9667              	_Z41__static_initialization_and_destruction_0ii:
 9668              	.LFB1578:
 182:TestXmlTestReporter.cpp **** 
 183:TestXmlTestReporter.cpp **** }
 9669              		.loc 3 183 0
 9670              		.cfi_startproc
 9671 448c 55       		pushq	%rbp
 9672              		.cfi_def_cfa_offset 16
 9673              		.cfi_offset 6, -16
 9674 448d 4889E5   		movq	%rsp, %rbp
 9675              		.cfi_def_cfa_register 6
 9676 4490 4883EC10 		subq	$16, %rsp
 9677 4494 897DFC   		movl	%edi, -4(%rbp)
 9678 4497 8975F8   		movl	%esi, -8(%rbp)
 9679              		.loc 3 183 0
 9680 449a 837DFC01 		cmpl	$1, -4(%rbp)
 9681 449e 0F85B501 		jne	.L558
 9681      0000
 9682              		.loc 3 183 0 is_stmt 0 discriminator 1
 9683 44a4 817DF8FF 		cmpl	$65535, -8(%rbp)
 9683      FF0000
 9684 44ab 0F85A801 		jne	.L558
 9684      0000
  34:TestXmlTestReporter.cpp **** {
 9685              		.loc 3 34 0 is_stmt 1
 9686 44b1 BF000000 		movl	$_ZN12_GLOBAL__N_162testXmlTestReporterFixtureMultipleCharactersAreEscapedInstanceE, %edi
 9686      00
 9687 44b6 E81DBCFF 		call	_ZN12_GLOBAL__N_154TestXmlTestReporterFixtureMultipleCharactersAreEscapedC2Ev
 9687      FF
 9688 44bb BA000000 		movl	$__dso_handle, %edx
 9688      00
 9689 44c0 BE000000 		movl	$_ZN12_GLOBAL__N_162testXmlTestReporterFixtureMultipleCharactersAreEscapedInstanceE, %esi
 9689      00
 9690 44c5 BF000000 		movl	$_ZN12_GLOBAL__N_154TestXmlTestReporterFixtureMultipleCharactersAreEscapedD1Ev, %edi
 9690      00
 9691 44ca E8000000 		call	__cxa_atexit
 9691      00
 9692 44cf E8000000 		call	_ZN8UnitTest4Test11GetTestListEv
 9692      00
 9693 44d4 BA000000 		movl	$_ZN12_GLOBAL__N_162testXmlTestReporterFixtureMultipleCharactersAreEscapedInstanceE, %edx
 9693      00
 9694 44d9 4889C6   		movq	%rax, %rsi
 9695 44dc BF000000 		movl	$_ZN12_GLOBAL__N_155adderXmlTestReporterFixtureMultipleCharactersAreEscapedE, %edi
 9695      00
 9696 44e1 E8000000 		call	_ZN8UnitTest9ListAdderC1ERNS_8TestListEPNS_4TestE
 9696      00
  55:TestXmlTestReporter.cpp **** {
 9697              		.loc 3 55 0
 9698 44e6 BF000000 		movl	$_ZN12_GLOBAL__N_174testXmlTestReporterFixtureOutputIsCachedUntilReportSummaryIsCalledInstanc
 9698      00
 9699 44eb E81EC1FF 		call	_ZN12_GLOBAL__N_166TestXmlTestReporterFixtureOutputIsCachedUntilReportSummaryIsCalledC2Ev
 9699      FF
 9700 44f0 BA000000 		movl	$__dso_handle, %edx
 9700      00
 9701 44f5 BE000000 		movl	$_ZN12_GLOBAL__N_174testXmlTestReporterFixtureOutputIsCachedUntilReportSummaryIsCalledInstanc
 9701      00
 9702 44fa BF000000 		movl	$_ZN12_GLOBAL__N_166TestXmlTestReporterFixtureOutputIsCachedUntilReportSummaryIsCalledD1Ev, %
 9702      00
 9703 44ff E8000000 		call	__cxa_atexit
 9703      00
 9704 4504 E8000000 		call	_ZN8UnitTest4Test11GetTestListEv
 9704      00
 9705 4509 BA000000 		movl	$_ZN12_GLOBAL__N_174testXmlTestReporterFixtureOutputIsCachedUntilReportSummaryIsCalledInstanc
 9705      00
 9706 450e 4889C6   		movq	%rax, %rsi
 9707 4511 BF000000 		movl	$_ZN12_GLOBAL__N_167adderXmlTestReporterFixtureOutputIsCachedUntilReportSummaryIsCalledE, %ed
 9707      00
 9708 4516 E8000000 		call	_ZN8UnitTest9ListAdderC1ERNS_8TestListEPNS_4TestE
 9708      00
  68:TestXmlTestReporter.cpp **** {
 9709              		.loc 3 68 0
 9710 451b BF000000 		movl	$_ZN12_GLOBAL__N_158testXmlTestReporterFixtureEmptyReportSummaryFormatInstanceE, %edi
 9710      00
 9711 4520 E843C7FF 		call	_ZN12_GLOBAL__N_150TestXmlTestReporterFixtureEmptyReportSummaryFormatC2Ev
 9711      FF
 9712 4525 BA000000 		movl	$__dso_handle, %edx
 9712      00
 9713 452a BE000000 		movl	$_ZN12_GLOBAL__N_158testXmlTestReporterFixtureEmptyReportSummaryFormatInstanceE, %esi
 9713      00
 9714 452f BF000000 		movl	$_ZN12_GLOBAL__N_150TestXmlTestReporterFixtureEmptyReportSummaryFormatD1Ev, %edi
 9714      00
 9715 4534 E8000000 		call	__cxa_atexit
 9715      00
 9716 4539 E8000000 		call	_ZN8UnitTest4Test11GetTestListEv
 9716      00
 9717 453e BA000000 		movl	$_ZN12_GLOBAL__N_158testXmlTestReporterFixtureEmptyReportSummaryFormatInstanceE, %edx
 9717      00
 9718 4543 4889C6   		movq	%rax, %rsi
 9719 4546 BF000000 		movl	$_ZN12_GLOBAL__N_151adderXmlTestReporterFixtureEmptyReportSummaryFormatE, %edi
 9719      00
 9720 454b E8000000 		call	_ZN8UnitTest9ListAdderC1ERNS_8TestListEPNS_4TestE
 9720      00
  80:TestXmlTestReporter.cpp **** {
 9721              		.loc 3 80 0
 9722 4550 BF000000 		movl	$_ZN12_GLOBAL__N_173testXmlTestReporterFixtureSingleSuccessfulTestReportSummaryFormatInstance
 9722      00
 9723 4555 E8C8CBFF 		call	_ZN12_GLOBAL__N_165TestXmlTestReporterFixtureSingleSuccessfulTestReportSummaryFormatC2Ev
 9723      FF
 9724 455a BA000000 		movl	$__dso_handle, %edx
 9724      00
 9725 455f BE000000 		movl	$_ZN12_GLOBAL__N_173testXmlTestReporterFixtureSingleSuccessfulTestReportSummaryFormatInstance
 9725      00
 9726 4564 BF000000 		movl	$_ZN12_GLOBAL__N_165TestXmlTestReporterFixtureSingleSuccessfulTestReportSummaryFormatD1Ev, %e
 9726      00
 9727 4569 E8000000 		call	__cxa_atexit
 9727      00
 9728 456e E8000000 		call	_ZN8UnitTest4Test11GetTestListEv
 9728      00
 9729 4573 BA000000 		movl	$_ZN12_GLOBAL__N_173testXmlTestReporterFixtureSingleSuccessfulTestReportSummaryFormatInstance
 9729      00
 9730 4578 4889C6   		movq	%rax, %rsi
 9731 457b BF000000 		movl	$_ZN12_GLOBAL__N_166adderXmlTestReporterFixtureSingleSuccessfulTestReportSummaryFormatE, %edi
 9731      00
 9732 4580 E8000000 		call	_ZN8UnitTest9ListAdderC1ERNS_8TestListEPNS_4TestE
 9732      00
  96:TestXmlTestReporter.cpp **** {
 9733              		.loc 3 96 0
 9734 4585 BF000000 		movl	$_ZN12_GLOBAL__N_169testXmlTestReporterFixtureSingleFailedTestReportSummaryFormatInstanceE, %
 9734      00
 9735 458a E889D0FF 		call	_ZN12_GLOBAL__N_161TestXmlTestReporterFixtureSingleFailedTestReportSummaryFormatC2Ev
 9735      FF
 9736 458f BA000000 		movl	$__dso_handle, %edx
 9736      00
 9737 4594 BE000000 		movl	$_ZN12_GLOBAL__N_169testXmlTestReporterFixtureSingleFailedTestReportSummaryFormatInstanceE, %
 9737      00
 9738 4599 BF000000 		movl	$_ZN12_GLOBAL__N_161TestXmlTestReporterFixtureSingleFailedTestReportSummaryFormatD1Ev, %edi
 9738      00
 9739 459e E8000000 		call	__cxa_atexit
 9739      00
 9740 45a3 E8000000 		call	_ZN8UnitTest4Test11GetTestListEv
 9740      00
 9741 45a8 BA000000 		movl	$_ZN12_GLOBAL__N_169testXmlTestReporterFixtureSingleFailedTestReportSummaryFormatInstanceE, %
 9741      00
 9742 45ad 4889C6   		movq	%rax, %rsi
 9743 45b0 BF000000 		movl	$_ZN12_GLOBAL__N_162adderXmlTestReporterFixtureSingleFailedTestReportSummaryFormatE, %edi
 9743      00
 9744 45b5 E8000000 		call	_ZN8UnitTest9ListAdderC1ERNS_8TestListEPNS_4TestE
 9744      00
 115:TestXmlTestReporter.cpp **** {
 9745              		.loc 3 115 0
 9746 45ba BF000000 		movl	$_ZN12_GLOBAL__N_160testXmlTestReporterFixtureFailureMessageIsXMLEscapedInstanceE, %edi
 9746      00
 9747 45bf E868D5FF 		call	_ZN12_GLOBAL__N_152TestXmlTestReporterFixtureFailureMessageIsXMLEscapedC2Ev
 9747      FF
 9748 45c4 BA000000 		movl	$__dso_handle, %edx
 9748      00
 9749 45c9 BE000000 		movl	$_ZN12_GLOBAL__N_160testXmlTestReporterFixtureFailureMessageIsXMLEscapedInstanceE, %esi
 9749      00
 9750 45ce BF000000 		movl	$_ZN12_GLOBAL__N_152TestXmlTestReporterFixtureFailureMessageIsXMLEscapedD1Ev, %edi
 9750      00
 9751 45d3 E8000000 		call	__cxa_atexit
 9751      00
 9752 45d8 E8000000 		call	_ZN8UnitTest4Test11GetTestListEv
 9752      00
 9753 45dd BA000000 		movl	$_ZN12_GLOBAL__N_160testXmlTestReporterFixtureFailureMessageIsXMLEscapedInstanceE, %edx
 9753      00
 9754 45e2 4889C6   		movq	%rax, %rsi
 9755 45e5 BF000000 		movl	$_ZN12_GLOBAL__N_153adderXmlTestReporterFixtureFailureMessageIsXMLEscapedE, %edi
 9755      00
 9756 45ea E8000000 		call	_ZN8UnitTest9ListAdderC1ERNS_8TestListEPNS_4TestE
 9756      00
 135:TestXmlTestReporter.cpp **** {
 9757              		.loc 3 135 0
 9758 45ef BF000000 		movl	$_ZN12_GLOBAL__N_157testXmlTestReporterFixtureOneFailureAndOneSuccessInstanceE, %edi
 9758      00
 9759 45f4 E869DAFF 		call	_ZN12_GLOBAL__N_149TestXmlTestReporterFixtureOneFailureAndOneSuccessC2Ev
 9759      FF
 9760 45f9 BA000000 		movl	$__dso_handle, %edx
 9760      00
 9761 45fe BE000000 		movl	$_ZN12_GLOBAL__N_157testXmlTestReporterFixtureOneFailureAndOneSuccessInstanceE, %esi
 9761      00
 9762 4603 BF000000 		movl	$_ZN12_GLOBAL__N_149TestXmlTestReporterFixtureOneFailureAndOneSuccessD1Ev, %edi
 9762      00
 9763 4608 E8000000 		call	__cxa_atexit
 9763      00
 9764 460d E8000000 		call	_ZN8UnitTest4Test11GetTestListEv
 9764      00
 9765 4612 BA000000 		movl	$_ZN12_GLOBAL__N_157testXmlTestReporterFixtureOneFailureAndOneSuccessInstanceE, %edx
 9765      00
 9766 4617 4889C6   		movq	%rax, %rsi
 9767 461a BF000000 		movl	$_ZN12_GLOBAL__N_150adderXmlTestReporterFixtureOneFailureAndOneSuccessE, %edi
 9767      00
 9768 461f E8000000 		call	_ZN8UnitTest9ListAdderC1ERNS_8TestListEPNS_4TestE
 9768      00
 159:TestXmlTestReporter.cpp **** {
 9769              		.loc 3 159 0
 9770 4624 BF000000 		movl	$_ZN12_GLOBAL__N_150testXmlTestReporterFixtureMultipleFailuresInstanceE, %edi
 9770      00
 9771 4629 E8F8DFFF 		call	_ZN12_GLOBAL__N_142TestXmlTestReporterFixtureMultipleFailuresC2Ev
 9771      FF
 9772 462e BA000000 		movl	$__dso_handle, %edx
 9772      00
 9773 4633 BE000000 		movl	$_ZN12_GLOBAL__N_150testXmlTestReporterFixtureMultipleFailuresInstanceE, %esi
 9773      00
 9774 4638 BF000000 		movl	$_ZN12_GLOBAL__N_142TestXmlTestReporterFixtureMultipleFailuresD1Ev, %edi
 9774      00
 9775 463d E8000000 		call	__cxa_atexit
 9775      00
 9776 4642 E8000000 		call	_ZN8UnitTest4Test11GetTestListEv
 9776      00
 9777 4647 BA000000 		movl	$_ZN12_GLOBAL__N_150testXmlTestReporterFixtureMultipleFailuresInstanceE, %edx
 9777      00
 9778 464c 4889C6   		movq	%rax, %rsi
 9779 464f BF000000 		movl	$_ZN12_GLOBAL__N_143adderXmlTestReporterFixtureMultipleFailuresE, %edi
 9779      00
 9780 4654 E8000000 		call	_ZN8UnitTest9ListAdderC1ERNS_8TestListEPNS_4TestE
 9780      00
 9781              	.L558:
 9782              		.loc 3 183 0
 9783 4659 C9       		leave
 9784              		.cfi_def_cfa 7, 8
 9785 465a C3       		ret
 9786              		.cfi_endproc
 9787              	.LFE1578:
 9789              		.section	.text._ZN8UnitTest20DeferredTestReporterD2Ev,"axG",@progbits,_ZN8UnitTest20DeferredTestRe
 9790              		.align 2
 9791              		.weak	_ZN8UnitTest20DeferredTestReporterD2Ev
 9793              	_ZN8UnitTest20DeferredTestReporterD2Ev:
 9794              	.LFB1581:
 9795              		.file 7 "../DeferredTestReporter.h"
   1:../DeferredTestReporter.h **** #ifndef UNITTEST_DEFERREDTESTREPORTER_H
   2:../DeferredTestReporter.h **** #define UNITTEST_DEFERREDTESTREPORTER_H
   3:../DeferredTestReporter.h **** 
   4:../DeferredTestReporter.h **** #include "TestReporter.h"
   5:../DeferredTestReporter.h **** #include "DeferredTestResult.h"
   6:../DeferredTestReporter.h **** 
   7:../DeferredTestReporter.h **** #include <vector>
   8:../DeferredTestReporter.h **** 
   9:../DeferredTestReporter.h **** namespace UnitTest
  10:../DeferredTestReporter.h **** {
  11:../DeferredTestReporter.h **** 
  12:../DeferredTestReporter.h **** class DeferredTestReporter : public TestReporter
 9796              		.loc 7 12 0
 9797              		.cfi_startproc
 9798              		.cfi_personality 0x3,__gxx_personality_v0
 9799              		.cfi_lsda 0x3,.LLSDA1581
 9800 0000 55       		pushq	%rbp
 9801              		.cfi_def_cfa_offset 16
 9802              		.cfi_offset 6, -16
 9803 0001 4889E5   		movq	%rsp, %rbp
 9804              		.cfi_def_cfa_register 6
 9805 0004 53       		pushq	%rbx
 9806 0005 4883EC18 		subq	$24, %rsp
 9807              		.cfi_offset 3, -24
 9808 0009 48897DE8 		movq	%rdi, -24(%rbp)
 9809              	.LBB254:
 9810              		.loc 7 12 0
 9811 000d 488B45E8 		movq	-24(%rbp), %rax
 9812 0011 48C70000 		movq	$_ZTVN8UnitTest20DeferredTestReporterE+16, (%rax)
 9812      000000
 9813 0018 488B45E8 		movq	-24(%rbp), %rax
 9814 001c 4883C008 		addq	$8, %rax
 9815 0020 4889C7   		movq	%rax, %rdi
 9816              	.LEHB281:
 9817 0023 E8000000 		call	_ZNSt6vectorIN8UnitTest18DeferredTestResultESaIS1_EED1Ev
 9817      00
 9818              	.LEHE281:
 9819              		.loc 7 12 0 is_stmt 0 discriminator 2
 9820 0028 488B45E8 		movq	-24(%rbp), %rax
 9821 002c 4889C7   		movq	%rax, %rdi
 9822              	.LEHB282:
 9823 002f E8000000 		call	_ZN8UnitTest12TestReporterD2Ev
 9823      00
 9824              	.LEHE282:
 9825              	.LBE254:
 9826 0034 B8000000 		movl	$0, %eax
 9826      00
 9827 0039 85C0     		testl	%eax, %eax
 9828 003b 7428     		je	.L565
 9829              		.loc 7 12 0 discriminator 6
 9830 003d 488B45E8 		movq	-24(%rbp), %rax
 9831 0041 4889C7   		movq	%rax, %rdi
 9832 0044 E8000000 		call	_ZdlPv
 9832      00
 9833 0049 EB1A     		jmp	.L565
 9834              	.L564:
 9835 004b 4889C3   		movq	%rax, %rbx
 9836              	.LBB255:
 9837              		.loc 7 12 0
 9838 004e 488B45E8 		movq	-24(%rbp), %rax
 9839 0052 4889C7   		movq	%rax, %rdi
 9840 0055 E8000000 		call	_ZN8UnitTest12TestReporterD2Ev
 9840      00
 9841 005a 4889D8   		movq	%rbx, %rax
 9842 005d 4889C7   		movq	%rax, %rdi
 9843              	.LEHB283:
 9844 0060 E8000000 		call	_Unwind_Resume
 9844      00
 9845              	.LEHE283:
 9846              	.L565:
 9847              	.LBE255:
 9848 0065 4883C418 		addq	$24, %rsp
 9849 0069 5B       		popq	%rbx
 9850 006a 5D       		popq	%rbp
 9851              		.cfi_def_cfa 7, 8
 9852 006b C3       		ret
 9853              		.cfi_endproc
 9854              	.LFE1581:
 9855              		.section	.gcc_except_table
 9856              	.LLSDA1581:
 9857 07f7 FF       		.byte	0xff
 9858 07f8 FF       		.byte	0xff
 9859 07f9 01       		.byte	0x1
 9860 07fa 0C       		.uleb128 .LLSDACSE1581-.LLSDACSB1581
 9861              	.LLSDACSB1581:
 9862 07fb 23       		.uleb128 .LEHB281-.LFB1581
 9863 07fc 05       		.uleb128 .LEHE281-.LEHB281
 9864 07fd 4B       		.uleb128 .L564-.LFB1581
 9865 07fe 00       		.uleb128 0
 9866 07ff 2F       		.uleb128 .LEHB282-.LFB1581
 9867 0800 05       		.uleb128 .LEHE282-.LEHB282
 9868 0801 00       		.uleb128 0
 9869 0802 00       		.uleb128 0
 9870 0803 60       		.uleb128 .LEHB283-.LFB1581
 9871 0804 05       		.uleb128 .LEHE283-.LEHB283
 9872 0805 00       		.uleb128 0
 9873 0806 00       		.uleb128 0
 9874              	.LLSDACSE1581:
 9875              		.section	.text._ZN8UnitTest20DeferredTestReporterD2Ev,"axG",@progbits,_ZN8UnitTest20DeferredTestRe
 9877              		.weak	_ZN8UnitTest20DeferredTestReporterD1Ev
 9878              		.set	_ZN8UnitTest20DeferredTestReporterD1Ev,_ZN8UnitTest20DeferredTestReporterD2Ev
 9879              		.section	.text._ZN8UnitTest20DeferredTestReporterD0Ev,"axG",@progbits,_ZN8UnitTest20DeferredTestRe
 9880              		.align 2
 9881              		.weak	_ZN8UnitTest20DeferredTestReporterD0Ev
 9883              	_ZN8UnitTest20DeferredTestReporterD0Ev:
 9884              	.LFB1583:
 9885              		.loc 7 12 0 is_stmt 1
 9886              		.cfi_startproc
 9887 0000 55       		pushq	%rbp
 9888              		.cfi_def_cfa_offset 16
 9889              		.cfi_offset 6, -16
 9890 0001 4889E5   		movq	%rsp, %rbp
 9891              		.cfi_def_cfa_register 6
 9892 0004 4883EC10 		subq	$16, %rsp
 9893 0008 48897DF8 		movq	%rdi, -8(%rbp)
 9894              		.loc 7 12 0
 9895 000c 488B45F8 		movq	-8(%rbp), %rax
 9896 0010 4889C7   		movq	%rax, %rdi
 9897 0013 E8000000 		call	_ZN8UnitTest20DeferredTestReporterD1Ev
 9897      00
 9898 0018 488B45F8 		movq	-8(%rbp), %rax
 9899 001c 4889C7   		movq	%rax, %rdi
 9900 001f E8000000 		call	_ZdlPv
 9900      00
 9901 0024 C9       		leave
 9902              		.cfi_def_cfa 7, 8
 9903 0025 C3       		ret
 9904              		.cfi_endproc
 9905              	.LFE1583:
 9907              		.section	.text._ZN8UnitTest15XmlTestReporterD2Ev,"axG",@progbits,_ZN8UnitTest15XmlTestReporterD5Ev
 9908              		.align 2
 9909              		.weak	_ZN8UnitTest15XmlTestReporterD2Ev
 9911              	_ZN8UnitTest15XmlTestReporterD2Ev:
 9912              	.LFB1584:
 9913              		.file 8 "../XmlTestReporter.h"
   1:../XmlTestReporter.h **** #ifndef UNITTEST_XMLTESTREPORTER_H
   2:../XmlTestReporter.h **** #define UNITTEST_XMLTESTREPORTER_H
   3:../XmlTestReporter.h **** 
   4:../XmlTestReporter.h **** #include "DeferredTestReporter.h"
   5:../XmlTestReporter.h **** 
   6:../XmlTestReporter.h **** #include <iosfwd>
   7:../XmlTestReporter.h **** 
   8:../XmlTestReporter.h **** namespace UnitTest
   9:../XmlTestReporter.h **** {
  10:../XmlTestReporter.h **** 
  11:../XmlTestReporter.h **** class XmlTestReporter : public DeferredTestReporter
 9914              		.loc 8 11 0
 9915              		.cfi_startproc
 9916 0000 55       		pushq	%rbp
 9917              		.cfi_def_cfa_offset 16
 9918              		.cfi_offset 6, -16
 9919 0001 4889E5   		movq	%rsp, %rbp
 9920              		.cfi_def_cfa_register 6
 9921 0004 4883EC10 		subq	$16, %rsp
 9922 0008 48897DF8 		movq	%rdi, -8(%rbp)
 9923              	.LBB256:
 9924              		.loc 8 11 0
 9925 000c 488B45F8 		movq	-8(%rbp), %rax
 9926 0010 48C70000 		movq	$_ZTVN8UnitTest15XmlTestReporterE+16, (%rax)
 9926      000000
 9927 0017 488B45F8 		movq	-8(%rbp), %rax
 9928 001b 4889C7   		movq	%rax, %rdi
 9929 001e E8000000 		call	_ZN8UnitTest20DeferredTestReporterD2Ev
 9929      00
 9930              	.LBE256:
 9931 0023 B8000000 		movl	$0, %eax
 9931      00
 9932 0028 85C0     		testl	%eax, %eax
 9933 002a 740C     		je	.L568
 9934              		.loc 8 11 0 is_stmt 0 discriminator 4
 9935 002c 488B45F8 		movq	-8(%rbp), %rax
 9936 0030 4889C7   		movq	%rax, %rdi
 9937 0033 E8000000 		call	_ZdlPv
 9937      00
 9938              	.L568:
 9939              		.loc 8 11 0
 9940 0038 C9       		leave
 9941              		.cfi_def_cfa 7, 8
 9942 0039 C3       		ret
 9943              		.cfi_endproc
 9944              	.LFE1584:
 9946              		.weak	_ZN8UnitTest15XmlTestReporterD1Ev
 9947              		.set	_ZN8UnitTest15XmlTestReporterD1Ev,_ZN8UnitTest15XmlTestReporterD2Ev
 9948              		.section	.text._ZN8UnitTest15XmlTestReporterD0Ev,"axG",@progbits,_ZN8UnitTest15XmlTestReporterD5Ev
 9949              		.align 2
 9950              		.weak	_ZN8UnitTest15XmlTestReporterD0Ev
 9952              	_ZN8UnitTest15XmlTestReporterD0Ev:
 9953              	.LFB1586:
 9954              		.loc 8 11 0 is_stmt 1
 9955              		.cfi_startproc
 9956 0000 55       		pushq	%rbp
 9957              		.cfi_def_cfa_offset 16
 9958              		.cfi_offset 6, -16
 9959 0001 4889E5   		movq	%rsp, %rbp
 9960              		.cfi_def_cfa_register 6
 9961 0004 4883EC10 		subq	$16, %rsp
 9962 0008 48897DF8 		movq	%rdi, -8(%rbp)
 9963              		.loc 8 11 0
 9964 000c 488B45F8 		movq	-8(%rbp), %rax
 9965 0010 4889C7   		movq	%rax, %rdi
 9966 0013 E8000000 		call	_ZN8UnitTest15XmlTestReporterD1Ev
 9966      00
 9967 0018 488B45F8 		movq	-8(%rbp), %rax
 9968 001c 4889C7   		movq	%rax, %rdi
 9969 001f E8000000 		call	_ZdlPv
 9969      00
 9970 0024 C9       		leave
 9971              		.cfi_def_cfa 7, 8
 9972 0025 C3       		ret
 9973              		.cfi_endproc
 9974              	.LFE1586:
 9976              		.section	.rodata
 9977 0b68 00000000 		.align 16
 9977      00000000 
 9980              	_ZTIN12_GLOBAL__N_154TestXmlTestReporterFixtureMultipleCharactersAreEscapedE:
 9981 0b70 00000000 		.quad	_ZTVN10__cxxabiv120__si_class_type_infoE+16
 9981      00000000 
 9982 0b78 00000000 		.quad	_ZTSN12_GLOBAL__N_154TestXmlTestReporterFixtureMultipleCharactersAreEscapedE
 9982      00000000 
 9983 0b80 00000000 		.quad	_ZTIN8UnitTest4TestE
 9983      00000000 
 9984 0b88 00000000 		.align 16
 9984      00000000 
 9987              	_ZTIN12_GLOBAL__N_166TestXmlTestReporterFixtureOutputIsCachedUntilReportSummaryIsCalledE:
 9988 0b90 00000000 		.quad	_ZTVN10__cxxabiv120__si_class_type_infoE+16
 9988      00000000 
 9989 0b98 00000000 		.quad	_ZTSN12_GLOBAL__N_166TestXmlTestReporterFixtureOutputIsCachedUntilReportSummaryIsCalledE
 9989      00000000 
 9990 0ba0 00000000 		.quad	_ZTIN8UnitTest4TestE
 9990      00000000 
 9991 0ba8 00000000 		.align 16
 9991      00000000 
 9994              	_ZTIN12_GLOBAL__N_150TestXmlTestReporterFixtureEmptyReportSummaryFormatE:
 9995 0bb0 00000000 		.quad	_ZTVN10__cxxabiv120__si_class_type_infoE+16
 9995      00000000 
 9996 0bb8 00000000 		.quad	_ZTSN12_GLOBAL__N_150TestXmlTestReporterFixtureEmptyReportSummaryFormatE
 9996      00000000 
 9997 0bc0 00000000 		.quad	_ZTIN8UnitTest4TestE
 9997      00000000 
 9998 0bc8 00000000 		.align 16
 9998      00000000 
 10001              	_ZTIN12_GLOBAL__N_165TestXmlTestReporterFixtureSingleSuccessfulTestReportSummaryFormatE:
 10002 0bd0 00000000 		.quad	_ZTVN10__cxxabiv120__si_class_type_infoE+16
 10002      00000000 
 10003 0bd8 00000000 		.quad	_ZTSN12_GLOBAL__N_165TestXmlTestReporterFixtureSingleSuccessfulTestReportSummaryFormatE
 10003      00000000 
 10004 0be0 00000000 		.quad	_ZTIN8UnitTest4TestE
 10004      00000000 
 10005 0be8 00000000 		.align 16
 10005      00000000 
 10008              	_ZTIN12_GLOBAL__N_161TestXmlTestReporterFixtureSingleFailedTestReportSummaryFormatE:
 10009 0bf0 00000000 		.quad	_ZTVN10__cxxabiv120__si_class_type_infoE+16
 10009      00000000 
 10010 0bf8 00000000 		.quad	_ZTSN12_GLOBAL__N_161TestXmlTestReporterFixtureSingleFailedTestReportSummaryFormatE
 10010      00000000 
 10011 0c00 00000000 		.quad	_ZTIN8UnitTest4TestE
 10011      00000000 
 10012 0c08 00000000 		.align 16
 10012      00000000 
 10015              	_ZTIN12_GLOBAL__N_152TestXmlTestReporterFixtureFailureMessageIsXMLEscapedE:
 10016 0c10 00000000 		.quad	_ZTVN10__cxxabiv120__si_class_type_infoE+16
 10016      00000000 
 10017 0c18 00000000 		.quad	_ZTSN12_GLOBAL__N_152TestXmlTestReporterFixtureFailureMessageIsXMLEscapedE
 10017      00000000 
 10018 0c20 00000000 		.quad	_ZTIN8UnitTest4TestE
 10018      00000000 
 10019 0c28 00000000 		.align 16
 10019      00000000 
 10022              	_ZTIN12_GLOBAL__N_149TestXmlTestReporterFixtureOneFailureAndOneSuccessE:
 10023 0c30 00000000 		.quad	_ZTVN10__cxxabiv120__si_class_type_infoE+16
 10023      00000000 
 10024 0c38 00000000 		.quad	_ZTSN12_GLOBAL__N_149TestXmlTestReporterFixtureOneFailureAndOneSuccessE
 10024      00000000 
 10025 0c40 00000000 		.quad	_ZTIN8UnitTest4TestE
 10025      00000000 
 10026 0c48 00000000 		.align 16
 10026      00000000 
 10029              	_ZTIN12_GLOBAL__N_142TestXmlTestReporterFixtureMultipleFailuresE:
 10030 0c50 00000000 		.quad	_ZTVN10__cxxabiv120__si_class_type_infoE+16
 10030      00000000 
 10031 0c58 00000000 		.quad	_ZTSN12_GLOBAL__N_142TestXmlTestReporterFixtureMultipleFailuresE
 10031      00000000 
 10032 0c60 00000000 		.quad	_ZTIN8UnitTest4TestE
 10032      00000000 
 10033 0c68 00000000 		.align 32
 10033      00000000 
 10033      00000000 
 10033      00000000 
 10033      00000000 
 10036              	_ZTSN12_GLOBAL__N_142TestXmlTestReporterFixtureMultipleFailuresE:
 10037 0c80 2A4E3132 		.string	"*N12_GLOBAL__N_142TestXmlTestReporterFixtureMultipleFailuresE"
 10037      5F474C4F 
 10037      42414C5F 
 10037      5F4E5F31 
 10037      34325465 
 10038 0cbe 0000     		.align 64
 10041              	_ZTSN12_GLOBAL__N_149TestXmlTestReporterFixtureOneFailureAndOneSuccessE:
 10042 0cc0 2A4E3132 		.string	"*N12_GLOBAL__N_149TestXmlTestReporterFixtureOneFailureAndOneSuccessE"
 10042      5F474C4F 
 10042      42414C5F 
 10042      5F4E5F31 
 10042      34395465 
 10043 0d05 00000000 		.align 64
 10043      00000000 
 10043      00000000 
 10043      00000000 
 10043      00000000 
 10046              	_ZTSN12_GLOBAL__N_152TestXmlTestReporterFixtureFailureMessageIsXMLEscapedE:
 10047 0d40 2A4E3132 		.string	"*N12_GLOBAL__N_152TestXmlTestReporterFixtureFailureMessageIsXMLEscapedE"
 10047      5F474C4F 
 10047      42414C5F 
 10047      5F4E5F31 
 10047      35325465 
 10048 0d88 00000000 		.align 64
 10048      00000000 
 10048      00000000 
 10048      00000000 
 10048      00000000 
 10051              	_ZTSN12_GLOBAL__N_161TestXmlTestReporterFixtureSingleFailedTestReportSummaryFormatE:
 10052 0dc0 2A4E3132 		.string	"*N12_GLOBAL__N_161TestXmlTestReporterFixtureSingleFailedTestReportSummaryFormatE"
 10052      5F474C4F 
 10052      42414C5F 
 10052      5F4E5F31 
 10052      36315465 
 10053 0e11 00000000 		.align 64
 10053      00000000 
 10053      00000000 
 10053      00000000 
 10053      00000000 
 10056              	_ZTSN12_GLOBAL__N_165TestXmlTestReporterFixtureSingleSuccessfulTestReportSummaryFormatE:
 10057 0e40 2A4E3132 		.string	"*N12_GLOBAL__N_165TestXmlTestReporterFixtureSingleSuccessfulTestReportSummaryFormatE"
 10057      5F474C4F 
 10057      42414C5F 
 10057      5F4E5F31 
 10057      36355465 
 10058 0e95 00000000 		.align 64
 10058      00000000 
 10058      00000000 
 10058      00000000 
 10058      00000000 
 10061              	_ZTSN12_GLOBAL__N_150TestXmlTestReporterFixtureEmptyReportSummaryFormatE:
 10062 0ec0 2A4E3132 		.string	"*N12_GLOBAL__N_150TestXmlTestReporterFixtureEmptyReportSummaryFormatE"
 10062      5F474C4F 
 10062      42414C5F 
 10062      5F4E5F31 
 10062      35305465 
 10063 0f06 00000000 		.align 64
 10063      00000000 
 10063      00000000 
 10063      00000000 
 10063      00000000 
 10066              	_ZTSN12_GLOBAL__N_166TestXmlTestReporterFixtureOutputIsCachedUntilReportSummaryIsCalledE:
 10067 0f40 2A4E3132 		.string	"*N12_GLOBAL__N_166TestXmlTestReporterFixtureOutputIsCachedUntilReportSummaryIsCalledE"
 10067      5F474C4F 
 10067      42414C5F 
 10067      5F4E5F31 
 10067      36365465 
 10068 0f96 00000000 		.align 64
 10068      00000000 
 10068      00000000 
 10068      00000000 
 10068      00000000 
 10071              	_ZTSN12_GLOBAL__N_154TestXmlTestReporterFixtureMultipleCharactersAreEscapedE:
 10072 0fc0 2A4E3132 		.string	"*N12_GLOBAL__N_154TestXmlTestReporterFixtureMultipleCharactersAreEscapedE"
 10072      5F474C4F 
 10072      42414C5F 
 10072      5F4E5F31 
 10072      35345465 
 10073              		.section	.text._ZNSt6vectorIN8UnitTest18DeferredTestResultESaIS1_EED2Ev,"axG",@progbits,_ZNSt6vect
 10074              		.align 2
 10075              		.weak	_ZNSt6vectorIN8UnitTest18DeferredTestResultESaIS1_EED2Ev
 10077              	_ZNSt6vectorIN8UnitTest18DeferredTestResultESaIS1_EED2Ev:
 10078              	.LFB1588:
 10079              		.file 9 "/usr/include/c++/4.9/bits/stl_vector.h"
   1:/usr/include/c++/4.9/bits/stl_vector.h **** // Vector implementation -*- C++ -*-
   2:/usr/include/c++/4.9/bits/stl_vector.h **** 
   3:/usr/include/c++/4.9/bits/stl_vector.h **** // Copyright (C) 2001-2014 Free Software Foundation, Inc.
   4:/usr/include/c++/4.9/bits/stl_vector.h **** //
   5:/usr/include/c++/4.9/bits/stl_vector.h **** // This file is part of the GNU ISO C++ Library.  This library is free
   6:/usr/include/c++/4.9/bits/stl_vector.h **** // software; you can redistribute it and/or modify it under the
   7:/usr/include/c++/4.9/bits/stl_vector.h **** // terms of the GNU General Public License as published by the
   8:/usr/include/c++/4.9/bits/stl_vector.h **** // Free Software Foundation; either version 3, or (at your option)
   9:/usr/include/c++/4.9/bits/stl_vector.h **** // any later version.
  10:/usr/include/c++/4.9/bits/stl_vector.h **** 
  11:/usr/include/c++/4.9/bits/stl_vector.h **** // This library is distributed in the hope that it will be useful,
  12:/usr/include/c++/4.9/bits/stl_vector.h **** // but WITHOUT ANY WARRANTY; without even the implied warranty of
  13:/usr/include/c++/4.9/bits/stl_vector.h **** // MERCHANTABILITY or FITNESS FOR A PARTICULAR PURPOSE.  See the
  14:/usr/include/c++/4.9/bits/stl_vector.h **** // GNU General Public License for more details.
  15:/usr/include/c++/4.9/bits/stl_vector.h **** 
  16:/usr/include/c++/4.9/bits/stl_vector.h **** // Under Section 7 of GPL version 3, you are granted additional
  17:/usr/include/c++/4.9/bits/stl_vector.h **** // permissions described in the GCC Runtime Library Exception, version
  18:/usr/include/c++/4.9/bits/stl_vector.h **** // 3.1, as published by the Free Software Foundation.
  19:/usr/include/c++/4.9/bits/stl_vector.h **** 
  20:/usr/include/c++/4.9/bits/stl_vector.h **** // You should have received a copy of the GNU General Public License and
  21:/usr/include/c++/4.9/bits/stl_vector.h **** // a copy of the GCC Runtime Library Exception along with this program;
  22:/usr/include/c++/4.9/bits/stl_vector.h **** // see the files COPYING3 and COPYING.RUNTIME respectively.  If not, see
  23:/usr/include/c++/4.9/bits/stl_vector.h **** // <http://www.gnu.org/licenses/>.
  24:/usr/include/c++/4.9/bits/stl_vector.h **** 
  25:/usr/include/c++/4.9/bits/stl_vector.h **** /*
  26:/usr/include/c++/4.9/bits/stl_vector.h ****  *
  27:/usr/include/c++/4.9/bits/stl_vector.h ****  * Copyright (c) 1994
  28:/usr/include/c++/4.9/bits/stl_vector.h ****  * Hewlett-Packard Company
  29:/usr/include/c++/4.9/bits/stl_vector.h ****  *
  30:/usr/include/c++/4.9/bits/stl_vector.h ****  * Permission to use, copy, modify, distribute and sell this software
  31:/usr/include/c++/4.9/bits/stl_vector.h ****  * and its documentation for any purpose is hereby granted without fee,
  32:/usr/include/c++/4.9/bits/stl_vector.h ****  * provided that the above copyright notice appear in all copies and
  33:/usr/include/c++/4.9/bits/stl_vector.h ****  * that both that copyright notice and this permission notice appear
  34:/usr/include/c++/4.9/bits/stl_vector.h ****  * in supporting documentation.  Hewlett-Packard Company makes no
  35:/usr/include/c++/4.9/bits/stl_vector.h ****  * representations about the suitability of this software for any
  36:/usr/include/c++/4.9/bits/stl_vector.h ****  * purpose.  It is provided "as is" without express or implied warranty.
  37:/usr/include/c++/4.9/bits/stl_vector.h ****  *
  38:/usr/include/c++/4.9/bits/stl_vector.h ****  *
  39:/usr/include/c++/4.9/bits/stl_vector.h ****  * Copyright (c) 1996
  40:/usr/include/c++/4.9/bits/stl_vector.h ****  * Silicon Graphics Computer Systems, Inc.
  41:/usr/include/c++/4.9/bits/stl_vector.h ****  *
  42:/usr/include/c++/4.9/bits/stl_vector.h ****  * Permission to use, copy, modify, distribute and sell this software
  43:/usr/include/c++/4.9/bits/stl_vector.h ****  * and its documentation for any purpose is hereby granted without fee,
  44:/usr/include/c++/4.9/bits/stl_vector.h ****  * provided that the above copyright notice appear in all copies and
  45:/usr/include/c++/4.9/bits/stl_vector.h ****  * that both that copyright notice and this permission notice appear
  46:/usr/include/c++/4.9/bits/stl_vector.h ****  * in supporting documentation.  Silicon Graphics makes no
  47:/usr/include/c++/4.9/bits/stl_vector.h ****  * representations about the suitability of this  software for any
  48:/usr/include/c++/4.9/bits/stl_vector.h ****  * purpose.  It is provided "as is" without express or implied warranty.
  49:/usr/include/c++/4.9/bits/stl_vector.h ****  */
  50:/usr/include/c++/4.9/bits/stl_vector.h **** 
  51:/usr/include/c++/4.9/bits/stl_vector.h **** /** @file bits/stl_vector.h
  52:/usr/include/c++/4.9/bits/stl_vector.h ****  *  This is an internal header file, included by other library headers.
  53:/usr/include/c++/4.9/bits/stl_vector.h ****  *  Do not attempt to use it directly. @headername{vector}
  54:/usr/include/c++/4.9/bits/stl_vector.h ****  */
  55:/usr/include/c++/4.9/bits/stl_vector.h **** 
  56:/usr/include/c++/4.9/bits/stl_vector.h **** #ifndef _STL_VECTOR_H
  57:/usr/include/c++/4.9/bits/stl_vector.h **** #define _STL_VECTOR_H 1
  58:/usr/include/c++/4.9/bits/stl_vector.h **** 
  59:/usr/include/c++/4.9/bits/stl_vector.h **** #include <bits/stl_iterator_base_funcs.h>
  60:/usr/include/c++/4.9/bits/stl_vector.h **** #include <bits/functexcept.h>
  61:/usr/include/c++/4.9/bits/stl_vector.h **** #include <bits/concept_check.h>
  62:/usr/include/c++/4.9/bits/stl_vector.h **** #if __cplusplus >= 201103L
  63:/usr/include/c++/4.9/bits/stl_vector.h **** #include <initializer_list>
  64:/usr/include/c++/4.9/bits/stl_vector.h **** #endif
  65:/usr/include/c++/4.9/bits/stl_vector.h **** 
  66:/usr/include/c++/4.9/bits/stl_vector.h **** namespace std _GLIBCXX_VISIBILITY(default)
  67:/usr/include/c++/4.9/bits/stl_vector.h **** {
  68:/usr/include/c++/4.9/bits/stl_vector.h **** _GLIBCXX_BEGIN_NAMESPACE_CONTAINER
  69:/usr/include/c++/4.9/bits/stl_vector.h **** 
  70:/usr/include/c++/4.9/bits/stl_vector.h ****   /// See bits/stl_deque.h's _Deque_base for an explanation.
  71:/usr/include/c++/4.9/bits/stl_vector.h ****   template<typename _Tp, typename _Alloc>
  72:/usr/include/c++/4.9/bits/stl_vector.h ****     struct _Vector_base
  73:/usr/include/c++/4.9/bits/stl_vector.h ****     {
  74:/usr/include/c++/4.9/bits/stl_vector.h ****       typedef typename __gnu_cxx::__alloc_traits<_Alloc>::template
  75:/usr/include/c++/4.9/bits/stl_vector.h ****         rebind<_Tp>::other _Tp_alloc_type;
  76:/usr/include/c++/4.9/bits/stl_vector.h ****       typedef typename __gnu_cxx::__alloc_traits<_Tp_alloc_type>::pointer
  77:/usr/include/c++/4.9/bits/stl_vector.h ****        	pointer;
  78:/usr/include/c++/4.9/bits/stl_vector.h **** 
  79:/usr/include/c++/4.9/bits/stl_vector.h ****       struct _Vector_impl 
  80:/usr/include/c++/4.9/bits/stl_vector.h ****       : public _Tp_alloc_type
  81:/usr/include/c++/4.9/bits/stl_vector.h ****       {
  82:/usr/include/c++/4.9/bits/stl_vector.h **** 	pointer _M_start;
  83:/usr/include/c++/4.9/bits/stl_vector.h **** 	pointer _M_finish;
  84:/usr/include/c++/4.9/bits/stl_vector.h **** 	pointer _M_end_of_storage;
  85:/usr/include/c++/4.9/bits/stl_vector.h **** 
  86:/usr/include/c++/4.9/bits/stl_vector.h **** 	_Vector_impl()
  87:/usr/include/c++/4.9/bits/stl_vector.h **** 	: _Tp_alloc_type(), _M_start(0), _M_finish(0), _M_end_of_storage(0)
  88:/usr/include/c++/4.9/bits/stl_vector.h **** 	{ }
  89:/usr/include/c++/4.9/bits/stl_vector.h **** 
  90:/usr/include/c++/4.9/bits/stl_vector.h **** 	_Vector_impl(_Tp_alloc_type const& __a) _GLIBCXX_NOEXCEPT
  91:/usr/include/c++/4.9/bits/stl_vector.h **** 	: _Tp_alloc_type(__a), _M_start(0), _M_finish(0), _M_end_of_storage(0)
  92:/usr/include/c++/4.9/bits/stl_vector.h **** 	{ }
  93:/usr/include/c++/4.9/bits/stl_vector.h **** 
  94:/usr/include/c++/4.9/bits/stl_vector.h **** #if __cplusplus >= 201103L
  95:/usr/include/c++/4.9/bits/stl_vector.h **** 	_Vector_impl(_Tp_alloc_type&& __a) noexcept
  96:/usr/include/c++/4.9/bits/stl_vector.h **** 	: _Tp_alloc_type(std::move(__a)),
  97:/usr/include/c++/4.9/bits/stl_vector.h **** 	  _M_start(0), _M_finish(0), _M_end_of_storage(0)
  98:/usr/include/c++/4.9/bits/stl_vector.h **** 	{ }
  99:/usr/include/c++/4.9/bits/stl_vector.h **** #endif
 100:/usr/include/c++/4.9/bits/stl_vector.h **** 
 101:/usr/include/c++/4.9/bits/stl_vector.h **** 	void _M_swap_data(_Vector_impl& __x) _GLIBCXX_NOEXCEPT
 102:/usr/include/c++/4.9/bits/stl_vector.h **** 	{
 103:/usr/include/c++/4.9/bits/stl_vector.h **** 	  std::swap(_M_start, __x._M_start);
 104:/usr/include/c++/4.9/bits/stl_vector.h **** 	  std::swap(_M_finish, __x._M_finish);
 105:/usr/include/c++/4.9/bits/stl_vector.h **** 	  std::swap(_M_end_of_storage, __x._M_end_of_storage);
 106:/usr/include/c++/4.9/bits/stl_vector.h **** 	}
 107:/usr/include/c++/4.9/bits/stl_vector.h ****       };
 108:/usr/include/c++/4.9/bits/stl_vector.h ****       
 109:/usr/include/c++/4.9/bits/stl_vector.h ****     public:
 110:/usr/include/c++/4.9/bits/stl_vector.h ****       typedef _Alloc allocator_type;
 111:/usr/include/c++/4.9/bits/stl_vector.h **** 
 112:/usr/include/c++/4.9/bits/stl_vector.h ****       _Tp_alloc_type&
 113:/usr/include/c++/4.9/bits/stl_vector.h ****       _M_get_Tp_allocator() _GLIBCXX_NOEXCEPT
 114:/usr/include/c++/4.9/bits/stl_vector.h ****       { return *static_cast<_Tp_alloc_type*>(&this->_M_impl); }
 115:/usr/include/c++/4.9/bits/stl_vector.h **** 
 116:/usr/include/c++/4.9/bits/stl_vector.h ****       const _Tp_alloc_type&
 117:/usr/include/c++/4.9/bits/stl_vector.h ****       _M_get_Tp_allocator() const _GLIBCXX_NOEXCEPT
 118:/usr/include/c++/4.9/bits/stl_vector.h ****       { return *static_cast<const _Tp_alloc_type*>(&this->_M_impl); }
 119:/usr/include/c++/4.9/bits/stl_vector.h **** 
 120:/usr/include/c++/4.9/bits/stl_vector.h ****       allocator_type
 121:/usr/include/c++/4.9/bits/stl_vector.h ****       get_allocator() const _GLIBCXX_NOEXCEPT
 122:/usr/include/c++/4.9/bits/stl_vector.h ****       { return allocator_type(_M_get_Tp_allocator()); }
 123:/usr/include/c++/4.9/bits/stl_vector.h **** 
 124:/usr/include/c++/4.9/bits/stl_vector.h ****       _Vector_base()
 125:/usr/include/c++/4.9/bits/stl_vector.h ****       : _M_impl() { }
 126:/usr/include/c++/4.9/bits/stl_vector.h **** 
 127:/usr/include/c++/4.9/bits/stl_vector.h ****       _Vector_base(const allocator_type& __a) _GLIBCXX_NOEXCEPT
 128:/usr/include/c++/4.9/bits/stl_vector.h ****       : _M_impl(__a) { }
 129:/usr/include/c++/4.9/bits/stl_vector.h **** 
 130:/usr/include/c++/4.9/bits/stl_vector.h ****       _Vector_base(size_t __n)
 131:/usr/include/c++/4.9/bits/stl_vector.h ****       : _M_impl()
 132:/usr/include/c++/4.9/bits/stl_vector.h ****       { _M_create_storage(__n); }
 133:/usr/include/c++/4.9/bits/stl_vector.h **** 
 134:/usr/include/c++/4.9/bits/stl_vector.h ****       _Vector_base(size_t __n, const allocator_type& __a)
 135:/usr/include/c++/4.9/bits/stl_vector.h ****       : _M_impl(__a)
 136:/usr/include/c++/4.9/bits/stl_vector.h ****       { _M_create_storage(__n); }
 137:/usr/include/c++/4.9/bits/stl_vector.h **** 
 138:/usr/include/c++/4.9/bits/stl_vector.h **** #if __cplusplus >= 201103L
 139:/usr/include/c++/4.9/bits/stl_vector.h ****       _Vector_base(_Tp_alloc_type&& __a) noexcept
 140:/usr/include/c++/4.9/bits/stl_vector.h ****       : _M_impl(std::move(__a)) { }
 141:/usr/include/c++/4.9/bits/stl_vector.h **** 
 142:/usr/include/c++/4.9/bits/stl_vector.h ****       _Vector_base(_Vector_base&& __x) noexcept
 143:/usr/include/c++/4.9/bits/stl_vector.h ****       : _M_impl(std::move(__x._M_get_Tp_allocator()))
 144:/usr/include/c++/4.9/bits/stl_vector.h ****       { this->_M_impl._M_swap_data(__x._M_impl); }
 145:/usr/include/c++/4.9/bits/stl_vector.h **** 
 146:/usr/include/c++/4.9/bits/stl_vector.h ****       _Vector_base(_Vector_base&& __x, const allocator_type& __a)
 147:/usr/include/c++/4.9/bits/stl_vector.h ****       : _M_impl(__a)
 148:/usr/include/c++/4.9/bits/stl_vector.h ****       {
 149:/usr/include/c++/4.9/bits/stl_vector.h **** 	if (__x.get_allocator() == __a)
 150:/usr/include/c++/4.9/bits/stl_vector.h **** 	  this->_M_impl._M_swap_data(__x._M_impl);
 151:/usr/include/c++/4.9/bits/stl_vector.h **** 	else
 152:/usr/include/c++/4.9/bits/stl_vector.h **** 	  {
 153:/usr/include/c++/4.9/bits/stl_vector.h **** 	    size_t __n = __x._M_impl._M_finish - __x._M_impl._M_start;
 154:/usr/include/c++/4.9/bits/stl_vector.h **** 	    _M_create_storage(__n);
 155:/usr/include/c++/4.9/bits/stl_vector.h **** 	  }
 156:/usr/include/c++/4.9/bits/stl_vector.h ****       }
 157:/usr/include/c++/4.9/bits/stl_vector.h **** #endif
 158:/usr/include/c++/4.9/bits/stl_vector.h **** 
 159:/usr/include/c++/4.9/bits/stl_vector.h ****       ~_Vector_base() _GLIBCXX_NOEXCEPT
 160:/usr/include/c++/4.9/bits/stl_vector.h ****       { _M_deallocate(this->_M_impl._M_start, this->_M_impl._M_end_of_storage
 161:/usr/include/c++/4.9/bits/stl_vector.h **** 		      - this->_M_impl._M_start); }
 162:/usr/include/c++/4.9/bits/stl_vector.h **** 
 163:/usr/include/c++/4.9/bits/stl_vector.h ****     public:
 164:/usr/include/c++/4.9/bits/stl_vector.h ****       _Vector_impl _M_impl;
 165:/usr/include/c++/4.9/bits/stl_vector.h **** 
 166:/usr/include/c++/4.9/bits/stl_vector.h ****       pointer
 167:/usr/include/c++/4.9/bits/stl_vector.h ****       _M_allocate(size_t __n)
 168:/usr/include/c++/4.9/bits/stl_vector.h ****       {
 169:/usr/include/c++/4.9/bits/stl_vector.h **** 	typedef __gnu_cxx::__alloc_traits<_Tp_alloc_type> _Tr;
 170:/usr/include/c++/4.9/bits/stl_vector.h **** 	return __n != 0 ? _Tr::allocate(_M_impl, __n) : 0;
 171:/usr/include/c++/4.9/bits/stl_vector.h ****       }
 172:/usr/include/c++/4.9/bits/stl_vector.h **** 
 173:/usr/include/c++/4.9/bits/stl_vector.h ****       void
 174:/usr/include/c++/4.9/bits/stl_vector.h ****       _M_deallocate(pointer __p, size_t __n)
 175:/usr/include/c++/4.9/bits/stl_vector.h ****       {
 176:/usr/include/c++/4.9/bits/stl_vector.h **** 	typedef __gnu_cxx::__alloc_traits<_Tp_alloc_type> _Tr;
 177:/usr/include/c++/4.9/bits/stl_vector.h **** 	if (__p)
 178:/usr/include/c++/4.9/bits/stl_vector.h **** 	  _Tr::deallocate(_M_impl, __p, __n);
 179:/usr/include/c++/4.9/bits/stl_vector.h ****       }
 180:/usr/include/c++/4.9/bits/stl_vector.h **** 
 181:/usr/include/c++/4.9/bits/stl_vector.h ****     private:
 182:/usr/include/c++/4.9/bits/stl_vector.h ****       void
 183:/usr/include/c++/4.9/bits/stl_vector.h ****       _M_create_storage(size_t __n)
 184:/usr/include/c++/4.9/bits/stl_vector.h ****       {
 185:/usr/include/c++/4.9/bits/stl_vector.h **** 	this->_M_impl._M_start = this->_M_allocate(__n);
 186:/usr/include/c++/4.9/bits/stl_vector.h **** 	this->_M_impl._M_finish = this->_M_impl._M_start;
 187:/usr/include/c++/4.9/bits/stl_vector.h **** 	this->_M_impl._M_end_of_storage = this->_M_impl._M_start + __n;
 188:/usr/include/c++/4.9/bits/stl_vector.h ****       }
 189:/usr/include/c++/4.9/bits/stl_vector.h ****     };
 190:/usr/include/c++/4.9/bits/stl_vector.h **** 
 191:/usr/include/c++/4.9/bits/stl_vector.h **** 
 192:/usr/include/c++/4.9/bits/stl_vector.h ****   /**
 193:/usr/include/c++/4.9/bits/stl_vector.h ****    *  @brief A standard container which offers fixed time access to
 194:/usr/include/c++/4.9/bits/stl_vector.h ****    *  individual elements in any order.
 195:/usr/include/c++/4.9/bits/stl_vector.h ****    *
 196:/usr/include/c++/4.9/bits/stl_vector.h ****    *  @ingroup sequences
 197:/usr/include/c++/4.9/bits/stl_vector.h ****    *
 198:/usr/include/c++/4.9/bits/stl_vector.h ****    *  @tparam _Tp  Type of element.
 199:/usr/include/c++/4.9/bits/stl_vector.h ****    *  @tparam _Alloc  Allocator type, defaults to allocator<_Tp>.
 200:/usr/include/c++/4.9/bits/stl_vector.h ****    *
 201:/usr/include/c++/4.9/bits/stl_vector.h ****    *  Meets the requirements of a <a href="tables.html#65">container</a>, a
 202:/usr/include/c++/4.9/bits/stl_vector.h ****    *  <a href="tables.html#66">reversible container</a>, and a
 203:/usr/include/c++/4.9/bits/stl_vector.h ****    *  <a href="tables.html#67">sequence</a>, including the
 204:/usr/include/c++/4.9/bits/stl_vector.h ****    *  <a href="tables.html#68">optional sequence requirements</a> with the
 205:/usr/include/c++/4.9/bits/stl_vector.h ****    *  %exception of @c push_front and @c pop_front.
 206:/usr/include/c++/4.9/bits/stl_vector.h ****    *
 207:/usr/include/c++/4.9/bits/stl_vector.h ****    *  In some terminology a %vector can be described as a dynamic
 208:/usr/include/c++/4.9/bits/stl_vector.h ****    *  C-style array, it offers fast and efficient access to individual
 209:/usr/include/c++/4.9/bits/stl_vector.h ****    *  elements in any order and saves the user from worrying about
 210:/usr/include/c++/4.9/bits/stl_vector.h ****    *  memory and size allocation.  Subscripting ( @c [] ) access is
 211:/usr/include/c++/4.9/bits/stl_vector.h ****    *  also provided as with C-style arrays.
 212:/usr/include/c++/4.9/bits/stl_vector.h ****   */
 213:/usr/include/c++/4.9/bits/stl_vector.h ****   template<typename _Tp, typename _Alloc = std::allocator<_Tp> >
 214:/usr/include/c++/4.9/bits/stl_vector.h ****     class vector : protected _Vector_base<_Tp, _Alloc>
 215:/usr/include/c++/4.9/bits/stl_vector.h ****     {
 216:/usr/include/c++/4.9/bits/stl_vector.h ****       // Concept requirements.
 217:/usr/include/c++/4.9/bits/stl_vector.h ****       typedef typename _Alloc::value_type                _Alloc_value_type;
 218:/usr/include/c++/4.9/bits/stl_vector.h ****       __glibcxx_class_requires(_Tp, _SGIAssignableConcept)
 219:/usr/include/c++/4.9/bits/stl_vector.h ****       __glibcxx_class_requires2(_Tp, _Alloc_value_type, _SameTypeConcept)
 220:/usr/include/c++/4.9/bits/stl_vector.h ****       
 221:/usr/include/c++/4.9/bits/stl_vector.h ****       typedef _Vector_base<_Tp, _Alloc>			 _Base;
 222:/usr/include/c++/4.9/bits/stl_vector.h ****       typedef typename _Base::_Tp_alloc_type		 _Tp_alloc_type;
 223:/usr/include/c++/4.9/bits/stl_vector.h ****       typedef __gnu_cxx::__alloc_traits<_Tp_alloc_type>  _Alloc_traits;
 224:/usr/include/c++/4.9/bits/stl_vector.h **** 
 225:/usr/include/c++/4.9/bits/stl_vector.h ****     public:
 226:/usr/include/c++/4.9/bits/stl_vector.h ****       typedef _Tp					 value_type;
 227:/usr/include/c++/4.9/bits/stl_vector.h ****       typedef typename _Base::pointer                    pointer;
 228:/usr/include/c++/4.9/bits/stl_vector.h ****       typedef typename _Alloc_traits::const_pointer      const_pointer;
 229:/usr/include/c++/4.9/bits/stl_vector.h ****       typedef typename _Alloc_traits::reference          reference;
 230:/usr/include/c++/4.9/bits/stl_vector.h ****       typedef typename _Alloc_traits::const_reference    const_reference;
 231:/usr/include/c++/4.9/bits/stl_vector.h ****       typedef __gnu_cxx::__normal_iterator<pointer, vector> iterator;
 232:/usr/include/c++/4.9/bits/stl_vector.h ****       typedef __gnu_cxx::__normal_iterator<const_pointer, vector>
 233:/usr/include/c++/4.9/bits/stl_vector.h ****       const_iterator;
 234:/usr/include/c++/4.9/bits/stl_vector.h ****       typedef std::reverse_iterator<const_iterator>  const_reverse_iterator;
 235:/usr/include/c++/4.9/bits/stl_vector.h ****       typedef std::reverse_iterator<iterator>		 reverse_iterator;
 236:/usr/include/c++/4.9/bits/stl_vector.h ****       typedef size_t					 size_type;
 237:/usr/include/c++/4.9/bits/stl_vector.h ****       typedef ptrdiff_t					 difference_type;
 238:/usr/include/c++/4.9/bits/stl_vector.h ****       typedef _Alloc                        		 allocator_type;
 239:/usr/include/c++/4.9/bits/stl_vector.h **** 
 240:/usr/include/c++/4.9/bits/stl_vector.h ****     protected:
 241:/usr/include/c++/4.9/bits/stl_vector.h ****       using _Base::_M_allocate;
 242:/usr/include/c++/4.9/bits/stl_vector.h ****       using _Base::_M_deallocate;
 243:/usr/include/c++/4.9/bits/stl_vector.h ****       using _Base::_M_impl;
 244:/usr/include/c++/4.9/bits/stl_vector.h ****       using _Base::_M_get_Tp_allocator;
 245:/usr/include/c++/4.9/bits/stl_vector.h **** 
 246:/usr/include/c++/4.9/bits/stl_vector.h ****     public:
 247:/usr/include/c++/4.9/bits/stl_vector.h ****       // [23.2.4.1] construct/copy/destroy
 248:/usr/include/c++/4.9/bits/stl_vector.h ****       // (assign() and get_allocator() are also listed in this section)
 249:/usr/include/c++/4.9/bits/stl_vector.h **** 
 250:/usr/include/c++/4.9/bits/stl_vector.h ****       /**
 251:/usr/include/c++/4.9/bits/stl_vector.h ****        *  @brief  Creates a %vector with no elements.
 252:/usr/include/c++/4.9/bits/stl_vector.h ****        */
 253:/usr/include/c++/4.9/bits/stl_vector.h ****       vector()
 254:/usr/include/c++/4.9/bits/stl_vector.h **** #if __cplusplus >= 201103L
 255:/usr/include/c++/4.9/bits/stl_vector.h ****       noexcept(is_nothrow_default_constructible<_Alloc>::value)
 256:/usr/include/c++/4.9/bits/stl_vector.h **** #endif
 257:/usr/include/c++/4.9/bits/stl_vector.h ****       : _Base() { }
 258:/usr/include/c++/4.9/bits/stl_vector.h **** 
 259:/usr/include/c++/4.9/bits/stl_vector.h ****       /**
 260:/usr/include/c++/4.9/bits/stl_vector.h ****        *  @brief  Creates a %vector with no elements.
 261:/usr/include/c++/4.9/bits/stl_vector.h ****        *  @param  __a  An allocator object.
 262:/usr/include/c++/4.9/bits/stl_vector.h ****        */
 263:/usr/include/c++/4.9/bits/stl_vector.h ****       explicit
 264:/usr/include/c++/4.9/bits/stl_vector.h ****       vector(const allocator_type& __a) _GLIBCXX_NOEXCEPT
 265:/usr/include/c++/4.9/bits/stl_vector.h ****       : _Base(__a) { }
 266:/usr/include/c++/4.9/bits/stl_vector.h **** 
 267:/usr/include/c++/4.9/bits/stl_vector.h **** #if __cplusplus >= 201103L
 268:/usr/include/c++/4.9/bits/stl_vector.h ****       /**
 269:/usr/include/c++/4.9/bits/stl_vector.h ****        *  @brief  Creates a %vector with default constructed elements.
 270:/usr/include/c++/4.9/bits/stl_vector.h ****        *  @param  __n  The number of elements to initially create.
 271:/usr/include/c++/4.9/bits/stl_vector.h ****        *  @param  __a  An allocator.
 272:/usr/include/c++/4.9/bits/stl_vector.h ****        *
 273:/usr/include/c++/4.9/bits/stl_vector.h ****        *  This constructor fills the %vector with @a __n default
 274:/usr/include/c++/4.9/bits/stl_vector.h ****        *  constructed elements.
 275:/usr/include/c++/4.9/bits/stl_vector.h ****        */
 276:/usr/include/c++/4.9/bits/stl_vector.h ****       explicit
 277:/usr/include/c++/4.9/bits/stl_vector.h ****       vector(size_type __n, const allocator_type& __a = allocator_type())
 278:/usr/include/c++/4.9/bits/stl_vector.h ****       : _Base(__n, __a)
 279:/usr/include/c++/4.9/bits/stl_vector.h ****       { _M_default_initialize(__n); }
 280:/usr/include/c++/4.9/bits/stl_vector.h **** 
 281:/usr/include/c++/4.9/bits/stl_vector.h ****       /**
 282:/usr/include/c++/4.9/bits/stl_vector.h ****        *  @brief  Creates a %vector with copies of an exemplar element.
 283:/usr/include/c++/4.9/bits/stl_vector.h ****        *  @param  __n  The number of elements to initially create.
 284:/usr/include/c++/4.9/bits/stl_vector.h ****        *  @param  __value  An element to copy.
 285:/usr/include/c++/4.9/bits/stl_vector.h ****        *  @param  __a  An allocator.
 286:/usr/include/c++/4.9/bits/stl_vector.h ****        *
 287:/usr/include/c++/4.9/bits/stl_vector.h ****        *  This constructor fills the %vector with @a __n copies of @a __value.
 288:/usr/include/c++/4.9/bits/stl_vector.h ****        */
 289:/usr/include/c++/4.9/bits/stl_vector.h ****       vector(size_type __n, const value_type& __value,
 290:/usr/include/c++/4.9/bits/stl_vector.h **** 	     const allocator_type& __a = allocator_type())
 291:/usr/include/c++/4.9/bits/stl_vector.h ****       : _Base(__n, __a)
 292:/usr/include/c++/4.9/bits/stl_vector.h ****       { _M_fill_initialize(__n, __value); }
 293:/usr/include/c++/4.9/bits/stl_vector.h **** #else
 294:/usr/include/c++/4.9/bits/stl_vector.h ****       /**
 295:/usr/include/c++/4.9/bits/stl_vector.h ****        *  @brief  Creates a %vector with copies of an exemplar element.
 296:/usr/include/c++/4.9/bits/stl_vector.h ****        *  @param  __n  The number of elements to initially create.
 297:/usr/include/c++/4.9/bits/stl_vector.h ****        *  @param  __value  An element to copy.
 298:/usr/include/c++/4.9/bits/stl_vector.h ****        *  @param  __a  An allocator.
 299:/usr/include/c++/4.9/bits/stl_vector.h ****        *
 300:/usr/include/c++/4.9/bits/stl_vector.h ****        *  This constructor fills the %vector with @a __n copies of @a __value.
 301:/usr/include/c++/4.9/bits/stl_vector.h ****        */
 302:/usr/include/c++/4.9/bits/stl_vector.h ****       explicit
 303:/usr/include/c++/4.9/bits/stl_vector.h ****       vector(size_type __n, const value_type& __value = value_type(),
 304:/usr/include/c++/4.9/bits/stl_vector.h **** 	     const allocator_type& __a = allocator_type())
 305:/usr/include/c++/4.9/bits/stl_vector.h ****       : _Base(__n, __a)
 306:/usr/include/c++/4.9/bits/stl_vector.h ****       { _M_fill_initialize(__n, __value); }
 307:/usr/include/c++/4.9/bits/stl_vector.h **** #endif
 308:/usr/include/c++/4.9/bits/stl_vector.h **** 
 309:/usr/include/c++/4.9/bits/stl_vector.h ****       /**
 310:/usr/include/c++/4.9/bits/stl_vector.h ****        *  @brief  %Vector copy constructor.
 311:/usr/include/c++/4.9/bits/stl_vector.h ****        *  @param  __x  A %vector of identical element and allocator types.
 312:/usr/include/c++/4.9/bits/stl_vector.h ****        *
 313:/usr/include/c++/4.9/bits/stl_vector.h ****        *  The newly-created %vector uses a copy of the allocation
 314:/usr/include/c++/4.9/bits/stl_vector.h ****        *  object used by @a __x.  All the elements of @a __x are copied,
 315:/usr/include/c++/4.9/bits/stl_vector.h ****        *  but any extra memory in
 316:/usr/include/c++/4.9/bits/stl_vector.h ****        *  @a __x (for fast expansion) will not be copied.
 317:/usr/include/c++/4.9/bits/stl_vector.h ****        */
 318:/usr/include/c++/4.9/bits/stl_vector.h ****       vector(const vector& __x)
 319:/usr/include/c++/4.9/bits/stl_vector.h ****       : _Base(__x.size(),
 320:/usr/include/c++/4.9/bits/stl_vector.h ****         _Alloc_traits::_S_select_on_copy(__x._M_get_Tp_allocator()))
 321:/usr/include/c++/4.9/bits/stl_vector.h ****       { this->_M_impl._M_finish =
 322:/usr/include/c++/4.9/bits/stl_vector.h **** 	  std::__uninitialized_copy_a(__x.begin(), __x.end(),
 323:/usr/include/c++/4.9/bits/stl_vector.h **** 				      this->_M_impl._M_start,
 324:/usr/include/c++/4.9/bits/stl_vector.h **** 				      _M_get_Tp_allocator());
 325:/usr/include/c++/4.9/bits/stl_vector.h ****       }
 326:/usr/include/c++/4.9/bits/stl_vector.h **** 
 327:/usr/include/c++/4.9/bits/stl_vector.h **** #if __cplusplus >= 201103L
 328:/usr/include/c++/4.9/bits/stl_vector.h ****       /**
 329:/usr/include/c++/4.9/bits/stl_vector.h ****        *  @brief  %Vector move constructor.
 330:/usr/include/c++/4.9/bits/stl_vector.h ****        *  @param  __x  A %vector of identical element and allocator types.
 331:/usr/include/c++/4.9/bits/stl_vector.h ****        *
 332:/usr/include/c++/4.9/bits/stl_vector.h ****        *  The newly-created %vector contains the exact contents of @a __x.
 333:/usr/include/c++/4.9/bits/stl_vector.h ****        *  The contents of @a __x are a valid, but unspecified %vector.
 334:/usr/include/c++/4.9/bits/stl_vector.h ****        */
 335:/usr/include/c++/4.9/bits/stl_vector.h ****       vector(vector&& __x) noexcept
 336:/usr/include/c++/4.9/bits/stl_vector.h ****       : _Base(std::move(__x)) { }
 337:/usr/include/c++/4.9/bits/stl_vector.h **** 
 338:/usr/include/c++/4.9/bits/stl_vector.h ****       /// Copy constructor with alternative allocator
 339:/usr/include/c++/4.9/bits/stl_vector.h ****       vector(const vector& __x, const allocator_type& __a)
 340:/usr/include/c++/4.9/bits/stl_vector.h ****       : _Base(__x.size(), __a)
 341:/usr/include/c++/4.9/bits/stl_vector.h ****       { this->_M_impl._M_finish =
 342:/usr/include/c++/4.9/bits/stl_vector.h **** 	  std::__uninitialized_copy_a(__x.begin(), __x.end(),
 343:/usr/include/c++/4.9/bits/stl_vector.h **** 				      this->_M_impl._M_start,
 344:/usr/include/c++/4.9/bits/stl_vector.h **** 				      _M_get_Tp_allocator());
 345:/usr/include/c++/4.9/bits/stl_vector.h ****       }
 346:/usr/include/c++/4.9/bits/stl_vector.h **** 
 347:/usr/include/c++/4.9/bits/stl_vector.h ****       /// Move constructor with alternative allocator
 348:/usr/include/c++/4.9/bits/stl_vector.h ****       vector(vector&& __rv, const allocator_type& __m)
 349:/usr/include/c++/4.9/bits/stl_vector.h ****       noexcept(_Alloc_traits::_S_always_equal())
 350:/usr/include/c++/4.9/bits/stl_vector.h ****       : _Base(std::move(__rv), __m)
 351:/usr/include/c++/4.9/bits/stl_vector.h ****       {
 352:/usr/include/c++/4.9/bits/stl_vector.h **** 	if (__rv.get_allocator() != __m)
 353:/usr/include/c++/4.9/bits/stl_vector.h **** 	  {
 354:/usr/include/c++/4.9/bits/stl_vector.h **** 	    this->_M_impl._M_finish =
 355:/usr/include/c++/4.9/bits/stl_vector.h **** 	      std::__uninitialized_move_a(__rv.begin(), __rv.end(),
 356:/usr/include/c++/4.9/bits/stl_vector.h **** 					  this->_M_impl._M_start,
 357:/usr/include/c++/4.9/bits/stl_vector.h **** 					  _M_get_Tp_allocator());
 358:/usr/include/c++/4.9/bits/stl_vector.h **** 	    __rv.clear();
 359:/usr/include/c++/4.9/bits/stl_vector.h **** 	  }
 360:/usr/include/c++/4.9/bits/stl_vector.h ****       }
 361:/usr/include/c++/4.9/bits/stl_vector.h **** 
 362:/usr/include/c++/4.9/bits/stl_vector.h ****       /**
 363:/usr/include/c++/4.9/bits/stl_vector.h ****        *  @brief  Builds a %vector from an initializer list.
 364:/usr/include/c++/4.9/bits/stl_vector.h ****        *  @param  __l  An initializer_list.
 365:/usr/include/c++/4.9/bits/stl_vector.h ****        *  @param  __a  An allocator.
 366:/usr/include/c++/4.9/bits/stl_vector.h ****        *
 367:/usr/include/c++/4.9/bits/stl_vector.h ****        *  Create a %vector consisting of copies of the elements in the
 368:/usr/include/c++/4.9/bits/stl_vector.h ****        *  initializer_list @a __l.
 369:/usr/include/c++/4.9/bits/stl_vector.h ****        *
 370:/usr/include/c++/4.9/bits/stl_vector.h ****        *  This will call the element type's copy constructor N times
 371:/usr/include/c++/4.9/bits/stl_vector.h ****        *  (where N is @a __l.size()) and do no memory reallocation.
 372:/usr/include/c++/4.9/bits/stl_vector.h ****        */
 373:/usr/include/c++/4.9/bits/stl_vector.h ****       vector(initializer_list<value_type> __l,
 374:/usr/include/c++/4.9/bits/stl_vector.h **** 	     const allocator_type& __a = allocator_type())
 375:/usr/include/c++/4.9/bits/stl_vector.h ****       : _Base(__a)
 376:/usr/include/c++/4.9/bits/stl_vector.h ****       {
 377:/usr/include/c++/4.9/bits/stl_vector.h **** 	_M_range_initialize(__l.begin(), __l.end(),
 378:/usr/include/c++/4.9/bits/stl_vector.h **** 			    random_access_iterator_tag());
 379:/usr/include/c++/4.9/bits/stl_vector.h ****       }
 380:/usr/include/c++/4.9/bits/stl_vector.h **** #endif
 381:/usr/include/c++/4.9/bits/stl_vector.h **** 
 382:/usr/include/c++/4.9/bits/stl_vector.h ****       /**
 383:/usr/include/c++/4.9/bits/stl_vector.h ****        *  @brief  Builds a %vector from a range.
 384:/usr/include/c++/4.9/bits/stl_vector.h ****        *  @param  __first  An input iterator.
 385:/usr/include/c++/4.9/bits/stl_vector.h ****        *  @param  __last  An input iterator.
 386:/usr/include/c++/4.9/bits/stl_vector.h ****        *  @param  __a  An allocator.
 387:/usr/include/c++/4.9/bits/stl_vector.h ****        *
 388:/usr/include/c++/4.9/bits/stl_vector.h ****        *  Create a %vector consisting of copies of the elements from
 389:/usr/include/c++/4.9/bits/stl_vector.h ****        *  [first,last).
 390:/usr/include/c++/4.9/bits/stl_vector.h ****        *
 391:/usr/include/c++/4.9/bits/stl_vector.h ****        *  If the iterators are forward, bidirectional, or
 392:/usr/include/c++/4.9/bits/stl_vector.h ****        *  random-access, then this will call the elements' copy
 393:/usr/include/c++/4.9/bits/stl_vector.h ****        *  constructor N times (where N is distance(first,last)) and do
 394:/usr/include/c++/4.9/bits/stl_vector.h ****        *  no memory reallocation.  But if only input iterators are
 395:/usr/include/c++/4.9/bits/stl_vector.h ****        *  used, then this will do at most 2N calls to the copy
 396:/usr/include/c++/4.9/bits/stl_vector.h ****        *  constructor, and logN memory reallocations.
 397:/usr/include/c++/4.9/bits/stl_vector.h ****        */
 398:/usr/include/c++/4.9/bits/stl_vector.h **** #if __cplusplus >= 201103L
 399:/usr/include/c++/4.9/bits/stl_vector.h ****       template<typename _InputIterator,
 400:/usr/include/c++/4.9/bits/stl_vector.h **** 	       typename = std::_RequireInputIter<_InputIterator>>
 401:/usr/include/c++/4.9/bits/stl_vector.h ****         vector(_InputIterator __first, _InputIterator __last,
 402:/usr/include/c++/4.9/bits/stl_vector.h **** 	       const allocator_type& __a = allocator_type())
 403:/usr/include/c++/4.9/bits/stl_vector.h **** 	: _Base(__a)
 404:/usr/include/c++/4.9/bits/stl_vector.h ****         { _M_initialize_dispatch(__first, __last, __false_type()); }
 405:/usr/include/c++/4.9/bits/stl_vector.h **** #else
 406:/usr/include/c++/4.9/bits/stl_vector.h ****       template<typename _InputIterator>
 407:/usr/include/c++/4.9/bits/stl_vector.h ****         vector(_InputIterator __first, _InputIterator __last,
 408:/usr/include/c++/4.9/bits/stl_vector.h **** 	       const allocator_type& __a = allocator_type())
 409:/usr/include/c++/4.9/bits/stl_vector.h **** 	: _Base(__a)
 410:/usr/include/c++/4.9/bits/stl_vector.h ****         {
 411:/usr/include/c++/4.9/bits/stl_vector.h **** 	  // Check whether it's an integral type.  If so, it's not an iterator.
 412:/usr/include/c++/4.9/bits/stl_vector.h **** 	  typedef typename std::__is_integer<_InputIterator>::__type _Integral;
 413:/usr/include/c++/4.9/bits/stl_vector.h **** 	  _M_initialize_dispatch(__first, __last, _Integral());
 414:/usr/include/c++/4.9/bits/stl_vector.h **** 	}
 415:/usr/include/c++/4.9/bits/stl_vector.h **** #endif
 416:/usr/include/c++/4.9/bits/stl_vector.h **** 
 417:/usr/include/c++/4.9/bits/stl_vector.h ****       /**
 418:/usr/include/c++/4.9/bits/stl_vector.h ****        *  The dtor only erases the elements, and note that if the
 419:/usr/include/c++/4.9/bits/stl_vector.h ****        *  elements themselves are pointers, the pointed-to memory is
 420:/usr/include/c++/4.9/bits/stl_vector.h ****        *  not touched in any way.  Managing the pointer is the user's
 421:/usr/include/c++/4.9/bits/stl_vector.h ****        *  responsibility.
 422:/usr/include/c++/4.9/bits/stl_vector.h ****        */
 423:/usr/include/c++/4.9/bits/stl_vector.h ****       ~vector() _GLIBCXX_NOEXCEPT
 10080              		.loc 9 423 0
 10081              		.cfi_startproc
 10082              		.cfi_personality 0x3,__gxx_personality_v0
 10083              		.cfi_lsda 0x3,.LLSDA1588
 10084 0000 55       		pushq	%rbp
 10085              		.cfi_def_cfa_offset 16
 10086              		.cfi_offset 6, -16
 10087 0001 4889E5   		movq	%rsp, %rbp
 10088              		.cfi_def_cfa_register 6
 10089 0004 53       		pushq	%rbx
 10090 0005 4883EC18 		subq	$24, %rsp
 10091              		.cfi_offset 3, -24
 10092 0009 48897DE8 		movq	%rdi, -24(%rbp)
 10093              	.LBB257:
 424:/usr/include/c++/4.9/bits/stl_vector.h ****       { std::_Destroy(this->_M_impl._M_start, this->_M_impl._M_finish,
 425:/usr/include/c++/4.9/bits/stl_vector.h **** 		      _M_get_Tp_allocator()); }
 10094              		.loc 9 425 0
 10095 000d 488B45E8 		movq	-24(%rbp), %rax
 10096 0011 4889C7   		movq	%rax, %rdi
 10097 0014 E8000000 		call	_ZNSt12_Vector_baseIN8UnitTest18DeferredTestResultESaIS1_EE19_M_get_Tp_allocatorEv
 10097      00
 10098 0019 4889C2   		movq	%rax, %rdx
 10099 001c 488B45E8 		movq	-24(%rbp), %rax
 10100 0020 488B4808 		movq	8(%rax), %rcx
 10101 0024 488B45E8 		movq	-24(%rbp), %rax
 10102 0028 488B00   		movq	(%rax), %rax
 424:/usr/include/c++/4.9/bits/stl_vector.h ****       { std::_Destroy(this->_M_impl._M_start, this->_M_impl._M_finish,
 10103              		.loc 9 424 0
 10104 002b 4889CE   		movq	%rcx, %rsi
 10105 002e 4889C7   		movq	%rax, %rdi
 10106              	.LEHB284:
 10107 0031 E8000000 		call	_ZSt8_DestroyIPN8UnitTest18DeferredTestResultES1_EvT_S3_RSaIT0_E
 10107      00
 10108              	.LEHE284:
 10109              		.loc 9 425 0
 10110 0036 488B45E8 		movq	-24(%rbp), %rax
 10111 003a 4889C7   		movq	%rax, %rdi
 10112              	.LEHB285:
 10113 003d E8000000 		call	_ZNSt12_Vector_baseIN8UnitTest18DeferredTestResultESaIS1_EED2Ev
 10113      00
 10114              	.LEHE285:
 10115 0042 EB1A     		jmp	.L577
 10116              	.L576:
 10117 0044 4889C3   		movq	%rax, %rbx
 10118 0047 488B45E8 		movq	-24(%rbp), %rax
 10119 004b 4889C7   		movq	%rax, %rdi
 10120 004e E8000000 		call	_ZNSt12_Vector_baseIN8UnitTest18DeferredTestResultESaIS1_EED2Ev
 10120      00
 10121 0053 4889D8   		movq	%rbx, %rax
 10122 0056 4889C7   		movq	%rax, %rdi
 10123              	.LEHB286:
 10124 0059 E8000000 		call	_Unwind_Resume
 10124      00
 10125              	.LEHE286:
 10126              	.L577:
 10127              	.LBE257:
 10128 005e 4883C418 		addq	$24, %rsp
 10129 0062 5B       		popq	%rbx
 10130 0063 5D       		popq	%rbp
 10131              		.cfi_def_cfa 7, 8
 10132 0064 C3       		ret
 10133              		.cfi_endproc
 10134              	.LFE1588:
 10135              		.section	.gcc_except_table
 10136              	.LLSDA1588:
 10137 0807 FF       		.byte	0xff
 10138 0808 FF       		.byte	0xff
 10139 0809 01       		.byte	0x1
 10140 080a 0C       		.uleb128 .LLSDACSE1588-.LLSDACSB1588
 10141              	.LLSDACSB1588:
 10142 080b 31       		.uleb128 .LEHB284-.LFB1588
 10143 080c 05       		.uleb128 .LEHE284-.LEHB284
 10144 080d 44       		.uleb128 .L576-.LFB1588
 10145 080e 00       		.uleb128 0
 10146 080f 3D       		.uleb128 .LEHB285-.LFB1588
 10147 0810 05       		.uleb128 .LEHE285-.LEHB285
 10148 0811 00       		.uleb128 0
 10149 0812 00       		.uleb128 0
 10150 0813 59       		.uleb128 .LEHB286-.LFB1588
 10151 0814 05       		.uleb128 .LEHE286-.LEHB286
 10152 0815 00       		.uleb128 0
 10153 0816 00       		.uleb128 0
 10154              	.LLSDACSE1588:
 10155              		.section	.text._ZNSt6vectorIN8UnitTest18DeferredTestResultESaIS1_EED2Ev,"axG",@progbits,_ZNSt6vect
 10157              		.weak	_ZNSt6vectorIN8UnitTest18DeferredTestResultESaIS1_EED1Ev
 10158              		.set	_ZNSt6vectorIN8UnitTest18DeferredTestResultESaIS1_EED1Ev,_ZNSt6vectorIN8UnitTest18DeferredTes
 10159              		.section	.text._ZNSt12_Vector_baseIN8UnitTest18DeferredTestResultESaIS1_EE12_Vector_implD2Ev,"axG"
 10160              		.align 2
 10161              		.weak	_ZNSt12_Vector_baseIN8UnitTest18DeferredTestResultESaIS1_EE12_Vector_implD2Ev
 10163              	_ZNSt12_Vector_baseIN8UnitTest18DeferredTestResultESaIS1_EE12_Vector_implD2Ev:
 10164              	.LFB1592:
  79:/usr/include/c++/4.9/bits/stl_vector.h ****       : public _Tp_alloc_type
 10165              		.loc 9 79 0
 10166              		.cfi_startproc
 10167 0000 55       		pushq	%rbp
 10168              		.cfi_def_cfa_offset 16
 10169              		.cfi_offset 6, -16
 10170 0001 4889E5   		movq	%rsp, %rbp
 10171              		.cfi_def_cfa_register 6
 10172 0004 4883EC10 		subq	$16, %rsp
 10173 0008 48897DF8 		movq	%rdi, -8(%rbp)
 10174              	.LBB258:
  79:/usr/include/c++/4.9/bits/stl_vector.h ****       : public _Tp_alloc_type
 10175              		.loc 9 79 0
 10176 000c 488B45F8 		movq	-8(%rbp), %rax
 10177 0010 4889C7   		movq	%rax, %rdi
 10178 0013 E8000000 		call	_ZNSaIN8UnitTest18DeferredTestResultEED2Ev
 10178      00
 10179              	.LBE258:
 10180 0018 C9       		leave
 10181              		.cfi_def_cfa 7, 8
 10182 0019 C3       		ret
 10183              		.cfi_endproc
 10184              	.LFE1592:
 10186              		.weak	_ZNSt12_Vector_baseIN8UnitTest18DeferredTestResultESaIS1_EE12_Vector_implD1Ev
 10187              		.set	_ZNSt12_Vector_baseIN8UnitTest18DeferredTestResultESaIS1_EE12_Vector_implD1Ev,_ZNSt12_Vector_
 10188              		.section	.text._ZNSt12_Vector_baseIN8UnitTest18DeferredTestResultESaIS1_EED2Ev,"axG",@progbits,_ZN
 10189              		.align 2
 10190              		.weak	_ZNSt12_Vector_baseIN8UnitTest18DeferredTestResultESaIS1_EED2Ev
 10192              	_ZNSt12_Vector_baseIN8UnitTest18DeferredTestResultESaIS1_EED2Ev:
 10193              	.LFB1594:
 159:/usr/include/c++/4.9/bits/stl_vector.h ****       { _M_deallocate(this->_M_impl._M_start, this->_M_impl._M_end_of_storage
 10194              		.loc 9 159 0
 10195              		.cfi_startproc
 10196              		.cfi_personality 0x3,__gxx_personality_v0
 10197              		.cfi_lsda 0x3,.LLSDA1594
 10198 0000 55       		pushq	%rbp
 10199              		.cfi_def_cfa_offset 16
 10200              		.cfi_offset 6, -16
 10201 0001 4889E5   		movq	%rsp, %rbp
 10202              		.cfi_def_cfa_register 6
 10203 0004 53       		pushq	%rbx
 10204 0005 4883EC18 		subq	$24, %rsp
 10205              		.cfi_offset 3, -24
 10206 0009 48897DE8 		movq	%rdi, -24(%rbp)
 10207              	.LBB259:
 161:/usr/include/c++/4.9/bits/stl_vector.h **** 
 10208              		.loc 9 161 0
 10209 000d 488B45E8 		movq	-24(%rbp), %rax
 10210 0011 488B4010 		movq	16(%rax), %rax
 10211 0015 4889C2   		movq	%rax, %rdx
 10212 0018 488B45E8 		movq	-24(%rbp), %rax
 10213 001c 488B00   		movq	(%rax), %rax
 10214 001f 4829C2   		subq	%rax, %rdx
 10215 0022 4889D0   		movq	%rdx, %rax
 10216 0025 48C1F803 		sarq	$3, %rax
 10217 0029 4889C2   		movq	%rax, %rdx
 10218 002c 48B8B76D 		movabsq	$7905747460161236407, %rax
 10218      DBB66DDB 
 10218      B66D
 10219 0036 480FAFC2 		imulq	%rdx, %rax
 10220 003a 4889C2   		movq	%rax, %rdx
 10221 003d 488B45E8 		movq	-24(%rbp), %rax
 10222 0041 488B08   		movq	(%rax), %rcx
 160:/usr/include/c++/4.9/bits/stl_vector.h **** 		      - this->_M_impl._M_start); }
 10223              		.loc 9 160 0
 10224 0044 488B45E8 		movq	-24(%rbp), %rax
 10225 0048 4889CE   		movq	%rcx, %rsi
 10226 004b 4889C7   		movq	%rax, %rdi
 10227              	.LEHB287:
 10228 004e E8000000 		call	_ZNSt12_Vector_baseIN8UnitTest18DeferredTestResultESaIS1_EE13_M_deallocateEPS1_m
 10228      00
 10229              	.LEHE287:
 161:/usr/include/c++/4.9/bits/stl_vector.h **** 
 10230              		.loc 9 161 0
 10231 0053 488B45E8 		movq	-24(%rbp), %rax
 10232 0057 4889C7   		movq	%rax, %rdi
 10233 005a E8000000 		call	_ZNSt12_Vector_baseIN8UnitTest18DeferredTestResultESaIS1_EE12_Vector_implD1Ev
 10233      00
 10234 005f EB1A     		jmp	.L584
 10235              	.L583:
 10236 0061 4889C3   		movq	%rax, %rbx
 10237 0064 488B45E8 		movq	-24(%rbp), %rax
 10238 0068 4889C7   		movq	%rax, %rdi
 10239 006b E8000000 		call	_ZNSt12_Vector_baseIN8UnitTest18DeferredTestResultESaIS1_EE12_Vector_implD1Ev
 10239      00
 10240 0070 4889D8   		movq	%rbx, %rax
 10241 0073 4889C7   		movq	%rax, %rdi
 10242              	.LEHB288:
 10243 0076 E8000000 		call	_Unwind_Resume
 10243      00
 10244              	.LEHE288:
 10245              	.L584:
 10246              	.LBE259:
 10247 007b 4883C418 		addq	$24, %rsp
 10248 007f 5B       		popq	%rbx
 10249 0080 5D       		popq	%rbp
 10250              		.cfi_def_cfa 7, 8
 10251 0081 C3       		ret
 10252              		.cfi_endproc
 10253              	.LFE1594:
 10254              		.section	.gcc_except_table
 10255              	.LLSDA1594:
 10256 0817 FF       		.byte	0xff
 10257 0818 FF       		.byte	0xff
 10258 0819 01       		.byte	0x1
 10259 081a 08       		.uleb128 .LLSDACSE1594-.LLSDACSB1594
 10260              	.LLSDACSB1594:
 10261 081b 4E       		.uleb128 .LEHB287-.LFB1594
 10262 081c 05       		.uleb128 .LEHE287-.LEHB287
 10263 081d 61       		.uleb128 .L583-.LFB1594
 10264 081e 00       		.uleb128 0
 10265 081f 76       		.uleb128 .LEHB288-.LFB1594
 10266 0820 05       		.uleb128 .LEHE288-.LEHB288
 10267 0821 00       		.uleb128 0
 10268 0822 00       		.uleb128 0
 10269              	.LLSDACSE1594:
 10270              		.section	.text._ZNSt12_Vector_baseIN8UnitTest18DeferredTestResultESaIS1_EED2Ev,"axG",@progbits,_ZN
 10272              		.weak	_ZNSt12_Vector_baseIN8UnitTest18DeferredTestResultESaIS1_EED1Ev
 10273              		.set	_ZNSt12_Vector_baseIN8UnitTest18DeferredTestResultESaIS1_EED1Ev,_ZNSt12_Vector_baseIN8UnitTes
 10274              		.section	.text._ZNSt12_Vector_baseIN8UnitTest18DeferredTestResultESaIS1_EE19_M_get_Tp_allocatorEv,
 10275              		.align 2
 10276              		.weak	_ZNSt12_Vector_baseIN8UnitTest18DeferredTestResultESaIS1_EE19_M_get_Tp_allocatorEv
 10278              	_ZNSt12_Vector_baseIN8UnitTest18DeferredTestResultESaIS1_EE19_M_get_Tp_allocatorEv:
 10279              	.LFB1596:
 113:/usr/include/c++/4.9/bits/stl_vector.h ****       { return *static_cast<_Tp_alloc_type*>(&this->_M_impl); }
 10280              		.loc 9 113 0
 10281              		.cfi_startproc
 10282 0000 55       		pushq	%rbp
 10283              		.cfi_def_cfa_offset 16
 10284              		.cfi_offset 6, -16
 10285 0001 4889E5   		movq	%rsp, %rbp
 10286              		.cfi_def_cfa_register 6
 10287 0004 48897DF8 		movq	%rdi, -8(%rbp)
 114:/usr/include/c++/4.9/bits/stl_vector.h **** 
 10288              		.loc 9 114 0
 10289 0008 488B45F8 		movq	-8(%rbp), %rax
 10290 000c 5D       		popq	%rbp
 10291              		.cfi_def_cfa 7, 8
 10292 000d C3       		ret
 10293              		.cfi_endproc
 10294              	.LFE1596:
 10296              		.section	.text._ZSt8_DestroyIPN8UnitTest18DeferredTestResultES1_EvT_S3_RSaIT0_E,"axG",@progbits,_Z
 10297              		.weak	_ZSt8_DestroyIPN8UnitTest18DeferredTestResultES1_EvT_S3_RSaIT0_E
 10299              	_ZSt8_DestroyIPN8UnitTest18DeferredTestResultES1_EvT_S3_RSaIT0_E:
 10300              	.LFB1597:
 10301              		.file 10 "/usr/include/c++/4.9/bits/stl_construct.h"
   1:/usr/include/c++/4.9/bits/stl_construct.h **** // nonstandard construct and destroy functions -*- C++ -*-
   2:/usr/include/c++/4.9/bits/stl_construct.h **** 
   3:/usr/include/c++/4.9/bits/stl_construct.h **** // Copyright (C) 2001-2014 Free Software Foundation, Inc.
   4:/usr/include/c++/4.9/bits/stl_construct.h **** //
   5:/usr/include/c++/4.9/bits/stl_construct.h **** // This file is part of the GNU ISO C++ Library.  This library is free
   6:/usr/include/c++/4.9/bits/stl_construct.h **** // software; you can redistribute it and/or modify it under the
   7:/usr/include/c++/4.9/bits/stl_construct.h **** // terms of the GNU General Public License as published by the
   8:/usr/include/c++/4.9/bits/stl_construct.h **** // Free Software Foundation; either version 3, or (at your option)
   9:/usr/include/c++/4.9/bits/stl_construct.h **** // any later version.
  10:/usr/include/c++/4.9/bits/stl_construct.h **** 
  11:/usr/include/c++/4.9/bits/stl_construct.h **** // This library is distributed in the hope that it will be useful,
  12:/usr/include/c++/4.9/bits/stl_construct.h **** // but WITHOUT ANY WARRANTY; without even the implied warranty of
  13:/usr/include/c++/4.9/bits/stl_construct.h **** // MERCHANTABILITY or FITNESS FOR A PARTICULAR PURPOSE.  See the
  14:/usr/include/c++/4.9/bits/stl_construct.h **** // GNU General Public License for more details.
  15:/usr/include/c++/4.9/bits/stl_construct.h **** 
  16:/usr/include/c++/4.9/bits/stl_construct.h **** // Under Section 7 of GPL version 3, you are granted additional
  17:/usr/include/c++/4.9/bits/stl_construct.h **** // permissions described in the GCC Runtime Library Exception, version
  18:/usr/include/c++/4.9/bits/stl_construct.h **** // 3.1, as published by the Free Software Foundation.
  19:/usr/include/c++/4.9/bits/stl_construct.h **** 
  20:/usr/include/c++/4.9/bits/stl_construct.h **** // You should have received a copy of the GNU General Public License and
  21:/usr/include/c++/4.9/bits/stl_construct.h **** // a copy of the GCC Runtime Library Exception along with this program;
  22:/usr/include/c++/4.9/bits/stl_construct.h **** // see the files COPYING3 and COPYING.RUNTIME respectively.  If not, see
  23:/usr/include/c++/4.9/bits/stl_construct.h **** // <http://www.gnu.org/licenses/>.
  24:/usr/include/c++/4.9/bits/stl_construct.h **** 
  25:/usr/include/c++/4.9/bits/stl_construct.h **** /*
  26:/usr/include/c++/4.9/bits/stl_construct.h ****  *
  27:/usr/include/c++/4.9/bits/stl_construct.h ****  * Copyright (c) 1994
  28:/usr/include/c++/4.9/bits/stl_construct.h ****  * Hewlett-Packard Company
  29:/usr/include/c++/4.9/bits/stl_construct.h ****  *
  30:/usr/include/c++/4.9/bits/stl_construct.h ****  * Permission to use, copy, modify, distribute and sell this software
  31:/usr/include/c++/4.9/bits/stl_construct.h ****  * and its documentation for any purpose is hereby granted without fee,
  32:/usr/include/c++/4.9/bits/stl_construct.h ****  * provided that the above copyright notice appear in all copies and
  33:/usr/include/c++/4.9/bits/stl_construct.h ****  * that both that copyright notice and this permission notice appear
  34:/usr/include/c++/4.9/bits/stl_construct.h ****  * in supporting documentation.  Hewlett-Packard Company makes no
  35:/usr/include/c++/4.9/bits/stl_construct.h ****  * representations about the suitability of this software for any
  36:/usr/include/c++/4.9/bits/stl_construct.h ****  * purpose.  It is provided "as is" without express or implied warranty.
  37:/usr/include/c++/4.9/bits/stl_construct.h ****  *
  38:/usr/include/c++/4.9/bits/stl_construct.h ****  *
  39:/usr/include/c++/4.9/bits/stl_construct.h ****  * Copyright (c) 1996,1997
  40:/usr/include/c++/4.9/bits/stl_construct.h ****  * Silicon Graphics Computer Systems, Inc.
  41:/usr/include/c++/4.9/bits/stl_construct.h ****  *
  42:/usr/include/c++/4.9/bits/stl_construct.h ****  * Permission to use, copy, modify, distribute and sell this software
  43:/usr/include/c++/4.9/bits/stl_construct.h ****  * and its documentation for any purpose is hereby granted without fee,
  44:/usr/include/c++/4.9/bits/stl_construct.h ****  * provided that the above copyright notice appear in all copies and
  45:/usr/include/c++/4.9/bits/stl_construct.h ****  * that both that copyright notice and this permission notice appear
  46:/usr/include/c++/4.9/bits/stl_construct.h ****  * in supporting documentation.  Silicon Graphics makes no
  47:/usr/include/c++/4.9/bits/stl_construct.h ****  * representations about the suitability of this software for any
  48:/usr/include/c++/4.9/bits/stl_construct.h ****  * purpose.  It is provided "as is" without express or implied warranty.
  49:/usr/include/c++/4.9/bits/stl_construct.h ****  */
  50:/usr/include/c++/4.9/bits/stl_construct.h **** 
  51:/usr/include/c++/4.9/bits/stl_construct.h **** /** @file bits/stl_construct.h
  52:/usr/include/c++/4.9/bits/stl_construct.h ****  *  This is an internal header file, included by other library headers.
  53:/usr/include/c++/4.9/bits/stl_construct.h ****  *  Do not attempt to use it directly. @headername{memory}
  54:/usr/include/c++/4.9/bits/stl_construct.h ****  */
  55:/usr/include/c++/4.9/bits/stl_construct.h **** 
  56:/usr/include/c++/4.9/bits/stl_construct.h **** #ifndef _STL_CONSTRUCT_H
  57:/usr/include/c++/4.9/bits/stl_construct.h **** #define _STL_CONSTRUCT_H 1
  58:/usr/include/c++/4.9/bits/stl_construct.h **** 
  59:/usr/include/c++/4.9/bits/stl_construct.h **** #include <new>
  60:/usr/include/c++/4.9/bits/stl_construct.h **** #include <bits/move.h>
  61:/usr/include/c++/4.9/bits/stl_construct.h **** #include <ext/alloc_traits.h>
  62:/usr/include/c++/4.9/bits/stl_construct.h **** 
  63:/usr/include/c++/4.9/bits/stl_construct.h **** namespace std _GLIBCXX_VISIBILITY(default)
  64:/usr/include/c++/4.9/bits/stl_construct.h **** {
  65:/usr/include/c++/4.9/bits/stl_construct.h **** _GLIBCXX_BEGIN_NAMESPACE_VERSION
  66:/usr/include/c++/4.9/bits/stl_construct.h **** 
  67:/usr/include/c++/4.9/bits/stl_construct.h ****   /**
  68:/usr/include/c++/4.9/bits/stl_construct.h ****    * Constructs an object in existing memory by invoking an allocated
  69:/usr/include/c++/4.9/bits/stl_construct.h ****    * object's constructor with an initializer.
  70:/usr/include/c++/4.9/bits/stl_construct.h ****    */
  71:/usr/include/c++/4.9/bits/stl_construct.h **** #if __cplusplus >= 201103L
  72:/usr/include/c++/4.9/bits/stl_construct.h ****   template<typename _T1, typename... _Args>
  73:/usr/include/c++/4.9/bits/stl_construct.h ****     inline void
  74:/usr/include/c++/4.9/bits/stl_construct.h ****     _Construct(_T1* __p, _Args&&... __args)
  75:/usr/include/c++/4.9/bits/stl_construct.h ****     { ::new(static_cast<void*>(__p)) _T1(std::forward<_Args>(__args)...); }
  76:/usr/include/c++/4.9/bits/stl_construct.h **** #else
  77:/usr/include/c++/4.9/bits/stl_construct.h ****   template<typename _T1, typename _T2>
  78:/usr/include/c++/4.9/bits/stl_construct.h ****     inline void
  79:/usr/include/c++/4.9/bits/stl_construct.h ****     _Construct(_T1* __p, const _T2& __value)
  80:/usr/include/c++/4.9/bits/stl_construct.h ****     {
  81:/usr/include/c++/4.9/bits/stl_construct.h ****       // _GLIBCXX_RESOLVE_LIB_DEFECTS
  82:/usr/include/c++/4.9/bits/stl_construct.h ****       // 402. wrong new expression in [some_]allocator::construct
  83:/usr/include/c++/4.9/bits/stl_construct.h ****       ::new(static_cast<void*>(__p)) _T1(__value);
  84:/usr/include/c++/4.9/bits/stl_construct.h ****     }
  85:/usr/include/c++/4.9/bits/stl_construct.h **** #endif
  86:/usr/include/c++/4.9/bits/stl_construct.h **** 
  87:/usr/include/c++/4.9/bits/stl_construct.h ****   /**
  88:/usr/include/c++/4.9/bits/stl_construct.h ****    * Destroy the object pointed to by a pointer type.
  89:/usr/include/c++/4.9/bits/stl_construct.h ****    */
  90:/usr/include/c++/4.9/bits/stl_construct.h ****   template<typename _Tp>
  91:/usr/include/c++/4.9/bits/stl_construct.h ****     inline void
  92:/usr/include/c++/4.9/bits/stl_construct.h ****     _Destroy(_Tp* __pointer)
  93:/usr/include/c++/4.9/bits/stl_construct.h ****     { __pointer->~_Tp(); }
  94:/usr/include/c++/4.9/bits/stl_construct.h **** 
  95:/usr/include/c++/4.9/bits/stl_construct.h ****   template<bool>
  96:/usr/include/c++/4.9/bits/stl_construct.h ****     struct _Destroy_aux
  97:/usr/include/c++/4.9/bits/stl_construct.h ****     {
  98:/usr/include/c++/4.9/bits/stl_construct.h ****       template<typename _ForwardIterator>
  99:/usr/include/c++/4.9/bits/stl_construct.h ****         static void
 100:/usr/include/c++/4.9/bits/stl_construct.h ****         __destroy(_ForwardIterator __first, _ForwardIterator __last)
 101:/usr/include/c++/4.9/bits/stl_construct.h **** 	{
 102:/usr/include/c++/4.9/bits/stl_construct.h **** 	  for (; __first != __last; ++__first)
 103:/usr/include/c++/4.9/bits/stl_construct.h **** 	    std::_Destroy(std::__addressof(*__first));
 104:/usr/include/c++/4.9/bits/stl_construct.h **** 	}
 105:/usr/include/c++/4.9/bits/stl_construct.h ****     };
 106:/usr/include/c++/4.9/bits/stl_construct.h **** 
 107:/usr/include/c++/4.9/bits/stl_construct.h ****   template<>
 108:/usr/include/c++/4.9/bits/stl_construct.h ****     struct _Destroy_aux<true>
 109:/usr/include/c++/4.9/bits/stl_construct.h ****     {
 110:/usr/include/c++/4.9/bits/stl_construct.h ****       template<typename _ForwardIterator>
 111:/usr/include/c++/4.9/bits/stl_construct.h ****         static void
 112:/usr/include/c++/4.9/bits/stl_construct.h ****         __destroy(_ForwardIterator, _ForwardIterator) { }
 113:/usr/include/c++/4.9/bits/stl_construct.h ****     };
 114:/usr/include/c++/4.9/bits/stl_construct.h **** 
 115:/usr/include/c++/4.9/bits/stl_construct.h ****   /**
 116:/usr/include/c++/4.9/bits/stl_construct.h ****    * Destroy a range of objects.  If the value_type of the object has
 117:/usr/include/c++/4.9/bits/stl_construct.h ****    * a trivial destructor, the compiler should optimize all of this
 118:/usr/include/c++/4.9/bits/stl_construct.h ****    * away, otherwise the objects' destructors must be invoked.
 119:/usr/include/c++/4.9/bits/stl_construct.h ****    */
 120:/usr/include/c++/4.9/bits/stl_construct.h ****   template<typename _ForwardIterator>
 121:/usr/include/c++/4.9/bits/stl_construct.h ****     inline void
 122:/usr/include/c++/4.9/bits/stl_construct.h ****     _Destroy(_ForwardIterator __first, _ForwardIterator __last)
 123:/usr/include/c++/4.9/bits/stl_construct.h ****     {
 124:/usr/include/c++/4.9/bits/stl_construct.h ****       typedef typename iterator_traits<_ForwardIterator>::value_type
 125:/usr/include/c++/4.9/bits/stl_construct.h ****                        _Value_type;
 126:/usr/include/c++/4.9/bits/stl_construct.h ****       std::_Destroy_aux<__has_trivial_destructor(_Value_type)>::
 127:/usr/include/c++/4.9/bits/stl_construct.h **** 	__destroy(__first, __last);
 128:/usr/include/c++/4.9/bits/stl_construct.h ****     }
 129:/usr/include/c++/4.9/bits/stl_construct.h **** 
 130:/usr/include/c++/4.9/bits/stl_construct.h ****   /**
 131:/usr/include/c++/4.9/bits/stl_construct.h ****    * Destroy a range of objects using the supplied allocator.  For
 132:/usr/include/c++/4.9/bits/stl_construct.h ****    * nondefault allocators we do not optimize away invocation of 
 133:/usr/include/c++/4.9/bits/stl_construct.h ****    * destroy() even if _Tp has a trivial destructor.
 134:/usr/include/c++/4.9/bits/stl_construct.h ****    */
 135:/usr/include/c++/4.9/bits/stl_construct.h **** 
 136:/usr/include/c++/4.9/bits/stl_construct.h ****   template<typename _ForwardIterator, typename _Allocator>
 137:/usr/include/c++/4.9/bits/stl_construct.h ****     void
 138:/usr/include/c++/4.9/bits/stl_construct.h ****     _Destroy(_ForwardIterator __first, _ForwardIterator __last,
 139:/usr/include/c++/4.9/bits/stl_construct.h **** 	     _Allocator& __alloc)
 140:/usr/include/c++/4.9/bits/stl_construct.h ****     {
 141:/usr/include/c++/4.9/bits/stl_construct.h ****       typedef __gnu_cxx::__alloc_traits<_Allocator> __traits;
 142:/usr/include/c++/4.9/bits/stl_construct.h ****       for (; __first != __last; ++__first)
 143:/usr/include/c++/4.9/bits/stl_construct.h **** 	__traits::destroy(__alloc, std::__addressof(*__first));
 144:/usr/include/c++/4.9/bits/stl_construct.h ****     }
 145:/usr/include/c++/4.9/bits/stl_construct.h **** 
 146:/usr/include/c++/4.9/bits/stl_construct.h ****   template<typename _ForwardIterator, typename _Tp>
 147:/usr/include/c++/4.9/bits/stl_construct.h ****     inline void
 148:/usr/include/c++/4.9/bits/stl_construct.h ****     _Destroy(_ForwardIterator __first, _ForwardIterator __last,
 10302              		.loc 10 148 0
 10303              		.cfi_startproc
 10304 0000 55       		pushq	%rbp
 10305              		.cfi_def_cfa_offset 16
 10306              		.cfi_offset 6, -16
 10307 0001 4889E5   		movq	%rsp, %rbp
 10308              		.cfi_def_cfa_register 6
 10309 0004 4883EC20 		subq	$32, %rsp
 10310 0008 48897DF8 		movq	%rdi, -8(%rbp)
 10311 000c 488975F0 		movq	%rsi, -16(%rbp)
 10312 0010 488955E8 		movq	%rdx, -24(%rbp)
 149:/usr/include/c++/4.9/bits/stl_construct.h **** 	     allocator<_Tp>&)
 150:/usr/include/c++/4.9/bits/stl_construct.h ****     {
 151:/usr/include/c++/4.9/bits/stl_construct.h ****       _Destroy(__first, __last);
 10313              		.loc 10 151 0
 10314 0014 488B55F0 		movq	-16(%rbp), %rdx
 10315 0018 488B45F8 		movq	-8(%rbp), %rax
 10316 001c 4889D6   		movq	%rdx, %rsi
 10317 001f 4889C7   		movq	%rax, %rdi
 10318 0022 E8000000 		call	_ZSt8_DestroyIPN8UnitTest18DeferredTestResultEEvT_S3_
 10318      00
 152:/usr/include/c++/4.9/bits/stl_construct.h ****     }
 10319              		.loc 10 152 0
 10320 0027 C9       		leave
 10321              		.cfi_def_cfa 7, 8
 10322 0028 C3       		ret
 10323              		.cfi_endproc
 10324              	.LFE1597:
 10326              		.section	.text._ZNSaIN8UnitTest18DeferredTestResultEED2Ev,"axG",@progbits,_ZNSaIN8UnitTest18Deferr
 10327              		.align 2
 10328              		.weak	_ZNSaIN8UnitTest18DeferredTestResultEED2Ev
 10330              	_ZNSaIN8UnitTest18DeferredTestResultEED2Ev:
 10331              	.LFB1599:
 10332              		.file 11 "/usr/include/c++/4.9/bits/allocator.h"
   1:/usr/include/c++/4.9/bits/allocator.h **** // Allocators -*- C++ -*-
   2:/usr/include/c++/4.9/bits/allocator.h **** 
   3:/usr/include/c++/4.9/bits/allocator.h **** // Copyright (C) 2001-2014 Free Software Foundation, Inc.
   4:/usr/include/c++/4.9/bits/allocator.h **** //
   5:/usr/include/c++/4.9/bits/allocator.h **** // This file is part of the GNU ISO C++ Library.  This library is free
   6:/usr/include/c++/4.9/bits/allocator.h **** // software; you can redistribute it and/or modify it under the
   7:/usr/include/c++/4.9/bits/allocator.h **** // terms of the GNU General Public License as published by the
   8:/usr/include/c++/4.9/bits/allocator.h **** // Free Software Foundation; either version 3, or (at your option)
   9:/usr/include/c++/4.9/bits/allocator.h **** // any later version.
  10:/usr/include/c++/4.9/bits/allocator.h **** 
  11:/usr/include/c++/4.9/bits/allocator.h **** // This library is distributed in the hope that it will be useful,
  12:/usr/include/c++/4.9/bits/allocator.h **** // but WITHOUT ANY WARRANTY; without even the implied warranty of
  13:/usr/include/c++/4.9/bits/allocator.h **** // MERCHANTABILITY or FITNESS FOR A PARTICULAR PURPOSE.  See the
  14:/usr/include/c++/4.9/bits/allocator.h **** // GNU General Public License for more details.
  15:/usr/include/c++/4.9/bits/allocator.h **** 
  16:/usr/include/c++/4.9/bits/allocator.h **** // Under Section 7 of GPL version 3, you are granted additional
  17:/usr/include/c++/4.9/bits/allocator.h **** // permissions described in the GCC Runtime Library Exception, version
  18:/usr/include/c++/4.9/bits/allocator.h **** // 3.1, as published by the Free Software Foundation.
  19:/usr/include/c++/4.9/bits/allocator.h **** 
  20:/usr/include/c++/4.9/bits/allocator.h **** // You should have received a copy of the GNU General Public License and
  21:/usr/include/c++/4.9/bits/allocator.h **** // a copy of the GCC Runtime Library Exception along with this program;
  22:/usr/include/c++/4.9/bits/allocator.h **** // see the files COPYING3 and COPYING.RUNTIME respectively.  If not, see
  23:/usr/include/c++/4.9/bits/allocator.h **** // <http://www.gnu.org/licenses/>.
  24:/usr/include/c++/4.9/bits/allocator.h **** 
  25:/usr/include/c++/4.9/bits/allocator.h **** /*
  26:/usr/include/c++/4.9/bits/allocator.h ****  * Copyright (c) 1996-1997
  27:/usr/include/c++/4.9/bits/allocator.h ****  * Silicon Graphics Computer Systems, Inc.
  28:/usr/include/c++/4.9/bits/allocator.h ****  *
  29:/usr/include/c++/4.9/bits/allocator.h ****  * Permission to use, copy, modify, distribute and sell this software
  30:/usr/include/c++/4.9/bits/allocator.h ****  * and its documentation for any purpose is hereby granted without fee,
  31:/usr/include/c++/4.9/bits/allocator.h ****  * provided that the above copyright notice appear in all copies and
  32:/usr/include/c++/4.9/bits/allocator.h ****  * that both that copyright notice and this permission notice appear
  33:/usr/include/c++/4.9/bits/allocator.h ****  * in supporting documentation.  Silicon Graphics makes no
  34:/usr/include/c++/4.9/bits/allocator.h ****  * representations about the suitability of this software for any
  35:/usr/include/c++/4.9/bits/allocator.h ****  * purpose.  It is provided "as is" without express or implied warranty.
  36:/usr/include/c++/4.9/bits/allocator.h ****  */
  37:/usr/include/c++/4.9/bits/allocator.h **** 
  38:/usr/include/c++/4.9/bits/allocator.h **** /** @file bits/allocator.h
  39:/usr/include/c++/4.9/bits/allocator.h ****  *  This is an internal header file, included by other library headers.
  40:/usr/include/c++/4.9/bits/allocator.h ****  *  Do not attempt to use it directly. @headername{memory}
  41:/usr/include/c++/4.9/bits/allocator.h ****  */
  42:/usr/include/c++/4.9/bits/allocator.h **** 
  43:/usr/include/c++/4.9/bits/allocator.h **** #ifndef _ALLOCATOR_H
  44:/usr/include/c++/4.9/bits/allocator.h **** #define _ALLOCATOR_H 1
  45:/usr/include/c++/4.9/bits/allocator.h **** 
  46:/usr/include/c++/4.9/bits/allocator.h **** #include <bits/c++allocator.h> // Define the base class to std::allocator.
  47:/usr/include/c++/4.9/bits/allocator.h **** #include <bits/memoryfwd.h>
  48:/usr/include/c++/4.9/bits/allocator.h **** #if __cplusplus >= 201103L
  49:/usr/include/c++/4.9/bits/allocator.h **** #include <type_traits>
  50:/usr/include/c++/4.9/bits/allocator.h **** #endif
  51:/usr/include/c++/4.9/bits/allocator.h **** 
  52:/usr/include/c++/4.9/bits/allocator.h **** namespace std _GLIBCXX_VISIBILITY(default)
  53:/usr/include/c++/4.9/bits/allocator.h **** {
  54:/usr/include/c++/4.9/bits/allocator.h **** _GLIBCXX_BEGIN_NAMESPACE_VERSION
  55:/usr/include/c++/4.9/bits/allocator.h **** 
  56:/usr/include/c++/4.9/bits/allocator.h ****   /**
  57:/usr/include/c++/4.9/bits/allocator.h ****    *  @addtogroup allocators
  58:/usr/include/c++/4.9/bits/allocator.h ****    *  @{
  59:/usr/include/c++/4.9/bits/allocator.h ****    */
  60:/usr/include/c++/4.9/bits/allocator.h **** 
  61:/usr/include/c++/4.9/bits/allocator.h ****   /// allocator<void> specialization.
  62:/usr/include/c++/4.9/bits/allocator.h ****   template<>
  63:/usr/include/c++/4.9/bits/allocator.h ****     class allocator<void>
  64:/usr/include/c++/4.9/bits/allocator.h ****     {
  65:/usr/include/c++/4.9/bits/allocator.h ****     public:
  66:/usr/include/c++/4.9/bits/allocator.h ****       typedef size_t      size_type;
  67:/usr/include/c++/4.9/bits/allocator.h ****       typedef ptrdiff_t   difference_type;
  68:/usr/include/c++/4.9/bits/allocator.h ****       typedef void*       pointer;
  69:/usr/include/c++/4.9/bits/allocator.h ****       typedef const void* const_pointer;
  70:/usr/include/c++/4.9/bits/allocator.h ****       typedef void        value_type;
  71:/usr/include/c++/4.9/bits/allocator.h **** 
  72:/usr/include/c++/4.9/bits/allocator.h ****       template<typename _Tp1>
  73:/usr/include/c++/4.9/bits/allocator.h ****         struct rebind
  74:/usr/include/c++/4.9/bits/allocator.h ****         { typedef allocator<_Tp1> other; };
  75:/usr/include/c++/4.9/bits/allocator.h **** 
  76:/usr/include/c++/4.9/bits/allocator.h **** #if __cplusplus >= 201103L
  77:/usr/include/c++/4.9/bits/allocator.h ****       // _GLIBCXX_RESOLVE_LIB_DEFECTS
  78:/usr/include/c++/4.9/bits/allocator.h ****       // 2103. std::allocator propagate_on_container_move_assignment
  79:/usr/include/c++/4.9/bits/allocator.h ****       typedef true_type propagate_on_container_move_assignment;
  80:/usr/include/c++/4.9/bits/allocator.h **** #endif
  81:/usr/include/c++/4.9/bits/allocator.h ****     };
  82:/usr/include/c++/4.9/bits/allocator.h **** 
  83:/usr/include/c++/4.9/bits/allocator.h ****   /**
  84:/usr/include/c++/4.9/bits/allocator.h ****    * @brief  The @a standard allocator, as per [20.4].
  85:/usr/include/c++/4.9/bits/allocator.h ****    *
  86:/usr/include/c++/4.9/bits/allocator.h ****    *  See http://gcc.gnu.org/onlinedocs/libstdc++/manual/bk01pt04ch11.html
  87:/usr/include/c++/4.9/bits/allocator.h ****    *  for further details.
  88:/usr/include/c++/4.9/bits/allocator.h ****    *
  89:/usr/include/c++/4.9/bits/allocator.h ****    *  @tparam  _Tp  Type of allocated object.
  90:/usr/include/c++/4.9/bits/allocator.h ****    */
  91:/usr/include/c++/4.9/bits/allocator.h ****   template<typename _Tp>
  92:/usr/include/c++/4.9/bits/allocator.h ****     class allocator: public __allocator_base<_Tp>
  93:/usr/include/c++/4.9/bits/allocator.h ****     {
  94:/usr/include/c++/4.9/bits/allocator.h ****    public:
  95:/usr/include/c++/4.9/bits/allocator.h ****       typedef size_t     size_type;
  96:/usr/include/c++/4.9/bits/allocator.h ****       typedef ptrdiff_t  difference_type;
  97:/usr/include/c++/4.9/bits/allocator.h ****       typedef _Tp*       pointer;
  98:/usr/include/c++/4.9/bits/allocator.h ****       typedef const _Tp* const_pointer;
  99:/usr/include/c++/4.9/bits/allocator.h ****       typedef _Tp&       reference;
 100:/usr/include/c++/4.9/bits/allocator.h ****       typedef const _Tp& const_reference;
 101:/usr/include/c++/4.9/bits/allocator.h ****       typedef _Tp        value_type;
 102:/usr/include/c++/4.9/bits/allocator.h **** 
 103:/usr/include/c++/4.9/bits/allocator.h ****       template<typename _Tp1>
 104:/usr/include/c++/4.9/bits/allocator.h ****         struct rebind
 105:/usr/include/c++/4.9/bits/allocator.h ****         { typedef allocator<_Tp1> other; };
 106:/usr/include/c++/4.9/bits/allocator.h **** 
 107:/usr/include/c++/4.9/bits/allocator.h **** #if __cplusplus >= 201103L
 108:/usr/include/c++/4.9/bits/allocator.h ****       // _GLIBCXX_RESOLVE_LIB_DEFECTS
 109:/usr/include/c++/4.9/bits/allocator.h ****       // 2103. std::allocator propagate_on_container_move_assignment
 110:/usr/include/c++/4.9/bits/allocator.h ****       typedef true_type propagate_on_container_move_assignment;
 111:/usr/include/c++/4.9/bits/allocator.h **** #endif
 112:/usr/include/c++/4.9/bits/allocator.h **** 
 113:/usr/include/c++/4.9/bits/allocator.h ****       allocator() throw() { }
 114:/usr/include/c++/4.9/bits/allocator.h **** 
 115:/usr/include/c++/4.9/bits/allocator.h ****       allocator(const allocator& __a) throw()
 116:/usr/include/c++/4.9/bits/allocator.h ****       : __allocator_base<_Tp>(__a) { }
 117:/usr/include/c++/4.9/bits/allocator.h **** 
 118:/usr/include/c++/4.9/bits/allocator.h ****       template<typename _Tp1>
 119:/usr/include/c++/4.9/bits/allocator.h ****         allocator(const allocator<_Tp1>&) throw() { }
 120:/usr/include/c++/4.9/bits/allocator.h **** 
 121:/usr/include/c++/4.9/bits/allocator.h ****       ~allocator() throw() { }
 10333              		.loc 11 121 0
 10334              		.cfi_startproc
 10335 0000 55       		pushq	%rbp
 10336              		.cfi_def_cfa_offset 16
 10337              		.cfi_offset 6, -16
 10338 0001 4889E5   		movq	%rsp, %rbp
 10339              		.cfi_def_cfa_register 6
 10340 0004 4883EC10 		subq	$16, %rsp
 10341 0008 48897DF8 		movq	%rdi, -8(%rbp)
 10342              	.LBB260:
 10343              		.loc 11 121 0
 10344 000c 488B45F8 		movq	-8(%rbp), %rax
 10345 0010 4889C7   		movq	%rax, %rdi
 10346 0013 E8000000 		call	_ZN9__gnu_cxx13new_allocatorIN8UnitTest18DeferredTestResultEED2Ev
 10346      00
 10347              	.LBE260:
 10348 0018 C9       		leave
 10349              		.cfi_def_cfa 7, 8
 10350 0019 C3       		ret
 10351              		.cfi_endproc
 10352              	.LFE1599:
 10354              		.weak	_ZNSaIN8UnitTest18DeferredTestResultEED1Ev
 10355              		.set	_ZNSaIN8UnitTest18DeferredTestResultEED1Ev,_ZNSaIN8UnitTest18DeferredTestResultEED2Ev
 10356              		.section	.text._ZNSt12_Vector_baseIN8UnitTest18DeferredTestResultESaIS1_EE13_M_deallocateEPS1_m,"a
 10357              		.align 2
 10358              		.weak	_ZNSt12_Vector_baseIN8UnitTest18DeferredTestResultESaIS1_EE13_M_deallocateEPS1_m
 10360              	_ZNSt12_Vector_baseIN8UnitTest18DeferredTestResultESaIS1_EE13_M_deallocateEPS1_m:
 10361              	.LFB1601:
 174:/usr/include/c++/4.9/bits/stl_vector.h ****       {
 10362              		.loc 9 174 0
 10363              		.cfi_startproc
 10364 0000 55       		pushq	%rbp
 10365              		.cfi_def_cfa_offset 16
 10366              		.cfi_offset 6, -16
 10367 0001 4889E5   		movq	%rsp, %rbp
 10368              		.cfi_def_cfa_register 6
 10369 0004 4883EC20 		subq	$32, %rsp
 10370 0008 48897DF8 		movq	%rdi, -8(%rbp)
 10371 000c 488975F0 		movq	%rsi, -16(%rbp)
 10372 0010 488955E8 		movq	%rdx, -24(%rbp)
 10373              	.LBB261:
 177:/usr/include/c++/4.9/bits/stl_vector.h **** 	  _Tr::deallocate(_M_impl, __p, __n);
 10374              		.loc 9 177 0
 10375 0014 48837DF0 		cmpq	$0, -16(%rbp)
 10375      00
 10376 0019 7417     		je	.L590
 178:/usr/include/c++/4.9/bits/stl_vector.h ****       }
 10377              		.loc 9 178 0
 10378 001b 488B45F8 		movq	-8(%rbp), %rax
 10379 001f 488B55E8 		movq	-24(%rbp), %rdx
 10380 0023 488B4DF0 		movq	-16(%rbp), %rcx
 10381 0027 4889CE   		movq	%rcx, %rsi
 10382 002a 4889C7   		movq	%rax, %rdi
 10383 002d E8000000 		call	_ZN9__gnu_cxx14__alloc_traitsISaIN8UnitTest18DeferredTestResultEEE10deallocateERS3_PS2_m
 10383      00
 10384              	.L590:
 10385              	.LBE261:
 179:/usr/include/c++/4.9/bits/stl_vector.h **** 
 10386              		.loc 9 179 0
 10387 0032 C9       		leave
 10388              		.cfi_def_cfa 7, 8
 10389 0033 C3       		ret
 10390              		.cfi_endproc
 10391              	.LFE1601:
 10393              		.section	.text._ZSt8_DestroyIPN8UnitTest18DeferredTestResultEEvT_S3_,"axG",@progbits,_ZSt8_Destroy
 10394              		.weak	_ZSt8_DestroyIPN8UnitTest18DeferredTestResultEEvT_S3_
 10396              	_ZSt8_DestroyIPN8UnitTest18DeferredTestResultEEvT_S3_:
 10397              	.LFB1602:
 122:/usr/include/c++/4.9/bits/stl_construct.h ****     {
 10398              		.loc 10 122 0
 10399              		.cfi_startproc
 10400 0000 55       		pushq	%rbp
 10401              		.cfi_def_cfa_offset 16
 10402              		.cfi_offset 6, -16
 10403 0001 4889E5   		movq	%rsp, %rbp
 10404              		.cfi_def_cfa_register 6
 10405 0004 4883EC10 		subq	$16, %rsp
 10406 0008 48897DF8 		movq	%rdi, -8(%rbp)
 10407 000c 488975F0 		movq	%rsi, -16(%rbp)
 10408              	.LBB262:
 126:/usr/include/c++/4.9/bits/stl_construct.h **** 	__destroy(__first, __last);
 10409              		.loc 10 126 0
 10410 0010 488B55F0 		movq	-16(%rbp), %rdx
 10411 0014 488B45F8 		movq	-8(%rbp), %rax
 10412 0018 4889D6   		movq	%rdx, %rsi
 10413 001b 4889C7   		movq	%rax, %rdi
 10414 001e E8000000 		call	_ZNSt12_Destroy_auxILb0EE9__destroyIPN8UnitTest18DeferredTestResultEEEvT_S5_
 10414      00
 10415              	.LBE262:
 128:/usr/include/c++/4.9/bits/stl_construct.h **** 
 10416              		.loc 10 128 0
 10417 0023 C9       		leave
 10418              		.cfi_def_cfa 7, 8
 10419 0024 C3       		ret
 10420              		.cfi_endproc
 10421              	.LFE1602:
 10423              		.section	.text._ZN9__gnu_cxx13new_allocatorIN8UnitTest18DeferredTestResultEED2Ev,"axG",@progbits,_
 10424              		.align 2
 10425              		.weak	_ZN9__gnu_cxx13new_allocatorIN8UnitTest18DeferredTestResultEED2Ev
 10427              	_ZN9__gnu_cxx13new_allocatorIN8UnitTest18DeferredTestResultEED2Ev:
 10428              	.LFB1604:
 10429              		.file 12 "/usr/include/c++/4.9/ext/new_allocator.h"
   1:/usr/include/c++/4.9/ext/new_allocator.h **** // Allocator that wraps operator new -*- C++ -*-
   2:/usr/include/c++/4.9/ext/new_allocator.h **** 
   3:/usr/include/c++/4.9/ext/new_allocator.h **** // Copyright (C) 2001-2014 Free Software Foundation, Inc.
   4:/usr/include/c++/4.9/ext/new_allocator.h **** //
   5:/usr/include/c++/4.9/ext/new_allocator.h **** // This file is part of the GNU ISO C++ Library.  This library is free
   6:/usr/include/c++/4.9/ext/new_allocator.h **** // software; you can redistribute it and/or modify it under the
   7:/usr/include/c++/4.9/ext/new_allocator.h **** // terms of the GNU General Public License as published by the
   8:/usr/include/c++/4.9/ext/new_allocator.h **** // Free Software Foundation; either version 3, or (at your option)
   9:/usr/include/c++/4.9/ext/new_allocator.h **** // any later version.
  10:/usr/include/c++/4.9/ext/new_allocator.h **** 
  11:/usr/include/c++/4.9/ext/new_allocator.h **** // This library is distributed in the hope that it will be useful,
  12:/usr/include/c++/4.9/ext/new_allocator.h **** // but WITHOUT ANY WARRANTY; without even the implied warranty of
  13:/usr/include/c++/4.9/ext/new_allocator.h **** // MERCHANTABILITY or FITNESS FOR A PARTICULAR PURPOSE.  See the
  14:/usr/include/c++/4.9/ext/new_allocator.h **** // GNU General Public License for more details.
  15:/usr/include/c++/4.9/ext/new_allocator.h **** 
  16:/usr/include/c++/4.9/ext/new_allocator.h **** // Under Section 7 of GPL version 3, you are granted additional
  17:/usr/include/c++/4.9/ext/new_allocator.h **** // permissions described in the GCC Runtime Library Exception, version
  18:/usr/include/c++/4.9/ext/new_allocator.h **** // 3.1, as published by the Free Software Foundation.
  19:/usr/include/c++/4.9/ext/new_allocator.h **** 
  20:/usr/include/c++/4.9/ext/new_allocator.h **** // You should have received a copy of the GNU General Public License and
  21:/usr/include/c++/4.9/ext/new_allocator.h **** // a copy of the GCC Runtime Library Exception along with this program;
  22:/usr/include/c++/4.9/ext/new_allocator.h **** // see the files COPYING3 and COPYING.RUNTIME respectively.  If not, see
  23:/usr/include/c++/4.9/ext/new_allocator.h **** // <http://www.gnu.org/licenses/>.
  24:/usr/include/c++/4.9/ext/new_allocator.h **** 
  25:/usr/include/c++/4.9/ext/new_allocator.h **** /** @file ext/new_allocator.h
  26:/usr/include/c++/4.9/ext/new_allocator.h ****  *  This file is a GNU extension to the Standard C++ Library.
  27:/usr/include/c++/4.9/ext/new_allocator.h ****  */
  28:/usr/include/c++/4.9/ext/new_allocator.h **** 
  29:/usr/include/c++/4.9/ext/new_allocator.h **** #ifndef _NEW_ALLOCATOR_H
  30:/usr/include/c++/4.9/ext/new_allocator.h **** #define _NEW_ALLOCATOR_H 1
  31:/usr/include/c++/4.9/ext/new_allocator.h **** 
  32:/usr/include/c++/4.9/ext/new_allocator.h **** #include <bits/c++config.h>
  33:/usr/include/c++/4.9/ext/new_allocator.h **** #include <new>
  34:/usr/include/c++/4.9/ext/new_allocator.h **** #include <bits/functexcept.h>
  35:/usr/include/c++/4.9/ext/new_allocator.h **** #include <bits/move.h>
  36:/usr/include/c++/4.9/ext/new_allocator.h **** #if __cplusplus >= 201103L
  37:/usr/include/c++/4.9/ext/new_allocator.h **** #include <type_traits>
  38:/usr/include/c++/4.9/ext/new_allocator.h **** #endif
  39:/usr/include/c++/4.9/ext/new_allocator.h **** 
  40:/usr/include/c++/4.9/ext/new_allocator.h **** namespace __gnu_cxx _GLIBCXX_VISIBILITY(default)
  41:/usr/include/c++/4.9/ext/new_allocator.h **** {
  42:/usr/include/c++/4.9/ext/new_allocator.h **** _GLIBCXX_BEGIN_NAMESPACE_VERSION
  43:/usr/include/c++/4.9/ext/new_allocator.h **** 
  44:/usr/include/c++/4.9/ext/new_allocator.h ****   using std::size_t;
  45:/usr/include/c++/4.9/ext/new_allocator.h ****   using std::ptrdiff_t;
  46:/usr/include/c++/4.9/ext/new_allocator.h **** 
  47:/usr/include/c++/4.9/ext/new_allocator.h ****   /**
  48:/usr/include/c++/4.9/ext/new_allocator.h ****    *  @brief  An allocator that uses global new, as per [20.4].
  49:/usr/include/c++/4.9/ext/new_allocator.h ****    *  @ingroup allocators
  50:/usr/include/c++/4.9/ext/new_allocator.h ****    *
  51:/usr/include/c++/4.9/ext/new_allocator.h ****    *  This is precisely the allocator defined in the C++ Standard. 
  52:/usr/include/c++/4.9/ext/new_allocator.h ****    *    - all allocation calls operator new
  53:/usr/include/c++/4.9/ext/new_allocator.h ****    *    - all deallocation calls operator delete
  54:/usr/include/c++/4.9/ext/new_allocator.h ****    *
  55:/usr/include/c++/4.9/ext/new_allocator.h ****    *  @tparam  _Tp  Type of allocated object.
  56:/usr/include/c++/4.9/ext/new_allocator.h ****    */
  57:/usr/include/c++/4.9/ext/new_allocator.h ****   template<typename _Tp>
  58:/usr/include/c++/4.9/ext/new_allocator.h ****     class new_allocator
  59:/usr/include/c++/4.9/ext/new_allocator.h ****     {
  60:/usr/include/c++/4.9/ext/new_allocator.h ****     public:
  61:/usr/include/c++/4.9/ext/new_allocator.h ****       typedef size_t     size_type;
  62:/usr/include/c++/4.9/ext/new_allocator.h ****       typedef ptrdiff_t  difference_type;
  63:/usr/include/c++/4.9/ext/new_allocator.h ****       typedef _Tp*       pointer;
  64:/usr/include/c++/4.9/ext/new_allocator.h ****       typedef const _Tp* const_pointer;
  65:/usr/include/c++/4.9/ext/new_allocator.h ****       typedef _Tp&       reference;
  66:/usr/include/c++/4.9/ext/new_allocator.h ****       typedef const _Tp& const_reference;
  67:/usr/include/c++/4.9/ext/new_allocator.h ****       typedef _Tp        value_type;
  68:/usr/include/c++/4.9/ext/new_allocator.h **** 
  69:/usr/include/c++/4.9/ext/new_allocator.h ****       template<typename _Tp1>
  70:/usr/include/c++/4.9/ext/new_allocator.h ****         struct rebind
  71:/usr/include/c++/4.9/ext/new_allocator.h ****         { typedef new_allocator<_Tp1> other; };
  72:/usr/include/c++/4.9/ext/new_allocator.h **** 
  73:/usr/include/c++/4.9/ext/new_allocator.h **** #if __cplusplus >= 201103L
  74:/usr/include/c++/4.9/ext/new_allocator.h ****       // _GLIBCXX_RESOLVE_LIB_DEFECTS
  75:/usr/include/c++/4.9/ext/new_allocator.h ****       // 2103. propagate_on_container_move_assignment
  76:/usr/include/c++/4.9/ext/new_allocator.h ****       typedef std::true_type propagate_on_container_move_assignment;
  77:/usr/include/c++/4.9/ext/new_allocator.h **** #endif
  78:/usr/include/c++/4.9/ext/new_allocator.h **** 
  79:/usr/include/c++/4.9/ext/new_allocator.h ****       new_allocator() _GLIBCXX_USE_NOEXCEPT { }
  80:/usr/include/c++/4.9/ext/new_allocator.h **** 
  81:/usr/include/c++/4.9/ext/new_allocator.h ****       new_allocator(const new_allocator&) _GLIBCXX_USE_NOEXCEPT { }
  82:/usr/include/c++/4.9/ext/new_allocator.h **** 
  83:/usr/include/c++/4.9/ext/new_allocator.h ****       template<typename _Tp1>
  84:/usr/include/c++/4.9/ext/new_allocator.h ****         new_allocator(const new_allocator<_Tp1>&) _GLIBCXX_USE_NOEXCEPT { }
  85:/usr/include/c++/4.9/ext/new_allocator.h **** 
  86:/usr/include/c++/4.9/ext/new_allocator.h ****       ~new_allocator() _GLIBCXX_USE_NOEXCEPT { }
 10430              		.loc 12 86 0
 10431              		.cfi_startproc
 10432 0000 55       		pushq	%rbp
 10433              		.cfi_def_cfa_offset 16
 10434              		.cfi_offset 6, -16
 10435 0001 4889E5   		movq	%rsp, %rbp
 10436              		.cfi_def_cfa_register 6
 10437 0004 48897DF8 		movq	%rdi, -8(%rbp)
 10438              		.loc 12 86 0
 10439 0008 5D       		popq	%rbp
 10440              		.cfi_def_cfa 7, 8
 10441 0009 C3       		ret
 10442              		.cfi_endproc
 10443              	.LFE1604:
 10445              		.weak	_ZN9__gnu_cxx13new_allocatorIN8UnitTest18DeferredTestResultEED1Ev
 10446              		.set	_ZN9__gnu_cxx13new_allocatorIN8UnitTest18DeferredTestResultEED1Ev,_ZN9__gnu_cxx13new_allocato
 10447              		.section	.text._ZN9__gnu_cxx14__alloc_traitsISaIN8UnitTest18DeferredTestResultEEE10deallocateERS3_
 10448              		.weak	_ZN9__gnu_cxx14__alloc_traitsISaIN8UnitTest18DeferredTestResultEEE10deallocateERS3_PS2_m
 10450              	_ZN9__gnu_cxx14__alloc_traitsISaIN8UnitTest18DeferredTestResultEEE10deallocateERS3_PS2_m:
 10451              	.LFB1606:
 10452              		.file 13 "/usr/include/c++/4.9/ext/alloc_traits.h"
   1:/usr/include/c++/4.9/ext/alloc_traits.h **** // Allocator traits -*- C++ -*-
   2:/usr/include/c++/4.9/ext/alloc_traits.h **** 
   3:/usr/include/c++/4.9/ext/alloc_traits.h **** // Copyright (C) 2011-2014 Free Software Foundation, Inc.
   4:/usr/include/c++/4.9/ext/alloc_traits.h **** //
   5:/usr/include/c++/4.9/ext/alloc_traits.h **** // This file is part of the GNU ISO C++ Library.  This library is free
   6:/usr/include/c++/4.9/ext/alloc_traits.h **** // software; you can redistribute it and/or modify it under the
   7:/usr/include/c++/4.9/ext/alloc_traits.h **** // terms of the GNU General Public License as published by the
   8:/usr/include/c++/4.9/ext/alloc_traits.h **** // Free Software Foundation; either version 3, or (at your option)
   9:/usr/include/c++/4.9/ext/alloc_traits.h **** // any later version.
  10:/usr/include/c++/4.9/ext/alloc_traits.h **** 
  11:/usr/include/c++/4.9/ext/alloc_traits.h **** // This library is distributed in the hope that it will be useful,
  12:/usr/include/c++/4.9/ext/alloc_traits.h **** // but WITHOUT ANY WARRANTY; without even the implied warranty of
  13:/usr/include/c++/4.9/ext/alloc_traits.h **** // MERCHANTABILITY or FITNESS FOR A PARTICULAR PURPOSE.  See the
  14:/usr/include/c++/4.9/ext/alloc_traits.h **** // GNU General Public License for more details.
  15:/usr/include/c++/4.9/ext/alloc_traits.h **** 
  16:/usr/include/c++/4.9/ext/alloc_traits.h **** // Under Section 7 of GPL version 3, you are granted additional
  17:/usr/include/c++/4.9/ext/alloc_traits.h **** // permissions described in the GCC Runtime Library Exception, version
  18:/usr/include/c++/4.9/ext/alloc_traits.h **** // 3.1, as published by the Free Software Foundation.
  19:/usr/include/c++/4.9/ext/alloc_traits.h **** 
  20:/usr/include/c++/4.9/ext/alloc_traits.h **** // You should have received a copy of the GNU General Public License and
  21:/usr/include/c++/4.9/ext/alloc_traits.h **** // a copy of the GCC Runtime Library Exception along with this program;
  22:/usr/include/c++/4.9/ext/alloc_traits.h **** // see the files COPYING3 and COPYING.RUNTIME respectively.  If not, see
  23:/usr/include/c++/4.9/ext/alloc_traits.h **** // <http://www.gnu.org/licenses/>.
  24:/usr/include/c++/4.9/ext/alloc_traits.h **** 
  25:/usr/include/c++/4.9/ext/alloc_traits.h **** /** @file ext/alloc_traits.h
  26:/usr/include/c++/4.9/ext/alloc_traits.h ****  *  This file is a GNU extension to the Standard C++ Library.
  27:/usr/include/c++/4.9/ext/alloc_traits.h ****  */
  28:/usr/include/c++/4.9/ext/alloc_traits.h **** 
  29:/usr/include/c++/4.9/ext/alloc_traits.h **** #ifndef _EXT_ALLOC_TRAITS_H
  30:/usr/include/c++/4.9/ext/alloc_traits.h **** #define _EXT_ALLOC_TRAITS_H 1
  31:/usr/include/c++/4.9/ext/alloc_traits.h **** 
  32:/usr/include/c++/4.9/ext/alloc_traits.h **** #pragma GCC system_header
  33:/usr/include/c++/4.9/ext/alloc_traits.h **** 
  34:/usr/include/c++/4.9/ext/alloc_traits.h **** #if __cplusplus >= 201103L
  35:/usr/include/c++/4.9/ext/alloc_traits.h **** # include <bits/move.h>
  36:/usr/include/c++/4.9/ext/alloc_traits.h **** # include <bits/alloc_traits.h>
  37:/usr/include/c++/4.9/ext/alloc_traits.h **** #else
  38:/usr/include/c++/4.9/ext/alloc_traits.h **** # include <bits/allocator.h>  // for __alloc_swap
  39:/usr/include/c++/4.9/ext/alloc_traits.h **** #endif
  40:/usr/include/c++/4.9/ext/alloc_traits.h **** 
  41:/usr/include/c++/4.9/ext/alloc_traits.h **** namespace __gnu_cxx _GLIBCXX_VISIBILITY(default)
  42:/usr/include/c++/4.9/ext/alloc_traits.h **** {
  43:/usr/include/c++/4.9/ext/alloc_traits.h **** _GLIBCXX_BEGIN_NAMESPACE_VERSION
  44:/usr/include/c++/4.9/ext/alloc_traits.h **** 
  45:/usr/include/c++/4.9/ext/alloc_traits.h **** #if __cplusplus >= 201103L
  46:/usr/include/c++/4.9/ext/alloc_traits.h ****   template<typename _Alloc>
  47:/usr/include/c++/4.9/ext/alloc_traits.h ****     struct __allocator_always_compares_equal : std::false_type { };
  48:/usr/include/c++/4.9/ext/alloc_traits.h **** 
  49:/usr/include/c++/4.9/ext/alloc_traits.h ****   template<typename _Tp>
  50:/usr/include/c++/4.9/ext/alloc_traits.h ****     struct __allocator_always_compares_equal<std::allocator<_Tp>>
  51:/usr/include/c++/4.9/ext/alloc_traits.h ****     : std::true_type { };
  52:/usr/include/c++/4.9/ext/alloc_traits.h **** 
  53:/usr/include/c++/4.9/ext/alloc_traits.h ****   template<typename, typename> struct array_allocator;
  54:/usr/include/c++/4.9/ext/alloc_traits.h **** 
  55:/usr/include/c++/4.9/ext/alloc_traits.h ****   template<typename _Tp, typename _Array>
  56:/usr/include/c++/4.9/ext/alloc_traits.h ****     struct __allocator_always_compares_equal<array_allocator<_Tp, _Array>>
  57:/usr/include/c++/4.9/ext/alloc_traits.h ****     : std::true_type { };
  58:/usr/include/c++/4.9/ext/alloc_traits.h **** 
  59:/usr/include/c++/4.9/ext/alloc_traits.h ****   template<typename> struct bitmap_allocator;
  60:/usr/include/c++/4.9/ext/alloc_traits.h **** 
  61:/usr/include/c++/4.9/ext/alloc_traits.h ****   template<typename _Tp>
  62:/usr/include/c++/4.9/ext/alloc_traits.h ****     struct __allocator_always_compares_equal<bitmap_allocator<_Tp>>
  63:/usr/include/c++/4.9/ext/alloc_traits.h ****     : std::true_type { };
  64:/usr/include/c++/4.9/ext/alloc_traits.h **** 
  65:/usr/include/c++/4.9/ext/alloc_traits.h ****   template<typename> struct malloc_allocator;
  66:/usr/include/c++/4.9/ext/alloc_traits.h **** 
  67:/usr/include/c++/4.9/ext/alloc_traits.h ****   template<typename _Tp>
  68:/usr/include/c++/4.9/ext/alloc_traits.h ****     struct __allocator_always_compares_equal<malloc_allocator<_Tp>>
  69:/usr/include/c++/4.9/ext/alloc_traits.h ****     : std::true_type { };
  70:/usr/include/c++/4.9/ext/alloc_traits.h **** 
  71:/usr/include/c++/4.9/ext/alloc_traits.h ****   template<typename> struct mt_allocator;
  72:/usr/include/c++/4.9/ext/alloc_traits.h **** 
  73:/usr/include/c++/4.9/ext/alloc_traits.h ****   template<typename _Tp>
  74:/usr/include/c++/4.9/ext/alloc_traits.h ****     struct __allocator_always_compares_equal<mt_allocator<_Tp>>
  75:/usr/include/c++/4.9/ext/alloc_traits.h ****     : std::true_type { };
  76:/usr/include/c++/4.9/ext/alloc_traits.h **** 
  77:/usr/include/c++/4.9/ext/alloc_traits.h ****   template<typename> struct new_allocator;
  78:/usr/include/c++/4.9/ext/alloc_traits.h **** 
  79:/usr/include/c++/4.9/ext/alloc_traits.h ****   template<typename _Tp>
  80:/usr/include/c++/4.9/ext/alloc_traits.h ****     struct __allocator_always_compares_equal<new_allocator<_Tp>>
  81:/usr/include/c++/4.9/ext/alloc_traits.h ****     : std::true_type { };
  82:/usr/include/c++/4.9/ext/alloc_traits.h **** 
  83:/usr/include/c++/4.9/ext/alloc_traits.h ****   template<typename> struct pool_allocator;
  84:/usr/include/c++/4.9/ext/alloc_traits.h **** 
  85:/usr/include/c++/4.9/ext/alloc_traits.h ****   template<typename _Tp>
  86:/usr/include/c++/4.9/ext/alloc_traits.h ****     struct __allocator_always_compares_equal<pool_allocator<_Tp>>
  87:/usr/include/c++/4.9/ext/alloc_traits.h ****     : std::true_type { };
  88:/usr/include/c++/4.9/ext/alloc_traits.h **** #endif
  89:/usr/include/c++/4.9/ext/alloc_traits.h **** 
  90:/usr/include/c++/4.9/ext/alloc_traits.h **** /**
  91:/usr/include/c++/4.9/ext/alloc_traits.h ****  * @brief  Uniform interface to C++98 and C++0x allocators.
  92:/usr/include/c++/4.9/ext/alloc_traits.h ****  * @ingroup allocators
  93:/usr/include/c++/4.9/ext/alloc_traits.h **** */
  94:/usr/include/c++/4.9/ext/alloc_traits.h **** template<typename _Alloc>
  95:/usr/include/c++/4.9/ext/alloc_traits.h ****   struct __alloc_traits
  96:/usr/include/c++/4.9/ext/alloc_traits.h **** #if __cplusplus >= 201103L
  97:/usr/include/c++/4.9/ext/alloc_traits.h ****   : std::allocator_traits<_Alloc>
  98:/usr/include/c++/4.9/ext/alloc_traits.h **** #endif
  99:/usr/include/c++/4.9/ext/alloc_traits.h ****   {
 100:/usr/include/c++/4.9/ext/alloc_traits.h ****     typedef _Alloc allocator_type;
 101:/usr/include/c++/4.9/ext/alloc_traits.h **** #if __cplusplus >= 201103L
 102:/usr/include/c++/4.9/ext/alloc_traits.h ****     typedef std::allocator_traits<_Alloc>           _Base_type;
 103:/usr/include/c++/4.9/ext/alloc_traits.h ****     typedef typename _Base_type::value_type         value_type;
 104:/usr/include/c++/4.9/ext/alloc_traits.h ****     typedef typename _Base_type::pointer            pointer;
 105:/usr/include/c++/4.9/ext/alloc_traits.h ****     typedef typename _Base_type::const_pointer      const_pointer;
 106:/usr/include/c++/4.9/ext/alloc_traits.h ****     typedef typename _Base_type::size_type          size_type;
 107:/usr/include/c++/4.9/ext/alloc_traits.h ****     typedef typename _Base_type::difference_type    difference_type;
 108:/usr/include/c++/4.9/ext/alloc_traits.h ****     // C++11 allocators do not define reference or const_reference
 109:/usr/include/c++/4.9/ext/alloc_traits.h ****     typedef value_type&                             reference;
 110:/usr/include/c++/4.9/ext/alloc_traits.h ****     typedef const value_type&                       const_reference;
 111:/usr/include/c++/4.9/ext/alloc_traits.h ****     using _Base_type::allocate;
 112:/usr/include/c++/4.9/ext/alloc_traits.h ****     using _Base_type::deallocate;
 113:/usr/include/c++/4.9/ext/alloc_traits.h ****     using _Base_type::construct;
 114:/usr/include/c++/4.9/ext/alloc_traits.h ****     using _Base_type::destroy;
 115:/usr/include/c++/4.9/ext/alloc_traits.h ****     using _Base_type::max_size;
 116:/usr/include/c++/4.9/ext/alloc_traits.h **** 
 117:/usr/include/c++/4.9/ext/alloc_traits.h ****   private:
 118:/usr/include/c++/4.9/ext/alloc_traits.h ****     template<typename _Ptr>
 119:/usr/include/c++/4.9/ext/alloc_traits.h ****       using __is_custom_pointer
 120:/usr/include/c++/4.9/ext/alloc_traits.h **** 	= std::__and_<std::is_same<pointer, _Ptr>,
 121:/usr/include/c++/4.9/ext/alloc_traits.h **** 		      std::__not_<std::is_pointer<_Ptr>>>;
 122:/usr/include/c++/4.9/ext/alloc_traits.h **** 
 123:/usr/include/c++/4.9/ext/alloc_traits.h ****   public:
 124:/usr/include/c++/4.9/ext/alloc_traits.h ****     // overload construct for non-standard pointer types
 125:/usr/include/c++/4.9/ext/alloc_traits.h ****     template<typename _Ptr, typename... _Args>
 126:/usr/include/c++/4.9/ext/alloc_traits.h ****       static typename std::enable_if<__is_custom_pointer<_Ptr>::value>::type
 127:/usr/include/c++/4.9/ext/alloc_traits.h ****       construct(_Alloc& __a, _Ptr __p, _Args&&... __args)
 128:/usr/include/c++/4.9/ext/alloc_traits.h ****       {
 129:/usr/include/c++/4.9/ext/alloc_traits.h **** 	_Base_type::construct(__a, std::addressof(*__p),
 130:/usr/include/c++/4.9/ext/alloc_traits.h **** 			      std::forward<_Args>(__args)...);
 131:/usr/include/c++/4.9/ext/alloc_traits.h ****       }
 132:/usr/include/c++/4.9/ext/alloc_traits.h **** 
 133:/usr/include/c++/4.9/ext/alloc_traits.h ****     // overload destroy for non-standard pointer types
 134:/usr/include/c++/4.9/ext/alloc_traits.h ****     template<typename _Ptr>
 135:/usr/include/c++/4.9/ext/alloc_traits.h ****       static typename std::enable_if<__is_custom_pointer<_Ptr>::value>::type
 136:/usr/include/c++/4.9/ext/alloc_traits.h ****       destroy(_Alloc& __a, _Ptr __p)
 137:/usr/include/c++/4.9/ext/alloc_traits.h ****       { _Base_type::destroy(__a, std::addressof(*__p)); }
 138:/usr/include/c++/4.9/ext/alloc_traits.h **** 
 139:/usr/include/c++/4.9/ext/alloc_traits.h ****     static _Alloc _S_select_on_copy(const _Alloc& __a)
 140:/usr/include/c++/4.9/ext/alloc_traits.h ****     { return _Base_type::select_on_container_copy_construction(__a); }
 141:/usr/include/c++/4.9/ext/alloc_traits.h **** 
 142:/usr/include/c++/4.9/ext/alloc_traits.h ****     static void _S_on_swap(_Alloc& __a, _Alloc& __b)
 143:/usr/include/c++/4.9/ext/alloc_traits.h ****     { std::__alloc_on_swap(__a, __b); }
 144:/usr/include/c++/4.9/ext/alloc_traits.h **** 
 145:/usr/include/c++/4.9/ext/alloc_traits.h ****     static constexpr bool _S_propagate_on_copy_assign()
 146:/usr/include/c++/4.9/ext/alloc_traits.h ****     { return _Base_type::propagate_on_container_copy_assignment::value; }
 147:/usr/include/c++/4.9/ext/alloc_traits.h **** 
 148:/usr/include/c++/4.9/ext/alloc_traits.h ****     static constexpr bool _S_propagate_on_move_assign()
 149:/usr/include/c++/4.9/ext/alloc_traits.h ****     { return _Base_type::propagate_on_container_move_assignment::value; }
 150:/usr/include/c++/4.9/ext/alloc_traits.h **** 
 151:/usr/include/c++/4.9/ext/alloc_traits.h ****     static constexpr bool _S_propagate_on_swap()
 152:/usr/include/c++/4.9/ext/alloc_traits.h ****     { return _Base_type::propagate_on_container_swap::value; }
 153:/usr/include/c++/4.9/ext/alloc_traits.h **** 
 154:/usr/include/c++/4.9/ext/alloc_traits.h ****     static constexpr bool _S_always_equal()
 155:/usr/include/c++/4.9/ext/alloc_traits.h ****     { return __allocator_always_compares_equal<_Alloc>::value; }
 156:/usr/include/c++/4.9/ext/alloc_traits.h **** 
 157:/usr/include/c++/4.9/ext/alloc_traits.h ****     static constexpr bool _S_nothrow_move()
 158:/usr/include/c++/4.9/ext/alloc_traits.h ****     { return _S_propagate_on_move_assign() || _S_always_equal(); }
 159:/usr/include/c++/4.9/ext/alloc_traits.h **** 
 160:/usr/include/c++/4.9/ext/alloc_traits.h ****     static constexpr bool _S_nothrow_swap()
 161:/usr/include/c++/4.9/ext/alloc_traits.h ****     {
 162:/usr/include/c++/4.9/ext/alloc_traits.h ****       using std::swap;
 163:/usr/include/c++/4.9/ext/alloc_traits.h ****       return !_S_propagate_on_swap()
 164:/usr/include/c++/4.9/ext/alloc_traits.h ****        	|| noexcept(swap(std::declval<_Alloc&>(), std::declval<_Alloc&>()));
 165:/usr/include/c++/4.9/ext/alloc_traits.h ****     }
 166:/usr/include/c++/4.9/ext/alloc_traits.h **** 
 167:/usr/include/c++/4.9/ext/alloc_traits.h ****     template<typename _Tp>
 168:/usr/include/c++/4.9/ext/alloc_traits.h ****       struct rebind
 169:/usr/include/c++/4.9/ext/alloc_traits.h ****       { typedef typename _Base_type::template rebind_alloc<_Tp> other; };
 170:/usr/include/c++/4.9/ext/alloc_traits.h **** #else
 171:/usr/include/c++/4.9/ext/alloc_traits.h **** 
 172:/usr/include/c++/4.9/ext/alloc_traits.h ****     typedef typename _Alloc::pointer                pointer;
 173:/usr/include/c++/4.9/ext/alloc_traits.h ****     typedef typename _Alloc::const_pointer          const_pointer;
 174:/usr/include/c++/4.9/ext/alloc_traits.h ****     typedef typename _Alloc::value_type             value_type;
 175:/usr/include/c++/4.9/ext/alloc_traits.h ****     typedef typename _Alloc::reference              reference;
 176:/usr/include/c++/4.9/ext/alloc_traits.h ****     typedef typename _Alloc::const_reference        const_reference;
 177:/usr/include/c++/4.9/ext/alloc_traits.h ****     typedef typename _Alloc::size_type              size_type;
 178:/usr/include/c++/4.9/ext/alloc_traits.h ****     typedef typename _Alloc::difference_type        difference_type;
 179:/usr/include/c++/4.9/ext/alloc_traits.h **** 
 180:/usr/include/c++/4.9/ext/alloc_traits.h ****     static pointer
 181:/usr/include/c++/4.9/ext/alloc_traits.h ****     allocate(_Alloc& __a, size_type __n)
 182:/usr/include/c++/4.9/ext/alloc_traits.h ****     { return __a.allocate(__n); }
 183:/usr/include/c++/4.9/ext/alloc_traits.h **** 
 184:/usr/include/c++/4.9/ext/alloc_traits.h ****     static void deallocate(_Alloc& __a, pointer __p, size_type __n)
 10453              		.loc 13 184 0
 10454              		.cfi_startproc
 10455 0000 55       		pushq	%rbp
 10456              		.cfi_def_cfa_offset 16
 10457              		.cfi_offset 6, -16
 10458 0001 4889E5   		movq	%rsp, %rbp
 10459              		.cfi_def_cfa_register 6
 10460 0004 4883EC20 		subq	$32, %rsp
 10461 0008 48897DF8 		movq	%rdi, -8(%rbp)
 10462 000c 488975F0 		movq	%rsi, -16(%rbp)
 10463 0010 488955E8 		movq	%rdx, -24(%rbp)
 185:/usr/include/c++/4.9/ext/alloc_traits.h ****     { __a.deallocate(__p, __n); }
 10464              		.loc 13 185 0
 10465 0014 488B55E8 		movq	-24(%rbp), %rdx
 10466 0018 488B4DF0 		movq	-16(%rbp), %rcx
 10467 001c 488B45F8 		movq	-8(%rbp), %rax
 10468 0020 4889CE   		movq	%rcx, %rsi
 10469 0023 4889C7   		movq	%rax, %rdi
 10470 0026 E8000000 		call	_ZN9__gnu_cxx13new_allocatorIN8UnitTest18DeferredTestResultEE10deallocateEPS2_m
 10470      00
 10471 002b C9       		leave
 10472              		.cfi_def_cfa 7, 8
 10473 002c C3       		ret
 10474              		.cfi_endproc
 10475              	.LFE1606:
 10477              		.section	.text._ZNSt12_Destroy_auxILb0EE9__destroyIPN8UnitTest18DeferredTestResultEEEvT_S5_,"axG",
 10478              		.weak	_ZNSt12_Destroy_auxILb0EE9__destroyIPN8UnitTest18DeferredTestResultEEEvT_S5_
 10480              	_ZNSt12_Destroy_auxILb0EE9__destroyIPN8UnitTest18DeferredTestResultEEEvT_S5_:
 10481              	.LFB1607:
 100:/usr/include/c++/4.9/bits/stl_construct.h **** 	{
 10482              		.loc 10 100 0
 10483              		.cfi_startproc
 10484 0000 55       		pushq	%rbp
 10485              		.cfi_def_cfa_offset 16
 10486              		.cfi_offset 6, -16
 10487 0001 4889E5   		movq	%rsp, %rbp
 10488              		.cfi_def_cfa_register 6
 10489 0004 4883EC10 		subq	$16, %rsp
 10490 0008 48897DF8 		movq	%rdi, -8(%rbp)
 10491 000c 488975F0 		movq	%rsi, -16(%rbp)
 102:/usr/include/c++/4.9/bits/stl_construct.h **** 	    std::_Destroy(std::__addressof(*__first));
 10492              		.loc 10 102 0
 10493 0010 EB19     		jmp	.L597
 10494              	.L598:
 103:/usr/include/c++/4.9/bits/stl_construct.h **** 	}
 10495              		.loc 10 103 0 discriminator 2
 10496 0012 488B45F8 		movq	-8(%rbp), %rax
 10497 0016 4889C7   		movq	%rax, %rdi
 10498 0019 E8000000 		call	_ZSt11__addressofIN8UnitTest18DeferredTestResultEEPT_RS2_
 10498      00
 10499 001e 4889C7   		movq	%rax, %rdi
 10500 0021 E8000000 		call	_ZSt8_DestroyIN8UnitTest18DeferredTestResultEEvPT_
 10500      00
 102:/usr/include/c++/4.9/bits/stl_construct.h **** 	    std::_Destroy(std::__addressof(*__first));
 10501              		.loc 10 102 0 discriminator 2
 10502 0026 488345F8 		addq	$56, -8(%rbp)
 10502      38
 10503              	.L597:
 102:/usr/include/c++/4.9/bits/stl_construct.h **** 	    std::_Destroy(std::__addressof(*__first));
 10504              		.loc 10 102 0 is_stmt 0 discriminator 1
 10505 002b 488B45F8 		movq	-8(%rbp), %rax
 10506 002f 483B45F0 		cmpq	-16(%rbp), %rax
 10507 0033 75DD     		jne	.L598
 104:/usr/include/c++/4.9/bits/stl_construct.h ****     };
 10508              		.loc 10 104 0 is_stmt 1
 10509 0035 C9       		leave
 10510              		.cfi_def_cfa 7, 8
 10511 0036 C3       		ret
 10512              		.cfi_endproc
 10513              	.LFE1607:
 10515              		.section	.text._ZN9__gnu_cxx13new_allocatorIN8UnitTest18DeferredTestResultEE10deallocateEPS2_m,"ax
 10516              		.align 2
 10517              		.weak	_ZN9__gnu_cxx13new_allocatorIN8UnitTest18DeferredTestResultEE10deallocateEPS2_m
 10519              	_ZN9__gnu_cxx13new_allocatorIN8UnitTest18DeferredTestResultEE10deallocateEPS2_m:
 10520              	.LFB1608:
  87:/usr/include/c++/4.9/ext/new_allocator.h **** 
  88:/usr/include/c++/4.9/ext/new_allocator.h ****       pointer
  89:/usr/include/c++/4.9/ext/new_allocator.h ****       address(reference __x) const _GLIBCXX_NOEXCEPT
  90:/usr/include/c++/4.9/ext/new_allocator.h ****       { return std::__addressof(__x); }
  91:/usr/include/c++/4.9/ext/new_allocator.h **** 
  92:/usr/include/c++/4.9/ext/new_allocator.h ****       const_pointer
  93:/usr/include/c++/4.9/ext/new_allocator.h ****       address(const_reference __x) const _GLIBCXX_NOEXCEPT
  94:/usr/include/c++/4.9/ext/new_allocator.h ****       { return std::__addressof(__x); }
  95:/usr/include/c++/4.9/ext/new_allocator.h **** 
  96:/usr/include/c++/4.9/ext/new_allocator.h ****       // NB: __n is permitted to be 0.  The C++ standard says nothing
  97:/usr/include/c++/4.9/ext/new_allocator.h ****       // about what the return value is when __n == 0.
  98:/usr/include/c++/4.9/ext/new_allocator.h ****       pointer
  99:/usr/include/c++/4.9/ext/new_allocator.h ****       allocate(size_type __n, const void* = 0)
 100:/usr/include/c++/4.9/ext/new_allocator.h ****       { 
 101:/usr/include/c++/4.9/ext/new_allocator.h **** 	if (__n > this->max_size())
 102:/usr/include/c++/4.9/ext/new_allocator.h **** 	  std::__throw_bad_alloc();
 103:/usr/include/c++/4.9/ext/new_allocator.h **** 
 104:/usr/include/c++/4.9/ext/new_allocator.h **** 	return static_cast<_Tp*>(::operator new(__n * sizeof(_Tp)));
 105:/usr/include/c++/4.9/ext/new_allocator.h ****       }
 106:/usr/include/c++/4.9/ext/new_allocator.h **** 
 107:/usr/include/c++/4.9/ext/new_allocator.h ****       // __p is not permitted to be a null pointer.
 108:/usr/include/c++/4.9/ext/new_allocator.h ****       void
 109:/usr/include/c++/4.9/ext/new_allocator.h ****       deallocate(pointer __p, size_type)
 10521              		.loc 12 109 0
 10522              		.cfi_startproc
 10523 0000 55       		pushq	%rbp
 10524              		.cfi_def_cfa_offset 16
 10525              		.cfi_offset 6, -16
 10526 0001 4889E5   		movq	%rsp, %rbp
 10527              		.cfi_def_cfa_register 6
 10528 0004 4883EC20 		subq	$32, %rsp
 10529 0008 48897DF8 		movq	%rdi, -8(%rbp)
 10530 000c 488975F0 		movq	%rsi, -16(%rbp)
 10531 0010 488955E8 		movq	%rdx, -24(%rbp)
 110:/usr/include/c++/4.9/ext/new_allocator.h ****       { ::operator delete(__p); }
 10532              		.loc 12 110 0
 10533 0014 488B45F0 		movq	-16(%rbp), %rax
 10534 0018 4889C7   		movq	%rax, %rdi
 10535 001b E8000000 		call	_ZdlPv
 10535      00
 10536 0020 C9       		leave
 10537              		.cfi_def_cfa 7, 8
 10538 0021 C3       		ret
 10539              		.cfi_endproc
 10540              	.LFE1608:
 10542              		.section	.text._ZSt11__addressofIN8UnitTest18DeferredTestResultEEPT_RS2_,"axG",@progbits,_ZSt11__a
 10543              		.weak	_ZSt11__addressofIN8UnitTest18DeferredTestResultEEPT_RS2_
 10545              	_ZSt11__addressofIN8UnitTest18DeferredTestResultEEPT_RS2_:
 10546              	.LFB1609:
 10547              		.file 14 "/usr/include/c++/4.9/bits/move.h"
   1:/usr/include/c++/4.9/bits/move.h **** // Move, forward and identity for C++0x + swap -*- C++ -*-
   2:/usr/include/c++/4.9/bits/move.h **** 
   3:/usr/include/c++/4.9/bits/move.h **** // Copyright (C) 2007-2014 Free Software Foundation, Inc.
   4:/usr/include/c++/4.9/bits/move.h **** //
   5:/usr/include/c++/4.9/bits/move.h **** // This file is part of the GNU ISO C++ Library.  This library is free
   6:/usr/include/c++/4.9/bits/move.h **** // software; you can redistribute it and/or modify it under the
   7:/usr/include/c++/4.9/bits/move.h **** // terms of the GNU General Public License as published by the
   8:/usr/include/c++/4.9/bits/move.h **** // Free Software Foundation; either version 3, or (at your option)
   9:/usr/include/c++/4.9/bits/move.h **** // any later version.
  10:/usr/include/c++/4.9/bits/move.h **** 
  11:/usr/include/c++/4.9/bits/move.h **** // This library is distributed in the hope that it will be useful,
  12:/usr/include/c++/4.9/bits/move.h **** // but WITHOUT ANY WARRANTY; without even the implied warranty of
  13:/usr/include/c++/4.9/bits/move.h **** // MERCHANTABILITY or FITNESS FOR A PARTICULAR PURPOSE.  See the
  14:/usr/include/c++/4.9/bits/move.h **** // GNU General Public License for more details.
  15:/usr/include/c++/4.9/bits/move.h **** 
  16:/usr/include/c++/4.9/bits/move.h **** // Under Section 7 of GPL version 3, you are granted additional
  17:/usr/include/c++/4.9/bits/move.h **** // permissions described in the GCC Runtime Library Exception, version
  18:/usr/include/c++/4.9/bits/move.h **** // 3.1, as published by the Free Software Foundation.
  19:/usr/include/c++/4.9/bits/move.h **** 
  20:/usr/include/c++/4.9/bits/move.h **** // You should have received a copy of the GNU General Public License and
  21:/usr/include/c++/4.9/bits/move.h **** // a copy of the GCC Runtime Library Exception along with this program;
  22:/usr/include/c++/4.9/bits/move.h **** // see the files COPYING3 and COPYING.RUNTIME respectively.  If not, see
  23:/usr/include/c++/4.9/bits/move.h **** // <http://www.gnu.org/licenses/>.
  24:/usr/include/c++/4.9/bits/move.h **** 
  25:/usr/include/c++/4.9/bits/move.h **** /** @file bits/move.h
  26:/usr/include/c++/4.9/bits/move.h ****  *  This is an internal header file, included by other library headers.
  27:/usr/include/c++/4.9/bits/move.h ****  *  Do not attempt to use it directly. @headername{utility}
  28:/usr/include/c++/4.9/bits/move.h ****  */
  29:/usr/include/c++/4.9/bits/move.h **** 
  30:/usr/include/c++/4.9/bits/move.h **** #ifndef _MOVE_H
  31:/usr/include/c++/4.9/bits/move.h **** #define _MOVE_H 1
  32:/usr/include/c++/4.9/bits/move.h **** 
  33:/usr/include/c++/4.9/bits/move.h **** #include <bits/c++config.h>
  34:/usr/include/c++/4.9/bits/move.h **** #include <bits/concept_check.h>
  35:/usr/include/c++/4.9/bits/move.h **** 
  36:/usr/include/c++/4.9/bits/move.h **** namespace std _GLIBCXX_VISIBILITY(default)
  37:/usr/include/c++/4.9/bits/move.h **** {
  38:/usr/include/c++/4.9/bits/move.h **** _GLIBCXX_BEGIN_NAMESPACE_VERSION
  39:/usr/include/c++/4.9/bits/move.h **** 
  40:/usr/include/c++/4.9/bits/move.h ****   // Used, in C++03 mode too, by allocators, etc.
  41:/usr/include/c++/4.9/bits/move.h ****   /**
  42:/usr/include/c++/4.9/bits/move.h ****    *  @brief Same as C++11 std::addressof
  43:/usr/include/c++/4.9/bits/move.h ****    *  @ingroup utilities
  44:/usr/include/c++/4.9/bits/move.h ****    */
  45:/usr/include/c++/4.9/bits/move.h ****   template<typename _Tp>
  46:/usr/include/c++/4.9/bits/move.h ****     inline _Tp*
  47:/usr/include/c++/4.9/bits/move.h ****     __addressof(_Tp& __r) _GLIBCXX_NOEXCEPT
 10548              		.loc 14 47 0
 10549              		.cfi_startproc
 10550 0000 55       		pushq	%rbp
 10551              		.cfi_def_cfa_offset 16
 10552              		.cfi_offset 6, -16
 10553 0001 4889E5   		movq	%rsp, %rbp
 10554              		.cfi_def_cfa_register 6
 10555 0004 48897DF8 		movq	%rdi, -8(%rbp)
  48:/usr/include/c++/4.9/bits/move.h ****     {
  49:/usr/include/c++/4.9/bits/move.h ****       return reinterpret_cast<_Tp*>
  50:/usr/include/c++/4.9/bits/move.h **** 	(&const_cast<char&>(reinterpret_cast<const volatile char&>(__r)));
 10556              		.loc 14 50 0
 10557 0008 488B45F8 		movq	-8(%rbp), %rax
  51:/usr/include/c++/4.9/bits/move.h ****     }
 10558              		.loc 14 51 0
 10559 000c 5D       		popq	%rbp
 10560              		.cfi_def_cfa 7, 8
 10561 000d C3       		ret
 10562              		.cfi_endproc
 10563              	.LFE1609:
 10565              		.section	.text._ZN8UnitTest18DeferredTestResultD2Ev,"axG",@progbits,_ZN8UnitTest18DeferredTestResu
 10566              		.align 2
 10567              		.weak	_ZN8UnitTest18DeferredTestResultD2Ev
 10569              	_ZN8UnitTest18DeferredTestResultD2Ev:
 10570              	.LFB1612:
 10571              		.file 15 "../DeferredTestResult.h"
   1:../DeferredTestResult.h **** #ifndef UNITTEST_DEFERREDTESTRESULT_H
   2:../DeferredTestResult.h **** #define UNITTEST_DEFERREDTESTRESULT_H
   3:../DeferredTestResult.h **** 
   4:../DeferredTestResult.h **** #include <string>
   5:../DeferredTestResult.h **** #include <vector>
   6:../DeferredTestResult.h **** 
   7:../DeferredTestResult.h **** namespace UnitTest
   8:../DeferredTestResult.h **** {
   9:../DeferredTestResult.h **** 
  10:../DeferredTestResult.h **** struct DeferredTestResult
 10572              		.loc 15 10 0
 10573              		.cfi_startproc
 10574              		.cfi_personality 0x3,__gxx_personality_v0
 10575              		.cfi_lsda 0x3,.LLSDA1612
 10576 0000 55       		pushq	%rbp
 10577              		.cfi_def_cfa_offset 16
 10578              		.cfi_offset 6, -16
 10579 0001 4889E5   		movq	%rsp, %rbp
 10580              		.cfi_def_cfa_register 6
 10581 0004 53       		pushq	%rbx
 10582 0005 4883EC18 		subq	$24, %rsp
 10583              		.cfi_offset 3, -24
 10584 0009 48897DE8 		movq	%rdi, -24(%rbp)
 10585              	.LBB263:
 10586              		.loc 15 10 0
 10587 000d 488B45E8 		movq	-24(%rbp), %rax
 10588 0011 4883C018 		addq	$24, %rax
 10589 0015 4889C7   		movq	%rax, %rdi
 10590              	.LEHB289:
 10591 0018 E8000000 		call	_ZNSt6vectorISt4pairIiSsESaIS1_EED1Ev
 10591      00
 10592              	.LEHE289:
 10593              		.loc 15 10 0 is_stmt 0 discriminator 2
 10594 001d 488B45E8 		movq	-24(%rbp), %rax
 10595 0021 4883C010 		addq	$16, %rax
 10596 0025 4889C7   		movq	%rax, %rdi
 10597              	.LEHB290:
 10598 0028 E8000000 		call	_ZNSsD1Ev
 10598      00
 10599              	.LEHE290:
 10600              		.loc 15 10 0 discriminator 4
 10601 002d 488B45E8 		movq	-24(%rbp), %rax
 10602 0031 4883C008 		addq	$8, %rax
 10603 0035 4889C7   		movq	%rax, %rdi
 10604              	.LEHB291:
 10605 0038 E8000000 		call	_ZNSsD1Ev
 10605      00
 10606              	.LEHE291:
 10607              		.loc 15 10 0 discriminator 6
 10608 003d 488B45E8 		movq	-24(%rbp), %rax
 10609 0041 4889C7   		movq	%rax, %rdi
 10610              	.LEHB292:
 10611 0044 E8000000 		call	_ZNSsD1Ev
 10611      00
 10612              	.LEHE292:
 10613 0049 EB44     		jmp	.L610
 10614              	.L607:
 10615 004b 4889C3   		movq	%rax, %rbx
 10616              		.loc 15 10 0
 10617 004e 488B45E8 		movq	-24(%rbp), %rax
 10618 0052 4883C010 		addq	$16, %rax
 10619 0056 4889C7   		movq	%rax, %rdi
 10620 0059 E8000000 		call	_ZNSsD1Ev
 10620      00
 10621 005e EB03     		jmp	.L605
 10622              	.L608:
 10623 0060 4889C3   		movq	%rax, %rbx
 10624              	.L605:
 10625              		.loc 15 10 0 discriminator 3
 10626 0063 488B45E8 		movq	-24(%rbp), %rax
 10627 0067 4883C008 		addq	$8, %rax
 10628 006b 4889C7   		movq	%rax, %rdi
 10629 006e E8000000 		call	_ZNSsD1Ev
 10629      00
 10630 0073 EB03     		jmp	.L606
 10631              	.L609:
 10632 0075 4889C3   		movq	%rax, %rbx
 10633              	.L606:
 10634              		.loc 15 10 0 discriminator 5
 10635 0078 488B45E8 		movq	-24(%rbp), %rax
 10636 007c 4889C7   		movq	%rax, %rdi
 10637 007f E8000000 		call	_ZNSsD1Ev
 10637      00
 10638 0084 4889D8   		movq	%rbx, %rax
 10639 0087 4889C7   		movq	%rax, %rdi
 10640              	.LEHB293:
 10641 008a E8000000 		call	_Unwind_Resume
 10641      00
 10642              	.LEHE293:
 10643              	.L610:
 10644              	.LBE263:
 10645              		.loc 15 10 0
 10646 008f 4883C418 		addq	$24, %rsp
 10647 0093 5B       		popq	%rbx
 10648 0094 5D       		popq	%rbp
 10649              		.cfi_def_cfa 7, 8
 10650 0095 C3       		ret
 10651              		.cfi_endproc
 10652              	.LFE1612:
 10653              		.section	.gcc_except_table
 10654              	.LLSDA1612:
 10655 0823 FF       		.byte	0xff
 10656 0824 FF       		.byte	0xff
 10657 0825 01       		.byte	0x1
 10658 0826 15       		.uleb128 .LLSDACSE1612-.LLSDACSB1612
 10659              	.LLSDACSB1612:
 10660 0827 18       		.uleb128 .LEHB289-.LFB1612
 10661 0828 05       		.uleb128 .LEHE289-.LEHB289
 10662 0829 4B       		.uleb128 .L607-.LFB1612
 10663 082a 00       		.uleb128 0
 10664 082b 28       		.uleb128 .LEHB290-.LFB1612
 10665 082c 05       		.uleb128 .LEHE290-.LEHB290
 10666 082d 60       		.uleb128 .L608-.LFB1612
 10667 082e 00       		.uleb128 0
 10668 082f 38       		.uleb128 .LEHB291-.LFB1612
 10669 0830 05       		.uleb128 .LEHE291-.LEHB291
 10670 0831 75       		.uleb128 .L609-.LFB1612
 10671 0832 00       		.uleb128 0
 10672 0833 44       		.uleb128 .LEHB292-.LFB1612
 10673 0834 05       		.uleb128 .LEHE292-.LEHB292
 10674 0835 00       		.uleb128 0
 10675 0836 00       		.uleb128 0
 10676 0837 8A01     		.uleb128 .LEHB293-.LFB1612
 10677 0839 05       		.uleb128 .LEHE293-.LEHB293
 10678 083a 00       		.uleb128 0
 10679 083b 00       		.uleb128 0
 10680              	.LLSDACSE1612:
 10681              		.section	.text._ZN8UnitTest18DeferredTestResultD2Ev,"axG",@progbits,_ZN8UnitTest18DeferredTestResu
 10683              		.weak	_ZN8UnitTest18DeferredTestResultD1Ev
 10684              		.set	_ZN8UnitTest18DeferredTestResultD1Ev,_ZN8UnitTest18DeferredTestResultD2Ev
 10685              		.section	.text._ZSt8_DestroyIN8UnitTest18DeferredTestResultEEvPT_,"axG",@progbits,_ZSt8_DestroyIN8
 10686              		.weak	_ZSt8_DestroyIN8UnitTest18DeferredTestResultEEvPT_
 10688              	_ZSt8_DestroyIN8UnitTest18DeferredTestResultEEvPT_:
 10689              	.LFB1610:
  92:/usr/include/c++/4.9/bits/stl_construct.h ****     { __pointer->~_Tp(); }
 10690              		.loc 10 92 0 is_stmt 1
 10691              		.cfi_startproc
 10692 0000 55       		pushq	%rbp
 10693              		.cfi_def_cfa_offset 16
 10694              		.cfi_offset 6, -16
 10695 0001 4889E5   		movq	%rsp, %rbp
 10696              		.cfi_def_cfa_register 6
 10697 0004 4883EC10 		subq	$16, %rsp
 10698 0008 48897DF8 		movq	%rdi, -8(%rbp)
  93:/usr/include/c++/4.9/bits/stl_construct.h **** 
 10699              		.loc 10 93 0
 10700 000c 488B45F8 		movq	-8(%rbp), %rax
 10701 0010 4889C7   		movq	%rax, %rdi
 10702 0013 E8000000 		call	_ZN8UnitTest18DeferredTestResultD1Ev
 10702      00
 10703 0018 C9       		leave
 10704              		.cfi_def_cfa 7, 8
 10705 0019 C3       		ret
 10706              		.cfi_endproc
 10707              	.LFE1610:
 10709              		.section	.text._ZNSt6vectorISt4pairIiSsESaIS1_EED2Ev,"axG",@progbits,_ZNSt6vectorISt4pairIiSsESaIS
 10710              		.align 2
 10711              		.weak	_ZNSt6vectorISt4pairIiSsESaIS1_EED2Ev
 10713              	_ZNSt6vectorISt4pairIiSsESaIS1_EED2Ev:
 10714              	.LFB1615:
 423:/usr/include/c++/4.9/bits/stl_vector.h ****       { std::_Destroy(this->_M_impl._M_start, this->_M_impl._M_finish,
 10715              		.loc 9 423 0
 10716              		.cfi_startproc
 10717              		.cfi_personality 0x3,__gxx_personality_v0
 10718              		.cfi_lsda 0x3,.LLSDA1615
 10719 0000 55       		pushq	%rbp
 10720              		.cfi_def_cfa_offset 16
 10721              		.cfi_offset 6, -16
 10722 0001 4889E5   		movq	%rsp, %rbp
 10723              		.cfi_def_cfa_register 6
 10724 0004 53       		pushq	%rbx
 10725 0005 4883EC18 		subq	$24, %rsp
 10726              		.cfi_offset 3, -24
 10727 0009 48897DE8 		movq	%rdi, -24(%rbp)
 10728              	.LBB264:
 10729              		.loc 9 425 0
 10730 000d 488B45E8 		movq	-24(%rbp), %rax
 10731 0011 4889C7   		movq	%rax, %rdi
 10732 0014 E8000000 		call	_ZNSt12_Vector_baseISt4pairIiSsESaIS1_EE19_M_get_Tp_allocatorEv
 10732      00
 10733 0019 4889C2   		movq	%rax, %rdx
 10734 001c 488B45E8 		movq	-24(%rbp), %rax
 10735 0020 488B4808 		movq	8(%rax), %rcx
 10736 0024 488B45E8 		movq	-24(%rbp), %rax
 10737 0028 488B00   		movq	(%rax), %rax
 424:/usr/include/c++/4.9/bits/stl_vector.h **** 		      _M_get_Tp_allocator()); }
 10738              		.loc 9 424 0
 10739 002b 4889CE   		movq	%rcx, %rsi
 10740 002e 4889C7   		movq	%rax, %rdi
 10741              	.LEHB294:
 10742 0031 E8000000 		call	_ZSt8_DestroyIPSt4pairIiSsES1_EvT_S3_RSaIT0_E
 10742      00
 10743              	.LEHE294:
 10744              		.loc 9 425 0
 10745 0036 488B45E8 		movq	-24(%rbp), %rax
 10746 003a 4889C7   		movq	%rax, %rdi
 10747              	.LEHB295:
 10748 003d E8000000 		call	_ZNSt12_Vector_baseISt4pairIiSsESaIS1_EED2Ev
 10748      00
 10749              	.LEHE295:
 10750 0042 EB1A     		jmp	.L616
 10751              	.L615:
 10752 0044 4889C3   		movq	%rax, %rbx
 10753 0047 488B45E8 		movq	-24(%rbp), %rax
 10754 004b 4889C7   		movq	%rax, %rdi
 10755 004e E8000000 		call	_ZNSt12_Vector_baseISt4pairIiSsESaIS1_EED2Ev
 10755      00
 10756 0053 4889D8   		movq	%rbx, %rax
 10757 0056 4889C7   		movq	%rax, %rdi
 10758              	.LEHB296:
 10759 0059 E8000000 		call	_Unwind_Resume
 10759      00
 10760              	.LEHE296:
 10761              	.L616:
 10762              	.LBE264:
 10763 005e 4883C418 		addq	$24, %rsp
 10764 0062 5B       		popq	%rbx
 10765 0063 5D       		popq	%rbp
 10766              		.cfi_def_cfa 7, 8
 10767 0064 C3       		ret
 10768              		.cfi_endproc
 10769              	.LFE1615:
 10770              		.section	.gcc_except_table
 10771              	.LLSDA1615:
 10772 083c FF       		.byte	0xff
 10773 083d FF       		.byte	0xff
 10774 083e 01       		.byte	0x1
 10775 083f 0C       		.uleb128 .LLSDACSE1615-.LLSDACSB1615
 10776              	.LLSDACSB1615:
 10777 0840 31       		.uleb128 .LEHB294-.LFB1615
 10778 0841 05       		.uleb128 .LEHE294-.LEHB294
 10779 0842 44       		.uleb128 .L615-.LFB1615
 10780 0843 00       		.uleb128 0
 10781 0844 3D       		.uleb128 .LEHB295-.LFB1615
 10782 0845 05       		.uleb128 .LEHE295-.LEHB295
 10783 0846 00       		.uleb128 0
 10784 0847 00       		.uleb128 0
 10785 0848 59       		.uleb128 .LEHB296-.LFB1615
 10786 0849 05       		.uleb128 .LEHE296-.LEHB296
 10787 084a 00       		.uleb128 0
 10788 084b 00       		.uleb128 0
 10789              	.LLSDACSE1615:
 10790              		.section	.text._ZNSt6vectorISt4pairIiSsESaIS1_EED2Ev,"axG",@progbits,_ZNSt6vectorISt4pairIiSsESaIS
 10792              		.weak	_ZNSt6vectorISt4pairIiSsESaIS1_EED1Ev
 10793              		.set	_ZNSt6vectorISt4pairIiSsESaIS1_EED1Ev,_ZNSt6vectorISt4pairIiSsESaIS1_EED2Ev
 10794              		.section	.text._ZNSt12_Vector_baseISt4pairIiSsESaIS1_EE12_Vector_implD2Ev,"axG",@progbits,_ZNSt12_
 10795              		.align 2
 10796              		.weak	_ZNSt12_Vector_baseISt4pairIiSsESaIS1_EE12_Vector_implD2Ev
 10798              	_ZNSt12_Vector_baseISt4pairIiSsESaIS1_EE12_Vector_implD2Ev:
 10799              	.LFB1619:
  79:/usr/include/c++/4.9/bits/stl_vector.h ****       : public _Tp_alloc_type
 10800              		.loc 9 79 0
 10801              		.cfi_startproc
 10802 0000 55       		pushq	%rbp
 10803              		.cfi_def_cfa_offset 16
 10804              		.cfi_offset 6, -16
 10805 0001 4889E5   		movq	%rsp, %rbp
 10806              		.cfi_def_cfa_register 6
 10807 0004 4883EC10 		subq	$16, %rsp
 10808 0008 48897DF8 		movq	%rdi, -8(%rbp)
 10809              	.LBB265:
  79:/usr/include/c++/4.9/bits/stl_vector.h ****       : public _Tp_alloc_type
 10810              		.loc 9 79 0
 10811 000c 488B45F8 		movq	-8(%rbp), %rax
 10812 0010 4889C7   		movq	%rax, %rdi
 10813 0013 E8000000 		call	_ZNSaISt4pairIiSsEED2Ev
 10813      00
 10814              	.LBE265:
 10815 0018 C9       		leave
 10816              		.cfi_def_cfa 7, 8
 10817 0019 C3       		ret
 10818              		.cfi_endproc
 10819              	.LFE1619:
 10821              		.weak	_ZNSt12_Vector_baseISt4pairIiSsESaIS1_EE12_Vector_implD1Ev
 10822              		.set	_ZNSt12_Vector_baseISt4pairIiSsESaIS1_EE12_Vector_implD1Ev,_ZNSt12_Vector_baseISt4pairIiSsESa
 10823              		.section	.text._ZNSt12_Vector_baseISt4pairIiSsESaIS1_EED2Ev,"axG",@progbits,_ZNSt12_Vector_baseISt
 10824              		.align 2
 10825              		.weak	_ZNSt12_Vector_baseISt4pairIiSsESaIS1_EED2Ev
 10827              	_ZNSt12_Vector_baseISt4pairIiSsESaIS1_EED2Ev:
 10828              	.LFB1621:
 159:/usr/include/c++/4.9/bits/stl_vector.h ****       { _M_deallocate(this->_M_impl._M_start, this->_M_impl._M_end_of_storage
 10829              		.loc 9 159 0
 10830              		.cfi_startproc
 10831              		.cfi_personality 0x3,__gxx_personality_v0
 10832              		.cfi_lsda 0x3,.LLSDA1621
 10833 0000 55       		pushq	%rbp
 10834              		.cfi_def_cfa_offset 16
 10835              		.cfi_offset 6, -16
 10836 0001 4889E5   		movq	%rsp, %rbp
 10837              		.cfi_def_cfa_register 6
 10838 0004 53       		pushq	%rbx
 10839 0005 4883EC18 		subq	$24, %rsp
 10840              		.cfi_offset 3, -24
 10841 0009 48897DE8 		movq	%rdi, -24(%rbp)
 10842              	.LBB266:
 161:/usr/include/c++/4.9/bits/stl_vector.h **** 
 10843              		.loc 9 161 0
 10844 000d 488B45E8 		movq	-24(%rbp), %rax
 10845 0011 488B4010 		movq	16(%rax), %rax
 10846 0015 4889C2   		movq	%rax, %rdx
 10847 0018 488B45E8 		movq	-24(%rbp), %rax
 10848 001c 488B00   		movq	(%rax), %rax
 10849 001f 4829C2   		subq	%rax, %rdx
 10850 0022 4889D0   		movq	%rdx, %rax
 10851 0025 48C1F804 		sarq	$4, %rax
 10852 0029 4889C2   		movq	%rax, %rdx
 10853 002c 488B45E8 		movq	-24(%rbp), %rax
 10854 0030 488B08   		movq	(%rax), %rcx
 160:/usr/include/c++/4.9/bits/stl_vector.h **** 		      - this->_M_impl._M_start); }
 10855              		.loc 9 160 0
 10856 0033 488B45E8 		movq	-24(%rbp), %rax
 10857 0037 4889CE   		movq	%rcx, %rsi
 10858 003a 4889C7   		movq	%rax, %rdi
 10859              	.LEHB297:
 10860 003d E8000000 		call	_ZNSt12_Vector_baseISt4pairIiSsESaIS1_EE13_M_deallocateEPS1_m
 10860      00
 10861              	.LEHE297:
 161:/usr/include/c++/4.9/bits/stl_vector.h **** 
 10862              		.loc 9 161 0
 10863 0042 488B45E8 		movq	-24(%rbp), %rax
 10864 0046 4889C7   		movq	%rax, %rdi
 10865 0049 E8000000 		call	_ZNSt12_Vector_baseISt4pairIiSsESaIS1_EE12_Vector_implD1Ev
 10865      00
 10866 004e EB1A     		jmp	.L623
 10867              	.L622:
 10868 0050 4889C3   		movq	%rax, %rbx
 10869 0053 488B45E8 		movq	-24(%rbp), %rax
 10870 0057 4889C7   		movq	%rax, %rdi
 10871 005a E8000000 		call	_ZNSt12_Vector_baseISt4pairIiSsESaIS1_EE12_Vector_implD1Ev
 10871      00
 10872 005f 4889D8   		movq	%rbx, %rax
 10873 0062 4889C7   		movq	%rax, %rdi
 10874              	.LEHB298:
 10875 0065 E8000000 		call	_Unwind_Resume
 10875      00
 10876              	.LEHE298:
 10877              	.L623:
 10878              	.LBE266:
 10879 006a 4883C418 		addq	$24, %rsp
 10880 006e 5B       		popq	%rbx
 10881 006f 5D       		popq	%rbp
 10882              		.cfi_def_cfa 7, 8
 10883 0070 C3       		ret
 10884              		.cfi_endproc
 10885              	.LFE1621:
 10886              		.section	.gcc_except_table
 10887              	.LLSDA1621:
 10888 084c FF       		.byte	0xff
 10889 084d FF       		.byte	0xff
 10890 084e 01       		.byte	0x1
 10891 084f 08       		.uleb128 .LLSDACSE1621-.LLSDACSB1621
 10892              	.LLSDACSB1621:
 10893 0850 3D       		.uleb128 .LEHB297-.LFB1621
 10894 0851 05       		.uleb128 .LEHE297-.LEHB297
 10895 0852 50       		.uleb128 .L622-.LFB1621
 10896 0853 00       		.uleb128 0
 10897 0854 65       		.uleb128 .LEHB298-.LFB1621
 10898 0855 05       		.uleb128 .LEHE298-.LEHB298
 10899 0856 00       		.uleb128 0
 10900 0857 00       		.uleb128 0
 10901              	.LLSDACSE1621:
 10902              		.section	.text._ZNSt12_Vector_baseISt4pairIiSsESaIS1_EED2Ev,"axG",@progbits,_ZNSt12_Vector_baseISt
 10904              		.weak	_ZNSt12_Vector_baseISt4pairIiSsESaIS1_EED1Ev
 10905              		.set	_ZNSt12_Vector_baseISt4pairIiSsESaIS1_EED1Ev,_ZNSt12_Vector_baseISt4pairIiSsESaIS1_EED2Ev
 10906              		.section	.text._ZNSt12_Vector_baseISt4pairIiSsESaIS1_EE19_M_get_Tp_allocatorEv,"axG",@progbits,_ZN
 10907              		.align 2
 10908              		.weak	_ZNSt12_Vector_baseISt4pairIiSsESaIS1_EE19_M_get_Tp_allocatorEv
 10910              	_ZNSt12_Vector_baseISt4pairIiSsESaIS1_EE19_M_get_Tp_allocatorEv:
 10911              	.LFB1623:
 113:/usr/include/c++/4.9/bits/stl_vector.h ****       { return *static_cast<_Tp_alloc_type*>(&this->_M_impl); }
 10912              		.loc 9 113 0
 10913              		.cfi_startproc
 10914 0000 55       		pushq	%rbp
 10915              		.cfi_def_cfa_offset 16
 10916              		.cfi_offset 6, -16
 10917 0001 4889E5   		movq	%rsp, %rbp
 10918              		.cfi_def_cfa_register 6
 10919 0004 48897DF8 		movq	%rdi, -8(%rbp)
 114:/usr/include/c++/4.9/bits/stl_vector.h **** 
 10920              		.loc 9 114 0
 10921 0008 488B45F8 		movq	-8(%rbp), %rax
 10922 000c 5D       		popq	%rbp
 10923              		.cfi_def_cfa 7, 8
 10924 000d C3       		ret
 10925              		.cfi_endproc
 10926              	.LFE1623:
 10928              		.section	.text._ZSt8_DestroyIPSt4pairIiSsES1_EvT_S3_RSaIT0_E,"axG",@progbits,_ZSt8_DestroyIPSt4pai
 10929              		.weak	_ZSt8_DestroyIPSt4pairIiSsES1_EvT_S3_RSaIT0_E
 10931              	_ZSt8_DestroyIPSt4pairIiSsES1_EvT_S3_RSaIT0_E:
 10932              	.LFB1624:
 148:/usr/include/c++/4.9/bits/stl_construct.h **** 	     allocator<_Tp>&)
 10933              		.loc 10 148 0
 10934              		.cfi_startproc
 10935 0000 55       		pushq	%rbp
 10936              		.cfi_def_cfa_offset 16
 10937              		.cfi_offset 6, -16
 10938 0001 4889E5   		movq	%rsp, %rbp
 10939              		.cfi_def_cfa_register 6
 10940 0004 4883EC20 		subq	$32, %rsp
 10941 0008 48897DF8 		movq	%rdi, -8(%rbp)
 10942 000c 488975F0 		movq	%rsi, -16(%rbp)
 10943 0010 488955E8 		movq	%rdx, -24(%rbp)
 151:/usr/include/c++/4.9/bits/stl_construct.h ****     }
 10944              		.loc 10 151 0
 10945 0014 488B55F0 		movq	-16(%rbp), %rdx
 10946 0018 488B45F8 		movq	-8(%rbp), %rax
 10947 001c 4889D6   		movq	%rdx, %rsi
 10948 001f 4889C7   		movq	%rax, %rdi
 10949 0022 E8000000 		call	_ZSt8_DestroyIPSt4pairIiSsEEvT_S3_
 10949      00
 10950              		.loc 10 152 0
 10951 0027 C9       		leave
 10952              		.cfi_def_cfa 7, 8
 10953 0028 C3       		ret
 10954              		.cfi_endproc
 10955              	.LFE1624:
 10957              		.section	.text._ZNSaISt4pairIiSsEED2Ev,"axG",@progbits,_ZNSaISt4pairIiSsEED5Ev,comdat
 10958              		.align 2
 10959              		.weak	_ZNSaISt4pairIiSsEED2Ev
 10961              	_ZNSaISt4pairIiSsEED2Ev:
 10962              	.LFB1626:
 10963              		.loc 11 121 0
 10964              		.cfi_startproc
 10965 0000 55       		pushq	%rbp
 10966              		.cfi_def_cfa_offset 16
 10967              		.cfi_offset 6, -16
 10968 0001 4889E5   		movq	%rsp, %rbp
 10969              		.cfi_def_cfa_register 6
 10970 0004 4883EC10 		subq	$16, %rsp
 10971 0008 48897DF8 		movq	%rdi, -8(%rbp)
 10972              	.LBB267:
 10973              		.loc 11 121 0
 10974 000c 488B45F8 		movq	-8(%rbp), %rax
 10975 0010 4889C7   		movq	%rax, %rdi
 10976 0013 E8000000 		call	_ZN9__gnu_cxx13new_allocatorISt4pairIiSsEED2Ev
 10976      00
 10977              	.LBE267:
 10978 0018 C9       		leave
 10979              		.cfi_def_cfa 7, 8
 10980 0019 C3       		ret
 10981              		.cfi_endproc
 10982              	.LFE1626:
 10984              		.weak	_ZNSaISt4pairIiSsEED1Ev
 10985              		.set	_ZNSaISt4pairIiSsEED1Ev,_ZNSaISt4pairIiSsEED2Ev
 10986              		.section	.text._ZNSt12_Vector_baseISt4pairIiSsESaIS1_EE13_M_deallocateEPS1_m,"axG",@progbits,_ZNSt
 10987              		.align 2
 10988              		.weak	_ZNSt12_Vector_baseISt4pairIiSsESaIS1_EE13_M_deallocateEPS1_m
 10990              	_ZNSt12_Vector_baseISt4pairIiSsESaIS1_EE13_M_deallocateEPS1_m:
 10991              	.LFB1628:
 174:/usr/include/c++/4.9/bits/stl_vector.h ****       {
 10992              		.loc 9 174 0
 10993              		.cfi_startproc
 10994 0000 55       		pushq	%rbp
 10995              		.cfi_def_cfa_offset 16
 10996              		.cfi_offset 6, -16
 10997 0001 4889E5   		movq	%rsp, %rbp
 10998              		.cfi_def_cfa_register 6
 10999 0004 4883EC20 		subq	$32, %rsp
 11000 0008 48897DF8 		movq	%rdi, -8(%rbp)
 11001 000c 488975F0 		movq	%rsi, -16(%rbp)
 11002 0010 488955E8 		movq	%rdx, -24(%rbp)
 11003              	.LBB268:
 177:/usr/include/c++/4.9/bits/stl_vector.h **** 	  _Tr::deallocate(_M_impl, __p, __n);
 11004              		.loc 9 177 0
 11005 0014 48837DF0 		cmpq	$0, -16(%rbp)
 11005      00
 11006 0019 7417     		je	.L629
 178:/usr/include/c++/4.9/bits/stl_vector.h ****       }
 11007              		.loc 9 178 0
 11008 001b 488B45F8 		movq	-8(%rbp), %rax
 11009 001f 488B55E8 		movq	-24(%rbp), %rdx
 11010 0023 488B4DF0 		movq	-16(%rbp), %rcx
 11011 0027 4889CE   		movq	%rcx, %rsi
 11012 002a 4889C7   		movq	%rax, %rdi
 11013 002d E8000000 		call	_ZN9__gnu_cxx14__alloc_traitsISaISt4pairIiSsEEE10deallocateERS3_PS2_m
 11013      00
 11014              	.L629:
 11015              	.LBE268:
 179:/usr/include/c++/4.9/bits/stl_vector.h **** 
 11016              		.loc 9 179 0
 11017 0032 C9       		leave
 11018              		.cfi_def_cfa 7, 8
 11019 0033 C3       		ret
 11020              		.cfi_endproc
 11021              	.LFE1628:
 11023              		.section	.text._ZSt8_DestroyIPSt4pairIiSsEEvT_S3_,"axG",@progbits,_ZSt8_DestroyIPSt4pairIiSsEEvT_S
 11024              		.weak	_ZSt8_DestroyIPSt4pairIiSsEEvT_S3_
 11026              	_ZSt8_DestroyIPSt4pairIiSsEEvT_S3_:
 11027              	.LFB1629:
 122:/usr/include/c++/4.9/bits/stl_construct.h ****     {
 11028              		.loc 10 122 0
 11029              		.cfi_startproc
 11030 0000 55       		pushq	%rbp
 11031              		.cfi_def_cfa_offset 16
 11032              		.cfi_offset 6, -16
 11033 0001 4889E5   		movq	%rsp, %rbp
 11034              		.cfi_def_cfa_register 6
 11035 0004 4883EC10 		subq	$16, %rsp
 11036 0008 48897DF8 		movq	%rdi, -8(%rbp)
 11037 000c 488975F0 		movq	%rsi, -16(%rbp)
 11038              	.LBB269:
 126:/usr/include/c++/4.9/bits/stl_construct.h **** 	__destroy(__first, __last);
 11039              		.loc 10 126 0
 11040 0010 488B55F0 		movq	-16(%rbp), %rdx
 11041 0014 488B45F8 		movq	-8(%rbp), %rax
 11042 0018 4889D6   		movq	%rdx, %rsi
 11043 001b 4889C7   		movq	%rax, %rdi
 11044 001e E8000000 		call	_ZNSt12_Destroy_auxILb0EE9__destroyIPSt4pairIiSsEEEvT_S5_
 11044      00
 11045              	.LBE269:
 128:/usr/include/c++/4.9/bits/stl_construct.h **** 
 11046              		.loc 10 128 0
 11047 0023 C9       		leave
 11048              		.cfi_def_cfa 7, 8
 11049 0024 C3       		ret
 11050              		.cfi_endproc
 11051              	.LFE1629:
 11053              		.section	.text._ZN9__gnu_cxx13new_allocatorISt4pairIiSsEED2Ev,"axG",@progbits,_ZN9__gnu_cxx13new_a
 11054              		.align 2
 11055              		.weak	_ZN9__gnu_cxx13new_allocatorISt4pairIiSsEED2Ev
 11057              	_ZN9__gnu_cxx13new_allocatorISt4pairIiSsEED2Ev:
 11058              	.LFB1631:
  86:/usr/include/c++/4.9/ext/new_allocator.h **** 
 11059              		.loc 12 86 0
 11060              		.cfi_startproc
 11061 0000 55       		pushq	%rbp
 11062              		.cfi_def_cfa_offset 16
 11063              		.cfi_offset 6, -16
 11064 0001 4889E5   		movq	%rsp, %rbp
 11065              		.cfi_def_cfa_register 6
 11066 0004 48897DF8 		movq	%rdi, -8(%rbp)
  86:/usr/include/c++/4.9/ext/new_allocator.h **** 
 11067              		.loc 12 86 0
 11068 0008 5D       		popq	%rbp
 11069              		.cfi_def_cfa 7, 8
 11070 0009 C3       		ret
 11071              		.cfi_endproc
 11072              	.LFE1631:
 11074              		.weak	_ZN9__gnu_cxx13new_allocatorISt4pairIiSsEED1Ev
 11075              		.set	_ZN9__gnu_cxx13new_allocatorISt4pairIiSsEED1Ev,_ZN9__gnu_cxx13new_allocatorISt4pairIiSsEED2Ev
 11076              		.section	.text._ZN9__gnu_cxx14__alloc_traitsISaISt4pairIiSsEEE10deallocateERS3_PS2_m,"axG",@progbi
 11077              		.weak	_ZN9__gnu_cxx14__alloc_traitsISaISt4pairIiSsEEE10deallocateERS3_PS2_m
 11079              	_ZN9__gnu_cxx14__alloc_traitsISaISt4pairIiSsEEE10deallocateERS3_PS2_m:
 11080              	.LFB1633:
 184:/usr/include/c++/4.9/ext/alloc_traits.h ****     { __a.deallocate(__p, __n); }
 11081              		.loc 13 184 0
 11082              		.cfi_startproc
 11083 0000 55       		pushq	%rbp
 11084              		.cfi_def_cfa_offset 16
 11085              		.cfi_offset 6, -16
 11086 0001 4889E5   		movq	%rsp, %rbp
 11087              		.cfi_def_cfa_register 6
 11088 0004 4883EC20 		subq	$32, %rsp
 11089 0008 48897DF8 		movq	%rdi, -8(%rbp)
 11090 000c 488975F0 		movq	%rsi, -16(%rbp)
 11091 0010 488955E8 		movq	%rdx, -24(%rbp)
 11092              		.loc 13 185 0
 11093 0014 488B55E8 		movq	-24(%rbp), %rdx
 11094 0018 488B4DF0 		movq	-16(%rbp), %rcx
 11095 001c 488B45F8 		movq	-8(%rbp), %rax
 11096 0020 4889CE   		movq	%rcx, %rsi
 11097 0023 4889C7   		movq	%rax, %rdi
 11098 0026 E8000000 		call	_ZN9__gnu_cxx13new_allocatorISt4pairIiSsEE10deallocateEPS2_m
 11098      00
 11099 002b C9       		leave
 11100              		.cfi_def_cfa 7, 8
 11101 002c C3       		ret
 11102              		.cfi_endproc
 11103              	.LFE1633:
 11105              		.section	.text._ZNSt12_Destroy_auxILb0EE9__destroyIPSt4pairIiSsEEEvT_S5_,"axG",@progbits,_ZNSt12_D
 11106              		.weak	_ZNSt12_Destroy_auxILb0EE9__destroyIPSt4pairIiSsEEEvT_S5_
 11108              	_ZNSt12_Destroy_auxILb0EE9__destroyIPSt4pairIiSsEEEvT_S5_:
 11109              	.LFB1634:
 100:/usr/include/c++/4.9/bits/stl_construct.h **** 	{
 11110              		.loc 10 100 0
 11111              		.cfi_startproc
 11112 0000 55       		pushq	%rbp
 11113              		.cfi_def_cfa_offset 16
 11114              		.cfi_offset 6, -16
 11115 0001 4889E5   		movq	%rsp, %rbp
 11116              		.cfi_def_cfa_register 6
 11117 0004 4883EC10 		subq	$16, %rsp
 11118 0008 48897DF8 		movq	%rdi, -8(%rbp)
 11119 000c 488975F0 		movq	%rsi, -16(%rbp)
 102:/usr/include/c++/4.9/bits/stl_construct.h **** 	    std::_Destroy(std::__addressof(*__first));
 11120              		.loc 10 102 0
 11121 0010 EB19     		jmp	.L636
 11122              	.L637:
 103:/usr/include/c++/4.9/bits/stl_construct.h **** 	}
 11123              		.loc 10 103 0 discriminator 2
 11124 0012 488B45F8 		movq	-8(%rbp), %rax
 11125 0016 4889C7   		movq	%rax, %rdi
 11126 0019 E8000000 		call	_ZSt11__addressofISt4pairIiSsEEPT_RS2_
 11126      00
 11127 001e 4889C7   		movq	%rax, %rdi
 11128 0021 E8000000 		call	_ZSt8_DestroyISt4pairIiSsEEvPT_
 11128      00
 102:/usr/include/c++/4.9/bits/stl_construct.h **** 	    std::_Destroy(std::__addressof(*__first));
 11129              		.loc 10 102 0 discriminator 2
 11130 0026 488345F8 		addq	$16, -8(%rbp)
 11130      10
 11131              	.L636:
 102:/usr/include/c++/4.9/bits/stl_construct.h **** 	    std::_Destroy(std::__addressof(*__first));
 11132              		.loc 10 102 0 is_stmt 0 discriminator 1
 11133 002b 488B45F8 		movq	-8(%rbp), %rax
 11134 002f 483B45F0 		cmpq	-16(%rbp), %rax
 11135 0033 75DD     		jne	.L637
 104:/usr/include/c++/4.9/bits/stl_construct.h ****     };
 11136              		.loc 10 104 0 is_stmt 1
 11137 0035 C9       		leave
 11138              		.cfi_def_cfa 7, 8
 11139 0036 C3       		ret
 11140              		.cfi_endproc
 11141              	.LFE1634:
 11143              		.section	.text._ZN9__gnu_cxx13new_allocatorISt4pairIiSsEE10deallocateEPS2_m,"axG",@progbits,_ZN9__
 11144              		.align 2
 11145              		.weak	_ZN9__gnu_cxx13new_allocatorISt4pairIiSsEE10deallocateEPS2_m
 11147              	_ZN9__gnu_cxx13new_allocatorISt4pairIiSsEE10deallocateEPS2_m:
 11148              	.LFB1635:
 109:/usr/include/c++/4.9/ext/new_allocator.h ****       { ::operator delete(__p); }
 11149              		.loc 12 109 0
 11150              		.cfi_startproc
 11151 0000 55       		pushq	%rbp
 11152              		.cfi_def_cfa_offset 16
 11153              		.cfi_offset 6, -16
 11154 0001 4889E5   		movq	%rsp, %rbp
 11155              		.cfi_def_cfa_register 6
 11156 0004 4883EC20 		subq	$32, %rsp
 11157 0008 48897DF8 		movq	%rdi, -8(%rbp)
 11158 000c 488975F0 		movq	%rsi, -16(%rbp)
 11159 0010 488955E8 		movq	%rdx, -24(%rbp)
 11160              		.loc 12 110 0
 11161 0014 488B45F0 		movq	-16(%rbp), %rax
 11162 0018 4889C7   		movq	%rax, %rdi
 11163 001b E8000000 		call	_ZdlPv
 11163      00
 11164 0020 C9       		leave
 11165              		.cfi_def_cfa 7, 8
 11166 0021 C3       		ret
 11167              		.cfi_endproc
 11168              	.LFE1635:
 11170              		.section	.text._ZSt11__addressofISt4pairIiSsEEPT_RS2_,"axG",@progbits,_ZSt11__addressofISt4pairIiS
 11171              		.weak	_ZSt11__addressofISt4pairIiSsEEPT_RS2_
 11173              	_ZSt11__addressofISt4pairIiSsEEPT_RS2_:
 11174              	.LFB1636:
  47:/usr/include/c++/4.9/bits/move.h ****     {
 11175              		.loc 14 47 0
 11176              		.cfi_startproc
 11177 0000 55       		pushq	%rbp
 11178              		.cfi_def_cfa_offset 16
 11179              		.cfi_offset 6, -16
 11180 0001 4889E5   		movq	%rsp, %rbp
 11181              		.cfi_def_cfa_register 6
 11182 0004 48897DF8 		movq	%rdi, -8(%rbp)
  50:/usr/include/c++/4.9/bits/move.h ****     }
 11183              		.loc 14 50 0
 11184 0008 488B45F8 		movq	-8(%rbp), %rax
 11185              		.loc 14 51 0
 11186 000c 5D       		popq	%rbp
 11187              		.cfi_def_cfa 7, 8
 11188 000d C3       		ret
 11189              		.cfi_endproc
 11190              	.LFE1636:
 11192              		.section	.text._ZNSt4pairIiSsED2Ev,"axG",@progbits,_ZNSt4pairIiSsED5Ev,comdat
 11193              		.align 2
 11194              		.weak	_ZNSt4pairIiSsED2Ev
 11196              	_ZNSt4pairIiSsED2Ev:
 11197              	.LFB1639:
 11198              		.file 16 "/usr/include/c++/4.9/bits/stl_pair.h"
   1:/usr/include/c++/4.9/bits/stl_pair.h **** // Pair implementation -*- C++ -*-
   2:/usr/include/c++/4.9/bits/stl_pair.h **** 
   3:/usr/include/c++/4.9/bits/stl_pair.h **** // Copyright (C) 2001-2014 Free Software Foundation, Inc.
   4:/usr/include/c++/4.9/bits/stl_pair.h **** //
   5:/usr/include/c++/4.9/bits/stl_pair.h **** // This file is part of the GNU ISO C++ Library.  This library is free
   6:/usr/include/c++/4.9/bits/stl_pair.h **** // software; you can redistribute it and/or modify it under the
   7:/usr/include/c++/4.9/bits/stl_pair.h **** // terms of the GNU General Public License as published by the
   8:/usr/include/c++/4.9/bits/stl_pair.h **** // Free Software Foundation; either version 3, or (at your option)
   9:/usr/include/c++/4.9/bits/stl_pair.h **** // any later version.
  10:/usr/include/c++/4.9/bits/stl_pair.h **** 
  11:/usr/include/c++/4.9/bits/stl_pair.h **** // This library is distributed in the hope that it will be useful,
  12:/usr/include/c++/4.9/bits/stl_pair.h **** // but WITHOUT ANY WARRANTY; without even the implied warranty of
  13:/usr/include/c++/4.9/bits/stl_pair.h **** // MERCHANTABILITY or FITNESS FOR A PARTICULAR PURPOSE.  See the
  14:/usr/include/c++/4.9/bits/stl_pair.h **** // GNU General Public License for more details.
  15:/usr/include/c++/4.9/bits/stl_pair.h **** 
  16:/usr/include/c++/4.9/bits/stl_pair.h **** // Under Section 7 of GPL version 3, you are granted additional
  17:/usr/include/c++/4.9/bits/stl_pair.h **** // permissions described in the GCC Runtime Library Exception, version
  18:/usr/include/c++/4.9/bits/stl_pair.h **** // 3.1, as published by the Free Software Foundation.
  19:/usr/include/c++/4.9/bits/stl_pair.h **** 
  20:/usr/include/c++/4.9/bits/stl_pair.h **** // You should have received a copy of the GNU General Public License and
  21:/usr/include/c++/4.9/bits/stl_pair.h **** // a copy of the GCC Runtime Library Exception along with this program;
  22:/usr/include/c++/4.9/bits/stl_pair.h **** // see the files COPYING3 and COPYING.RUNTIME respectively.  If not, see
  23:/usr/include/c++/4.9/bits/stl_pair.h **** // <http://www.gnu.org/licenses/>.
  24:/usr/include/c++/4.9/bits/stl_pair.h **** 
  25:/usr/include/c++/4.9/bits/stl_pair.h **** /*
  26:/usr/include/c++/4.9/bits/stl_pair.h ****  *
  27:/usr/include/c++/4.9/bits/stl_pair.h ****  * Copyright (c) 1994
  28:/usr/include/c++/4.9/bits/stl_pair.h ****  * Hewlett-Packard Company
  29:/usr/include/c++/4.9/bits/stl_pair.h ****  *
  30:/usr/include/c++/4.9/bits/stl_pair.h ****  * Permission to use, copy, modify, distribute and sell this software
  31:/usr/include/c++/4.9/bits/stl_pair.h ****  * and its documentation for any purpose is hereby granted without fee,
  32:/usr/include/c++/4.9/bits/stl_pair.h ****  * provided that the above copyright notice appear in all copies and
  33:/usr/include/c++/4.9/bits/stl_pair.h ****  * that both that copyright notice and this permission notice appear
  34:/usr/include/c++/4.9/bits/stl_pair.h ****  * in supporting documentation.  Hewlett-Packard Company makes no
  35:/usr/include/c++/4.9/bits/stl_pair.h ****  * representations about the suitability of this software for any
  36:/usr/include/c++/4.9/bits/stl_pair.h ****  * purpose.  It is provided "as is" without express or implied warranty.
  37:/usr/include/c++/4.9/bits/stl_pair.h ****  *
  38:/usr/include/c++/4.9/bits/stl_pair.h ****  *
  39:/usr/include/c++/4.9/bits/stl_pair.h ****  * Copyright (c) 1996,1997
  40:/usr/include/c++/4.9/bits/stl_pair.h ****  * Silicon Graphics Computer Systems, Inc.
  41:/usr/include/c++/4.9/bits/stl_pair.h ****  *
  42:/usr/include/c++/4.9/bits/stl_pair.h ****  * Permission to use, copy, modify, distribute and sell this software
  43:/usr/include/c++/4.9/bits/stl_pair.h ****  * and its documentation for any purpose is hereby granted without fee,
  44:/usr/include/c++/4.9/bits/stl_pair.h ****  * provided that the above copyright notice appear in all copies and
  45:/usr/include/c++/4.9/bits/stl_pair.h ****  * that both that copyright notice and this permission notice appear
  46:/usr/include/c++/4.9/bits/stl_pair.h ****  * in supporting documentation.  Silicon Graphics makes no
  47:/usr/include/c++/4.9/bits/stl_pair.h ****  * representations about the suitability of this software for any
  48:/usr/include/c++/4.9/bits/stl_pair.h ****  * purpose.  It is provided "as is" without express or implied warranty.
  49:/usr/include/c++/4.9/bits/stl_pair.h ****  */
  50:/usr/include/c++/4.9/bits/stl_pair.h **** 
  51:/usr/include/c++/4.9/bits/stl_pair.h **** /** @file bits/stl_pair.h
  52:/usr/include/c++/4.9/bits/stl_pair.h ****  *  This is an internal header file, included by other library headers.
  53:/usr/include/c++/4.9/bits/stl_pair.h ****  *  Do not attempt to use it directly. @headername{utility}
  54:/usr/include/c++/4.9/bits/stl_pair.h ****  */
  55:/usr/include/c++/4.9/bits/stl_pair.h **** 
  56:/usr/include/c++/4.9/bits/stl_pair.h **** #ifndef _STL_PAIR_H
  57:/usr/include/c++/4.9/bits/stl_pair.h **** #define _STL_PAIR_H 1
  58:/usr/include/c++/4.9/bits/stl_pair.h **** 
  59:/usr/include/c++/4.9/bits/stl_pair.h **** #include <bits/move.h> // for std::move / std::forward, and std::swap
  60:/usr/include/c++/4.9/bits/stl_pair.h **** 
  61:/usr/include/c++/4.9/bits/stl_pair.h **** #if __cplusplus >= 201103L
  62:/usr/include/c++/4.9/bits/stl_pair.h **** #include <type_traits> // for std::__decay_and_strip too
  63:/usr/include/c++/4.9/bits/stl_pair.h **** #endif
  64:/usr/include/c++/4.9/bits/stl_pair.h **** 
  65:/usr/include/c++/4.9/bits/stl_pair.h **** namespace std _GLIBCXX_VISIBILITY(default)
  66:/usr/include/c++/4.9/bits/stl_pair.h **** {
  67:/usr/include/c++/4.9/bits/stl_pair.h **** _GLIBCXX_BEGIN_NAMESPACE_VERSION
  68:/usr/include/c++/4.9/bits/stl_pair.h **** 
  69:/usr/include/c++/4.9/bits/stl_pair.h ****   /**
  70:/usr/include/c++/4.9/bits/stl_pair.h ****    *  @addtogroup utilities
  71:/usr/include/c++/4.9/bits/stl_pair.h ****    *  @{
  72:/usr/include/c++/4.9/bits/stl_pair.h ****    */
  73:/usr/include/c++/4.9/bits/stl_pair.h **** 
  74:/usr/include/c++/4.9/bits/stl_pair.h **** #if __cplusplus >= 201103L
  75:/usr/include/c++/4.9/bits/stl_pair.h ****   /// piecewise_construct_t
  76:/usr/include/c++/4.9/bits/stl_pair.h ****   struct piecewise_construct_t { };
  77:/usr/include/c++/4.9/bits/stl_pair.h **** 
  78:/usr/include/c++/4.9/bits/stl_pair.h ****   /// piecewise_construct
  79:/usr/include/c++/4.9/bits/stl_pair.h ****   constexpr piecewise_construct_t piecewise_construct = piecewise_construct_t();
  80:/usr/include/c++/4.9/bits/stl_pair.h **** 
  81:/usr/include/c++/4.9/bits/stl_pair.h ****   // Forward declarations.
  82:/usr/include/c++/4.9/bits/stl_pair.h ****   template<typename...>
  83:/usr/include/c++/4.9/bits/stl_pair.h ****     class tuple;
  84:/usr/include/c++/4.9/bits/stl_pair.h **** 
  85:/usr/include/c++/4.9/bits/stl_pair.h ****   template<std::size_t...>
  86:/usr/include/c++/4.9/bits/stl_pair.h ****     struct _Index_tuple;
  87:/usr/include/c++/4.9/bits/stl_pair.h **** #endif
  88:/usr/include/c++/4.9/bits/stl_pair.h **** 
  89:/usr/include/c++/4.9/bits/stl_pair.h ****  /**
  90:/usr/include/c++/4.9/bits/stl_pair.h ****    *  @brief Struct holding two objects of arbitrary type.
  91:/usr/include/c++/4.9/bits/stl_pair.h ****    *
  92:/usr/include/c++/4.9/bits/stl_pair.h ****    *  @tparam _T1  Type of first object.
  93:/usr/include/c++/4.9/bits/stl_pair.h ****    *  @tparam _T2  Type of second object.
  94:/usr/include/c++/4.9/bits/stl_pair.h ****    */
  95:/usr/include/c++/4.9/bits/stl_pair.h ****   template<class _T1, class _T2>
  96:/usr/include/c++/4.9/bits/stl_pair.h ****     struct pair
 11199              		.loc 16 96 0
 11200              		.cfi_startproc
 11201 0000 55       		pushq	%rbp
 11202              		.cfi_def_cfa_offset 16
 11203              		.cfi_offset 6, -16
 11204 0001 4889E5   		movq	%rsp, %rbp
 11205              		.cfi_def_cfa_register 6
 11206 0004 4883EC10 		subq	$16, %rsp
 11207 0008 48897DF8 		movq	%rdi, -8(%rbp)
 11208              	.LBB270:
 11209              		.loc 16 96 0
 11210 000c 488B45F8 		movq	-8(%rbp), %rax
 11211 0010 4883C008 		addq	$8, %rax
 11212 0014 4889C7   		movq	%rax, %rdi
 11213 0017 E8000000 		call	_ZNSsD1Ev
 11213      00
 11214              	.LBE270:
 11215 001c C9       		leave
 11216              		.cfi_def_cfa 7, 8
 11217 001d C3       		ret
 11218              		.cfi_endproc
 11219              	.LFE1639:
 11221              		.weak	_ZNSt4pairIiSsED1Ev
 11222              		.set	_ZNSt4pairIiSsED1Ev,_ZNSt4pairIiSsED2Ev
 11223              		.section	.text._ZSt8_DestroyISt4pairIiSsEEvPT_,"axG",@progbits,_ZSt8_DestroyISt4pairIiSsEEvPT_,com
 11224              		.weak	_ZSt8_DestroyISt4pairIiSsEEvPT_
 11226              	_ZSt8_DestroyISt4pairIiSsEEvPT_:
 11227              	.LFB1637:
  92:/usr/include/c++/4.9/bits/stl_construct.h ****     { __pointer->~_Tp(); }
 11228              		.loc 10 92 0
 11229              		.cfi_startproc
 11230 0000 55       		pushq	%rbp
 11231              		.cfi_def_cfa_offset 16
 11232              		.cfi_offset 6, -16
 11233 0001 4889E5   		movq	%rsp, %rbp
 11234              		.cfi_def_cfa_register 6
 11235 0004 4883EC10 		subq	$16, %rsp
 11236 0008 48897DF8 		movq	%rdi, -8(%rbp)
  93:/usr/include/c++/4.9/bits/stl_construct.h **** 
 11237              		.loc 10 93 0
 11238 000c 488B45F8 		movq	-8(%rbp), %rax
 11239 0010 4889C7   		movq	%rax, %rdi
 11240 0013 E8000000 		call	_ZNSt4pairIiSsED1Ev
 11240      00
 11241 0018 C9       		leave
 11242              		.cfi_def_cfa 7, 8
 11243 0019 C3       		ret
 11244              		.cfi_endproc
 11245              	.LFE1637:
 11247              		.text
 11249              	_GLOBAL__sub_I_TestXmlTestReporter.cpp:
 11250              	.LFB1641:
 11251              		.loc 3 183 0
 11252              		.cfi_startproc
 11253 465b 55       		pushq	%rbp
 11254              		.cfi_def_cfa_offset 16
 11255              		.cfi_offset 6, -16
 11256 465c 4889E5   		movq	%rsp, %rbp
 11257              		.cfi_def_cfa_register 6
 11258              		.loc 3 183 0
 11259 465f BEFFFF00 		movl	$65535, %esi
 11259      00
 11260 4664 BF010000 		movl	$1, %edi
 11260      00
 11261 4669 E81EFEFF 		call	_Z41__static_initialization_and_destruction_0ii
 11261      FF
 11262 466e 5D       		popq	%rbp
 11263              		.cfi_def_cfa 7, 8
 11264 466f C3       		ret
 11265              		.cfi_endproc
 11266              	.LFE1641:
 11268              		.section	.init_array,"aw"
 11269              		.align 8
 11270 0000 00000000 		.quad	_GLOBAL__sub_I_TestXmlTestReporter.cpp
 11270      00000000 
 11271              		.section	.rodata
 11272 100a 00000000 		.align 8
 11272      0000
 11275              	_ZZL18__gthread_active_pvE20__gthread_active_ptr:
 11276 1010 00000000 		.quad	_ZL28__gthrw___pthread_key_createPjPFvPvE
 11276      00000000 
 11277              		.weakref	_ZL28__gthrw___pthread_key_createPjPFvPvE,__pthread_key_create
 11278              		.align 4
 11279              	.LC10:
 11280 1018 CDCCCC3D 		.long	1036831949
 11281              		.align 4
 11282              	.LC16:
 11283 101c 0000803F 		.long	1065353216
 11284              		.align 4
 11285              	.LC38:
 11286 1020 CDCC8C3F 		.long	1066192077
 11287              		.text
 11288              	.Letext0:
 11289              		.file 17 "../TestDetails.h"
 11290              		.file 18 "../TestList.h"
 11291              		.file 19 "../TestResults.h"
 11292              		.file 20 "../PosixUtils/SignalTranslator.h"
 11293              		.file 21 "/usr/include/stdio.h"
 11294              		.file 22 "<built-in>"
 11295              		.file 23 "/usr/lib/gcc/x86_64-linux-gnu/4.9/include/stddef.h"
 11296              		.file 24 "/usr/include/wchar.h"
 11297              		.file 25 "/usr/include/c++/4.9/cwchar"
 11298              		.file 26 "/usr/include/c++/4.9/bits/char_traits.h"
 11299              		.file 27 "/usr/include/x86_64-linux-gnu/c++/4.9/bits/c++config.h"
 11300              		.file 28 "/usr/include/c++/4.9/clocale"
 11301              		.file 29 "/usr/include/c++/4.9/bits/basic_string.tcc"
 11302              		.file 30 "/usr/include/c++/4.9/bits/stringfwd.h"
 11303              		.file 31 "/usr/include/c++/4.9/cwctype"
 11304              		.file 32 "/usr/include/c++/4.9/bits/vector.tcc"
 11305              		.file 33 "/usr/include/c++/4.9/iosfwd"
 11306              		.file 34 "/usr/include/c++/4.9/bits/stl_iterator_base_types.h"
 11307              		.file 35 "/usr/include/time.h"
 11308              		.file 36 "/usr/include/c++/4.9/debug/debug.h"
 11309              		.file 37 "/usr/include/c++/4.9/bits/predefined_ops.h"
 11310              		.file 38 "/usr/include/c++/4.9/ext/numeric_traits.h"
 11311              		.file 39 "/usr/include/c++/4.9/bits/stl_iterator.h"
 11312              		.file 40 "/usr/include/locale.h"
 11313              		.file 41 "/usr/include/x86_64-linux-gnu/bits/types.h"
 11314              		.file 42 "/usr/include/x86_64-linux-gnu/bits/setjmp.h"
 11315              		.file 43 "/usr/include/x86_64-linux-gnu/c++/4.9/bits/atomic_word.h"
 11316              		.file 44 "/usr/include/wctype.h"
 11317              		.file 45 "/usr/include/x86_64-linux-gnu/bits/sigset.h"
 11318              		.file 46 "/usr/include/setjmp.h"
 11319              		.file 47 "/usr/include/x86_64-linux-gnu/bits/siginfo.h"
 11320              		.file 48 "/usr/include/signal.h"
 11321              		.file 49 "/usr/include/x86_64-linux-gnu/bits/sigaction.h"
DEFINED SYMBOLS
                            *ABS*:0000000000000000 TestXmlTestReporter.cpp
     /tmp/ccMNPkNG.s:10     .text._ZN13UnitTestSuite12GetSuiteNameEv:0000000000000000 _ZN13UnitTestSuite12GetSuiteNameEv
     /tmp/ccMNPkNG.s:33     .text._ZN8UnitTest15MemoryOutStreamC1Ev:0000000000000000 _ZN8UnitTest15MemoryOutStreamC1Ev
     /tmp/ccMNPkNG.s:9608   .rodata._ZTTN8UnitTest15MemoryOutStreamE:0000000000000000 _ZTTN8UnitTest15MemoryOutStreamE
     /tmp/ccMNPkNG.s:9409   .rodata._ZTVN8UnitTest15MemoryOutStreamE:0000000000000000 _ZTVN8UnitTest15MemoryOutStreamE
     /tmp/ccMNPkNG.s:145    .text:0000000000000000 _ZN12_GLOBAL__N_122XmlTestReporterFixtureC2Ev
     /tmp/ccMNPkNG.s:226    .text:000000000000005c _ZN12_GLOBAL__N_122XmlTestReporterFixtureD2Ev
     /tmp/ccMNPkNG.s:9911   .text._ZN8UnitTest15XmlTestReporterD2Ev:0000000000000000 _ZN8UnitTest15XmlTestReporterD1Ev
     /tmp/ccMNPkNG.s:300    .text:00000000000000aa _ZN12_GLOBAL__N_156XmlTestReporterFixtureMultipleCharactersAreEscapedHelperC2ERKN8UnitTest11TestDetailsE
     /tmp/ccMNPkNG.s:335    .text:00000000000000d8 _ZN12_GLOBAL__N_154TestXmlTestReporterFixtureMultipleCharactersAreEscapedC2Ev
     /tmp/ccMNPkNG.s:9334   .rodata:0000000000000b40 _ZTVN12_GLOBAL__N_154TestXmlTestReporterFixtureMultipleCharactersAreEscapedE
     /tmp/ccMNPkNG.s:366    .bss:0000000000000000 _ZN12_GLOBAL__N_162testXmlTestReporterFixtureMultipleCharactersAreEscapedInstanceE
     /tmp/ccMNPkNG.s:366    .bss:0000000000000038 _ZN12_GLOBAL__N_155adderXmlTestReporterFixtureMultipleCharactersAreEscapedE
     /tmp/ccMNPkNG.s:371    .text:0000000000000116 _ZN12_GLOBAL__N_156XmlTestReporterFixtureMultipleCharactersAreEscapedHelperD2Ev
     /tmp/ccMNPkNG.s:406    .text:0000000000000130 _ZNK12_GLOBAL__N_154TestXmlTestReporterFixtureMultipleCharactersAreEscaped7RunImplEv
     /tmp/ccMNPkNG.s:5742   .text:0000000000002b9b _ZN8UnitTest11ExecuteTestIN12_GLOBAL__N_156XmlTestReporterFixtureMultipleCharactersAreEscapedHelperEEEvRT_RKNS_11TestDetailsE
     /tmp/ccMNPkNG.s:9424   .text._ZN8UnitTest15MemoryOutStreamD1Ev:0000000000000000 _ZN8UnitTest15MemoryOutStreamD1Ev
     /tmp/ccMNPkNG.s:774    .text:0000000000000436 _ZN12_GLOBAL__N_156XmlTestReporterFixtureMultipleCharactersAreEscapedHelper7RunImplEv
     /tmp/ccMNPkNG.s:6108   .text._ZN8UnitTest10CheckEqualIPKcSsEEvRNS_11TestResultsERKT_RKT0_RKNS_11TestDetailsE:0000000000000000 _ZN8UnitTest10CheckEqualIPKcSsEEvRNS_11TestResultsERKT_RKT0_RKNS_11TestDetailsE
     /tmp/ccMNPkNG.s:982    .text:00000000000005e0 _ZN12_GLOBAL__N_168XmlTestReporterFixtureOutputIsCachedUntilReportSummaryIsCalledHelperC2ERKN8UnitTest11TestDetailsE
     /tmp/ccMNPkNG.s:1016   .text:000000000000060e _ZN12_GLOBAL__N_166TestXmlTestReporterFixtureOutputIsCachedUntilReportSummaryIsCalledC2Ev
     /tmp/ccMNPkNG.s:9260   .rodata:0000000000000b00 _ZTVN12_GLOBAL__N_166TestXmlTestReporterFixtureOutputIsCachedUntilReportSummaryIsCalledE
     /tmp/ccMNPkNG.s:1047   .bss:0000000000000040 _ZN12_GLOBAL__N_174testXmlTestReporterFixtureOutputIsCachedUntilReportSummaryIsCalledInstanceE
     /tmp/ccMNPkNG.s:1047   .bss:0000000000000078 _ZN12_GLOBAL__N_167adderXmlTestReporterFixtureOutputIsCachedUntilReportSummaryIsCalledE
     /tmp/ccMNPkNG.s:1052   .text:000000000000064c _ZN12_GLOBAL__N_168XmlTestReporterFixtureOutputIsCachedUntilReportSummaryIsCalledHelperD2Ev
     /tmp/ccMNPkNG.s:1077   .text:0000000000000666 _ZNK12_GLOBAL__N_166TestXmlTestReporterFixtureOutputIsCachedUntilReportSummaryIsCalled7RunImplEv
     /tmp/ccMNPkNG.s:6253   .text:0000000000002e59 _ZN8UnitTest11ExecuteTestIN12_GLOBAL__N_168XmlTestReporterFixtureOutputIsCachedUntilReportSummaryIsCalledHelperEEEvRT_RKNS_11TestDetailsE
     /tmp/ccMNPkNG.s:1445   .text:000000000000096c _ZN12_GLOBAL__N_168XmlTestReporterFixtureOutputIsCachedUntilReportSummaryIsCalledHelper7RunImplEv
     /tmp/ccMNPkNG.s:6613   .text._ZN8UnitTest5CheckIbEEbT_:0000000000000000 _ZN8UnitTest5CheckIbEEbT_
     /tmp/ccMNPkNG.s:1777   .text:0000000000000c3a _ZN12_GLOBAL__N_152XmlTestReporterFixtureEmptyReportSummaryFormatHelperC2ERKN8UnitTest11TestDetailsE
     /tmp/ccMNPkNG.s:1810   .text:0000000000000c68 _ZN12_GLOBAL__N_150TestXmlTestReporterFixtureEmptyReportSummaryFormatC2Ev
     /tmp/ccMNPkNG.s:9186   .rodata:0000000000000ac0 _ZTVN12_GLOBAL__N_150TestXmlTestReporterFixtureEmptyReportSummaryFormatE
     /tmp/ccMNPkNG.s:1841   .bss:0000000000000080 _ZN12_GLOBAL__N_158testXmlTestReporterFixtureEmptyReportSummaryFormatInstanceE
     /tmp/ccMNPkNG.s:1841   .bss:00000000000000b8 _ZN12_GLOBAL__N_151adderXmlTestReporterFixtureEmptyReportSummaryFormatE
     /tmp/ccMNPkNG.s:1846   .text:0000000000000ca6 _ZN12_GLOBAL__N_152XmlTestReporterFixtureEmptyReportSummaryFormatHelperD2Ev
     /tmp/ccMNPkNG.s:1871   .text:0000000000000cc0 _ZNK12_GLOBAL__N_150TestXmlTestReporterFixtureEmptyReportSummaryFormat7RunImplEv
     /tmp/ccMNPkNG.s:6635   .text:0000000000003117 _ZN8UnitTest11ExecuteTestIN12_GLOBAL__N_152XmlTestReporterFixtureEmptyReportSummaryFormatHelperEEEvRT_RKNS_11TestDetailsE
     /tmp/ccMNPkNG.s:2228   .text:0000000000000fc6 _ZN12_GLOBAL__N_152XmlTestReporterFixtureEmptyReportSummaryFormatHelper7RunImplEv
     /tmp/ccMNPkNG.s:2405   .text:00000000000010f4 _ZN12_GLOBAL__N_167XmlTestReporterFixtureSingleSuccessfulTestReportSummaryFormatHelperC2ERKN8UnitTest11TestDetailsE
     /tmp/ccMNPkNG.s:2439   .text:0000000000001122 _ZN12_GLOBAL__N_165TestXmlTestReporterFixtureSingleSuccessfulTestReportSummaryFormatC2Ev
     /tmp/ccMNPkNG.s:9112   .rodata:0000000000000a80 _ZTVN12_GLOBAL__N_165TestXmlTestReporterFixtureSingleSuccessfulTestReportSummaryFormatE
     /tmp/ccMNPkNG.s:2470   .bss:00000000000000c0 _ZN12_GLOBAL__N_173testXmlTestReporterFixtureSingleSuccessfulTestReportSummaryFormatInstanceE
     /tmp/ccMNPkNG.s:2470   .bss:00000000000000f8 _ZN12_GLOBAL__N_166adderXmlTestReporterFixtureSingleSuccessfulTestReportSummaryFormatE
     /tmp/ccMNPkNG.s:2475   .text:0000000000001160 _ZN12_GLOBAL__N_167XmlTestReporterFixtureSingleSuccessfulTestReportSummaryFormatHelperD2Ev
     /tmp/ccMNPkNG.s:2500   .text:000000000000117a _ZNK12_GLOBAL__N_165TestXmlTestReporterFixtureSingleSuccessfulTestReportSummaryFormat7RunImplEv
     /tmp/ccMNPkNG.s:6993   .text:00000000000033d5 _ZN8UnitTest11ExecuteTestIN12_GLOBAL__N_167XmlTestReporterFixtureSingleSuccessfulTestReportSummaryFormatHelperEEEvRT_RKNS_11TestDetailsE
     /tmp/ccMNPkNG.s:2857   .text:0000000000001480 _ZN12_GLOBAL__N_167XmlTestReporterFixtureSingleSuccessfulTestReportSummaryFormatHelper7RunImplEv
     /tmp/ccMNPkNG.s:3049   .text:00000000000015ea _ZN12_GLOBAL__N_163XmlTestReporterFixtureSingleFailedTestReportSummaryFormatHelperC2ERKN8UnitTest11TestDetailsE
     /tmp/ccMNPkNG.s:3083   .text:0000000000001618 _ZN12_GLOBAL__N_161TestXmlTestReporterFixtureSingleFailedTestReportSummaryFormatC2Ev
     /tmp/ccMNPkNG.s:9038   .rodata:0000000000000a40 _ZTVN12_GLOBAL__N_161TestXmlTestReporterFixtureSingleFailedTestReportSummaryFormatE
     /tmp/ccMNPkNG.s:3114   .bss:0000000000000100 _ZN12_GLOBAL__N_169testXmlTestReporterFixtureSingleFailedTestReportSummaryFormatInstanceE
     /tmp/ccMNPkNG.s:3114   .bss:0000000000000138 _ZN12_GLOBAL__N_162adderXmlTestReporterFixtureSingleFailedTestReportSummaryFormatE
     /tmp/ccMNPkNG.s:3119   .text:0000000000001656 _ZN12_GLOBAL__N_163XmlTestReporterFixtureSingleFailedTestReportSummaryFormatHelperD2Ev
     /tmp/ccMNPkNG.s:3144   .text:0000000000001670 _ZNK12_GLOBAL__N_161TestXmlTestReporterFixtureSingleFailedTestReportSummaryFormat7RunImplEv
     /tmp/ccMNPkNG.s:7351   .text:0000000000003693 _ZN8UnitTest11ExecuteTestIN12_GLOBAL__N_163XmlTestReporterFixtureSingleFailedTestReportSummaryFormatHelperEEEvRT_RKNS_11TestDetailsE
     /tmp/ccMNPkNG.s:3507   .text:0000000000001976 _ZN12_GLOBAL__N_163XmlTestReporterFixtureSingleFailedTestReportSummaryFormatHelper7RunImplEv
     /tmp/ccMNPkNG.s:3707   .text:0000000000001afe _ZN12_GLOBAL__N_154XmlTestReporterFixtureFailureMessageIsXMLEscapedHelperC2ERKN8UnitTest11TestDetailsE
     /tmp/ccMNPkNG.s:3740   .text:0000000000001b2c _ZN12_GLOBAL__N_152TestXmlTestReporterFixtureFailureMessageIsXMLEscapedC2Ev
     /tmp/ccMNPkNG.s:8964   .rodata:0000000000000a00 _ZTVN12_GLOBAL__N_152TestXmlTestReporterFixtureFailureMessageIsXMLEscapedE
     /tmp/ccMNPkNG.s:3771   .bss:0000000000000140 _ZN12_GLOBAL__N_160testXmlTestReporterFixtureFailureMessageIsXMLEscapedInstanceE
     /tmp/ccMNPkNG.s:3771   .bss:0000000000000178 _ZN12_GLOBAL__N_153adderXmlTestReporterFixtureFailureMessageIsXMLEscapedE
     /tmp/ccMNPkNG.s:3776   .text:0000000000001b6a _ZN12_GLOBAL__N_154XmlTestReporterFixtureFailureMessageIsXMLEscapedHelperD2Ev
     /tmp/ccMNPkNG.s:3801   .text:0000000000001b84 _ZNK12_GLOBAL__N_152TestXmlTestReporterFixtureFailureMessageIsXMLEscaped7RunImplEv
     /tmp/ccMNPkNG.s:7709   .text:0000000000003951 _ZN8UnitTest11ExecuteTestIN12_GLOBAL__N_154XmlTestReporterFixtureFailureMessageIsXMLEscapedHelperEEEvRT_RKNS_11TestDetailsE
     /tmp/ccMNPkNG.s:4160   .text:0000000000001e8a _ZN12_GLOBAL__N_154XmlTestReporterFixtureFailureMessageIsXMLEscapedHelper7RunImplEv
     /tmp/ccMNPkNG.s:4368   .text:0000000000002034 _ZN12_GLOBAL__N_151XmlTestReporterFixtureOneFailureAndOneSuccessHelperC2ERKN8UnitTest11TestDetailsE
     /tmp/ccMNPkNG.s:4401   .text:0000000000002062 _ZN12_GLOBAL__N_149TestXmlTestReporterFixtureOneFailureAndOneSuccessC2Ev
     /tmp/ccMNPkNG.s:8890   .rodata:00000000000009c0 _ZTVN12_GLOBAL__N_149TestXmlTestReporterFixtureOneFailureAndOneSuccessE
     /tmp/ccMNPkNG.s:4432   .bss:0000000000000180 _ZN12_GLOBAL__N_157testXmlTestReporterFixtureOneFailureAndOneSuccessInstanceE
     /tmp/ccMNPkNG.s:4432   .bss:00000000000001b8 _ZN12_GLOBAL__N_150adderXmlTestReporterFixtureOneFailureAndOneSuccessE
     /tmp/ccMNPkNG.s:4437   .text:00000000000020a0 _ZN12_GLOBAL__N_151XmlTestReporterFixtureOneFailureAndOneSuccessHelperD2Ev
     /tmp/ccMNPkNG.s:4462   .text:00000000000020ba _ZNK12_GLOBAL__N_149TestXmlTestReporterFixtureOneFailureAndOneSuccess7RunImplEv
     /tmp/ccMNPkNG.s:8067   .text:0000000000003c0f _ZN8UnitTest11ExecuteTestIN12_GLOBAL__N_151XmlTestReporterFixtureOneFailureAndOneSuccessHelperEEEvRT_RKNS_11TestDetailsE
     /tmp/ccMNPkNG.s:4828   .text:00000000000023c0 _ZN12_GLOBAL__N_151XmlTestReporterFixtureOneFailureAndOneSuccessHelper7RunImplEv
     /tmp/ccMNPkNG.s:5059   .text:00000000000025f8 _ZN12_GLOBAL__N_144XmlTestReporterFixtureMultipleFailuresHelperC2ERKN8UnitTest11TestDetailsE
     /tmp/ccMNPkNG.s:5092   .text:0000000000002626 _ZN12_GLOBAL__N_142TestXmlTestReporterFixtureMultipleFailuresC2Ev
     /tmp/ccMNPkNG.s:8816   .rodata:0000000000000980 _ZTVN12_GLOBAL__N_142TestXmlTestReporterFixtureMultipleFailuresE
     /tmp/ccMNPkNG.s:5123   .bss:00000000000001c0 _ZN12_GLOBAL__N_150testXmlTestReporterFixtureMultipleFailuresInstanceE
     /tmp/ccMNPkNG.s:5123   .bss:00000000000001f8 _ZN12_GLOBAL__N_143adderXmlTestReporterFixtureMultipleFailuresE
     /tmp/ccMNPkNG.s:5128   .text:0000000000002664 _ZN12_GLOBAL__N_144XmlTestReporterFixtureMultipleFailuresHelperD2Ev
     /tmp/ccMNPkNG.s:5153   .text:000000000000267e _ZNK12_GLOBAL__N_142TestXmlTestReporterFixtureMultipleFailures7RunImplEv
     /tmp/ccMNPkNG.s:8425   .text:0000000000003ecd _ZN8UnitTest11ExecuteTestIN12_GLOBAL__N_144XmlTestReporterFixtureMultipleFailuresHelperEEEvRT_RKNS_11TestDetailsE
     /tmp/ccMNPkNG.s:5513   .text:0000000000002984 _ZN12_GLOBAL__N_144XmlTestReporterFixtureMultipleFailuresHelper7RunImplEv
     /tmp/ccMNPkNG.s:8785   .text._ZSteqIcSt11char_traitsIcESaIcEEbPKT_RKSbIS3_T0_T1_E:0000000000000000 _ZSteqIcSt11char_traitsIcESaIcEEbPKT_RKSbIS3_T0_T1_E
     /tmp/ccMNPkNG.s:10029  .rodata:0000000000000c50 _ZTIN12_GLOBAL__N_142TestXmlTestReporterFixtureMultipleFailuresE
     /tmp/ccMNPkNG.s:8825   .text:000000000000418c _ZN12_GLOBAL__N_142TestXmlTestReporterFixtureMultipleFailuresD1Ev
     /tmp/ccMNPkNG.s:8862   .text:00000000000041c6 _ZN12_GLOBAL__N_142TestXmlTestReporterFixtureMultipleFailuresD0Ev
     /tmp/ccMNPkNG.s:8825   .text:000000000000418c _ZN12_GLOBAL__N_142TestXmlTestReporterFixtureMultipleFailuresD2Ev
     /tmp/ccMNPkNG.s:10022  .rodata:0000000000000c30 _ZTIN12_GLOBAL__N_149TestXmlTestReporterFixtureOneFailureAndOneSuccessE
     /tmp/ccMNPkNG.s:8899   .text:00000000000041ec _ZN12_GLOBAL__N_149TestXmlTestReporterFixtureOneFailureAndOneSuccessD1Ev
     /tmp/ccMNPkNG.s:8936   .text:0000000000004226 _ZN12_GLOBAL__N_149TestXmlTestReporterFixtureOneFailureAndOneSuccessD0Ev
     /tmp/ccMNPkNG.s:8899   .text:00000000000041ec _ZN12_GLOBAL__N_149TestXmlTestReporterFixtureOneFailureAndOneSuccessD2Ev
     /tmp/ccMNPkNG.s:10015  .rodata:0000000000000c10 _ZTIN12_GLOBAL__N_152TestXmlTestReporterFixtureFailureMessageIsXMLEscapedE
     /tmp/ccMNPkNG.s:8973   .text:000000000000424c _ZN12_GLOBAL__N_152TestXmlTestReporterFixtureFailureMessageIsXMLEscapedD1Ev
     /tmp/ccMNPkNG.s:9010   .text:0000000000004286 _ZN12_GLOBAL__N_152TestXmlTestReporterFixtureFailureMessageIsXMLEscapedD0Ev
     /tmp/ccMNPkNG.s:8973   .text:000000000000424c _ZN12_GLOBAL__N_152TestXmlTestReporterFixtureFailureMessageIsXMLEscapedD2Ev
     /tmp/ccMNPkNG.s:10008  .rodata:0000000000000bf0 _ZTIN12_GLOBAL__N_161TestXmlTestReporterFixtureSingleFailedTestReportSummaryFormatE
     /tmp/ccMNPkNG.s:9047   .text:00000000000042ac _ZN12_GLOBAL__N_161TestXmlTestReporterFixtureSingleFailedTestReportSummaryFormatD1Ev
     /tmp/ccMNPkNG.s:9084   .text:00000000000042e6 _ZN12_GLOBAL__N_161TestXmlTestReporterFixtureSingleFailedTestReportSummaryFormatD0Ev
     /tmp/ccMNPkNG.s:9047   .text:00000000000042ac _ZN12_GLOBAL__N_161TestXmlTestReporterFixtureSingleFailedTestReportSummaryFormatD2Ev
     /tmp/ccMNPkNG.s:10001  .rodata:0000000000000bd0 _ZTIN12_GLOBAL__N_165TestXmlTestReporterFixtureSingleSuccessfulTestReportSummaryFormatE
     /tmp/ccMNPkNG.s:9121   .text:000000000000430c _ZN12_GLOBAL__N_165TestXmlTestReporterFixtureSingleSuccessfulTestReportSummaryFormatD1Ev
     /tmp/ccMNPkNG.s:9158   .text:0000000000004346 _ZN12_GLOBAL__N_165TestXmlTestReporterFixtureSingleSuccessfulTestReportSummaryFormatD0Ev
     /tmp/ccMNPkNG.s:9121   .text:000000000000430c _ZN12_GLOBAL__N_165TestXmlTestReporterFixtureSingleSuccessfulTestReportSummaryFormatD2Ev
     /tmp/ccMNPkNG.s:9994   .rodata:0000000000000bb0 _ZTIN12_GLOBAL__N_150TestXmlTestReporterFixtureEmptyReportSummaryFormatE
     /tmp/ccMNPkNG.s:9195   .text:000000000000436c _ZN12_GLOBAL__N_150TestXmlTestReporterFixtureEmptyReportSummaryFormatD1Ev
     /tmp/ccMNPkNG.s:9232   .text:00000000000043a6 _ZN12_GLOBAL__N_150TestXmlTestReporterFixtureEmptyReportSummaryFormatD0Ev
     /tmp/ccMNPkNG.s:9195   .text:000000000000436c _ZN12_GLOBAL__N_150TestXmlTestReporterFixtureEmptyReportSummaryFormatD2Ev
     /tmp/ccMNPkNG.s:9987   .rodata:0000000000000b90 _ZTIN12_GLOBAL__N_166TestXmlTestReporterFixtureOutputIsCachedUntilReportSummaryIsCalledE
     /tmp/ccMNPkNG.s:9269   .text:00000000000043cc _ZN12_GLOBAL__N_166TestXmlTestReporterFixtureOutputIsCachedUntilReportSummaryIsCalledD1Ev
     /tmp/ccMNPkNG.s:9306   .text:0000000000004406 _ZN12_GLOBAL__N_166TestXmlTestReporterFixtureOutputIsCachedUntilReportSummaryIsCalledD0Ev
     /tmp/ccMNPkNG.s:9269   .text:00000000000043cc _ZN12_GLOBAL__N_166TestXmlTestReporterFixtureOutputIsCachedUntilReportSummaryIsCalledD2Ev
     /tmp/ccMNPkNG.s:9980   .rodata:0000000000000b70 _ZTIN12_GLOBAL__N_154TestXmlTestReporterFixtureMultipleCharactersAreEscapedE
     /tmp/ccMNPkNG.s:9343   .text:000000000000442c _ZN12_GLOBAL__N_154TestXmlTestReporterFixtureMultipleCharactersAreEscapedD1Ev
     /tmp/ccMNPkNG.s:9380   .text:0000000000004466 _ZN12_GLOBAL__N_154TestXmlTestReporterFixtureMultipleCharactersAreEscapedD0Ev
     /tmp/ccMNPkNG.s:9343   .text:000000000000442c _ZN12_GLOBAL__N_154TestXmlTestReporterFixtureMultipleCharactersAreEscapedD2Ev
     /tmp/ccMNPkNG.s:9661   .rodata._ZTIN8UnitTest15MemoryOutStreamE:0000000000000000 _ZTIN8UnitTest15MemoryOutStreamE
     /tmp/ccMNPkNG.s:9566   .text._ZN8UnitTest15MemoryOutStreamD0Ev:0000000000000000 _ZN8UnitTest15MemoryOutStreamD0Ev
     /tmp/ccMNPkNG.s:9552   .text._ZN8UnitTest15MemoryOutStreamD1Ev:00000000000000c8 _ZTv0_n24_N8UnitTest15MemoryOutStreamD1Ev
     /tmp/ccMNPkNG.s:9593   .text._ZN8UnitTest15MemoryOutStreamD0Ev:0000000000000026 _ZTv0_n24_N8UnitTest15MemoryOutStreamD0Ev
     /tmp/ccMNPkNG.s:9621   .rodata._ZTCN8UnitTest15MemoryOutStreamE0_St19basic_ostringstreamIcSt11char_traitsIcESaIcEE:0000000000000000 _ZTCN8UnitTest15MemoryOutStreamE0_St19basic_ostringstreamIcSt11char_traitsIcESaIcEE
     /tmp/ccMNPkNG.s:9638   .rodata._ZTCN8UnitTest15MemoryOutStreamE0_So:0000000000000000 _ZTCN8UnitTest15MemoryOutStreamE0_So
     /tmp/ccMNPkNG.s:9654   .rodata._ZTSN8UnitTest15MemoryOutStreamE:0000000000000000 _ZTSN8UnitTest15MemoryOutStreamE
     /tmp/ccMNPkNG.s:9667   .text:000000000000448c _Z41__static_initialization_and_destruction_0ii
     /tmp/ccMNPkNG.s:9793   .text._ZN8UnitTest20DeferredTestReporterD2Ev:0000000000000000 _ZN8UnitTest20DeferredTestReporterD2Ev
     /tmp/ccMNPkNG.s:10077  .text._ZNSt6vectorIN8UnitTest18DeferredTestResultESaIS1_EED2Ev:0000000000000000 _ZNSt6vectorIN8UnitTest18DeferredTestResultESaIS1_EED1Ev
     /tmp/ccMNPkNG.s:9793   .text._ZN8UnitTest20DeferredTestReporterD2Ev:0000000000000000 _ZN8UnitTest20DeferredTestReporterD1Ev
     /tmp/ccMNPkNG.s:9883   .text._ZN8UnitTest20DeferredTestReporterD0Ev:0000000000000000 _ZN8UnitTest20DeferredTestReporterD0Ev
     /tmp/ccMNPkNG.s:9911   .text._ZN8UnitTest15XmlTestReporterD2Ev:0000000000000000 _ZN8UnitTest15XmlTestReporterD2Ev
     /tmp/ccMNPkNG.s:9952   .text._ZN8UnitTest15XmlTestReporterD0Ev:0000000000000000 _ZN8UnitTest15XmlTestReporterD0Ev
     /tmp/ccMNPkNG.s:10071  .rodata:0000000000000fc0 _ZTSN12_GLOBAL__N_154TestXmlTestReporterFixtureMultipleCharactersAreEscapedE
     /tmp/ccMNPkNG.s:10066  .rodata:0000000000000f40 _ZTSN12_GLOBAL__N_166TestXmlTestReporterFixtureOutputIsCachedUntilReportSummaryIsCalledE
     /tmp/ccMNPkNG.s:10061  .rodata:0000000000000ec0 _ZTSN12_GLOBAL__N_150TestXmlTestReporterFixtureEmptyReportSummaryFormatE
     /tmp/ccMNPkNG.s:10056  .rodata:0000000000000e40 _ZTSN12_GLOBAL__N_165TestXmlTestReporterFixtureSingleSuccessfulTestReportSummaryFormatE
     /tmp/ccMNPkNG.s:10051  .rodata:0000000000000dc0 _ZTSN12_GLOBAL__N_161TestXmlTestReporterFixtureSingleFailedTestReportSummaryFormatE
     /tmp/ccMNPkNG.s:10046  .rodata:0000000000000d40 _ZTSN12_GLOBAL__N_152TestXmlTestReporterFixtureFailureMessageIsXMLEscapedE
     /tmp/ccMNPkNG.s:10041  .rodata:0000000000000cc0 _ZTSN12_GLOBAL__N_149TestXmlTestReporterFixtureOneFailureAndOneSuccessE
     /tmp/ccMNPkNG.s:10036  .rodata:0000000000000c80 _ZTSN12_GLOBAL__N_142TestXmlTestReporterFixtureMultipleFailuresE
     /tmp/ccMNPkNG.s:10077  .text._ZNSt6vectorIN8UnitTest18DeferredTestResultESaIS1_EED2Ev:0000000000000000 _ZNSt6vectorIN8UnitTest18DeferredTestResultESaIS1_EED2Ev
     /tmp/ccMNPkNG.s:10278  .text._ZNSt12_Vector_baseIN8UnitTest18DeferredTestResultESaIS1_EE19_M_get_Tp_allocatorEv:0000000000000000 _ZNSt12_Vector_baseIN8UnitTest18DeferredTestResultESaIS1_EE19_M_get_Tp_allocatorEv
     /tmp/ccMNPkNG.s:10299  .text._ZSt8_DestroyIPN8UnitTest18DeferredTestResultES1_EvT_S3_RSaIT0_E:0000000000000000 _ZSt8_DestroyIPN8UnitTest18DeferredTestResultES1_EvT_S3_RSaIT0_E
     /tmp/ccMNPkNG.s:10192  .text._ZNSt12_Vector_baseIN8UnitTest18DeferredTestResultESaIS1_EED2Ev:0000000000000000 _ZNSt12_Vector_baseIN8UnitTest18DeferredTestResultESaIS1_EED2Ev
     /tmp/ccMNPkNG.s:10163  .text._ZNSt12_Vector_baseIN8UnitTest18DeferredTestResultESaIS1_EE12_Vector_implD2Ev:0000000000000000 _ZNSt12_Vector_baseIN8UnitTest18DeferredTestResultESaIS1_EE12_Vector_implD2Ev
     /tmp/ccMNPkNG.s:10330  .text._ZNSaIN8UnitTest18DeferredTestResultEED2Ev:0000000000000000 _ZNSaIN8UnitTest18DeferredTestResultEED2Ev
     /tmp/ccMNPkNG.s:10163  .text._ZNSt12_Vector_baseIN8UnitTest18DeferredTestResultESaIS1_EE12_Vector_implD2Ev:0000000000000000 _ZNSt12_Vector_baseIN8UnitTest18DeferredTestResultESaIS1_EE12_Vector_implD1Ev
     /tmp/ccMNPkNG.s:10360  .text._ZNSt12_Vector_baseIN8UnitTest18DeferredTestResultESaIS1_EE13_M_deallocateEPS1_m:0000000000000000 _ZNSt12_Vector_baseIN8UnitTest18DeferredTestResultESaIS1_EE13_M_deallocateEPS1_m
     /tmp/ccMNPkNG.s:10192  .text._ZNSt12_Vector_baseIN8UnitTest18DeferredTestResultESaIS1_EED2Ev:0000000000000000 _ZNSt12_Vector_baseIN8UnitTest18DeferredTestResultESaIS1_EED1Ev
     /tmp/ccMNPkNG.s:10396  .text._ZSt8_DestroyIPN8UnitTest18DeferredTestResultEEvT_S3_:0000000000000000 _ZSt8_DestroyIPN8UnitTest18DeferredTestResultEEvT_S3_
     /tmp/ccMNPkNG.s:10427  .text._ZN9__gnu_cxx13new_allocatorIN8UnitTest18DeferredTestResultEED2Ev:0000000000000000 _ZN9__gnu_cxx13new_allocatorIN8UnitTest18DeferredTestResultEED2Ev
     /tmp/ccMNPkNG.s:10330  .text._ZNSaIN8UnitTest18DeferredTestResultEED2Ev:0000000000000000 _ZNSaIN8UnitTest18DeferredTestResultEED1Ev
     /tmp/ccMNPkNG.s:10450  .text._ZN9__gnu_cxx14__alloc_traitsISaIN8UnitTest18DeferredTestResultEEE10deallocateERS3_PS2_m:0000000000000000 _ZN9__gnu_cxx14__alloc_traitsISaIN8UnitTest18DeferredTestResultEEE10deallocateERS3_PS2_m
     /tmp/ccMNPkNG.s:10480  .text._ZNSt12_Destroy_auxILb0EE9__destroyIPN8UnitTest18DeferredTestResultEEEvT_S5_:0000000000000000 _ZNSt12_Destroy_auxILb0EE9__destroyIPN8UnitTest18DeferredTestResultEEEvT_S5_
     /tmp/ccMNPkNG.s:10427  .text._ZN9__gnu_cxx13new_allocatorIN8UnitTest18DeferredTestResultEED2Ev:0000000000000000 _ZN9__gnu_cxx13new_allocatorIN8UnitTest18DeferredTestResultEED1Ev
     /tmp/ccMNPkNG.s:10519  .text._ZN9__gnu_cxx13new_allocatorIN8UnitTest18DeferredTestResultEE10deallocateEPS2_m:0000000000000000 _ZN9__gnu_cxx13new_allocatorIN8UnitTest18DeferredTestResultEE10deallocateEPS2_m
     /tmp/ccMNPkNG.s:10545  .text._ZSt11__addressofIN8UnitTest18DeferredTestResultEEPT_RS2_:0000000000000000 _ZSt11__addressofIN8UnitTest18DeferredTestResultEEPT_RS2_
     /tmp/ccMNPkNG.s:10688  .text._ZSt8_DestroyIN8UnitTest18DeferredTestResultEEvPT_:0000000000000000 _ZSt8_DestroyIN8UnitTest18DeferredTestResultEEvPT_
     /tmp/ccMNPkNG.s:10569  .text._ZN8UnitTest18DeferredTestResultD2Ev:0000000000000000 _ZN8UnitTest18DeferredTestResultD2Ev
     /tmp/ccMNPkNG.s:10713  .text._ZNSt6vectorISt4pairIiSsESaIS1_EED2Ev:0000000000000000 _ZNSt6vectorISt4pairIiSsESaIS1_EED1Ev
     /tmp/ccMNPkNG.s:10569  .text._ZN8UnitTest18DeferredTestResultD2Ev:0000000000000000 _ZN8UnitTest18DeferredTestResultD1Ev
     /tmp/ccMNPkNG.s:10713  .text._ZNSt6vectorISt4pairIiSsESaIS1_EED2Ev:0000000000000000 _ZNSt6vectorISt4pairIiSsESaIS1_EED2Ev
     /tmp/ccMNPkNG.s:10910  .text._ZNSt12_Vector_baseISt4pairIiSsESaIS1_EE19_M_get_Tp_allocatorEv:0000000000000000 _ZNSt12_Vector_baseISt4pairIiSsESaIS1_EE19_M_get_Tp_allocatorEv
     /tmp/ccMNPkNG.s:10931  .text._ZSt8_DestroyIPSt4pairIiSsES1_EvT_S3_RSaIT0_E:0000000000000000 _ZSt8_DestroyIPSt4pairIiSsES1_EvT_S3_RSaIT0_E
     /tmp/ccMNPkNG.s:10827  .text._ZNSt12_Vector_baseISt4pairIiSsESaIS1_EED2Ev:0000000000000000 _ZNSt12_Vector_baseISt4pairIiSsESaIS1_EED2Ev
     /tmp/ccMNPkNG.s:10798  .text._ZNSt12_Vector_baseISt4pairIiSsESaIS1_EE12_Vector_implD2Ev:0000000000000000 _ZNSt12_Vector_baseISt4pairIiSsESaIS1_EE12_Vector_implD2Ev
     /tmp/ccMNPkNG.s:10961  .text._ZNSaISt4pairIiSsEED2Ev:0000000000000000 _ZNSaISt4pairIiSsEED2Ev
     /tmp/ccMNPkNG.s:10798  .text._ZNSt12_Vector_baseISt4pairIiSsESaIS1_EE12_Vector_implD2Ev:0000000000000000 _ZNSt12_Vector_baseISt4pairIiSsESaIS1_EE12_Vector_implD1Ev
     /tmp/ccMNPkNG.s:10990  .text._ZNSt12_Vector_baseISt4pairIiSsESaIS1_EE13_M_deallocateEPS1_m:0000000000000000 _ZNSt12_Vector_baseISt4pairIiSsESaIS1_EE13_M_deallocateEPS1_m
     /tmp/ccMNPkNG.s:10827  .text._ZNSt12_Vector_baseISt4pairIiSsESaIS1_EED2Ev:0000000000000000 _ZNSt12_Vector_baseISt4pairIiSsESaIS1_EED1Ev
     /tmp/ccMNPkNG.s:11026  .text._ZSt8_DestroyIPSt4pairIiSsEEvT_S3_:0000000000000000 _ZSt8_DestroyIPSt4pairIiSsEEvT_S3_
     /tmp/ccMNPkNG.s:11057  .text._ZN9__gnu_cxx13new_allocatorISt4pairIiSsEED2Ev:0000000000000000 _ZN9__gnu_cxx13new_allocatorISt4pairIiSsEED2Ev
     /tmp/ccMNPkNG.s:10961  .text._ZNSaISt4pairIiSsEED2Ev:0000000000000000 _ZNSaISt4pairIiSsEED1Ev
     /tmp/ccMNPkNG.s:11079  .text._ZN9__gnu_cxx14__alloc_traitsISaISt4pairIiSsEEE10deallocateERS3_PS2_m:0000000000000000 _ZN9__gnu_cxx14__alloc_traitsISaISt4pairIiSsEEE10deallocateERS3_PS2_m
     /tmp/ccMNPkNG.s:11108  .text._ZNSt12_Destroy_auxILb0EE9__destroyIPSt4pairIiSsEEEvT_S5_:0000000000000000 _ZNSt12_Destroy_auxILb0EE9__destroyIPSt4pairIiSsEEEvT_S5_
     /tmp/ccMNPkNG.s:11057  .text._ZN9__gnu_cxx13new_allocatorISt4pairIiSsEED2Ev:0000000000000000 _ZN9__gnu_cxx13new_allocatorISt4pairIiSsEED1Ev
     /tmp/ccMNPkNG.s:11147  .text._ZN9__gnu_cxx13new_allocatorISt4pairIiSsEE10deallocateEPS2_m:0000000000000000 _ZN9__gnu_cxx13new_allocatorISt4pairIiSsEE10deallocateEPS2_m
     /tmp/ccMNPkNG.s:11173  .text._ZSt11__addressofISt4pairIiSsEEPT_RS2_:0000000000000000 _ZSt11__addressofISt4pairIiSsEEPT_RS2_
     /tmp/ccMNPkNG.s:11226  .text._ZSt8_DestroyISt4pairIiSsEEvPT_:0000000000000000 _ZSt8_DestroyISt4pairIiSsEEvPT_
     /tmp/ccMNPkNG.s:11196  .text._ZNSt4pairIiSsED2Ev:0000000000000000 _ZNSt4pairIiSsED2Ev
     /tmp/ccMNPkNG.s:11196  .text._ZNSt4pairIiSsED2Ev:0000000000000000 _ZNSt4pairIiSsED1Ev
     /tmp/ccMNPkNG.s:11249  .text:000000000000465b _GLOBAL__sub_I_TestXmlTestReporter.cpp
     /tmp/ccMNPkNG.s:11275  .rodata:0000000000001010 _ZZL18__gthread_active_pvE20__gthread_active_ptr
                           .group:0000000000000000 _ZN8UnitTest20DeferredTestReporterD5Ev
                           .group:0000000000000000 _ZN8UnitTest15XmlTestReporterD5Ev
                           .group:0000000000000000 _ZNSt6vectorIN8UnitTest18DeferredTestResultESaIS1_EED5Ev
                           .group:0000000000000000 _ZNSt12_Vector_baseIN8UnitTest18DeferredTestResultESaIS1_EE12_Vector_implD5Ev
                           .group:0000000000000000 _ZNSt12_Vector_baseIN8UnitTest18DeferredTestResultESaIS1_EED5Ev
                           .group:0000000000000000 _ZNSaIN8UnitTest18DeferredTestResultEED5Ev
                           .group:0000000000000000 _ZN9__gnu_cxx13new_allocatorIN8UnitTest18DeferredTestResultEED5Ev
                           .group:0000000000000000 _ZN8UnitTest18DeferredTestResultD5Ev
                           .group:0000000000000000 _ZNSt6vectorISt4pairIiSsESaIS1_EED5Ev
                           .group:0000000000000000 _ZNSt12_Vector_baseISt4pairIiSsESaIS1_EE12_Vector_implD5Ev
                           .group:0000000000000000 _ZNSt12_Vector_baseISt4pairIiSsESaIS1_EED5Ev
                           .group:0000000000000000 _ZNSaISt4pairIiSsEED5Ev
                           .group:0000000000000000 _ZN9__gnu_cxx13new_allocatorISt4pairIiSsEED5Ev
                           .group:0000000000000000 _ZNSt4pairIiSsED5Ev

UNDEFINED SYMBOLS
__gxx_personality_v0
_ZNSt9basic_iosIcSt11char_traitsIcEEC2Ev
_ZNSt19basic_ostringstreamIcSt11char_traitsIcESaIcEEC2ESt13_Ios_Openmode
_ZNSsC1Ev
_ZNSt19basic_ostringstreamIcSt11char_traitsIcESaIcEED2Ev
_ZNSt9basic_iosIcSt11char_traitsIcEED2Ev
_Unwind_Resume
_ZNSt19basic_ostringstreamIcSt11char_traitsIcESaIcEEC1ESt13_Ios_Openmode
_ZN8UnitTest15XmlTestReporterC1ERSo
_ZNSt19basic_ostringstreamIcSt11char_traitsIcESaIcEED1Ev
_ZN8UnitTest4TestC2EPKcS2_S2_i
__cxa_end_catch
__cxa_begin_catch
_ZNK8UnitTest15AssertException10LineNumberEv
_ZNK8UnitTest15AssertException8FilenameEv
_ZN8UnitTest11TestDetailsC1EPKcS2_S2_i
_ZN8UnitTest11CurrentTest7ResultsEv
_ZN8UnitTest11TestResults13OnTestFailureERKNS_11TestDetailsEPKc
_ZStlsISt11char_traitsIcEERSt13basic_ostreamIcT_ES5_PKc
_ZNK8UnitTest15MemoryOutStream7GetTextEv
_ZN8UnitTest11TestDetailsC1ERKS0_i
__stack_chk_fail
_ZTISt9exception
_ZTIN8UnitTest15AssertExceptionE
_ZN8UnitTest20DeferredTestReporter15ReportTestStartERKNS_11TestDetailsE
_ZN8UnitTest20DeferredTestReporter13ReportFailureERKNS_11TestDetailsEPKc
_ZN8UnitTest20DeferredTestReporter16ReportTestFinishERKNS_11TestDetailsEf
_ZN8UnitTest15XmlTestReporter13ReportSummaryEiiif
_ZN8UnitTest11CurrentTest7DetailsEv
_ZNKSt19basic_ostringstreamIcSt11char_traitsIcESaIcEE3strEv
_ZNSsD1Ev
_ZNKSs5emptyEv
_ZN8UnitTest16SignalTranslatorC1Ev
_ZN8UnitTest16SignalTranslator12s_jumpTargetE
__sigsetjmp
__cxa_allocate_exception
_ZTIPKc
__cxa_throw
_ZN8UnitTest16SignalTranslatorD1Ev
_ZStlsIcSt11char_traitsIcESaIcEERSt13basic_ostreamIT_T0_ES7_RKSbIS4_S5_T1_E
_ZNKSs7compareEPKc
_ZN8UnitTest4TestD2Ev
_ZdlPv
_ZTISt19basic_ostringstreamIcSt11char_traitsIcESaIcEE
_ZTISo
_ZTVN10__cxxabiv120__si_class_type_infoE
__dso_handle
__cxa_atexit
_ZN8UnitTest4Test11GetTestListEv
_ZN8UnitTest9ListAdderC1ERNS_8TestListEPNS_4TestE
_ZTVN8UnitTest20DeferredTestReporterE
_ZN8UnitTest12TestReporterD2Ev
_ZTVN8UnitTest15XmlTestReporterE
_ZTIN8UnitTest4TestE
__pthread_key_create
