   1              		.file	"TestTimeConstraint.cpp"
   2              		.text
   3              	.Ltext0:
   4              		.section	.rodata
   5              	.LC0:
   6 0000 44656661 		.string	"DefaultSuite"
   6      756C7453 
   6      75697465 
   6      00
   7              		.section	.text._ZN13UnitTestSuite12GetSuiteNameEv,"axG",@progbits,_ZN13UnitTestSuite12GetSuiteName
   8              		.weak	_ZN13UnitTestSuite12GetSuiteNameEv
  10              	_ZN13UnitTestSuite12GetSuiteNameEv:
  11              	.LFB0:
  12              		.file 1 "../TestSuite.h"
   1:../TestSuite.h **** #ifndef UNITTEST_TESTSUITE_H
   2:../TestSuite.h **** #define UNITTEST_TESTSUITE_H
   3:../TestSuite.h **** 
   4:../TestSuite.h **** namespace UnitTestSuite {
   5:../TestSuite.h **** 
   6:../TestSuite.h ****     inline char const* GetSuiteName ()
   7:../TestSuite.h ****     {
  13              		.loc 1 7 0
  14              		.cfi_startproc
  15 0000 55       		pushq	%rbp
  16              		.cfi_def_cfa_offset 16
  17              		.cfi_offset 6, -16
  18 0001 4889E5   		movq	%rsp, %rbp
  19              		.cfi_def_cfa_register 6
   8:../TestSuite.h ****         return "DefaultSuite";
  20              		.loc 1 8 0
  21 0004 B8000000 		movl	$.LC0, %eax
  21      00
   9:../TestSuite.h ****     }
  22              		.loc 1 9 0
  23 0009 5D       		popq	%rbp
  24              		.cfi_def_cfa 7, 8
  25 000a C3       		ret
  26              		.cfi_endproc
  27              	.LFE0:
  29              		.section	.text._ZN8UnitTest15MemoryOutStreamC1Ev,"axG",@progbits,_ZN8UnitTest15MemoryOutStreamC1Ev
  30              		.align 2
  31              		.weak	_ZN8UnitTest15MemoryOutStreamC1Ev
  33              	_ZN8UnitTest15MemoryOutStreamC1Ev:
  34              	.LFB1053:
  35              		.file 2 "../MemoryOutStream.h"
   1:../MemoryOutStream.h **** #ifndef UNITTEST_MEMORYOUTSTREAM_H
   2:../MemoryOutStream.h **** #define UNITTEST_MEMORYOUTSTREAM_H
   3:../MemoryOutStream.h **** 
   4:../MemoryOutStream.h **** #include "Config.h"
   5:../MemoryOutStream.h **** 
   6:../MemoryOutStream.h **** #ifndef UNITTEST_USE_CUSTOM_STREAMS
   7:../MemoryOutStream.h **** 
   8:../MemoryOutStream.h **** #include <sstream>
   9:../MemoryOutStream.h **** 
  10:../MemoryOutStream.h **** namespace UnitTest
  11:../MemoryOutStream.h **** {
  12:../MemoryOutStream.h **** 
  13:../MemoryOutStream.h **** class MemoryOutStream : public std::ostringstream
  14:../MemoryOutStream.h **** {
  15:../MemoryOutStream.h **** public:
  16:../MemoryOutStream.h ****     MemoryOutStream() {}
  36              		.loc 2 16 0
  37              		.cfi_startproc
  38              		.cfi_personality 0x3,__gxx_personality_v0
  39              		.cfi_lsda 0x3,.LLSDA1053
  40 0000 55       		pushq	%rbp
  41              		.cfi_def_cfa_offset 16
  42              		.cfi_offset 6, -16
  43 0001 4889E5   		movq	%rsp, %rbp
  44              		.cfi_def_cfa_register 6
  45 0004 53       		pushq	%rbx
  46 0005 4883EC18 		subq	$24, %rsp
  47              		.cfi_offset 3, -24
  48 0009 48897DE8 		movq	%rdi, -24(%rbp)
  49              	.LBB2:
  50              		.loc 2 16 0
  51 000d 488B45E8 		movq	-24(%rbp), %rax
  52 0011 4883C060 		addq	$96, %rax
  53 0015 4889C7   		movq	%rax, %rdi
  54              	.LEHB0:
  55 0018 E8000000 		call	_ZNSt9basic_iosIcSt11char_traitsIcEEC2Ev
  55      00
  56              	.LEHE0:
  57 001d B9000000 		movl	$_ZTTN8UnitTest15MemoryOutStreamE+8, %ecx
  57      00
  58 0022 488B45E8 		movq	-24(%rbp), %rax
  59 0026 BA100000 		movl	$16, %edx
  59      00
  60 002b 4889CE   		movq	%rcx, %rsi
  61 002e 4889C7   		movq	%rax, %rdi
  62              	.LEHB1:
  63 0031 E8000000 		call	_ZNSt19basic_ostringstreamIcSt11char_traitsIcESaIcEEC2ESt13_Ios_Openmode
  63      00
  64              	.LEHE1:
  65              		.loc 2 16 0 is_stmt 0 discriminator 9
  66 0036 BA000000 		movl	$_ZTVN8UnitTest15MemoryOutStreamE+24, %edx
  66      00
  67 003b 488B45E8 		movq	-24(%rbp), %rax
  68 003f 488910   		movq	%rdx, (%rax)
  69 0042 BA600000 		movl	$96, %edx
  69      00
  70 0047 488B45E8 		movq	-24(%rbp), %rax
  71 004b 4801D0   		addq	%rdx, %rax
  72 004e BA000000 		movl	$_ZTVN8UnitTest15MemoryOutStreamE+64, %edx
  72      00
  73 0053 488910   		movq	%rdx, (%rax)
  74 0056 488B45E8 		movq	-24(%rbp), %rax
  75 005a 4883C058 		addq	$88, %rax
  76 005e 4889C7   		movq	%rax, %rdi
  77              	.LEHB2:
  78 0061 E8000000 		call	_ZNSsC1Ev
  78      00
  79              	.LEHE2:
  80              	.LBE2:
  81              		.loc 2 16 0
  82 0066 EB37     		jmp	.L8
  83              	.L6:
  84 0068 4889C3   		movq	%rax, %rbx
  85              	.LBB3:
  86 006b BA000000 		movl	$_ZTTN8UnitTest15MemoryOutStreamE+8, %edx
  86      00
  87 0070 488B45E8 		movq	-24(%rbp), %rax
  88 0074 4889D6   		movq	%rdx, %rsi
  89 0077 4889C7   		movq	%rax, %rdi
  90 007a E8000000 		call	_ZNSt19basic_ostringstreamIcSt11char_traitsIcESaIcEED2Ev
  90      00
  91 007f EB03     		jmp	.L5
  92              	.L7:
  93 0081 4889C3   		movq	%rax, %rbx
  94              	.L5:
  95              		.loc 2 16 0 discriminator 28
  96 0084 488B45E8 		movq	-24(%rbp), %rax
  97 0088 4883C060 		addq	$96, %rax
  98 008c 4889C7   		movq	%rax, %rdi
  99 008f E8000000 		call	_ZNSt9basic_iosIcSt11char_traitsIcEED2Ev
  99      00
 100 0094 4889D8   		movq	%rbx, %rax
 101 0097 4889C7   		movq	%rax, %rdi
 102              	.LEHB3:
 103 009a E8000000 		call	_Unwind_Resume
 103      00
 104              	.LEHE3:
 105              	.L8:
 106              	.LBE3:
 107              		.loc 2 16 0
 108 009f 4883C418 		addq	$24, %rsp
 109 00a3 5B       		popq	%rbx
 110 00a4 5D       		popq	%rbp
 111              		.cfi_def_cfa 7, 8
 112 00a5 C3       		ret
 113              		.cfi_endproc
 114              	.LFE1053:
 115              		.globl	__gxx_personality_v0
 116              		.section	.gcc_except_table._ZN8UnitTest15MemoryOutStreamC1Ev,"aG",@progbits,_ZN8UnitTest15MemoryOu
 117              	.LLSDA1053:
 118 0000 FF       		.byte	0xff
 119 0001 FF       		.byte	0xff
 120 0002 01       		.byte	0x1
 121 0003 12       		.uleb128 .LLSDACSE1053-.LLSDACSB1053
 122              	.LLSDACSB1053:
 123 0004 18       		.uleb128 .LEHB0-.LFB1053
 124 0005 05       		.uleb128 .LEHE0-.LEHB0
 125 0006 00       		.uleb128 0
 126 0007 00       		.uleb128 0
 127 0008 31       		.uleb128 .LEHB1-.LFB1053
 128 0009 05       		.uleb128 .LEHE1-.LEHB1
 129 000a 8101     		.uleb128 .L7-.LFB1053
 130 000c 00       		.uleb128 0
 131 000d 61       		.uleb128 .LEHB2-.LFB1053
 132 000e 05       		.uleb128 .LEHE2-.LEHB2
 133 000f 68       		.uleb128 .L6-.LFB1053
 134 0010 00       		.uleb128 0
 135 0011 9A01     		.uleb128 .LEHB3-.LFB1053
 136 0013 05       		.uleb128 .LEHE3-.LEHB3
 137 0014 00       		.uleb128 0
 138 0015 00       		.uleb128 0
 139              	.LLSDACSE1053:
 140              		.section	.text._ZN8UnitTest15MemoryOutStreamC1Ev,"axG",@progbits,_ZN8UnitTest15MemoryOutStreamC1Ev
 142              		.section	.text._ZN8UnitTest12TestReporterC2Ev,"axG",@progbits,_ZN8UnitTest12TestReporterC5Ev,comda
 143              		.align 2
 144              		.weak	_ZN8UnitTest12TestReporterC2Ev
 146              	_ZN8UnitTest12TestReporterC2Ev:
 147              	.LFB1067:
 148              		.file 3 "../TestReporter.h"
   1:../TestReporter.h **** #ifndef UNITTEST_TESTREPORTER_H
   2:../TestReporter.h **** #define UNITTEST_TESTREPORTER_H
   3:../TestReporter.h **** 
   4:../TestReporter.h **** namespace UnitTest {
   5:../TestReporter.h **** 
   6:../TestReporter.h **** class TestDetails;
   7:../TestReporter.h **** 
   8:../TestReporter.h **** class TestReporter
 149              		.loc 3 8 0 is_stmt 1
 150              		.cfi_startproc
 151 0000 55       		pushq	%rbp
 152              		.cfi_def_cfa_offset 16
 153              		.cfi_offset 6, -16
 154 0001 4889E5   		movq	%rsp, %rbp
 155              		.cfi_def_cfa_register 6
 156 0004 48897DF8 		movq	%rdi, -8(%rbp)
 157              	.LBB4:
 158              		.loc 3 8 0
 159 0008 488B45F8 		movq	-8(%rbp), %rax
 160 000c 48C70000 		movq	$_ZTVN8UnitTest12TestReporterE+16, (%rax)
 160      000000
 161              	.LBE4:
 162 0013 5D       		popq	%rbp
 163              		.cfi_def_cfa 7, 8
 164 0014 C3       		ret
 165              		.cfi_endproc
 166              	.LFE1067:
 168              		.weak	_ZN8UnitTest12TestReporterC1Ev
 169              		.set	_ZN8UnitTest12TestReporterC1Ev,_ZN8UnitTest12TestReporterC2Ev
 170              		.section	.text._ZN17RecordingReporterC2Ev,"axG",@progbits,_ZN17RecordingReporterC5Ev,comdat
 171              		.align 2
 172              		.weak	_ZN17RecordingReporterC2Ev
 174              	_ZN17RecordingReporterC2Ev:
 175              	.LFB1069:
 176              		.file 4 "RecordingReporter.h"
   1:RecordingReporter.h **** #ifndef UNITTEST_RECORDINGREPORTER_H
   2:RecordingReporter.h **** #define UNITTEST_RECORDINGREPORTER_H
   3:RecordingReporter.h **** 
   4:RecordingReporter.h **** #include "../TestReporter.h"
   5:RecordingReporter.h **** #include <cstring>
   6:RecordingReporter.h **** 
   7:RecordingReporter.h **** #include "../TestDetails.h"
   8:RecordingReporter.h **** 
   9:RecordingReporter.h **** struct RecordingReporter : public UnitTest::TestReporter
  10:RecordingReporter.h **** {
  11:RecordingReporter.h **** private:
  12:RecordingReporter.h ****     enum { kMaxStringLength = 256 };
  13:RecordingReporter.h **** 
  14:RecordingReporter.h **** public:
  15:RecordingReporter.h ****     RecordingReporter()
 177              		.loc 4 15 0
 178              		.cfi_startproc
 179 0000 55       		pushq	%rbp
 180              		.cfi_def_cfa_offset 16
 181              		.cfi_offset 6, -16
 182 0001 4889E5   		movq	%rsp, %rbp
 183              		.cfi_def_cfa_register 6
 184 0004 4883EC10 		subq	$16, %rsp
 185 0008 48897DF8 		movq	%rdi, -8(%rbp)
 186              	.LBB5:
  16:RecordingReporter.h ****         : testRunCount(0)
  17:RecordingReporter.h ****         , testFailedCount(0)
  18:RecordingReporter.h ****         , lastFailedLine(0)
  19:RecordingReporter.h ****         , testFinishedCount(0)
  20:RecordingReporter.h ****         , lastFinishedTestTime(0)
  21:RecordingReporter.h ****         , summaryTotalTestCount(0)
  22:RecordingReporter.h ****         , summaryFailedTestCount(0)
  23:RecordingReporter.h ****         , summaryFailureCount(0)
  24:RecordingReporter.h ****         , summarySecondsElapsed(0)
 187              		.loc 4 24 0
 188 000c 488B45F8 		movq	-8(%rbp), %rax
 189 0010 4889C7   		movq	%rax, %rdi
 190 0013 E8000000 		call	_ZN8UnitTest12TestReporterC2Ev
 190      00
 191 0018 488B45F8 		movq	-8(%rbp), %rax
 192 001c 48C70000 		movq	$_ZTV17RecordingReporter+16, (%rax)
 192      000000
 193 0023 488B45F8 		movq	-8(%rbp), %rax
 194 0027 C7400800 		movl	$0, 8(%rax)
 194      000000
 195 002e 488B45F8 		movq	-8(%rbp), %rax
 196 0032 C7800C02 		movl	$0, 524(%rax)
 196      00000000 
 196      0000
 197 003c 488B45F8 		movq	-8(%rbp), %rax
 198 0040 C7801003 		movl	$0, 784(%rax)
 198      00000000 
 198      0000
 199 004a 488B45F8 		movq	-8(%rbp), %rax
 200 004e C7801406 		movl	$0, 1556(%rax)
 200      00000000 
 200      0000
 201 0058 488B55F8 		movq	-8(%rbp), %rdx
 202 005c 8B050000 		movl	.LC1(%rip), %eax
 202      0000
 203 0062 89821808 		movl	%eax, 2072(%rdx)
 203      0000
 204 0068 488B45F8 		movq	-8(%rbp), %rax
 205 006c C7801C08 		movl	$0, 2076(%rax)
 205      00000000 
 205      0000
 206 0076 488B45F8 		movq	-8(%rbp), %rax
 207 007a C7802008 		movl	$0, 2080(%rax)
 207      00000000 
 207      0000
 208 0084 488B45F8 		movq	-8(%rbp), %rax
 209 0088 C7802408 		movl	$0, 2084(%rax)
 209      00000000 
 209      0000
 210 0092 488B55F8 		movq	-8(%rbp), %rdx
 211 0096 8B050000 		movl	.LC1(%rip), %eax
 211      0000
 212 009c 89822808 		movl	%eax, 2088(%rdx)
 212      0000
  25:RecordingReporter.h ****     {
  26:RecordingReporter.h ****         lastStartedSuite[0] = '\0';
 213              		.loc 4 26 0
 214 00a2 488B45F8 		movq	-8(%rbp), %rax
 215 00a6 C6400C00 		movb	$0, 12(%rax)
  27:RecordingReporter.h ****         lastStartedTest[0] = '\0';
 216              		.loc 4 27 0
 217 00aa 488B45F8 		movq	-8(%rbp), %rax
 218 00ae C6800C01 		movb	$0, 268(%rax)
 218      000000
  28:RecordingReporter.h ****         lastFailedFile[0] = '\0';
 219              		.loc 4 28 0
 220 00b5 488B45F8 		movq	-8(%rbp), %rax
 221 00b9 C6801002 		movb	$0, 528(%rax)
 221      000000
  29:RecordingReporter.h ****         lastFailedSuite[0] = '\0';
 222              		.loc 4 29 0
 223 00c0 488B45F8 		movq	-8(%rbp), %rax
 224 00c4 C6801403 		movb	$0, 788(%rax)
 224      000000
  30:RecordingReporter.h ****         lastFailedTest[0] = '\0';
 225              		.loc 4 30 0
 226 00cb 488B45F8 		movq	-8(%rbp), %rax
 227 00cf C6801404 		movb	$0, 1044(%rax)
 227      000000
  31:RecordingReporter.h ****         lastFailedMessage[0] = '\0';
 228              		.loc 4 31 0
 229 00d6 488B45F8 		movq	-8(%rbp), %rax
 230 00da C6801405 		movb	$0, 1300(%rax)
 230      000000
  32:RecordingReporter.h ****         lastFinishedSuite[0] = '\0';
 231              		.loc 4 32 0
 232 00e1 488B45F8 		movq	-8(%rbp), %rax
 233 00e5 C6801806 		movb	$0, 1560(%rax)
 233      000000
  33:RecordingReporter.h ****         lastFinishedTest[0] = '\0';
 234              		.loc 4 33 0
 235 00ec 488B45F8 		movq	-8(%rbp), %rax
 236 00f0 C6801807 		movb	$0, 1816(%rax)
 236      000000
 237              	.LBE5:
  34:RecordingReporter.h ****     }
 238              		.loc 4 34 0
 239 00f7 C9       		leave
 240              		.cfi_def_cfa 7, 8
 241 00f8 C3       		ret
 242              		.cfi_endproc
 243              	.LFE1069:
 245              		.weak	_ZN17RecordingReporterC1Ev
 246              		.set	_ZN17RecordingReporterC1Ev,_ZN17RecordingReporterC2Ev
 247              		.section	.text._ZN17RecordingReporter15ReportTestStartERKN8UnitTest11TestDetailsE,"axG",@progbits,
 248              		.align 2
 249              		.weak	_ZN17RecordingReporter15ReportTestStartERKN8UnitTest11TestDetailsE
 251              	_ZN17RecordingReporter15ReportTestStartERKN8UnitTest11TestDetailsE:
 252              	.LFB1071:
  35:RecordingReporter.h **** 
  36:RecordingReporter.h ****     virtual void ReportTestStart(UnitTest::TestDetails const& test)
 253              		.loc 4 36 0
 254              		.cfi_startproc
 255 0000 55       		pushq	%rbp
 256              		.cfi_def_cfa_offset 16
 257              		.cfi_offset 6, -16
 258 0001 4889E5   		movq	%rsp, %rbp
 259              		.cfi_def_cfa_register 6
 260 0004 4883EC10 		subq	$16, %rsp
 261 0008 48897DF8 		movq	%rdi, -8(%rbp)
 262 000c 488975F0 		movq	%rsi, -16(%rbp)
 263              	.LBB6:
  37:RecordingReporter.h ****     {
  38:RecordingReporter.h **** 		using namespace std;
  39:RecordingReporter.h **** 
  40:RecordingReporter.h ****         ++testRunCount;
 264              		.loc 4 40 0
 265 0010 488B45F8 		movq	-8(%rbp), %rax
 266 0014 8B4008   		movl	8(%rax), %eax
 267 0017 8D5001   		leal	1(%rax), %edx
 268 001a 488B45F8 		movq	-8(%rbp), %rax
 269 001e 895008   		movl	%edx, 8(%rax)
  41:RecordingReporter.h ****         strcpy(lastStartedSuite, test.suiteName);
 270              		.loc 4 41 0
 271 0021 488B45F0 		movq	-16(%rbp), %rax
 272 0025 488B00   		movq	(%rax), %rax
 273 0028 488B55F8 		movq	-8(%rbp), %rdx
 274 002c 4883C20C 		addq	$12, %rdx
 275 0030 4889C6   		movq	%rax, %rsi
 276 0033 4889D7   		movq	%rdx, %rdi
 277 0036 E8000000 		call	strcpy
 277      00
  42:RecordingReporter.h ****         strcpy(lastStartedTest, test.testName);
 278              		.loc 4 42 0
 279 003b 488B45F0 		movq	-16(%rbp), %rax
 280 003f 488B4008 		movq	8(%rax), %rax
 281 0043 488B55F8 		movq	-8(%rbp), %rdx
 282 0047 4881C20C 		addq	$268, %rdx
 282      010000
 283 004e 4889C6   		movq	%rax, %rsi
 284 0051 4889D7   		movq	%rdx, %rdi
 285 0054 E8000000 		call	strcpy
 285      00
 286              	.LBE6:
  43:RecordingReporter.h ****     }
 287              		.loc 4 43 0
 288 0059 C9       		leave
 289              		.cfi_def_cfa 7, 8
 290 005a C3       		ret
 291              		.cfi_endproc
 292              	.LFE1071:
 294              		.section	.text._ZN17RecordingReporter13ReportFailureERKN8UnitTest11TestDetailsEPKc,"axG",@progbits
 295              		.align 2
 296              		.weak	_ZN17RecordingReporter13ReportFailureERKN8UnitTest11TestDetailsEPKc
 298              	_ZN17RecordingReporter13ReportFailureERKN8UnitTest11TestDetailsEPKc:
 299              	.LFB1072:
  44:RecordingReporter.h **** 
  45:RecordingReporter.h ****     virtual void ReportFailure(UnitTest::TestDetails const& test, char const* failure)
 300              		.loc 4 45 0
 301              		.cfi_startproc
 302 0000 55       		pushq	%rbp
 303              		.cfi_def_cfa_offset 16
 304              		.cfi_offset 6, -16
 305 0001 4889E5   		movq	%rsp, %rbp
 306              		.cfi_def_cfa_register 6
 307 0004 4883EC20 		subq	$32, %rsp
 308 0008 48897DF8 		movq	%rdi, -8(%rbp)
 309 000c 488975F0 		movq	%rsi, -16(%rbp)
 310 0010 488955E8 		movq	%rdx, -24(%rbp)
 311              	.LBB7:
  46:RecordingReporter.h ****     {
  47:RecordingReporter.h **** 		using namespace std;
  48:RecordingReporter.h **** 
  49:RecordingReporter.h **** 		++testFailedCount;
 312              		.loc 4 49 0
 313 0014 488B45F8 		movq	-8(%rbp), %rax
 314 0018 8B800C02 		movl	524(%rax), %eax
 314      0000
 315 001e 8D5001   		leal	1(%rax), %edx
 316 0021 488B45F8 		movq	-8(%rbp), %rax
 317 0025 89900C02 		movl	%edx, 524(%rax)
 317      0000
  50:RecordingReporter.h ****         strcpy(lastFailedFile, test.filename);
 318              		.loc 4 50 0
 319 002b 488B45F0 		movq	-16(%rbp), %rax
 320 002f 488B4010 		movq	16(%rax), %rax
 321 0033 488B55F8 		movq	-8(%rbp), %rdx
 322 0037 4881C210 		addq	$528, %rdx
 322      020000
 323 003e 4889C6   		movq	%rax, %rsi
 324 0041 4889D7   		movq	%rdx, %rdi
 325 0044 E8000000 		call	strcpy
 325      00
  51:RecordingReporter.h ****         lastFailedLine = test.lineNumber;
 326              		.loc 4 51 0
 327 0049 488B45F0 		movq	-16(%rbp), %rax
 328 004d 8B5018   		movl	24(%rax), %edx
 329 0050 488B45F8 		movq	-8(%rbp), %rax
 330 0054 89901003 		movl	%edx, 784(%rax)
 330      0000
  52:RecordingReporter.h ****         strcpy(lastFailedSuite, test.suiteName);
 331              		.loc 4 52 0
 332 005a 488B45F0 		movq	-16(%rbp), %rax
 333 005e 488B00   		movq	(%rax), %rax
 334 0061 488B55F8 		movq	-8(%rbp), %rdx
 335 0065 4881C214 		addq	$788, %rdx
 335      030000
 336 006c 4889C6   		movq	%rax, %rsi
 337 006f 4889D7   		movq	%rdx, %rdi
 338 0072 E8000000 		call	strcpy
 338      00
  53:RecordingReporter.h ****         strcpy(lastFailedTest, test.testName);
 339              		.loc 4 53 0
 340 0077 488B45F0 		movq	-16(%rbp), %rax
 341 007b 488B4008 		movq	8(%rax), %rax
 342 007f 488B55F8 		movq	-8(%rbp), %rdx
 343 0083 4881C214 		addq	$1044, %rdx
 343      040000
 344 008a 4889C6   		movq	%rax, %rsi
 345 008d 4889D7   		movq	%rdx, %rdi
 346 0090 E8000000 		call	strcpy
 346      00
  54:RecordingReporter.h ****         strcpy(lastFailedMessage, failure);
 347              		.loc 4 54 0
 348 0095 488B45F8 		movq	-8(%rbp), %rax
 349 0099 488D9014 		leaq	1300(%rax), %rdx
 349      050000
 350 00a0 488B45E8 		movq	-24(%rbp), %rax
 351 00a4 4889C6   		movq	%rax, %rsi
 352 00a7 4889D7   		movq	%rdx, %rdi
 353 00aa E8000000 		call	strcpy
 353      00
 354              	.LBE7:
  55:RecordingReporter.h ****     }
 355              		.loc 4 55 0
 356 00af C9       		leave
 357              		.cfi_def_cfa 7, 8
 358 00b0 C3       		ret
 359              		.cfi_endproc
 360              	.LFE1072:
 362              		.section	.text._ZN17RecordingReporter16ReportTestFinishERKN8UnitTest11TestDetailsEf,"axG",@progbit
 363              		.align 2
 364              		.weak	_ZN17RecordingReporter16ReportTestFinishERKN8UnitTest11TestDetailsEf
 366              	_ZN17RecordingReporter16ReportTestFinishERKN8UnitTest11TestDetailsEf:
 367              	.LFB1073:
  56:RecordingReporter.h **** 
  57:RecordingReporter.h ****     virtual void ReportTestFinish(UnitTest::TestDetails const& test, float testDuration)
 368              		.loc 4 57 0
 369              		.cfi_startproc
 370 0000 55       		pushq	%rbp
 371              		.cfi_def_cfa_offset 16
 372              		.cfi_offset 6, -16
 373 0001 4889E5   		movq	%rsp, %rbp
 374              		.cfi_def_cfa_register 6
 375 0004 4883EC20 		subq	$32, %rsp
 376 0008 48897DF8 		movq	%rdi, -8(%rbp)
 377 000c 488975F0 		movq	%rsi, -16(%rbp)
 378 0010 F30F1145 		movss	%xmm0, -20(%rbp)
 378      EC
 379              	.LBB8:
  58:RecordingReporter.h ****     {
  59:RecordingReporter.h **** 		using namespace std;
  60:RecordingReporter.h **** 
  61:RecordingReporter.h **** 		++testFinishedCount;
 380              		.loc 4 61 0
 381 0015 488B45F8 		movq	-8(%rbp), %rax
 382 0019 8B801406 		movl	1556(%rax), %eax
 382      0000
 383 001f 8D5001   		leal	1(%rax), %edx
 384 0022 488B45F8 		movq	-8(%rbp), %rax
 385 0026 89901406 		movl	%edx, 1556(%rax)
 385      0000
  62:RecordingReporter.h ****         strcpy(lastFinishedSuite, test.suiteName);
 386              		.loc 4 62 0
 387 002c 488B45F0 		movq	-16(%rbp), %rax
 388 0030 488B00   		movq	(%rax), %rax
 389 0033 488B55F8 		movq	-8(%rbp), %rdx
 390 0037 4881C218 		addq	$1560, %rdx
 390      060000
 391 003e 4889C6   		movq	%rax, %rsi
 392 0041 4889D7   		movq	%rdx, %rdi
 393 0044 E8000000 		call	strcpy
 393      00
  63:RecordingReporter.h ****         strcpy(lastFinishedTest, test.testName);
 394              		.loc 4 63 0
 395 0049 488B45F0 		movq	-16(%rbp), %rax
 396 004d 488B4008 		movq	8(%rax), %rax
 397 0051 488B55F8 		movq	-8(%rbp), %rdx
 398 0055 4881C218 		addq	$1816, %rdx
 398      070000
 399 005c 4889C6   		movq	%rax, %rsi
 400 005f 4889D7   		movq	%rdx, %rdi
 401 0062 E8000000 		call	strcpy
 401      00
  64:RecordingReporter.h ****         lastFinishedTestTime = testDuration;
 402              		.loc 4 64 0
 403 0067 488B55F8 		movq	-8(%rbp), %rdx
 404 006b 8B45EC   		movl	-20(%rbp), %eax
 405 006e 89821808 		movl	%eax, 2072(%rdx)
 405      0000
 406              	.LBE8:
  65:RecordingReporter.h ****     }
 407              		.loc 4 65 0
 408 0074 C9       		leave
 409              		.cfi_def_cfa 7, 8
 410 0075 C3       		ret
 411              		.cfi_endproc
 412              	.LFE1073:
 414              		.section	.text._ZN17RecordingReporter13ReportSummaryEiiif,"axG",@progbits,_ZN17RecordingReporter13
 415              		.align 2
 416              		.weak	_ZN17RecordingReporter13ReportSummaryEiiif
 418              	_ZN17RecordingReporter13ReportSummaryEiiif:
 419              	.LFB1074:
  66:RecordingReporter.h **** 
  67:RecordingReporter.h ****     virtual void ReportSummary(int totalTestCount, int failedTestCount, int failureCount, float sec
 420              		.loc 4 67 0
 421              		.cfi_startproc
 422 0000 55       		pushq	%rbp
 423              		.cfi_def_cfa_offset 16
 424              		.cfi_offset 6, -16
 425 0001 4889E5   		movq	%rsp, %rbp
 426              		.cfi_def_cfa_register 6
 427 0004 48897DF8 		movq	%rdi, -8(%rbp)
 428 0008 8975F4   		movl	%esi, -12(%rbp)
 429 000b 8955F0   		movl	%edx, -16(%rbp)
 430 000e 894DEC   		movl	%ecx, -20(%rbp)
 431 0011 F30F1145 		movss	%xmm0, -24(%rbp)
 431      E8
  68:RecordingReporter.h ****     {
  69:RecordingReporter.h ****         summaryTotalTestCount = totalTestCount;
 432              		.loc 4 69 0
 433 0016 488B45F8 		movq	-8(%rbp), %rax
 434 001a 8B55F4   		movl	-12(%rbp), %edx
 435 001d 89901C08 		movl	%edx, 2076(%rax)
 435      0000
  70:RecordingReporter.h ****         summaryFailedTestCount = failedTestCount;
 436              		.loc 4 70 0
 437 0023 488B45F8 		movq	-8(%rbp), %rax
 438 0027 8B55F0   		movl	-16(%rbp), %edx
 439 002a 89902008 		movl	%edx, 2080(%rax)
 439      0000
  71:RecordingReporter.h ****         summaryFailureCount = failureCount;
 440              		.loc 4 71 0
 441 0030 488B45F8 		movq	-8(%rbp), %rax
 442 0034 8B55EC   		movl	-20(%rbp), %edx
 443 0037 89902408 		movl	%edx, 2084(%rax)
 443      0000
  72:RecordingReporter.h ****         summarySecondsElapsed = secondsElapsed;
 444              		.loc 4 72 0
 445 003d 488B55F8 		movq	-8(%rbp), %rdx
 446 0041 8B45E8   		movl	-24(%rbp), %eax
 447 0044 89822808 		movl	%eax, 2088(%rdx)
 447      0000
  73:RecordingReporter.h ****     }
 448              		.loc 4 73 0
 449 004a 5D       		popq	%rbp
 450              		.cfi_def_cfa 7, 8
 451 004b C3       		ret
 452              		.cfi_endproc
 453              	.LFE1074:
 455              		.section	.text._ZN17ScopedCurrentTestC2ERN8UnitTest11TestResultsEPKNS0_11TestDetailsE,"axG",@progb
 456              		.align 2
 457              		.weak	_ZN17ScopedCurrentTestC2ERN8UnitTest11TestResultsEPKNS0_11TestDetailsE
 459              	_ZN17ScopedCurrentTestC2ERN8UnitTest11TestResultsEPKNS0_11TestDetailsE:
 460              	.LFB1079:
 461              		.file 5 "ScopedCurrentTest.h"
   1:ScopedCurrentTest.h **** #ifndef UNITTEST_SCOPEDCURRENTTEST_H
   2:ScopedCurrentTest.h **** #define UNITTEST_SCOPEDCURRENTTEST_H
   3:ScopedCurrentTest.h **** 
   4:ScopedCurrentTest.h **** #include "../CurrentTest.h"
   5:ScopedCurrentTest.h **** #include <cstddef>
   6:ScopedCurrentTest.h **** 
   7:ScopedCurrentTest.h **** class ScopedCurrentTest
   8:ScopedCurrentTest.h **** {
   9:ScopedCurrentTest.h **** public:
  10:ScopedCurrentTest.h **** 	ScopedCurrentTest()
  11:ScopedCurrentTest.h **** 		: m_oldTestResults(UnitTest::CurrentTest::Results())
  12:ScopedCurrentTest.h **** 		, m_oldTestDetails(UnitTest::CurrentTest::Details())
  13:ScopedCurrentTest.h **** 	{
  14:ScopedCurrentTest.h **** 	}
  15:ScopedCurrentTest.h **** 
  16:ScopedCurrentTest.h **** 	explicit ScopedCurrentTest(UnitTest::TestResults& newResults, const UnitTest::TestDetails* newDeta
 462              		.loc 5 16 0
 463              		.cfi_startproc
 464 0000 55       		pushq	%rbp
 465              		.cfi_def_cfa_offset 16
 466              		.cfi_offset 6, -16
 467 0001 4889E5   		movq	%rsp, %rbp
 468              		.cfi_def_cfa_register 6
 469 0004 4883EC20 		subq	$32, %rsp
 470 0008 48897DF8 		movq	%rdi, -8(%rbp)
 471 000c 488975F0 		movq	%rsi, -16(%rbp)
 472 0010 488955E8 		movq	%rdx, -24(%rbp)
 473              	.LBB9:
  17:ScopedCurrentTest.h **** 		: m_oldTestResults(UnitTest::CurrentTest::Results())
 474              		.loc 5 17 0
 475 0014 E8000000 		call	_ZN8UnitTest11CurrentTest7ResultsEv
 475      00
  18:ScopedCurrentTest.h **** 		, m_oldTestDetails(UnitTest::CurrentTest::Details())
 476              		.loc 5 18 0
 477 0019 488B10   		movq	(%rax), %rdx
 478 001c 488B45F8 		movq	-8(%rbp), %rax
 479 0020 488910   		movq	%rdx, (%rax)
 480 0023 E8000000 		call	_ZN8UnitTest11CurrentTest7DetailsEv
 480      00
 481 0028 488B10   		movq	(%rax), %rdx
 482 002b 488B45F8 		movq	-8(%rbp), %rax
 483 002f 48895008 		movq	%rdx, 8(%rax)
  19:ScopedCurrentTest.h **** 	{
  20:ScopedCurrentTest.h **** 		UnitTest::CurrentTest::Results() = &newResults;
 484              		.loc 5 20 0
 485 0033 E8000000 		call	_ZN8UnitTest11CurrentTest7ResultsEv
 485      00
 486 0038 4889C2   		movq	%rax, %rdx
 487 003b 488B45F0 		movq	-16(%rbp), %rax
 488 003f 488902   		movq	%rax, (%rdx)
  21:ScopedCurrentTest.h **** 
  22:ScopedCurrentTest.h **** 		if (newDetails != NULL)
 489              		.loc 5 22 0
 490 0042 48837DE8 		cmpq	$0, -24(%rbp)
 490      00
 491 0047 740F     		je	.L15
  23:ScopedCurrentTest.h **** 			UnitTest::CurrentTest::Details() = newDetails;
 492              		.loc 5 23 0
 493 0049 E8000000 		call	_ZN8UnitTest11CurrentTest7DetailsEv
 493      00
 494 004e 4889C2   		movq	%rax, %rdx
 495 0051 488B45E8 		movq	-24(%rbp), %rax
 496 0055 488902   		movq	%rax, (%rdx)
 497              	.L15:
 498              	.LBE9:
  24:ScopedCurrentTest.h **** 	}
 499              		.loc 5 24 0
 500 0058 C9       		leave
 501              		.cfi_def_cfa 7, 8
 502 0059 C3       		ret
 503              		.cfi_endproc
 504              	.LFE1079:
 506              		.weak	_ZN17ScopedCurrentTestC1ERN8UnitTest11TestResultsEPKNS0_11TestDetailsE
 507              		.set	_ZN17ScopedCurrentTestC1ERN8UnitTest11TestResultsEPKNS0_11TestDetailsE,_ZN17ScopedCurrentTest
 508              		.section	.text._ZN17ScopedCurrentTestD2Ev,"axG",@progbits,_ZN17ScopedCurrentTestD5Ev,comdat
 509              		.align 2
 510              		.weak	_ZN17ScopedCurrentTestD2Ev
 512              	_ZN17ScopedCurrentTestD2Ev:
 513              	.LFB1082:
  25:ScopedCurrentTest.h **** 
  26:ScopedCurrentTest.h **** 	~ScopedCurrentTest()
 514              		.loc 5 26 0
 515              		.cfi_startproc
 516 0000 55       		pushq	%rbp
 517              		.cfi_def_cfa_offset 16
 518              		.cfi_offset 6, -16
 519 0001 4889E5   		movq	%rsp, %rbp
 520              		.cfi_def_cfa_register 6
 521 0004 4883EC10 		subq	$16, %rsp
 522 0008 48897DF8 		movq	%rdi, -8(%rbp)
 523              	.LBB10:
  27:ScopedCurrentTest.h **** 	{
  28:ScopedCurrentTest.h **** 		UnitTest::CurrentTest::Results() = m_oldTestResults;
 524              		.loc 5 28 0
 525 000c E8000000 		call	_ZN8UnitTest11CurrentTest7ResultsEv
 525      00
 526 0011 4889C2   		movq	%rax, %rdx
 527 0014 488B45F8 		movq	-8(%rbp), %rax
 528 0018 488B00   		movq	(%rax), %rax
 529 001b 488902   		movq	%rax, (%rdx)
  29:ScopedCurrentTest.h **** 		UnitTest::CurrentTest::Details() = m_oldTestDetails;
 530              		.loc 5 29 0
 531 001e E8000000 		call	_ZN8UnitTest11CurrentTest7DetailsEv
 531      00
 532 0023 4889C2   		movq	%rax, %rdx
 533 0026 488B45F8 		movq	-8(%rbp), %rax
 534 002a 488B4008 		movq	8(%rax), %rax
 535 002e 488902   		movq	%rax, (%rdx)
 536              	.LBE10:
  30:ScopedCurrentTest.h **** 	}
 537              		.loc 5 30 0
 538 0031 C9       		leave
 539              		.cfi_def_cfa 7, 8
 540 0032 C3       		ret
 541              		.cfi_endproc
 542              	.LFE1082:
 544              		.weak	_ZN17ScopedCurrentTestD1Ev
 545              		.set	_ZN17ScopedCurrentTestD1Ev,_ZN17ScopedCurrentTestD2Ev
 546              		.section	.rodata
 547              	.LC2:
 548 000d 54657374 		.string	"TestTimeConstraint.cpp"
 548      54696D65 
 548      436F6E73 
 548      74726169 
 548      6E742E63 
 549 0024 00000000 		.align 8
 550              	.LC3:
 551 0028 54696D65 		.string	"TimeConstraintSucceedsWithFastTest"
 551      436F6E73 
 551      74726169 
 551      6E745375 
 551      63636565 
 552              		.text
 553              		.align 2
 555              	_ZN12_GLOBAL__N_138TestTimeConstraintSucceedsWithFastTestC2Ev:
 556              	.LFB1085:
 557              		.file 6 "TestTimeConstraint.cpp"
   1:TestTimeConstraint.cpp **** #include "../UnitTest++.h"
   2:TestTimeConstraint.cpp **** #include "../TestResults.h"
   3:TestTimeConstraint.cpp **** #include "../TimeHelpers.h"
   4:TestTimeConstraint.cpp **** #include "RecordingReporter.h"
   5:TestTimeConstraint.cpp **** #include "ScopedCurrentTest.h"
   6:TestTimeConstraint.cpp **** 
   7:TestTimeConstraint.cpp **** using namespace UnitTest;
   8:TestTimeConstraint.cpp **** 
   9:TestTimeConstraint.cpp **** namespace
  10:TestTimeConstraint.cpp **** {
  11:TestTimeConstraint.cpp **** 
  12:TestTimeConstraint.cpp **** TEST(TimeConstraintSucceedsWithFastTest)
 558              		.loc 6 12 0
 559              		.cfi_startproc
 560 0000 55       		pushq	%rbp
 561              		.cfi_def_cfa_offset 16
 562              		.cfi_offset 6, -16
 563 0001 4889E5   		movq	%rsp, %rbp
 564              		.cfi_def_cfa_register 6
 565 0004 4883EC10 		subq	$16, %rsp
 566 0008 48897DF8 		movq	%rdi, -8(%rbp)
 567              	.LBB11:
 568              		.loc 6 12 0
 569 000c E8000000 		call	_ZN13UnitTestSuite12GetSuiteNameEv
 569      00
 570 0011 4889C2   		movq	%rax, %rdx
 571 0014 488B45F8 		movq	-8(%rbp), %rax
 572 0018 41B80C00 		movl	$12, %r8d
 572      0000
 573 001e B9000000 		movl	$.LC2, %ecx
 573      00
 574 0023 BE000000 		movl	$.LC3, %esi
 574      00
 575 0028 4889C7   		movq	%rax, %rdi
 576 002b E8000000 		call	_ZN8UnitTest4TestC2EPKcS2_S2_i
 576      00
 577 0030 488B45F8 		movq	-8(%rbp), %rax
 578 0034 48C70000 		movq	$_ZTVN12_GLOBAL__N_138TestTimeConstraintSucceedsWithFastTestE+16, (%rax)
 578      000000
 579              	.LBE11:
 580 003b C9       		leave
 581              		.cfi_def_cfa 7, 8
 582 003c C3       		ret
 583              		.cfi_endproc
 584              	.LFE1085:
 586              		.local	_ZN12_GLOBAL__N_146testTimeConstraintSucceedsWithFastTestInstanceE
 587              		.comm	_ZN12_GLOBAL__N_146testTimeConstraintSucceedsWithFastTestInstanceE,56,32
 588              		.local	_ZN12_GLOBAL__N_139adderTimeConstraintSucceedsWithFastTestE
 589              		.comm	_ZN12_GLOBAL__N_139adderTimeConstraintSucceedsWithFastTestE,1,1
 590              		.section	.rodata
 591              	.LC4:
 592 004b 00       		.string	""
 593 004c 00000000 		.align 8
 594              	.LC5:
 595 0050 556E6861 		.string	"Unhandled exception in CHECK_EQUAL(0, result.GetFailureCount())"
 595      6E646C65 
 595      64206578 
 595      63657074 
 595      696F6E20 
 596              		.text
 597 003d 90       		.align 2
 599              	_ZNK12_GLOBAL__N_138TestTimeConstraintSucceedsWithFastTest7RunImplEv:
 600              	.LFB1087:
  13:TestTimeConstraint.cpp **** {
 601              		.loc 6 13 0
 602              		.cfi_startproc
 603              		.cfi_personality 0x3,__gxx_personality_v0
 604              		.cfi_lsda 0x3,.LLSDA1087
 605 003e 55       		pushq	%rbp
 606              		.cfi_def_cfa_offset 16
 607              		.cfi_offset 6, -16
 608 003f 4889E5   		movq	%rsp, %rbp
 609              		.cfi_def_cfa_register 6
 610 0042 53       		pushq	%rbx
 611 0043 4881EC98 		subq	$152, %rsp
 611      000000
 612              		.cfi_offset 3, -24
 613 004a 4889BD68 		movq	%rdi, -152(%rbp)
 613      FFFFFF
 614              		.loc 6 13 0
 615 0051 64488B04 		movq	%fs:40, %rax
 615      25280000 
 615      00
 616 005a 488945E8 		movq	%rax, -24(%rbp)
 617 005e 31C0     		xorl	%eax, %eax
 618              	.LBB12:
  14:TestTimeConstraint.cpp ****     TestResults result;
 619              		.loc 6 14 0
 620 0060 488D4580 		leaq	-128(%rbp), %rax
 621 0064 BE000000 		movl	$0, %esi
 621      00
 622 0069 4889C7   		movq	%rax, %rdi
 623              	.LEHB4:
 624 006c E8000000 		call	_ZN8UnitTest11TestResultsC1EPNS_12TestReporterE
 624      00
 625              	.LBB13:
  15:TestTimeConstraint.cpp ****     {
  16:TestTimeConstraint.cpp **** 		ScopedCurrentTest scopedResult(result);
 626              		.loc 6 16 0
 627 0071 488D4D80 		leaq	-128(%rbp), %rcx
 628 0075 488D8570 		leaq	-144(%rbp), %rax
 628      FFFFFF
 629 007c BA000000 		movl	$0, %edx
 629      00
 630 0081 4889CE   		movq	%rcx, %rsi
 631 0084 4889C7   		movq	%rax, %rdi
 632 0087 E8000000 		call	_ZN17ScopedCurrentTestC1ERN8UnitTest11TestResultsEPKNS0_11TestDetailsE
 632      00
 633              	.LEHE4:
  17:TestTimeConstraint.cpp ****         TimeConstraint t(200, TestDetails("", "", "", 0));
 634              		.loc 6 17 0
 635 008c 488D45C0 		leaq	-64(%rbp), %rax
 636 0090 41B80000 		movl	$0, %r8d
 636      0000
 637 0096 B9000000 		movl	$.LC4, %ecx
 637      00
 638 009b BA000000 		movl	$.LC4, %edx
 638      00
 639 00a0 BE000000 		movl	$.LC4, %esi
 639      00
 640 00a5 4889C7   		movq	%rax, %rdi
 641              	.LEHB5:
 642 00a8 E8000000 		call	_ZN8UnitTest11TestDetailsC1EPKcS2_S2_i
 642      00
 643              		.loc 6 17 0 is_stmt 0 discriminator 1
 644 00ad 488D55C0 		leaq	-64(%rbp), %rdx
 645 00b1 488D45A0 		leaq	-96(%rbp), %rax
 646 00b5 BEC80000 		movl	$200, %esi
 646      00
 647 00ba 4889C7   		movq	%rax, %rdi
 648 00bd E8000000 		call	_ZN8UnitTest14TimeConstraintC1EiRKNS_11TestDetailsE
 648      00
 649              	.LEHE5:
  18:TestTimeConstraint.cpp ****         TimeHelpers::SleepMs(5);
 650              		.loc 6 18 0 is_stmt 1 discriminator 3
 651 00c2 BF050000 		movl	$5, %edi
 651      00
 652              	.LEHB6:
 653 00c7 E8000000 		call	_ZN8UnitTest11TimeHelpers7SleepMsEi
 653      00
 654              	.LEHE6:
  17:TestTimeConstraint.cpp ****         TimeConstraint t(200, TestDetails("", "", "", 0));
 655              		.loc 6 17 0
 656 00cc 488D45A0 		leaq	-96(%rbp), %rax
 657 00d0 4889C7   		movq	%rax, %rdi
 658              	.LEHB7:
 659 00d3 E8000000 		call	_ZN8UnitTest14TimeConstraintD1Ev
 659      00
 660              	.LEHE7:
 661              		.loc 6 18 0
 662 00d8 488D8570 		leaq	-144(%rbp), %rax
 662      FFFFFF
 663 00df 4889C7   		movq	%rax, %rdi
 664              	.LEHB8:
 665 00e2 E8000000 		call	_ZN17ScopedCurrentTestD1Ev
 665      00
 666              	.LEHE8:
 667              	.LEHB9:
 668              	.LBE13:
  19:TestTimeConstraint.cpp ****     }
  20:TestTimeConstraint.cpp ****     CHECK_EQUAL(0, result.GetFailureCount());
 669              		.loc 6 20 0
 670 00e7 E8000000 		call	_ZN8UnitTest11CurrentTest7DetailsEv
 670      00
 671 00ec 488B08   		movq	(%rax), %rcx
 672 00ef 488D45C0 		leaq	-64(%rbp), %rax
 673 00f3 BA140000 		movl	$20, %edx
 673      00
 674 00f8 4889CE   		movq	%rcx, %rsi
 675 00fb 4889C7   		movq	%rax, %rdi
 676 00fe E8000000 		call	_ZN8UnitTest11TestDetailsC1ERKS0_i
 676      00
 677              		.loc 6 20 0 is_stmt 0 discriminator 2
 678 0103 488D4580 		leaq	-128(%rbp), %rax
 679 0107 4889C7   		movq	%rax, %rdi
 680 010a E8000000 		call	_ZNK8UnitTest11TestResults15GetFailureCountEv
 680      00
 681 010f 8945A0   		movl	%eax, -96(%rbp)
 682 0112 C78570FF 		movl	$0, -144(%rbp)
 682      FFFF0000 
 682      0000
 683 011c E8000000 		call	_ZN8UnitTest11CurrentTest7ResultsEv
 683      00
 684              		.loc 6 20 0 discriminator 4
 685 0121 488B00   		movq	(%rax), %rax
 686 0124 488D4DC0 		leaq	-64(%rbp), %rcx
 687 0128 488D55A0 		leaq	-96(%rbp), %rdx
 688 012c 488DB570 		leaq	-144(%rbp), %rsi
 688      FFFFFF
 689 0133 4889C7   		movq	%rax, %rdi
 690 0136 E8000000 		call	_ZN8UnitTest10CheckEqualIiiEEvRNS_11TestResultsERKT_RKT0_RKNS_11TestDetailsE
 690      00
 691              	.LEHE9:
 692              	.LBE12:
  21:TestTimeConstraint.cpp **** }
 693              		.loc 6 21 0 is_stmt 1
 694 013b E9860000 		jmp	.L31
 694      00
 695              	.L28:
 696 0140 4889C3   		movq	%rax, %rbx
 697              	.LBB15:
 698              	.LBB14:
  17:TestTimeConstraint.cpp ****         TimeHelpers::SleepMs(5);
 699              		.loc 6 17 0
 700 0143 488D45A0 		leaq	-96(%rbp), %rax
 701 0147 4889C7   		movq	%rax, %rdi
 702 014a E8000000 		call	_ZN8UnitTest14TimeConstraintD1Ev
 702      00
 703 014f EB03     		jmp	.L22
 704              	.L27:
 705 0151 4889C3   		movq	%rax, %rbx
 706              	.L22:
  18:TestTimeConstraint.cpp ****     }
 707              		.loc 6 18 0
 708 0154 488D8570 		leaq	-144(%rbp), %rax
 708      FFFFFF
 709 015b 4889C7   		movq	%rax, %rdi
 710 015e E8000000 		call	_ZN17ScopedCurrentTestD1Ev
 710      00
 711 0163 4889D8   		movq	%rbx, %rax
 712 0166 4889C7   		movq	%rax, %rdi
 713              	.LEHB10:
 714 0169 E8000000 		call	_Unwind_Resume
 714      00
 715              	.LEHE10:
 716              	.L30:
 717 016e 4889C3   		movq	%rax, %rbx
 718              	.LBE14:
  20:TestTimeConstraint.cpp **** }
 719              		.loc 6 20 0
 720 0171 E8000000 		call	__cxa_end_catch
 720      00
 721 0176 4889D8   		movq	%rbx, %rax
 722 0179 4889C7   		movq	%rax, %rdi
 723              	.LEHB11:
 724 017c E8000000 		call	_Unwind_Resume
 724      00
 725              	.LEHE11:
 726              	.L29:
 727 0181 4889C7   		movq	%rax, %rdi
 728 0184 E8000000 		call	__cxa_begin_catch
 728      00
 729              	.LEHB12:
 730 0189 E8000000 		call	_ZN8UnitTest11CurrentTest7DetailsEv
 730      00
 731 018e 488B08   		movq	(%rax), %rcx
 732 0191 488D45C0 		leaq	-64(%rbp), %rax
 733 0195 BA140000 		movl	$20, %edx
 733      00
 734 019a 4889CE   		movq	%rcx, %rsi
 735 019d 4889C7   		movq	%rax, %rdi
 736 01a0 E8000000 		call	_ZN8UnitTest11TestDetailsC1ERKS0_i
 736      00
  20:TestTimeConstraint.cpp **** }
 737              		.loc 6 20 0 is_stmt 0 discriminator 12
 738 01a5 E8000000 		call	_ZN8UnitTest11CurrentTest7ResultsEv
 738      00
 739 01aa 488B00   		movq	(%rax), %rax
 740 01ad 488D4DC0 		leaq	-64(%rbp), %rcx
 741 01b1 BA000000 		movl	$.LC5, %edx
 741      00
 742 01b6 4889CE   		movq	%rcx, %rsi
 743 01b9 4889C7   		movq	%rax, %rdi
 744 01bc E8000000 		call	_ZN8UnitTest11TestResults13OnTestFailureERKNS_11TestDetailsEPKc
 744      00
 745              	.LEHE12:
 746              	.LEHB13:
  20:TestTimeConstraint.cpp **** }
 747              		.loc 6 20 0 discriminator 16
 748 01c1 E8000000 		call	__cxa_end_catch
 748      00
 749              	.LEHE13:
 750              	.L31:
 751              	.LBE15:
 752              		.loc 6 21 0 is_stmt 1
 753 01c6 90       		nop
 754 01c7 488B45E8 		movq	-24(%rbp), %rax
 755 01cb 64483304 		xorq	%fs:40, %rax
 755      25280000 
 755      00
 756 01d4 7405     		je	.L26
 757 01d6 E8000000 		call	__stack_chk_fail
 757      00
 758              	.L26:
 759 01db 4881C498 		addq	$152, %rsp
 759      000000
 760 01e2 5B       		popq	%rbx
 761 01e3 5D       		popq	%rbp
 762              		.cfi_def_cfa 7, 8
 763 01e4 C3       		ret
 764              		.cfi_endproc
 765              	.LFE1087:
 766              		.section	.gcc_except_table,"a",@progbits
 767              		.align 4
 768              	.LLSDA1087:
 769 0000 FF       		.byte	0xff
 770 0001 03       		.byte	0x3
 771 0002 3D       		.uleb128 .LLSDATT1087-.LLSDATTD1087
 772              	.LLSDATTD1087:
 773 0003 01       		.byte	0x1
 774 0004 35       		.uleb128 .LLSDACSE1087-.LLSDACSB1087
 775              	.LLSDACSB1087:
 776 0005 2E       		.uleb128 .LEHB4-.LFB1087
 777 0006 20       		.uleb128 .LEHE4-.LEHB4
 778 0007 00       		.uleb128 0
 779 0008 00       		.uleb128 0
 780 0009 6A       		.uleb128 .LEHB5-.LFB1087
 781 000a 1A       		.uleb128 .LEHE5-.LEHB5
 782 000b 9302     		.uleb128 .L27-.LFB1087
 783 000d 00       		.uleb128 0
 784 000e 8901     		.uleb128 .LEHB6-.LFB1087
 785 0010 05       		.uleb128 .LEHE6-.LEHB6
 786 0011 8202     		.uleb128 .L28-.LFB1087
 787 0013 00       		.uleb128 0
 788 0014 9501     		.uleb128 .LEHB7-.LFB1087
 789 0016 05       		.uleb128 .LEHE7-.LEHB7
 790 0017 9302     		.uleb128 .L27-.LFB1087
 791 0019 00       		.uleb128 0
 792 001a A401     		.uleb128 .LEHB8-.LFB1087
 793 001c 05       		.uleb128 .LEHE8-.LEHB8
 794 001d 00       		.uleb128 0
 795 001e 00       		.uleb128 0
 796 001f A901     		.uleb128 .LEHB9-.LFB1087
 797 0021 54       		.uleb128 .LEHE9-.LEHB9
 798 0022 C302     		.uleb128 .L29-.LFB1087
 799 0024 01       		.uleb128 0x1
 800 0025 AB02     		.uleb128 .LEHB10-.LFB1087
 801 0027 05       		.uleb128 .LEHE10-.LEHB10
 802 0028 00       		.uleb128 0
 803 0029 00       		.uleb128 0
 804 002a BE02     		.uleb128 .LEHB11-.LFB1087
 805 002c 05       		.uleb128 .LEHE11-.LEHB11
 806 002d 00       		.uleb128 0
 807 002e 00       		.uleb128 0
 808 002f CB02     		.uleb128 .LEHB12-.LFB1087
 809 0031 38       		.uleb128 .LEHE12-.LEHB12
 810 0032 B002     		.uleb128 .L30-.LFB1087
 811 0034 00       		.uleb128 0
 812 0035 8303     		.uleb128 .LEHB13-.LFB1087
 813 0037 05       		.uleb128 .LEHE13-.LEHB13
 814 0038 00       		.uleb128 0
 815 0039 00       		.uleb128 0
 816              	.LLSDACSE1087:
 817 003a 01       		.byte	0x1
 818 003b 00       		.byte	0
 819              		.align 4
 820 003c 00000000 		.long	0
 821              	
 822              	.LLSDATT1087:
 823              		.text
 825              		.section	.rodata
 826              		.align 8
 827              	.LC6:
 828 0090 54696D65 		.string	"TimeConstraintFailsWithSlowTest"
 828      436F6E73 
 828      74726169 
 828      6E744661 
 828      696C7357 
 829              		.text
 830 01e5 90       		.align 2
 832              	_ZN12_GLOBAL__N_135TestTimeConstraintFailsWithSlowTestC2Ev:
 833              	.LFB1089:
  22:TestTimeConstraint.cpp **** 
  23:TestTimeConstraint.cpp **** TEST(TimeConstraintFailsWithSlowTest)
 834              		.loc 6 23 0
 835              		.cfi_startproc
 836 01e6 55       		pushq	%rbp
 837              		.cfi_def_cfa_offset 16
 838              		.cfi_offset 6, -16
 839 01e7 4889E5   		movq	%rsp, %rbp
 840              		.cfi_def_cfa_register 6
 841 01ea 4883EC10 		subq	$16, %rsp
 842 01ee 48897DF8 		movq	%rdi, -8(%rbp)
 843              	.LBB16:
 844              		.loc 6 23 0
 845 01f2 E8000000 		call	_ZN13UnitTestSuite12GetSuiteNameEv
 845      00
 846 01f7 4889C2   		movq	%rax, %rdx
 847 01fa 488B45F8 		movq	-8(%rbp), %rax
 848 01fe 41B81700 		movl	$23, %r8d
 848      0000
 849 0204 B9000000 		movl	$.LC2, %ecx
 849      00
 850 0209 BE000000 		movl	$.LC6, %esi
 850      00
 851 020e 4889C7   		movq	%rax, %rdi
 852 0211 E8000000 		call	_ZN8UnitTest4TestC2EPKcS2_S2_i
 852      00
 853 0216 488B45F8 		movq	-8(%rbp), %rax
 854 021a 48C70000 		movq	$_ZTVN12_GLOBAL__N_135TestTimeConstraintFailsWithSlowTestE+16, (%rax)
 854      000000
 855              	.LBE16:
 856 0221 C9       		leave
 857              		.cfi_def_cfa 7, 8
 858 0222 C3       		ret
 859              		.cfi_endproc
 860              	.LFE1089:
 862              		.local	_ZN12_GLOBAL__N_143testTimeConstraintFailsWithSlowTestInstanceE
 863              		.comm	_ZN12_GLOBAL__N_143testTimeConstraintFailsWithSlowTestInstanceE,56,32
 864              		.local	_ZN12_GLOBAL__N_136adderTimeConstraintFailsWithSlowTestE
 865              		.comm	_ZN12_GLOBAL__N_136adderTimeConstraintFailsWithSlowTestE,1,1
 866              		.section	.rodata
 867              		.align 8
 868              	.LC7:
 869 00b0 556E6861 		.string	"Unhandled exception in CHECK_EQUAL(1, result.GetFailureCount())"
 869      6E646C65 
 869      64206578 
 869      63657074 
 869      696F6E20 
 870              		.text
 871 0223 90       		.align 2
 873              	_ZNK12_GLOBAL__N_135TestTimeConstraintFailsWithSlowTest7RunImplEv:
 874              	.LFB1091:
  24:TestTimeConstraint.cpp **** {
 875              		.loc 6 24 0
 876              		.cfi_startproc
 877              		.cfi_personality 0x3,__gxx_personality_v0
 878              		.cfi_lsda 0x3,.LLSDA1091
 879 0224 55       		pushq	%rbp
 880              		.cfi_def_cfa_offset 16
 881              		.cfi_offset 6, -16
 882 0225 4889E5   		movq	%rsp, %rbp
 883              		.cfi_def_cfa_register 6
 884 0228 53       		pushq	%rbx
 885 0229 4881EC98 		subq	$152, %rsp
 885      000000
 886              		.cfi_offset 3, -24
 887 0230 4889BD68 		movq	%rdi, -152(%rbp)
 887      FFFFFF
 888              		.loc 6 24 0
 889 0237 64488B04 		movq	%fs:40, %rax
 889      25280000 
 889      00
 890 0240 488945E8 		movq	%rax, -24(%rbp)
 891 0244 31C0     		xorl	%eax, %eax
 892              	.LBB17:
  25:TestTimeConstraint.cpp ****     TestResults result;
 893              		.loc 6 25 0
 894 0246 488D4580 		leaq	-128(%rbp), %rax
 895 024a BE000000 		movl	$0, %esi
 895      00
 896 024f 4889C7   		movq	%rax, %rdi
 897              	.LEHB14:
 898 0252 E8000000 		call	_ZN8UnitTest11TestResultsC1EPNS_12TestReporterE
 898      00
 899              	.LBB18:
  26:TestTimeConstraint.cpp ****     {
  27:TestTimeConstraint.cpp **** 		ScopedCurrentTest scopedResult(result);
 900              		.loc 6 27 0
 901 0257 488D4D80 		leaq	-128(%rbp), %rcx
 902 025b 488D8570 		leaq	-144(%rbp), %rax
 902      FFFFFF
 903 0262 BA000000 		movl	$0, %edx
 903      00
 904 0267 4889CE   		movq	%rcx, %rsi
 905 026a 4889C7   		movq	%rax, %rdi
 906 026d E8000000 		call	_ZN17ScopedCurrentTestC1ERN8UnitTest11TestResultsEPKNS0_11TestDetailsE
 906      00
 907              	.LEHE14:
  28:TestTimeConstraint.cpp ****         TimeConstraint t(10, TestDetails("", "", "", 0));
 908              		.loc 6 28 0
 909 0272 488D45C0 		leaq	-64(%rbp), %rax
 910 0276 41B80000 		movl	$0, %r8d
 910      0000
 911 027c B9000000 		movl	$.LC4, %ecx
 911      00
 912 0281 BA000000 		movl	$.LC4, %edx
 912      00
 913 0286 BE000000 		movl	$.LC4, %esi
 913      00
 914 028b 4889C7   		movq	%rax, %rdi
 915              	.LEHB15:
 916 028e E8000000 		call	_ZN8UnitTest11TestDetailsC1EPKcS2_S2_i
 916      00
 917              		.loc 6 28 0 is_stmt 0 discriminator 1
 918 0293 488D55C0 		leaq	-64(%rbp), %rdx
 919 0297 488D45A0 		leaq	-96(%rbp), %rax
 920 029b BE0A0000 		movl	$10, %esi
 920      00
 921 02a0 4889C7   		movq	%rax, %rdi
 922 02a3 E8000000 		call	_ZN8UnitTest14TimeConstraintC1EiRKNS_11TestDetailsE
 922      00
 923              	.LEHE15:
  29:TestTimeConstraint.cpp ****         TimeHelpers::SleepMs(20);
 924              		.loc 6 29 0 is_stmt 1 discriminator 3
 925 02a8 BF140000 		movl	$20, %edi
 925      00
 926              	.LEHB16:
 927 02ad E8000000 		call	_ZN8UnitTest11TimeHelpers7SleepMsEi
 927      00
 928              	.LEHE16:
  28:TestTimeConstraint.cpp ****         TimeConstraint t(10, TestDetails("", "", "", 0));
 929              		.loc 6 28 0
 930 02b2 488D45A0 		leaq	-96(%rbp), %rax
 931 02b6 4889C7   		movq	%rax, %rdi
 932              	.LEHB17:
 933 02b9 E8000000 		call	_ZN8UnitTest14TimeConstraintD1Ev
 933      00
 934              	.LEHE17:
 935              		.loc 6 29 0
 936 02be 488D8570 		leaq	-144(%rbp), %rax
 936      FFFFFF
 937 02c5 4889C7   		movq	%rax, %rdi
 938              	.LEHB18:
 939 02c8 E8000000 		call	_ZN17ScopedCurrentTestD1Ev
 939      00
 940              	.LEHE18:
 941              	.LEHB19:
 942              	.LBE18:
  30:TestTimeConstraint.cpp ****     }
  31:TestTimeConstraint.cpp ****     CHECK_EQUAL(1, result.GetFailureCount());
 943              		.loc 6 31 0
 944 02cd E8000000 		call	_ZN8UnitTest11CurrentTest7DetailsEv
 944      00
 945 02d2 488B08   		movq	(%rax), %rcx
 946 02d5 488D45C0 		leaq	-64(%rbp), %rax
 947 02d9 BA1F0000 		movl	$31, %edx
 947      00
 948 02de 4889CE   		movq	%rcx, %rsi
 949 02e1 4889C7   		movq	%rax, %rdi
 950 02e4 E8000000 		call	_ZN8UnitTest11TestDetailsC1ERKS0_i
 950      00
 951              		.loc 6 31 0 is_stmt 0 discriminator 2
 952 02e9 488D4580 		leaq	-128(%rbp), %rax
 953 02ed 4889C7   		movq	%rax, %rdi
 954 02f0 E8000000 		call	_ZNK8UnitTest11TestResults15GetFailureCountEv
 954      00
 955 02f5 8945A0   		movl	%eax, -96(%rbp)
 956 02f8 C78570FF 		movl	$1, -144(%rbp)
 956      FFFF0100 
 956      0000
 957 0302 E8000000 		call	_ZN8UnitTest11CurrentTest7ResultsEv
 957      00
 958              		.loc 6 31 0 discriminator 4
 959 0307 488B00   		movq	(%rax), %rax
 960 030a 488D4DC0 		leaq	-64(%rbp), %rcx
 961 030e 488D55A0 		leaq	-96(%rbp), %rdx
 962 0312 488DB570 		leaq	-144(%rbp), %rsi
 962      FFFFFF
 963 0319 4889C7   		movq	%rax, %rdi
 964 031c E8000000 		call	_ZN8UnitTest10CheckEqualIiiEEvRNS_11TestResultsERKT_RKT0_RKNS_11TestDetailsE
 964      00
 965              	.LEHE19:
 966              	.LBE17:
  32:TestTimeConstraint.cpp **** }
 967              		.loc 6 32 0 is_stmt 1
 968 0321 E9860000 		jmp	.L44
 968      00
 969              	.L41:
 970 0326 4889C3   		movq	%rax, %rbx
 971              	.LBB20:
 972              	.LBB19:
  28:TestTimeConstraint.cpp ****         TimeHelpers::SleepMs(20);
 973              		.loc 6 28 0
 974 0329 488D45A0 		leaq	-96(%rbp), %rax
 975 032d 4889C7   		movq	%rax, %rdi
 976 0330 E8000000 		call	_ZN8UnitTest14TimeConstraintD1Ev
 976      00
 977 0335 EB03     		jmp	.L35
 978              	.L40:
 979 0337 4889C3   		movq	%rax, %rbx
 980              	.L35:
  29:TestTimeConstraint.cpp ****     }
 981              		.loc 6 29 0
 982 033a 488D8570 		leaq	-144(%rbp), %rax
 982      FFFFFF
 983 0341 4889C7   		movq	%rax, %rdi
 984 0344 E8000000 		call	_ZN17ScopedCurrentTestD1Ev
 984      00
 985 0349 4889D8   		movq	%rbx, %rax
 986 034c 4889C7   		movq	%rax, %rdi
 987              	.LEHB20:
 988 034f E8000000 		call	_Unwind_Resume
 988      00
 989              	.LEHE20:
 990              	.L43:
 991 0354 4889C3   		movq	%rax, %rbx
 992              	.LBE19:
  31:TestTimeConstraint.cpp **** }
 993              		.loc 6 31 0
 994 0357 E8000000 		call	__cxa_end_catch
 994      00
 995 035c 4889D8   		movq	%rbx, %rax
 996 035f 4889C7   		movq	%rax, %rdi
 997              	.LEHB21:
 998 0362 E8000000 		call	_Unwind_Resume
 998      00
 999              	.LEHE21:
 1000              	.L42:
 1001 0367 4889C7   		movq	%rax, %rdi
 1002 036a E8000000 		call	__cxa_begin_catch
 1002      00
 1003              	.LEHB22:
 1004 036f E8000000 		call	_ZN8UnitTest11CurrentTest7DetailsEv
 1004      00
 1005 0374 488B08   		movq	(%rax), %rcx
 1006 0377 488D45C0 		leaq	-64(%rbp), %rax
 1007 037b BA1F0000 		movl	$31, %edx
 1007      00
 1008 0380 4889CE   		movq	%rcx, %rsi
 1009 0383 4889C7   		movq	%rax, %rdi
 1010 0386 E8000000 		call	_ZN8UnitTest11TestDetailsC1ERKS0_i
 1010      00
  31:TestTimeConstraint.cpp **** }
 1011              		.loc 6 31 0 is_stmt 0 discriminator 12
 1012 038b E8000000 		call	_ZN8UnitTest11CurrentTest7ResultsEv
 1012      00
 1013 0390 488B00   		movq	(%rax), %rax
 1014 0393 488D4DC0 		leaq	-64(%rbp), %rcx
 1015 0397 BA000000 		movl	$.LC7, %edx
 1015      00
 1016 039c 4889CE   		movq	%rcx, %rsi
 1017 039f 4889C7   		movq	%rax, %rdi
 1018 03a2 E8000000 		call	_ZN8UnitTest11TestResults13OnTestFailureERKNS_11TestDetailsEPKc
 1018      00
 1019              	.LEHE22:
 1020              	.LEHB23:
  31:TestTimeConstraint.cpp **** }
 1021              		.loc 6 31 0 discriminator 16
 1022 03a7 E8000000 		call	__cxa_end_catch
 1022      00
 1023              	.LEHE23:
 1024              	.L44:
 1025              	.LBE20:
 1026              		.loc 6 32 0 is_stmt 1
 1027 03ac 90       		nop
 1028 03ad 488B45E8 		movq	-24(%rbp), %rax
 1029 03b1 64483304 		xorq	%fs:40, %rax
 1029      25280000 
 1029      00
 1030 03ba 7405     		je	.L39
 1031 03bc E8000000 		call	__stack_chk_fail
 1031      00
 1032              	.L39:
 1033 03c1 4881C498 		addq	$152, %rsp
 1033      000000
 1034 03c8 5B       		popq	%rbx
 1035 03c9 5D       		popq	%rbp
 1036              		.cfi_def_cfa 7, 8
 1037 03ca C3       		ret
 1038              		.cfi_endproc
 1039              	.LFE1091:
 1040              		.section	.gcc_except_table
 1041              		.align 4
 1042              	.LLSDA1091:
 1043 0040 FF       		.byte	0xff
 1044 0041 03       		.byte	0x3
 1045 0042 3D       		.uleb128 .LLSDATT1091-.LLSDATTD1091
 1046              	.LLSDATTD1091:
 1047 0043 01       		.byte	0x1
 1048 0044 35       		.uleb128 .LLSDACSE1091-.LLSDACSB1091
 1049              	.LLSDACSB1091:
 1050 0045 2E       		.uleb128 .LEHB14-.LFB1091
 1051 0046 20       		.uleb128 .LEHE14-.LEHB14
 1052 0047 00       		.uleb128 0
 1053 0048 00       		.uleb128 0
 1054 0049 6A       		.uleb128 .LEHB15-.LFB1091
 1055 004a 1A       		.uleb128 .LEHE15-.LEHB15
 1056 004b 9302     		.uleb128 .L40-.LFB1091
 1057 004d 00       		.uleb128 0
 1058 004e 8901     		.uleb128 .LEHB16-.LFB1091
 1059 0050 05       		.uleb128 .LEHE16-.LEHB16
 1060 0051 8202     		.uleb128 .L41-.LFB1091
 1061 0053 00       		.uleb128 0
 1062 0054 9501     		.uleb128 .LEHB17-.LFB1091
 1063 0056 05       		.uleb128 .LEHE17-.LEHB17
 1064 0057 9302     		.uleb128 .L40-.LFB1091
 1065 0059 00       		.uleb128 0
 1066 005a A401     		.uleb128 .LEHB18-.LFB1091
 1067 005c 05       		.uleb128 .LEHE18-.LEHB18
 1068 005d 00       		.uleb128 0
 1069 005e 00       		.uleb128 0
 1070 005f A901     		.uleb128 .LEHB19-.LFB1091
 1071 0061 54       		.uleb128 .LEHE19-.LEHB19
 1072 0062 C302     		.uleb128 .L42-.LFB1091
 1073 0064 01       		.uleb128 0x1
 1074 0065 AB02     		.uleb128 .LEHB20-.LFB1091
 1075 0067 05       		.uleb128 .LEHE20-.LEHB20
 1076 0068 00       		.uleb128 0
 1077 0069 00       		.uleb128 0
 1078 006a BE02     		.uleb128 .LEHB21-.LFB1091
 1079 006c 05       		.uleb128 .LEHE21-.LEHB21
 1080 006d 00       		.uleb128 0
 1081 006e 00       		.uleb128 0
 1082 006f CB02     		.uleb128 .LEHB22-.LFB1091
 1083 0071 38       		.uleb128 .LEHE22-.LEHB22
 1084 0072 B002     		.uleb128 .L43-.LFB1091
 1085 0074 00       		.uleb128 0
 1086 0075 8303     		.uleb128 .LEHB23-.LFB1091
 1087 0077 05       		.uleb128 .LEHE23-.LEHB23
 1088 0078 00       		.uleb128 0
 1089 0079 00       		.uleb128 0
 1090              	.LLSDACSE1091:
 1091 007a 01       		.byte	0x1
 1092 007b 00       		.byte	0
 1093              		.align 4
 1094 007c 00000000 		.long	0
 1095              	
 1096              	.LLSDATT1091:
 1097              		.text
 1099              		.section	.rodata
 1100              		.align 8
 1101              	.LC8:
 1102 00f0 54696D65 		.string	"TimeConstraintFailureIncludesCorrectData"
 1102      436F6E73 
 1102      74726169 
 1102      6E744661 
 1102      696C7572 
 1103              		.text
 1104 03cb 90       		.align 2
 1106              	_ZN12_GLOBAL__N_144TestTimeConstraintFailureIncludesCorrectDataC2Ev:
 1107              	.LFB1093:
  33:TestTimeConstraint.cpp **** 
  34:TestTimeConstraint.cpp **** TEST(TimeConstraintFailureIncludesCorrectData)
 1108              		.loc 6 34 0
 1109              		.cfi_startproc
 1110 03cc 55       		pushq	%rbp
 1111              		.cfi_def_cfa_offset 16
 1112              		.cfi_offset 6, -16
 1113 03cd 4889E5   		movq	%rsp, %rbp
 1114              		.cfi_def_cfa_register 6
 1115 03d0 4883EC10 		subq	$16, %rsp
 1116 03d4 48897DF8 		movq	%rdi, -8(%rbp)
 1117              	.LBB21:
 1118              		.loc 6 34 0
 1119 03d8 E8000000 		call	_ZN13UnitTestSuite12GetSuiteNameEv
 1119      00
 1120 03dd 4889C2   		movq	%rax, %rdx
 1121 03e0 488B45F8 		movq	-8(%rbp), %rax
 1122 03e4 41B82200 		movl	$34, %r8d
 1122      0000
 1123 03ea B9000000 		movl	$.LC2, %ecx
 1123      00
 1124 03ef BE000000 		movl	$.LC8, %esi
 1124      00
 1125 03f4 4889C7   		movq	%rax, %rdi
 1126 03f7 E8000000 		call	_ZN8UnitTest4TestC2EPKcS2_S2_i
 1126      00
 1127 03fc 488B45F8 		movq	-8(%rbp), %rax
 1128 0400 48C70000 		movq	$_ZTVN12_GLOBAL__N_144TestTimeConstraintFailureIncludesCorrectDataE+16, (%rax)
 1128      000000
 1129              	.LBE21:
 1130 0407 C9       		leave
 1131              		.cfi_def_cfa 7, 8
 1132 0408 C3       		ret
 1133              		.cfi_endproc
 1134              	.LFE1093:
 1136              		.local	_ZN12_GLOBAL__N_152testTimeConstraintFailureIncludesCorrectDataInstanceE
 1137              		.comm	_ZN12_GLOBAL__N_152testTimeConstraintFailureIncludesCorrectDataInstanceE,56,32
 1138              		.local	_ZN12_GLOBAL__N_145adderTimeConstraintFailureIncludesCorrectDataE
 1139              		.comm	_ZN12_GLOBAL__N_145adderTimeConstraintFailureIncludesCorrectDataE,1,1
 1140              		.section	.rodata
 1141              	.LC9:
 1142 0119 66696C65 		.string	"filename"
 1142      6E616D65 
 1142      00
 1143              	.LC10:
 1144 0122 73756974 		.string	"suitename"
 1144      656E616D 
 1144      6500
 1145              	.LC11:
 1146 012c 74657374 		.string	"testname"
 1146      6E616D65 
 1146      00
 1147 0135 000000   		.align 8
 1148              	.LC12:
 1149 0138 73747273 		.string	"strstr(reporter.lastFailedFile, \"filename\")"
 1149      74722872 
 1149      65706F72 
 1149      7465722E 
 1149      6C617374 
 1150 0164 00000000 		.align 8
 1151              	.LC13:
 1152 0168 73747273 		.string	"strstr(reporter.lastFailedTest, \"testname\")"
 1152      74722872 
 1152      65706F72 
 1152      7465722E 
 1152      6C617374 
 1153 0194 00000000 		.align 8
 1154              	.LC14:
 1155 0198 556E6861 		.string	"Unhandled exception in CHECK(strstr(reporter.lastFailedFile, \"filename\"))"
 1155      6E646C65 
 1155      64206578 
 1155      63657074 
 1155      696F6E20 
 1156 01e2 00000000 		.align 8
 1156      0000
 1157              	.LC15:
 1158 01e8 556E6861 		.string	"Unhandled exception in CHECK_EQUAL(10, reporter.lastFailedLine)"
 1158      6E646C65 
 1158      64206578 
 1158      63657074 
 1158      696F6E20 
 1159              		.align 8
 1160              	.LC16:
 1161 0228 556E6861 		.string	"Unhandled exception in CHECK(strstr(reporter.lastFailedTest, \"testname\"))"
 1161      6E646C65 
 1161      64206578 
 1161      63657074 
 1161      696F6E20 
 1162              		.text
 1163 0409 90       		.align 2
 1165              	_ZNK12_GLOBAL__N_144TestTimeConstraintFailureIncludesCorrectData7RunImplEv:
 1166              	.LFB1095:
  35:TestTimeConstraint.cpp **** {
 1167              		.loc 6 35 0
 1168              		.cfi_startproc
 1169              		.cfi_personality 0x3,__gxx_personality_v0
 1170              		.cfi_lsda 0x3,.LLSDA1095
 1171 040a 55       		pushq	%rbp
 1172              		.cfi_def_cfa_offset 16
 1173              		.cfi_offset 6, -16
 1174 040b 4889E5   		movq	%rsp, %rbp
 1175              		.cfi_def_cfa_register 6
 1176 040e 53       		pushq	%rbx
 1177 040f 4881ECC8 		subq	$2248, %rsp
 1177      080000
 1178              		.cfi_offset 3, -24
 1179 0416 4889BD38 		movq	%rdi, -2248(%rbp)
 1179      F7FFFF
 1180              		.loc 6 35 0
 1181 041d 64488B04 		movq	%fs:40, %rax
 1181      25280000 
 1181      00
 1182 0426 488945E8 		movq	%rax, -24(%rbp)
 1183 042a 31C0     		xorl	%eax, %eax
 1184              	.LBB22:
  36:TestTimeConstraint.cpp ****     RecordingReporter reporter;
 1185              		.loc 6 36 0
 1186 042c 488D85B0 		leaq	-2128(%rbp), %rax
 1186      F7FFFF
 1187 0433 4889C7   		movq	%rax, %rdi
 1188 0436 E8000000 		call	_ZN17RecordingReporterC1Ev
 1188      00
  37:TestTimeConstraint.cpp ****     TestResults result(&reporter);
 1189              		.loc 6 37 0
 1190 043b 488D95B0 		leaq	-2128(%rbp), %rdx
 1190      F7FFFF
 1191 0442 488D8550 		leaq	-2224(%rbp), %rax
 1191      F7FFFF
 1192 0449 4889D6   		movq	%rdx, %rsi
 1193 044c 4889C7   		movq	%rax, %rdi
 1194              	.LEHB24:
 1195 044f E8000000 		call	_ZN8UnitTest11TestResultsC1EPNS_12TestReporterE
 1195      00
 1196              	.LBB23:
  38:TestTimeConstraint.cpp ****     {
  39:TestTimeConstraint.cpp **** 		ScopedCurrentTest scopedResult(result);
 1197              		.loc 6 39 0
 1198 0454 488D8D50 		leaq	-2224(%rbp), %rcx
 1198      F7FFFF
 1199 045b 488D8540 		leaq	-2240(%rbp), %rax
 1199      F7FFFF
 1200 0462 BA000000 		movl	$0, %edx
 1200      00
 1201 0467 4889CE   		movq	%rcx, %rsi
 1202 046a 4889C7   		movq	%rax, %rdi
 1203 046d E8000000 		call	_ZN17ScopedCurrentTestC1ERN8UnitTest11TestResultsEPKNS0_11TestDetailsE
 1203      00
 1204              	.LEHE24:
  40:TestTimeConstraint.cpp **** 
  41:TestTimeConstraint.cpp **** 		TestDetails const details("testname", "suitename", "filename", 10);
 1205              		.loc 6 41 0
 1206 0472 488D8570 		leaq	-2192(%rbp), %rax
 1206      F7FFFF
 1207 0479 41B80A00 		movl	$10, %r8d
 1207      0000
 1208 047f B9000000 		movl	$.LC9, %ecx
 1208      00
 1209 0484 BA000000 		movl	$.LC10, %edx
 1209      00
 1210 0489 BE000000 		movl	$.LC11, %esi
 1210      00
 1211 048e 4889C7   		movq	%rax, %rdi
 1212              	.LEHB25:
 1213 0491 E8000000 		call	_ZN8UnitTest11TestDetailsC1EPKcS2_S2_i
 1213      00
  42:TestTimeConstraint.cpp ****         TimeConstraint t(10, details);
 1214              		.loc 6 42 0
 1215 0496 488D9570 		leaq	-2192(%rbp), %rdx
 1215      F7FFFF
 1216 049d 488D8590 		leaq	-2160(%rbp), %rax
 1216      F7FFFF
 1217 04a4 BE0A0000 		movl	$10, %esi
 1217      00
 1218 04a9 4889C7   		movq	%rax, %rdi
 1219 04ac E8000000 		call	_ZN8UnitTest14TimeConstraintC1EiRKNS_11TestDetailsE
 1219      00
 1220              	.LEHE25:
  43:TestTimeConstraint.cpp ****         TimeHelpers::SleepMs(20);
 1221              		.loc 6 43 0
 1222 04b1 BF140000 		movl	$20, %edi
 1222      00
 1223              	.LEHB26:
 1224 04b6 E8000000 		call	_ZN8UnitTest11TimeHelpers7SleepMsEi
 1224      00
 1225              	.LEHE26:
  42:TestTimeConstraint.cpp ****         TimeConstraint t(10, details);
 1226              		.loc 6 42 0
 1227 04bb 488D8590 		leaq	-2160(%rbp), %rax
 1227      F7FFFF
 1228 04c2 4889C7   		movq	%rax, %rdi
 1229              	.LEHB27:
 1230 04c5 E8000000 		call	_ZN8UnitTest14TimeConstraintD1Ev
 1230      00
 1231              	.LEHE27:
 1232              		.loc 6 43 0
 1233 04ca 488D8540 		leaq	-2240(%rbp), %rax
 1233      F7FFFF
 1234 04d1 4889C7   		movq	%rax, %rdi
 1235              	.LEHB28:
 1236 04d4 E8000000 		call	_ZN17ScopedCurrentTestD1Ev
 1236      00
 1237              	.LEHE28:
 1238              	.LBE23:
  44:TestTimeConstraint.cpp ****     }
  45:TestTimeConstraint.cpp **** 
  46:TestTimeConstraint.cpp **** 	using namespace std;
  47:TestTimeConstraint.cpp **** 
  48:TestTimeConstraint.cpp **** 	CHECK(strstr(reporter.lastFailedFile, "filename"));
 1239              		.loc 6 48 0
 1240 04d9 488D85B0 		leaq	-2128(%rbp), %rax
 1240      F7FFFF
 1241 04e0 48051002 		addq	$528, %rax
 1241      0000
 1242 04e6 BE000000 		movl	$.LC9, %esi
 1242      00
 1243 04eb 4889C7   		movq	%rax, %rdi
 1244 04ee E8000000 		call	strstr
 1244      00
 1245 04f3 4889C7   		movq	%rax, %rdi
 1246 04f6 E8000000 		call	_ZN8UnitTest5CheckIPcEEbT_
 1246      00
 1247 04fb 83F001   		xorl	$1, %eax
 1248 04fe 84C0     		testb	%al, %al
 1249 0500 743E     		je	.L47
 1250              	.LEHB29:
 1251              		.loc 6 48 0 is_stmt 0 discriminator 1
 1252 0502 E8000000 		call	_ZN8UnitTest11CurrentTest7DetailsEv
 1252      00
 1253 0507 488B08   		movq	(%rax), %rcx
 1254 050a 488D8590 		leaq	-2160(%rbp), %rax
 1254      F7FFFF
 1255 0511 BA300000 		movl	$48, %edx
 1255      00
 1256 0516 4889CE   		movq	%rcx, %rsi
 1257 0519 4889C7   		movq	%rax, %rdi
 1258 051c E8000000 		call	_ZN8UnitTest11TestDetailsC1ERKS0_i
 1258      00
 1259              		.loc 6 48 0 discriminator 3
 1260 0521 E8000000 		call	_ZN8UnitTest11CurrentTest7ResultsEv
 1260      00
 1261 0526 488B00   		movq	(%rax), %rax
 1262 0529 488D8D90 		leaq	-2160(%rbp), %rcx
 1262      F7FFFF
 1263 0530 BA000000 		movl	$.LC12, %edx
 1263      00
 1264 0535 4889CE   		movq	%rcx, %rsi
 1265 0538 4889C7   		movq	%rax, %rdi
 1266 053b E8000000 		call	_ZN8UnitTest11TestResults13OnTestFailureERKNS_11TestDetailsEPKc
 1266      00
 1267              	.LEHE29:
 1268              	.L47:
 1269              	.LEHB30:
  49:TestTimeConstraint.cpp ****     CHECK_EQUAL(10, reporter.lastFailedLine);
 1270              		.loc 6 49 0 is_stmt 1
 1271 0540 E8000000 		call	_ZN8UnitTest11CurrentTest7DetailsEv
 1271      00
 1272 0545 488B08   		movq	(%rax), %rcx
 1273 0548 488D8590 		leaq	-2160(%rbp), %rax
 1273      F7FFFF
 1274 054f BA310000 		movl	$49, %edx
 1274      00
 1275 0554 4889CE   		movq	%rcx, %rsi
 1276 0557 4889C7   		movq	%rax, %rdi
 1277 055a E8000000 		call	_ZN8UnitTest11TestDetailsC1ERKS0_i
 1277      00
 1278              		.loc 6 49 0 is_stmt 0 discriminator 2
 1279 055f C78570F7 		movl	$10, -2192(%rbp)
 1279      FFFF0A00 
 1279      0000
 1280 0569 E8000000 		call	_ZN8UnitTest11CurrentTest7ResultsEv
 1280      00
 1281 056e 488B00   		movq	(%rax), %rax
 1282 0571 488D9590 		leaq	-2160(%rbp), %rdx
 1282      F7FFFF
 1283 0578 488D8DB0 		leaq	-2128(%rbp), %rcx
 1283      F7FFFF
 1284 057f 488DB910 		leaq	784(%rcx), %rdi
 1284      030000
 1285 0586 488DB570 		leaq	-2192(%rbp), %rsi
 1285      F7FFFF
 1286 058d 4889D1   		movq	%rdx, %rcx
 1287 0590 4889FA   		movq	%rdi, %rdx
 1288 0593 4889C7   		movq	%rax, %rdi
 1289 0596 E8000000 		call	_ZN8UnitTest10CheckEqualIiiEEvRNS_11TestResultsERKT_RKT0_RKNS_11TestDetailsE
 1289      00
 1290              	.LEHE30:
 1291              	.L56:
  50:TestTimeConstraint.cpp ****     CHECK(strstr(reporter.lastFailedTest, "testname"));
 1292              		.loc 6 50 0 is_stmt 1
 1293 059b 488D85B0 		leaq	-2128(%rbp), %rax
 1293      F7FFFF
 1294 05a2 48051404 		addq	$1044, %rax
 1294      0000
 1295 05a8 BE000000 		movl	$.LC11, %esi
 1295      00
 1296 05ad 4889C7   		movq	%rax, %rdi
 1297 05b0 E8000000 		call	strstr
 1297      00
 1298 05b5 4889C7   		movq	%rax, %rdi
 1299 05b8 E8000000 		call	_ZN8UnitTest5CheckIPcEEbT_
 1299      00
 1300 05bd 83F001   		xorl	$1, %eax
 1301 05c0 84C0     		testb	%al, %al
 1302 05c2 743E     		je	.L48
 1303              	.LEHB31:
 1304              		.loc 6 50 0 is_stmt 0 discriminator 1
 1305 05c4 E8000000 		call	_ZN8UnitTest11CurrentTest7DetailsEv
 1305      00
 1306 05c9 488B08   		movq	(%rax), %rcx
 1307 05cc 488D8590 		leaq	-2160(%rbp), %rax
 1307      F7FFFF
 1308 05d3 BA320000 		movl	$50, %edx
 1308      00
 1309 05d8 4889CE   		movq	%rcx, %rsi
 1310 05db 4889C7   		movq	%rax, %rdi
 1311 05de E8000000 		call	_ZN8UnitTest11TestDetailsC1ERKS0_i
 1311      00
 1312              		.loc 6 50 0 discriminator 4
 1313 05e3 E8000000 		call	_ZN8UnitTest11CurrentTest7ResultsEv
 1313      00
 1314 05e8 488B00   		movq	(%rax), %rax
 1315 05eb 488D8D90 		leaq	-2160(%rbp), %rcx
 1315      F7FFFF
 1316 05f2 BA000000 		movl	$.LC13, %edx
 1316      00
 1317 05f7 4889CE   		movq	%rcx, %rsi
 1318 05fa 4889C7   		movq	%rax, %rdi
 1319 05fd E8000000 		call	_ZN8UnitTest11TestResults13OnTestFailureERKNS_11TestDetailsEPKc
 1319      00
 1320              	.LEHE31:
 1321              	.L48:
 1322              		.loc 6 50 0 discriminator 9
 1323 0602 488D85B0 		leaq	-2128(%rbp), %rax
 1323      F7FFFF
 1324 0609 4889C7   		movq	%rax, %rdi
 1325              	.LEHB32:
 1326 060c E8000000 		call	_ZN17RecordingReporterD1Ev
 1326      00
 1327              	.LEHE32:
 1328              	.LBE22:
  51:TestTimeConstraint.cpp **** }
 1329              		.loc 6 51 0 is_stmt 1 discriminator 9
 1330 0611 488B45E8 		movq	-24(%rbp), %rax
 1331 0615 64483304 		xorq	%fs:40, %rax
 1331      25280000 
 1331      00
 1332 061e 0F846601 		je	.L59
 1332      0000
 1333 0624 E95C0100 		jmp	.L69
 1333      00
 1334              	.L62:
 1335 0629 4889C3   		movq	%rax, %rbx
 1336              	.LBB25:
 1337              	.LBB24:
  42:TestTimeConstraint.cpp ****         TimeHelpers::SleepMs(20);
 1338              		.loc 6 42 0
 1339 062c 488D8590 		leaq	-2160(%rbp), %rax
 1339      F7FFFF
 1340 0633 4889C7   		movq	%rax, %rdi
 1341 0636 E8000000 		call	_ZN8UnitTest14TimeConstraintD1Ev
 1341      00
 1342 063b EB03     		jmp	.L50
 1343              	.L61:
 1344 063d 4889C3   		movq	%rax, %rbx
 1345              	.L50:
  43:TestTimeConstraint.cpp ****     }
 1346              		.loc 6 43 0
 1347 0640 488D8540 		leaq	-2240(%rbp), %rax
 1347      F7FFFF
 1348 0647 4889C7   		movq	%rax, %rdi
 1349 064a E8000000 		call	_ZN17ScopedCurrentTestD1Ev
 1349      00
 1350 064f E9170100 		jmp	.L51
 1350      00
 1351              	.L64:
 1352 0654 4889C3   		movq	%rax, %rbx
 1353              	.LBE24:
  48:TestTimeConstraint.cpp ****     CHECK_EQUAL(10, reporter.lastFailedLine);
 1354              		.loc 6 48 0
 1355 0657 E8000000 		call	__cxa_end_catch
 1355      00
 1356 065c E90A0100 		jmp	.L51
 1356      00
 1357              	.L63:
 1358 0661 4889C7   		movq	%rax, %rdi
 1359 0664 E8000000 		call	__cxa_begin_catch
 1359      00
 1360              	.LEHB33:
 1361 0669 E8000000 		call	_ZN8UnitTest11CurrentTest7DetailsEv
 1361      00
 1362 066e 488B08   		movq	(%rax), %rcx
 1363 0671 488D8590 		leaq	-2160(%rbp), %rax
 1363      F7FFFF
 1364 0678 BA300000 		movl	$48, %edx
 1364      00
 1365 067d 4889CE   		movq	%rcx, %rsi
 1366 0680 4889C7   		movq	%rax, %rdi
 1367 0683 E8000000 		call	_ZN8UnitTest11TestDetailsC1ERKS0_i
 1367      00
  48:TestTimeConstraint.cpp ****     CHECK_EQUAL(10, reporter.lastFailedLine);
 1368              		.loc 6 48 0 is_stmt 0 discriminator 11
 1369 0688 E8000000 		call	_ZN8UnitTest11CurrentTest7ResultsEv
 1369      00
 1370 068d 488B00   		movq	(%rax), %rax
 1371 0690 488D8D90 		leaq	-2160(%rbp), %rcx
 1371      F7FFFF
 1372 0697 BA000000 		movl	$.LC14, %edx
 1372      00
 1373 069c 4889CE   		movq	%rcx, %rsi
 1374 069f 4889C7   		movq	%rax, %rdi
 1375 06a2 E8000000 		call	_ZN8UnitTest11TestResults13OnTestFailureERKNS_11TestDetailsEPKc
 1375      00
 1376              	.LEHE33:
 1377              	.LEHB34:
  48:TestTimeConstraint.cpp ****     CHECK_EQUAL(10, reporter.lastFailedLine);
 1378              		.loc 6 48 0 discriminator 15
 1379 06a7 E8000000 		call	__cxa_end_catch
 1379      00
 1380              	.LEHE34:
  48:TestTimeConstraint.cpp ****     CHECK_EQUAL(10, reporter.lastFailedLine);
 1381              		.loc 6 48 0
 1382 06ac E98FFEFF 		jmp	.L47
 1382      FF
 1383              	.L66:
 1384 06b1 4889C3   		movq	%rax, %rbx
  49:TestTimeConstraint.cpp ****     CHECK(strstr(reporter.lastFailedTest, "testname"));
 1385              		.loc 6 49 0 is_stmt 1
 1386 06b4 E8000000 		call	__cxa_end_catch
 1386      00
 1387 06b9 E9AD0000 		jmp	.L51
 1387      00
 1388              	.L65:
 1389 06be 4889C7   		movq	%rax, %rdi
 1390 06c1 E8000000 		call	__cxa_begin_catch
 1390      00
 1391              	.LEHB35:
 1392 06c6 E8000000 		call	_ZN8UnitTest11CurrentTest7DetailsEv
 1392      00
 1393 06cb 488B08   		movq	(%rax), %rcx
 1394 06ce 488D8590 		leaq	-2160(%rbp), %rax
 1394      F7FFFF
 1395 06d5 BA310000 		movl	$49, %edx
 1395      00
 1396 06da 4889CE   		movq	%rcx, %rsi
 1397 06dd 4889C7   		movq	%rax, %rdi
 1398 06e0 E8000000 		call	_ZN8UnitTest11TestDetailsC1ERKS0_i
 1398      00
  49:TestTimeConstraint.cpp ****     CHECK(strstr(reporter.lastFailedTest, "testname"));
 1399              		.loc 6 49 0 is_stmt 0 discriminator 10
 1400 06e5 E8000000 		call	_ZN8UnitTest11CurrentTest7ResultsEv
 1400      00
 1401 06ea 488B00   		movq	(%rax), %rax
 1402 06ed 488D8D90 		leaq	-2160(%rbp), %rcx
 1402      F7FFFF
 1403 06f4 BA000000 		movl	$.LC15, %edx
 1403      00
 1404 06f9 4889CE   		movq	%rcx, %rsi
 1405 06fc 4889C7   		movq	%rax, %rdi
 1406 06ff E8000000 		call	_ZN8UnitTest11TestResults13OnTestFailureERKNS_11TestDetailsEPKc
 1406      00
 1407              	.LEHE35:
 1408              	.LEHB36:
  49:TestTimeConstraint.cpp ****     CHECK(strstr(reporter.lastFailedTest, "testname"));
 1409              		.loc 6 49 0 discriminator 14
 1410 0704 E8000000 		call	__cxa_end_catch
 1410      00
 1411              	.LEHE36:
  49:TestTimeConstraint.cpp ****     CHECK(strstr(reporter.lastFailedTest, "testname"));
 1412              		.loc 6 49 0
 1413 0709 E98DFEFF 		jmp	.L56
 1413      FF
 1414              	.L68:
 1415 070e 4889C3   		movq	%rax, %rbx
  50:TestTimeConstraint.cpp **** }
 1416              		.loc 6 50 0 is_stmt 1
 1417 0711 E8000000 		call	__cxa_end_catch
 1417      00
 1418 0716 EB53     		jmp	.L51
 1419              	.L67:
 1420 0718 4889C7   		movq	%rax, %rdi
 1421 071b E8000000 		call	__cxa_begin_catch
 1421      00
 1422              	.LEHB37:
 1423 0720 E8000000 		call	_ZN8UnitTest11CurrentTest7DetailsEv
 1423      00
 1424 0725 488B08   		movq	(%rax), %rcx
 1425 0728 488D8590 		leaq	-2160(%rbp), %rax
 1425      F7FFFF
 1426 072f BA320000 		movl	$50, %edx
 1426      00
 1427 0734 4889CE   		movq	%rcx, %rsi
 1428 0737 4889C7   		movq	%rax, %rdi
 1429 073a E8000000 		call	_ZN8UnitTest11TestDetailsC1ERKS0_i
 1429      00
  50:TestTimeConstraint.cpp **** }
 1430              		.loc 6 50 0 is_stmt 0 discriminator 13
 1431 073f E8000000 		call	_ZN8UnitTest11CurrentTest7ResultsEv
 1431      00
 1432 0744 488B00   		movq	(%rax), %rax
 1433 0747 488D8D90 		leaq	-2160(%rbp), %rcx
 1433      F7FFFF
 1434 074e BA000000 		movl	$.LC16, %edx
 1434      00
 1435 0753 4889CE   		movq	%rcx, %rsi
 1436 0756 4889C7   		movq	%rax, %rdi
 1437 0759 E8000000 		call	_ZN8UnitTest11TestResults13OnTestFailureERKNS_11TestDetailsEPKc
 1437      00
 1438              	.LEHE37:
 1439              	.LEHB38:
  50:TestTimeConstraint.cpp **** }
 1440              		.loc 6 50 0 discriminator 17
 1441 075e E8000000 		call	__cxa_end_catch
 1441      00
 1442              	.LEHE38:
  50:TestTimeConstraint.cpp **** }
 1443              		.loc 6 50 0
 1444 0763 E99AFEFF 		jmp	.L48
 1444      FF
 1445              	.L60:
 1446 0768 4889C3   		movq	%rax, %rbx
 1447              	.L51:
  50:TestTimeConstraint.cpp **** }
 1448              		.loc 6 50 0 discriminator 18
 1449 076b 488D85B0 		leaq	-2128(%rbp), %rax
 1449      F7FFFF
 1450 0772 4889C7   		movq	%rax, %rdi
 1451 0775 E8000000 		call	_ZN17RecordingReporterD1Ev
 1451      00
 1452 077a 4889D8   		movq	%rbx, %rax
 1453 077d 4889C7   		movq	%rax, %rdi
 1454              	.LEHB39:
 1455 0780 E8000000 		call	_Unwind_Resume
 1455      00
 1456              	.LEHE39:
 1457              	.L69:
 1458              	.LBE25:
 1459              		.loc 6 51 0 is_stmt 1
 1460 0785 E8000000 		call	__stack_chk_fail
 1460      00
 1461              	.L59:
 1462 078a 4881C4C8 		addq	$2248, %rsp
 1462      080000
 1463 0791 5B       		popq	%rbx
 1464 0792 5D       		popq	%rbp
 1465              		.cfi_def_cfa 7, 8
 1466 0793 C3       		ret
 1467              		.cfi_endproc
 1468              	.LFE1095:
 1469              		.section	.gcc_except_table
 1470              		.align 4
 1471              	.LLSDA1095:
 1472 0080 FF       		.byte	0xff
 1473 0081 03       		.byte	0x3
 1474 0082 65       		.uleb128 .LLSDATT1095-.LLSDATTD1095
 1475              	.LLSDATTD1095:
 1476 0083 01       		.byte	0x1
 1477 0084 5D       		.uleb128 .LLSDACSE1095-.LLSDACSB1095
 1478              	.LLSDACSB1095:
 1479 0085 45       		.uleb128 .LEHB24-.LFB1095
 1480 0086 23       		.uleb128 .LEHE24-.LEHB24
 1481 0087 DE06     		.uleb128 .L60-.LFB1095
 1482 0089 00       		.uleb128 0
 1483 008a 8701     		.uleb128 .LEHB25-.LFB1095
 1484 008c 20       		.uleb128 .LEHE25-.LEHB25
 1485 008d B304     		.uleb128 .L61-.LFB1095
 1486 008f 00       		.uleb128 0
 1487 0090 AC01     		.uleb128 .LEHB26-.LFB1095
 1488 0092 05       		.uleb128 .LEHE26-.LEHB26
 1489 0093 9F04     		.uleb128 .L62-.LFB1095
 1490 0095 00       		.uleb128 0
 1491 0096 BB01     		.uleb128 .LEHB27-.LFB1095
 1492 0098 05       		.uleb128 .LEHE27-.LEHB27
 1493 0099 B304     		.uleb128 .L61-.LFB1095
 1494 009b 00       		.uleb128 0
 1495 009c CA01     		.uleb128 .LEHB28-.LFB1095
 1496 009e 05       		.uleb128 .LEHE28-.LEHB28
 1497 009f DE06     		.uleb128 .L60-.LFB1095
 1498 00a1 00       		.uleb128 0
 1499 00a2 F801     		.uleb128 .LEHB29-.LFB1095
 1500 00a4 3E       		.uleb128 .LEHE29-.LEHB29
 1501 00a5 D704     		.uleb128 .L63-.LFB1095
 1502 00a7 01       		.uleb128 0x1
 1503 00a8 B602     		.uleb128 .LEHB30-.LFB1095
 1504 00aa 5B       		.uleb128 .LEHE30-.LEHB30
 1505 00ab B405     		.uleb128 .L65-.LFB1095
 1506 00ad 01       		.uleb128 0x1
 1507 00ae BA03     		.uleb128 .LEHB31-.LFB1095
 1508 00b0 3E       		.uleb128 .LEHE31-.LEHB31
 1509 00b1 8E06     		.uleb128 .L67-.LFB1095
 1510 00b3 01       		.uleb128 0x1
 1511 00b4 8204     		.uleb128 .LEHB32-.LFB1095
 1512 00b6 05       		.uleb128 .LEHE32-.LEHB32
 1513 00b7 00       		.uleb128 0
 1514 00b8 00       		.uleb128 0
 1515 00b9 DF04     		.uleb128 .LEHB33-.LFB1095
 1516 00bb 3E       		.uleb128 .LEHE33-.LEHB33
 1517 00bc CA04     		.uleb128 .L64-.LFB1095
 1518 00be 00       		.uleb128 0
 1519 00bf 9D05     		.uleb128 .LEHB34-.LFB1095
 1520 00c1 05       		.uleb128 .LEHE34-.LEHB34
 1521 00c2 DE06     		.uleb128 .L60-.LFB1095
 1522 00c4 00       		.uleb128 0
 1523 00c5 BC05     		.uleb128 .LEHB35-.LFB1095
 1524 00c7 3E       		.uleb128 .LEHE35-.LEHB35
 1525 00c8 A705     		.uleb128 .L66-.LFB1095
 1526 00ca 00       		.uleb128 0
 1527 00cb FA05     		.uleb128 .LEHB36-.LFB1095
 1528 00cd 05       		.uleb128 .LEHE36-.LEHB36
 1529 00ce DE06     		.uleb128 .L60-.LFB1095
 1530 00d0 00       		.uleb128 0
 1531 00d1 9606     		.uleb128 .LEHB37-.LFB1095
 1532 00d3 3E       		.uleb128 .LEHE37-.LEHB37
 1533 00d4 8406     		.uleb128 .L68-.LFB1095
 1534 00d6 00       		.uleb128 0
 1535 00d7 D406     		.uleb128 .LEHB38-.LFB1095
 1536 00d9 05       		.uleb128 .LEHE38-.LEHB38
 1537 00da DE06     		.uleb128 .L60-.LFB1095
 1538 00dc 00       		.uleb128 0
 1539 00dd F606     		.uleb128 .LEHB39-.LFB1095
 1540 00df 05       		.uleb128 .LEHE39-.LEHB39
 1541 00e0 00       		.uleb128 0
 1542 00e1 00       		.uleb128 0
 1543              	.LLSDACSE1095:
 1544 00e2 01       		.byte	0x1
 1545 00e3 00       		.byte	0
 1546              		.align 4
 1547 00e4 00000000 		.long	0
 1548              	
 1549              	.LLSDATT1095:
 1550              		.text
 1552              		.section	.rodata
 1553 0272 00000000 		.align 8
 1553      0000
 1554              	.LC17:
 1555 0278 54696D65 		.string	"TimeConstraintFailureIncludesTimeoutInformation"
 1555      436F6E73 
 1555      74726169 
 1555      6E744661 
 1555      696C7572 
 1556              		.text
 1557              		.align 2
 1559              	_ZN12_GLOBAL__N_151TestTimeConstraintFailureIncludesTimeoutInformationC2Ev:
 1560              	.LFB1097:
  52:TestTimeConstraint.cpp **** 
  53:TestTimeConstraint.cpp **** TEST(TimeConstraintFailureIncludesTimeoutInformation)
 1561              		.loc 6 53 0
 1562              		.cfi_startproc
 1563 0794 55       		pushq	%rbp
 1564              		.cfi_def_cfa_offset 16
 1565              		.cfi_offset 6, -16
 1566 0795 4889E5   		movq	%rsp, %rbp
 1567              		.cfi_def_cfa_register 6
 1568 0798 4883EC10 		subq	$16, %rsp
 1569 079c 48897DF8 		movq	%rdi, -8(%rbp)
 1570              	.LBB26:
 1571              		.loc 6 53 0
 1572 07a0 E8000000 		call	_ZN13UnitTestSuite12GetSuiteNameEv
 1572      00
 1573 07a5 4889C2   		movq	%rax, %rdx
 1574 07a8 488B45F8 		movq	-8(%rbp), %rax
 1575 07ac 41B83500 		movl	$53, %r8d
 1575      0000
 1576 07b2 B9000000 		movl	$.LC2, %ecx
 1576      00
 1577 07b7 BE000000 		movl	$.LC17, %esi
 1577      00
 1578 07bc 4889C7   		movq	%rax, %rdi
 1579 07bf E8000000 		call	_ZN8UnitTest4TestC2EPKcS2_S2_i
 1579      00
 1580 07c4 488B45F8 		movq	-8(%rbp), %rax
 1581 07c8 48C70000 		movq	$_ZTVN12_GLOBAL__N_151TestTimeConstraintFailureIncludesTimeoutInformationE+16, (%rax)
 1581      000000
 1582              	.LBE26:
 1583 07cf C9       		leave
 1584              		.cfi_def_cfa 7, 8
 1585 07d0 C3       		ret
 1586              		.cfi_endproc
 1587              	.LFE1097:
 1589              		.local	_ZN12_GLOBAL__N_159testTimeConstraintFailureIncludesTimeoutInformationInstanceE
 1590              		.comm	_ZN12_GLOBAL__N_159testTimeConstraintFailureIncludesTimeoutInformationInstanceE,56,32
 1591              		.local	_ZN12_GLOBAL__N_152adderTimeConstraintFailureIncludesTimeoutInformationE
 1592              		.comm	_ZN12_GLOBAL__N_152adderTimeConstraintFailureIncludesTimeoutInformationE,1,1
 1593              		.section	.rodata
 1594              	.LC18:
 1595 02a8 696D6520 		.string	"ime constraint"
 1595      636F6E73 
 1595      74726169 
 1595      6E7400
 1596 02b7 00       		.align 8
 1597              	.LC19:
 1598 02b8 73747273 		.string	"strstr(reporter.lastFailedMessage, \"ime constraint\")"
 1598      74722872 
 1598      65706F72 
 1598      7465722E 
 1598      6C617374 
 1599              	.LC20:
 1600 02ed 756E6465 		.string	"under 10ms"
 1600      72203130 
 1600      6D7300
 1601              		.align 8
 1602              	.LC21:
 1603 02f8 73747273 		.string	"strstr(reporter.lastFailedMessage, \"under 10ms\")"
 1603      74722872 
 1603      65706F72 
 1603      7465722E 
 1603      6C617374 
 1604 0329 00000000 		.align 8
 1604      000000
 1605              	.LC22:
 1606 0330 556E6861 		.string	"Unhandled exception in CHECK(strstr(reporter.lastFailedMessage, \"ime constraint\"))"
 1606      6E646C65 
 1606      64206578 
 1606      63657074 
 1606      696F6E20 
 1607 0383 00000000 		.align 8
 1607      00
 1608              	.LC23:
 1609 0388 556E6861 		.string	"Unhandled exception in CHECK(strstr(reporter.lastFailedMessage, \"under 10ms\"))"
 1609      6E646C65 
 1609      64206578 
 1609      63657074 
 1609      696F6E20 
 1610              		.text
 1611 07d1 90       		.align 2
 1613              	_ZNK12_GLOBAL__N_151TestTimeConstraintFailureIncludesTimeoutInformation7RunImplEv:
 1614              	.LFB1099:
  54:TestTimeConstraint.cpp **** {
 1615              		.loc 6 54 0
 1616              		.cfi_startproc
 1617              		.cfi_personality 0x3,__gxx_personality_v0
 1618              		.cfi_lsda 0x3,.LLSDA1099
 1619 07d2 55       		pushq	%rbp
 1620              		.cfi_def_cfa_offset 16
 1621              		.cfi_offset 6, -16
 1622 07d3 4889E5   		movq	%rsp, %rbp
 1623              		.cfi_def_cfa_register 6
 1624 07d6 53       		pushq	%rbx
 1625 07d7 4881ECC8 		subq	$2248, %rsp
 1625      080000
 1626              		.cfi_offset 3, -24
 1627 07de 4889BD38 		movq	%rdi, -2248(%rbp)
 1627      F7FFFF
 1628              		.loc 6 54 0
 1629 07e5 64488B04 		movq	%fs:40, %rax
 1629      25280000 
 1629      00
 1630 07ee 488945E8 		movq	%rax, -24(%rbp)
 1631 07f2 31C0     		xorl	%eax, %eax
 1632              	.LBB27:
  55:TestTimeConstraint.cpp ****     RecordingReporter reporter;
 1633              		.loc 6 55 0
 1634 07f4 488D85B0 		leaq	-2128(%rbp), %rax
 1634      F7FFFF
 1635 07fb 4889C7   		movq	%rax, %rdi
 1636 07fe E8000000 		call	_ZN17RecordingReporterC1Ev
 1636      00
  56:TestTimeConstraint.cpp ****     TestResults result(&reporter);
 1637              		.loc 6 56 0
 1638 0803 488D95B0 		leaq	-2128(%rbp), %rdx
 1638      F7FFFF
 1639 080a 488D8550 		leaq	-2224(%rbp), %rax
 1639      F7FFFF
 1640 0811 4889D6   		movq	%rdx, %rsi
 1641 0814 4889C7   		movq	%rax, %rdi
 1642              	.LEHB40:
 1643 0817 E8000000 		call	_ZN8UnitTest11TestResultsC1EPNS_12TestReporterE
 1643      00
 1644              	.LBB28:
  57:TestTimeConstraint.cpp ****     {
  58:TestTimeConstraint.cpp **** 		ScopedCurrentTest scopedResult(result);
 1645              		.loc 6 58 0
 1646 081c 488D8D50 		leaq	-2224(%rbp), %rcx
 1646      F7FFFF
 1647 0823 488D8540 		leaq	-2240(%rbp), %rax
 1647      F7FFFF
 1648 082a BA000000 		movl	$0, %edx
 1648      00
 1649 082f 4889CE   		movq	%rcx, %rsi
 1650 0832 4889C7   		movq	%rax, %rdi
 1651 0835 E8000000 		call	_ZN17ScopedCurrentTestC1ERN8UnitTest11TestResultsEPKNS0_11TestDetailsE
 1651      00
 1652              	.LEHE40:
  59:TestTimeConstraint.cpp ****         TimeConstraint t(10, TestDetails("", "", "", 0));
 1653              		.loc 6 59 0
 1654 083a 488D8590 		leaq	-2160(%rbp), %rax
 1654      F7FFFF
 1655 0841 41B80000 		movl	$0, %r8d
 1655      0000
 1656 0847 B9000000 		movl	$.LC4, %ecx
 1656      00
 1657 084c BA000000 		movl	$.LC4, %edx
 1657      00
 1658 0851 BE000000 		movl	$.LC4, %esi
 1658      00
 1659 0856 4889C7   		movq	%rax, %rdi
 1660              	.LEHB41:
 1661 0859 E8000000 		call	_ZN8UnitTest11TestDetailsC1EPKcS2_S2_i
 1661      00
 1662              		.loc 6 59 0 is_stmt 0 discriminator 1
 1663 085e 488D9590 		leaq	-2160(%rbp), %rdx
 1663      F7FFFF
 1664 0865 488D8570 		leaq	-2192(%rbp), %rax
 1664      F7FFFF
 1665 086c BE0A0000 		movl	$10, %esi
 1665      00
 1666 0871 4889C7   		movq	%rax, %rdi
 1667 0874 E8000000 		call	_ZN8UnitTest14TimeConstraintC1EiRKNS_11TestDetailsE
 1667      00
 1668              	.LEHE41:
  60:TestTimeConstraint.cpp ****         TimeHelpers::SleepMs(20);
 1669              		.loc 6 60 0 is_stmt 1 discriminator 3
 1670 0879 BF140000 		movl	$20, %edi
 1670      00
 1671              	.LEHB42:
 1672 087e E8000000 		call	_ZN8UnitTest11TimeHelpers7SleepMsEi
 1672      00
 1673              	.LEHE42:
  59:TestTimeConstraint.cpp ****         TimeConstraint t(10, TestDetails("", "", "", 0));
 1674              		.loc 6 59 0
 1675 0883 488D8570 		leaq	-2192(%rbp), %rax
 1675      F7FFFF
 1676 088a 4889C7   		movq	%rax, %rdi
 1677              	.LEHB43:
 1678 088d E8000000 		call	_ZN8UnitTest14TimeConstraintD1Ev
 1678      00
 1679              	.LEHE43:
 1680              		.loc 6 60 0
 1681 0892 488D8540 		leaq	-2240(%rbp), %rax
 1681      F7FFFF
 1682 0899 4889C7   		movq	%rax, %rdi
 1683              	.LEHB44:
 1684 089c E8000000 		call	_ZN17ScopedCurrentTestD1Ev
 1684      00
 1685              	.LEHE44:
 1686              	.LBE28:
  61:TestTimeConstraint.cpp ****     }
  62:TestTimeConstraint.cpp **** 
  63:TestTimeConstraint.cpp **** 	using namespace std;
  64:TestTimeConstraint.cpp **** 
  65:TestTimeConstraint.cpp **** 	CHECK(strstr(reporter.lastFailedMessage, "ime constraint"));
 1687              		.loc 6 65 0
 1688 08a1 488D85B0 		leaq	-2128(%rbp), %rax
 1688      F7FFFF
 1689 08a8 48051405 		addq	$1300, %rax
 1689      0000
 1690 08ae BE000000 		movl	$.LC18, %esi
 1690      00
 1691 08b3 4889C7   		movq	%rax, %rdi
 1692 08b6 E8000000 		call	strstr
 1692      00
 1693 08bb 4889C7   		movq	%rax, %rdi
 1694 08be E8000000 		call	_ZN8UnitTest5CheckIPcEEbT_
 1694      00
 1695 08c3 83F001   		xorl	$1, %eax
 1696 08c6 84C0     		testb	%al, %al
 1697 08c8 743E     		je	.L72
 1698              	.LEHB45:
 1699              		.loc 6 65 0 is_stmt 0 discriminator 1
 1700 08ca E8000000 		call	_ZN8UnitTest11CurrentTest7DetailsEv
 1700      00
 1701 08cf 488B08   		movq	(%rax), %rcx
 1702 08d2 488D8590 		leaq	-2160(%rbp), %rax
 1702      F7FFFF
 1703 08d9 BA410000 		movl	$65, %edx
 1703      00
 1704 08de 4889CE   		movq	%rcx, %rsi
 1705 08e1 4889C7   		movq	%rax, %rdi
 1706 08e4 E8000000 		call	_ZN8UnitTest11TestDetailsC1ERKS0_i
 1706      00
 1707              		.loc 6 65 0 discriminator 3
 1708 08e9 E8000000 		call	_ZN8UnitTest11CurrentTest7ResultsEv
 1708      00
 1709 08ee 488B00   		movq	(%rax), %rax
 1710 08f1 488D8D90 		leaq	-2160(%rbp), %rcx
 1710      F7FFFF
 1711 08f8 BA000000 		movl	$.LC19, %edx
 1711      00
 1712 08fd 4889CE   		movq	%rcx, %rsi
 1713 0900 4889C7   		movq	%rax, %rdi
 1714 0903 E8000000 		call	_ZN8UnitTest11TestResults13OnTestFailureERKNS_11TestDetailsEPKc
 1714      00
 1715              	.LEHE45:
 1716              	.L72:
  66:TestTimeConstraint.cpp ****     CHECK(strstr(reporter.lastFailedMessage, "under 10ms"));
 1717              		.loc 6 66 0 is_stmt 1
 1718 0908 488D85B0 		leaq	-2128(%rbp), %rax
 1718      F7FFFF
 1719 090f 48051405 		addq	$1300, %rax
 1719      0000
 1720 0915 BE000000 		movl	$.LC20, %esi
 1720      00
 1721 091a 4889C7   		movq	%rax, %rdi
 1722 091d E8000000 		call	strstr
 1722      00
 1723 0922 4889C7   		movq	%rax, %rdi
 1724 0925 E8000000 		call	_ZN8UnitTest5CheckIPcEEbT_
 1724      00
 1725 092a 83F001   		xorl	$1, %eax
 1726 092d 84C0     		testb	%al, %al
 1727 092f 743E     		je	.L73
 1728              	.LEHB46:
 1729              		.loc 6 66 0 is_stmt 0 discriminator 1
 1730 0931 E8000000 		call	_ZN8UnitTest11CurrentTest7DetailsEv
 1730      00
 1731 0936 488B08   		movq	(%rax), %rcx
 1732 0939 488D8590 		leaq	-2160(%rbp), %rax
 1732      F7FFFF
 1733 0940 BA420000 		movl	$66, %edx
 1733      00
 1734 0945 4889CE   		movq	%rcx, %rsi
 1735 0948 4889C7   		movq	%rax, %rdi
 1736 094b E8000000 		call	_ZN8UnitTest11TestDetailsC1ERKS0_i
 1736      00
 1737              		.loc 6 66 0 discriminator 4
 1738 0950 E8000000 		call	_ZN8UnitTest11CurrentTest7ResultsEv
 1738      00
 1739 0955 488B00   		movq	(%rax), %rax
 1740 0958 488D8D90 		leaq	-2160(%rbp), %rcx
 1740      F7FFFF
 1741 095f BA000000 		movl	$.LC21, %edx
 1741      00
 1742 0964 4889CE   		movq	%rcx, %rsi
 1743 0967 4889C7   		movq	%rax, %rdi
 1744 096a E8000000 		call	_ZN8UnitTest11TestResults13OnTestFailureERKNS_11TestDetailsEPKc
 1744      00
 1745              	.LEHE46:
 1746              	.L73:
 1747              		.loc 6 66 0 discriminator 9
 1748 096f 488D85B0 		leaq	-2128(%rbp), %rax
 1748      F7FFFF
 1749 0976 4889C7   		movq	%rax, %rdi
 1750              	.LEHB47:
 1751 0979 E8000000 		call	_ZN17RecordingReporterD1Ev
 1751      00
 1752              	.LEHE47:
 1753              	.LBE27:
  67:TestTimeConstraint.cpp **** }
 1754              		.loc 6 67 0 is_stmt 1 discriminator 9
 1755 097e 488B45E8 		movq	-24(%rbp), %rax
 1756 0982 64483304 		xorq	%fs:40, %rax
 1756      25280000 
 1756      00
 1757 098b 0F840901 		je	.L81
 1757      0000
 1758 0991 E9FF0000 		jmp	.L89
 1758      00
 1759              	.L84:
 1760 0996 4889C3   		movq	%rax, %rbx
 1761              	.LBB30:
 1762              	.LBB29:
  59:TestTimeConstraint.cpp ****         TimeHelpers::SleepMs(20);
 1763              		.loc 6 59 0
 1764 0999 488D8570 		leaq	-2192(%rbp), %rax
 1764      F7FFFF
 1765 09a0 4889C7   		movq	%rax, %rdi
 1766 09a3 E8000000 		call	_ZN8UnitTest14TimeConstraintD1Ev
 1766      00
 1767 09a8 EB03     		jmp	.L75
 1768              	.L83:
 1769 09aa 4889C3   		movq	%rax, %rbx
 1770              	.L75:
  60:TestTimeConstraint.cpp ****     }
 1771              		.loc 6 60 0
 1772 09ad 488D8540 		leaq	-2240(%rbp), %rax
 1772      F7FFFF
 1773 09b4 4889C7   		movq	%rax, %rdi
 1774 09b7 E8000000 		call	_ZN17ScopedCurrentTestD1Ev
 1774      00
 1775 09bc E9BA0000 		jmp	.L76
 1775      00
 1776              	.L86:
 1777 09c1 4889C3   		movq	%rax, %rbx
 1778              	.LBE29:
  65:TestTimeConstraint.cpp ****     CHECK(strstr(reporter.lastFailedMessage, "under 10ms"));
 1779              		.loc 6 65 0
 1780 09c4 E8000000 		call	__cxa_end_catch
 1780      00
 1781 09c9 E9AD0000 		jmp	.L76
 1781      00
 1782              	.L85:
 1783 09ce 4889C7   		movq	%rax, %rdi
 1784 09d1 E8000000 		call	__cxa_begin_catch
 1784      00
 1785              	.LEHB48:
 1786 09d6 E8000000 		call	_ZN8UnitTest11CurrentTest7DetailsEv
 1786      00
 1787 09db 488B08   		movq	(%rax), %rcx
 1788 09de 488D8590 		leaq	-2160(%rbp), %rax
 1788      F7FFFF
 1789 09e5 BA410000 		movl	$65, %edx
 1789      00
 1790 09ea 4889CE   		movq	%rcx, %rsi
 1791 09ed 4889C7   		movq	%rax, %rdi
 1792 09f0 E8000000 		call	_ZN8UnitTest11TestDetailsC1ERKS0_i
 1792      00
  65:TestTimeConstraint.cpp ****     CHECK(strstr(reporter.lastFailedMessage, "under 10ms"));
 1793              		.loc 6 65 0 is_stmt 0 discriminator 11
 1794 09f5 E8000000 		call	_ZN8UnitTest11CurrentTest7ResultsEv
 1794      00
 1795 09fa 488B00   		movq	(%rax), %rax
 1796 09fd 488D8D90 		leaq	-2160(%rbp), %rcx
 1796      F7FFFF
 1797 0a04 BA000000 		movl	$.LC22, %edx
 1797      00
 1798 0a09 4889CE   		movq	%rcx, %rsi
 1799 0a0c 4889C7   		movq	%rax, %rdi
 1800 0a0f E8000000 		call	_ZN8UnitTest11TestResults13OnTestFailureERKNS_11TestDetailsEPKc
 1800      00
 1801              	.LEHE48:
 1802              	.LEHB49:
  65:TestTimeConstraint.cpp ****     CHECK(strstr(reporter.lastFailedMessage, "under 10ms"));
 1803              		.loc 6 65 0 discriminator 15
 1804 0a14 E8000000 		call	__cxa_end_catch
 1804      00
 1805              	.LEHE49:
  65:TestTimeConstraint.cpp ****     CHECK(strstr(reporter.lastFailedMessage, "under 10ms"));
 1806              		.loc 6 65 0
 1807 0a19 E9EAFEFF 		jmp	.L72
 1807      FF
 1808              	.L88:
 1809 0a1e 4889C3   		movq	%rax, %rbx
  66:TestTimeConstraint.cpp **** }
 1810              		.loc 6 66 0 is_stmt 1
 1811 0a21 E8000000 		call	__cxa_end_catch
 1811      00
 1812 0a26 EB53     		jmp	.L76
 1813              	.L87:
 1814 0a28 4889C7   		movq	%rax, %rdi
 1815 0a2b E8000000 		call	__cxa_begin_catch
 1815      00
 1816              	.LEHB50:
 1817 0a30 E8000000 		call	_ZN8UnitTest11CurrentTest7DetailsEv
 1817      00
 1818 0a35 488B08   		movq	(%rax), %rcx
 1819 0a38 488D8590 		leaq	-2160(%rbp), %rax
 1819      F7FFFF
 1820 0a3f BA420000 		movl	$66, %edx
 1820      00
 1821 0a44 4889CE   		movq	%rcx, %rsi
 1822 0a47 4889C7   		movq	%rax, %rdi
 1823 0a4a E8000000 		call	_ZN8UnitTest11TestDetailsC1ERKS0_i
 1823      00
  66:TestTimeConstraint.cpp **** }
 1824              		.loc 6 66 0 is_stmt 0 discriminator 13
 1825 0a4f E8000000 		call	_ZN8UnitTest11CurrentTest7ResultsEv
 1825      00
 1826 0a54 488B00   		movq	(%rax), %rax
 1827 0a57 488D8D90 		leaq	-2160(%rbp), %rcx
 1827      F7FFFF
 1828 0a5e BA000000 		movl	$.LC23, %edx
 1828      00
 1829 0a63 4889CE   		movq	%rcx, %rsi
 1830 0a66 4889C7   		movq	%rax, %rdi
 1831 0a69 E8000000 		call	_ZN8UnitTest11TestResults13OnTestFailureERKNS_11TestDetailsEPKc
 1831      00
 1832              	.LEHE50:
 1833              	.LEHB51:
  66:TestTimeConstraint.cpp **** }
 1834              		.loc 6 66 0 discriminator 17
 1835 0a6e E8000000 		call	__cxa_end_catch
 1835      00
 1836              	.LEHE51:
  66:TestTimeConstraint.cpp **** }
 1837              		.loc 6 66 0
 1838 0a73 E9F7FEFF 		jmp	.L73
 1838      FF
 1839              	.L82:
 1840 0a78 4889C3   		movq	%rax, %rbx
 1841              	.L76:
  66:TestTimeConstraint.cpp **** }
 1842              		.loc 6 66 0 discriminator 18
 1843 0a7b 488D85B0 		leaq	-2128(%rbp), %rax
 1843      F7FFFF
 1844 0a82 4889C7   		movq	%rax, %rdi
 1845 0a85 E8000000 		call	_ZN17RecordingReporterD1Ev
 1845      00
 1846 0a8a 4889D8   		movq	%rbx, %rax
 1847 0a8d 4889C7   		movq	%rax, %rdi
 1848              	.LEHB52:
 1849 0a90 E8000000 		call	_Unwind_Resume
 1849      00
 1850              	.LEHE52:
 1851              	.L89:
 1852              	.LBE30:
 1853              		.loc 6 67 0 is_stmt 1
 1854 0a95 E8000000 		call	__stack_chk_fail
 1854      00
 1855              	.L81:
 1856 0a9a 4881C4C8 		addq	$2248, %rsp
 1856      080000
 1857 0aa1 5B       		popq	%rbx
 1858 0aa2 5D       		popq	%rbp
 1859              		.cfi_def_cfa 7, 8
 1860 0aa3 C3       		ret
 1861              		.cfi_endproc
 1862              	.LFE1099:
 1863              		.section	.gcc_except_table
 1864              		.align 4
 1865              	.LLSDA1099:
 1866 00e8 FF       		.byte	0xff
 1867 00e9 03       		.byte	0x3
 1868 00ea 55       		.uleb128 .LLSDATT1099-.LLSDATTD1099
 1869              	.LLSDATTD1099:
 1870 00eb 01       		.byte	0x1
 1871 00ec 4B       		.uleb128 .LLSDACSE1099-.LLSDACSB1099
 1872              	.LLSDACSB1099:
 1873 00ed 45       		.uleb128 .LEHB40-.LFB1099
 1874 00ee 23       		.uleb128 .LEHE40-.LEHB40
 1875 00ef A605     		.uleb128 .L82-.LFB1099
 1876 00f1 00       		.uleb128 0
 1877 00f2 8701     		.uleb128 .LEHB41-.LFB1099
 1878 00f4 20       		.uleb128 .LEHE41-.LEHB41
 1879 00f5 D803     		.uleb128 .L83-.LFB1099
 1880 00f7 00       		.uleb128 0
 1881 00f8 AC01     		.uleb128 .LEHB42-.LFB1099
 1882 00fa 05       		.uleb128 .LEHE42-.LEHB42
 1883 00fb C403     		.uleb128 .L84-.LFB1099
 1884 00fd 00       		.uleb128 0
 1885 00fe BB01     		.uleb128 .LEHB43-.LFB1099
 1886 0100 05       		.uleb128 .LEHE43-.LEHB43
 1887 0101 D803     		.uleb128 .L83-.LFB1099
 1888 0103 00       		.uleb128 0
 1889 0104 CA01     		.uleb128 .LEHB44-.LFB1099
 1890 0106 05       		.uleb128 .LEHE44-.LEHB44
 1891 0107 A605     		.uleb128 .L82-.LFB1099
 1892 0109 00       		.uleb128 0
 1893 010a F801     		.uleb128 .LEHB45-.LFB1099
 1894 010c 3E       		.uleb128 .LEHE45-.LEHB45
 1895 010d FC03     		.uleb128 .L85-.LFB1099
 1896 010f 01       		.uleb128 0x1
 1897 0110 DF02     		.uleb128 .LEHB46-.LFB1099
 1898 0112 3E       		.uleb128 .LEHE46-.LEHB46
 1899 0113 D604     		.uleb128 .L87-.LFB1099
 1900 0115 01       		.uleb128 0x1
 1901 0116 A703     		.uleb128 .LEHB47-.LFB1099
 1902 0118 05       		.uleb128 .LEHE47-.LEHB47
 1903 0119 00       		.uleb128 0
 1904 011a 00       		.uleb128 0
 1905 011b 8404     		.uleb128 .LEHB48-.LFB1099
 1906 011d 3E       		.uleb128 .LEHE48-.LEHB48
 1907 011e EF03     		.uleb128 .L86-.LFB1099
 1908 0120 00       		.uleb128 0
 1909 0121 C204     		.uleb128 .LEHB49-.LFB1099
 1910 0123 05       		.uleb128 .LEHE49-.LEHB49
 1911 0124 A605     		.uleb128 .L82-.LFB1099
 1912 0126 00       		.uleb128 0
 1913 0127 DE04     		.uleb128 .LEHB50-.LFB1099
 1914 0129 3E       		.uleb128 .LEHE50-.LEHB50
 1915 012a CC04     		.uleb128 .L88-.LFB1099
 1916 012c 00       		.uleb128 0
 1917 012d 9C05     		.uleb128 .LEHB51-.LFB1099
 1918 012f 05       		.uleb128 .LEHE51-.LEHB51
 1919 0130 A605     		.uleb128 .L82-.LFB1099
 1920 0132 00       		.uleb128 0
 1921 0133 BE05     		.uleb128 .LEHB52-.LFB1099
 1922 0135 05       		.uleb128 .LEHE52-.LEHB52
 1923 0136 00       		.uleb128 0
 1924 0137 00       		.uleb128 0
 1925              	.LLSDACSE1099:
 1926 0138 01       		.byte	0x1
 1927 0139 00       		.byte	0
 1928 013a 0000     		.align 4
 1929 013c 00000000 		.long	0
 1930              	
 1931              	.LLSDATT1099:
 1932              		.text
 1934              		.section	.text._ZN8UnitTest15MemoryOutStreamD1Ev,"axG",@progbits,_ZN8UnitTest15MemoryOutStreamD1Ev
 1935              		.align 2
 1936              		.weak	_ZN8UnitTest15MemoryOutStreamD1Ev
 1938              	_ZN8UnitTest15MemoryOutStreamD1Ev:
 1939              	.LFB1130:
  13:../MemoryOutStream.h **** {
 1940              		.loc 2 13 0
 1941              		.cfi_startproc
 1942              		.cfi_personality 0x3,__gxx_personality_v0
 1943              		.cfi_lsda 0x3,.LLSDA1130
 1944 0000 55       		pushq	%rbp
 1945              		.cfi_def_cfa_offset 16
 1946              		.cfi_offset 6, -16
 1947 0001 4889E5   		movq	%rsp, %rbp
 1948              		.cfi_def_cfa_register 6
 1949 0004 53       		pushq	%rbx
 1950 0005 4883EC18 		subq	$24, %rsp
 1951              		.cfi_offset 3, -24
 1952 0009 48897DE8 		movq	%rdi, -24(%rbp)
 1953              	.LBB31:
  13:../MemoryOutStream.h **** {
 1954              		.loc 2 13 0
 1955 000d BA000000 		movl	$_ZTVN8UnitTest15MemoryOutStreamE+24, %edx
 1955      00
 1956 0012 488B45E8 		movq	-24(%rbp), %rax
 1957 0016 488910   		movq	%rdx, (%rax)
 1958 0019 BA600000 		movl	$96, %edx
 1958      00
 1959 001e 488B45E8 		movq	-24(%rbp), %rax
 1960 0022 4801D0   		addq	%rdx, %rax
 1961 0025 BA000000 		movl	$_ZTVN8UnitTest15MemoryOutStreamE+64, %edx
 1961      00
 1962 002a 488910   		movq	%rdx, (%rax)
 1963 002d 488B45E8 		movq	-24(%rbp), %rax
 1964 0031 4883C058 		addq	$88, %rax
 1965 0035 4889C7   		movq	%rax, %rdi
 1966              	.LEHB53:
 1967 0038 E8000000 		call	_ZNSsD1Ev
 1967      00
 1968              	.LEHE53:
  13:../MemoryOutStream.h **** {
 1969              		.loc 2 13 0 is_stmt 0 discriminator 14
 1970 003d BA000000 		movl	$_ZTTN8UnitTest15MemoryOutStreamE+8, %edx
 1970      00
 1971 0042 488B45E8 		movq	-24(%rbp), %rax
 1972 0046 4889D6   		movq	%rdx, %rsi
 1973 0049 4889C7   		movq	%rax, %rdi
 1974              	.LEHB54:
 1975 004c E8000000 		call	_ZNSt19basic_ostringstreamIcSt11char_traitsIcESaIcEED2Ev
 1975      00
 1976              	.LEHE54:
  13:../MemoryOutStream.h **** {
 1977              		.loc 2 13 0 discriminator 20
 1978 0051 B8020000 		movl	$2, %eax
 1978      00
 1979 0056 85C0     		testl	%eax, %eax
 1980 0058 7410     		je	.L92
  13:../MemoryOutStream.h **** {
 1981              		.loc 2 13 0 discriminator 21
 1982 005a 488B45E8 		movq	-24(%rbp), %rax
 1983 005e 4883C060 		addq	$96, %rax
 1984 0062 4889C7   		movq	%rax, %rdi
 1985              	.LEHB55:
 1986 0065 E8000000 		call	_ZNSt9basic_iosIcSt11char_traitsIcEED2Ev
 1986      00
 1987              	.LEHE55:
 1988              	.L92:
 1989              	.LBE31:
  13:../MemoryOutStream.h **** {
 1990              		.loc 2 13 0 discriminator 24
 1991 006a B8000000 		movl	$0, %eax
 1991      00
 1992 006f 85C0     		testl	%eax, %eax
 1993 0071 744E     		je	.L99
  13:../MemoryOutStream.h **** {
 1994              		.loc 2 13 0 discriminator 25
 1995 0073 488B45E8 		movq	-24(%rbp), %rax
 1996 0077 4889C7   		movq	%rax, %rdi
 1997 007a E8000000 		call	_ZdlPv
 1997      00
 1998 007f EB40     		jmp	.L99
 1999              	.L97:
 2000 0081 4889C3   		movq	%rax, %rbx
 2001              	.LBB32:
  13:../MemoryOutStream.h **** {
 2002              		.loc 2 13 0
 2003 0084 BA000000 		movl	$_ZTTN8UnitTest15MemoryOutStreamE+8, %edx
 2003      00
 2004 0089 488B45E8 		movq	-24(%rbp), %rax
 2005 008d 4889D6   		movq	%rdx, %rsi
 2006 0090 4889C7   		movq	%rax, %rdi
 2007 0093 E8000000 		call	_ZNSt19basic_ostringstreamIcSt11char_traitsIcESaIcEED2Ev
 2007      00
 2008 0098 EB03     		jmp	.L95
 2009              	.L98:
 2010 009a 4889C3   		movq	%rax, %rbx
 2011              	.L95:
  13:../MemoryOutStream.h **** {
 2012              		.loc 2 13 0 discriminator 19
 2013 009d B8020000 		movl	$2, %eax
 2013      00
 2014 00a2 85C0     		testl	%eax, %eax
 2015 00a4 7410     		je	.L96
  13:../MemoryOutStream.h **** {
 2016              		.loc 2 13 0 discriminator 32
 2017 00a6 488B45E8 		movq	-24(%rbp), %rax
 2018 00aa 4883C060 		addq	$96, %rax
 2019 00ae 4889C7   		movq	%rax, %rdi
 2020 00b1 E8000000 		call	_ZNSt9basic_iosIcSt11char_traitsIcEED2Ev
 2020      00
 2021              	.L96:
 2022 00b6 4889D8   		movq	%rbx, %rax
 2023 00b9 4889C7   		movq	%rax, %rdi
 2024              	.LEHB56:
 2025 00bc E8000000 		call	_Unwind_Resume
 2025      00
 2026              	.LEHE56:
 2027              	.L99:
 2028              	.LBE32:
  13:../MemoryOutStream.h **** {
 2029              		.loc 2 13 0
 2030 00c1 4883C418 		addq	$24, %rsp
 2031 00c5 5B       		popq	%rbx
 2032 00c6 5D       		popq	%rbp
 2033              		.cfi_def_cfa 7, 8
 2034 00c7 C3       		ret
 2035              		.cfi_endproc
 2036              	.LFE1130:
 2037              		.section	.gcc_except_table
 2038              	.LLSDA1130:
 2039 0140 FF       		.byte	0xff
 2040 0141 FF       		.byte	0xff
 2041 0142 01       		.byte	0x1
 2042 0143 13       		.uleb128 .LLSDACSE1130-.LLSDACSB1130
 2043              	.LLSDACSB1130:
 2044 0144 38       		.uleb128 .LEHB53-.LFB1130
 2045 0145 05       		.uleb128 .LEHE53-.LEHB53
 2046 0146 8101     		.uleb128 .L97-.LFB1130
 2047 0148 00       		.uleb128 0
 2048 0149 4C       		.uleb128 .LEHB54-.LFB1130
 2049 014a 05       		.uleb128 .LEHE54-.LEHB54
 2050 014b 9A01     		.uleb128 .L98-.LFB1130
 2051 014d 00       		.uleb128 0
 2052 014e 65       		.uleb128 .LEHB55-.LFB1130
 2053 014f 05       		.uleb128 .LEHE55-.LEHB55
 2054 0150 00       		.uleb128 0
 2055 0151 00       		.uleb128 0
 2056 0152 BC01     		.uleb128 .LEHB56-.LFB1130
 2057 0154 05       		.uleb128 .LEHE56-.LEHB56
 2058 0155 00       		.uleb128 0
 2059 0156 00       		.uleb128 0
 2060              	.LLSDACSE1130:
 2061              		.section	.text._ZN8UnitTest15MemoryOutStreamD1Ev,"axG",@progbits,_ZN8UnitTest15MemoryOutStreamD1Ev
 2063              		.set	.LTHUNK0,_ZN8UnitTest15MemoryOutStreamD1Ev
 2064              		.weak	_ZTv0_n24_N8UnitTest15MemoryOutStreamD1Ev
 2066              	_ZTv0_n24_N8UnitTest15MemoryOutStreamD1Ev:
 2067              	.LFB1203:
  13:../MemoryOutStream.h **** {
 2068              		.loc 2 13 0 is_stmt 1
 2069              		.cfi_startproc
 2070 00c8 4C8B17   		movq	(%rdi), %r10
 2071 00cb 49037AE8 		addq	-24(%r10), %rdi
 2072 00cf E92CFFFF 		jmp	.LTHUNK0
 2072      FF
 2073              		.cfi_endproc
 2074              	.LFE1203:
 2076              		.section	.text._ZN8UnitTest15MemoryOutStreamD0Ev,"axG",@progbits,_ZN8UnitTest15MemoryOutStreamD0Ev
 2077              		.align 2
 2078              		.weak	_ZN8UnitTest15MemoryOutStreamD0Ev
 2080              	_ZN8UnitTest15MemoryOutStreamD0Ev:
 2081              	.LFB1131:
  13:../MemoryOutStream.h **** {
 2082              		.loc 2 13 0
 2083              		.cfi_startproc
 2084 0000 55       		pushq	%rbp
 2085              		.cfi_def_cfa_offset 16
 2086              		.cfi_offset 6, -16
 2087 0001 4889E5   		movq	%rsp, %rbp
 2088              		.cfi_def_cfa_register 6
 2089 0004 4883EC10 		subq	$16, %rsp
 2090 0008 48897DF8 		movq	%rdi, -8(%rbp)
  13:../MemoryOutStream.h **** {
 2091              		.loc 2 13 0
 2092 000c 488B45F8 		movq	-8(%rbp), %rax
 2093 0010 4889C7   		movq	%rax, %rdi
 2094 0013 E8000000 		call	_ZN8UnitTest15MemoryOutStreamD1Ev
 2094      00
 2095 0018 488B45F8 		movq	-8(%rbp), %rax
 2096 001c 4889C7   		movq	%rax, %rdi
 2097 001f E8000000 		call	_ZdlPv
 2097      00
 2098 0024 C9       		leave
 2099              		.cfi_def_cfa 7, 8
 2100 0025 C3       		ret
 2101              		.cfi_endproc
 2102              	.LFE1131:
 2104              		.set	.LTHUNK1,_ZN8UnitTest15MemoryOutStreamD0Ev
 2105              		.weak	_ZTv0_n24_N8UnitTest15MemoryOutStreamD0Ev
 2107              	_ZTv0_n24_N8UnitTest15MemoryOutStreamD0Ev:
 2108              	.LFB1204:
  13:../MemoryOutStream.h **** {
 2109              		.loc 2 13 0
 2110              		.cfi_startproc
 2111 0026 4C8B17   		movq	(%rdi), %r10
 2112 0029 49037AE8 		addq	-24(%r10), %rdi
 2113 002d EBD1     		jmp	.LTHUNK1
 2114              		.cfi_endproc
 2115              	.LFE1204:
 2117              		.section	.rodata
 2118              	.LC24:
 2119 03d7 45787065 		.string	"Expected "
 2119      63746564 
 2119      2000
 2120              	.LC25:
 2121 03e1 20627574 		.string	" but was "
 2121      20776173 
 2121      2000
 2122              		.section	.text._ZN8UnitTest10CheckEqualIiiEEvRNS_11TestResultsERKT_RKT0_RKNS_11TestDetailsE,"axG",
 2123              		.weak	_ZN8UnitTest10CheckEqualIiiEEvRNS_11TestResultsERKT_RKT0_RKNS_11TestDetailsE
 2125              	_ZN8UnitTest10CheckEqualIiiEEvRNS_11TestResultsERKT_RKT0_RKNS_11TestDetailsE:
 2126              	.LFB1127:
 2127              		.file 7 "../Checks.h"
   1:../Checks.h   **** #ifndef UNITTEST_CHECKS_H
   2:../Checks.h   **** #define UNITTEST_CHECKS_H
   3:../Checks.h   **** 
   4:../Checks.h   **** #include "Config.h"
   5:../Checks.h   **** #include "TestResults.h"
   6:../Checks.h   **** #include "MemoryOutStream.h"
   7:../Checks.h   **** 
   8:../Checks.h   **** namespace UnitTest {
   9:../Checks.h   **** 
  10:../Checks.h   **** 
  11:../Checks.h   **** template< typename Value >
  12:../Checks.h   **** bool Check(Value const value)
  13:../Checks.h   **** {
  14:../Checks.h   ****     return !!value; // doing double negative to avoid silly VS warnings
  15:../Checks.h   **** }
  16:../Checks.h   **** 
  17:../Checks.h   **** 
  18:../Checks.h   **** template< typename Expected, typename Actual >
  19:../Checks.h   **** void CheckEqual(TestResults& results, Expected const& expected, Actual const& actual, TestDetails c
 2128              		.loc 7 19 0
 2129              		.cfi_startproc
 2130              		.cfi_personality 0x3,__gxx_personality_v0
 2131              		.cfi_lsda 0x3,.LLSDA1127
 2132 0000 55       		pushq	%rbp
 2133              		.cfi_def_cfa_offset 16
 2134              		.cfi_offset 6, -16
 2135 0001 4889E5   		movq	%rsp, %rbp
 2136              		.cfi_def_cfa_register 6
 2137 0004 4154     		pushq	%r12
 2138 0006 53       		pushq	%rbx
 2139 0007 4881EC90 		subq	$400, %rsp
 2139      010000
 2140              		.cfi_offset 12, -24
 2141              		.cfi_offset 3, -32
 2142 000e 4889BD78 		movq	%rdi, -392(%rbp)
 2142      FEFFFF
 2143 0015 4889B570 		movq	%rsi, -400(%rbp)
 2143      FEFFFF
 2144 001c 48899568 		movq	%rdx, -408(%rbp)
 2144      FEFFFF
 2145 0023 48898D60 		movq	%rcx, -416(%rbp)
 2145      FEFFFF
 2146              		.loc 7 19 0
 2147 002a 64488B04 		movq	%fs:40, %rax
 2147      25280000 
 2147      00
 2148 0033 488945E8 		movq	%rax, -24(%rbp)
 2149 0037 31C0     		xorl	%eax, %eax
 2150              	.LBB33:
 2151              	.LBB34:
  20:../Checks.h   **** {
  21:../Checks.h   ****     if (!(expected == actual))
 2152              		.loc 7 21 0
 2153 0039 488B8570 		movq	-400(%rbp), %rax
 2153      FEFFFF
 2154 0040 8B10     		movl	(%rax), %edx
 2155 0042 488B8568 		movq	-408(%rbp), %rax
 2155      FEFFFF
 2156 0049 8B00     		movl	(%rax), %eax
 2157 004b 39C2     		cmpl	%eax, %edx
 2158 004d 0F849200 		je	.L103
 2158      0000
 2159              	.LBB35:
  22:../Checks.h   ****     {
  23:../Checks.h   ****         UnitTest::MemoryOutStream stream;
 2160              		.loc 7 23 0
 2161 0053 488D8580 		leaq	-384(%rbp), %rax
 2161      FEFFFF
 2162 005a 4889C7   		movq	%rax, %rdi
 2163              	.LEHB57:
 2164 005d E8000000 		call	_ZN8UnitTest15MemoryOutStreamC1Ev
 2164      00
 2165              	.LEHE57:
  24:../Checks.h   ****         stream << "Expected " << expected << " but was " << actual;
 2166              		.loc 7 24 0
 2167 0062 488B8568 		movq	-408(%rbp), %rax
 2167      FEFFFF
 2168 0069 8B18     		movl	(%rax), %ebx
 2169 006b 488B8570 		movq	-400(%rbp), %rax
 2169      FEFFFF
 2170 0072 448B20   		movl	(%rax), %r12d
 2171 0075 488D8580 		leaq	-384(%rbp), %rax
 2171      FEFFFF
 2172 007c BE000000 		movl	$.LC24, %esi
 2172      00
 2173 0081 4889C7   		movq	%rax, %rdi
 2174              	.LEHB58:
 2175 0084 E8000000 		call	_ZStlsISt11char_traitsIcEERSt13basic_ostreamIcT_ES5_PKc
 2175      00
 2176 0089 4489E6   		movl	%r12d, %esi
 2177 008c 4889C7   		movq	%rax, %rdi
 2178 008f E8000000 		call	_ZNSolsEi
 2178      00
 2179              		.loc 7 24 0 is_stmt 0 discriminator 1
 2180 0094 BE000000 		movl	$.LC25, %esi
 2180      00
 2181 0099 4889C7   		movq	%rax, %rdi
 2182 009c E8000000 		call	_ZStlsISt11char_traitsIcEERSt13basic_ostreamIcT_ES5_PKc
 2182      00
 2183              		.loc 7 24 0 discriminator 2
 2184 00a1 89DE     		movl	%ebx, %esi
 2185 00a3 4889C7   		movq	%rax, %rdi
 2186 00a6 E8000000 		call	_ZNSolsEi
 2186      00
  25:../Checks.h   **** 
  26:../Checks.h   ****         results.OnTestFailure(details, stream.GetText());
 2187              		.loc 7 26 0 is_stmt 1
 2188 00ab 488D8580 		leaq	-384(%rbp), %rax
 2188      FEFFFF
 2189 00b2 4889C7   		movq	%rax, %rdi
 2190 00b5 E8000000 		call	_ZNK8UnitTest15MemoryOutStream7GetTextEv
 2190      00
 2191 00ba 4889C2   		movq	%rax, %rdx
 2192 00bd 488B8D60 		movq	-416(%rbp), %rcx
 2192      FEFFFF
 2193 00c4 488B8578 		movq	-392(%rbp), %rax
 2193      FEFFFF
 2194 00cb 4889CE   		movq	%rcx, %rsi
 2195 00ce 4889C7   		movq	%rax, %rdi
 2196 00d1 E8000000 		call	_ZN8UnitTest11TestResults13OnTestFailureERKNS_11TestDetailsEPKc
 2196      00
 2197              	.LEHE58:
 2198              		.loc 7 26 0 is_stmt 0 discriminator 4
 2199 00d6 488D8580 		leaq	-384(%rbp), %rax
 2199      FEFFFF
 2200 00dd 4889C7   		movq	%rax, %rdi
 2201              	.LEHB59:
 2202 00e0 E8000000 		call	_ZN8UnitTest15MemoryOutStreamD1Ev
 2202      00
 2203              	.LEHE59:
 2204              	.L103:
 2205              	.LBE35:
 2206              	.LBE34:
 2207              	.LBE33:
  27:../Checks.h   ****     }
  28:../Checks.h   **** }
 2208              		.loc 7 28 0 is_stmt 1
 2209 00e5 488B45E8 		movq	-24(%rbp), %rax
 2210 00e9 64483304 		xorq	%fs:40, %rax
 2210      25280000 
 2210      00
 2211 00f2 7424     		je	.L105
 2212 00f4 EB1D     		jmp	.L107
 2213              	.L106:
 2214 00f6 4889C3   		movq	%rax, %rbx
 2215              	.LBB38:
 2216              	.LBB37:
 2217              	.LBB36:
  26:../Checks.h   ****     }
 2218              		.loc 7 26 0
 2219 00f9 488D8580 		leaq	-384(%rbp), %rax
 2219      FEFFFF
 2220 0100 4889C7   		movq	%rax, %rdi
 2221 0103 E8000000 		call	_ZN8UnitTest15MemoryOutStreamD1Ev
 2221      00
 2222 0108 4889D8   		movq	%rbx, %rax
 2223 010b 4889C7   		movq	%rax, %rdi
 2224              	.LEHB60:
 2225 010e E8000000 		call	_Unwind_Resume
 2225      00
 2226              	.LEHE60:
 2227              	.L107:
 2228              	.LBE36:
 2229              	.LBE37:
 2230              	.LBE38:
 2231              		.loc 7 28 0
 2232 0113 E8000000 		call	__stack_chk_fail
 2232      00
 2233              	.L105:
 2234 0118 4881C490 		addq	$400, %rsp
 2234      010000
 2235 011f 5B       		popq	%rbx
 2236 0120 415C     		popq	%r12
 2237 0122 5D       		popq	%rbp
 2238              		.cfi_def_cfa 7, 8
 2239 0123 C3       		ret
 2240              		.cfi_endproc
 2241              	.LFE1127:
 2242              		.section	.gcc_except_table
 2243              	.LLSDA1127:
 2244 0157 FF       		.byte	0xff
 2245 0158 FF       		.byte	0xff
 2246 0159 01       		.byte	0x1
 2247 015a 14       		.uleb128 .LLSDACSE1127-.LLSDACSB1127
 2248              	.LLSDACSB1127:
 2249 015b 5D       		.uleb128 .LEHB57-.LFB1127
 2250 015c 05       		.uleb128 .LEHE57-.LEHB57
 2251 015d 00       		.uleb128 0
 2252 015e 00       		.uleb128 0
 2253 015f 8401     		.uleb128 .LEHB58-.LFB1127
 2254 0161 52       		.uleb128 .LEHE58-.LEHB58
 2255 0162 F601     		.uleb128 .L106-.LFB1127
 2256 0164 00       		.uleb128 0
 2257 0165 E001     		.uleb128 .LEHB59-.LFB1127
 2258 0167 05       		.uleb128 .LEHE59-.LEHB59
 2259 0168 00       		.uleb128 0
 2260 0169 00       		.uleb128 0
 2261 016a 8E02     		.uleb128 .LEHB60-.LFB1127
 2262 016c 05       		.uleb128 .LEHE60-.LEHB60
 2263 016d 00       		.uleb128 0
 2264 016e 00       		.uleb128 0
 2265              	.LLSDACSE1127:
 2266              		.section	.text._ZN8UnitTest10CheckEqualIiiEEvRNS_11TestResultsERKT_RKT0_RKNS_11TestDetailsE,"axG",
 2268              		.section	.text._ZN8UnitTest5CheckIPcEEbT_,"axG",@progbits,_ZN8UnitTest5CheckIPcEEbT_,comdat
 2269              		.weak	_ZN8UnitTest5CheckIPcEEbT_
 2271              	_ZN8UnitTest5CheckIPcEEbT_:
 2272              	.LFB1132:
  12:../Checks.h   **** {
 2273              		.loc 7 12 0
 2274              		.cfi_startproc
 2275 0000 55       		pushq	%rbp
 2276              		.cfi_def_cfa_offset 16
 2277              		.cfi_offset 6, -16
 2278 0001 4889E5   		movq	%rsp, %rbp
 2279              		.cfi_def_cfa_register 6
 2280 0004 48897DF8 		movq	%rdi, -8(%rbp)
  14:../Checks.h   **** }
 2281              		.loc 7 14 0
 2282 0008 48837DF8 		cmpq	$0, -8(%rbp)
 2282      00
 2283 000d 0F95C0   		setne	%al
  15:../Checks.h   **** 
 2284              		.loc 7 15 0
 2285 0010 5D       		popq	%rbp
 2286              		.cfi_def_cfa 7, 8
 2287 0011 C3       		ret
 2288              		.cfi_endproc
 2289              	.LFE1132:
 2291              		.section	.rodata
 2292 03eb 00000000 		.align 32
 2292      00000000 
 2292      00000000 
 2292      00000000 
 2292      00000000 
 2295              	_ZTVN12_GLOBAL__N_151TestTimeConstraintFailureIncludesTimeoutInformationE:
 2296 0400 00000000 		.quad	0
 2296      00000000 
 2297 0408 00000000 		.quad	_ZTIN12_GLOBAL__N_151TestTimeConstraintFailureIncludesTimeoutInformationE
 2297      00000000 
 2298 0410 00000000 		.quad	_ZN12_GLOBAL__N_151TestTimeConstraintFailureIncludesTimeoutInformationD1Ev
 2298      00000000 
 2299 0418 00000000 		.quad	_ZN12_GLOBAL__N_151TestTimeConstraintFailureIncludesTimeoutInformationD0Ev
 2299      00000000 
 2300 0420 00000000 		.quad	_ZNK12_GLOBAL__N_151TestTimeConstraintFailureIncludesTimeoutInformation7RunImplEv
 2300      00000000 
 2301              		.text
 2302              		.align 2
 2304              	_ZN12_GLOBAL__N_151TestTimeConstraintFailureIncludesTimeoutInformationD2Ev:
 2305              	.LFB1182:
  53:TestTimeConstraint.cpp **** {
 2306              		.loc 6 53 0
 2307              		.cfi_startproc
 2308 0aa4 55       		pushq	%rbp
 2309              		.cfi_def_cfa_offset 16
 2310              		.cfi_offset 6, -16
 2311 0aa5 4889E5   		movq	%rsp, %rbp
 2312              		.cfi_def_cfa_register 6
 2313 0aa8 4883EC10 		subq	$16, %rsp
 2314 0aac 48897DF8 		movq	%rdi, -8(%rbp)
 2315              	.LBB39:
  53:TestTimeConstraint.cpp **** {
 2316              		.loc 6 53 0
 2317 0ab0 488B45F8 		movq	-8(%rbp), %rax
 2318 0ab4 48C70000 		movq	$_ZTVN12_GLOBAL__N_151TestTimeConstraintFailureIncludesTimeoutInformationE+16, (%rax)
 2318      000000
 2319 0abb 488B45F8 		movq	-8(%rbp), %rax
 2320 0abf 4889C7   		movq	%rax, %rdi
 2321 0ac2 E8000000 		call	_ZN8UnitTest4TestD2Ev
 2321      00
 2322              	.LBE39:
 2323 0ac7 B8000000 		movl	$0, %eax
 2323      00
 2324 0acc 85C0     		testl	%eax, %eax
 2325 0ace 740C     		je	.L110
  53:TestTimeConstraint.cpp **** {
 2326              		.loc 6 53 0 is_stmt 0 discriminator 4
 2327 0ad0 488B45F8 		movq	-8(%rbp), %rax
 2328 0ad4 4889C7   		movq	%rax, %rdi
 2329 0ad7 E8000000 		call	_ZdlPv
 2329      00
 2330              	.L110:
  53:TestTimeConstraint.cpp **** {
 2331              		.loc 6 53 0
 2332 0adc C9       		leave
 2333              		.cfi_def_cfa 7, 8
 2334 0add C3       		ret
 2335              		.cfi_endproc
 2336              	.LFE1182:
 2338              		.set	_ZN12_GLOBAL__N_151TestTimeConstraintFailureIncludesTimeoutInformationD1Ev,_ZN12_GLOBAL__N_15
 2339              		.align 2
 2341              	_ZN12_GLOBAL__N_151TestTimeConstraintFailureIncludesTimeoutInformationD0Ev:
 2342              	.LFB1184:
  53:TestTimeConstraint.cpp **** {
 2343              		.loc 6 53 0 is_stmt 1
 2344              		.cfi_startproc
 2345 0ade 55       		pushq	%rbp
 2346              		.cfi_def_cfa_offset 16
 2347              		.cfi_offset 6, -16
 2348 0adf 4889E5   		movq	%rsp, %rbp
 2349              		.cfi_def_cfa_register 6
 2350 0ae2 4883EC10 		subq	$16, %rsp
 2351 0ae6 48897DF8 		movq	%rdi, -8(%rbp)
  53:TestTimeConstraint.cpp **** {
 2352              		.loc 6 53 0
 2353 0aea 488B45F8 		movq	-8(%rbp), %rax
 2354 0aee 4889C7   		movq	%rax, %rdi
 2355 0af1 E8AEFFFF 		call	_ZN12_GLOBAL__N_151TestTimeConstraintFailureIncludesTimeoutInformationD2Ev
 2355      FF
 2356 0af6 488B45F8 		movq	-8(%rbp), %rax
 2357 0afa 4889C7   		movq	%rax, %rdi
 2358 0afd E8000000 		call	_ZdlPv
 2358      00
 2359 0b02 C9       		leave
 2360              		.cfi_def_cfa 7, 8
 2361 0b03 C3       		ret
 2362              		.cfi_endproc
 2363              	.LFE1184:
 2365              		.section	.rodata
 2366 0428 00000000 		.align 32
 2366      00000000 
 2366      00000000 
 2366      00000000 
 2366      00000000 
 2369              	_ZTVN12_GLOBAL__N_144TestTimeConstraintFailureIncludesCorrectDataE:
 2370 0440 00000000 		.quad	0
 2370      00000000 
 2371 0448 00000000 		.quad	_ZTIN12_GLOBAL__N_144TestTimeConstraintFailureIncludesCorrectDataE
 2371      00000000 
 2372 0450 00000000 		.quad	_ZN12_GLOBAL__N_144TestTimeConstraintFailureIncludesCorrectDataD1Ev
 2372      00000000 
 2373 0458 00000000 		.quad	_ZN12_GLOBAL__N_144TestTimeConstraintFailureIncludesCorrectDataD0Ev
 2373      00000000 
 2374 0460 00000000 		.quad	_ZNK12_GLOBAL__N_144TestTimeConstraintFailureIncludesCorrectData7RunImplEv
 2374      00000000 
 2375              		.text
 2376              		.align 2
 2378              	_ZN12_GLOBAL__N_144TestTimeConstraintFailureIncludesCorrectDataD2Ev:
 2379              	.LFB1186:
  34:TestTimeConstraint.cpp **** {
 2380              		.loc 6 34 0
 2381              		.cfi_startproc
 2382 0b04 55       		pushq	%rbp
 2383              		.cfi_def_cfa_offset 16
 2384              		.cfi_offset 6, -16
 2385 0b05 4889E5   		movq	%rsp, %rbp
 2386              		.cfi_def_cfa_register 6
 2387 0b08 4883EC10 		subq	$16, %rsp
 2388 0b0c 48897DF8 		movq	%rdi, -8(%rbp)
 2389              	.LBB40:
  34:TestTimeConstraint.cpp **** {
 2390              		.loc 6 34 0
 2391 0b10 488B45F8 		movq	-8(%rbp), %rax
 2392 0b14 48C70000 		movq	$_ZTVN12_GLOBAL__N_144TestTimeConstraintFailureIncludesCorrectDataE+16, (%rax)
 2392      000000
 2393 0b1b 488B45F8 		movq	-8(%rbp), %rax
 2394 0b1f 4889C7   		movq	%rax, %rdi
 2395 0b22 E8000000 		call	_ZN8UnitTest4TestD2Ev
 2395      00
 2396              	.LBE40:
 2397 0b27 B8000000 		movl	$0, %eax
 2397      00
 2398 0b2c 85C0     		testl	%eax, %eax
 2399 0b2e 740C     		je	.L115
  34:TestTimeConstraint.cpp **** {
 2400              		.loc 6 34 0 is_stmt 0 discriminator 4
 2401 0b30 488B45F8 		movq	-8(%rbp), %rax
 2402 0b34 4889C7   		movq	%rax, %rdi
 2403 0b37 E8000000 		call	_ZdlPv
 2403      00
 2404              	.L115:
  34:TestTimeConstraint.cpp **** {
 2405              		.loc 6 34 0
 2406 0b3c C9       		leave
 2407              		.cfi_def_cfa 7, 8
 2408 0b3d C3       		ret
 2409              		.cfi_endproc
 2410              	.LFE1186:
 2412              		.set	_ZN12_GLOBAL__N_144TestTimeConstraintFailureIncludesCorrectDataD1Ev,_ZN12_GLOBAL__N_144TestTi
 2413              		.align 2
 2415              	_ZN12_GLOBAL__N_144TestTimeConstraintFailureIncludesCorrectDataD0Ev:
 2416              	.LFB1188:
  34:TestTimeConstraint.cpp **** {
 2417              		.loc 6 34 0 is_stmt 1
 2418              		.cfi_startproc
 2419 0b3e 55       		pushq	%rbp
 2420              		.cfi_def_cfa_offset 16
 2421              		.cfi_offset 6, -16
 2422 0b3f 4889E5   		movq	%rsp, %rbp
 2423              		.cfi_def_cfa_register 6
 2424 0b42 4883EC10 		subq	$16, %rsp
 2425 0b46 48897DF8 		movq	%rdi, -8(%rbp)
  34:TestTimeConstraint.cpp **** {
 2426              		.loc 6 34 0
 2427 0b4a 488B45F8 		movq	-8(%rbp), %rax
 2428 0b4e 4889C7   		movq	%rax, %rdi
 2429 0b51 E8AEFFFF 		call	_ZN12_GLOBAL__N_144TestTimeConstraintFailureIncludesCorrectDataD2Ev
 2429      FF
 2430 0b56 488B45F8 		movq	-8(%rbp), %rax
 2431 0b5a 4889C7   		movq	%rax, %rdi
 2432 0b5d E8000000 		call	_ZdlPv
 2432      00
 2433 0b62 C9       		leave
 2434              		.cfi_def_cfa 7, 8
 2435 0b63 C3       		ret
 2436              		.cfi_endproc
 2437              	.LFE1188:
 2439              		.section	.rodata
 2440 0468 00000000 		.align 32
 2440      00000000 
 2440      00000000 
 2440      00000000 
 2440      00000000 
 2443              	_ZTVN12_GLOBAL__N_135TestTimeConstraintFailsWithSlowTestE:
 2444 0480 00000000 		.quad	0
 2444      00000000 
 2445 0488 00000000 		.quad	_ZTIN12_GLOBAL__N_135TestTimeConstraintFailsWithSlowTestE
 2445      00000000 
 2446 0490 00000000 		.quad	_ZN12_GLOBAL__N_135TestTimeConstraintFailsWithSlowTestD1Ev
 2446      00000000 
 2447 0498 00000000 		.quad	_ZN12_GLOBAL__N_135TestTimeConstraintFailsWithSlowTestD0Ev
 2447      00000000 
 2448 04a0 00000000 		.quad	_ZNK12_GLOBAL__N_135TestTimeConstraintFailsWithSlowTest7RunImplEv
 2448      00000000 
 2449              		.text
 2450              		.align 2
 2452              	_ZN12_GLOBAL__N_135TestTimeConstraintFailsWithSlowTestD2Ev:
 2453              	.LFB1190:
  23:TestTimeConstraint.cpp **** {
 2454              		.loc 6 23 0
 2455              		.cfi_startproc
 2456 0b64 55       		pushq	%rbp
 2457              		.cfi_def_cfa_offset 16
 2458              		.cfi_offset 6, -16
 2459 0b65 4889E5   		movq	%rsp, %rbp
 2460              		.cfi_def_cfa_register 6
 2461 0b68 4883EC10 		subq	$16, %rsp
 2462 0b6c 48897DF8 		movq	%rdi, -8(%rbp)
 2463              	.LBB41:
  23:TestTimeConstraint.cpp **** {
 2464              		.loc 6 23 0
 2465 0b70 488B45F8 		movq	-8(%rbp), %rax
 2466 0b74 48C70000 		movq	$_ZTVN12_GLOBAL__N_135TestTimeConstraintFailsWithSlowTestE+16, (%rax)
 2466      000000
 2467 0b7b 488B45F8 		movq	-8(%rbp), %rax
 2468 0b7f 4889C7   		movq	%rax, %rdi
 2469 0b82 E8000000 		call	_ZN8UnitTest4TestD2Ev
 2469      00
 2470              	.LBE41:
 2471 0b87 B8000000 		movl	$0, %eax
 2471      00
 2472 0b8c 85C0     		testl	%eax, %eax
 2473 0b8e 740C     		je	.L120
  23:TestTimeConstraint.cpp **** {
 2474              		.loc 6 23 0 is_stmt 0 discriminator 4
 2475 0b90 488B45F8 		movq	-8(%rbp), %rax
 2476 0b94 4889C7   		movq	%rax, %rdi
 2477 0b97 E8000000 		call	_ZdlPv
 2477      00
 2478              	.L120:
  23:TestTimeConstraint.cpp **** {
 2479              		.loc 6 23 0
 2480 0b9c C9       		leave
 2481              		.cfi_def_cfa 7, 8
 2482 0b9d C3       		ret
 2483              		.cfi_endproc
 2484              	.LFE1190:
 2486              		.set	_ZN12_GLOBAL__N_135TestTimeConstraintFailsWithSlowTestD1Ev,_ZN12_GLOBAL__N_135TestTimeConstra
 2487              		.align 2
 2489              	_ZN12_GLOBAL__N_135TestTimeConstraintFailsWithSlowTestD0Ev:
 2490              	.LFB1192:
  23:TestTimeConstraint.cpp **** {
 2491              		.loc 6 23 0 is_stmt 1
 2492              		.cfi_startproc
 2493 0b9e 55       		pushq	%rbp
 2494              		.cfi_def_cfa_offset 16
 2495              		.cfi_offset 6, -16
 2496 0b9f 4889E5   		movq	%rsp, %rbp
 2497              		.cfi_def_cfa_register 6
 2498 0ba2 4883EC10 		subq	$16, %rsp
 2499 0ba6 48897DF8 		movq	%rdi, -8(%rbp)
  23:TestTimeConstraint.cpp **** {
 2500              		.loc 6 23 0
 2501 0baa 488B45F8 		movq	-8(%rbp), %rax
 2502 0bae 4889C7   		movq	%rax, %rdi
 2503 0bb1 E8AEFFFF 		call	_ZN12_GLOBAL__N_135TestTimeConstraintFailsWithSlowTestD2Ev
 2503      FF
 2504 0bb6 488B45F8 		movq	-8(%rbp), %rax
 2505 0bba 4889C7   		movq	%rax, %rdi
 2506 0bbd E8000000 		call	_ZdlPv
 2506      00
 2507 0bc2 C9       		leave
 2508              		.cfi_def_cfa 7, 8
 2509 0bc3 C3       		ret
 2510              		.cfi_endproc
 2511              	.LFE1192:
 2513              		.section	.rodata
 2514 04a8 00000000 		.align 32
 2514      00000000 
 2514      00000000 
 2514      00000000 
 2514      00000000 
 2517              	_ZTVN12_GLOBAL__N_138TestTimeConstraintSucceedsWithFastTestE:
 2518 04c0 00000000 		.quad	0
 2518      00000000 
 2519 04c8 00000000 		.quad	_ZTIN12_GLOBAL__N_138TestTimeConstraintSucceedsWithFastTestE
 2519      00000000 
 2520 04d0 00000000 		.quad	_ZN12_GLOBAL__N_138TestTimeConstraintSucceedsWithFastTestD1Ev
 2520      00000000 
 2521 04d8 00000000 		.quad	_ZN12_GLOBAL__N_138TestTimeConstraintSucceedsWithFastTestD0Ev
 2521      00000000 
 2522 04e0 00000000 		.quad	_ZNK12_GLOBAL__N_138TestTimeConstraintSucceedsWithFastTest7RunImplEv
 2522      00000000 
 2523              		.text
 2524              		.align 2
 2526              	_ZN12_GLOBAL__N_138TestTimeConstraintSucceedsWithFastTestD2Ev:
 2527              	.LFB1194:
  12:TestTimeConstraint.cpp **** {
 2528              		.loc 6 12 0
 2529              		.cfi_startproc
 2530 0bc4 55       		pushq	%rbp
 2531              		.cfi_def_cfa_offset 16
 2532              		.cfi_offset 6, -16
 2533 0bc5 4889E5   		movq	%rsp, %rbp
 2534              		.cfi_def_cfa_register 6
 2535 0bc8 4883EC10 		subq	$16, %rsp
 2536 0bcc 48897DF8 		movq	%rdi, -8(%rbp)
 2537              	.LBB42:
  12:TestTimeConstraint.cpp **** {
 2538              		.loc 6 12 0
 2539 0bd0 488B45F8 		movq	-8(%rbp), %rax
 2540 0bd4 48C70000 		movq	$_ZTVN12_GLOBAL__N_138TestTimeConstraintSucceedsWithFastTestE+16, (%rax)
 2540      000000
 2541 0bdb 488B45F8 		movq	-8(%rbp), %rax
 2542 0bdf 4889C7   		movq	%rax, %rdi
 2543 0be2 E8000000 		call	_ZN8UnitTest4TestD2Ev
 2543      00
 2544              	.LBE42:
 2545 0be7 B8000000 		movl	$0, %eax
 2545      00
 2546 0bec 85C0     		testl	%eax, %eax
 2547 0bee 740C     		je	.L125
  12:TestTimeConstraint.cpp **** {
 2548              		.loc 6 12 0 is_stmt 0 discriminator 4
 2549 0bf0 488B45F8 		movq	-8(%rbp), %rax
 2550 0bf4 4889C7   		movq	%rax, %rdi
 2551 0bf7 E8000000 		call	_ZdlPv
 2551      00
 2552              	.L125:
  12:TestTimeConstraint.cpp **** {
 2553              		.loc 6 12 0
 2554 0bfc C9       		leave
 2555              		.cfi_def_cfa 7, 8
 2556 0bfd C3       		ret
 2557              		.cfi_endproc
 2558              	.LFE1194:
 2560              		.set	_ZN12_GLOBAL__N_138TestTimeConstraintSucceedsWithFastTestD1Ev,_ZN12_GLOBAL__N_138TestTimeCons
 2561              		.align 2
 2563              	_ZN12_GLOBAL__N_138TestTimeConstraintSucceedsWithFastTestD0Ev:
 2564              	.LFB1196:
  12:TestTimeConstraint.cpp **** {
 2565              		.loc 6 12 0 is_stmt 1
 2566              		.cfi_startproc
 2567 0bfe 55       		pushq	%rbp
 2568              		.cfi_def_cfa_offset 16
 2569              		.cfi_offset 6, -16
 2570 0bff 4889E5   		movq	%rsp, %rbp
 2571              		.cfi_def_cfa_register 6
 2572 0c02 4883EC10 		subq	$16, %rsp
 2573 0c06 48897DF8 		movq	%rdi, -8(%rbp)
  12:TestTimeConstraint.cpp **** {
 2574              		.loc 6 12 0
 2575 0c0a 488B45F8 		movq	-8(%rbp), %rax
 2576 0c0e 4889C7   		movq	%rax, %rdi
 2577 0c11 E8AEFFFF 		call	_ZN12_GLOBAL__N_138TestTimeConstraintSucceedsWithFastTestD2Ev
 2577      FF
 2578 0c16 488B45F8 		movq	-8(%rbp), %rax
 2579 0c1a 4889C7   		movq	%rax, %rdi
 2580 0c1d E8000000 		call	_ZdlPv
 2580      00
 2581 0c22 C9       		leave
 2582              		.cfi_def_cfa 7, 8
 2583 0c23 C3       		ret
 2584              		.cfi_endproc
 2585              	.LFE1196:
 2587              		.weak	_ZTV17RecordingReporter
 2588              		.section	.rodata._ZTV17RecordingReporter,"aG",@progbits,_ZTV17RecordingReporter,comdat
 2589              		.align 64
 2592              	_ZTV17RecordingReporter:
 2593 0000 00000000 		.quad	0
 2593      00000000 
 2594 0008 00000000 		.quad	_ZTI17RecordingReporter
 2594      00000000 
 2595 0010 00000000 		.quad	_ZN17RecordingReporterD1Ev
 2595      00000000 
 2596 0018 00000000 		.quad	_ZN17RecordingReporterD0Ev
 2596      00000000 
 2597 0020 00000000 		.quad	_ZN17RecordingReporter15ReportTestStartERKN8UnitTest11TestDetailsE
 2597      00000000 
 2598 0028 00000000 		.quad	_ZN17RecordingReporter13ReportFailureERKN8UnitTest11TestDetailsEPKc
 2598      00000000 
 2599 0030 00000000 		.quad	_ZN17RecordingReporter16ReportTestFinishERKN8UnitTest11TestDetailsEf
 2599      00000000 
 2600 0038 00000000 		.quad	_ZN17RecordingReporter13ReportSummaryEiiif
 2600      00000000 
 2601              		.section	.text._ZN17RecordingReporterD2Ev,"axG",@progbits,_ZN17RecordingReporterD5Ev,comdat
 2602              		.align 2
 2603              		.weak	_ZN17RecordingReporterD2Ev
 2605              	_ZN17RecordingReporterD2Ev:
 2606              	.LFB1198:
   9:RecordingReporter.h **** {
 2607              		.loc 4 9 0
 2608              		.cfi_startproc
 2609 0000 55       		pushq	%rbp
 2610              		.cfi_def_cfa_offset 16
 2611              		.cfi_offset 6, -16
 2612 0001 4889E5   		movq	%rsp, %rbp
 2613              		.cfi_def_cfa_register 6
 2614 0004 4883EC10 		subq	$16, %rsp
 2615 0008 48897DF8 		movq	%rdi, -8(%rbp)
 2616              	.LBB43:
   9:RecordingReporter.h **** {
 2617              		.loc 4 9 0
 2618 000c 488B45F8 		movq	-8(%rbp), %rax
 2619 0010 48C70000 		movq	$_ZTV17RecordingReporter+16, (%rax)
 2619      000000
 2620 0017 488B45F8 		movq	-8(%rbp), %rax
 2621 001b 4889C7   		movq	%rax, %rdi
 2622 001e E8000000 		call	_ZN8UnitTest12TestReporterD2Ev
 2622      00
 2623              	.LBE43:
 2624 0023 B8000000 		movl	$0, %eax
 2624      00
 2625 0028 85C0     		testl	%eax, %eax
 2626 002a 740C     		je	.L130
   9:RecordingReporter.h **** {
 2627              		.loc 4 9 0 is_stmt 0 discriminator 4
 2628 002c 488B45F8 		movq	-8(%rbp), %rax
 2629 0030 4889C7   		movq	%rax, %rdi
 2630 0033 E8000000 		call	_ZdlPv
 2630      00
 2631              	.L130:
   9:RecordingReporter.h **** {
 2632              		.loc 4 9 0
 2633 0038 C9       		leave
 2634              		.cfi_def_cfa 7, 8
 2635 0039 C3       		ret
 2636              		.cfi_endproc
 2637              	.LFE1198:
 2639              		.weak	_ZN17RecordingReporterD1Ev
 2640              		.set	_ZN17RecordingReporterD1Ev,_ZN17RecordingReporterD2Ev
 2641              		.section	.text._ZN17RecordingReporterD0Ev,"axG",@progbits,_ZN17RecordingReporterD5Ev,comdat
 2642              		.align 2
 2643              		.weak	_ZN17RecordingReporterD0Ev
 2645              	_ZN17RecordingReporterD0Ev:
 2646              	.LFB1200:
   9:RecordingReporter.h **** {
 2647              		.loc 4 9 0 is_stmt 1
 2648              		.cfi_startproc
 2649 0000 55       		pushq	%rbp
 2650              		.cfi_def_cfa_offset 16
 2651              		.cfi_offset 6, -16
 2652 0001 4889E5   		movq	%rsp, %rbp
 2653              		.cfi_def_cfa_register 6
 2654 0004 4883EC10 		subq	$16, %rsp
 2655 0008 48897DF8 		movq	%rdi, -8(%rbp)
   9:RecordingReporter.h **** {
 2656              		.loc 4 9 0
 2657 000c 488B45F8 		movq	-8(%rbp), %rax
 2658 0010 4889C7   		movq	%rax, %rdi
 2659 0013 E8000000 		call	_ZN17RecordingReporterD1Ev
 2659      00
 2660 0018 488B45F8 		movq	-8(%rbp), %rax
 2661 001c 4889C7   		movq	%rax, %rdi
 2662 001f E8000000 		call	_ZdlPv
 2662      00
 2663 0024 C9       		leave
 2664              		.cfi_def_cfa 7, 8
 2665 0025 C3       		ret
 2666              		.cfi_endproc
 2667              	.LFE1200:
 2669              		.weak	_ZTVN8UnitTest15MemoryOutStreamE
 2670              		.section	.rodata._ZTVN8UnitTest15MemoryOutStreamE,"aG",@progbits,_ZTVN8UnitTest15MemoryOutStreamE,
 2671              		.align 64
 2674              	_ZTVN8UnitTest15MemoryOutStreamE:
 2675 0000 60000000 		.quad	96
 2675      00000000 
 2676 0008 00000000 		.quad	0
 2676      00000000 
 2677 0010 00000000 		.quad	_ZTIN8UnitTest15MemoryOutStreamE
 2677      00000000 
 2678 0018 00000000 		.quad	_ZN8UnitTest15MemoryOutStreamD1Ev
 2678      00000000 
 2679 0020 00000000 		.quad	_ZN8UnitTest15MemoryOutStreamD0Ev
 2679      00000000 
 2680 0028 A0FFFFFF 		.quad	-96
 2680      FFFFFFFF 
 2681 0030 A0FFFFFF 		.quad	-96
 2681      FFFFFFFF 
 2682 0038 00000000 		.quad	_ZTIN8UnitTest15MemoryOutStreamE
 2682      00000000 
 2683 0040 00000000 		.quad	_ZTv0_n24_N8UnitTest15MemoryOutStreamD1Ev
 2683      00000000 
 2684 0048 00000000 		.quad	_ZTv0_n24_N8UnitTest15MemoryOutStreamD0Ev
 2684      00000000 
 2685              		.weak	_ZTTN8UnitTest15MemoryOutStreamE
 2686              		.section	.rodata._ZTTN8UnitTest15MemoryOutStreamE,"aG",@progbits,_ZTVN8UnitTest15MemoryOutStreamE,
 2687              		.align 32
 2690              	_ZTTN8UnitTest15MemoryOutStreamE:
 2691 0000 00000000 		.quad	_ZTVN8UnitTest15MemoryOutStreamE+24
 2691      00000000 
 2692 0008 00000000 		.quad	_ZTCN8UnitTest15MemoryOutStreamE0_St19basic_ostringstreamIcSt11char_traitsIcESaIcEE+24
 2692      00000000 
 2693 0010 00000000 		.quad	_ZTCN8UnitTest15MemoryOutStreamE0_So+24
 2693      00000000 
 2694 0018 00000000 		.quad	_ZTCN8UnitTest15MemoryOutStreamE0_So+64
 2694      00000000 
 2695 0020 00000000 		.quad	_ZTCN8UnitTest15MemoryOutStreamE0_St19basic_ostringstreamIcSt11char_traitsIcESaIcEE+64
 2695      00000000 
 2696 0028 00000000 		.quad	_ZTVN8UnitTest15MemoryOutStreamE+64
 2696      00000000 
 2697              		.hidden	_ZTCN8UnitTest15MemoryOutStreamE0_St19basic_ostringstreamIcSt11char_traitsIcESaIcEE
 2698              		.weak	_ZTCN8UnitTest15MemoryOutStreamE0_St19basic_ostringstreamIcSt11char_traitsIcESaIcEE
 2699              		.section	.rodata._ZTCN8UnitTest15MemoryOutStreamE0_St19basic_ostringstreamIcSt11char_traitsIcESaIc
 2700              		.align 64
 2703              	_ZTCN8UnitTest15MemoryOutStreamE0_St19basic_ostringstreamIcSt11char_traitsIcESaIcEE:
 2704 0000 60000000 		.quad	96
 2704      00000000 
 2705 0008 00000000 		.quad	0
 2705      00000000 
 2706 0010 00000000 		.quad	_ZTISt19basic_ostringstreamIcSt11char_traitsIcESaIcEE
 2706      00000000 
 2707 0018 00000000 		.quad	0
 2707      00000000 
 2708 0020 00000000 		.quad	0
 2708      00000000 
 2709 0028 A0FFFFFF 		.quad	-96
 2709      FFFFFFFF 
 2710 0030 A0FFFFFF 		.quad	-96
 2710      FFFFFFFF 
 2711 0038 00000000 		.quad	_ZTISt19basic_ostringstreamIcSt11char_traitsIcESaIcEE
 2711      00000000 
 2712 0040 00000000 		.quad	0
 2712      00000000 
 2713 0048 00000000 		.quad	0
 2713      00000000 
 2714              		.hidden	_ZTCN8UnitTest15MemoryOutStreamE0_So
 2715              		.weak	_ZTCN8UnitTest15MemoryOutStreamE0_So
 2716              		.section	.rodata._ZTCN8UnitTest15MemoryOutStreamE0_So,"aG",@progbits,_ZTVN8UnitTest15MemoryOutStre
 2717              		.align 64
 2720              	_ZTCN8UnitTest15MemoryOutStreamE0_So:
 2721 0000 60000000 		.quad	96
 2721      00000000 
 2722 0008 00000000 		.quad	0
 2722      00000000 
 2723 0010 00000000 		.quad	_ZTISo
 2723      00000000 
 2724 0018 00000000 		.quad	0
 2724      00000000 
 2725 0020 00000000 		.quad	0
 2725      00000000 
 2726 0028 A0FFFFFF 		.quad	-96
 2726      FFFFFFFF 
 2727 0030 A0FFFFFF 		.quad	-96
 2727      FFFFFFFF 
 2728 0038 00000000 		.quad	_ZTISo
 2728      00000000 
 2729 0040 00000000 		.quad	0
 2729      00000000 
 2730 0048 00000000 		.quad	0
 2730      00000000 
 2731              		.weak	_ZTS17RecordingReporter
 2732              		.section	.rodata._ZTS17RecordingReporter,"aG",@progbits,_ZTS17RecordingReporter,comdat
 2733              		.align 16
 2736              	_ZTS17RecordingReporter:
 2737 0000 31375265 		.string	"17RecordingReporter"
 2737      636F7264 
 2737      696E6752 
 2737      65706F72 
 2737      74657200 
 2738              		.weak	_ZTI17RecordingReporter
 2739              		.section	.rodata._ZTI17RecordingReporter,"aG",@progbits,_ZTI17RecordingReporter,comdat
 2740              		.align 16
 2743              	_ZTI17RecordingReporter:
 2744 0000 00000000 		.quad	_ZTVN10__cxxabiv120__si_class_type_infoE+16
 2744      00000000 
 2745 0008 00000000 		.quad	_ZTS17RecordingReporter
 2745      00000000 
 2746 0010 00000000 		.quad	_ZTIN8UnitTest12TestReporterE
 2746      00000000 
 2747              		.weak	_ZTSN8UnitTest15MemoryOutStreamE
 2748              		.section	.rodata._ZTSN8UnitTest15MemoryOutStreamE,"aG",@progbits,_ZTSN8UnitTest15MemoryOutStreamE,
 2749              		.align 16
 2752              	_ZTSN8UnitTest15MemoryOutStreamE:
 2753 0000 4E38556E 		.string	"N8UnitTest15MemoryOutStreamE"
 2753      69745465 
 2753      73743135 
 2753      4D656D6F 
 2753      72794F75 
 2754              		.weak	_ZTIN8UnitTest15MemoryOutStreamE
 2755              		.section	.rodata._ZTIN8UnitTest15MemoryOutStreamE,"aG",@progbits,_ZTIN8UnitTest15MemoryOutStreamE,
 2756              		.align 16
 2759              	_ZTIN8UnitTest15MemoryOutStreamE:
 2760 0000 00000000 		.quad	_ZTVN10__cxxabiv120__si_class_type_infoE+16
 2760      00000000 
 2761 0008 00000000 		.quad	_ZTSN8UnitTest15MemoryOutStreamE
 2761      00000000 
 2762 0010 00000000 		.quad	_ZTISt19basic_ostringstreamIcSt11char_traitsIcESaIcEE
 2762      00000000 
 2763              		.text
 2765              	_Z41__static_initialization_and_destruction_0ii:
 2766              	.LFB1201:
  68:TestTimeConstraint.cpp **** 
  69:TestTimeConstraint.cpp **** }
 2767              		.loc 6 69 0
 2768              		.cfi_startproc
 2769 0c24 55       		pushq	%rbp
 2770              		.cfi_def_cfa_offset 16
 2771              		.cfi_offset 6, -16
 2772 0c25 4889E5   		movq	%rsp, %rbp
 2773              		.cfi_def_cfa_register 6
 2774 0c28 4883EC10 		subq	$16, %rsp
 2775 0c2c 897DFC   		movl	%edi, -4(%rbp)
 2776 0c2f 8975F8   		movl	%esi, -8(%rbp)
 2777              		.loc 6 69 0
 2778 0c32 837DFC01 		cmpl	$1, -4(%rbp)
 2779 0c36 0F85E100 		jne	.L135
 2779      0000
 2780              		.loc 6 69 0 is_stmt 0 discriminator 1
 2781 0c3c 817DF8FF 		cmpl	$65535, -8(%rbp)
 2781      FF0000
 2782 0c43 0F85D400 		jne	.L135
 2782      0000
  12:TestTimeConstraint.cpp **** {
 2783              		.loc 6 12 0 is_stmt 1
 2784 0c49 BF000000 		movl	$_ZN12_GLOBAL__N_146testTimeConstraintSucceedsWithFastTestInstanceE, %edi
 2784      00
 2785 0c4e E8ADF3FF 		call	_ZN12_GLOBAL__N_138TestTimeConstraintSucceedsWithFastTestC2Ev
 2785      FF
 2786 0c53 BA000000 		movl	$__dso_handle, %edx
 2786      00
 2787 0c58 BE000000 		movl	$_ZN12_GLOBAL__N_146testTimeConstraintSucceedsWithFastTestInstanceE, %esi
 2787      00
 2788 0c5d BF000000 		movl	$_ZN12_GLOBAL__N_138TestTimeConstraintSucceedsWithFastTestD1Ev, %edi
 2788      00
 2789 0c62 E8000000 		call	__cxa_atexit
 2789      00
 2790 0c67 E8000000 		call	_ZN8UnitTest4Test11GetTestListEv
 2790      00
 2791 0c6c BA000000 		movl	$_ZN12_GLOBAL__N_146testTimeConstraintSucceedsWithFastTestInstanceE, %edx
 2791      00
 2792 0c71 4889C6   		movq	%rax, %rsi
 2793 0c74 BF000000 		movl	$_ZN12_GLOBAL__N_139adderTimeConstraintSucceedsWithFastTestE, %edi
 2793      00
 2794 0c79 E8000000 		call	_ZN8UnitTest9ListAdderC1ERNS_8TestListEPNS_4TestE
 2794      00
  23:TestTimeConstraint.cpp **** {
 2795              		.loc 6 23 0
 2796 0c7e BF000000 		movl	$_ZN12_GLOBAL__N_143testTimeConstraintFailsWithSlowTestInstanceE, %edi
 2796      00
 2797 0c83 E85EF5FF 		call	_ZN12_GLOBAL__N_135TestTimeConstraintFailsWithSlowTestC2Ev
 2797      FF
 2798 0c88 BA000000 		movl	$__dso_handle, %edx
 2798      00
 2799 0c8d BE000000 		movl	$_ZN12_GLOBAL__N_143testTimeConstraintFailsWithSlowTestInstanceE, %esi
 2799      00
 2800 0c92 BF000000 		movl	$_ZN12_GLOBAL__N_135TestTimeConstraintFailsWithSlowTestD1Ev, %edi
 2800      00
 2801 0c97 E8000000 		call	__cxa_atexit
 2801      00
 2802 0c9c E8000000 		call	_ZN8UnitTest4Test11GetTestListEv
 2802      00
 2803 0ca1 BA000000 		movl	$_ZN12_GLOBAL__N_143testTimeConstraintFailsWithSlowTestInstanceE, %edx
 2803      00
 2804 0ca6 4889C6   		movq	%rax, %rsi
 2805 0ca9 BF000000 		movl	$_ZN12_GLOBAL__N_136adderTimeConstraintFailsWithSlowTestE, %edi
 2805      00
 2806 0cae E8000000 		call	_ZN8UnitTest9ListAdderC1ERNS_8TestListEPNS_4TestE
 2806      00
  34:TestTimeConstraint.cpp **** {
 2807              		.loc 6 34 0
 2808 0cb3 BF000000 		movl	$_ZN12_GLOBAL__N_152testTimeConstraintFailureIncludesCorrectDataInstanceE, %edi
 2808      00
 2809 0cb8 E80FF7FF 		call	_ZN12_GLOBAL__N_144TestTimeConstraintFailureIncludesCorrectDataC2Ev
 2809      FF
 2810 0cbd BA000000 		movl	$__dso_handle, %edx
 2810      00
 2811 0cc2 BE000000 		movl	$_ZN12_GLOBAL__N_152testTimeConstraintFailureIncludesCorrectDataInstanceE, %esi
 2811      00
 2812 0cc7 BF000000 		movl	$_ZN12_GLOBAL__N_144TestTimeConstraintFailureIncludesCorrectDataD1Ev, %edi
 2812      00
 2813 0ccc E8000000 		call	__cxa_atexit
 2813      00
 2814 0cd1 E8000000 		call	_ZN8UnitTest4Test11GetTestListEv
 2814      00
 2815 0cd6 BA000000 		movl	$_ZN12_GLOBAL__N_152testTimeConstraintFailureIncludesCorrectDataInstanceE, %edx
 2815      00
 2816 0cdb 4889C6   		movq	%rax, %rsi
 2817 0cde BF000000 		movl	$_ZN12_GLOBAL__N_145adderTimeConstraintFailureIncludesCorrectDataE, %edi
 2817      00
 2818 0ce3 E8000000 		call	_ZN8UnitTest9ListAdderC1ERNS_8TestListEPNS_4TestE
 2818      00
  53:TestTimeConstraint.cpp **** {
 2819              		.loc 6 53 0
 2820 0ce8 BF000000 		movl	$_ZN12_GLOBAL__N_159testTimeConstraintFailureIncludesTimeoutInformationInstanceE, %edi
 2820      00
 2821 0ced E8A2FAFF 		call	_ZN12_GLOBAL__N_151TestTimeConstraintFailureIncludesTimeoutInformationC2Ev
 2821      FF
 2822 0cf2 BA000000 		movl	$__dso_handle, %edx
 2822      00
 2823 0cf7 BE000000 		movl	$_ZN12_GLOBAL__N_159testTimeConstraintFailureIncludesTimeoutInformationInstanceE, %esi
 2823      00
 2824 0cfc BF000000 		movl	$_ZN12_GLOBAL__N_151TestTimeConstraintFailureIncludesTimeoutInformationD1Ev, %edi
 2824      00
 2825 0d01 E8000000 		call	__cxa_atexit
 2825      00
 2826 0d06 E8000000 		call	_ZN8UnitTest4Test11GetTestListEv
 2826      00
 2827 0d0b BA000000 		movl	$_ZN12_GLOBAL__N_159testTimeConstraintFailureIncludesTimeoutInformationInstanceE, %edx
 2827      00
 2828 0d10 4889C6   		movq	%rax, %rsi
 2829 0d13 BF000000 		movl	$_ZN12_GLOBAL__N_152adderTimeConstraintFailureIncludesTimeoutInformationE, %edi
 2829      00
 2830 0d18 E8000000 		call	_ZN8UnitTest9ListAdderC1ERNS_8TestListEPNS_4TestE
 2830      00
 2831              	.L135:
 2832              		.loc 6 69 0
 2833 0d1d C9       		leave
 2834              		.cfi_def_cfa 7, 8
 2835 0d1e C3       		ret
 2836              		.cfi_endproc
 2837              	.LFE1201:
 2839              		.section	.rodata
 2840 04e8 00000000 		.align 16
 2840      00000000 
 2843              	_ZTIN12_GLOBAL__N_138TestTimeConstraintSucceedsWithFastTestE:
 2844 04f0 00000000 		.quad	_ZTVN10__cxxabiv120__si_class_type_infoE+16
 2844      00000000 
 2845 04f8 00000000 		.quad	_ZTSN12_GLOBAL__N_138TestTimeConstraintSucceedsWithFastTestE
 2845      00000000 
 2846 0500 00000000 		.quad	_ZTIN8UnitTest4TestE
 2846      00000000 
 2847 0508 00000000 		.align 16
 2847      00000000 
 2850              	_ZTIN12_GLOBAL__N_135TestTimeConstraintFailsWithSlowTestE:
 2851 0510 00000000 		.quad	_ZTVN10__cxxabiv120__si_class_type_infoE+16
 2851      00000000 
 2852 0518 00000000 		.quad	_ZTSN12_GLOBAL__N_135TestTimeConstraintFailsWithSlowTestE
 2852      00000000 
 2853 0520 00000000 		.quad	_ZTIN8UnitTest4TestE
 2853      00000000 
 2854 0528 00000000 		.align 16
 2854      00000000 
 2857              	_ZTIN12_GLOBAL__N_144TestTimeConstraintFailureIncludesCorrectDataE:
 2858 0530 00000000 		.quad	_ZTVN10__cxxabiv120__si_class_type_infoE+16
 2858      00000000 
 2859 0538 00000000 		.quad	_ZTSN12_GLOBAL__N_144TestTimeConstraintFailureIncludesCorrectDataE
 2859      00000000 
 2860 0540 00000000 		.quad	_ZTIN8UnitTest4TestE
 2860      00000000 
 2861 0548 00000000 		.align 16
 2861      00000000 
 2864              	_ZTIN12_GLOBAL__N_151TestTimeConstraintFailureIncludesTimeoutInformationE:
 2865 0550 00000000 		.quad	_ZTVN10__cxxabiv120__si_class_type_infoE+16
 2865      00000000 
 2866 0558 00000000 		.quad	_ZTSN12_GLOBAL__N_151TestTimeConstraintFailureIncludesTimeoutInformationE
 2866      00000000 
 2867 0560 00000000 		.quad	_ZTIN8UnitTest4TestE
 2867      00000000 
 2868 0568 00000000 		.align 64
 2868      00000000 
 2868      00000000 
 2868      00000000 
 2868      00000000 
 2871              	_ZTSN12_GLOBAL__N_151TestTimeConstraintFailureIncludesTimeoutInformationE:
 2872 0580 2A4E3132 		.string	"*N12_GLOBAL__N_151TestTimeConstraintFailureIncludesTimeoutInformationE"
 2872      5F474C4F 
 2872      42414C5F 
 2872      5F4E5F31 
 2872      35315465 
 2873 05c7 00000000 		.align 64
 2873      00000000 
 2873      00000000 
 2873      00000000 
 2873      00000000 
 2876              	_ZTSN12_GLOBAL__N_144TestTimeConstraintFailureIncludesCorrectDataE:
 2877 0600 2A4E3132 		.string	"*N12_GLOBAL__N_144TestTimeConstraintFailureIncludesCorrectDataE"
 2877      5F474C4F 
 2877      42414C5F 
 2877      5F4E5F31 
 2877      34345465 
 2878              		.align 32
 2881              	_ZTSN12_GLOBAL__N_135TestTimeConstraintFailsWithSlowTestE:
 2882 0640 2A4E3132 		.string	"*N12_GLOBAL__N_135TestTimeConstraintFailsWithSlowTestE"
 2882      5F474C4F 
 2882      42414C5F 
 2882      5F4E5F31 
 2882      33355465 
 2883 0677 00000000 		.align 32
 2883      00000000 
 2883      00
 2886              	_ZTSN12_GLOBAL__N_138TestTimeConstraintSucceedsWithFastTestE:
 2887 0680 2A4E3132 		.string	"*N12_GLOBAL__N_138TestTimeConstraintSucceedsWithFastTestE"
 2887      5F474C4F 
 2887      42414C5F 
 2887      5F4E5F31 
 2887      33385465 
 2888              		.text
 2890              	_GLOBAL__sub_I_TestTimeConstraint.cpp:
 2891              	.LFB1202:
 2892              		.loc 6 69 0
 2893              		.cfi_startproc
 2894 0d1f 55       		pushq	%rbp
 2895              		.cfi_def_cfa_offset 16
 2896              		.cfi_offset 6, -16
 2897 0d20 4889E5   		movq	%rsp, %rbp
 2898              		.cfi_def_cfa_register 6
 2899              		.loc 6 69 0
 2900 0d23 BEFFFF00 		movl	$65535, %esi
 2900      00
 2901 0d28 BF010000 		movl	$1, %edi
 2901      00
 2902 0d2d E8F2FEFF 		call	_Z41__static_initialization_and_destruction_0ii
 2902      FF
 2903 0d32 5D       		popq	%rbp
 2904              		.cfi_def_cfa 7, 8
 2905 0d33 C3       		ret
 2906              		.cfi_endproc
 2907              	.LFE1202:
 2909              		.section	.init_array,"aw"
 2910              		.align 8
 2911 0000 00000000 		.quad	_GLOBAL__sub_I_TestTimeConstraint.cpp
 2911      00000000 
 2912              		.section	.rodata
 2913 06ba 00000000 		.align 8
 2913      0000
 2916              	_ZZL18__gthread_active_pvE20__gthread_active_ptr:
 2917 06c0 00000000 		.quad	_ZL28__gthrw___pthread_key_createPjPFvPvE
 2917      00000000 
 2918              		.weakref	_ZL28__gthrw___pthread_key_createPjPFvPvE,__pthread_key_create
 2919              		.align 4
 2920              	.LC1:
 2921 06c8 00000000 		.long	0
 2922              		.text
 2923              	.Letext0:
 2924              		.file 8 "../TestDetails.h"
 2925              		.file 9 "../TestList.h"
 2926              		.file 10 "../TestResults.h"
 2927              		.file 11 "../PosixUtils/TimeHelpers.h"
 2928              		.file 12 "../TimeConstraint.h"
 2929              		.file 13 "<built-in>"
 2930              		.file 14 "/usr/include/stdio.h"
 2931              		.file 15 "/usr/lib/gcc/x86_64-linux-gnu/4.9/include/stddef.h"
 2932              		.file 16 "/usr/include/wchar.h"
 2933              		.file 17 "/usr/include/c++/4.9/cwchar"
 2934              		.file 18 "/usr/include/c++/4.9/bits/char_traits.h"
 2935              		.file 19 "/usr/include/x86_64-linux-gnu/c++/4.9/bits/c++config.h"
 2936              		.file 20 "/usr/include/c++/4.9/clocale"
 2937              		.file 21 "/usr/include/c++/4.9/bits/allocator.h"
 2938              		.file 22 "/usr/include/c++/4.9/bits/basic_string.h"
 2939              		.file 23 "/usr/include/c++/4.9/bits/basic_string.tcc"
 2940              		.file 24 "/usr/include/c++/4.9/bits/stringfwd.h"
 2941              		.file 25 "/usr/include/c++/4.9/cwctype"
 2942              		.file 26 "/usr/include/c++/4.9/cstring"
 2943              		.file 27 "/usr/include/time.h"
 2944              		.file 28 "/usr/include/c++/4.9/debug/debug.h"
 2945              		.file 29 "/usr/include/c++/4.9/bits/predefined_ops.h"
 2946              		.file 30 "/usr/include/c++/4.9/ext/new_allocator.h"
 2947              		.file 31 "/usr/include/c++/4.9/ext/numeric_traits.h"
 2948              		.file 32 "/usr/include/locale.h"
 2949              		.file 33 "/usr/include/x86_64-linux-gnu/bits/types.h"
 2950              		.file 34 "/usr/include/x86_64-linux-gnu/bits/time.h"
 2951              		.file 35 "/usr/include/x86_64-linux-gnu/c++/4.9/bits/atomic_word.h"
 2952              		.file 36 "/usr/include/wctype.h"
 2953              		.file 37 "/usr/include/string.h"
DEFINED SYMBOLS
                            *ABS*:0000000000000000 TestTimeConstraint.cpp
     /tmp/ccl5CB8j.s:10     .text._ZN13UnitTestSuite12GetSuiteNameEv:0000000000000000 _ZN13UnitTestSuite12GetSuiteNameEv
     /tmp/ccl5CB8j.s:33     .text._ZN8UnitTest15MemoryOutStreamC1Ev:0000000000000000 _ZN8UnitTest15MemoryOutStreamC1Ev
     /tmp/ccl5CB8j.s:2690   .rodata._ZTTN8UnitTest15MemoryOutStreamE:0000000000000000 _ZTTN8UnitTest15MemoryOutStreamE
     /tmp/ccl5CB8j.s:2674   .rodata._ZTVN8UnitTest15MemoryOutStreamE:0000000000000000 _ZTVN8UnitTest15MemoryOutStreamE
     /tmp/ccl5CB8j.s:146    .text._ZN8UnitTest12TestReporterC2Ev:0000000000000000 _ZN8UnitTest12TestReporterC2Ev
     /tmp/ccl5CB8j.s:146    .text._ZN8UnitTest12TestReporterC2Ev:0000000000000000 _ZN8UnitTest12TestReporterC1Ev
     /tmp/ccl5CB8j.s:174    .text._ZN17RecordingReporterC2Ev:0000000000000000 _ZN17RecordingReporterC2Ev
     /tmp/ccl5CB8j.s:2592   .rodata._ZTV17RecordingReporter:0000000000000000 _ZTV17RecordingReporter
     /tmp/ccl5CB8j.s:174    .text._ZN17RecordingReporterC2Ev:0000000000000000 _ZN17RecordingReporterC1Ev
     /tmp/ccl5CB8j.s:251    .text._ZN17RecordingReporter15ReportTestStartERKN8UnitTest11TestDetailsE:0000000000000000 _ZN17RecordingReporter15ReportTestStartERKN8UnitTest11TestDetailsE
     /tmp/ccl5CB8j.s:298    .text._ZN17RecordingReporter13ReportFailureERKN8UnitTest11TestDetailsEPKc:0000000000000000 _ZN17RecordingReporter13ReportFailureERKN8UnitTest11TestDetailsEPKc
     /tmp/ccl5CB8j.s:366    .text._ZN17RecordingReporter16ReportTestFinishERKN8UnitTest11TestDetailsEf:0000000000000000 _ZN17RecordingReporter16ReportTestFinishERKN8UnitTest11TestDetailsEf
     /tmp/ccl5CB8j.s:418    .text._ZN17RecordingReporter13ReportSummaryEiiif:0000000000000000 _ZN17RecordingReporter13ReportSummaryEiiif
     /tmp/ccl5CB8j.s:459    .text._ZN17ScopedCurrentTestC2ERN8UnitTest11TestResultsEPKNS0_11TestDetailsE:0000000000000000 _ZN17ScopedCurrentTestC2ERN8UnitTest11TestResultsEPKNS0_11TestDetailsE
     /tmp/ccl5CB8j.s:459    .text._ZN17ScopedCurrentTestC2ERN8UnitTest11TestResultsEPKNS0_11TestDetailsE:0000000000000000 _ZN17ScopedCurrentTestC1ERN8UnitTest11TestResultsEPKNS0_11TestDetailsE
     /tmp/ccl5CB8j.s:512    .text._ZN17ScopedCurrentTestD2Ev:0000000000000000 _ZN17ScopedCurrentTestD2Ev
     /tmp/ccl5CB8j.s:512    .text._ZN17ScopedCurrentTestD2Ev:0000000000000000 _ZN17ScopedCurrentTestD1Ev
     /tmp/ccl5CB8j.s:555    .text:0000000000000000 _ZN12_GLOBAL__N_138TestTimeConstraintSucceedsWithFastTestC2Ev
     /tmp/ccl5CB8j.s:2517   .rodata:00000000000004c0 _ZTVN12_GLOBAL__N_138TestTimeConstraintSucceedsWithFastTestE
     /tmp/ccl5CB8j.s:587    .bss:0000000000000000 _ZN12_GLOBAL__N_146testTimeConstraintSucceedsWithFastTestInstanceE
     /tmp/ccl5CB8j.s:587    .bss:0000000000000038 _ZN12_GLOBAL__N_139adderTimeConstraintSucceedsWithFastTestE
     /tmp/ccl5CB8j.s:599    .text:000000000000003e _ZNK12_GLOBAL__N_138TestTimeConstraintSucceedsWithFastTest7RunImplEv
     /tmp/ccl5CB8j.s:2125   .text._ZN8UnitTest10CheckEqualIiiEEvRNS_11TestResultsERKT_RKT0_RKNS_11TestDetailsE:0000000000000000 _ZN8UnitTest10CheckEqualIiiEEvRNS_11TestResultsERKT_RKT0_RKNS_11TestDetailsE
     /tmp/ccl5CB8j.s:832    .text:00000000000001e6 _ZN12_GLOBAL__N_135TestTimeConstraintFailsWithSlowTestC2Ev
     /tmp/ccl5CB8j.s:2443   .rodata:0000000000000480 _ZTVN12_GLOBAL__N_135TestTimeConstraintFailsWithSlowTestE
     /tmp/ccl5CB8j.s:863    .bss:0000000000000040 _ZN12_GLOBAL__N_143testTimeConstraintFailsWithSlowTestInstanceE
     /tmp/ccl5CB8j.s:863    .bss:0000000000000078 _ZN12_GLOBAL__N_136adderTimeConstraintFailsWithSlowTestE
     /tmp/ccl5CB8j.s:873    .text:0000000000000224 _ZNK12_GLOBAL__N_135TestTimeConstraintFailsWithSlowTest7RunImplEv
     /tmp/ccl5CB8j.s:1106   .text:00000000000003cc _ZN12_GLOBAL__N_144TestTimeConstraintFailureIncludesCorrectDataC2Ev
     /tmp/ccl5CB8j.s:2369   .rodata:0000000000000440 _ZTVN12_GLOBAL__N_144TestTimeConstraintFailureIncludesCorrectDataE
     /tmp/ccl5CB8j.s:1137   .bss:0000000000000080 _ZN12_GLOBAL__N_152testTimeConstraintFailureIncludesCorrectDataInstanceE
     /tmp/ccl5CB8j.s:1137   .bss:00000000000000b8 _ZN12_GLOBAL__N_145adderTimeConstraintFailureIncludesCorrectDataE
     /tmp/ccl5CB8j.s:1165   .text:000000000000040a _ZNK12_GLOBAL__N_144TestTimeConstraintFailureIncludesCorrectData7RunImplEv
     /tmp/ccl5CB8j.s:2271   .text._ZN8UnitTest5CheckIPcEEbT_:0000000000000000 _ZN8UnitTest5CheckIPcEEbT_
     /tmp/ccl5CB8j.s:2605   .text._ZN17RecordingReporterD2Ev:0000000000000000 _ZN17RecordingReporterD1Ev
     /tmp/ccl5CB8j.s:1559   .text:0000000000000794 _ZN12_GLOBAL__N_151TestTimeConstraintFailureIncludesTimeoutInformationC2Ev
     /tmp/ccl5CB8j.s:2295   .rodata:0000000000000400 _ZTVN12_GLOBAL__N_151TestTimeConstraintFailureIncludesTimeoutInformationE
     /tmp/ccl5CB8j.s:1590   .bss:00000000000000c0 _ZN12_GLOBAL__N_159testTimeConstraintFailureIncludesTimeoutInformationInstanceE
     /tmp/ccl5CB8j.s:1590   .bss:00000000000000f8 _ZN12_GLOBAL__N_152adderTimeConstraintFailureIncludesTimeoutInformationE
     /tmp/ccl5CB8j.s:1613   .text:00000000000007d2 _ZNK12_GLOBAL__N_151TestTimeConstraintFailureIncludesTimeoutInformation7RunImplEv
     /tmp/ccl5CB8j.s:1938   .text._ZN8UnitTest15MemoryOutStreamD1Ev:0000000000000000 _ZN8UnitTest15MemoryOutStreamD1Ev
     /tmp/ccl5CB8j.s:2066   .text._ZN8UnitTest15MemoryOutStreamD1Ev:00000000000000c8 _ZTv0_n24_N8UnitTest15MemoryOutStreamD1Ev
     /tmp/ccl5CB8j.s:2080   .text._ZN8UnitTest15MemoryOutStreamD0Ev:0000000000000000 _ZN8UnitTest15MemoryOutStreamD0Ev
     /tmp/ccl5CB8j.s:2107   .text._ZN8UnitTest15MemoryOutStreamD0Ev:0000000000000026 _ZTv0_n24_N8UnitTest15MemoryOutStreamD0Ev
     /tmp/ccl5CB8j.s:2864   .rodata:0000000000000550 _ZTIN12_GLOBAL__N_151TestTimeConstraintFailureIncludesTimeoutInformationE
     /tmp/ccl5CB8j.s:2304   .text:0000000000000aa4 _ZN12_GLOBAL__N_151TestTimeConstraintFailureIncludesTimeoutInformationD1Ev
     /tmp/ccl5CB8j.s:2341   .text:0000000000000ade _ZN12_GLOBAL__N_151TestTimeConstraintFailureIncludesTimeoutInformationD0Ev
     /tmp/ccl5CB8j.s:2304   .text:0000000000000aa4 _ZN12_GLOBAL__N_151TestTimeConstraintFailureIncludesTimeoutInformationD2Ev
     /tmp/ccl5CB8j.s:2857   .rodata:0000000000000530 _ZTIN12_GLOBAL__N_144TestTimeConstraintFailureIncludesCorrectDataE
     /tmp/ccl5CB8j.s:2378   .text:0000000000000b04 _ZN12_GLOBAL__N_144TestTimeConstraintFailureIncludesCorrectDataD1Ev
     /tmp/ccl5CB8j.s:2415   .text:0000000000000b3e _ZN12_GLOBAL__N_144TestTimeConstraintFailureIncludesCorrectDataD0Ev
     /tmp/ccl5CB8j.s:2378   .text:0000000000000b04 _ZN12_GLOBAL__N_144TestTimeConstraintFailureIncludesCorrectDataD2Ev
     /tmp/ccl5CB8j.s:2850   .rodata:0000000000000510 _ZTIN12_GLOBAL__N_135TestTimeConstraintFailsWithSlowTestE
     /tmp/ccl5CB8j.s:2452   .text:0000000000000b64 _ZN12_GLOBAL__N_135TestTimeConstraintFailsWithSlowTestD1Ev
     /tmp/ccl5CB8j.s:2489   .text:0000000000000b9e _ZN12_GLOBAL__N_135TestTimeConstraintFailsWithSlowTestD0Ev
     /tmp/ccl5CB8j.s:2452   .text:0000000000000b64 _ZN12_GLOBAL__N_135TestTimeConstraintFailsWithSlowTestD2Ev
     /tmp/ccl5CB8j.s:2843   .rodata:00000000000004f0 _ZTIN12_GLOBAL__N_138TestTimeConstraintSucceedsWithFastTestE
     /tmp/ccl5CB8j.s:2526   .text:0000000000000bc4 _ZN12_GLOBAL__N_138TestTimeConstraintSucceedsWithFastTestD1Ev
     /tmp/ccl5CB8j.s:2563   .text:0000000000000bfe _ZN12_GLOBAL__N_138TestTimeConstraintSucceedsWithFastTestD0Ev
     /tmp/ccl5CB8j.s:2526   .text:0000000000000bc4 _ZN12_GLOBAL__N_138TestTimeConstraintSucceedsWithFastTestD2Ev
     /tmp/ccl5CB8j.s:2743   .rodata._ZTI17RecordingReporter:0000000000000000 _ZTI17RecordingReporter
     /tmp/ccl5CB8j.s:2645   .text._ZN17RecordingReporterD0Ev:0000000000000000 _ZN17RecordingReporterD0Ev
     /tmp/ccl5CB8j.s:2605   .text._ZN17RecordingReporterD2Ev:0000000000000000 _ZN17RecordingReporterD2Ev
     /tmp/ccl5CB8j.s:2759   .rodata._ZTIN8UnitTest15MemoryOutStreamE:0000000000000000 _ZTIN8UnitTest15MemoryOutStreamE
     /tmp/ccl5CB8j.s:2703   .rodata._ZTCN8UnitTest15MemoryOutStreamE0_St19basic_ostringstreamIcSt11char_traitsIcESaIcEE:0000000000000000 _ZTCN8UnitTest15MemoryOutStreamE0_St19basic_ostringstreamIcSt11char_traitsIcESaIcEE
     /tmp/ccl5CB8j.s:2720   .rodata._ZTCN8UnitTest15MemoryOutStreamE0_So:0000000000000000 _ZTCN8UnitTest15MemoryOutStreamE0_So
     /tmp/ccl5CB8j.s:2736   .rodata._ZTS17RecordingReporter:0000000000000000 _ZTS17RecordingReporter
     /tmp/ccl5CB8j.s:2752   .rodata._ZTSN8UnitTest15MemoryOutStreamE:0000000000000000 _ZTSN8UnitTest15MemoryOutStreamE
     /tmp/ccl5CB8j.s:2765   .text:0000000000000c24 _Z41__static_initialization_and_destruction_0ii
     /tmp/ccl5CB8j.s:2886   .rodata:0000000000000680 _ZTSN12_GLOBAL__N_138TestTimeConstraintSucceedsWithFastTestE
     /tmp/ccl5CB8j.s:2881   .rodata:0000000000000640 _ZTSN12_GLOBAL__N_135TestTimeConstraintFailsWithSlowTestE
     /tmp/ccl5CB8j.s:2876   .rodata:0000000000000600 _ZTSN12_GLOBAL__N_144TestTimeConstraintFailureIncludesCorrectDataE
     /tmp/ccl5CB8j.s:2871   .rodata:0000000000000580 _ZTSN12_GLOBAL__N_151TestTimeConstraintFailureIncludesTimeoutInformationE
     /tmp/ccl5CB8j.s:2890   .text:0000000000000d1f _GLOBAL__sub_I_TestTimeConstraint.cpp
     /tmp/ccl5CB8j.s:2916   .rodata:00000000000006c0 _ZZL18__gthread_active_pvE20__gthread_active_ptr
                           .group:0000000000000000 _ZN8UnitTest12TestReporterC5Ev
                           .group:0000000000000000 _ZN17RecordingReporterC5Ev
                           .group:0000000000000000 _ZN17ScopedCurrentTestC5ERN8UnitTest11TestResultsEPKNS0_11TestDetailsE
                           .group:0000000000000000 _ZN17ScopedCurrentTestD5Ev
                           .group:0000000000000000 _ZN17RecordingReporterD5Ev

UNDEFINED SYMBOLS
__gxx_personality_v0
_ZNSt9basic_iosIcSt11char_traitsIcEEC2Ev
_ZNSt19basic_ostringstreamIcSt11char_traitsIcESaIcEEC2ESt13_Ios_Openmode
_ZNSsC1Ev
_ZNSt19basic_ostringstreamIcSt11char_traitsIcESaIcEED2Ev
_ZNSt9basic_iosIcSt11char_traitsIcEED2Ev
_Unwind_Resume
_ZTVN8UnitTest12TestReporterE
strcpy
_ZN8UnitTest11CurrentTest7ResultsEv
_ZN8UnitTest11CurrentTest7DetailsEv
_ZN8UnitTest4TestC2EPKcS2_S2_i
_ZN8UnitTest11TestResultsC1EPNS_12TestReporterE
_ZN8UnitTest11TestDetailsC1EPKcS2_S2_i
_ZN8UnitTest14TimeConstraintC1EiRKNS_11TestDetailsE
_ZN8UnitTest11TimeHelpers7SleepMsEi
_ZN8UnitTest14TimeConstraintD1Ev
_ZN8UnitTest11TestDetailsC1ERKS0_i
_ZNK8UnitTest11TestResults15GetFailureCountEv
__cxa_end_catch
__cxa_begin_catch
_ZN8UnitTest11TestResults13OnTestFailureERKNS_11TestDetailsEPKc
__stack_chk_fail
strstr
_ZNSsD1Ev
_ZdlPv
_ZStlsISt11char_traitsIcEERSt13basic_ostreamIcT_ES5_PKc
_ZNSolsEi
_ZNK8UnitTest15MemoryOutStream7GetTextEv
_ZN8UnitTest4TestD2Ev
_ZN8UnitTest12TestReporterD2Ev
_ZTISt19basic_ostringstreamIcSt11char_traitsIcESaIcEE
_ZTISo
_ZTVN10__cxxabiv120__si_class_type_infoE
_ZTIN8UnitTest12TestReporterE
__dso_handle
__cxa_atexit
_ZN8UnitTest4Test11GetTestListEv
_ZN8UnitTest9ListAdderC1ERNS_8TestListEPNS_4TestE
_ZTIN8UnitTest4TestE
__pthread_key_create
