   1              		.file	"TestTestMacros.cpp"
   2              		.text
   3              	.Ltext0:
   4              		.section	.rodata
   5              	.LC0:
   6 0000 44656661 		.string	"DefaultSuite"
   6      756C7453 
   6      75697465 
   6      00
   7              		.section	.text._ZN13UnitTestSuite12GetSuiteNameEv,"axG",@progbits,_ZN13UnitTestSuite12GetSuiteName
   8              		.weak	_ZN13UnitTestSuite12GetSuiteNameEv
  10              	_ZN13UnitTestSuite12GetSuiteNameEv:
  11              	.LFB0:
  12              		.file 1 "../TestSuite.h"
   1:../TestSuite.h **** #ifndef UNITTEST_TESTSUITE_H
   2:../TestSuite.h **** #define UNITTEST_TESTSUITE_H
   3:../TestSuite.h **** 
   4:../TestSuite.h **** namespace UnitTestSuite {
   5:../TestSuite.h **** 
   6:../TestSuite.h ****     inline char const* GetSuiteName ()
   7:../TestSuite.h ****     {
  13              		.loc 1 7 0
  14              		.cfi_startproc
  15 0000 55       		pushq	%rbp
  16              		.cfi_def_cfa_offset 16
  17              		.cfi_offset 6, -16
  18 0001 4889E5   		movq	%rsp, %rbp
  19              		.cfi_def_cfa_register 6
   8:../TestSuite.h ****         return "DefaultSuite";
  20              		.loc 1 8 0
  21 0004 B8000000 		movl	$.LC0, %eax
  21      00
   9:../TestSuite.h ****     }
  22              		.loc 1 9 0
  23 0009 5D       		popq	%rbp
  24              		.cfi_def_cfa 7, 8
  25 000a C3       		ret
  26              		.cfi_endproc
  27              	.LFE0:
  29              		.section	.text._ZN8UnitTest15MemoryOutStreamC1Ev,"axG",@progbits,_ZN8UnitTest15MemoryOutStreamC1Ev
  30              		.align 2
  31              		.weak	_ZN8UnitTest15MemoryOutStreamC1Ev
  33              	_ZN8UnitTest15MemoryOutStreamC1Ev:
  34              	.LFB1053:
  35              		.file 2 "../MemoryOutStream.h"
   1:../MemoryOutStream.h **** #ifndef UNITTEST_MEMORYOUTSTREAM_H
   2:../MemoryOutStream.h **** #define UNITTEST_MEMORYOUTSTREAM_H
   3:../MemoryOutStream.h **** 
   4:../MemoryOutStream.h **** #include "Config.h"
   5:../MemoryOutStream.h **** 
   6:../MemoryOutStream.h **** #ifndef UNITTEST_USE_CUSTOM_STREAMS
   7:../MemoryOutStream.h **** 
   8:../MemoryOutStream.h **** #include <sstream>
   9:../MemoryOutStream.h **** 
  10:../MemoryOutStream.h **** namespace UnitTest
  11:../MemoryOutStream.h **** {
  12:../MemoryOutStream.h **** 
  13:../MemoryOutStream.h **** class MemoryOutStream : public std::ostringstream
  14:../MemoryOutStream.h **** {
  15:../MemoryOutStream.h **** public:
  16:../MemoryOutStream.h ****     MemoryOutStream() {}
  36              		.loc 2 16 0
  37              		.cfi_startproc
  38              		.cfi_personality 0x3,__gxx_personality_v0
  39              		.cfi_lsda 0x3,.LLSDA1053
  40 0000 55       		pushq	%rbp
  41              		.cfi_def_cfa_offset 16
  42              		.cfi_offset 6, -16
  43 0001 4889E5   		movq	%rsp, %rbp
  44              		.cfi_def_cfa_register 6
  45 0004 53       		pushq	%rbx
  46 0005 4883EC18 		subq	$24, %rsp
  47              		.cfi_offset 3, -24
  48 0009 48897DE8 		movq	%rdi, -24(%rbp)
  49              	.LBB2:
  50              		.loc 2 16 0
  51 000d 488B45E8 		movq	-24(%rbp), %rax
  52 0011 4883C060 		addq	$96, %rax
  53 0015 4889C7   		movq	%rax, %rdi
  54              	.LEHB0:
  55 0018 E8000000 		call	_ZNSt9basic_iosIcSt11char_traitsIcEEC2Ev
  55      00
  56              	.LEHE0:
  57 001d B9000000 		movl	$_ZTTN8UnitTest15MemoryOutStreamE+8, %ecx
  57      00
  58 0022 488B45E8 		movq	-24(%rbp), %rax
  59 0026 BA100000 		movl	$16, %edx
  59      00
  60 002b 4889CE   		movq	%rcx, %rsi
  61 002e 4889C7   		movq	%rax, %rdi
  62              	.LEHB1:
  63 0031 E8000000 		call	_ZNSt19basic_ostringstreamIcSt11char_traitsIcESaIcEEC2ESt13_Ios_Openmode
  63      00
  64              	.LEHE1:
  65              		.loc 2 16 0 is_stmt 0 discriminator 9
  66 0036 BA000000 		movl	$_ZTVN8UnitTest15MemoryOutStreamE+24, %edx
  66      00
  67 003b 488B45E8 		movq	-24(%rbp), %rax
  68 003f 488910   		movq	%rdx, (%rax)
  69 0042 BA600000 		movl	$96, %edx
  69      00
  70 0047 488B45E8 		movq	-24(%rbp), %rax
  71 004b 4801D0   		addq	%rdx, %rax
  72 004e BA000000 		movl	$_ZTVN8UnitTest15MemoryOutStreamE+64, %edx
  72      00
  73 0053 488910   		movq	%rdx, (%rax)
  74 0056 488B45E8 		movq	-24(%rbp), %rax
  75 005a 4883C058 		addq	$88, %rax
  76 005e 4889C7   		movq	%rax, %rdi
  77              	.LEHB2:
  78 0061 E8000000 		call	_ZNSsC1Ev
  78      00
  79              	.LEHE2:
  80              	.LBE2:
  81              		.loc 2 16 0
  82 0066 EB37     		jmp	.L8
  83              	.L6:
  84 0068 4889C3   		movq	%rax, %rbx
  85              	.LBB3:
  86 006b BA000000 		movl	$_ZTTN8UnitTest15MemoryOutStreamE+8, %edx
  86      00
  87 0070 488B45E8 		movq	-24(%rbp), %rax
  88 0074 4889D6   		movq	%rdx, %rsi
  89 0077 4889C7   		movq	%rax, %rdi
  90 007a E8000000 		call	_ZNSt19basic_ostringstreamIcSt11char_traitsIcESaIcEED2Ev
  90      00
  91 007f EB03     		jmp	.L5
  92              	.L7:
  93 0081 4889C3   		movq	%rax, %rbx
  94              	.L5:
  95              		.loc 2 16 0 discriminator 28
  96 0084 488B45E8 		movq	-24(%rbp), %rax
  97 0088 4883C060 		addq	$96, %rax
  98 008c 4889C7   		movq	%rax, %rdi
  99 008f E8000000 		call	_ZNSt9basic_iosIcSt11char_traitsIcEED2Ev
  99      00
 100 0094 4889D8   		movq	%rbx, %rax
 101 0097 4889C7   		movq	%rax, %rdi
 102              	.LEHB3:
 103 009a E8000000 		call	_Unwind_Resume
 103      00
 104              	.LEHE3:
 105              	.L8:
 106              	.LBE3:
 107              		.loc 2 16 0
 108 009f 4883C418 		addq	$24, %rsp
 109 00a3 5B       		popq	%rbx
 110 00a4 5D       		popq	%rbp
 111              		.cfi_def_cfa 7, 8
 112 00a5 C3       		ret
 113              		.cfi_endproc
 114              	.LFE1053:
 115              		.globl	__gxx_personality_v0
 116              		.section	.gcc_except_table._ZN8UnitTest15MemoryOutStreamC1Ev,"aG",@progbits,_ZN8UnitTest15MemoryOu
 117              	.LLSDA1053:
 118 0000 FF       		.byte	0xff
 119 0001 FF       		.byte	0xff
 120 0002 01       		.byte	0x1
 121 0003 12       		.uleb128 .LLSDACSE1053-.LLSDACSB1053
 122              	.LLSDACSB1053:
 123 0004 18       		.uleb128 .LEHB0-.LFB1053
 124 0005 05       		.uleb128 .LEHE0-.LEHB0
 125 0006 00       		.uleb128 0
 126 0007 00       		.uleb128 0
 127 0008 31       		.uleb128 .LEHB1-.LFB1053
 128 0009 05       		.uleb128 .LEHE1-.LEHB1
 129 000a 8101     		.uleb128 .L7-.LFB1053
 130 000c 00       		.uleb128 0
 131 000d 61       		.uleb128 .LEHB2-.LFB1053
 132 000e 05       		.uleb128 .LEHE2-.LEHB2
 133 000f 68       		.uleb128 .L6-.LFB1053
 134 0010 00       		.uleb128 0
 135 0011 9A01     		.uleb128 .LEHB3-.LFB1053
 136 0013 05       		.uleb128 .LEHE3-.LEHB3
 137 0014 00       		.uleb128 0
 138 0015 00       		.uleb128 0
 139              	.LLSDACSE1053:
 140              		.section	.text._ZN8UnitTest15MemoryOutStreamC1Ev,"axG",@progbits,_ZN8UnitTest15MemoryOutStreamC1Ev
 142              		.section	.text._ZN8UnitTest12TestReporterC2Ev,"axG",@progbits,_ZN8UnitTest12TestReporterC5Ev,comda
 143              		.align 2
 144              		.weak	_ZN8UnitTest12TestReporterC2Ev
 146              	_ZN8UnitTest12TestReporterC2Ev:
 147              	.LFB1067:
 148              		.file 3 "../TestReporter.h"
   1:../TestReporter.h **** #ifndef UNITTEST_TESTREPORTER_H
   2:../TestReporter.h **** #define UNITTEST_TESTREPORTER_H
   3:../TestReporter.h **** 
   4:../TestReporter.h **** namespace UnitTest {
   5:../TestReporter.h **** 
   6:../TestReporter.h **** class TestDetails;
   7:../TestReporter.h **** 
   8:../TestReporter.h **** class TestReporter
 149              		.loc 3 8 0 is_stmt 1
 150              		.cfi_startproc
 151 0000 55       		pushq	%rbp
 152              		.cfi_def_cfa_offset 16
 153              		.cfi_offset 6, -16
 154 0001 4889E5   		movq	%rsp, %rbp
 155              		.cfi_def_cfa_register 6
 156 0004 48897DF8 		movq	%rdi, -8(%rbp)
 157              	.LBB4:
 158              		.loc 3 8 0
 159 0008 488B45F8 		movq	-8(%rbp), %rax
 160 000c 48C70000 		movq	$_ZTVN8UnitTest12TestReporterE+16, (%rax)
 160      000000
 161              	.LBE4:
 162 0013 5D       		popq	%rbp
 163              		.cfi_def_cfa 7, 8
 164 0014 C3       		ret
 165              		.cfi_endproc
 166              	.LFE1067:
 168              		.weak	_ZN8UnitTest12TestReporterC1Ev
 169              		.set	_ZN8UnitTest12TestReporterC1Ev,_ZN8UnitTest12TestReporterC2Ev
 170              		.section	.text._ZN17RecordingReporterC2Ev,"axG",@progbits,_ZN17RecordingReporterC5Ev,comdat
 171              		.align 2
 172              		.weak	_ZN17RecordingReporterC2Ev
 174              	_ZN17RecordingReporterC2Ev:
 175              	.LFB1069:
 176              		.file 4 "RecordingReporter.h"
   1:RecordingReporter.h **** #ifndef UNITTEST_RECORDINGREPORTER_H
   2:RecordingReporter.h **** #define UNITTEST_RECORDINGREPORTER_H
   3:RecordingReporter.h **** 
   4:RecordingReporter.h **** #include "../TestReporter.h"
   5:RecordingReporter.h **** #include <cstring>
   6:RecordingReporter.h **** 
   7:RecordingReporter.h **** #include "../TestDetails.h"
   8:RecordingReporter.h **** 
   9:RecordingReporter.h **** struct RecordingReporter : public UnitTest::TestReporter
  10:RecordingReporter.h **** {
  11:RecordingReporter.h **** private:
  12:RecordingReporter.h ****     enum { kMaxStringLength = 256 };
  13:RecordingReporter.h **** 
  14:RecordingReporter.h **** public:
  15:RecordingReporter.h ****     RecordingReporter()
 177              		.loc 4 15 0
 178              		.cfi_startproc
 179 0000 55       		pushq	%rbp
 180              		.cfi_def_cfa_offset 16
 181              		.cfi_offset 6, -16
 182 0001 4889E5   		movq	%rsp, %rbp
 183              		.cfi_def_cfa_register 6
 184 0004 4883EC10 		subq	$16, %rsp
 185 0008 48897DF8 		movq	%rdi, -8(%rbp)
 186              	.LBB5:
  16:RecordingReporter.h ****         : testRunCount(0)
  17:RecordingReporter.h ****         , testFailedCount(0)
  18:RecordingReporter.h ****         , lastFailedLine(0)
  19:RecordingReporter.h ****         , testFinishedCount(0)
  20:RecordingReporter.h ****         , lastFinishedTestTime(0)
  21:RecordingReporter.h ****         , summaryTotalTestCount(0)
  22:RecordingReporter.h ****         , summaryFailedTestCount(0)
  23:RecordingReporter.h ****         , summaryFailureCount(0)
  24:RecordingReporter.h ****         , summarySecondsElapsed(0)
 187              		.loc 4 24 0
 188 000c 488B45F8 		movq	-8(%rbp), %rax
 189 0010 4889C7   		movq	%rax, %rdi
 190 0013 E8000000 		call	_ZN8UnitTest12TestReporterC2Ev
 190      00
 191 0018 488B45F8 		movq	-8(%rbp), %rax
 192 001c 48C70000 		movq	$_ZTV17RecordingReporter+16, (%rax)
 192      000000
 193 0023 488B45F8 		movq	-8(%rbp), %rax
 194 0027 C7400800 		movl	$0, 8(%rax)
 194      000000
 195 002e 488B45F8 		movq	-8(%rbp), %rax
 196 0032 C7800C02 		movl	$0, 524(%rax)
 196      00000000 
 196      0000
 197 003c 488B45F8 		movq	-8(%rbp), %rax
 198 0040 C7801003 		movl	$0, 784(%rax)
 198      00000000 
 198      0000
 199 004a 488B45F8 		movq	-8(%rbp), %rax
 200 004e C7801406 		movl	$0, 1556(%rax)
 200      00000000 
 200      0000
 201 0058 488B55F8 		movq	-8(%rbp), %rdx
 202 005c 8B050000 		movl	.LC1(%rip), %eax
 202      0000
 203 0062 89821808 		movl	%eax, 2072(%rdx)
 203      0000
 204 0068 488B45F8 		movq	-8(%rbp), %rax
 205 006c C7801C08 		movl	$0, 2076(%rax)
 205      00000000 
 205      0000
 206 0076 488B45F8 		movq	-8(%rbp), %rax
 207 007a C7802008 		movl	$0, 2080(%rax)
 207      00000000 
 207      0000
 208 0084 488B45F8 		movq	-8(%rbp), %rax
 209 0088 C7802408 		movl	$0, 2084(%rax)
 209      00000000 
 209      0000
 210 0092 488B55F8 		movq	-8(%rbp), %rdx
 211 0096 8B050000 		movl	.LC1(%rip), %eax
 211      0000
 212 009c 89822808 		movl	%eax, 2088(%rdx)
 212      0000
  25:RecordingReporter.h ****     {
  26:RecordingReporter.h ****         lastStartedSuite[0] = '\0';
 213              		.loc 4 26 0
 214 00a2 488B45F8 		movq	-8(%rbp), %rax
 215 00a6 C6400C00 		movb	$0, 12(%rax)
  27:RecordingReporter.h ****         lastStartedTest[0] = '\0';
 216              		.loc 4 27 0
 217 00aa 488B45F8 		movq	-8(%rbp), %rax
 218 00ae C6800C01 		movb	$0, 268(%rax)
 218      000000
  28:RecordingReporter.h ****         lastFailedFile[0] = '\0';
 219              		.loc 4 28 0
 220 00b5 488B45F8 		movq	-8(%rbp), %rax
 221 00b9 C6801002 		movb	$0, 528(%rax)
 221      000000
  29:RecordingReporter.h ****         lastFailedSuite[0] = '\0';
 222              		.loc 4 29 0
 223 00c0 488B45F8 		movq	-8(%rbp), %rax
 224 00c4 C6801403 		movb	$0, 788(%rax)
 224      000000
  30:RecordingReporter.h ****         lastFailedTest[0] = '\0';
 225              		.loc 4 30 0
 226 00cb 488B45F8 		movq	-8(%rbp), %rax
 227 00cf C6801404 		movb	$0, 1044(%rax)
 227      000000
  31:RecordingReporter.h ****         lastFailedMessage[0] = '\0';
 228              		.loc 4 31 0
 229 00d6 488B45F8 		movq	-8(%rbp), %rax
 230 00da C6801405 		movb	$0, 1300(%rax)
 230      000000
  32:RecordingReporter.h ****         lastFinishedSuite[0] = '\0';
 231              		.loc 4 32 0
 232 00e1 488B45F8 		movq	-8(%rbp), %rax
 233 00e5 C6801806 		movb	$0, 1560(%rax)
 233      000000
  33:RecordingReporter.h ****         lastFinishedTest[0] = '\0';
 234              		.loc 4 33 0
 235 00ec 488B45F8 		movq	-8(%rbp), %rax
 236 00f0 C6801807 		movb	$0, 1816(%rax)
 236      000000
 237              	.LBE5:
  34:RecordingReporter.h ****     }
 238              		.loc 4 34 0
 239 00f7 C9       		leave
 240              		.cfi_def_cfa 7, 8
 241 00f8 C3       		ret
 242              		.cfi_endproc
 243              	.LFE1069:
 245              		.weak	_ZN17RecordingReporterC1Ev
 246              		.set	_ZN17RecordingReporterC1Ev,_ZN17RecordingReporterC2Ev
 247              		.section	.text._ZN17RecordingReporter15ReportTestStartERKN8UnitTest11TestDetailsE,"axG",@progbits,
 248              		.align 2
 249              		.weak	_ZN17RecordingReporter15ReportTestStartERKN8UnitTest11TestDetailsE
 251              	_ZN17RecordingReporter15ReportTestStartERKN8UnitTest11TestDetailsE:
 252              	.LFB1071:
  35:RecordingReporter.h **** 
  36:RecordingReporter.h ****     virtual void ReportTestStart(UnitTest::TestDetails const& test)
 253              		.loc 4 36 0
 254              		.cfi_startproc
 255 0000 55       		pushq	%rbp
 256              		.cfi_def_cfa_offset 16
 257              		.cfi_offset 6, -16
 258 0001 4889E5   		movq	%rsp, %rbp
 259              		.cfi_def_cfa_register 6
 260 0004 4883EC10 		subq	$16, %rsp
 261 0008 48897DF8 		movq	%rdi, -8(%rbp)
 262 000c 488975F0 		movq	%rsi, -16(%rbp)
 263              	.LBB6:
  37:RecordingReporter.h ****     {
  38:RecordingReporter.h **** 		using namespace std;
  39:RecordingReporter.h **** 
  40:RecordingReporter.h ****         ++testRunCount;
 264              		.loc 4 40 0
 265 0010 488B45F8 		movq	-8(%rbp), %rax
 266 0014 8B4008   		movl	8(%rax), %eax
 267 0017 8D5001   		leal	1(%rax), %edx
 268 001a 488B45F8 		movq	-8(%rbp), %rax
 269 001e 895008   		movl	%edx, 8(%rax)
  41:RecordingReporter.h ****         strcpy(lastStartedSuite, test.suiteName);
 270              		.loc 4 41 0
 271 0021 488B45F0 		movq	-16(%rbp), %rax
 272 0025 488B00   		movq	(%rax), %rax
 273 0028 488B55F8 		movq	-8(%rbp), %rdx
 274 002c 4883C20C 		addq	$12, %rdx
 275 0030 4889C6   		movq	%rax, %rsi
 276 0033 4889D7   		movq	%rdx, %rdi
 277 0036 E8000000 		call	strcpy
 277      00
  42:RecordingReporter.h ****         strcpy(lastStartedTest, test.testName);
 278              		.loc 4 42 0
 279 003b 488B45F0 		movq	-16(%rbp), %rax
 280 003f 488B4008 		movq	8(%rax), %rax
 281 0043 488B55F8 		movq	-8(%rbp), %rdx
 282 0047 4881C20C 		addq	$268, %rdx
 282      010000
 283 004e 4889C6   		movq	%rax, %rsi
 284 0051 4889D7   		movq	%rdx, %rdi
 285 0054 E8000000 		call	strcpy
 285      00
 286              	.LBE6:
  43:RecordingReporter.h ****     }
 287              		.loc 4 43 0
 288 0059 C9       		leave
 289              		.cfi_def_cfa 7, 8
 290 005a C3       		ret
 291              		.cfi_endproc
 292              	.LFE1071:
 294              		.section	.text._ZN17RecordingReporter13ReportFailureERKN8UnitTest11TestDetailsEPKc,"axG",@progbits
 295              		.align 2
 296              		.weak	_ZN17RecordingReporter13ReportFailureERKN8UnitTest11TestDetailsEPKc
 298              	_ZN17RecordingReporter13ReportFailureERKN8UnitTest11TestDetailsEPKc:
 299              	.LFB1072:
  44:RecordingReporter.h **** 
  45:RecordingReporter.h ****     virtual void ReportFailure(UnitTest::TestDetails const& test, char const* failure)
 300              		.loc 4 45 0
 301              		.cfi_startproc
 302 0000 55       		pushq	%rbp
 303              		.cfi_def_cfa_offset 16
 304              		.cfi_offset 6, -16
 305 0001 4889E5   		movq	%rsp, %rbp
 306              		.cfi_def_cfa_register 6
 307 0004 4883EC20 		subq	$32, %rsp
 308 0008 48897DF8 		movq	%rdi, -8(%rbp)
 309 000c 488975F0 		movq	%rsi, -16(%rbp)
 310 0010 488955E8 		movq	%rdx, -24(%rbp)
 311              	.LBB7:
  46:RecordingReporter.h ****     {
  47:RecordingReporter.h **** 		using namespace std;
  48:RecordingReporter.h **** 
  49:RecordingReporter.h **** 		++testFailedCount;
 312              		.loc 4 49 0
 313 0014 488B45F8 		movq	-8(%rbp), %rax
 314 0018 8B800C02 		movl	524(%rax), %eax
 314      0000
 315 001e 8D5001   		leal	1(%rax), %edx
 316 0021 488B45F8 		movq	-8(%rbp), %rax
 317 0025 89900C02 		movl	%edx, 524(%rax)
 317      0000
  50:RecordingReporter.h ****         strcpy(lastFailedFile, test.filename);
 318              		.loc 4 50 0
 319 002b 488B45F0 		movq	-16(%rbp), %rax
 320 002f 488B4010 		movq	16(%rax), %rax
 321 0033 488B55F8 		movq	-8(%rbp), %rdx
 322 0037 4881C210 		addq	$528, %rdx
 322      020000
 323 003e 4889C6   		movq	%rax, %rsi
 324 0041 4889D7   		movq	%rdx, %rdi
 325 0044 E8000000 		call	strcpy
 325      00
  51:RecordingReporter.h ****         lastFailedLine = test.lineNumber;
 326              		.loc 4 51 0
 327 0049 488B45F0 		movq	-16(%rbp), %rax
 328 004d 8B5018   		movl	24(%rax), %edx
 329 0050 488B45F8 		movq	-8(%rbp), %rax
 330 0054 89901003 		movl	%edx, 784(%rax)
 330      0000
  52:RecordingReporter.h ****         strcpy(lastFailedSuite, test.suiteName);
 331              		.loc 4 52 0
 332 005a 488B45F0 		movq	-16(%rbp), %rax
 333 005e 488B00   		movq	(%rax), %rax
 334 0061 488B55F8 		movq	-8(%rbp), %rdx
 335 0065 4881C214 		addq	$788, %rdx
 335      030000
 336 006c 4889C6   		movq	%rax, %rsi
 337 006f 4889D7   		movq	%rdx, %rdi
 338 0072 E8000000 		call	strcpy
 338      00
  53:RecordingReporter.h ****         strcpy(lastFailedTest, test.testName);
 339              		.loc 4 53 0
 340 0077 488B45F0 		movq	-16(%rbp), %rax
 341 007b 488B4008 		movq	8(%rax), %rax
 342 007f 488B55F8 		movq	-8(%rbp), %rdx
 343 0083 4881C214 		addq	$1044, %rdx
 343      040000
 344 008a 4889C6   		movq	%rax, %rsi
 345 008d 4889D7   		movq	%rdx, %rdi
 346 0090 E8000000 		call	strcpy
 346      00
  54:RecordingReporter.h ****         strcpy(lastFailedMessage, failure);
 347              		.loc 4 54 0
 348 0095 488B45F8 		movq	-8(%rbp), %rax
 349 0099 488D9014 		leaq	1300(%rax), %rdx
 349      050000
 350 00a0 488B45E8 		movq	-24(%rbp), %rax
 351 00a4 4889C6   		movq	%rax, %rsi
 352 00a7 4889D7   		movq	%rdx, %rdi
 353 00aa E8000000 		call	strcpy
 353      00
 354              	.LBE7:
  55:RecordingReporter.h ****     }
 355              		.loc 4 55 0
 356 00af C9       		leave
 357              		.cfi_def_cfa 7, 8
 358 00b0 C3       		ret
 359              		.cfi_endproc
 360              	.LFE1072:
 362              		.section	.text._ZN17RecordingReporter16ReportTestFinishERKN8UnitTest11TestDetailsEf,"axG",@progbit
 363              		.align 2
 364              		.weak	_ZN17RecordingReporter16ReportTestFinishERKN8UnitTest11TestDetailsEf
 366              	_ZN17RecordingReporter16ReportTestFinishERKN8UnitTest11TestDetailsEf:
 367              	.LFB1073:
  56:RecordingReporter.h **** 
  57:RecordingReporter.h ****     virtual void ReportTestFinish(UnitTest::TestDetails const& test, float testDuration)
 368              		.loc 4 57 0
 369              		.cfi_startproc
 370 0000 55       		pushq	%rbp
 371              		.cfi_def_cfa_offset 16
 372              		.cfi_offset 6, -16
 373 0001 4889E5   		movq	%rsp, %rbp
 374              		.cfi_def_cfa_register 6
 375 0004 4883EC20 		subq	$32, %rsp
 376 0008 48897DF8 		movq	%rdi, -8(%rbp)
 377 000c 488975F0 		movq	%rsi, -16(%rbp)
 378 0010 F30F1145 		movss	%xmm0, -20(%rbp)
 378      EC
 379              	.LBB8:
  58:RecordingReporter.h ****     {
  59:RecordingReporter.h **** 		using namespace std;
  60:RecordingReporter.h **** 
  61:RecordingReporter.h **** 		++testFinishedCount;
 380              		.loc 4 61 0
 381 0015 488B45F8 		movq	-8(%rbp), %rax
 382 0019 8B801406 		movl	1556(%rax), %eax
 382      0000
 383 001f 8D5001   		leal	1(%rax), %edx
 384 0022 488B45F8 		movq	-8(%rbp), %rax
 385 0026 89901406 		movl	%edx, 1556(%rax)
 385      0000
  62:RecordingReporter.h ****         strcpy(lastFinishedSuite, test.suiteName);
 386              		.loc 4 62 0
 387 002c 488B45F0 		movq	-16(%rbp), %rax
 388 0030 488B00   		movq	(%rax), %rax
 389 0033 488B55F8 		movq	-8(%rbp), %rdx
 390 0037 4881C218 		addq	$1560, %rdx
 390      060000
 391 003e 4889C6   		movq	%rax, %rsi
 392 0041 4889D7   		movq	%rdx, %rdi
 393 0044 E8000000 		call	strcpy
 393      00
  63:RecordingReporter.h ****         strcpy(lastFinishedTest, test.testName);
 394              		.loc 4 63 0
 395 0049 488B45F0 		movq	-16(%rbp), %rax
 396 004d 488B4008 		movq	8(%rax), %rax
 397 0051 488B55F8 		movq	-8(%rbp), %rdx
 398 0055 4881C218 		addq	$1816, %rdx
 398      070000
 399 005c 4889C6   		movq	%rax, %rsi
 400 005f 4889D7   		movq	%rdx, %rdi
 401 0062 E8000000 		call	strcpy
 401      00
  64:RecordingReporter.h ****         lastFinishedTestTime = testDuration;
 402              		.loc 4 64 0
 403 0067 488B55F8 		movq	-8(%rbp), %rdx
 404 006b 8B45EC   		movl	-20(%rbp), %eax
 405 006e 89821808 		movl	%eax, 2072(%rdx)
 405      0000
 406              	.LBE8:
  65:RecordingReporter.h ****     }
 407              		.loc 4 65 0
 408 0074 C9       		leave
 409              		.cfi_def_cfa 7, 8
 410 0075 C3       		ret
 411              		.cfi_endproc
 412              	.LFE1073:
 414              		.section	.text._ZN17RecordingReporter13ReportSummaryEiiif,"axG",@progbits,_ZN17RecordingReporter13
 415              		.align 2
 416              		.weak	_ZN17RecordingReporter13ReportSummaryEiiif
 418              	_ZN17RecordingReporter13ReportSummaryEiiif:
 419              	.LFB1074:
  66:RecordingReporter.h **** 
  67:RecordingReporter.h ****     virtual void ReportSummary(int totalTestCount, int failedTestCount, int failureCount, float sec
 420              		.loc 4 67 0
 421              		.cfi_startproc
 422 0000 55       		pushq	%rbp
 423              		.cfi_def_cfa_offset 16
 424              		.cfi_offset 6, -16
 425 0001 4889E5   		movq	%rsp, %rbp
 426              		.cfi_def_cfa_register 6
 427 0004 48897DF8 		movq	%rdi, -8(%rbp)
 428 0008 8975F4   		movl	%esi, -12(%rbp)
 429 000b 8955F0   		movl	%edx, -16(%rbp)
 430 000e 894DEC   		movl	%ecx, -20(%rbp)
 431 0011 F30F1145 		movss	%xmm0, -24(%rbp)
 431      E8
  68:RecordingReporter.h ****     {
  69:RecordingReporter.h ****         summaryTotalTestCount = totalTestCount;
 432              		.loc 4 69 0
 433 0016 488B45F8 		movq	-8(%rbp), %rax
 434 001a 8B55F4   		movl	-12(%rbp), %edx
 435 001d 89901C08 		movl	%edx, 2076(%rax)
 435      0000
  70:RecordingReporter.h ****         summaryFailedTestCount = failedTestCount;
 436              		.loc 4 70 0
 437 0023 488B45F8 		movq	-8(%rbp), %rax
 438 0027 8B55F0   		movl	-16(%rbp), %edx
 439 002a 89902008 		movl	%edx, 2080(%rax)
 439      0000
  71:RecordingReporter.h ****         summaryFailureCount = failureCount;
 440              		.loc 4 71 0
 441 0030 488B45F8 		movq	-8(%rbp), %rax
 442 0034 8B55EC   		movl	-20(%rbp), %edx
 443 0037 89902408 		movl	%edx, 2084(%rax)
 443      0000
  72:RecordingReporter.h ****         summarySecondsElapsed = secondsElapsed;
 444              		.loc 4 72 0
 445 003d 488B55F8 		movq	-8(%rbp), %rdx
 446 0041 8B45E8   		movl	-24(%rbp), %eax
 447 0044 89822808 		movl	%eax, 2088(%rdx)
 447      0000
  73:RecordingReporter.h ****     }
 448              		.loc 4 73 0
 449 004a 5D       		popq	%rbp
 450              		.cfi_def_cfa 7, 8
 451 004b C3       		ret
 452              		.cfi_endproc
 453              	.LFE1074:
 455              		.section	.text._ZN17ScopedCurrentTestC2ERN8UnitTest11TestResultsEPKNS0_11TestDetailsE,"axG",@progb
 456              		.align 2
 457              		.weak	_ZN17ScopedCurrentTestC2ERN8UnitTest11TestResultsEPKNS0_11TestDetailsE
 459              	_ZN17ScopedCurrentTestC2ERN8UnitTest11TestResultsEPKNS0_11TestDetailsE:
 460              	.LFB1079:
 461              		.file 5 "ScopedCurrentTest.h"
   1:ScopedCurrentTest.h **** #ifndef UNITTEST_SCOPEDCURRENTTEST_H
   2:ScopedCurrentTest.h **** #define UNITTEST_SCOPEDCURRENTTEST_H
   3:ScopedCurrentTest.h **** 
   4:ScopedCurrentTest.h **** #include "../CurrentTest.h"
   5:ScopedCurrentTest.h **** #include <cstddef>
   6:ScopedCurrentTest.h **** 
   7:ScopedCurrentTest.h **** class ScopedCurrentTest
   8:ScopedCurrentTest.h **** {
   9:ScopedCurrentTest.h **** public:
  10:ScopedCurrentTest.h **** 	ScopedCurrentTest()
  11:ScopedCurrentTest.h **** 		: m_oldTestResults(UnitTest::CurrentTest::Results())
  12:ScopedCurrentTest.h **** 		, m_oldTestDetails(UnitTest::CurrentTest::Details())
  13:ScopedCurrentTest.h **** 	{
  14:ScopedCurrentTest.h **** 	}
  15:ScopedCurrentTest.h **** 
  16:ScopedCurrentTest.h **** 	explicit ScopedCurrentTest(UnitTest::TestResults& newResults, const UnitTest::TestDetails* newDeta
 462              		.loc 5 16 0
 463              		.cfi_startproc
 464 0000 55       		pushq	%rbp
 465              		.cfi_def_cfa_offset 16
 466              		.cfi_offset 6, -16
 467 0001 4889E5   		movq	%rsp, %rbp
 468              		.cfi_def_cfa_register 6
 469 0004 4883EC20 		subq	$32, %rsp
 470 0008 48897DF8 		movq	%rdi, -8(%rbp)
 471 000c 488975F0 		movq	%rsi, -16(%rbp)
 472 0010 488955E8 		movq	%rdx, -24(%rbp)
 473              	.LBB9:
  17:ScopedCurrentTest.h **** 		: m_oldTestResults(UnitTest::CurrentTest::Results())
 474              		.loc 5 17 0
 475 0014 E8000000 		call	_ZN8UnitTest11CurrentTest7ResultsEv
 475      00
  18:ScopedCurrentTest.h **** 		, m_oldTestDetails(UnitTest::CurrentTest::Details())
 476              		.loc 5 18 0
 477 0019 488B10   		movq	(%rax), %rdx
 478 001c 488B45F8 		movq	-8(%rbp), %rax
 479 0020 488910   		movq	%rdx, (%rax)
 480 0023 E8000000 		call	_ZN8UnitTest11CurrentTest7DetailsEv
 480      00
 481 0028 488B10   		movq	(%rax), %rdx
 482 002b 488B45F8 		movq	-8(%rbp), %rax
 483 002f 48895008 		movq	%rdx, 8(%rax)
  19:ScopedCurrentTest.h **** 	{
  20:ScopedCurrentTest.h **** 		UnitTest::CurrentTest::Results() = &newResults;
 484              		.loc 5 20 0
 485 0033 E8000000 		call	_ZN8UnitTest11CurrentTest7ResultsEv
 485      00
 486 0038 4889C2   		movq	%rax, %rdx
 487 003b 488B45F0 		movq	-16(%rbp), %rax
 488 003f 488902   		movq	%rax, (%rdx)
  21:ScopedCurrentTest.h **** 
  22:ScopedCurrentTest.h **** 		if (newDetails != NULL)
 489              		.loc 5 22 0
 490 0042 48837DE8 		cmpq	$0, -24(%rbp)
 490      00
 491 0047 740F     		je	.L15
  23:ScopedCurrentTest.h **** 			UnitTest::CurrentTest::Details() = newDetails;
 492              		.loc 5 23 0
 493 0049 E8000000 		call	_ZN8UnitTest11CurrentTest7DetailsEv
 493      00
 494 004e 4889C2   		movq	%rax, %rdx
 495 0051 488B45E8 		movq	-24(%rbp), %rax
 496 0055 488902   		movq	%rax, (%rdx)
 497              	.L15:
 498              	.LBE9:
  24:ScopedCurrentTest.h **** 	}
 499              		.loc 5 24 0
 500 0058 C9       		leave
 501              		.cfi_def_cfa 7, 8
 502 0059 C3       		ret
 503              		.cfi_endproc
 504              	.LFE1079:
 506              		.weak	_ZN17ScopedCurrentTestC1ERN8UnitTest11TestResultsEPKNS0_11TestDetailsE
 507              		.set	_ZN17ScopedCurrentTestC1ERN8UnitTest11TestResultsEPKNS0_11TestDetailsE,_ZN17ScopedCurrentTest
 508              		.section	.text._ZN17ScopedCurrentTestD2Ev,"axG",@progbits,_ZN17ScopedCurrentTestD5Ev,comdat
 509              		.align 2
 510              		.weak	_ZN17ScopedCurrentTestD2Ev
 512              	_ZN17ScopedCurrentTestD2Ev:
 513              	.LFB1082:
  25:ScopedCurrentTest.h **** 
  26:ScopedCurrentTest.h **** 	~ScopedCurrentTest()
 514              		.loc 5 26 0
 515              		.cfi_startproc
 516 0000 55       		pushq	%rbp
 517              		.cfi_def_cfa_offset 16
 518              		.cfi_offset 6, -16
 519 0001 4889E5   		movq	%rsp, %rbp
 520              		.cfi_def_cfa_register 6
 521 0004 4883EC10 		subq	$16, %rsp
 522 0008 48897DF8 		movq	%rdi, -8(%rbp)
 523              	.LBB10:
  27:ScopedCurrentTest.h **** 	{
  28:ScopedCurrentTest.h **** 		UnitTest::CurrentTest::Results() = m_oldTestResults;
 524              		.loc 5 28 0
 525 000c E8000000 		call	_ZN8UnitTest11CurrentTest7ResultsEv
 525      00
 526 0011 4889C2   		movq	%rax, %rdx
 527 0014 488B45F8 		movq	-8(%rbp), %rax
 528 0018 488B00   		movq	(%rax), %rax
 529 001b 488902   		movq	%rax, (%rdx)
  29:ScopedCurrentTest.h **** 		UnitTest::CurrentTest::Details() = m_oldTestDetails;
 530              		.loc 5 29 0
 531 001e E8000000 		call	_ZN8UnitTest11CurrentTest7DetailsEv
 531      00
 532 0023 4889C2   		movq	%rax, %rdx
 533 0026 488B45F8 		movq	-8(%rbp), %rax
 534 002a 488B4008 		movq	8(%rax), %rax
 535 002e 488902   		movq	%rax, (%rdx)
 536              	.LBE10:
  30:ScopedCurrentTest.h **** 	}
 537              		.loc 5 30 0
 538 0031 C9       		leave
 539              		.cfi_def_cfa 7, 8
 540 0032 C3       		ret
 541              		.cfi_endproc
 542              	.LFE1082:
 544              		.weak	_ZN17ScopedCurrentTestD1Ev
 545              		.set	_ZN17ScopedCurrentTestD1Ev,_ZN17ScopedCurrentTestD2Ev
 546              		.local	_ZN12_GLOBAL__N_15list1E
 547              		.comm	_ZN12_GLOBAL__N_15list1E,16,16
 548              		.section	.rodata
 549              	.LC2:
 550 000d 54657374 		.string	"TestTestMacros.cpp"
 550      54657374 
 550      4D616372 
 550      6F732E63 
 550      707000
 551              	.LC3:
 552 0020 44756D6D 		.string	"DummyTest"
 552      79546573 
 552      7400
 553              		.text
 554              		.align 2
 556              	_ZN12_GLOBAL__N_113TestDummyTestC2Ev:
 557              	.LFB1085:
 558              		.file 6 "TestTestMacros.cpp"
   1:TestTestMacros.cpp **** #include "../UnitTest++.h"
   2:TestTestMacros.cpp **** #include "../TestMacros.h"
   3:TestTestMacros.cpp **** #include "../TestList.h"
   4:TestTestMacros.cpp **** #include "../TestResults.h"
   5:TestTestMacros.cpp **** #include "../TestReporter.h"
   6:TestTestMacros.cpp **** #include "../ReportAssert.h"
   7:TestTestMacros.cpp **** #include "RecordingReporter.h"
   8:TestTestMacros.cpp **** #include "ScopedCurrentTest.h"
   9:TestTestMacros.cpp **** 
  10:TestTestMacros.cpp **** using namespace UnitTest;
  11:TestTestMacros.cpp **** 
  12:TestTestMacros.cpp **** namespace {
  13:TestTestMacros.cpp **** 
  14:TestTestMacros.cpp **** TestList list1;
  15:TestTestMacros.cpp **** TEST_EX(DummyTest, list1)
 559              		.loc 6 15 0
 560              		.cfi_startproc
 561 0000 55       		pushq	%rbp
 562              		.cfi_def_cfa_offset 16
 563              		.cfi_offset 6, -16
 564 0001 4889E5   		movq	%rsp, %rbp
 565              		.cfi_def_cfa_register 6
 566 0004 4883EC10 		subq	$16, %rsp
 567 0008 48897DF8 		movq	%rdi, -8(%rbp)
 568              	.LBB11:
 569              		.loc 6 15 0
 570 000c E8000000 		call	_ZN13UnitTestSuite12GetSuiteNameEv
 570      00
 571 0011 4889C2   		movq	%rax, %rdx
 572 0014 488B45F8 		movq	-8(%rbp), %rax
 573 0018 41B80F00 		movl	$15, %r8d
 573      0000
 574 001e B9000000 		movl	$.LC2, %ecx
 574      00
 575 0023 BE000000 		movl	$.LC3, %esi
 575      00
 576 0028 4889C7   		movq	%rax, %rdi
 577 002b E8000000 		call	_ZN8UnitTest4TestC2EPKcS2_S2_i
 577      00
 578 0030 488B45F8 		movq	-8(%rbp), %rax
 579 0034 48C70000 		movq	$_ZTVN12_GLOBAL__N_113TestDummyTestE+16, (%rax)
 579      000000
 580              	.LBE11:
 581 003b C9       		leave
 582              		.cfi_def_cfa 7, 8
 583 003c C3       		ret
 584              		.cfi_endproc
 585              	.LFE1085:
 587              		.local	_ZN12_GLOBAL__N_121testDummyTestInstanceE
 588              		.comm	_ZN12_GLOBAL__N_121testDummyTestInstanceE,56,32
 589              		.local	_ZN12_GLOBAL__N_114adderDummyTestE
 590              		.comm	_ZN12_GLOBAL__N_114adderDummyTestE,1,1
 591 003d 90       		.align 2
 593              	_ZNK12_GLOBAL__N_113TestDummyTest7RunImplEv:
 594              	.LFB1087:
  16:TestTestMacros.cpp **** {
 595              		.loc 6 16 0
 596              		.cfi_startproc
 597 003e 55       		pushq	%rbp
 598              		.cfi_def_cfa_offset 16
 599              		.cfi_offset 6, -16
 600 003f 4889E5   		movq	%rsp, %rbp
 601              		.cfi_def_cfa_register 6
 602 0042 48897DF8 		movq	%rdi, -8(%rbp)
  17:TestTestMacros.cpp **** }
 603              		.loc 6 17 0
 604 0046 5D       		popq	%rbp
 605              		.cfi_def_cfa 7, 8
 606 0047 C3       		ret
 607              		.cfi_endproc
 608              	.LFE1087:
 610              		.section	.rodata
 611 002a 00000000 		.align 8
 611      0000
 612              	.LC4:
 613 0030 54657374 		.string	"TestsAreAddedToTheListThroughMacro"
 613      73417265 
 613      41646465 
 613      64546F54 
 613      68654C69 
 614              		.text
 615              		.align 2
 617              	_ZN12_GLOBAL__N_138TestTestsAreAddedToTheListThroughMacroC2Ev:
 618              	.LFB1089:
  18:TestTestMacros.cpp **** 
  19:TestTestMacros.cpp **** TEST (TestsAreAddedToTheListThroughMacro)
 619              		.loc 6 19 0
 620              		.cfi_startproc
 621 0048 55       		pushq	%rbp
 622              		.cfi_def_cfa_offset 16
 623              		.cfi_offset 6, -16
 624 0049 4889E5   		movq	%rsp, %rbp
 625              		.cfi_def_cfa_register 6
 626 004c 4883EC10 		subq	$16, %rsp
 627 0050 48897DF8 		movq	%rdi, -8(%rbp)
 628              	.LBB12:
 629              		.loc 6 19 0
 630 0054 E8000000 		call	_ZN13UnitTestSuite12GetSuiteNameEv
 630      00
 631 0059 4889C2   		movq	%rax, %rdx
 632 005c 488B45F8 		movq	-8(%rbp), %rax
 633 0060 41B81300 		movl	$19, %r8d
 633      0000
 634 0066 B9000000 		movl	$.LC2, %ecx
 634      00
 635 006b BE000000 		movl	$.LC4, %esi
 635      00
 636 0070 4889C7   		movq	%rax, %rdi
 637 0073 E8000000 		call	_ZN8UnitTest4TestC2EPKcS2_S2_i
 637      00
 638 0078 488B45F8 		movq	-8(%rbp), %rax
 639 007c 48C70000 		movq	$_ZTVN12_GLOBAL__N_138TestTestsAreAddedToTheListThroughMacroE+16, (%rax)
 639      000000
 640              	.LBE12:
 641 0083 C9       		leave
 642              		.cfi_def_cfa 7, 8
 643 0084 C3       		ret
 644              		.cfi_endproc
 645              	.LFE1089:
 647              		.local	_ZN12_GLOBAL__N_146testTestsAreAddedToTheListThroughMacroInstanceE
 648              		.comm	_ZN12_GLOBAL__N_146testTestsAreAddedToTheListThroughMacroInstanceE,56,32
 649              		.local	_ZN12_GLOBAL__N_139adderTestsAreAddedToTheListThroughMacroE
 650              		.comm	_ZN12_GLOBAL__N_139adderTestsAreAddedToTheListThroughMacroE,1,1
 651              		.section	.rodata
 652              	.LC5:
 653 0053 6C697374 		.string	"list1.GetHead() != 0"
 653      312E4765 
 653      74486561 
 653      64282920 
 653      213D2030 
 654              	.LC6:
 655 0068 6C697374 		.string	"list1.GetHead()->next == 0"
 655      312E4765 
 655      74486561 
 655      6428292D 
 655      3E6E6578 
 656 0083 00000000 		.align 8
 656      00
 657              	.LC7:
 658 0088 556E6861 		.string	"Unhandled exception in CHECK(list1.GetHead() != 0)"
 658      6E646C65 
 658      64206578 
 658      63657074 
 658      696F6E20 
 659 00bb 00000000 		.align 8
 659      00
 660              	.LC8:
 661 00c0 556E6861 		.string	"Unhandled exception in CHECK(list1.GetHead()->next == 0)"
 661      6E646C65 
 661      64206578 
 661      63657074 
 661      696F6E20 
 662              		.text
 663 0085 90       		.align 2
 665              	_ZNK12_GLOBAL__N_138TestTestsAreAddedToTheListThroughMacro7RunImplEv:
 666              	.LFB1091:
  20:TestTestMacros.cpp **** {
 667              		.loc 6 20 0
 668              		.cfi_startproc
 669              		.cfi_personality 0x3,__gxx_personality_v0
 670              		.cfi_lsda 0x3,.LLSDA1091
 671 0086 55       		pushq	%rbp
 672              		.cfi_def_cfa_offset 16
 673              		.cfi_offset 6, -16
 674 0087 4889E5   		movq	%rsp, %rbp
 675              		.cfi_def_cfa_register 6
 676 008a 53       		pushq	%rbx
 677 008b 4883EC48 		subq	$72, %rsp
 678              		.cfi_offset 3, -24
 679 008f 48897DB8 		movq	%rdi, -72(%rbp)
 680              		.loc 6 20 0
 681 0093 64488B04 		movq	%fs:40, %rax
 681      25280000 
 681      00
 682 009c 488945E8 		movq	%rax, -24(%rbp)
 683 00a0 31C0     		xorl	%eax, %eax
  21:TestTestMacros.cpp ****     CHECK(list1.GetHead() != 0);
 684              		.loc 6 21 0
 685 00a2 BF000000 		movl	$_ZN12_GLOBAL__N_15list1E, %edi
 685      00
 686              	.LEHB4:
 687 00a7 E8000000 		call	_ZNK8UnitTest8TestList7GetHeadEv
 687      00
 688 00ac 4885C0   		testq	%rax, %rax
 689 00af 0F95C0   		setne	%al
 690 00b2 0FB6C0   		movzbl	%al, %eax
 691 00b5 89C7     		movl	%eax, %edi
 692 00b7 E8000000 		call	_ZN8UnitTest5CheckIbEEbT_
 692      00
 693 00bc 83F001   		xorl	$1, %eax
 694 00bf 84C0     		testb	%al, %al
 695 00c1 7438     		je	.L23
 696              		.loc 6 21 0 is_stmt 0 discriminator 2
 697 00c3 E8000000 		call	_ZN8UnitTest11CurrentTest7DetailsEv
 697      00
 698 00c8 488B08   		movq	(%rax), %rcx
 699 00cb 488D45C0 		leaq	-64(%rbp), %rax
 700 00cf BA150000 		movl	$21, %edx
 700      00
 701 00d4 4889CE   		movq	%rcx, %rsi
 702 00d7 4889C7   		movq	%rax, %rdi
 703 00da E8000000 		call	_ZN8UnitTest11TestDetailsC1ERKS0_i
 703      00
 704              		.loc 6 21 0 discriminator 4
 705 00df E8000000 		call	_ZN8UnitTest11CurrentTest7ResultsEv
 705      00
 706 00e4 488B00   		movq	(%rax), %rax
 707 00e7 488D4DC0 		leaq	-64(%rbp), %rcx
 708 00eb BA000000 		movl	$.LC5, %edx
 708      00
 709 00f0 4889CE   		movq	%rcx, %rsi
 710 00f3 4889C7   		movq	%rax, %rdi
 711 00f6 E8000000 		call	_ZN8UnitTest11TestResults13OnTestFailureERKNS_11TestDetailsEPKc
 711      00
 712              	.LEHE4:
 713              	.L23:
  22:TestTestMacros.cpp ****     CHECK(list1.GetHead()->next == 0);
 714              		.loc 6 22 0 is_stmt 1
 715 00fb BF000000 		movl	$_ZN12_GLOBAL__N_15list1E, %edi
 715      00
 716              	.LEHB5:
 717 0100 E8000000 		call	_ZNK8UnitTest8TestList7GetHeadEv
 717      00
 718 0105 488B4028 		movq	40(%rax), %rax
 719 0109 4885C0   		testq	%rax, %rax
 720 010c 0F94C0   		sete	%al
 721 010f 0FB6C0   		movzbl	%al, %eax
 722 0112 89C7     		movl	%eax, %edi
 723 0114 E8000000 		call	_ZN8UnitTest5CheckIbEEbT_
 723      00
 724 0119 83F001   		xorl	$1, %eax
 725 011c 84C0     		testb	%al, %al
 726 011e 0F84F300 		je	.L22
 726      0000
 727              		.loc 6 22 0 is_stmt 0 discriminator 2
 728 0124 E8000000 		call	_ZN8UnitTest11CurrentTest7DetailsEv
 728      00
 729 0129 488B08   		movq	(%rax), %rcx
 730 012c 488D45C0 		leaq	-64(%rbp), %rax
 731 0130 BA160000 		movl	$22, %edx
 731      00
 732 0135 4889CE   		movq	%rcx, %rsi
 733 0138 4889C7   		movq	%rax, %rdi
 734 013b E8000000 		call	_ZN8UnitTest11TestDetailsC1ERKS0_i
 734      00
 735              		.loc 6 22 0 discriminator 4
 736 0140 E8000000 		call	_ZN8UnitTest11CurrentTest7ResultsEv
 736      00
 737 0145 488B00   		movq	(%rax), %rax
 738 0148 488D4DC0 		leaq	-64(%rbp), %rcx
 739 014c BA000000 		movl	$.LC6, %edx
 739      00
 740 0151 4889CE   		movq	%rcx, %rsi
 741 0154 4889C7   		movq	%rax, %rdi
 742 0157 E8000000 		call	_ZN8UnitTest11TestResults13OnTestFailureERKNS_11TestDetailsEPKc
 742      00
 743              	.LEHE5:
 744 015c E9B60000 		jmp	.L22
 744      00
 745              	.L31:
 746 0161 4889C3   		movq	%rax, %rbx
  21:TestTestMacros.cpp ****     CHECK(list1.GetHead() != 0);
 747              		.loc 6 21 0 is_stmt 1
 748 0164 E8000000 		call	__cxa_end_catch
 748      00
 749 0169 4889D8   		movq	%rbx, %rax
 750 016c 4889C7   		movq	%rax, %rdi
 751              	.LEHB6:
 752 016f E8000000 		call	_Unwind_Resume
 752      00
 753              	.LEHE6:
 754              	.L30:
 755 0174 4889C7   		movq	%rax, %rdi
 756 0177 E8000000 		call	__cxa_begin_catch
 756      00
 757              	.LEHB7:
 758 017c E8000000 		call	_ZN8UnitTest11CurrentTest7DetailsEv
 758      00
 759 0181 488B08   		movq	(%rax), %rcx
 760 0184 488D45C0 		leaq	-64(%rbp), %rax
 761 0188 BA150000 		movl	$21, %edx
 761      00
 762 018d 4889CE   		movq	%rcx, %rsi
 763 0190 4889C7   		movq	%rax, %rdi
 764 0193 E8000000 		call	_ZN8UnitTest11TestDetailsC1ERKS0_i
 764      00
  21:TestTestMacros.cpp ****     CHECK(list1.GetHead() != 0);
 765              		.loc 6 21 0 is_stmt 0 discriminator 12
 766 0198 E8000000 		call	_ZN8UnitTest11CurrentTest7ResultsEv
 766      00
 767 019d 488B00   		movq	(%rax), %rax
 768 01a0 488D4DC0 		leaq	-64(%rbp), %rcx
 769 01a4 BA000000 		movl	$.LC7, %edx
 769      00
 770 01a9 4889CE   		movq	%rcx, %rsi
 771 01ac 4889C7   		movq	%rax, %rdi
 772 01af E8000000 		call	_ZN8UnitTest11TestResults13OnTestFailureERKNS_11TestDetailsEPKc
 772      00
 773              	.LEHE7:
 774              	.LEHB8:
  21:TestTestMacros.cpp ****     CHECK(list1.GetHead() != 0);
 775              		.loc 6 21 0 discriminator 16
 776 01b4 E8000000 		call	__cxa_end_catch
 776      00
 777              	.LEHE8:
 778 01b9 E93DFFFF 		jmp	.L23
 778      FF
 779              	.L33:
 780 01be 4889C3   		movq	%rax, %rbx
 781              		.loc 6 22 0 is_stmt 1
 782 01c1 E8000000 		call	__cxa_end_catch
 782      00
 783 01c6 4889D8   		movq	%rbx, %rax
 784 01c9 4889C7   		movq	%rax, %rdi
 785              	.LEHB9:
 786 01cc E8000000 		call	_Unwind_Resume
 786      00
 787              	.LEHE9:
 788              	.L32:
 789 01d1 4889C7   		movq	%rax, %rdi
 790 01d4 E8000000 		call	__cxa_begin_catch
 790      00
 791              	.LEHB10:
 792 01d9 E8000000 		call	_ZN8UnitTest11CurrentTest7DetailsEv
 792      00
 793 01de 488B08   		movq	(%rax), %rcx
 794 01e1 488D45C0 		leaq	-64(%rbp), %rax
 795 01e5 BA160000 		movl	$22, %edx
 795      00
 796 01ea 4889CE   		movq	%rcx, %rsi
 797 01ed 4889C7   		movq	%rax, %rdi
 798 01f0 E8000000 		call	_ZN8UnitTest11TestDetailsC1ERKS0_i
 798      00
 799              		.loc 6 22 0 is_stmt 0 discriminator 12
 800 01f5 E8000000 		call	_ZN8UnitTest11CurrentTest7ResultsEv
 800      00
 801 01fa 488B00   		movq	(%rax), %rax
 802 01fd 488D4DC0 		leaq	-64(%rbp), %rcx
 803 0201 BA000000 		movl	$.LC8, %edx
 803      00
 804 0206 4889CE   		movq	%rcx, %rsi
 805 0209 4889C7   		movq	%rax, %rdi
 806 020c E8000000 		call	_ZN8UnitTest11TestResults13OnTestFailureERKNS_11TestDetailsEPKc
 806      00
 807              	.LEHE10:
 808              	.LEHB11:
 809              		.loc 6 22 0 discriminator 16
 810 0211 E8000000 		call	__cxa_end_catch
 810      00
 811              	.LEHE11:
  23:TestTestMacros.cpp **** }
 812              		.loc 6 23 0 is_stmt 1 discriminator 16
 813 0216 90       		nop
 814              	.L22:
 815              		.loc 6 23 0 is_stmt 0
 816 0217 488B45E8 		movq	-24(%rbp), %rax
 817 021b 64483304 		xorq	%fs:40, %rax
 817      25280000 
 817      00
 818 0224 7405     		je	.L29
 819 0226 E8000000 		call	__stack_chk_fail
 819      00
 820              	.L29:
 821 022b 4883C448 		addq	$72, %rsp
 822 022f 5B       		popq	%rbx
 823 0230 5D       		popq	%rbp
 824              		.cfi_def_cfa 7, 8
 825 0231 C3       		ret
 826              		.cfi_endproc
 827              	.LFE1091:
 828              		.section	.gcc_except_table,"a",@progbits
 829              		.align 4
 830              	.LLSDA1091:
 831 0000 FF       		.byte	0xff
 832 0001 03       		.byte	0x3
 833 0002 35       		.uleb128 .LLSDATT1091-.LLSDATTD1091
 834              	.LLSDATTD1091:
 835 0003 01       		.byte	0x1
 836 0004 2A       		.uleb128 .LLSDACSE1091-.LLSDACSB1091
 837              	.LLSDACSB1091:
 838 0005 21       		.uleb128 .LEHB4-.LFB1091
 839 0006 54       		.uleb128 .LEHE4-.LEHB4
 840 0007 EE01     		.uleb128 .L30-.LFB1091
 841 0009 01       		.uleb128 0x1
 842 000a 7A       		.uleb128 .LEHB5-.LFB1091
 843 000b 5C       		.uleb128 .LEHE5-.LEHB5
 844 000c CB02     		.uleb128 .L32-.LFB1091
 845 000e 01       		.uleb128 0x1
 846 000f E901     		.uleb128 .LEHB6-.LFB1091
 847 0011 05       		.uleb128 .LEHE6-.LEHB6
 848 0012 00       		.uleb128 0
 849 0013 00       		.uleb128 0
 850 0014 F601     		.uleb128 .LEHB7-.LFB1091
 851 0016 38       		.uleb128 .LEHE7-.LEHB7
 852 0017 DB01     		.uleb128 .L31-.LFB1091
 853 0019 00       		.uleb128 0
 854 001a AE02     		.uleb128 .LEHB8-.LFB1091
 855 001c 05       		.uleb128 .LEHE8-.LEHB8
 856 001d 00       		.uleb128 0
 857 001e 00       		.uleb128 0
 858 001f C602     		.uleb128 .LEHB9-.LFB1091
 859 0021 05       		.uleb128 .LEHE9-.LEHB9
 860 0022 00       		.uleb128 0
 861 0023 00       		.uleb128 0
 862 0024 D302     		.uleb128 .LEHB10-.LFB1091
 863 0026 38       		.uleb128 .LEHE10-.LEHB10
 864 0027 B802     		.uleb128 .L33-.LFB1091
 865 0029 00       		.uleb128 0
 866 002a 8B03     		.uleb128 .LEHB11-.LFB1091
 867 002c 05       		.uleb128 .LEHE11-.LEHB11
 868 002d 00       		.uleb128 0
 869 002e 00       		.uleb128 0
 870              	.LLSDACSE1091:
 871 002f 01       		.byte	0x1
 872 0030 00       		.byte	0
 873 0031 000000   		.align 4
 874 0034 00000000 		.long	0
 875              	
 876              	.LLSDATT1091:
 877              		.text
 879              		.section	.rodata
 880              	.LC9:
 881 00f9 4F6F7073 		.string	"Oops"
 881      00
 882              		.text
 883              		.align 2
 885              	_ZN12_GLOBAL__N_115ThrowingThingieC2Ev:
 886              	.LFB1093:
  24:TestTestMacros.cpp **** 
  25:TestTestMacros.cpp **** struct ThrowingThingie
  26:TestTestMacros.cpp **** {
  27:TestTestMacros.cpp ****     ThrowingThingie() : dummy(false)
 887              		.loc 6 27 0 is_stmt 1
 888              		.cfi_startproc
 889 0232 55       		pushq	%rbp
 890              		.cfi_def_cfa_offset 16
 891              		.cfi_offset 6, -16
 892 0233 4889E5   		movq	%rsp, %rbp
 893              		.cfi_def_cfa_register 6
 894 0236 4883EC10 		subq	$16, %rsp
 895 023a 48897DF8 		movq	%rdi, -8(%rbp)
 896              	.LBB13:
 897              		.loc 6 27 0
 898 023e 488B45F8 		movq	-8(%rbp), %rax
 899 0242 C60000   		movb	$0, (%rax)
  28:TestTestMacros.cpp ****     {
  29:TestTestMacros.cpp ****         if (!dummy)
 900              		.loc 6 29 0
 901 0245 488B45F8 		movq	-8(%rbp), %rax
 902 0249 0FB600   		movzbl	(%rax), %eax
 903 024c 83F001   		xorl	$1, %eax
 904 024f 84C0     		testb	%al, %al
 905 0251 7423     		je	.L34
  30:TestTestMacros.cpp ****             throw "Oops";
 906              		.loc 6 30 0
 907 0253 BF080000 		movl	$8, %edi
 907      00
 908 0258 E8000000 		call	__cxa_allocate_exception
 908      00
 909 025d 48C70000 		movq	$.LC9, (%rax)
 909      000000
 910 0264 BA000000 		movl	$0, %edx
 910      00
 911 0269 BE000000 		movl	$_ZTIPKc, %esi
 911      00
 912 026e 4889C7   		movq	%rax, %rdi
 913 0271 E8000000 		call	__cxa_throw
 913      00
 914              	.L34:
 915              	.LBE13:
  31:TestTestMacros.cpp ****     }
 916              		.loc 6 31 0
 917 0276 C9       		leave
 918              		.cfi_def_cfa 7, 8
 919 0277 C3       		ret
 920              		.cfi_endproc
 921              	.LFE1093:
 923              		.local	_ZN12_GLOBAL__N_15list2E
 924              		.comm	_ZN12_GLOBAL__N_15list2E,16,16
 925              		.align 2
 927              	_ZN12_GLOBAL__N_134ThrowingThingieDummyTestNameHelperC2ERKN8UnitTest11TestDetailsE:
 928              	.LFB1096:
  32:TestTestMacros.cpp **** 
  33:TestTestMacros.cpp ****     bool dummy;
  34:TestTestMacros.cpp **** };
  35:TestTestMacros.cpp **** 
  36:TestTestMacros.cpp **** TestList list2;
  37:TestTestMacros.cpp **** TEST_FIXTURE_EX(ThrowingThingie, DummyTestName, list2)
 929              		.loc 6 37 0
 930              		.cfi_startproc
 931 0278 55       		pushq	%rbp
 932              		.cfi_def_cfa_offset 16
 933              		.cfi_offset 6, -16
 934 0279 4889E5   		movq	%rsp, %rbp
 935              		.cfi_def_cfa_register 6
 936 027c 4883EC10 		subq	$16, %rsp
 937 0280 48897DF8 		movq	%rdi, -8(%rbp)
 938 0284 488975F0 		movq	%rsi, -16(%rbp)
 939              	.LBB14:
 940              		.loc 6 37 0
 941 0288 488B45F8 		movq	-8(%rbp), %rax
 942 028c 4889C7   		movq	%rax, %rdi
 943 028f E89EFFFF 		call	_ZN12_GLOBAL__N_115ThrowingThingieC2Ev
 943      FF
 944 0294 488B45F8 		movq	-8(%rbp), %rax
 945 0298 488B55F0 		movq	-16(%rbp), %rdx
 946 029c 48895008 		movq	%rdx, 8(%rax)
 947              	.LBE14:
 948 02a0 C9       		leave
 949              		.cfi_def_cfa 7, 8
 950 02a1 C3       		ret
 951              		.cfi_endproc
 952              	.LFE1096:
 954              		.section	.rodata
 955              	.LC10:
 956 00fe 44756D6D 		.string	"DummyTestName"
 956      79546573 
 956      744E616D 
 956      6500
 957              		.text
 958              		.align 2
 960              	_ZN12_GLOBAL__N_132TestThrowingThingieDummyTestNameC2Ev:
 961              	.LFB1099:
 962              		.loc 6 37 0
 963              		.cfi_startproc
 964 02a2 55       		pushq	%rbp
 965              		.cfi_def_cfa_offset 16
 966              		.cfi_offset 6, -16
 967 02a3 4889E5   		movq	%rsp, %rbp
 968              		.cfi_def_cfa_register 6
 969 02a6 4883EC10 		subq	$16, %rsp
 970 02aa 48897DF8 		movq	%rdi, -8(%rbp)
 971              	.LBB15:
 972              		.loc 6 37 0
 973 02ae E8000000 		call	_ZN13UnitTestSuite12GetSuiteNameEv
 973      00
 974 02b3 4889C2   		movq	%rax, %rdx
 975 02b6 488B45F8 		movq	-8(%rbp), %rax
 976 02ba 41B82500 		movl	$37, %r8d
 976      0000
 977 02c0 B9000000 		movl	$.LC2, %ecx
 977      00
 978 02c5 BE000000 		movl	$.LC10, %esi
 978      00
 979 02ca 4889C7   		movq	%rax, %rdi
 980 02cd E8000000 		call	_ZN8UnitTest4TestC2EPKcS2_S2_i
 980      00
 981 02d2 488B45F8 		movq	-8(%rbp), %rax
 982 02d6 48C70000 		movq	$_ZTVN12_GLOBAL__N_132TestThrowingThingieDummyTestNameE+16, (%rax)
 982      000000
 983              	.LBE15:
 984 02dd C9       		leave
 985              		.cfi_def_cfa 7, 8
 986 02de C3       		ret
 987              		.cfi_endproc
 988              	.LFE1099:
 990              		.local	_ZN12_GLOBAL__N_140testThrowingThingieDummyTestNameInstanceE
 991              		.comm	_ZN12_GLOBAL__N_140testThrowingThingieDummyTestNameInstanceE,56,32
 992              		.local	_ZN12_GLOBAL__N_133adderThrowingThingieDummyTestNameE
 993              		.comm	_ZN12_GLOBAL__N_133adderThrowingThingieDummyTestNameE,1,1
 994              		.section	.rodata
 995              	.LC11:
 996 010c 556E6861 		.string	"Unhandled exception: "
 996      6E646C65 
 996      64206578 
 996      63657074 
 996      696F6E3A 
 997 0122 00000000 		.align 8
 997      0000
 998              	.LC12:
 999 0128 556E6861 		.string	"Unhandled exception while destroying fixture ThrowingThingie"
 999      6E646C65 
 999      64206578 
 999      63657074 
 999      696F6E20 
 1000 0165 000000   		.align 8
 1001              	.LC13:
 1002 0168 556E6861 		.string	"Unhandled exception while constructing fixture ThrowingThingie"
 1002      6E646C65 
 1002      64206578 
 1002      63657074 
 1002      696F6E20 
 1003              		.text
 1004 02df 90       		.align 2
 1006              	_ZNK12_GLOBAL__N_132TestThrowingThingieDummyTestName7RunImplEv:
 1007              	.LFB1101:
 1008              		.loc 6 37 0
 1009              		.cfi_startproc
 1010              		.cfi_personality 0x3,__gxx_personality_v0
 1011              		.cfi_lsda 0x3,.LLSDA1101
 1012 02e0 55       		pushq	%rbp
 1013              		.cfi_def_cfa_offset 16
 1014              		.cfi_offset 6, -16
 1015 02e1 4889E5   		movq	%rsp, %rbp
 1016              		.cfi_def_cfa_register 6
 1017 02e4 4154     		pushq	%r12
 1018 02e6 53       		pushq	%rbx
 1019 02e7 4881ECC0 		subq	$448, %rsp
 1019      010000
 1020              		.cfi_offset 12, -24
 1021              		.cfi_offset 3, -32
 1022 02ee 4889BD38 		movq	%rdi, -456(%rbp)
 1022      FEFFFF
 1023              		.loc 6 37 0
 1024 02f5 64488B04 		movq	%fs:40, %rax
 1024      25280000 
 1024      00
 1025 02fe 488945E8 		movq	%rax, -24(%rbp)
 1026 0302 31C0     		xorl	%eax, %eax
 1027              	.LBB16:
 1028 0304 C6854FFE 		movb	$0, -433(%rbp)
 1028      FFFF00
 1029              	.LBB17:
 1030 030b 488B8538 		movq	-456(%rbp), %rax
 1030      FEFFFF
 1031 0312 488D5008 		leaq	8(%rax), %rdx
 1032 0316 488D8560 		leaq	-416(%rbp), %rax
 1032      FEFFFF
 1033 031d 4889D6   		movq	%rdx, %rsi
 1034 0320 4889C7   		movq	%rax, %rdi
 1035              	.LEHB12:
 1036 0323 E850FFFF 		call	_ZN12_GLOBAL__N_134ThrowingThingieDummyTestNameHelperC2ERKN8UnitTest11TestDetailsE
 1036      FF
 1037              		.loc 6 37 0 is_stmt 0 discriminator 1
 1038 0328 C6854FFE 		movb	$1, -433(%rbp)
 1038      FFFF01
 1039 032f 488B8538 		movq	-456(%rbp), %rax
 1039      FEFFFF
 1040 0336 488D5008 		leaq	8(%rax), %rdx
 1041 033a 488D8560 		leaq	-416(%rbp), %rax
 1041      FEFFFF
 1042 0341 4889D6   		movq	%rdx, %rsi
 1043 0344 4889C7   		movq	%rax, %rdi
 1044 0347 E8A72B00 		call	_ZN8UnitTest11ExecuteTestIN12_GLOBAL__N_134ThrowingThingieDummyTestNameHelperEEEvRT_RKNS_11Te
 1044      00
 1045              	.LEHE12:
 1046              	.LBE17:
 1047              	.LBE16:
 1048              		.loc 6 37 0
 1049 034c E9470200 		jmp	.L57
 1049      00
 1050              	.L51:
 1051 0351 4883FA01 		cmpq	$1, %rdx
 1052 0355 745C     		je	.L41
 1053 0357 4883FA02 		cmpq	$2, %rdx
 1054 035b 0F84F400 		je	.L42
 1054      0000
 1055 0361 E9980100 		jmp	.L56
 1055      00
 1056              	.L52:
 1057 0366 4889C3   		movq	%rax, %rbx
 1058              	.LBB24:
 1059              	.LBB18:
 1060 0369 E8000000 		call	__cxa_end_catch
 1060      00
 1061 036e 4889D8   		movq	%rbx, %rax
 1062 0371 4889C7   		movq	%rax, %rdi
 1063              	.LEHB13:
 1064 0374 E8000000 		call	_Unwind_Resume
 1064      00
 1065              	.LEHE13:
 1066              	.L53:
 1067 0379 4889C3   		movq	%rax, %rbx
 1068              	.LBE18:
 1069              	.LBB19:
 1070              	.LBB20:
 1071 037c 488D8580 		leaq	-384(%rbp), %rax
 1071      FEFFFF
 1072 0383 4889C7   		movq	%rax, %rdi
 1073 0386 E8000000 		call	_ZN8UnitTest15MemoryOutStreamD1Ev
 1073      00
 1074 038b EB03     		jmp	.L45
 1075              	.L54:
 1076 038d 4889C3   		movq	%rax, %rbx
 1077              	.L45:
 1078              	.LBE20:
 1079 0390 E8000000 		call	__cxa_end_catch
 1079      00
 1080 0395 4889D8   		movq	%rbx, %rax
 1081 0398 4889C7   		movq	%rax, %rdi
 1082              	.LEHB14:
 1083 039b E8000000 		call	_Unwind_Resume
 1083      00
 1084              	.LEHE14:
 1085              	.L55:
 1086 03a0 4889C3   		movq	%rax, %rbx
 1087              	.LBE19:
 1088 03a3 E8000000 		call	__cxa_end_catch
 1088      00
 1089 03a8 4889D8   		movq	%rbx, %rax
 1090 03ab 4889C7   		movq	%rax, %rdi
 1091              	.LEHB15:
 1092 03ae E8000000 		call	_Unwind_Resume
 1092      00
 1093              	.LEHE15:
 1094              	.L41:
 1095              	.LBB22:
 1096 03b3 4889C7   		movq	%rax, %rdi
 1097 03b6 E8000000 		call	__cxa_begin_catch
 1097      00
 1098 03bb 48898550 		movq	%rax, -432(%rbp)
 1098      FEFFFF
 1099 03c2 488B8550 		movq	-432(%rbp), %rax
 1099      FEFFFF
 1100 03c9 488B00   		movq	(%rax), %rax
 1101 03cc 4883C010 		addq	$16, %rax
 1102 03d0 488B00   		movq	(%rax), %rax
 1103 03d3 488B9550 		movq	-432(%rbp), %rdx
 1103      FEFFFF
 1104 03da 4889D7   		movq	%rdx, %rdi
 1105 03dd FFD0     		call	*%rax
 1106 03df 4889C3   		movq	%rax, %rbx
 1107 03e2 488B8550 		movq	-432(%rbp), %rax
 1107      FEFFFF
 1108 03e9 4889C7   		movq	%rax, %rdi
 1109              	.LEHB16:
 1110 03ec E8000000 		call	_ZNK8UnitTest15AssertException10LineNumberEv
 1110      00
 1111 03f1 4189C4   		movl	%eax, %r12d
 1112 03f4 488B8550 		movq	-432(%rbp), %rax
 1112      FEFFFF
 1113 03fb 4889C7   		movq	%rax, %rdi
 1114 03fe E8000000 		call	_ZNK8UnitTest15AssertException8FilenameEv
 1114      00
 1115              		.loc 6 37 0 discriminator 3
 1116 0403 4889C1   		movq	%rax, %rcx
 1117 0406 488B8538 		movq	-456(%rbp), %rax
 1117      FEFFFF
 1118 040d 488B5008 		movq	8(%rax), %rdx
 1119 0411 488B8538 		movq	-456(%rbp), %rax
 1119      FEFFFF
 1120 0418 488B7010 		movq	16(%rax), %rsi
 1121 041c 488D8560 		leaq	-416(%rbp), %rax
 1121      FEFFFF
 1122 0423 4589E0   		movl	%r12d, %r8d
 1123 0426 4889C7   		movq	%rax, %rdi
 1124 0429 E8000000 		call	_ZN8UnitTest11TestDetailsC1EPKcS2_S2_i
 1124      00
 1125              		.loc 6 37 0 discriminator 7
 1126 042e E8000000 		call	_ZN8UnitTest11CurrentTest7ResultsEv
 1126      00
 1127 0433 488B00   		movq	(%rax), %rax
 1128 0436 488D8D60 		leaq	-416(%rbp), %rcx
 1128      FEFFFF
 1129 043d 4889DA   		movq	%rbx, %rdx
 1130 0440 4889CE   		movq	%rcx, %rsi
 1131 0443 4889C7   		movq	%rax, %rdi
 1132 0446 E8000000 		call	_ZN8UnitTest11TestResults13OnTestFailureERKNS_11TestDetailsEPKc
 1132      00
 1133              	.LEHE16:
 1134              		.loc 6 37 0 discriminator 11
 1135 044b E8000000 		call	__cxa_end_catch
 1135      00
 1136              	.LBE22:
 1137              	.LBE24:
 1138 0450 E9430100 		jmp	.L57
 1138      00
 1139              	.L42:
 1140              	.LBB25:
 1141              	.LBB23:
 1142              		.loc 6 37 0
 1143 0455 4889C7   		movq	%rax, %rdi
 1144 0458 E8000000 		call	__cxa_begin_catch
 1144      00
 1145 045d 48898558 		movq	%rax, -424(%rbp)
 1145      FEFFFF
 1146              	.LBB21:
 1147 0464 488D8580 		leaq	-384(%rbp), %rax
 1147      FEFFFF
 1148 046b 4889C7   		movq	%rax, %rdi
 1149              	.LEHB17:
 1150 046e E8000000 		call	_ZN8UnitTest15MemoryOutStreamC1Ev
 1150      00
 1151              	.LEHE17:
 1152              		.loc 6 37 0 discriminator 13
 1153 0473 488B8558 		movq	-424(%rbp), %rax
 1153      FEFFFF
 1154 047a 488B00   		movq	(%rax), %rax
 1155 047d 4883C010 		addq	$16, %rax
 1156 0481 488B00   		movq	(%rax), %rax
 1157 0484 488B9558 		movq	-424(%rbp), %rdx
 1157      FEFFFF
 1158 048b 4889D7   		movq	%rdx, %rdi
 1159 048e FFD0     		call	*%rax
 1160 0490 4889C3   		movq	%rax, %rbx
 1161 0493 488D8580 		leaq	-384(%rbp), %rax
 1161      FEFFFF
 1162 049a BE000000 		movl	$.LC11, %esi
 1162      00
 1163 049f 4889C7   		movq	%rax, %rdi
 1164              	.LEHB18:
 1165 04a2 E8000000 		call	_ZStlsISt11char_traitsIcEERSt13basic_ostreamIcT_ES5_PKc
 1165      00
 1166 04a7 4889DE   		movq	%rbx, %rsi
 1167 04aa 4889C7   		movq	%rax, %rdi
 1168 04ad E8000000 		call	_ZStlsISt11char_traitsIcEERSt13basic_ostreamIcT_ES5_PKc
 1168      00
 1169              		.loc 6 37 0 discriminator 17
 1170 04b2 488D8580 		leaq	-384(%rbp), %rax
 1170      FEFFFF
 1171 04b9 4889C7   		movq	%rax, %rdi
 1172 04bc E8000000 		call	_ZNK8UnitTest15MemoryOutStream7GetTextEv
 1172      00
 1173 04c1 4989C4   		movq	%rax, %r12
 1174 04c4 488B8538 		movq	-456(%rbp), %rax
 1174      FEFFFF
 1175 04cb 488D5808 		leaq	8(%rax), %rbx
 1176 04cf E8000000 		call	_ZN8UnitTest11CurrentTest7ResultsEv
 1176      00
 1177              		.loc 6 37 0 discriminator 19
 1178 04d4 488B00   		movq	(%rax), %rax
 1179 04d7 4C89E2   		movq	%r12, %rdx
 1180 04da 4889DE   		movq	%rbx, %rsi
 1181 04dd 4889C7   		movq	%rax, %rdi
 1182 04e0 E8000000 		call	_ZN8UnitTest11TestResults13OnTestFailureERKNS_11TestDetailsEPKc
 1182      00
 1183              	.LEHE18:
 1184              		.loc 6 37 0 discriminator 23
 1185 04e5 488D8580 		leaq	-384(%rbp), %rax
 1185      FEFFFF
 1186 04ec 4889C7   		movq	%rax, %rdi
 1187              	.LEHB19:
 1188 04ef E8000000 		call	_ZN8UnitTest15MemoryOutStreamD1Ev
 1188      00
 1189              	.LEHE19:
 1190              	.LBE21:
 1191              		.loc 6 37 0 discriminator 24
 1192 04f4 E8000000 		call	__cxa_end_catch
 1192      00
 1193              	.LBE23:
 1194              	.LBE25:
 1195 04f9 E99A0000 		jmp	.L57
 1195      00
 1196              	.L56:
 1197              	.LBB26:
 1198              		.loc 6 37 0
 1199 04fe 4889C7   		movq	%rax, %rdi
 1200 0501 E8000000 		call	__cxa_begin_catch
 1200      00
 1201 0506 80BD4FFE 		cmpb	$0, -433(%rbp)
 1201      FFFF00
 1202 050d 7443     		je	.L48
 1203              		.loc 6 37 0 discriminator 26
 1204 050f 488B8538 		movq	-456(%rbp), %rax
 1204      FEFFFF
 1205 0516 488D4808 		leaq	8(%rax), %rcx
 1206 051a 488D8560 		leaq	-416(%rbp), %rax
 1206      FEFFFF
 1207 0521 BA250000 		movl	$37, %edx
 1207      00
 1208 0526 4889CE   		movq	%rcx, %rsi
 1209 0529 4889C7   		movq	%rax, %rdi
 1210              	.LEHB20:
 1211 052c E8000000 		call	_ZN8UnitTest11TestDetailsC1ERKS0_i
 1211      00
 1212              		.loc 6 37 0 discriminator 29
 1213 0531 E8000000 		call	_ZN8UnitTest11CurrentTest7ResultsEv
 1213      00
 1214 0536 488B00   		movq	(%rax), %rax
 1215 0539 488D8D60 		leaq	-416(%rbp), %rcx
 1215      FEFFFF
 1216 0540 BA000000 		movl	$.LC12, %edx
 1216      00
 1217 0545 4889CE   		movq	%rcx, %rsi
 1218 0548 4889C7   		movq	%rax, %rdi
 1219 054b E8000000 		call	_ZN8UnitTest11TestResults13OnTestFailureERKNS_11TestDetailsEPKc
 1219      00
 1220 0550 EB41     		jmp	.L49
 1221              	.L48:
 1222              		.loc 6 37 0 discriminator 27
 1223 0552 488B8538 		movq	-456(%rbp), %rax
 1223      FEFFFF
 1224 0559 488D4808 		leaq	8(%rax), %rcx
 1225 055d 488D8560 		leaq	-416(%rbp), %rax
 1225      FEFFFF
 1226 0564 BA250000 		movl	$37, %edx
 1226      00
 1227 0569 4889CE   		movq	%rcx, %rsi
 1228 056c 4889C7   		movq	%rax, %rdi
 1229 056f E8000000 		call	_ZN8UnitTest11TestDetailsC1ERKS0_i
 1229      00
 1230              		.loc 6 37 0 discriminator 36
 1231 0574 E8000000 		call	_ZN8UnitTest11CurrentTest7ResultsEv
 1231      00
 1232 0579 488B00   		movq	(%rax), %rax
 1233 057c 488D8D60 		leaq	-416(%rbp), %rcx
 1233      FEFFFF
 1234 0583 BA000000 		movl	$.LC13, %edx
 1234      00
 1235 0588 4889CE   		movq	%rcx, %rsi
 1236 058b 4889C7   		movq	%rax, %rdi
 1237 058e E8000000 		call	_ZN8UnitTest11TestResults13OnTestFailureERKNS_11TestDetailsEPKc
 1237      00
 1238              	.LEHE20:
 1239              	.L49:
 1240              	.LEHB21:
 1241              		.loc 6 37 0 discriminator 41
 1242 0593 E8000000 		call	__cxa_end_catch
 1242      00
 1243              	.LEHE21:
 1244              	.L57:
 1245              	.LBE26:
 1246              		.loc 6 37 0
 1247 0598 90       		nop
 1248 0599 488B45E8 		movq	-24(%rbp), %rax
 1249 059d 64483304 		xorq	%fs:40, %rax
 1249      25280000 
 1249      00
 1250 05a6 7405     		je	.L50
 1251 05a8 E8000000 		call	__stack_chk_fail
 1251      00
 1252              	.L50:
 1253 05ad 4881C4C0 		addq	$448, %rsp
 1253      010000
 1254 05b4 5B       		popq	%rbx
 1255 05b5 415C     		popq	%r12
 1256 05b7 5D       		popq	%rbp
 1257              		.cfi_def_cfa 7, 8
 1258 05b8 C3       		ret
 1259              		.cfi_endproc
 1260              	.LFE1101:
 1261              		.section	.gcc_except_table
 1262              		.align 4
 1263              	.LLSDA1101:
 1264 0038 FF       		.byte	0xff
 1265 0039 03       		.byte	0x3
 1266 003a 4D       		.uleb128 .LLSDATT1101-.LLSDATTD1101
 1267              	.LLSDATTD1101:
 1268 003b 01       		.byte	0x1
 1269 003c 36       		.uleb128 .LLSDACSE1101-.LLSDACSB1101
 1270              	.LLSDACSB1101:
 1271 003d 43       		.uleb128 .LEHB12-.LFB1101
 1272 003e 29       		.uleb128 .LEHE12-.LEHB12
 1273 003f 71       		.uleb128 .L51-.LFB1101
 1274 0040 05       		.uleb128 0x5
 1275 0041 9401     		.uleb128 .LEHB13-.LFB1101
 1276 0043 05       		.uleb128 .LEHE13-.LEHB13
 1277 0044 00       		.uleb128 0
 1278 0045 00       		.uleb128 0
 1279 0046 BB01     		.uleb128 .LEHB14-.LFB1101
 1280 0048 05       		.uleb128 .LEHE14-.LEHB14
 1281 0049 00       		.uleb128 0
 1282 004a 00       		.uleb128 0
 1283 004b CE01     		.uleb128 .LEHB15-.LFB1101
 1284 004d 05       		.uleb128 .LEHE15-.LEHB15
 1285 004e 00       		.uleb128 0
 1286 004f 00       		.uleb128 0
 1287 0050 8C02     		.uleb128 .LEHB16-.LFB1101
 1288 0052 5F       		.uleb128 .LEHE16-.LEHB16
 1289 0053 8601     		.uleb128 .L52-.LFB1101
 1290 0055 00       		.uleb128 0
 1291 0056 8E03     		.uleb128 .LEHB17-.LFB1101
 1292 0058 05       		.uleb128 .LEHE17-.LEHB17
 1293 0059 AD01     		.uleb128 .L54-.LFB1101
 1294 005b 00       		.uleb128 0
 1295 005c C203     		.uleb128 .LEHB18-.LFB1101
 1296 005e 43       		.uleb128 .LEHE18-.LEHB18
 1297 005f 9901     		.uleb128 .L53-.LFB1101
 1298 0061 00       		.uleb128 0
 1299 0062 8F04     		.uleb128 .LEHB19-.LFB1101
 1300 0064 05       		.uleb128 .LEHE19-.LEHB19
 1301 0065 AD01     		.uleb128 .L54-.LFB1101
 1302 0067 00       		.uleb128 0
 1303 0068 CC04     		.uleb128 .LEHB20-.LFB1101
 1304 006a 67       		.uleb128 .LEHE20-.LEHB20
 1305 006b C001     		.uleb128 .L55-.LFB1101
 1306 006d 00       		.uleb128 0
 1307 006e B305     		.uleb128 .LEHB21-.LFB1101
 1308 0070 05       		.uleb128 .LEHE21-.LEHB21
 1309 0071 00       		.uleb128 0
 1310 0072 00       		.uleb128 0
 1311              	.LLSDACSE1101:
 1312 0073 03       		.byte	0x3
 1313 0074 00       		.byte	0
 1314 0075 02       		.byte	0x2
 1315 0076 7D       		.byte	0x7d
 1316 0077 01       		.byte	0x1
 1317 0078 7D       		.byte	0x7d
 1318 0079 000000   		.align 4
 1319 007c 00000000 		.long	0
 1320              	
 1321 0080 00000000 		.long	_ZTISt9exception
 1322 0084 00000000 		.long	_ZTIN8UnitTest15AssertExceptionE
 1323              	.LLSDATT1101:
 1324              		.text
 1326 05b9 90       		.align 2
 1328              	_ZN12_GLOBAL__N_134ThrowingThingieDummyTestNameHelper7RunImplEv:
 1329              	.LFB1102:
  38:TestTestMacros.cpp **** {
 1330              		.loc 6 38 0 is_stmt 1
 1331              		.cfi_startproc
 1332 05ba 55       		pushq	%rbp
 1333              		.cfi_def_cfa_offset 16
 1334              		.cfi_offset 6, -16
 1335 05bb 4889E5   		movq	%rsp, %rbp
 1336              		.cfi_def_cfa_register 6
 1337 05be 48897DF8 		movq	%rdi, -8(%rbp)
  39:TestTestMacros.cpp **** }
 1338              		.loc 6 39 0
 1339 05c2 5D       		popq	%rbp
 1340              		.cfi_def_cfa 7, 8
 1341 05c3 C3       		ret
 1342              		.cfi_endproc
 1343              	.LFE1102:
 1345              		.section	.rodata
 1346 01a7 00       		.align 8
 1347              	.LC14:
 1348 01a8 45786365 		.string	"ExceptionsInFixtureAreReportedAsHappeningInTheFixture"
 1348      7074696F 
 1348      6E73496E 
 1348      46697874 
 1348      75726541 
 1349              		.text
 1350              		.align 2
 1352              	_ZN12_GLOBAL__N_157TestExceptionsInFixtureAreReportedAsHappeningInTheFixtureC2Ev:
 1353              	.LFB1104:
  40:TestTestMacros.cpp **** 
  41:TestTestMacros.cpp **** TEST (ExceptionsInFixtureAreReportedAsHappeningInTheFixture)
 1354              		.loc 6 41 0
 1355              		.cfi_startproc
 1356 05c4 55       		pushq	%rbp
 1357              		.cfi_def_cfa_offset 16
 1358              		.cfi_offset 6, -16
 1359 05c5 4889E5   		movq	%rsp, %rbp
 1360              		.cfi_def_cfa_register 6
 1361 05c8 4883EC10 		subq	$16, %rsp
 1362 05cc 48897DF8 		movq	%rdi, -8(%rbp)
 1363              	.LBB27:
 1364              		.loc 6 41 0
 1365 05d0 E8000000 		call	_ZN13UnitTestSuite12GetSuiteNameEv
 1365      00
 1366 05d5 4889C2   		movq	%rax, %rdx
 1367 05d8 488B45F8 		movq	-8(%rbp), %rax
 1368 05dc 41B82900 		movl	$41, %r8d
 1368      0000
 1369 05e2 B9000000 		movl	$.LC2, %ecx
 1369      00
 1370 05e7 BE000000 		movl	$.LC14, %esi
 1370      00
 1371 05ec 4889C7   		movq	%rax, %rdi
 1372 05ef E8000000 		call	_ZN8UnitTest4TestC2EPKcS2_S2_i
 1372      00
 1373 05f4 488B45F8 		movq	-8(%rbp), %rax
 1374 05f8 48C70000 		movq	$_ZTVN12_GLOBAL__N_157TestExceptionsInFixtureAreReportedAsHappeningInTheFixtureE+16, (%rax)
 1374      000000
 1375              	.LBE27:
 1376 05ff C9       		leave
 1377              		.cfi_def_cfa 7, 8
 1378 0600 C3       		ret
 1379              		.cfi_endproc
 1380              	.LFE1104:
 1382              		.local	_ZN12_GLOBAL__N_165testExceptionsInFixtureAreReportedAsHappeningInTheFixtureInstanceE
 1383              		.comm	_ZN12_GLOBAL__N_165testExceptionsInFixtureAreReportedAsHappeningInTheFixtureInstanceE,56,32
 1384              		.local	_ZN12_GLOBAL__N_158adderExceptionsInFixtureAreReportedAsHappeningInTheFixtureE
 1385              		.comm	_ZN12_GLOBAL__N_158adderExceptionsInFixtureAreReportedAsHappeningInTheFixtureE,1,1
 1386              		.section	.rodata
 1387              	.LC15:
 1388 01de 78636570 		.string	"xception"
 1388      74696F6E 
 1388      00
 1389 01e7 00       		.align 8
 1390              	.LC16:
 1391 01e8 73747273 		.string	"strstr(reporter.lastFailedMessage, \"xception\")"
 1391      74722872 
 1391      65706F72 
 1391      7465722E 
 1391      6C617374 
 1392              	.LC17:
 1393 0217 66697874 		.string	"fixture"
 1393      75726500 
 1394 021f 00       		.align 8
 1395              	.LC18:
 1396 0220 73747273 		.string	"strstr(reporter.lastFailedMessage, \"fixture\")"
 1396      74722872 
 1396      65706F72 
 1396      7465722E 
 1396      6C617374 
 1397              	.LC19:
 1398 024e 5468726F 		.string	"ThrowingThingie"
 1398      77696E67 
 1398      5468696E 
 1398      67696500 
 1399 025e 0000     		.align 8
 1400              	.LC20:
 1401 0260 73747273 		.string	"strstr(reporter.lastFailedMessage, \"ThrowingThingie\")"
 1401      74722872 
 1401      65706F72 
 1401      7465722E 
 1401      6C617374 
 1402 0296 0000     		.align 8
 1403              	.LC21:
 1404 0298 556E6861 		.string	"Unhandled exception in CHECK(strstr(reporter.lastFailedMessage, \"xception\"))"
 1404      6E646C65 
 1404      64206578 
 1404      63657074 
 1404      696F6E20 
 1405 02e5 000000   		.align 8
 1406              	.LC22:
 1407 02e8 556E6861 		.string	"Unhandled exception in CHECK(strstr(reporter.lastFailedMessage, \"fixture\"))"
 1407      6E646C65 
 1407      64206578 
 1407      63657074 
 1407      696F6E20 
 1408 0334 00000000 		.align 8
 1409              	.LC23:
 1410 0338 556E6861 		.string	"Unhandled exception in CHECK(strstr(reporter.lastFailedMessage, \"ThrowingThingie\"))"
 1410      6E646C65 
 1410      64206578 
 1410      63657074 
 1410      696F6E20 
 1411              		.text
 1412 0601 90       		.align 2
 1414              	_ZNK12_GLOBAL__N_157TestExceptionsInFixtureAreReportedAsHappeningInTheFixture7RunImplEv:
 1415              	.LFB1106:
  42:TestTestMacros.cpp **** {
 1416              		.loc 6 42 0
 1417              		.cfi_startproc
 1418              		.cfi_personality 0x3,__gxx_personality_v0
 1419              		.cfi_lsda 0x3,.LLSDA1106
 1420 0602 55       		pushq	%rbp
 1421              		.cfi_def_cfa_offset 16
 1422              		.cfi_offset 6, -16
 1423 0603 4889E5   		movq	%rsp, %rbp
 1424              		.cfi_def_cfa_register 6
 1425 0606 53       		pushq	%rbx
 1426 0607 4881EC98 		subq	$2200, %rsp
 1426      080000
 1427              		.cfi_offset 3, -24
 1428 060e 4889BD68 		movq	%rdi, -2200(%rbp)
 1428      F7FFFF
 1429              		.loc 6 42 0
 1430 0615 64488B04 		movq	%fs:40, %rax
 1430      25280000 
 1430      00
 1431 061e 488945E8 		movq	%rax, -24(%rbp)
 1432 0622 31C0     		xorl	%eax, %eax
 1433              	.LBB28:
  43:TestTestMacros.cpp ****     RecordingReporter reporter;
 1434              		.loc 6 43 0
 1435 0624 488D85B0 		leaq	-2128(%rbp), %rax
 1435      F7FFFF
 1436 062b 4889C7   		movq	%rax, %rdi
 1437 062e E8000000 		call	_ZN17RecordingReporterC1Ev
 1437      00
  44:TestTestMacros.cpp ****     TestResults result(&reporter);
 1438              		.loc 6 44 0
 1439 0633 488D95B0 		leaq	-2128(%rbp), %rdx
 1439      F7FFFF
 1440 063a 488D8570 		leaq	-2192(%rbp), %rax
 1440      F7FFFF
 1441 0641 4889D6   		movq	%rdx, %rsi
 1442 0644 4889C7   		movq	%rax, %rdi
 1443              	.LEHB22:
 1444 0647 E8000000 		call	_ZN8UnitTest11TestResultsC1EPNS_12TestReporterE
 1444      00
 1445              	.LBB29:
  45:TestTestMacros.cpp **** 	{
  46:TestTestMacros.cpp **** 		ScopedCurrentTest scopedResults(result);
 1446              		.loc 6 46 0
 1447 064c 488D8D70 		leaq	-2192(%rbp), %rcx
 1447      F7FFFF
 1448 0653 488D8590 		leaq	-2160(%rbp), %rax
 1448      F7FFFF
 1449 065a BA000000 		movl	$0, %edx
 1449      00
 1450 065f 4889CE   		movq	%rcx, %rsi
 1451 0662 4889C7   		movq	%rax, %rdi
 1452 0665 E8000000 		call	_ZN17ScopedCurrentTestC1ERN8UnitTest11TestResultsEPKNS0_11TestDetailsE
 1452      00
 1453              	.LEHE22:
  47:TestTestMacros.cpp **** 		list2.GetHead()->Run();
 1454              		.loc 6 47 0
 1455 066a BF000000 		movl	$_ZN12_GLOBAL__N_15list2E, %edi
 1455      00
 1456              	.LEHB23:
 1457 066f E8000000 		call	_ZNK8UnitTest8TestList7GetHeadEv
 1457      00
 1458 0674 4889C7   		movq	%rax, %rdi
 1459 0677 E8000000 		call	_ZN8UnitTest4Test3RunEv
 1459      00
 1460              	.LEHE23:
 1461              		.loc 6 47 0 is_stmt 0 discriminator 4
 1462 067c 488D8590 		leaq	-2160(%rbp), %rax
 1462      F7FFFF
 1463 0683 4889C7   		movq	%rax, %rdi
 1464              	.LEHB24:
 1465 0686 E8000000 		call	_ZN17ScopedCurrentTestD1Ev
 1465      00
 1466              	.LEHE24:
 1467              	.LBE29:
  48:TestTestMacros.cpp **** 	}
  49:TestTestMacros.cpp **** 
  50:TestTestMacros.cpp ****     CHECK(strstr(reporter.lastFailedMessage, "xception"));
 1468              		.loc 6 50 0 is_stmt 1
 1469 068b 488D85B0 		leaq	-2128(%rbp), %rax
 1469      F7FFFF
 1470 0692 48051405 		addq	$1300, %rax
 1470      0000
 1471 0698 BE000000 		movl	$.LC15, %esi
 1471      00
 1472 069d 4889C7   		movq	%rax, %rdi
 1473 06a0 E8000000 		call	strstr
 1473      00
 1474 06a5 4889C7   		movq	%rax, %rdi
 1475 06a8 E8000000 		call	_ZN8UnitTest5CheckIPcEEbT_
 1475      00
 1476 06ad 83F001   		xorl	$1, %eax
 1477 06b0 84C0     		testb	%al, %al
 1478 06b2 743E     		je	.L61
 1479              	.LEHB25:
 1480              		.loc 6 50 0 is_stmt 0 discriminator 1
 1481 06b4 E8000000 		call	_ZN8UnitTest11CurrentTest7DetailsEv
 1481      00
 1482 06b9 488B08   		movq	(%rax), %rcx
 1483 06bc 488D8590 		leaq	-2160(%rbp), %rax
 1483      F7FFFF
 1484 06c3 BA320000 		movl	$50, %edx
 1484      00
 1485 06c8 4889CE   		movq	%rcx, %rsi
 1486 06cb 4889C7   		movq	%rax, %rdi
 1487 06ce E8000000 		call	_ZN8UnitTest11TestDetailsC1ERKS0_i
 1487      00
 1488              		.loc 6 50 0 discriminator 3
 1489 06d3 E8000000 		call	_ZN8UnitTest11CurrentTest7ResultsEv
 1489      00
 1490 06d8 488B00   		movq	(%rax), %rax
 1491 06db 488D8D90 		leaq	-2160(%rbp), %rcx
 1491      F7FFFF
 1492 06e2 BA000000 		movl	$.LC16, %edx
 1492      00
 1493 06e7 4889CE   		movq	%rcx, %rsi
 1494 06ea 4889C7   		movq	%rax, %rdi
 1495 06ed E8000000 		call	_ZN8UnitTest11TestResults13OnTestFailureERKNS_11TestDetailsEPKc
 1495      00
 1496              	.LEHE25:
 1497              	.L61:
  51:TestTestMacros.cpp ****     CHECK(strstr(reporter.lastFailedMessage, "fixture"));
 1498              		.loc 6 51 0 is_stmt 1
 1499 06f2 488D85B0 		leaq	-2128(%rbp), %rax
 1499      F7FFFF
 1500 06f9 48051405 		addq	$1300, %rax
 1500      0000
 1501 06ff BE000000 		movl	$.LC17, %esi
 1501      00
 1502 0704 4889C7   		movq	%rax, %rdi
 1503 0707 E8000000 		call	strstr
 1503      00
 1504 070c 4889C7   		movq	%rax, %rdi
 1505 070f E8000000 		call	_ZN8UnitTest5CheckIPcEEbT_
 1505      00
 1506 0714 83F001   		xorl	$1, %eax
 1507 0717 84C0     		testb	%al, %al
 1508 0719 743E     		je	.L62
 1509              	.LEHB26:
 1510              		.loc 6 51 0 is_stmt 0 discriminator 1
 1511 071b E8000000 		call	_ZN8UnitTest11CurrentTest7DetailsEv
 1511      00
 1512 0720 488B08   		movq	(%rax), %rcx
 1513 0723 488D8590 		leaq	-2160(%rbp), %rax
 1513      F7FFFF
 1514 072a BA330000 		movl	$51, %edx
 1514      00
 1515 072f 4889CE   		movq	%rcx, %rsi
 1516 0732 4889C7   		movq	%rax, %rdi
 1517 0735 E8000000 		call	_ZN8UnitTest11TestDetailsC1ERKS0_i
 1517      00
 1518              		.loc 6 51 0 discriminator 3
 1519 073a E8000000 		call	_ZN8UnitTest11CurrentTest7ResultsEv
 1519      00
 1520 073f 488B00   		movq	(%rax), %rax
 1521 0742 488D8D90 		leaq	-2160(%rbp), %rcx
 1521      F7FFFF
 1522 0749 BA000000 		movl	$.LC18, %edx
 1522      00
 1523 074e 4889CE   		movq	%rcx, %rsi
 1524 0751 4889C7   		movq	%rax, %rdi
 1525 0754 E8000000 		call	_ZN8UnitTest11TestResults13OnTestFailureERKNS_11TestDetailsEPKc
 1525      00
 1526              	.LEHE26:
 1527              	.L62:
  52:TestTestMacros.cpp ****     CHECK(strstr(reporter.lastFailedMessage, "ThrowingThingie"));
 1528              		.loc 6 52 0 is_stmt 1
 1529 0759 488D85B0 		leaq	-2128(%rbp), %rax
 1529      F7FFFF
 1530 0760 48051405 		addq	$1300, %rax
 1530      0000
 1531 0766 BE000000 		movl	$.LC19, %esi
 1531      00
 1532 076b 4889C7   		movq	%rax, %rdi
 1533 076e E8000000 		call	strstr
 1533      00
 1534 0773 4889C7   		movq	%rax, %rdi
 1535 0776 E8000000 		call	_ZN8UnitTest5CheckIPcEEbT_
 1535      00
 1536 077b 83F001   		xorl	$1, %eax
 1537 077e 84C0     		testb	%al, %al
 1538 0780 743E     		je	.L63
 1539              	.LEHB27:
 1540              		.loc 6 52 0 is_stmt 0 discriminator 1
 1541 0782 E8000000 		call	_ZN8UnitTest11CurrentTest7DetailsEv
 1541      00
 1542 0787 488B08   		movq	(%rax), %rcx
 1543 078a 488D8590 		leaq	-2160(%rbp), %rax
 1543      F7FFFF
 1544 0791 BA340000 		movl	$52, %edx
 1544      00
 1545 0796 4889CE   		movq	%rcx, %rsi
 1546 0799 4889C7   		movq	%rax, %rdi
 1547 079c E8000000 		call	_ZN8UnitTest11TestDetailsC1ERKS0_i
 1547      00
 1548              		.loc 6 52 0 discriminator 4
 1549 07a1 E8000000 		call	_ZN8UnitTest11CurrentTest7ResultsEv
 1549      00
 1550 07a6 488B00   		movq	(%rax), %rax
 1551 07a9 488D8D90 		leaq	-2160(%rbp), %rcx
 1551      F7FFFF
 1552 07b0 BA000000 		movl	$.LC20, %edx
 1552      00
 1553 07b5 4889CE   		movq	%rcx, %rsi
 1554 07b8 4889C7   		movq	%rax, %rdi
 1555 07bb E8000000 		call	_ZN8UnitTest11TestResults13OnTestFailureERKNS_11TestDetailsEPKc
 1555      00
 1556              	.LEHE27:
 1557              	.L63:
 1558              		.loc 6 52 0 discriminator 9
 1559 07c0 488D85B0 		leaq	-2128(%rbp), %rax
 1559      F7FFFF
 1560 07c7 4889C7   		movq	%rax, %rdi
 1561              	.LEHB28:
 1562 07ca E8000000 		call	_ZN17RecordingReporterD1Ev
 1562      00
 1563              	.LEHE28:
 1564              	.LBE28:
  53:TestTestMacros.cpp **** }
 1565              		.loc 6 53 0 is_stmt 1 discriminator 9
 1566 07cf 488B45E8 		movq	-24(%rbp), %rax
 1567 07d3 64483304 		xorq	%fs:40, %rax
 1567      25280000 
 1567      00
 1568 07dc 0F845201 		je	.L72
 1568      0000
 1569 07e2 E9480100 		jmp	.L81
 1569      00
 1570              	.L74:
 1571 07e7 4889C3   		movq	%rax, %rbx
 1572              	.LBB31:
 1573              	.LBB30:
  47:TestTestMacros.cpp **** 	}
 1574              		.loc 6 47 0
 1575 07ea 488D8590 		leaq	-2160(%rbp), %rax
 1575      F7FFFF
 1576 07f1 4889C7   		movq	%rax, %rdi
 1577 07f4 E8000000 		call	_ZN17ScopedCurrentTestD1Ev
 1577      00
 1578 07f9 E9170100 		jmp	.L65
 1578      00
 1579              	.L76:
 1580 07fe 4889C3   		movq	%rax, %rbx
 1581              	.LBE30:
  50:TestTestMacros.cpp ****     CHECK(strstr(reporter.lastFailedMessage, "fixture"));
 1582              		.loc 6 50 0
 1583 0801 E8000000 		call	__cxa_end_catch
 1583      00
 1584 0806 E90A0100 		jmp	.L65
 1584      00
 1585              	.L75:
 1586 080b 4889C7   		movq	%rax, %rdi
 1587 080e E8000000 		call	__cxa_begin_catch
 1587      00
 1588              	.LEHB29:
 1589 0813 E8000000 		call	_ZN8UnitTest11CurrentTest7DetailsEv
 1589      00
 1590 0818 488B08   		movq	(%rax), %rcx
 1591 081b 488D8590 		leaq	-2160(%rbp), %rax
 1591      F7FFFF
 1592 0822 BA320000 		movl	$50, %edx
 1592      00
 1593 0827 4889CE   		movq	%rcx, %rsi
 1594 082a 4889C7   		movq	%rax, %rdi
 1595 082d E8000000 		call	_ZN8UnitTest11TestDetailsC1ERKS0_i
 1595      00
  50:TestTestMacros.cpp ****     CHECK(strstr(reporter.lastFailedMessage, "fixture"));
 1596              		.loc 6 50 0 is_stmt 0 discriminator 11
 1597 0832 E8000000 		call	_ZN8UnitTest11CurrentTest7ResultsEv
 1597      00
 1598 0837 488B00   		movq	(%rax), %rax
 1599 083a 488D8D90 		leaq	-2160(%rbp), %rcx
 1599      F7FFFF
 1600 0841 BA000000 		movl	$.LC21, %edx
 1600      00
 1601 0846 4889CE   		movq	%rcx, %rsi
 1602 0849 4889C7   		movq	%rax, %rdi
 1603 084c E8000000 		call	_ZN8UnitTest11TestResults13OnTestFailureERKNS_11TestDetailsEPKc
 1603      00
 1604              	.LEHE29:
 1605              	.LEHB30:
  50:TestTestMacros.cpp ****     CHECK(strstr(reporter.lastFailedMessage, "fixture"));
 1606              		.loc 6 50 0 discriminator 15
 1607 0851 E8000000 		call	__cxa_end_catch
 1607      00
 1608              	.LEHE30:
  50:TestTestMacros.cpp ****     CHECK(strstr(reporter.lastFailedMessage, "fixture"));
 1609              		.loc 6 50 0
 1610 0856 E997FEFF 		jmp	.L61
 1610      FF
 1611              	.L78:
 1612 085b 4889C3   		movq	%rax, %rbx
  51:TestTestMacros.cpp ****     CHECK(strstr(reporter.lastFailedMessage, "ThrowingThingie"));
 1613              		.loc 6 51 0 is_stmt 1
 1614 085e E8000000 		call	__cxa_end_catch
 1614      00
 1615 0863 E9AD0000 		jmp	.L65
 1615      00
 1616              	.L77:
 1617 0868 4889C7   		movq	%rax, %rdi
 1618 086b E8000000 		call	__cxa_begin_catch
 1618      00
 1619              	.LEHB31:
 1620 0870 E8000000 		call	_ZN8UnitTest11CurrentTest7DetailsEv
 1620      00
 1621 0875 488B08   		movq	(%rax), %rcx
 1622 0878 488D8590 		leaq	-2160(%rbp), %rax
 1622      F7FFFF
 1623 087f BA330000 		movl	$51, %edx
 1623      00
 1624 0884 4889CE   		movq	%rcx, %rsi
 1625 0887 4889C7   		movq	%rax, %rdi
 1626 088a E8000000 		call	_ZN8UnitTest11TestDetailsC1ERKS0_i
 1626      00
  51:TestTestMacros.cpp ****     CHECK(strstr(reporter.lastFailedMessage, "ThrowingThingie"));
 1627              		.loc 6 51 0 is_stmt 0 discriminator 11
 1628 088f E8000000 		call	_ZN8UnitTest11CurrentTest7ResultsEv
 1628      00
 1629 0894 488B00   		movq	(%rax), %rax
 1630 0897 488D8D90 		leaq	-2160(%rbp), %rcx
 1630      F7FFFF
 1631 089e BA000000 		movl	$.LC22, %edx
 1631      00
 1632 08a3 4889CE   		movq	%rcx, %rsi
 1633 08a6 4889C7   		movq	%rax, %rdi
 1634 08a9 E8000000 		call	_ZN8UnitTest11TestResults13OnTestFailureERKNS_11TestDetailsEPKc
 1634      00
 1635              	.LEHE31:
 1636              	.LEHB32:
  51:TestTestMacros.cpp ****     CHECK(strstr(reporter.lastFailedMessage, "ThrowingThingie"));
 1637              		.loc 6 51 0 discriminator 15
 1638 08ae E8000000 		call	__cxa_end_catch
 1638      00
 1639              	.LEHE32:
  51:TestTestMacros.cpp ****     CHECK(strstr(reporter.lastFailedMessage, "ThrowingThingie"));
 1640              		.loc 6 51 0
 1641 08b3 E9A1FEFF 		jmp	.L62
 1641      FF
 1642              	.L80:
 1643 08b8 4889C3   		movq	%rax, %rbx
  52:TestTestMacros.cpp **** }
 1644              		.loc 6 52 0 is_stmt 1
 1645 08bb E8000000 		call	__cxa_end_catch
 1645      00
 1646 08c0 EB53     		jmp	.L65
 1647              	.L79:
 1648 08c2 4889C7   		movq	%rax, %rdi
 1649 08c5 E8000000 		call	__cxa_begin_catch
 1649      00
 1650              	.LEHB33:
 1651 08ca E8000000 		call	_ZN8UnitTest11CurrentTest7DetailsEv
 1651      00
 1652 08cf 488B08   		movq	(%rax), %rcx
 1653 08d2 488D8590 		leaq	-2160(%rbp), %rax
 1653      F7FFFF
 1654 08d9 BA340000 		movl	$52, %edx
 1654      00
 1655 08de 4889CE   		movq	%rcx, %rsi
 1656 08e1 4889C7   		movq	%rax, %rdi
 1657 08e4 E8000000 		call	_ZN8UnitTest11TestDetailsC1ERKS0_i
 1657      00
  52:TestTestMacros.cpp **** }
 1658              		.loc 6 52 0 is_stmt 0 discriminator 13
 1659 08e9 E8000000 		call	_ZN8UnitTest11CurrentTest7ResultsEv
 1659      00
 1660 08ee 488B00   		movq	(%rax), %rax
 1661 08f1 488D8D90 		leaq	-2160(%rbp), %rcx
 1661      F7FFFF
 1662 08f8 BA000000 		movl	$.LC23, %edx
 1662      00
 1663 08fd 4889CE   		movq	%rcx, %rsi
 1664 0900 4889C7   		movq	%rax, %rdi
 1665 0903 E8000000 		call	_ZN8UnitTest11TestResults13OnTestFailureERKNS_11TestDetailsEPKc
 1665      00
 1666              	.LEHE33:
 1667              	.LEHB34:
  52:TestTestMacros.cpp **** }
 1668              		.loc 6 52 0 discriminator 17
 1669 0908 E8000000 		call	__cxa_end_catch
 1669      00
 1670              	.LEHE34:
  52:TestTestMacros.cpp **** }
 1671              		.loc 6 52 0
 1672 090d E9AEFEFF 		jmp	.L63
 1672      FF
 1673              	.L73:
 1674 0912 4889C3   		movq	%rax, %rbx
 1675              	.L65:
  52:TestTestMacros.cpp **** }
 1676              		.loc 6 52 0 discriminator 18
 1677 0915 488D85B0 		leaq	-2128(%rbp), %rax
 1677      F7FFFF
 1678 091c 4889C7   		movq	%rax, %rdi
 1679 091f E8000000 		call	_ZN17RecordingReporterD1Ev
 1679      00
 1680 0924 4889D8   		movq	%rbx, %rax
 1681 0927 4889C7   		movq	%rax, %rdi
 1682              	.LEHB35:
 1683 092a E8000000 		call	_Unwind_Resume
 1683      00
 1684              	.LEHE35:
 1685              	.L81:
 1686              	.LBE31:
 1687              		.loc 6 53 0 is_stmt 1
 1688 092f E8000000 		call	__stack_chk_fail
 1688      00
 1689              	.L72:
 1690 0934 4881C498 		addq	$2200, %rsp
 1690      080000
 1691 093b 5B       		popq	%rbx
 1692 093c 5D       		popq	%rbp
 1693              		.cfi_def_cfa 7, 8
 1694 093d C3       		ret
 1695              		.cfi_endproc
 1696              	.LFE1106:
 1697              		.section	.gcc_except_table
 1698              		.align 4
 1699              	.LLSDA1106:
 1700 0088 FF       		.byte	0xff
 1701 0089 03       		.byte	0x3
 1702 008a 59       		.uleb128 .LLSDATT1106-.LLSDATTD1106
 1703              	.LLSDATTD1106:
 1704 008b 01       		.byte	0x1
 1705 008c 50       		.uleb128 .LLSDACSE1106-.LLSDACSB1106
 1706              	.LLSDACSB1106:
 1707 008d 45       		.uleb128 .LEHB22-.LFB1106
 1708 008e 23       		.uleb128 .LEHE22-.LEHB22
 1709 008f 9006     		.uleb128 .L73-.LFB1106
 1710 0091 00       		.uleb128 0
 1711 0092 6D       		.uleb128 .LEHB23-.LFB1106
 1712 0093 0D       		.uleb128 .LEHE23-.LEHB23
 1713 0094 E503     		.uleb128 .L74-.LFB1106
 1714 0096 00       		.uleb128 0
 1715 0097 8401     		.uleb128 .LEHB24-.LFB1106
 1716 0099 05       		.uleb128 .LEHE24-.LEHB24
 1717 009a 9006     		.uleb128 .L73-.LFB1106
 1718 009c 00       		.uleb128 0
 1719 009d B201     		.uleb128 .LEHB25-.LFB1106
 1720 009f 3E       		.uleb128 .LEHE25-.LEHB25
 1721 00a0 8904     		.uleb128 .L75-.LFB1106
 1722 00a2 01       		.uleb128 0x1
 1723 00a3 9902     		.uleb128 .LEHB26-.LFB1106
 1724 00a5 3E       		.uleb128 .LEHE26-.LEHB26
 1725 00a6 E604     		.uleb128 .L77-.LFB1106
 1726 00a8 01       		.uleb128 0x1
 1727 00a9 8003     		.uleb128 .LEHB27-.LFB1106
 1728 00ab 3E       		.uleb128 .LEHE27-.LEHB27
 1729 00ac C005     		.uleb128 .L79-.LFB1106
 1730 00ae 01       		.uleb128 0x1
 1731 00af C803     		.uleb128 .LEHB28-.LFB1106
 1732 00b1 05       		.uleb128 .LEHE28-.LEHB28
 1733 00b2 00       		.uleb128 0
 1734 00b3 00       		.uleb128 0
 1735 00b4 9104     		.uleb128 .LEHB29-.LFB1106
 1736 00b6 3E       		.uleb128 .LEHE29-.LEHB29
 1737 00b7 FC03     		.uleb128 .L76-.LFB1106
 1738 00b9 00       		.uleb128 0
 1739 00ba CF04     		.uleb128 .LEHB30-.LFB1106
 1740 00bc 05       		.uleb128 .LEHE30-.LEHB30
 1741 00bd 9006     		.uleb128 .L73-.LFB1106
 1742 00bf 00       		.uleb128 0
 1743 00c0 EE04     		.uleb128 .LEHB31-.LFB1106
 1744 00c2 3E       		.uleb128 .LEHE31-.LEHB31
 1745 00c3 D904     		.uleb128 .L78-.LFB1106
 1746 00c5 00       		.uleb128 0
 1747 00c6 AC05     		.uleb128 .LEHB32-.LFB1106
 1748 00c8 05       		.uleb128 .LEHE32-.LEHB32
 1749 00c9 9006     		.uleb128 .L73-.LFB1106
 1750 00cb 00       		.uleb128 0
 1751 00cc C805     		.uleb128 .LEHB33-.LFB1106
 1752 00ce 3E       		.uleb128 .LEHE33-.LEHB33
 1753 00cf B605     		.uleb128 .L80-.LFB1106
 1754 00d1 00       		.uleb128 0
 1755 00d2 8606     		.uleb128 .LEHB34-.LFB1106
 1756 00d4 05       		.uleb128 .LEHE34-.LEHB34
 1757 00d5 9006     		.uleb128 .L73-.LFB1106
 1758 00d7 00       		.uleb128 0
 1759 00d8 A806     		.uleb128 .LEHB35-.LFB1106
 1760 00da 05       		.uleb128 .LEHE35-.LEHB35
 1761 00db 00       		.uleb128 0
 1762 00dc 00       		.uleb128 0
 1763              	.LLSDACSE1106:
 1764 00dd 01       		.byte	0x1
 1765 00de 00       		.byte	0
 1766 00df 00       		.align 4
 1767 00e0 00000000 		.long	0
 1768              	
 1769              	.LLSDATT1106:
 1770              		.text
 1772              		.section	.rodata
 1773              	.LC24:
 1774 038c 54657374 		.string	"TestSuite1"
 1774      53756974 
 1774      653100
 1775              		.text
 1777              	_ZN12_GLOBAL__N_115SuiteTestSuite113UnitTestSuite12GetSuiteNameEv:
 1778              	.LFB1107:
  54:TestTestMacros.cpp **** 
  55:TestTestMacros.cpp **** struct DummyFixture
  56:TestTestMacros.cpp **** {
  57:TestTestMacros.cpp ****     int x;
  58:TestTestMacros.cpp **** };
  59:TestTestMacros.cpp **** 
  60:TestTestMacros.cpp **** // We're really testing the macros so we just want them to compile and link
  61:TestTestMacros.cpp **** SUITE(TestSuite1)
 1779              		.loc 6 61 0
 1780              		.cfi_startproc
 1781 093e 55       		pushq	%rbp
 1782              		.cfi_def_cfa_offset 16
 1783              		.cfi_offset 6, -16
 1784 093f 4889E5   		movq	%rsp, %rbp
 1785              		.cfi_def_cfa_register 6
 1786              		.loc 6 61 0
 1787 0942 B8000000 		movl	$.LC24, %eax
 1787      00
 1788 0947 5D       		popq	%rbp
 1789              		.cfi_def_cfa 7, 8
 1790 0948 C3       		ret
 1791              		.cfi_endproc
 1792              	.LFE1107:
 1794              		.section	.rodata
 1795 0397 00       		.align 8
 1796              	.LC25:
 1797 0398 53696D69 		.string	"SimilarlyNamedTestsInDifferentSuitesWork"
 1797      6C61726C 
 1797      794E616D 
 1797      65645465 
 1797      73747349 
 1798              		.text
 1799 0949 90       		.align 2
 1801              	_ZN12_GLOBAL__N_115SuiteTestSuite144TestSimilarlyNamedTestsInDifferentSuitesWorkC2Ev:
 1802              	.LFB1109:
  62:TestTestMacros.cpp **** {
  63:TestTestMacros.cpp **** 	TEST(SimilarlyNamedTestsInDifferentSuitesWork)
 1803              		.loc 6 63 0
 1804              		.cfi_startproc
 1805 094a 55       		pushq	%rbp
 1806              		.cfi_def_cfa_offset 16
 1807              		.cfi_offset 6, -16
 1808 094b 4889E5   		movq	%rsp, %rbp
 1809              		.cfi_def_cfa_register 6
 1810 094e 4883EC10 		subq	$16, %rsp
 1811 0952 48897DF8 		movq	%rdi, -8(%rbp)
 1812              	.LBB32:
 1813              		.loc 6 63 0
 1814 0956 E8E3FFFF 		call	_ZN12_GLOBAL__N_115SuiteTestSuite113UnitTestSuite12GetSuiteNameEv
 1814      FF
 1815 095b 4889C2   		movq	%rax, %rdx
 1816 095e 488B45F8 		movq	-8(%rbp), %rax
 1817 0962 41B83F00 		movl	$63, %r8d
 1817      0000
 1818 0968 B9000000 		movl	$.LC2, %ecx
 1818      00
 1819 096d BE000000 		movl	$.LC25, %esi
 1819      00
 1820 0972 4889C7   		movq	%rax, %rdi
 1821 0975 E8000000 		call	_ZN8UnitTest4TestC2EPKcS2_S2_i
 1821      00
 1822 097a 488B45F8 		movq	-8(%rbp), %rax
 1823 097e 48C70000 		movq	$_ZTVN12_GLOBAL__N_115SuiteTestSuite144TestSimilarlyNamedTestsInDifferentSuitesWorkE+16, (%ra
 1823      000000
 1824              	.LBE32:
 1825 0985 C9       		leave
 1826              		.cfi_def_cfa 7, 8
 1827 0986 C3       		ret
 1828              		.cfi_endproc
 1829              	.LFE1109:
 1831              		.local	_ZN12_GLOBAL__N_115SuiteTestSuite152testSimilarlyNamedTestsInDifferentSuitesWorkInstanceE
 1832              		.comm	_ZN12_GLOBAL__N_115SuiteTestSuite152testSimilarlyNamedTestsInDifferentSuitesWorkInstanceE,56
 1833              		.local	_ZN12_GLOBAL__N_115SuiteTestSuite145adderSimilarlyNamedTestsInDifferentSuitesWorkE
 1834              		.comm	_ZN12_GLOBAL__N_115SuiteTestSuite145adderSimilarlyNamedTestsInDifferentSuitesWorkE,1,1
 1835 0987 90       		.align 2
 1837              	_ZNK12_GLOBAL__N_115SuiteTestSuite144TestSimilarlyNamedTestsInDifferentSuitesWork7RunImplEv:
 1838              	.LFB1111:
  64:TestTestMacros.cpp **** 	{
 1839              		.loc 6 64 0
 1840              		.cfi_startproc
 1841 0988 55       		pushq	%rbp
 1842              		.cfi_def_cfa_offset 16
 1843              		.cfi_offset 6, -16
 1844 0989 4889E5   		movq	%rsp, %rbp
 1845              		.cfi_def_cfa_register 6
 1846 098c 48897DF8 		movq	%rdi, -8(%rbp)
  65:TestTestMacros.cpp **** 	}
 1847              		.loc 6 65 0
 1848 0990 5D       		popq	%rbp
 1849              		.cfi_def_cfa 7, 8
 1850 0991 C3       		ret
 1851              		.cfi_endproc
 1852              	.LFE1111:
 1854              		.align 2
 1856              	_ZN12_GLOBAL__N_112DummyFixtureC2Ev:
 1857              	.LFB1114:
  55:TestTestMacros.cpp **** {
 1858              		.loc 6 55 0
 1859              		.cfi_startproc
 1860 0992 55       		pushq	%rbp
 1861              		.cfi_def_cfa_offset 16
 1862              		.cfi_offset 6, -16
 1863 0993 4889E5   		movq	%rsp, %rbp
 1864              		.cfi_def_cfa_register 6
 1865 0996 48897DF8 		movq	%rdi, -8(%rbp)
  55:TestTestMacros.cpp **** {
 1866              		.loc 6 55 0
 1867 099a 5D       		popq	%rbp
 1868              		.cfi_def_cfa 7, 8
 1869 099b C3       		ret
 1870              		.cfi_endproc
 1871              	.LFE1114:
 1873              		.align 2
 1875              	_ZN12_GLOBAL__N_115SuiteTestSuite165DummyFixtureSimilarlyNamedFixtureTestsInDifferentSuitesWorkHelp
 1876              	.LFB1116:
  66:TestTestMacros.cpp **** 
  67:TestTestMacros.cpp **** 	TEST_FIXTURE(DummyFixture, SimilarlyNamedFixtureTestsInDifferentSuitesWork)
 1877              		.loc 6 67 0
 1878              		.cfi_startproc
 1879 099c 55       		pushq	%rbp
 1880              		.cfi_def_cfa_offset 16
 1881              		.cfi_offset 6, -16
 1882 099d 4889E5   		movq	%rsp, %rbp
 1883              		.cfi_def_cfa_register 6
 1884 09a0 4883EC10 		subq	$16, %rsp
 1885 09a4 48897DF8 		movq	%rdi, -8(%rbp)
 1886 09a8 488975F0 		movq	%rsi, -16(%rbp)
 1887              	.LBB33:
 1888              		.loc 6 67 0
 1889 09ac 488B45F8 		movq	-8(%rbp), %rax
 1890 09b0 4889C7   		movq	%rax, %rdi
 1891 09b3 E8DAFFFF 		call	_ZN12_GLOBAL__N_112DummyFixtureC2Ev
 1891      FF
 1892 09b8 488B45F8 		movq	-8(%rbp), %rax
 1893 09bc 488B55F0 		movq	-16(%rbp), %rdx
 1894 09c0 48895008 		movq	%rdx, 8(%rax)
 1895              	.LBE33:
 1896 09c4 C9       		leave
 1897              		.cfi_def_cfa 7, 8
 1898 09c5 C3       		ret
 1899              		.cfi_endproc
 1900              	.LFE1116:
 1902              		.section	.rodata
 1903 03c1 00000000 		.align 8
 1903      000000
 1904              	.LC26:
 1905 03c8 53696D69 		.string	"SimilarlyNamedFixtureTestsInDifferentSuitesWork"
 1905      6C61726C 
 1905      794E616D 
 1905      65644669 
 1905      78747572 
 1906              		.text
 1907              		.align 2
 1909              	_ZN12_GLOBAL__N_115SuiteTestSuite163TestDummyFixtureSimilarlyNamedFixtureTestsInDifferentSuitesWork
 1910              	.LFB1119:
 1911              		.loc 6 67 0
 1912              		.cfi_startproc
 1913 09c6 55       		pushq	%rbp
 1914              		.cfi_def_cfa_offset 16
 1915              		.cfi_offset 6, -16
 1916 09c7 4889E5   		movq	%rsp, %rbp
 1917              		.cfi_def_cfa_register 6
 1918 09ca 4883EC10 		subq	$16, %rsp
 1919 09ce 48897DF8 		movq	%rdi, -8(%rbp)
 1920              	.LBB34:
 1921              		.loc 6 67 0
 1922 09d2 E867FFFF 		call	_ZN12_GLOBAL__N_115SuiteTestSuite113UnitTestSuite12GetSuiteNameEv
 1922      FF
 1923 09d7 4889C2   		movq	%rax, %rdx
 1924 09da 488B45F8 		movq	-8(%rbp), %rax
 1925 09de 41B84300 		movl	$67, %r8d
 1925      0000
 1926 09e4 B9000000 		movl	$.LC2, %ecx
 1926      00
 1927 09e9 BE000000 		movl	$.LC26, %esi
 1927      00
 1928 09ee 4889C7   		movq	%rax, %rdi
 1929 09f1 E8000000 		call	_ZN8UnitTest4TestC2EPKcS2_S2_i
 1929      00
 1930 09f6 488B45F8 		movq	-8(%rbp), %rax
 1931 09fa 48C70000 		movq	$_ZTVN12_GLOBAL__N_115SuiteTestSuite163TestDummyFixtureSimilarlyNamedFixtureTestsInDifferentS
 1931      000000
 1932              	.LBE34:
 1933 0a01 C9       		leave
 1934              		.cfi_def_cfa 7, 8
 1935 0a02 C3       		ret
 1936              		.cfi_endproc
 1937              	.LFE1119:
 1939              		.local	_ZN12_GLOBAL__N_115SuiteTestSuite171testDummyFixtureSimilarlyNamedFixtureTestsInDifferentSu
 1940              		.comm	_ZN12_GLOBAL__N_115SuiteTestSuite171testDummyFixtureSimilarlyNamedFixtureTestsInDifferentSui
 1941              		.local	_ZN12_GLOBAL__N_115SuiteTestSuite164adderDummyFixtureSimilarlyNamedFixtureTestsInDifferentS
 1942              		.comm	_ZN12_GLOBAL__N_115SuiteTestSuite164adderDummyFixtureSimilarlyNamedFixtureTestsInDifferentSu
 1943              		.section	.rodata
 1944              		.align 8
 1945              	.LC27:
 1946 03f8 556E6861 		.string	"Unhandled exception while destroying fixture DummyFixture"
 1946      6E646C65 
 1946      64206578 
 1946      63657074 
 1946      696F6E20 
 1947 0432 00000000 		.align 8
 1947      0000
 1948              	.LC28:
 1949 0438 556E6861 		.string	"Unhandled exception while constructing fixture DummyFixture"
 1949      6E646C65 
 1949      64206578 
 1949      63657074 
 1949      696F6E20 
 1950              		.text
 1951 0a03 90       		.align 2
 1953              	_ZNK12_GLOBAL__N_115SuiteTestSuite163TestDummyFixtureSimilarlyNamedFixtureTestsInDifferentSuitesWor
 1954              	.LFB1121:
 1955              		.loc 6 67 0
 1956              		.cfi_startproc
 1957              		.cfi_personality 0x3,__gxx_personality_v0
 1958              		.cfi_lsda 0x3,.LLSDA1121
 1959 0a04 55       		pushq	%rbp
 1960              		.cfi_def_cfa_offset 16
 1961              		.cfi_offset 6, -16
 1962 0a05 4889E5   		movq	%rsp, %rbp
 1963              		.cfi_def_cfa_register 6
 1964 0a08 4154     		pushq	%r12
 1965 0a0a 53       		pushq	%rbx
 1966 0a0b 4881ECC0 		subq	$448, %rsp
 1966      010000
 1967              		.cfi_offset 12, -24
 1968              		.cfi_offset 3, -32
 1969 0a12 4889BD38 		movq	%rdi, -456(%rbp)
 1969      FEFFFF
 1970              		.loc 6 67 0
 1971 0a19 64488B04 		movq	%fs:40, %rax
 1971      25280000 
 1971      00
 1972 0a22 488945E8 		movq	%rax, -24(%rbp)
 1973 0a26 31C0     		xorl	%eax, %eax
 1974              	.LBB35:
 1975 0a28 C6854FFE 		movb	$0, -433(%rbp)
 1975      FFFF00
 1976              	.LBB36:
 1977 0a2f 488B8538 		movq	-456(%rbp), %rax
 1977      FEFFFF
 1978 0a36 488D5008 		leaq	8(%rax), %rdx
 1979 0a3a 488D8560 		leaq	-416(%rbp), %rax
 1979      FEFFFF
 1980 0a41 4889D6   		movq	%rdx, %rsi
 1981 0a44 4889C7   		movq	%rax, %rdi
 1982 0a47 E850FFFF 		call	_ZN12_GLOBAL__N_115SuiteTestSuite165DummyFixtureSimilarlyNamedFixtureTestsInDifferentSuitesWo
 1982      FF
 1983 0a4c C6854FFE 		movb	$1, -433(%rbp)
 1983      FFFF01
 1984 0a53 488B8538 		movq	-456(%rbp), %rax
 1984      FEFFFF
 1985 0a5a 488D5008 		leaq	8(%rax), %rdx
 1986 0a5e 488D8560 		leaq	-416(%rbp), %rax
 1986      FEFFFF
 1987 0a65 4889D6   		movq	%rdx, %rsi
 1988 0a68 4889C7   		movq	%rax, %rdi
 1989              	.LEHB36:
 1990 0a6b E8412700 		call	_ZN8UnitTest11ExecuteTestIN12_GLOBAL__N_115SuiteTestSuite165DummyFixtureSimilarlyNamedFixture
 1990      00
 1991              	.LEHE36:
 1992              	.LBE36:
 1993              	.LBE35:
 1994 0a70 E9470200 		jmp	.L108
 1994      00
 1995              	.L103:
 1996 0a75 4889C3   		movq	%rax, %rbx
 1997              	.LBB43:
 1998              	.LBB37:
 1999 0a78 E8000000 		call	__cxa_end_catch
 1999      00
 2000 0a7d 4889D8   		movq	%rbx, %rax
 2001 0a80 4889C7   		movq	%rax, %rdi
 2002              	.LEHB37:
 2003 0a83 E8000000 		call	_Unwind_Resume
 2003      00
 2004              	.LEHE37:
 2005              	.L104:
 2006 0a88 4889C3   		movq	%rax, %rbx
 2007              	.LBE37:
 2008              	.LBB38:
 2009              	.LBB39:
 2010 0a8b 488D8580 		leaq	-384(%rbp), %rax
 2010      FEFFFF
 2011 0a92 4889C7   		movq	%rax, %rdi
 2012 0a95 E8000000 		call	_ZN8UnitTest15MemoryOutStreamD1Ev
 2012      00
 2013 0a9a EB03     		jmp	.L92
 2014              	.L105:
 2015 0a9c 4889C3   		movq	%rax, %rbx
 2016              	.L92:
 2017              	.LBE39:
 2018 0a9f E8000000 		call	__cxa_end_catch
 2018      00
 2019 0aa4 4889D8   		movq	%rbx, %rax
 2020 0aa7 4889C7   		movq	%rax, %rdi
 2021              	.LEHB38:
 2022 0aaa E8000000 		call	_Unwind_Resume
 2022      00
 2023              	.LEHE38:
 2024              	.L106:
 2025 0aaf 4889C3   		movq	%rax, %rbx
 2026              	.LBE38:
 2027 0ab2 E8000000 		call	__cxa_end_catch
 2027      00
 2028 0ab7 4889D8   		movq	%rbx, %rax
 2029 0aba 4889C7   		movq	%rax, %rdi
 2030              	.LEHB39:
 2031 0abd E8000000 		call	_Unwind_Resume
 2031      00
 2032              	.LEHE39:
 2033              	.L102:
 2034 0ac2 4883FA01 		cmpq	$1, %rdx
 2035 0ac6 740F     		je	.L96
 2036 0ac8 4883FA02 		cmpq	$2, %rdx
 2037 0acc 0F84A700 		je	.L97
 2037      0000
 2038 0ad2 E94B0100 		jmp	.L107
 2038      00
 2039              	.L96:
 2040              	.LBB41:
 2041 0ad7 4889C7   		movq	%rax, %rdi
 2042 0ada E8000000 		call	__cxa_begin_catch
 2042      00
 2043 0adf 48898550 		movq	%rax, -432(%rbp)
 2043      FEFFFF
 2044 0ae6 488B8550 		movq	-432(%rbp), %rax
 2044      FEFFFF
 2045 0aed 488B00   		movq	(%rax), %rax
 2046 0af0 4883C010 		addq	$16, %rax
 2047 0af4 488B00   		movq	(%rax), %rax
 2048 0af7 488B9550 		movq	-432(%rbp), %rdx
 2048      FEFFFF
 2049 0afe 4889D7   		movq	%rdx, %rdi
 2050 0b01 FFD0     		call	*%rax
 2051 0b03 4889C3   		movq	%rax, %rbx
 2052 0b06 488B8550 		movq	-432(%rbp), %rax
 2052      FEFFFF
 2053 0b0d 4889C7   		movq	%rax, %rdi
 2054              	.LEHB40:
 2055 0b10 E8000000 		call	_ZNK8UnitTest15AssertException10LineNumberEv
 2055      00
 2056 0b15 4189C4   		movl	%eax, %r12d
 2057 0b18 488B8550 		movq	-432(%rbp), %rax
 2057      FEFFFF
 2058 0b1f 4889C7   		movq	%rax, %rdi
 2059 0b22 E8000000 		call	_ZNK8UnitTest15AssertException8FilenameEv
 2059      00
 2060              		.loc 6 67 0 is_stmt 0 discriminator 2
 2061 0b27 4889C1   		movq	%rax, %rcx
 2062 0b2a 488B8538 		movq	-456(%rbp), %rax
 2062      FEFFFF
 2063 0b31 488B5008 		movq	8(%rax), %rdx
 2064 0b35 488B8538 		movq	-456(%rbp), %rax
 2064      FEFFFF
 2065 0b3c 488B7010 		movq	16(%rax), %rsi
 2066 0b40 488D8560 		leaq	-416(%rbp), %rax
 2066      FEFFFF
 2067 0b47 4589E0   		movl	%r12d, %r8d
 2068 0b4a 4889C7   		movq	%rax, %rdi
 2069 0b4d E8000000 		call	_ZN8UnitTest11TestDetailsC1EPKcS2_S2_i
 2069      00
 2070              		.loc 6 67 0 discriminator 6
 2071 0b52 E8000000 		call	_ZN8UnitTest11CurrentTest7ResultsEv
 2071      00
 2072 0b57 488B00   		movq	(%rax), %rax
 2073 0b5a 488D8D60 		leaq	-416(%rbp), %rcx
 2073      FEFFFF
 2074 0b61 4889DA   		movq	%rbx, %rdx
 2075 0b64 4889CE   		movq	%rcx, %rsi
 2076 0b67 4889C7   		movq	%rax, %rdi
 2077 0b6a E8000000 		call	_ZN8UnitTest11TestResults13OnTestFailureERKNS_11TestDetailsEPKc
 2077      00
 2078              	.LEHE40:
 2079              		.loc 6 67 0 discriminator 10
 2080 0b6f E8000000 		call	__cxa_end_catch
 2080      00
 2081              	.LBE41:
 2082              	.LBE43:
 2083 0b74 E9430100 		jmp	.L108
 2083      00
 2084              	.L97:
 2085              	.LBB44:
 2086              	.LBB42:
 2087              		.loc 6 67 0
 2088 0b79 4889C7   		movq	%rax, %rdi
 2089 0b7c E8000000 		call	__cxa_begin_catch
 2089      00
 2090 0b81 48898558 		movq	%rax, -424(%rbp)
 2090      FEFFFF
 2091              	.LBB40:
 2092 0b88 488D8580 		leaq	-384(%rbp), %rax
 2092      FEFFFF
 2093 0b8f 4889C7   		movq	%rax, %rdi
 2094              	.LEHB41:
 2095 0b92 E8000000 		call	_ZN8UnitTest15MemoryOutStreamC1Ev
 2095      00
 2096              	.LEHE41:
 2097              		.loc 6 67 0 discriminator 12
 2098 0b97 488B8558 		movq	-424(%rbp), %rax
 2098      FEFFFF
 2099 0b9e 488B00   		movq	(%rax), %rax
 2100 0ba1 4883C010 		addq	$16, %rax
 2101 0ba5 488B00   		movq	(%rax), %rax
 2102 0ba8 488B9558 		movq	-424(%rbp), %rdx
 2102      FEFFFF
 2103 0baf 4889D7   		movq	%rdx, %rdi
 2104 0bb2 FFD0     		call	*%rax
 2105 0bb4 4889C3   		movq	%rax, %rbx
 2106 0bb7 488D8580 		leaq	-384(%rbp), %rax
 2106      FEFFFF
 2107 0bbe BE000000 		movl	$.LC11, %esi
 2107      00
 2108 0bc3 4889C7   		movq	%rax, %rdi
 2109              	.LEHB42:
 2110 0bc6 E8000000 		call	_ZStlsISt11char_traitsIcEERSt13basic_ostreamIcT_ES5_PKc
 2110      00
 2111 0bcb 4889DE   		movq	%rbx, %rsi
 2112 0bce 4889C7   		movq	%rax, %rdi
 2113 0bd1 E8000000 		call	_ZStlsISt11char_traitsIcEERSt13basic_ostreamIcT_ES5_PKc
 2113      00
 2114              		.loc 6 67 0 discriminator 16
 2115 0bd6 488D8580 		leaq	-384(%rbp), %rax
 2115      FEFFFF
 2116 0bdd 4889C7   		movq	%rax, %rdi
 2117 0be0 E8000000 		call	_ZNK8UnitTest15MemoryOutStream7GetTextEv
 2117      00
 2118 0be5 4989C4   		movq	%rax, %r12
 2119 0be8 488B8538 		movq	-456(%rbp), %rax
 2119      FEFFFF
 2120 0bef 488D5808 		leaq	8(%rax), %rbx
 2121 0bf3 E8000000 		call	_ZN8UnitTest11CurrentTest7ResultsEv
 2121      00
 2122              		.loc 6 67 0 discriminator 18
 2123 0bf8 488B00   		movq	(%rax), %rax
 2124 0bfb 4C89E2   		movq	%r12, %rdx
 2125 0bfe 4889DE   		movq	%rbx, %rsi
 2126 0c01 4889C7   		movq	%rax, %rdi
 2127 0c04 E8000000 		call	_ZN8UnitTest11TestResults13OnTestFailureERKNS_11TestDetailsEPKc
 2127      00
 2128              	.LEHE42:
 2129              		.loc 6 67 0 discriminator 22
 2130 0c09 488D8580 		leaq	-384(%rbp), %rax
 2130      FEFFFF
 2131 0c10 4889C7   		movq	%rax, %rdi
 2132              	.LEHB43:
 2133 0c13 E8000000 		call	_ZN8UnitTest15MemoryOutStreamD1Ev
 2133      00
 2134              	.LEHE43:
 2135              	.LBE40:
 2136              		.loc 6 67 0 discriminator 23
 2137 0c18 E8000000 		call	__cxa_end_catch
 2137      00
 2138              	.LBE42:
 2139              	.LBE44:
 2140 0c1d E99A0000 		jmp	.L108
 2140      00
 2141              	.L107:
 2142              	.LBB45:
 2143              		.loc 6 67 0
 2144 0c22 4889C7   		movq	%rax, %rdi
 2145 0c25 E8000000 		call	__cxa_begin_catch
 2145      00
 2146 0c2a 80BD4FFE 		cmpb	$0, -433(%rbp)
 2146      FFFF00
 2147 0c31 7443     		je	.L99
 2148              		.loc 6 67 0 discriminator 25
 2149 0c33 488B8538 		movq	-456(%rbp), %rax
 2149      FEFFFF
 2150 0c3a 488D4808 		leaq	8(%rax), %rcx
 2151 0c3e 488D8560 		leaq	-416(%rbp), %rax
 2151      FEFFFF
 2152 0c45 BA430000 		movl	$67, %edx
 2152      00
 2153 0c4a 4889CE   		movq	%rcx, %rsi
 2154 0c4d 4889C7   		movq	%rax, %rdi
 2155              	.LEHB44:
 2156 0c50 E8000000 		call	_ZN8UnitTest11TestDetailsC1ERKS0_i
 2156      00
 2157              		.loc 6 67 0 discriminator 28
 2158 0c55 E8000000 		call	_ZN8UnitTest11CurrentTest7ResultsEv
 2158      00
 2159 0c5a 488B00   		movq	(%rax), %rax
 2160 0c5d 488D8D60 		leaq	-416(%rbp), %rcx
 2160      FEFFFF
 2161 0c64 BA000000 		movl	$.LC27, %edx
 2161      00
 2162 0c69 4889CE   		movq	%rcx, %rsi
 2163 0c6c 4889C7   		movq	%rax, %rdi
 2164 0c6f E8000000 		call	_ZN8UnitTest11TestResults13OnTestFailureERKNS_11TestDetailsEPKc
 2164      00
 2165 0c74 EB41     		jmp	.L100
 2166              	.L99:
 2167              		.loc 6 67 0 discriminator 26
 2168 0c76 488B8538 		movq	-456(%rbp), %rax
 2168      FEFFFF
 2169 0c7d 488D4808 		leaq	8(%rax), %rcx
 2170 0c81 488D8560 		leaq	-416(%rbp), %rax
 2170      FEFFFF
 2171 0c88 BA430000 		movl	$67, %edx
 2171      00
 2172 0c8d 4889CE   		movq	%rcx, %rsi
 2173 0c90 4889C7   		movq	%rax, %rdi
 2174 0c93 E8000000 		call	_ZN8UnitTest11TestDetailsC1ERKS0_i
 2174      00
 2175              		.loc 6 67 0 discriminator 35
 2176 0c98 E8000000 		call	_ZN8UnitTest11CurrentTest7ResultsEv
 2176      00
 2177 0c9d 488B00   		movq	(%rax), %rax
 2178 0ca0 488D8D60 		leaq	-416(%rbp), %rcx
 2178      FEFFFF
 2179 0ca7 BA000000 		movl	$.LC28, %edx
 2179      00
 2180 0cac 4889CE   		movq	%rcx, %rsi
 2181 0caf 4889C7   		movq	%rax, %rdi
 2182 0cb2 E8000000 		call	_ZN8UnitTest11TestResults13OnTestFailureERKNS_11TestDetailsEPKc
 2182      00
 2183              	.LEHE44:
 2184              	.L100:
 2185              	.LEHB45:
 2186              		.loc 6 67 0 discriminator 40
 2187 0cb7 E8000000 		call	__cxa_end_catch
 2187      00
 2188              	.LEHE45:
 2189              	.L108:
 2190              	.LBE45:
 2191              		.loc 6 67 0
 2192 0cbc 90       		nop
 2193 0cbd 488B45E8 		movq	-24(%rbp), %rax
 2194 0cc1 64483304 		xorq	%fs:40, %rax
 2194      25280000 
 2194      00
 2195 0cca 7405     		je	.L101
 2196 0ccc E8000000 		call	__stack_chk_fail
 2196      00
 2197              	.L101:
 2198 0cd1 4881C4C0 		addq	$448, %rsp
 2198      010000
 2199 0cd8 5B       		popq	%rbx
 2200 0cd9 415C     		popq	%r12
 2201 0cdb 5D       		popq	%rbp
 2202              		.cfi_def_cfa 7, 8
 2203 0cdc C3       		ret
 2204              		.cfi_endproc
 2205              	.LFE1121:
 2206              		.section	.gcc_except_table
 2207              		.align 4
 2208              	.LLSDA1121:
 2209 00e4 FF       		.byte	0xff
 2210 00e5 03       		.byte	0x3
 2211 00e6 49       		.uleb128 .LLSDATT1121-.LLSDATTD1121
 2212              	.LLSDATTD1121:
 2213 00e7 01       		.byte	0x1
 2214 00e8 35       		.uleb128 .LLSDACSE1121-.LLSDACSB1121
 2215              	.LLSDACSB1121:
 2216 00e9 67       		.uleb128 .LEHB36-.LFB1121
 2217 00ea 05       		.uleb128 .LEHE36-.LEHB36
 2218 00eb BE01     		.uleb128 .L102-.LFB1121
 2219 00ed 05       		.uleb128 0x5
 2220 00ee 7F       		.uleb128 .LEHB37-.LFB1121
 2221 00ef 05       		.uleb128 .LEHE37-.LEHB37
 2222 00f0 00       		.uleb128 0
 2223 00f1 00       		.uleb128 0
 2224 00f2 A601     		.uleb128 .LEHB38-.LFB1121
 2225 00f4 05       		.uleb128 .LEHE38-.LEHB38
 2226 00f5 00       		.uleb128 0
 2227 00f6 00       		.uleb128 0
 2228 00f7 B901     		.uleb128 .LEHB39-.LFB1121
 2229 00f9 05       		.uleb128 .LEHE39-.LEHB39
 2230 00fa 00       		.uleb128 0
 2231 00fb 00       		.uleb128 0
 2232 00fc 8C02     		.uleb128 .LEHB40-.LFB1121
 2233 00fe 5F       		.uleb128 .LEHE40-.LEHB40
 2234 00ff 71       		.uleb128 .L103-.LFB1121
 2235 0100 00       		.uleb128 0
 2236 0101 8E03     		.uleb128 .LEHB41-.LFB1121
 2237 0103 05       		.uleb128 .LEHE41-.LEHB41
 2238 0104 9801     		.uleb128 .L105-.LFB1121
 2239 0106 00       		.uleb128 0
 2240 0107 C203     		.uleb128 .LEHB42-.LFB1121
 2241 0109 43       		.uleb128 .LEHE42-.LEHB42
 2242 010a 8401     		.uleb128 .L104-.LFB1121
 2243 010c 00       		.uleb128 0
 2244 010d 8F04     		.uleb128 .LEHB43-.LFB1121
 2245 010f 05       		.uleb128 .LEHE43-.LEHB43
 2246 0110 9801     		.uleb128 .L105-.LFB1121
 2247 0112 00       		.uleb128 0
 2248 0113 CC04     		.uleb128 .LEHB44-.LFB1121
 2249 0115 67       		.uleb128 .LEHE44-.LEHB44
 2250 0116 AB01     		.uleb128 .L106-.LFB1121
 2251 0118 00       		.uleb128 0
 2252 0119 B305     		.uleb128 .LEHB45-.LFB1121
 2253 011b 05       		.uleb128 .LEHE45-.LEHB45
 2254 011c 00       		.uleb128 0
 2255 011d 00       		.uleb128 0
 2256              	.LLSDACSE1121:
 2257 011e 03       		.byte	0x3
 2258 011f 00       		.byte	0
 2259 0120 02       		.byte	0x2
 2260 0121 7D       		.byte	0x7d
 2261 0122 01       		.byte	0x1
 2262 0123 7D       		.byte	0x7d
 2263              		.align 4
 2264 0124 00000000 		.long	0
 2265              	
 2266 0128 00000000 		.long	_ZTISt9exception
 2267 012c 00000000 		.long	_ZTIN8UnitTest15AssertExceptionE
 2268              	.LLSDATT1121:
 2269              		.text
 2271 0cdd 90       		.align 2
 2273              	_ZN12_GLOBAL__N_115SuiteTestSuite165DummyFixtureSimilarlyNamedFixtureTestsInDifferentSuitesWorkHelp
 2274              	.LFB1122:
  68:TestTestMacros.cpp **** 	{
 2275              		.loc 6 68 0 is_stmt 1
 2276              		.cfi_startproc
 2277 0cde 55       		pushq	%rbp
 2278              		.cfi_def_cfa_offset 16
 2279              		.cfi_offset 6, -16
 2280 0cdf 4889E5   		movq	%rsp, %rbp
 2281              		.cfi_def_cfa_register 6
 2282 0ce2 48897DF8 		movq	%rdi, -8(%rbp)
  69:TestTestMacros.cpp **** 	}
 2283              		.loc 6 69 0
 2284 0ce6 5D       		popq	%rbp
 2285              		.cfi_def_cfa 7, 8
 2286 0ce7 C3       		ret
 2287              		.cfi_endproc
 2288              	.LFE1122:
 2290              		.section	.rodata
 2291              	.LC29:
 2292 0474 54657374 		.string	"TestSuite2"
 2292      53756974 
 2292      653200
 2293              		.text
 2295              	_ZN12_GLOBAL__N_115SuiteTestSuite213UnitTestSuite12GetSuiteNameEv:
 2296              	.LFB1123:
  70:TestTestMacros.cpp **** }
  71:TestTestMacros.cpp **** 
  72:TestTestMacros.cpp **** SUITE(TestSuite2)
 2297              		.loc 6 72 0
 2298              		.cfi_startproc
 2299 0ce8 55       		pushq	%rbp
 2300              		.cfi_def_cfa_offset 16
 2301              		.cfi_offset 6, -16
 2302 0ce9 4889E5   		movq	%rsp, %rbp
 2303              		.cfi_def_cfa_register 6
 2304              		.loc 6 72 0
 2305 0cec B8000000 		movl	$.LC29, %eax
 2305      00
 2306 0cf1 5D       		popq	%rbp
 2307              		.cfi_def_cfa 7, 8
 2308 0cf2 C3       		ret
 2309              		.cfi_endproc
 2310              	.LFE1123:
 2312 0cf3 90       		.align 2
 2314              	_ZN12_GLOBAL__N_115SuiteTestSuite244TestSimilarlyNamedTestsInDifferentSuitesWorkC2Ev:
 2315              	.LFB1125:
  73:TestTestMacros.cpp **** {
  74:TestTestMacros.cpp **** 	TEST(SimilarlyNamedTestsInDifferentSuitesWork)
 2316              		.loc 6 74 0
 2317              		.cfi_startproc
 2318 0cf4 55       		pushq	%rbp
 2319              		.cfi_def_cfa_offset 16
 2320              		.cfi_offset 6, -16
 2321 0cf5 4889E5   		movq	%rsp, %rbp
 2322              		.cfi_def_cfa_register 6
 2323 0cf8 4883EC10 		subq	$16, %rsp
 2324 0cfc 48897DF8 		movq	%rdi, -8(%rbp)
 2325              	.LBB46:
 2326              		.loc 6 74 0
 2327 0d00 E8E3FFFF 		call	_ZN12_GLOBAL__N_115SuiteTestSuite213UnitTestSuite12GetSuiteNameEv
 2327      FF
 2328 0d05 4889C2   		movq	%rax, %rdx
 2329 0d08 488B45F8 		movq	-8(%rbp), %rax
 2330 0d0c 41B84A00 		movl	$74, %r8d
 2330      0000
 2331 0d12 B9000000 		movl	$.LC2, %ecx
 2331      00
 2332 0d17 BE000000 		movl	$.LC25, %esi
 2332      00
 2333 0d1c 4889C7   		movq	%rax, %rdi
 2334 0d1f E8000000 		call	_ZN8UnitTest4TestC2EPKcS2_S2_i
 2334      00
 2335 0d24 488B45F8 		movq	-8(%rbp), %rax
 2336 0d28 48C70000 		movq	$_ZTVN12_GLOBAL__N_115SuiteTestSuite244TestSimilarlyNamedTestsInDifferentSuitesWorkE+16, (%ra
 2336      000000
 2337              	.LBE46:
 2338 0d2f C9       		leave
 2339              		.cfi_def_cfa 7, 8
 2340 0d30 C3       		ret
 2341              		.cfi_endproc
 2342              	.LFE1125:
 2344              		.local	_ZN12_GLOBAL__N_115SuiteTestSuite252testSimilarlyNamedTestsInDifferentSuitesWorkInstanceE
 2345              		.comm	_ZN12_GLOBAL__N_115SuiteTestSuite252testSimilarlyNamedTestsInDifferentSuitesWorkInstanceE,56
 2346              		.local	_ZN12_GLOBAL__N_115SuiteTestSuite245adderSimilarlyNamedTestsInDifferentSuitesWorkE
 2347              		.comm	_ZN12_GLOBAL__N_115SuiteTestSuite245adderSimilarlyNamedTestsInDifferentSuitesWorkE,1,1
 2348 0d31 90       		.align 2
 2350              	_ZNK12_GLOBAL__N_115SuiteTestSuite244TestSimilarlyNamedTestsInDifferentSuitesWork7RunImplEv:
 2351              	.LFB1127:
  75:TestTestMacros.cpp **** 	{
 2352              		.loc 6 75 0
 2353              		.cfi_startproc
 2354 0d32 55       		pushq	%rbp
 2355              		.cfi_def_cfa_offset 16
 2356              		.cfi_offset 6, -16
 2357 0d33 4889E5   		movq	%rsp, %rbp
 2358              		.cfi_def_cfa_register 6
 2359 0d36 48897DF8 		movq	%rdi, -8(%rbp)
  76:TestTestMacros.cpp **** 	}
 2360              		.loc 6 76 0
 2361 0d3a 5D       		popq	%rbp
 2362              		.cfi_def_cfa 7, 8
 2363 0d3b C3       		ret
 2364              		.cfi_endproc
 2365              	.LFE1127:
 2367              		.align 2
 2369              	_ZN12_GLOBAL__N_115SuiteTestSuite265DummyFixtureSimilarlyNamedFixtureTestsInDifferentSuitesWorkHelp
 2370              	.LFB1129:
  77:TestTestMacros.cpp **** 
  78:TestTestMacros.cpp **** 	TEST_FIXTURE(DummyFixture,SimilarlyNamedFixtureTestsInDifferentSuitesWork)
 2371              		.loc 6 78 0
 2372              		.cfi_startproc
 2373 0d3c 55       		pushq	%rbp
 2374              		.cfi_def_cfa_offset 16
 2375              		.cfi_offset 6, -16
 2376 0d3d 4889E5   		movq	%rsp, %rbp
 2377              		.cfi_def_cfa_register 6
 2378 0d40 4883EC10 		subq	$16, %rsp
 2379 0d44 48897DF8 		movq	%rdi, -8(%rbp)
 2380 0d48 488975F0 		movq	%rsi, -16(%rbp)
 2381              	.LBB47:
 2382              		.loc 6 78 0
 2383 0d4c 488B45F8 		movq	-8(%rbp), %rax
 2384 0d50 4889C7   		movq	%rax, %rdi
 2385 0d53 E83AFCFF 		call	_ZN12_GLOBAL__N_112DummyFixtureC2Ev
 2385      FF
 2386 0d58 488B45F8 		movq	-8(%rbp), %rax
 2387 0d5c 488B55F0 		movq	-16(%rbp), %rdx
 2388 0d60 48895008 		movq	%rdx, 8(%rax)
 2389              	.LBE47:
 2390 0d64 C9       		leave
 2391              		.cfi_def_cfa 7, 8
 2392 0d65 C3       		ret
 2393              		.cfi_endproc
 2394              	.LFE1129:
 2396              		.align 2
 2398              	_ZN12_GLOBAL__N_115SuiteTestSuite263TestDummyFixtureSimilarlyNamedFixtureTestsInDifferentSuitesWork
 2399              	.LFB1132:
 2400              		.loc 6 78 0
 2401              		.cfi_startproc
 2402 0d66 55       		pushq	%rbp
 2403              		.cfi_def_cfa_offset 16
 2404              		.cfi_offset 6, -16
 2405 0d67 4889E5   		movq	%rsp, %rbp
 2406              		.cfi_def_cfa_register 6
 2407 0d6a 4883EC10 		subq	$16, %rsp
 2408 0d6e 48897DF8 		movq	%rdi, -8(%rbp)
 2409              	.LBB48:
 2410              		.loc 6 78 0
 2411 0d72 E871FFFF 		call	_ZN12_GLOBAL__N_115SuiteTestSuite213UnitTestSuite12GetSuiteNameEv
 2411      FF
 2412 0d77 4889C2   		movq	%rax, %rdx
 2413 0d7a 488B45F8 		movq	-8(%rbp), %rax
 2414 0d7e 41B84E00 		movl	$78, %r8d
 2414      0000
 2415 0d84 B9000000 		movl	$.LC2, %ecx
 2415      00
 2416 0d89 BE000000 		movl	$.LC26, %esi
 2416      00
 2417 0d8e 4889C7   		movq	%rax, %rdi
 2418 0d91 E8000000 		call	_ZN8UnitTest4TestC2EPKcS2_S2_i
 2418      00
 2419 0d96 488B45F8 		movq	-8(%rbp), %rax
 2420 0d9a 48C70000 		movq	$_ZTVN12_GLOBAL__N_115SuiteTestSuite263TestDummyFixtureSimilarlyNamedFixtureTestsInDifferentS
 2420      000000
 2421              	.LBE48:
 2422 0da1 C9       		leave
 2423              		.cfi_def_cfa 7, 8
 2424 0da2 C3       		ret
 2425              		.cfi_endproc
 2426              	.LFE1132:
 2428              		.local	_ZN12_GLOBAL__N_115SuiteTestSuite271testDummyFixtureSimilarlyNamedFixtureTestsInDifferentSu
 2429              		.comm	_ZN12_GLOBAL__N_115SuiteTestSuite271testDummyFixtureSimilarlyNamedFixtureTestsInDifferentSui
 2430              		.local	_ZN12_GLOBAL__N_115SuiteTestSuite264adderDummyFixtureSimilarlyNamedFixtureTestsInDifferentS
 2431              		.comm	_ZN12_GLOBAL__N_115SuiteTestSuite264adderDummyFixtureSimilarlyNamedFixtureTestsInDifferentSu
 2432 0da3 90       		.align 2
 2434              	_ZNK12_GLOBAL__N_115SuiteTestSuite263TestDummyFixtureSimilarlyNamedFixtureTestsInDifferentSuitesWor
 2435              	.LFB1134:
 2436              		.loc 6 78 0
 2437              		.cfi_startproc
 2438              		.cfi_personality 0x3,__gxx_personality_v0
 2439              		.cfi_lsda 0x3,.LLSDA1134
 2440 0da4 55       		pushq	%rbp
 2441              		.cfi_def_cfa_offset 16
 2442              		.cfi_offset 6, -16
 2443 0da5 4889E5   		movq	%rsp, %rbp
 2444              		.cfi_def_cfa_register 6
 2445 0da8 4154     		pushq	%r12
 2446 0daa 53       		pushq	%rbx
 2447 0dab 4881ECC0 		subq	$448, %rsp
 2447      010000
 2448              		.cfi_offset 12, -24
 2449              		.cfi_offset 3, -32
 2450 0db2 4889BD38 		movq	%rdi, -456(%rbp)
 2450      FEFFFF
 2451              		.loc 6 78 0
 2452 0db9 64488B04 		movq	%fs:40, %rax
 2452      25280000 
 2452      00
 2453 0dc2 488945E8 		movq	%rax, -24(%rbp)
 2454 0dc6 31C0     		xorl	%eax, %eax
 2455              	.LBB49:
 2456 0dc8 C6854FFE 		movb	$0, -433(%rbp)
 2456      FFFF00
 2457              	.LBB50:
 2458 0dcf 488B8538 		movq	-456(%rbp), %rax
 2458      FEFFFF
 2459 0dd6 488D5008 		leaq	8(%rax), %rdx
 2460 0dda 488D8560 		leaq	-416(%rbp), %rax
 2460      FEFFFF
 2461 0de1 4889D6   		movq	%rdx, %rsi
 2462 0de4 4889C7   		movq	%rax, %rdi
 2463 0de7 E850FFFF 		call	_ZN12_GLOBAL__N_115SuiteTestSuite265DummyFixtureSimilarlyNamedFixtureTestsInDifferentSuitesWo
 2463      FF
 2464 0dec C6854FFE 		movb	$1, -433(%rbp)
 2464      FFFF01
 2465 0df3 488B8538 		movq	-456(%rbp), %rax
 2465      FEFFFF
 2466 0dfa 488D5008 		leaq	8(%rax), %rdx
 2467 0dfe 488D8560 		leaq	-416(%rbp), %rax
 2467      FEFFFF
 2468 0e05 4889D6   		movq	%rdx, %rsi
 2469 0e08 4889C7   		movq	%rax, %rdi
 2470              	.LEHB46:
 2471 0e0b E85F2600 		call	_ZN8UnitTest11ExecuteTestIN12_GLOBAL__N_115SuiteTestSuite265DummyFixtureSimilarlyNamedFixture
 2471      00
 2472              	.LEHE46:
 2473              	.LBE50:
 2474              	.LBE49:
 2475 0e10 E9470200 		jmp	.L135
 2475      00
 2476              	.L130:
 2477 0e15 4889C3   		movq	%rax, %rbx
 2478              	.LBB57:
 2479              	.LBB51:
 2480 0e18 E8000000 		call	__cxa_end_catch
 2480      00
 2481 0e1d 4889D8   		movq	%rbx, %rax
 2482 0e20 4889C7   		movq	%rax, %rdi
 2483              	.LEHB47:
 2484 0e23 E8000000 		call	_Unwind_Resume
 2484      00
 2485              	.LEHE47:
 2486              	.L131:
 2487 0e28 4889C3   		movq	%rax, %rbx
 2488              	.LBE51:
 2489              	.LBB52:
 2490              	.LBB53:
 2491 0e2b 488D8580 		leaq	-384(%rbp), %rax
 2491      FEFFFF
 2492 0e32 4889C7   		movq	%rax, %rdi
 2493 0e35 E8000000 		call	_ZN8UnitTest15MemoryOutStreamD1Ev
 2493      00
 2494 0e3a EB03     		jmp	.L119
 2495              	.L132:
 2496 0e3c 4889C3   		movq	%rax, %rbx
 2497              	.L119:
 2498              	.LBE53:
 2499 0e3f E8000000 		call	__cxa_end_catch
 2499      00
 2500 0e44 4889D8   		movq	%rbx, %rax
 2501 0e47 4889C7   		movq	%rax, %rdi
 2502              	.LEHB48:
 2503 0e4a E8000000 		call	_Unwind_Resume
 2503      00
 2504              	.LEHE48:
 2505              	.L133:
 2506 0e4f 4889C3   		movq	%rax, %rbx
 2507              	.LBE52:
 2508 0e52 E8000000 		call	__cxa_end_catch
 2508      00
 2509 0e57 4889D8   		movq	%rbx, %rax
 2510 0e5a 4889C7   		movq	%rax, %rdi
 2511              	.LEHB49:
 2512 0e5d E8000000 		call	_Unwind_Resume
 2512      00
 2513              	.LEHE49:
 2514              	.L129:
 2515 0e62 4883FA01 		cmpq	$1, %rdx
 2516 0e66 740F     		je	.L123
 2517 0e68 4883FA02 		cmpq	$2, %rdx
 2518 0e6c 0F84A700 		je	.L124
 2518      0000
 2519 0e72 E94B0100 		jmp	.L134
 2519      00
 2520              	.L123:
 2521              	.LBB55:
 2522 0e77 4889C7   		movq	%rax, %rdi
 2523 0e7a E8000000 		call	__cxa_begin_catch
 2523      00
 2524 0e7f 48898550 		movq	%rax, -432(%rbp)
 2524      FEFFFF
 2525 0e86 488B8550 		movq	-432(%rbp), %rax
 2525      FEFFFF
 2526 0e8d 488B00   		movq	(%rax), %rax
 2527 0e90 4883C010 		addq	$16, %rax
 2528 0e94 488B00   		movq	(%rax), %rax
 2529 0e97 488B9550 		movq	-432(%rbp), %rdx
 2529      FEFFFF
 2530 0e9e 4889D7   		movq	%rdx, %rdi
 2531 0ea1 FFD0     		call	*%rax
 2532 0ea3 4889C3   		movq	%rax, %rbx
 2533 0ea6 488B8550 		movq	-432(%rbp), %rax
 2533      FEFFFF
 2534 0ead 4889C7   		movq	%rax, %rdi
 2535              	.LEHB50:
 2536 0eb0 E8000000 		call	_ZNK8UnitTest15AssertException10LineNumberEv
 2536      00
 2537 0eb5 4189C4   		movl	%eax, %r12d
 2538 0eb8 488B8550 		movq	-432(%rbp), %rax
 2538      FEFFFF
 2539 0ebf 4889C7   		movq	%rax, %rdi
 2540 0ec2 E8000000 		call	_ZNK8UnitTest15AssertException8FilenameEv
 2540      00
 2541              		.loc 6 78 0 is_stmt 0 discriminator 2
 2542 0ec7 4889C1   		movq	%rax, %rcx
 2543 0eca 488B8538 		movq	-456(%rbp), %rax
 2543      FEFFFF
 2544 0ed1 488B5008 		movq	8(%rax), %rdx
 2545 0ed5 488B8538 		movq	-456(%rbp), %rax
 2545      FEFFFF
 2546 0edc 488B7010 		movq	16(%rax), %rsi
 2547 0ee0 488D8560 		leaq	-416(%rbp), %rax
 2547      FEFFFF
 2548 0ee7 4589E0   		movl	%r12d, %r8d
 2549 0eea 4889C7   		movq	%rax, %rdi
 2550 0eed E8000000 		call	_ZN8UnitTest11TestDetailsC1EPKcS2_S2_i
 2550      00
 2551              		.loc 6 78 0 discriminator 6
 2552 0ef2 E8000000 		call	_ZN8UnitTest11CurrentTest7ResultsEv
 2552      00
 2553 0ef7 488B00   		movq	(%rax), %rax
 2554 0efa 488D8D60 		leaq	-416(%rbp), %rcx
 2554      FEFFFF
 2555 0f01 4889DA   		movq	%rbx, %rdx
 2556 0f04 4889CE   		movq	%rcx, %rsi
 2557 0f07 4889C7   		movq	%rax, %rdi
 2558 0f0a E8000000 		call	_ZN8UnitTest11TestResults13OnTestFailureERKNS_11TestDetailsEPKc
 2558      00
 2559              	.LEHE50:
 2560              		.loc 6 78 0 discriminator 10
 2561 0f0f E8000000 		call	__cxa_end_catch
 2561      00
 2562              	.LBE55:
 2563              	.LBE57:
 2564 0f14 E9430100 		jmp	.L135
 2564      00
 2565              	.L124:
 2566              	.LBB58:
 2567              	.LBB56:
 2568              		.loc 6 78 0
 2569 0f19 4889C7   		movq	%rax, %rdi
 2570 0f1c E8000000 		call	__cxa_begin_catch
 2570      00
 2571 0f21 48898558 		movq	%rax, -424(%rbp)
 2571      FEFFFF
 2572              	.LBB54:
 2573 0f28 488D8580 		leaq	-384(%rbp), %rax
 2573      FEFFFF
 2574 0f2f 4889C7   		movq	%rax, %rdi
 2575              	.LEHB51:
 2576 0f32 E8000000 		call	_ZN8UnitTest15MemoryOutStreamC1Ev
 2576      00
 2577              	.LEHE51:
 2578              		.loc 6 78 0 discriminator 12
 2579 0f37 488B8558 		movq	-424(%rbp), %rax
 2579      FEFFFF
 2580 0f3e 488B00   		movq	(%rax), %rax
 2581 0f41 4883C010 		addq	$16, %rax
 2582 0f45 488B00   		movq	(%rax), %rax
 2583 0f48 488B9558 		movq	-424(%rbp), %rdx
 2583      FEFFFF
 2584 0f4f 4889D7   		movq	%rdx, %rdi
 2585 0f52 FFD0     		call	*%rax
 2586 0f54 4889C3   		movq	%rax, %rbx
 2587 0f57 488D8580 		leaq	-384(%rbp), %rax
 2587      FEFFFF
 2588 0f5e BE000000 		movl	$.LC11, %esi
 2588      00
 2589 0f63 4889C7   		movq	%rax, %rdi
 2590              	.LEHB52:
 2591 0f66 E8000000 		call	_ZStlsISt11char_traitsIcEERSt13basic_ostreamIcT_ES5_PKc
 2591      00
 2592 0f6b 4889DE   		movq	%rbx, %rsi
 2593 0f6e 4889C7   		movq	%rax, %rdi
 2594 0f71 E8000000 		call	_ZStlsISt11char_traitsIcEERSt13basic_ostreamIcT_ES5_PKc
 2594      00
 2595              		.loc 6 78 0 discriminator 16
 2596 0f76 488D8580 		leaq	-384(%rbp), %rax
 2596      FEFFFF
 2597 0f7d 4889C7   		movq	%rax, %rdi
 2598 0f80 E8000000 		call	_ZNK8UnitTest15MemoryOutStream7GetTextEv
 2598      00
 2599 0f85 4989C4   		movq	%rax, %r12
 2600 0f88 488B8538 		movq	-456(%rbp), %rax
 2600      FEFFFF
 2601 0f8f 488D5808 		leaq	8(%rax), %rbx
 2602 0f93 E8000000 		call	_ZN8UnitTest11CurrentTest7ResultsEv
 2602      00
 2603              		.loc 6 78 0 discriminator 18
 2604 0f98 488B00   		movq	(%rax), %rax
 2605 0f9b 4C89E2   		movq	%r12, %rdx
 2606 0f9e 4889DE   		movq	%rbx, %rsi
 2607 0fa1 4889C7   		movq	%rax, %rdi
 2608 0fa4 E8000000 		call	_ZN8UnitTest11TestResults13OnTestFailureERKNS_11TestDetailsEPKc
 2608      00
 2609              	.LEHE52:
 2610              		.loc 6 78 0 discriminator 22
 2611 0fa9 488D8580 		leaq	-384(%rbp), %rax
 2611      FEFFFF
 2612 0fb0 4889C7   		movq	%rax, %rdi
 2613              	.LEHB53:
 2614 0fb3 E8000000 		call	_ZN8UnitTest15MemoryOutStreamD1Ev
 2614      00
 2615              	.LEHE53:
 2616              	.LBE54:
 2617              		.loc 6 78 0 discriminator 23
 2618 0fb8 E8000000 		call	__cxa_end_catch
 2618      00
 2619              	.LBE56:
 2620              	.LBE58:
 2621 0fbd E99A0000 		jmp	.L135
 2621      00
 2622              	.L134:
 2623              	.LBB59:
 2624              		.loc 6 78 0
 2625 0fc2 4889C7   		movq	%rax, %rdi
 2626 0fc5 E8000000 		call	__cxa_begin_catch
 2626      00
 2627 0fca 80BD4FFE 		cmpb	$0, -433(%rbp)
 2627      FFFF00
 2628 0fd1 7443     		je	.L126
 2629              		.loc 6 78 0 discriminator 25
 2630 0fd3 488B8538 		movq	-456(%rbp), %rax
 2630      FEFFFF
 2631 0fda 488D4808 		leaq	8(%rax), %rcx
 2632 0fde 488D8560 		leaq	-416(%rbp), %rax
 2632      FEFFFF
 2633 0fe5 BA4E0000 		movl	$78, %edx
 2633      00
 2634 0fea 4889CE   		movq	%rcx, %rsi
 2635 0fed 4889C7   		movq	%rax, %rdi
 2636              	.LEHB54:
 2637 0ff0 E8000000 		call	_ZN8UnitTest11TestDetailsC1ERKS0_i
 2637      00
 2638              		.loc 6 78 0 discriminator 28
 2639 0ff5 E8000000 		call	_ZN8UnitTest11CurrentTest7ResultsEv
 2639      00
 2640 0ffa 488B00   		movq	(%rax), %rax
 2641 0ffd 488D8D60 		leaq	-416(%rbp), %rcx
 2641      FEFFFF
 2642 1004 BA000000 		movl	$.LC27, %edx
 2642      00
 2643 1009 4889CE   		movq	%rcx, %rsi
 2644 100c 4889C7   		movq	%rax, %rdi
 2645 100f E8000000 		call	_ZN8UnitTest11TestResults13OnTestFailureERKNS_11TestDetailsEPKc
 2645      00
 2646 1014 EB41     		jmp	.L127
 2647              	.L126:
 2648              		.loc 6 78 0 discriminator 26
 2649 1016 488B8538 		movq	-456(%rbp), %rax
 2649      FEFFFF
 2650 101d 488D4808 		leaq	8(%rax), %rcx
 2651 1021 488D8560 		leaq	-416(%rbp), %rax
 2651      FEFFFF
 2652 1028 BA4E0000 		movl	$78, %edx
 2652      00
 2653 102d 4889CE   		movq	%rcx, %rsi
 2654 1030 4889C7   		movq	%rax, %rdi
 2655 1033 E8000000 		call	_ZN8UnitTest11TestDetailsC1ERKS0_i
 2655      00
 2656              		.loc 6 78 0 discriminator 35
 2657 1038 E8000000 		call	_ZN8UnitTest11CurrentTest7ResultsEv
 2657      00
 2658 103d 488B00   		movq	(%rax), %rax
 2659 1040 488D8D60 		leaq	-416(%rbp), %rcx
 2659      FEFFFF
 2660 1047 BA000000 		movl	$.LC28, %edx
 2660      00
 2661 104c 4889CE   		movq	%rcx, %rsi
 2662 104f 4889C7   		movq	%rax, %rdi
 2663 1052 E8000000 		call	_ZN8UnitTest11TestResults13OnTestFailureERKNS_11TestDetailsEPKc
 2663      00
 2664              	.LEHE54:
 2665              	.L127:
 2666              	.LEHB55:
 2667              		.loc 6 78 0 discriminator 40
 2668 1057 E8000000 		call	__cxa_end_catch
 2668      00
 2669              	.LEHE55:
 2670              	.L135:
 2671              	.LBE59:
 2672              		.loc 6 78 0
 2673 105c 90       		nop
 2674 105d 488B45E8 		movq	-24(%rbp), %rax
 2675 1061 64483304 		xorq	%fs:40, %rax
 2675      25280000 
 2675      00
 2676 106a 7405     		je	.L128
 2677 106c E8000000 		call	__stack_chk_fail
 2677      00
 2678              	.L128:
 2679 1071 4881C4C0 		addq	$448, %rsp
 2679      010000
 2680 1078 5B       		popq	%rbx
 2681 1079 415C     		popq	%r12
 2682 107b 5D       		popq	%rbp
 2683              		.cfi_def_cfa 7, 8
 2684 107c C3       		ret
 2685              		.cfi_endproc
 2686              	.LFE1134:
 2687              		.section	.gcc_except_table
 2688              		.align 4
 2689              	.LLSDA1134:
 2690 0130 FF       		.byte	0xff
 2691 0131 03       		.byte	0x3
 2692 0132 49       		.uleb128 .LLSDATT1134-.LLSDATTD1134
 2693              	.LLSDATTD1134:
 2694 0133 01       		.byte	0x1
 2695 0134 35       		.uleb128 .LLSDACSE1134-.LLSDACSB1134
 2696              	.LLSDACSB1134:
 2697 0135 67       		.uleb128 .LEHB46-.LFB1134
 2698 0136 05       		.uleb128 .LEHE46-.LEHB46
 2699 0137 BE01     		.uleb128 .L129-.LFB1134
 2700 0139 05       		.uleb128 0x5
 2701 013a 7F       		.uleb128 .LEHB47-.LFB1134
 2702 013b 05       		.uleb128 .LEHE47-.LEHB47
 2703 013c 00       		.uleb128 0
 2704 013d 00       		.uleb128 0
 2705 013e A601     		.uleb128 .LEHB48-.LFB1134
 2706 0140 05       		.uleb128 .LEHE48-.LEHB48
 2707 0141 00       		.uleb128 0
 2708 0142 00       		.uleb128 0
 2709 0143 B901     		.uleb128 .LEHB49-.LFB1134
 2710 0145 05       		.uleb128 .LEHE49-.LEHB49
 2711 0146 00       		.uleb128 0
 2712 0147 00       		.uleb128 0
 2713 0148 8C02     		.uleb128 .LEHB50-.LFB1134
 2714 014a 5F       		.uleb128 .LEHE50-.LEHB50
 2715 014b 71       		.uleb128 .L130-.LFB1134
 2716 014c 00       		.uleb128 0
 2717 014d 8E03     		.uleb128 .LEHB51-.LFB1134
 2718 014f 05       		.uleb128 .LEHE51-.LEHB51
 2719 0150 9801     		.uleb128 .L132-.LFB1134
 2720 0152 00       		.uleb128 0
 2721 0153 C203     		.uleb128 .LEHB52-.LFB1134
 2722 0155 43       		.uleb128 .LEHE52-.LEHB52
 2723 0156 8401     		.uleb128 .L131-.LFB1134
 2724 0158 00       		.uleb128 0
 2725 0159 8F04     		.uleb128 .LEHB53-.LFB1134
 2726 015b 05       		.uleb128 .LEHE53-.LEHB53
 2727 015c 9801     		.uleb128 .L132-.LFB1134
 2728 015e 00       		.uleb128 0
 2729 015f CC04     		.uleb128 .LEHB54-.LFB1134
 2730 0161 67       		.uleb128 .LEHE54-.LEHB54
 2731 0162 AB01     		.uleb128 .L133-.LFB1134
 2732 0164 00       		.uleb128 0
 2733 0165 B305     		.uleb128 .LEHB55-.LFB1134
 2734 0167 05       		.uleb128 .LEHE55-.LEHB55
 2735 0168 00       		.uleb128 0
 2736 0169 00       		.uleb128 0
 2737              	.LLSDACSE1134:
 2738 016a 03       		.byte	0x3
 2739 016b 00       		.byte	0
 2740 016c 02       		.byte	0x2
 2741 016d 7D       		.byte	0x7d
 2742 016e 01       		.byte	0x1
 2743 016f 7D       		.byte	0x7d
 2744              		.align 4
 2745 0170 00000000 		.long	0
 2746              	
 2747 0174 00000000 		.long	_ZTISt9exception
 2748 0178 00000000 		.long	_ZTIN8UnitTest15AssertExceptionE
 2749              	.LLSDATT1134:
 2750              		.text
 2752 107d 90       		.align 2
 2754              	_ZN12_GLOBAL__N_115SuiteTestSuite265DummyFixtureSimilarlyNamedFixtureTestsInDifferentSuitesWorkHelp
 2755              	.LFB1135:
  79:TestTestMacros.cpp **** 	{
 2756              		.loc 6 79 0 is_stmt 1
 2757              		.cfi_startproc
 2758 107e 55       		pushq	%rbp
 2759              		.cfi_def_cfa_offset 16
 2760              		.cfi_offset 6, -16
 2761 107f 4889E5   		movq	%rsp, %rbp
 2762              		.cfi_def_cfa_register 6
 2763 1082 48897DF8 		movq	%rdi, -8(%rbp)
  80:TestTestMacros.cpp **** 	}
 2764              		.loc 6 80 0
 2765 1086 5D       		popq	%rbp
 2766              		.cfi_def_cfa 7, 8
 2767 1087 C3       		ret
 2768              		.cfi_endproc
 2769              	.LFE1135:
 2771              		.local	_ZN12_GLOBAL__N_114macroTestList1E
 2772              		.comm	_ZN12_GLOBAL__N_114macroTestList1E,16,16
 2773              		.section	.rodata
 2774              	.LC30:
 2775 047f 4D616372 		.string	"MacroTestHelper1"
 2775      6F546573 
 2775      7448656C 
 2775      70657231 
 2775      00
 2776              		.text
 2777              		.align 2
 2779              	_ZN12_GLOBAL__N_120TestMacroTestHelper1C2Ev:
 2780              	.LFB1137:
  81:TestTestMacros.cpp **** }
  82:TestTestMacros.cpp **** 
  83:TestTestMacros.cpp **** TestList macroTestList1;
  84:TestTestMacros.cpp **** TEST_EX(MacroTestHelper1, macroTestList1)
 2781              		.loc 6 84 0
 2782              		.cfi_startproc
 2783 1088 55       		pushq	%rbp
 2784              		.cfi_def_cfa_offset 16
 2785              		.cfi_offset 6, -16
 2786 1089 4889E5   		movq	%rsp, %rbp
 2787              		.cfi_def_cfa_register 6
 2788 108c 4883EC10 		subq	$16, %rsp
 2789 1090 48897DF8 		movq	%rdi, -8(%rbp)
 2790              	.LBB60:
 2791              		.loc 6 84 0
 2792 1094 E8000000 		call	_ZN13UnitTestSuite12GetSuiteNameEv
 2792      00
 2793 1099 4889C2   		movq	%rax, %rdx
 2794 109c 488B45F8 		movq	-8(%rbp), %rax
 2795 10a0 41B85400 		movl	$84, %r8d
 2795      0000
 2796 10a6 B9000000 		movl	$.LC2, %ecx
 2796      00
 2797 10ab BE000000 		movl	$.LC30, %esi
 2797      00
 2798 10b0 4889C7   		movq	%rax, %rdi
 2799 10b3 E8000000 		call	_ZN8UnitTest4TestC2EPKcS2_S2_i
 2799      00
 2800 10b8 488B45F8 		movq	-8(%rbp), %rax
 2801 10bc 48C70000 		movq	$_ZTVN12_GLOBAL__N_120TestMacroTestHelper1E+16, (%rax)
 2801      000000
 2802              	.LBE60:
 2803 10c3 C9       		leave
 2804              		.cfi_def_cfa 7, 8
 2805 10c4 C3       		ret
 2806              		.cfi_endproc
 2807              	.LFE1137:
 2809              		.local	_ZN12_GLOBAL__N_128testMacroTestHelper1InstanceE
 2810              		.comm	_ZN12_GLOBAL__N_128testMacroTestHelper1InstanceE,56,32
 2811              		.local	_ZN12_GLOBAL__N_121adderMacroTestHelper1E
 2812              		.comm	_ZN12_GLOBAL__N_121adderMacroTestHelper1E,1,1
 2813 10c5 90       		.align 2
 2815              	_ZNK12_GLOBAL__N_120TestMacroTestHelper17RunImplEv:
 2816              	.LFB1139:
  85:TestTestMacros.cpp **** {
 2817              		.loc 6 85 0
 2818              		.cfi_startproc
 2819 10c6 55       		pushq	%rbp
 2820              		.cfi_def_cfa_offset 16
 2821              		.cfi_offset 6, -16
 2822 10c7 4889E5   		movq	%rsp, %rbp
 2823              		.cfi_def_cfa_register 6
 2824 10ca 48897DF8 		movq	%rdi, -8(%rbp)
  86:TestTestMacros.cpp **** }
 2825              		.loc 6 86 0
 2826 10ce 5D       		popq	%rbp
 2827              		.cfi_def_cfa 7, 8
 2828 10cf C3       		ret
 2829              		.cfi_endproc
 2830              	.LFE1139:
 2832              		.section	.rodata
 2833              		.align 8
 2834              	.LC31:
 2835 0490 54657374 		.string	"TestAddedWithTEST_EXMacroGetsDefaultSuite"
 2835      41646465 
 2835      64576974 
 2835      68544553 
 2835      545F4558 
 2836              		.text
 2837              		.align 2
 2839              	_ZN12_GLOBAL__N_145TestTestAddedWithTEST_EXMacroGetsDefaultSuiteC2Ev:
 2840              	.LFB1141:
  87:TestTestMacros.cpp **** 
  88:TestTestMacros.cpp **** TEST(TestAddedWithTEST_EXMacroGetsDefaultSuite)
 2841              		.loc 6 88 0
 2842              		.cfi_startproc
 2843 10d0 55       		pushq	%rbp
 2844              		.cfi_def_cfa_offset 16
 2845              		.cfi_offset 6, -16
 2846 10d1 4889E5   		movq	%rsp, %rbp
 2847              		.cfi_def_cfa_register 6
 2848 10d4 4883EC10 		subq	$16, %rsp
 2849 10d8 48897DF8 		movq	%rdi, -8(%rbp)
 2850              	.LBB61:
 2851              		.loc 6 88 0
 2852 10dc E8000000 		call	_ZN13UnitTestSuite12GetSuiteNameEv
 2852      00
 2853 10e1 4889C2   		movq	%rax, %rdx
 2854 10e4 488B45F8 		movq	-8(%rbp), %rax
 2855 10e8 41B85800 		movl	$88, %r8d
 2855      0000
 2856 10ee B9000000 		movl	$.LC2, %ecx
 2856      00
 2857 10f3 BE000000 		movl	$.LC31, %esi
 2857      00
 2858 10f8 4889C7   		movq	%rax, %rdi
 2859 10fb E8000000 		call	_ZN8UnitTest4TestC2EPKcS2_S2_i
 2859      00
 2860 1100 488B45F8 		movq	-8(%rbp), %rax
 2861 1104 48C70000 		movq	$_ZTVN12_GLOBAL__N_145TestTestAddedWithTEST_EXMacroGetsDefaultSuiteE+16, (%rax)
 2861      000000
 2862              	.LBE61:
 2863 110b C9       		leave
 2864              		.cfi_def_cfa 7, 8
 2865 110c C3       		ret
 2866              		.cfi_endproc
 2867              	.LFE1141:
 2869              		.local	_ZN12_GLOBAL__N_153testTestAddedWithTEST_EXMacroGetsDefaultSuiteInstanceE
 2870              		.comm	_ZN12_GLOBAL__N_153testTestAddedWithTEST_EXMacroGetsDefaultSuiteInstanceE,56,32
 2871              		.local	_ZN12_GLOBAL__N_146adderTestAddedWithTEST_EXMacroGetsDefaultSuiteE
 2872              		.comm	_ZN12_GLOBAL__N_146adderTestAddedWithTEST_EXMacroGetsDefaultSuiteE,1,1
 2873              		.section	.rodata
 2874 04ba 00000000 		.align 8
 2874      0000
 2875              	.LC32:
 2876 04c0 6D616372 		.string	"macroTestList1.GetHead() != NULL"
 2876      6F546573 
 2876      744C6973 
 2876      74312E47 
 2876      65744865 
 2877 04e1 00000000 		.align 8
 2877      000000
 2878              	.LC33:
 2879 04e8 556E6861 		.string	"Unhandled exception in CHECK(macroTestList1.GetHead() != NULL)"
 2879      6E646C65 
 2879      64206578 
 2879      63657074 
 2879      696F6E20 
 2880 0527 00       		.align 8
 2881              	.LC34:
 2882 0528 556E6861 		.string	"Unhandled exception in CHECK_EQUAL(\"MacroTestHelper1\", macroTestList1.GetHead()->m_deta
 2882      6E646C65 
 2882      64206578 
 2882      63657074 
 2882      696F6E20 
 2883 058d 000000   		.align 8
 2884              	.LC35:
 2885 0590 556E6861 		.string	"Unhandled exception in CHECK_EQUAL(\"DefaultSuite\", macroTestList1.GetHead()->m_details.
 2885      6E646C65 
 2885      64206578 
 2885      63657074 
 2885      696F6E20 
 2886              		.text
 2887 110d 90       		.align 2
 2889              	_ZNK12_GLOBAL__N_145TestTestAddedWithTEST_EXMacroGetsDefaultSuite7RunImplEv:
 2890              	.LFB1143:
  89:TestTestMacros.cpp **** {
 2891              		.loc 6 89 0
 2892              		.cfi_startproc
 2893              		.cfi_personality 0x3,__gxx_personality_v0
 2894              		.cfi_lsda 0x3,.LLSDA1143
 2895 110e 55       		pushq	%rbp
 2896              		.cfi_def_cfa_offset 16
 2897              		.cfi_offset 6, -16
 2898 110f 4889E5   		movq	%rsp, %rbp
 2899              		.cfi_def_cfa_register 6
 2900 1112 53       		pushq	%rbx
 2901 1113 4883EC48 		subq	$72, %rsp
 2902              		.cfi_offset 3, -24
 2903 1117 48897DB8 		movq	%rdi, -72(%rbp)
 2904              		.loc 6 89 0
 2905 111b 64488B04 		movq	%fs:40, %rax
 2905      25280000 
 2905      00
 2906 1124 488945E8 		movq	%rax, -24(%rbp)
 2907 1128 31C0     		xorl	%eax, %eax
  90:TestTestMacros.cpp ****     CHECK(macroTestList1.GetHead() != NULL);
 2908              		.loc 6 90 0
 2909 112a BF000000 		movl	$_ZN12_GLOBAL__N_114macroTestList1E, %edi
 2909      00
 2910              	.LEHB56:
 2911 112f E8000000 		call	_ZNK8UnitTest8TestList7GetHeadEv
 2911      00
 2912 1134 4885C0   		testq	%rax, %rax
 2913 1137 0F95C0   		setne	%al
 2914 113a 0FB6C0   		movzbl	%al, %eax
 2915 113d 89C7     		movl	%eax, %edi
 2916 113f E8000000 		call	_ZN8UnitTest5CheckIbEEbT_
 2916      00
 2917 1144 83F001   		xorl	$1, %eax
 2918 1147 84C0     		testb	%al, %al
 2919 1149 7438     		je	.L141
 2920              		.loc 6 90 0 is_stmt 0 discriminator 2
 2921 114b E8000000 		call	_ZN8UnitTest11CurrentTest7DetailsEv
 2921      00
 2922 1150 488B08   		movq	(%rax), %rcx
 2923 1153 488D45C0 		leaq	-64(%rbp), %rax
 2924 1157 BA5A0000 		movl	$90, %edx
 2924      00
 2925 115c 4889CE   		movq	%rcx, %rsi
 2926 115f 4889C7   		movq	%rax, %rdi
 2927 1162 E8000000 		call	_ZN8UnitTest11TestDetailsC1ERKS0_i
 2927      00
 2928              		.loc 6 90 0 discriminator 4
 2929 1167 E8000000 		call	_ZN8UnitTest11CurrentTest7ResultsEv
 2929      00
 2930 116c 488B00   		movq	(%rax), %rax
 2931 116f 488D4DC0 		leaq	-64(%rbp), %rcx
 2932 1173 BA000000 		movl	$.LC32, %edx
 2932      00
 2933 1178 4889CE   		movq	%rcx, %rsi
 2934 117b 4889C7   		movq	%rax, %rdi
 2935 117e E8000000 		call	_ZN8UnitTest11TestResults13OnTestFailureERKNS_11TestDetailsEPKc
 2935      00
 2936              	.LEHE56:
 2937              	.L141:
 2938              	.LEHB57:
  91:TestTestMacros.cpp ****     CHECK_EQUAL ("MacroTestHelper1", macroTestList1.GetHead()->m_details.testName);
 2939              		.loc 6 91 0 is_stmt 1
 2940 1183 E8000000 		call	_ZN8UnitTest11CurrentTest7DetailsEv
 2940      00
 2941 1188 488B08   		movq	(%rax), %rcx
 2942 118b 488D45C0 		leaq	-64(%rbp), %rax
 2943 118f BA5B0000 		movl	$91, %edx
 2943      00
 2944 1194 4889CE   		movq	%rcx, %rsi
 2945 1197 4889C7   		movq	%rax, %rdi
 2946 119a E8000000 		call	_ZN8UnitTest11TestDetailsC1ERKS0_i
 2946      00
 2947              		.loc 6 91 0 is_stmt 0 discriminator 2
 2948 119f BF000000 		movl	$_ZN12_GLOBAL__N_114macroTestList1E, %edi
 2948      00
 2949 11a4 E8000000 		call	_ZNK8UnitTest8TestList7GetHeadEv
 2949      00
 2950 11a9 488B5810 		movq	16(%rax), %rbx
 2951 11ad E8000000 		call	_ZN8UnitTest11CurrentTest7ResultsEv
 2951      00
 2952              		.loc 6 91 0 discriminator 4
 2953 11b2 488B00   		movq	(%rax), %rax
 2954 11b5 488D55C0 		leaq	-64(%rbp), %rdx
 2955 11b9 4889D1   		movq	%rdx, %rcx
 2956 11bc 4889DA   		movq	%rbx, %rdx
 2957 11bf BE000000 		movl	$.LC30, %esi
 2957      00
 2958 11c4 4889C7   		movq	%rax, %rdi
 2959 11c7 E8000000 		call	_ZN8UnitTest10CheckEqualERNS_11TestResultsEPKcS3_RKNS_11TestDetailsE
 2959      00
 2960              	.LEHE57:
 2961              	.L146:
 2962              	.LEHB58:
  92:TestTestMacros.cpp ****     CHECK_EQUAL ("DefaultSuite", macroTestList1.GetHead()->m_details.suiteName);
 2963              		.loc 6 92 0 is_stmt 1
 2964 11cc E8000000 		call	_ZN8UnitTest11CurrentTest7DetailsEv
 2964      00
 2965 11d1 488B08   		movq	(%rax), %rcx
 2966 11d4 488D45C0 		leaq	-64(%rbp), %rax
 2967 11d8 BA5C0000 		movl	$92, %edx
 2967      00
 2968 11dd 4889CE   		movq	%rcx, %rsi
 2969 11e0 4889C7   		movq	%rax, %rdi
 2970 11e3 E8000000 		call	_ZN8UnitTest11TestDetailsC1ERKS0_i
 2970      00
 2971              		.loc 6 92 0 is_stmt 0 discriminator 2
 2972 11e8 BF000000 		movl	$_ZN12_GLOBAL__N_114macroTestList1E, %edi
 2972      00
 2973 11ed E8000000 		call	_ZNK8UnitTest8TestList7GetHeadEv
 2973      00
 2974 11f2 488B5808 		movq	8(%rax), %rbx
 2975 11f6 E8000000 		call	_ZN8UnitTest11CurrentTest7ResultsEv
 2975      00
 2976              		.loc 6 92 0 discriminator 4
 2977 11fb 488B00   		movq	(%rax), %rax
 2978 11fe 488D55C0 		leaq	-64(%rbp), %rdx
 2979 1202 4889D1   		movq	%rdx, %rcx
 2980 1205 4889DA   		movq	%rbx, %rdx
 2981 1208 BE000000 		movl	$.LC0, %esi
 2981      00
 2982 120d 4889C7   		movq	%rax, %rdi
 2983 1210 E8000000 		call	_ZN8UnitTest10CheckEqualERNS_11TestResultsEPKcS3_RKNS_11TestDetailsE
 2983      00
 2984              	.LEHE58:
  93:TestTestMacros.cpp **** }
 2985              		.loc 6 93 0 is_stmt 1
 2986 1215 E9120100 		jmp	.L157
 2986      00
 2987              	.L152:
 2988 121a 4889C3   		movq	%rax, %rbx
  90:TestTestMacros.cpp ****     CHECK_EQUAL ("MacroTestHelper1", macroTestList1.GetHead()->m_details.testName);
 2989              		.loc 6 90 0
 2990 121d E8000000 		call	__cxa_end_catch
 2990      00
 2991 1222 4889D8   		movq	%rbx, %rax
 2992 1225 4889C7   		movq	%rax, %rdi
 2993              	.LEHB59:
 2994 1228 E8000000 		call	_Unwind_Resume
 2994      00
 2995              	.LEHE59:
 2996              	.L151:
 2997 122d 4889C7   		movq	%rax, %rdi
 2998 1230 E8000000 		call	__cxa_begin_catch
 2998      00
 2999              	.LEHB60:
 3000 1235 E8000000 		call	_ZN8UnitTest11CurrentTest7DetailsEv
 3000      00
 3001 123a 488B08   		movq	(%rax), %rcx
 3002 123d 488D45C0 		leaq	-64(%rbp), %rax
 3003 1241 BA5A0000 		movl	$90, %edx
 3003      00
 3004 1246 4889CE   		movq	%rcx, %rsi
 3005 1249 4889C7   		movq	%rax, %rdi
 3006 124c E8000000 		call	_ZN8UnitTest11TestDetailsC1ERKS0_i
 3006      00
  90:TestTestMacros.cpp ****     CHECK_EQUAL ("MacroTestHelper1", macroTestList1.GetHead()->m_details.testName);
 3007              		.loc 6 90 0 is_stmt 0 discriminator 12
 3008 1251 E8000000 		call	_ZN8UnitTest11CurrentTest7ResultsEv
 3008      00
 3009 1256 488B00   		movq	(%rax), %rax
 3010 1259 488D4DC0 		leaq	-64(%rbp), %rcx
 3011 125d BA000000 		movl	$.LC33, %edx
 3011      00
 3012 1262 4889CE   		movq	%rcx, %rsi
 3013 1265 4889C7   		movq	%rax, %rdi
 3014 1268 E8000000 		call	_ZN8UnitTest11TestResults13OnTestFailureERKNS_11TestDetailsEPKc
 3014      00
 3015              	.LEHE60:
 3016              	.LEHB61:
  90:TestTestMacros.cpp ****     CHECK_EQUAL ("MacroTestHelper1", macroTestList1.GetHead()->m_details.testName);
 3017              		.loc 6 90 0 discriminator 16
 3018 126d E8000000 		call	__cxa_end_catch
 3018      00
 3019              	.LEHE61:
 3020 1272 E90CFFFF 		jmp	.L141
 3020      FF
 3021              	.L154:
 3022 1277 4889C3   		movq	%rax, %rbx
  91:TestTestMacros.cpp ****     CHECK_EQUAL ("DefaultSuite", macroTestList1.GetHead()->m_details.suiteName);
 3023              		.loc 6 91 0 is_stmt 1
 3024 127a E8000000 		call	__cxa_end_catch
 3024      00
 3025 127f 4889D8   		movq	%rbx, %rax
 3026 1282 4889C7   		movq	%rax, %rdi
 3027              	.LEHB62:
 3028 1285 E8000000 		call	_Unwind_Resume
 3028      00
 3029              	.LEHE62:
 3030              	.L153:
 3031 128a 4889C7   		movq	%rax, %rdi
 3032 128d E8000000 		call	__cxa_begin_catch
 3032      00
 3033              	.LEHB63:
 3034 1292 E8000000 		call	_ZN8UnitTest11CurrentTest7DetailsEv
 3034      00
 3035 1297 488B08   		movq	(%rax), %rcx
 3036 129a 488D45C0 		leaq	-64(%rbp), %rax
 3037 129e BA5B0000 		movl	$91, %edx
 3037      00
 3038 12a3 4889CE   		movq	%rcx, %rsi
 3039 12a6 4889C7   		movq	%rax, %rdi
 3040 12a9 E8000000 		call	_ZN8UnitTest11TestDetailsC1ERKS0_i
 3040      00
  91:TestTestMacros.cpp ****     CHECK_EQUAL ("DefaultSuite", macroTestList1.GetHead()->m_details.suiteName);
 3041              		.loc 6 91 0 is_stmt 0 discriminator 12
 3042 12ae E8000000 		call	_ZN8UnitTest11CurrentTest7ResultsEv
 3042      00
 3043 12b3 488B00   		movq	(%rax), %rax
 3044 12b6 488D4DC0 		leaq	-64(%rbp), %rcx
 3045 12ba BA000000 		movl	$.LC34, %edx
 3045      00
 3046 12bf 4889CE   		movq	%rcx, %rsi
 3047 12c2 4889C7   		movq	%rax, %rdi
 3048 12c5 E8000000 		call	_ZN8UnitTest11TestResults13OnTestFailureERKNS_11TestDetailsEPKc
 3048      00
 3049              	.LEHE63:
 3050              	.LEHB64:
  91:TestTestMacros.cpp ****     CHECK_EQUAL ("DefaultSuite", macroTestList1.GetHead()->m_details.suiteName);
 3051              		.loc 6 91 0 discriminator 16
 3052 12ca E8000000 		call	__cxa_end_catch
 3052      00
 3053              	.LEHE64:
 3054 12cf E9F8FEFF 		jmp	.L146
 3054      FF
 3055              	.L156:
 3056 12d4 4889C3   		movq	%rax, %rbx
  92:TestTestMacros.cpp **** }
 3057              		.loc 6 92 0 is_stmt 1
 3058 12d7 E8000000 		call	__cxa_end_catch
 3058      00
 3059 12dc 4889D8   		movq	%rbx, %rax
 3060 12df 4889C7   		movq	%rax, %rdi
 3061              	.LEHB65:
 3062 12e2 E8000000 		call	_Unwind_Resume
 3062      00
 3063              	.LEHE65:
 3064              	.L155:
 3065 12e7 4889C7   		movq	%rax, %rdi
 3066 12ea E8000000 		call	__cxa_begin_catch
 3066      00
 3067              	.LEHB66:
 3068 12ef E8000000 		call	_ZN8UnitTest11CurrentTest7DetailsEv
 3068      00
 3069 12f4 488B08   		movq	(%rax), %rcx
 3070 12f7 488D45C0 		leaq	-64(%rbp), %rax
 3071 12fb BA5C0000 		movl	$92, %edx
 3071      00
 3072 1300 4889CE   		movq	%rcx, %rsi
 3073 1303 4889C7   		movq	%rax, %rdi
 3074 1306 E8000000 		call	_ZN8UnitTest11TestDetailsC1ERKS0_i
 3074      00
  92:TestTestMacros.cpp **** }
 3075              		.loc 6 92 0 is_stmt 0 discriminator 12
 3076 130b E8000000 		call	_ZN8UnitTest11CurrentTest7ResultsEv
 3076      00
 3077 1310 488B00   		movq	(%rax), %rax
 3078 1313 488D4DC0 		leaq	-64(%rbp), %rcx
 3079 1317 BA000000 		movl	$.LC35, %edx
 3079      00
 3080 131c 4889CE   		movq	%rcx, %rsi
 3081 131f 4889C7   		movq	%rax, %rdi
 3082 1322 E8000000 		call	_ZN8UnitTest11TestResults13OnTestFailureERKNS_11TestDetailsEPKc
 3082      00
 3083              	.LEHE66:
 3084              	.LEHB67:
  92:TestTestMacros.cpp **** }
 3085              		.loc 6 92 0 discriminator 16
 3086 1327 E8000000 		call	__cxa_end_catch
 3086      00
 3087              	.LEHE67:
 3088              	.L157:
 3089              		.loc 6 93 0 is_stmt 1
 3090 132c 90       		nop
 3091 132d 488B45E8 		movq	-24(%rbp), %rax
 3092 1331 64483304 		xorq	%fs:40, %rax
 3092      25280000 
 3092      00
 3093 133a 7405     		je	.L150
 3094 133c E8000000 		call	__stack_chk_fail
 3094      00
 3095              	.L150:
 3096 1341 4883C448 		addq	$72, %rsp
 3097 1345 5B       		popq	%rbx
 3098 1346 5D       		popq	%rbp
 3099              		.cfi_def_cfa 7, 8
 3100 1347 C3       		ret
 3101              		.cfi_endproc
 3102              	.LFE1143:
 3103              		.section	.gcc_except_table
 3104              		.align 4
 3105              	.LLSDA1143:
 3106 017c FF       		.byte	0xff
 3107 017d 03       		.byte	0x3
 3108 017e 49       		.uleb128 .LLSDATT1143-.LLSDATTD1143
 3109              	.LLSDATTD1143:
 3110 017f 01       		.byte	0x1
 3111 0180 40       		.uleb128 .LLSDACSE1143-.LLSDACSB1143
 3112              	.LLSDACSB1143:
 3113 0181 21       		.uleb128 .LEHB56-.LFB1143
 3114 0182 54       		.uleb128 .LEHE56-.LEHB56
 3115 0183 9F02     		.uleb128 .L151-.LFB1143
 3116 0185 01       		.uleb128 0x1
 3117 0186 75       		.uleb128 .LEHB57-.LFB1143
 3118 0187 49       		.uleb128 .LEHE57-.LEHB57
 3119 0188 FC02     		.uleb128 .L153-.LFB1143
 3120 018a 01       		.uleb128 0x1
 3121 018b BE01     		.uleb128 .LEHB58-.LFB1143
 3122 018d 49       		.uleb128 .LEHE58-.LEHB58
 3123 018e D903     		.uleb128 .L155-.LFB1143
 3124 0190 01       		.uleb128 0x1
 3125 0191 9A02     		.uleb128 .LEHB59-.LFB1143
 3126 0193 05       		.uleb128 .LEHE59-.LEHB59
 3127 0194 00       		.uleb128 0
 3128 0195 00       		.uleb128 0
 3129 0196 A702     		.uleb128 .LEHB60-.LFB1143
 3130 0198 38       		.uleb128 .LEHE60-.LEHB60
 3131 0199 8C02     		.uleb128 .L152-.LFB1143
 3132 019b 00       		.uleb128 0
 3133 019c DF02     		.uleb128 .LEHB61-.LFB1143
 3134 019e 05       		.uleb128 .LEHE61-.LEHB61
 3135 019f 00       		.uleb128 0
 3136 01a0 00       		.uleb128 0
 3137 01a1 F702     		.uleb128 .LEHB62-.LFB1143
 3138 01a3 05       		.uleb128 .LEHE62-.LEHB62
 3139 01a4 00       		.uleb128 0
 3140 01a5 00       		.uleb128 0
 3141 01a6 8403     		.uleb128 .LEHB63-.LFB1143
 3142 01a8 38       		.uleb128 .LEHE63-.LEHB63
 3143 01a9 E902     		.uleb128 .L154-.LFB1143
 3144 01ab 00       		.uleb128 0
 3145 01ac BC03     		.uleb128 .LEHB64-.LFB1143
 3146 01ae 05       		.uleb128 .LEHE64-.LEHB64
 3147 01af 00       		.uleb128 0
 3148 01b0 00       		.uleb128 0
 3149 01b1 D403     		.uleb128 .LEHB65-.LFB1143
 3150 01b3 05       		.uleb128 .LEHE65-.LEHB65
 3151 01b4 00       		.uleb128 0
 3152 01b5 00       		.uleb128 0
 3153 01b6 E103     		.uleb128 .LEHB66-.LFB1143
 3154 01b8 38       		.uleb128 .LEHE66-.LEHB66
 3155 01b9 C603     		.uleb128 .L156-.LFB1143
 3156 01bb 00       		.uleb128 0
 3157 01bc 9904     		.uleb128 .LEHB67-.LFB1143
 3158 01be 05       		.uleb128 .LEHE67-.LEHB67
 3159 01bf 00       		.uleb128 0
 3160 01c0 00       		.uleb128 0
 3161              	.LLSDACSE1143:
 3162 01c1 01       		.byte	0x1
 3163 01c2 00       		.byte	0
 3164 01c3 00       		.align 4
 3165 01c4 00000000 		.long	0
 3166              	
 3167              	.LLSDATT1143:
 3168              		.text
 3170              		.local	_ZN12_GLOBAL__N_114macroTestList2E
 3171              		.comm	_ZN12_GLOBAL__N_114macroTestList2E,16,16
 3172              		.align 2
 3174              	_ZN12_GLOBAL__N_134DummyFixtureMacroTestHelper2HelperC2ERKN8UnitTest11TestDetailsE:
 3175              	.LFB1145:
  94:TestTestMacros.cpp **** 
  95:TestTestMacros.cpp **** TestList macroTestList2;
  96:TestTestMacros.cpp **** TEST_FIXTURE_EX(DummyFixture, MacroTestHelper2, macroTestList2)
 3176              		.loc 6 96 0
 3177              		.cfi_startproc
 3178 1348 55       		pushq	%rbp
 3179              		.cfi_def_cfa_offset 16
 3180              		.cfi_offset 6, -16
 3181 1349 4889E5   		movq	%rsp, %rbp
 3182              		.cfi_def_cfa_register 6
 3183 134c 4883EC10 		subq	$16, %rsp
 3184 1350 48897DF8 		movq	%rdi, -8(%rbp)
 3185 1354 488975F0 		movq	%rsi, -16(%rbp)
 3186              	.LBB62:
 3187              		.loc 6 96 0
 3188 1358 488B45F8 		movq	-8(%rbp), %rax
 3189 135c 4889C7   		movq	%rax, %rdi
 3190 135f E82EF6FF 		call	_ZN12_GLOBAL__N_112DummyFixtureC2Ev
 3190      FF
 3191 1364 488B45F8 		movq	-8(%rbp), %rax
 3192 1368 488B55F0 		movq	-16(%rbp), %rdx
 3193 136c 48895008 		movq	%rdx, 8(%rax)
 3194              	.LBE62:
 3195 1370 C9       		leave
 3196              		.cfi_def_cfa 7, 8
 3197 1371 C3       		ret
 3198              		.cfi_endproc
 3199              	.LFE1145:
 3201              		.section	.rodata
 3202              	.LC36:
 3203 05f2 4D616372 		.string	"MacroTestHelper2"
 3203      6F546573 
 3203      7448656C 
 3203      70657232 
 3203      00
 3204              		.text
 3205              		.align 2
 3207              	_ZN12_GLOBAL__N_132TestDummyFixtureMacroTestHelper2C2Ev:
 3208              	.LFB1148:
 3209              		.loc 6 96 0
 3210              		.cfi_startproc
 3211 1372 55       		pushq	%rbp
 3212              		.cfi_def_cfa_offset 16
 3213              		.cfi_offset 6, -16
 3214 1373 4889E5   		movq	%rsp, %rbp
 3215              		.cfi_def_cfa_register 6
 3216 1376 4883EC10 		subq	$16, %rsp
 3217 137a 48897DF8 		movq	%rdi, -8(%rbp)
 3218              	.LBB63:
 3219              		.loc 6 96 0
 3220 137e E8000000 		call	_ZN13UnitTestSuite12GetSuiteNameEv
 3220      00
 3221 1383 4889C2   		movq	%rax, %rdx
 3222 1386 488B45F8 		movq	-8(%rbp), %rax
 3223 138a 41B86000 		movl	$96, %r8d
 3223      0000
 3224 1390 B9000000 		movl	$.LC2, %ecx
 3224      00
 3225 1395 BE000000 		movl	$.LC36, %esi
 3225      00
 3226 139a 4889C7   		movq	%rax, %rdi
 3227 139d E8000000 		call	_ZN8UnitTest4TestC2EPKcS2_S2_i
 3227      00
 3228 13a2 488B45F8 		movq	-8(%rbp), %rax
 3229 13a6 48C70000 		movq	$_ZTVN12_GLOBAL__N_132TestDummyFixtureMacroTestHelper2E+16, (%rax)
 3229      000000
 3230              	.LBE63:
 3231 13ad C9       		leave
 3232              		.cfi_def_cfa 7, 8
 3233 13ae C3       		ret
 3234              		.cfi_endproc
 3235              	.LFE1148:
 3237              		.local	_ZN12_GLOBAL__N_140testDummyFixtureMacroTestHelper2InstanceE
 3238              		.comm	_ZN12_GLOBAL__N_140testDummyFixtureMacroTestHelper2InstanceE,56,32
 3239              		.local	_ZN12_GLOBAL__N_133adderDummyFixtureMacroTestHelper2E
 3240              		.comm	_ZN12_GLOBAL__N_133adderDummyFixtureMacroTestHelper2E,1,1
 3241 13af 90       		.align 2
 3243              	_ZNK12_GLOBAL__N_132TestDummyFixtureMacroTestHelper27RunImplEv:
 3244              	.LFB1150:
 3245              		.loc 6 96 0
 3246              		.cfi_startproc
 3247              		.cfi_personality 0x3,__gxx_personality_v0
 3248              		.cfi_lsda 0x3,.LLSDA1150
 3249 13b0 55       		pushq	%rbp
 3250              		.cfi_def_cfa_offset 16
 3251              		.cfi_offset 6, -16
 3252 13b1 4889E5   		movq	%rsp, %rbp
 3253              		.cfi_def_cfa_register 6
 3254 13b4 4154     		pushq	%r12
 3255 13b6 53       		pushq	%rbx
 3256 13b7 4881ECC0 		subq	$448, %rsp
 3256      010000
 3257              		.cfi_offset 12, -24
 3258              		.cfi_offset 3, -32
 3259 13be 4889BD38 		movq	%rdi, -456(%rbp)
 3259      FEFFFF
 3260              		.loc 6 96 0
 3261 13c5 64488B04 		movq	%fs:40, %rax
 3261      25280000 
 3261      00
 3262 13ce 488945E8 		movq	%rax, -24(%rbp)
 3263 13d2 31C0     		xorl	%eax, %eax
 3264              	.LBB64:
 3265 13d4 C6854FFE 		movb	$0, -433(%rbp)
 3265      FFFF00
 3266              	.LBB65:
 3267 13db 488B8538 		movq	-456(%rbp), %rax
 3267      FEFFFF
 3268 13e2 488D5008 		leaq	8(%rax), %rdx
 3269 13e6 488D8560 		leaq	-416(%rbp), %rax
 3269      FEFFFF
 3270 13ed 4889D6   		movq	%rdx, %rsi
 3271 13f0 4889C7   		movq	%rax, %rdi
 3272 13f3 E850FFFF 		call	_ZN12_GLOBAL__N_134DummyFixtureMacroTestHelper2HelperC2ERKN8UnitTest11TestDetailsE
 3272      FF
 3273 13f8 C6854FFE 		movb	$1, -433(%rbp)
 3273      FFFF01
 3274 13ff 488B8538 		movq	-456(%rbp), %rax
 3274      FEFFFF
 3275 1406 488D5008 		leaq	8(%rax), %rdx
 3276 140a 488D8560 		leaq	-416(%rbp), %rax
 3276      FEFFFF
 3277 1411 4889D6   		movq	%rdx, %rsi
 3278 1414 4889C7   		movq	%rax, %rdi
 3279              	.LEHB68:
 3280 1417 E8112300 		call	_ZN8UnitTest11ExecuteTestIN12_GLOBAL__N_134DummyFixtureMacroTestHelper2HelperEEEvRT_RKNS_11Te
 3280      00
 3281              	.LEHE68:
 3282              	.LBE65:
 3283              	.LBE64:
 3284 141c E9470200 		jmp	.L179
 3284      00
 3285              	.L174:
 3286 1421 4889C3   		movq	%rax, %rbx
 3287              	.LBB72:
 3288              	.LBB66:
 3289 1424 E8000000 		call	__cxa_end_catch
 3289      00
 3290 1429 4889D8   		movq	%rbx, %rax
 3291 142c 4889C7   		movq	%rax, %rdi
 3292              	.LEHB69:
 3293 142f E8000000 		call	_Unwind_Resume
 3293      00
 3294              	.LEHE69:
 3295              	.L175:
 3296 1434 4889C3   		movq	%rax, %rbx
 3297              	.LBE66:
 3298              	.LBB67:
 3299              	.LBB68:
 3300 1437 488D8580 		leaq	-384(%rbp), %rax
 3300      FEFFFF
 3301 143e 4889C7   		movq	%rax, %rdi
 3302 1441 E8000000 		call	_ZN8UnitTest15MemoryOutStreamD1Ev
 3302      00
 3303 1446 EB03     		jmp	.L163
 3304              	.L176:
 3305 1448 4889C3   		movq	%rax, %rbx
 3306              	.L163:
 3307              	.LBE68:
 3308 144b E8000000 		call	__cxa_end_catch
 3308      00
 3309 1450 4889D8   		movq	%rbx, %rax
 3310 1453 4889C7   		movq	%rax, %rdi
 3311              	.LEHB70:
 3312 1456 E8000000 		call	_Unwind_Resume
 3312      00
 3313              	.LEHE70:
 3314              	.L177:
 3315 145b 4889C3   		movq	%rax, %rbx
 3316              	.LBE67:
 3317 145e E8000000 		call	__cxa_end_catch
 3317      00
 3318 1463 4889D8   		movq	%rbx, %rax
 3319 1466 4889C7   		movq	%rax, %rdi
 3320              	.LEHB71:
 3321 1469 E8000000 		call	_Unwind_Resume
 3321      00
 3322              	.LEHE71:
 3323              	.L173:
 3324 146e 4883FA01 		cmpq	$1, %rdx
 3325 1472 740F     		je	.L167
 3326 1474 4883FA02 		cmpq	$2, %rdx
 3327 1478 0F84A700 		je	.L168
 3327      0000
 3328 147e E94B0100 		jmp	.L178
 3328      00
 3329              	.L167:
 3330              	.LBB70:
 3331 1483 4889C7   		movq	%rax, %rdi
 3332 1486 E8000000 		call	__cxa_begin_catch
 3332      00
 3333 148b 48898550 		movq	%rax, -432(%rbp)
 3333      FEFFFF
 3334 1492 488B8550 		movq	-432(%rbp), %rax
 3334      FEFFFF
 3335 1499 488B00   		movq	(%rax), %rax
 3336 149c 4883C010 		addq	$16, %rax
 3337 14a0 488B00   		movq	(%rax), %rax
 3338 14a3 488B9550 		movq	-432(%rbp), %rdx
 3338      FEFFFF
 3339 14aa 4889D7   		movq	%rdx, %rdi
 3340 14ad FFD0     		call	*%rax
 3341 14af 4889C3   		movq	%rax, %rbx
 3342 14b2 488B8550 		movq	-432(%rbp), %rax
 3342      FEFFFF
 3343 14b9 4889C7   		movq	%rax, %rdi
 3344              	.LEHB72:
 3345 14bc E8000000 		call	_ZNK8UnitTest15AssertException10LineNumberEv
 3345      00
 3346 14c1 4189C4   		movl	%eax, %r12d
 3347 14c4 488B8550 		movq	-432(%rbp), %rax
 3347      FEFFFF
 3348 14cb 4889C7   		movq	%rax, %rdi
 3349 14ce E8000000 		call	_ZNK8UnitTest15AssertException8FilenameEv
 3349      00
 3350              		.loc 6 96 0 is_stmt 0 discriminator 2
 3351 14d3 4889C1   		movq	%rax, %rcx
 3352 14d6 488B8538 		movq	-456(%rbp), %rax
 3352      FEFFFF
 3353 14dd 488B5008 		movq	8(%rax), %rdx
 3354 14e1 488B8538 		movq	-456(%rbp), %rax
 3354      FEFFFF
 3355 14e8 488B7010 		movq	16(%rax), %rsi
 3356 14ec 488D8560 		leaq	-416(%rbp), %rax
 3356      FEFFFF
 3357 14f3 4589E0   		movl	%r12d, %r8d
 3358 14f6 4889C7   		movq	%rax, %rdi
 3359 14f9 E8000000 		call	_ZN8UnitTest11TestDetailsC1EPKcS2_S2_i
 3359      00
 3360              		.loc 6 96 0 discriminator 6
 3361 14fe E8000000 		call	_ZN8UnitTest11CurrentTest7ResultsEv
 3361      00
 3362 1503 488B00   		movq	(%rax), %rax
 3363 1506 488D8D60 		leaq	-416(%rbp), %rcx
 3363      FEFFFF
 3364 150d 4889DA   		movq	%rbx, %rdx
 3365 1510 4889CE   		movq	%rcx, %rsi
 3366 1513 4889C7   		movq	%rax, %rdi
 3367 1516 E8000000 		call	_ZN8UnitTest11TestResults13OnTestFailureERKNS_11TestDetailsEPKc
 3367      00
 3368              	.LEHE72:
 3369              		.loc 6 96 0 discriminator 10
 3370 151b E8000000 		call	__cxa_end_catch
 3370      00
 3371              	.LBE70:
 3372              	.LBE72:
 3373 1520 E9430100 		jmp	.L179
 3373      00
 3374              	.L168:
 3375              	.LBB73:
 3376              	.LBB71:
 3377              		.loc 6 96 0
 3378 1525 4889C7   		movq	%rax, %rdi
 3379 1528 E8000000 		call	__cxa_begin_catch
 3379      00
 3380 152d 48898558 		movq	%rax, -424(%rbp)
 3380      FEFFFF
 3381              	.LBB69:
 3382 1534 488D8580 		leaq	-384(%rbp), %rax
 3382      FEFFFF
 3383 153b 4889C7   		movq	%rax, %rdi
 3384              	.LEHB73:
 3385 153e E8000000 		call	_ZN8UnitTest15MemoryOutStreamC1Ev
 3385      00
 3386              	.LEHE73:
 3387              		.loc 6 96 0 discriminator 12
 3388 1543 488B8558 		movq	-424(%rbp), %rax
 3388      FEFFFF
 3389 154a 488B00   		movq	(%rax), %rax
 3390 154d 4883C010 		addq	$16, %rax
 3391 1551 488B00   		movq	(%rax), %rax
 3392 1554 488B9558 		movq	-424(%rbp), %rdx
 3392      FEFFFF
 3393 155b 4889D7   		movq	%rdx, %rdi
 3394 155e FFD0     		call	*%rax
 3395 1560 4889C3   		movq	%rax, %rbx
 3396 1563 488D8580 		leaq	-384(%rbp), %rax
 3396      FEFFFF
 3397 156a BE000000 		movl	$.LC11, %esi
 3397      00
 3398 156f 4889C7   		movq	%rax, %rdi
 3399              	.LEHB74:
 3400 1572 E8000000 		call	_ZStlsISt11char_traitsIcEERSt13basic_ostreamIcT_ES5_PKc
 3400      00
 3401 1577 4889DE   		movq	%rbx, %rsi
 3402 157a 4889C7   		movq	%rax, %rdi
 3403 157d E8000000 		call	_ZStlsISt11char_traitsIcEERSt13basic_ostreamIcT_ES5_PKc
 3403      00
 3404              		.loc 6 96 0 discriminator 16
 3405 1582 488D8580 		leaq	-384(%rbp), %rax
 3405      FEFFFF
 3406 1589 4889C7   		movq	%rax, %rdi
 3407 158c E8000000 		call	_ZNK8UnitTest15MemoryOutStream7GetTextEv
 3407      00
 3408 1591 4989C4   		movq	%rax, %r12
 3409 1594 488B8538 		movq	-456(%rbp), %rax
 3409      FEFFFF
 3410 159b 488D5808 		leaq	8(%rax), %rbx
 3411 159f E8000000 		call	_ZN8UnitTest11CurrentTest7ResultsEv
 3411      00
 3412              		.loc 6 96 0 discriminator 18
 3413 15a4 488B00   		movq	(%rax), %rax
 3414 15a7 4C89E2   		movq	%r12, %rdx
 3415 15aa 4889DE   		movq	%rbx, %rsi
 3416 15ad 4889C7   		movq	%rax, %rdi
 3417 15b0 E8000000 		call	_ZN8UnitTest11TestResults13OnTestFailureERKNS_11TestDetailsEPKc
 3417      00
 3418              	.LEHE74:
 3419              		.loc 6 96 0 discriminator 22
 3420 15b5 488D8580 		leaq	-384(%rbp), %rax
 3420      FEFFFF
 3421 15bc 4889C7   		movq	%rax, %rdi
 3422              	.LEHB75:
 3423 15bf E8000000 		call	_ZN8UnitTest15MemoryOutStreamD1Ev
 3423      00
 3424              	.LEHE75:
 3425              	.LBE69:
 3426              		.loc 6 96 0 discriminator 23
 3427 15c4 E8000000 		call	__cxa_end_catch
 3427      00
 3428              	.LBE71:
 3429              	.LBE73:
 3430 15c9 E99A0000 		jmp	.L179
 3430      00
 3431              	.L178:
 3432              	.LBB74:
 3433              		.loc 6 96 0
 3434 15ce 4889C7   		movq	%rax, %rdi
 3435 15d1 E8000000 		call	__cxa_begin_catch
 3435      00
 3436 15d6 80BD4FFE 		cmpb	$0, -433(%rbp)
 3436      FFFF00
 3437 15dd 7443     		je	.L170
 3438              		.loc 6 96 0 discriminator 25
 3439 15df 488B8538 		movq	-456(%rbp), %rax
 3439      FEFFFF
 3440 15e6 488D4808 		leaq	8(%rax), %rcx
 3441 15ea 488D8560 		leaq	-416(%rbp), %rax
 3441      FEFFFF
 3442 15f1 BA600000 		movl	$96, %edx
 3442      00
 3443 15f6 4889CE   		movq	%rcx, %rsi
 3444 15f9 4889C7   		movq	%rax, %rdi
 3445              	.LEHB76:
 3446 15fc E8000000 		call	_ZN8UnitTest11TestDetailsC1ERKS0_i
 3446      00
 3447              		.loc 6 96 0 discriminator 28
 3448 1601 E8000000 		call	_ZN8UnitTest11CurrentTest7ResultsEv
 3448      00
 3449 1606 488B00   		movq	(%rax), %rax
 3450 1609 488D8D60 		leaq	-416(%rbp), %rcx
 3450      FEFFFF
 3451 1610 BA000000 		movl	$.LC27, %edx
 3451      00
 3452 1615 4889CE   		movq	%rcx, %rsi
 3453 1618 4889C7   		movq	%rax, %rdi
 3454 161b E8000000 		call	_ZN8UnitTest11TestResults13OnTestFailureERKNS_11TestDetailsEPKc
 3454      00
 3455 1620 EB41     		jmp	.L171
 3456              	.L170:
 3457              		.loc 6 96 0 discriminator 26
 3458 1622 488B8538 		movq	-456(%rbp), %rax
 3458      FEFFFF
 3459 1629 488D4808 		leaq	8(%rax), %rcx
 3460 162d 488D8560 		leaq	-416(%rbp), %rax
 3460      FEFFFF
 3461 1634 BA600000 		movl	$96, %edx
 3461      00
 3462 1639 4889CE   		movq	%rcx, %rsi
 3463 163c 4889C7   		movq	%rax, %rdi
 3464 163f E8000000 		call	_ZN8UnitTest11TestDetailsC1ERKS0_i
 3464      00
 3465              		.loc 6 96 0 discriminator 35
 3466 1644 E8000000 		call	_ZN8UnitTest11CurrentTest7ResultsEv
 3466      00
 3467 1649 488B00   		movq	(%rax), %rax
 3468 164c 488D8D60 		leaq	-416(%rbp), %rcx
 3468      FEFFFF
 3469 1653 BA000000 		movl	$.LC28, %edx
 3469      00
 3470 1658 4889CE   		movq	%rcx, %rsi
 3471 165b 4889C7   		movq	%rax, %rdi
 3472 165e E8000000 		call	_ZN8UnitTest11TestResults13OnTestFailureERKNS_11TestDetailsEPKc
 3472      00
 3473              	.LEHE76:
 3474              	.L171:
 3475              	.LEHB77:
 3476              		.loc 6 96 0 discriminator 40
 3477 1663 E8000000 		call	__cxa_end_catch
 3477      00
 3478              	.LEHE77:
 3479              	.L179:
 3480              	.LBE74:
 3481              		.loc 6 96 0
 3482 1668 90       		nop
 3483 1669 488B45E8 		movq	-24(%rbp), %rax
 3484 166d 64483304 		xorq	%fs:40, %rax
 3484      25280000 
 3484      00
 3485 1676 7405     		je	.L172
 3486 1678 E8000000 		call	__stack_chk_fail
 3486      00
 3487              	.L172:
 3488 167d 4881C4C0 		addq	$448, %rsp
 3488      010000
 3489 1684 5B       		popq	%rbx
 3490 1685 415C     		popq	%r12
 3491 1687 5D       		popq	%rbp
 3492              		.cfi_def_cfa 7, 8
 3493 1688 C3       		ret
 3494              		.cfi_endproc
 3495              	.LFE1150:
 3496              		.section	.gcc_except_table
 3497              		.align 4
 3498              	.LLSDA1150:
 3499 01c8 FF       		.byte	0xff
 3500 01c9 03       		.byte	0x3
 3501 01ca 49       		.uleb128 .LLSDATT1150-.LLSDATTD1150
 3502              	.LLSDATTD1150:
 3503 01cb 01       		.byte	0x1
 3504 01cc 35       		.uleb128 .LLSDACSE1150-.LLSDACSB1150
 3505              	.LLSDACSB1150:
 3506 01cd 67       		.uleb128 .LEHB68-.LFB1150
 3507 01ce 05       		.uleb128 .LEHE68-.LEHB68
 3508 01cf BE01     		.uleb128 .L173-.LFB1150
 3509 01d1 05       		.uleb128 0x5
 3510 01d2 7F       		.uleb128 .LEHB69-.LFB1150
 3511 01d3 05       		.uleb128 .LEHE69-.LEHB69
 3512 01d4 00       		.uleb128 0
 3513 01d5 00       		.uleb128 0
 3514 01d6 A601     		.uleb128 .LEHB70-.LFB1150
 3515 01d8 05       		.uleb128 .LEHE70-.LEHB70
 3516 01d9 00       		.uleb128 0
 3517 01da 00       		.uleb128 0
 3518 01db B901     		.uleb128 .LEHB71-.LFB1150
 3519 01dd 05       		.uleb128 .LEHE71-.LEHB71
 3520 01de 00       		.uleb128 0
 3521 01df 00       		.uleb128 0
 3522 01e0 8C02     		.uleb128 .LEHB72-.LFB1150
 3523 01e2 5F       		.uleb128 .LEHE72-.LEHB72
 3524 01e3 71       		.uleb128 .L174-.LFB1150
 3525 01e4 00       		.uleb128 0
 3526 01e5 8E03     		.uleb128 .LEHB73-.LFB1150
 3527 01e7 05       		.uleb128 .LEHE73-.LEHB73
 3528 01e8 9801     		.uleb128 .L176-.LFB1150
 3529 01ea 00       		.uleb128 0
 3530 01eb C203     		.uleb128 .LEHB74-.LFB1150
 3531 01ed 43       		.uleb128 .LEHE74-.LEHB74
 3532 01ee 8401     		.uleb128 .L175-.LFB1150
 3533 01f0 00       		.uleb128 0
 3534 01f1 8F04     		.uleb128 .LEHB75-.LFB1150
 3535 01f3 05       		.uleb128 .LEHE75-.LEHB75
 3536 01f4 9801     		.uleb128 .L176-.LFB1150
 3537 01f6 00       		.uleb128 0
 3538 01f7 CC04     		.uleb128 .LEHB76-.LFB1150
 3539 01f9 67       		.uleb128 .LEHE76-.LEHB76
 3540 01fa AB01     		.uleb128 .L177-.LFB1150
 3541 01fc 00       		.uleb128 0
 3542 01fd B305     		.uleb128 .LEHB77-.LFB1150
 3543 01ff 05       		.uleb128 .LEHE77-.LEHB77
 3544 0200 00       		.uleb128 0
 3545 0201 00       		.uleb128 0
 3546              	.LLSDACSE1150:
 3547 0202 03       		.byte	0x3
 3548 0203 00       		.byte	0
 3549 0204 02       		.byte	0x2
 3550 0205 7D       		.byte	0x7d
 3551 0206 01       		.byte	0x1
 3552 0207 7D       		.byte	0x7d
 3553              		.align 4
 3554 0208 00000000 		.long	0
 3555              	
 3556 020c 00000000 		.long	_ZTISt9exception
 3557 0210 00000000 		.long	_ZTIN8UnitTest15AssertExceptionE
 3558              	.LLSDATT1150:
 3559              		.text
 3561 1689 90       		.align 2
 3563              	_ZN12_GLOBAL__N_134DummyFixtureMacroTestHelper2Helper7RunImplEv:
 3564              	.LFB1151:
  97:TestTestMacros.cpp **** {
 3565              		.loc 6 97 0 is_stmt 1
 3566              		.cfi_startproc
 3567 168a 55       		pushq	%rbp
 3568              		.cfi_def_cfa_offset 16
 3569              		.cfi_offset 6, -16
 3570 168b 4889E5   		movq	%rsp, %rbp
 3571              		.cfi_def_cfa_register 6
 3572 168e 48897DF8 		movq	%rdi, -8(%rbp)
  98:TestTestMacros.cpp **** }
 3573              		.loc 6 98 0
 3574 1692 5D       		popq	%rbp
 3575              		.cfi_def_cfa 7, 8
 3576 1693 C3       		ret
 3577              		.cfi_endproc
 3578              	.LFE1151:
 3580              		.section	.rodata
 3581 0603 00000000 		.align 8
 3581      00
 3582              	.LC37:
 3583 0608 54657374 		.string	"TestAddedWithTEST_FIXTURE_EXMacroGetsDefaultSuite"
 3583      41646465 
 3583      64576974 
 3583      68544553 
 3583      545F4649 
 3584              		.text
 3585              		.align 2
 3587              	_ZN12_GLOBAL__N_153TestTestAddedWithTEST_FIXTURE_EXMacroGetsDefaultSuiteC2Ev:
 3588              	.LFB1153:
  99:TestTestMacros.cpp **** 
 100:TestTestMacros.cpp **** TEST(TestAddedWithTEST_FIXTURE_EXMacroGetsDefaultSuite)
 3589              		.loc 6 100 0
 3590              		.cfi_startproc
 3591 1694 55       		pushq	%rbp
 3592              		.cfi_def_cfa_offset 16
 3593              		.cfi_offset 6, -16
 3594 1695 4889E5   		movq	%rsp, %rbp
 3595              		.cfi_def_cfa_register 6
 3596 1698 4883EC10 		subq	$16, %rsp
 3597 169c 48897DF8 		movq	%rdi, -8(%rbp)
 3598              	.LBB75:
 3599              		.loc 6 100 0
 3600 16a0 E8000000 		call	_ZN13UnitTestSuite12GetSuiteNameEv
 3600      00
 3601 16a5 4889C2   		movq	%rax, %rdx
 3602 16a8 488B45F8 		movq	-8(%rbp), %rax
 3603 16ac 41B86400 		movl	$100, %r8d
 3603      0000
 3604 16b2 B9000000 		movl	$.LC2, %ecx
 3604      00
 3605 16b7 BE000000 		movl	$.LC37, %esi
 3605      00
 3606 16bc 4889C7   		movq	%rax, %rdi
 3607 16bf E8000000 		call	_ZN8UnitTest4TestC2EPKcS2_S2_i
 3607      00
 3608 16c4 488B45F8 		movq	-8(%rbp), %rax
 3609 16c8 48C70000 		movq	$_ZTVN12_GLOBAL__N_153TestTestAddedWithTEST_FIXTURE_EXMacroGetsDefaultSuiteE+16, (%rax)
 3609      000000
 3610              	.LBE75:
 3611 16cf C9       		leave
 3612              		.cfi_def_cfa 7, 8
 3613 16d0 C3       		ret
 3614              		.cfi_endproc
 3615              	.LFE1153:
 3617              		.local	_ZN12_GLOBAL__N_161testTestAddedWithTEST_FIXTURE_EXMacroGetsDefaultSuiteInstanceE
 3618              		.comm	_ZN12_GLOBAL__N_161testTestAddedWithTEST_FIXTURE_EXMacroGetsDefaultSuiteInstanceE,56,32
 3619              		.local	_ZN12_GLOBAL__N_154adderTestAddedWithTEST_FIXTURE_EXMacroGetsDefaultSuiteE
 3620              		.comm	_ZN12_GLOBAL__N_154adderTestAddedWithTEST_FIXTURE_EXMacroGetsDefaultSuiteE,1,1
 3621              		.section	.rodata
 3622 063a 00000000 		.align 8
 3622      0000
 3623              	.LC38:
 3624 0640 6D616372 		.string	"macroTestList2.GetHead() != NULL"
 3624      6F546573 
 3624      744C6973 
 3624      74322E47 
 3624      65744865 
 3625 0661 00000000 		.align 8
 3625      000000
 3626              	.LC39:
 3627 0668 556E6861 		.string	"Unhandled exception in CHECK(macroTestList2.GetHead() != NULL)"
 3627      6E646C65 
 3627      64206578 
 3627      63657074 
 3627      696F6E20 
 3628 06a7 00       		.align 8
 3629              	.LC40:
 3630 06a8 556E6861 		.string	"Unhandled exception in CHECK_EQUAL(\"MacroTestHelper2\", macroTestList2.GetHead()->m_deta
 3630      6E646C65 
 3630      64206578 
 3630      63657074 
 3630      696F6E20 
 3631 070d 000000   		.align 8
 3632              	.LC41:
 3633 0710 556E6861 		.string	"Unhandled exception in CHECK_EQUAL(\"DefaultSuite\", macroTestList2.GetHead()->m_details.
 3633      6E646C65 
 3633      64206578 
 3633      63657074 
 3633      696F6E20 
 3634              		.text
 3635 16d1 90       		.align 2
 3637              	_ZNK12_GLOBAL__N_153TestTestAddedWithTEST_FIXTURE_EXMacroGetsDefaultSuite7RunImplEv:
 3638              	.LFB1155:
 101:TestTestMacros.cpp **** {
 3639              		.loc 6 101 0
 3640              		.cfi_startproc
 3641              		.cfi_personality 0x3,__gxx_personality_v0
 3642              		.cfi_lsda 0x3,.LLSDA1155
 3643 16d2 55       		pushq	%rbp
 3644              		.cfi_def_cfa_offset 16
 3645              		.cfi_offset 6, -16
 3646 16d3 4889E5   		movq	%rsp, %rbp
 3647              		.cfi_def_cfa_register 6
 3648 16d6 53       		pushq	%rbx
 3649 16d7 4883EC48 		subq	$72, %rsp
 3650              		.cfi_offset 3, -24
 3651 16db 48897DB8 		movq	%rdi, -72(%rbp)
 3652              		.loc 6 101 0
 3653 16df 64488B04 		movq	%fs:40, %rax
 3653      25280000 
 3653      00
 3654 16e8 488945E8 		movq	%rax, -24(%rbp)
 3655 16ec 31C0     		xorl	%eax, %eax
 102:TestTestMacros.cpp ****     CHECK(macroTestList2.GetHead() != NULL);
 3656              		.loc 6 102 0
 3657 16ee BF000000 		movl	$_ZN12_GLOBAL__N_114macroTestList2E, %edi
 3657      00
 3658              	.LEHB78:
 3659 16f3 E8000000 		call	_ZNK8UnitTest8TestList7GetHeadEv
 3659      00
 3660 16f8 4885C0   		testq	%rax, %rax
 3661 16fb 0F95C0   		setne	%al
 3662 16fe 0FB6C0   		movzbl	%al, %eax
 3663 1701 89C7     		movl	%eax, %edi
 3664 1703 E8000000 		call	_ZN8UnitTest5CheckIbEEbT_
 3664      00
 3665 1708 83F001   		xorl	$1, %eax
 3666 170b 84C0     		testb	%al, %al
 3667 170d 7438     		je	.L183
 3668              		.loc 6 102 0 is_stmt 0 discriminator 2
 3669 170f E8000000 		call	_ZN8UnitTest11CurrentTest7DetailsEv
 3669      00
 3670 1714 488B08   		movq	(%rax), %rcx
 3671 1717 488D45C0 		leaq	-64(%rbp), %rax
 3672 171b BA660000 		movl	$102, %edx
 3672      00
 3673 1720 4889CE   		movq	%rcx, %rsi
 3674 1723 4889C7   		movq	%rax, %rdi
 3675 1726 E8000000 		call	_ZN8UnitTest11TestDetailsC1ERKS0_i
 3675      00
 3676              		.loc 6 102 0 discriminator 4
 3677 172b E8000000 		call	_ZN8UnitTest11CurrentTest7ResultsEv
 3677      00
 3678 1730 488B00   		movq	(%rax), %rax
 3679 1733 488D4DC0 		leaq	-64(%rbp), %rcx
 3680 1737 BA000000 		movl	$.LC38, %edx
 3680      00
 3681 173c 4889CE   		movq	%rcx, %rsi
 3682 173f 4889C7   		movq	%rax, %rdi
 3683 1742 E8000000 		call	_ZN8UnitTest11TestResults13OnTestFailureERKNS_11TestDetailsEPKc
 3683      00
 3684              	.LEHE78:
 3685              	.L183:
 3686              	.LEHB79:
 103:TestTestMacros.cpp ****     CHECK_EQUAL ("MacroTestHelper2", macroTestList2.GetHead()->m_details.testName);
 3687              		.loc 6 103 0 is_stmt 1
 3688 1747 E8000000 		call	_ZN8UnitTest11CurrentTest7DetailsEv
 3688      00
 3689 174c 488B08   		movq	(%rax), %rcx
 3690 174f 488D45C0 		leaq	-64(%rbp), %rax
 3691 1753 BA670000 		movl	$103, %edx
 3691      00
 3692 1758 4889CE   		movq	%rcx, %rsi
 3693 175b 4889C7   		movq	%rax, %rdi
 3694 175e E8000000 		call	_ZN8UnitTest11TestDetailsC1ERKS0_i
 3694      00
 3695              		.loc 6 103 0 is_stmt 0 discriminator 2
 3696 1763 BF000000 		movl	$_ZN12_GLOBAL__N_114macroTestList2E, %edi
 3696      00
 3697 1768 E8000000 		call	_ZNK8UnitTest8TestList7GetHeadEv
 3697      00
 3698 176d 488B5810 		movq	16(%rax), %rbx
 3699 1771 E8000000 		call	_ZN8UnitTest11CurrentTest7ResultsEv
 3699      00
 3700              		.loc 6 103 0 discriminator 4
 3701 1776 488B00   		movq	(%rax), %rax
 3702 1779 488D55C0 		leaq	-64(%rbp), %rdx
 3703 177d 4889D1   		movq	%rdx, %rcx
 3704 1780 4889DA   		movq	%rbx, %rdx
 3705 1783 BE000000 		movl	$.LC36, %esi
 3705      00
 3706 1788 4889C7   		movq	%rax, %rdi
 3707 178b E8000000 		call	_ZN8UnitTest10CheckEqualERNS_11TestResultsEPKcS3_RKNS_11TestDetailsE
 3707      00
 3708              	.LEHE79:
 3709              	.L188:
 3710              	.LEHB80:
 104:TestTestMacros.cpp ****     CHECK_EQUAL ("DefaultSuite", macroTestList2.GetHead()->m_details.suiteName);
 3711              		.loc 6 104 0 is_stmt 1
 3712 1790 E8000000 		call	_ZN8UnitTest11CurrentTest7DetailsEv
 3712      00
 3713 1795 488B08   		movq	(%rax), %rcx
 3714 1798 488D45C0 		leaq	-64(%rbp), %rax
 3715 179c BA680000 		movl	$104, %edx
 3715      00
 3716 17a1 4889CE   		movq	%rcx, %rsi
 3717 17a4 4889C7   		movq	%rax, %rdi
 3718 17a7 E8000000 		call	_ZN8UnitTest11TestDetailsC1ERKS0_i
 3718      00
 3719              		.loc 6 104 0 is_stmt 0 discriminator 2
 3720 17ac BF000000 		movl	$_ZN12_GLOBAL__N_114macroTestList2E, %edi
 3720      00
 3721 17b1 E8000000 		call	_ZNK8UnitTest8TestList7GetHeadEv
 3721      00
 3722 17b6 488B5808 		movq	8(%rax), %rbx
 3723 17ba E8000000 		call	_ZN8UnitTest11CurrentTest7ResultsEv
 3723      00
 3724              		.loc 6 104 0 discriminator 4
 3725 17bf 488B00   		movq	(%rax), %rax
 3726 17c2 488D55C0 		leaq	-64(%rbp), %rdx
 3727 17c6 4889D1   		movq	%rdx, %rcx
 3728 17c9 4889DA   		movq	%rbx, %rdx
 3729 17cc BE000000 		movl	$.LC0, %esi
 3729      00
 3730 17d1 4889C7   		movq	%rax, %rdi
 3731 17d4 E8000000 		call	_ZN8UnitTest10CheckEqualERNS_11TestResultsEPKcS3_RKNS_11TestDetailsE
 3731      00
 3732              	.LEHE80:
 105:TestTestMacros.cpp **** }
 3733              		.loc 6 105 0 is_stmt 1
 3734 17d9 E9120100 		jmp	.L199
 3734      00
 3735              	.L194:
 3736 17de 4889C3   		movq	%rax, %rbx
 102:TestTestMacros.cpp ****     CHECK_EQUAL ("MacroTestHelper2", macroTestList2.GetHead()->m_details.testName);
 3737              		.loc 6 102 0
 3738 17e1 E8000000 		call	__cxa_end_catch
 3738      00
 3739 17e6 4889D8   		movq	%rbx, %rax
 3740 17e9 4889C7   		movq	%rax, %rdi
 3741              	.LEHB81:
 3742 17ec E8000000 		call	_Unwind_Resume
 3742      00
 3743              	.LEHE81:
 3744              	.L193:
 3745 17f1 4889C7   		movq	%rax, %rdi
 3746 17f4 E8000000 		call	__cxa_begin_catch
 3746      00
 3747              	.LEHB82:
 3748 17f9 E8000000 		call	_ZN8UnitTest11CurrentTest7DetailsEv
 3748      00
 3749 17fe 488B08   		movq	(%rax), %rcx
 3750 1801 488D45C0 		leaq	-64(%rbp), %rax
 3751 1805 BA660000 		movl	$102, %edx
 3751      00
 3752 180a 4889CE   		movq	%rcx, %rsi
 3753 180d 4889C7   		movq	%rax, %rdi
 3754 1810 E8000000 		call	_ZN8UnitTest11TestDetailsC1ERKS0_i
 3754      00
 102:TestTestMacros.cpp ****     CHECK_EQUAL ("MacroTestHelper2", macroTestList2.GetHead()->m_details.testName);
 3755              		.loc 6 102 0 is_stmt 0 discriminator 12
 3756 1815 E8000000 		call	_ZN8UnitTest11CurrentTest7ResultsEv
 3756      00
 3757 181a 488B00   		movq	(%rax), %rax
 3758 181d 488D4DC0 		leaq	-64(%rbp), %rcx
 3759 1821 BA000000 		movl	$.LC39, %edx
 3759      00
 3760 1826 4889CE   		movq	%rcx, %rsi
 3761 1829 4889C7   		movq	%rax, %rdi
 3762 182c E8000000 		call	_ZN8UnitTest11TestResults13OnTestFailureERKNS_11TestDetailsEPKc
 3762      00
 3763              	.LEHE82:
 3764              	.LEHB83:
 102:TestTestMacros.cpp ****     CHECK_EQUAL ("MacroTestHelper2", macroTestList2.GetHead()->m_details.testName);
 3765              		.loc 6 102 0 discriminator 16
 3766 1831 E8000000 		call	__cxa_end_catch
 3766      00
 3767              	.LEHE83:
 3768 1836 E90CFFFF 		jmp	.L183
 3768      FF
 3769              	.L196:
 3770 183b 4889C3   		movq	%rax, %rbx
 103:TestTestMacros.cpp ****     CHECK_EQUAL ("DefaultSuite", macroTestList2.GetHead()->m_details.suiteName);
 3771              		.loc 6 103 0 is_stmt 1
 3772 183e E8000000 		call	__cxa_end_catch
 3772      00
 3773 1843 4889D8   		movq	%rbx, %rax
 3774 1846 4889C7   		movq	%rax, %rdi
 3775              	.LEHB84:
 3776 1849 E8000000 		call	_Unwind_Resume
 3776      00
 3777              	.LEHE84:
 3778              	.L195:
 3779 184e 4889C7   		movq	%rax, %rdi
 3780 1851 E8000000 		call	__cxa_begin_catch
 3780      00
 3781              	.LEHB85:
 3782 1856 E8000000 		call	_ZN8UnitTest11CurrentTest7DetailsEv
 3782      00
 3783 185b 488B08   		movq	(%rax), %rcx
 3784 185e 488D45C0 		leaq	-64(%rbp), %rax
 3785 1862 BA670000 		movl	$103, %edx
 3785      00
 3786 1867 4889CE   		movq	%rcx, %rsi
 3787 186a 4889C7   		movq	%rax, %rdi
 3788 186d E8000000 		call	_ZN8UnitTest11TestDetailsC1ERKS0_i
 3788      00
 103:TestTestMacros.cpp ****     CHECK_EQUAL ("DefaultSuite", macroTestList2.GetHead()->m_details.suiteName);
 3789              		.loc 6 103 0 is_stmt 0 discriminator 12
 3790 1872 E8000000 		call	_ZN8UnitTest11CurrentTest7ResultsEv
 3790      00
 3791 1877 488B00   		movq	(%rax), %rax
 3792 187a 488D4DC0 		leaq	-64(%rbp), %rcx
 3793 187e BA000000 		movl	$.LC40, %edx
 3793      00
 3794 1883 4889CE   		movq	%rcx, %rsi
 3795 1886 4889C7   		movq	%rax, %rdi
 3796 1889 E8000000 		call	_ZN8UnitTest11TestResults13OnTestFailureERKNS_11TestDetailsEPKc
 3796      00
 3797              	.LEHE85:
 3798              	.LEHB86:
 103:TestTestMacros.cpp ****     CHECK_EQUAL ("DefaultSuite", macroTestList2.GetHead()->m_details.suiteName);
 3799              		.loc 6 103 0 discriminator 16
 3800 188e E8000000 		call	__cxa_end_catch
 3800      00
 3801              	.LEHE86:
 3802 1893 E9F8FEFF 		jmp	.L188
 3802      FF
 3803              	.L198:
 3804 1898 4889C3   		movq	%rax, %rbx
 104:TestTestMacros.cpp **** }
 3805              		.loc 6 104 0 is_stmt 1
 3806 189b E8000000 		call	__cxa_end_catch
 3806      00
 3807 18a0 4889D8   		movq	%rbx, %rax
 3808 18a3 4889C7   		movq	%rax, %rdi
 3809              	.LEHB87:
 3810 18a6 E8000000 		call	_Unwind_Resume
 3810      00
 3811              	.LEHE87:
 3812              	.L197:
 3813 18ab 4889C7   		movq	%rax, %rdi
 3814 18ae E8000000 		call	__cxa_begin_catch
 3814      00
 3815              	.LEHB88:
 3816 18b3 E8000000 		call	_ZN8UnitTest11CurrentTest7DetailsEv
 3816      00
 3817 18b8 488B08   		movq	(%rax), %rcx
 3818 18bb 488D45C0 		leaq	-64(%rbp), %rax
 3819 18bf BA680000 		movl	$104, %edx
 3819      00
 3820 18c4 4889CE   		movq	%rcx, %rsi
 3821 18c7 4889C7   		movq	%rax, %rdi
 3822 18ca E8000000 		call	_ZN8UnitTest11TestDetailsC1ERKS0_i
 3822      00
 104:TestTestMacros.cpp **** }
 3823              		.loc 6 104 0 is_stmt 0 discriminator 12
 3824 18cf E8000000 		call	_ZN8UnitTest11CurrentTest7ResultsEv
 3824      00
 3825 18d4 488B00   		movq	(%rax), %rax
 3826 18d7 488D4DC0 		leaq	-64(%rbp), %rcx
 3827 18db BA000000 		movl	$.LC41, %edx
 3827      00
 3828 18e0 4889CE   		movq	%rcx, %rsi
 3829 18e3 4889C7   		movq	%rax, %rdi
 3830 18e6 E8000000 		call	_ZN8UnitTest11TestResults13OnTestFailureERKNS_11TestDetailsEPKc
 3830      00
 3831              	.LEHE88:
 3832              	.LEHB89:
 104:TestTestMacros.cpp **** }
 3833              		.loc 6 104 0 discriminator 16
 3834 18eb E8000000 		call	__cxa_end_catch
 3834      00
 3835              	.LEHE89:
 3836              	.L199:
 3837              		.loc 6 105 0 is_stmt 1
 3838 18f0 90       		nop
 3839 18f1 488B45E8 		movq	-24(%rbp), %rax
 3840 18f5 64483304 		xorq	%fs:40, %rax
 3840      25280000 
 3840      00
 3841 18fe 7405     		je	.L192
 3842 1900 E8000000 		call	__stack_chk_fail
 3842      00
 3843              	.L192:
 3844 1905 4883C448 		addq	$72, %rsp
 3845 1909 5B       		popq	%rbx
 3846 190a 5D       		popq	%rbp
 3847              		.cfi_def_cfa 7, 8
 3848 190b C3       		ret
 3849              		.cfi_endproc
 3850              	.LFE1155:
 3851              		.section	.gcc_except_table
 3852              		.align 4
 3853              	.LLSDA1155:
 3854 0214 FF       		.byte	0xff
 3855 0215 03       		.byte	0x3
 3856 0216 49       		.uleb128 .LLSDATT1155-.LLSDATTD1155
 3857              	.LLSDATTD1155:
 3858 0217 01       		.byte	0x1
 3859 0218 40       		.uleb128 .LLSDACSE1155-.LLSDACSB1155
 3860              	.LLSDACSB1155:
 3861 0219 21       		.uleb128 .LEHB78-.LFB1155
 3862 021a 54       		.uleb128 .LEHE78-.LEHB78
 3863 021b 9F02     		.uleb128 .L193-.LFB1155
 3864 021d 01       		.uleb128 0x1
 3865 021e 75       		.uleb128 .LEHB79-.LFB1155
 3866 021f 49       		.uleb128 .LEHE79-.LEHB79
 3867 0220 FC02     		.uleb128 .L195-.LFB1155
 3868 0222 01       		.uleb128 0x1
 3869 0223 BE01     		.uleb128 .LEHB80-.LFB1155
 3870 0225 49       		.uleb128 .LEHE80-.LEHB80
 3871 0226 D903     		.uleb128 .L197-.LFB1155
 3872 0228 01       		.uleb128 0x1
 3873 0229 9A02     		.uleb128 .LEHB81-.LFB1155
 3874 022b 05       		.uleb128 .LEHE81-.LEHB81
 3875 022c 00       		.uleb128 0
 3876 022d 00       		.uleb128 0
 3877 022e A702     		.uleb128 .LEHB82-.LFB1155
 3878 0230 38       		.uleb128 .LEHE82-.LEHB82
 3879 0231 8C02     		.uleb128 .L194-.LFB1155
 3880 0233 00       		.uleb128 0
 3881 0234 DF02     		.uleb128 .LEHB83-.LFB1155
 3882 0236 05       		.uleb128 .LEHE83-.LEHB83
 3883 0237 00       		.uleb128 0
 3884 0238 00       		.uleb128 0
 3885 0239 F702     		.uleb128 .LEHB84-.LFB1155
 3886 023b 05       		.uleb128 .LEHE84-.LEHB84
 3887 023c 00       		.uleb128 0
 3888 023d 00       		.uleb128 0
 3889 023e 8403     		.uleb128 .LEHB85-.LFB1155
 3890 0240 38       		.uleb128 .LEHE85-.LEHB85
 3891 0241 E902     		.uleb128 .L196-.LFB1155
 3892 0243 00       		.uleb128 0
 3893 0244 BC03     		.uleb128 .LEHB86-.LFB1155
 3894 0246 05       		.uleb128 .LEHE86-.LEHB86
 3895 0247 00       		.uleb128 0
 3896 0248 00       		.uleb128 0
 3897 0249 D403     		.uleb128 .LEHB87-.LFB1155
 3898 024b 05       		.uleb128 .LEHE87-.LEHB87
 3899 024c 00       		.uleb128 0
 3900 024d 00       		.uleb128 0
 3901 024e E103     		.uleb128 .LEHB88-.LFB1155
 3902 0250 38       		.uleb128 .LEHE88-.LEHB88
 3903 0251 C603     		.uleb128 .L198-.LFB1155
 3904 0253 00       		.uleb128 0
 3905 0254 9904     		.uleb128 .LEHB89-.LFB1155
 3906 0256 05       		.uleb128 .LEHE89-.LEHB89
 3907 0257 00       		.uleb128 0
 3908 0258 00       		.uleb128 0
 3909              	.LLSDACSE1155:
 3910 0259 01       		.byte	0x1
 3911 025a 00       		.byte	0
 3912 025b 00       		.align 4
 3913 025c 00000000 		.long	0
 3914              	
 3915              	.LLSDATT1155:
 3916              		.text
 3918              		.section	.rodata
 3919              	.LC42:
 3920 0772 65786365 		.string	"exception"
 3920      7074696F 
 3920      6E00
 3921              		.text
 3922              		.align 2
 3924              	_ZN12_GLOBAL__N_117FixtureCtorThrowsC2Ev:
 3925              	.LFB1157:
 106:TestTestMacros.cpp **** 
 107:TestTestMacros.cpp **** struct FixtureCtorThrows
 108:TestTestMacros.cpp **** {
 109:TestTestMacros.cpp **** 	FixtureCtorThrows()	{ throw "exception"; }
 3926              		.loc 6 109 0
 3927              		.cfi_startproc
 3928 190c 55       		pushq	%rbp
 3929              		.cfi_def_cfa_offset 16
 3930              		.cfi_offset 6, -16
 3931 190d 4889E5   		movq	%rsp, %rbp
 3932              		.cfi_def_cfa_register 6
 3933 1910 4883EC10 		subq	$16, %rsp
 3934 1914 48897DF8 		movq	%rdi, -8(%rbp)
 3935              	.LBB76:
 3936              		.loc 6 109 0
 3937 1918 BF080000 		movl	$8, %edi
 3937      00
 3938 191d E8000000 		call	__cxa_allocate_exception
 3938      00
 3939 1922 48C70000 		movq	$.LC42, (%rax)
 3939      000000
 3940 1929 BA000000 		movl	$0, %edx
 3940      00
 3941 192e BE000000 		movl	$_ZTIPKc, %esi
 3941      00
 3942 1933 4889C7   		movq	%rax, %rdi
 3943 1936 E8000000 		call	__cxa_throw
 3943      00
 3944              	.LBE76:
 3945              		.cfi_endproc
 3946              	.LFE1157:
 3948              		.local	_ZN12_GLOBAL__N_124throwingFixtureTestList1E
 3949              		.comm	_ZN12_GLOBAL__N_124throwingFixtureTestList1E,16,16
 3950 193b 90       		.align 2
 3952              	_ZN12_GLOBAL__N_148FixtureCtorThrowsFixtureCtorThrowsTestNameHelperC2ERKN8UnitTest11TestDetailsE:
 3953              	.LFB1160:
 110:TestTestMacros.cpp **** };
 111:TestTestMacros.cpp **** 
 112:TestTestMacros.cpp **** TestList throwingFixtureTestList1;
 113:TestTestMacros.cpp **** TEST_FIXTURE_EX(FixtureCtorThrows, FixtureCtorThrowsTestName, throwingFixtureTestList1)
 3954              		.loc 6 113 0
 3955              		.cfi_startproc
 3956 193c 55       		pushq	%rbp
 3957              		.cfi_def_cfa_offset 16
 3958              		.cfi_offset 6, -16
 3959 193d 4889E5   		movq	%rsp, %rbp
 3960              		.cfi_def_cfa_register 6
 3961 1940 4883EC10 		subq	$16, %rsp
 3962 1944 48897DF8 		movq	%rdi, -8(%rbp)
 3963 1948 488975F0 		movq	%rsi, -16(%rbp)
 3964              	.LBB77:
 3965              		.loc 6 113 0
 3966 194c 488B45F8 		movq	-8(%rbp), %rax
 3967 1950 4889C7   		movq	%rax, %rdi
 3968 1953 E8B4FFFF 		call	_ZN12_GLOBAL__N_117FixtureCtorThrowsC2Ev
 3968      FF
 3969 1958 488B45F8 		movq	-8(%rbp), %rax
 3970 195c 488B55F0 		movq	-16(%rbp), %rdx
 3971 1960 488910   		movq	%rdx, (%rax)
 3972              	.LBE77:
 3973 1963 C9       		leave
 3974              		.cfi_def_cfa 7, 8
 3975 1964 C3       		ret
 3976              		.cfi_endproc
 3977              	.LFE1160:
 3979              		.section	.rodata
 3980              	.LC43:
 3981 077c 46697874 		.string	"FixtureCtorThrowsTestName"
 3981      75726543 
 3981      746F7254 
 3981      68726F77 
 3981      73546573 
 3982              		.text
 3983 1965 90       		.align 2
 3985              	_ZN12_GLOBAL__N_146TestFixtureCtorThrowsFixtureCtorThrowsTestNameC2Ev:
 3986              	.LFB1163:
 3987              		.loc 6 113 0
 3988              		.cfi_startproc
 3989 1966 55       		pushq	%rbp
 3990              		.cfi_def_cfa_offset 16
 3991              		.cfi_offset 6, -16
 3992 1967 4889E5   		movq	%rsp, %rbp
 3993              		.cfi_def_cfa_register 6
 3994 196a 4883EC10 		subq	$16, %rsp
 3995 196e 48897DF8 		movq	%rdi, -8(%rbp)
 3996              	.LBB78:
 3997              		.loc 6 113 0
 3998 1972 E8000000 		call	_ZN13UnitTestSuite12GetSuiteNameEv
 3998      00
 3999 1977 4889C2   		movq	%rax, %rdx
 4000 197a 488B45F8 		movq	-8(%rbp), %rax
 4001 197e 41B87100 		movl	$113, %r8d
 4001      0000
 4002 1984 B9000000 		movl	$.LC2, %ecx
 4002      00
 4003 1989 BE000000 		movl	$.LC43, %esi
 4003      00
 4004 198e 4889C7   		movq	%rax, %rdi
 4005 1991 E8000000 		call	_ZN8UnitTest4TestC2EPKcS2_S2_i
 4005      00
 4006 1996 488B45F8 		movq	-8(%rbp), %rax
 4007 199a 48C70000 		movq	$_ZTVN12_GLOBAL__N_146TestFixtureCtorThrowsFixtureCtorThrowsTestNameE+16, (%rax)
 4007      000000
 4008              	.LBE78:
 4009 19a1 C9       		leave
 4010              		.cfi_def_cfa 7, 8
 4011 19a2 C3       		ret
 4012              		.cfi_endproc
 4013              	.LFE1163:
 4015              		.local	_ZN12_GLOBAL__N_154testFixtureCtorThrowsFixtureCtorThrowsTestNameInstanceE
 4016              		.comm	_ZN12_GLOBAL__N_154testFixtureCtorThrowsFixtureCtorThrowsTestNameInstanceE,56,32
 4017              		.local	_ZN12_GLOBAL__N_147adderFixtureCtorThrowsFixtureCtorThrowsTestNameE
 4018              		.comm	_ZN12_GLOBAL__N_147adderFixtureCtorThrowsFixtureCtorThrowsTestNameE,1,1
 4019              		.section	.rodata
 4020 0796 0000     		.align 8
 4021              	.LC44:
 4022 0798 556E6861 		.string	"Unhandled exception while destroying fixture FixtureCtorThrows"
 4022      6E646C65 
 4022      64206578 
 4022      63657074 
 4022      696F6E20 
 4023 07d7 00       		.align 8
 4024              	.LC45:
 4025 07d8 556E6861 		.string	"Unhandled exception while constructing fixture FixtureCtorThrows"
 4025      6E646C65 
 4025      64206578 
 4025      63657074 
 4025      696F6E20 
 4026              		.text
 4027 19a3 90       		.align 2
 4029              	_ZNK12_GLOBAL__N_146TestFixtureCtorThrowsFixtureCtorThrowsTestName7RunImplEv:
 4030              	.LFB1165:
 4031              		.loc 6 113 0
 4032              		.cfi_startproc
 4033              		.cfi_personality 0x3,__gxx_personality_v0
 4034              		.cfi_lsda 0x3,.LLSDA1165
 4035 19a4 55       		pushq	%rbp
 4036              		.cfi_def_cfa_offset 16
 4037              		.cfi_offset 6, -16
 4038 19a5 4889E5   		movq	%rsp, %rbp
 4039              		.cfi_def_cfa_register 6
 4040 19a8 4154     		pushq	%r12
 4041 19aa 53       		pushq	%rbx
 4042 19ab 4881ECC0 		subq	$448, %rsp
 4042      010000
 4043              		.cfi_offset 12, -24
 4044              		.cfi_offset 3, -32
 4045 19b2 4889BD38 		movq	%rdi, -456(%rbp)
 4045      FEFFFF
 4046              		.loc 6 113 0
 4047 19b9 64488B04 		movq	%fs:40, %rax
 4047      25280000 
 4047      00
 4048 19c2 488945E8 		movq	%rax, -24(%rbp)
 4049 19c6 31C0     		xorl	%eax, %eax
 4050              	.LBB79:
 4051 19c8 C6854FFE 		movb	$0, -433(%rbp)
 4051      FFFF00
 4052              	.LBB80:
 4053 19cf 488B8538 		movq	-456(%rbp), %rax
 4053      FEFFFF
 4054 19d6 488D5008 		leaq	8(%rax), %rdx
 4055 19da 488D8560 		leaq	-416(%rbp), %rax
 4055      FEFFFF
 4056 19e1 4889D6   		movq	%rdx, %rsi
 4057 19e4 4889C7   		movq	%rax, %rdi
 4058              	.LEHB90:
 4059 19e7 E850FFFF 		call	_ZN12_GLOBAL__N_148FixtureCtorThrowsFixtureCtorThrowsTestNameHelperC2ERKN8UnitTest11TestDetai
 4059      FF
 4060              		.loc 6 113 0 is_stmt 0 discriminator 1
 4061 19ec C6854FFE 		movb	$1, -433(%rbp)
 4061      FFFF01
 4062 19f3 488B8538 		movq	-456(%rbp), %rax
 4062      FEFFFF
 4063 19fa 488D5008 		leaq	8(%rax), %rdx
 4064 19fe 488D8560 		leaq	-416(%rbp), %rax
 4064      FEFFFF
 4065 1a05 4889D6   		movq	%rdx, %rsi
 4066 1a08 4889C7   		movq	%rax, %rdi
 4067 1a0b E8DB1F00 		call	_ZN8UnitTest11ExecuteTestIN12_GLOBAL__N_148FixtureCtorThrowsFixtureCtorThrowsTestNameHelperEE
 4067      00
 4068              	.LEHE90:
 4069              	.LBE80:
 4070              	.LBE79:
 4071              		.loc 6 113 0
 4072 1a10 E9470200 		jmp	.L222
 4072      00
 4073              	.L216:
 4074 1a15 4883FA01 		cmpq	$1, %rdx
 4075 1a19 745C     		je	.L206
 4076 1a1b 4883FA02 		cmpq	$2, %rdx
 4077 1a1f 0F84F400 		je	.L207
 4077      0000
 4078 1a25 E9980100 		jmp	.L221
 4078      00
 4079              	.L217:
 4080 1a2a 4889C3   		movq	%rax, %rbx
 4081              	.LBB87:
 4082              	.LBB81:
 4083 1a2d E8000000 		call	__cxa_end_catch
 4083      00
 4084 1a32 4889D8   		movq	%rbx, %rax
 4085 1a35 4889C7   		movq	%rax, %rdi
 4086              	.LEHB91:
 4087 1a38 E8000000 		call	_Unwind_Resume
 4087      00
 4088              	.LEHE91:
 4089              	.L218:
 4090 1a3d 4889C3   		movq	%rax, %rbx
 4091              	.LBE81:
 4092              	.LBB82:
 4093              	.LBB83:
 4094 1a40 488D8580 		leaq	-384(%rbp), %rax
 4094      FEFFFF
 4095 1a47 4889C7   		movq	%rax, %rdi
 4096 1a4a E8000000 		call	_ZN8UnitTest15MemoryOutStreamD1Ev
 4096      00
 4097 1a4f EB03     		jmp	.L210
 4098              	.L219:
 4099 1a51 4889C3   		movq	%rax, %rbx
 4100              	.L210:
 4101              	.LBE83:
 4102 1a54 E8000000 		call	__cxa_end_catch
 4102      00
 4103 1a59 4889D8   		movq	%rbx, %rax
 4104 1a5c 4889C7   		movq	%rax, %rdi
 4105              	.LEHB92:
 4106 1a5f E8000000 		call	_Unwind_Resume
 4106      00
 4107              	.LEHE92:
 4108              	.L220:
 4109 1a64 4889C3   		movq	%rax, %rbx
 4110              	.LBE82:
 4111 1a67 E8000000 		call	__cxa_end_catch
 4111      00
 4112 1a6c 4889D8   		movq	%rbx, %rax
 4113 1a6f 4889C7   		movq	%rax, %rdi
 4114              	.LEHB93:
 4115 1a72 E8000000 		call	_Unwind_Resume
 4115      00
 4116              	.LEHE93:
 4117              	.L206:
 4118              	.LBB85:
 4119 1a77 4889C7   		movq	%rax, %rdi
 4120 1a7a E8000000 		call	__cxa_begin_catch
 4120      00
 4121 1a7f 48898550 		movq	%rax, -432(%rbp)
 4121      FEFFFF
 4122 1a86 488B8550 		movq	-432(%rbp), %rax
 4122      FEFFFF
 4123 1a8d 488B00   		movq	(%rax), %rax
 4124 1a90 4883C010 		addq	$16, %rax
 4125 1a94 488B00   		movq	(%rax), %rax
 4126 1a97 488B9550 		movq	-432(%rbp), %rdx
 4126      FEFFFF
 4127 1a9e 4889D7   		movq	%rdx, %rdi
 4128 1aa1 FFD0     		call	*%rax
 4129 1aa3 4889C3   		movq	%rax, %rbx
 4130 1aa6 488B8550 		movq	-432(%rbp), %rax
 4130      FEFFFF
 4131 1aad 4889C7   		movq	%rax, %rdi
 4132              	.LEHB94:
 4133 1ab0 E8000000 		call	_ZNK8UnitTest15AssertException10LineNumberEv
 4133      00
 4134 1ab5 4189C4   		movl	%eax, %r12d
 4135 1ab8 488B8550 		movq	-432(%rbp), %rax
 4135      FEFFFF
 4136 1abf 4889C7   		movq	%rax, %rdi
 4137 1ac2 E8000000 		call	_ZNK8UnitTest15AssertException8FilenameEv
 4137      00
 4138              		.loc 6 113 0 discriminator 3
 4139 1ac7 4889C1   		movq	%rax, %rcx
 4140 1aca 488B8538 		movq	-456(%rbp), %rax
 4140      FEFFFF
 4141 1ad1 488B5008 		movq	8(%rax), %rdx
 4142 1ad5 488B8538 		movq	-456(%rbp), %rax
 4142      FEFFFF
 4143 1adc 488B7010 		movq	16(%rax), %rsi
 4144 1ae0 488D8560 		leaq	-416(%rbp), %rax
 4144      FEFFFF
 4145 1ae7 4589E0   		movl	%r12d, %r8d
 4146 1aea 4889C7   		movq	%rax, %rdi
 4147 1aed E8000000 		call	_ZN8UnitTest11TestDetailsC1EPKcS2_S2_i
 4147      00
 4148              		.loc 6 113 0 discriminator 7
 4149 1af2 E8000000 		call	_ZN8UnitTest11CurrentTest7ResultsEv
 4149      00
 4150 1af7 488B00   		movq	(%rax), %rax
 4151 1afa 488D8D60 		leaq	-416(%rbp), %rcx
 4151      FEFFFF
 4152 1b01 4889DA   		movq	%rbx, %rdx
 4153 1b04 4889CE   		movq	%rcx, %rsi
 4154 1b07 4889C7   		movq	%rax, %rdi
 4155 1b0a E8000000 		call	_ZN8UnitTest11TestResults13OnTestFailureERKNS_11TestDetailsEPKc
 4155      00
 4156              	.LEHE94:
 4157              		.loc 6 113 0 discriminator 11
 4158 1b0f E8000000 		call	__cxa_end_catch
 4158      00
 4159              	.LBE85:
 4160              	.LBE87:
 4161 1b14 E9430100 		jmp	.L222
 4161      00
 4162              	.L207:
 4163              	.LBB88:
 4164              	.LBB86:
 4165              		.loc 6 113 0
 4166 1b19 4889C7   		movq	%rax, %rdi
 4167 1b1c E8000000 		call	__cxa_begin_catch
 4167      00
 4168 1b21 48898558 		movq	%rax, -424(%rbp)
 4168      FEFFFF
 4169              	.LBB84:
 4170 1b28 488D8580 		leaq	-384(%rbp), %rax
 4170      FEFFFF
 4171 1b2f 4889C7   		movq	%rax, %rdi
 4172              	.LEHB95:
 4173 1b32 E8000000 		call	_ZN8UnitTest15MemoryOutStreamC1Ev
 4173      00
 4174              	.LEHE95:
 4175              		.loc 6 113 0 discriminator 13
 4176 1b37 488B8558 		movq	-424(%rbp), %rax
 4176      FEFFFF
 4177 1b3e 488B00   		movq	(%rax), %rax
 4178 1b41 4883C010 		addq	$16, %rax
 4179 1b45 488B00   		movq	(%rax), %rax
 4180 1b48 488B9558 		movq	-424(%rbp), %rdx
 4180      FEFFFF
 4181 1b4f 4889D7   		movq	%rdx, %rdi
 4182 1b52 FFD0     		call	*%rax
 4183 1b54 4889C3   		movq	%rax, %rbx
 4184 1b57 488D8580 		leaq	-384(%rbp), %rax
 4184      FEFFFF
 4185 1b5e BE000000 		movl	$.LC11, %esi
 4185      00
 4186 1b63 4889C7   		movq	%rax, %rdi
 4187              	.LEHB96:
 4188 1b66 E8000000 		call	_ZStlsISt11char_traitsIcEERSt13basic_ostreamIcT_ES5_PKc
 4188      00
 4189 1b6b 4889DE   		movq	%rbx, %rsi
 4190 1b6e 4889C7   		movq	%rax, %rdi
 4191 1b71 E8000000 		call	_ZStlsISt11char_traitsIcEERSt13basic_ostreamIcT_ES5_PKc
 4191      00
 4192              		.loc 6 113 0 discriminator 17
 4193 1b76 488D8580 		leaq	-384(%rbp), %rax
 4193      FEFFFF
 4194 1b7d 4889C7   		movq	%rax, %rdi
 4195 1b80 E8000000 		call	_ZNK8UnitTest15MemoryOutStream7GetTextEv
 4195      00
 4196 1b85 4989C4   		movq	%rax, %r12
 4197 1b88 488B8538 		movq	-456(%rbp), %rax
 4197      FEFFFF
 4198 1b8f 488D5808 		leaq	8(%rax), %rbx
 4199 1b93 E8000000 		call	_ZN8UnitTest11CurrentTest7ResultsEv
 4199      00
 4200              		.loc 6 113 0 discriminator 19
 4201 1b98 488B00   		movq	(%rax), %rax
 4202 1b9b 4C89E2   		movq	%r12, %rdx
 4203 1b9e 4889DE   		movq	%rbx, %rsi
 4204 1ba1 4889C7   		movq	%rax, %rdi
 4205 1ba4 E8000000 		call	_ZN8UnitTest11TestResults13OnTestFailureERKNS_11TestDetailsEPKc
 4205      00
 4206              	.LEHE96:
 4207              		.loc 6 113 0 discriminator 23
 4208 1ba9 488D8580 		leaq	-384(%rbp), %rax
 4208      FEFFFF
 4209 1bb0 4889C7   		movq	%rax, %rdi
 4210              	.LEHB97:
 4211 1bb3 E8000000 		call	_ZN8UnitTest15MemoryOutStreamD1Ev
 4211      00
 4212              	.LEHE97:
 4213              	.LBE84:
 4214              		.loc 6 113 0 discriminator 24
 4215 1bb8 E8000000 		call	__cxa_end_catch
 4215      00
 4216              	.LBE86:
 4217              	.LBE88:
 4218 1bbd E99A0000 		jmp	.L222
 4218      00
 4219              	.L221:
 4220              	.LBB89:
 4221              		.loc 6 113 0
 4222 1bc2 4889C7   		movq	%rax, %rdi
 4223 1bc5 E8000000 		call	__cxa_begin_catch
 4223      00
 4224 1bca 80BD4FFE 		cmpb	$0, -433(%rbp)
 4224      FFFF00
 4225 1bd1 7443     		je	.L213
 4226              		.loc 6 113 0 discriminator 26
 4227 1bd3 488B8538 		movq	-456(%rbp), %rax
 4227      FEFFFF
 4228 1bda 488D4808 		leaq	8(%rax), %rcx
 4229 1bde 488D8560 		leaq	-416(%rbp), %rax
 4229      FEFFFF
 4230 1be5 BA710000 		movl	$113, %edx
 4230      00
 4231 1bea 4889CE   		movq	%rcx, %rsi
 4232 1bed 4889C7   		movq	%rax, %rdi
 4233              	.LEHB98:
 4234 1bf0 E8000000 		call	_ZN8UnitTest11TestDetailsC1ERKS0_i
 4234      00
 4235              		.loc 6 113 0 discriminator 29
 4236 1bf5 E8000000 		call	_ZN8UnitTest11CurrentTest7ResultsEv
 4236      00
 4237 1bfa 488B00   		movq	(%rax), %rax
 4238 1bfd 488D8D60 		leaq	-416(%rbp), %rcx
 4238      FEFFFF
 4239 1c04 BA000000 		movl	$.LC44, %edx
 4239      00
 4240 1c09 4889CE   		movq	%rcx, %rsi
 4241 1c0c 4889C7   		movq	%rax, %rdi
 4242 1c0f E8000000 		call	_ZN8UnitTest11TestResults13OnTestFailureERKNS_11TestDetailsEPKc
 4242      00
 4243 1c14 EB41     		jmp	.L214
 4244              	.L213:
 4245              		.loc 6 113 0 discriminator 27
 4246 1c16 488B8538 		movq	-456(%rbp), %rax
 4246      FEFFFF
 4247 1c1d 488D4808 		leaq	8(%rax), %rcx
 4248 1c21 488D8560 		leaq	-416(%rbp), %rax
 4248      FEFFFF
 4249 1c28 BA710000 		movl	$113, %edx
 4249      00
 4250 1c2d 4889CE   		movq	%rcx, %rsi
 4251 1c30 4889C7   		movq	%rax, %rdi
 4252 1c33 E8000000 		call	_ZN8UnitTest11TestDetailsC1ERKS0_i
 4252      00
 4253              		.loc 6 113 0 discriminator 36
 4254 1c38 E8000000 		call	_ZN8UnitTest11CurrentTest7ResultsEv
 4254      00
 4255 1c3d 488B00   		movq	(%rax), %rax
 4256 1c40 488D8D60 		leaq	-416(%rbp), %rcx
 4256      FEFFFF
 4257 1c47 BA000000 		movl	$.LC45, %edx
 4257      00
 4258 1c4c 4889CE   		movq	%rcx, %rsi
 4259 1c4f 4889C7   		movq	%rax, %rdi
 4260 1c52 E8000000 		call	_ZN8UnitTest11TestResults13OnTestFailureERKNS_11TestDetailsEPKc
 4260      00
 4261              	.LEHE98:
 4262              	.L214:
 4263              	.LEHB99:
 4264              		.loc 6 113 0 discriminator 41
 4265 1c57 E8000000 		call	__cxa_end_catch
 4265      00
 4266              	.LEHE99:
 4267              	.L222:
 4268              	.LBE89:
 4269              		.loc 6 113 0
 4270 1c5c 90       		nop
 4271 1c5d 488B45E8 		movq	-24(%rbp), %rax
 4272 1c61 64483304 		xorq	%fs:40, %rax
 4272      25280000 
 4272      00
 4273 1c6a 7405     		je	.L215
 4274 1c6c E8000000 		call	__stack_chk_fail
 4274      00
 4275              	.L215:
 4276 1c71 4881C4C0 		addq	$448, %rsp
 4276      010000
 4277 1c78 5B       		popq	%rbx
 4278 1c79 415C     		popq	%r12
 4279 1c7b 5D       		popq	%rbp
 4280              		.cfi_def_cfa 7, 8
 4281 1c7c C3       		ret
 4282              		.cfi_endproc
 4283              	.LFE1165:
 4284              		.section	.gcc_except_table
 4285              		.align 4
 4286              	.LLSDA1165:
 4287 0260 FF       		.byte	0xff
 4288 0261 03       		.byte	0x3
 4289 0262 4D       		.uleb128 .LLSDATT1165-.LLSDATTD1165
 4290              	.LLSDATTD1165:
 4291 0263 01       		.byte	0x1
 4292 0264 36       		.uleb128 .LLSDACSE1165-.LLSDACSB1165
 4293              	.LLSDACSB1165:
 4294 0265 43       		.uleb128 .LEHB90-.LFB1165
 4295 0266 29       		.uleb128 .LEHE90-.LEHB90
 4296 0267 71       		.uleb128 .L216-.LFB1165
 4297 0268 05       		.uleb128 0x5
 4298 0269 9401     		.uleb128 .LEHB91-.LFB1165
 4299 026b 05       		.uleb128 .LEHE91-.LEHB91
 4300 026c 00       		.uleb128 0
 4301 026d 00       		.uleb128 0
 4302 026e BB01     		.uleb128 .LEHB92-.LFB1165
 4303 0270 05       		.uleb128 .LEHE92-.LEHB92
 4304 0271 00       		.uleb128 0
 4305 0272 00       		.uleb128 0
 4306 0273 CE01     		.uleb128 .LEHB93-.LFB1165
 4307 0275 05       		.uleb128 .LEHE93-.LEHB93
 4308 0276 00       		.uleb128 0
 4309 0277 00       		.uleb128 0
 4310 0278 8C02     		.uleb128 .LEHB94-.LFB1165
 4311 027a 5F       		.uleb128 .LEHE94-.LEHB94
 4312 027b 8601     		.uleb128 .L217-.LFB1165
 4313 027d 00       		.uleb128 0
 4314 027e 8E03     		.uleb128 .LEHB95-.LFB1165
 4315 0280 05       		.uleb128 .LEHE95-.LEHB95
 4316 0281 AD01     		.uleb128 .L219-.LFB1165
 4317 0283 00       		.uleb128 0
 4318 0284 C203     		.uleb128 .LEHB96-.LFB1165
 4319 0286 43       		.uleb128 .LEHE96-.LEHB96
 4320 0287 9901     		.uleb128 .L218-.LFB1165
 4321 0289 00       		.uleb128 0
 4322 028a 8F04     		.uleb128 .LEHB97-.LFB1165
 4323 028c 05       		.uleb128 .LEHE97-.LEHB97
 4324 028d AD01     		.uleb128 .L219-.LFB1165
 4325 028f 00       		.uleb128 0
 4326 0290 CC04     		.uleb128 .LEHB98-.LFB1165
 4327 0292 67       		.uleb128 .LEHE98-.LEHB98
 4328 0293 C001     		.uleb128 .L220-.LFB1165
 4329 0295 00       		.uleb128 0
 4330 0296 B305     		.uleb128 .LEHB99-.LFB1165
 4331 0298 05       		.uleb128 .LEHE99-.LEHB99
 4332 0299 00       		.uleb128 0
 4333 029a 00       		.uleb128 0
 4334              	.LLSDACSE1165:
 4335 029b 03       		.byte	0x3
 4336 029c 00       		.byte	0
 4337 029d 02       		.byte	0x2
 4338 029e 7D       		.byte	0x7d
 4339 029f 01       		.byte	0x1
 4340 02a0 7D       		.byte	0x7d
 4341 02a1 000000   		.align 4
 4342 02a4 00000000 		.long	0
 4343              	
 4344 02a8 00000000 		.long	_ZTISt9exception
 4345 02ac 00000000 		.long	_ZTIN8UnitTest15AssertExceptionE
 4346              	.LLSDATT1165:
 4347              		.text
 4349 1c7d 90       		.align 2
 4351              	_ZN12_GLOBAL__N_148FixtureCtorThrowsFixtureCtorThrowsTestNameHelper7RunImplEv:
 4352              	.LFB1166:
 114:TestTestMacros.cpp **** {
 4353              		.loc 6 114 0 is_stmt 1
 4354              		.cfi_startproc
 4355 1c7e 55       		pushq	%rbp
 4356              		.cfi_def_cfa_offset 16
 4357              		.cfi_offset 6, -16
 4358 1c7f 4889E5   		movq	%rsp, %rbp
 4359              		.cfi_def_cfa_register 6
 4360 1c82 48897DF8 		movq	%rdi, -8(%rbp)
 115:TestTestMacros.cpp **** }
 4361              		.loc 6 115 0
 4362 1c86 5D       		popq	%rbp
 4363              		.cfi_def_cfa 7, 8
 4364 1c87 C3       		ret
 4365              		.cfi_endproc
 4366              	.LFE1166:
 4368              		.section	.rodata
 4369 0819 00000000 		.align 8
 4369      000000
 4370              	.LC46:
 4371 0820 46697874 		.string	"FixturesWithThrowingCtorsAreFailures"
 4371      75726573 
 4371      57697468 
 4371      5468726F 
 4371      77696E67 
 4372              		.text
 4373              		.align 2
 4375              	_ZN12_GLOBAL__N_140TestFixturesWithThrowingCtorsAreFailuresC2Ev:
 4376              	.LFB1168:
 116:TestTestMacros.cpp **** 
 117:TestTestMacros.cpp **** TEST(FixturesWithThrowingCtorsAreFailures)
 4377              		.loc 6 117 0
 4378              		.cfi_startproc
 4379 1c88 55       		pushq	%rbp
 4380              		.cfi_def_cfa_offset 16
 4381              		.cfi_offset 6, -16
 4382 1c89 4889E5   		movq	%rsp, %rbp
 4383              		.cfi_def_cfa_register 6
 4384 1c8c 4883EC10 		subq	$16, %rsp
 4385 1c90 48897DF8 		movq	%rdi, -8(%rbp)
 4386              	.LBB90:
 4387              		.loc 6 117 0
 4388 1c94 E8000000 		call	_ZN13UnitTestSuite12GetSuiteNameEv
 4388      00
 4389 1c99 4889C2   		movq	%rax, %rdx
 4390 1c9c 488B45F8 		movq	-8(%rbp), %rax
 4391 1ca0 41B87500 		movl	$117, %r8d
 4391      0000
 4392 1ca6 B9000000 		movl	$.LC2, %ecx
 4392      00
 4393 1cab BE000000 		movl	$.LC46, %esi
 4393      00
 4394 1cb0 4889C7   		movq	%rax, %rdi
 4395 1cb3 E8000000 		call	_ZN8UnitTest4TestC2EPKcS2_S2_i
 4395      00
 4396 1cb8 488B45F8 		movq	-8(%rbp), %rax
 4397 1cbc 48C70000 		movq	$_ZTVN12_GLOBAL__N_140TestFixturesWithThrowingCtorsAreFailuresE+16, (%rax)
 4397      000000
 4398              	.LBE90:
 4399 1cc3 C9       		leave
 4400              		.cfi_def_cfa 7, 8
 4401 1cc4 C3       		ret
 4402              		.cfi_endproc
 4403              	.LFE1168:
 4405              		.local	_ZN12_GLOBAL__N_148testFixturesWithThrowingCtorsAreFailuresInstanceE
 4406              		.comm	_ZN12_GLOBAL__N_148testFixturesWithThrowingCtorsAreFailuresInstanceE,56,32
 4407              		.local	_ZN12_GLOBAL__N_141adderFixturesWithThrowingCtorsAreFailuresE
 4408              		.comm	_ZN12_GLOBAL__N_141adderFixturesWithThrowingCtorsAreFailuresE,1,1
 4409              		.section	.rodata
 4410 0845 000000   		.align 8
 4411              	.LC47:
 4412 0848 7468726F 		.string	"throwingFixtureTestList1.GetHead() != NULL"
 4412      77696E67 
 4412      46697874 
 4412      75726554 
 4412      6573744C 
 4413              	.LC48:
 4414 0873 7768696C 		.string	"while constructing fixture"
 4414      6520636F 
 4414      6E737472 
 4414      75637469 
 4414      6E672066 
 4415 088e 0000     		.align 8
 4416              	.LC49:
 4417 0890 73747273 		.string	"strstr(reporter.lastFailedMessage, \"while constructing fixture\")"
 4417      74722872 
 4417      65706F72 
 4417      7465722E 
 4417      6C617374 
 4418 08d1 00000000 		.align 8
 4418      000000
 4419              	.LC50:
 4420 08d8 556E6861 		.string	"Unhandled exception in CHECK(throwingFixtureTestList1.GetHead() != NULL)"
 4420      6E646C65 
 4420      64206578 
 4420      63657074 
 4420      696F6E20 
 4421 0921 00000000 		.align 8
 4421      000000
 4422              	.LC51:
 4423 0928 556E6861 		.string	"Unhandled exception in CHECK_EQUAL(1, failureCount)"
 4423      6E646C65 
 4423      64206578 
 4423      63657074 
 4423      696F6E20 
 4424 095c 00000000 		.align 8
 4425              	.LC52:
 4426 0960 556E6861 		.string	"Unhandled exception in CHECK(strstr(reporter.lastFailedMessage, \"while constructing fixt
 4426      6E646C65 
 4426      64206578 
 4426      63657074 
 4426      696F6E20 
 4427              		.text
 4428 1cc5 90       		.align 2
 4430              	_ZNK12_GLOBAL__N_140TestFixturesWithThrowingCtorsAreFailures7RunImplEv:
 4431              	.LFB1170:
 118:TestTestMacros.cpp **** {
 4432              		.loc 6 118 0
 4433              		.cfi_startproc
 4434              		.cfi_personality 0x3,__gxx_personality_v0
 4435              		.cfi_lsda 0x3,.LLSDA1170
 4436 1cc6 55       		pushq	%rbp
 4437              		.cfi_def_cfa_offset 16
 4438              		.cfi_offset 6, -16
 4439 1cc7 4889E5   		movq	%rsp, %rbp
 4440              		.cfi_def_cfa_register 6
 4441 1cca 53       		pushq	%rbx
 4442 1ccb 4881ECA8 		subq	$2216, %rsp
 4442      080000
 4443              		.cfi_offset 3, -24
 4444 1cd2 4889BD58 		movq	%rdi, -2216(%rbp)
 4444      F7FFFF
 4445              		.loc 6 118 0
 4446 1cd9 64488B04 		movq	%fs:40, %rax
 4446      25280000 
 4446      00
 4447 1ce2 488945E8 		movq	%rax, -24(%rbp)
 4448 1ce6 31C0     		xorl	%eax, %eax
 4449              	.LBB91:
 119:TestTestMacros.cpp **** 	CHECK(throwingFixtureTestList1.GetHead() != NULL);
 4450              		.loc 6 119 0
 4451 1ce8 BF000000 		movl	$_ZN12_GLOBAL__N_124throwingFixtureTestList1E, %edi
 4451      00
 4452              	.LEHB100:
 4453 1ced E8000000 		call	_ZNK8UnitTest8TestList7GetHeadEv
 4453      00
 4454 1cf2 4885C0   		testq	%rax, %rax
 4455 1cf5 0F95C0   		setne	%al
 4456 1cf8 0FB6C0   		movzbl	%al, %eax
 4457 1cfb 89C7     		movl	%eax, %edi
 4458 1cfd E8000000 		call	_ZN8UnitTest5CheckIbEEbT_
 4458      00
 4459 1d02 83F001   		xorl	$1, %eax
 4460 1d05 84C0     		testb	%al, %al
 4461 1d07 743E     		je	.L226
 4462              		.loc 6 119 0 is_stmt 0 discriminator 2
 4463 1d09 E8000000 		call	_ZN8UnitTest11CurrentTest7DetailsEv
 4463      00
 4464 1d0e 488B08   		movq	(%rax), %rcx
 4465 1d11 488D8590 		leaq	-2160(%rbp), %rax
 4465      F7FFFF
 4466 1d18 BA770000 		movl	$119, %edx
 4466      00
 4467 1d1d 4889CE   		movq	%rcx, %rsi
 4468 1d20 4889C7   		movq	%rax, %rdi
 4469 1d23 E8000000 		call	_ZN8UnitTest11TestDetailsC1ERKS0_i
 4469      00
 4470              		.loc 6 119 0 discriminator 4
 4471 1d28 E8000000 		call	_ZN8UnitTest11CurrentTest7ResultsEv
 4471      00
 4472 1d2d 488B00   		movq	(%rax), %rax
 4473 1d30 488D8D90 		leaq	-2160(%rbp), %rcx
 4473      F7FFFF
 4474 1d37 BA000000 		movl	$.LC47, %edx
 4474      00
 4475 1d3c 4889CE   		movq	%rcx, %rsi
 4476 1d3f 4889C7   		movq	%rax, %rdi
 4477 1d42 E8000000 		call	_ZN8UnitTest11TestResults13OnTestFailureERKNS_11TestDetailsEPKc
 4477      00
 4478              	.LEHE100:
 4479              	.L226:
 120:TestTestMacros.cpp **** 	RecordingReporter reporter;
 4480              		.loc 6 120 0 is_stmt 1
 4481 1d47 488D85B0 		leaq	-2128(%rbp), %rax
 4481      F7FFFF
 4482 1d4e 4889C7   		movq	%rax, %rdi
 4483 1d51 E8000000 		call	_ZN17RecordingReporterC1Ev
 4483      00
 121:TestTestMacros.cpp **** 	TestResults result(&reporter);
 4484              		.loc 6 121 0
 4485 1d56 488D95B0 		leaq	-2128(%rbp), %rdx
 4485      F7FFFF
 4486 1d5d 488D8570 		leaq	-2192(%rbp), %rax
 4486      F7FFFF
 4487 1d64 4889D6   		movq	%rdx, %rsi
 4488 1d67 4889C7   		movq	%rax, %rdi
 4489              	.LEHB101:
 4490 1d6a E8000000 		call	_ZN8UnitTest11TestResultsC1EPNS_12TestReporterE
 4490      00
 4491              	.LBB92:
 122:TestTestMacros.cpp **** 	{
 123:TestTestMacros.cpp **** 		ScopedCurrentTest scopedResult(result);
 4492              		.loc 6 123 0
 4493 1d6f 488D8D70 		leaq	-2192(%rbp), %rcx
 4493      F7FFFF
 4494 1d76 488D8590 		leaq	-2160(%rbp), %rax
 4494      F7FFFF
 4495 1d7d BA000000 		movl	$0, %edx
 4495      00
 4496 1d82 4889CE   		movq	%rcx, %rsi
 4497 1d85 4889C7   		movq	%rax, %rdi
 4498 1d88 E8000000 		call	_ZN17ScopedCurrentTestC1ERN8UnitTest11TestResultsEPKNS0_11TestDetailsE
 4498      00
 4499              	.LEHE101:
 124:TestTestMacros.cpp **** 		throwingFixtureTestList1.GetHead()->Run();
 4500              		.loc 6 124 0
 4501 1d8d BF000000 		movl	$_ZN12_GLOBAL__N_124throwingFixtureTestList1E, %edi
 4501      00
 4502              	.LEHB102:
 4503 1d92 E8000000 		call	_ZNK8UnitTest8TestList7GetHeadEv
 4503      00
 4504 1d97 4889C7   		movq	%rax, %rdi
 4505 1d9a E8000000 		call	_ZN8UnitTest4Test3RunEv
 4505      00
 4506              	.LEHE102:
 4507              		.loc 6 124 0 is_stmt 0 discriminator 4
 4508 1d9f 488D8590 		leaq	-2160(%rbp), %rax
 4508      F7FFFF
 4509 1da6 4889C7   		movq	%rax, %rdi
 4510              	.LEHB103:
 4511 1da9 E8000000 		call	_ZN17ScopedCurrentTestD1Ev
 4511      00
 4512              	.LBE92:
 125:TestTestMacros.cpp **** 	}
 126:TestTestMacros.cpp **** 
 127:TestTestMacros.cpp **** 	int const failureCount = result.GetFailedTestCount();
 4513              		.loc 6 127 0 is_stmt 1
 4514 1dae 488D8570 		leaq	-2192(%rbp), %rax
 4514      F7FFFF
 4515 1db5 4889C7   		movq	%rax, %rdi
 4516 1db8 E8000000 		call	_ZNK8UnitTest11TestResults18GetFailedTestCountEv
 4516      00
 4517              	.LEHE103:
 4518 1dbd 898568F7 		movl	%eax, -2200(%rbp)
 4518      FFFF
 4519              	.LEHB104:
 128:TestTestMacros.cpp **** 	CHECK_EQUAL(1, failureCount);
 4520              		.loc 6 128 0
 4521 1dc3 E8000000 		call	_ZN8UnitTest11CurrentTest7DetailsEv
 4521      00
 4522              		.loc 6 128 0 is_stmt 0 discriminator 1
 4523 1dc8 488B08   		movq	(%rax), %rcx
 4524 1dcb 488D8590 		leaq	-2160(%rbp), %rax
 4524      F7FFFF
 4525 1dd2 BA800000 		movl	$128, %edx
 4525      00
 4526 1dd7 4889CE   		movq	%rcx, %rsi
 4527 1dda 4889C7   		movq	%rax, %rdi
 4528 1ddd E8000000 		call	_ZN8UnitTest11TestDetailsC1ERKS0_i
 4528      00
 4529              		.loc 6 128 0 discriminator 2
 4530 1de2 C7856CF7 		movl	$1, -2196(%rbp)
 4530      FFFF0100 
 4530      0000
 4531 1dec E8000000 		call	_ZN8UnitTest11CurrentTest7ResultsEv
 4531      00
 4532 1df1 488B00   		movq	(%rax), %rax
 4533 1df4 488D8D90 		leaq	-2160(%rbp), %rcx
 4533      F7FFFF
 4534 1dfb 488D9568 		leaq	-2200(%rbp), %rdx
 4534      F7FFFF
 4535 1e02 488DB56C 		leaq	-2196(%rbp), %rsi
 4535      F7FFFF
 4536 1e09 4889C7   		movq	%rax, %rdi
 4537 1e0c E8000000 		call	_ZN8UnitTest10CheckEqualIiiEEvRNS_11TestResultsERKT_RKT0_RKNS_11TestDetailsE
 4537      00
 4538              	.LEHE104:
 4539              	.L234:
 129:TestTestMacros.cpp **** 	CHECK(strstr(reporter.lastFailedMessage, "while constructing fixture"));
 4540              		.loc 6 129 0 is_stmt 1
 4541 1e11 488D85B0 		leaq	-2128(%rbp), %rax
 4541      F7FFFF
 4542 1e18 48051405 		addq	$1300, %rax
 4542      0000
 4543 1e1e BE000000 		movl	$.LC48, %esi
 4543      00
 4544 1e23 4889C7   		movq	%rax, %rdi
 4545 1e26 E8000000 		call	strstr
 4545      00
 4546 1e2b 4889C7   		movq	%rax, %rdi
 4547 1e2e E8000000 		call	_ZN8UnitTest5CheckIPcEEbT_
 4547      00
 4548 1e33 83F001   		xorl	$1, %eax
 4549 1e36 84C0     		testb	%al, %al
 4550 1e38 743E     		je	.L227
 4551              	.LEHB105:
 4552              		.loc 6 129 0 is_stmt 0 discriminator 1
 4553 1e3a E8000000 		call	_ZN8UnitTest11CurrentTest7DetailsEv
 4553      00
 4554 1e3f 488B08   		movq	(%rax), %rcx
 4555 1e42 488D8590 		leaq	-2160(%rbp), %rax
 4555      F7FFFF
 4556 1e49 BA810000 		movl	$129, %edx
 4556      00
 4557 1e4e 4889CE   		movq	%rcx, %rsi
 4558 1e51 4889C7   		movq	%rax, %rdi
 4559 1e54 E8000000 		call	_ZN8UnitTest11TestDetailsC1ERKS0_i
 4559      00
 4560              		.loc 6 129 0 discriminator 4
 4561 1e59 E8000000 		call	_ZN8UnitTest11CurrentTest7ResultsEv
 4561      00
 4562 1e5e 488B00   		movq	(%rax), %rax
 4563 1e61 488D8D90 		leaq	-2160(%rbp), %rcx
 4563      F7FFFF
 4564 1e68 BA000000 		movl	$.LC49, %edx
 4564      00
 4565 1e6d 4889CE   		movq	%rcx, %rsi
 4566 1e70 4889C7   		movq	%rax, %rdi
 4567 1e73 E8000000 		call	_ZN8UnitTest11TestResults13OnTestFailureERKNS_11TestDetailsEPKc
 4567      00
 4568              	.LEHE105:
 4569              	.L227:
 4570              		.loc 6 129 0 discriminator 9
 4571 1e78 488D85B0 		leaq	-2128(%rbp), %rax
 4571      F7FFFF
 4572 1e7f 4889C7   		movq	%rax, %rdi
 4573              	.LEHB106:
 4574 1e82 E8000000 		call	_ZN17RecordingReporterD1Ev
 4574      00
 4575              	.LEHE106:
 4576              	.LBE91:
 130:TestTestMacros.cpp **** }
 4577              		.loc 6 130 0 is_stmt 1 discriminator 9
 4578 1e87 488B45E8 		movq	-24(%rbp), %rax
 4579 1e8b 64483304 		xorq	%fs:40, %rax
 4579      25280000 
 4579      00
 4580 1e94 0F845801 		je	.L237
 4580      0000
 4581 1e9a E94E0100 		jmp	.L246
 4581      00
 4582              	.L239:
 4583 1e9f 4889C3   		movq	%rax, %rbx
 4584              	.LBB94:
 119:TestTestMacros.cpp **** 	RecordingReporter reporter;
 4585              		.loc 6 119 0
 4586 1ea2 E8000000 		call	__cxa_end_catch
 4586      00
 4587 1ea7 4889D8   		movq	%rbx, %rax
 4588 1eaa 4889C7   		movq	%rax, %rdi
 4589              	.LEHB107:
 4590 1ead E8000000 		call	_Unwind_Resume
 4590      00
 4591              	.LEHE107:
 4592              	.L238:
 4593 1eb2 4889C7   		movq	%rax, %rdi
 4594 1eb5 E8000000 		call	__cxa_begin_catch
 4594      00
 4595              	.LEHB108:
 4596 1eba E8000000 		call	_ZN8UnitTest11CurrentTest7DetailsEv
 4596      00
 4597 1ebf 488B08   		movq	(%rax), %rcx
 4598 1ec2 488D8590 		leaq	-2160(%rbp), %rax
 4598      F7FFFF
 4599 1ec9 BA770000 		movl	$119, %edx
 4599      00
 4600 1ece 4889CE   		movq	%rcx, %rsi
 4601 1ed1 4889C7   		movq	%rax, %rdi
 4602 1ed4 E8000000 		call	_ZN8UnitTest11TestDetailsC1ERKS0_i
 4602      00
 119:TestTestMacros.cpp **** 	RecordingReporter reporter;
 4603              		.loc 6 119 0 is_stmt 0 discriminator 12
 4604 1ed9 E8000000 		call	_ZN8UnitTest11CurrentTest7ResultsEv
 4604      00
 4605 1ede 488B00   		movq	(%rax), %rax
 4606 1ee1 488D8D90 		leaq	-2160(%rbp), %rcx
 4606      F7FFFF
 4607 1ee8 BA000000 		movl	$.LC50, %edx
 4607      00
 4608 1eed 4889CE   		movq	%rcx, %rsi
 4609 1ef0 4889C7   		movq	%rax, %rdi
 4610 1ef3 E8000000 		call	_ZN8UnitTest11TestResults13OnTestFailureERKNS_11TestDetailsEPKc
 4610      00
 4611              	.LEHE108:
 4612              	.LEHB109:
 119:TestTestMacros.cpp **** 	RecordingReporter reporter;
 4613              		.loc 6 119 0 discriminator 16
 4614 1ef8 E8000000 		call	__cxa_end_catch
 4614      00
 4615              	.LEHE109:
 4616 1efd E945FEFF 		jmp	.L226
 4616      FF
 4617              	.L241:
 4618 1f02 4889C3   		movq	%rax, %rbx
 4619              	.LBB93:
 124:TestTestMacros.cpp **** 	}
 4620              		.loc 6 124 0 is_stmt 1
 4621 1f05 488D8590 		leaq	-2160(%rbp), %rax
 4621      F7FFFF
 4622 1f0c 4889C7   		movq	%rax, %rdi
 4623 1f0f E8000000 		call	_ZN17ScopedCurrentTestD1Ev
 4623      00
 4624 1f14 E9BA0000 		jmp	.L231
 4624      00
 4625              	.L243:
 4626 1f19 4889C3   		movq	%rax, %rbx
 4627              	.LBE93:
 128:TestTestMacros.cpp **** 	CHECK(strstr(reporter.lastFailedMessage, "while constructing fixture"));
 4628              		.loc 6 128 0
 4629 1f1c E8000000 		call	__cxa_end_catch
 4629      00
 4630 1f21 E9AD0000 		jmp	.L231
 4630      00
 4631              	.L242:
 4632 1f26 4889C7   		movq	%rax, %rdi
 4633 1f29 E8000000 		call	__cxa_begin_catch
 4633      00
 4634              	.LEHB110:
 4635 1f2e E8000000 		call	_ZN8UnitTest11CurrentTest7DetailsEv
 4635      00
 4636 1f33 488B08   		movq	(%rax), %rcx
 4637 1f36 488D8590 		leaq	-2160(%rbp), %rax
 4637      F7FFFF
 4638 1f3d BA800000 		movl	$128, %edx
 4638      00
 4639 1f42 4889CE   		movq	%rcx, %rsi
 4640 1f45 4889C7   		movq	%rax, %rdi
 4641 1f48 E8000000 		call	_ZN8UnitTest11TestDetailsC1ERKS0_i
 4641      00
 128:TestTestMacros.cpp **** 	CHECK(strstr(reporter.lastFailedMessage, "while constructing fixture"));
 4642              		.loc 6 128 0 is_stmt 0 discriminator 10
 4643 1f4d E8000000 		call	_ZN8UnitTest11CurrentTest7ResultsEv
 4643      00
 4644 1f52 488B00   		movq	(%rax), %rax
 4645 1f55 488D8D90 		leaq	-2160(%rbp), %rcx
 4645      F7FFFF
 4646 1f5c BA000000 		movl	$.LC51, %edx
 4646      00
 4647 1f61 4889CE   		movq	%rcx, %rsi
 4648 1f64 4889C7   		movq	%rax, %rdi
 4649 1f67 E8000000 		call	_ZN8UnitTest11TestResults13OnTestFailureERKNS_11TestDetailsEPKc
 4649      00
 4650              	.LEHE110:
 4651              	.LEHB111:
 128:TestTestMacros.cpp **** 	CHECK(strstr(reporter.lastFailedMessage, "while constructing fixture"));
 4652              		.loc 6 128 0 discriminator 14
 4653 1f6c E8000000 		call	__cxa_end_catch
 4653      00
 4654              	.LEHE111:
 128:TestTestMacros.cpp **** 	CHECK(strstr(reporter.lastFailedMessage, "while constructing fixture"));
 4655              		.loc 6 128 0
 4656 1f71 E99BFEFF 		jmp	.L234
 4656      FF
 4657              	.L245:
 4658 1f76 4889C3   		movq	%rax, %rbx
 129:TestTestMacros.cpp **** }
 4659              		.loc 6 129 0 is_stmt 1
 4660 1f79 E8000000 		call	__cxa_end_catch
 4660      00
 4661 1f7e EB53     		jmp	.L231
 4662              	.L244:
 4663 1f80 4889C7   		movq	%rax, %rdi
 4664 1f83 E8000000 		call	__cxa_begin_catch
 4664      00
 4665              	.LEHB112:
 4666 1f88 E8000000 		call	_ZN8UnitTest11CurrentTest7DetailsEv
 4666      00
 4667 1f8d 488B08   		movq	(%rax), %rcx
 4668 1f90 488D8590 		leaq	-2160(%rbp), %rax
 4668      F7FFFF
 4669 1f97 BA810000 		movl	$129, %edx
 4669      00
 4670 1f9c 4889CE   		movq	%rcx, %rsi
 4671 1f9f 4889C7   		movq	%rax, %rdi
 4672 1fa2 E8000000 		call	_ZN8UnitTest11TestDetailsC1ERKS0_i
 4672      00
 129:TestTestMacros.cpp **** }
 4673              		.loc 6 129 0 is_stmt 0 discriminator 13
 4674 1fa7 E8000000 		call	_ZN8UnitTest11CurrentTest7ResultsEv
 4674      00
 4675 1fac 488B00   		movq	(%rax), %rax
 4676 1faf 488D8D90 		leaq	-2160(%rbp), %rcx
 4676      F7FFFF
 4677 1fb6 BA000000 		movl	$.LC52, %edx
 4677      00
 4678 1fbb 4889CE   		movq	%rcx, %rsi
 4679 1fbe 4889C7   		movq	%rax, %rdi
 4680 1fc1 E8000000 		call	_ZN8UnitTest11TestResults13OnTestFailureERKNS_11TestDetailsEPKc
 4680      00
 4681              	.LEHE112:
 4682              	.LEHB113:
 129:TestTestMacros.cpp **** }
 4683              		.loc 6 129 0 discriminator 17
 4684 1fc6 E8000000 		call	__cxa_end_catch
 4684      00
 4685              	.LEHE113:
 129:TestTestMacros.cpp **** }
 4686              		.loc 6 129 0
 4687 1fcb E9A8FEFF 		jmp	.L227
 4687      FF
 4688              	.L240:
 4689 1fd0 4889C3   		movq	%rax, %rbx
 4690              	.L231:
 129:TestTestMacros.cpp **** }
 4691              		.loc 6 129 0 discriminator 18
 4692 1fd3 488D85B0 		leaq	-2128(%rbp), %rax
 4692      F7FFFF
 4693 1fda 4889C7   		movq	%rax, %rdi
 4694 1fdd E8000000 		call	_ZN17RecordingReporterD1Ev
 4694      00
 4695 1fe2 4889D8   		movq	%rbx, %rax
 4696 1fe5 4889C7   		movq	%rax, %rdi
 4697              	.LEHB114:
 4698 1fe8 E8000000 		call	_Unwind_Resume
 4698      00
 4699              	.LEHE114:
 4700              	.L246:
 4701              	.LBE94:
 4702              		.loc 6 130 0 is_stmt 1
 4703 1fed E8000000 		call	__stack_chk_fail
 4703      00
 4704              	.L237:
 4705 1ff2 4881C4A8 		addq	$2216, %rsp
 4705      080000
 4706 1ff9 5B       		popq	%rbx
 4707 1ffa 5D       		popq	%rbp
 4708              		.cfi_def_cfa 7, 8
 4709 1ffb C3       		ret
 4710              		.cfi_endproc
 4711              	.LFE1170:
 4712              		.section	.gcc_except_table
 4713              		.align 4
 4714              	.LLSDA1170:
 4715 02b0 FF       		.byte	0xff
 4716 02b1 03       		.byte	0x3
 4717 02b2 5D       		.uleb128 .LLSDATT1170-.LLSDATTD1170
 4718              	.LLSDATTD1170:
 4719 02b3 01       		.byte	0x1
 4720 02b4 55       		.uleb128 .LLSDACSE1170-.LLSDACSB1170
 4721              	.LLSDACSB1170:
 4722 02b5 27       		.uleb128 .LEHB100-.LFB1170
 4723 02b6 5A       		.uleb128 .LEHE100-.LEHB100
 4724 02b7 EC03     		.uleb128 .L238-.LFB1170
 4725 02b9 01       		.uleb128 0x1
 4726 02ba A401     		.uleb128 .LEHB101-.LFB1170
 4727 02bc 23       		.uleb128 .LEHE101-.LEHB101
 4728 02bd 8A06     		.uleb128 .L240-.LFB1170
 4729 02bf 00       		.uleb128 0
 4730 02c0 CC01     		.uleb128 .LEHB102-.LFB1170
 4731 02c2 0D       		.uleb128 .LEHE102-.LEHB102
 4732 02c3 BC04     		.uleb128 .L241-.LFB1170
 4733 02c5 00       		.uleb128 0
 4734 02c6 E301     		.uleb128 .LEHB103-.LFB1170
 4735 02c8 14       		.uleb128 .LEHE103-.LEHB103
 4736 02c9 8A06     		.uleb128 .L240-.LFB1170
 4737 02cb 00       		.uleb128 0
 4738 02cc FD01     		.uleb128 .LEHB104-.LFB1170
 4739 02ce 4E       		.uleb128 .LEHE104-.LEHB104
 4740 02cf E004     		.uleb128 .L242-.LFB1170
 4741 02d1 01       		.uleb128 0x1
 4742 02d2 F402     		.uleb128 .LEHB105-.LFB1170
 4743 02d4 3E       		.uleb128 .LEHE105-.LEHB105
 4744 02d5 BA05     		.uleb128 .L244-.LFB1170
 4745 02d7 01       		.uleb128 0x1
 4746 02d8 BC03     		.uleb128 .LEHB106-.LFB1170
 4747 02da 05       		.uleb128 .LEHE106-.LEHB106
 4748 02db 00       		.uleb128 0
 4749 02dc 00       		.uleb128 0
 4750 02dd E703     		.uleb128 .LEHB107-.LFB1170
 4751 02df 05       		.uleb128 .LEHE107-.LEHB107
 4752 02e0 00       		.uleb128 0
 4753 02e1 00       		.uleb128 0
 4754 02e2 F403     		.uleb128 .LEHB108-.LFB1170
 4755 02e4 3E       		.uleb128 .LEHE108-.LEHB108
 4756 02e5 D903     		.uleb128 .L239-.LFB1170
 4757 02e7 00       		.uleb128 0
 4758 02e8 B204     		.uleb128 .LEHB109-.LFB1170
 4759 02ea 05       		.uleb128 .LEHE109-.LEHB109
 4760 02eb 00       		.uleb128 0
 4761 02ec 00       		.uleb128 0
 4762 02ed E804     		.uleb128 .LEHB110-.LFB1170
 4763 02ef 3E       		.uleb128 .LEHE110-.LEHB110
 4764 02f0 D304     		.uleb128 .L243-.LFB1170
 4765 02f2 00       		.uleb128 0
 4766 02f3 A605     		.uleb128 .LEHB111-.LFB1170
 4767 02f5 05       		.uleb128 .LEHE111-.LEHB111
 4768 02f6 8A06     		.uleb128 .L240-.LFB1170
 4769 02f8 00       		.uleb128 0
 4770 02f9 C205     		.uleb128 .LEHB112-.LFB1170
 4771 02fb 3E       		.uleb128 .LEHE112-.LEHB112
 4772 02fc B005     		.uleb128 .L245-.LFB1170
 4773 02fe 00       		.uleb128 0
 4774 02ff 8006     		.uleb128 .LEHB113-.LFB1170
 4775 0301 05       		.uleb128 .LEHE113-.LEHB113
 4776 0302 8A06     		.uleb128 .L240-.LFB1170
 4777 0304 00       		.uleb128 0
 4778 0305 A206     		.uleb128 .LEHB114-.LFB1170
 4779 0307 05       		.uleb128 .LEHE114-.LEHB114
 4780 0308 00       		.uleb128 0
 4781 0309 00       		.uleb128 0
 4782              	.LLSDACSE1170:
 4783 030a 01       		.byte	0x1
 4784 030b 00       		.byte	0
 4785              		.align 4
 4786 030c 00000000 		.long	0
 4787              	
 4788              	.LLSDATT1170:
 4789              		.text
 4791              		.align 2
 4793              	_ZN12_GLOBAL__N_117FixtureDtorThrowsD2Ev:
 4794              	.LFB1172:
 131:TestTestMacros.cpp **** 
 132:TestTestMacros.cpp **** struct FixtureDtorThrows
 133:TestTestMacros.cpp **** {
 134:TestTestMacros.cpp **** 	~FixtureDtorThrows() { throw "exception"; }
 4795              		.loc 6 134 0
 4796              		.cfi_startproc
 4797 1ffc 55       		pushq	%rbp
 4798              		.cfi_def_cfa_offset 16
 4799              		.cfi_offset 6, -16
 4800 1ffd 4889E5   		movq	%rsp, %rbp
 4801              		.cfi_def_cfa_register 6
 4802 2000 4883EC10 		subq	$16, %rsp
 4803 2004 48897DF8 		movq	%rdi, -8(%rbp)
 4804              	.LBB95:
 4805              		.loc 6 134 0
 4806 2008 BF080000 		movl	$8, %edi
 4806      00
 4807 200d E8000000 		call	__cxa_allocate_exception
 4807      00
 4808 2012 48C70000 		movq	$.LC42, (%rax)
 4808      000000
 4809 2019 BA000000 		movl	$0, %edx
 4809      00
 4810 201e BE000000 		movl	$_ZTIPKc, %esi
 4810      00
 4811 2023 4889C7   		movq	%rax, %rdi
 4812 2026 E8000000 		call	__cxa_throw
 4812      00
 4813              	.LBE95:
 4814              		.cfi_endproc
 4815              	.LFE1172:
 4817              		.local	_ZN12_GLOBAL__N_124throwingFixtureTestList2E
 4818              		.comm	_ZN12_GLOBAL__N_124throwingFixtureTestList2E,16,16
 4819 202b 90       		.align 2
 4821              	_ZN12_GLOBAL__N_117FixtureDtorThrowsC2Ev:
 4822              	.LFB1176:
 132:TestTestMacros.cpp **** {
 4823              		.loc 6 132 0
 4824              		.cfi_startproc
 4825 202c 55       		pushq	%rbp
 4826              		.cfi_def_cfa_offset 16
 4827              		.cfi_offset 6, -16
 4828 202d 4889E5   		movq	%rsp, %rbp
 4829              		.cfi_def_cfa_register 6
 4830 2030 48897DF8 		movq	%rdi, -8(%rbp)
 132:TestTestMacros.cpp **** {
 4831              		.loc 6 132 0
 4832 2034 5D       		popq	%rbp
 4833              		.cfi_def_cfa 7, 8
 4834 2035 C3       		ret
 4835              		.cfi_endproc
 4836              	.LFE1176:
 4838              		.align 2
 4840              	_ZN12_GLOBAL__N_148FixtureDtorThrowsFixtureDtorThrowsTestNameHelperC2ERKN8UnitTest11TestDetailsE:
 4841              	.LFB1178:
 135:TestTestMacros.cpp **** };
 136:TestTestMacros.cpp **** 
 137:TestTestMacros.cpp **** TestList throwingFixtureTestList2;
 138:TestTestMacros.cpp **** TEST_FIXTURE_EX(FixtureDtorThrows, FixtureDtorThrowsTestName, throwingFixtureTestList2)
 4842              		.loc 6 138 0
 4843              		.cfi_startproc
 4844 2036 55       		pushq	%rbp
 4845              		.cfi_def_cfa_offset 16
 4846              		.cfi_offset 6, -16
 4847 2037 4889E5   		movq	%rsp, %rbp
 4848              		.cfi_def_cfa_register 6
 4849 203a 4883EC10 		subq	$16, %rsp
 4850 203e 48897DF8 		movq	%rdi, -8(%rbp)
 4851 2042 488975F0 		movq	%rsi, -16(%rbp)
 4852              	.LBB96:
 4853              		.loc 6 138 0
 4854 2046 488B45F8 		movq	-8(%rbp), %rax
 4855 204a 4889C7   		movq	%rax, %rdi
 4856 204d E8DAFFFF 		call	_ZN12_GLOBAL__N_117FixtureDtorThrowsC2Ev
 4856      FF
 4857 2052 488B45F8 		movq	-8(%rbp), %rax
 4858 2056 488B55F0 		movq	-16(%rbp), %rdx
 4859 205a 488910   		movq	%rdx, (%rax)
 4860              	.LBE96:
 4861 205d C9       		leave
 4862              		.cfi_def_cfa 7, 8
 4863 205e C3       		ret
 4864              		.cfi_endproc
 4865              	.LFE1178:
 4867              		.section	.rodata
 4868              	.LC53:
 4869 09bf 46697874 		.string	"FixtureDtorThrowsTestName"
 4869      75726544 
 4869      746F7254 
 4869      68726F77 
 4869      73546573 
 4870              		.text
 4871 205f 90       		.align 2
 4873              	_ZN12_GLOBAL__N_146TestFixtureDtorThrowsFixtureDtorThrowsTestNameC2Ev:
 4874              	.LFB1181:
 4875              		.loc 6 138 0
 4876              		.cfi_startproc
 4877 2060 55       		pushq	%rbp
 4878              		.cfi_def_cfa_offset 16
 4879              		.cfi_offset 6, -16
 4880 2061 4889E5   		movq	%rsp, %rbp
 4881              		.cfi_def_cfa_register 6
 4882 2064 4883EC10 		subq	$16, %rsp
 4883 2068 48897DF8 		movq	%rdi, -8(%rbp)
 4884              	.LBB97:
 4885              		.loc 6 138 0
 4886 206c E8000000 		call	_ZN13UnitTestSuite12GetSuiteNameEv
 4886      00
 4887 2071 4889C2   		movq	%rax, %rdx
 4888 2074 488B45F8 		movq	-8(%rbp), %rax
 4889 2078 41B88A00 		movl	$138, %r8d
 4889      0000
 4890 207e B9000000 		movl	$.LC2, %ecx
 4890      00
 4891 2083 BE000000 		movl	$.LC53, %esi
 4891      00
 4892 2088 4889C7   		movq	%rax, %rdi
 4893 208b E8000000 		call	_ZN8UnitTest4TestC2EPKcS2_S2_i
 4893      00
 4894 2090 488B45F8 		movq	-8(%rbp), %rax
 4895 2094 48C70000 		movq	$_ZTVN12_GLOBAL__N_146TestFixtureDtorThrowsFixtureDtorThrowsTestNameE+16, (%rax)
 4895      000000
 4896              	.LBE97:
 4897 209b C9       		leave
 4898              		.cfi_def_cfa 7, 8
 4899 209c C3       		ret
 4900              		.cfi_endproc
 4901              	.LFE1181:
 4903              		.local	_ZN12_GLOBAL__N_154testFixtureDtorThrowsFixtureDtorThrowsTestNameInstanceE
 4904              		.comm	_ZN12_GLOBAL__N_154testFixtureDtorThrowsFixtureDtorThrowsTestNameInstanceE,56,32
 4905              		.local	_ZN12_GLOBAL__N_147adderFixtureDtorThrowsFixtureDtorThrowsTestNameE
 4906              		.comm	_ZN12_GLOBAL__N_147adderFixtureDtorThrowsFixtureDtorThrowsTestNameE,1,1
 4907 209d 90       		.align 2
 4909              	_ZN12_GLOBAL__N_148FixtureDtorThrowsFixtureDtorThrowsTestNameHelperD2Ev:
 4910              	.LFB1185:
 4911              		.loc 6 138 0
 4912              		.cfi_startproc
 4913 209e 55       		pushq	%rbp
 4914              		.cfi_def_cfa_offset 16
 4915              		.cfi_offset 6, -16
 4916 209f 4889E5   		movq	%rsp, %rbp
 4917              		.cfi_def_cfa_register 6
 4918 20a2 4883EC10 		subq	$16, %rsp
 4919 20a6 48897DF8 		movq	%rdi, -8(%rbp)
 4920              	.LBB98:
 4921              		.loc 6 138 0
 4922 20aa 488B45F8 		movq	-8(%rbp), %rax
 4923 20ae 4889C7   		movq	%rax, %rdi
 4924 20b1 E846FFFF 		call	_ZN12_GLOBAL__N_117FixtureDtorThrowsD2Ev
 4924      FF
 4925              	.LBE98:
 4926 20b6 C9       		leave
 4927              		.cfi_def_cfa 7, 8
 4928 20b7 C3       		ret
 4929              		.cfi_endproc
 4930              	.LFE1185:
 4932              		.section	.rodata
 4933 09d9 00000000 		.align 8
 4933      000000
 4934              	.LC54:
 4935 09e0 556E6861 		.string	"Unhandled exception while destroying fixture FixtureDtorThrows"
 4935      6E646C65 
 4935      64206578 
 4935      63657074 
 4935      696F6E20 
 4936 0a1f 00       		.align 8
 4937              	.LC55:
 4938 0a20 556E6861 		.string	"Unhandled exception while constructing fixture FixtureDtorThrows"
 4938      6E646C65 
 4938      64206578 
 4938      63657074 
 4938      696F6E20 
 4939              		.text
 4940              		.align 2
 4942              	_ZNK12_GLOBAL__N_146TestFixtureDtorThrowsFixtureDtorThrowsTestName7RunImplEv:
 4943              	.LFB1183:
 4944              		.loc 6 138 0
 4945              		.cfi_startproc
 4946              		.cfi_personality 0x3,__gxx_personality_v0
 4947              		.cfi_lsda 0x3,.LLSDA1183
 4948 20b8 55       		pushq	%rbp
 4949              		.cfi_def_cfa_offset 16
 4950              		.cfi_offset 6, -16
 4951 20b9 4889E5   		movq	%rsp, %rbp
 4952              		.cfi_def_cfa_register 6
 4953 20bc 4154     		pushq	%r12
 4954 20be 53       		pushq	%rbx
 4955 20bf 4881ECC0 		subq	$448, %rsp
 4955      010000
 4956              		.cfi_offset 12, -24
 4957              		.cfi_offset 3, -32
 4958 20c6 4889BD38 		movq	%rdi, -456(%rbp)
 4958      FEFFFF
 4959              		.loc 6 138 0
 4960 20cd 64488B04 		movq	%fs:40, %rax
 4960      25280000 
 4960      00
 4961 20d6 488945E8 		movq	%rax, -24(%rbp)
 4962 20da 31C0     		xorl	%eax, %eax
 4963              	.LBB99:
 4964 20dc C6854FFE 		movb	$0, -433(%rbp)
 4964      FFFF00
 4965              	.LBB100:
 4966 20e3 488B8538 		movq	-456(%rbp), %rax
 4966      FEFFFF
 4967 20ea 488D5008 		leaq	8(%rax), %rdx
 4968 20ee 488D8560 		leaq	-416(%rbp), %rax
 4968      FEFFFF
 4969 20f5 4889D6   		movq	%rdx, %rsi
 4970 20f8 4889C7   		movq	%rax, %rdi
 4971 20fb E836FFFF 		call	_ZN12_GLOBAL__N_148FixtureDtorThrowsFixtureDtorThrowsTestNameHelperC2ERKN8UnitTest11TestDetai
 4971      FF
 4972 2100 C6854FFE 		movb	$1, -433(%rbp)
 4972      FFFF01
 4973 2107 488B8538 		movq	-456(%rbp), %rax
 4973      FEFFFF
 4974 210e 488D5008 		leaq	8(%rax), %rdx
 4975 2112 488D8560 		leaq	-416(%rbp), %rax
 4975      FEFFFF
 4976 2119 4889D6   		movq	%rdx, %rsi
 4977 211c 4889C7   		movq	%rax, %rdi
 4978              	.LEHB115:
 4979 211f E8851B00 		call	_ZN8UnitTest11ExecuteTestIN12_GLOBAL__N_148FixtureDtorThrowsFixtureDtorThrowsTestNameHelperEE
 4979      00
 4980              	.LEHE115:
 4981              		.loc 6 138 0 is_stmt 0 discriminator 3
 4982 2124 488D8560 		leaq	-416(%rbp), %rax
 4982      FEFFFF
 4983 212b 4889C7   		movq	%rax, %rdi
 4984              	.LEHB116:
 4985 212e E86BFFFF 		call	_ZN12_GLOBAL__N_148FixtureDtorThrowsFixtureDtorThrowsTestNameHelperD2Ev
 4985      FF
 4986              	.LEHE116:
 4987              	.LBE100:
 4988              	.LBE99:
 4989              		.loc 6 138 0
 4990 2133 E9640200 		jmp	.L274
 4990      00
 4991              	.L268:
 4992 2138 4989C4   		movq	%rax, %r12
 4993 213b 4889D3   		movq	%rdx, %rbx
 4994              	.LBB108:
 4995              	.LBB101:
 4996 213e 488D8560 		leaq	-416(%rbp), %rax
 4996      FEFFFF
 4997 2145 4889C7   		movq	%rax, %rdi
 4998 2148 E851FFFF 		call	_ZN12_GLOBAL__N_148FixtureDtorThrowsFixtureDtorThrowsTestNameHelperD2Ev
 4998      FF
 4999 214d 4C89E0   		movq	%r12, %rax
 5000 2150 4889DA   		movq	%rbx, %rdx
 5001 2153 EB00     		jmp	.L255
 5002              	.L267:
 5003              	.L255:
 5004 2155 4883FA01 		cmpq	$1, %rdx
 5005 2159 745C     		je	.L257
 5006 215b 4883FA02 		cmpq	$2, %rdx
 5007 215f 0F84F400 		je	.L258
 5007      0000
 5008 2165 E9980100 		jmp	.L273
 5008      00
 5009              	.L269:
 5010 216a 4889C3   		movq	%rax, %rbx
 5011              	.LBE101:
 5012              	.LBB102:
 5013 216d E8000000 		call	__cxa_end_catch
 5013      00
 5014 2172 4889D8   		movq	%rbx, %rax
 5015 2175 4889C7   		movq	%rax, %rdi
 5016              	.LEHB117:
 5017 2178 E8000000 		call	_Unwind_Resume
 5017      00
 5018              	.LEHE117:
 5019              	.L270:
 5020 217d 4889C3   		movq	%rax, %rbx
 5021              	.LBE102:
 5022              	.LBB103:
 5023              	.LBB104:
 5024 2180 488D8580 		leaq	-384(%rbp), %rax
 5024      FEFFFF
 5025 2187 4889C7   		movq	%rax, %rdi
 5026 218a E8000000 		call	_ZN8UnitTest15MemoryOutStreamD1Ev
 5026      00
 5027 218f EB03     		jmp	.L261
 5028              	.L271:
 5029 2191 4889C3   		movq	%rax, %rbx
 5030              	.L261:
 5031              	.LBE104:
 5032 2194 E8000000 		call	__cxa_end_catch
 5032      00
 5033 2199 4889D8   		movq	%rbx, %rax
 5034 219c 4889C7   		movq	%rax, %rdi
 5035              	.LEHB118:
 5036 219f E8000000 		call	_Unwind_Resume
 5036      00
 5037              	.LEHE118:
 5038              	.L272:
 5039 21a4 4889C3   		movq	%rax, %rbx
 5040              	.LBE103:
 5041 21a7 E8000000 		call	__cxa_end_catch
 5041      00
 5042 21ac 4889D8   		movq	%rbx, %rax
 5043 21af 4889C7   		movq	%rax, %rdi
 5044              	.LEHB119:
 5045 21b2 E8000000 		call	_Unwind_Resume
 5045      00
 5046              	.LEHE119:
 5047              	.L257:
 5048              	.LBB106:
 5049 21b7 4889C7   		movq	%rax, %rdi
 5050 21ba E8000000 		call	__cxa_begin_catch
 5050      00
 5051 21bf 48898550 		movq	%rax, -432(%rbp)
 5051      FEFFFF
 5052 21c6 488B8550 		movq	-432(%rbp), %rax
 5052      FEFFFF
 5053 21cd 488B00   		movq	(%rax), %rax
 5054 21d0 4883C010 		addq	$16, %rax
 5055 21d4 488B00   		movq	(%rax), %rax
 5056 21d7 488B9550 		movq	-432(%rbp), %rdx
 5056      FEFFFF
 5057 21de 4889D7   		movq	%rdx, %rdi
 5058 21e1 FFD0     		call	*%rax
 5059 21e3 4889C3   		movq	%rax, %rbx
 5060 21e6 488B8550 		movq	-432(%rbp), %rax
 5060      FEFFFF
 5061 21ed 4889C7   		movq	%rax, %rdi
 5062              	.LEHB120:
 5063 21f0 E8000000 		call	_ZNK8UnitTest15AssertException10LineNumberEv
 5063      00
 5064 21f5 4189C4   		movl	%eax, %r12d
 5065 21f8 488B8550 		movq	-432(%rbp), %rax
 5065      FEFFFF
 5066 21ff 4889C7   		movq	%rax, %rdi
 5067 2202 E8000000 		call	_ZNK8UnitTest15AssertException8FilenameEv
 5067      00
 5068              		.loc 6 138 0 discriminator 5
 5069 2207 4889C1   		movq	%rax, %rcx
 5070 220a 488B8538 		movq	-456(%rbp), %rax
 5070      FEFFFF
 5071 2211 488B5008 		movq	8(%rax), %rdx
 5072 2215 488B8538 		movq	-456(%rbp), %rax
 5072      FEFFFF
 5073 221c 488B7010 		movq	16(%rax), %rsi
 5074 2220 488D8560 		leaq	-416(%rbp), %rax
 5074      FEFFFF
 5075 2227 4589E0   		movl	%r12d, %r8d
 5076 222a 4889C7   		movq	%rax, %rdi
 5077 222d E8000000 		call	_ZN8UnitTest11TestDetailsC1EPKcS2_S2_i
 5077      00
 5078              		.loc 6 138 0 discriminator 9
 5079 2232 E8000000 		call	_ZN8UnitTest11CurrentTest7ResultsEv
 5079      00
 5080 2237 488B00   		movq	(%rax), %rax
 5081 223a 488D8D60 		leaq	-416(%rbp), %rcx
 5081      FEFFFF
 5082 2241 4889DA   		movq	%rbx, %rdx
 5083 2244 4889CE   		movq	%rcx, %rsi
 5084 2247 4889C7   		movq	%rax, %rdi
 5085 224a E8000000 		call	_ZN8UnitTest11TestResults13OnTestFailureERKNS_11TestDetailsEPKc
 5085      00
 5086              	.LEHE120:
 5087              		.loc 6 138 0 discriminator 13
 5088 224f E8000000 		call	__cxa_end_catch
 5088      00
 5089              	.LBE106:
 5090              	.LBE108:
 5091 2254 E9430100 		jmp	.L274
 5091      00
 5092              	.L258:
 5093              	.LBB109:
 5094              	.LBB107:
 5095              		.loc 6 138 0
 5096 2259 4889C7   		movq	%rax, %rdi
 5097 225c E8000000 		call	__cxa_begin_catch
 5097      00
 5098 2261 48898558 		movq	%rax, -424(%rbp)
 5098      FEFFFF
 5099              	.LBB105:
 5100 2268 488D8580 		leaq	-384(%rbp), %rax
 5100      FEFFFF
 5101 226f 4889C7   		movq	%rax, %rdi
 5102              	.LEHB121:
 5103 2272 E8000000 		call	_ZN8UnitTest15MemoryOutStreamC1Ev
 5103      00
 5104              	.LEHE121:
 5105              		.loc 6 138 0 discriminator 15
 5106 2277 488B8558 		movq	-424(%rbp), %rax
 5106      FEFFFF
 5107 227e 488B00   		movq	(%rax), %rax
 5108 2281 4883C010 		addq	$16, %rax
 5109 2285 488B00   		movq	(%rax), %rax
 5110 2288 488B9558 		movq	-424(%rbp), %rdx
 5110      FEFFFF
 5111 228f 4889D7   		movq	%rdx, %rdi
 5112 2292 FFD0     		call	*%rax
 5113 2294 4889C3   		movq	%rax, %rbx
 5114 2297 488D8580 		leaq	-384(%rbp), %rax
 5114      FEFFFF
 5115 229e BE000000 		movl	$.LC11, %esi
 5115      00
 5116 22a3 4889C7   		movq	%rax, %rdi
 5117              	.LEHB122:
 5118 22a6 E8000000 		call	_ZStlsISt11char_traitsIcEERSt13basic_ostreamIcT_ES5_PKc
 5118      00
 5119 22ab 4889DE   		movq	%rbx, %rsi
 5120 22ae 4889C7   		movq	%rax, %rdi
 5121 22b1 E8000000 		call	_ZStlsISt11char_traitsIcEERSt13basic_ostreamIcT_ES5_PKc
 5121      00
 5122              		.loc 6 138 0 discriminator 19
 5123 22b6 488D8580 		leaq	-384(%rbp), %rax
 5123      FEFFFF
 5124 22bd 4889C7   		movq	%rax, %rdi
 5125 22c0 E8000000 		call	_ZNK8UnitTest15MemoryOutStream7GetTextEv
 5125      00
 5126 22c5 4989C4   		movq	%rax, %r12
 5127 22c8 488B8538 		movq	-456(%rbp), %rax
 5127      FEFFFF
 5128 22cf 488D5808 		leaq	8(%rax), %rbx
 5129 22d3 E8000000 		call	_ZN8UnitTest11CurrentTest7ResultsEv
 5129      00
 5130              		.loc 6 138 0 discriminator 21
 5131 22d8 488B00   		movq	(%rax), %rax
 5132 22db 4C89E2   		movq	%r12, %rdx
 5133 22de 4889DE   		movq	%rbx, %rsi
 5134 22e1 4889C7   		movq	%rax, %rdi
 5135 22e4 E8000000 		call	_ZN8UnitTest11TestResults13OnTestFailureERKNS_11TestDetailsEPKc
 5135      00
 5136              	.LEHE122:
 5137              		.loc 6 138 0 discriminator 25
 5138 22e9 488D8580 		leaq	-384(%rbp), %rax
 5138      FEFFFF
 5139 22f0 4889C7   		movq	%rax, %rdi
 5140              	.LEHB123:
 5141 22f3 E8000000 		call	_ZN8UnitTest15MemoryOutStreamD1Ev
 5141      00
 5142              	.LEHE123:
 5143              	.LBE105:
 5144              		.loc 6 138 0 discriminator 26
 5145 22f8 E8000000 		call	__cxa_end_catch
 5145      00
 5146              	.LBE107:
 5147              	.LBE109:
 5148 22fd E99A0000 		jmp	.L274
 5148      00
 5149              	.L273:
 5150              	.LBB110:
 5151              		.loc 6 138 0
 5152 2302 4889C7   		movq	%rax, %rdi
 5153 2305 E8000000 		call	__cxa_begin_catch
 5153      00
 5154 230a 80BD4FFE 		cmpb	$0, -433(%rbp)
 5154      FFFF00
 5155 2311 7443     		je	.L264
 5156              		.loc 6 138 0 discriminator 28
 5157 2313 488B8538 		movq	-456(%rbp), %rax
 5157      FEFFFF
 5158 231a 488D4808 		leaq	8(%rax), %rcx
 5159 231e 488D8560 		leaq	-416(%rbp), %rax
 5159      FEFFFF
 5160 2325 BA8A0000 		movl	$138, %edx
 5160      00
 5161 232a 4889CE   		movq	%rcx, %rsi
 5162 232d 4889C7   		movq	%rax, %rdi
 5163              	.LEHB124:
 5164 2330 E8000000 		call	_ZN8UnitTest11TestDetailsC1ERKS0_i
 5164      00
 5165              		.loc 6 138 0 discriminator 31
 5166 2335 E8000000 		call	_ZN8UnitTest11CurrentTest7ResultsEv
 5166      00
 5167 233a 488B00   		movq	(%rax), %rax
 5168 233d 488D8D60 		leaq	-416(%rbp), %rcx
 5168      FEFFFF
 5169 2344 BA000000 		movl	$.LC54, %edx
 5169      00
 5170 2349 4889CE   		movq	%rcx, %rsi
 5171 234c 4889C7   		movq	%rax, %rdi
 5172 234f E8000000 		call	_ZN8UnitTest11TestResults13OnTestFailureERKNS_11TestDetailsEPKc
 5172      00
 5173 2354 EB41     		jmp	.L265
 5174              	.L264:
 5175              		.loc 6 138 0 discriminator 29
 5176 2356 488B8538 		movq	-456(%rbp), %rax
 5176      FEFFFF
 5177 235d 488D4808 		leaq	8(%rax), %rcx
 5178 2361 488D8560 		leaq	-416(%rbp), %rax
 5178      FEFFFF
 5179 2368 BA8A0000 		movl	$138, %edx
 5179      00
 5180 236d 4889CE   		movq	%rcx, %rsi
 5181 2370 4889C7   		movq	%rax, %rdi
 5182 2373 E8000000 		call	_ZN8UnitTest11TestDetailsC1ERKS0_i
 5182      00
 5183              		.loc 6 138 0 discriminator 38
 5184 2378 E8000000 		call	_ZN8UnitTest11CurrentTest7ResultsEv
 5184      00
 5185 237d 488B00   		movq	(%rax), %rax
 5186 2380 488D8D60 		leaq	-416(%rbp), %rcx
 5186      FEFFFF
 5187 2387 BA000000 		movl	$.LC55, %edx
 5187      00
 5188 238c 4889CE   		movq	%rcx, %rsi
 5189 238f 4889C7   		movq	%rax, %rdi
 5190 2392 E8000000 		call	_ZN8UnitTest11TestResults13OnTestFailureERKNS_11TestDetailsEPKc
 5190      00
 5191              	.LEHE124:
 5192              	.L265:
 5193              	.LEHB125:
 5194              		.loc 6 138 0 discriminator 43
 5195 2397 E8000000 		call	__cxa_end_catch
 5195      00
 5196              	.LEHE125:
 5197              	.L274:
 5198              	.LBE110:
 5199              		.loc 6 138 0
 5200 239c 90       		nop
 5201 239d 488B45E8 		movq	-24(%rbp), %rax
 5202 23a1 64483304 		xorq	%fs:40, %rax
 5202      25280000 
 5202      00
 5203 23aa 7405     		je	.L266
 5204 23ac E8000000 		call	__stack_chk_fail
 5204      00
 5205              	.L266:
 5206 23b1 4881C4C0 		addq	$448, %rsp
 5206      010000
 5207 23b8 5B       		popq	%rbx
 5208 23b9 415C     		popq	%r12
 5209 23bb 5D       		popq	%rbp
 5210              		.cfi_def_cfa 7, 8
 5211 23bc C3       		ret
 5212              		.cfi_endproc
 5213              	.LFE1183:
 5214              		.section	.gcc_except_table
 5215              		.align 4
 5216              	.LLSDA1183:
 5217 0310 FF       		.byte	0xff
 5218 0311 03       		.byte	0x3
 5219 0312 55       		.uleb128 .LLSDATT1183-.LLSDATTD1183
 5220              	.LLSDATTD1183:
 5221 0313 01       		.byte	0x1
 5222 0314 3C       		.uleb128 .LLSDACSE1183-.LLSDACSB1183
 5223              	.LLSDACSB1183:
 5224 0315 67       		.uleb128 .LEHB115-.LFB1183
 5225 0316 05       		.uleb128 .LEHE115-.LEHB115
 5226 0317 8001     		.uleb128 .L268-.LFB1183
 5227 0319 07       		.uleb128 0x7
 5228 031a 76       		.uleb128 .LEHB116-.LFB1183
 5229 031b 05       		.uleb128 .LEHE116-.LEHB116
 5230 031c 9D01     		.uleb128 .L267-.LFB1183
 5231 031e 05       		.uleb128 0x5
 5232 031f C001     		.uleb128 .LEHB117-.LFB1183
 5233 0321 05       		.uleb128 .LEHE117-.LEHB117
 5234 0322 00       		.uleb128 0
 5235 0323 00       		.uleb128 0
 5236 0324 E701     		.uleb128 .LEHB118-.LFB1183
 5237 0326 05       		.uleb128 .LEHE118-.LEHB118
 5238 0327 00       		.uleb128 0
 5239 0328 00       		.uleb128 0
 5240 0329 FA01     		.uleb128 .LEHB119-.LFB1183
 5241 032b 05       		.uleb128 .LEHE119-.LEHB119
 5242 032c 00       		.uleb128 0
 5243 032d 00       		.uleb128 0
 5244 032e B802     		.uleb128 .LEHB120-.LFB1183
 5245 0330 5F       		.uleb128 .LEHE120-.LEHB120
 5246 0331 B201     		.uleb128 .L269-.LFB1183
 5247 0333 00       		.uleb128 0
 5248 0334 BA03     		.uleb128 .LEHB121-.LFB1183
 5249 0336 05       		.uleb128 .LEHE121-.LEHB121
 5250 0337 D901     		.uleb128 .L271-.LFB1183
 5251 0339 00       		.uleb128 0
 5252 033a EE03     		.uleb128 .LEHB122-.LFB1183
 5253 033c 43       		.uleb128 .LEHE122-.LEHB122
 5254 033d C501     		.uleb128 .L270-.LFB1183
 5255 033f 00       		.uleb128 0
 5256 0340 BB04     		.uleb128 .LEHB123-.LFB1183
 5257 0342 05       		.uleb128 .LEHE123-.LEHB123
 5258 0343 D901     		.uleb128 .L271-.LFB1183
 5259 0345 00       		.uleb128 0
 5260 0346 F804     		.uleb128 .LEHB124-.LFB1183
 5261 0348 67       		.uleb128 .LEHE124-.LEHB124
 5262 0349 EC01     		.uleb128 .L272-.LFB1183
 5263 034b 00       		.uleb128 0
 5264 034c DF05     		.uleb128 .LEHB125-.LFB1183
 5265 034e 05       		.uleb128 .LEHE125-.LEHB125
 5266 034f 00       		.uleb128 0
 5267 0350 00       		.uleb128 0
 5268              	.LLSDACSE1183:
 5269 0351 03       		.byte	0x3
 5270 0352 00       		.byte	0
 5271 0353 02       		.byte	0x2
 5272 0354 7D       		.byte	0x7d
 5273 0355 01       		.byte	0x1
 5274 0356 7D       		.byte	0x7d
 5275 0357 00       		.byte	0
 5276 0358 7D       		.byte	0x7d
 5277 0359 000000   		.align 4
 5278 035c 00000000 		.long	0
 5279              	
 5280 0360 00000000 		.long	_ZTISt9exception
 5281 0364 00000000 		.long	_ZTIN8UnitTest15AssertExceptionE
 5282              	.LLSDATT1183:
 5283              		.text
 5285 23bd 90       		.align 2
 5287              	_ZN12_GLOBAL__N_148FixtureDtorThrowsFixtureDtorThrowsTestNameHelper7RunImplEv:
 5288              	.LFB1187:
 139:TestTestMacros.cpp **** {
 5289              		.loc 6 139 0 is_stmt 1
 5290              		.cfi_startproc
 5291 23be 55       		pushq	%rbp
 5292              		.cfi_def_cfa_offset 16
 5293              		.cfi_offset 6, -16
 5294 23bf 4889E5   		movq	%rsp, %rbp
 5295              		.cfi_def_cfa_register 6
 5296 23c2 48897DF8 		movq	%rdi, -8(%rbp)
 140:TestTestMacros.cpp **** }
 5297              		.loc 6 140 0
 5298 23c6 5D       		popq	%rbp
 5299              		.cfi_def_cfa 7, 8
 5300 23c7 C3       		ret
 5301              		.cfi_endproc
 5302              	.LFE1187:
 5304              		.section	.rodata
 5305 0a61 00000000 		.align 8
 5305      000000
 5306              	.LC56:
 5307 0a68 46697874 		.string	"FixturesWithThrowingDtorsAreFailures"
 5307      75726573 
 5307      57697468 
 5307      5468726F 
 5307      77696E67 
 5308              		.text
 5309              		.align 2
 5311              	_ZN12_GLOBAL__N_140TestFixturesWithThrowingDtorsAreFailuresC2Ev:
 5312              	.LFB1189:
 141:TestTestMacros.cpp **** 
 142:TestTestMacros.cpp **** TEST(FixturesWithThrowingDtorsAreFailures)
 5313              		.loc 6 142 0
 5314              		.cfi_startproc
 5315 23c8 55       		pushq	%rbp
 5316              		.cfi_def_cfa_offset 16
 5317              		.cfi_offset 6, -16
 5318 23c9 4889E5   		movq	%rsp, %rbp
 5319              		.cfi_def_cfa_register 6
 5320 23cc 4883EC10 		subq	$16, %rsp
 5321 23d0 48897DF8 		movq	%rdi, -8(%rbp)
 5322              	.LBB111:
 5323              		.loc 6 142 0
 5324 23d4 E8000000 		call	_ZN13UnitTestSuite12GetSuiteNameEv
 5324      00
 5325 23d9 4889C2   		movq	%rax, %rdx
 5326 23dc 488B45F8 		movq	-8(%rbp), %rax
 5327 23e0 41B88E00 		movl	$142, %r8d
 5327      0000
 5328 23e6 B9000000 		movl	$.LC2, %ecx
 5328      00
 5329 23eb BE000000 		movl	$.LC56, %esi
 5329      00
 5330 23f0 4889C7   		movq	%rax, %rdi
 5331 23f3 E8000000 		call	_ZN8UnitTest4TestC2EPKcS2_S2_i
 5331      00
 5332 23f8 488B45F8 		movq	-8(%rbp), %rax
 5333 23fc 48C70000 		movq	$_ZTVN12_GLOBAL__N_140TestFixturesWithThrowingDtorsAreFailuresE+16, (%rax)
 5333      000000
 5334              	.LBE111:
 5335 2403 C9       		leave
 5336              		.cfi_def_cfa 7, 8
 5337 2404 C3       		ret
 5338              		.cfi_endproc
 5339              	.LFE1189:
 5341              		.local	_ZN12_GLOBAL__N_148testFixturesWithThrowingDtorsAreFailuresInstanceE
 5342              		.comm	_ZN12_GLOBAL__N_148testFixturesWithThrowingDtorsAreFailuresInstanceE,56,32
 5343              		.local	_ZN12_GLOBAL__N_141adderFixturesWithThrowingDtorsAreFailuresE
 5344              		.comm	_ZN12_GLOBAL__N_141adderFixturesWithThrowingDtorsAreFailuresE,1,1
 5345              		.section	.rodata
 5346 0a8d 000000   		.align 8
 5347              	.LC57:
 5348 0a90 7468726F 		.string	"throwingFixtureTestList2.GetHead() != NULL"
 5348      77696E67 
 5348      46697874 
 5348      75726554 
 5348      6573744C 
 5349              	.LC58:
 5350 0abb 7768696C 		.string	"while destroying fixture"
 5350      65206465 
 5350      7374726F 
 5350      79696E67 
 5350      20666978 
 5351 0ad4 00000000 		.align 8
 5352              	.LC59:
 5353 0ad8 73747273 		.string	"strstr(reporter.lastFailedMessage, \"while destroying fixture\")"
 5353      74722872 
 5353      65706F72 
 5353      7465722E 
 5353      6C617374 
 5354 0b17 00       		.align 8
 5355              	.LC60:
 5356 0b18 556E6861 		.string	"Unhandled exception in CHECK(throwingFixtureTestList2.GetHead() != NULL)"
 5356      6E646C65 
 5356      64206578 
 5356      63657074 
 5356      696F6E20 
 5357 0b61 00000000 		.align 8
 5357      000000
 5358              	.LC61:
 5359 0b68 556E6861 		.string	"Unhandled exception in CHECK(strstr(reporter.lastFailedMessage, \"while destroying fixtur
 5359      6E646C65 
 5359      64206578 
 5359      63657074 
 5359      696F6E20 
 5360              		.text
 5361 2405 90       		.align 2
 5363              	_ZNK12_GLOBAL__N_140TestFixturesWithThrowingDtorsAreFailures7RunImplEv:
 5364              	.LFB1191:
 143:TestTestMacros.cpp **** {
 5365              		.loc 6 143 0
 5366              		.cfi_startproc
 5367              		.cfi_personality 0x3,__gxx_personality_v0
 5368              		.cfi_lsda 0x3,.LLSDA1191
 5369 2406 55       		pushq	%rbp
 5370              		.cfi_def_cfa_offset 16
 5371              		.cfi_offset 6, -16
 5372 2407 4889E5   		movq	%rsp, %rbp
 5373              		.cfi_def_cfa_register 6
 5374 240a 53       		pushq	%rbx
 5375 240b 4881ECA8 		subq	$2216, %rsp
 5375      080000
 5376              		.cfi_offset 3, -24
 5377 2412 4889BD58 		movq	%rdi, -2216(%rbp)
 5377      F7FFFF
 5378              		.loc 6 143 0
 5379 2419 64488B04 		movq	%fs:40, %rax
 5379      25280000 
 5379      00
 5380 2422 488945E8 		movq	%rax, -24(%rbp)
 5381 2426 31C0     		xorl	%eax, %eax
 5382              	.LBB112:
 144:TestTestMacros.cpp **** 	CHECK(throwingFixtureTestList2.GetHead() != NULL);
 5383              		.loc 6 144 0
 5384 2428 BF000000 		movl	$_ZN12_GLOBAL__N_124throwingFixtureTestList2E, %edi
 5384      00
 5385              	.LEHB126:
 5386 242d E8000000 		call	_ZNK8UnitTest8TestList7GetHeadEv
 5386      00
 5387 2432 4885C0   		testq	%rax, %rax
 5388 2435 0F95C0   		setne	%al
 5389 2438 0FB6C0   		movzbl	%al, %eax
 5390 243b 89C7     		movl	%eax, %edi
 5391 243d E8000000 		call	_ZN8UnitTest5CheckIbEEbT_
 5391      00
 5392 2442 83F001   		xorl	$1, %eax
 5393 2445 84C0     		testb	%al, %al
 5394 2447 743E     		je	.L278
 5395              		.loc 6 144 0 is_stmt 0 discriminator 2
 5396 2449 E8000000 		call	_ZN8UnitTest11CurrentTest7DetailsEv
 5396      00
 5397 244e 488B08   		movq	(%rax), %rcx
 5398 2451 488D8590 		leaq	-2160(%rbp), %rax
 5398      F7FFFF
 5399 2458 BA900000 		movl	$144, %edx
 5399      00
 5400 245d 4889CE   		movq	%rcx, %rsi
 5401 2460 4889C7   		movq	%rax, %rdi
 5402 2463 E8000000 		call	_ZN8UnitTest11TestDetailsC1ERKS0_i
 5402      00
 5403              		.loc 6 144 0 discriminator 4
 5404 2468 E8000000 		call	_ZN8UnitTest11CurrentTest7ResultsEv
 5404      00
 5405 246d 488B00   		movq	(%rax), %rax
 5406 2470 488D8D90 		leaq	-2160(%rbp), %rcx
 5406      F7FFFF
 5407 2477 BA000000 		movl	$.LC57, %edx
 5407      00
 5408 247c 4889CE   		movq	%rcx, %rsi
 5409 247f 4889C7   		movq	%rax, %rdi
 5410 2482 E8000000 		call	_ZN8UnitTest11TestResults13OnTestFailureERKNS_11TestDetailsEPKc
 5410      00
 5411              	.LEHE126:
 5412              	.L278:
 145:TestTestMacros.cpp **** 
 146:TestTestMacros.cpp **** 	RecordingReporter reporter;
 5413              		.loc 6 146 0 is_stmt 1
 5414 2487 488D85B0 		leaq	-2128(%rbp), %rax
 5414      F7FFFF
 5415 248e 4889C7   		movq	%rax, %rdi
 5416 2491 E8000000 		call	_ZN17RecordingReporterC1Ev
 5416      00
 147:TestTestMacros.cpp **** 	TestResults result(&reporter);
 5417              		.loc 6 147 0
 5418 2496 488D95B0 		leaq	-2128(%rbp), %rdx
 5418      F7FFFF
 5419 249d 488D8570 		leaq	-2192(%rbp), %rax
 5419      F7FFFF
 5420 24a4 4889D6   		movq	%rdx, %rsi
 5421 24a7 4889C7   		movq	%rax, %rdi
 5422              	.LEHB127:
 5423 24aa E8000000 		call	_ZN8UnitTest11TestResultsC1EPNS_12TestReporterE
 5423      00
 5424              	.LBB113:
 148:TestTestMacros.cpp **** 	{
 149:TestTestMacros.cpp **** 		ScopedCurrentTest scopedResult(result);
 5425              		.loc 6 149 0
 5426 24af 488D8D70 		leaq	-2192(%rbp), %rcx
 5426      F7FFFF
 5427 24b6 488D8590 		leaq	-2160(%rbp), %rax
 5427      F7FFFF
 5428 24bd BA000000 		movl	$0, %edx
 5428      00
 5429 24c2 4889CE   		movq	%rcx, %rsi
 5430 24c5 4889C7   		movq	%rax, %rdi
 5431 24c8 E8000000 		call	_ZN17ScopedCurrentTestC1ERN8UnitTest11TestResultsEPKNS0_11TestDetailsE
 5431      00
 5432              	.LEHE127:
 150:TestTestMacros.cpp **** 		throwingFixtureTestList2.GetHead()->Run();
 5433              		.loc 6 150 0
 5434 24cd BF000000 		movl	$_ZN12_GLOBAL__N_124throwingFixtureTestList2E, %edi
 5434      00
 5435              	.LEHB128:
 5436 24d2 E8000000 		call	_ZNK8UnitTest8TestList7GetHeadEv
 5436      00
 5437 24d7 4889C7   		movq	%rax, %rdi
 5438 24da E8000000 		call	_ZN8UnitTest4Test3RunEv
 5438      00
 5439              	.LEHE128:
 5440              		.loc 6 150 0 is_stmt 0 discriminator 4
 5441 24df 488D8590 		leaq	-2160(%rbp), %rax
 5441      F7FFFF
 5442 24e6 4889C7   		movq	%rax, %rdi
 5443              	.LEHB129:
 5444 24e9 E8000000 		call	_ZN17ScopedCurrentTestD1Ev
 5444      00
 5445              	.LBE113:
 151:TestTestMacros.cpp **** 	}
 152:TestTestMacros.cpp **** 
 153:TestTestMacros.cpp **** 	int const failureCount = result.GetFailedTestCount();
 5446              		.loc 6 153 0 is_stmt 1
 5447 24ee 488D8570 		leaq	-2192(%rbp), %rax
 5447      F7FFFF
 5448 24f5 4889C7   		movq	%rax, %rdi
 5449 24f8 E8000000 		call	_ZNK8UnitTest11TestResults18GetFailedTestCountEv
 5449      00
 5450              	.LEHE129:
 5451 24fd 898568F7 		movl	%eax, -2200(%rbp)
 5451      FFFF
 5452              	.LEHB130:
 154:TestTestMacros.cpp **** 	CHECK_EQUAL(1, failureCount);
 5453              		.loc 6 154 0
 5454 2503 E8000000 		call	_ZN8UnitTest11CurrentTest7DetailsEv
 5454      00
 5455              		.loc 6 154 0 is_stmt 0 discriminator 1
 5456 2508 488B08   		movq	(%rax), %rcx
 5457 250b 488D8590 		leaq	-2160(%rbp), %rax
 5457      F7FFFF
 5458 2512 BA9A0000 		movl	$154, %edx
 5458      00
 5459 2517 4889CE   		movq	%rcx, %rsi
 5460 251a 4889C7   		movq	%rax, %rdi
 5461 251d E8000000 		call	_ZN8UnitTest11TestDetailsC1ERKS0_i
 5461      00
 5462              		.loc 6 154 0 discriminator 2
 5463 2522 C7856CF7 		movl	$1, -2196(%rbp)
 5463      FFFF0100 
 5463      0000
 5464 252c E8000000 		call	_ZN8UnitTest11CurrentTest7ResultsEv
 5464      00
 5465 2531 488B00   		movq	(%rax), %rax
 5466 2534 488D8D90 		leaq	-2160(%rbp), %rcx
 5466      F7FFFF
 5467 253b 488D9568 		leaq	-2200(%rbp), %rdx
 5467      F7FFFF
 5468 2542 488DB56C 		leaq	-2196(%rbp), %rsi
 5468      F7FFFF
 5469 2549 4889C7   		movq	%rax, %rdi
 5470 254c E8000000 		call	_ZN8UnitTest10CheckEqualIiiEEvRNS_11TestResultsERKT_RKT0_RKNS_11TestDetailsE
 5470      00
 5471              	.LEHE130:
 5472              	.L286:
 155:TestTestMacros.cpp **** 	CHECK(strstr(reporter.lastFailedMessage, "while destroying fixture"));
 5473              		.loc 6 155 0 is_stmt 1
 5474 2551 488D85B0 		leaq	-2128(%rbp), %rax
 5474      F7FFFF
 5475 2558 48051405 		addq	$1300, %rax
 5475      0000
 5476 255e BE000000 		movl	$.LC58, %esi
 5476      00
 5477 2563 4889C7   		movq	%rax, %rdi
 5478 2566 E8000000 		call	strstr
 5478      00
 5479 256b 4889C7   		movq	%rax, %rdi
 5480 256e E8000000 		call	_ZN8UnitTest5CheckIPcEEbT_
 5480      00
 5481 2573 83F001   		xorl	$1, %eax
 5482 2576 84C0     		testb	%al, %al
 5483 2578 743E     		je	.L279
 5484              	.LEHB131:
 5485              		.loc 6 155 0 is_stmt 0 discriminator 1
 5486 257a E8000000 		call	_ZN8UnitTest11CurrentTest7DetailsEv
 5486      00
 5487 257f 488B08   		movq	(%rax), %rcx
 5488 2582 488D8590 		leaq	-2160(%rbp), %rax
 5488      F7FFFF
 5489 2589 BA9B0000 		movl	$155, %edx
 5489      00
 5490 258e 4889CE   		movq	%rcx, %rsi
 5491 2591 4889C7   		movq	%rax, %rdi
 5492 2594 E8000000 		call	_ZN8UnitTest11TestDetailsC1ERKS0_i
 5492      00
 5493              		.loc 6 155 0 discriminator 4
 5494 2599 E8000000 		call	_ZN8UnitTest11CurrentTest7ResultsEv
 5494      00
 5495 259e 488B00   		movq	(%rax), %rax
 5496 25a1 488D8D90 		leaq	-2160(%rbp), %rcx
 5496      F7FFFF
 5497 25a8 BA000000 		movl	$.LC59, %edx
 5497      00
 5498 25ad 4889CE   		movq	%rcx, %rsi
 5499 25b0 4889C7   		movq	%rax, %rdi
 5500 25b3 E8000000 		call	_ZN8UnitTest11TestResults13OnTestFailureERKNS_11TestDetailsEPKc
 5500      00
 5501              	.LEHE131:
 5502              	.L279:
 5503              		.loc 6 155 0 discriminator 9
 5504 25b8 488D85B0 		leaq	-2128(%rbp), %rax
 5504      F7FFFF
 5505 25bf 4889C7   		movq	%rax, %rdi
 5506              	.LEHB132:
 5507 25c2 E8000000 		call	_ZN17RecordingReporterD1Ev
 5507      00
 5508              	.LEHE132:
 5509              	.LBE112:
 156:TestTestMacros.cpp **** }
 5510              		.loc 6 156 0 is_stmt 1 discriminator 9
 5511 25c7 488B45E8 		movq	-24(%rbp), %rax
 5512 25cb 64483304 		xorq	%fs:40, %rax
 5512      25280000 
 5512      00
 5513 25d4 0F845801 		je	.L289
 5513      0000
 5514 25da E94E0100 		jmp	.L298
 5514      00
 5515              	.L291:
 5516 25df 4889C3   		movq	%rax, %rbx
 5517              	.LBB115:
 144:TestTestMacros.cpp **** 
 5518              		.loc 6 144 0
 5519 25e2 E8000000 		call	__cxa_end_catch
 5519      00
 5520 25e7 4889D8   		movq	%rbx, %rax
 5521 25ea 4889C7   		movq	%rax, %rdi
 5522              	.LEHB133:
 5523 25ed E8000000 		call	_Unwind_Resume
 5523      00
 5524              	.LEHE133:
 5525              	.L290:
 5526 25f2 4889C7   		movq	%rax, %rdi
 5527 25f5 E8000000 		call	__cxa_begin_catch
 5527      00
 5528              	.LEHB134:
 5529 25fa E8000000 		call	_ZN8UnitTest11CurrentTest7DetailsEv
 5529      00
 5530 25ff 488B08   		movq	(%rax), %rcx
 5531 2602 488D8590 		leaq	-2160(%rbp), %rax
 5531      F7FFFF
 5532 2609 BA900000 		movl	$144, %edx
 5532      00
 5533 260e 4889CE   		movq	%rcx, %rsi
 5534 2611 4889C7   		movq	%rax, %rdi
 5535 2614 E8000000 		call	_ZN8UnitTest11TestDetailsC1ERKS0_i
 5535      00
 144:TestTestMacros.cpp **** 
 5536              		.loc 6 144 0 is_stmt 0 discriminator 12
 5537 2619 E8000000 		call	_ZN8UnitTest11CurrentTest7ResultsEv
 5537      00
 5538 261e 488B00   		movq	(%rax), %rax
 5539 2621 488D8D90 		leaq	-2160(%rbp), %rcx
 5539      F7FFFF
 5540 2628 BA000000 		movl	$.LC60, %edx
 5540      00
 5541 262d 4889CE   		movq	%rcx, %rsi
 5542 2630 4889C7   		movq	%rax, %rdi
 5543 2633 E8000000 		call	_ZN8UnitTest11TestResults13OnTestFailureERKNS_11TestDetailsEPKc
 5543      00
 5544              	.LEHE134:
 5545              	.LEHB135:
 144:TestTestMacros.cpp **** 
 5546              		.loc 6 144 0 discriminator 16
 5547 2638 E8000000 		call	__cxa_end_catch
 5547      00
 5548              	.LEHE135:
 5549 263d E945FEFF 		jmp	.L278
 5549      FF
 5550              	.L293:
 5551 2642 4889C3   		movq	%rax, %rbx
 5552              	.LBB114:
 150:TestTestMacros.cpp **** 	}
 5553              		.loc 6 150 0 is_stmt 1
 5554 2645 488D8590 		leaq	-2160(%rbp), %rax
 5554      F7FFFF
 5555 264c 4889C7   		movq	%rax, %rdi
 5556 264f E8000000 		call	_ZN17ScopedCurrentTestD1Ev
 5556      00
 5557 2654 E9BA0000 		jmp	.L283
 5557      00
 5558              	.L295:
 5559 2659 4889C3   		movq	%rax, %rbx
 5560              	.LBE114:
 154:TestTestMacros.cpp **** 	CHECK(strstr(reporter.lastFailedMessage, "while destroying fixture"));
 5561              		.loc 6 154 0
 5562 265c E8000000 		call	__cxa_end_catch
 5562      00
 5563 2661 E9AD0000 		jmp	.L283
 5563      00
 5564              	.L294:
 5565 2666 4889C7   		movq	%rax, %rdi
 5566 2669 E8000000 		call	__cxa_begin_catch
 5566      00
 5567              	.LEHB136:
 5568 266e E8000000 		call	_ZN8UnitTest11CurrentTest7DetailsEv
 5568      00
 5569 2673 488B08   		movq	(%rax), %rcx
 5570 2676 488D8590 		leaq	-2160(%rbp), %rax
 5570      F7FFFF
 5571 267d BA9A0000 		movl	$154, %edx
 5571      00
 5572 2682 4889CE   		movq	%rcx, %rsi
 5573 2685 4889C7   		movq	%rax, %rdi
 5574 2688 E8000000 		call	_ZN8UnitTest11TestDetailsC1ERKS0_i
 5574      00
 154:TestTestMacros.cpp **** 	CHECK(strstr(reporter.lastFailedMessage, "while destroying fixture"));
 5575              		.loc 6 154 0 is_stmt 0 discriminator 10
 5576 268d E8000000 		call	_ZN8UnitTest11CurrentTest7ResultsEv
 5576      00
 5577 2692 488B00   		movq	(%rax), %rax
 5578 2695 488D8D90 		leaq	-2160(%rbp), %rcx
 5578      F7FFFF
 5579 269c BA000000 		movl	$.LC51, %edx
 5579      00
 5580 26a1 4889CE   		movq	%rcx, %rsi
 5581 26a4 4889C7   		movq	%rax, %rdi
 5582 26a7 E8000000 		call	_ZN8UnitTest11TestResults13OnTestFailureERKNS_11TestDetailsEPKc
 5582      00
 5583              	.LEHE136:
 5584              	.LEHB137:
 154:TestTestMacros.cpp **** 	CHECK(strstr(reporter.lastFailedMessage, "while destroying fixture"));
 5585              		.loc 6 154 0 discriminator 14
 5586 26ac E8000000 		call	__cxa_end_catch
 5586      00
 5587              	.LEHE137:
 154:TestTestMacros.cpp **** 	CHECK(strstr(reporter.lastFailedMessage, "while destroying fixture"));
 5588              		.loc 6 154 0
 5589 26b1 E99BFEFF 		jmp	.L286
 5589      FF
 5590              	.L297:
 5591 26b6 4889C3   		movq	%rax, %rbx
 155:TestTestMacros.cpp **** }
 5592              		.loc 6 155 0 is_stmt 1
 5593 26b9 E8000000 		call	__cxa_end_catch
 5593      00
 5594 26be EB53     		jmp	.L283
 5595              	.L296:
 5596 26c0 4889C7   		movq	%rax, %rdi
 5597 26c3 E8000000 		call	__cxa_begin_catch
 5597      00
 5598              	.LEHB138:
 5599 26c8 E8000000 		call	_ZN8UnitTest11CurrentTest7DetailsEv
 5599      00
 5600 26cd 488B08   		movq	(%rax), %rcx
 5601 26d0 488D8590 		leaq	-2160(%rbp), %rax
 5601      F7FFFF
 5602 26d7 BA9B0000 		movl	$155, %edx
 5602      00
 5603 26dc 4889CE   		movq	%rcx, %rsi
 5604 26df 4889C7   		movq	%rax, %rdi
 5605 26e2 E8000000 		call	_ZN8UnitTest11TestDetailsC1ERKS0_i
 5605      00
 155:TestTestMacros.cpp **** }
 5606              		.loc 6 155 0 is_stmt 0 discriminator 13
 5607 26e7 E8000000 		call	_ZN8UnitTest11CurrentTest7ResultsEv
 5607      00
 5608 26ec 488B00   		movq	(%rax), %rax
 5609 26ef 488D8D90 		leaq	-2160(%rbp), %rcx
 5609      F7FFFF
 5610 26f6 BA000000 		movl	$.LC61, %edx
 5610      00
 5611 26fb 4889CE   		movq	%rcx, %rsi
 5612 26fe 4889C7   		movq	%rax, %rdi
 5613 2701 E8000000 		call	_ZN8UnitTest11TestResults13OnTestFailureERKNS_11TestDetailsEPKc
 5613      00
 5614              	.LEHE138:
 5615              	.LEHB139:
 155:TestTestMacros.cpp **** }
 5616              		.loc 6 155 0 discriminator 17
 5617 2706 E8000000 		call	__cxa_end_catch
 5617      00
 5618              	.LEHE139:
 155:TestTestMacros.cpp **** }
 5619              		.loc 6 155 0
 5620 270b E9A8FEFF 		jmp	.L279
 5620      FF
 5621              	.L292:
 5622 2710 4889C3   		movq	%rax, %rbx
 5623              	.L283:
 155:TestTestMacros.cpp **** }
 5624              		.loc 6 155 0 discriminator 18
 5625 2713 488D85B0 		leaq	-2128(%rbp), %rax
 5625      F7FFFF
 5626 271a 4889C7   		movq	%rax, %rdi
 5627 271d E8000000 		call	_ZN17RecordingReporterD1Ev
 5627      00
 5628 2722 4889D8   		movq	%rbx, %rax
 5629 2725 4889C7   		movq	%rax, %rdi
 5630              	.LEHB140:
 5631 2728 E8000000 		call	_Unwind_Resume
 5631      00
 5632              	.LEHE140:
 5633              	.L298:
 5634              	.LBE115:
 5635              		.loc 6 156 0 is_stmt 1
 5636 272d E8000000 		call	__stack_chk_fail
 5636      00
 5637              	.L289:
 5638 2732 4881C4A8 		addq	$2216, %rsp
 5638      080000
 5639 2739 5B       		popq	%rbx
 5640 273a 5D       		popq	%rbp
 5641              		.cfi_def_cfa 7, 8
 5642 273b C3       		ret
 5643              		.cfi_endproc
 5644              	.LFE1191:
 5645              		.section	.gcc_except_table
 5646              		.align 4
 5647              	.LLSDA1191:
 5648 0368 FF       		.byte	0xff
 5649 0369 03       		.byte	0x3
 5650 036a 5D       		.uleb128 .LLSDATT1191-.LLSDATTD1191
 5651              	.LLSDATTD1191:
 5652 036b 01       		.byte	0x1
 5653 036c 55       		.uleb128 .LLSDACSE1191-.LLSDACSB1191
 5654              	.LLSDACSB1191:
 5655 036d 27       		.uleb128 .LEHB126-.LFB1191
 5656 036e 5A       		.uleb128 .LEHE126-.LEHB126
 5657 036f EC03     		.uleb128 .L290-.LFB1191
 5658 0371 01       		.uleb128 0x1
 5659 0372 A401     		.uleb128 .LEHB127-.LFB1191
 5660 0374 23       		.uleb128 .LEHE127-.LEHB127
 5661 0375 8A06     		.uleb128 .L292-.LFB1191
 5662 0377 00       		.uleb128 0
 5663 0378 CC01     		.uleb128 .LEHB128-.LFB1191
 5664 037a 0D       		.uleb128 .LEHE128-.LEHB128
 5665 037b BC04     		.uleb128 .L293-.LFB1191
 5666 037d 00       		.uleb128 0
 5667 037e E301     		.uleb128 .LEHB129-.LFB1191
 5668 0380 14       		.uleb128 .LEHE129-.LEHB129
 5669 0381 8A06     		.uleb128 .L292-.LFB1191
 5670 0383 00       		.uleb128 0
 5671 0384 FD01     		.uleb128 .LEHB130-.LFB1191
 5672 0386 4E       		.uleb128 .LEHE130-.LEHB130
 5673 0387 E004     		.uleb128 .L294-.LFB1191
 5674 0389 01       		.uleb128 0x1
 5675 038a F402     		.uleb128 .LEHB131-.LFB1191
 5676 038c 3E       		.uleb128 .LEHE131-.LEHB131
 5677 038d BA05     		.uleb128 .L296-.LFB1191
 5678 038f 01       		.uleb128 0x1
 5679 0390 BC03     		.uleb128 .LEHB132-.LFB1191
 5680 0392 05       		.uleb128 .LEHE132-.LEHB132
 5681 0393 00       		.uleb128 0
 5682 0394 00       		.uleb128 0
 5683 0395 E703     		.uleb128 .LEHB133-.LFB1191
 5684 0397 05       		.uleb128 .LEHE133-.LEHB133
 5685 0398 00       		.uleb128 0
 5686 0399 00       		.uleb128 0
 5687 039a F403     		.uleb128 .LEHB134-.LFB1191
 5688 039c 3E       		.uleb128 .LEHE134-.LEHB134
 5689 039d D903     		.uleb128 .L291-.LFB1191
 5690 039f 00       		.uleb128 0
 5691 03a0 B204     		.uleb128 .LEHB135-.LFB1191
 5692 03a2 05       		.uleb128 .LEHE135-.LEHB135
 5693 03a3 00       		.uleb128 0
 5694 03a4 00       		.uleb128 0
 5695 03a5 E804     		.uleb128 .LEHB136-.LFB1191
 5696 03a7 3E       		.uleb128 .LEHE136-.LEHB136
 5697 03a8 D304     		.uleb128 .L295-.LFB1191
 5698 03aa 00       		.uleb128 0
 5699 03ab A605     		.uleb128 .LEHB137-.LFB1191
 5700 03ad 05       		.uleb128 .LEHE137-.LEHB137
 5701 03ae 8A06     		.uleb128 .L292-.LFB1191
 5702 03b0 00       		.uleb128 0
 5703 03b1 C205     		.uleb128 .LEHB138-.LFB1191
 5704 03b3 3E       		.uleb128 .LEHE138-.LEHB138
 5705 03b4 B005     		.uleb128 .L297-.LFB1191
 5706 03b6 00       		.uleb128 0
 5707 03b7 8006     		.uleb128 .LEHB139-.LFB1191
 5708 03b9 05       		.uleb128 .LEHE139-.LEHB139
 5709 03ba 8A06     		.uleb128 .L292-.LFB1191
 5710 03bc 00       		.uleb128 0
 5711 03bd A206     		.uleb128 .LEHB140-.LFB1191
 5712 03bf 05       		.uleb128 .LEHE140-.LEHB140
 5713 03c0 00       		.uleb128 0
 5714 03c1 00       		.uleb128 0
 5715              	.LLSDACSE1191:
 5716 03c2 01       		.byte	0x1
 5717 03c3 00       		.byte	0
 5718              		.align 4
 5719 03c4 00000000 		.long	0
 5720              	
 5721              	.LLSDATT1191:
 5722              		.text
 5724              		.section	.rodata
 5725              	.LC62:
 5726 0bc5 66696C65 		.string	"file"
 5726      00
 5727              	.LC63:
 5728 0bca 61737365 		.string	"assert failure"
 5728      72742066 
 5728      61696C75 
 5728      726500
 5729              		.text
 5730              		.align 2
 5732              	_ZN12_GLOBAL__N_118FixtureCtorAssertsC2Ev:
 5733              	.LFB1193:
 157:TestTestMacros.cpp **** 
 158:TestTestMacros.cpp **** const int FailingLine = 123;
 159:TestTestMacros.cpp **** 
 160:TestTestMacros.cpp **** struct FixtureCtorAsserts
 161:TestTestMacros.cpp **** {
 162:TestTestMacros.cpp **** 	FixtureCtorAsserts()
 5734              		.loc 6 162 0
 5735              		.cfi_startproc
 5736 273c 55       		pushq	%rbp
 5737              		.cfi_def_cfa_offset 16
 5738              		.cfi_offset 6, -16
 5739 273d 4889E5   		movq	%rsp, %rbp
 5740              		.cfi_def_cfa_register 6
 5741 2740 4883EC10 		subq	$16, %rsp
 5742 2744 48897DF8 		movq	%rdi, -8(%rbp)
 5743              	.LBB116:
 163:TestTestMacros.cpp **** 	{
 164:TestTestMacros.cpp **** 		UnitTest::ReportAssert("assert failure", "file", FailingLine);
 5744              		.loc 6 164 0
 5745 2748 BA7B0000 		movl	$123, %edx
 5745      00
 5746 274d BE000000 		movl	$.LC62, %esi
 5746      00
 5747 2752 BF000000 		movl	$.LC63, %edi
 5747      00
 5748 2757 E8000000 		call	_ZN8UnitTest12ReportAssertEPKcS1_i
 5748      00
 5749              	.LBE116:
 165:TestTestMacros.cpp **** 	}
 5750              		.loc 6 165 0
 5751 275c C9       		leave
 5752              		.cfi_def_cfa 7, 8
 5753 275d C3       		ret
 5754              		.cfi_endproc
 5755              	.LFE1193:
 5757              		.local	_ZN12_GLOBAL__N_125ctorAssertFixtureTestListE
 5758              		.comm	_ZN12_GLOBAL__N_125ctorAssertFixtureTestListE,16,16
 5759              		.align 2
 5761              	_ZN12_GLOBAL__N_159FixtureCtorAssertsCorrectlyReportsAssertFailureInCtorHelperC2ERKN8UnitTest11Test
 5762              	.LFB1196:
 166:TestTestMacros.cpp **** };
 167:TestTestMacros.cpp **** 
 168:TestTestMacros.cpp **** TestList ctorAssertFixtureTestList;
 169:TestTestMacros.cpp **** TEST_FIXTURE_EX(FixtureCtorAsserts, CorrectlyReportsAssertFailureInCtor, ctorAssertFixtureTestList)
 5763              		.loc 6 169 0
 5764              		.cfi_startproc
 5765 275e 55       		pushq	%rbp
 5766              		.cfi_def_cfa_offset 16
 5767              		.cfi_offset 6, -16
 5768 275f 4889E5   		movq	%rsp, %rbp
 5769              		.cfi_def_cfa_register 6
 5770 2762 4883EC10 		subq	$16, %rsp
 5771 2766 48897DF8 		movq	%rdi, -8(%rbp)
 5772 276a 488975F0 		movq	%rsi, -16(%rbp)
 5773              	.LBB117:
 5774              		.loc 6 169 0
 5775 276e 488B45F8 		movq	-8(%rbp), %rax
 5776 2772 4889C7   		movq	%rax, %rdi
 5777 2775 E8C2FFFF 		call	_ZN12_GLOBAL__N_118FixtureCtorAssertsC2Ev
 5777      FF
 5778 277a 488B45F8 		movq	-8(%rbp), %rax
 5779 277e 488B55F0 		movq	-16(%rbp), %rdx
 5780 2782 488910   		movq	%rdx, (%rax)
 5781              	.LBE117:
 5782 2785 C9       		leave
 5783              		.cfi_def_cfa 7, 8
 5784 2786 C3       		ret
 5785              		.cfi_endproc
 5786              	.LFE1196:
 5788              		.section	.rodata
 5789 0bd9 00000000 		.align 8
 5789      000000
 5790              	.LC64:
 5791 0be0 436F7272 		.string	"CorrectlyReportsAssertFailureInCtor"
 5791      6563746C 
 5791      79526570 
 5791      6F727473 
 5791      41737365 
 5792              		.text
 5793 2787 90       		.align 2
 5795              	_ZN12_GLOBAL__N_157TestFixtureCtorAssertsCorrectlyReportsAssertFailureInCtorC2Ev:
 5796              	.LFB1199:
 5797              		.loc 6 169 0
 5798              		.cfi_startproc
 5799 2788 55       		pushq	%rbp
 5800              		.cfi_def_cfa_offset 16
 5801              		.cfi_offset 6, -16
 5802 2789 4889E5   		movq	%rsp, %rbp
 5803              		.cfi_def_cfa_register 6
 5804 278c 4883EC10 		subq	$16, %rsp
 5805 2790 48897DF8 		movq	%rdi, -8(%rbp)
 5806              	.LBB118:
 5807              		.loc 6 169 0
 5808 2794 E8000000 		call	_ZN13UnitTestSuite12GetSuiteNameEv
 5808      00
 5809 2799 4889C2   		movq	%rax, %rdx
 5810 279c 488B45F8 		movq	-8(%rbp), %rax
 5811 27a0 41B8A900 		movl	$169, %r8d
 5811      0000
 5812 27a6 B9000000 		movl	$.LC2, %ecx
 5812      00
 5813 27ab BE000000 		movl	$.LC64, %esi
 5813      00
 5814 27b0 4889C7   		movq	%rax, %rdi
 5815 27b3 E8000000 		call	_ZN8UnitTest4TestC2EPKcS2_S2_i
 5815      00
 5816 27b8 488B45F8 		movq	-8(%rbp), %rax
 5817 27bc 48C70000 		movq	$_ZTVN12_GLOBAL__N_157TestFixtureCtorAssertsCorrectlyReportsAssertFailureInCtorE+16, (%rax)
 5817      000000
 5818              	.LBE118:
 5819 27c3 C9       		leave
 5820              		.cfi_def_cfa 7, 8
 5821 27c4 C3       		ret
 5822              		.cfi_endproc
 5823              	.LFE1199:
 5825              		.local	_ZN12_GLOBAL__N_165testFixtureCtorAssertsCorrectlyReportsAssertFailureInCtorInstanceE
 5826              		.comm	_ZN12_GLOBAL__N_165testFixtureCtorAssertsCorrectlyReportsAssertFailureInCtorInstanceE,56,32
 5827              		.local	_ZN12_GLOBAL__N_158adderFixtureCtorAssertsCorrectlyReportsAssertFailureInCtorE
 5828              		.comm	_ZN12_GLOBAL__N_158adderFixtureCtorAssertsCorrectlyReportsAssertFailureInCtorE,1,1
 5829              		.section	.rodata
 5830 0c04 00000000 		.align 8
 5831              	.LC65:
 5832 0c08 556E6861 		.string	"Unhandled exception while destroying fixture FixtureCtorAsserts"
 5832      6E646C65 
 5832      64206578 
 5832      63657074 
 5832      696F6E20 
 5833              		.align 8
 5834              	.LC66:
 5835 0c48 556E6861 		.string	"Unhandled exception while constructing fixture FixtureCtorAsserts"
 5835      6E646C65 
 5835      64206578 
 5835      63657074 
 5835      696F6E20 
 5836              		.text
 5837 27c5 90       		.align 2
 5839              	_ZNK12_GLOBAL__N_157TestFixtureCtorAssertsCorrectlyReportsAssertFailureInCtor7RunImplEv:
 5840              	.LFB1201:
 5841              		.loc 6 169 0
 5842              		.cfi_startproc
 5843              		.cfi_personality 0x3,__gxx_personality_v0
 5844              		.cfi_lsda 0x3,.LLSDA1201
 5845 27c6 55       		pushq	%rbp
 5846              		.cfi_def_cfa_offset 16
 5847              		.cfi_offset 6, -16
 5848 27c7 4889E5   		movq	%rsp, %rbp
 5849              		.cfi_def_cfa_register 6
 5850 27ca 4154     		pushq	%r12
 5851 27cc 53       		pushq	%rbx
 5852 27cd 4881ECC0 		subq	$448, %rsp
 5852      010000
 5853              		.cfi_offset 12, -24
 5854              		.cfi_offset 3, -32
 5855 27d4 4889BD38 		movq	%rdi, -456(%rbp)
 5855      FEFFFF
 5856              		.loc 6 169 0
 5857 27db 64488B04 		movq	%fs:40, %rax
 5857      25280000 
 5857      00
 5858 27e4 488945E8 		movq	%rax, -24(%rbp)
 5859 27e8 31C0     		xorl	%eax, %eax
 5860              	.LBB119:
 5861 27ea C6854FFE 		movb	$0, -433(%rbp)
 5861      FFFF00
 5862              	.LBB120:
 5863 27f1 488B8538 		movq	-456(%rbp), %rax
 5863      FEFFFF
 5864 27f8 488D5008 		leaq	8(%rax), %rdx
 5865 27fc 488D8560 		leaq	-416(%rbp), %rax
 5865      FEFFFF
 5866 2803 4889D6   		movq	%rdx, %rsi
 5867 2806 4889C7   		movq	%rax, %rdi
 5868              	.LEHB141:
 5869 2809 E850FFFF 		call	_ZN12_GLOBAL__N_159FixtureCtorAssertsCorrectlyReportsAssertFailureInCtorHelperC2ERKN8UnitTest
 5869      FF
 5870              		.loc 6 169 0 is_stmt 0 discriminator 1
 5871 280e C6854FFE 		movb	$1, -433(%rbp)
 5871      FFFF01
 5872 2815 488B8538 		movq	-456(%rbp), %rax
 5872      FEFFFF
 5873 281c 488D5008 		leaq	8(%rax), %rdx
 5874 2820 488D8560 		leaq	-416(%rbp), %rax
 5874      FEFFFF
 5875 2827 4889D6   		movq	%rdx, %rsi
 5876 282a 4889C7   		movq	%rax, %rdi
 5877 282d E8351700 		call	_ZN8UnitTest11ExecuteTestIN12_GLOBAL__N_159FixtureCtorAssertsCorrectlyReportsAssertFailureInC
 5877      00
 5878              	.LEHE141:
 5879              	.LBE120:
 5880              	.LBE119:
 5881              		.loc 6 169 0
 5882 2832 E9470200 		jmp	.L321
 5882      00
 5883              	.L315:
 5884 2837 4883FA01 		cmpq	$1, %rdx
 5885 283b 745C     		je	.L305
 5886 283d 4883FA02 		cmpq	$2, %rdx
 5887 2841 0F84F400 		je	.L306
 5887      0000
 5888 2847 E9980100 		jmp	.L320
 5888      00
 5889              	.L316:
 5890 284c 4889C3   		movq	%rax, %rbx
 5891              	.LBB127:
 5892              	.LBB121:
 5893 284f E8000000 		call	__cxa_end_catch
 5893      00
 5894 2854 4889D8   		movq	%rbx, %rax
 5895 2857 4889C7   		movq	%rax, %rdi
 5896              	.LEHB142:
 5897 285a E8000000 		call	_Unwind_Resume
 5897      00
 5898              	.LEHE142:
 5899              	.L317:
 5900 285f 4889C3   		movq	%rax, %rbx
 5901              	.LBE121:
 5902              	.LBB122:
 5903              	.LBB123:
 5904 2862 488D8580 		leaq	-384(%rbp), %rax
 5904      FEFFFF
 5905 2869 4889C7   		movq	%rax, %rdi
 5906 286c E8000000 		call	_ZN8UnitTest15MemoryOutStreamD1Ev
 5906      00
 5907 2871 EB03     		jmp	.L309
 5908              	.L318:
 5909 2873 4889C3   		movq	%rax, %rbx
 5910              	.L309:
 5911              	.LBE123:
 5912 2876 E8000000 		call	__cxa_end_catch
 5912      00
 5913 287b 4889D8   		movq	%rbx, %rax
 5914 287e 4889C7   		movq	%rax, %rdi
 5915              	.LEHB143:
 5916 2881 E8000000 		call	_Unwind_Resume
 5916      00
 5917              	.LEHE143:
 5918              	.L319:
 5919 2886 4889C3   		movq	%rax, %rbx
 5920              	.LBE122:
 5921 2889 E8000000 		call	__cxa_end_catch
 5921      00
 5922 288e 4889D8   		movq	%rbx, %rax
 5923 2891 4889C7   		movq	%rax, %rdi
 5924              	.LEHB144:
 5925 2894 E8000000 		call	_Unwind_Resume
 5925      00
 5926              	.LEHE144:
 5927              	.L305:
 5928              	.LBB125:
 5929 2899 4889C7   		movq	%rax, %rdi
 5930 289c E8000000 		call	__cxa_begin_catch
 5930      00
 5931 28a1 48898550 		movq	%rax, -432(%rbp)
 5931      FEFFFF
 5932 28a8 488B8550 		movq	-432(%rbp), %rax
 5932      FEFFFF
 5933 28af 488B00   		movq	(%rax), %rax
 5934 28b2 4883C010 		addq	$16, %rax
 5935 28b6 488B00   		movq	(%rax), %rax
 5936 28b9 488B9550 		movq	-432(%rbp), %rdx
 5936      FEFFFF
 5937 28c0 4889D7   		movq	%rdx, %rdi
 5938 28c3 FFD0     		call	*%rax
 5939 28c5 4889C3   		movq	%rax, %rbx
 5940 28c8 488B8550 		movq	-432(%rbp), %rax
 5940      FEFFFF
 5941 28cf 4889C7   		movq	%rax, %rdi
 5942              	.LEHB145:
 5943 28d2 E8000000 		call	_ZNK8UnitTest15AssertException10LineNumberEv
 5943      00
 5944 28d7 4189C4   		movl	%eax, %r12d
 5945 28da 488B8550 		movq	-432(%rbp), %rax
 5945      FEFFFF
 5946 28e1 4889C7   		movq	%rax, %rdi
 5947 28e4 E8000000 		call	_ZNK8UnitTest15AssertException8FilenameEv
 5947      00
 5948              		.loc 6 169 0 discriminator 3
 5949 28e9 4889C1   		movq	%rax, %rcx
 5950 28ec 488B8538 		movq	-456(%rbp), %rax
 5950      FEFFFF
 5951 28f3 488B5008 		movq	8(%rax), %rdx
 5952 28f7 488B8538 		movq	-456(%rbp), %rax
 5952      FEFFFF
 5953 28fe 488B7010 		movq	16(%rax), %rsi
 5954 2902 488D8560 		leaq	-416(%rbp), %rax
 5954      FEFFFF
 5955 2909 4589E0   		movl	%r12d, %r8d
 5956 290c 4889C7   		movq	%rax, %rdi
 5957 290f E8000000 		call	_ZN8UnitTest11TestDetailsC1EPKcS2_S2_i
 5957      00
 5958              		.loc 6 169 0 discriminator 7
 5959 2914 E8000000 		call	_ZN8UnitTest11CurrentTest7ResultsEv
 5959      00
 5960 2919 488B00   		movq	(%rax), %rax
 5961 291c 488D8D60 		leaq	-416(%rbp), %rcx
 5961      FEFFFF
 5962 2923 4889DA   		movq	%rbx, %rdx
 5963 2926 4889CE   		movq	%rcx, %rsi
 5964 2929 4889C7   		movq	%rax, %rdi
 5965 292c E8000000 		call	_ZN8UnitTest11TestResults13OnTestFailureERKNS_11TestDetailsEPKc
 5965      00
 5966              	.LEHE145:
 5967              		.loc 6 169 0 discriminator 11
 5968 2931 E8000000 		call	__cxa_end_catch
 5968      00
 5969              	.LBE125:
 5970              	.LBE127:
 5971 2936 E9430100 		jmp	.L321
 5971      00
 5972              	.L306:
 5973              	.LBB128:
 5974              	.LBB126:
 5975              		.loc 6 169 0
 5976 293b 4889C7   		movq	%rax, %rdi
 5977 293e E8000000 		call	__cxa_begin_catch
 5977      00
 5978 2943 48898558 		movq	%rax, -424(%rbp)
 5978      FEFFFF
 5979              	.LBB124:
 5980 294a 488D8580 		leaq	-384(%rbp), %rax
 5980      FEFFFF
 5981 2951 4889C7   		movq	%rax, %rdi
 5982              	.LEHB146:
 5983 2954 E8000000 		call	_ZN8UnitTest15MemoryOutStreamC1Ev
 5983      00
 5984              	.LEHE146:
 5985              		.loc 6 169 0 discriminator 13
 5986 2959 488B8558 		movq	-424(%rbp), %rax
 5986      FEFFFF
 5987 2960 488B00   		movq	(%rax), %rax
 5988 2963 4883C010 		addq	$16, %rax
 5989 2967 488B00   		movq	(%rax), %rax
 5990 296a 488B9558 		movq	-424(%rbp), %rdx
 5990      FEFFFF
 5991 2971 4889D7   		movq	%rdx, %rdi
 5992 2974 FFD0     		call	*%rax
 5993 2976 4889C3   		movq	%rax, %rbx
 5994 2979 488D8580 		leaq	-384(%rbp), %rax
 5994      FEFFFF
 5995 2980 BE000000 		movl	$.LC11, %esi
 5995      00
 5996 2985 4889C7   		movq	%rax, %rdi
 5997              	.LEHB147:
 5998 2988 E8000000 		call	_ZStlsISt11char_traitsIcEERSt13basic_ostreamIcT_ES5_PKc
 5998      00
 5999 298d 4889DE   		movq	%rbx, %rsi
 6000 2990 4889C7   		movq	%rax, %rdi
 6001 2993 E8000000 		call	_ZStlsISt11char_traitsIcEERSt13basic_ostreamIcT_ES5_PKc
 6001      00
 6002              		.loc 6 169 0 discriminator 17
 6003 2998 488D8580 		leaq	-384(%rbp), %rax
 6003      FEFFFF
 6004 299f 4889C7   		movq	%rax, %rdi
 6005 29a2 E8000000 		call	_ZNK8UnitTest15MemoryOutStream7GetTextEv
 6005      00
 6006 29a7 4989C4   		movq	%rax, %r12
 6007 29aa 488B8538 		movq	-456(%rbp), %rax
 6007      FEFFFF
 6008 29b1 488D5808 		leaq	8(%rax), %rbx
 6009 29b5 E8000000 		call	_ZN8UnitTest11CurrentTest7ResultsEv
 6009      00
 6010              		.loc 6 169 0 discriminator 19
 6011 29ba 488B00   		movq	(%rax), %rax
 6012 29bd 4C89E2   		movq	%r12, %rdx
 6013 29c0 4889DE   		movq	%rbx, %rsi
 6014 29c3 4889C7   		movq	%rax, %rdi
 6015 29c6 E8000000 		call	_ZN8UnitTest11TestResults13OnTestFailureERKNS_11TestDetailsEPKc
 6015      00
 6016              	.LEHE147:
 6017              		.loc 6 169 0 discriminator 23
 6018 29cb 488D8580 		leaq	-384(%rbp), %rax
 6018      FEFFFF
 6019 29d2 4889C7   		movq	%rax, %rdi
 6020              	.LEHB148:
 6021 29d5 E8000000 		call	_ZN8UnitTest15MemoryOutStreamD1Ev
 6021      00
 6022              	.LEHE148:
 6023              	.LBE124:
 6024              		.loc 6 169 0 discriminator 24
 6025 29da E8000000 		call	__cxa_end_catch
 6025      00
 6026              	.LBE126:
 6027              	.LBE128:
 6028 29df E99A0000 		jmp	.L321
 6028      00
 6029              	.L320:
 6030              	.LBB129:
 6031              		.loc 6 169 0
 6032 29e4 4889C7   		movq	%rax, %rdi
 6033 29e7 E8000000 		call	__cxa_begin_catch
 6033      00
 6034 29ec 80BD4FFE 		cmpb	$0, -433(%rbp)
 6034      FFFF00
 6035 29f3 7443     		je	.L312
 6036              		.loc 6 169 0 discriminator 26
 6037 29f5 488B8538 		movq	-456(%rbp), %rax
 6037      FEFFFF
 6038 29fc 488D4808 		leaq	8(%rax), %rcx
 6039 2a00 488D8560 		leaq	-416(%rbp), %rax
 6039      FEFFFF
 6040 2a07 BAA90000 		movl	$169, %edx
 6040      00
 6041 2a0c 4889CE   		movq	%rcx, %rsi
 6042 2a0f 4889C7   		movq	%rax, %rdi
 6043              	.LEHB149:
 6044 2a12 E8000000 		call	_ZN8UnitTest11TestDetailsC1ERKS0_i
 6044      00
 6045              		.loc 6 169 0 discriminator 29
 6046 2a17 E8000000 		call	_ZN8UnitTest11CurrentTest7ResultsEv
 6046      00
 6047 2a1c 488B00   		movq	(%rax), %rax
 6048 2a1f 488D8D60 		leaq	-416(%rbp), %rcx
 6048      FEFFFF
 6049 2a26 BA000000 		movl	$.LC65, %edx
 6049      00
 6050 2a2b 4889CE   		movq	%rcx, %rsi
 6051 2a2e 4889C7   		movq	%rax, %rdi
 6052 2a31 E8000000 		call	_ZN8UnitTest11TestResults13OnTestFailureERKNS_11TestDetailsEPKc
 6052      00
 6053 2a36 EB41     		jmp	.L313
 6054              	.L312:
 6055              		.loc 6 169 0 discriminator 27
 6056 2a38 488B8538 		movq	-456(%rbp), %rax
 6056      FEFFFF
 6057 2a3f 488D4808 		leaq	8(%rax), %rcx
 6058 2a43 488D8560 		leaq	-416(%rbp), %rax
 6058      FEFFFF
 6059 2a4a BAA90000 		movl	$169, %edx
 6059      00
 6060 2a4f 4889CE   		movq	%rcx, %rsi
 6061 2a52 4889C7   		movq	%rax, %rdi
 6062 2a55 E8000000 		call	_ZN8UnitTest11TestDetailsC1ERKS0_i
 6062      00
 6063              		.loc 6 169 0 discriminator 36
 6064 2a5a E8000000 		call	_ZN8UnitTest11CurrentTest7ResultsEv
 6064      00
 6065 2a5f 488B00   		movq	(%rax), %rax
 6066 2a62 488D8D60 		leaq	-416(%rbp), %rcx
 6066      FEFFFF
 6067 2a69 BA000000 		movl	$.LC66, %edx
 6067      00
 6068 2a6e 4889CE   		movq	%rcx, %rsi
 6069 2a71 4889C7   		movq	%rax, %rdi
 6070 2a74 E8000000 		call	_ZN8UnitTest11TestResults13OnTestFailureERKNS_11TestDetailsEPKc
 6070      00
 6071              	.LEHE149:
 6072              	.L313:
 6073              	.LEHB150:
 6074              		.loc 6 169 0 discriminator 41
 6075 2a79 E8000000 		call	__cxa_end_catch
 6075      00
 6076              	.LEHE150:
 6077              	.L321:
 6078              	.LBE129:
 6079              		.loc 6 169 0
 6080 2a7e 90       		nop
 6081 2a7f 488B45E8 		movq	-24(%rbp), %rax
 6082 2a83 64483304 		xorq	%fs:40, %rax
 6082      25280000 
 6082      00
 6083 2a8c 7405     		je	.L314
 6084 2a8e E8000000 		call	__stack_chk_fail
 6084      00
 6085              	.L314:
 6086 2a93 4881C4C0 		addq	$448, %rsp
 6086      010000
 6087 2a9a 5B       		popq	%rbx
 6088 2a9b 415C     		popq	%r12
 6089 2a9d 5D       		popq	%rbp
 6090              		.cfi_def_cfa 7, 8
 6091 2a9e C3       		ret
 6092              		.cfi_endproc
 6093              	.LFE1201:
 6094              		.section	.gcc_except_table
 6095              		.align 4
 6096              	.LLSDA1201:
 6097 03c8 FF       		.byte	0xff
 6098 03c9 03       		.byte	0x3
 6099 03ca 4D       		.uleb128 .LLSDATT1201-.LLSDATTD1201
 6100              	.LLSDATTD1201:
 6101 03cb 01       		.byte	0x1
 6102 03cc 36       		.uleb128 .LLSDACSE1201-.LLSDACSB1201
 6103              	.LLSDACSB1201:
 6104 03cd 43       		.uleb128 .LEHB141-.LFB1201
 6105 03ce 29       		.uleb128 .LEHE141-.LEHB141
 6106 03cf 71       		.uleb128 .L315-.LFB1201
 6107 03d0 05       		.uleb128 0x5
 6108 03d1 9401     		.uleb128 .LEHB142-.LFB1201
 6109 03d3 05       		.uleb128 .LEHE142-.LEHB142
 6110 03d4 00       		.uleb128 0
 6111 03d5 00       		.uleb128 0
 6112 03d6 BB01     		.uleb128 .LEHB143-.LFB1201
 6113 03d8 05       		.uleb128 .LEHE143-.LEHB143
 6114 03d9 00       		.uleb128 0
 6115 03da 00       		.uleb128 0
 6116 03db CE01     		.uleb128 .LEHB144-.LFB1201
 6117 03dd 05       		.uleb128 .LEHE144-.LEHB144
 6118 03de 00       		.uleb128 0
 6119 03df 00       		.uleb128 0
 6120 03e0 8C02     		.uleb128 .LEHB145-.LFB1201
 6121 03e2 5F       		.uleb128 .LEHE145-.LEHB145
 6122 03e3 8601     		.uleb128 .L316-.LFB1201
 6123 03e5 00       		.uleb128 0
 6124 03e6 8E03     		.uleb128 .LEHB146-.LFB1201
 6125 03e8 05       		.uleb128 .LEHE146-.LEHB146
 6126 03e9 AD01     		.uleb128 .L318-.LFB1201
 6127 03eb 00       		.uleb128 0
 6128 03ec C203     		.uleb128 .LEHB147-.LFB1201
 6129 03ee 43       		.uleb128 .LEHE147-.LEHB147
 6130 03ef 9901     		.uleb128 .L317-.LFB1201
 6131 03f1 00       		.uleb128 0
 6132 03f2 8F04     		.uleb128 .LEHB148-.LFB1201
 6133 03f4 05       		.uleb128 .LEHE148-.LEHB148
 6134 03f5 AD01     		.uleb128 .L318-.LFB1201
 6135 03f7 00       		.uleb128 0
 6136 03f8 CC04     		.uleb128 .LEHB149-.LFB1201
 6137 03fa 67       		.uleb128 .LEHE149-.LEHB149
 6138 03fb C001     		.uleb128 .L319-.LFB1201
 6139 03fd 00       		.uleb128 0
 6140 03fe B305     		.uleb128 .LEHB150-.LFB1201
 6141 0400 05       		.uleb128 .LEHE150-.LEHB150
 6142 0401 00       		.uleb128 0
 6143 0402 00       		.uleb128 0
 6144              	.LLSDACSE1201:
 6145 0403 03       		.byte	0x3
 6146 0404 00       		.byte	0
 6147 0405 02       		.byte	0x2
 6148 0406 7D       		.byte	0x7d
 6149 0407 01       		.byte	0x1
 6150 0408 7D       		.byte	0x7d
 6151 0409 000000   		.align 4
 6152 040c 00000000 		.long	0
 6153              	
 6154 0410 00000000 		.long	_ZTISt9exception
 6155 0414 00000000 		.long	_ZTIN8UnitTest15AssertExceptionE
 6156              	.LLSDATT1201:
 6157              		.text
 6159 2a9f 90       		.align 2
 6161              	_ZN12_GLOBAL__N_159FixtureCtorAssertsCorrectlyReportsAssertFailureInCtorHelper7RunImplEv:
 6162              	.LFB1202:
 170:TestTestMacros.cpp **** {
 6163              		.loc 6 170 0 is_stmt 1
 6164              		.cfi_startproc
 6165 2aa0 55       		pushq	%rbp
 6166              		.cfi_def_cfa_offset 16
 6167              		.cfi_offset 6, -16
 6168 2aa1 4889E5   		movq	%rsp, %rbp
 6169              		.cfi_def_cfa_register 6
 6170 2aa4 48897DF8 		movq	%rdi, -8(%rbp)
 171:TestTestMacros.cpp **** }
 6171              		.loc 6 171 0
 6172 2aa8 5D       		popq	%rbp
 6173              		.cfi_def_cfa 7, 8
 6174 2aa9 C3       		ret
 6175              		.cfi_endproc
 6176              	.LFE1202:
 6178              		.section	.rodata
 6179 0c8a 00000000 		.align 8
 6179      0000
 6180              	.LC67:
 6181 0c90 436F7272 		.string	"CorrectlyReportsFixturesWithCtorsThatAssert"
 6181      6563746C 
 6181      79526570 
 6181      6F727473 
 6181      46697874 
 6182              		.text
 6183              		.align 2
 6185              	_ZN12_GLOBAL__N_147TestCorrectlyReportsFixturesWithCtorsThatAssertC2Ev:
 6186              	.LFB1204:
 172:TestTestMacros.cpp **** 
 173:TestTestMacros.cpp **** TEST(CorrectlyReportsFixturesWithCtorsThatAssert)
 6187              		.loc 6 173 0
 6188              		.cfi_startproc
 6189 2aaa 55       		pushq	%rbp
 6190              		.cfi_def_cfa_offset 16
 6191              		.cfi_offset 6, -16
 6192 2aab 4889E5   		movq	%rsp, %rbp
 6193              		.cfi_def_cfa_register 6
 6194 2aae 4883EC10 		subq	$16, %rsp
 6195 2ab2 48897DF8 		movq	%rdi, -8(%rbp)
 6196              	.LBB130:
 6197              		.loc 6 173 0
 6198 2ab6 E8000000 		call	_ZN13UnitTestSuite12GetSuiteNameEv
 6198      00
 6199 2abb 4889C2   		movq	%rax, %rdx
 6200 2abe 488B45F8 		movq	-8(%rbp), %rax
 6201 2ac2 41B8AD00 		movl	$173, %r8d
 6201      0000
 6202 2ac8 B9000000 		movl	$.LC2, %ecx
 6202      00
 6203 2acd BE000000 		movl	$.LC67, %esi
 6203      00
 6204 2ad2 4889C7   		movq	%rax, %rdi
 6205 2ad5 E8000000 		call	_ZN8UnitTest4TestC2EPKcS2_S2_i
 6205      00
 6206 2ada 488B45F8 		movq	-8(%rbp), %rax
 6207 2ade 48C70000 		movq	$_ZTVN12_GLOBAL__N_147TestCorrectlyReportsFixturesWithCtorsThatAssertE+16, (%rax)
 6207      000000
 6208              	.LBE130:
 6209 2ae5 C9       		leave
 6210              		.cfi_def_cfa 7, 8
 6211 2ae6 C3       		ret
 6212              		.cfi_endproc
 6213              	.LFE1204:
 6215              		.local	_ZN12_GLOBAL__N_155testCorrectlyReportsFixturesWithCtorsThatAssertInstanceE
 6216              		.comm	_ZN12_GLOBAL__N_155testCorrectlyReportsFixturesWithCtorsThatAssertInstanceE,56,32
 6217              		.local	_ZN12_GLOBAL__N_148adderCorrectlyReportsFixturesWithCtorsThatAssertE
 6218              		.comm	_ZN12_GLOBAL__N_148adderCorrectlyReportsFixturesWithCtorsThatAssertE,1,1
 6219              		.section	.rodata
 6220 0cbc 00000000 		.align 8
 6221              	.LC68:
 6222 0cc0 73747273 		.string	"strstr(reporter.lastFailedMessage, \"assert failure\")"
 6222      74722872 
 6222      65706F72 
 6222      7465722E 
 6222      6C617374 
 6223 0cf5 000000   		.align 8
 6224              	.LC69:
 6225 0cf8 556E6861 		.string	"Unhandled exception in CHECK_EQUAL(FailingLine, reporter.lastFailedLine)"
 6225      6E646C65 
 6225      64206578 
 6225      63657074 
 6225      696F6E20 
 6226 0d41 00000000 		.align 8
 6226      000000
 6227              	.LC70:
 6228 0d48 556E6861 		.string	"Unhandled exception in CHECK(strstr(reporter.lastFailedMessage, \"assert failure\"))"
 6228      6E646C65 
 6228      64206578 
 6228      63657074 
 6228      696F6E20 
 6229              		.text
 6230 2ae7 90       		.align 2
 6232              	_ZNK12_GLOBAL__N_147TestCorrectlyReportsFixturesWithCtorsThatAssert7RunImplEv:
 6233              	.LFB1206:
 174:TestTestMacros.cpp **** {
 6234              		.loc 6 174 0
 6235              		.cfi_startproc
 6236              		.cfi_personality 0x3,__gxx_personality_v0
 6237              		.cfi_lsda 0x3,.LLSDA1206
 6238 2ae8 55       		pushq	%rbp
 6239              		.cfi_def_cfa_offset 16
 6240              		.cfi_offset 6, -16
 6241 2ae9 4889E5   		movq	%rsp, %rbp
 6242              		.cfi_def_cfa_register 6
 6243 2aec 53       		pushq	%rbx
 6244 2aed 4881ECA8 		subq	$2216, %rsp
 6244      080000
 6245              		.cfi_offset 3, -24
 6246 2af4 4889BD58 		movq	%rdi, -2216(%rbp)
 6246      F7FFFF
 6247              		.loc 6 174 0
 6248 2afb 64488B04 		movq	%fs:40, %rax
 6248      25280000 
 6248      00
 6249 2b04 488945E8 		movq	%rax, -24(%rbp)
 6250 2b08 31C0     		xorl	%eax, %eax
 6251              	.LBB131:
 175:TestTestMacros.cpp **** 	RecordingReporter reporter;
 6252              		.loc 6 175 0
 6253 2b0a 488D85B0 		leaq	-2128(%rbp), %rax
 6253      F7FFFF
 6254 2b11 4889C7   		movq	%rax, %rdi
 6255 2b14 E8000000 		call	_ZN17RecordingReporterC1Ev
 6255      00
 176:TestTestMacros.cpp **** 	TestResults result(&reporter);
 6256              		.loc 6 176 0
 6257 2b19 488D95B0 		leaq	-2128(%rbp), %rdx
 6257      F7FFFF
 6258 2b20 488D8570 		leaq	-2192(%rbp), %rax
 6258      F7FFFF
 6259 2b27 4889D6   		movq	%rdx, %rsi
 6260 2b2a 4889C7   		movq	%rax, %rdi
 6261              	.LEHB151:
 6262 2b2d E8000000 		call	_ZN8UnitTest11TestResultsC1EPNS_12TestReporterE
 6262      00
 6263              	.LBB132:
 177:TestTestMacros.cpp **** 	{
 178:TestTestMacros.cpp **** 		ScopedCurrentTest scopedResults(result);
 6264              		.loc 6 178 0
 6265 2b32 488D8D70 		leaq	-2192(%rbp), %rcx
 6265      F7FFFF
 6266 2b39 488D8590 		leaq	-2160(%rbp), %rax
 6266      F7FFFF
 6267 2b40 BA000000 		movl	$0, %edx
 6267      00
 6268 2b45 4889CE   		movq	%rcx, %rsi
 6269 2b48 4889C7   		movq	%rax, %rdi
 6270 2b4b E8000000 		call	_ZN17ScopedCurrentTestC1ERN8UnitTest11TestResultsEPKNS0_11TestDetailsE
 6270      00
 6271              	.LEHE151:
 179:TestTestMacros.cpp **** 		ctorAssertFixtureTestList.GetHead()->Run();
 6272              		.loc 6 179 0
 6273 2b50 BF000000 		movl	$_ZN12_GLOBAL__N_125ctorAssertFixtureTestListE, %edi
 6273      00
 6274              	.LEHB152:
 6275 2b55 E8000000 		call	_ZNK8UnitTest8TestList7GetHeadEv
 6275      00
 6276 2b5a 4889C7   		movq	%rax, %rdi
 6277 2b5d E8000000 		call	_ZN8UnitTest4Test3RunEv
 6277      00
 6278              	.LEHE152:
 6279              		.loc 6 179 0 is_stmt 0 discriminator 4
 6280 2b62 488D8590 		leaq	-2160(%rbp), %rax
 6280      F7FFFF
 6281 2b69 4889C7   		movq	%rax, %rdi
 6282              	.LEHB153:
 6283 2b6c E8000000 		call	_ZN17ScopedCurrentTestD1Ev
 6283      00
 6284              	.LBE132:
 180:TestTestMacros.cpp **** 	}
 181:TestTestMacros.cpp **** 
 182:TestTestMacros.cpp **** 	const int failureCount = result.GetFailedTestCount();
 6285              		.loc 6 182 0 is_stmt 1
 6286 2b71 488D8570 		leaq	-2192(%rbp), %rax
 6286      F7FFFF
 6287 2b78 4889C7   		movq	%rax, %rdi
 6288 2b7b E8000000 		call	_ZNK8UnitTest11TestResults18GetFailedTestCountEv
 6288      00
 6289              	.LEHE153:
 6290 2b80 898568F7 		movl	%eax, -2200(%rbp)
 6290      FFFF
 6291              	.LEHB154:
 183:TestTestMacros.cpp **** 	CHECK_EQUAL(1, failureCount);
 6292              		.loc 6 183 0
 6293 2b86 E8000000 		call	_ZN8UnitTest11CurrentTest7DetailsEv
 6293      00
 6294              		.loc 6 183 0 is_stmt 0 discriminator 1
 6295 2b8b 488B08   		movq	(%rax), %rcx
 6296 2b8e 488D8590 		leaq	-2160(%rbp), %rax
 6296      F7FFFF
 6297 2b95 BAB70000 		movl	$183, %edx
 6297      00
 6298 2b9a 4889CE   		movq	%rcx, %rsi
 6299 2b9d 4889C7   		movq	%rax, %rdi
 6300 2ba0 E8000000 		call	_ZN8UnitTest11TestDetailsC1ERKS0_i
 6300      00
 6301              		.loc 6 183 0 discriminator 2
 6302 2ba5 C7856CF7 		movl	$1, -2196(%rbp)
 6302      FFFF0100 
 6302      0000
 6303 2baf E8000000 		call	_ZN8UnitTest11CurrentTest7ResultsEv
 6303      00
 6304 2bb4 488B00   		movq	(%rax), %rax
 6305 2bb7 488D8D90 		leaq	-2160(%rbp), %rcx
 6305      F7FFFF
 6306 2bbe 488D9568 		leaq	-2200(%rbp), %rdx
 6306      F7FFFF
 6307 2bc5 488DB56C 		leaq	-2196(%rbp), %rsi
 6307      F7FFFF
 6308 2bcc 4889C7   		movq	%rax, %rdi
 6309 2bcf E8000000 		call	_ZN8UnitTest10CheckEqualIiiEEvRNS_11TestResultsERKT_RKT0_RKNS_11TestDetailsE
 6309      00
 6310              	.LEHE154:
 6311              	.L330:
 6312              	.LEHB155:
 184:TestTestMacros.cpp **** 	CHECK_EQUAL(FailingLine, reporter.lastFailedLine);
 6313              		.loc 6 184 0 is_stmt 1
 6314 2bd4 E8000000 		call	_ZN8UnitTest11CurrentTest7DetailsEv
 6314      00
 6315 2bd9 488B08   		movq	(%rax), %rcx
 6316 2bdc 488D8590 		leaq	-2160(%rbp), %rax
 6316      F7FFFF
 6317 2be3 BAB80000 		movl	$184, %edx
 6317      00
 6318 2be8 4889CE   		movq	%rcx, %rsi
 6319 2beb 4889C7   		movq	%rax, %rdi
 6320 2bee E8000000 		call	_ZN8UnitTest11TestDetailsC1ERKS0_i
 6320      00
 6321              		.loc 6 184 0 is_stmt 0 discriminator 2
 6322 2bf3 E8000000 		call	_ZN8UnitTest11CurrentTest7ResultsEv
 6322      00
 6323 2bf8 488B00   		movq	(%rax), %rax
 6324 2bfb 488D9590 		leaq	-2160(%rbp), %rdx
 6324      F7FFFF
 6325 2c02 488D8DB0 		leaq	-2128(%rbp), %rcx
 6325      F7FFFF
 6326 2c09 488DB110 		leaq	784(%rcx), %rsi
 6326      030000
 6327 2c10 4889D1   		movq	%rdx, %rcx
 6328 2c13 4889F2   		movq	%rsi, %rdx
 6329 2c16 BE000000 		movl	$_ZN12_GLOBAL__N_1L11FailingLineE, %esi
 6329      00
 6330 2c1b 4889C7   		movq	%rax, %rdi
 6331 2c1e E8000000 		call	_ZN8UnitTest10CheckEqualIiiEEvRNS_11TestResultsERKT_RKT0_RKNS_11TestDetailsE
 6331      00
 6332              	.LEHE155:
 6333              	.L333:
 185:TestTestMacros.cpp **** 	CHECK(strstr(reporter.lastFailedMessage, "assert failure"));
 6334              		.loc 6 185 0 is_stmt 1
 6335 2c23 488D85B0 		leaq	-2128(%rbp), %rax
 6335      F7FFFF
 6336 2c2a 48051405 		addq	$1300, %rax
 6336      0000
 6337 2c30 BE000000 		movl	$.LC63, %esi
 6337      00
 6338 2c35 4889C7   		movq	%rax, %rdi
 6339 2c38 E8000000 		call	strstr
 6339      00
 6340 2c3d 4889C7   		movq	%rax, %rdi
 6341 2c40 E8000000 		call	_ZN8UnitTest5CheckIPcEEbT_
 6341      00
 6342 2c45 83F001   		xorl	$1, %eax
 6343 2c48 84C0     		testb	%al, %al
 6344 2c4a 743E     		je	.L325
 6345              	.LEHB156:
 6346              		.loc 6 185 0 is_stmt 0 discriminator 1
 6347 2c4c E8000000 		call	_ZN8UnitTest11CurrentTest7DetailsEv
 6347      00
 6348 2c51 488B08   		movq	(%rax), %rcx
 6349 2c54 488D8590 		leaq	-2160(%rbp), %rax
 6349      F7FFFF
 6350 2c5b BAB90000 		movl	$185, %edx
 6350      00
 6351 2c60 4889CE   		movq	%rcx, %rsi
 6352 2c63 4889C7   		movq	%rax, %rdi
 6353 2c66 E8000000 		call	_ZN8UnitTest11TestDetailsC1ERKS0_i
 6353      00
 6354              		.loc 6 185 0 discriminator 4
 6355 2c6b E8000000 		call	_ZN8UnitTest11CurrentTest7ResultsEv
 6355      00
 6356 2c70 488B00   		movq	(%rax), %rax
 6357 2c73 488D8D90 		leaq	-2160(%rbp), %rcx
 6357      F7FFFF
 6358 2c7a BA000000 		movl	$.LC68, %edx
 6358      00
 6359 2c7f 4889CE   		movq	%rcx, %rsi
 6360 2c82 4889C7   		movq	%rax, %rdi
 6361 2c85 E8000000 		call	_ZN8UnitTest11TestResults13OnTestFailureERKNS_11TestDetailsEPKc
 6361      00
 6362              	.LEHE156:
 6363              	.L325:
 6364              		.loc 6 185 0 discriminator 9
 6365 2c8a 488D85B0 		leaq	-2128(%rbp), %rax
 6365      F7FFFF
 6366 2c91 4889C7   		movq	%rax, %rdi
 6367              	.LEHB157:
 6368 2c94 E8000000 		call	_ZN17RecordingReporterD1Ev
 6368      00
 6369              	.LEHE157:
 6370              	.LBE131:
 186:TestTestMacros.cpp **** }
 6371              		.loc 6 186 0 is_stmt 1 discriminator 9
 6372 2c99 488B45E8 		movq	-24(%rbp), %rax
 6373 2c9d 64483304 		xorq	%fs:40, %rax
 6373      25280000 
 6373      00
 6374 2ca6 0F845201 		je	.L336
 6374      0000
 6375 2cac E9480100 		jmp	.L345
 6375      00
 6376              	.L338:
 6377 2cb1 4889C3   		movq	%rax, %rbx
 6378              	.LBB134:
 6379              	.LBB133:
 179:TestTestMacros.cpp **** 	}
 6380              		.loc 6 179 0
 6381 2cb4 488D8590 		leaq	-2160(%rbp), %rax
 6381      F7FFFF
 6382 2cbb 4889C7   		movq	%rax, %rdi
 6383 2cbe E8000000 		call	_ZN17ScopedCurrentTestD1Ev
 6383      00
 6384 2cc3 E9170100 		jmp	.L327
 6384      00
 6385              	.L340:
 6386 2cc8 4889C3   		movq	%rax, %rbx
 6387              	.LBE133:
 183:TestTestMacros.cpp **** 	CHECK_EQUAL(FailingLine, reporter.lastFailedLine);
 6388              		.loc 6 183 0
 6389 2ccb E8000000 		call	__cxa_end_catch
 6389      00
 6390 2cd0 E90A0100 		jmp	.L327
 6390      00
 6391              	.L339:
 6392 2cd5 4889C7   		movq	%rax, %rdi
 6393 2cd8 E8000000 		call	__cxa_begin_catch
 6393      00
 6394              	.LEHB158:
 6395 2cdd E8000000 		call	_ZN8UnitTest11CurrentTest7DetailsEv
 6395      00
 6396 2ce2 488B08   		movq	(%rax), %rcx
 6397 2ce5 488D8590 		leaq	-2160(%rbp), %rax
 6397      F7FFFF
 6398 2cec BAB70000 		movl	$183, %edx
 6398      00
 6399 2cf1 4889CE   		movq	%rcx, %rsi
 6400 2cf4 4889C7   		movq	%rax, %rdi
 6401 2cf7 E8000000 		call	_ZN8UnitTest11TestDetailsC1ERKS0_i
 6401      00
 183:TestTestMacros.cpp **** 	CHECK_EQUAL(FailingLine, reporter.lastFailedLine);
 6402              		.loc 6 183 0 is_stmt 0 discriminator 10
 6403 2cfc E8000000 		call	_ZN8UnitTest11CurrentTest7ResultsEv
 6403      00
 6404 2d01 488B00   		movq	(%rax), %rax
 6405 2d04 488D8D90 		leaq	-2160(%rbp), %rcx
 6405      F7FFFF
 6406 2d0b BA000000 		movl	$.LC51, %edx
 6406      00
 6407 2d10 4889CE   		movq	%rcx, %rsi
 6408 2d13 4889C7   		movq	%rax, %rdi
 6409 2d16 E8000000 		call	_ZN8UnitTest11TestResults13OnTestFailureERKNS_11TestDetailsEPKc
 6409      00
 6410              	.LEHE158:
 6411              	.LEHB159:
 183:TestTestMacros.cpp **** 	CHECK_EQUAL(FailingLine, reporter.lastFailedLine);
 6412              		.loc 6 183 0 discriminator 14
 6413 2d1b E8000000 		call	__cxa_end_catch
 6413      00
 6414              	.LEHE159:
 183:TestTestMacros.cpp **** 	CHECK_EQUAL(FailingLine, reporter.lastFailedLine);
 6415              		.loc 6 183 0
 6416 2d20 E9AFFEFF 		jmp	.L330
 6416      FF
 6417              	.L342:
 6418 2d25 4889C3   		movq	%rax, %rbx
 184:TestTestMacros.cpp **** 	CHECK(strstr(reporter.lastFailedMessage, "assert failure"));
 6419              		.loc 6 184 0 is_stmt 1
 6420 2d28 E8000000 		call	__cxa_end_catch
 6420      00
 6421 2d2d E9AD0000 		jmp	.L327
 6421      00
 6422              	.L341:
 6423 2d32 4889C7   		movq	%rax, %rdi
 6424 2d35 E8000000 		call	__cxa_begin_catch
 6424      00
 6425              	.LEHB160:
 6426 2d3a E8000000 		call	_ZN8UnitTest11CurrentTest7DetailsEv
 6426      00
 6427 2d3f 488B08   		movq	(%rax), %rcx
 6428 2d42 488D8590 		leaq	-2160(%rbp), %rax
 6428      F7FFFF
 6429 2d49 BAB80000 		movl	$184, %edx
 6429      00
 6430 2d4e 4889CE   		movq	%rcx, %rsi
 6431 2d51 4889C7   		movq	%rax, %rdi
 6432 2d54 E8000000 		call	_ZN8UnitTest11TestDetailsC1ERKS0_i
 6432      00
 184:TestTestMacros.cpp **** 	CHECK(strstr(reporter.lastFailedMessage, "assert failure"));
 6433              		.loc 6 184 0 is_stmt 0 discriminator 10
 6434 2d59 E8000000 		call	_ZN8UnitTest11CurrentTest7ResultsEv
 6434      00
 6435 2d5e 488B00   		movq	(%rax), %rax
 6436 2d61 488D8D90 		leaq	-2160(%rbp), %rcx
 6436      F7FFFF
 6437 2d68 BA000000 		movl	$.LC69, %edx
 6437      00
 6438 2d6d 4889CE   		movq	%rcx, %rsi
 6439 2d70 4889C7   		movq	%rax, %rdi
 6440 2d73 E8000000 		call	_ZN8UnitTest11TestResults13OnTestFailureERKNS_11TestDetailsEPKc
 6440      00
 6441              	.LEHE160:
 6442              	.LEHB161:
 184:TestTestMacros.cpp **** 	CHECK(strstr(reporter.lastFailedMessage, "assert failure"));
 6443              		.loc 6 184 0 discriminator 14
 6444 2d78 E8000000 		call	__cxa_end_catch
 6444      00
 6445              	.LEHE161:
 184:TestTestMacros.cpp **** 	CHECK(strstr(reporter.lastFailedMessage, "assert failure"));
 6446              		.loc 6 184 0
 6447 2d7d E9A1FEFF 		jmp	.L333
 6447      FF
 6448              	.L344:
 6449 2d82 4889C3   		movq	%rax, %rbx
 185:TestTestMacros.cpp **** }
 6450              		.loc 6 185 0 is_stmt 1
 6451 2d85 E8000000 		call	__cxa_end_catch
 6451      00
 6452 2d8a EB53     		jmp	.L327
 6453              	.L343:
 6454 2d8c 4889C7   		movq	%rax, %rdi
 6455 2d8f E8000000 		call	__cxa_begin_catch
 6455      00
 6456              	.LEHB162:
 6457 2d94 E8000000 		call	_ZN8UnitTest11CurrentTest7DetailsEv
 6457      00
 6458 2d99 488B08   		movq	(%rax), %rcx
 6459 2d9c 488D8590 		leaq	-2160(%rbp), %rax
 6459      F7FFFF
 6460 2da3 BAB90000 		movl	$185, %edx
 6460      00
 6461 2da8 4889CE   		movq	%rcx, %rsi
 6462 2dab 4889C7   		movq	%rax, %rdi
 6463 2dae E8000000 		call	_ZN8UnitTest11TestDetailsC1ERKS0_i
 6463      00
 185:TestTestMacros.cpp **** }
 6464              		.loc 6 185 0 is_stmt 0 discriminator 13
 6465 2db3 E8000000 		call	_ZN8UnitTest11CurrentTest7ResultsEv
 6465      00
 6466 2db8 488B00   		movq	(%rax), %rax
 6467 2dbb 488D8D90 		leaq	-2160(%rbp), %rcx
 6467      F7FFFF
 6468 2dc2 BA000000 		movl	$.LC70, %edx
 6468      00
 6469 2dc7 4889CE   		movq	%rcx, %rsi
 6470 2dca 4889C7   		movq	%rax, %rdi
 6471 2dcd E8000000 		call	_ZN8UnitTest11TestResults13OnTestFailureERKNS_11TestDetailsEPKc
 6471      00
 6472              	.LEHE162:
 6473              	.LEHB163:
 185:TestTestMacros.cpp **** }
 6474              		.loc 6 185 0 discriminator 17
 6475 2dd2 E8000000 		call	__cxa_end_catch
 6475      00
 6476              	.LEHE163:
 185:TestTestMacros.cpp **** }
 6477              		.loc 6 185 0
 6478 2dd7 E9AEFEFF 		jmp	.L325
 6478      FF
 6479              	.L337:
 6480 2ddc 4889C3   		movq	%rax, %rbx
 6481              	.L327:
 185:TestTestMacros.cpp **** }
 6482              		.loc 6 185 0 discriminator 18
 6483 2ddf 488D85B0 		leaq	-2128(%rbp), %rax
 6483      F7FFFF
 6484 2de6 4889C7   		movq	%rax, %rdi
 6485 2de9 E8000000 		call	_ZN17RecordingReporterD1Ev
 6485      00
 6486 2dee 4889D8   		movq	%rbx, %rax
 6487 2df1 4889C7   		movq	%rax, %rdi
 6488              	.LEHB164:
 6489 2df4 E8000000 		call	_Unwind_Resume
 6489      00
 6490              	.LEHE164:
 6491              	.L345:
 6492              	.LBE134:
 6493              		.loc 6 186 0 is_stmt 1
 6494 2df9 E8000000 		call	__stack_chk_fail
 6494      00
 6495              	.L336:
 6496 2dfe 4881C4A8 		addq	$2216, %rsp
 6496      080000
 6497 2e05 5B       		popq	%rbx
 6498 2e06 5D       		popq	%rbp
 6499              		.cfi_def_cfa 7, 8
 6500 2e07 C3       		ret
 6501              		.cfi_endproc
 6502              	.LFE1206:
 6503              		.section	.gcc_except_table
 6504              		.align 4
 6505              	.LLSDA1206:
 6506 0418 FF       		.byte	0xff
 6507 0419 03       		.byte	0x3
 6508 041a 59       		.uleb128 .LLSDATT1206-.LLSDATTD1206
 6509              	.LLSDATTD1206:
 6510 041b 01       		.byte	0x1
 6511 041c 50       		.uleb128 .LLSDACSE1206-.LLSDACSB1206
 6512              	.LLSDACSB1206:
 6513 041d 45       		.uleb128 .LEHB151-.LFB1206
 6514 041e 23       		.uleb128 .LEHE151-.LEHB151
 6515 041f F405     		.uleb128 .L337-.LFB1206
 6516 0421 00       		.uleb128 0
 6517 0422 6D       		.uleb128 .LEHB152-.LFB1206
 6518 0423 0D       		.uleb128 .LEHE152-.LEHB152
 6519 0424 C903     		.uleb128 .L338-.LFB1206
 6520 0426 00       		.uleb128 0
 6521 0427 8401     		.uleb128 .LEHB153-.LFB1206
 6522 0429 14       		.uleb128 .LEHE153-.LEHB153
 6523 042a F405     		.uleb128 .L337-.LFB1206
 6524 042c 00       		.uleb128 0
 6525 042d 9E01     		.uleb128 .LEHB154-.LFB1206
 6526 042f 4E       		.uleb128 .LEHE154-.LEHB154
 6527 0430 ED03     		.uleb128 .L339-.LFB1206
 6528 0432 01       		.uleb128 0x1
 6529 0433 EC01     		.uleb128 .LEHB155-.LFB1206
 6530 0435 4F       		.uleb128 .LEHE155-.LEHB155
 6531 0436 CA04     		.uleb128 .L341-.LFB1206
 6532 0438 01       		.uleb128 0x1
 6533 0439 E402     		.uleb128 .LEHB156-.LFB1206
 6534 043b 3E       		.uleb128 .LEHE156-.LEHB156
 6535 043c A405     		.uleb128 .L343-.LFB1206
 6536 043e 01       		.uleb128 0x1
 6537 043f AC03     		.uleb128 .LEHB157-.LFB1206
 6538 0441 05       		.uleb128 .LEHE157-.LEHB157
 6539 0442 00       		.uleb128 0
 6540 0443 00       		.uleb128 0
 6541 0444 F503     		.uleb128 .LEHB158-.LFB1206
 6542 0446 3E       		.uleb128 .LEHE158-.LEHB158
 6543 0447 E003     		.uleb128 .L340-.LFB1206
 6544 0449 00       		.uleb128 0
 6545 044a B304     		.uleb128 .LEHB159-.LFB1206
 6546 044c 05       		.uleb128 .LEHE159-.LEHB159
 6547 044d F405     		.uleb128 .L337-.LFB1206
 6548 044f 00       		.uleb128 0
 6549 0450 D204     		.uleb128 .LEHB160-.LFB1206
 6550 0452 3E       		.uleb128 .LEHE160-.LEHB160
 6551 0453 BD04     		.uleb128 .L342-.LFB1206
 6552 0455 00       		.uleb128 0
 6553 0456 9005     		.uleb128 .LEHB161-.LFB1206
 6554 0458 05       		.uleb128 .LEHE161-.LEHB161
 6555 0459 F405     		.uleb128 .L337-.LFB1206
 6556 045b 00       		.uleb128 0
 6557 045c AC05     		.uleb128 .LEHB162-.LFB1206
 6558 045e 3E       		.uleb128 .LEHE162-.LEHB162
 6559 045f 9A05     		.uleb128 .L344-.LFB1206
 6560 0461 00       		.uleb128 0
 6561 0462 EA05     		.uleb128 .LEHB163-.LFB1206
 6562 0464 05       		.uleb128 .LEHE163-.LEHB163
 6563 0465 F405     		.uleb128 .L337-.LFB1206
 6564 0467 00       		.uleb128 0
 6565 0468 8C06     		.uleb128 .LEHB164-.LFB1206
 6566 046a 05       		.uleb128 .LEHE164-.LEHB164
 6567 046b 00       		.uleb128 0
 6568 046c 00       		.uleb128 0
 6569              	.LLSDACSE1206:
 6570 046d 01       		.byte	0x1
 6571 046e 00       		.byte	0
 6572 046f 00       		.align 4
 6573 0470 00000000 		.long	0
 6574              	
 6575              	.LLSDATT1206:
 6576              		.text
 6578              		.section	.rodata
 6579              	.LC71:
 6580 0d9b 53616D65 		.string	"SameTestSuite"
 6580      54657374 
 6580      53756974 
 6580      6500
 6581              		.section	.text._ZN18SuiteSameTestSuite13UnitTestSuite12GetSuiteNameEv,"axG",@progbits,_ZN18SuiteSa
 6582              		.weak	_ZN18SuiteSameTestSuite13UnitTestSuite12GetSuiteNameEv
 6584              	_ZN18SuiteSameTestSuite13UnitTestSuite12GetSuiteNameEv:
 6585              	.LFB1207:
 187:TestTestMacros.cpp **** 
 188:TestTestMacros.cpp **** }
 189:TestTestMacros.cpp **** 
 190:TestTestMacros.cpp **** // We're really testing if it's possible to use the same suite in two files
 191:TestTestMacros.cpp **** // to compile and link successfuly (TestTestSuite.cpp has suite with the same name)
 192:TestTestMacros.cpp **** // Note: we are outside of the anonymous namespace
 193:TestTestMacros.cpp **** SUITE(SameTestSuite)
 6586              		.loc 6 193 0
 6587              		.cfi_startproc
 6588 0000 55       		pushq	%rbp
 6589              		.cfi_def_cfa_offset 16
 6590              		.cfi_offset 6, -16
 6591 0001 4889E5   		movq	%rsp, %rbp
 6592              		.cfi_def_cfa_register 6
 6593              		.loc 6 193 0
 6594 0004 B8000000 		movl	$.LC71, %eax
 6594      00
 6595 0009 5D       		popq	%rbp
 6596              		.cfi_def_cfa 7, 8
 6597 000a C3       		ret
 6598              		.cfi_endproc
 6599              	.LFE1207:
 6601              		.section	.rodata
 6602              	.LC72:
 6603 0da9 44756D6D 		.string	"DummyTest1"
 6603      79546573 
 6603      743100
 6604              		.section	.text._ZN18SuiteSameTestSuite14TestDummyTest1C2Ev,"axG",@progbits,_ZN18SuiteSameTestSuite
 6605              		.align 2
 6606              		.weak	_ZN18SuiteSameTestSuite14TestDummyTest1C2Ev
 6608              	_ZN18SuiteSameTestSuite14TestDummyTest1C2Ev:
 6609              	.LFB1209:
 194:TestTestMacros.cpp **** {
 195:TestTestMacros.cpp **** 	TEST(DummyTest1)
 6610              		.loc 6 195 0
 6611              		.cfi_startproc
 6612 0000 55       		pushq	%rbp
 6613              		.cfi_def_cfa_offset 16
 6614              		.cfi_offset 6, -16
 6615 0001 4889E5   		movq	%rsp, %rbp
 6616              		.cfi_def_cfa_register 6
 6617 0004 4883EC10 		subq	$16, %rsp
 6618 0008 48897DF8 		movq	%rdi, -8(%rbp)
 6619              	.LBB135:
 6620              		.loc 6 195 0
 6621 000c E8000000 		call	_ZN18SuiteSameTestSuite13UnitTestSuite12GetSuiteNameEv
 6621      00
 6622 0011 4889C2   		movq	%rax, %rdx
 6623 0014 488B45F8 		movq	-8(%rbp), %rax
 6624 0018 41B8C300 		movl	$195, %r8d
 6624      0000
 6625 001e B9000000 		movl	$.LC2, %ecx
 6625      00
 6626 0023 BE000000 		movl	$.LC72, %esi
 6626      00
 6627 0028 4889C7   		movq	%rax, %rdi
 6628 002b E8000000 		call	_ZN8UnitTest4TestC2EPKcS2_S2_i
 6628      00
 6629 0030 488B45F8 		movq	-8(%rbp), %rax
 6630 0034 48C70000 		movq	$_ZTVN18SuiteSameTestSuite14TestDummyTest1E+16, (%rax)
 6630      000000
 6631              	.LBE135:
 6632 003b C9       		leave
 6633              		.cfi_def_cfa 7, 8
 6634 003c C3       		ret
 6635              		.cfi_endproc
 6636              	.LFE1209:
 6638              		.weak	_ZN18SuiteSameTestSuite14TestDummyTest1C1Ev
 6639              		.set	_ZN18SuiteSameTestSuite14TestDummyTest1C1Ev,_ZN18SuiteSameTestSuite14TestDummyTest1C2Ev
 6640              		.globl	_ZN18SuiteSameTestSuite22testDummyTest1InstanceE
 6641              		.bss
 6642              		.align 32
 6645              	_ZN18SuiteSameTestSuite22testDummyTest1InstanceE:
 6646 0000 00000000 		.zero	56
 6646      00000000 
 6646      00000000 
 6646      00000000 
 6646      00000000 
 6647              		.globl	_ZN18SuiteSameTestSuite15adderDummyTest1E
 6650              	_ZN18SuiteSameTestSuite15adderDummyTest1E:
 6651 0038 00       		.zero	1
 6652              		.text
 6653              		.align 2
 6654              		.globl	_ZNK18SuiteSameTestSuite14TestDummyTest17RunImplEv
 6656              	_ZNK18SuiteSameTestSuite14TestDummyTest17RunImplEv:
 6657              	.LFB1211:
 196:TestTestMacros.cpp **** 	{
 6658              		.loc 6 196 0
 6659              		.cfi_startproc
 6660 2e08 55       		pushq	%rbp
 6661              		.cfi_def_cfa_offset 16
 6662              		.cfi_offset 6, -16
 6663 2e09 4889E5   		movq	%rsp, %rbp
 6664              		.cfi_def_cfa_register 6
 6665 2e0c 48897DF8 		movq	%rdi, -8(%rbp)
 197:TestTestMacros.cpp **** 	}
 6666              		.loc 6 197 0
 6667 2e10 5D       		popq	%rbp
 6668              		.cfi_def_cfa 7, 8
 6669 2e11 C3       		ret
 6670              		.cfi_endproc
 6671              	.LFE1211:
 6673              		.section	.rodata
 6674 0db4 00000000 		.align 8
 6675              	.LC73:
 6676 0db8 43757272 		.string	"CurrentTestDetailsContainCurrentTestInfo"
 6676      656E7454 
 6676      65737444 
 6676      65746169 
 6676      6C73436F 
 6677              		.section	.text._ZN44TestCurrentTestDetailsContainCurrentTestInfoC2Ev,"axG",@progbits,_ZN44TestCurr
 6678              		.align 2
 6679              		.weak	_ZN44TestCurrentTestDetailsContainCurrentTestInfoC2Ev
 6681              	_ZN44TestCurrentTestDetailsContainCurrentTestInfoC2Ev:
 6682              	.LFB1213:
 198:TestTestMacros.cpp **** }
 199:TestTestMacros.cpp **** 
 200:TestTestMacros.cpp **** #define CUR_TEST_NAME CurrentTestDetailsContainCurrentTestInfo
 201:TestTestMacros.cpp **** #define INNER_STRINGIFY(X) #X
 202:TestTestMacros.cpp **** #define STRINGIFY(X) INNER_STRINGIFY(X)
 203:TestTestMacros.cpp **** 
 204:TestTestMacros.cpp **** TEST(CUR_TEST_NAME)
 6683              		.loc 6 204 0
 6684              		.cfi_startproc
 6685 0000 55       		pushq	%rbp
 6686              		.cfi_def_cfa_offset 16
 6687              		.cfi_offset 6, -16
 6688 0001 4889E5   		movq	%rsp, %rbp
 6689              		.cfi_def_cfa_register 6
 6690 0004 4883EC10 		subq	$16, %rsp
 6691 0008 48897DF8 		movq	%rdi, -8(%rbp)
 6692              	.LBB136:
 6693              		.loc 6 204 0
 6694 000c E8000000 		call	_ZN13UnitTestSuite12GetSuiteNameEv
 6694      00
 6695 0011 4889C2   		movq	%rax, %rdx
 6696 0014 488B45F8 		movq	-8(%rbp), %rax
 6697 0018 41B8CC00 		movl	$204, %r8d
 6697      0000
 6698 001e B9000000 		movl	$.LC2, %ecx
 6698      00
 6699 0023 BE000000 		movl	$.LC73, %esi
 6699      00
 6700 0028 4889C7   		movq	%rax, %rdi
 6701 002b E8000000 		call	_ZN8UnitTest4TestC2EPKcS2_S2_i
 6701      00
 6702 0030 488B45F8 		movq	-8(%rbp), %rax
 6703 0034 48C70000 		movq	$_ZTV44TestCurrentTestDetailsContainCurrentTestInfo+16, (%rax)
 6703      000000
 6704              	.LBE136:
 6705 003b C9       		leave
 6706              		.cfi_def_cfa 7, 8
 6707 003c C3       		ret
 6708              		.cfi_endproc
 6709              	.LFE1213:
 6711              		.weak	_ZN44TestCurrentTestDetailsContainCurrentTestInfoC1Ev
 6712              		.set	_ZN44TestCurrentTestDetailsContainCurrentTestInfoC1Ev,_ZN44TestCurrentTestDetailsContainCurre
 6713              		.globl	testCurrentTestDetailsContainCurrentTestInfoInstance
 6714              		.bss
 6715 0039 00000000 		.align 32
 6715      000000
 6718              	testCurrentTestDetailsContainCurrentTestInfoInstance:
 6719 0040 00000000 		.zero	56
 6719      00000000 
 6719      00000000 
 6719      00000000 
 6719      00000000 
 6720              		.globl	adderCurrentTestDetailsContainCurrentTestInfo
 6723              	adderCurrentTestDetailsContainCurrentTestInfo:
 6724 0078 00       		.zero	1
 6725              		.section	.rodata
 6726 0de1 00000000 		.align 8
 6726      000000
 6727              	.LC74:
 6728 0de8 556E6861 		.string	"Unhandled exception in CHECK_EQUAL(STRINGIFY(CUR_TEST_NAME), details->testName)"
 6728      6E646C65 
 6728      64206578 
 6728      63657074 
 6728      696F6E20 
 6729              		.text
 6730              		.align 2
 6731              		.globl	_ZNK44TestCurrentTestDetailsContainCurrentTestInfo7RunImplEv
 6733              	_ZNK44TestCurrentTestDetailsContainCurrentTestInfo7RunImplEv:
 6734              	.LFB1215:
 205:TestTestMacros.cpp **** {
 6735              		.loc 6 205 0
 6736              		.cfi_startproc
 6737              		.cfi_personality 0x3,__gxx_personality_v0
 6738              		.cfi_lsda 0x3,.LLSDA1215
 6739 2e12 55       		pushq	%rbp
 6740              		.cfi_def_cfa_offset 16
 6741              		.cfi_offset 6, -16
 6742 2e13 4889E5   		movq	%rsp, %rbp
 6743              		.cfi_def_cfa_register 6
 6744 2e16 53       		pushq	%rbx
 6745 2e17 4883EC58 		subq	$88, %rsp
 6746              		.cfi_offset 3, -24
 6747 2e1b 48897DA8 		movq	%rdi, -88(%rbp)
 6748              		.loc 6 205 0
 6749 2e1f 64488B04 		movq	%fs:40, %rax
 6749      25280000 
 6749      00
 6750 2e28 488945E8 		movq	%rax, -24(%rbp)
 6751 2e2c 31C0     		xorl	%eax, %eax
 6752              	.LEHB165:
 6753              	.LBB137:
 206:TestTestMacros.cpp **** 	const UnitTest::TestDetails* details = CurrentTest::Details();
 6754              		.loc 6 206 0
 6755 2e2e E8000000 		call	_ZN8UnitTest11CurrentTest7DetailsEv
 6755      00
 6756              	.LEHE165:
 6757 2e33 488B00   		movq	(%rax), %rax
 6758 2e36 488945B8 		movq	%rax, -72(%rbp)
 6759              	.LEHB166:
 207:TestTestMacros.cpp **** 	CHECK_EQUAL(STRINGIFY(CUR_TEST_NAME), details->testName);
 6760              		.loc 6 207 0
 6761 2e3a E8000000 		call	_ZN8UnitTest11CurrentTest7DetailsEv
 6761      00
 6762 2e3f 488B08   		movq	(%rax), %rcx
 6763 2e42 488D45C0 		leaq	-64(%rbp), %rax
 6764 2e46 BACF0000 		movl	$207, %edx
 6764      00
 6765 2e4b 4889CE   		movq	%rcx, %rsi
 6766 2e4e 4889C7   		movq	%rax, %rdi
 6767 2e51 E8000000 		call	_ZN8UnitTest11TestDetailsC1ERKS0_i
 6767      00
 6768              		.loc 6 207 0 is_stmt 0 discriminator 2
 6769 2e56 488B45B8 		movq	-72(%rbp), %rax
 6770 2e5a 488B5808 		movq	8(%rax), %rbx
 6771 2e5e E8000000 		call	_ZN8UnitTest11CurrentTest7ResultsEv
 6771      00
 6772 2e63 488B00   		movq	(%rax), %rax
 6773 2e66 488D55C0 		leaq	-64(%rbp), %rdx
 6774 2e6a 4889D1   		movq	%rdx, %rcx
 6775 2e6d 4889DA   		movq	%rbx, %rdx
 6776 2e70 BE000000 		movl	$.LC73, %esi
 6776      00
 6777 2e75 4889C7   		movq	%rax, %rdi
 6778 2e78 E8000000 		call	_ZN8UnitTest10CheckEqualERNS_11TestResultsEPKcS3_RKNS_11TestDetailsE
 6778      00
 6779              	.LEHE166:
 6780              	.LBE137:
 208:TestTestMacros.cpp **** }
 6781              		.loc 6 208 0 is_stmt 1
 6782 2e7d EB58     		jmp	.L358
 6783              	.L357:
 6784 2e7f 4889C3   		movq	%rax, %rbx
 6785              	.LBB138:
 207:TestTestMacros.cpp **** 	CHECK_EQUAL(STRINGIFY(CUR_TEST_NAME), details->testName);
 6786              		.loc 6 207 0
 6787 2e82 E8000000 		call	__cxa_end_catch
 6787      00
 6788 2e87 4889D8   		movq	%rbx, %rax
 6789 2e8a 4889C7   		movq	%rax, %rdi
 6790              	.LEHB167:
 6791 2e8d E8000000 		call	_Unwind_Resume
 6791      00
 6792              	.LEHE167:
 6793              	.L356:
 6794 2e92 4889C7   		movq	%rax, %rdi
 6795 2e95 E8000000 		call	__cxa_begin_catch
 6795      00
 6796              	.LEHB168:
 6797 2e9a E8000000 		call	_ZN8UnitTest11CurrentTest7DetailsEv
 6797      00
 6798 2e9f 488B08   		movq	(%rax), %rcx
 6799 2ea2 488D45C0 		leaq	-64(%rbp), %rax
 6800 2ea6 BACF0000 		movl	$207, %edx
 6800      00
 6801 2eab 4889CE   		movq	%rcx, %rsi
 6802 2eae 4889C7   		movq	%rax, %rdi
 6803 2eb1 E8000000 		call	_ZN8UnitTest11TestDetailsC1ERKS0_i
 6803      00
 207:TestTestMacros.cpp **** 	CHECK_EQUAL(STRINGIFY(CUR_TEST_NAME), details->testName);
 6804              		.loc 6 207 0 is_stmt 0 discriminator 10
 6805 2eb6 E8000000 		call	_ZN8UnitTest11CurrentTest7ResultsEv
 6805      00
 6806 2ebb 488B00   		movq	(%rax), %rax
 6807 2ebe 488D4DC0 		leaq	-64(%rbp), %rcx
 6808 2ec2 BA000000 		movl	$.LC74, %edx
 6808      00
 6809 2ec7 4889CE   		movq	%rcx, %rsi
 6810 2eca 4889C7   		movq	%rax, %rdi
 6811 2ecd E8000000 		call	_ZN8UnitTest11TestResults13OnTestFailureERKNS_11TestDetailsEPKc
 6811      00
 6812              	.LEHE168:
 6813              	.LEHB169:
 207:TestTestMacros.cpp **** 	CHECK_EQUAL(STRINGIFY(CUR_TEST_NAME), details->testName);
 6814              		.loc 6 207 0 discriminator 14
 6815 2ed2 E8000000 		call	__cxa_end_catch
 6815      00
 6816              	.LEHE169:
 6817              	.L358:
 6818              	.LBE138:
 6819              		.loc 6 208 0 is_stmt 1
 6820 2ed7 90       		nop
 6821 2ed8 488B45E8 		movq	-24(%rbp), %rax
 6822 2edc 64483304 		xorq	%fs:40, %rax
 6822      25280000 
 6822      00
 6823 2ee5 7405     		je	.L355
 6824 2ee7 E8000000 		call	__stack_chk_fail
 6824      00
 6825              	.L355:
 6826 2eec 4883C458 		addq	$88, %rsp
 6827 2ef0 5B       		popq	%rbx
 6828 2ef1 5D       		popq	%rbp
 6829              		.cfi_def_cfa 7, 8
 6830 2ef2 C3       		ret
 6831              		.cfi_endproc
 6832              	.LFE1215:
 6833              		.section	.gcc_except_table
 6834              		.align 4
 6835              	.LLSDA1215:
 6836 0474 FF       		.byte	0xff
 6837 0475 03       		.byte	0x3
 6838 0476 21       		.uleb128 .LLSDATT1215-.LLSDATTD1215
 6839              	.LLSDATTD1215:
 6840 0477 01       		.byte	0x1
 6841 0478 17       		.uleb128 .LLSDACSE1215-.LLSDACSB1215
 6842              	.LLSDACSB1215:
 6843 0479 1C       		.uleb128 .LEHB165-.LFB1215
 6844 047a 05       		.uleb128 .LEHE165-.LEHB165
 6845 047b 00       		.uleb128 0
 6846 047c 00       		.uleb128 0
 6847 047d 28       		.uleb128 .LEHB166-.LFB1215
 6848 047e 43       		.uleb128 .LEHE166-.LEHB166
 6849 047f 8001     		.uleb128 .L356-.LFB1215
 6850 0481 01       		.uleb128 0x1
 6851 0482 7B       		.uleb128 .LEHB167-.LFB1215
 6852 0483 05       		.uleb128 .LEHE167-.LEHB167
 6853 0484 00       		.uleb128 0
 6854 0485 00       		.uleb128 0
 6855 0486 8801     		.uleb128 .LEHB168-.LFB1215
 6856 0488 38       		.uleb128 .LEHE168-.LEHB168
 6857 0489 6D       		.uleb128 .L357-.LFB1215
 6858 048a 00       		.uleb128 0
 6859 048b C001     		.uleb128 .LEHB169-.LFB1215
 6860 048d 05       		.uleb128 .LEHE169-.LEHB169
 6861 048e 00       		.uleb128 0
 6862 048f 00       		.uleb128 0
 6863              	.LLSDACSE1215:
 6864 0490 01       		.byte	0x1
 6865 0491 00       		.byte	0
 6866 0492 0000     		.align 4
 6867 0494 00000000 		.long	0
 6868              	
 6869              	.LLSDATT1215:
 6870              		.text
 6872              		.section	.text._ZN8UnitTest5CheckIbEEbT_,"axG",@progbits,_ZN8UnitTest5CheckIbEEbT_,comdat
 6873              		.weak	_ZN8UnitTest5CheckIbEEbT_
 6875              	_ZN8UnitTest5CheckIbEEbT_:
 6876              	.LFB1243:
 6877              		.file 7 "../Checks.h"
   1:../Checks.h   **** #ifndef UNITTEST_CHECKS_H
   2:../Checks.h   **** #define UNITTEST_CHECKS_H
   3:../Checks.h   **** 
   4:../Checks.h   **** #include "Config.h"
   5:../Checks.h   **** #include "TestResults.h"
   6:../Checks.h   **** #include "MemoryOutStream.h"
   7:../Checks.h   **** 
   8:../Checks.h   **** namespace UnitTest {
   9:../Checks.h   **** 
  10:../Checks.h   **** 
  11:../Checks.h   **** template< typename Value >
  12:../Checks.h   **** bool Check(Value const value)
 6878              		.loc 7 12 0
 6879              		.cfi_startproc
 6880 0000 55       		pushq	%rbp
 6881              		.cfi_def_cfa_offset 16
 6882              		.cfi_offset 6, -16
 6883 0001 4889E5   		movq	%rsp, %rbp
 6884              		.cfi_def_cfa_register 6
 6885 0004 89F8     		movl	%edi, %eax
 6886 0006 8845FC   		movb	%al, -4(%rbp)
  13:../Checks.h   **** {
  14:../Checks.h   ****     return !!value; // doing double negative to avoid silly VS warnings
 6887              		.loc 7 14 0
 6888 0009 0FB645FC 		movzbl	-4(%rbp), %eax
  15:../Checks.h   **** }
 6889              		.loc 7 15 0
 6890 000d 5D       		popq	%rbp
 6891              		.cfi_def_cfa 7, 8
 6892 000e C3       		ret
 6893              		.cfi_endproc
 6894              	.LFE1243:
 6896              		.section	.rodata
 6897              	.LC75:
 6898 0e38 556E6861 		.string	"Unhandled system exception"
 6898      6E646C65 
 6898      64207379 
 6898      7374656D 
 6898      20657863 
 6899              	.LC76:
 6900 0e53 556E6861 		.string	"Unhandled exception: Crash!"
 6900      6E646C65 
 6900      64206578 
 6900      63657074 
 6900      696F6E3A 
 6901              		.text
 6903              	_ZN8UnitTest11ExecuteTestIN12_GLOBAL__N_134ThrowingThingieDummyTestNameHelperEEEvRT_RKNS_11TestDeta
 6904              	.LFB1244:
 6905              		.file 8 "../ExecuteTest.h"
   1:../ExecuteTest.h **** #ifndef UNITTEST_EXECUTE_TEST_H
   2:../ExecuteTest.h **** #define UNITTEST_EXECUTE_TEST_H
   3:../ExecuteTest.h **** 
   4:../ExecuteTest.h **** #include "TestDetails.h"
   5:../ExecuteTest.h **** #include "MemoryOutStream.h"
   6:../ExecuteTest.h **** #include "AssertException.h"
   7:../ExecuteTest.h **** #include "CurrentTest.h"
   8:../ExecuteTest.h **** 
   9:../ExecuteTest.h **** #ifdef UNITTEST_POSIX
  10:../ExecuteTest.h **** 	#include "PosixUtils/SignalTranslator.h"
  11:../ExecuteTest.h **** #endif
  12:../ExecuteTest.h **** 
  13:../ExecuteTest.h **** namespace UnitTest {
  14:../ExecuteTest.h **** 
  15:../ExecuteTest.h **** template< typename T >
  16:../ExecuteTest.h **** void ExecuteTest(T& testObject, TestDetails const& details)
 6906              		.loc 8 16 0
 6907              		.cfi_startproc
 6908              		.cfi_personality 0x3,__gxx_personality_v0
 6909              		.cfi_lsda 0x3,.LLSDA1244
 6910 2ef3 55       		pushq	%rbp
 6911              		.cfi_def_cfa_offset 16
 6912              		.cfi_offset 6, -16
 6913 2ef4 4889E5   		movq	%rsp, %rbp
 6914              		.cfi_def_cfa_register 6
 6915 2ef7 4154     		pushq	%r12
 6916 2ef9 53       		pushq	%rbx
 6917 2efa 4881EC20 		subq	$1568, %rsp
 6917      060000
 6918              		.cfi_offset 12, -24
 6919              		.cfi_offset 3, -32
 6920 2f01 4889BDD8 		movq	%rdi, -1576(%rbp)
 6920      F9FFFF
 6921 2f08 4889B5D0 		movq	%rsi, -1584(%rbp)
 6921      F9FFFF
 6922              		.loc 8 16 0
 6923 2f0f 64488B04 		movq	%fs:40, %rax
 6923      25280000 
 6923      00
 6924 2f18 488945E8 		movq	%rax, -24(%rbp)
 6925 2f1c 31C0     		xorl	%eax, %eax
 6926              	.LEHB170:
 6927              	.LBB139:
  17:../ExecuteTest.h **** {
  18:../ExecuteTest.h **** 	CurrentTest::Details() = &details;
 6928              		.loc 8 18 0
 6929 2f1e E8000000 		call	_ZN8UnitTest11CurrentTest7DetailsEv
 6929      00
 6930              	.LEHE170:
 6931 2f23 4889C2   		movq	%rax, %rdx
 6932 2f26 488B85D0 		movq	-1584(%rbp), %rax
 6932      F9FFFF
 6933 2f2d 488902   		movq	%rax, (%rdx)
 6934              	.LBB140:
  19:../ExecuteTest.h **** 
  20:../ExecuteTest.h **** 	try
  21:../ExecuteTest.h **** 	{
  22:../ExecuteTest.h **** #ifdef UNITTEST_POSIX
  23:../ExecuteTest.h **** 		UNITTEST_THROW_SIGNALS
 6935              		.loc 8 23 0
 6936 2f30 488D8580 		leaq	-1152(%rbp), %rax
 6936      FBFFFF
 6937 2f37 4889C7   		movq	%rax, %rdi
 6938              	.LEHB171:
 6939 2f3a E8000000 		call	_ZN8UnitTest16SignalTranslatorC1Ev
 6939      00
 6940              	.LEHE171:
 6941              		.loc 8 23 0 is_stmt 0 discriminator 1
 6942 2f3f 488B0500 		movq	_ZN8UnitTest16SignalTranslator12s_jumpTargetE(%rip), %rax
 6942      000000
 6943 2f46 BE010000 		movl	$1, %esi
 6943      00
 6944 2f4b 4889C7   		movq	%rax, %rdi
 6945 2f4e E8000000 		call	__sigsetjmp
 6945      00
 6946 2f53 85C0     		testl	%eax, %eax
 6947 2f55 0F95C0   		setne	%al
 6948 2f58 84C0     		testb	%al, %al
 6949 2f5a 7423     		je	.L381
 6950              		.loc 8 23 0 discriminator 3
 6951 2f5c BF080000 		movl	$8, %edi
 6951      00
 6952 2f61 E8000000 		call	__cxa_allocate_exception
 6952      00
 6953 2f66 48C70000 		movq	$.LC75, (%rax)
 6953      000000
 6954 2f6d BA000000 		movl	$0, %edx
 6954      00
 6955 2f72 BE000000 		movl	$_ZTIPKc, %esi
 6955      00
 6956 2f77 4889C7   		movq	%rax, %rdi
 6957              	.LEHB172:
 6958 2f7a E8000000 		call	__cxa_throw
 6958      00
 6959              	.LEHE172:
 6960              	.L381:
  24:../ExecuteTest.h **** #endif
  25:../ExecuteTest.h **** 		testObject.RunImpl();
 6961              		.loc 8 25 0 is_stmt 1
 6962 2f7f 488B85D8 		movq	-1576(%rbp), %rax
 6962      F9FFFF
 6963 2f86 4889C7   		movq	%rax, %rdi
 6964 2f89 E82CD6FF 		call	_ZN12_GLOBAL__N_134ThrowingThingieDummyTestNameHelper7RunImplEv
 6964      FF
 6965 2f8e 488D8580 		leaq	-1152(%rbp), %rax
 6965      FBFFFF
 6966 2f95 4889C7   		movq	%rax, %rdi
 6967              	.LEHB173:
 6968 2f98 E8000000 		call	_ZN8UnitTest16SignalTranslatorD1Ev
 6968      00
 6969              	.LEHE173:
 6970              	.LBE140:
 6971              	.LBE139:
  26:../ExecuteTest.h **** 	}
  27:../ExecuteTest.h **** 	catch (AssertException const& e)
  28:../ExecuteTest.h **** 	{
  29:../ExecuteTest.h **** 		CurrentTest::Results()->OnTestFailure(
  30:../ExecuteTest.h **** 			TestDetails(details.testName, details.suiteName, e.Filename(), e.LineNumber()), e.what());
  31:../ExecuteTest.h **** 	}
  32:../ExecuteTest.h **** 	catch (std::exception const& e)
  33:../ExecuteTest.h **** 	{
  34:../ExecuteTest.h **** 		MemoryOutStream stream;
  35:../ExecuteTest.h **** 		stream << "Unhandled exception: " << e.what();
  36:../ExecuteTest.h **** 		CurrentTest::Results()->OnTestFailure(details, stream.GetText());
  37:../ExecuteTest.h **** 	}
  38:../ExecuteTest.h **** 	catch (...)
  39:../ExecuteTest.h **** 	{
  40:../ExecuteTest.h **** 		CurrentTest::Results()->OnTestFailure(details, "Unhandled exception: Crash!");
  41:../ExecuteTest.h **** 	}
  42:../ExecuteTest.h **** }
 6972              		.loc 8 42 0
 6973 2f9d E9EE0100 		jmp	.L383
 6973      00
 6974              	.L376:
 6975 2fa2 4989C4   		movq	%rax, %r12
 6976 2fa5 4889D3   		movq	%rdx, %rbx
 6977              	.LBB148:
 6978              	.LBB141:
  25:../ExecuteTest.h **** 	}
 6979              		.loc 8 25 0
 6980 2fa8 488D8580 		leaq	-1152(%rbp), %rax
 6980      FBFFFF
 6981 2faf 4889C7   		movq	%rax, %rdi
 6982 2fb2 E8000000 		call	_ZN8UnitTest16SignalTranslatorD1Ev
 6982      00
 6983 2fb7 4C89E0   		movq	%r12, %rax
 6984 2fba 4889DA   		movq	%rbx, %rdx
 6985 2fbd EB00     		jmp	.L365
 6986              	.L375:
 6987              	.L365:
 6988 2fbf 4883FA01 		cmpq	$1, %rdx
 6989 2fc3 745C     		je	.L367
 6990 2fc5 4883FA02 		cmpq	$2, %rdx
 6991 2fc9 0F84F300 		je	.L368
 6991      0000
 6992 2fcf E9900100 		jmp	.L382
 6992      00
 6993              	.L377:
 6994 2fd4 4889C3   		movq	%rax, %rbx
 6995              	.LBE141:
 6996              	.LBB142:
  27:../ExecuteTest.h **** 	{
 6997              		.loc 8 27 0
 6998 2fd7 E8000000 		call	__cxa_end_catch
 6998      00
 6999 2fdc 4889D8   		movq	%rbx, %rax
 7000 2fdf 4889C7   		movq	%rax, %rdi
 7001              	.LEHB174:
 7002 2fe2 E8000000 		call	_Unwind_Resume
 7002      00
 7003              	.LEHE174:
 7004              	.L378:
 7005 2fe7 4889C3   		movq	%rax, %rbx
 7006              	.LBE142:
 7007              	.LBB143:
 7008              	.LBB144:
  36:../ExecuteTest.h **** 	}
 7009              		.loc 8 36 0
 7010 2fea 488D8510 		leaq	-1520(%rbp), %rax
 7010      FAFFFF
 7011 2ff1 4889C7   		movq	%rax, %rdi
 7012 2ff4 E8000000 		call	_ZN8UnitTest15MemoryOutStreamD1Ev
 7012      00
 7013 2ff9 EB03     		jmp	.L371
 7014              	.L379:
 7015 2ffb 4889C3   		movq	%rax, %rbx
 7016              	.L371:
 7017              	.LBE144:
  32:../ExecuteTest.h **** 	{
 7018              		.loc 8 32 0
 7019 2ffe E8000000 		call	__cxa_end_catch
 7019      00
 7020 3003 4889D8   		movq	%rbx, %rax
 7021 3006 4889C7   		movq	%rax, %rdi
 7022              	.LEHB175:
 7023 3009 E8000000 		call	_Unwind_Resume
 7023      00
 7024              	.LEHE175:
 7025              	.L380:
 7026 300e 4889C3   		movq	%rax, %rbx
 7027              	.LBE143:
  38:../ExecuteTest.h **** 	{
 7028              		.loc 8 38 0
 7029 3011 E8000000 		call	__cxa_end_catch
 7029      00
 7030 3016 4889D8   		movq	%rbx, %rax
 7031 3019 4889C7   		movq	%rax, %rdi
 7032              	.LEHB176:
 7033 301c E8000000 		call	_Unwind_Resume
 7033      00
 7034              	.LEHE176:
 7035              	.L367:
 7036              	.LBB146:
  27:../ExecuteTest.h **** 	{
 7037              		.loc 8 27 0
 7038 3021 4889C7   		movq	%rax, %rdi
 7039 3024 E8000000 		call	__cxa_begin_catch
 7039      00
 7040 3029 488985E0 		movq	%rax, -1568(%rbp)
 7040      F9FFFF
  30:../ExecuteTest.h **** 	}
 7041              		.loc 8 30 0
 7042 3030 488B85E0 		movq	-1568(%rbp), %rax
 7042      F9FFFF
 7043 3037 488B00   		movq	(%rax), %rax
 7044 303a 4883C010 		addq	$16, %rax
 7045 303e 488B00   		movq	(%rax), %rax
 7046 3041 488B95E0 		movq	-1568(%rbp), %rdx
 7046      F9FFFF
 7047 3048 4889D7   		movq	%rdx, %rdi
 7048 304b FFD0     		call	*%rax
 7049 304d 4889C3   		movq	%rax, %rbx
 7050 3050 488B85E0 		movq	-1568(%rbp), %rax
 7050      F9FFFF
 7051 3057 4889C7   		movq	%rax, %rdi
 7052              	.LEHB177:
 7053 305a E8000000 		call	_ZNK8UnitTest15AssertException10LineNumberEv
 7053      00
  30:../ExecuteTest.h **** 	}
 7054              		.loc 8 30 0 is_stmt 0 discriminator 1
 7055 305f 4189C4   		movl	%eax, %r12d
 7056 3062 488B85E0 		movq	-1568(%rbp), %rax
 7056      F9FFFF
 7057 3069 4889C7   		movq	%rax, %rdi
 7058 306c E8000000 		call	_ZNK8UnitTest15AssertException8FilenameEv
 7058      00
  30:../ExecuteTest.h **** 	}
 7059              		.loc 8 30 0 discriminator 2
 7060 3071 4889C1   		movq	%rax, %rcx
 7061 3074 488B85D0 		movq	-1584(%rbp), %rax
 7061      F9FFFF
 7062 307b 488B10   		movq	(%rax), %rdx
 7063 307e 488B85D0 		movq	-1584(%rbp), %rax
 7063      F9FFFF
 7064 3085 488B7008 		movq	8(%rax), %rsi
 7065 3089 488D85F0 		leaq	-1552(%rbp), %rax
 7065      F9FFFF
 7066 3090 4589E0   		movl	%r12d, %r8d
 7067 3093 4889C7   		movq	%rax, %rdi
 7068 3096 E8000000 		call	_ZN8UnitTest11TestDetailsC1EPKcS2_S2_i
 7068      00
  29:../ExecuteTest.h **** 			TestDetails(details.testName, details.suiteName, e.Filename(), e.LineNumber()), e.what());
 7069              		.loc 8 29 0 is_stmt 1
 7070 309b E8000000 		call	_ZN8UnitTest11CurrentTest7ResultsEv
 7070      00
  30:../ExecuteTest.h **** 	}
 7071              		.loc 8 30 0
 7072 30a0 488B00   		movq	(%rax), %rax
  29:../ExecuteTest.h **** 			TestDetails(details.testName, details.suiteName, e.Filename(), e.LineNumber()), e.what());
 7073              		.loc 8 29 0
 7074 30a3 488D8DF0 		leaq	-1552(%rbp), %rcx
 7074      F9FFFF
 7075 30aa 4889DA   		movq	%rbx, %rdx
 7076 30ad 4889CE   		movq	%rcx, %rsi
 7077 30b0 4889C7   		movq	%rax, %rdi
 7078 30b3 E8000000 		call	_ZN8UnitTest11TestResults13OnTestFailureERKNS_11TestDetailsEPKc
 7078      00
 7079              	.LEHE177:
  27:../ExecuteTest.h **** 	{
 7080              		.loc 8 27 0
 7081 30b8 E8000000 		call	__cxa_end_catch
 7081      00
 7082              	.LBE146:
 7083              	.LBE148:
 7084              		.loc 8 42 0
 7085 30bd E9CE0000 		jmp	.L383
 7085      00
 7086              	.L368:
 7087              	.LBB149:
 7088              	.LBB147:
  32:../ExecuteTest.h **** 	{
 7089              		.loc 8 32 0
 7090 30c2 4889C7   		movq	%rax, %rdi
 7091 30c5 E8000000 		call	__cxa_begin_catch
 7091      00
 7092 30ca 488985E8 		movq	%rax, -1560(%rbp)
 7092      F9FFFF
 7093              	.LBB145:
  34:../ExecuteTest.h **** 		stream << "Unhandled exception: " << e.what();
 7094              		.loc 8 34 0
 7095 30d1 488D8510 		leaq	-1520(%rbp), %rax
 7095      FAFFFF
 7096 30d8 4889C7   		movq	%rax, %rdi
 7097              	.LEHB178:
 7098 30db E8000000 		call	_ZN8UnitTest15MemoryOutStreamC1Ev
 7098      00
 7099              	.LEHE178:
  35:../ExecuteTest.h **** 		CurrentTest::Results()->OnTestFailure(details, stream.GetText());
 7100              		.loc 8 35 0
 7101 30e0 488B85E8 		movq	-1560(%rbp), %rax
 7101      F9FFFF
 7102 30e7 488B00   		movq	(%rax), %rax
 7103 30ea 4883C010 		addq	$16, %rax
 7104 30ee 488B00   		movq	(%rax), %rax
 7105 30f1 488B95E8 		movq	-1560(%rbp), %rdx
 7105      F9FFFF
 7106 30f8 4889D7   		movq	%rdx, %rdi
 7107 30fb FFD0     		call	*%rax
 7108 30fd 4889C3   		movq	%rax, %rbx
 7109 3100 488D8510 		leaq	-1520(%rbp), %rax
 7109      FAFFFF
 7110 3107 BE000000 		movl	$.LC11, %esi
 7110      00
 7111 310c 4889C7   		movq	%rax, %rdi
 7112              	.LEHB179:
 7113 310f E8000000 		call	_ZStlsISt11char_traitsIcEERSt13basic_ostreamIcT_ES5_PKc
 7113      00
  35:../ExecuteTest.h **** 		CurrentTest::Results()->OnTestFailure(details, stream.GetText());
 7114              		.loc 8 35 0 is_stmt 0 discriminator 1
 7115 3114 4889DE   		movq	%rbx, %rsi
 7116 3117 4889C7   		movq	%rax, %rdi
 7117 311a E8000000 		call	_ZStlsISt11char_traitsIcEERSt13basic_ostreamIcT_ES5_PKc
 7117      00
  36:../ExecuteTest.h **** 	}
 7118              		.loc 8 36 0 is_stmt 1
 7119 311f 488D8510 		leaq	-1520(%rbp), %rax
 7119      FAFFFF
 7120 3126 4889C7   		movq	%rax, %rdi
 7121 3129 E8000000 		call	_ZNK8UnitTest15MemoryOutStream7GetTextEv
 7121      00
 7122 312e 4889C3   		movq	%rax, %rbx
 7123 3131 E8000000 		call	_ZN8UnitTest11CurrentTest7ResultsEv
 7123      00
  36:../ExecuteTest.h **** 	}
 7124              		.loc 8 36 0 is_stmt 0 discriminator 2
 7125 3136 488B00   		movq	(%rax), %rax
 7126 3139 488B8DD0 		movq	-1584(%rbp), %rcx
 7126      F9FFFF
 7127 3140 4889DA   		movq	%rbx, %rdx
 7128 3143 4889CE   		movq	%rcx, %rsi
 7129 3146 4889C7   		movq	%rax, %rdi
 7130 3149 E8000000 		call	_ZN8UnitTest11TestResults13OnTestFailureERKNS_11TestDetailsEPKc
 7130      00
 7131              	.LEHE179:
  36:../ExecuteTest.h **** 	}
 7132              		.loc 8 36 0 discriminator 6
 7133 314e 488D8510 		leaq	-1520(%rbp), %rax
 7133      FAFFFF
 7134 3155 4889C7   		movq	%rax, %rdi
 7135              	.LEHB180:
 7136 3158 E8000000 		call	_ZN8UnitTest15MemoryOutStreamD1Ev
 7136      00
 7137              	.LEHE180:
 7138              	.LBE145:
  32:../ExecuteTest.h **** 	{
 7139              		.loc 8 32 0 is_stmt 1
 7140 315d E8000000 		call	__cxa_end_catch
 7140      00
 7141              	.LBE147:
 7142              	.LBE149:
 7143              		.loc 8 42 0
 7144 3162 EB2C     		jmp	.L383
 7145              	.L382:
 7146              	.LBB150:
  38:../ExecuteTest.h **** 	{
 7147              		.loc 8 38 0
 7148 3164 4889C7   		movq	%rax, %rdi
 7149 3167 E8000000 		call	__cxa_begin_catch
 7149      00
 7150              	.LEHB181:
  40:../ExecuteTest.h **** 	}
 7151              		.loc 8 40 0
 7152 316c E8000000 		call	_ZN8UnitTest11CurrentTest7ResultsEv
 7152      00
 7153 3171 488B00   		movq	(%rax), %rax
 7154 3174 488B8DD0 		movq	-1584(%rbp), %rcx
 7154      F9FFFF
 7155 317b BA000000 		movl	$.LC76, %edx
 7155      00
 7156 3180 4889CE   		movq	%rcx, %rsi
 7157 3183 4889C7   		movq	%rax, %rdi
 7158 3186 E8000000 		call	_ZN8UnitTest11TestResults13OnTestFailureERKNS_11TestDetailsEPKc
 7158      00
 7159              	.LEHE181:
 7160              	.LEHB182:
  38:../ExecuteTest.h **** 	{
 7161              		.loc 8 38 0
 7162 318b E8000000 		call	__cxa_end_catch
 7162      00
 7163              	.LEHE182:
 7164              	.L383:
 7165              	.LBE150:
 7166              		.loc 8 42 0
 7167 3190 90       		nop
 7168 3191 488B45E8 		movq	-24(%rbp), %rax
 7169 3195 64483304 		xorq	%fs:40, %rax
 7169      25280000 
 7169      00
 7170 319e 7405     		je	.L374
 7171 31a0 E8000000 		call	__stack_chk_fail
 7171      00
 7172              	.L374:
 7173 31a5 4881C420 		addq	$1568, %rsp
 7173      060000
 7174 31ac 5B       		popq	%rbx
 7175 31ad 415C     		popq	%r12
 7176 31af 5D       		popq	%rbp
 7177              		.cfi_def_cfa 7, 8
 7178 31b0 C3       		ret
 7179              		.cfi_endproc
 7180              	.LFE1244:
 7181              		.section	.gcc_except_table
 7182              		.align 4
 7183              	.LLSDA1244:
 7184 0498 FF       		.byte	0xff
 7185 0499 03       		.byte	0x3
 7186 049a 5D       		.uleb128 .LLSDATT1244-.LLSDATTD1244
 7187              	.LLSDATTD1244:
 7188 049b 01       		.byte	0x1
 7189 049c 47       		.uleb128 .LLSDACSE1244-.LLSDACSB1244
 7190              	.LLSDACSB1244:
 7191 049d 2B       		.uleb128 .LEHB170-.LFB1244
 7192 049e 05       		.uleb128 .LEHE170-.LEHB170
 7193 049f 00       		.uleb128 0
 7194 04a0 00       		.uleb128 0
 7195 04a1 47       		.uleb128 .LEHB171-.LFB1244
 7196 04a2 05       		.uleb128 .LEHE171-.LEHB171
 7197 04a3 CC01     		.uleb128 .L375-.LFB1244
 7198 04a5 05       		.uleb128 0x5
 7199 04a6 8701     		.uleb128 .LEHB172-.LFB1244
 7200 04a8 05       		.uleb128 .LEHE172-.LEHB172
 7201 04a9 AF01     		.uleb128 .L376-.LFB1244
 7202 04ab 07       		.uleb128 0x7
 7203 04ac A501     		.uleb128 .LEHB173-.LFB1244
 7204 04ae 05       		.uleb128 .LEHE173-.LEHB173
 7205 04af CC01     		.uleb128 .L375-.LFB1244
 7206 04b1 05       		.uleb128 0x5
 7207 04b2 EF01     		.uleb128 .LEHB174-.LFB1244
 7208 04b4 05       		.uleb128 .LEHE174-.LEHB174
 7209 04b5 00       		.uleb128 0
 7210 04b6 00       		.uleb128 0
 7211 04b7 9602     		.uleb128 .LEHB175-.LFB1244
 7212 04b9 05       		.uleb128 .LEHE175-.LEHB175
 7213 04ba 00       		.uleb128 0
 7214 04bb 00       		.uleb128 0
 7215 04bc A902     		.uleb128 .LEHB176-.LFB1244
 7216 04be 05       		.uleb128 .LEHE176-.LEHB176
 7217 04bf 00       		.uleb128 0
 7218 04c0 00       		.uleb128 0
 7219 04c1 E702     		.uleb128 .LEHB177-.LFB1244
 7220 04c3 5E       		.uleb128 .LEHE177-.LEHB177
 7221 04c4 E101     		.uleb128 .L377-.LFB1244
 7222 04c6 00       		.uleb128 0
 7223 04c7 E803     		.uleb128 .LEHB178-.LFB1244
 7224 04c9 05       		.uleb128 .LEHE178-.LEHB178
 7225 04ca 8802     		.uleb128 .L379-.LFB1244
 7226 04cc 00       		.uleb128 0
 7227 04cd 9C04     		.uleb128 .LEHB179-.LFB1244
 7228 04cf 3F       		.uleb128 .LEHE179-.LEHB179
 7229 04d0 F401     		.uleb128 .L378-.LFB1244
 7230 04d2 00       		.uleb128 0
 7231 04d3 E504     		.uleb128 .LEHB180-.LFB1244
 7232 04d5 05       		.uleb128 .LEHE180-.LEHB180
 7233 04d6 8802     		.uleb128 .L379-.LFB1244
 7234 04d8 00       		.uleb128 0
 7235 04d9 F904     		.uleb128 .LEHB181-.LFB1244
 7236 04db 1F       		.uleb128 .LEHE181-.LEHB181
 7237 04dc 9B02     		.uleb128 .L380-.LFB1244
 7238 04de 00       		.uleb128 0
 7239 04df 9805     		.uleb128 .LEHB182-.LFB1244
 7240 04e1 05       		.uleb128 .LEHE182-.LEHB182
 7241 04e2 00       		.uleb128 0
 7242 04e3 00       		.uleb128 0
 7243              	.LLSDACSE1244:
 7244 04e4 03       		.byte	0x3
 7245 04e5 00       		.byte	0
 7246 04e6 02       		.byte	0x2
 7247 04e7 7D       		.byte	0x7d
 7248 04e8 01       		.byte	0x1
 7249 04e9 7D       		.byte	0x7d
 7250 04ea 00       		.byte	0
 7251 04eb 7D       		.byte	0x7d
 7252              		.align 4
 7253 04ec 00000000 		.long	0
 7254              	
 7255 04f0 00000000 		.long	_ZTISt9exception
 7256 04f4 00000000 		.long	_ZTIN8UnitTest15AssertExceptionE
 7257              	.LLSDATT1244:
 7258              		.text
 7260              		.section	.text._ZN8UnitTest5CheckIPcEEbT_,"axG",@progbits,_ZN8UnitTest5CheckIPcEEbT_,comdat
 7261              		.weak	_ZN8UnitTest5CheckIPcEEbT_
 7263              	_ZN8UnitTest5CheckIPcEEbT_:
 7264              	.LFB1246:
  12:../Checks.h   **** {
 7265              		.loc 7 12 0
 7266              		.cfi_startproc
 7267 0000 55       		pushq	%rbp
 7268              		.cfi_def_cfa_offset 16
 7269              		.cfi_offset 6, -16
 7270 0001 4889E5   		movq	%rsp, %rbp
 7271              		.cfi_def_cfa_register 6
 7272 0004 48897DF8 		movq	%rdi, -8(%rbp)
  14:../Checks.h   **** }
 7273              		.loc 7 14 0
 7274 0008 48837DF8 		cmpq	$0, -8(%rbp)
 7274      00
 7275 000d 0F95C0   		setne	%al
 7276              		.loc 7 15 0
 7277 0010 5D       		popq	%rbp
 7278              		.cfi_def_cfa 7, 8
 7279 0011 C3       		ret
 7280              		.cfi_endproc
 7281              	.LFE1246:
 7283              		.text
 7285              	_ZN8UnitTest11ExecuteTestIN12_GLOBAL__N_115SuiteTestSuite165DummyFixtureSimilarlyNamedFixtureTestsI
 7286              	.LFB1247:
  16:../ExecuteTest.h **** {
 7287              		.loc 8 16 0
 7288              		.cfi_startproc
 7289              		.cfi_personality 0x3,__gxx_personality_v0
 7290              		.cfi_lsda 0x3,.LLSDA1247
 7291 31b1 55       		pushq	%rbp
 7292              		.cfi_def_cfa_offset 16
 7293              		.cfi_offset 6, -16
 7294 31b2 4889E5   		movq	%rsp, %rbp
 7295              		.cfi_def_cfa_register 6
 7296 31b5 4154     		pushq	%r12
 7297 31b7 53       		pushq	%rbx
 7298 31b8 4881EC20 		subq	$1568, %rsp
 7298      060000
 7299              		.cfi_offset 12, -24
 7300              		.cfi_offset 3, -32
 7301 31bf 4889BDD8 		movq	%rdi, -1576(%rbp)
 7301      F9FFFF
 7302 31c6 4889B5D0 		movq	%rsi, -1584(%rbp)
 7302      F9FFFF
  16:../ExecuteTest.h **** {
 7303              		.loc 8 16 0
 7304 31cd 64488B04 		movq	%fs:40, %rax
 7304      25280000 
 7304      00
 7305 31d6 488945E8 		movq	%rax, -24(%rbp)
 7306 31da 31C0     		xorl	%eax, %eax
 7307              	.LEHB183:
 7308              	.LBB151:
  18:../ExecuteTest.h **** 
 7309              		.loc 8 18 0
 7310 31dc E8000000 		call	_ZN8UnitTest11CurrentTest7DetailsEv
 7310      00
 7311              	.LEHE183:
 7312 31e1 4889C2   		movq	%rax, %rdx
 7313 31e4 488B85D0 		movq	-1584(%rbp), %rax
 7313      F9FFFF
 7314 31eb 488902   		movq	%rax, (%rdx)
 7315              	.LBB152:
  23:../ExecuteTest.h **** #endif
 7316              		.loc 8 23 0
 7317 31ee 488D8580 		leaq	-1152(%rbp), %rax
 7317      FBFFFF
 7318 31f5 4889C7   		movq	%rax, %rdi
 7319              	.LEHB184:
 7320 31f8 E8000000 		call	_ZN8UnitTest16SignalTranslatorC1Ev
 7320      00
 7321              	.LEHE184:
  23:../ExecuteTest.h **** #endif
 7322              		.loc 8 23 0 is_stmt 0 discriminator 1
 7323 31fd 488B0500 		movq	_ZN8UnitTest16SignalTranslator12s_jumpTargetE(%rip), %rax
 7323      000000
 7324 3204 BE010000 		movl	$1, %esi
 7324      00
 7325 3209 4889C7   		movq	%rax, %rdi
 7326 320c E8000000 		call	__sigsetjmp
 7326      00
 7327 3211 85C0     		testl	%eax, %eax
 7328 3213 0F95C0   		setne	%al
 7329 3216 84C0     		testb	%al, %al
 7330 3218 7423     		je	.L406
  23:../ExecuteTest.h **** #endif
 7331              		.loc 8 23 0 discriminator 3
 7332 321a BF080000 		movl	$8, %edi
 7332      00
 7333 321f E8000000 		call	__cxa_allocate_exception
 7333      00
 7334 3224 48C70000 		movq	$.LC75, (%rax)
 7334      000000
 7335 322b BA000000 		movl	$0, %edx
 7335      00
 7336 3230 BE000000 		movl	$_ZTIPKc, %esi
 7336      00
 7337 3235 4889C7   		movq	%rax, %rdi
 7338              	.LEHB185:
 7339 3238 E8000000 		call	__cxa_throw
 7339      00
 7340              	.LEHE185:
 7341              	.L406:
  25:../ExecuteTest.h **** 	}
 7342              		.loc 8 25 0 is_stmt 1
 7343 323d 488B85D8 		movq	-1576(%rbp), %rax
 7343      F9FFFF
 7344 3244 4889C7   		movq	%rax, %rdi
 7345 3247 E892DAFF 		call	_ZN12_GLOBAL__N_115SuiteTestSuite165DummyFixtureSimilarlyNamedFixtureTestsInDifferentSuitesWo
 7345      FF
 7346 324c 488D8580 		leaq	-1152(%rbp), %rax
 7346      FBFFFF
 7347 3253 4889C7   		movq	%rax, %rdi
 7348              	.LEHB186:
 7349 3256 E8000000 		call	_ZN8UnitTest16SignalTranslatorD1Ev
 7349      00
 7350              	.LEHE186:
 7351              	.LBE152:
 7352              	.LBE151:
 7353              		.loc 8 42 0
 7354 325b E9EE0100 		jmp	.L408
 7354      00
 7355              	.L401:
 7356 3260 4989C4   		movq	%rax, %r12
 7357 3263 4889D3   		movq	%rdx, %rbx
 7358              	.LBB160:
 7359              	.LBB153:
  25:../ExecuteTest.h **** 	}
 7360              		.loc 8 25 0
 7361 3266 488D8580 		leaq	-1152(%rbp), %rax
 7361      FBFFFF
 7362 326d 4889C7   		movq	%rax, %rdi
 7363 3270 E8000000 		call	_ZN8UnitTest16SignalTranslatorD1Ev
 7363      00
 7364 3275 4C89E0   		movq	%r12, %rax
 7365 3278 4889DA   		movq	%rbx, %rdx
 7366 327b EB00     		jmp	.L390
 7367              	.L400:
 7368              	.L390:
 7369 327d 4883FA01 		cmpq	$1, %rdx
 7370 3281 745C     		je	.L392
 7371 3283 4883FA02 		cmpq	$2, %rdx
 7372 3287 0F84F300 		je	.L393
 7372      0000
 7373 328d E9900100 		jmp	.L407
 7373      00
 7374              	.L402:
 7375 3292 4889C3   		movq	%rax, %rbx
 7376              	.LBE153:
 7377              	.LBB154:
  27:../ExecuteTest.h **** 	{
 7378              		.loc 8 27 0
 7379 3295 E8000000 		call	__cxa_end_catch
 7379      00
 7380 329a 4889D8   		movq	%rbx, %rax
 7381 329d 4889C7   		movq	%rax, %rdi
 7382              	.LEHB187:
 7383 32a0 E8000000 		call	_Unwind_Resume
 7383      00
 7384              	.LEHE187:
 7385              	.L403:
 7386 32a5 4889C3   		movq	%rax, %rbx
 7387              	.LBE154:
 7388              	.LBB155:
 7389              	.LBB156:
  36:../ExecuteTest.h **** 	}
 7390              		.loc 8 36 0
 7391 32a8 488D8510 		leaq	-1520(%rbp), %rax
 7391      FAFFFF
 7392 32af 4889C7   		movq	%rax, %rdi
 7393 32b2 E8000000 		call	_ZN8UnitTest15MemoryOutStreamD1Ev
 7393      00
 7394 32b7 EB03     		jmp	.L396
 7395              	.L404:
 7396 32b9 4889C3   		movq	%rax, %rbx
 7397              	.L396:
 7398              	.LBE156:
  32:../ExecuteTest.h **** 	{
 7399              		.loc 8 32 0
 7400 32bc E8000000 		call	__cxa_end_catch
 7400      00
 7401 32c1 4889D8   		movq	%rbx, %rax
 7402 32c4 4889C7   		movq	%rax, %rdi
 7403              	.LEHB188:
 7404 32c7 E8000000 		call	_Unwind_Resume
 7404      00
 7405              	.LEHE188:
 7406              	.L405:
 7407 32cc 4889C3   		movq	%rax, %rbx
 7408              	.LBE155:
  38:../ExecuteTest.h **** 	{
 7409              		.loc 8 38 0
 7410 32cf E8000000 		call	__cxa_end_catch
 7410      00
 7411 32d4 4889D8   		movq	%rbx, %rax
 7412 32d7 4889C7   		movq	%rax, %rdi
 7413              	.LEHB189:
 7414 32da E8000000 		call	_Unwind_Resume
 7414      00
 7415              	.LEHE189:
 7416              	.L392:
 7417              	.LBB158:
  27:../ExecuteTest.h **** 	{
 7418              		.loc 8 27 0
 7419 32df 4889C7   		movq	%rax, %rdi
 7420 32e2 E8000000 		call	__cxa_begin_catch
 7420      00
 7421 32e7 488985E0 		movq	%rax, -1568(%rbp)
 7421      F9FFFF
  30:../ExecuteTest.h **** 	}
 7422              		.loc 8 30 0
 7423 32ee 488B85E0 		movq	-1568(%rbp), %rax
 7423      F9FFFF
 7424 32f5 488B00   		movq	(%rax), %rax
 7425 32f8 4883C010 		addq	$16, %rax
 7426 32fc 488B00   		movq	(%rax), %rax
 7427 32ff 488B95E0 		movq	-1568(%rbp), %rdx
 7427      F9FFFF
 7428 3306 4889D7   		movq	%rdx, %rdi
 7429 3309 FFD0     		call	*%rax
 7430 330b 4889C3   		movq	%rax, %rbx
 7431 330e 488B85E0 		movq	-1568(%rbp), %rax
 7431      F9FFFF
 7432 3315 4889C7   		movq	%rax, %rdi
 7433              	.LEHB190:
 7434 3318 E8000000 		call	_ZNK8UnitTest15AssertException10LineNumberEv
 7434      00
  30:../ExecuteTest.h **** 	}
 7435              		.loc 8 30 0 is_stmt 0 discriminator 1
 7436 331d 4189C4   		movl	%eax, %r12d
 7437 3320 488B85E0 		movq	-1568(%rbp), %rax
 7437      F9FFFF
 7438 3327 4889C7   		movq	%rax, %rdi
 7439 332a E8000000 		call	_ZNK8UnitTest15AssertException8FilenameEv
 7439      00
  30:../ExecuteTest.h **** 	}
 7440              		.loc 8 30 0 discriminator 2
 7441 332f 4889C1   		movq	%rax, %rcx
 7442 3332 488B85D0 		movq	-1584(%rbp), %rax
 7442      F9FFFF
 7443 3339 488B10   		movq	(%rax), %rdx
 7444 333c 488B85D0 		movq	-1584(%rbp), %rax
 7444      F9FFFF
 7445 3343 488B7008 		movq	8(%rax), %rsi
 7446 3347 488D85F0 		leaq	-1552(%rbp), %rax
 7446      F9FFFF
 7447 334e 4589E0   		movl	%r12d, %r8d
 7448 3351 4889C7   		movq	%rax, %rdi
 7449 3354 E8000000 		call	_ZN8UnitTest11TestDetailsC1EPKcS2_S2_i
 7449      00
  29:../ExecuteTest.h **** 			TestDetails(details.testName, details.suiteName, e.Filename(), e.LineNumber()), e.what());
 7450              		.loc 8 29 0 is_stmt 1
 7451 3359 E8000000 		call	_ZN8UnitTest11CurrentTest7ResultsEv
 7451      00
  30:../ExecuteTest.h **** 	}
 7452              		.loc 8 30 0
 7453 335e 488B00   		movq	(%rax), %rax
  29:../ExecuteTest.h **** 			TestDetails(details.testName, details.suiteName, e.Filename(), e.LineNumber()), e.what());
 7454              		.loc 8 29 0
 7455 3361 488D8DF0 		leaq	-1552(%rbp), %rcx
 7455      F9FFFF
 7456 3368 4889DA   		movq	%rbx, %rdx
 7457 336b 4889CE   		movq	%rcx, %rsi
 7458 336e 4889C7   		movq	%rax, %rdi
 7459 3371 E8000000 		call	_ZN8UnitTest11TestResults13OnTestFailureERKNS_11TestDetailsEPKc
 7459      00
 7460              	.LEHE190:
  27:../ExecuteTest.h **** 	{
 7461              		.loc 8 27 0
 7462 3376 E8000000 		call	__cxa_end_catch
 7462      00
 7463              	.LBE158:
 7464              	.LBE160:
 7465              		.loc 8 42 0
 7466 337b E9CE0000 		jmp	.L408
 7466      00
 7467              	.L393:
 7468              	.LBB161:
 7469              	.LBB159:
  32:../ExecuteTest.h **** 	{
 7470              		.loc 8 32 0
 7471 3380 4889C7   		movq	%rax, %rdi
 7472 3383 E8000000 		call	__cxa_begin_catch
 7472      00
 7473 3388 488985E8 		movq	%rax, -1560(%rbp)
 7473      F9FFFF
 7474              	.LBB157:
  34:../ExecuteTest.h **** 		stream << "Unhandled exception: " << e.what();
 7475              		.loc 8 34 0
 7476 338f 488D8510 		leaq	-1520(%rbp), %rax
 7476      FAFFFF
 7477 3396 4889C7   		movq	%rax, %rdi
 7478              	.LEHB191:
 7479 3399 E8000000 		call	_ZN8UnitTest15MemoryOutStreamC1Ev
 7479      00
 7480              	.LEHE191:
  35:../ExecuteTest.h **** 		CurrentTest::Results()->OnTestFailure(details, stream.GetText());
 7481              		.loc 8 35 0
 7482 339e 488B85E8 		movq	-1560(%rbp), %rax
 7482      F9FFFF
 7483 33a5 488B00   		movq	(%rax), %rax
 7484 33a8 4883C010 		addq	$16, %rax
 7485 33ac 488B00   		movq	(%rax), %rax
 7486 33af 488B95E8 		movq	-1560(%rbp), %rdx
 7486      F9FFFF
 7487 33b6 4889D7   		movq	%rdx, %rdi
 7488 33b9 FFD0     		call	*%rax
 7489 33bb 4889C3   		movq	%rax, %rbx
 7490 33be 488D8510 		leaq	-1520(%rbp), %rax
 7490      FAFFFF
 7491 33c5 BE000000 		movl	$.LC11, %esi
 7491      00
 7492 33ca 4889C7   		movq	%rax, %rdi
 7493              	.LEHB192:
 7494 33cd E8000000 		call	_ZStlsISt11char_traitsIcEERSt13basic_ostreamIcT_ES5_PKc
 7494      00
  35:../ExecuteTest.h **** 		CurrentTest::Results()->OnTestFailure(details, stream.GetText());
 7495              		.loc 8 35 0 is_stmt 0 discriminator 1
 7496 33d2 4889DE   		movq	%rbx, %rsi
 7497 33d5 4889C7   		movq	%rax, %rdi
 7498 33d8 E8000000 		call	_ZStlsISt11char_traitsIcEERSt13basic_ostreamIcT_ES5_PKc
 7498      00
  36:../ExecuteTest.h **** 	}
 7499              		.loc 8 36 0 is_stmt 1
 7500 33dd 488D8510 		leaq	-1520(%rbp), %rax
 7500      FAFFFF
 7501 33e4 4889C7   		movq	%rax, %rdi
 7502 33e7 E8000000 		call	_ZNK8UnitTest15MemoryOutStream7GetTextEv
 7502      00
 7503 33ec 4889C3   		movq	%rax, %rbx
 7504 33ef E8000000 		call	_ZN8UnitTest11CurrentTest7ResultsEv
 7504      00
  36:../ExecuteTest.h **** 	}
 7505              		.loc 8 36 0 is_stmt 0 discriminator 2
 7506 33f4 488B00   		movq	(%rax), %rax
 7507 33f7 488B8DD0 		movq	-1584(%rbp), %rcx
 7507      F9FFFF
 7508 33fe 4889DA   		movq	%rbx, %rdx
 7509 3401 4889CE   		movq	%rcx, %rsi
 7510 3404 4889C7   		movq	%rax, %rdi
 7511 3407 E8000000 		call	_ZN8UnitTest11TestResults13OnTestFailureERKNS_11TestDetailsEPKc
 7511      00
 7512              	.LEHE192:
  36:../ExecuteTest.h **** 	}
 7513              		.loc 8 36 0 discriminator 6
 7514 340c 488D8510 		leaq	-1520(%rbp), %rax
 7514      FAFFFF
 7515 3413 4889C7   		movq	%rax, %rdi
 7516              	.LEHB193:
 7517 3416 E8000000 		call	_ZN8UnitTest15MemoryOutStreamD1Ev
 7517      00
 7518              	.LEHE193:
 7519              	.LBE157:
  32:../ExecuteTest.h **** 	{
 7520              		.loc 8 32 0 is_stmt 1
 7521 341b E8000000 		call	__cxa_end_catch
 7521      00
 7522              	.LBE159:
 7523              	.LBE161:
 7524              		.loc 8 42 0
 7525 3420 EB2C     		jmp	.L408
 7526              	.L407:
 7527              	.LBB162:
  38:../ExecuteTest.h **** 	{
 7528              		.loc 8 38 0
 7529 3422 4889C7   		movq	%rax, %rdi
 7530 3425 E8000000 		call	__cxa_begin_catch
 7530      00
 7531              	.LEHB194:
  40:../ExecuteTest.h **** 	}
 7532              		.loc 8 40 0
 7533 342a E8000000 		call	_ZN8UnitTest11CurrentTest7ResultsEv
 7533      00
 7534 342f 488B00   		movq	(%rax), %rax
 7535 3432 488B8DD0 		movq	-1584(%rbp), %rcx
 7535      F9FFFF
 7536 3439 BA000000 		movl	$.LC76, %edx
 7536      00
 7537 343e 4889CE   		movq	%rcx, %rsi
 7538 3441 4889C7   		movq	%rax, %rdi
 7539 3444 E8000000 		call	_ZN8UnitTest11TestResults13OnTestFailureERKNS_11TestDetailsEPKc
 7539      00
 7540              	.LEHE194:
 7541              	.LEHB195:
  38:../ExecuteTest.h **** 	{
 7542              		.loc 8 38 0
 7543 3449 E8000000 		call	__cxa_end_catch
 7543      00
 7544              	.LEHE195:
 7545              	.L408:
 7546              	.LBE162:
 7547              		.loc 8 42 0
 7548 344e 90       		nop
 7549 344f 488B45E8 		movq	-24(%rbp), %rax
 7550 3453 64483304 		xorq	%fs:40, %rax
 7550      25280000 
 7550      00
 7551 345c 7405     		je	.L399
 7552 345e E8000000 		call	__stack_chk_fail
 7552      00
 7553              	.L399:
 7554 3463 4881C420 		addq	$1568, %rsp
 7554      060000
 7555 346a 5B       		popq	%rbx
 7556 346b 415C     		popq	%r12
 7557 346d 5D       		popq	%rbp
 7558              		.cfi_def_cfa 7, 8
 7559 346e C3       		ret
 7560              		.cfi_endproc
 7561              	.LFE1247:
 7562              		.section	.gcc_except_table
 7563              		.align 4
 7564              	.LLSDA1247:
 7565 04f8 FF       		.byte	0xff
 7566 04f9 03       		.byte	0x3
 7567 04fa 5D       		.uleb128 .LLSDATT1247-.LLSDATTD1247
 7568              	.LLSDATTD1247:
 7569 04fb 01       		.byte	0x1
 7570 04fc 47       		.uleb128 .LLSDACSE1247-.LLSDACSB1247
 7571              	.LLSDACSB1247:
 7572 04fd 2B       		.uleb128 .LEHB183-.LFB1247
 7573 04fe 05       		.uleb128 .LEHE183-.LEHB183
 7574 04ff 00       		.uleb128 0
 7575 0500 00       		.uleb128 0
 7576 0501 47       		.uleb128 .LEHB184-.LFB1247
 7577 0502 05       		.uleb128 .LEHE184-.LEHB184
 7578 0503 CC01     		.uleb128 .L400-.LFB1247
 7579 0505 05       		.uleb128 0x5
 7580 0506 8701     		.uleb128 .LEHB185-.LFB1247
 7581 0508 05       		.uleb128 .LEHE185-.LEHB185
 7582 0509 AF01     		.uleb128 .L401-.LFB1247
 7583 050b 07       		.uleb128 0x7
 7584 050c A501     		.uleb128 .LEHB186-.LFB1247
 7585 050e 05       		.uleb128 .LEHE186-.LEHB186
 7586 050f CC01     		.uleb128 .L400-.LFB1247
 7587 0511 05       		.uleb128 0x5
 7588 0512 EF01     		.uleb128 .LEHB187-.LFB1247
 7589 0514 05       		.uleb128 .LEHE187-.LEHB187
 7590 0515 00       		.uleb128 0
 7591 0516 00       		.uleb128 0
 7592 0517 9602     		.uleb128 .LEHB188-.LFB1247
 7593 0519 05       		.uleb128 .LEHE188-.LEHB188
 7594 051a 00       		.uleb128 0
 7595 051b 00       		.uleb128 0
 7596 051c A902     		.uleb128 .LEHB189-.LFB1247
 7597 051e 05       		.uleb128 .LEHE189-.LEHB189
 7598 051f 00       		.uleb128 0
 7599 0520 00       		.uleb128 0
 7600 0521 E702     		.uleb128 .LEHB190-.LFB1247
 7601 0523 5E       		.uleb128 .LEHE190-.LEHB190
 7602 0524 E101     		.uleb128 .L402-.LFB1247
 7603 0526 00       		.uleb128 0
 7604 0527 E803     		.uleb128 .LEHB191-.LFB1247
 7605 0529 05       		.uleb128 .LEHE191-.LEHB191
 7606 052a 8802     		.uleb128 .L404-.LFB1247
 7607 052c 00       		.uleb128 0
 7608 052d 9C04     		.uleb128 .LEHB192-.LFB1247
 7609 052f 3F       		.uleb128 .LEHE192-.LEHB192
 7610 0530 F401     		.uleb128 .L403-.LFB1247
 7611 0532 00       		.uleb128 0
 7612 0533 E504     		.uleb128 .LEHB193-.LFB1247
 7613 0535 05       		.uleb128 .LEHE193-.LEHB193
 7614 0536 8802     		.uleb128 .L404-.LFB1247
 7615 0538 00       		.uleb128 0
 7616 0539 F904     		.uleb128 .LEHB194-.LFB1247
 7617 053b 1F       		.uleb128 .LEHE194-.LEHB194
 7618 053c 9B02     		.uleb128 .L405-.LFB1247
 7619 053e 00       		.uleb128 0
 7620 053f 9805     		.uleb128 .LEHB195-.LFB1247
 7621 0541 05       		.uleb128 .LEHE195-.LEHB195
 7622 0542 00       		.uleb128 0
 7623 0543 00       		.uleb128 0
 7624              	.LLSDACSE1247:
 7625 0544 03       		.byte	0x3
 7626 0545 00       		.byte	0
 7627 0546 02       		.byte	0x2
 7628 0547 7D       		.byte	0x7d
 7629 0548 01       		.byte	0x1
 7630 0549 7D       		.byte	0x7d
 7631 054a 00       		.byte	0
 7632 054b 7D       		.byte	0x7d
 7633              		.align 4
 7634 054c 00000000 		.long	0
 7635              	
 7636 0550 00000000 		.long	_ZTISt9exception
 7637 0554 00000000 		.long	_ZTIN8UnitTest15AssertExceptionE
 7638              	.LLSDATT1247:
 7639              		.text
 7642              	_ZN8UnitTest11ExecuteTestIN12_GLOBAL__N_115SuiteTestSuite265DummyFixtureSimilarlyNamedFixtureTestsI
 7643              	.LFB1248:
  16:../ExecuteTest.h **** {
 7644              		.loc 8 16 0
 7645              		.cfi_startproc
 7646              		.cfi_personality 0x3,__gxx_personality_v0
 7647              		.cfi_lsda 0x3,.LLSDA1248
 7648 346f 55       		pushq	%rbp
 7649              		.cfi_def_cfa_offset 16
 7650              		.cfi_offset 6, -16
 7651 3470 4889E5   		movq	%rsp, %rbp
 7652              		.cfi_def_cfa_register 6
 7653 3473 4154     		pushq	%r12
 7654 3475 53       		pushq	%rbx
 7655 3476 4881EC20 		subq	$1568, %rsp
 7655      060000
 7656              		.cfi_offset 12, -24
 7657              		.cfi_offset 3, -32
 7658 347d 4889BDD8 		movq	%rdi, -1576(%rbp)
 7658      F9FFFF
 7659 3484 4889B5D0 		movq	%rsi, -1584(%rbp)
 7659      F9FFFF
  16:../ExecuteTest.h **** {
 7660              		.loc 8 16 0
 7661 348b 64488B04 		movq	%fs:40, %rax
 7661      25280000 
 7661      00
 7662 3494 488945E8 		movq	%rax, -24(%rbp)
 7663 3498 31C0     		xorl	%eax, %eax
 7664              	.LEHB196:
 7665              	.LBB163:
  18:../ExecuteTest.h **** 
 7666              		.loc 8 18 0
 7667 349a E8000000 		call	_ZN8UnitTest11CurrentTest7DetailsEv
 7667      00
 7668              	.LEHE196:
 7669 349f 4889C2   		movq	%rax, %rdx
 7670 34a2 488B85D0 		movq	-1584(%rbp), %rax
 7670      F9FFFF
 7671 34a9 488902   		movq	%rax, (%rdx)
 7672              	.LBB164:
  23:../ExecuteTest.h **** #endif
 7673              		.loc 8 23 0
 7674 34ac 488D8580 		leaq	-1152(%rbp), %rax
 7674      FBFFFF
 7675 34b3 4889C7   		movq	%rax, %rdi
 7676              	.LEHB197:
 7677 34b6 E8000000 		call	_ZN8UnitTest16SignalTranslatorC1Ev
 7677      00
 7678              	.LEHE197:
  23:../ExecuteTest.h **** #endif
 7679              		.loc 8 23 0 is_stmt 0 discriminator 1
 7680 34bb 488B0500 		movq	_ZN8UnitTest16SignalTranslator12s_jumpTargetE(%rip), %rax
 7680      000000
 7681 34c2 BE010000 		movl	$1, %esi
 7681      00
 7682 34c7 4889C7   		movq	%rax, %rdi
 7683 34ca E8000000 		call	__sigsetjmp
 7683      00
 7684 34cf 85C0     		testl	%eax, %eax
 7685 34d1 0F95C0   		setne	%al
 7686 34d4 84C0     		testb	%al, %al
 7687 34d6 7423     		je	.L429
  23:../ExecuteTest.h **** #endif
 7688              		.loc 8 23 0 discriminator 3
 7689 34d8 BF080000 		movl	$8, %edi
 7689      00
 7690 34dd E8000000 		call	__cxa_allocate_exception
 7690      00
 7691 34e2 48C70000 		movq	$.LC75, (%rax)
 7691      000000
 7692 34e9 BA000000 		movl	$0, %edx
 7692      00
 7693 34ee BE000000 		movl	$_ZTIPKc, %esi
 7693      00
 7694 34f3 4889C7   		movq	%rax, %rdi
 7695              	.LEHB198:
 7696 34f6 E8000000 		call	__cxa_throw
 7696      00
 7697              	.LEHE198:
 7698              	.L429:
  25:../ExecuteTest.h **** 	}
 7699              		.loc 8 25 0 is_stmt 1
 7700 34fb 488B85D8 		movq	-1576(%rbp), %rax
 7700      F9FFFF
 7701 3502 4889C7   		movq	%rax, %rdi
 7702 3505 E874DBFF 		call	_ZN12_GLOBAL__N_115SuiteTestSuite265DummyFixtureSimilarlyNamedFixtureTestsInDifferentSuitesWo
 7702      FF
 7703 350a 488D8580 		leaq	-1152(%rbp), %rax
 7703      FBFFFF
 7704 3511 4889C7   		movq	%rax, %rdi
 7705              	.LEHB199:
 7706 3514 E8000000 		call	_ZN8UnitTest16SignalTranslatorD1Ev
 7706      00
 7707              	.LEHE199:
 7708              	.LBE164:
 7709              	.LBE163:
 7710              		.loc 8 42 0
 7711 3519 E9EE0100 		jmp	.L431
 7711      00
 7712              	.L424:
 7713 351e 4989C4   		movq	%rax, %r12
 7714 3521 4889D3   		movq	%rdx, %rbx
 7715              	.LBB172:
 7716              	.LBB165:
  25:../ExecuteTest.h **** 	}
 7717              		.loc 8 25 0
 7718 3524 488D8580 		leaq	-1152(%rbp), %rax
 7718      FBFFFF
 7719 352b 4889C7   		movq	%rax, %rdi
 7720 352e E8000000 		call	_ZN8UnitTest16SignalTranslatorD1Ev
 7720      00
 7721 3533 4C89E0   		movq	%r12, %rax
 7722 3536 4889DA   		movq	%rbx, %rdx
 7723 3539 EB00     		jmp	.L413
 7724              	.L423:
 7725              	.L413:
 7726 353b 4883FA01 		cmpq	$1, %rdx
 7727 353f 745C     		je	.L415
 7728 3541 4883FA02 		cmpq	$2, %rdx
 7729 3545 0F84F300 		je	.L416
 7729      0000
 7730 354b E9900100 		jmp	.L430
 7730      00
 7731              	.L425:
 7732 3550 4889C3   		movq	%rax, %rbx
 7733              	.LBE165:
 7734              	.LBB166:
  27:../ExecuteTest.h **** 	{
 7735              		.loc 8 27 0
 7736 3553 E8000000 		call	__cxa_end_catch
 7736      00
 7737 3558 4889D8   		movq	%rbx, %rax
 7738 355b 4889C7   		movq	%rax, %rdi
 7739              	.LEHB200:
 7740 355e E8000000 		call	_Unwind_Resume
 7740      00
 7741              	.LEHE200:
 7742              	.L426:
 7743 3563 4889C3   		movq	%rax, %rbx
 7744              	.LBE166:
 7745              	.LBB167:
 7746              	.LBB168:
  36:../ExecuteTest.h **** 	}
 7747              		.loc 8 36 0
 7748 3566 488D8510 		leaq	-1520(%rbp), %rax
 7748      FAFFFF
 7749 356d 4889C7   		movq	%rax, %rdi
 7750 3570 E8000000 		call	_ZN8UnitTest15MemoryOutStreamD1Ev
 7750      00
 7751 3575 EB03     		jmp	.L419
 7752              	.L427:
 7753 3577 4889C3   		movq	%rax, %rbx
 7754              	.L419:
 7755              	.LBE168:
  32:../ExecuteTest.h **** 	{
 7756              		.loc 8 32 0
 7757 357a E8000000 		call	__cxa_end_catch
 7757      00
 7758 357f 4889D8   		movq	%rbx, %rax
 7759 3582 4889C7   		movq	%rax, %rdi
 7760              	.LEHB201:
 7761 3585 E8000000 		call	_Unwind_Resume
 7761      00
 7762              	.LEHE201:
 7763              	.L428:
 7764 358a 4889C3   		movq	%rax, %rbx
 7765              	.LBE167:
  38:../ExecuteTest.h **** 	{
 7766              		.loc 8 38 0
 7767 358d E8000000 		call	__cxa_end_catch
 7767      00
 7768 3592 4889D8   		movq	%rbx, %rax
 7769 3595 4889C7   		movq	%rax, %rdi
 7770              	.LEHB202:
 7771 3598 E8000000 		call	_Unwind_Resume
 7771      00
 7772              	.LEHE202:
 7773              	.L415:
 7774              	.LBB170:
  27:../ExecuteTest.h **** 	{
 7775              		.loc 8 27 0
 7776 359d 4889C7   		movq	%rax, %rdi
 7777 35a0 E8000000 		call	__cxa_begin_catch
 7777      00
 7778 35a5 488985E0 		movq	%rax, -1568(%rbp)
 7778      F9FFFF
  30:../ExecuteTest.h **** 	}
 7779              		.loc 8 30 0
 7780 35ac 488B85E0 		movq	-1568(%rbp), %rax
 7780      F9FFFF
 7781 35b3 488B00   		movq	(%rax), %rax
 7782 35b6 4883C010 		addq	$16, %rax
 7783 35ba 488B00   		movq	(%rax), %rax
 7784 35bd 488B95E0 		movq	-1568(%rbp), %rdx
 7784      F9FFFF
 7785 35c4 4889D7   		movq	%rdx, %rdi
 7786 35c7 FFD0     		call	*%rax
 7787 35c9 4889C3   		movq	%rax, %rbx
 7788 35cc 488B85E0 		movq	-1568(%rbp), %rax
 7788      F9FFFF
 7789 35d3 4889C7   		movq	%rax, %rdi
 7790              	.LEHB203:
 7791 35d6 E8000000 		call	_ZNK8UnitTest15AssertException10LineNumberEv
 7791      00
  30:../ExecuteTest.h **** 	}
 7792              		.loc 8 30 0 is_stmt 0 discriminator 1
 7793 35db 4189C4   		movl	%eax, %r12d
 7794 35de 488B85E0 		movq	-1568(%rbp), %rax
 7794      F9FFFF
 7795 35e5 4889C7   		movq	%rax, %rdi
 7796 35e8 E8000000 		call	_ZNK8UnitTest15AssertException8FilenameEv
 7796      00
  30:../ExecuteTest.h **** 	}
 7797              		.loc 8 30 0 discriminator 2
 7798 35ed 4889C1   		movq	%rax, %rcx
 7799 35f0 488B85D0 		movq	-1584(%rbp), %rax
 7799      F9FFFF
 7800 35f7 488B10   		movq	(%rax), %rdx
 7801 35fa 488B85D0 		movq	-1584(%rbp), %rax
 7801      F9FFFF
 7802 3601 488B7008 		movq	8(%rax), %rsi
 7803 3605 488D85F0 		leaq	-1552(%rbp), %rax
 7803      F9FFFF
 7804 360c 4589E0   		movl	%r12d, %r8d
 7805 360f 4889C7   		movq	%rax, %rdi
 7806 3612 E8000000 		call	_ZN8UnitTest11TestDetailsC1EPKcS2_S2_i
 7806      00
  29:../ExecuteTest.h **** 			TestDetails(details.testName, details.suiteName, e.Filename(), e.LineNumber()), e.what());
 7807              		.loc 8 29 0 is_stmt 1
 7808 3617 E8000000 		call	_ZN8UnitTest11CurrentTest7ResultsEv
 7808      00
  30:../ExecuteTest.h **** 	}
 7809              		.loc 8 30 0
 7810 361c 488B00   		movq	(%rax), %rax
  29:../ExecuteTest.h **** 			TestDetails(details.testName, details.suiteName, e.Filename(), e.LineNumber()), e.what());
 7811              		.loc 8 29 0
 7812 361f 488D8DF0 		leaq	-1552(%rbp), %rcx
 7812      F9FFFF
 7813 3626 4889DA   		movq	%rbx, %rdx
 7814 3629 4889CE   		movq	%rcx, %rsi
 7815 362c 4889C7   		movq	%rax, %rdi
 7816 362f E8000000 		call	_ZN8UnitTest11TestResults13OnTestFailureERKNS_11TestDetailsEPKc
 7816      00
 7817              	.LEHE203:
  27:../ExecuteTest.h **** 	{
 7818              		.loc 8 27 0
 7819 3634 E8000000 		call	__cxa_end_catch
 7819      00
 7820              	.LBE170:
 7821              	.LBE172:
 7822              		.loc 8 42 0
 7823 3639 E9CE0000 		jmp	.L431
 7823      00
 7824              	.L416:
 7825              	.LBB173:
 7826              	.LBB171:
  32:../ExecuteTest.h **** 	{
 7827              		.loc 8 32 0
 7828 363e 4889C7   		movq	%rax, %rdi
 7829 3641 E8000000 		call	__cxa_begin_catch
 7829      00
 7830 3646 488985E8 		movq	%rax, -1560(%rbp)
 7830      F9FFFF
 7831              	.LBB169:
  34:../ExecuteTest.h **** 		stream << "Unhandled exception: " << e.what();
 7832              		.loc 8 34 0
 7833 364d 488D8510 		leaq	-1520(%rbp), %rax
 7833      FAFFFF
 7834 3654 4889C7   		movq	%rax, %rdi
 7835              	.LEHB204:
 7836 3657 E8000000 		call	_ZN8UnitTest15MemoryOutStreamC1Ev
 7836      00
 7837              	.LEHE204:
  35:../ExecuteTest.h **** 		CurrentTest::Results()->OnTestFailure(details, stream.GetText());
 7838              		.loc 8 35 0
 7839 365c 488B85E8 		movq	-1560(%rbp), %rax
 7839      F9FFFF
 7840 3663 488B00   		movq	(%rax), %rax
 7841 3666 4883C010 		addq	$16, %rax
 7842 366a 488B00   		movq	(%rax), %rax
 7843 366d 488B95E8 		movq	-1560(%rbp), %rdx
 7843      F9FFFF
 7844 3674 4889D7   		movq	%rdx, %rdi
 7845 3677 FFD0     		call	*%rax
 7846 3679 4889C3   		movq	%rax, %rbx
 7847 367c 488D8510 		leaq	-1520(%rbp), %rax
 7847      FAFFFF
 7848 3683 BE000000 		movl	$.LC11, %esi
 7848      00
 7849 3688 4889C7   		movq	%rax, %rdi
 7850              	.LEHB205:
 7851 368b E8000000 		call	_ZStlsISt11char_traitsIcEERSt13basic_ostreamIcT_ES5_PKc
 7851      00
  35:../ExecuteTest.h **** 		CurrentTest::Results()->OnTestFailure(details, stream.GetText());
 7852              		.loc 8 35 0 is_stmt 0 discriminator 1
 7853 3690 4889DE   		movq	%rbx, %rsi
 7854 3693 4889C7   		movq	%rax, %rdi
 7855 3696 E8000000 		call	_ZStlsISt11char_traitsIcEERSt13basic_ostreamIcT_ES5_PKc
 7855      00
  36:../ExecuteTest.h **** 	}
 7856              		.loc 8 36 0 is_stmt 1
 7857 369b 488D8510 		leaq	-1520(%rbp), %rax
 7857      FAFFFF
 7858 36a2 4889C7   		movq	%rax, %rdi
 7859 36a5 E8000000 		call	_ZNK8UnitTest15MemoryOutStream7GetTextEv
 7859      00
 7860 36aa 4889C3   		movq	%rax, %rbx
 7861 36ad E8000000 		call	_ZN8UnitTest11CurrentTest7ResultsEv
 7861      00
  36:../ExecuteTest.h **** 	}
 7862              		.loc 8 36 0 is_stmt 0 discriminator 2
 7863 36b2 488B00   		movq	(%rax), %rax
 7864 36b5 488B8DD0 		movq	-1584(%rbp), %rcx
 7864      F9FFFF
 7865 36bc 4889DA   		movq	%rbx, %rdx
 7866 36bf 4889CE   		movq	%rcx, %rsi
 7867 36c2 4889C7   		movq	%rax, %rdi
 7868 36c5 E8000000 		call	_ZN8UnitTest11TestResults13OnTestFailureERKNS_11TestDetailsEPKc
 7868      00
 7869              	.LEHE205:
  36:../ExecuteTest.h **** 	}
 7870              		.loc 8 36 0 discriminator 6
 7871 36ca 488D8510 		leaq	-1520(%rbp), %rax
 7871      FAFFFF
 7872 36d1 4889C7   		movq	%rax, %rdi
 7873              	.LEHB206:
 7874 36d4 E8000000 		call	_ZN8UnitTest15MemoryOutStreamD1Ev
 7874      00
 7875              	.LEHE206:
 7876              	.LBE169:
  32:../ExecuteTest.h **** 	{
 7877              		.loc 8 32 0 is_stmt 1
 7878 36d9 E8000000 		call	__cxa_end_catch
 7878      00
 7879              	.LBE171:
 7880              	.LBE173:
 7881              		.loc 8 42 0
 7882 36de EB2C     		jmp	.L431
 7883              	.L430:
 7884              	.LBB174:
  38:../ExecuteTest.h **** 	{
 7885              		.loc 8 38 0
 7886 36e0 4889C7   		movq	%rax, %rdi
 7887 36e3 E8000000 		call	__cxa_begin_catch
 7887      00
 7888              	.LEHB207:
  40:../ExecuteTest.h **** 	}
 7889              		.loc 8 40 0
 7890 36e8 E8000000 		call	_ZN8UnitTest11CurrentTest7ResultsEv
 7890      00
 7891 36ed 488B00   		movq	(%rax), %rax
 7892 36f0 488B8DD0 		movq	-1584(%rbp), %rcx
 7892      F9FFFF
 7893 36f7 BA000000 		movl	$.LC76, %edx
 7893      00
 7894 36fc 4889CE   		movq	%rcx, %rsi
 7895 36ff 4889C7   		movq	%rax, %rdi
 7896 3702 E8000000 		call	_ZN8UnitTest11TestResults13OnTestFailureERKNS_11TestDetailsEPKc
 7896      00
 7897              	.LEHE207:
 7898              	.LEHB208:
  38:../ExecuteTest.h **** 	{
 7899              		.loc 8 38 0
 7900 3707 E8000000 		call	__cxa_end_catch
 7900      00
 7901              	.LEHE208:
 7902              	.L431:
 7903              	.LBE174:
 7904              		.loc 8 42 0
 7905 370c 90       		nop
 7906 370d 488B45E8 		movq	-24(%rbp), %rax
 7907 3711 64483304 		xorq	%fs:40, %rax
 7907      25280000 
 7907      00
 7908 371a 7405     		je	.L422
 7909 371c E8000000 		call	__stack_chk_fail
 7909      00
 7910              	.L422:
 7911 3721 4881C420 		addq	$1568, %rsp
 7911      060000
 7912 3728 5B       		popq	%rbx
 7913 3729 415C     		popq	%r12
 7914 372b 5D       		popq	%rbp
 7915              		.cfi_def_cfa 7, 8
 7916 372c C3       		ret
 7917              		.cfi_endproc
 7918              	.LFE1248:
 7919              		.section	.gcc_except_table
 7920              		.align 4
 7921              	.LLSDA1248:
 7922 0558 FF       		.byte	0xff
 7923 0559 03       		.byte	0x3
 7924 055a 5D       		.uleb128 .LLSDATT1248-.LLSDATTD1248
 7925              	.LLSDATTD1248:
 7926 055b 01       		.byte	0x1
 7927 055c 47       		.uleb128 .LLSDACSE1248-.LLSDACSB1248
 7928              	.LLSDACSB1248:
 7929 055d 2B       		.uleb128 .LEHB196-.LFB1248
 7930 055e 05       		.uleb128 .LEHE196-.LEHB196
 7931 055f 00       		.uleb128 0
 7932 0560 00       		.uleb128 0
 7933 0561 47       		.uleb128 .LEHB197-.LFB1248
 7934 0562 05       		.uleb128 .LEHE197-.LEHB197
 7935 0563 CC01     		.uleb128 .L423-.LFB1248
 7936 0565 05       		.uleb128 0x5
 7937 0566 8701     		.uleb128 .LEHB198-.LFB1248
 7938 0568 05       		.uleb128 .LEHE198-.LEHB198
 7939 0569 AF01     		.uleb128 .L424-.LFB1248
 7940 056b 07       		.uleb128 0x7
 7941 056c A501     		.uleb128 .LEHB199-.LFB1248
 7942 056e 05       		.uleb128 .LEHE199-.LEHB199
 7943 056f CC01     		.uleb128 .L423-.LFB1248
 7944 0571 05       		.uleb128 0x5
 7945 0572 EF01     		.uleb128 .LEHB200-.LFB1248
 7946 0574 05       		.uleb128 .LEHE200-.LEHB200
 7947 0575 00       		.uleb128 0
 7948 0576 00       		.uleb128 0
 7949 0577 9602     		.uleb128 .LEHB201-.LFB1248
 7950 0579 05       		.uleb128 .LEHE201-.LEHB201
 7951 057a 00       		.uleb128 0
 7952 057b 00       		.uleb128 0
 7953 057c A902     		.uleb128 .LEHB202-.LFB1248
 7954 057e 05       		.uleb128 .LEHE202-.LEHB202
 7955 057f 00       		.uleb128 0
 7956 0580 00       		.uleb128 0
 7957 0581 E702     		.uleb128 .LEHB203-.LFB1248
 7958 0583 5E       		.uleb128 .LEHE203-.LEHB203
 7959 0584 E101     		.uleb128 .L425-.LFB1248
 7960 0586 00       		.uleb128 0
 7961 0587 E803     		.uleb128 .LEHB204-.LFB1248
 7962 0589 05       		.uleb128 .LEHE204-.LEHB204
 7963 058a 8802     		.uleb128 .L427-.LFB1248
 7964 058c 00       		.uleb128 0
 7965 058d 9C04     		.uleb128 .LEHB205-.LFB1248
 7966 058f 3F       		.uleb128 .LEHE205-.LEHB205
 7967 0590 F401     		.uleb128 .L426-.LFB1248
 7968 0592 00       		.uleb128 0
 7969 0593 E504     		.uleb128 .LEHB206-.LFB1248
 7970 0595 05       		.uleb128 .LEHE206-.LEHB206
 7971 0596 8802     		.uleb128 .L427-.LFB1248
 7972 0598 00       		.uleb128 0
 7973 0599 F904     		.uleb128 .LEHB207-.LFB1248
 7974 059b 1F       		.uleb128 .LEHE207-.LEHB207
 7975 059c 9B02     		.uleb128 .L428-.LFB1248
 7976 059e 00       		.uleb128 0
 7977 059f 9805     		.uleb128 .LEHB208-.LFB1248
 7978 05a1 05       		.uleb128 .LEHE208-.LEHB208
 7979 05a2 00       		.uleb128 0
 7980 05a3 00       		.uleb128 0
 7981              	.LLSDACSE1248:
 7982 05a4 03       		.byte	0x3
 7983 05a5 00       		.byte	0
 7984 05a6 02       		.byte	0x2
 7985 05a7 7D       		.byte	0x7d
 7986 05a8 01       		.byte	0x1
 7987 05a9 7D       		.byte	0x7d
 7988 05aa 00       		.byte	0
 7989 05ab 7D       		.byte	0x7d
 7990              		.align 4
 7991 05ac 00000000 		.long	0
 7992              	
 7993 05b0 00000000 		.long	_ZTISt9exception
 7994 05b4 00000000 		.long	_ZTIN8UnitTest15AssertExceptionE
 7995              	.LLSDATT1248:
 7996              		.text
 7999              	_ZN8UnitTest11ExecuteTestIN12_GLOBAL__N_134DummyFixtureMacroTestHelper2HelperEEEvRT_RKNS_11TestDeta
 8000              	.LFB1249:
  16:../ExecuteTest.h **** {
 8001              		.loc 8 16 0
 8002              		.cfi_startproc
 8003              		.cfi_personality 0x3,__gxx_personality_v0
 8004              		.cfi_lsda 0x3,.LLSDA1249
 8005 372d 55       		pushq	%rbp
 8006              		.cfi_def_cfa_offset 16
 8007              		.cfi_offset 6, -16
 8008 372e 4889E5   		movq	%rsp, %rbp
 8009              		.cfi_def_cfa_register 6
 8010 3731 4154     		pushq	%r12
 8011 3733 53       		pushq	%rbx
 8012 3734 4881EC20 		subq	$1568, %rsp
 8012      060000
 8013              		.cfi_offset 12, -24
 8014              		.cfi_offset 3, -32
 8015 373b 4889BDD8 		movq	%rdi, -1576(%rbp)
 8015      F9FFFF
 8016 3742 4889B5D0 		movq	%rsi, -1584(%rbp)
 8016      F9FFFF
  16:../ExecuteTest.h **** {
 8017              		.loc 8 16 0
 8018 3749 64488B04 		movq	%fs:40, %rax
 8018      25280000 
 8018      00
 8019 3752 488945E8 		movq	%rax, -24(%rbp)
 8020 3756 31C0     		xorl	%eax, %eax
 8021              	.LEHB209:
 8022              	.LBB175:
  18:../ExecuteTest.h **** 
 8023              		.loc 8 18 0
 8024 3758 E8000000 		call	_ZN8UnitTest11CurrentTest7DetailsEv
 8024      00
 8025              	.LEHE209:
 8026 375d 4889C2   		movq	%rax, %rdx
 8027 3760 488B85D0 		movq	-1584(%rbp), %rax
 8027      F9FFFF
 8028 3767 488902   		movq	%rax, (%rdx)
 8029              	.LBB176:
  23:../ExecuteTest.h **** #endif
 8030              		.loc 8 23 0
 8031 376a 488D8580 		leaq	-1152(%rbp), %rax
 8031      FBFFFF
 8032 3771 4889C7   		movq	%rax, %rdi
 8033              	.LEHB210:
 8034 3774 E8000000 		call	_ZN8UnitTest16SignalTranslatorC1Ev
 8034      00
 8035              	.LEHE210:
  23:../ExecuteTest.h **** #endif
 8036              		.loc 8 23 0 is_stmt 0 discriminator 1
 8037 3779 488B0500 		movq	_ZN8UnitTest16SignalTranslator12s_jumpTargetE(%rip), %rax
 8037      000000
 8038 3780 BE010000 		movl	$1, %esi
 8038      00
 8039 3785 4889C7   		movq	%rax, %rdi
 8040 3788 E8000000 		call	__sigsetjmp
 8040      00
 8041 378d 85C0     		testl	%eax, %eax
 8042 378f 0F95C0   		setne	%al
 8043 3792 84C0     		testb	%al, %al
 8044 3794 7423     		je	.L452
  23:../ExecuteTest.h **** #endif
 8045              		.loc 8 23 0 discriminator 3
 8046 3796 BF080000 		movl	$8, %edi
 8046      00
 8047 379b E8000000 		call	__cxa_allocate_exception
 8047      00
 8048 37a0 48C70000 		movq	$.LC75, (%rax)
 8048      000000
 8049 37a7 BA000000 		movl	$0, %edx
 8049      00
 8050 37ac BE000000 		movl	$_ZTIPKc, %esi
 8050      00
 8051 37b1 4889C7   		movq	%rax, %rdi
 8052              	.LEHB211:
 8053 37b4 E8000000 		call	__cxa_throw
 8053      00
 8054              	.LEHE211:
 8055              	.L452:
  25:../ExecuteTest.h **** 	}
 8056              		.loc 8 25 0 is_stmt 1
 8057 37b9 488B85D8 		movq	-1576(%rbp), %rax
 8057      F9FFFF
 8058 37c0 4889C7   		movq	%rax, %rdi
 8059 37c3 E8C2DEFF 		call	_ZN12_GLOBAL__N_134DummyFixtureMacroTestHelper2Helper7RunImplEv
 8059      FF
 8060 37c8 488D8580 		leaq	-1152(%rbp), %rax
 8060      FBFFFF
 8061 37cf 4889C7   		movq	%rax, %rdi
 8062              	.LEHB212:
 8063 37d2 E8000000 		call	_ZN8UnitTest16SignalTranslatorD1Ev
 8063      00
 8064              	.LEHE212:
 8065              	.LBE176:
 8066              	.LBE175:
 8067              		.loc 8 42 0
 8068 37d7 E9EE0100 		jmp	.L454
 8068      00
 8069              	.L447:
 8070 37dc 4989C4   		movq	%rax, %r12
 8071 37df 4889D3   		movq	%rdx, %rbx
 8072              	.LBB184:
 8073              	.LBB177:
  25:../ExecuteTest.h **** 	}
 8074              		.loc 8 25 0
 8075 37e2 488D8580 		leaq	-1152(%rbp), %rax
 8075      FBFFFF
 8076 37e9 4889C7   		movq	%rax, %rdi
 8077 37ec E8000000 		call	_ZN8UnitTest16SignalTranslatorD1Ev
 8077      00
 8078 37f1 4C89E0   		movq	%r12, %rax
 8079 37f4 4889DA   		movq	%rbx, %rdx
 8080 37f7 EB00     		jmp	.L436
 8081              	.L446:
 8082              	.L436:
 8083 37f9 4883FA01 		cmpq	$1, %rdx
 8084 37fd 745C     		je	.L438
 8085 37ff 4883FA02 		cmpq	$2, %rdx
 8086 3803 0F84F300 		je	.L439
 8086      0000
 8087 3809 E9900100 		jmp	.L453
 8087      00
 8088              	.L448:
 8089 380e 4889C3   		movq	%rax, %rbx
 8090              	.LBE177:
 8091              	.LBB178:
  27:../ExecuteTest.h **** 	{
 8092              		.loc 8 27 0
 8093 3811 E8000000 		call	__cxa_end_catch
 8093      00
 8094 3816 4889D8   		movq	%rbx, %rax
 8095 3819 4889C7   		movq	%rax, %rdi
 8096              	.LEHB213:
 8097 381c E8000000 		call	_Unwind_Resume
 8097      00
 8098              	.LEHE213:
 8099              	.L449:
 8100 3821 4889C3   		movq	%rax, %rbx
 8101              	.LBE178:
 8102              	.LBB179:
 8103              	.LBB180:
  36:../ExecuteTest.h **** 	}
 8104              		.loc 8 36 0
 8105 3824 488D8510 		leaq	-1520(%rbp), %rax
 8105      FAFFFF
 8106 382b 4889C7   		movq	%rax, %rdi
 8107 382e E8000000 		call	_ZN8UnitTest15MemoryOutStreamD1Ev
 8107      00
 8108 3833 EB03     		jmp	.L442
 8109              	.L450:
 8110 3835 4889C3   		movq	%rax, %rbx
 8111              	.L442:
 8112              	.LBE180:
  32:../ExecuteTest.h **** 	{
 8113              		.loc 8 32 0
 8114 3838 E8000000 		call	__cxa_end_catch
 8114      00
 8115 383d 4889D8   		movq	%rbx, %rax
 8116 3840 4889C7   		movq	%rax, %rdi
 8117              	.LEHB214:
 8118 3843 E8000000 		call	_Unwind_Resume
 8118      00
 8119              	.LEHE214:
 8120              	.L451:
 8121 3848 4889C3   		movq	%rax, %rbx
 8122              	.LBE179:
  38:../ExecuteTest.h **** 	{
 8123              		.loc 8 38 0
 8124 384b E8000000 		call	__cxa_end_catch
 8124      00
 8125 3850 4889D8   		movq	%rbx, %rax
 8126 3853 4889C7   		movq	%rax, %rdi
 8127              	.LEHB215:
 8128 3856 E8000000 		call	_Unwind_Resume
 8128      00
 8129              	.LEHE215:
 8130              	.L438:
 8131              	.LBB182:
  27:../ExecuteTest.h **** 	{
 8132              		.loc 8 27 0
 8133 385b 4889C7   		movq	%rax, %rdi
 8134 385e E8000000 		call	__cxa_begin_catch
 8134      00
 8135 3863 488985E0 		movq	%rax, -1568(%rbp)
 8135      F9FFFF
  30:../ExecuteTest.h **** 	}
 8136              		.loc 8 30 0
 8137 386a 488B85E0 		movq	-1568(%rbp), %rax
 8137      F9FFFF
 8138 3871 488B00   		movq	(%rax), %rax
 8139 3874 4883C010 		addq	$16, %rax
 8140 3878 488B00   		movq	(%rax), %rax
 8141 387b 488B95E0 		movq	-1568(%rbp), %rdx
 8141      F9FFFF
 8142 3882 4889D7   		movq	%rdx, %rdi
 8143 3885 FFD0     		call	*%rax
 8144 3887 4889C3   		movq	%rax, %rbx
 8145 388a 488B85E0 		movq	-1568(%rbp), %rax
 8145      F9FFFF
 8146 3891 4889C7   		movq	%rax, %rdi
 8147              	.LEHB216:
 8148 3894 E8000000 		call	_ZNK8UnitTest15AssertException10LineNumberEv
 8148      00
  30:../ExecuteTest.h **** 	}
 8149              		.loc 8 30 0 is_stmt 0 discriminator 1
 8150 3899 4189C4   		movl	%eax, %r12d
 8151 389c 488B85E0 		movq	-1568(%rbp), %rax
 8151      F9FFFF
 8152 38a3 4889C7   		movq	%rax, %rdi
 8153 38a6 E8000000 		call	_ZNK8UnitTest15AssertException8FilenameEv
 8153      00
  30:../ExecuteTest.h **** 	}
 8154              		.loc 8 30 0 discriminator 2
 8155 38ab 4889C1   		movq	%rax, %rcx
 8156 38ae 488B85D0 		movq	-1584(%rbp), %rax
 8156      F9FFFF
 8157 38b5 488B10   		movq	(%rax), %rdx
 8158 38b8 488B85D0 		movq	-1584(%rbp), %rax
 8158      F9FFFF
 8159 38bf 488B7008 		movq	8(%rax), %rsi
 8160 38c3 488D85F0 		leaq	-1552(%rbp), %rax
 8160      F9FFFF
 8161 38ca 4589E0   		movl	%r12d, %r8d
 8162 38cd 4889C7   		movq	%rax, %rdi
 8163 38d0 E8000000 		call	_ZN8UnitTest11TestDetailsC1EPKcS2_S2_i
 8163      00
  29:../ExecuteTest.h **** 			TestDetails(details.testName, details.suiteName, e.Filename(), e.LineNumber()), e.what());
 8164              		.loc 8 29 0 is_stmt 1
 8165 38d5 E8000000 		call	_ZN8UnitTest11CurrentTest7ResultsEv
 8165      00
  30:../ExecuteTest.h **** 	}
 8166              		.loc 8 30 0
 8167 38da 488B00   		movq	(%rax), %rax
  29:../ExecuteTest.h **** 			TestDetails(details.testName, details.suiteName, e.Filename(), e.LineNumber()), e.what());
 8168              		.loc 8 29 0
 8169 38dd 488D8DF0 		leaq	-1552(%rbp), %rcx
 8169      F9FFFF
 8170 38e4 4889DA   		movq	%rbx, %rdx
 8171 38e7 4889CE   		movq	%rcx, %rsi
 8172 38ea 4889C7   		movq	%rax, %rdi
 8173 38ed E8000000 		call	_ZN8UnitTest11TestResults13OnTestFailureERKNS_11TestDetailsEPKc
 8173      00
 8174              	.LEHE216:
  27:../ExecuteTest.h **** 	{
 8175              		.loc 8 27 0
 8176 38f2 E8000000 		call	__cxa_end_catch
 8176      00
 8177              	.LBE182:
 8178              	.LBE184:
 8179              		.loc 8 42 0
 8180 38f7 E9CE0000 		jmp	.L454
 8180      00
 8181              	.L439:
 8182              	.LBB185:
 8183              	.LBB183:
  32:../ExecuteTest.h **** 	{
 8184              		.loc 8 32 0
 8185 38fc 4889C7   		movq	%rax, %rdi
 8186 38ff E8000000 		call	__cxa_begin_catch
 8186      00
 8187 3904 488985E8 		movq	%rax, -1560(%rbp)
 8187      F9FFFF
 8188              	.LBB181:
  34:../ExecuteTest.h **** 		stream << "Unhandled exception: " << e.what();
 8189              		.loc 8 34 0
 8190 390b 488D8510 		leaq	-1520(%rbp), %rax
 8190      FAFFFF
 8191 3912 4889C7   		movq	%rax, %rdi
 8192              	.LEHB217:
 8193 3915 E8000000 		call	_ZN8UnitTest15MemoryOutStreamC1Ev
 8193      00
 8194              	.LEHE217:
  35:../ExecuteTest.h **** 		CurrentTest::Results()->OnTestFailure(details, stream.GetText());
 8195              		.loc 8 35 0
 8196 391a 488B85E8 		movq	-1560(%rbp), %rax
 8196      F9FFFF
 8197 3921 488B00   		movq	(%rax), %rax
 8198 3924 4883C010 		addq	$16, %rax
 8199 3928 488B00   		movq	(%rax), %rax
 8200 392b 488B95E8 		movq	-1560(%rbp), %rdx
 8200      F9FFFF
 8201 3932 4889D7   		movq	%rdx, %rdi
 8202 3935 FFD0     		call	*%rax
 8203 3937 4889C3   		movq	%rax, %rbx
 8204 393a 488D8510 		leaq	-1520(%rbp), %rax
 8204      FAFFFF
 8205 3941 BE000000 		movl	$.LC11, %esi
 8205      00
 8206 3946 4889C7   		movq	%rax, %rdi
 8207              	.LEHB218:
 8208 3949 E8000000 		call	_ZStlsISt11char_traitsIcEERSt13basic_ostreamIcT_ES5_PKc
 8208      00
  35:../ExecuteTest.h **** 		CurrentTest::Results()->OnTestFailure(details, stream.GetText());
 8209              		.loc 8 35 0 is_stmt 0 discriminator 1
 8210 394e 4889DE   		movq	%rbx, %rsi
 8211 3951 4889C7   		movq	%rax, %rdi
 8212 3954 E8000000 		call	_ZStlsISt11char_traitsIcEERSt13basic_ostreamIcT_ES5_PKc
 8212      00
  36:../ExecuteTest.h **** 	}
 8213              		.loc 8 36 0 is_stmt 1
 8214 3959 488D8510 		leaq	-1520(%rbp), %rax
 8214      FAFFFF
 8215 3960 4889C7   		movq	%rax, %rdi
 8216 3963 E8000000 		call	_ZNK8UnitTest15MemoryOutStream7GetTextEv
 8216      00
 8217 3968 4889C3   		movq	%rax, %rbx
 8218 396b E8000000 		call	_ZN8UnitTest11CurrentTest7ResultsEv
 8218      00
  36:../ExecuteTest.h **** 	}
 8219              		.loc 8 36 0 is_stmt 0 discriminator 2
 8220 3970 488B00   		movq	(%rax), %rax
 8221 3973 488B8DD0 		movq	-1584(%rbp), %rcx
 8221      F9FFFF
 8222 397a 4889DA   		movq	%rbx, %rdx
 8223 397d 4889CE   		movq	%rcx, %rsi
 8224 3980 4889C7   		movq	%rax, %rdi
 8225 3983 E8000000 		call	_ZN8UnitTest11TestResults13OnTestFailureERKNS_11TestDetailsEPKc
 8225      00
 8226              	.LEHE218:
  36:../ExecuteTest.h **** 	}
 8227              		.loc 8 36 0 discriminator 6
 8228 3988 488D8510 		leaq	-1520(%rbp), %rax
 8228      FAFFFF
 8229 398f 4889C7   		movq	%rax, %rdi
 8230              	.LEHB219:
 8231 3992 E8000000 		call	_ZN8UnitTest15MemoryOutStreamD1Ev
 8231      00
 8232              	.LEHE219:
 8233              	.LBE181:
  32:../ExecuteTest.h **** 	{
 8234              		.loc 8 32 0 is_stmt 1
 8235 3997 E8000000 		call	__cxa_end_catch
 8235      00
 8236              	.LBE183:
 8237              	.LBE185:
 8238              		.loc 8 42 0
 8239 399c EB2C     		jmp	.L454
 8240              	.L453:
 8241              	.LBB186:
  38:../ExecuteTest.h **** 	{
 8242              		.loc 8 38 0
 8243 399e 4889C7   		movq	%rax, %rdi
 8244 39a1 E8000000 		call	__cxa_begin_catch
 8244      00
 8245              	.LEHB220:
  40:../ExecuteTest.h **** 	}
 8246              		.loc 8 40 0
 8247 39a6 E8000000 		call	_ZN8UnitTest11CurrentTest7ResultsEv
 8247      00
 8248 39ab 488B00   		movq	(%rax), %rax
 8249 39ae 488B8DD0 		movq	-1584(%rbp), %rcx
 8249      F9FFFF
 8250 39b5 BA000000 		movl	$.LC76, %edx
 8250      00
 8251 39ba 4889CE   		movq	%rcx, %rsi
 8252 39bd 4889C7   		movq	%rax, %rdi
 8253 39c0 E8000000 		call	_ZN8UnitTest11TestResults13OnTestFailureERKNS_11TestDetailsEPKc
 8253      00
 8254              	.LEHE220:
 8255              	.LEHB221:
  38:../ExecuteTest.h **** 	{
 8256              		.loc 8 38 0
 8257 39c5 E8000000 		call	__cxa_end_catch
 8257      00
 8258              	.LEHE221:
 8259              	.L454:
 8260              	.LBE186:
 8261              		.loc 8 42 0
 8262 39ca 90       		nop
 8263 39cb 488B45E8 		movq	-24(%rbp), %rax
 8264 39cf 64483304 		xorq	%fs:40, %rax
 8264      25280000 
 8264      00
 8265 39d8 7405     		je	.L445
 8266 39da E8000000 		call	__stack_chk_fail
 8266      00
 8267              	.L445:
 8268 39df 4881C420 		addq	$1568, %rsp
 8268      060000
 8269 39e6 5B       		popq	%rbx
 8270 39e7 415C     		popq	%r12
 8271 39e9 5D       		popq	%rbp
 8272              		.cfi_def_cfa 7, 8
 8273 39ea C3       		ret
 8274              		.cfi_endproc
 8275              	.LFE1249:
 8276              		.section	.gcc_except_table
 8277              		.align 4
 8278              	.LLSDA1249:
 8279 05b8 FF       		.byte	0xff
 8280 05b9 03       		.byte	0x3
 8281 05ba 5D       		.uleb128 .LLSDATT1249-.LLSDATTD1249
 8282              	.LLSDATTD1249:
 8283 05bb 01       		.byte	0x1
 8284 05bc 47       		.uleb128 .LLSDACSE1249-.LLSDACSB1249
 8285              	.LLSDACSB1249:
 8286 05bd 2B       		.uleb128 .LEHB209-.LFB1249
 8287 05be 05       		.uleb128 .LEHE209-.LEHB209
 8288 05bf 00       		.uleb128 0
 8289 05c0 00       		.uleb128 0
 8290 05c1 47       		.uleb128 .LEHB210-.LFB1249
 8291 05c2 05       		.uleb128 .LEHE210-.LEHB210
 8292 05c3 CC01     		.uleb128 .L446-.LFB1249
 8293 05c5 05       		.uleb128 0x5
 8294 05c6 8701     		.uleb128 .LEHB211-.LFB1249
 8295 05c8 05       		.uleb128 .LEHE211-.LEHB211
 8296 05c9 AF01     		.uleb128 .L447-.LFB1249
 8297 05cb 07       		.uleb128 0x7
 8298 05cc A501     		.uleb128 .LEHB212-.LFB1249
 8299 05ce 05       		.uleb128 .LEHE212-.LEHB212
 8300 05cf CC01     		.uleb128 .L446-.LFB1249
 8301 05d1 05       		.uleb128 0x5
 8302 05d2 EF01     		.uleb128 .LEHB213-.LFB1249
 8303 05d4 05       		.uleb128 .LEHE213-.LEHB213
 8304 05d5 00       		.uleb128 0
 8305 05d6 00       		.uleb128 0
 8306 05d7 9602     		.uleb128 .LEHB214-.LFB1249
 8307 05d9 05       		.uleb128 .LEHE214-.LEHB214
 8308 05da 00       		.uleb128 0
 8309 05db 00       		.uleb128 0
 8310 05dc A902     		.uleb128 .LEHB215-.LFB1249
 8311 05de 05       		.uleb128 .LEHE215-.LEHB215
 8312 05df 00       		.uleb128 0
 8313 05e0 00       		.uleb128 0
 8314 05e1 E702     		.uleb128 .LEHB216-.LFB1249
 8315 05e3 5E       		.uleb128 .LEHE216-.LEHB216
 8316 05e4 E101     		.uleb128 .L448-.LFB1249
 8317 05e6 00       		.uleb128 0
 8318 05e7 E803     		.uleb128 .LEHB217-.LFB1249
 8319 05e9 05       		.uleb128 .LEHE217-.LEHB217
 8320 05ea 8802     		.uleb128 .L450-.LFB1249
 8321 05ec 00       		.uleb128 0
 8322 05ed 9C04     		.uleb128 .LEHB218-.LFB1249
 8323 05ef 3F       		.uleb128 .LEHE218-.LEHB218
 8324 05f0 F401     		.uleb128 .L449-.LFB1249
 8325 05f2 00       		.uleb128 0
 8326 05f3 E504     		.uleb128 .LEHB219-.LFB1249
 8327 05f5 05       		.uleb128 .LEHE219-.LEHB219
 8328 05f6 8802     		.uleb128 .L450-.LFB1249
 8329 05f8 00       		.uleb128 0
 8330 05f9 F904     		.uleb128 .LEHB220-.LFB1249
 8331 05fb 1F       		.uleb128 .LEHE220-.LEHB220
 8332 05fc 9B02     		.uleb128 .L451-.LFB1249
 8333 05fe 00       		.uleb128 0
 8334 05ff 9805     		.uleb128 .LEHB221-.LFB1249
 8335 0601 05       		.uleb128 .LEHE221-.LEHB221
 8336 0602 00       		.uleb128 0
 8337 0603 00       		.uleb128 0
 8338              	.LLSDACSE1249:
 8339 0604 03       		.byte	0x3
 8340 0605 00       		.byte	0
 8341 0606 02       		.byte	0x2
 8342 0607 7D       		.byte	0x7d
 8343 0608 01       		.byte	0x1
 8344 0609 7D       		.byte	0x7d
 8345 060a 00       		.byte	0
 8346 060b 7D       		.byte	0x7d
 8347              		.align 4
 8348 060c 00000000 		.long	0
 8349              	
 8350 0610 00000000 		.long	_ZTISt9exception
 8351 0614 00000000 		.long	_ZTIN8UnitTest15AssertExceptionE
 8352              	.LLSDATT1249:
 8353              		.text
 8356              	_ZN8UnitTest11ExecuteTestIN12_GLOBAL__N_148FixtureCtorThrowsFixtureCtorThrowsTestNameHelperEEEvRT_R
 8357              	.LFB1250:
  16:../ExecuteTest.h **** {
 8358              		.loc 8 16 0
 8359              		.cfi_startproc
 8360              		.cfi_personality 0x3,__gxx_personality_v0
 8361              		.cfi_lsda 0x3,.LLSDA1250
 8362 39eb 55       		pushq	%rbp
 8363              		.cfi_def_cfa_offset 16
 8364              		.cfi_offset 6, -16
 8365 39ec 4889E5   		movq	%rsp, %rbp
 8366              		.cfi_def_cfa_register 6
 8367 39ef 4154     		pushq	%r12
 8368 39f1 53       		pushq	%rbx
 8369 39f2 4881EC20 		subq	$1568, %rsp
 8369      060000
 8370              		.cfi_offset 12, -24
 8371              		.cfi_offset 3, -32
 8372 39f9 4889BDD8 		movq	%rdi, -1576(%rbp)
 8372      F9FFFF
 8373 3a00 4889B5D0 		movq	%rsi, -1584(%rbp)
 8373      F9FFFF
  16:../ExecuteTest.h **** {
 8374              		.loc 8 16 0
 8375 3a07 64488B04 		movq	%fs:40, %rax
 8375      25280000 
 8375      00
 8376 3a10 488945E8 		movq	%rax, -24(%rbp)
 8377 3a14 31C0     		xorl	%eax, %eax
 8378              	.LEHB222:
 8379              	.LBB187:
  18:../ExecuteTest.h **** 
 8380              		.loc 8 18 0
 8381 3a16 E8000000 		call	_ZN8UnitTest11CurrentTest7DetailsEv
 8381      00
 8382              	.LEHE222:
 8383 3a1b 4889C2   		movq	%rax, %rdx
 8384 3a1e 488B85D0 		movq	-1584(%rbp), %rax
 8384      F9FFFF
 8385 3a25 488902   		movq	%rax, (%rdx)
 8386              	.LBB188:
  23:../ExecuteTest.h **** #endif
 8387              		.loc 8 23 0
 8388 3a28 488D8580 		leaq	-1152(%rbp), %rax
 8388      FBFFFF
 8389 3a2f 4889C7   		movq	%rax, %rdi
 8390              	.LEHB223:
 8391 3a32 E8000000 		call	_ZN8UnitTest16SignalTranslatorC1Ev
 8391      00
 8392              	.LEHE223:
  23:../ExecuteTest.h **** #endif
 8393              		.loc 8 23 0 is_stmt 0 discriminator 1
 8394 3a37 488B0500 		movq	_ZN8UnitTest16SignalTranslator12s_jumpTargetE(%rip), %rax
 8394      000000
 8395 3a3e BE010000 		movl	$1, %esi
 8395      00
 8396 3a43 4889C7   		movq	%rax, %rdi
 8397 3a46 E8000000 		call	__sigsetjmp
 8397      00
 8398 3a4b 85C0     		testl	%eax, %eax
 8399 3a4d 0F95C0   		setne	%al
 8400 3a50 84C0     		testb	%al, %al
 8401 3a52 7423     		je	.L475
  23:../ExecuteTest.h **** #endif
 8402              		.loc 8 23 0 discriminator 3
 8403 3a54 BF080000 		movl	$8, %edi
 8403      00
 8404 3a59 E8000000 		call	__cxa_allocate_exception
 8404      00
 8405 3a5e 48C70000 		movq	$.LC75, (%rax)
 8405      000000
 8406 3a65 BA000000 		movl	$0, %edx
 8406      00
 8407 3a6a BE000000 		movl	$_ZTIPKc, %esi
 8407      00
 8408 3a6f 4889C7   		movq	%rax, %rdi
 8409              	.LEHB224:
 8410 3a72 E8000000 		call	__cxa_throw
 8410      00
 8411              	.LEHE224:
 8412              	.L475:
  25:../ExecuteTest.h **** 	}
 8413              		.loc 8 25 0 is_stmt 1
 8414 3a77 488B85D8 		movq	-1576(%rbp), %rax
 8414      F9FFFF
 8415 3a7e 4889C7   		movq	%rax, %rdi
 8416 3a81 E8F8E1FF 		call	_ZN12_GLOBAL__N_148FixtureCtorThrowsFixtureCtorThrowsTestNameHelper7RunImplEv
 8416      FF
 8417 3a86 488D8580 		leaq	-1152(%rbp), %rax
 8417      FBFFFF
 8418 3a8d 4889C7   		movq	%rax, %rdi
 8419              	.LEHB225:
 8420 3a90 E8000000 		call	_ZN8UnitTest16SignalTranslatorD1Ev
 8420      00
 8421              	.LEHE225:
 8422              	.LBE188:
 8423              	.LBE187:
 8424              		.loc 8 42 0
 8425 3a95 E9EE0100 		jmp	.L477
 8425      00
 8426              	.L470:
 8427 3a9a 4989C4   		movq	%rax, %r12
 8428 3a9d 4889D3   		movq	%rdx, %rbx
 8429              	.LBB196:
 8430              	.LBB189:
  25:../ExecuteTest.h **** 	}
 8431              		.loc 8 25 0
 8432 3aa0 488D8580 		leaq	-1152(%rbp), %rax
 8432      FBFFFF
 8433 3aa7 4889C7   		movq	%rax, %rdi
 8434 3aaa E8000000 		call	_ZN8UnitTest16SignalTranslatorD1Ev
 8434      00
 8435 3aaf 4C89E0   		movq	%r12, %rax
 8436 3ab2 4889DA   		movq	%rbx, %rdx
 8437 3ab5 EB00     		jmp	.L459
 8438              	.L469:
 8439              	.L459:
 8440 3ab7 4883FA01 		cmpq	$1, %rdx
 8441 3abb 745C     		je	.L461
 8442 3abd 4883FA02 		cmpq	$2, %rdx
 8443 3ac1 0F84F300 		je	.L462
 8443      0000
 8444 3ac7 E9900100 		jmp	.L476
 8444      00
 8445              	.L471:
 8446 3acc 4889C3   		movq	%rax, %rbx
 8447              	.LBE189:
 8448              	.LBB190:
  27:../ExecuteTest.h **** 	{
 8449              		.loc 8 27 0
 8450 3acf E8000000 		call	__cxa_end_catch
 8450      00
 8451 3ad4 4889D8   		movq	%rbx, %rax
 8452 3ad7 4889C7   		movq	%rax, %rdi
 8453              	.LEHB226:
 8454 3ada E8000000 		call	_Unwind_Resume
 8454      00
 8455              	.LEHE226:
 8456              	.L472:
 8457 3adf 4889C3   		movq	%rax, %rbx
 8458              	.LBE190:
 8459              	.LBB191:
 8460              	.LBB192:
  36:../ExecuteTest.h **** 	}
 8461              		.loc 8 36 0
 8462 3ae2 488D8510 		leaq	-1520(%rbp), %rax
 8462      FAFFFF
 8463 3ae9 4889C7   		movq	%rax, %rdi
 8464 3aec E8000000 		call	_ZN8UnitTest15MemoryOutStreamD1Ev
 8464      00
 8465 3af1 EB03     		jmp	.L465
 8466              	.L473:
 8467 3af3 4889C3   		movq	%rax, %rbx
 8468              	.L465:
 8469              	.LBE192:
  32:../ExecuteTest.h **** 	{
 8470              		.loc 8 32 0
 8471 3af6 E8000000 		call	__cxa_end_catch
 8471      00
 8472 3afb 4889D8   		movq	%rbx, %rax
 8473 3afe 4889C7   		movq	%rax, %rdi
 8474              	.LEHB227:
 8475 3b01 E8000000 		call	_Unwind_Resume
 8475      00
 8476              	.LEHE227:
 8477              	.L474:
 8478 3b06 4889C3   		movq	%rax, %rbx
 8479              	.LBE191:
  38:../ExecuteTest.h **** 	{
 8480              		.loc 8 38 0
 8481 3b09 E8000000 		call	__cxa_end_catch
 8481      00
 8482 3b0e 4889D8   		movq	%rbx, %rax
 8483 3b11 4889C7   		movq	%rax, %rdi
 8484              	.LEHB228:
 8485 3b14 E8000000 		call	_Unwind_Resume
 8485      00
 8486              	.LEHE228:
 8487              	.L461:
 8488              	.LBB194:
  27:../ExecuteTest.h **** 	{
 8489              		.loc 8 27 0
 8490 3b19 4889C7   		movq	%rax, %rdi
 8491 3b1c E8000000 		call	__cxa_begin_catch
 8491      00
 8492 3b21 488985E0 		movq	%rax, -1568(%rbp)
 8492      F9FFFF
  30:../ExecuteTest.h **** 	}
 8493              		.loc 8 30 0
 8494 3b28 488B85E0 		movq	-1568(%rbp), %rax
 8494      F9FFFF
 8495 3b2f 488B00   		movq	(%rax), %rax
 8496 3b32 4883C010 		addq	$16, %rax
 8497 3b36 488B00   		movq	(%rax), %rax
 8498 3b39 488B95E0 		movq	-1568(%rbp), %rdx
 8498      F9FFFF
 8499 3b40 4889D7   		movq	%rdx, %rdi
 8500 3b43 FFD0     		call	*%rax
 8501 3b45 4889C3   		movq	%rax, %rbx
 8502 3b48 488B85E0 		movq	-1568(%rbp), %rax
 8502      F9FFFF
 8503 3b4f 4889C7   		movq	%rax, %rdi
 8504              	.LEHB229:
 8505 3b52 E8000000 		call	_ZNK8UnitTest15AssertException10LineNumberEv
 8505      00
  30:../ExecuteTest.h **** 	}
 8506              		.loc 8 30 0 is_stmt 0 discriminator 1
 8507 3b57 4189C4   		movl	%eax, %r12d
 8508 3b5a 488B85E0 		movq	-1568(%rbp), %rax
 8508      F9FFFF
 8509 3b61 4889C7   		movq	%rax, %rdi
 8510 3b64 E8000000 		call	_ZNK8UnitTest15AssertException8FilenameEv
 8510      00
  30:../ExecuteTest.h **** 	}
 8511              		.loc 8 30 0 discriminator 2
 8512 3b69 4889C1   		movq	%rax, %rcx
 8513 3b6c 488B85D0 		movq	-1584(%rbp), %rax
 8513      F9FFFF
 8514 3b73 488B10   		movq	(%rax), %rdx
 8515 3b76 488B85D0 		movq	-1584(%rbp), %rax
 8515      F9FFFF
 8516 3b7d 488B7008 		movq	8(%rax), %rsi
 8517 3b81 488D85F0 		leaq	-1552(%rbp), %rax
 8517      F9FFFF
 8518 3b88 4589E0   		movl	%r12d, %r8d
 8519 3b8b 4889C7   		movq	%rax, %rdi
 8520 3b8e E8000000 		call	_ZN8UnitTest11TestDetailsC1EPKcS2_S2_i
 8520      00
  29:../ExecuteTest.h **** 			TestDetails(details.testName, details.suiteName, e.Filename(), e.LineNumber()), e.what());
 8521              		.loc 8 29 0 is_stmt 1
 8522 3b93 E8000000 		call	_ZN8UnitTest11CurrentTest7ResultsEv
 8522      00
  30:../ExecuteTest.h **** 	}
 8523              		.loc 8 30 0
 8524 3b98 488B00   		movq	(%rax), %rax
  29:../ExecuteTest.h **** 			TestDetails(details.testName, details.suiteName, e.Filename(), e.LineNumber()), e.what());
 8525              		.loc 8 29 0
 8526 3b9b 488D8DF0 		leaq	-1552(%rbp), %rcx
 8526      F9FFFF
 8527 3ba2 4889DA   		movq	%rbx, %rdx
 8528 3ba5 4889CE   		movq	%rcx, %rsi
 8529 3ba8 4889C7   		movq	%rax, %rdi
 8530 3bab E8000000 		call	_ZN8UnitTest11TestResults13OnTestFailureERKNS_11TestDetailsEPKc
 8530      00
 8531              	.LEHE229:
  27:../ExecuteTest.h **** 	{
 8532              		.loc 8 27 0
 8533 3bb0 E8000000 		call	__cxa_end_catch
 8533      00
 8534              	.LBE194:
 8535              	.LBE196:
 8536              		.loc 8 42 0
 8537 3bb5 E9CE0000 		jmp	.L477
 8537      00
 8538              	.L462:
 8539              	.LBB197:
 8540              	.LBB195:
  32:../ExecuteTest.h **** 	{
 8541              		.loc 8 32 0
 8542 3bba 4889C7   		movq	%rax, %rdi
 8543 3bbd E8000000 		call	__cxa_begin_catch
 8543      00
 8544 3bc2 488985E8 		movq	%rax, -1560(%rbp)
 8544      F9FFFF
 8545              	.LBB193:
  34:../ExecuteTest.h **** 		stream << "Unhandled exception: " << e.what();
 8546              		.loc 8 34 0
 8547 3bc9 488D8510 		leaq	-1520(%rbp), %rax
 8547      FAFFFF
 8548 3bd0 4889C7   		movq	%rax, %rdi
 8549              	.LEHB230:
 8550 3bd3 E8000000 		call	_ZN8UnitTest15MemoryOutStreamC1Ev
 8550      00
 8551              	.LEHE230:
  35:../ExecuteTest.h **** 		CurrentTest::Results()->OnTestFailure(details, stream.GetText());
 8552              		.loc 8 35 0
 8553 3bd8 488B85E8 		movq	-1560(%rbp), %rax
 8553      F9FFFF
 8554 3bdf 488B00   		movq	(%rax), %rax
 8555 3be2 4883C010 		addq	$16, %rax
 8556 3be6 488B00   		movq	(%rax), %rax
 8557 3be9 488B95E8 		movq	-1560(%rbp), %rdx
 8557      F9FFFF
 8558 3bf0 4889D7   		movq	%rdx, %rdi
 8559 3bf3 FFD0     		call	*%rax
 8560 3bf5 4889C3   		movq	%rax, %rbx
 8561 3bf8 488D8510 		leaq	-1520(%rbp), %rax
 8561      FAFFFF
 8562 3bff BE000000 		movl	$.LC11, %esi
 8562      00
 8563 3c04 4889C7   		movq	%rax, %rdi
 8564              	.LEHB231:
 8565 3c07 E8000000 		call	_ZStlsISt11char_traitsIcEERSt13basic_ostreamIcT_ES5_PKc
 8565      00
  35:../ExecuteTest.h **** 		CurrentTest::Results()->OnTestFailure(details, stream.GetText());
 8566              		.loc 8 35 0 is_stmt 0 discriminator 1
 8567 3c0c 4889DE   		movq	%rbx, %rsi
 8568 3c0f 4889C7   		movq	%rax, %rdi
 8569 3c12 E8000000 		call	_ZStlsISt11char_traitsIcEERSt13basic_ostreamIcT_ES5_PKc
 8569      00
  36:../ExecuteTest.h **** 	}
 8570              		.loc 8 36 0 is_stmt 1
 8571 3c17 488D8510 		leaq	-1520(%rbp), %rax
 8571      FAFFFF
 8572 3c1e 4889C7   		movq	%rax, %rdi
 8573 3c21 E8000000 		call	_ZNK8UnitTest15MemoryOutStream7GetTextEv
 8573      00
 8574 3c26 4889C3   		movq	%rax, %rbx
 8575 3c29 E8000000 		call	_ZN8UnitTest11CurrentTest7ResultsEv
 8575      00
  36:../ExecuteTest.h **** 	}
 8576              		.loc 8 36 0 is_stmt 0 discriminator 2
 8577 3c2e 488B00   		movq	(%rax), %rax
 8578 3c31 488B8DD0 		movq	-1584(%rbp), %rcx
 8578      F9FFFF
 8579 3c38 4889DA   		movq	%rbx, %rdx
 8580 3c3b 4889CE   		movq	%rcx, %rsi
 8581 3c3e 4889C7   		movq	%rax, %rdi
 8582 3c41 E8000000 		call	_ZN8UnitTest11TestResults13OnTestFailureERKNS_11TestDetailsEPKc
 8582      00
 8583              	.LEHE231:
  36:../ExecuteTest.h **** 	}
 8584              		.loc 8 36 0 discriminator 6
 8585 3c46 488D8510 		leaq	-1520(%rbp), %rax
 8585      FAFFFF
 8586 3c4d 4889C7   		movq	%rax, %rdi
 8587              	.LEHB232:
 8588 3c50 E8000000 		call	_ZN8UnitTest15MemoryOutStreamD1Ev
 8588      00
 8589              	.LEHE232:
 8590              	.LBE193:
  32:../ExecuteTest.h **** 	{
 8591              		.loc 8 32 0 is_stmt 1
 8592 3c55 E8000000 		call	__cxa_end_catch
 8592      00
 8593              	.LBE195:
 8594              	.LBE197:
 8595              		.loc 8 42 0
 8596 3c5a EB2C     		jmp	.L477
 8597              	.L476:
 8598              	.LBB198:
  38:../ExecuteTest.h **** 	{
 8599              		.loc 8 38 0
 8600 3c5c 4889C7   		movq	%rax, %rdi
 8601 3c5f E8000000 		call	__cxa_begin_catch
 8601      00
 8602              	.LEHB233:
  40:../ExecuteTest.h **** 	}
 8603              		.loc 8 40 0
 8604 3c64 E8000000 		call	_ZN8UnitTest11CurrentTest7ResultsEv
 8604      00
 8605 3c69 488B00   		movq	(%rax), %rax
 8606 3c6c 488B8DD0 		movq	-1584(%rbp), %rcx
 8606      F9FFFF
 8607 3c73 BA000000 		movl	$.LC76, %edx
 8607      00
 8608 3c78 4889CE   		movq	%rcx, %rsi
 8609 3c7b 4889C7   		movq	%rax, %rdi
 8610 3c7e E8000000 		call	_ZN8UnitTest11TestResults13OnTestFailureERKNS_11TestDetailsEPKc
 8610      00
 8611              	.LEHE233:
 8612              	.LEHB234:
  38:../ExecuteTest.h **** 	{
 8613              		.loc 8 38 0
 8614 3c83 E8000000 		call	__cxa_end_catch
 8614      00
 8615              	.LEHE234:
 8616              	.L477:
 8617              	.LBE198:
 8618              		.loc 8 42 0
 8619 3c88 90       		nop
 8620 3c89 488B45E8 		movq	-24(%rbp), %rax
 8621 3c8d 64483304 		xorq	%fs:40, %rax
 8621      25280000 
 8621      00
 8622 3c96 7405     		je	.L468
 8623 3c98 E8000000 		call	__stack_chk_fail
 8623      00
 8624              	.L468:
 8625 3c9d 4881C420 		addq	$1568, %rsp
 8625      060000
 8626 3ca4 5B       		popq	%rbx
 8627 3ca5 415C     		popq	%r12
 8628 3ca7 5D       		popq	%rbp
 8629              		.cfi_def_cfa 7, 8
 8630 3ca8 C3       		ret
 8631              		.cfi_endproc
 8632              	.LFE1250:
 8633              		.section	.gcc_except_table
 8634              		.align 4
 8635              	.LLSDA1250:
 8636 0618 FF       		.byte	0xff
 8637 0619 03       		.byte	0x3
 8638 061a 5D       		.uleb128 .LLSDATT1250-.LLSDATTD1250
 8639              	.LLSDATTD1250:
 8640 061b 01       		.byte	0x1
 8641 061c 47       		.uleb128 .LLSDACSE1250-.LLSDACSB1250
 8642              	.LLSDACSB1250:
 8643 061d 2B       		.uleb128 .LEHB222-.LFB1250
 8644 061e 05       		.uleb128 .LEHE222-.LEHB222
 8645 061f 00       		.uleb128 0
 8646 0620 00       		.uleb128 0
 8647 0621 47       		.uleb128 .LEHB223-.LFB1250
 8648 0622 05       		.uleb128 .LEHE223-.LEHB223
 8649 0623 CC01     		.uleb128 .L469-.LFB1250
 8650 0625 05       		.uleb128 0x5
 8651 0626 8701     		.uleb128 .LEHB224-.LFB1250
 8652 0628 05       		.uleb128 .LEHE224-.LEHB224
 8653 0629 AF01     		.uleb128 .L470-.LFB1250
 8654 062b 07       		.uleb128 0x7
 8655 062c A501     		.uleb128 .LEHB225-.LFB1250
 8656 062e 05       		.uleb128 .LEHE225-.LEHB225
 8657 062f CC01     		.uleb128 .L469-.LFB1250
 8658 0631 05       		.uleb128 0x5
 8659 0632 EF01     		.uleb128 .LEHB226-.LFB1250
 8660 0634 05       		.uleb128 .LEHE226-.LEHB226
 8661 0635 00       		.uleb128 0
 8662 0636 00       		.uleb128 0
 8663 0637 9602     		.uleb128 .LEHB227-.LFB1250
 8664 0639 05       		.uleb128 .LEHE227-.LEHB227
 8665 063a 00       		.uleb128 0
 8666 063b 00       		.uleb128 0
 8667 063c A902     		.uleb128 .LEHB228-.LFB1250
 8668 063e 05       		.uleb128 .LEHE228-.LEHB228
 8669 063f 00       		.uleb128 0
 8670 0640 00       		.uleb128 0
 8671 0641 E702     		.uleb128 .LEHB229-.LFB1250
 8672 0643 5E       		.uleb128 .LEHE229-.LEHB229
 8673 0644 E101     		.uleb128 .L471-.LFB1250
 8674 0646 00       		.uleb128 0
 8675 0647 E803     		.uleb128 .LEHB230-.LFB1250
 8676 0649 05       		.uleb128 .LEHE230-.LEHB230
 8677 064a 8802     		.uleb128 .L473-.LFB1250
 8678 064c 00       		.uleb128 0
 8679 064d 9C04     		.uleb128 .LEHB231-.LFB1250
 8680 064f 3F       		.uleb128 .LEHE231-.LEHB231
 8681 0650 F401     		.uleb128 .L472-.LFB1250
 8682 0652 00       		.uleb128 0
 8683 0653 E504     		.uleb128 .LEHB232-.LFB1250
 8684 0655 05       		.uleb128 .LEHE232-.LEHB232
 8685 0656 8802     		.uleb128 .L473-.LFB1250
 8686 0658 00       		.uleb128 0
 8687 0659 F904     		.uleb128 .LEHB233-.LFB1250
 8688 065b 1F       		.uleb128 .LEHE233-.LEHB233
 8689 065c 9B02     		.uleb128 .L474-.LFB1250
 8690 065e 00       		.uleb128 0
 8691 065f 9805     		.uleb128 .LEHB234-.LFB1250
 8692 0661 05       		.uleb128 .LEHE234-.LEHB234
 8693 0662 00       		.uleb128 0
 8694 0663 00       		.uleb128 0
 8695              	.LLSDACSE1250:
 8696 0664 03       		.byte	0x3
 8697 0665 00       		.byte	0
 8698 0666 02       		.byte	0x2
 8699 0667 7D       		.byte	0x7d
 8700 0668 01       		.byte	0x1
 8701 0669 7D       		.byte	0x7d
 8702 066a 00       		.byte	0
 8703 066b 7D       		.byte	0x7d
 8704              		.align 4
 8705 066c 00000000 		.long	0
 8706              	
 8707 0670 00000000 		.long	_ZTISt9exception
 8708 0674 00000000 		.long	_ZTIN8UnitTest15AssertExceptionE
 8709              	.LLSDATT1250:
 8710              		.text
 8712              		.section	.rodata
 8713              	.LC77:
 8714 0e6f 45787065 		.string	"Expected "
 8714      63746564 
 8714      2000
 8715              	.LC78:
 8716 0e79 20627574 		.string	" but was "
 8716      20776173 
 8716      2000
 8717              		.section	.text._ZN8UnitTest10CheckEqualIiiEEvRNS_11TestResultsERKT_RKT0_RKNS_11TestDetailsE,"axG",
 8718              		.weak	_ZN8UnitTest10CheckEqualIiiEEvRNS_11TestResultsERKT_RKT0_RKNS_11TestDetailsE
 8720              	_ZN8UnitTest10CheckEqualIiiEEvRNS_11TestResultsERKT_RKT0_RKNS_11TestDetailsE:
 8721              	.LFB1251:
  16:../Checks.h   **** 
  17:../Checks.h   **** 
  18:../Checks.h   **** template< typename Expected, typename Actual >
  19:../Checks.h   **** void CheckEqual(TestResults& results, Expected const& expected, Actual const& actual, TestDetails c
 8722              		.loc 7 19 0
 8723              		.cfi_startproc
 8724              		.cfi_personality 0x3,__gxx_personality_v0
 8725              		.cfi_lsda 0x3,.LLSDA1251
 8726 0000 55       		pushq	%rbp
 8727              		.cfi_def_cfa_offset 16
 8728              		.cfi_offset 6, -16
 8729 0001 4889E5   		movq	%rsp, %rbp
 8730              		.cfi_def_cfa_register 6
 8731 0004 4154     		pushq	%r12
 8732 0006 53       		pushq	%rbx
 8733 0007 4881EC90 		subq	$400, %rsp
 8733      010000
 8734              		.cfi_offset 12, -24
 8735              		.cfi_offset 3, -32
 8736 000e 4889BD78 		movq	%rdi, -392(%rbp)
 8736      FEFFFF
 8737 0015 4889B570 		movq	%rsi, -400(%rbp)
 8737      FEFFFF
 8738 001c 48899568 		movq	%rdx, -408(%rbp)
 8738      FEFFFF
 8739 0023 48898D60 		movq	%rcx, -416(%rbp)
 8739      FEFFFF
 8740              		.loc 7 19 0
 8741 002a 64488B04 		movq	%fs:40, %rax
 8741      25280000 
 8741      00
 8742 0033 488945E8 		movq	%rax, -24(%rbp)
 8743 0037 31C0     		xorl	%eax, %eax
 8744              	.LBB199:
 8745              	.LBB200:
  20:../Checks.h   **** {
  21:../Checks.h   ****     if (!(expected == actual))
 8746              		.loc 7 21 0
 8747 0039 488B8570 		movq	-400(%rbp), %rax
 8747      FEFFFF
 8748 0040 8B10     		movl	(%rax), %edx
 8749 0042 488B8568 		movq	-408(%rbp), %rax
 8749      FEFFFF
 8750 0049 8B00     		movl	(%rax), %eax
 8751 004b 39C2     		cmpl	%eax, %edx
 8752 004d 0F849200 		je	.L479
 8752      0000
 8753              	.LBB201:
  22:../Checks.h   ****     {
  23:../Checks.h   ****         UnitTest::MemoryOutStream stream;
 8754              		.loc 7 23 0
 8755 0053 488D8580 		leaq	-384(%rbp), %rax
 8755      FEFFFF
 8756 005a 4889C7   		movq	%rax, %rdi
 8757              	.LEHB235:
 8758 005d E8000000 		call	_ZN8UnitTest15MemoryOutStreamC1Ev
 8758      00
 8759              	.LEHE235:
  24:../Checks.h   ****         stream << "Expected " << expected << " but was " << actual;
 8760              		.loc 7 24 0
 8761 0062 488B8568 		movq	-408(%rbp), %rax
 8761      FEFFFF
 8762 0069 8B18     		movl	(%rax), %ebx
 8763 006b 488B8570 		movq	-400(%rbp), %rax
 8763      FEFFFF
 8764 0072 448B20   		movl	(%rax), %r12d
 8765 0075 488D8580 		leaq	-384(%rbp), %rax
 8765      FEFFFF
 8766 007c BE000000 		movl	$.LC77, %esi
 8766      00
 8767 0081 4889C7   		movq	%rax, %rdi
 8768              	.LEHB236:
 8769 0084 E8000000 		call	_ZStlsISt11char_traitsIcEERSt13basic_ostreamIcT_ES5_PKc
 8769      00
 8770 0089 4489E6   		movl	%r12d, %esi
 8771 008c 4889C7   		movq	%rax, %rdi
 8772 008f E8000000 		call	_ZNSolsEi
 8772      00
 8773              		.loc 7 24 0 is_stmt 0 discriminator 1
 8774 0094 BE000000 		movl	$.LC78, %esi
 8774      00
 8775 0099 4889C7   		movq	%rax, %rdi
 8776 009c E8000000 		call	_ZStlsISt11char_traitsIcEERSt13basic_ostreamIcT_ES5_PKc
 8776      00
 8777              		.loc 7 24 0 discriminator 2
 8778 00a1 89DE     		movl	%ebx, %esi
 8779 00a3 4889C7   		movq	%rax, %rdi
 8780 00a6 E8000000 		call	_ZNSolsEi
 8780      00
  25:../Checks.h   **** 
  26:../Checks.h   ****         results.OnTestFailure(details, stream.GetText());
 8781              		.loc 7 26 0 is_stmt 1
 8782 00ab 488D8580 		leaq	-384(%rbp), %rax
 8782      FEFFFF
 8783 00b2 4889C7   		movq	%rax, %rdi
 8784 00b5 E8000000 		call	_ZNK8UnitTest15MemoryOutStream7GetTextEv
 8784      00
 8785 00ba 4889C2   		movq	%rax, %rdx
 8786 00bd 488B8D60 		movq	-416(%rbp), %rcx
 8786      FEFFFF
 8787 00c4 488B8578 		movq	-392(%rbp), %rax
 8787      FEFFFF
 8788 00cb 4889CE   		movq	%rcx, %rsi
 8789 00ce 4889C7   		movq	%rax, %rdi
 8790 00d1 E8000000 		call	_ZN8UnitTest11TestResults13OnTestFailureERKNS_11TestDetailsEPKc
 8790      00
 8791              	.LEHE236:
 8792              		.loc 7 26 0 is_stmt 0 discriminator 4
 8793 00d6 488D8580 		leaq	-384(%rbp), %rax
 8793      FEFFFF
 8794 00dd 4889C7   		movq	%rax, %rdi
 8795              	.LEHB237:
 8796 00e0 E8000000 		call	_ZN8UnitTest15MemoryOutStreamD1Ev
 8796      00
 8797              	.LEHE237:
 8798              	.L479:
 8799              	.LBE201:
 8800              	.LBE200:
 8801              	.LBE199:
  27:../Checks.h   ****     }
  28:../Checks.h   **** }
 8802              		.loc 7 28 0 is_stmt 1
 8803 00e5 488B45E8 		movq	-24(%rbp), %rax
 8804 00e9 64483304 		xorq	%fs:40, %rax
 8804      25280000 
 8804      00
 8805 00f2 7424     		je	.L481
 8806 00f4 EB1D     		jmp	.L483
 8807              	.L482:
 8808 00f6 4889C3   		movq	%rax, %rbx
 8809              	.LBB204:
 8810              	.LBB203:
 8811              	.LBB202:
  26:../Checks.h   ****     }
 8812              		.loc 7 26 0
 8813 00f9 488D8580 		leaq	-384(%rbp), %rax
 8813      FEFFFF
 8814 0100 4889C7   		movq	%rax, %rdi
 8815 0103 E8000000 		call	_ZN8UnitTest15MemoryOutStreamD1Ev
 8815      00
 8816 0108 4889D8   		movq	%rbx, %rax
 8817 010b 4889C7   		movq	%rax, %rdi
 8818              	.LEHB238:
 8819 010e E8000000 		call	_Unwind_Resume
 8819      00
 8820              	.LEHE238:
 8821              	.L483:
 8822              	.LBE202:
 8823              	.LBE203:
 8824              	.LBE204:
 8825              		.loc 7 28 0
 8826 0113 E8000000 		call	__stack_chk_fail
 8826      00
 8827              	.L481:
 8828 0118 4881C490 		addq	$400, %rsp
 8828      010000
 8829 011f 5B       		popq	%rbx
 8830 0120 415C     		popq	%r12
 8831 0122 5D       		popq	%rbp
 8832              		.cfi_def_cfa 7, 8
 8833 0123 C3       		ret
 8834              		.cfi_endproc
 8835              	.LFE1251:
 8836              		.section	.gcc_except_table
 8837              	.LLSDA1251:
 8838 0678 FF       		.byte	0xff
 8839 0679 FF       		.byte	0xff
 8840 067a 01       		.byte	0x1
 8841 067b 14       		.uleb128 .LLSDACSE1251-.LLSDACSB1251
 8842              	.LLSDACSB1251:
 8843 067c 5D       		.uleb128 .LEHB235-.LFB1251
 8844 067d 05       		.uleb128 .LEHE235-.LEHB235
 8845 067e 00       		.uleb128 0
 8846 067f 00       		.uleb128 0
 8847 0680 8401     		.uleb128 .LEHB236-.LFB1251
 8848 0682 52       		.uleb128 .LEHE236-.LEHB236
 8849 0683 F601     		.uleb128 .L482-.LFB1251
 8850 0685 00       		.uleb128 0
 8851 0686 E001     		.uleb128 .LEHB237-.LFB1251
 8852 0688 05       		.uleb128 .LEHE237-.LEHB237
 8853 0689 00       		.uleb128 0
 8854 068a 00       		.uleb128 0
 8855 068b 8E02     		.uleb128 .LEHB238-.LFB1251
 8856 068d 05       		.uleb128 .LEHE238-.LEHB238
 8857 068e 00       		.uleb128 0
 8858 068f 00       		.uleb128 0
 8859              	.LLSDACSE1251:
 8860              		.section	.text._ZN8UnitTest10CheckEqualIiiEEvRNS_11TestResultsERKT_RKT0_RKNS_11TestDetailsE,"axG",
 8862              		.text
 8864              	_ZN8UnitTest11ExecuteTestIN12_GLOBAL__N_148FixtureDtorThrowsFixtureDtorThrowsTestNameHelperEEEvRT_R
 8865              	.LFB1252:
  16:../ExecuteTest.h **** {
 8866              		.loc 8 16 0
 8867              		.cfi_startproc
 8868              		.cfi_personality 0x3,__gxx_personality_v0
 8869              		.cfi_lsda 0x3,.LLSDA1252
 8870 3ca9 55       		pushq	%rbp
 8871              		.cfi_def_cfa_offset 16
 8872              		.cfi_offset 6, -16
 8873 3caa 4889E5   		movq	%rsp, %rbp
 8874              		.cfi_def_cfa_register 6
 8875 3cad 4154     		pushq	%r12
 8876 3caf 53       		pushq	%rbx
 8877 3cb0 4881EC20 		subq	$1568, %rsp
 8877      060000
 8878              		.cfi_offset 12, -24
 8879              		.cfi_offset 3, -32
 8880 3cb7 4889BDD8 		movq	%rdi, -1576(%rbp)
 8880      F9FFFF
 8881 3cbe 4889B5D0 		movq	%rsi, -1584(%rbp)
 8881      F9FFFF
  16:../ExecuteTest.h **** {
 8882              		.loc 8 16 0
 8883 3cc5 64488B04 		movq	%fs:40, %rax
 8883      25280000 
 8883      00
 8884 3cce 488945E8 		movq	%rax, -24(%rbp)
 8885 3cd2 31C0     		xorl	%eax, %eax
 8886              	.LEHB239:
 8887              	.LBB205:
  18:../ExecuteTest.h **** 
 8888              		.loc 8 18 0
 8889 3cd4 E8000000 		call	_ZN8UnitTest11CurrentTest7DetailsEv
 8889      00
 8890              	.LEHE239:
 8891 3cd9 4889C2   		movq	%rax, %rdx
 8892 3cdc 488B85D0 		movq	-1584(%rbp), %rax
 8892      F9FFFF
 8893 3ce3 488902   		movq	%rax, (%rdx)
 8894              	.LBB206:
  23:../ExecuteTest.h **** #endif
 8895              		.loc 8 23 0
 8896 3ce6 488D8580 		leaq	-1152(%rbp), %rax
 8896      FBFFFF
 8897 3ced 4889C7   		movq	%rax, %rdi
 8898              	.LEHB240:
 8899 3cf0 E8000000 		call	_ZN8UnitTest16SignalTranslatorC1Ev
 8899      00
 8900              	.LEHE240:
  23:../ExecuteTest.h **** #endif
 8901              		.loc 8 23 0 is_stmt 0 discriminator 1
 8902 3cf5 488B0500 		movq	_ZN8UnitTest16SignalTranslator12s_jumpTargetE(%rip), %rax
 8902      000000
 8903 3cfc BE010000 		movl	$1, %esi
 8903      00
 8904 3d01 4889C7   		movq	%rax, %rdi
 8905 3d04 E8000000 		call	__sigsetjmp
 8905      00
 8906 3d09 85C0     		testl	%eax, %eax
 8907 3d0b 0F95C0   		setne	%al
 8908 3d0e 84C0     		testb	%al, %al
 8909 3d10 7423     		je	.L504
  23:../ExecuteTest.h **** #endif
 8910              		.loc 8 23 0 discriminator 3
 8911 3d12 BF080000 		movl	$8, %edi
 8911      00
 8912 3d17 E8000000 		call	__cxa_allocate_exception
 8912      00
 8913 3d1c 48C70000 		movq	$.LC75, (%rax)
 8913      000000
 8914 3d23 BA000000 		movl	$0, %edx
 8914      00
 8915 3d28 BE000000 		movl	$_ZTIPKc, %esi
 8915      00
 8916 3d2d 4889C7   		movq	%rax, %rdi
 8917              	.LEHB241:
 8918 3d30 E8000000 		call	__cxa_throw
 8918      00
 8919              	.LEHE241:
 8920              	.L504:
  25:../ExecuteTest.h **** 	}
 8921              		.loc 8 25 0 is_stmt 1
 8922 3d35 488B85D8 		movq	-1576(%rbp), %rax
 8922      F9FFFF
 8923 3d3c 4889C7   		movq	%rax, %rdi
 8924 3d3f E87AE6FF 		call	_ZN12_GLOBAL__N_148FixtureDtorThrowsFixtureDtorThrowsTestNameHelper7RunImplEv
 8924      FF
 8925 3d44 488D8580 		leaq	-1152(%rbp), %rax
 8925      FBFFFF
 8926 3d4b 4889C7   		movq	%rax, %rdi
 8927              	.LEHB242:
 8928 3d4e E8000000 		call	_ZN8UnitTest16SignalTranslatorD1Ev
 8928      00
 8929              	.LEHE242:
 8930              	.LBE206:
 8931              	.LBE205:
 8932              		.loc 8 42 0
 8933 3d53 E9EE0100 		jmp	.L506
 8933      00
 8934              	.L499:
 8935 3d58 4989C4   		movq	%rax, %r12
 8936 3d5b 4889D3   		movq	%rdx, %rbx
 8937              	.LBB214:
 8938              	.LBB207:
  25:../ExecuteTest.h **** 	}
 8939              		.loc 8 25 0
 8940 3d5e 488D8580 		leaq	-1152(%rbp), %rax
 8940      FBFFFF
 8941 3d65 4889C7   		movq	%rax, %rdi
 8942 3d68 E8000000 		call	_ZN8UnitTest16SignalTranslatorD1Ev
 8942      00
 8943 3d6d 4C89E0   		movq	%r12, %rax
 8944 3d70 4889DA   		movq	%rbx, %rdx
 8945 3d73 EB00     		jmp	.L488
 8946              	.L498:
 8947              	.L488:
 8948 3d75 4883FA01 		cmpq	$1, %rdx
 8949 3d79 745C     		je	.L490
 8950 3d7b 4883FA02 		cmpq	$2, %rdx
 8951 3d7f 0F84F300 		je	.L491
 8951      0000
 8952 3d85 E9900100 		jmp	.L505
 8952      00
 8953              	.L500:
 8954 3d8a 4889C3   		movq	%rax, %rbx
 8955              	.LBE207:
 8956              	.LBB208:
  27:../ExecuteTest.h **** 	{
 8957              		.loc 8 27 0
 8958 3d8d E8000000 		call	__cxa_end_catch
 8958      00
 8959 3d92 4889D8   		movq	%rbx, %rax
 8960 3d95 4889C7   		movq	%rax, %rdi
 8961              	.LEHB243:
 8962 3d98 E8000000 		call	_Unwind_Resume
 8962      00
 8963              	.LEHE243:
 8964              	.L501:
 8965 3d9d 4889C3   		movq	%rax, %rbx
 8966              	.LBE208:
 8967              	.LBB209:
 8968              	.LBB210:
  36:../ExecuteTest.h **** 	}
 8969              		.loc 8 36 0
 8970 3da0 488D8510 		leaq	-1520(%rbp), %rax
 8970      FAFFFF
 8971 3da7 4889C7   		movq	%rax, %rdi
 8972 3daa E8000000 		call	_ZN8UnitTest15MemoryOutStreamD1Ev
 8972      00
 8973 3daf EB03     		jmp	.L494
 8974              	.L502:
 8975 3db1 4889C3   		movq	%rax, %rbx
 8976              	.L494:
 8977              	.LBE210:
  32:../ExecuteTest.h **** 	{
 8978              		.loc 8 32 0
 8979 3db4 E8000000 		call	__cxa_end_catch
 8979      00
 8980 3db9 4889D8   		movq	%rbx, %rax
 8981 3dbc 4889C7   		movq	%rax, %rdi
 8982              	.LEHB244:
 8983 3dbf E8000000 		call	_Unwind_Resume
 8983      00
 8984              	.LEHE244:
 8985              	.L503:
 8986 3dc4 4889C3   		movq	%rax, %rbx
 8987              	.LBE209:
  38:../ExecuteTest.h **** 	{
 8988              		.loc 8 38 0
 8989 3dc7 E8000000 		call	__cxa_end_catch
 8989      00
 8990 3dcc 4889D8   		movq	%rbx, %rax
 8991 3dcf 4889C7   		movq	%rax, %rdi
 8992              	.LEHB245:
 8993 3dd2 E8000000 		call	_Unwind_Resume
 8993      00
 8994              	.LEHE245:
 8995              	.L490:
 8996              	.LBB212:
  27:../ExecuteTest.h **** 	{
 8997              		.loc 8 27 0
 8998 3dd7 4889C7   		movq	%rax, %rdi
 8999 3dda E8000000 		call	__cxa_begin_catch
 8999      00
 9000 3ddf 488985E0 		movq	%rax, -1568(%rbp)
 9000      F9FFFF
  30:../ExecuteTest.h **** 	}
 9001              		.loc 8 30 0
 9002 3de6 488B85E0 		movq	-1568(%rbp), %rax
 9002      F9FFFF
 9003 3ded 488B00   		movq	(%rax), %rax
 9004 3df0 4883C010 		addq	$16, %rax
 9005 3df4 488B00   		movq	(%rax), %rax
 9006 3df7 488B95E0 		movq	-1568(%rbp), %rdx
 9006      F9FFFF
 9007 3dfe 4889D7   		movq	%rdx, %rdi
 9008 3e01 FFD0     		call	*%rax
 9009 3e03 4889C3   		movq	%rax, %rbx
 9010 3e06 488B85E0 		movq	-1568(%rbp), %rax
 9010      F9FFFF
 9011 3e0d 4889C7   		movq	%rax, %rdi
 9012              	.LEHB246:
 9013 3e10 E8000000 		call	_ZNK8UnitTest15AssertException10LineNumberEv
 9013      00
  30:../ExecuteTest.h **** 	}
 9014              		.loc 8 30 0 is_stmt 0 discriminator 1
 9015 3e15 4189C4   		movl	%eax, %r12d
 9016 3e18 488B85E0 		movq	-1568(%rbp), %rax
 9016      F9FFFF
 9017 3e1f 4889C7   		movq	%rax, %rdi
 9018 3e22 E8000000 		call	_ZNK8UnitTest15AssertException8FilenameEv
 9018      00
  30:../ExecuteTest.h **** 	}
 9019              		.loc 8 30 0 discriminator 2
 9020 3e27 4889C1   		movq	%rax, %rcx
 9021 3e2a 488B85D0 		movq	-1584(%rbp), %rax
 9021      F9FFFF
 9022 3e31 488B10   		movq	(%rax), %rdx
 9023 3e34 488B85D0 		movq	-1584(%rbp), %rax
 9023      F9FFFF
 9024 3e3b 488B7008 		movq	8(%rax), %rsi
 9025 3e3f 488D85F0 		leaq	-1552(%rbp), %rax
 9025      F9FFFF
 9026 3e46 4589E0   		movl	%r12d, %r8d
 9027 3e49 4889C7   		movq	%rax, %rdi
 9028 3e4c E8000000 		call	_ZN8UnitTest11TestDetailsC1EPKcS2_S2_i
 9028      00
  29:../ExecuteTest.h **** 			TestDetails(details.testName, details.suiteName, e.Filename(), e.LineNumber()), e.what());
 9029              		.loc 8 29 0 is_stmt 1
 9030 3e51 E8000000 		call	_ZN8UnitTest11CurrentTest7ResultsEv
 9030      00
  30:../ExecuteTest.h **** 	}
 9031              		.loc 8 30 0
 9032 3e56 488B00   		movq	(%rax), %rax
  29:../ExecuteTest.h **** 			TestDetails(details.testName, details.suiteName, e.Filename(), e.LineNumber()), e.what());
 9033              		.loc 8 29 0
 9034 3e59 488D8DF0 		leaq	-1552(%rbp), %rcx
 9034      F9FFFF
 9035 3e60 4889DA   		movq	%rbx, %rdx
 9036 3e63 4889CE   		movq	%rcx, %rsi
 9037 3e66 4889C7   		movq	%rax, %rdi
 9038 3e69 E8000000 		call	_ZN8UnitTest11TestResults13OnTestFailureERKNS_11TestDetailsEPKc
 9038      00
 9039              	.LEHE246:
  27:../ExecuteTest.h **** 	{
 9040              		.loc 8 27 0
 9041 3e6e E8000000 		call	__cxa_end_catch
 9041      00
 9042              	.LBE212:
 9043              	.LBE214:
 9044              		.loc 8 42 0
 9045 3e73 E9CE0000 		jmp	.L506
 9045      00
 9046              	.L491:
 9047              	.LBB215:
 9048              	.LBB213:
  32:../ExecuteTest.h **** 	{
 9049              		.loc 8 32 0
 9050 3e78 4889C7   		movq	%rax, %rdi
 9051 3e7b E8000000 		call	__cxa_begin_catch
 9051      00
 9052 3e80 488985E8 		movq	%rax, -1560(%rbp)
 9052      F9FFFF
 9053              	.LBB211:
  34:../ExecuteTest.h **** 		stream << "Unhandled exception: " << e.what();
 9054              		.loc 8 34 0
 9055 3e87 488D8510 		leaq	-1520(%rbp), %rax
 9055      FAFFFF
 9056 3e8e 4889C7   		movq	%rax, %rdi
 9057              	.LEHB247:
 9058 3e91 E8000000 		call	_ZN8UnitTest15MemoryOutStreamC1Ev
 9058      00
 9059              	.LEHE247:
  35:../ExecuteTest.h **** 		CurrentTest::Results()->OnTestFailure(details, stream.GetText());
 9060              		.loc 8 35 0
 9061 3e96 488B85E8 		movq	-1560(%rbp), %rax
 9061      F9FFFF
 9062 3e9d 488B00   		movq	(%rax), %rax
 9063 3ea0 4883C010 		addq	$16, %rax
 9064 3ea4 488B00   		movq	(%rax), %rax
 9065 3ea7 488B95E8 		movq	-1560(%rbp), %rdx
 9065      F9FFFF
 9066 3eae 4889D7   		movq	%rdx, %rdi
 9067 3eb1 FFD0     		call	*%rax
 9068 3eb3 4889C3   		movq	%rax, %rbx
 9069 3eb6 488D8510 		leaq	-1520(%rbp), %rax
 9069      FAFFFF
 9070 3ebd BE000000 		movl	$.LC11, %esi
 9070      00
 9071 3ec2 4889C7   		movq	%rax, %rdi
 9072              	.LEHB248:
 9073 3ec5 E8000000 		call	_ZStlsISt11char_traitsIcEERSt13basic_ostreamIcT_ES5_PKc
 9073      00
  35:../ExecuteTest.h **** 		CurrentTest::Results()->OnTestFailure(details, stream.GetText());
 9074              		.loc 8 35 0 is_stmt 0 discriminator 1
 9075 3eca 4889DE   		movq	%rbx, %rsi
 9076 3ecd 4889C7   		movq	%rax, %rdi
 9077 3ed0 E8000000 		call	_ZStlsISt11char_traitsIcEERSt13basic_ostreamIcT_ES5_PKc
 9077      00
  36:../ExecuteTest.h **** 	}
 9078              		.loc 8 36 0 is_stmt 1
 9079 3ed5 488D8510 		leaq	-1520(%rbp), %rax
 9079      FAFFFF
 9080 3edc 4889C7   		movq	%rax, %rdi
 9081 3edf E8000000 		call	_ZNK8UnitTest15MemoryOutStream7GetTextEv
 9081      00
 9082 3ee4 4889C3   		movq	%rax, %rbx
 9083 3ee7 E8000000 		call	_ZN8UnitTest11CurrentTest7ResultsEv
 9083      00
  36:../ExecuteTest.h **** 	}
 9084              		.loc 8 36 0 is_stmt 0 discriminator 2
 9085 3eec 488B00   		movq	(%rax), %rax
 9086 3eef 488B8DD0 		movq	-1584(%rbp), %rcx
 9086      F9FFFF
 9087 3ef6 4889DA   		movq	%rbx, %rdx
 9088 3ef9 4889CE   		movq	%rcx, %rsi
 9089 3efc 4889C7   		movq	%rax, %rdi
 9090 3eff E8000000 		call	_ZN8UnitTest11TestResults13OnTestFailureERKNS_11TestDetailsEPKc
 9090      00
 9091              	.LEHE248:
  36:../ExecuteTest.h **** 	}
 9092              		.loc 8 36 0 discriminator 6
 9093 3f04 488D8510 		leaq	-1520(%rbp), %rax
 9093      FAFFFF
 9094 3f0b 4889C7   		movq	%rax, %rdi
 9095              	.LEHB249:
 9096 3f0e E8000000 		call	_ZN8UnitTest15MemoryOutStreamD1Ev
 9096      00
 9097              	.LEHE249:
 9098              	.LBE211:
  32:../ExecuteTest.h **** 	{
 9099              		.loc 8 32 0 is_stmt 1
 9100 3f13 E8000000 		call	__cxa_end_catch
 9100      00
 9101              	.LBE213:
 9102              	.LBE215:
 9103              		.loc 8 42 0
 9104 3f18 EB2C     		jmp	.L506
 9105              	.L505:
 9106              	.LBB216:
  38:../ExecuteTest.h **** 	{
 9107              		.loc 8 38 0
 9108 3f1a 4889C7   		movq	%rax, %rdi
 9109 3f1d E8000000 		call	__cxa_begin_catch
 9109      00
 9110              	.LEHB250:
  40:../ExecuteTest.h **** 	}
 9111              		.loc 8 40 0
 9112 3f22 E8000000 		call	_ZN8UnitTest11CurrentTest7ResultsEv
 9112      00
 9113 3f27 488B00   		movq	(%rax), %rax
 9114 3f2a 488B8DD0 		movq	-1584(%rbp), %rcx
 9114      F9FFFF
 9115 3f31 BA000000 		movl	$.LC76, %edx
 9115      00
 9116 3f36 4889CE   		movq	%rcx, %rsi
 9117 3f39 4889C7   		movq	%rax, %rdi
 9118 3f3c E8000000 		call	_ZN8UnitTest11TestResults13OnTestFailureERKNS_11TestDetailsEPKc
 9118      00
 9119              	.LEHE250:
 9120              	.LEHB251:
  38:../ExecuteTest.h **** 	{
 9121              		.loc 8 38 0
 9122 3f41 E8000000 		call	__cxa_end_catch
 9122      00
 9123              	.LEHE251:
 9124              	.L506:
 9125              	.LBE216:
 9126              		.loc 8 42 0
 9127 3f46 90       		nop
 9128 3f47 488B45E8 		movq	-24(%rbp), %rax
 9129 3f4b 64483304 		xorq	%fs:40, %rax
 9129      25280000 
 9129      00
 9130 3f54 7405     		je	.L497
 9131 3f56 E8000000 		call	__stack_chk_fail
 9131      00
 9132              	.L497:
 9133 3f5b 4881C420 		addq	$1568, %rsp
 9133      060000
 9134 3f62 5B       		popq	%rbx
 9135 3f63 415C     		popq	%r12
 9136 3f65 5D       		popq	%rbp
 9137              		.cfi_def_cfa 7, 8
 9138 3f66 C3       		ret
 9139              		.cfi_endproc
 9140              	.LFE1252:
 9141              		.section	.gcc_except_table
 9142              		.align 4
 9143              	.LLSDA1252:
 9144 0690 FF       		.byte	0xff
 9145 0691 03       		.byte	0x3
 9146 0692 5D       		.uleb128 .LLSDATT1252-.LLSDATTD1252
 9147              	.LLSDATTD1252:
 9148 0693 01       		.byte	0x1
 9149 0694 47       		.uleb128 .LLSDACSE1252-.LLSDACSB1252
 9150              	.LLSDACSB1252:
 9151 0695 2B       		.uleb128 .LEHB239-.LFB1252
 9152 0696 05       		.uleb128 .LEHE239-.LEHB239
 9153 0697 00       		.uleb128 0
 9154 0698 00       		.uleb128 0
 9155 0699 47       		.uleb128 .LEHB240-.LFB1252
 9156 069a 05       		.uleb128 .LEHE240-.LEHB240
 9157 069b CC01     		.uleb128 .L498-.LFB1252
 9158 069d 05       		.uleb128 0x5
 9159 069e 8701     		.uleb128 .LEHB241-.LFB1252
 9160 06a0 05       		.uleb128 .LEHE241-.LEHB241
 9161 06a1 AF01     		.uleb128 .L499-.LFB1252
 9162 06a3 07       		.uleb128 0x7
 9163 06a4 A501     		.uleb128 .LEHB242-.LFB1252
 9164 06a6 05       		.uleb128 .LEHE242-.LEHB242
 9165 06a7 CC01     		.uleb128 .L498-.LFB1252
 9166 06a9 05       		.uleb128 0x5
 9167 06aa EF01     		.uleb128 .LEHB243-.LFB1252
 9168 06ac 05       		.uleb128 .LEHE243-.LEHB243
 9169 06ad 00       		.uleb128 0
 9170 06ae 00       		.uleb128 0
 9171 06af 9602     		.uleb128 .LEHB244-.LFB1252
 9172 06b1 05       		.uleb128 .LEHE244-.LEHB244
 9173 06b2 00       		.uleb128 0
 9174 06b3 00       		.uleb128 0
 9175 06b4 A902     		.uleb128 .LEHB245-.LFB1252
 9176 06b6 05       		.uleb128 .LEHE245-.LEHB245
 9177 06b7 00       		.uleb128 0
 9178 06b8 00       		.uleb128 0
 9179 06b9 E702     		.uleb128 .LEHB246-.LFB1252
 9180 06bb 5E       		.uleb128 .LEHE246-.LEHB246
 9181 06bc E101     		.uleb128 .L500-.LFB1252
 9182 06be 00       		.uleb128 0
 9183 06bf E803     		.uleb128 .LEHB247-.LFB1252
 9184 06c1 05       		.uleb128 .LEHE247-.LEHB247
 9185 06c2 8802     		.uleb128 .L502-.LFB1252
 9186 06c4 00       		.uleb128 0
 9187 06c5 9C04     		.uleb128 .LEHB248-.LFB1252
 9188 06c7 3F       		.uleb128 .LEHE248-.LEHB248
 9189 06c8 F401     		.uleb128 .L501-.LFB1252
 9190 06ca 00       		.uleb128 0
 9191 06cb E504     		.uleb128 .LEHB249-.LFB1252
 9192 06cd 05       		.uleb128 .LEHE249-.LEHB249
 9193 06ce 8802     		.uleb128 .L502-.LFB1252
 9194 06d0 00       		.uleb128 0
 9195 06d1 F904     		.uleb128 .LEHB250-.LFB1252
 9196 06d3 1F       		.uleb128 .LEHE250-.LEHB250
 9197 06d4 9B02     		.uleb128 .L503-.LFB1252
 9198 06d6 00       		.uleb128 0
 9199 06d7 9805     		.uleb128 .LEHB251-.LFB1252
 9200 06d9 05       		.uleb128 .LEHE251-.LEHB251
 9201 06da 00       		.uleb128 0
 9202 06db 00       		.uleb128 0
 9203              	.LLSDACSE1252:
 9204 06dc 03       		.byte	0x3
 9205 06dd 00       		.byte	0
 9206 06de 02       		.byte	0x2
 9207 06df 7D       		.byte	0x7d
 9208 06e0 01       		.byte	0x1
 9209 06e1 7D       		.byte	0x7d
 9210 06e2 00       		.byte	0
 9211 06e3 7D       		.byte	0x7d
 9212              		.align 4
 9213 06e4 00000000 		.long	0
 9214              	
 9215 06e8 00000000 		.long	_ZTISt9exception
 9216 06ec 00000000 		.long	_ZTIN8UnitTest15AssertExceptionE
 9217              	.LLSDATT1252:
 9218              		.text
 9221              	_ZN8UnitTest11ExecuteTestIN12_GLOBAL__N_159FixtureCtorAssertsCorrectlyReportsAssertFailureInCtorHel
 9222              	.LFB1253:
  16:../ExecuteTest.h **** {
 9223              		.loc 8 16 0
 9224              		.cfi_startproc
 9225              		.cfi_personality 0x3,__gxx_personality_v0
 9226              		.cfi_lsda 0x3,.LLSDA1253
 9227 3f67 55       		pushq	%rbp
 9228              		.cfi_def_cfa_offset 16
 9229              		.cfi_offset 6, -16
 9230 3f68 4889E5   		movq	%rsp, %rbp
 9231              		.cfi_def_cfa_register 6
 9232 3f6b 4154     		pushq	%r12
 9233 3f6d 53       		pushq	%rbx
 9234 3f6e 4881EC20 		subq	$1568, %rsp
 9234      060000
 9235              		.cfi_offset 12, -24
 9236              		.cfi_offset 3, -32
 9237 3f75 4889BDD8 		movq	%rdi, -1576(%rbp)
 9237      F9FFFF
 9238 3f7c 4889B5D0 		movq	%rsi, -1584(%rbp)
 9238      F9FFFF
  16:../ExecuteTest.h **** {
 9239              		.loc 8 16 0
 9240 3f83 64488B04 		movq	%fs:40, %rax
 9240      25280000 
 9240      00
 9241 3f8c 488945E8 		movq	%rax, -24(%rbp)
 9242 3f90 31C0     		xorl	%eax, %eax
 9243              	.LEHB252:
 9244              	.LBB217:
  18:../ExecuteTest.h **** 
 9245              		.loc 8 18 0
 9246 3f92 E8000000 		call	_ZN8UnitTest11CurrentTest7DetailsEv
 9246      00
 9247              	.LEHE252:
 9248 3f97 4889C2   		movq	%rax, %rdx
 9249 3f9a 488B85D0 		movq	-1584(%rbp), %rax
 9249      F9FFFF
 9250 3fa1 488902   		movq	%rax, (%rdx)
 9251              	.LBB218:
  23:../ExecuteTest.h **** #endif
 9252              		.loc 8 23 0
 9253 3fa4 488D8580 		leaq	-1152(%rbp), %rax
 9253      FBFFFF
 9254 3fab 4889C7   		movq	%rax, %rdi
 9255              	.LEHB253:
 9256 3fae E8000000 		call	_ZN8UnitTest16SignalTranslatorC1Ev
 9256      00
 9257              	.LEHE253:
  23:../ExecuteTest.h **** #endif
 9258              		.loc 8 23 0 is_stmt 0 discriminator 1
 9259 3fb3 488B0500 		movq	_ZN8UnitTest16SignalTranslator12s_jumpTargetE(%rip), %rax
 9259      000000
 9260 3fba BE010000 		movl	$1, %esi
 9260      00
 9261 3fbf 4889C7   		movq	%rax, %rdi
 9262 3fc2 E8000000 		call	__sigsetjmp
 9262      00
 9263 3fc7 85C0     		testl	%eax, %eax
 9264 3fc9 0F95C0   		setne	%al
 9265 3fcc 84C0     		testb	%al, %al
 9266 3fce 7423     		je	.L527
  23:../ExecuteTest.h **** #endif
 9267              		.loc 8 23 0 discriminator 3
 9268 3fd0 BF080000 		movl	$8, %edi
 9268      00
 9269 3fd5 E8000000 		call	__cxa_allocate_exception
 9269      00
 9270 3fda 48C70000 		movq	$.LC75, (%rax)
 9270      000000
 9271 3fe1 BA000000 		movl	$0, %edx
 9271      00
 9272 3fe6 BE000000 		movl	$_ZTIPKc, %esi
 9272      00
 9273 3feb 4889C7   		movq	%rax, %rdi
 9274              	.LEHB254:
 9275 3fee E8000000 		call	__cxa_throw
 9275      00
 9276              	.LEHE254:
 9277              	.L527:
  25:../ExecuteTest.h **** 	}
 9278              		.loc 8 25 0 is_stmt 1
 9279 3ff3 488B85D8 		movq	-1576(%rbp), %rax
 9279      F9FFFF
 9280 3ffa 4889C7   		movq	%rax, %rdi
 9281 3ffd E89EEAFF 		call	_ZN12_GLOBAL__N_159FixtureCtorAssertsCorrectlyReportsAssertFailureInCtorHelper7RunImplEv
 9281      FF
 9282 4002 488D8580 		leaq	-1152(%rbp), %rax
 9282      FBFFFF
 9283 4009 4889C7   		movq	%rax, %rdi
 9284              	.LEHB255:
 9285 400c E8000000 		call	_ZN8UnitTest16SignalTranslatorD1Ev
 9285      00
 9286              	.LEHE255:
 9287              	.LBE218:
 9288              	.LBE217:
 9289              		.loc 8 42 0
 9290 4011 E9EE0100 		jmp	.L529
 9290      00
 9291              	.L522:
 9292 4016 4989C4   		movq	%rax, %r12
 9293 4019 4889D3   		movq	%rdx, %rbx
 9294              	.LBB226:
 9295              	.LBB219:
  25:../ExecuteTest.h **** 	}
 9296              		.loc 8 25 0
 9297 401c 488D8580 		leaq	-1152(%rbp), %rax
 9297      FBFFFF
 9298 4023 4889C7   		movq	%rax, %rdi
 9299 4026 E8000000 		call	_ZN8UnitTest16SignalTranslatorD1Ev
 9299      00
 9300 402b 4C89E0   		movq	%r12, %rax
 9301 402e 4889DA   		movq	%rbx, %rdx
 9302 4031 EB00     		jmp	.L511
 9303              	.L521:
 9304              	.L511:
 9305 4033 4883FA01 		cmpq	$1, %rdx
 9306 4037 745C     		je	.L513
 9307 4039 4883FA02 		cmpq	$2, %rdx
 9308 403d 0F84F300 		je	.L514
 9308      0000
 9309 4043 E9900100 		jmp	.L528
 9309      00
 9310              	.L523:
 9311 4048 4889C3   		movq	%rax, %rbx
 9312              	.LBE219:
 9313              	.LBB220:
  27:../ExecuteTest.h **** 	{
 9314              		.loc 8 27 0
 9315 404b E8000000 		call	__cxa_end_catch
 9315      00
 9316 4050 4889D8   		movq	%rbx, %rax
 9317 4053 4889C7   		movq	%rax, %rdi
 9318              	.LEHB256:
 9319 4056 E8000000 		call	_Unwind_Resume
 9319      00
 9320              	.LEHE256:
 9321              	.L524:
 9322 405b 4889C3   		movq	%rax, %rbx
 9323              	.LBE220:
 9324              	.LBB221:
 9325              	.LBB222:
  36:../ExecuteTest.h **** 	}
 9326              		.loc 8 36 0
 9327 405e 488D8510 		leaq	-1520(%rbp), %rax
 9327      FAFFFF
 9328 4065 4889C7   		movq	%rax, %rdi
 9329 4068 E8000000 		call	_ZN8UnitTest15MemoryOutStreamD1Ev
 9329      00
 9330 406d EB03     		jmp	.L517
 9331              	.L525:
 9332 406f 4889C3   		movq	%rax, %rbx
 9333              	.L517:
 9334              	.LBE222:
  32:../ExecuteTest.h **** 	{
 9335              		.loc 8 32 0
 9336 4072 E8000000 		call	__cxa_end_catch
 9336      00
 9337 4077 4889D8   		movq	%rbx, %rax
 9338 407a 4889C7   		movq	%rax, %rdi
 9339              	.LEHB257:
 9340 407d E8000000 		call	_Unwind_Resume
 9340      00
 9341              	.LEHE257:
 9342              	.L526:
 9343 4082 4889C3   		movq	%rax, %rbx
 9344              	.LBE221:
  38:../ExecuteTest.h **** 	{
 9345              		.loc 8 38 0
 9346 4085 E8000000 		call	__cxa_end_catch
 9346      00
 9347 408a 4889D8   		movq	%rbx, %rax
 9348 408d 4889C7   		movq	%rax, %rdi
 9349              	.LEHB258:
 9350 4090 E8000000 		call	_Unwind_Resume
 9350      00
 9351              	.LEHE258:
 9352              	.L513:
 9353              	.LBB224:
  27:../ExecuteTest.h **** 	{
 9354              		.loc 8 27 0
 9355 4095 4889C7   		movq	%rax, %rdi
 9356 4098 E8000000 		call	__cxa_begin_catch
 9356      00
 9357 409d 488985E0 		movq	%rax, -1568(%rbp)
 9357      F9FFFF
  30:../ExecuteTest.h **** 	}
 9358              		.loc 8 30 0
 9359 40a4 488B85E0 		movq	-1568(%rbp), %rax
 9359      F9FFFF
 9360 40ab 488B00   		movq	(%rax), %rax
 9361 40ae 4883C010 		addq	$16, %rax
 9362 40b2 488B00   		movq	(%rax), %rax
 9363 40b5 488B95E0 		movq	-1568(%rbp), %rdx
 9363      F9FFFF
 9364 40bc 4889D7   		movq	%rdx, %rdi
 9365 40bf FFD0     		call	*%rax
 9366 40c1 4889C3   		movq	%rax, %rbx
 9367 40c4 488B85E0 		movq	-1568(%rbp), %rax
 9367      F9FFFF
 9368 40cb 4889C7   		movq	%rax, %rdi
 9369              	.LEHB259:
 9370 40ce E8000000 		call	_ZNK8UnitTest15AssertException10LineNumberEv
 9370      00
  30:../ExecuteTest.h **** 	}
 9371              		.loc 8 30 0 is_stmt 0 discriminator 1
 9372 40d3 4189C4   		movl	%eax, %r12d
 9373 40d6 488B85E0 		movq	-1568(%rbp), %rax
 9373      F9FFFF
 9374 40dd 4889C7   		movq	%rax, %rdi
 9375 40e0 E8000000 		call	_ZNK8UnitTest15AssertException8FilenameEv
 9375      00
  30:../ExecuteTest.h **** 	}
 9376              		.loc 8 30 0 discriminator 2
 9377 40e5 4889C1   		movq	%rax, %rcx
 9378 40e8 488B85D0 		movq	-1584(%rbp), %rax
 9378      F9FFFF
 9379 40ef 488B10   		movq	(%rax), %rdx
 9380 40f2 488B85D0 		movq	-1584(%rbp), %rax
 9380      F9FFFF
 9381 40f9 488B7008 		movq	8(%rax), %rsi
 9382 40fd 488D85F0 		leaq	-1552(%rbp), %rax
 9382      F9FFFF
 9383 4104 4589E0   		movl	%r12d, %r8d
 9384 4107 4889C7   		movq	%rax, %rdi
 9385 410a E8000000 		call	_ZN8UnitTest11TestDetailsC1EPKcS2_S2_i
 9385      00
  29:../ExecuteTest.h **** 			TestDetails(details.testName, details.suiteName, e.Filename(), e.LineNumber()), e.what());
 9386              		.loc 8 29 0 is_stmt 1
 9387 410f E8000000 		call	_ZN8UnitTest11CurrentTest7ResultsEv
 9387      00
  30:../ExecuteTest.h **** 	}
 9388              		.loc 8 30 0
 9389 4114 488B00   		movq	(%rax), %rax
  29:../ExecuteTest.h **** 			TestDetails(details.testName, details.suiteName, e.Filename(), e.LineNumber()), e.what());
 9390              		.loc 8 29 0
 9391 4117 488D8DF0 		leaq	-1552(%rbp), %rcx
 9391      F9FFFF
 9392 411e 4889DA   		movq	%rbx, %rdx
 9393 4121 4889CE   		movq	%rcx, %rsi
 9394 4124 4889C7   		movq	%rax, %rdi
 9395 4127 E8000000 		call	_ZN8UnitTest11TestResults13OnTestFailureERKNS_11TestDetailsEPKc
 9395      00
 9396              	.LEHE259:
  27:../ExecuteTest.h **** 	{
 9397              		.loc 8 27 0
 9398 412c E8000000 		call	__cxa_end_catch
 9398      00
 9399              	.LBE224:
 9400              	.LBE226:
 9401              		.loc 8 42 0
 9402 4131 E9CE0000 		jmp	.L529
 9402      00
 9403              	.L514:
 9404              	.LBB227:
 9405              	.LBB225:
  32:../ExecuteTest.h **** 	{
 9406              		.loc 8 32 0
 9407 4136 4889C7   		movq	%rax, %rdi
 9408 4139 E8000000 		call	__cxa_begin_catch
 9408      00
 9409 413e 488985E8 		movq	%rax, -1560(%rbp)
 9409      F9FFFF
 9410              	.LBB223:
  34:../ExecuteTest.h **** 		stream << "Unhandled exception: " << e.what();
 9411              		.loc 8 34 0
 9412 4145 488D8510 		leaq	-1520(%rbp), %rax
 9412      FAFFFF
 9413 414c 4889C7   		movq	%rax, %rdi
 9414              	.LEHB260:
 9415 414f E8000000 		call	_ZN8UnitTest15MemoryOutStreamC1Ev
 9415      00
 9416              	.LEHE260:
  35:../ExecuteTest.h **** 		CurrentTest::Results()->OnTestFailure(details, stream.GetText());
 9417              		.loc 8 35 0
 9418 4154 488B85E8 		movq	-1560(%rbp), %rax
 9418      F9FFFF
 9419 415b 488B00   		movq	(%rax), %rax
 9420 415e 4883C010 		addq	$16, %rax
 9421 4162 488B00   		movq	(%rax), %rax
 9422 4165 488B95E8 		movq	-1560(%rbp), %rdx
 9422      F9FFFF
 9423 416c 4889D7   		movq	%rdx, %rdi
 9424 416f FFD0     		call	*%rax
 9425 4171 4889C3   		movq	%rax, %rbx
 9426 4174 488D8510 		leaq	-1520(%rbp), %rax
 9426      FAFFFF
 9427 417b BE000000 		movl	$.LC11, %esi
 9427      00
 9428 4180 4889C7   		movq	%rax, %rdi
 9429              	.LEHB261:
 9430 4183 E8000000 		call	_ZStlsISt11char_traitsIcEERSt13basic_ostreamIcT_ES5_PKc
 9430      00
  35:../ExecuteTest.h **** 		CurrentTest::Results()->OnTestFailure(details, stream.GetText());
 9431              		.loc 8 35 0 is_stmt 0 discriminator 1
 9432 4188 4889DE   		movq	%rbx, %rsi
 9433 418b 4889C7   		movq	%rax, %rdi
 9434 418e E8000000 		call	_ZStlsISt11char_traitsIcEERSt13basic_ostreamIcT_ES5_PKc
 9434      00
  36:../ExecuteTest.h **** 	}
 9435              		.loc 8 36 0 is_stmt 1
 9436 4193 488D8510 		leaq	-1520(%rbp), %rax
 9436      FAFFFF
 9437 419a 4889C7   		movq	%rax, %rdi
 9438 419d E8000000 		call	_ZNK8UnitTest15MemoryOutStream7GetTextEv
 9438      00
 9439 41a2 4889C3   		movq	%rax, %rbx
 9440 41a5 E8000000 		call	_ZN8UnitTest11CurrentTest7ResultsEv
 9440      00
  36:../ExecuteTest.h **** 	}
 9441              		.loc 8 36 0 is_stmt 0 discriminator 2
 9442 41aa 488B00   		movq	(%rax), %rax
 9443 41ad 488B8DD0 		movq	-1584(%rbp), %rcx
 9443      F9FFFF
 9444 41b4 4889DA   		movq	%rbx, %rdx
 9445 41b7 4889CE   		movq	%rcx, %rsi
 9446 41ba 4889C7   		movq	%rax, %rdi
 9447 41bd E8000000 		call	_ZN8UnitTest11TestResults13OnTestFailureERKNS_11TestDetailsEPKc
 9447      00
 9448              	.LEHE261:
  36:../ExecuteTest.h **** 	}
 9449              		.loc 8 36 0 discriminator 6
 9450 41c2 488D8510 		leaq	-1520(%rbp), %rax
 9450      FAFFFF
 9451 41c9 4889C7   		movq	%rax, %rdi
 9452              	.LEHB262:
 9453 41cc E8000000 		call	_ZN8UnitTest15MemoryOutStreamD1Ev
 9453      00
 9454              	.LEHE262:
 9455              	.LBE223:
  32:../ExecuteTest.h **** 	{
 9456              		.loc 8 32 0 is_stmt 1
 9457 41d1 E8000000 		call	__cxa_end_catch
 9457      00
 9458              	.LBE225:
 9459              	.LBE227:
 9460              		.loc 8 42 0
 9461 41d6 EB2C     		jmp	.L529
 9462              	.L528:
 9463              	.LBB228:
  38:../ExecuteTest.h **** 	{
 9464              		.loc 8 38 0
 9465 41d8 4889C7   		movq	%rax, %rdi
 9466 41db E8000000 		call	__cxa_begin_catch
 9466      00
 9467              	.LEHB263:
  40:../ExecuteTest.h **** 	}
 9468              		.loc 8 40 0
 9469 41e0 E8000000 		call	_ZN8UnitTest11CurrentTest7ResultsEv
 9469      00
 9470 41e5 488B00   		movq	(%rax), %rax
 9471 41e8 488B8DD0 		movq	-1584(%rbp), %rcx
 9471      F9FFFF
 9472 41ef BA000000 		movl	$.LC76, %edx
 9472      00
 9473 41f4 4889CE   		movq	%rcx, %rsi
 9474 41f7 4889C7   		movq	%rax, %rdi
 9475 41fa E8000000 		call	_ZN8UnitTest11TestResults13OnTestFailureERKNS_11TestDetailsEPKc
 9475      00
 9476              	.LEHE263:
 9477              	.LEHB264:
  38:../ExecuteTest.h **** 	{
 9478              		.loc 8 38 0
 9479 41ff E8000000 		call	__cxa_end_catch
 9479      00
 9480              	.LEHE264:
 9481              	.L529:
 9482              	.LBE228:
 9483              		.loc 8 42 0
 9484 4204 90       		nop
 9485 4205 488B45E8 		movq	-24(%rbp), %rax
 9486 4209 64483304 		xorq	%fs:40, %rax
 9486      25280000 
 9486      00
 9487 4212 7405     		je	.L520
 9488 4214 E8000000 		call	__stack_chk_fail
 9488      00
 9489              	.L520:
 9490 4219 4881C420 		addq	$1568, %rsp
 9490      060000
 9491 4220 5B       		popq	%rbx
 9492 4221 415C     		popq	%r12
 9493 4223 5D       		popq	%rbp
 9494              		.cfi_def_cfa 7, 8
 9495 4224 C3       		ret
 9496              		.cfi_endproc
 9497              	.LFE1253:
 9498              		.section	.gcc_except_table
 9499              		.align 4
 9500              	.LLSDA1253:
 9501 06f0 FF       		.byte	0xff
 9502 06f1 03       		.byte	0x3
 9503 06f2 5D       		.uleb128 .LLSDATT1253-.LLSDATTD1253
 9504              	.LLSDATTD1253:
 9505 06f3 01       		.byte	0x1
 9506 06f4 47       		.uleb128 .LLSDACSE1253-.LLSDACSB1253
 9507              	.LLSDACSB1253:
 9508 06f5 2B       		.uleb128 .LEHB252-.LFB1253
 9509 06f6 05       		.uleb128 .LEHE252-.LEHB252
 9510 06f7 00       		.uleb128 0
 9511 06f8 00       		.uleb128 0
 9512 06f9 47       		.uleb128 .LEHB253-.LFB1253
 9513 06fa 05       		.uleb128 .LEHE253-.LEHB253
 9514 06fb CC01     		.uleb128 .L521-.LFB1253
 9515 06fd 05       		.uleb128 0x5
 9516 06fe 8701     		.uleb128 .LEHB254-.LFB1253
 9517 0700 05       		.uleb128 .LEHE254-.LEHB254
 9518 0701 AF01     		.uleb128 .L522-.LFB1253
 9519 0703 07       		.uleb128 0x7
 9520 0704 A501     		.uleb128 .LEHB255-.LFB1253
 9521 0706 05       		.uleb128 .LEHE255-.LEHB255
 9522 0707 CC01     		.uleb128 .L521-.LFB1253
 9523 0709 05       		.uleb128 0x5
 9524 070a EF01     		.uleb128 .LEHB256-.LFB1253
 9525 070c 05       		.uleb128 .LEHE256-.LEHB256
 9526 070d 00       		.uleb128 0
 9527 070e 00       		.uleb128 0
 9528 070f 9602     		.uleb128 .LEHB257-.LFB1253
 9529 0711 05       		.uleb128 .LEHE257-.LEHB257
 9530 0712 00       		.uleb128 0
 9531 0713 00       		.uleb128 0
 9532 0714 A902     		.uleb128 .LEHB258-.LFB1253
 9533 0716 05       		.uleb128 .LEHE258-.LEHB258
 9534 0717 00       		.uleb128 0
 9535 0718 00       		.uleb128 0
 9536 0719 E702     		.uleb128 .LEHB259-.LFB1253
 9537 071b 5E       		.uleb128 .LEHE259-.LEHB259
 9538 071c E101     		.uleb128 .L523-.LFB1253
 9539 071e 00       		.uleb128 0
 9540 071f E803     		.uleb128 .LEHB260-.LFB1253
 9541 0721 05       		.uleb128 .LEHE260-.LEHB260
 9542 0722 8802     		.uleb128 .L525-.LFB1253
 9543 0724 00       		.uleb128 0
 9544 0725 9C04     		.uleb128 .LEHB261-.LFB1253
 9545 0727 3F       		.uleb128 .LEHE261-.LEHB261
 9546 0728 F401     		.uleb128 .L524-.LFB1253
 9547 072a 00       		.uleb128 0
 9548 072b E504     		.uleb128 .LEHB262-.LFB1253
 9549 072d 05       		.uleb128 .LEHE262-.LEHB262
 9550 072e 8802     		.uleb128 .L525-.LFB1253
 9551 0730 00       		.uleb128 0
 9552 0731 F904     		.uleb128 .LEHB263-.LFB1253
 9553 0733 1F       		.uleb128 .LEHE263-.LEHB263
 9554 0734 9B02     		.uleb128 .L526-.LFB1253
 9555 0736 00       		.uleb128 0
 9556 0737 9805     		.uleb128 .LEHB264-.LFB1253
 9557 0739 05       		.uleb128 .LEHE264-.LEHB264
 9558 073a 00       		.uleb128 0
 9559 073b 00       		.uleb128 0
 9560              	.LLSDACSE1253:
 9561 073c 03       		.byte	0x3
 9562 073d 00       		.byte	0
 9563 073e 02       		.byte	0x2
 9564 073f 7D       		.byte	0x7d
 9565 0740 01       		.byte	0x1
 9566 0741 7D       		.byte	0x7d
 9567 0742 00       		.byte	0
 9568 0743 7D       		.byte	0x7d
 9569              		.align 4
 9570 0744 00000000 		.long	0
 9571              	
 9572 0748 00000000 		.long	_ZTISt9exception
 9573 074c 00000000 		.long	_ZTIN8UnitTest15AssertExceptionE
 9574              	.LLSDATT1253:
 9575              		.text
 9577              		.weak	_ZTV44TestCurrentTestDetailsContainCurrentTestInfo
 9578              		.section	.rodata._ZTV44TestCurrentTestDetailsContainCurrentTestInfo,"aG",@progbits,_ZTV44TestCurre
 9579              		.align 32
 9582              	_ZTV44TestCurrentTestDetailsContainCurrentTestInfo:
 9583 0000 00000000 		.quad	0
 9583      00000000 
 9584 0008 00000000 		.quad	_ZTI44TestCurrentTestDetailsContainCurrentTestInfo
 9584      00000000 
 9585 0010 00000000 		.quad	_ZN44TestCurrentTestDetailsContainCurrentTestInfoD1Ev
 9585      00000000 
 9586 0018 00000000 		.quad	_ZN44TestCurrentTestDetailsContainCurrentTestInfoD0Ev
 9586      00000000 
 9587 0020 00000000 		.quad	_ZNK44TestCurrentTestDetailsContainCurrentTestInfo7RunImplEv
 9587      00000000 
 9588              		.section	.text._ZN44TestCurrentTestDetailsContainCurrentTestInfoD2Ev,"axG",@progbits,_ZN44TestCurr
 9589              		.align 2
 9590              		.weak	_ZN44TestCurrentTestDetailsContainCurrentTestInfoD2Ev
 9592              	_ZN44TestCurrentTestDetailsContainCurrentTestInfoD2Ev:
 9593              	.LFB1302:
 204:TestTestMacros.cpp **** {
 9594              		.loc 6 204 0
 9595              		.cfi_startproc
 9596 0000 55       		pushq	%rbp
 9597              		.cfi_def_cfa_offset 16
 9598              		.cfi_offset 6, -16
 9599 0001 4889E5   		movq	%rsp, %rbp
 9600              		.cfi_def_cfa_register 6
 9601 0004 4883EC10 		subq	$16, %rsp
 9602 0008 48897DF8 		movq	%rdi, -8(%rbp)
 9603              	.LBB229:
 204:TestTestMacros.cpp **** {
 9604              		.loc 6 204 0
 9605 000c 488B45F8 		movq	-8(%rbp), %rax
 9606 0010 48C70000 		movq	$_ZTV44TestCurrentTestDetailsContainCurrentTestInfo+16, (%rax)
 9606      000000
 9607 0017 488B45F8 		movq	-8(%rbp), %rax
 9608 001b 4889C7   		movq	%rax, %rdi
 9609 001e E8000000 		call	_ZN8UnitTest4TestD2Ev
 9609      00
 9610              	.LBE229:
 9611 0023 B8000000 		movl	$0, %eax
 9611      00
 9612 0028 85C0     		testl	%eax, %eax
 9613 002a 740C     		je	.L530
 204:TestTestMacros.cpp **** {
 9614              		.loc 6 204 0 is_stmt 0 discriminator 4
 9615 002c 488B45F8 		movq	-8(%rbp), %rax
 9616 0030 4889C7   		movq	%rax, %rdi
 9617 0033 E8000000 		call	_ZdlPv
 9617      00
 9618              	.L530:
 204:TestTestMacros.cpp **** {
 9619              		.loc 6 204 0
 9620 0038 C9       		leave
 9621              		.cfi_def_cfa 7, 8
 9622 0039 C3       		ret
 9623              		.cfi_endproc
 9624              	.LFE1302:
 9626              		.weak	_ZN44TestCurrentTestDetailsContainCurrentTestInfoD1Ev
 9627              		.set	_ZN44TestCurrentTestDetailsContainCurrentTestInfoD1Ev,_ZN44TestCurrentTestDetailsContainCurre
 9628              		.section	.text._ZN44TestCurrentTestDetailsContainCurrentTestInfoD0Ev,"axG",@progbits,_ZN44TestCurr
 9629              		.align 2
 9630              		.weak	_ZN44TestCurrentTestDetailsContainCurrentTestInfoD0Ev
 9632              	_ZN44TestCurrentTestDetailsContainCurrentTestInfoD0Ev:
 9633              	.LFB1304:
 204:TestTestMacros.cpp **** {
 9634              		.loc 6 204 0 is_stmt 1
 9635              		.cfi_startproc
 9636 0000 55       		pushq	%rbp
 9637              		.cfi_def_cfa_offset 16
 9638              		.cfi_offset 6, -16
 9639 0001 4889E5   		movq	%rsp, %rbp
 9640              		.cfi_def_cfa_register 6
 9641 0004 4883EC10 		subq	$16, %rsp
 9642 0008 48897DF8 		movq	%rdi, -8(%rbp)
 204:TestTestMacros.cpp **** {
 9643              		.loc 6 204 0
 9644 000c 488B45F8 		movq	-8(%rbp), %rax
 9645 0010 4889C7   		movq	%rax, %rdi
 9646 0013 E8000000 		call	_ZN44TestCurrentTestDetailsContainCurrentTestInfoD1Ev
 9646      00
 9647 0018 488B45F8 		movq	-8(%rbp), %rax
 9648 001c 4889C7   		movq	%rax, %rdi
 9649 001f E8000000 		call	_ZdlPv
 9649      00
 9650 0024 C9       		leave
 9651              		.cfi_def_cfa 7, 8
 9652 0025 C3       		ret
 9653              		.cfi_endproc
 9654              	.LFE1304:
 9656              		.weak	_ZTVN18SuiteSameTestSuite14TestDummyTest1E
 9657              		.section	.rodata._ZTVN18SuiteSameTestSuite14TestDummyTest1E,"aG",@progbits,_ZTVN18SuiteSameTestSui
 9658              		.align 32
 9661              	_ZTVN18SuiteSameTestSuite14TestDummyTest1E:
 9662 0000 00000000 		.quad	0
 9662      00000000 
 9663 0008 00000000 		.quad	_ZTIN18SuiteSameTestSuite14TestDummyTest1E
 9663      00000000 
 9664 0010 00000000 		.quad	_ZN18SuiteSameTestSuite14TestDummyTest1D1Ev
 9664      00000000 
 9665 0018 00000000 		.quad	_ZN18SuiteSameTestSuite14TestDummyTest1D0Ev
 9665      00000000 
 9666 0020 00000000 		.quad	_ZNK18SuiteSameTestSuite14TestDummyTest17RunImplEv
 9666      00000000 
 9667              		.section	.text._ZN18SuiteSameTestSuite14TestDummyTest1D2Ev,"axG",@progbits,_ZN18SuiteSameTestSuite
 9668              		.align 2
 9669              		.weak	_ZN18SuiteSameTestSuite14TestDummyTest1D2Ev
 9671              	_ZN18SuiteSameTestSuite14TestDummyTest1D2Ev:
 9672              	.LFB1306:
 195:TestTestMacros.cpp **** 	{
 9673              		.loc 6 195 0
 9674              		.cfi_startproc
 9675 0000 55       		pushq	%rbp
 9676              		.cfi_def_cfa_offset 16
 9677              		.cfi_offset 6, -16
 9678 0001 4889E5   		movq	%rsp, %rbp
 9679              		.cfi_def_cfa_register 6
 9680 0004 4883EC10 		subq	$16, %rsp
 9681 0008 48897DF8 		movq	%rdi, -8(%rbp)
 9682              	.LBB230:
 195:TestTestMacros.cpp **** 	{
 9683              		.loc 6 195 0
 9684 000c 488B45F8 		movq	-8(%rbp), %rax
 9685 0010 48C70000 		movq	$_ZTVN18SuiteSameTestSuite14TestDummyTest1E+16, (%rax)
 9685      000000
 9686 0017 488B45F8 		movq	-8(%rbp), %rax
 9687 001b 4889C7   		movq	%rax, %rdi
 9688 001e E8000000 		call	_ZN8UnitTest4TestD2Ev
 9688      00
 9689              	.LBE230:
 9690 0023 B8000000 		movl	$0, %eax
 9690      00
 9691 0028 85C0     		testl	%eax, %eax
 9692 002a 740C     		je	.L535
 195:TestTestMacros.cpp **** 	{
 9693              		.loc 6 195 0 is_stmt 0 discriminator 4
 9694 002c 488B45F8 		movq	-8(%rbp), %rax
 9695 0030 4889C7   		movq	%rax, %rdi
 9696 0033 E8000000 		call	_ZdlPv
 9696      00
 9697              	.L535:
 195:TestTestMacros.cpp **** 	{
 9698              		.loc 6 195 0
 9699 0038 C9       		leave
 9700              		.cfi_def_cfa 7, 8
 9701 0039 C3       		ret
 9702              		.cfi_endproc
 9703              	.LFE1306:
 9705              		.weak	_ZN18SuiteSameTestSuite14TestDummyTest1D1Ev
 9706              		.set	_ZN18SuiteSameTestSuite14TestDummyTest1D1Ev,_ZN18SuiteSameTestSuite14TestDummyTest1D2Ev
 9707              		.section	.text._ZN18SuiteSameTestSuite14TestDummyTest1D0Ev,"axG",@progbits,_ZN18SuiteSameTestSuite
 9708              		.align 2
 9709              		.weak	_ZN18SuiteSameTestSuite14TestDummyTest1D0Ev
 9711              	_ZN18SuiteSameTestSuite14TestDummyTest1D0Ev:
 9712              	.LFB1308:
 195:TestTestMacros.cpp **** 	{
 9713              		.loc 6 195 0 is_stmt 1
 9714              		.cfi_startproc
 9715 0000 55       		pushq	%rbp
 9716              		.cfi_def_cfa_offset 16
 9717              		.cfi_offset 6, -16
 9718 0001 4889E5   		movq	%rsp, %rbp
 9719              		.cfi_def_cfa_register 6
 9720 0004 4883EC10 		subq	$16, %rsp
 9721 0008 48897DF8 		movq	%rdi, -8(%rbp)
 195:TestTestMacros.cpp **** 	{
 9722              		.loc 6 195 0
 9723 000c 488B45F8 		movq	-8(%rbp), %rax
 9724 0010 4889C7   		movq	%rax, %rdi
 9725 0013 E8000000 		call	_ZN18SuiteSameTestSuite14TestDummyTest1D1Ev
 9725      00
 9726 0018 488B45F8 		movq	-8(%rbp), %rax
 9727 001c 4889C7   		movq	%rax, %rdi
 9728 001f E8000000 		call	_ZdlPv
 9728      00
 9729 0024 C9       		leave
 9730              		.cfi_def_cfa 7, 8
 9731 0025 C3       		ret
 9732              		.cfi_endproc
 9733              	.LFE1308:
 9735              		.section	.rodata
 9736 0e83 00000000 		.align 32
 9736      00000000 
 9736      00000000 
 9736      00000000 
 9736      00000000 
 9739              	_ZTVN12_GLOBAL__N_147TestCorrectlyReportsFixturesWithCtorsThatAssertE:
 9740 0ea0 00000000 		.quad	0
 9740      00000000 
 9741 0ea8 00000000 		.quad	_ZTIN12_GLOBAL__N_147TestCorrectlyReportsFixturesWithCtorsThatAssertE
 9741      00000000 
 9742 0eb0 00000000 		.quad	_ZN12_GLOBAL__N_147TestCorrectlyReportsFixturesWithCtorsThatAssertD1Ev
 9742      00000000 
 9743 0eb8 00000000 		.quad	_ZN12_GLOBAL__N_147TestCorrectlyReportsFixturesWithCtorsThatAssertD0Ev
 9743      00000000 
 9744 0ec0 00000000 		.quad	_ZNK12_GLOBAL__N_147TestCorrectlyReportsFixturesWithCtorsThatAssert7RunImplEv
 9744      00000000 
 9745              		.text
 9746 4225 90       		.align 2
 9748              	_ZN12_GLOBAL__N_147TestCorrectlyReportsFixturesWithCtorsThatAssertD2Ev:
 9749              	.LFB1310:
 173:TestTestMacros.cpp **** {
 9750              		.loc 6 173 0
 9751              		.cfi_startproc
 9752 4226 55       		pushq	%rbp
 9753              		.cfi_def_cfa_offset 16
 9754              		.cfi_offset 6, -16
 9755 4227 4889E5   		movq	%rsp, %rbp
 9756              		.cfi_def_cfa_register 6
 9757 422a 4883EC10 		subq	$16, %rsp
 9758 422e 48897DF8 		movq	%rdi, -8(%rbp)
 9759              	.LBB231:
 173:TestTestMacros.cpp **** {
 9760              		.loc 6 173 0
 9761 4232 488B45F8 		movq	-8(%rbp), %rax
 9762 4236 48C70000 		movq	$_ZTVN12_GLOBAL__N_147TestCorrectlyReportsFixturesWithCtorsThatAssertE+16, (%rax)
 9762      000000
 9763 423d 488B45F8 		movq	-8(%rbp), %rax
 9764 4241 4889C7   		movq	%rax, %rdi
 9765 4244 E8000000 		call	_ZN8UnitTest4TestD2Ev
 9765      00
 9766              	.LBE231:
 9767 4249 B8000000 		movl	$0, %eax
 9767      00
 9768 424e 85C0     		testl	%eax, %eax
 9769 4250 740C     		je	.L540
 173:TestTestMacros.cpp **** {
 9770              		.loc 6 173 0 is_stmt 0 discriminator 4
 9771 4252 488B45F8 		movq	-8(%rbp), %rax
 9772 4256 4889C7   		movq	%rax, %rdi
 9773 4259 E8000000 		call	_ZdlPv
 9773      00
 9774              	.L540:
 173:TestTestMacros.cpp **** {
 9775              		.loc 6 173 0
 9776 425e C9       		leave
 9777              		.cfi_def_cfa 7, 8
 9778 425f C3       		ret
 9779              		.cfi_endproc
 9780              	.LFE1310:
 9782              		.set	_ZN12_GLOBAL__N_147TestCorrectlyReportsFixturesWithCtorsThatAssertD1Ev,_ZN12_GLOBAL__N_147Tes
 9783              		.align 2
 9785              	_ZN12_GLOBAL__N_147TestCorrectlyReportsFixturesWithCtorsThatAssertD0Ev:
 9786              	.LFB1312:
 173:TestTestMacros.cpp **** {
 9787              		.loc 6 173 0 is_stmt 1
 9788              		.cfi_startproc
 9789 4260 55       		pushq	%rbp
 9790              		.cfi_def_cfa_offset 16
 9791              		.cfi_offset 6, -16
 9792 4261 4889E5   		movq	%rsp, %rbp
 9793              		.cfi_def_cfa_register 6
 9794 4264 4883EC10 		subq	$16, %rsp
 9795 4268 48897DF8 		movq	%rdi, -8(%rbp)
 173:TestTestMacros.cpp **** {
 9796              		.loc 6 173 0
 9797 426c 488B45F8 		movq	-8(%rbp), %rax
 9798 4270 4889C7   		movq	%rax, %rdi
 9799 4273 E8AEFFFF 		call	_ZN12_GLOBAL__N_147TestCorrectlyReportsFixturesWithCtorsThatAssertD2Ev
 9799      FF
 9800 4278 488B45F8 		movq	-8(%rbp), %rax
 9801 427c 4889C7   		movq	%rax, %rdi
 9802 427f E8000000 		call	_ZdlPv
 9802      00
 9803 4284 C9       		leave
 9804              		.cfi_def_cfa 7, 8
 9805 4285 C3       		ret
 9806              		.cfi_endproc
 9807              	.LFE1312:
 9809              		.section	.rodata
 9810 0ec8 00000000 		.align 32
 9810      00000000 
 9810      00000000 
 9810      00000000 
 9810      00000000 
 9813              	_ZTVN12_GLOBAL__N_157TestFixtureCtorAssertsCorrectlyReportsAssertFailureInCtorE:
 9814 0ee0 00000000 		.quad	0
 9814      00000000 
 9815 0ee8 00000000 		.quad	_ZTIN12_GLOBAL__N_157TestFixtureCtorAssertsCorrectlyReportsAssertFailureInCtorE
 9815      00000000 
 9816 0ef0 00000000 		.quad	_ZN12_GLOBAL__N_157TestFixtureCtorAssertsCorrectlyReportsAssertFailureInCtorD1Ev
 9816      00000000 
 9817 0ef8 00000000 		.quad	_ZN12_GLOBAL__N_157TestFixtureCtorAssertsCorrectlyReportsAssertFailureInCtorD0Ev
 9817      00000000 
 9818 0f00 00000000 		.quad	_ZNK12_GLOBAL__N_157TestFixtureCtorAssertsCorrectlyReportsAssertFailureInCtor7RunImplEv
 9818      00000000 
 9819              		.text
 9820              		.align 2
 9822              	_ZN12_GLOBAL__N_157TestFixtureCtorAssertsCorrectlyReportsAssertFailureInCtorD2Ev:
 9823              	.LFB1314:
 169:TestTestMacros.cpp **** {
 9824              		.loc 6 169 0
 9825              		.cfi_startproc
 9826 4286 55       		pushq	%rbp
 9827              		.cfi_def_cfa_offset 16
 9828              		.cfi_offset 6, -16
 9829 4287 4889E5   		movq	%rsp, %rbp
 9830              		.cfi_def_cfa_register 6
 9831 428a 4883EC10 		subq	$16, %rsp
 9832 428e 48897DF8 		movq	%rdi, -8(%rbp)
 9833              	.LBB232:
 169:TestTestMacros.cpp **** {
 9834              		.loc 6 169 0
 9835 4292 488B45F8 		movq	-8(%rbp), %rax
 9836 4296 48C70000 		movq	$_ZTVN12_GLOBAL__N_157TestFixtureCtorAssertsCorrectlyReportsAssertFailureInCtorE+16, (%rax)
 9836      000000
 9837 429d 488B45F8 		movq	-8(%rbp), %rax
 9838 42a1 4889C7   		movq	%rax, %rdi
 9839 42a4 E8000000 		call	_ZN8UnitTest4TestD2Ev
 9839      00
 9840              	.LBE232:
 9841 42a9 B8000000 		movl	$0, %eax
 9841      00
 9842 42ae 85C0     		testl	%eax, %eax
 9843 42b0 740C     		je	.L545
 169:TestTestMacros.cpp **** {
 9844              		.loc 6 169 0 is_stmt 0 discriminator 4
 9845 42b2 488B45F8 		movq	-8(%rbp), %rax
 9846 42b6 4889C7   		movq	%rax, %rdi
 9847 42b9 E8000000 		call	_ZdlPv
 9847      00
 9848              	.L545:
 169:TestTestMacros.cpp **** {
 9849              		.loc 6 169 0
 9850 42be C9       		leave
 9851              		.cfi_def_cfa 7, 8
 9852 42bf C3       		ret
 9853              		.cfi_endproc
 9854              	.LFE1314:
 9856              		.set	_ZN12_GLOBAL__N_157TestFixtureCtorAssertsCorrectlyReportsAssertFailureInCtorD1Ev,_ZN12_GLOBAL
 9857              		.align 2
 9859              	_ZN12_GLOBAL__N_157TestFixtureCtorAssertsCorrectlyReportsAssertFailureInCtorD0Ev:
 9860              	.LFB1316:
 169:TestTestMacros.cpp **** {
 9861              		.loc 6 169 0 is_stmt 1
 9862              		.cfi_startproc
 9863 42c0 55       		pushq	%rbp
 9864              		.cfi_def_cfa_offset 16
 9865              		.cfi_offset 6, -16
 9866 42c1 4889E5   		movq	%rsp, %rbp
 9867              		.cfi_def_cfa_register 6
 9868 42c4 4883EC10 		subq	$16, %rsp
 9869 42c8 48897DF8 		movq	%rdi, -8(%rbp)
 169:TestTestMacros.cpp **** {
 9870              		.loc 6 169 0
 9871 42cc 488B45F8 		movq	-8(%rbp), %rax
 9872 42d0 4889C7   		movq	%rax, %rdi
 9873 42d3 E8AEFFFF 		call	_ZN12_GLOBAL__N_157TestFixtureCtorAssertsCorrectlyReportsAssertFailureInCtorD2Ev
 9873      FF
 9874 42d8 488B45F8 		movq	-8(%rbp), %rax
 9875 42dc 4889C7   		movq	%rax, %rdi
 9876 42df E8000000 		call	_ZdlPv
 9876      00
 9877 42e4 C9       		leave
 9878              		.cfi_def_cfa 7, 8
 9879 42e5 C3       		ret
 9880              		.cfi_endproc
 9881              	.LFE1316:
 9883              		.section	.rodata
 9884 0f08 00000000 		.align 32
 9884      00000000 
 9884      00000000 
 9884      00000000 
 9884      00000000 
 9887              	_ZTVN12_GLOBAL__N_140TestFixturesWithThrowingDtorsAreFailuresE:
 9888 0f20 00000000 		.quad	0
 9888      00000000 
 9889 0f28 00000000 		.quad	_ZTIN12_GLOBAL__N_140TestFixturesWithThrowingDtorsAreFailuresE
 9889      00000000 
 9890 0f30 00000000 		.quad	_ZN12_GLOBAL__N_140TestFixturesWithThrowingDtorsAreFailuresD1Ev
 9890      00000000 
 9891 0f38 00000000 		.quad	_ZN12_GLOBAL__N_140TestFixturesWithThrowingDtorsAreFailuresD0Ev
 9891      00000000 
 9892 0f40 00000000 		.quad	_ZNK12_GLOBAL__N_140TestFixturesWithThrowingDtorsAreFailures7RunImplEv
 9892      00000000 
 9893              		.text
 9894              		.align 2
 9896              	_ZN12_GLOBAL__N_140TestFixturesWithThrowingDtorsAreFailuresD2Ev:
 9897              	.LFB1318:
 142:TestTestMacros.cpp **** {
 9898              		.loc 6 142 0
 9899              		.cfi_startproc
 9900 42e6 55       		pushq	%rbp
 9901              		.cfi_def_cfa_offset 16
 9902              		.cfi_offset 6, -16
 9903 42e7 4889E5   		movq	%rsp, %rbp
 9904              		.cfi_def_cfa_register 6
 9905 42ea 4883EC10 		subq	$16, %rsp
 9906 42ee 48897DF8 		movq	%rdi, -8(%rbp)
 9907              	.LBB233:
 142:TestTestMacros.cpp **** {
 9908              		.loc 6 142 0
 9909 42f2 488B45F8 		movq	-8(%rbp), %rax
 9910 42f6 48C70000 		movq	$_ZTVN12_GLOBAL__N_140TestFixturesWithThrowingDtorsAreFailuresE+16, (%rax)
 9910      000000
 9911 42fd 488B45F8 		movq	-8(%rbp), %rax
 9912 4301 4889C7   		movq	%rax, %rdi
 9913 4304 E8000000 		call	_ZN8UnitTest4TestD2Ev
 9913      00
 9914              	.LBE233:
 9915 4309 B8000000 		movl	$0, %eax
 9915      00
 9916 430e 85C0     		testl	%eax, %eax
 9917 4310 740C     		je	.L550
 142:TestTestMacros.cpp **** {
 9918              		.loc 6 142 0 is_stmt 0 discriminator 4
 9919 4312 488B45F8 		movq	-8(%rbp), %rax
 9920 4316 4889C7   		movq	%rax, %rdi
 9921 4319 E8000000 		call	_ZdlPv
 9921      00
 9922              	.L550:
 142:TestTestMacros.cpp **** {
 9923              		.loc 6 142 0
 9924 431e C9       		leave
 9925              		.cfi_def_cfa 7, 8
 9926 431f C3       		ret
 9927              		.cfi_endproc
 9928              	.LFE1318:
 9930              		.set	_ZN12_GLOBAL__N_140TestFixturesWithThrowingDtorsAreFailuresD1Ev,_ZN12_GLOBAL__N_140TestFixtur
 9931              		.align 2
 9933              	_ZN12_GLOBAL__N_140TestFixturesWithThrowingDtorsAreFailuresD0Ev:
 9934              	.LFB1320:
 142:TestTestMacros.cpp **** {
 9935              		.loc 6 142 0 is_stmt 1
 9936              		.cfi_startproc
 9937 4320 55       		pushq	%rbp
 9938              		.cfi_def_cfa_offset 16
 9939              		.cfi_offset 6, -16
 9940 4321 4889E5   		movq	%rsp, %rbp
 9941              		.cfi_def_cfa_register 6
 9942 4324 4883EC10 		subq	$16, %rsp
 9943 4328 48897DF8 		movq	%rdi, -8(%rbp)
 142:TestTestMacros.cpp **** {
 9944              		.loc 6 142 0
 9945 432c 488B45F8 		movq	-8(%rbp), %rax
 9946 4330 4889C7   		movq	%rax, %rdi
 9947 4333 E8AEFFFF 		call	_ZN12_GLOBAL__N_140TestFixturesWithThrowingDtorsAreFailuresD2Ev
 9947      FF
 9948 4338 488B45F8 		movq	-8(%rbp), %rax
 9949 433c 4889C7   		movq	%rax, %rdi
 9950 433f E8000000 		call	_ZdlPv
 9950      00
 9951 4344 C9       		leave
 9952              		.cfi_def_cfa 7, 8
 9953 4345 C3       		ret
 9954              		.cfi_endproc
 9955              	.LFE1320:
 9957              		.section	.rodata
 9958 0f48 00000000 		.align 32
 9958      00000000 
 9958      00000000 
 9958      00000000 
 9958      00000000 
 9961              	_ZTVN12_GLOBAL__N_146TestFixtureDtorThrowsFixtureDtorThrowsTestNameE:
 9962 0f60 00000000 		.quad	0
 9962      00000000 
 9963 0f68 00000000 		.quad	_ZTIN12_GLOBAL__N_146TestFixtureDtorThrowsFixtureDtorThrowsTestNameE
 9963      00000000 
 9964 0f70 00000000 		.quad	_ZN12_GLOBAL__N_146TestFixtureDtorThrowsFixtureDtorThrowsTestNameD1Ev
 9964      00000000 
 9965 0f78 00000000 		.quad	_ZN12_GLOBAL__N_146TestFixtureDtorThrowsFixtureDtorThrowsTestNameD0Ev
 9965      00000000 
 9966 0f80 00000000 		.quad	_ZNK12_GLOBAL__N_146TestFixtureDtorThrowsFixtureDtorThrowsTestName7RunImplEv
 9966      00000000 
 9967              		.text
 9968              		.align 2
 9970              	_ZN12_GLOBAL__N_146TestFixtureDtorThrowsFixtureDtorThrowsTestNameD2Ev:
 9971              	.LFB1322:
 138:TestTestMacros.cpp **** {
 9972              		.loc 6 138 0
 9973              		.cfi_startproc
 9974 4346 55       		pushq	%rbp
 9975              		.cfi_def_cfa_offset 16
 9976              		.cfi_offset 6, -16
 9977 4347 4889E5   		movq	%rsp, %rbp
 9978              		.cfi_def_cfa_register 6
 9979 434a 4883EC10 		subq	$16, %rsp
 9980 434e 48897DF8 		movq	%rdi, -8(%rbp)
 9981              	.LBB234:
 138:TestTestMacros.cpp **** {
 9982              		.loc 6 138 0
 9983 4352 488B45F8 		movq	-8(%rbp), %rax
 9984 4356 48C70000 		movq	$_ZTVN12_GLOBAL__N_146TestFixtureDtorThrowsFixtureDtorThrowsTestNameE+16, (%rax)
 9984      000000
 9985 435d 488B45F8 		movq	-8(%rbp), %rax
 9986 4361 4889C7   		movq	%rax, %rdi
 9987 4364 E8000000 		call	_ZN8UnitTest4TestD2Ev
 9987      00
 9988              	.LBE234:
 9989 4369 B8000000 		movl	$0, %eax
 9989      00
 9990 436e 85C0     		testl	%eax, %eax
 9991 4370 740C     		je	.L555
 138:TestTestMacros.cpp **** {
 9992              		.loc 6 138 0 is_stmt 0 discriminator 4
 9993 4372 488B45F8 		movq	-8(%rbp), %rax
 9994 4376 4889C7   		movq	%rax, %rdi
 9995 4379 E8000000 		call	_ZdlPv
 9995      00
 9996              	.L555:
 138:TestTestMacros.cpp **** {
 9997              		.loc 6 138 0
 9998 437e C9       		leave
 9999              		.cfi_def_cfa 7, 8
 10000 437f C3       		ret
 10001              		.cfi_endproc
 10002              	.LFE1322:
 10004              		.set	_ZN12_GLOBAL__N_146TestFixtureDtorThrowsFixtureDtorThrowsTestNameD1Ev,_ZN12_GLOBAL__N_146Test
 10005              		.align 2
 10007              	_ZN12_GLOBAL__N_146TestFixtureDtorThrowsFixtureDtorThrowsTestNameD0Ev:
 10008              	.LFB1324:
 138:TestTestMacros.cpp **** {
 10009              		.loc 6 138 0 is_stmt 1
 10010              		.cfi_startproc
 10011 4380 55       		pushq	%rbp
 10012              		.cfi_def_cfa_offset 16
 10013              		.cfi_offset 6, -16
 10014 4381 4889E5   		movq	%rsp, %rbp
 10015              		.cfi_def_cfa_register 6
 10016 4384 4883EC10 		subq	$16, %rsp
 10017 4388 48897DF8 		movq	%rdi, -8(%rbp)
 138:TestTestMacros.cpp **** {
 10018              		.loc 6 138 0
 10019 438c 488B45F8 		movq	-8(%rbp), %rax
 10020 4390 4889C7   		movq	%rax, %rdi
 10021 4393 E8AEFFFF 		call	_ZN12_GLOBAL__N_146TestFixtureDtorThrowsFixtureDtorThrowsTestNameD2Ev
 10021      FF
 10022 4398 488B45F8 		movq	-8(%rbp), %rax
 10023 439c 4889C7   		movq	%rax, %rdi
 10024 439f E8000000 		call	_ZdlPv
 10024      00
 10025 43a4 C9       		leave
 10026              		.cfi_def_cfa 7, 8
 10027 43a5 C3       		ret
 10028              		.cfi_endproc
 10029              	.LFE1324:
 10031              		.section	.rodata
 10032 0f88 00000000 		.align 32
 10032      00000000 
 10032      00000000 
 10032      00000000 
 10032      00000000 
 10035              	_ZTVN12_GLOBAL__N_140TestFixturesWithThrowingCtorsAreFailuresE:
 10036 0fa0 00000000 		.quad	0
 10036      00000000 
 10037 0fa8 00000000 		.quad	_ZTIN12_GLOBAL__N_140TestFixturesWithThrowingCtorsAreFailuresE
 10037      00000000 
 10038 0fb0 00000000 		.quad	_ZN12_GLOBAL__N_140TestFixturesWithThrowingCtorsAreFailuresD1Ev
 10038      00000000 
 10039 0fb8 00000000 		.quad	_ZN12_GLOBAL__N_140TestFixturesWithThrowingCtorsAreFailuresD0Ev
 10039      00000000 
 10040 0fc0 00000000 		.quad	_ZNK12_GLOBAL__N_140TestFixturesWithThrowingCtorsAreFailures7RunImplEv
 10040      00000000 
 10041              		.text
 10042              		.align 2
 10044              	_ZN12_GLOBAL__N_140TestFixturesWithThrowingCtorsAreFailuresD2Ev:
 10045              	.LFB1326:
 117:TestTestMacros.cpp **** {
 10046              		.loc 6 117 0
 10047              		.cfi_startproc
 10048 43a6 55       		pushq	%rbp
 10049              		.cfi_def_cfa_offset 16
 10050              		.cfi_offset 6, -16
 10051 43a7 4889E5   		movq	%rsp, %rbp
 10052              		.cfi_def_cfa_register 6
 10053 43aa 4883EC10 		subq	$16, %rsp
 10054 43ae 48897DF8 		movq	%rdi, -8(%rbp)
 10055              	.LBB235:
 117:TestTestMacros.cpp **** {
 10056              		.loc 6 117 0
 10057 43b2 488B45F8 		movq	-8(%rbp), %rax
 10058 43b6 48C70000 		movq	$_ZTVN12_GLOBAL__N_140TestFixturesWithThrowingCtorsAreFailuresE+16, (%rax)
 10058      000000
 10059 43bd 488B45F8 		movq	-8(%rbp), %rax
 10060 43c1 4889C7   		movq	%rax, %rdi
 10061 43c4 E8000000 		call	_ZN8UnitTest4TestD2Ev
 10061      00
 10062              	.LBE235:
 10063 43c9 B8000000 		movl	$0, %eax
 10063      00
 10064 43ce 85C0     		testl	%eax, %eax
 10065 43d0 740C     		je	.L560
 117:TestTestMacros.cpp **** {
 10066              		.loc 6 117 0 is_stmt 0 discriminator 4
 10067 43d2 488B45F8 		movq	-8(%rbp), %rax
 10068 43d6 4889C7   		movq	%rax, %rdi
 10069 43d9 E8000000 		call	_ZdlPv
 10069      00
 10070              	.L560:
 117:TestTestMacros.cpp **** {
 10071              		.loc 6 117 0
 10072 43de C9       		leave
 10073              		.cfi_def_cfa 7, 8
 10074 43df C3       		ret
 10075              		.cfi_endproc
 10076              	.LFE1326:
 10078              		.set	_ZN12_GLOBAL__N_140TestFixturesWithThrowingCtorsAreFailuresD1Ev,_ZN12_GLOBAL__N_140TestFixtur
 10079              		.align 2
 10081              	_ZN12_GLOBAL__N_140TestFixturesWithThrowingCtorsAreFailuresD0Ev:
 10082              	.LFB1328:
 117:TestTestMacros.cpp **** {
 10083              		.loc 6 117 0 is_stmt 1
 10084              		.cfi_startproc
 10085 43e0 55       		pushq	%rbp
 10086              		.cfi_def_cfa_offset 16
 10087              		.cfi_offset 6, -16
 10088 43e1 4889E5   		movq	%rsp, %rbp
 10089              		.cfi_def_cfa_register 6
 10090 43e4 4883EC10 		subq	$16, %rsp
 10091 43e8 48897DF8 		movq	%rdi, -8(%rbp)
 117:TestTestMacros.cpp **** {
 10092              		.loc 6 117 0
 10093 43ec 488B45F8 		movq	-8(%rbp), %rax
 10094 43f0 4889C7   		movq	%rax, %rdi
 10095 43f3 E8AEFFFF 		call	_ZN12_GLOBAL__N_140TestFixturesWithThrowingCtorsAreFailuresD2Ev
 10095      FF
 10096 43f8 488B45F8 		movq	-8(%rbp), %rax
 10097 43fc 4889C7   		movq	%rax, %rdi
 10098 43ff E8000000 		call	_ZdlPv
 10098      00
 10099 4404 C9       		leave
 10100              		.cfi_def_cfa 7, 8
 10101 4405 C3       		ret
 10102              		.cfi_endproc
 10103              	.LFE1328:
 10105              		.section	.rodata
 10106 0fc8 00000000 		.align 32
 10106      00000000 
 10106      00000000 
 10106      00000000 
 10106      00000000 
 10109              	_ZTVN12_GLOBAL__N_146TestFixtureCtorThrowsFixtureCtorThrowsTestNameE:
 10110 0fe0 00000000 		.quad	0
 10110      00000000 
 10111 0fe8 00000000 		.quad	_ZTIN12_GLOBAL__N_146TestFixtureCtorThrowsFixtureCtorThrowsTestNameE
 10111      00000000 
 10112 0ff0 00000000 		.quad	_ZN12_GLOBAL__N_146TestFixtureCtorThrowsFixtureCtorThrowsTestNameD1Ev
 10112      00000000 
 10113 0ff8 00000000 		.quad	_ZN12_GLOBAL__N_146TestFixtureCtorThrowsFixtureCtorThrowsTestNameD0Ev
 10113      00000000 
 10114 1000 00000000 		.quad	_ZNK12_GLOBAL__N_146TestFixtureCtorThrowsFixtureCtorThrowsTestName7RunImplEv
 10114      00000000 
 10115              		.text
 10116              		.align 2
 10118              	_ZN12_GLOBAL__N_146TestFixtureCtorThrowsFixtureCtorThrowsTestNameD2Ev:
 10119              	.LFB1330:
 113:TestTestMacros.cpp **** {
 10120              		.loc 6 113 0
 10121              		.cfi_startproc
 10122 4406 55       		pushq	%rbp
 10123              		.cfi_def_cfa_offset 16
 10124              		.cfi_offset 6, -16
 10125 4407 4889E5   		movq	%rsp, %rbp
 10126              		.cfi_def_cfa_register 6
 10127 440a 4883EC10 		subq	$16, %rsp
 10128 440e 48897DF8 		movq	%rdi, -8(%rbp)
 10129              	.LBB236:
 113:TestTestMacros.cpp **** {
 10130              		.loc 6 113 0
 10131 4412 488B45F8 		movq	-8(%rbp), %rax
 10132 4416 48C70000 		movq	$_ZTVN12_GLOBAL__N_146TestFixtureCtorThrowsFixtureCtorThrowsTestNameE+16, (%rax)
 10132      000000
 10133 441d 488B45F8 		movq	-8(%rbp), %rax
 10134 4421 4889C7   		movq	%rax, %rdi
 10135 4424 E8000000 		call	_ZN8UnitTest4TestD2Ev
 10135      00
 10136              	.LBE236:
 10137 4429 B8000000 		movl	$0, %eax
 10137      00
 10138 442e 85C0     		testl	%eax, %eax
 10139 4430 740C     		je	.L565
 113:TestTestMacros.cpp **** {
 10140              		.loc 6 113 0 is_stmt 0 discriminator 4
 10141 4432 488B45F8 		movq	-8(%rbp), %rax
 10142 4436 4889C7   		movq	%rax, %rdi
 10143 4439 E8000000 		call	_ZdlPv
 10143      00
 10144              	.L565:
 113:TestTestMacros.cpp **** {
 10145              		.loc 6 113 0
 10146 443e C9       		leave
 10147              		.cfi_def_cfa 7, 8
 10148 443f C3       		ret
 10149              		.cfi_endproc
 10150              	.LFE1330:
 10152              		.set	_ZN12_GLOBAL__N_146TestFixtureCtorThrowsFixtureCtorThrowsTestNameD1Ev,_ZN12_GLOBAL__N_146Test
 10153              		.align 2
 10155              	_ZN12_GLOBAL__N_146TestFixtureCtorThrowsFixtureCtorThrowsTestNameD0Ev:
 10156              	.LFB1332:
 113:TestTestMacros.cpp **** {
 10157              		.loc 6 113 0 is_stmt 1
 10158              		.cfi_startproc
 10159 4440 55       		pushq	%rbp
 10160              		.cfi_def_cfa_offset 16
 10161              		.cfi_offset 6, -16
 10162 4441 4889E5   		movq	%rsp, %rbp
 10163              		.cfi_def_cfa_register 6
 10164 4444 4883EC10 		subq	$16, %rsp
 10165 4448 48897DF8 		movq	%rdi, -8(%rbp)
 113:TestTestMacros.cpp **** {
 10166              		.loc 6 113 0
 10167 444c 488B45F8 		movq	-8(%rbp), %rax
 10168 4450 4889C7   		movq	%rax, %rdi
 10169 4453 E8AEFFFF 		call	_ZN12_GLOBAL__N_146TestFixtureCtorThrowsFixtureCtorThrowsTestNameD2Ev
 10169      FF
 10170 4458 488B45F8 		movq	-8(%rbp), %rax
 10171 445c 4889C7   		movq	%rax, %rdi
 10172 445f E8000000 		call	_ZdlPv
 10172      00
 10173 4464 C9       		leave
 10174              		.cfi_def_cfa 7, 8
 10175 4465 C3       		ret
 10176              		.cfi_endproc
 10177              	.LFE1332:
 10179              		.section	.rodata
 10180 1008 00000000 		.align 32
 10180      00000000 
 10180      00000000 
 10180      00000000 
 10180      00000000 
 10183              	_ZTVN12_GLOBAL__N_153TestTestAddedWithTEST_FIXTURE_EXMacroGetsDefaultSuiteE:
 10184 1020 00000000 		.quad	0
 10184      00000000 
 10185 1028 00000000 		.quad	_ZTIN12_GLOBAL__N_153TestTestAddedWithTEST_FIXTURE_EXMacroGetsDefaultSuiteE
 10185      00000000 
 10186 1030 00000000 		.quad	_ZN12_GLOBAL__N_153TestTestAddedWithTEST_FIXTURE_EXMacroGetsDefaultSuiteD1Ev
 10186      00000000 
 10187 1038 00000000 		.quad	_ZN12_GLOBAL__N_153TestTestAddedWithTEST_FIXTURE_EXMacroGetsDefaultSuiteD0Ev
 10187      00000000 
 10188 1040 00000000 		.quad	_ZNK12_GLOBAL__N_153TestTestAddedWithTEST_FIXTURE_EXMacroGetsDefaultSuite7RunImplEv
 10188      00000000 
 10189              		.text
 10190              		.align 2
 10192              	_ZN12_GLOBAL__N_153TestTestAddedWithTEST_FIXTURE_EXMacroGetsDefaultSuiteD2Ev:
 10193              	.LFB1334:
 100:TestTestMacros.cpp **** {
 10194              		.loc 6 100 0
 10195              		.cfi_startproc
 10196 4466 55       		pushq	%rbp
 10197              		.cfi_def_cfa_offset 16
 10198              		.cfi_offset 6, -16
 10199 4467 4889E5   		movq	%rsp, %rbp
 10200              		.cfi_def_cfa_register 6
 10201 446a 4883EC10 		subq	$16, %rsp
 10202 446e 48897DF8 		movq	%rdi, -8(%rbp)
 10203              	.LBB237:
 100:TestTestMacros.cpp **** {
 10204              		.loc 6 100 0
 10205 4472 488B45F8 		movq	-8(%rbp), %rax
 10206 4476 48C70000 		movq	$_ZTVN12_GLOBAL__N_153TestTestAddedWithTEST_FIXTURE_EXMacroGetsDefaultSuiteE+16, (%rax)
 10206      000000
 10207 447d 488B45F8 		movq	-8(%rbp), %rax
 10208 4481 4889C7   		movq	%rax, %rdi
 10209 4484 E8000000 		call	_ZN8UnitTest4TestD2Ev
 10209      00
 10210              	.LBE237:
 10211 4489 B8000000 		movl	$0, %eax
 10211      00
 10212 448e 85C0     		testl	%eax, %eax
 10213 4490 740C     		je	.L570
 100:TestTestMacros.cpp **** {
 10214              		.loc 6 100 0 is_stmt 0 discriminator 4
 10215 4492 488B45F8 		movq	-8(%rbp), %rax
 10216 4496 4889C7   		movq	%rax, %rdi
 10217 4499 E8000000 		call	_ZdlPv
 10217      00
 10218              	.L570:
 100:TestTestMacros.cpp **** {
 10219              		.loc 6 100 0
 10220 449e C9       		leave
 10221              		.cfi_def_cfa 7, 8
 10222 449f C3       		ret
 10223              		.cfi_endproc
 10224              	.LFE1334:
 10226              		.set	_ZN12_GLOBAL__N_153TestTestAddedWithTEST_FIXTURE_EXMacroGetsDefaultSuiteD1Ev,_ZN12_GLOBAL__N_
 10227              		.align 2
 10229              	_ZN12_GLOBAL__N_153TestTestAddedWithTEST_FIXTURE_EXMacroGetsDefaultSuiteD0Ev:
 10230              	.LFB1336:
 100:TestTestMacros.cpp **** {
 10231              		.loc 6 100 0 is_stmt 1
 10232              		.cfi_startproc
 10233 44a0 55       		pushq	%rbp
 10234              		.cfi_def_cfa_offset 16
 10235              		.cfi_offset 6, -16
 10236 44a1 4889E5   		movq	%rsp, %rbp
 10237              		.cfi_def_cfa_register 6
 10238 44a4 4883EC10 		subq	$16, %rsp
 10239 44a8 48897DF8 		movq	%rdi, -8(%rbp)
 100:TestTestMacros.cpp **** {
 10240              		.loc 6 100 0
 10241 44ac 488B45F8 		movq	-8(%rbp), %rax
 10242 44b0 4889C7   		movq	%rax, %rdi
 10243 44b3 E8AEFFFF 		call	_ZN12_GLOBAL__N_153TestTestAddedWithTEST_FIXTURE_EXMacroGetsDefaultSuiteD2Ev
 10243      FF
 10244 44b8 488B45F8 		movq	-8(%rbp), %rax
 10245 44bc 4889C7   		movq	%rax, %rdi
 10246 44bf E8000000 		call	_ZdlPv
 10246      00
 10247 44c4 C9       		leave
 10248              		.cfi_def_cfa 7, 8
 10249 44c5 C3       		ret
 10250              		.cfi_endproc
 10251              	.LFE1336:
 10253              		.section	.rodata
 10254 1048 00000000 		.align 32
 10254      00000000 
 10254      00000000 
 10254      00000000 
 10254      00000000 
 10257              	_ZTVN12_GLOBAL__N_132TestDummyFixtureMacroTestHelper2E:
 10258 1060 00000000 		.quad	0
 10258      00000000 
 10259 1068 00000000 		.quad	_ZTIN12_GLOBAL__N_132TestDummyFixtureMacroTestHelper2E
 10259      00000000 
 10260 1070 00000000 		.quad	_ZN12_GLOBAL__N_132TestDummyFixtureMacroTestHelper2D1Ev
 10260      00000000 
 10261 1078 00000000 		.quad	_ZN12_GLOBAL__N_132TestDummyFixtureMacroTestHelper2D0Ev
 10261      00000000 
 10262 1080 00000000 		.quad	_ZNK12_GLOBAL__N_132TestDummyFixtureMacroTestHelper27RunImplEv
 10262      00000000 
 10263              		.text
 10264              		.align 2
 10266              	_ZN12_GLOBAL__N_132TestDummyFixtureMacroTestHelper2D2Ev:
 10267              	.LFB1338:
  96:TestTestMacros.cpp **** {
 10268              		.loc 6 96 0
 10269              		.cfi_startproc
 10270 44c6 55       		pushq	%rbp
 10271              		.cfi_def_cfa_offset 16
 10272              		.cfi_offset 6, -16
 10273 44c7 4889E5   		movq	%rsp, %rbp
 10274              		.cfi_def_cfa_register 6
 10275 44ca 4883EC10 		subq	$16, %rsp
 10276 44ce 48897DF8 		movq	%rdi, -8(%rbp)
 10277              	.LBB238:
  96:TestTestMacros.cpp **** {
 10278              		.loc 6 96 0
 10279 44d2 488B45F8 		movq	-8(%rbp), %rax
 10280 44d6 48C70000 		movq	$_ZTVN12_GLOBAL__N_132TestDummyFixtureMacroTestHelper2E+16, (%rax)
 10280      000000
 10281 44dd 488B45F8 		movq	-8(%rbp), %rax
 10282 44e1 4889C7   		movq	%rax, %rdi
 10283 44e4 E8000000 		call	_ZN8UnitTest4TestD2Ev
 10283      00
 10284              	.LBE238:
 10285 44e9 B8000000 		movl	$0, %eax
 10285      00
 10286 44ee 85C0     		testl	%eax, %eax
 10287 44f0 740C     		je	.L575
  96:TestTestMacros.cpp **** {
 10288              		.loc 6 96 0 is_stmt 0 discriminator 4
 10289 44f2 488B45F8 		movq	-8(%rbp), %rax
 10290 44f6 4889C7   		movq	%rax, %rdi
 10291 44f9 E8000000 		call	_ZdlPv
 10291      00
 10292              	.L575:
  96:TestTestMacros.cpp **** {
 10293              		.loc 6 96 0
 10294 44fe C9       		leave
 10295              		.cfi_def_cfa 7, 8
 10296 44ff C3       		ret
 10297              		.cfi_endproc
 10298              	.LFE1338:
 10300              		.set	_ZN12_GLOBAL__N_132TestDummyFixtureMacroTestHelper2D1Ev,_ZN12_GLOBAL__N_132TestDummyFixtureMa
 10301              		.align 2
 10303              	_ZN12_GLOBAL__N_132TestDummyFixtureMacroTestHelper2D0Ev:
 10304              	.LFB1340:
  96:TestTestMacros.cpp **** {
 10305              		.loc 6 96 0 is_stmt 1
 10306              		.cfi_startproc
 10307 4500 55       		pushq	%rbp
 10308              		.cfi_def_cfa_offset 16
 10309              		.cfi_offset 6, -16
 10310 4501 4889E5   		movq	%rsp, %rbp
 10311              		.cfi_def_cfa_register 6
 10312 4504 4883EC10 		subq	$16, %rsp
 10313 4508 48897DF8 		movq	%rdi, -8(%rbp)
  96:TestTestMacros.cpp **** {
 10314              		.loc 6 96 0
 10315 450c 488B45F8 		movq	-8(%rbp), %rax
 10316 4510 4889C7   		movq	%rax, %rdi
 10317 4513 E8AEFFFF 		call	_ZN12_GLOBAL__N_132TestDummyFixtureMacroTestHelper2D2Ev
 10317      FF
 10318 4518 488B45F8 		movq	-8(%rbp), %rax
 10319 451c 4889C7   		movq	%rax, %rdi
 10320 451f E8000000 		call	_ZdlPv
 10320      00
 10321 4524 C9       		leave
 10322              		.cfi_def_cfa 7, 8
 10323 4525 C3       		ret
 10324              		.cfi_endproc
 10325              	.LFE1340:
 10327              		.section	.rodata
 10328 1088 00000000 		.align 32
 10328      00000000 
 10328      00000000 
 10328      00000000 
 10328      00000000 
 10331              	_ZTVN12_GLOBAL__N_145TestTestAddedWithTEST_EXMacroGetsDefaultSuiteE:
 10332 10a0 00000000 		.quad	0
 10332      00000000 
 10333 10a8 00000000 		.quad	_ZTIN12_GLOBAL__N_145TestTestAddedWithTEST_EXMacroGetsDefaultSuiteE
 10333      00000000 
 10334 10b0 00000000 		.quad	_ZN12_GLOBAL__N_145TestTestAddedWithTEST_EXMacroGetsDefaultSuiteD1Ev
 10334      00000000 
 10335 10b8 00000000 		.quad	_ZN12_GLOBAL__N_145TestTestAddedWithTEST_EXMacroGetsDefaultSuiteD0Ev
 10335      00000000 
 10336 10c0 00000000 		.quad	_ZNK12_GLOBAL__N_145TestTestAddedWithTEST_EXMacroGetsDefaultSuite7RunImplEv
 10336      00000000 
 10337              		.text
 10338              		.align 2
 10340              	_ZN12_GLOBAL__N_145TestTestAddedWithTEST_EXMacroGetsDefaultSuiteD2Ev:
 10341              	.LFB1342:
  88:TestTestMacros.cpp **** {
 10342              		.loc 6 88 0
 10343              		.cfi_startproc
 10344 4526 55       		pushq	%rbp
 10345              		.cfi_def_cfa_offset 16
 10346              		.cfi_offset 6, -16
 10347 4527 4889E5   		movq	%rsp, %rbp
 10348              		.cfi_def_cfa_register 6
 10349 452a 4883EC10 		subq	$16, %rsp
 10350 452e 48897DF8 		movq	%rdi, -8(%rbp)
 10351              	.LBB239:
  88:TestTestMacros.cpp **** {
 10352              		.loc 6 88 0
 10353 4532 488B45F8 		movq	-8(%rbp), %rax
 10354 4536 48C70000 		movq	$_ZTVN12_GLOBAL__N_145TestTestAddedWithTEST_EXMacroGetsDefaultSuiteE+16, (%rax)
 10354      000000
 10355 453d 488B45F8 		movq	-8(%rbp), %rax
 10356 4541 4889C7   		movq	%rax, %rdi
 10357 4544 E8000000 		call	_ZN8UnitTest4TestD2Ev
 10357      00
 10358              	.LBE239:
 10359 4549 B8000000 		movl	$0, %eax
 10359      00
 10360 454e 85C0     		testl	%eax, %eax
 10361 4550 740C     		je	.L580
  88:TestTestMacros.cpp **** {
 10362              		.loc 6 88 0 is_stmt 0 discriminator 4
 10363 4552 488B45F8 		movq	-8(%rbp), %rax
 10364 4556 4889C7   		movq	%rax, %rdi
 10365 4559 E8000000 		call	_ZdlPv
 10365      00
 10366              	.L580:
  88:TestTestMacros.cpp **** {
 10367              		.loc 6 88 0
 10368 455e C9       		leave
 10369              		.cfi_def_cfa 7, 8
 10370 455f C3       		ret
 10371              		.cfi_endproc
 10372              	.LFE1342:
 10374              		.set	_ZN12_GLOBAL__N_145TestTestAddedWithTEST_EXMacroGetsDefaultSuiteD1Ev,_ZN12_GLOBAL__N_145TestT
 10375              		.align 2
 10377              	_ZN12_GLOBAL__N_145TestTestAddedWithTEST_EXMacroGetsDefaultSuiteD0Ev:
 10378              	.LFB1344:
  88:TestTestMacros.cpp **** {
 10379              		.loc 6 88 0 is_stmt 1
 10380              		.cfi_startproc
 10381 4560 55       		pushq	%rbp
 10382              		.cfi_def_cfa_offset 16
 10383              		.cfi_offset 6, -16
 10384 4561 4889E5   		movq	%rsp, %rbp
 10385              		.cfi_def_cfa_register 6
 10386 4564 4883EC10 		subq	$16, %rsp
 10387 4568 48897DF8 		movq	%rdi, -8(%rbp)
  88:TestTestMacros.cpp **** {
 10388              		.loc 6 88 0
 10389 456c 488B45F8 		movq	-8(%rbp), %rax
 10390 4570 4889C7   		movq	%rax, %rdi
 10391 4573 E8AEFFFF 		call	_ZN12_GLOBAL__N_145TestTestAddedWithTEST_EXMacroGetsDefaultSuiteD2Ev
 10391      FF
 10392 4578 488B45F8 		movq	-8(%rbp), %rax
 10393 457c 4889C7   		movq	%rax, %rdi
 10394 457f E8000000 		call	_ZdlPv
 10394      00
 10395 4584 C9       		leave
 10396              		.cfi_def_cfa 7, 8
 10397 4585 C3       		ret
 10398              		.cfi_endproc
 10399              	.LFE1344:
 10401              		.section	.rodata
 10402 10c8 00000000 		.align 32
 10402      00000000 
 10402      00000000 
 10402      00000000 
 10402      00000000 
 10405              	_ZTVN12_GLOBAL__N_120TestMacroTestHelper1E:
 10406 10e0 00000000 		.quad	0
 10406      00000000 
 10407 10e8 00000000 		.quad	_ZTIN12_GLOBAL__N_120TestMacroTestHelper1E
 10407      00000000 
 10408 10f0 00000000 		.quad	_ZN12_GLOBAL__N_120TestMacroTestHelper1D1Ev
 10408      00000000 
 10409 10f8 00000000 		.quad	_ZN12_GLOBAL__N_120TestMacroTestHelper1D0Ev
 10409      00000000 
 10410 1100 00000000 		.quad	_ZNK12_GLOBAL__N_120TestMacroTestHelper17RunImplEv
 10410      00000000 
 10411              		.text
 10412              		.align 2
 10414              	_ZN12_GLOBAL__N_120TestMacroTestHelper1D2Ev:
 10415              	.LFB1346:
  84:TestTestMacros.cpp **** {
 10416              		.loc 6 84 0
 10417              		.cfi_startproc
 10418 4586 55       		pushq	%rbp
 10419              		.cfi_def_cfa_offset 16
 10420              		.cfi_offset 6, -16
 10421 4587 4889E5   		movq	%rsp, %rbp
 10422              		.cfi_def_cfa_register 6
 10423 458a 4883EC10 		subq	$16, %rsp
 10424 458e 48897DF8 		movq	%rdi, -8(%rbp)
 10425              	.LBB240:
  84:TestTestMacros.cpp **** {
 10426              		.loc 6 84 0
 10427 4592 488B45F8 		movq	-8(%rbp), %rax
 10428 4596 48C70000 		movq	$_ZTVN12_GLOBAL__N_120TestMacroTestHelper1E+16, (%rax)
 10428      000000
 10429 459d 488B45F8 		movq	-8(%rbp), %rax
 10430 45a1 4889C7   		movq	%rax, %rdi
 10431 45a4 E8000000 		call	_ZN8UnitTest4TestD2Ev
 10431      00
 10432              	.LBE240:
 10433 45a9 B8000000 		movl	$0, %eax
 10433      00
 10434 45ae 85C0     		testl	%eax, %eax
 10435 45b0 740C     		je	.L585
  84:TestTestMacros.cpp **** {
 10436              		.loc 6 84 0 is_stmt 0 discriminator 4
 10437 45b2 488B45F8 		movq	-8(%rbp), %rax
 10438 45b6 4889C7   		movq	%rax, %rdi
 10439 45b9 E8000000 		call	_ZdlPv
 10439      00
 10440              	.L585:
  84:TestTestMacros.cpp **** {
 10441              		.loc 6 84 0
 10442 45be C9       		leave
 10443              		.cfi_def_cfa 7, 8
 10444 45bf C3       		ret
 10445              		.cfi_endproc
 10446              	.LFE1346:
 10448              		.set	_ZN12_GLOBAL__N_120TestMacroTestHelper1D1Ev,_ZN12_GLOBAL__N_120TestMacroTestHelper1D2Ev
 10449              		.align 2
 10451              	_ZN12_GLOBAL__N_120TestMacroTestHelper1D0Ev:
 10452              	.LFB1348:
  84:TestTestMacros.cpp **** {
 10453              		.loc 6 84 0 is_stmt 1
 10454              		.cfi_startproc
 10455 45c0 55       		pushq	%rbp
 10456              		.cfi_def_cfa_offset 16
 10457              		.cfi_offset 6, -16
 10458 45c1 4889E5   		movq	%rsp, %rbp
 10459              		.cfi_def_cfa_register 6
 10460 45c4 4883EC10 		subq	$16, %rsp
 10461 45c8 48897DF8 		movq	%rdi, -8(%rbp)
  84:TestTestMacros.cpp **** {
 10462              		.loc 6 84 0
 10463 45cc 488B45F8 		movq	-8(%rbp), %rax
 10464 45d0 4889C7   		movq	%rax, %rdi
 10465 45d3 E8AEFFFF 		call	_ZN12_GLOBAL__N_120TestMacroTestHelper1D2Ev
 10465      FF
 10466 45d8 488B45F8 		movq	-8(%rbp), %rax
 10467 45dc 4889C7   		movq	%rax, %rdi
 10468 45df E8000000 		call	_ZdlPv
 10468      00
 10469 45e4 C9       		leave
 10470              		.cfi_def_cfa 7, 8
 10471 45e5 C3       		ret
 10472              		.cfi_endproc
 10473              	.LFE1348:
 10475              		.section	.rodata
 10476 1108 00000000 		.align 32
 10476      00000000 
 10476      00000000 
 10476      00000000 
 10476      00000000 
 10479              	_ZTVN12_GLOBAL__N_115SuiteTestSuite263TestDummyFixtureSimilarlyNamedFixtureTestsInDifferentSuitesWo
 10480 1120 00000000 		.quad	0
 10480      00000000 
 10481 1128 00000000 		.quad	_ZTIN12_GLOBAL__N_115SuiteTestSuite263TestDummyFixtureSimilarlyNamedFixtureTestsInDifferentS
 10481      00000000 
 10482 1130 00000000 		.quad	_ZN12_GLOBAL__N_115SuiteTestSuite263TestDummyFixtureSimilarlyNamedFixtureTestsInDifferentSui
 10482      00000000 
 10483 1138 00000000 		.quad	_ZN12_GLOBAL__N_115SuiteTestSuite263TestDummyFixtureSimilarlyNamedFixtureTestsInDifferentSui
 10483      00000000 
 10484 1140 00000000 		.quad	_ZNK12_GLOBAL__N_115SuiteTestSuite263TestDummyFixtureSimilarlyNamedFixtureTestsInDifferentSu
 10484      00000000 
 10485              		.text
 10486              		.align 2
 10488              	_ZN12_GLOBAL__N_115SuiteTestSuite263TestDummyFixtureSimilarlyNamedFixtureTestsInDifferentSuitesWork
 10489              	.LFB1350:
  78:TestTestMacros.cpp **** 	{
 10490              		.loc 6 78 0
 10491              		.cfi_startproc
 10492 45e6 55       		pushq	%rbp
 10493              		.cfi_def_cfa_offset 16
 10494              		.cfi_offset 6, -16
 10495 45e7 4889E5   		movq	%rsp, %rbp
 10496              		.cfi_def_cfa_register 6
 10497 45ea 4883EC10 		subq	$16, %rsp
 10498 45ee 48897DF8 		movq	%rdi, -8(%rbp)
 10499              	.LBB241:
  78:TestTestMacros.cpp **** 	{
 10500              		.loc 6 78 0
 10501 45f2 488B45F8 		movq	-8(%rbp), %rax
 10502 45f6 48C70000 		movq	$_ZTVN12_GLOBAL__N_115SuiteTestSuite263TestDummyFixtureSimilarlyNamedFixtureTestsInDifferentS
 10502      000000
 10503 45fd 488B45F8 		movq	-8(%rbp), %rax
 10504 4601 4889C7   		movq	%rax, %rdi
 10505 4604 E8000000 		call	_ZN8UnitTest4TestD2Ev
 10505      00
 10506              	.LBE241:
 10507 4609 B8000000 		movl	$0, %eax
 10507      00
 10508 460e 85C0     		testl	%eax, %eax
 10509 4610 740C     		je	.L590
  78:TestTestMacros.cpp **** 	{
 10510              		.loc 6 78 0 is_stmt 0 discriminator 4
 10511 4612 488B45F8 		movq	-8(%rbp), %rax
 10512 4616 4889C7   		movq	%rax, %rdi
 10513 4619 E8000000 		call	_ZdlPv
 10513      00
 10514              	.L590:
  78:TestTestMacros.cpp **** 	{
 10515              		.loc 6 78 0
 10516 461e C9       		leave
 10517              		.cfi_def_cfa 7, 8
 10518 461f C3       		ret
 10519              		.cfi_endproc
 10520              	.LFE1350:
 10522              		.set	_ZN12_GLOBAL__N_115SuiteTestSuite263TestDummyFixtureSimilarlyNamedFixtureTestsInDifferentSuit
 10523              		.align 2
 10525              	_ZN12_GLOBAL__N_115SuiteTestSuite263TestDummyFixtureSimilarlyNamedFixtureTestsInDifferentSuitesWork
 10526              	.LFB1352:
  78:TestTestMacros.cpp **** 	{
 10527              		.loc 6 78 0 is_stmt 1
 10528              		.cfi_startproc
 10529 4620 55       		pushq	%rbp
 10530              		.cfi_def_cfa_offset 16
 10531              		.cfi_offset 6, -16
 10532 4621 4889E5   		movq	%rsp, %rbp
 10533              		.cfi_def_cfa_register 6
 10534 4624 4883EC10 		subq	$16, %rsp
 10535 4628 48897DF8 		movq	%rdi, -8(%rbp)
  78:TestTestMacros.cpp **** 	{
 10536              		.loc 6 78 0
 10537 462c 488B45F8 		movq	-8(%rbp), %rax
 10538 4630 4889C7   		movq	%rax, %rdi
 10539 4633 E8AEFFFF 		call	_ZN12_GLOBAL__N_115SuiteTestSuite263TestDummyFixtureSimilarlyNamedFixtureTestsInDifferentSuit
 10539      FF
 10540 4638 488B45F8 		movq	-8(%rbp), %rax
 10541 463c 4889C7   		movq	%rax, %rdi
 10542 463f E8000000 		call	_ZdlPv
 10542      00
 10543 4644 C9       		leave
 10544              		.cfi_def_cfa 7, 8
 10545 4645 C3       		ret
 10546              		.cfi_endproc
 10547              	.LFE1352:
 10549              		.section	.rodata
 10550 1148 00000000 		.align 32
 10550      00000000 
 10550      00000000 
 10550      00000000 
 10550      00000000 
 10553              	_ZTVN12_GLOBAL__N_115SuiteTestSuite244TestSimilarlyNamedTestsInDifferentSuitesWorkE:
 10554 1160 00000000 		.quad	0
 10554      00000000 
 10555 1168 00000000 		.quad	_ZTIN12_GLOBAL__N_115SuiteTestSuite244TestSimilarlyNamedTestsInDifferentSuitesWorkE
 10555      00000000 
 10556 1170 00000000 		.quad	_ZN12_GLOBAL__N_115SuiteTestSuite244TestSimilarlyNamedTestsInDifferentSuitesWorkD1Ev
 10556      00000000 
 10557 1178 00000000 		.quad	_ZN12_GLOBAL__N_115SuiteTestSuite244TestSimilarlyNamedTestsInDifferentSuitesWorkD0Ev
 10557      00000000 
 10558 1180 00000000 		.quad	_ZNK12_GLOBAL__N_115SuiteTestSuite244TestSimilarlyNamedTestsInDifferentSuitesWork7RunImplEv
 10558      00000000 
 10559              		.text
 10560              		.align 2
 10562              	_ZN12_GLOBAL__N_115SuiteTestSuite244TestSimilarlyNamedTestsInDifferentSuitesWorkD2Ev:
 10563              	.LFB1354:
  74:TestTestMacros.cpp **** 	{
 10564              		.loc 6 74 0
 10565              		.cfi_startproc
 10566 4646 55       		pushq	%rbp
 10567              		.cfi_def_cfa_offset 16
 10568              		.cfi_offset 6, -16
 10569 4647 4889E5   		movq	%rsp, %rbp
 10570              		.cfi_def_cfa_register 6
 10571 464a 4883EC10 		subq	$16, %rsp
 10572 464e 48897DF8 		movq	%rdi, -8(%rbp)
 10573              	.LBB242:
  74:TestTestMacros.cpp **** 	{
 10574              		.loc 6 74 0
 10575 4652 488B45F8 		movq	-8(%rbp), %rax
 10576 4656 48C70000 		movq	$_ZTVN12_GLOBAL__N_115SuiteTestSuite244TestSimilarlyNamedTestsInDifferentSuitesWorkE+16, (%ra
 10576      000000
 10577 465d 488B45F8 		movq	-8(%rbp), %rax
 10578 4661 4889C7   		movq	%rax, %rdi
 10579 4664 E8000000 		call	_ZN8UnitTest4TestD2Ev
 10579      00
 10580              	.LBE242:
 10581 4669 B8000000 		movl	$0, %eax
 10581      00
 10582 466e 85C0     		testl	%eax, %eax
 10583 4670 740C     		je	.L595
  74:TestTestMacros.cpp **** 	{
 10584              		.loc 6 74 0 is_stmt 0 discriminator 4
 10585 4672 488B45F8 		movq	-8(%rbp), %rax
 10586 4676 4889C7   		movq	%rax, %rdi
 10587 4679 E8000000 		call	_ZdlPv
 10587      00
 10588              	.L595:
  74:TestTestMacros.cpp **** 	{
 10589              		.loc 6 74 0
 10590 467e C9       		leave
 10591              		.cfi_def_cfa 7, 8
 10592 467f C3       		ret
 10593              		.cfi_endproc
 10594              	.LFE1354:
 10596              		.set	_ZN12_GLOBAL__N_115SuiteTestSuite244TestSimilarlyNamedTestsInDifferentSuitesWorkD1Ev,_ZN12_GL
 10597              		.align 2
 10599              	_ZN12_GLOBAL__N_115SuiteTestSuite244TestSimilarlyNamedTestsInDifferentSuitesWorkD0Ev:
 10600              	.LFB1356:
  74:TestTestMacros.cpp **** 	{
 10601              		.loc 6 74 0 is_stmt 1
 10602              		.cfi_startproc
 10603 4680 55       		pushq	%rbp
 10604              		.cfi_def_cfa_offset 16
 10605              		.cfi_offset 6, -16
 10606 4681 4889E5   		movq	%rsp, %rbp
 10607              		.cfi_def_cfa_register 6
 10608 4684 4883EC10 		subq	$16, %rsp
 10609 4688 48897DF8 		movq	%rdi, -8(%rbp)
  74:TestTestMacros.cpp **** 	{
 10610              		.loc 6 74 0
 10611 468c 488B45F8 		movq	-8(%rbp), %rax
 10612 4690 4889C7   		movq	%rax, %rdi
 10613 4693 E8AEFFFF 		call	_ZN12_GLOBAL__N_115SuiteTestSuite244TestSimilarlyNamedTestsInDifferentSuitesWorkD2Ev
 10613      FF
 10614 4698 488B45F8 		movq	-8(%rbp), %rax
 10615 469c 4889C7   		movq	%rax, %rdi
 10616 469f E8000000 		call	_ZdlPv
 10616      00
 10617 46a4 C9       		leave
 10618              		.cfi_def_cfa 7, 8
 10619 46a5 C3       		ret
 10620              		.cfi_endproc
 10621              	.LFE1356:
 10623              		.section	.rodata
 10624 1188 00000000 		.align 32
 10624      00000000 
 10624      00000000 
 10624      00000000 
 10624      00000000 
 10627              	_ZTVN12_GLOBAL__N_115SuiteTestSuite163TestDummyFixtureSimilarlyNamedFixtureTestsInDifferentSuitesWo
 10628 11a0 00000000 		.quad	0
 10628      00000000 
 10629 11a8 00000000 		.quad	_ZTIN12_GLOBAL__N_115SuiteTestSuite163TestDummyFixtureSimilarlyNamedFixtureTestsInDifferentS
 10629      00000000 
 10630 11b0 00000000 		.quad	_ZN12_GLOBAL__N_115SuiteTestSuite163TestDummyFixtureSimilarlyNamedFixtureTestsInDifferentSui
 10630      00000000 
 10631 11b8 00000000 		.quad	_ZN12_GLOBAL__N_115SuiteTestSuite163TestDummyFixtureSimilarlyNamedFixtureTestsInDifferentSui
 10631      00000000 
 10632 11c0 00000000 		.quad	_ZNK12_GLOBAL__N_115SuiteTestSuite163TestDummyFixtureSimilarlyNamedFixtureTestsInDifferentSu
 10632      00000000 
 10633              		.text
 10634              		.align 2
 10636              	_ZN12_GLOBAL__N_115SuiteTestSuite163TestDummyFixtureSimilarlyNamedFixtureTestsInDifferentSuitesWork
 10637              	.LFB1358:
  67:TestTestMacros.cpp **** 	{
 10638              		.loc 6 67 0
 10639              		.cfi_startproc
 10640 46a6 55       		pushq	%rbp
 10641              		.cfi_def_cfa_offset 16
 10642              		.cfi_offset 6, -16
 10643 46a7 4889E5   		movq	%rsp, %rbp
 10644              		.cfi_def_cfa_register 6
 10645 46aa 4883EC10 		subq	$16, %rsp
 10646 46ae 48897DF8 		movq	%rdi, -8(%rbp)
 10647              	.LBB243:
  67:TestTestMacros.cpp **** 	{
 10648              		.loc 6 67 0
 10649 46b2 488B45F8 		movq	-8(%rbp), %rax
 10650 46b6 48C70000 		movq	$_ZTVN12_GLOBAL__N_115SuiteTestSuite163TestDummyFixtureSimilarlyNamedFixtureTestsInDifferentS
 10650      000000
 10651 46bd 488B45F8 		movq	-8(%rbp), %rax
 10652 46c1 4889C7   		movq	%rax, %rdi
 10653 46c4 E8000000 		call	_ZN8UnitTest4TestD2Ev
 10653      00
 10654              	.LBE243:
 10655 46c9 B8000000 		movl	$0, %eax
 10655      00
 10656 46ce 85C0     		testl	%eax, %eax
 10657 46d0 740C     		je	.L600
  67:TestTestMacros.cpp **** 	{
 10658              		.loc 6 67 0 is_stmt 0 discriminator 4
 10659 46d2 488B45F8 		movq	-8(%rbp), %rax
 10660 46d6 4889C7   		movq	%rax, %rdi
 10661 46d9 E8000000 		call	_ZdlPv
 10661      00
 10662              	.L600:
  67:TestTestMacros.cpp **** 	{
 10663              		.loc 6 67 0
 10664 46de C9       		leave
 10665              		.cfi_def_cfa 7, 8
 10666 46df C3       		ret
 10667              		.cfi_endproc
 10668              	.LFE1358:
 10670              		.set	_ZN12_GLOBAL__N_115SuiteTestSuite163TestDummyFixtureSimilarlyNamedFixtureTestsInDifferentSuit
 10671              		.align 2
 10673              	_ZN12_GLOBAL__N_115SuiteTestSuite163TestDummyFixtureSimilarlyNamedFixtureTestsInDifferentSuitesWork
 10674              	.LFB1360:
  67:TestTestMacros.cpp **** 	{
 10675              		.loc 6 67 0 is_stmt 1
 10676              		.cfi_startproc
 10677 46e0 55       		pushq	%rbp
 10678              		.cfi_def_cfa_offset 16
 10679              		.cfi_offset 6, -16
 10680 46e1 4889E5   		movq	%rsp, %rbp
 10681              		.cfi_def_cfa_register 6
 10682 46e4 4883EC10 		subq	$16, %rsp
 10683 46e8 48897DF8 		movq	%rdi, -8(%rbp)
  67:TestTestMacros.cpp **** 	{
 10684              		.loc 6 67 0
 10685 46ec 488B45F8 		movq	-8(%rbp), %rax
 10686 46f0 4889C7   		movq	%rax, %rdi
 10687 46f3 E8AEFFFF 		call	_ZN12_GLOBAL__N_115SuiteTestSuite163TestDummyFixtureSimilarlyNamedFixtureTestsInDifferentSuit
 10687      FF
 10688 46f8 488B45F8 		movq	-8(%rbp), %rax
 10689 46fc 4889C7   		movq	%rax, %rdi
 10690 46ff E8000000 		call	_ZdlPv
 10690      00
 10691 4704 C9       		leave
 10692              		.cfi_def_cfa 7, 8
 10693 4705 C3       		ret
 10694              		.cfi_endproc
 10695              	.LFE1360:
 10697              		.section	.rodata
 10698 11c8 00000000 		.align 32
 10698      00000000 
 10698      00000000 
 10698      00000000 
 10698      00000000 
 10701              	_ZTVN12_GLOBAL__N_115SuiteTestSuite144TestSimilarlyNamedTestsInDifferentSuitesWorkE:
 10702 11e0 00000000 		.quad	0
 10702      00000000 
 10703 11e8 00000000 		.quad	_ZTIN12_GLOBAL__N_115SuiteTestSuite144TestSimilarlyNamedTestsInDifferentSuitesWorkE
 10703      00000000 
 10704 11f0 00000000 		.quad	_ZN12_GLOBAL__N_115SuiteTestSuite144TestSimilarlyNamedTestsInDifferentSuitesWorkD1Ev
 10704      00000000 
 10705 11f8 00000000 		.quad	_ZN12_GLOBAL__N_115SuiteTestSuite144TestSimilarlyNamedTestsInDifferentSuitesWorkD0Ev
 10705      00000000 
 10706 1200 00000000 		.quad	_ZNK12_GLOBAL__N_115SuiteTestSuite144TestSimilarlyNamedTestsInDifferentSuitesWork7RunImplEv
 10706      00000000 
 10707              		.text
 10708              		.align 2
 10710              	_ZN12_GLOBAL__N_115SuiteTestSuite144TestSimilarlyNamedTestsInDifferentSuitesWorkD2Ev:
 10711              	.LFB1362:
  63:TestTestMacros.cpp **** 	{
 10712              		.loc 6 63 0
 10713              		.cfi_startproc
 10714 4706 55       		pushq	%rbp
 10715              		.cfi_def_cfa_offset 16
 10716              		.cfi_offset 6, -16
 10717 4707 4889E5   		movq	%rsp, %rbp
 10718              		.cfi_def_cfa_register 6
 10719 470a 4883EC10 		subq	$16, %rsp
 10720 470e 48897DF8 		movq	%rdi, -8(%rbp)
 10721              	.LBB244:
  63:TestTestMacros.cpp **** 	{
 10722              		.loc 6 63 0
 10723 4712 488B45F8 		movq	-8(%rbp), %rax
 10724 4716 48C70000 		movq	$_ZTVN12_GLOBAL__N_115SuiteTestSuite144TestSimilarlyNamedTestsInDifferentSuitesWorkE+16, (%ra
 10724      000000
 10725 471d 488B45F8 		movq	-8(%rbp), %rax
 10726 4721 4889C7   		movq	%rax, %rdi
 10727 4724 E8000000 		call	_ZN8UnitTest4TestD2Ev
 10727      00
 10728              	.LBE244:
 10729 4729 B8000000 		movl	$0, %eax
 10729      00
 10730 472e 85C0     		testl	%eax, %eax
 10731 4730 740C     		je	.L605
  63:TestTestMacros.cpp **** 	{
 10732              		.loc 6 63 0 is_stmt 0 discriminator 4
 10733 4732 488B45F8 		movq	-8(%rbp), %rax
 10734 4736 4889C7   		movq	%rax, %rdi
 10735 4739 E8000000 		call	_ZdlPv
 10735      00
 10736              	.L605:
  63:TestTestMacros.cpp **** 	{
 10737              		.loc 6 63 0
 10738 473e C9       		leave
 10739              		.cfi_def_cfa 7, 8
 10740 473f C3       		ret
 10741              		.cfi_endproc
 10742              	.LFE1362:
 10744              		.set	_ZN12_GLOBAL__N_115SuiteTestSuite144TestSimilarlyNamedTestsInDifferentSuitesWorkD1Ev,_ZN12_GL
 10745              		.align 2
 10747              	_ZN12_GLOBAL__N_115SuiteTestSuite144TestSimilarlyNamedTestsInDifferentSuitesWorkD0Ev:
 10748              	.LFB1364:
  63:TestTestMacros.cpp **** 	{
 10749              		.loc 6 63 0 is_stmt 1
 10750              		.cfi_startproc
 10751 4740 55       		pushq	%rbp
 10752              		.cfi_def_cfa_offset 16
 10753              		.cfi_offset 6, -16
 10754 4741 4889E5   		movq	%rsp, %rbp
 10755              		.cfi_def_cfa_register 6
 10756 4744 4883EC10 		subq	$16, %rsp
 10757 4748 48897DF8 		movq	%rdi, -8(%rbp)
  63:TestTestMacros.cpp **** 	{
 10758              		.loc 6 63 0
 10759 474c 488B45F8 		movq	-8(%rbp), %rax
 10760 4750 4889C7   		movq	%rax, %rdi
 10761 4753 E8AEFFFF 		call	_ZN12_GLOBAL__N_115SuiteTestSuite144TestSimilarlyNamedTestsInDifferentSuitesWorkD2Ev
 10761      FF
 10762 4758 488B45F8 		movq	-8(%rbp), %rax
 10763 475c 4889C7   		movq	%rax, %rdi
 10764 475f E8000000 		call	_ZdlPv
 10764      00
 10765 4764 C9       		leave
 10766              		.cfi_def_cfa 7, 8
 10767 4765 C3       		ret
 10768              		.cfi_endproc
 10769              	.LFE1364:
 10771              		.section	.rodata
 10772 1208 00000000 		.align 32
 10772      00000000 
 10772      00000000 
 10772      00000000 
 10772      00000000 
 10775              	_ZTVN12_GLOBAL__N_157TestExceptionsInFixtureAreReportedAsHappeningInTheFixtureE:
 10776 1220 00000000 		.quad	0
 10776      00000000 
 10777 1228 00000000 		.quad	_ZTIN12_GLOBAL__N_157TestExceptionsInFixtureAreReportedAsHappeningInTheFixtureE
 10777      00000000 
 10778 1230 00000000 		.quad	_ZN12_GLOBAL__N_157TestExceptionsInFixtureAreReportedAsHappeningInTheFixtureD1Ev
 10778      00000000 
 10779 1238 00000000 		.quad	_ZN12_GLOBAL__N_157TestExceptionsInFixtureAreReportedAsHappeningInTheFixtureD0Ev
 10779      00000000 
 10780 1240 00000000 		.quad	_ZNK12_GLOBAL__N_157TestExceptionsInFixtureAreReportedAsHappeningInTheFixture7RunImplEv
 10780      00000000 
 10781              		.text
 10782              		.align 2
 10784              	_ZN12_GLOBAL__N_157TestExceptionsInFixtureAreReportedAsHappeningInTheFixtureD2Ev:
 10785              	.LFB1366:
  41:TestTestMacros.cpp **** {
 10786              		.loc 6 41 0
 10787              		.cfi_startproc
 10788 4766 55       		pushq	%rbp
 10789              		.cfi_def_cfa_offset 16
 10790              		.cfi_offset 6, -16
 10791 4767 4889E5   		movq	%rsp, %rbp
 10792              		.cfi_def_cfa_register 6
 10793 476a 4883EC10 		subq	$16, %rsp
 10794 476e 48897DF8 		movq	%rdi, -8(%rbp)
 10795              	.LBB245:
  41:TestTestMacros.cpp **** {
 10796              		.loc 6 41 0
 10797 4772 488B45F8 		movq	-8(%rbp), %rax
 10798 4776 48C70000 		movq	$_ZTVN12_GLOBAL__N_157TestExceptionsInFixtureAreReportedAsHappeningInTheFixtureE+16, (%rax)
 10798      000000
 10799 477d 488B45F8 		movq	-8(%rbp), %rax
 10800 4781 4889C7   		movq	%rax, %rdi
 10801 4784 E8000000 		call	_ZN8UnitTest4TestD2Ev
 10801      00
 10802              	.LBE245:
 10803 4789 B8000000 		movl	$0, %eax
 10803      00
 10804 478e 85C0     		testl	%eax, %eax
 10805 4790 740C     		je	.L610
  41:TestTestMacros.cpp **** {
 10806              		.loc 6 41 0 is_stmt 0 discriminator 4
 10807 4792 488B45F8 		movq	-8(%rbp), %rax
 10808 4796 4889C7   		movq	%rax, %rdi
 10809 4799 E8000000 		call	_ZdlPv
 10809      00
 10810              	.L610:
  41:TestTestMacros.cpp **** {
 10811              		.loc 6 41 0
 10812 479e C9       		leave
 10813              		.cfi_def_cfa 7, 8
 10814 479f C3       		ret
 10815              		.cfi_endproc
 10816              	.LFE1366:
 10818              		.set	_ZN12_GLOBAL__N_157TestExceptionsInFixtureAreReportedAsHappeningInTheFixtureD1Ev,_ZN12_GLOBAL
 10819              		.align 2
 10821              	_ZN12_GLOBAL__N_157TestExceptionsInFixtureAreReportedAsHappeningInTheFixtureD0Ev:
 10822              	.LFB1368:
  41:TestTestMacros.cpp **** {
 10823              		.loc 6 41 0 is_stmt 1
 10824              		.cfi_startproc
 10825 47a0 55       		pushq	%rbp
 10826              		.cfi_def_cfa_offset 16
 10827              		.cfi_offset 6, -16
 10828 47a1 4889E5   		movq	%rsp, %rbp
 10829              		.cfi_def_cfa_register 6
 10830 47a4 4883EC10 		subq	$16, %rsp
 10831 47a8 48897DF8 		movq	%rdi, -8(%rbp)
  41:TestTestMacros.cpp **** {
 10832              		.loc 6 41 0
 10833 47ac 488B45F8 		movq	-8(%rbp), %rax
 10834 47b0 4889C7   		movq	%rax, %rdi
 10835 47b3 E8AEFFFF 		call	_ZN12_GLOBAL__N_157TestExceptionsInFixtureAreReportedAsHappeningInTheFixtureD2Ev
 10835      FF
 10836 47b8 488B45F8 		movq	-8(%rbp), %rax
 10837 47bc 4889C7   		movq	%rax, %rdi
 10838 47bf E8000000 		call	_ZdlPv
 10838      00
 10839 47c4 C9       		leave
 10840              		.cfi_def_cfa 7, 8
 10841 47c5 C3       		ret
 10842              		.cfi_endproc
 10843              	.LFE1368:
 10845              		.section	.rodata
 10846 1248 00000000 		.align 32
 10846      00000000 
 10846      00000000 
 10846      00000000 
 10846      00000000 
 10849              	_ZTVN12_GLOBAL__N_132TestThrowingThingieDummyTestNameE:
 10850 1260 00000000 		.quad	0
 10850      00000000 
 10851 1268 00000000 		.quad	_ZTIN12_GLOBAL__N_132TestThrowingThingieDummyTestNameE
 10851      00000000 
 10852 1270 00000000 		.quad	_ZN12_GLOBAL__N_132TestThrowingThingieDummyTestNameD1Ev
 10852      00000000 
 10853 1278 00000000 		.quad	_ZN12_GLOBAL__N_132TestThrowingThingieDummyTestNameD0Ev
 10853      00000000 
 10854 1280 00000000 		.quad	_ZNK12_GLOBAL__N_132TestThrowingThingieDummyTestName7RunImplEv
 10854      00000000 
 10855              		.text
 10856              		.align 2
 10858              	_ZN12_GLOBAL__N_132TestThrowingThingieDummyTestNameD2Ev:
 10859              	.LFB1370:
  37:TestTestMacros.cpp **** {
 10860              		.loc 6 37 0
 10861              		.cfi_startproc
 10862 47c6 55       		pushq	%rbp
 10863              		.cfi_def_cfa_offset 16
 10864              		.cfi_offset 6, -16
 10865 47c7 4889E5   		movq	%rsp, %rbp
 10866              		.cfi_def_cfa_register 6
 10867 47ca 4883EC10 		subq	$16, %rsp
 10868 47ce 48897DF8 		movq	%rdi, -8(%rbp)
 10869              	.LBB246:
  37:TestTestMacros.cpp **** {
 10870              		.loc 6 37 0
 10871 47d2 488B45F8 		movq	-8(%rbp), %rax
 10872 47d6 48C70000 		movq	$_ZTVN12_GLOBAL__N_132TestThrowingThingieDummyTestNameE+16, (%rax)
 10872      000000
 10873 47dd 488B45F8 		movq	-8(%rbp), %rax
 10874 47e1 4889C7   		movq	%rax, %rdi
 10875 47e4 E8000000 		call	_ZN8UnitTest4TestD2Ev
 10875      00
 10876              	.LBE246:
 10877 47e9 B8000000 		movl	$0, %eax
 10877      00
 10878 47ee 85C0     		testl	%eax, %eax
 10879 47f0 740C     		je	.L615
  37:TestTestMacros.cpp **** {
 10880              		.loc 6 37 0 is_stmt 0 discriminator 4
 10881 47f2 488B45F8 		movq	-8(%rbp), %rax
 10882 47f6 4889C7   		movq	%rax, %rdi
 10883 47f9 E8000000 		call	_ZdlPv
 10883      00
 10884              	.L615:
  37:TestTestMacros.cpp **** {
 10885              		.loc 6 37 0
 10886 47fe C9       		leave
 10887              		.cfi_def_cfa 7, 8
 10888 47ff C3       		ret
 10889              		.cfi_endproc
 10890              	.LFE1370:
 10892              		.set	_ZN12_GLOBAL__N_132TestThrowingThingieDummyTestNameD1Ev,_ZN12_GLOBAL__N_132TestThrowingThingi
 10893              		.align 2
 10895              	_ZN12_GLOBAL__N_132TestThrowingThingieDummyTestNameD0Ev:
 10896              	.LFB1372:
  37:TestTestMacros.cpp **** {
 10897              		.loc 6 37 0 is_stmt 1
 10898              		.cfi_startproc
 10899 4800 55       		pushq	%rbp
 10900              		.cfi_def_cfa_offset 16
 10901              		.cfi_offset 6, -16
 10902 4801 4889E5   		movq	%rsp, %rbp
 10903              		.cfi_def_cfa_register 6
 10904 4804 4883EC10 		subq	$16, %rsp
 10905 4808 48897DF8 		movq	%rdi, -8(%rbp)
  37:TestTestMacros.cpp **** {
 10906              		.loc 6 37 0
 10907 480c 488B45F8 		movq	-8(%rbp), %rax
 10908 4810 4889C7   		movq	%rax, %rdi
 10909 4813 E8AEFFFF 		call	_ZN12_GLOBAL__N_132TestThrowingThingieDummyTestNameD2Ev
 10909      FF
 10910 4818 488B45F8 		movq	-8(%rbp), %rax
 10911 481c 4889C7   		movq	%rax, %rdi
 10912 481f E8000000 		call	_ZdlPv
 10912      00
 10913 4824 C9       		leave
 10914              		.cfi_def_cfa 7, 8
 10915 4825 C3       		ret
 10916              		.cfi_endproc
 10917              	.LFE1372:
 10919              		.section	.rodata
 10920 1288 00000000 		.align 32
 10920      00000000 
 10920      00000000 
 10920      00000000 
 10920      00000000 
 10923              	_ZTVN12_GLOBAL__N_138TestTestsAreAddedToTheListThroughMacroE:
 10924 12a0 00000000 		.quad	0
 10924      00000000 
 10925 12a8 00000000 		.quad	_ZTIN12_GLOBAL__N_138TestTestsAreAddedToTheListThroughMacroE
 10925      00000000 
 10926 12b0 00000000 		.quad	_ZN12_GLOBAL__N_138TestTestsAreAddedToTheListThroughMacroD1Ev
 10926      00000000 
 10927 12b8 00000000 		.quad	_ZN12_GLOBAL__N_138TestTestsAreAddedToTheListThroughMacroD0Ev
 10927      00000000 
 10928 12c0 00000000 		.quad	_ZNK12_GLOBAL__N_138TestTestsAreAddedToTheListThroughMacro7RunImplEv
 10928      00000000 
 10929              		.text
 10930              		.align 2
 10932              	_ZN12_GLOBAL__N_138TestTestsAreAddedToTheListThroughMacroD2Ev:
 10933              	.LFB1374:
  19:TestTestMacros.cpp **** {
 10934              		.loc 6 19 0
 10935              		.cfi_startproc
 10936 4826 55       		pushq	%rbp
 10937              		.cfi_def_cfa_offset 16
 10938              		.cfi_offset 6, -16
 10939 4827 4889E5   		movq	%rsp, %rbp
 10940              		.cfi_def_cfa_register 6
 10941 482a 4883EC10 		subq	$16, %rsp
 10942 482e 48897DF8 		movq	%rdi, -8(%rbp)
 10943              	.LBB247:
  19:TestTestMacros.cpp **** {
 10944              		.loc 6 19 0
 10945 4832 488B45F8 		movq	-8(%rbp), %rax
 10946 4836 48C70000 		movq	$_ZTVN12_GLOBAL__N_138TestTestsAreAddedToTheListThroughMacroE+16, (%rax)
 10946      000000
 10947 483d 488B45F8 		movq	-8(%rbp), %rax
 10948 4841 4889C7   		movq	%rax, %rdi
 10949 4844 E8000000 		call	_ZN8UnitTest4TestD2Ev
 10949      00
 10950              	.LBE247:
 10951 4849 B8000000 		movl	$0, %eax
 10951      00
 10952 484e 85C0     		testl	%eax, %eax
 10953 4850 740C     		je	.L620
  19:TestTestMacros.cpp **** {
 10954              		.loc 6 19 0 is_stmt 0 discriminator 4
 10955 4852 488B45F8 		movq	-8(%rbp), %rax
 10956 4856 4889C7   		movq	%rax, %rdi
 10957 4859 E8000000 		call	_ZdlPv
 10957      00
 10958              	.L620:
  19:TestTestMacros.cpp **** {
 10959              		.loc 6 19 0
 10960 485e C9       		leave
 10961              		.cfi_def_cfa 7, 8
 10962 485f C3       		ret
 10963              		.cfi_endproc
 10964              	.LFE1374:
 10966              		.set	_ZN12_GLOBAL__N_138TestTestsAreAddedToTheListThroughMacroD1Ev,_ZN12_GLOBAL__N_138TestTestsAre
 10967              		.align 2
 10969              	_ZN12_GLOBAL__N_138TestTestsAreAddedToTheListThroughMacroD0Ev:
 10970              	.LFB1376:
  19:TestTestMacros.cpp **** {
 10971              		.loc 6 19 0 is_stmt 1
 10972              		.cfi_startproc
 10973 4860 55       		pushq	%rbp
 10974              		.cfi_def_cfa_offset 16
 10975              		.cfi_offset 6, -16
 10976 4861 4889E5   		movq	%rsp, %rbp
 10977              		.cfi_def_cfa_register 6
 10978 4864 4883EC10 		subq	$16, %rsp
 10979 4868 48897DF8 		movq	%rdi, -8(%rbp)
  19:TestTestMacros.cpp **** {
 10980              		.loc 6 19 0
 10981 486c 488B45F8 		movq	-8(%rbp), %rax
 10982 4870 4889C7   		movq	%rax, %rdi
 10983 4873 E8AEFFFF 		call	_ZN12_GLOBAL__N_138TestTestsAreAddedToTheListThroughMacroD2Ev
 10983      FF
 10984 4878 488B45F8 		movq	-8(%rbp), %rax
 10985 487c 4889C7   		movq	%rax, %rdi
 10986 487f E8000000 		call	_ZdlPv
 10986      00
 10987 4884 C9       		leave
 10988              		.cfi_def_cfa 7, 8
 10989 4885 C3       		ret
 10990              		.cfi_endproc
 10991              	.LFE1376:
 10993              		.section	.rodata
 10994 12c8 00000000 		.align 32
 10994      00000000 
 10994      00000000 
 10994      00000000 
 10994      00000000 
 10997              	_ZTVN12_GLOBAL__N_113TestDummyTestE:
 10998 12e0 00000000 		.quad	0
 10998      00000000 
 10999 12e8 00000000 		.quad	_ZTIN12_GLOBAL__N_113TestDummyTestE
 10999      00000000 
 11000 12f0 00000000 		.quad	_ZN12_GLOBAL__N_113TestDummyTestD1Ev
 11000      00000000 
 11001 12f8 00000000 		.quad	_ZN12_GLOBAL__N_113TestDummyTestD0Ev
 11001      00000000 
 11002 1300 00000000 		.quad	_ZNK12_GLOBAL__N_113TestDummyTest7RunImplEv
 11002      00000000 
 11003              		.text
 11004              		.align 2
 11006              	_ZN12_GLOBAL__N_113TestDummyTestD2Ev:
 11007              	.LFB1378:
  15:TestTestMacros.cpp **** {
 11008              		.loc 6 15 0
 11009              		.cfi_startproc
 11010 4886 55       		pushq	%rbp
 11011              		.cfi_def_cfa_offset 16
 11012              		.cfi_offset 6, -16
 11013 4887 4889E5   		movq	%rsp, %rbp
 11014              		.cfi_def_cfa_register 6
 11015 488a 4883EC10 		subq	$16, %rsp
 11016 488e 48897DF8 		movq	%rdi, -8(%rbp)
 11017              	.LBB248:
  15:TestTestMacros.cpp **** {
 11018              		.loc 6 15 0
 11019 4892 488B45F8 		movq	-8(%rbp), %rax
 11020 4896 48C70000 		movq	$_ZTVN12_GLOBAL__N_113TestDummyTestE+16, (%rax)
 11020      000000
 11021 489d 488B45F8 		movq	-8(%rbp), %rax
 11022 48a1 4889C7   		movq	%rax, %rdi
 11023 48a4 E8000000 		call	_ZN8UnitTest4TestD2Ev
 11023      00
 11024              	.LBE248:
 11025 48a9 B8000000 		movl	$0, %eax
 11025      00
 11026 48ae 85C0     		testl	%eax, %eax
 11027 48b0 740C     		je	.L625
  15:TestTestMacros.cpp **** {
 11028              		.loc 6 15 0 is_stmt 0 discriminator 4
 11029 48b2 488B45F8 		movq	-8(%rbp), %rax
 11030 48b6 4889C7   		movq	%rax, %rdi
 11031 48b9 E8000000 		call	_ZdlPv
 11031      00
 11032              	.L625:
  15:TestTestMacros.cpp **** {
 11033              		.loc 6 15 0
 11034 48be C9       		leave
 11035              		.cfi_def_cfa 7, 8
 11036 48bf C3       		ret
 11037              		.cfi_endproc
 11038              	.LFE1378:
 11040              		.set	_ZN12_GLOBAL__N_113TestDummyTestD1Ev,_ZN12_GLOBAL__N_113TestDummyTestD2Ev
 11041              		.align 2
 11043              	_ZN12_GLOBAL__N_113TestDummyTestD0Ev:
 11044              	.LFB1380:
  15:TestTestMacros.cpp **** {
 11045              		.loc 6 15 0 is_stmt 1
 11046              		.cfi_startproc
 11047 48c0 55       		pushq	%rbp
 11048              		.cfi_def_cfa_offset 16
 11049              		.cfi_offset 6, -16
 11050 48c1 4889E5   		movq	%rsp, %rbp
 11051              		.cfi_def_cfa_register 6
 11052 48c4 4883EC10 		subq	$16, %rsp
 11053 48c8 48897DF8 		movq	%rdi, -8(%rbp)
  15:TestTestMacros.cpp **** {
 11054              		.loc 6 15 0
 11055 48cc 488B45F8 		movq	-8(%rbp), %rax
 11056 48d0 4889C7   		movq	%rax, %rdi
 11057 48d3 E8AEFFFF 		call	_ZN12_GLOBAL__N_113TestDummyTestD2Ev
 11057      FF
 11058 48d8 488B45F8 		movq	-8(%rbp), %rax
 11059 48dc 4889C7   		movq	%rax, %rdi
 11060 48df E8000000 		call	_ZdlPv
 11060      00
 11061 48e4 C9       		leave
 11062              		.cfi_def_cfa 7, 8
 11063 48e5 C3       		ret
 11064              		.cfi_endproc
 11065              	.LFE1380:
 11067              		.weak	_ZTV17RecordingReporter
 11068              		.section	.rodata._ZTV17RecordingReporter,"aG",@progbits,_ZTV17RecordingReporter,comdat
 11069              		.align 64
 11072              	_ZTV17RecordingReporter:
 11073 0000 00000000 		.quad	0
 11073      00000000 
 11074 0008 00000000 		.quad	_ZTI17RecordingReporter
 11074      00000000 
 11075 0010 00000000 		.quad	_ZN17RecordingReporterD1Ev
 11075      00000000 
 11076 0018 00000000 		.quad	_ZN17RecordingReporterD0Ev
 11076      00000000 
 11077 0020 00000000 		.quad	_ZN17RecordingReporter15ReportTestStartERKN8UnitTest11TestDetailsE
 11077      00000000 
 11078 0028 00000000 		.quad	_ZN17RecordingReporter13ReportFailureERKN8UnitTest11TestDetailsEPKc
 11078      00000000 
 11079 0030 00000000 		.quad	_ZN17RecordingReporter16ReportTestFinishERKN8UnitTest11TestDetailsEf
 11079      00000000 
 11080 0038 00000000 		.quad	_ZN17RecordingReporter13ReportSummaryEiiif
 11080      00000000 
 11081              		.section	.text._ZN17RecordingReporterD2Ev,"axG",@progbits,_ZN17RecordingReporterD5Ev,comdat
 11082              		.align 2
 11083              		.weak	_ZN17RecordingReporterD2Ev
 11085              	_ZN17RecordingReporterD2Ev:
 11086              	.LFB1382:
   9:RecordingReporter.h **** {
 11087              		.loc 4 9 0
 11088              		.cfi_startproc
 11089 0000 55       		pushq	%rbp
 11090              		.cfi_def_cfa_offset 16
 11091              		.cfi_offset 6, -16
 11092 0001 4889E5   		movq	%rsp, %rbp
 11093              		.cfi_def_cfa_register 6
 11094 0004 4883EC10 		subq	$16, %rsp
 11095 0008 48897DF8 		movq	%rdi, -8(%rbp)
 11096              	.LBB249:
   9:RecordingReporter.h **** {
 11097              		.loc 4 9 0
 11098 000c 488B45F8 		movq	-8(%rbp), %rax
 11099 0010 48C70000 		movq	$_ZTV17RecordingReporter+16, (%rax)
 11099      000000
 11100 0017 488B45F8 		movq	-8(%rbp), %rax
 11101 001b 4889C7   		movq	%rax, %rdi
 11102 001e E8000000 		call	_ZN8UnitTest12TestReporterD2Ev
 11102      00
 11103              	.LBE249:
 11104 0023 B8000000 		movl	$0, %eax
 11104      00
 11105 0028 85C0     		testl	%eax, %eax
 11106 002a 740C     		je	.L630
   9:RecordingReporter.h **** {
 11107              		.loc 4 9 0 is_stmt 0 discriminator 4
 11108 002c 488B45F8 		movq	-8(%rbp), %rax
 11109 0030 4889C7   		movq	%rax, %rdi
 11110 0033 E8000000 		call	_ZdlPv
 11110      00
 11111              	.L630:
   9:RecordingReporter.h **** {
 11112              		.loc 4 9 0
 11113 0038 C9       		leave
 11114              		.cfi_def_cfa 7, 8
 11115 0039 C3       		ret
 11116              		.cfi_endproc
 11117              	.LFE1382:
 11119              		.weak	_ZN17RecordingReporterD1Ev
 11120              		.set	_ZN17RecordingReporterD1Ev,_ZN17RecordingReporterD2Ev
 11121              		.section	.text._ZN17RecordingReporterD0Ev,"axG",@progbits,_ZN17RecordingReporterD5Ev,comdat
 11122              		.align 2
 11123              		.weak	_ZN17RecordingReporterD0Ev
 11125              	_ZN17RecordingReporterD0Ev:
 11126              	.LFB1384:
   9:RecordingReporter.h **** {
 11127              		.loc 4 9 0 is_stmt 1
 11128              		.cfi_startproc
 11129 0000 55       		pushq	%rbp
 11130              		.cfi_def_cfa_offset 16
 11131              		.cfi_offset 6, -16
 11132 0001 4889E5   		movq	%rsp, %rbp
 11133              		.cfi_def_cfa_register 6
 11134 0004 4883EC10 		subq	$16, %rsp
 11135 0008 48897DF8 		movq	%rdi, -8(%rbp)
   9:RecordingReporter.h **** {
 11136              		.loc 4 9 0
 11137 000c 488B45F8 		movq	-8(%rbp), %rax
 11138 0010 4889C7   		movq	%rax, %rdi
 11139 0013 E8000000 		call	_ZN17RecordingReporterD1Ev
 11139      00
 11140 0018 488B45F8 		movq	-8(%rbp), %rax
 11141 001c 4889C7   		movq	%rax, %rdi
 11142 001f E8000000 		call	_ZdlPv
 11142      00
 11143 0024 C9       		leave
 11144              		.cfi_def_cfa 7, 8
 11145 0025 C3       		ret
 11146              		.cfi_endproc
 11147              	.LFE1384:
 11149              		.weak	_ZTVN8UnitTest15MemoryOutStreamE
 11150              		.section	.rodata._ZTVN8UnitTest15MemoryOutStreamE,"aG",@progbits,_ZTVN8UnitTest15MemoryOutStreamE,
 11151              		.align 64
 11154              	_ZTVN8UnitTest15MemoryOutStreamE:
 11155 0000 60000000 		.quad	96
 11155      00000000 
 11156 0008 00000000 		.quad	0
 11156      00000000 
 11157 0010 00000000 		.quad	_ZTIN8UnitTest15MemoryOutStreamE
 11157      00000000 
 11158 0018 00000000 		.quad	_ZN8UnitTest15MemoryOutStreamD1Ev
 11158      00000000 
 11159 0020 00000000 		.quad	_ZN8UnitTest15MemoryOutStreamD0Ev
 11159      00000000 
 11160 0028 A0FFFFFF 		.quad	-96
 11160      FFFFFFFF 
 11161 0030 A0FFFFFF 		.quad	-96
 11161      FFFFFFFF 
 11162 0038 00000000 		.quad	_ZTIN8UnitTest15MemoryOutStreamE
 11162      00000000 
 11163 0040 00000000 		.quad	_ZTv0_n24_N8UnitTest15MemoryOutStreamD1Ev
 11163      00000000 
 11164 0048 00000000 		.quad	_ZTv0_n24_N8UnitTest15MemoryOutStreamD0Ev
 11164      00000000 
 11165              		.section	.text._ZN8UnitTest15MemoryOutStreamD1Ev,"axG",@progbits,_ZN8UnitTest15MemoryOutStreamD1Ev
 11166              		.align 2
 11167              		.weak	_ZN8UnitTest15MemoryOutStreamD1Ev
 11169              	_ZN8UnitTest15MemoryOutStreamD1Ev:
 11170              	.LFB1387:
  13:../MemoryOutStream.h **** {
 11171              		.loc 2 13 0
 11172              		.cfi_startproc
 11173              		.cfi_personality 0x3,__gxx_personality_v0
 11174              		.cfi_lsda 0x3,.LLSDA1387
 11175 0000 55       		pushq	%rbp
 11176              		.cfi_def_cfa_offset 16
 11177              		.cfi_offset 6, -16
 11178 0001 4889E5   		movq	%rsp, %rbp
 11179              		.cfi_def_cfa_register 6
 11180 0004 53       		pushq	%rbx
 11181 0005 4883EC18 		subq	$24, %rsp
 11182              		.cfi_offset 3, -24
 11183 0009 48897DE8 		movq	%rdi, -24(%rbp)
 11184              	.LBB250:
  13:../MemoryOutStream.h **** {
 11185              		.loc 2 13 0
 11186 000d BA000000 		movl	$_ZTVN8UnitTest15MemoryOutStreamE+24, %edx
 11186      00
 11187 0012 488B45E8 		movq	-24(%rbp), %rax
 11188 0016 488910   		movq	%rdx, (%rax)
 11189 0019 BA600000 		movl	$96, %edx
 11189      00
 11190 001e 488B45E8 		movq	-24(%rbp), %rax
 11191 0022 4801D0   		addq	%rdx, %rax
 11192 0025 BA000000 		movl	$_ZTVN8UnitTest15MemoryOutStreamE+64, %edx
 11192      00
 11193 002a 488910   		movq	%rdx, (%rax)
 11194 002d 488B45E8 		movq	-24(%rbp), %rax
 11195 0031 4883C058 		addq	$88, %rax
 11196 0035 4889C7   		movq	%rax, %rdi
 11197              	.LEHB265:
 11198 0038 E8000000 		call	_ZNSsD1Ev
 11198      00
 11199              	.LEHE265:
  13:../MemoryOutStream.h **** {
 11200              		.loc 2 13 0 is_stmt 0 discriminator 14
 11201 003d BA000000 		movl	$_ZTTN8UnitTest15MemoryOutStreamE+8, %edx
 11201      00
 11202 0042 488B45E8 		movq	-24(%rbp), %rax
 11203 0046 4889D6   		movq	%rdx, %rsi
 11204 0049 4889C7   		movq	%rax, %rdi
 11205              	.LEHB266:
 11206 004c E8000000 		call	_ZNSt19basic_ostringstreamIcSt11char_traitsIcESaIcEED2Ev
 11206      00
 11207              	.LEHE266:
  13:../MemoryOutStream.h **** {
 11208              		.loc 2 13 0 discriminator 20
 11209 0051 B8020000 		movl	$2, %eax
 11209      00
 11210 0056 85C0     		testl	%eax, %eax
 11211 0058 7410     		je	.L637
  13:../MemoryOutStream.h **** {
 11212              		.loc 2 13 0 discriminator 21
 11213 005a 488B45E8 		movq	-24(%rbp), %rax
 11214 005e 4883C060 		addq	$96, %rax
 11215 0062 4889C7   		movq	%rax, %rdi
 11216              	.LEHB267:
 11217 0065 E8000000 		call	_ZNSt9basic_iosIcSt11char_traitsIcEED2Ev
 11217      00
 11218              	.LEHE267:
 11219              	.L637:
 11220              	.LBE250:
  13:../MemoryOutStream.h **** {
 11221              		.loc 2 13 0 discriminator 24
 11222 006a B8000000 		movl	$0, %eax
 11222      00
 11223 006f 85C0     		testl	%eax, %eax
 11224 0071 744E     		je	.L644
  13:../MemoryOutStream.h **** {
 11225              		.loc 2 13 0 discriminator 25
 11226 0073 488B45E8 		movq	-24(%rbp), %rax
 11227 0077 4889C7   		movq	%rax, %rdi
 11228 007a E8000000 		call	_ZdlPv
 11228      00
 11229 007f EB40     		jmp	.L644
 11230              	.L642:
 11231 0081 4889C3   		movq	%rax, %rbx
 11232              	.LBB251:
  13:../MemoryOutStream.h **** {
 11233              		.loc 2 13 0
 11234 0084 BA000000 		movl	$_ZTTN8UnitTest15MemoryOutStreamE+8, %edx
 11234      00
 11235 0089 488B45E8 		movq	-24(%rbp), %rax
 11236 008d 4889D6   		movq	%rdx, %rsi
 11237 0090 4889C7   		movq	%rax, %rdi
 11238 0093 E8000000 		call	_ZNSt19basic_ostringstreamIcSt11char_traitsIcESaIcEED2Ev
 11238      00
 11239 0098 EB03     		jmp	.L640
 11240              	.L643:
 11241 009a 4889C3   		movq	%rax, %rbx
 11242              	.L640:
  13:../MemoryOutStream.h **** {
 11243              		.loc 2 13 0 discriminator 19
 11244 009d B8020000 		movl	$2, %eax
 11244      00
 11245 00a2 85C0     		testl	%eax, %eax
 11246 00a4 7410     		je	.L641
  13:../MemoryOutStream.h **** {
 11247              		.loc 2 13 0 discriminator 32
 11248 00a6 488B45E8 		movq	-24(%rbp), %rax
 11249 00aa 4883C060 		addq	$96, %rax
 11250 00ae 4889C7   		movq	%rax, %rdi
 11251 00b1 E8000000 		call	_ZNSt9basic_iosIcSt11char_traitsIcEED2Ev
 11251      00
 11252              	.L641:
 11253 00b6 4889D8   		movq	%rbx, %rax
 11254 00b9 4889C7   		movq	%rax, %rdi
 11255              	.LEHB268:
 11256 00bc E8000000 		call	_Unwind_Resume
 11256      00
 11257              	.LEHE268:
 11258              	.L644:
 11259              	.LBE251:
  13:../MemoryOutStream.h **** {
 11260              		.loc 2 13 0
 11261 00c1 4883C418 		addq	$24, %rsp
 11262 00c5 5B       		popq	%rbx
 11263 00c6 5D       		popq	%rbp
 11264              		.cfi_def_cfa 7, 8
 11265 00c7 C3       		ret
 11266              		.cfi_endproc
 11267              	.LFE1387:
 11268              		.section	.gcc_except_table
 11269              	.LLSDA1387:
 11270 0750 FF       		.byte	0xff
 11271 0751 FF       		.byte	0xff
 11272 0752 01       		.byte	0x1
 11273 0753 13       		.uleb128 .LLSDACSE1387-.LLSDACSB1387
 11274              	.LLSDACSB1387:
 11275 0754 38       		.uleb128 .LEHB265-.LFB1387
 11276 0755 05       		.uleb128 .LEHE265-.LEHB265
 11277 0756 8101     		.uleb128 .L642-.LFB1387
 11278 0758 00       		.uleb128 0
 11279 0759 4C       		.uleb128 .LEHB266-.LFB1387
 11280 075a 05       		.uleb128 .LEHE266-.LEHB266
 11281 075b 9A01     		.uleb128 .L643-.LFB1387
 11282 075d 00       		.uleb128 0
 11283 075e 65       		.uleb128 .LEHB267-.LFB1387
 11284 075f 05       		.uleb128 .LEHE267-.LEHB267
 11285 0760 00       		.uleb128 0
 11286 0761 00       		.uleb128 0
 11287 0762 BC01     		.uleb128 .LEHB268-.LFB1387
 11288 0764 05       		.uleb128 .LEHE268-.LEHB268
 11289 0765 00       		.uleb128 0
 11290 0766 00       		.uleb128 0
 11291              	.LLSDACSE1387:
 11292              		.section	.text._ZN8UnitTest15MemoryOutStreamD1Ev,"axG",@progbits,_ZN8UnitTest15MemoryOutStreamD1Ev
 11294              		.set	.LTHUNK0,_ZN8UnitTest15MemoryOutStreamD1Ev
 11295              		.weak	_ZTv0_n24_N8UnitTest15MemoryOutStreamD1Ev
 11297              	_ZTv0_n24_N8UnitTest15MemoryOutStreamD1Ev:
 11298              	.LFB1391:
  13:../MemoryOutStream.h **** {
 11299              		.loc 2 13 0 is_stmt 1
 11300              		.cfi_startproc
 11301 00c8 4C8B17   		movq	(%rdi), %r10
 11302 00cb 49037AE8 		addq	-24(%r10), %rdi
 11303 00cf E92CFFFF 		jmp	.LTHUNK0
 11303      FF
 11304              		.cfi_endproc
 11305              	.LFE1391:
 11307              		.section	.text._ZN8UnitTest15MemoryOutStreamD0Ev,"axG",@progbits,_ZN8UnitTest15MemoryOutStreamD0Ev
 11308              		.align 2
 11309              		.weak	_ZN8UnitTest15MemoryOutStreamD0Ev
 11311              	_ZN8UnitTest15MemoryOutStreamD0Ev:
 11312              	.LFB1388:
  13:../MemoryOutStream.h **** {
 11313              		.loc 2 13 0
 11314              		.cfi_startproc
 11315 0000 55       		pushq	%rbp
 11316              		.cfi_def_cfa_offset 16
 11317              		.cfi_offset 6, -16
 11318 0001 4889E5   		movq	%rsp, %rbp
 11319              		.cfi_def_cfa_register 6
 11320 0004 4883EC10 		subq	$16, %rsp
 11321 0008 48897DF8 		movq	%rdi, -8(%rbp)
  13:../MemoryOutStream.h **** {
 11322              		.loc 2 13 0
 11323 000c 488B45F8 		movq	-8(%rbp), %rax
 11324 0010 4889C7   		movq	%rax, %rdi
 11325 0013 E8000000 		call	_ZN8UnitTest15MemoryOutStreamD1Ev
 11325      00
 11326 0018 488B45F8 		movq	-8(%rbp), %rax
 11327 001c 4889C7   		movq	%rax, %rdi
 11328 001f E8000000 		call	_ZdlPv
 11328      00
 11329 0024 C9       		leave
 11330              		.cfi_def_cfa 7, 8
 11331 0025 C3       		ret
 11332              		.cfi_endproc
 11333              	.LFE1388:
 11335              		.set	.LTHUNK1,_ZN8UnitTest15MemoryOutStreamD0Ev
 11336              		.weak	_ZTv0_n24_N8UnitTest15MemoryOutStreamD0Ev
 11338              	_ZTv0_n24_N8UnitTest15MemoryOutStreamD0Ev:
 11339              	.LFB1392:
  13:../MemoryOutStream.h **** {
 11340              		.loc 2 13 0
 11341              		.cfi_startproc
 11342 0026 4C8B17   		movq	(%rdi), %r10
 11343 0029 49037AE8 		addq	-24(%r10), %rdi
 11344 002d EBD1     		jmp	.LTHUNK1
 11345              		.cfi_endproc
 11346              	.LFE1392:
 11348              		.weak	_ZTTN8UnitTest15MemoryOutStreamE
 11349              		.section	.rodata._ZTTN8UnitTest15MemoryOutStreamE,"aG",@progbits,_ZTVN8UnitTest15MemoryOutStreamE,
 11350              		.align 32
 11353              	_ZTTN8UnitTest15MemoryOutStreamE:
 11354 0000 00000000 		.quad	_ZTVN8UnitTest15MemoryOutStreamE+24
 11354      00000000 
 11355 0008 00000000 		.quad	_ZTCN8UnitTest15MemoryOutStreamE0_St19basic_ostringstreamIcSt11char_traitsIcESaIcEE+24
 11355      00000000 
 11356 0010 00000000 		.quad	_ZTCN8UnitTest15MemoryOutStreamE0_So+24
 11356      00000000 
 11357 0018 00000000 		.quad	_ZTCN8UnitTest15MemoryOutStreamE0_So+64
 11357      00000000 
 11358 0020 00000000 		.quad	_ZTCN8UnitTest15MemoryOutStreamE0_St19basic_ostringstreamIcSt11char_traitsIcESaIcEE+64
 11358      00000000 
 11359 0028 00000000 		.quad	_ZTVN8UnitTest15MemoryOutStreamE+64
 11359      00000000 
 11360              		.hidden	_ZTCN8UnitTest15MemoryOutStreamE0_St19basic_ostringstreamIcSt11char_traitsIcESaIcEE
 11361              		.weak	_ZTCN8UnitTest15MemoryOutStreamE0_St19basic_ostringstreamIcSt11char_traitsIcESaIcEE
 11362              		.section	.rodata._ZTCN8UnitTest15MemoryOutStreamE0_St19basic_ostringstreamIcSt11char_traitsIcESaIc
 11363              		.align 64
 11366              	_ZTCN8UnitTest15MemoryOutStreamE0_St19basic_ostringstreamIcSt11char_traitsIcESaIcEE:
 11367 0000 60000000 		.quad	96
 11367      00000000 
 11368 0008 00000000 		.quad	0
 11368      00000000 
 11369 0010 00000000 		.quad	_ZTISt19basic_ostringstreamIcSt11char_traitsIcESaIcEE
 11369      00000000 
 11370 0018 00000000 		.quad	0
 11370      00000000 
 11371 0020 00000000 		.quad	0
 11371      00000000 
 11372 0028 A0FFFFFF 		.quad	-96
 11372      FFFFFFFF 
 11373 0030 A0FFFFFF 		.quad	-96
 11373      FFFFFFFF 
 11374 0038 00000000 		.quad	_ZTISt19basic_ostringstreamIcSt11char_traitsIcESaIcEE
 11374      00000000 
 11375 0040 00000000 		.quad	0
 11375      00000000 
 11376 0048 00000000 		.quad	0
 11376      00000000 
 11377              		.hidden	_ZTCN8UnitTest15MemoryOutStreamE0_So
 11378              		.weak	_ZTCN8UnitTest15MemoryOutStreamE0_So
 11379              		.section	.rodata._ZTCN8UnitTest15MemoryOutStreamE0_So,"aG",@progbits,_ZTVN8UnitTest15MemoryOutStre
 11380              		.align 64
 11383              	_ZTCN8UnitTest15MemoryOutStreamE0_So:
 11384 0000 60000000 		.quad	96
 11384      00000000 
 11385 0008 00000000 		.quad	0
 11385      00000000 
 11386 0010 00000000 		.quad	_ZTISo
 11386      00000000 
 11387 0018 00000000 		.quad	0
 11387      00000000 
 11388 0020 00000000 		.quad	0
 11388      00000000 
 11389 0028 A0FFFFFF 		.quad	-96
 11389      FFFFFFFF 
 11390 0030 A0FFFFFF 		.quad	-96
 11390      FFFFFFFF 
 11391 0038 00000000 		.quad	_ZTISo
 11391      00000000 
 11392 0040 00000000 		.quad	0
 11392      00000000 
 11393 0048 00000000 		.quad	0
 11393      00000000 
 11394              		.weak	_ZTI44TestCurrentTestDetailsContainCurrentTestInfo
 11395              		.section	.rodata._ZTI44TestCurrentTestDetailsContainCurrentTestInfo,"aG",@progbits,_ZTI44TestCurre
 11396              		.align 16
 11399              	_ZTI44TestCurrentTestDetailsContainCurrentTestInfo:
 11400 0000 00000000 		.quad	_ZTVN10__cxxabiv120__si_class_type_infoE+16
 11400      00000000 
 11401 0008 00000000 		.quad	_ZTS44TestCurrentTestDetailsContainCurrentTestInfo
 11401      00000000 
 11402 0010 00000000 		.quad	_ZTIN8UnitTest4TestE
 11402      00000000 
 11403              		.weak	_ZTS44TestCurrentTestDetailsContainCurrentTestInfo
 11404              		.section	.rodata._ZTS44TestCurrentTestDetailsContainCurrentTestInfo,"aG",@progbits,_ZTS44TestCurre
 11405              		.align 32
 11408              	_ZTS44TestCurrentTestDetailsContainCurrentTestInfo:
 11409 0000 34345465 		.string	"44TestCurrentTestDetailsContainCurrentTestInfo"
 11409      73744375 
 11409      7272656E 
 11409      74546573 
 11409      74446574 
 11410              		.weak	_ZTIN18SuiteSameTestSuite14TestDummyTest1E
 11411              		.section	.rodata._ZTIN18SuiteSameTestSuite14TestDummyTest1E,"aG",@progbits,_ZTIN18SuiteSameTestSui
 11412              		.align 16
 11415              	_ZTIN18SuiteSameTestSuite14TestDummyTest1E:
 11416 0000 00000000 		.quad	_ZTVN10__cxxabiv120__si_class_type_infoE+16
 11416      00000000 
 11417 0008 00000000 		.quad	_ZTSN18SuiteSameTestSuite14TestDummyTest1E
 11417      00000000 
 11418 0010 00000000 		.quad	_ZTIN8UnitTest4TestE
 11418      00000000 
 11419              		.weak	_ZTSN18SuiteSameTestSuite14TestDummyTest1E
 11420              		.section	.rodata._ZTSN18SuiteSameTestSuite14TestDummyTest1E,"aG",@progbits,_ZTSN18SuiteSameTestSui
 11421              		.align 32
 11424              	_ZTSN18SuiteSameTestSuite14TestDummyTest1E:
 11425 0000 4E313853 		.string	"N18SuiteSameTestSuite14TestDummyTest1E"
 11425      75697465 
 11425      53616D65 
 11425      54657374 
 11425      53756974 
 11426              		.weak	_ZTS17RecordingReporter
 11427              		.section	.rodata._ZTS17RecordingReporter,"aG",@progbits,_ZTS17RecordingReporter,comdat
 11428              		.align 16
 11431              	_ZTS17RecordingReporter:
 11432 0000 31375265 		.string	"17RecordingReporter"
 11432      636F7264 
 11432      696E6752 
 11432      65706F72 
 11432      74657200 
 11433              		.weak	_ZTI17RecordingReporter
 11434              		.section	.rodata._ZTI17RecordingReporter,"aG",@progbits,_ZTI17RecordingReporter,comdat
 11435              		.align 16
 11438              	_ZTI17RecordingReporter:
 11439 0000 00000000 		.quad	_ZTVN10__cxxabiv120__si_class_type_infoE+16
 11439      00000000 
 11440 0008 00000000 		.quad	_ZTS17RecordingReporter
 11440      00000000 
 11441 0010 00000000 		.quad	_ZTIN8UnitTest12TestReporterE
 11441      00000000 
 11442              		.weak	_ZTSN8UnitTest15MemoryOutStreamE
 11443              		.section	.rodata._ZTSN8UnitTest15MemoryOutStreamE,"aG",@progbits,_ZTSN8UnitTest15MemoryOutStreamE,
 11444              		.align 16
 11447              	_ZTSN8UnitTest15MemoryOutStreamE:
 11448 0000 4E38556E 		.string	"N8UnitTest15MemoryOutStreamE"
 11448      69745465 
 11448      73743135 
 11448      4D656D6F 
 11448      72794F75 
 11449              		.weak	_ZTIN8UnitTest15MemoryOutStreamE
 11450              		.section	.rodata._ZTIN8UnitTest15MemoryOutStreamE,"aG",@progbits,_ZTIN8UnitTest15MemoryOutStreamE,
 11451              		.align 16
 11454              	_ZTIN8UnitTest15MemoryOutStreamE:
 11455 0000 00000000 		.quad	_ZTVN10__cxxabiv120__si_class_type_infoE+16
 11455      00000000 
 11456 0008 00000000 		.quad	_ZTSN8UnitTest15MemoryOutStreamE
 11456      00000000 
 11457 0010 00000000 		.quad	_ZTISt19basic_ostringstreamIcSt11char_traitsIcESaIcEE
 11457      00000000 
 11458              		.text
 11460              	_Z41__static_initialization_and_destruction_0ii:
 11461              	.LFB1389:
 11462              		.loc 6 208 0
 11463              		.cfi_startproc
 11464 48e6 55       		pushq	%rbp
 11465              		.cfi_def_cfa_offset 16
 11466              		.cfi_offset 6, -16
 11467 48e7 4889E5   		movq	%rsp, %rbp
 11468              		.cfi_def_cfa_register 6
 11469 48ea 4883EC10 		subq	$16, %rsp
 11470 48ee 897DFC   		movl	%edi, -4(%rbp)
 11471 48f1 8975F8   		movl	%esi, -8(%rbp)
 11472              		.loc 6 208 0
 11473 48f4 837DFC01 		cmpl	$1, -4(%rbp)
 11474 48f8 0F856204 		jne	.L647
 11474      0000
 11475              		.loc 6 208 0 is_stmt 0 discriminator 1
 11476 48fe 817DF8FF 		cmpl	$65535, -8(%rbp)
 11476      FF0000
 11477 4905 0F855504 		jne	.L647
 11477      0000
  14:TestTestMacros.cpp **** TEST_EX(DummyTest, list1)
 11478              		.loc 6 14 0 is_stmt 1
 11479 490b BF000000 		movl	$_ZN12_GLOBAL__N_15list1E, %edi
 11479      00
 11480 4910 E8000000 		call	_ZN8UnitTest8TestListC1Ev
 11480      00
  15:TestTestMacros.cpp **** {
 11481              		.loc 6 15 0
 11482 4915 BF000000 		movl	$_ZN12_GLOBAL__N_121testDummyTestInstanceE, %edi
 11482      00
 11483 491a E8E1B6FF 		call	_ZN12_GLOBAL__N_113TestDummyTestC2Ev
 11483      FF
 11484 491f BA000000 		movl	$__dso_handle, %edx
 11484      00
 11485 4924 BE000000 		movl	$_ZN12_GLOBAL__N_121testDummyTestInstanceE, %esi
 11485      00
 11486 4929 BF000000 		movl	$_ZN12_GLOBAL__N_113TestDummyTestD1Ev, %edi
 11486      00
 11487 492e E8000000 		call	__cxa_atexit
 11487      00
 11488 4933 BA000000 		movl	$_ZN12_GLOBAL__N_121testDummyTestInstanceE, %edx
 11488      00
 11489 4938 BE000000 		movl	$_ZN12_GLOBAL__N_15list1E, %esi
 11489      00
 11490 493d BF000000 		movl	$_ZN12_GLOBAL__N_114adderDummyTestE, %edi
 11490      00
 11491 4942 E8000000 		call	_ZN8UnitTest9ListAdderC1ERNS_8TestListEPNS_4TestE
 11491      00
  19:TestTestMacros.cpp **** {
 11492              		.loc 6 19 0
 11493 4947 BF000000 		movl	$_ZN12_GLOBAL__N_146testTestsAreAddedToTheListThroughMacroInstanceE, %edi
 11493      00
 11494 494c E8F7B6FF 		call	_ZN12_GLOBAL__N_138TestTestsAreAddedToTheListThroughMacroC2Ev
 11494      FF
 11495 4951 BA000000 		movl	$__dso_handle, %edx
 11495      00
 11496 4956 BE000000 		movl	$_ZN12_GLOBAL__N_146testTestsAreAddedToTheListThroughMacroInstanceE, %esi
 11496      00
 11497 495b BF000000 		movl	$_ZN12_GLOBAL__N_138TestTestsAreAddedToTheListThroughMacroD1Ev, %edi
 11497      00
 11498 4960 E8000000 		call	__cxa_atexit
 11498      00
 11499 4965 E8000000 		call	_ZN8UnitTest4Test11GetTestListEv
 11499      00
 11500 496a BA000000 		movl	$_ZN12_GLOBAL__N_146testTestsAreAddedToTheListThroughMacroInstanceE, %edx
 11500      00
 11501 496f 4889C6   		movq	%rax, %rsi
 11502 4972 BF000000 		movl	$_ZN12_GLOBAL__N_139adderTestsAreAddedToTheListThroughMacroE, %edi
 11502      00
 11503 4977 E8000000 		call	_ZN8UnitTest9ListAdderC1ERNS_8TestListEPNS_4TestE
 11503      00
  36:TestTestMacros.cpp **** TEST_FIXTURE_EX(ThrowingThingie, DummyTestName, list2)
 11504              		.loc 6 36 0
 11505 497c BF000000 		movl	$_ZN12_GLOBAL__N_15list2E, %edi
 11505      00
 11506 4981 E8000000 		call	_ZN8UnitTest8TestListC1Ev
 11506      00
  37:TestTestMacros.cpp **** {
 11507              		.loc 6 37 0
 11508 4986 BF000000 		movl	$_ZN12_GLOBAL__N_140testThrowingThingieDummyTestNameInstanceE, %edi
 11508      00
 11509 498b E812B9FF 		call	_ZN12_GLOBAL__N_132TestThrowingThingieDummyTestNameC2Ev
 11509      FF
 11510 4990 BA000000 		movl	$__dso_handle, %edx
 11510      00
 11511 4995 BE000000 		movl	$_ZN12_GLOBAL__N_140testThrowingThingieDummyTestNameInstanceE, %esi
 11511      00
 11512 499a BF000000 		movl	$_ZN12_GLOBAL__N_132TestThrowingThingieDummyTestNameD1Ev, %edi
 11512      00
 11513 499f E8000000 		call	__cxa_atexit
 11513      00
 11514 49a4 BA000000 		movl	$_ZN12_GLOBAL__N_140testThrowingThingieDummyTestNameInstanceE, %edx
 11514      00
 11515 49a9 BE000000 		movl	$_ZN12_GLOBAL__N_15list2E, %esi
 11515      00
 11516 49ae BF000000 		movl	$_ZN12_GLOBAL__N_133adderThrowingThingieDummyTestNameE, %edi
 11516      00
 11517 49b3 E8000000 		call	_ZN8UnitTest9ListAdderC1ERNS_8TestListEPNS_4TestE
 11517      00
  41:TestTestMacros.cpp **** {
 11518              		.loc 6 41 0
 11519 49b8 BF000000 		movl	$_ZN12_GLOBAL__N_165testExceptionsInFixtureAreReportedAsHappeningInTheFixtureInstanceE, %edi
 11519      00
 11520 49bd E802BCFF 		call	_ZN12_GLOBAL__N_157TestExceptionsInFixtureAreReportedAsHappeningInTheFixtureC2Ev
 11520      FF
 11521 49c2 BA000000 		movl	$__dso_handle, %edx
 11521      00
 11522 49c7 BE000000 		movl	$_ZN12_GLOBAL__N_165testExceptionsInFixtureAreReportedAsHappeningInTheFixtureInstanceE, %esi
 11522      00
 11523 49cc BF000000 		movl	$_ZN12_GLOBAL__N_157TestExceptionsInFixtureAreReportedAsHappeningInTheFixtureD1Ev, %edi
 11523      00
 11524 49d1 E8000000 		call	__cxa_atexit
 11524      00
 11525 49d6 E8000000 		call	_ZN8UnitTest4Test11GetTestListEv
 11525      00
 11526 49db BA000000 		movl	$_ZN12_GLOBAL__N_165testExceptionsInFixtureAreReportedAsHappeningInTheFixtureInstanceE, %edx
 11526      00
 11527 49e0 4889C6   		movq	%rax, %rsi
 11528 49e3 BF000000 		movl	$_ZN12_GLOBAL__N_158adderExceptionsInFixtureAreReportedAsHappeningInTheFixtureE, %edi
 11528      00
 11529 49e8 E8000000 		call	_ZN8UnitTest9ListAdderC1ERNS_8TestListEPNS_4TestE
 11529      00
  63:TestTestMacros.cpp **** 	{
 11530              		.loc 6 63 0
 11531 49ed BF000000 		movl	$_ZN12_GLOBAL__N_115SuiteTestSuite152testSimilarlyNamedTestsInDifferentSuitesWorkInstanceE, %
 11531      00
 11532 49f2 E853BFFF 		call	_ZN12_GLOBAL__N_115SuiteTestSuite144TestSimilarlyNamedTestsInDifferentSuitesWorkC2Ev
 11532      FF
 11533 49f7 BA000000 		movl	$__dso_handle, %edx
 11533      00
 11534 49fc BE000000 		movl	$_ZN12_GLOBAL__N_115SuiteTestSuite152testSimilarlyNamedTestsInDifferentSuitesWorkInstanceE, %
 11534      00
 11535 4a01 BF000000 		movl	$_ZN12_GLOBAL__N_115SuiteTestSuite144TestSimilarlyNamedTestsInDifferentSuitesWorkD1Ev, %edi
 11535      00
 11536 4a06 E8000000 		call	__cxa_atexit
 11536      00
 11537 4a0b E8000000 		call	_ZN8UnitTest4Test11GetTestListEv
 11537      00
 11538 4a10 BA000000 		movl	$_ZN12_GLOBAL__N_115SuiteTestSuite152testSimilarlyNamedTestsInDifferentSuitesWorkInstanceE, %
 11538      00
 11539 4a15 4889C6   		movq	%rax, %rsi
 11540 4a18 BF000000 		movl	$_ZN12_GLOBAL__N_115SuiteTestSuite145adderSimilarlyNamedTestsInDifferentSuitesWorkE, %edi
 11540      00
 11541 4a1d E8000000 		call	_ZN8UnitTest9ListAdderC1ERNS_8TestListEPNS_4TestE
 11541      00
  67:TestTestMacros.cpp **** 	{
 11542              		.loc 6 67 0
 11543 4a22 BF000000 		movl	$_ZN12_GLOBAL__N_115SuiteTestSuite171testDummyFixtureSimilarlyNamedFixtureTestsInDifferentSui
 11543      00
 11544 4a27 E89ABFFF 		call	_ZN12_GLOBAL__N_115SuiteTestSuite163TestDummyFixtureSimilarlyNamedFixtureTestsInDifferentSuit
 11544      FF
 11545 4a2c BA000000 		movl	$__dso_handle, %edx
 11545      00
 11546 4a31 BE000000 		movl	$_ZN12_GLOBAL__N_115SuiteTestSuite171testDummyFixtureSimilarlyNamedFixtureTestsInDifferentSui
 11546      00
 11547 4a36 BF000000 		movl	$_ZN12_GLOBAL__N_115SuiteTestSuite163TestDummyFixtureSimilarlyNamedFixtureTestsInDifferentSui
 11547      00
 11548 4a3b E8000000 		call	__cxa_atexit
 11548      00
 11549 4a40 E8000000 		call	_ZN8UnitTest4Test11GetTestListEv
 11549      00
 11550 4a45 BA000000 		movl	$_ZN12_GLOBAL__N_115SuiteTestSuite171testDummyFixtureSimilarlyNamedFixtureTestsInDifferentSui
 11550      00
 11551 4a4a 4889C6   		movq	%rax, %rsi
 11552 4a4d BF000000 		movl	$_ZN12_GLOBAL__N_115SuiteTestSuite164adderDummyFixtureSimilarlyNamedFixtureTestsInDifferentSu
 11552      00
 11553 4a52 E8000000 		call	_ZN8UnitTest9ListAdderC1ERNS_8TestListEPNS_4TestE
 11553      00
  74:TestTestMacros.cpp **** 	{
 11554              		.loc 6 74 0
 11555 4a57 BF000000 		movl	$_ZN12_GLOBAL__N_115SuiteTestSuite252testSimilarlyNamedTestsInDifferentSuitesWorkInstanceE, %
 11555      00
 11556 4a5c E893C2FF 		call	_ZN12_GLOBAL__N_115SuiteTestSuite244TestSimilarlyNamedTestsInDifferentSuitesWorkC2Ev
 11556      FF
 11557 4a61 BA000000 		movl	$__dso_handle, %edx
 11557      00
 11558 4a66 BE000000 		movl	$_ZN12_GLOBAL__N_115SuiteTestSuite252testSimilarlyNamedTestsInDifferentSuitesWorkInstanceE, %
 11558      00
 11559 4a6b BF000000 		movl	$_ZN12_GLOBAL__N_115SuiteTestSuite244TestSimilarlyNamedTestsInDifferentSuitesWorkD1Ev, %edi
 11559      00
 11560 4a70 E8000000 		call	__cxa_atexit
 11560      00
 11561 4a75 E8000000 		call	_ZN8UnitTest4Test11GetTestListEv
 11561      00
 11562 4a7a BA000000 		movl	$_ZN12_GLOBAL__N_115SuiteTestSuite252testSimilarlyNamedTestsInDifferentSuitesWorkInstanceE, %
 11562      00
 11563 4a7f 4889C6   		movq	%rax, %rsi
 11564 4a82 BF000000 		movl	$_ZN12_GLOBAL__N_115SuiteTestSuite245adderSimilarlyNamedTestsInDifferentSuitesWorkE, %edi
 11564      00
 11565 4a87 E8000000 		call	_ZN8UnitTest9ListAdderC1ERNS_8TestListEPNS_4TestE
 11565      00
  78:TestTestMacros.cpp **** 	{
 11566              		.loc 6 78 0
 11567 4a8c BF000000 		movl	$_ZN12_GLOBAL__N_115SuiteTestSuite271testDummyFixtureSimilarlyNamedFixtureTestsInDifferentSui
 11567      00
 11568 4a91 E8D0C2FF 		call	_ZN12_GLOBAL__N_115SuiteTestSuite263TestDummyFixtureSimilarlyNamedFixtureTestsInDifferentSuit
 11568      FF
 11569 4a96 BA000000 		movl	$__dso_handle, %edx
 11569      00
 11570 4a9b BE000000 		movl	$_ZN12_GLOBAL__N_115SuiteTestSuite271testDummyFixtureSimilarlyNamedFixtureTestsInDifferentSui
 11570      00
 11571 4aa0 BF000000 		movl	$_ZN12_GLOBAL__N_115SuiteTestSuite263TestDummyFixtureSimilarlyNamedFixtureTestsInDifferentSui
 11571      00
 11572 4aa5 E8000000 		call	__cxa_atexit
 11572      00
 11573 4aaa E8000000 		call	_ZN8UnitTest4Test11GetTestListEv
 11573      00
 11574 4aaf BA000000 		movl	$_ZN12_GLOBAL__N_115SuiteTestSuite271testDummyFixtureSimilarlyNamedFixtureTestsInDifferentSui
 11574      00
 11575 4ab4 4889C6   		movq	%rax, %rsi
 11576 4ab7 BF000000 		movl	$_ZN12_GLOBAL__N_115SuiteTestSuite264adderDummyFixtureSimilarlyNamedFixtureTestsInDifferentSu
 11576      00
 11577 4abc E8000000 		call	_ZN8UnitTest9ListAdderC1ERNS_8TestListEPNS_4TestE
 11577      00
  83:TestTestMacros.cpp **** TEST_EX(MacroTestHelper1, macroTestList1)
 11578              		.loc 6 83 0
 11579 4ac1 BF000000 		movl	$_ZN12_GLOBAL__N_114macroTestList1E, %edi
 11579      00
 11580 4ac6 E8000000 		call	_ZN8UnitTest8TestListC1Ev
 11580      00
  84:TestTestMacros.cpp **** {
 11581              		.loc 6 84 0
 11582 4acb BF000000 		movl	$_ZN12_GLOBAL__N_128testMacroTestHelper1InstanceE, %edi
 11582      00
 11583 4ad0 E8B3C5FF 		call	_ZN12_GLOBAL__N_120TestMacroTestHelper1C2Ev
 11583      FF
 11584 4ad5 BA000000 		movl	$__dso_handle, %edx
 11584      00
 11585 4ada BE000000 		movl	$_ZN12_GLOBAL__N_128testMacroTestHelper1InstanceE, %esi
 11585      00
 11586 4adf BF000000 		movl	$_ZN12_GLOBAL__N_120TestMacroTestHelper1D1Ev, %edi
 11586      00
 11587 4ae4 E8000000 		call	__cxa_atexit
 11587      00
 11588 4ae9 BA000000 		movl	$_ZN12_GLOBAL__N_128testMacroTestHelper1InstanceE, %edx
 11588      00
 11589 4aee BE000000 		movl	$_ZN12_GLOBAL__N_114macroTestList1E, %esi
 11589      00
 11590 4af3 BF000000 		movl	$_ZN12_GLOBAL__N_121adderMacroTestHelper1E, %edi
 11590      00
 11591 4af8 E8000000 		call	_ZN8UnitTest9ListAdderC1ERNS_8TestListEPNS_4TestE
 11591      00
  88:TestTestMacros.cpp **** {
 11592              		.loc 6 88 0
 11593 4afd BF000000 		movl	$_ZN12_GLOBAL__N_153testTestAddedWithTEST_EXMacroGetsDefaultSuiteInstanceE, %edi
 11593      00
 11594 4b02 E8C9C5FF 		call	_ZN12_GLOBAL__N_145TestTestAddedWithTEST_EXMacroGetsDefaultSuiteC2Ev
 11594      FF
 11595 4b07 BA000000 		movl	$__dso_handle, %edx
 11595      00
 11596 4b0c BE000000 		movl	$_ZN12_GLOBAL__N_153testTestAddedWithTEST_EXMacroGetsDefaultSuiteInstanceE, %esi
 11596      00
 11597 4b11 BF000000 		movl	$_ZN12_GLOBAL__N_145TestTestAddedWithTEST_EXMacroGetsDefaultSuiteD1Ev, %edi
 11597      00
 11598 4b16 E8000000 		call	__cxa_atexit
 11598      00
 11599 4b1b E8000000 		call	_ZN8UnitTest4Test11GetTestListEv
 11599      00
 11600 4b20 BA000000 		movl	$_ZN12_GLOBAL__N_153testTestAddedWithTEST_EXMacroGetsDefaultSuiteInstanceE, %edx
 11600      00
 11601 4b25 4889C6   		movq	%rax, %rsi
 11602 4b28 BF000000 		movl	$_ZN12_GLOBAL__N_146adderTestAddedWithTEST_EXMacroGetsDefaultSuiteE, %edi
 11602      00
 11603 4b2d E8000000 		call	_ZN8UnitTest9ListAdderC1ERNS_8TestListEPNS_4TestE
 11603      00
  95:TestTestMacros.cpp **** TEST_FIXTURE_EX(DummyFixture, MacroTestHelper2, macroTestList2)
 11604              		.loc 6 95 0
 11605 4b32 BF000000 		movl	$_ZN12_GLOBAL__N_114macroTestList2E, %edi
 11605      00
 11606 4b37 E8000000 		call	_ZN8UnitTest8TestListC1Ev
 11606      00
  96:TestTestMacros.cpp **** {
 11607              		.loc 6 96 0
 11608 4b3c BF000000 		movl	$_ZN12_GLOBAL__N_140testDummyFixtureMacroTestHelper2InstanceE, %edi
 11608      00
 11609 4b41 E82CC8FF 		call	_ZN12_GLOBAL__N_132TestDummyFixtureMacroTestHelper2C2Ev
 11609      FF
 11610 4b46 BA000000 		movl	$__dso_handle, %edx
 11610      00
 11611 4b4b BE000000 		movl	$_ZN12_GLOBAL__N_140testDummyFixtureMacroTestHelper2InstanceE, %esi
 11611      00
 11612 4b50 BF000000 		movl	$_ZN12_GLOBAL__N_132TestDummyFixtureMacroTestHelper2D1Ev, %edi
 11612      00
 11613 4b55 E8000000 		call	__cxa_atexit
 11613      00
 11614 4b5a BA000000 		movl	$_ZN12_GLOBAL__N_140testDummyFixtureMacroTestHelper2InstanceE, %edx
 11614      00
 11615 4b5f BE000000 		movl	$_ZN12_GLOBAL__N_114macroTestList2E, %esi
 11615      00
 11616 4b64 BF000000 		movl	$_ZN12_GLOBAL__N_133adderDummyFixtureMacroTestHelper2E, %edi
 11616      00
 11617 4b69 E8000000 		call	_ZN8UnitTest9ListAdderC1ERNS_8TestListEPNS_4TestE
 11617      00
 100:TestTestMacros.cpp **** {
 11618              		.loc 6 100 0
 11619 4b6e BF000000 		movl	$_ZN12_GLOBAL__N_161testTestAddedWithTEST_FIXTURE_EXMacroGetsDefaultSuiteInstanceE, %edi
 11619      00
 11620 4b73 E81CCBFF 		call	_ZN12_GLOBAL__N_153TestTestAddedWithTEST_FIXTURE_EXMacroGetsDefaultSuiteC2Ev
 11620      FF
 11621 4b78 BA000000 		movl	$__dso_handle, %edx
 11621      00
 11622 4b7d BE000000 		movl	$_ZN12_GLOBAL__N_161testTestAddedWithTEST_FIXTURE_EXMacroGetsDefaultSuiteInstanceE, %esi
 11622      00
 11623 4b82 BF000000 		movl	$_ZN12_GLOBAL__N_153TestTestAddedWithTEST_FIXTURE_EXMacroGetsDefaultSuiteD1Ev, %edi
 11623      00
 11624 4b87 E8000000 		call	__cxa_atexit
 11624      00
 11625 4b8c E8000000 		call	_ZN8UnitTest4Test11GetTestListEv
 11625      00
 11626 4b91 BA000000 		movl	$_ZN12_GLOBAL__N_161testTestAddedWithTEST_FIXTURE_EXMacroGetsDefaultSuiteInstanceE, %edx
 11626      00
 11627 4b96 4889C6   		movq	%rax, %rsi
 11628 4b99 BF000000 		movl	$_ZN12_GLOBAL__N_154adderTestAddedWithTEST_FIXTURE_EXMacroGetsDefaultSuiteE, %edi
 11628      00
 11629 4b9e E8000000 		call	_ZN8UnitTest9ListAdderC1ERNS_8TestListEPNS_4TestE
 11629      00
 112:TestTestMacros.cpp **** TEST_FIXTURE_EX(FixtureCtorThrows, FixtureCtorThrowsTestName, throwingFixtureTestList1)
 11630              		.loc 6 112 0
 11631 4ba3 BF000000 		movl	$_ZN12_GLOBAL__N_124throwingFixtureTestList1E, %edi
 11631      00
 11632 4ba8 E8000000 		call	_ZN8UnitTest8TestListC1Ev
 11632      00
 113:TestTestMacros.cpp **** {
 11633              		.loc 6 113 0
 11634 4bad BF000000 		movl	$_ZN12_GLOBAL__N_154testFixtureCtorThrowsFixtureCtorThrowsTestNameInstanceE, %edi
 11634      00
 11635 4bb2 E8AFCDFF 		call	_ZN12_GLOBAL__N_146TestFixtureCtorThrowsFixtureCtorThrowsTestNameC2Ev
 11635      FF
 11636 4bb7 BA000000 		movl	$__dso_handle, %edx
 11636      00
 11637 4bbc BE000000 		movl	$_ZN12_GLOBAL__N_154testFixtureCtorThrowsFixtureCtorThrowsTestNameInstanceE, %esi
 11637      00
 11638 4bc1 BF000000 		movl	$_ZN12_GLOBAL__N_146TestFixtureCtorThrowsFixtureCtorThrowsTestNameD1Ev, %edi
 11638      00
 11639 4bc6 E8000000 		call	__cxa_atexit
 11639      00
 11640 4bcb BA000000 		movl	$_ZN12_GLOBAL__N_154testFixtureCtorThrowsFixtureCtorThrowsTestNameInstanceE, %edx
 11640      00
 11641 4bd0 BE000000 		movl	$_ZN12_GLOBAL__N_124throwingFixtureTestList1E, %esi
 11641      00
 11642 4bd5 BF000000 		movl	$_ZN12_GLOBAL__N_147adderFixtureCtorThrowsFixtureCtorThrowsTestNameE, %edi
 11642      00
 11643 4bda E8000000 		call	_ZN8UnitTest9ListAdderC1ERNS_8TestListEPNS_4TestE
 11643      00
 117:TestTestMacros.cpp **** {
 11644              		.loc 6 117 0
 11645 4bdf BF000000 		movl	$_ZN12_GLOBAL__N_148testFixturesWithThrowingCtorsAreFailuresInstanceE, %edi
 11645      00
 11646 4be4 E89FD0FF 		call	_ZN12_GLOBAL__N_140TestFixturesWithThrowingCtorsAreFailuresC2Ev
 11646      FF
 11647 4be9 BA000000 		movl	$__dso_handle, %edx
 11647      00
 11648 4bee BE000000 		movl	$_ZN12_GLOBAL__N_148testFixturesWithThrowingCtorsAreFailuresInstanceE, %esi
 11648      00
 11649 4bf3 BF000000 		movl	$_ZN12_GLOBAL__N_140TestFixturesWithThrowingCtorsAreFailuresD1Ev, %edi
 11649      00
 11650 4bf8 E8000000 		call	__cxa_atexit
 11650      00
 11651 4bfd E8000000 		call	_ZN8UnitTest4Test11GetTestListEv
 11651      00
 11652 4c02 BA000000 		movl	$_ZN12_GLOBAL__N_148testFixturesWithThrowingCtorsAreFailuresInstanceE, %edx
 11652      00
 11653 4c07 4889C6   		movq	%rax, %rsi
 11654 4c0a BF000000 		movl	$_ZN12_GLOBAL__N_141adderFixturesWithThrowingCtorsAreFailuresE, %edi
 11654      00
 11655 4c0f E8000000 		call	_ZN8UnitTest9ListAdderC1ERNS_8TestListEPNS_4TestE
 11655      00
 137:TestTestMacros.cpp **** TEST_FIXTURE_EX(FixtureDtorThrows, FixtureDtorThrowsTestName, throwingFixtureTestList2)
 11656              		.loc 6 137 0
 11657 4c14 BF000000 		movl	$_ZN12_GLOBAL__N_124throwingFixtureTestList2E, %edi
 11657      00
 11658 4c19 E8000000 		call	_ZN8UnitTest8TestListC1Ev
 11658      00
 138:TestTestMacros.cpp **** {
 11659              		.loc 6 138 0
 11660 4c1e BF000000 		movl	$_ZN12_GLOBAL__N_154testFixtureDtorThrowsFixtureDtorThrowsTestNameInstanceE, %edi
 11660      00
 11661 4c23 E838D4FF 		call	_ZN12_GLOBAL__N_146TestFixtureDtorThrowsFixtureDtorThrowsTestNameC2Ev
 11661      FF
 11662 4c28 BA000000 		movl	$__dso_handle, %edx
 11662      00
 11663 4c2d BE000000 		movl	$_ZN12_GLOBAL__N_154testFixtureDtorThrowsFixtureDtorThrowsTestNameInstanceE, %esi
 11663      00
 11664 4c32 BF000000 		movl	$_ZN12_GLOBAL__N_146TestFixtureDtorThrowsFixtureDtorThrowsTestNameD1Ev, %edi
 11664      00
 11665 4c37 E8000000 		call	__cxa_atexit
 11665      00
 11666 4c3c BA000000 		movl	$_ZN12_GLOBAL__N_154testFixtureDtorThrowsFixtureDtorThrowsTestNameInstanceE, %edx
 11666      00
 11667 4c41 BE000000 		movl	$_ZN12_GLOBAL__N_124throwingFixtureTestList2E, %esi
 11667      00
 11668 4c46 BF000000 		movl	$_ZN12_GLOBAL__N_147adderFixtureDtorThrowsFixtureDtorThrowsTestNameE, %edi
 11668      00
 11669 4c4b E8000000 		call	_ZN8UnitTest9ListAdderC1ERNS_8TestListEPNS_4TestE
 11669      00
 142:TestTestMacros.cpp **** {
 11670              		.loc 6 142 0
 11671 4c50 BF000000 		movl	$_ZN12_GLOBAL__N_148testFixturesWithThrowingDtorsAreFailuresInstanceE, %edi
 11671      00
 11672 4c55 E86ED7FF 		call	_ZN12_GLOBAL__N_140TestFixturesWithThrowingDtorsAreFailuresC2Ev
 11672      FF
 11673 4c5a BA000000 		movl	$__dso_handle, %edx
 11673      00
 11674 4c5f BE000000 		movl	$_ZN12_GLOBAL__N_148testFixturesWithThrowingDtorsAreFailuresInstanceE, %esi
 11674      00
 11675 4c64 BF000000 		movl	$_ZN12_GLOBAL__N_140TestFixturesWithThrowingDtorsAreFailuresD1Ev, %edi
 11675      00
 11676 4c69 E8000000 		call	__cxa_atexit
 11676      00
 11677 4c6e E8000000 		call	_ZN8UnitTest4Test11GetTestListEv
 11677      00
 11678 4c73 BA000000 		movl	$_ZN12_GLOBAL__N_148testFixturesWithThrowingDtorsAreFailuresInstanceE, %edx
 11678      00
 11679 4c78 4889C6   		movq	%rax, %rsi
 11680 4c7b BF000000 		movl	$_ZN12_GLOBAL__N_141adderFixturesWithThrowingDtorsAreFailuresE, %edi
 11680      00
 11681 4c80 E8000000 		call	_ZN8UnitTest9ListAdderC1ERNS_8TestListEPNS_4TestE
 11681      00
 168:TestTestMacros.cpp **** TEST_FIXTURE_EX(FixtureCtorAsserts, CorrectlyReportsAssertFailureInCtor, ctorAssertFixtureTestList)
 11682              		.loc 6 168 0
 11683 4c85 BF000000 		movl	$_ZN12_GLOBAL__N_125ctorAssertFixtureTestListE, %edi
 11683      00
 11684 4c8a E8000000 		call	_ZN8UnitTest8TestListC1Ev
 11684      00
 169:TestTestMacros.cpp **** {
 11685              		.loc 6 169 0
 11686 4c8f BF000000 		movl	$_ZN12_GLOBAL__N_165testFixtureCtorAssertsCorrectlyReportsAssertFailureInCtorInstanceE, %edi
 11686      00
 11687 4c94 E8EFDAFF 		call	_ZN12_GLOBAL__N_157TestFixtureCtorAssertsCorrectlyReportsAssertFailureInCtorC2Ev
 11687      FF
 11688 4c99 BA000000 		movl	$__dso_handle, %edx
 11688      00
 11689 4c9e BE000000 		movl	$_ZN12_GLOBAL__N_165testFixtureCtorAssertsCorrectlyReportsAssertFailureInCtorInstanceE, %esi
 11689      00
 11690 4ca3 BF000000 		movl	$_ZN12_GLOBAL__N_157TestFixtureCtorAssertsCorrectlyReportsAssertFailureInCtorD1Ev, %edi
 11690      00
 11691 4ca8 E8000000 		call	__cxa_atexit
 11691      00
 11692 4cad BA000000 		movl	$_ZN12_GLOBAL__N_165testFixtureCtorAssertsCorrectlyReportsAssertFailureInCtorInstanceE, %edx
 11692      00
 11693 4cb2 BE000000 		movl	$_ZN12_GLOBAL__N_125ctorAssertFixtureTestListE, %esi
 11693      00
 11694 4cb7 BF000000 		movl	$_ZN12_GLOBAL__N_158adderFixtureCtorAssertsCorrectlyReportsAssertFailureInCtorE, %edi
 11694      00
 11695 4cbc E8000000 		call	_ZN8UnitTest9ListAdderC1ERNS_8TestListEPNS_4TestE
 11695      00
 173:TestTestMacros.cpp **** {
 11696              		.loc 6 173 0
 11697 4cc1 BF000000 		movl	$_ZN12_GLOBAL__N_155testCorrectlyReportsFixturesWithCtorsThatAssertInstanceE, %edi
 11697      00
 11698 4cc6 E8DFDDFF 		call	_ZN12_GLOBAL__N_147TestCorrectlyReportsFixturesWithCtorsThatAssertC2Ev
 11698      FF
 11699 4ccb BA000000 		movl	$__dso_handle, %edx
 11699      00
 11700 4cd0 BE000000 		movl	$_ZN12_GLOBAL__N_155testCorrectlyReportsFixturesWithCtorsThatAssertInstanceE, %esi
 11700      00
 11701 4cd5 BF000000 		movl	$_ZN12_GLOBAL__N_147TestCorrectlyReportsFixturesWithCtorsThatAssertD1Ev, %edi
 11701      00
 11702 4cda E8000000 		call	__cxa_atexit
 11702      00
 11703 4cdf E8000000 		call	_ZN8UnitTest4Test11GetTestListEv
 11703      00
 11704 4ce4 BA000000 		movl	$_ZN12_GLOBAL__N_155testCorrectlyReportsFixturesWithCtorsThatAssertInstanceE, %edx
 11704      00
 11705 4ce9 4889C6   		movq	%rax, %rsi
 11706 4cec BF000000 		movl	$_ZN12_GLOBAL__N_148adderCorrectlyReportsFixturesWithCtorsThatAssertE, %edi
 11706      00
 11707 4cf1 E8000000 		call	_ZN8UnitTest9ListAdderC1ERNS_8TestListEPNS_4TestE
 11707      00
 195:TestTestMacros.cpp **** 	{
 11708              		.loc 6 195 0
 11709 4cf6 BF000000 		movl	$_ZN18SuiteSameTestSuite22testDummyTest1InstanceE, %edi
 11709      00
 11710 4cfb E8000000 		call	_ZN18SuiteSameTestSuite14TestDummyTest1C1Ev
 11710      00
 11711 4d00 BA000000 		movl	$__dso_handle, %edx
 11711      00
 11712 4d05 BE000000 		movl	$_ZN18SuiteSameTestSuite22testDummyTest1InstanceE, %esi
 11712      00
 11713 4d0a BF000000 		movl	$_ZN18SuiteSameTestSuite14TestDummyTest1D1Ev, %edi
 11713      00
 11714 4d0f E8000000 		call	__cxa_atexit
 11714      00
 11715 4d14 E8000000 		call	_ZN8UnitTest4Test11GetTestListEv
 11715      00
 11716 4d19 BA000000 		movl	$_ZN18SuiteSameTestSuite22testDummyTest1InstanceE, %edx
 11716      00
 11717 4d1e 4889C6   		movq	%rax, %rsi
 11718 4d21 BF000000 		movl	$_ZN18SuiteSameTestSuite15adderDummyTest1E, %edi
 11718      00
 11719 4d26 E8000000 		call	_ZN8UnitTest9ListAdderC1ERNS_8TestListEPNS_4TestE
 11719      00
 204:TestTestMacros.cpp **** {
 11720              		.loc 6 204 0
 11721 4d2b BF000000 		movl	$testCurrentTestDetailsContainCurrentTestInfoInstance, %edi
 11721      00
 11722 4d30 E8000000 		call	_ZN44TestCurrentTestDetailsContainCurrentTestInfoC1Ev
 11722      00
 11723 4d35 BA000000 		movl	$__dso_handle, %edx
 11723      00
 11724 4d3a BE000000 		movl	$testCurrentTestDetailsContainCurrentTestInfoInstance, %esi
 11724      00
 11725 4d3f BF000000 		movl	$_ZN44TestCurrentTestDetailsContainCurrentTestInfoD1Ev, %edi
 11725      00
 11726 4d44 E8000000 		call	__cxa_atexit
 11726      00
 11727 4d49 E8000000 		call	_ZN8UnitTest4Test11GetTestListEv
 11727      00
 11728 4d4e BA000000 		movl	$testCurrentTestDetailsContainCurrentTestInfoInstance, %edx
 11728      00
 11729 4d53 4889C6   		movq	%rax, %rsi
 11730 4d56 BF000000 		movl	$adderCurrentTestDetailsContainCurrentTestInfo, %edi
 11730      00
 11731 4d5b E8000000 		call	_ZN8UnitTest9ListAdderC1ERNS_8TestListEPNS_4TestE
 11731      00
 11732              	.L647:
 11733              		.loc 6 208 0
 11734 4d60 C9       		leave
 11735              		.cfi_def_cfa 7, 8
 11736 4d61 C3       		ret
 11737              		.cfi_endproc
 11738              	.LFE1389:
 11740              		.section	.rodata
 11741 1308 00000000 		.align 16
 11741      00000000 
 11744              	_ZTIN12_GLOBAL__N_113TestDummyTestE:
 11745 1310 00000000 		.quad	_ZTVN10__cxxabiv120__si_class_type_infoE+16
 11745      00000000 
 11746 1318 00000000 		.quad	_ZTSN12_GLOBAL__N_113TestDummyTestE
 11746      00000000 
 11747 1320 00000000 		.quad	_ZTIN8UnitTest4TestE
 11747      00000000 
 11748 1328 00000000 		.align 16
 11748      00000000 
 11751              	_ZTIN12_GLOBAL__N_138TestTestsAreAddedToTheListThroughMacroE:
 11752 1330 00000000 		.quad	_ZTVN10__cxxabiv120__si_class_type_infoE+16
 11752      00000000 
 11753 1338 00000000 		.quad	_ZTSN12_GLOBAL__N_138TestTestsAreAddedToTheListThroughMacroE
 11753      00000000 
 11754 1340 00000000 		.quad	_ZTIN8UnitTest4TestE
 11754      00000000 
 11755 1348 00000000 		.align 16
 11755      00000000 
 11758              	_ZTIN12_GLOBAL__N_132TestThrowingThingieDummyTestNameE:
 11759 1350 00000000 		.quad	_ZTVN10__cxxabiv120__si_class_type_infoE+16
 11759      00000000 
 11760 1358 00000000 		.quad	_ZTSN12_GLOBAL__N_132TestThrowingThingieDummyTestNameE
 11760      00000000 
 11761 1360 00000000 		.quad	_ZTIN8UnitTest4TestE
 11761      00000000 
 11762 1368 00000000 		.align 16
 11762      00000000 
 11765              	_ZTIN12_GLOBAL__N_157TestExceptionsInFixtureAreReportedAsHappeningInTheFixtureE:
 11766 1370 00000000 		.quad	_ZTVN10__cxxabiv120__si_class_type_infoE+16
 11766      00000000 
 11767 1378 00000000 		.quad	_ZTSN12_GLOBAL__N_157TestExceptionsInFixtureAreReportedAsHappeningInTheFixtureE
 11767      00000000 
 11768 1380 00000000 		.quad	_ZTIN8UnitTest4TestE
 11768      00000000 
 11769 1388 00000000 		.align 16
 11769      00000000 
 11772              	_ZTIN12_GLOBAL__N_115SuiteTestSuite144TestSimilarlyNamedTestsInDifferentSuitesWorkE:
 11773 1390 00000000 		.quad	_ZTVN10__cxxabiv120__si_class_type_infoE+16
 11773      00000000 
 11774 1398 00000000 		.quad	_ZTSN12_GLOBAL__N_115SuiteTestSuite144TestSimilarlyNamedTestsInDifferentSuitesWorkE
 11774      00000000 
 11775 13a0 00000000 		.quad	_ZTIN8UnitTest4TestE
 11775      00000000 
 11776 13a8 00000000 		.align 16
 11776      00000000 
 11779              	_ZTIN12_GLOBAL__N_115SuiteTestSuite163TestDummyFixtureSimilarlyNamedFixtureTestsInDifferentSuitesWo
 11780 13b0 00000000 		.quad	_ZTVN10__cxxabiv120__si_class_type_infoE+16
 11780      00000000 
 11781 13b8 00000000 		.quad	_ZTSN12_GLOBAL__N_115SuiteTestSuite163TestDummyFixtureSimilarlyNamedFixtureTestsInDifferentS
 11781      00000000 
 11782 13c0 00000000 		.quad	_ZTIN8UnitTest4TestE
 11782      00000000 
 11783 13c8 00000000 		.align 16
 11783      00000000 
 11786              	_ZTIN12_GLOBAL__N_115SuiteTestSuite244TestSimilarlyNamedTestsInDifferentSuitesWorkE:
 11787 13d0 00000000 		.quad	_ZTVN10__cxxabiv120__si_class_type_infoE+16
 11787      00000000 
 11788 13d8 00000000 		.quad	_ZTSN12_GLOBAL__N_115SuiteTestSuite244TestSimilarlyNamedTestsInDifferentSuitesWorkE
 11788      00000000 
 11789 13e0 00000000 		.quad	_ZTIN8UnitTest4TestE
 11789      00000000 
 11790 13e8 00000000 		.align 16
 11790      00000000 
 11793              	_ZTIN12_GLOBAL__N_115SuiteTestSuite263TestDummyFixtureSimilarlyNamedFixtureTestsInDifferentSuitesWo
 11794 13f0 00000000 		.quad	_ZTVN10__cxxabiv120__si_class_type_infoE+16
 11794      00000000 
 11795 13f8 00000000 		.quad	_ZTSN12_GLOBAL__N_115SuiteTestSuite263TestDummyFixtureSimilarlyNamedFixtureTestsInDifferentS
 11795      00000000 
 11796 1400 00000000 		.quad	_ZTIN8UnitTest4TestE
 11796      00000000 
 11797 1408 00000000 		.align 16
 11797      00000000 
 11800              	_ZTIN12_GLOBAL__N_120TestMacroTestHelper1E:
 11801 1410 00000000 		.quad	_ZTVN10__cxxabiv120__si_class_type_infoE+16
 11801      00000000 
 11802 1418 00000000 		.quad	_ZTSN12_GLOBAL__N_120TestMacroTestHelper1E
 11802      00000000 
 11803 1420 00000000 		.quad	_ZTIN8UnitTest4TestE
 11803      00000000 
 11804 1428 00000000 		.align 16
 11804      00000000 
 11807              	_ZTIN12_GLOBAL__N_145TestTestAddedWithTEST_EXMacroGetsDefaultSuiteE:
 11808 1430 00000000 		.quad	_ZTVN10__cxxabiv120__si_class_type_infoE+16
 11808      00000000 
 11809 1438 00000000 		.quad	_ZTSN12_GLOBAL__N_145TestTestAddedWithTEST_EXMacroGetsDefaultSuiteE
 11809      00000000 
 11810 1440 00000000 		.quad	_ZTIN8UnitTest4TestE
 11810      00000000 
 11811 1448 00000000 		.align 16
 11811      00000000 
 11814              	_ZTIN12_GLOBAL__N_132TestDummyFixtureMacroTestHelper2E:
 11815 1450 00000000 		.quad	_ZTVN10__cxxabiv120__si_class_type_infoE+16
 11815      00000000 
 11816 1458 00000000 		.quad	_ZTSN12_GLOBAL__N_132TestDummyFixtureMacroTestHelper2E
 11816      00000000 
 11817 1460 00000000 		.quad	_ZTIN8UnitTest4TestE
 11817      00000000 
 11818 1468 00000000 		.align 16
 11818      00000000 
 11821              	_ZTIN12_GLOBAL__N_153TestTestAddedWithTEST_FIXTURE_EXMacroGetsDefaultSuiteE:
 11822 1470 00000000 		.quad	_ZTVN10__cxxabiv120__si_class_type_infoE+16
 11822      00000000 
 11823 1478 00000000 		.quad	_ZTSN12_GLOBAL__N_153TestTestAddedWithTEST_FIXTURE_EXMacroGetsDefaultSuiteE
 11823      00000000 
 11824 1480 00000000 		.quad	_ZTIN8UnitTest4TestE
 11824      00000000 
 11825 1488 00000000 		.align 16
 11825      00000000 
 11828              	_ZTIN12_GLOBAL__N_146TestFixtureCtorThrowsFixtureCtorThrowsTestNameE:
 11829 1490 00000000 		.quad	_ZTVN10__cxxabiv120__si_class_type_infoE+16
 11829      00000000 
 11830 1498 00000000 		.quad	_ZTSN12_GLOBAL__N_146TestFixtureCtorThrowsFixtureCtorThrowsTestNameE
 11830      00000000 
 11831 14a0 00000000 		.quad	_ZTIN8UnitTest4TestE
 11831      00000000 
 11832 14a8 00000000 		.align 16
 11832      00000000 
 11835              	_ZTIN12_GLOBAL__N_140TestFixturesWithThrowingCtorsAreFailuresE:
 11836 14b0 00000000 		.quad	_ZTVN10__cxxabiv120__si_class_type_infoE+16
 11836      00000000 
 11837 14b8 00000000 		.quad	_ZTSN12_GLOBAL__N_140TestFixturesWithThrowingCtorsAreFailuresE
 11837      00000000 
 11838 14c0 00000000 		.quad	_ZTIN8UnitTest4TestE
 11838      00000000 
 11839 14c8 00000000 		.align 16
 11839      00000000 
 11842              	_ZTIN12_GLOBAL__N_146TestFixtureDtorThrowsFixtureDtorThrowsTestNameE:
 11843 14d0 00000000 		.quad	_ZTVN10__cxxabiv120__si_class_type_infoE+16
 11843      00000000 
 11844 14d8 00000000 		.quad	_ZTSN12_GLOBAL__N_146TestFixtureDtorThrowsFixtureDtorThrowsTestNameE
 11844      00000000 
 11845 14e0 00000000 		.quad	_ZTIN8UnitTest4TestE
 11845      00000000 
 11846 14e8 00000000 		.align 16
 11846      00000000 
 11849              	_ZTIN12_GLOBAL__N_140TestFixturesWithThrowingDtorsAreFailuresE:
 11850 14f0 00000000 		.quad	_ZTVN10__cxxabiv120__si_class_type_infoE+16
 11850      00000000 
 11851 14f8 00000000 		.quad	_ZTSN12_GLOBAL__N_140TestFixturesWithThrowingDtorsAreFailuresE
 11851      00000000 
 11852 1500 00000000 		.quad	_ZTIN8UnitTest4TestE
 11852      00000000 
 11853 1508 00000000 		.align 16
 11853      00000000 
 11856              	_ZTIN12_GLOBAL__N_157TestFixtureCtorAssertsCorrectlyReportsAssertFailureInCtorE:
 11857 1510 00000000 		.quad	_ZTVN10__cxxabiv120__si_class_type_infoE+16
 11857      00000000 
 11858 1518 00000000 		.quad	_ZTSN12_GLOBAL__N_157TestFixtureCtorAssertsCorrectlyReportsAssertFailureInCtorE
 11858      00000000 
 11859 1520 00000000 		.quad	_ZTIN8UnitTest4TestE
 11859      00000000 
 11860 1528 00000000 		.align 16
 11860      00000000 
 11863              	_ZTIN12_GLOBAL__N_147TestCorrectlyReportsFixturesWithCtorsThatAssertE:
 11864 1530 00000000 		.quad	_ZTVN10__cxxabiv120__si_class_type_infoE+16
 11864      00000000 
 11865 1538 00000000 		.quad	_ZTSN12_GLOBAL__N_147TestCorrectlyReportsFixturesWithCtorsThatAssertE
 11865      00000000 
 11866 1540 00000000 		.quad	_ZTIN8UnitTest4TestE
 11866      00000000 
 11867 1548 00000000 		.align 64
 11867      00000000 
 11867      00000000 
 11867      00000000 
 11867      00000000 
 11870              	_ZTSN12_GLOBAL__N_147TestCorrectlyReportsFixturesWithCtorsThatAssertE:
 11871 1580 2A4E3132 		.string	"*N12_GLOBAL__N_147TestCorrectlyReportsFixturesWithCtorsThatAssertE"
 11871      5F474C4F 
 11871      42414C5F 
 11871      5F4E5F31 
 11871      34375465 
 11872 15c3 00000000 		.align 64
 11872      00000000 
 11872      00000000 
 11872      00000000 
 11872      00000000 
 11875              	_ZTSN12_GLOBAL__N_157TestFixtureCtorAssertsCorrectlyReportsAssertFailureInCtorE:
 11876 1600 2A4E3132 		.string	"*N12_GLOBAL__N_157TestFixtureCtorAssertsCorrectlyReportsAssertFailureInCtorE"
 11876      5F474C4F 
 11876      42414C5F 
 11876      5F4E5F31 
 11876      35375465 
 11877 164d 00000000 		.align 32
 11877      00000000 
 11877      00000000 
 11877      00000000 
 11877      000000
 11880              	_ZTSN12_GLOBAL__N_140TestFixturesWithThrowingDtorsAreFailuresE:
 11881 1660 2A4E3132 		.string	"*N12_GLOBAL__N_140TestFixturesWithThrowingDtorsAreFailuresE"
 11881      5F474C4F 
 11881      42414C5F 
 11881      5F4E5F31 
 11881      34305465 
 11882 169c 00000000 		.align 64
 11882      00000000 
 11882      00000000 
 11882      00000000 
 11882      00000000 
 11885              	_ZTSN12_GLOBAL__N_146TestFixtureDtorThrowsFixtureDtorThrowsTestNameE:
 11886 16c0 2A4E3132 		.string	"*N12_GLOBAL__N_146TestFixtureDtorThrowsFixtureDtorThrowsTestNameE"
 11886      5F474C4F 
 11886      42414C5F 
 11886      5F4E5F31 
 11886      34365465 
 11887 1702 00000000 		.align 32
 11887      00000000 
 11887      00000000 
 11887      00000000 
 11887      00000000 
 11890              	_ZTSN12_GLOBAL__N_140TestFixturesWithThrowingCtorsAreFailuresE:
 11891 1720 2A4E3132 		.string	"*N12_GLOBAL__N_140TestFixturesWithThrowingCtorsAreFailuresE"
 11891      5F474C4F 
 11891      42414C5F 
 11891      5F4E5F31 
 11891      34305465 
 11892 175c 00000000 		.align 64
 11892      00000000 
 11892      00000000 
 11892      00000000 
 11892      00000000 
 11895              	_ZTSN12_GLOBAL__N_146TestFixtureCtorThrowsFixtureCtorThrowsTestNameE:
 11896 1780 2A4E3132 		.string	"*N12_GLOBAL__N_146TestFixtureCtorThrowsFixtureCtorThrowsTestNameE"
 11896      5F474C4F 
 11896      42414C5F 
 11896      5F4E5F31 
 11896      34365465 
 11897 17c2 00000000 		.align 64
 11897      00000000 
 11897      00000000 
 11897      00000000 
 11897      00000000 
 11900              	_ZTSN12_GLOBAL__N_153TestTestAddedWithTEST_FIXTURE_EXMacroGetsDefaultSuiteE:
 11901 1800 2A4E3132 		.string	"*N12_GLOBAL__N_153TestTestAddedWithTEST_FIXTURE_EXMacroGetsDefaultSuiteE"
 11901      5F474C4F 
 11901      42414C5F 
 11901      5F4E5F31 
 11901      35335465 
 11902 1849 00000000 		.align 32
 11902      00000000 
 11902      00000000 
 11902      00000000 
 11902      00000000 
 11905              	_ZTSN12_GLOBAL__N_132TestDummyFixtureMacroTestHelper2E:
 11906 1860 2A4E3132 		.string	"*N12_GLOBAL__N_132TestDummyFixtureMacroTestHelper2E"
 11906      5F474C4F 
 11906      42414C5F 
 11906      5F4E5F31 
 11906      33325465 
 11907 1894 00000000 		.align 64
 11907      00000000 
 11907      00000000 
 11907      00000000 
 11907      00000000 
 11910              	_ZTSN12_GLOBAL__N_145TestTestAddedWithTEST_EXMacroGetsDefaultSuiteE:
 11911 18c0 2A4E3132 		.string	"*N12_GLOBAL__N_145TestTestAddedWithTEST_EXMacroGetsDefaultSuiteE"
 11911      5F474C4F 
 11911      42414C5F 
 11911      5F4E5F31 
 11911      34355465 
 11912 1901 00000000 		.align 32
 11912      00000000 
 11912      00000000 
 11912      00000000 
 11912      00000000 
 11915              	_ZTSN12_GLOBAL__N_120TestMacroTestHelper1E:
 11916 1920 2A4E3132 		.string	"*N12_GLOBAL__N_120TestMacroTestHelper1E"
 11916      5F474C4F 
 11916      42414C5F 
 11916      5F4E5F31 
 11916      32305465 
 11917 1948 00000000 		.align 64
 11917      00000000 
 11917      00000000 
 11917      00000000 
 11917      00000000 
 11920              	_ZTSN12_GLOBAL__N_115SuiteTestSuite263TestDummyFixtureSimilarlyNamedFixtureTestsInDifferentSuitesWo
 11921 1980 2A4E3132 		.string	"*N12_GLOBAL__N_115SuiteTestSuite263TestDummyFixtureSimilarlyNamedFixtureTestsInDifferentS
 11921      5F474C4F 
 11921      42414C5F 
 11921      5F4E5F31 
 11921      31355375 
 11922 19e4 00000000 		.align 64
 11922      00000000 
 11922      00000000 
 11922      00000000 
 11922      00000000 
 11925              	_ZTSN12_GLOBAL__N_115SuiteTestSuite244TestSimilarlyNamedTestsInDifferentSuitesWorkE:
 11926 1a00 2A4E3132 		.string	"*N12_GLOBAL__N_115SuiteTestSuite244TestSimilarlyNamedTestsInDifferentSuitesWorkE"
 11926      5F474C4F 
 11926      42414C5F 
 11926      5F4E5F31 
 11926      31355375 
 11927 1a51 00000000 		.align 64
 11927      00000000 
 11927      00000000 
 11927      00000000 
 11927      00000000 
 11930              	_ZTSN12_GLOBAL__N_115SuiteTestSuite163TestDummyFixtureSimilarlyNamedFixtureTestsInDifferentSuitesWo
 11931 1a80 2A4E3132 		.string	"*N12_GLOBAL__N_115SuiteTestSuite163TestDummyFixtureSimilarlyNamedFixtureTestsInDifferentS
 11931      5F474C4F 
 11931      42414C5F 
 11931      5F4E5F31 
 11931      31355375 
 11932 1ae4 00000000 		.align 64
 11932      00000000 
 11932      00000000 
 11932      00000000 
 11932      00000000 
 11935              	_ZTSN12_GLOBAL__N_115SuiteTestSuite144TestSimilarlyNamedTestsInDifferentSuitesWorkE:
 11936 1b00 2A4E3132 		.string	"*N12_GLOBAL__N_115SuiteTestSuite144TestSimilarlyNamedTestsInDifferentSuitesWorkE"
 11936      5F474C4F 
 11936      42414C5F 
 11936      5F4E5F31 
 11936      31355375 
 11937 1b51 00000000 		.align 64
 11937      00000000 
 11937      00000000 
 11937      00000000 
 11937      00000000 
 11940              	_ZTSN12_GLOBAL__N_157TestExceptionsInFixtureAreReportedAsHappeningInTheFixtureE:
 11941 1b80 2A4E3132 		.string	"*N12_GLOBAL__N_157TestExceptionsInFixtureAreReportedAsHappeningInTheFixtureE"
 11941      5F474C4F 
 11941      42414C5F 
 11941      5F4E5F31 
 11941      35375465 
 11942 1bcd 00000000 		.align 32
 11942      00000000 
 11942      00000000 
 11942      00000000 
 11942      000000
 11945              	_ZTSN12_GLOBAL__N_132TestThrowingThingieDummyTestNameE:
 11946 1be0 2A4E3132 		.string	"*N12_GLOBAL__N_132TestThrowingThingieDummyTestNameE"
 11946      5F474C4F 
 11946      42414C5F 
 11946      5F4E5F31 
 11946      33325465 
 11947 1c14 00000000 		.align 32
 11947      00000000 
 11947      00000000 
 11950              	_ZTSN12_GLOBAL__N_138TestTestsAreAddedToTheListThroughMacroE:
 11951 1c20 2A4E3132 		.string	"*N12_GLOBAL__N_138TestTestsAreAddedToTheListThroughMacroE"
 11951      5F474C4F 
 11951      42414C5F 
 11951      5F4E5F31 
 11951      33385465 
 11952 1c5a 00000000 		.align 32
 11952      0000
 11955              	_ZTSN12_GLOBAL__N_113TestDummyTestE:
 11956 1c60 2A4E3132 		.string	"*N12_GLOBAL__N_113TestDummyTestE"
 11956      5F474C4F 
 11956      42414C5F 
 11956      5F4E5F31 
 11956      31335465 
 11957 1c81 000000   		.align 4
 11960              	_ZN12_GLOBAL__N_1L11FailingLineE:
 11961 1c84 7B000000 		.long	123
 11962              		.text
 11964              	_GLOBAL__sub_I__ZN18SuiteSameTestSuite22testDummyTest1InstanceE:
 11965              	.LFB1390:
 11966              		.loc 6 208 0
 11967              		.cfi_startproc
 11968 4d62 55       		pushq	%rbp
 11969              		.cfi_def_cfa_offset 16
 11970              		.cfi_offset 6, -16
 11971 4d63 4889E5   		movq	%rsp, %rbp
 11972              		.cfi_def_cfa_register 6
 11973              		.loc 6 208 0
 11974 4d66 BEFFFF00 		movl	$65535, %esi
 11974      00
 11975 4d6b BF010000 		movl	$1, %edi
 11975      00
 11976 4d70 E871FBFF 		call	_Z41__static_initialization_and_destruction_0ii
 11976      FF
 11977 4d75 5D       		popq	%rbp
 11978              		.cfi_def_cfa 7, 8
 11979 4d76 C3       		ret
 11980              		.cfi_endproc
 11981              	.LFE1390:
 11983              		.section	.init_array,"aw"
 11984              		.align 8
 11985 0000 00000000 		.quad	_GLOBAL__sub_I__ZN18SuiteSameTestSuite22testDummyTest1InstanceE
 11985      00000000 
 11986              		.section	.rodata
 11987              		.align 8
 11990              	_ZZL18__gthread_active_pvE20__gthread_active_ptr:
 11991 1c88 00000000 		.quad	_ZL28__gthrw___pthread_key_createPjPFvPvE
 11991      00000000 
 11992              		.weakref	_ZL28__gthrw___pthread_key_createPjPFvPvE,__pthread_key_create
 11993              		.align 4
 11994              	.LC1:
 11995 1c90 00000000 		.long	0
 11996              		.text
 11997              	.Letext0:
 11998              		.file 9 "../TestDetails.h"
 11999              		.file 10 "../TestList.h"
 12000              		.file 11 "../TestResults.h"
 12001              		.file 12 "../PosixUtils/SignalTranslator.h"
 12002              		.file 13 "<built-in>"
 12003              		.file 14 "/usr/include/stdio.h"
 12004              		.file 15 "/usr/lib/gcc/x86_64-linux-gnu/4.9/include/stddef.h"
 12005              		.file 16 "/usr/include/wchar.h"
 12006              		.file 17 "/usr/include/c++/4.9/cwchar"
 12007              		.file 18 "/usr/include/c++/4.9/bits/char_traits.h"
 12008              		.file 19 "/usr/include/x86_64-linux-gnu/c++/4.9/bits/c++config.h"
 12009              		.file 20 "/usr/include/c++/4.9/clocale"
 12010              		.file 21 "/usr/include/c++/4.9/bits/allocator.h"
 12011              		.file 22 "/usr/include/c++/4.9/bits/basic_string.h"
 12012              		.file 23 "/usr/include/c++/4.9/bits/basic_string.tcc"
 12013              		.file 24 "/usr/include/c++/4.9/bits/stringfwd.h"
 12014              		.file 25 "/usr/include/c++/4.9/cwctype"
 12015              		.file 26 "/usr/include/c++/4.9/cstring"
 12016              		.file 27 "/usr/include/time.h"
 12017              		.file 28 "/usr/include/c++/4.9/debug/debug.h"
 12018              		.file 29 "/usr/include/c++/4.9/bits/predefined_ops.h"
 12019              		.file 30 "/usr/include/c++/4.9/ext/new_allocator.h"
 12020              		.file 31 "/usr/include/c++/4.9/ext/numeric_traits.h"
 12021              		.file 32 "/usr/include/locale.h"
 12022              		.file 33 "/usr/include/x86_64-linux-gnu/bits/types.h"
 12023              		.file 34 "/usr/include/x86_64-linux-gnu/bits/setjmp.h"
 12024              		.file 35 "/usr/include/x86_64-linux-gnu/c++/4.9/bits/atomic_word.h"
 12025              		.file 36 "/usr/include/wctype.h"
 12026              		.file 37 "/usr/include/x86_64-linux-gnu/bits/sigset.h"
 12027              		.file 38 "/usr/include/setjmp.h"
 12028              		.file 39 "/usr/include/x86_64-linux-gnu/bits/siginfo.h"
 12029              		.file 40 "/usr/include/signal.h"
 12030              		.file 41 "/usr/include/x86_64-linux-gnu/bits/sigaction.h"
 12031              		.file 42 "/usr/include/string.h"
DEFINED SYMBOLS
                            *ABS*:0000000000000000 TestTestMacros.cpp
     /tmp/cceRUkwO.s:10     .text._ZN13UnitTestSuite12GetSuiteNameEv:0000000000000000 _ZN13UnitTestSuite12GetSuiteNameEv
     /tmp/cceRUkwO.s:33     .text._ZN8UnitTest15MemoryOutStreamC1Ev:0000000000000000 _ZN8UnitTest15MemoryOutStreamC1Ev
     /tmp/cceRUkwO.s:11353  .rodata._ZTTN8UnitTest15MemoryOutStreamE:0000000000000000 _ZTTN8UnitTest15MemoryOutStreamE
     /tmp/cceRUkwO.s:11154  .rodata._ZTVN8UnitTest15MemoryOutStreamE:0000000000000000 _ZTVN8UnitTest15MemoryOutStreamE
     /tmp/cceRUkwO.s:146    .text._ZN8UnitTest12TestReporterC2Ev:0000000000000000 _ZN8UnitTest12TestReporterC2Ev
     /tmp/cceRUkwO.s:146    .text._ZN8UnitTest12TestReporterC2Ev:0000000000000000 _ZN8UnitTest12TestReporterC1Ev
     /tmp/cceRUkwO.s:174    .text._ZN17RecordingReporterC2Ev:0000000000000000 _ZN17RecordingReporterC2Ev
     /tmp/cceRUkwO.s:11072  .rodata._ZTV17RecordingReporter:0000000000000000 _ZTV17RecordingReporter
     /tmp/cceRUkwO.s:174    .text._ZN17RecordingReporterC2Ev:0000000000000000 _ZN17RecordingReporterC1Ev
     /tmp/cceRUkwO.s:251    .text._ZN17RecordingReporter15ReportTestStartERKN8UnitTest11TestDetailsE:0000000000000000 _ZN17RecordingReporter15ReportTestStartERKN8UnitTest11TestDetailsE
     /tmp/cceRUkwO.s:298    .text._ZN17RecordingReporter13ReportFailureERKN8UnitTest11TestDetailsEPKc:0000000000000000 _ZN17RecordingReporter13ReportFailureERKN8UnitTest11TestDetailsEPKc
     /tmp/cceRUkwO.s:366    .text._ZN17RecordingReporter16ReportTestFinishERKN8UnitTest11TestDetailsEf:0000000000000000 _ZN17RecordingReporter16ReportTestFinishERKN8UnitTest11TestDetailsEf
     /tmp/cceRUkwO.s:418    .text._ZN17RecordingReporter13ReportSummaryEiiif:0000000000000000 _ZN17RecordingReporter13ReportSummaryEiiif
     /tmp/cceRUkwO.s:459    .text._ZN17ScopedCurrentTestC2ERN8UnitTest11TestResultsEPKNS0_11TestDetailsE:0000000000000000 _ZN17ScopedCurrentTestC2ERN8UnitTest11TestResultsEPKNS0_11TestDetailsE
     /tmp/cceRUkwO.s:459    .text._ZN17ScopedCurrentTestC2ERN8UnitTest11TestResultsEPKNS0_11TestDetailsE:0000000000000000 _ZN17ScopedCurrentTestC1ERN8UnitTest11TestResultsEPKNS0_11TestDetailsE
     /tmp/cceRUkwO.s:512    .text._ZN17ScopedCurrentTestD2Ev:0000000000000000 _ZN17ScopedCurrentTestD2Ev
     /tmp/cceRUkwO.s:512    .text._ZN17ScopedCurrentTestD2Ev:0000000000000000 _ZN17ScopedCurrentTestD1Ev
     /tmp/cceRUkwO.s:547    .bss:0000000000000080 _ZN12_GLOBAL__N_15list1E
     /tmp/cceRUkwO.s:556    .text:0000000000000000 _ZN12_GLOBAL__N_113TestDummyTestC2Ev
     /tmp/cceRUkwO.s:10997  .rodata:00000000000012e0 _ZTVN12_GLOBAL__N_113TestDummyTestE
     /tmp/cceRUkwO.s:588    .bss:00000000000000a0 _ZN12_GLOBAL__N_121testDummyTestInstanceE
     /tmp/cceRUkwO.s:588    .bss:00000000000000d8 _ZN12_GLOBAL__N_114adderDummyTestE
     /tmp/cceRUkwO.s:593    .text:000000000000003e _ZNK12_GLOBAL__N_113TestDummyTest7RunImplEv
     /tmp/cceRUkwO.s:617    .text:0000000000000048 _ZN12_GLOBAL__N_138TestTestsAreAddedToTheListThroughMacroC2Ev
     /tmp/cceRUkwO.s:10923  .rodata:00000000000012a0 _ZTVN12_GLOBAL__N_138TestTestsAreAddedToTheListThroughMacroE
     /tmp/cceRUkwO.s:648    .bss:00000000000000e0 _ZN12_GLOBAL__N_146testTestsAreAddedToTheListThroughMacroInstanceE
     /tmp/cceRUkwO.s:648    .bss:0000000000000118 _ZN12_GLOBAL__N_139adderTestsAreAddedToTheListThroughMacroE
     /tmp/cceRUkwO.s:665    .text:0000000000000086 _ZNK12_GLOBAL__N_138TestTestsAreAddedToTheListThroughMacro7RunImplEv
     /tmp/cceRUkwO.s:6875   .text._ZN8UnitTest5CheckIbEEbT_:0000000000000000 _ZN8UnitTest5CheckIbEEbT_
     /tmp/cceRUkwO.s:885    .text:0000000000000232 _ZN12_GLOBAL__N_115ThrowingThingieC2Ev
     /tmp/cceRUkwO.s:924    .bss:0000000000000120 _ZN12_GLOBAL__N_15list2E
     /tmp/cceRUkwO.s:927    .text:0000000000000278 _ZN12_GLOBAL__N_134ThrowingThingieDummyTestNameHelperC2ERKN8UnitTest11TestDetailsE
     /tmp/cceRUkwO.s:960    .text:00000000000002a2 _ZN12_GLOBAL__N_132TestThrowingThingieDummyTestNameC2Ev
     /tmp/cceRUkwO.s:10849  .rodata:0000000000001260 _ZTVN12_GLOBAL__N_132TestThrowingThingieDummyTestNameE
     /tmp/cceRUkwO.s:991    .bss:0000000000000140 _ZN12_GLOBAL__N_140testThrowingThingieDummyTestNameInstanceE
     /tmp/cceRUkwO.s:991    .bss:0000000000000178 _ZN12_GLOBAL__N_133adderThrowingThingieDummyTestNameE
     /tmp/cceRUkwO.s:1006   .text:00000000000002e0 _ZNK12_GLOBAL__N_132TestThrowingThingieDummyTestName7RunImplEv
     /tmp/cceRUkwO.s:6903   .text:0000000000002ef3 _ZN8UnitTest11ExecuteTestIN12_GLOBAL__N_134ThrowingThingieDummyTestNameHelperEEEvRT_RKNS_11TestDetailsE
     /tmp/cceRUkwO.s:11169  .text._ZN8UnitTest15MemoryOutStreamD1Ev:0000000000000000 _ZN8UnitTest15MemoryOutStreamD1Ev
     /tmp/cceRUkwO.s:1328   .text:00000000000005ba _ZN12_GLOBAL__N_134ThrowingThingieDummyTestNameHelper7RunImplEv
     /tmp/cceRUkwO.s:1352   .text:00000000000005c4 _ZN12_GLOBAL__N_157TestExceptionsInFixtureAreReportedAsHappeningInTheFixtureC2Ev
     /tmp/cceRUkwO.s:10775  .rodata:0000000000001220 _ZTVN12_GLOBAL__N_157TestExceptionsInFixtureAreReportedAsHappeningInTheFixtureE
     /tmp/cceRUkwO.s:1383   .bss:0000000000000180 _ZN12_GLOBAL__N_165testExceptionsInFixtureAreReportedAsHappeningInTheFixtureInstanceE
     /tmp/cceRUkwO.s:1383   .bss:00000000000001b8 _ZN12_GLOBAL__N_158adderExceptionsInFixtureAreReportedAsHappeningInTheFixtureE
     /tmp/cceRUkwO.s:1414   .text:0000000000000602 _ZNK12_GLOBAL__N_157TestExceptionsInFixtureAreReportedAsHappeningInTheFixture7RunImplEv
     /tmp/cceRUkwO.s:7263   .text._ZN8UnitTest5CheckIPcEEbT_:0000000000000000 _ZN8UnitTest5CheckIPcEEbT_
     /tmp/cceRUkwO.s:11085  .text._ZN17RecordingReporterD2Ev:0000000000000000 _ZN17RecordingReporterD1Ev
     /tmp/cceRUkwO.s:1777   .text:000000000000093e _ZN12_GLOBAL__N_115SuiteTestSuite113UnitTestSuite12GetSuiteNameEv
     /tmp/cceRUkwO.s:1801   .text:000000000000094a _ZN12_GLOBAL__N_115SuiteTestSuite144TestSimilarlyNamedTestsInDifferentSuitesWorkC2Ev
     /tmp/cceRUkwO.s:10701  .rodata:00000000000011e0 _ZTVN12_GLOBAL__N_115SuiteTestSuite144TestSimilarlyNamedTestsInDifferentSuitesWorkE
     /tmp/cceRUkwO.s:1832   .bss:00000000000001c0 _ZN12_GLOBAL__N_115SuiteTestSuite152testSimilarlyNamedTestsInDifferentSuitesWorkInstanceE
     /tmp/cceRUkwO.s:1832   .bss:00000000000001f8 _ZN12_GLOBAL__N_115SuiteTestSuite145adderSimilarlyNamedTestsInDifferentSuitesWorkE
     /tmp/cceRUkwO.s:1837   .text:0000000000000988 _ZNK12_GLOBAL__N_115SuiteTestSuite144TestSimilarlyNamedTestsInDifferentSuitesWork7RunImplEv
     /tmp/cceRUkwO.s:1856   .text:0000000000000992 _ZN12_GLOBAL__N_112DummyFixtureC2Ev
     /tmp/cceRUkwO.s:1875   .text:000000000000099c _ZN12_GLOBAL__N_115SuiteTestSuite165DummyFixtureSimilarlyNamedFixtureTestsInDifferentSuitesWorkHelperC2ERKN8UnitTest11TestDetailsE
     /tmp/cceRUkwO.s:1909   .text:00000000000009c6 _ZN12_GLOBAL__N_115SuiteTestSuite163TestDummyFixtureSimilarlyNamedFixtureTestsInDifferentSuitesWorkC2Ev
     /tmp/cceRUkwO.s:10627  .rodata:00000000000011a0 _ZTVN12_GLOBAL__N_115SuiteTestSuite163TestDummyFixtureSimilarlyNamedFixtureTestsInDifferentSuitesWorkE
     /tmp/cceRUkwO.s:1940   .bss:0000000000000200 _ZN12_GLOBAL__N_115SuiteTestSuite171testDummyFixtureSimilarlyNamedFixtureTestsInDifferentSuitesWorkInstanceE
     /tmp/cceRUkwO.s:1940   .bss:0000000000000238 _ZN12_GLOBAL__N_115SuiteTestSuite164adderDummyFixtureSimilarlyNamedFixtureTestsInDifferentSuitesWorkE
     /tmp/cceRUkwO.s:1953   .text:0000000000000a04 _ZNK12_GLOBAL__N_115SuiteTestSuite163TestDummyFixtureSimilarlyNamedFixtureTestsInDifferentSuitesWork7RunImplEv
     /tmp/cceRUkwO.s:7285   .text:00000000000031b1 _ZN8UnitTest11ExecuteTestIN12_GLOBAL__N_115SuiteTestSuite165DummyFixtureSimilarlyNamedFixtureTestsInDifferentSuitesWorkHelperEEEvRT_RKNS_11TestDetailsE
     /tmp/cceRUkwO.s:2273   .text:0000000000000cde _ZN12_GLOBAL__N_115SuiteTestSuite165DummyFixtureSimilarlyNamedFixtureTestsInDifferentSuitesWorkHelper7RunImplEv
     /tmp/cceRUkwO.s:2295   .text:0000000000000ce8 _ZN12_GLOBAL__N_115SuiteTestSuite213UnitTestSuite12GetSuiteNameEv
     /tmp/cceRUkwO.s:2314   .text:0000000000000cf4 _ZN12_GLOBAL__N_115SuiteTestSuite244TestSimilarlyNamedTestsInDifferentSuitesWorkC2Ev
     /tmp/cceRUkwO.s:10553  .rodata:0000000000001160 _ZTVN12_GLOBAL__N_115SuiteTestSuite244TestSimilarlyNamedTestsInDifferentSuitesWorkE
     /tmp/cceRUkwO.s:2345   .bss:0000000000000240 _ZN12_GLOBAL__N_115SuiteTestSuite252testSimilarlyNamedTestsInDifferentSuitesWorkInstanceE
     /tmp/cceRUkwO.s:2345   .bss:0000000000000278 _ZN12_GLOBAL__N_115SuiteTestSuite245adderSimilarlyNamedTestsInDifferentSuitesWorkE
     /tmp/cceRUkwO.s:2350   .text:0000000000000d32 _ZNK12_GLOBAL__N_115SuiteTestSuite244TestSimilarlyNamedTestsInDifferentSuitesWork7RunImplEv
     /tmp/cceRUkwO.s:2369   .text:0000000000000d3c _ZN12_GLOBAL__N_115SuiteTestSuite265DummyFixtureSimilarlyNamedFixtureTestsInDifferentSuitesWorkHelperC2ERKN8UnitTest11TestDetailsE
     /tmp/cceRUkwO.s:2398   .text:0000000000000d66 _ZN12_GLOBAL__N_115SuiteTestSuite263TestDummyFixtureSimilarlyNamedFixtureTestsInDifferentSuitesWorkC2Ev
     /tmp/cceRUkwO.s:10479  .rodata:0000000000001120 _ZTVN12_GLOBAL__N_115SuiteTestSuite263TestDummyFixtureSimilarlyNamedFixtureTestsInDifferentSuitesWorkE
     /tmp/cceRUkwO.s:2429   .bss:0000000000000280 _ZN12_GLOBAL__N_115SuiteTestSuite271testDummyFixtureSimilarlyNamedFixtureTestsInDifferentSuitesWorkInstanceE
     /tmp/cceRUkwO.s:2429   .bss:00000000000002b8 _ZN12_GLOBAL__N_115SuiteTestSuite264adderDummyFixtureSimilarlyNamedFixtureTestsInDifferentSuitesWorkE
     /tmp/cceRUkwO.s:2434   .text:0000000000000da4 _ZNK12_GLOBAL__N_115SuiteTestSuite263TestDummyFixtureSimilarlyNamedFixtureTestsInDifferentSuitesWork7RunImplEv
     /tmp/cceRUkwO.s:7642   .text:000000000000346f _ZN8UnitTest11ExecuteTestIN12_GLOBAL__N_115SuiteTestSuite265DummyFixtureSimilarlyNamedFixtureTestsInDifferentSuitesWorkHelperEEEvRT_RKNS_11TestDetailsE
     /tmp/cceRUkwO.s:2754   .text:000000000000107e _ZN12_GLOBAL__N_115SuiteTestSuite265DummyFixtureSimilarlyNamedFixtureTestsInDifferentSuitesWorkHelper7RunImplEv
     /tmp/cceRUkwO.s:2772   .bss:00000000000002c0 _ZN12_GLOBAL__N_114macroTestList1E
     /tmp/cceRUkwO.s:2779   .text:0000000000001088 _ZN12_GLOBAL__N_120TestMacroTestHelper1C2Ev
     /tmp/cceRUkwO.s:10405  .rodata:00000000000010e0 _ZTVN12_GLOBAL__N_120TestMacroTestHelper1E
     /tmp/cceRUkwO.s:2810   .bss:00000000000002e0 _ZN12_GLOBAL__N_128testMacroTestHelper1InstanceE
     /tmp/cceRUkwO.s:2810   .bss:0000000000000318 _ZN12_GLOBAL__N_121adderMacroTestHelper1E
     /tmp/cceRUkwO.s:2815   .text:00000000000010c6 _ZNK12_GLOBAL__N_120TestMacroTestHelper17RunImplEv
     /tmp/cceRUkwO.s:2839   .text:00000000000010d0 _ZN12_GLOBAL__N_145TestTestAddedWithTEST_EXMacroGetsDefaultSuiteC2Ev
     /tmp/cceRUkwO.s:10331  .rodata:00000000000010a0 _ZTVN12_GLOBAL__N_145TestTestAddedWithTEST_EXMacroGetsDefaultSuiteE
     /tmp/cceRUkwO.s:2870   .bss:0000000000000320 _ZN12_GLOBAL__N_153testTestAddedWithTEST_EXMacroGetsDefaultSuiteInstanceE
     /tmp/cceRUkwO.s:2870   .bss:0000000000000358 _ZN12_GLOBAL__N_146adderTestAddedWithTEST_EXMacroGetsDefaultSuiteE
     /tmp/cceRUkwO.s:2889   .text:000000000000110e _ZNK12_GLOBAL__N_145TestTestAddedWithTEST_EXMacroGetsDefaultSuite7RunImplEv
     /tmp/cceRUkwO.s:3171   .bss:0000000000000360 _ZN12_GLOBAL__N_114macroTestList2E
     /tmp/cceRUkwO.s:3174   .text:0000000000001348 _ZN12_GLOBAL__N_134DummyFixtureMacroTestHelper2HelperC2ERKN8UnitTest11TestDetailsE
     /tmp/cceRUkwO.s:3207   .text:0000000000001372 _ZN12_GLOBAL__N_132TestDummyFixtureMacroTestHelper2C2Ev
     /tmp/cceRUkwO.s:10257  .rodata:0000000000001060 _ZTVN12_GLOBAL__N_132TestDummyFixtureMacroTestHelper2E
     /tmp/cceRUkwO.s:3238   .bss:0000000000000380 _ZN12_GLOBAL__N_140testDummyFixtureMacroTestHelper2InstanceE
     /tmp/cceRUkwO.s:3238   .bss:00000000000003b8 _ZN12_GLOBAL__N_133adderDummyFixtureMacroTestHelper2E
     /tmp/cceRUkwO.s:3243   .text:00000000000013b0 _ZNK12_GLOBAL__N_132TestDummyFixtureMacroTestHelper27RunImplEv
     /tmp/cceRUkwO.s:7999   .text:000000000000372d _ZN8UnitTest11ExecuteTestIN12_GLOBAL__N_134DummyFixtureMacroTestHelper2HelperEEEvRT_RKNS_11TestDetailsE
     /tmp/cceRUkwO.s:3563   .text:000000000000168a _ZN12_GLOBAL__N_134DummyFixtureMacroTestHelper2Helper7RunImplEv
     /tmp/cceRUkwO.s:3587   .text:0000000000001694 _ZN12_GLOBAL__N_153TestTestAddedWithTEST_FIXTURE_EXMacroGetsDefaultSuiteC2Ev
     /tmp/cceRUkwO.s:10183  .rodata:0000000000001020 _ZTVN12_GLOBAL__N_153TestTestAddedWithTEST_FIXTURE_EXMacroGetsDefaultSuiteE
     /tmp/cceRUkwO.s:3618   .bss:00000000000003c0 _ZN12_GLOBAL__N_161testTestAddedWithTEST_FIXTURE_EXMacroGetsDefaultSuiteInstanceE
     /tmp/cceRUkwO.s:3618   .bss:00000000000003f8 _ZN12_GLOBAL__N_154adderTestAddedWithTEST_FIXTURE_EXMacroGetsDefaultSuiteE
     /tmp/cceRUkwO.s:3637   .text:00000000000016d2 _ZNK12_GLOBAL__N_153TestTestAddedWithTEST_FIXTURE_EXMacroGetsDefaultSuite7RunImplEv
     /tmp/cceRUkwO.s:3924   .text:000000000000190c _ZN12_GLOBAL__N_117FixtureCtorThrowsC2Ev
     /tmp/cceRUkwO.s:3949   .bss:0000000000000400 _ZN12_GLOBAL__N_124throwingFixtureTestList1E
     /tmp/cceRUkwO.s:3952   .text:000000000000193c _ZN12_GLOBAL__N_148FixtureCtorThrowsFixtureCtorThrowsTestNameHelperC2ERKN8UnitTest11TestDetailsE
     /tmp/cceRUkwO.s:3985   .text:0000000000001966 _ZN12_GLOBAL__N_146TestFixtureCtorThrowsFixtureCtorThrowsTestNameC2Ev
     /tmp/cceRUkwO.s:10109  .rodata:0000000000000fe0 _ZTVN12_GLOBAL__N_146TestFixtureCtorThrowsFixtureCtorThrowsTestNameE
     /tmp/cceRUkwO.s:4016   .bss:0000000000000420 _ZN12_GLOBAL__N_154testFixtureCtorThrowsFixtureCtorThrowsTestNameInstanceE
     /tmp/cceRUkwO.s:4016   .bss:0000000000000458 _ZN12_GLOBAL__N_147adderFixtureCtorThrowsFixtureCtorThrowsTestNameE
     /tmp/cceRUkwO.s:4029   .text:00000000000019a4 _ZNK12_GLOBAL__N_146TestFixtureCtorThrowsFixtureCtorThrowsTestName7RunImplEv
     /tmp/cceRUkwO.s:8356   .text:00000000000039eb _ZN8UnitTest11ExecuteTestIN12_GLOBAL__N_148FixtureCtorThrowsFixtureCtorThrowsTestNameHelperEEEvRT_RKNS_11TestDetailsE
     /tmp/cceRUkwO.s:4351   .text:0000000000001c7e _ZN12_GLOBAL__N_148FixtureCtorThrowsFixtureCtorThrowsTestNameHelper7RunImplEv
     /tmp/cceRUkwO.s:4375   .text:0000000000001c88 _ZN12_GLOBAL__N_140TestFixturesWithThrowingCtorsAreFailuresC2Ev
     /tmp/cceRUkwO.s:10035  .rodata:0000000000000fa0 _ZTVN12_GLOBAL__N_140TestFixturesWithThrowingCtorsAreFailuresE
     /tmp/cceRUkwO.s:4406   .bss:0000000000000460 _ZN12_GLOBAL__N_148testFixturesWithThrowingCtorsAreFailuresInstanceE
     /tmp/cceRUkwO.s:4406   .bss:0000000000000498 _ZN12_GLOBAL__N_141adderFixturesWithThrowingCtorsAreFailuresE
     /tmp/cceRUkwO.s:4430   .text:0000000000001cc6 _ZNK12_GLOBAL__N_140TestFixturesWithThrowingCtorsAreFailures7RunImplEv
     /tmp/cceRUkwO.s:8720   .text._ZN8UnitTest10CheckEqualIiiEEvRNS_11TestResultsERKT_RKT0_RKNS_11TestDetailsE:0000000000000000 _ZN8UnitTest10CheckEqualIiiEEvRNS_11TestResultsERKT_RKT0_RKNS_11TestDetailsE
     /tmp/cceRUkwO.s:4793   .text:0000000000001ffc _ZN12_GLOBAL__N_117FixtureDtorThrowsD2Ev
     /tmp/cceRUkwO.s:4818   .bss:00000000000004a0 _ZN12_GLOBAL__N_124throwingFixtureTestList2E
     /tmp/cceRUkwO.s:4821   .text:000000000000202c _ZN12_GLOBAL__N_117FixtureDtorThrowsC2Ev
     /tmp/cceRUkwO.s:4840   .text:0000000000002036 _ZN12_GLOBAL__N_148FixtureDtorThrowsFixtureDtorThrowsTestNameHelperC2ERKN8UnitTest11TestDetailsE
     /tmp/cceRUkwO.s:4873   .text:0000000000002060 _ZN12_GLOBAL__N_146TestFixtureDtorThrowsFixtureDtorThrowsTestNameC2Ev
     /tmp/cceRUkwO.s:9961   .rodata:0000000000000f60 _ZTVN12_GLOBAL__N_146TestFixtureDtorThrowsFixtureDtorThrowsTestNameE
     /tmp/cceRUkwO.s:4904   .bss:00000000000004c0 _ZN12_GLOBAL__N_154testFixtureDtorThrowsFixtureDtorThrowsTestNameInstanceE
     /tmp/cceRUkwO.s:4904   .bss:00000000000004f8 _ZN12_GLOBAL__N_147adderFixtureDtorThrowsFixtureDtorThrowsTestNameE
     /tmp/cceRUkwO.s:4909   .text:000000000000209e _ZN12_GLOBAL__N_148FixtureDtorThrowsFixtureDtorThrowsTestNameHelperD2Ev
     /tmp/cceRUkwO.s:4942   .text:00000000000020b8 _ZNK12_GLOBAL__N_146TestFixtureDtorThrowsFixtureDtorThrowsTestName7RunImplEv
     /tmp/cceRUkwO.s:8864   .text:0000000000003ca9 _ZN8UnitTest11ExecuteTestIN12_GLOBAL__N_148FixtureDtorThrowsFixtureDtorThrowsTestNameHelperEEEvRT_RKNS_11TestDetailsE
     /tmp/cceRUkwO.s:5287   .text:00000000000023be _ZN12_GLOBAL__N_148FixtureDtorThrowsFixtureDtorThrowsTestNameHelper7RunImplEv
     /tmp/cceRUkwO.s:5311   .text:00000000000023c8 _ZN12_GLOBAL__N_140TestFixturesWithThrowingDtorsAreFailuresC2Ev
     /tmp/cceRUkwO.s:9887   .rodata:0000000000000f20 _ZTVN12_GLOBAL__N_140TestFixturesWithThrowingDtorsAreFailuresE
     /tmp/cceRUkwO.s:5342   .bss:0000000000000500 _ZN12_GLOBAL__N_148testFixturesWithThrowingDtorsAreFailuresInstanceE
     /tmp/cceRUkwO.s:5342   .bss:0000000000000538 _ZN12_GLOBAL__N_141adderFixturesWithThrowingDtorsAreFailuresE
     /tmp/cceRUkwO.s:5363   .text:0000000000002406 _ZNK12_GLOBAL__N_140TestFixturesWithThrowingDtorsAreFailures7RunImplEv
     /tmp/cceRUkwO.s:5732   .text:000000000000273c _ZN12_GLOBAL__N_118FixtureCtorAssertsC2Ev
     /tmp/cceRUkwO.s:5758   .bss:0000000000000540 _ZN12_GLOBAL__N_125ctorAssertFixtureTestListE
     /tmp/cceRUkwO.s:5761   .text:000000000000275e _ZN12_GLOBAL__N_159FixtureCtorAssertsCorrectlyReportsAssertFailureInCtorHelperC2ERKN8UnitTest11TestDetailsE
     /tmp/cceRUkwO.s:5795   .text:0000000000002788 _ZN12_GLOBAL__N_157TestFixtureCtorAssertsCorrectlyReportsAssertFailureInCtorC2Ev
     /tmp/cceRUkwO.s:9813   .rodata:0000000000000ee0 _ZTVN12_GLOBAL__N_157TestFixtureCtorAssertsCorrectlyReportsAssertFailureInCtorE
     /tmp/cceRUkwO.s:5826   .bss:0000000000000560 _ZN12_GLOBAL__N_165testFixtureCtorAssertsCorrectlyReportsAssertFailureInCtorInstanceE
     /tmp/cceRUkwO.s:5826   .bss:0000000000000598 _ZN12_GLOBAL__N_158adderFixtureCtorAssertsCorrectlyReportsAssertFailureInCtorE
     /tmp/cceRUkwO.s:5839   .text:00000000000027c6 _ZNK12_GLOBAL__N_157TestFixtureCtorAssertsCorrectlyReportsAssertFailureInCtor7RunImplEv
     /tmp/cceRUkwO.s:9221   .text:0000000000003f67 _ZN8UnitTest11ExecuteTestIN12_GLOBAL__N_159FixtureCtorAssertsCorrectlyReportsAssertFailureInCtorHelperEEEvRT_RKNS_11TestDetailsE
     /tmp/cceRUkwO.s:6161   .text:0000000000002aa0 _ZN12_GLOBAL__N_159FixtureCtorAssertsCorrectlyReportsAssertFailureInCtorHelper7RunImplEv
     /tmp/cceRUkwO.s:6185   .text:0000000000002aaa _ZN12_GLOBAL__N_147TestCorrectlyReportsFixturesWithCtorsThatAssertC2Ev
     /tmp/cceRUkwO.s:9739   .rodata:0000000000000ea0 _ZTVN12_GLOBAL__N_147TestCorrectlyReportsFixturesWithCtorsThatAssertE
     /tmp/cceRUkwO.s:6216   .bss:00000000000005a0 _ZN12_GLOBAL__N_155testCorrectlyReportsFixturesWithCtorsThatAssertInstanceE
     /tmp/cceRUkwO.s:6216   .bss:00000000000005d8 _ZN12_GLOBAL__N_148adderCorrectlyReportsFixturesWithCtorsThatAssertE
     /tmp/cceRUkwO.s:6232   .text:0000000000002ae8 _ZNK12_GLOBAL__N_147TestCorrectlyReportsFixturesWithCtorsThatAssert7RunImplEv
     /tmp/cceRUkwO.s:11960  .rodata:0000000000001c84 _ZN12_GLOBAL__N_1L11FailingLineE
     /tmp/cceRUkwO.s:6584   .text._ZN18SuiteSameTestSuite13UnitTestSuite12GetSuiteNameEv:0000000000000000 _ZN18SuiteSameTestSuite13UnitTestSuite12GetSuiteNameEv
     /tmp/cceRUkwO.s:6608   .text._ZN18SuiteSameTestSuite14TestDummyTest1C2Ev:0000000000000000 _ZN18SuiteSameTestSuite14TestDummyTest1C2Ev
     /tmp/cceRUkwO.s:9661   .rodata._ZTVN18SuiteSameTestSuite14TestDummyTest1E:0000000000000000 _ZTVN18SuiteSameTestSuite14TestDummyTest1E
     /tmp/cceRUkwO.s:6608   .text._ZN18SuiteSameTestSuite14TestDummyTest1C2Ev:0000000000000000 _ZN18SuiteSameTestSuite14TestDummyTest1C1Ev
     /tmp/cceRUkwO.s:6645   .bss:0000000000000000 _ZN18SuiteSameTestSuite22testDummyTest1InstanceE
     /tmp/cceRUkwO.s:6650   .bss:0000000000000038 _ZN18SuiteSameTestSuite15adderDummyTest1E
     /tmp/cceRUkwO.s:6656   .text:0000000000002e08 _ZNK18SuiteSameTestSuite14TestDummyTest17RunImplEv
     /tmp/cceRUkwO.s:6681   .text._ZN44TestCurrentTestDetailsContainCurrentTestInfoC2Ev:0000000000000000 _ZN44TestCurrentTestDetailsContainCurrentTestInfoC2Ev
     /tmp/cceRUkwO.s:9582   .rodata._ZTV44TestCurrentTestDetailsContainCurrentTestInfo:0000000000000000 _ZTV44TestCurrentTestDetailsContainCurrentTestInfo
     /tmp/cceRUkwO.s:6681   .text._ZN44TestCurrentTestDetailsContainCurrentTestInfoC2Ev:0000000000000000 _ZN44TestCurrentTestDetailsContainCurrentTestInfoC1Ev
     /tmp/cceRUkwO.s:6718   .bss:0000000000000040 testCurrentTestDetailsContainCurrentTestInfoInstance
     /tmp/cceRUkwO.s:6723   .bss:0000000000000078 adderCurrentTestDetailsContainCurrentTestInfo
     /tmp/cceRUkwO.s:6733   .text:0000000000002e12 _ZNK44TestCurrentTestDetailsContainCurrentTestInfo7RunImplEv
     /tmp/cceRUkwO.s:11399  .rodata._ZTI44TestCurrentTestDetailsContainCurrentTestInfo:0000000000000000 _ZTI44TestCurrentTestDetailsContainCurrentTestInfo
     /tmp/cceRUkwO.s:9592   .text._ZN44TestCurrentTestDetailsContainCurrentTestInfoD2Ev:0000000000000000 _ZN44TestCurrentTestDetailsContainCurrentTestInfoD1Ev
     /tmp/cceRUkwO.s:9632   .text._ZN44TestCurrentTestDetailsContainCurrentTestInfoD0Ev:0000000000000000 _ZN44TestCurrentTestDetailsContainCurrentTestInfoD0Ev
     /tmp/cceRUkwO.s:9592   .text._ZN44TestCurrentTestDetailsContainCurrentTestInfoD2Ev:0000000000000000 _ZN44TestCurrentTestDetailsContainCurrentTestInfoD2Ev
     /tmp/cceRUkwO.s:11415  .rodata._ZTIN18SuiteSameTestSuite14TestDummyTest1E:0000000000000000 _ZTIN18SuiteSameTestSuite14TestDummyTest1E
     /tmp/cceRUkwO.s:9671   .text._ZN18SuiteSameTestSuite14TestDummyTest1D2Ev:0000000000000000 _ZN18SuiteSameTestSuite14TestDummyTest1D1Ev
     /tmp/cceRUkwO.s:9711   .text._ZN18SuiteSameTestSuite14TestDummyTest1D0Ev:0000000000000000 _ZN18SuiteSameTestSuite14TestDummyTest1D0Ev
     /tmp/cceRUkwO.s:9671   .text._ZN18SuiteSameTestSuite14TestDummyTest1D2Ev:0000000000000000 _ZN18SuiteSameTestSuite14TestDummyTest1D2Ev
     /tmp/cceRUkwO.s:11863  .rodata:0000000000001530 _ZTIN12_GLOBAL__N_147TestCorrectlyReportsFixturesWithCtorsThatAssertE
     /tmp/cceRUkwO.s:9748   .text:0000000000004226 _ZN12_GLOBAL__N_147TestCorrectlyReportsFixturesWithCtorsThatAssertD1Ev
     /tmp/cceRUkwO.s:9785   .text:0000000000004260 _ZN12_GLOBAL__N_147TestCorrectlyReportsFixturesWithCtorsThatAssertD0Ev
     /tmp/cceRUkwO.s:9748   .text:0000000000004226 _ZN12_GLOBAL__N_147TestCorrectlyReportsFixturesWithCtorsThatAssertD2Ev
     /tmp/cceRUkwO.s:11856  .rodata:0000000000001510 _ZTIN12_GLOBAL__N_157TestFixtureCtorAssertsCorrectlyReportsAssertFailureInCtorE
     /tmp/cceRUkwO.s:9822   .text:0000000000004286 _ZN12_GLOBAL__N_157TestFixtureCtorAssertsCorrectlyReportsAssertFailureInCtorD1Ev
     /tmp/cceRUkwO.s:9859   .text:00000000000042c0 _ZN12_GLOBAL__N_157TestFixtureCtorAssertsCorrectlyReportsAssertFailureInCtorD0Ev
     /tmp/cceRUkwO.s:9822   .text:0000000000004286 _ZN12_GLOBAL__N_157TestFixtureCtorAssertsCorrectlyReportsAssertFailureInCtorD2Ev
     /tmp/cceRUkwO.s:11849  .rodata:00000000000014f0 _ZTIN12_GLOBAL__N_140TestFixturesWithThrowingDtorsAreFailuresE
     /tmp/cceRUkwO.s:9896   .text:00000000000042e6 _ZN12_GLOBAL__N_140TestFixturesWithThrowingDtorsAreFailuresD1Ev
     /tmp/cceRUkwO.s:9933   .text:0000000000004320 _ZN12_GLOBAL__N_140TestFixturesWithThrowingDtorsAreFailuresD0Ev
     /tmp/cceRUkwO.s:9896   .text:00000000000042e6 _ZN12_GLOBAL__N_140TestFixturesWithThrowingDtorsAreFailuresD2Ev
     /tmp/cceRUkwO.s:11842  .rodata:00000000000014d0 _ZTIN12_GLOBAL__N_146TestFixtureDtorThrowsFixtureDtorThrowsTestNameE
     /tmp/cceRUkwO.s:9970   .text:0000000000004346 _ZN12_GLOBAL__N_146TestFixtureDtorThrowsFixtureDtorThrowsTestNameD1Ev
     /tmp/cceRUkwO.s:10007  .text:0000000000004380 _ZN12_GLOBAL__N_146TestFixtureDtorThrowsFixtureDtorThrowsTestNameD0Ev
     /tmp/cceRUkwO.s:9970   .text:0000000000004346 _ZN12_GLOBAL__N_146TestFixtureDtorThrowsFixtureDtorThrowsTestNameD2Ev
     /tmp/cceRUkwO.s:11835  .rodata:00000000000014b0 _ZTIN12_GLOBAL__N_140TestFixturesWithThrowingCtorsAreFailuresE
     /tmp/cceRUkwO.s:10044  .text:00000000000043a6 _ZN12_GLOBAL__N_140TestFixturesWithThrowingCtorsAreFailuresD1Ev
     /tmp/cceRUkwO.s:10081  .text:00000000000043e0 _ZN12_GLOBAL__N_140TestFixturesWithThrowingCtorsAreFailuresD0Ev
     /tmp/cceRUkwO.s:10044  .text:00000000000043a6 _ZN12_GLOBAL__N_140TestFixturesWithThrowingCtorsAreFailuresD2Ev
     /tmp/cceRUkwO.s:11828  .rodata:0000000000001490 _ZTIN12_GLOBAL__N_146TestFixtureCtorThrowsFixtureCtorThrowsTestNameE
     /tmp/cceRUkwO.s:10118  .text:0000000000004406 _ZN12_GLOBAL__N_146TestFixtureCtorThrowsFixtureCtorThrowsTestNameD1Ev
     /tmp/cceRUkwO.s:10155  .text:0000000000004440 _ZN12_GLOBAL__N_146TestFixtureCtorThrowsFixtureCtorThrowsTestNameD0Ev
     /tmp/cceRUkwO.s:10118  .text:0000000000004406 _ZN12_GLOBAL__N_146TestFixtureCtorThrowsFixtureCtorThrowsTestNameD2Ev
     /tmp/cceRUkwO.s:11821  .rodata:0000000000001470 _ZTIN12_GLOBAL__N_153TestTestAddedWithTEST_FIXTURE_EXMacroGetsDefaultSuiteE
     /tmp/cceRUkwO.s:10192  .text:0000000000004466 _ZN12_GLOBAL__N_153TestTestAddedWithTEST_FIXTURE_EXMacroGetsDefaultSuiteD1Ev
     /tmp/cceRUkwO.s:10229  .text:00000000000044a0 _ZN12_GLOBAL__N_153TestTestAddedWithTEST_FIXTURE_EXMacroGetsDefaultSuiteD0Ev
     /tmp/cceRUkwO.s:10192  .text:0000000000004466 _ZN12_GLOBAL__N_153TestTestAddedWithTEST_FIXTURE_EXMacroGetsDefaultSuiteD2Ev
     /tmp/cceRUkwO.s:11814  .rodata:0000000000001450 _ZTIN12_GLOBAL__N_132TestDummyFixtureMacroTestHelper2E
     /tmp/cceRUkwO.s:10266  .text:00000000000044c6 _ZN12_GLOBAL__N_132TestDummyFixtureMacroTestHelper2D1Ev
     /tmp/cceRUkwO.s:10303  .text:0000000000004500 _ZN12_GLOBAL__N_132TestDummyFixtureMacroTestHelper2D0Ev
     /tmp/cceRUkwO.s:10266  .text:00000000000044c6 _ZN12_GLOBAL__N_132TestDummyFixtureMacroTestHelper2D2Ev
     /tmp/cceRUkwO.s:11807  .rodata:0000000000001430 _ZTIN12_GLOBAL__N_145TestTestAddedWithTEST_EXMacroGetsDefaultSuiteE
     /tmp/cceRUkwO.s:10340  .text:0000000000004526 _ZN12_GLOBAL__N_145TestTestAddedWithTEST_EXMacroGetsDefaultSuiteD1Ev
     /tmp/cceRUkwO.s:10377  .text:0000000000004560 _ZN12_GLOBAL__N_145TestTestAddedWithTEST_EXMacroGetsDefaultSuiteD0Ev
     /tmp/cceRUkwO.s:10340  .text:0000000000004526 _ZN12_GLOBAL__N_145TestTestAddedWithTEST_EXMacroGetsDefaultSuiteD2Ev
     /tmp/cceRUkwO.s:11800  .rodata:0000000000001410 _ZTIN12_GLOBAL__N_120TestMacroTestHelper1E
     /tmp/cceRUkwO.s:10414  .text:0000000000004586 _ZN12_GLOBAL__N_120TestMacroTestHelper1D1Ev
     /tmp/cceRUkwO.s:10451  .text:00000000000045c0 _ZN12_GLOBAL__N_120TestMacroTestHelper1D0Ev
     /tmp/cceRUkwO.s:10414  .text:0000000000004586 _ZN12_GLOBAL__N_120TestMacroTestHelper1D2Ev
     /tmp/cceRUkwO.s:11793  .rodata:00000000000013f0 _ZTIN12_GLOBAL__N_115SuiteTestSuite263TestDummyFixtureSimilarlyNamedFixtureTestsInDifferentSuitesWorkE
     /tmp/cceRUkwO.s:10488  .text:00000000000045e6 _ZN12_GLOBAL__N_115SuiteTestSuite263TestDummyFixtureSimilarlyNamedFixtureTestsInDifferentSuitesWorkD1Ev
     /tmp/cceRUkwO.s:10525  .text:0000000000004620 _ZN12_GLOBAL__N_115SuiteTestSuite263TestDummyFixtureSimilarlyNamedFixtureTestsInDifferentSuitesWorkD0Ev
     /tmp/cceRUkwO.s:10488  .text:00000000000045e6 _ZN12_GLOBAL__N_115SuiteTestSuite263TestDummyFixtureSimilarlyNamedFixtureTestsInDifferentSuitesWorkD2Ev
     /tmp/cceRUkwO.s:11786  .rodata:00000000000013d0 _ZTIN12_GLOBAL__N_115SuiteTestSuite244TestSimilarlyNamedTestsInDifferentSuitesWorkE
     /tmp/cceRUkwO.s:10562  .text:0000000000004646 _ZN12_GLOBAL__N_115SuiteTestSuite244TestSimilarlyNamedTestsInDifferentSuitesWorkD1Ev
     /tmp/cceRUkwO.s:10599  .text:0000000000004680 _ZN12_GLOBAL__N_115SuiteTestSuite244TestSimilarlyNamedTestsInDifferentSuitesWorkD0Ev
     /tmp/cceRUkwO.s:10562  .text:0000000000004646 _ZN12_GLOBAL__N_115SuiteTestSuite244TestSimilarlyNamedTestsInDifferentSuitesWorkD2Ev
     /tmp/cceRUkwO.s:11779  .rodata:00000000000013b0 _ZTIN12_GLOBAL__N_115SuiteTestSuite163TestDummyFixtureSimilarlyNamedFixtureTestsInDifferentSuitesWorkE
     /tmp/cceRUkwO.s:10636  .text:00000000000046a6 _ZN12_GLOBAL__N_115SuiteTestSuite163TestDummyFixtureSimilarlyNamedFixtureTestsInDifferentSuitesWorkD1Ev
     /tmp/cceRUkwO.s:10673  .text:00000000000046e0 _ZN12_GLOBAL__N_115SuiteTestSuite163TestDummyFixtureSimilarlyNamedFixtureTestsInDifferentSuitesWorkD0Ev
     /tmp/cceRUkwO.s:10636  .text:00000000000046a6 _ZN12_GLOBAL__N_115SuiteTestSuite163TestDummyFixtureSimilarlyNamedFixtureTestsInDifferentSuitesWorkD2Ev
     /tmp/cceRUkwO.s:11772  .rodata:0000000000001390 _ZTIN12_GLOBAL__N_115SuiteTestSuite144TestSimilarlyNamedTestsInDifferentSuitesWorkE
     /tmp/cceRUkwO.s:10710  .text:0000000000004706 _ZN12_GLOBAL__N_115SuiteTestSuite144TestSimilarlyNamedTestsInDifferentSuitesWorkD1Ev
     /tmp/cceRUkwO.s:10747  .text:0000000000004740 _ZN12_GLOBAL__N_115SuiteTestSuite144TestSimilarlyNamedTestsInDifferentSuitesWorkD0Ev
     /tmp/cceRUkwO.s:10710  .text:0000000000004706 _ZN12_GLOBAL__N_115SuiteTestSuite144TestSimilarlyNamedTestsInDifferentSuitesWorkD2Ev
     /tmp/cceRUkwO.s:11765  .rodata:0000000000001370 _ZTIN12_GLOBAL__N_157TestExceptionsInFixtureAreReportedAsHappeningInTheFixtureE
     /tmp/cceRUkwO.s:10784  .text:0000000000004766 _ZN12_GLOBAL__N_157TestExceptionsInFixtureAreReportedAsHappeningInTheFixtureD1Ev
     /tmp/cceRUkwO.s:10821  .text:00000000000047a0 _ZN12_GLOBAL__N_157TestExceptionsInFixtureAreReportedAsHappeningInTheFixtureD0Ev
     /tmp/cceRUkwO.s:10784  .text:0000000000004766 _ZN12_GLOBAL__N_157TestExceptionsInFixtureAreReportedAsHappeningInTheFixtureD2Ev
     /tmp/cceRUkwO.s:11758  .rodata:0000000000001350 _ZTIN12_GLOBAL__N_132TestThrowingThingieDummyTestNameE
     /tmp/cceRUkwO.s:10858  .text:00000000000047c6 _ZN12_GLOBAL__N_132TestThrowingThingieDummyTestNameD1Ev
     /tmp/cceRUkwO.s:10895  .text:0000000000004800 _ZN12_GLOBAL__N_132TestThrowingThingieDummyTestNameD0Ev
     /tmp/cceRUkwO.s:10858  .text:00000000000047c6 _ZN12_GLOBAL__N_132TestThrowingThingieDummyTestNameD2Ev
     /tmp/cceRUkwO.s:11751  .rodata:0000000000001330 _ZTIN12_GLOBAL__N_138TestTestsAreAddedToTheListThroughMacroE
     /tmp/cceRUkwO.s:10932  .text:0000000000004826 _ZN12_GLOBAL__N_138TestTestsAreAddedToTheListThroughMacroD1Ev
     /tmp/cceRUkwO.s:10969  .text:0000000000004860 _ZN12_GLOBAL__N_138TestTestsAreAddedToTheListThroughMacroD0Ev
     /tmp/cceRUkwO.s:10932  .text:0000000000004826 _ZN12_GLOBAL__N_138TestTestsAreAddedToTheListThroughMacroD2Ev
     /tmp/cceRUkwO.s:11744  .rodata:0000000000001310 _ZTIN12_GLOBAL__N_113TestDummyTestE
     /tmp/cceRUkwO.s:11006  .text:0000000000004886 _ZN12_GLOBAL__N_113TestDummyTestD1Ev
     /tmp/cceRUkwO.s:11043  .text:00000000000048c0 _ZN12_GLOBAL__N_113TestDummyTestD0Ev
     /tmp/cceRUkwO.s:11006  .text:0000000000004886 _ZN12_GLOBAL__N_113TestDummyTestD2Ev
     /tmp/cceRUkwO.s:11438  .rodata._ZTI17RecordingReporter:0000000000000000 _ZTI17RecordingReporter
     /tmp/cceRUkwO.s:11125  .text._ZN17RecordingReporterD0Ev:0000000000000000 _ZN17RecordingReporterD0Ev
     /tmp/cceRUkwO.s:11085  .text._ZN17RecordingReporterD2Ev:0000000000000000 _ZN17RecordingReporterD2Ev
     /tmp/cceRUkwO.s:11454  .rodata._ZTIN8UnitTest15MemoryOutStreamE:0000000000000000 _ZTIN8UnitTest15MemoryOutStreamE
     /tmp/cceRUkwO.s:11311  .text._ZN8UnitTest15MemoryOutStreamD0Ev:0000000000000000 _ZN8UnitTest15MemoryOutStreamD0Ev
     /tmp/cceRUkwO.s:11297  .text._ZN8UnitTest15MemoryOutStreamD1Ev:00000000000000c8 _ZTv0_n24_N8UnitTest15MemoryOutStreamD1Ev
     /tmp/cceRUkwO.s:11338  .text._ZN8UnitTest15MemoryOutStreamD0Ev:0000000000000026 _ZTv0_n24_N8UnitTest15MemoryOutStreamD0Ev
     /tmp/cceRUkwO.s:11366  .rodata._ZTCN8UnitTest15MemoryOutStreamE0_St19basic_ostringstreamIcSt11char_traitsIcESaIcEE:0000000000000000 _ZTCN8UnitTest15MemoryOutStreamE0_St19basic_ostringstreamIcSt11char_traitsIcESaIcEE
     /tmp/cceRUkwO.s:11383  .rodata._ZTCN8UnitTest15MemoryOutStreamE0_So:0000000000000000 _ZTCN8UnitTest15MemoryOutStreamE0_So
     /tmp/cceRUkwO.s:11408  .rodata._ZTS44TestCurrentTestDetailsContainCurrentTestInfo:0000000000000000 _ZTS44TestCurrentTestDetailsContainCurrentTestInfo
     /tmp/cceRUkwO.s:11424  .rodata._ZTSN18SuiteSameTestSuite14TestDummyTest1E:0000000000000000 _ZTSN18SuiteSameTestSuite14TestDummyTest1E
     /tmp/cceRUkwO.s:11431  .rodata._ZTS17RecordingReporter:0000000000000000 _ZTS17RecordingReporter
     /tmp/cceRUkwO.s:11447  .rodata._ZTSN8UnitTest15MemoryOutStreamE:0000000000000000 _ZTSN8UnitTest15MemoryOutStreamE
     /tmp/cceRUkwO.s:11460  .text:00000000000048e6 _Z41__static_initialization_and_destruction_0ii
     /tmp/cceRUkwO.s:11955  .rodata:0000000000001c60 _ZTSN12_GLOBAL__N_113TestDummyTestE
     /tmp/cceRUkwO.s:11950  .rodata:0000000000001c20 _ZTSN12_GLOBAL__N_138TestTestsAreAddedToTheListThroughMacroE
     /tmp/cceRUkwO.s:11945  .rodata:0000000000001be0 _ZTSN12_GLOBAL__N_132TestThrowingThingieDummyTestNameE
     /tmp/cceRUkwO.s:11940  .rodata:0000000000001b80 _ZTSN12_GLOBAL__N_157TestExceptionsInFixtureAreReportedAsHappeningInTheFixtureE
     /tmp/cceRUkwO.s:11935  .rodata:0000000000001b00 _ZTSN12_GLOBAL__N_115SuiteTestSuite144TestSimilarlyNamedTestsInDifferentSuitesWorkE
     /tmp/cceRUkwO.s:11930  .rodata:0000000000001a80 _ZTSN12_GLOBAL__N_115SuiteTestSuite163TestDummyFixtureSimilarlyNamedFixtureTestsInDifferentSuitesWorkE
     /tmp/cceRUkwO.s:11925  .rodata:0000000000001a00 _ZTSN12_GLOBAL__N_115SuiteTestSuite244TestSimilarlyNamedTestsInDifferentSuitesWorkE
     /tmp/cceRUkwO.s:11920  .rodata:0000000000001980 _ZTSN12_GLOBAL__N_115SuiteTestSuite263TestDummyFixtureSimilarlyNamedFixtureTestsInDifferentSuitesWorkE
     /tmp/cceRUkwO.s:11915  .rodata:0000000000001920 _ZTSN12_GLOBAL__N_120TestMacroTestHelper1E
     /tmp/cceRUkwO.s:11910  .rodata:00000000000018c0 _ZTSN12_GLOBAL__N_145TestTestAddedWithTEST_EXMacroGetsDefaultSuiteE
     /tmp/cceRUkwO.s:11905  .rodata:0000000000001860 _ZTSN12_GLOBAL__N_132TestDummyFixtureMacroTestHelper2E
     /tmp/cceRUkwO.s:11900  .rodata:0000000000001800 _ZTSN12_GLOBAL__N_153TestTestAddedWithTEST_FIXTURE_EXMacroGetsDefaultSuiteE
     /tmp/cceRUkwO.s:11895  .rodata:0000000000001780 _ZTSN12_GLOBAL__N_146TestFixtureCtorThrowsFixtureCtorThrowsTestNameE
     /tmp/cceRUkwO.s:11890  .rodata:0000000000001720 _ZTSN12_GLOBAL__N_140TestFixturesWithThrowingCtorsAreFailuresE
     /tmp/cceRUkwO.s:11885  .rodata:00000000000016c0 _ZTSN12_GLOBAL__N_146TestFixtureDtorThrowsFixtureDtorThrowsTestNameE
     /tmp/cceRUkwO.s:11880  .rodata:0000000000001660 _ZTSN12_GLOBAL__N_140TestFixturesWithThrowingDtorsAreFailuresE
     /tmp/cceRUkwO.s:11875  .rodata:0000000000001600 _ZTSN12_GLOBAL__N_157TestFixtureCtorAssertsCorrectlyReportsAssertFailureInCtorE
     /tmp/cceRUkwO.s:11870  .rodata:0000000000001580 _ZTSN12_GLOBAL__N_147TestCorrectlyReportsFixturesWithCtorsThatAssertE
     /tmp/cceRUkwO.s:11964  .text:0000000000004d62 _GLOBAL__sub_I__ZN18SuiteSameTestSuite22testDummyTest1InstanceE
     /tmp/cceRUkwO.s:11990  .rodata:0000000000001c88 _ZZL18__gthread_active_pvE20__gthread_active_ptr
                           .group:0000000000000000 _ZN8UnitTest12TestReporterC5Ev
                           .group:0000000000000000 _ZN17RecordingReporterC5Ev
                           .group:0000000000000000 _ZN17ScopedCurrentTestC5ERN8UnitTest11TestResultsEPKNS0_11TestDetailsE
                           .group:0000000000000000 _ZN17ScopedCurrentTestD5Ev
                           .group:0000000000000000 _ZN18SuiteSameTestSuite14TestDummyTest1C5Ev
                           .group:0000000000000000 _ZN44TestCurrentTestDetailsContainCurrentTestInfoC5Ev
                           .group:0000000000000000 _ZN44TestCurrentTestDetailsContainCurrentTestInfoD5Ev
                           .group:0000000000000000 _ZN18SuiteSameTestSuite14TestDummyTest1D5Ev
                           .group:0000000000000000 _ZN17RecordingReporterD5Ev

UNDEFINED SYMBOLS
__gxx_personality_v0
_ZNSt9basic_iosIcSt11char_traitsIcEEC2Ev
_ZNSt19basic_ostringstreamIcSt11char_traitsIcESaIcEEC2ESt13_Ios_Openmode
_ZNSsC1Ev
_ZNSt19basic_ostringstreamIcSt11char_traitsIcESaIcEED2Ev
_ZNSt9basic_iosIcSt11char_traitsIcEED2Ev
_Unwind_Resume
_ZTVN8UnitTest12TestReporterE
strcpy
_ZN8UnitTest11CurrentTest7ResultsEv
_ZN8UnitTest11CurrentTest7DetailsEv
_ZN8UnitTest4TestC2EPKcS2_S2_i
_ZNK8UnitTest8TestList7GetHeadEv
_ZN8UnitTest11TestDetailsC1ERKS0_i
_ZN8UnitTest11TestResults13OnTestFailureERKNS_11TestDetailsEPKc
__cxa_end_catch
__cxa_begin_catch
__stack_chk_fail
__cxa_allocate_exception
_ZTIPKc
__cxa_throw
_ZNK8UnitTest15AssertException10LineNumberEv
_ZNK8UnitTest15AssertException8FilenameEv
_ZN8UnitTest11TestDetailsC1EPKcS2_S2_i
_ZStlsISt11char_traitsIcEERSt13basic_ostreamIcT_ES5_PKc
_ZNK8UnitTest15MemoryOutStream7GetTextEv
_ZTISt9exception
_ZTIN8UnitTest15AssertExceptionE
_ZN8UnitTest11TestResultsC1EPNS_12TestReporterE
_ZN8UnitTest4Test3RunEv
strstr
_ZN8UnitTest10CheckEqualERNS_11TestResultsEPKcS3_RKNS_11TestDetailsE
_ZNK8UnitTest11TestResults18GetFailedTestCountEv
_ZN8UnitTest12ReportAssertEPKcS1_i
_ZN8UnitTest16SignalTranslatorC1Ev
_ZN8UnitTest16SignalTranslator12s_jumpTargetE
__sigsetjmp
_ZN8UnitTest16SignalTranslatorD1Ev
_ZNSolsEi
_ZN8UnitTest4TestD2Ev
_ZdlPv
_ZN8UnitTest12TestReporterD2Ev
_ZNSsD1Ev
_ZTISt19basic_ostringstreamIcSt11char_traitsIcESaIcEE
_ZTISo
_ZTVN10__cxxabiv120__si_class_type_infoE
_ZTIN8UnitTest4TestE
_ZTIN8UnitTest12TestReporterE
_ZN8UnitTest8TestListC1Ev
__dso_handle
__cxa_atexit
_ZN8UnitTest9ListAdderC1ERNS_8TestListEPNS_4TestE
_ZN8UnitTest4Test11GetTestListEv
__pthread_key_create
