   1              		.file	"TestDeferredTestReporter.cpp"
   2              		.text
   3              	.Ltext0:
   4              		.section	.rodata
   5              	.LC0:
   6 0000 44656661 		.string	"DefaultSuite"
   6      756C7453 
   6      75697465 
   6      00
   7              		.section	.text._ZN13UnitTestSuite12GetSuiteNameEv,"axG",@progbits,_ZN13UnitTestSuite12GetSuiteName
   8              		.weak	_ZN13UnitTestSuite12GetSuiteNameEv
  10              	_ZN13UnitTestSuite12GetSuiteNameEv:
  11              	.LFB0:
  12              		.file 1 "../TestSuite.h"
   1:../TestSuite.h **** #ifndef UNITTEST_TESTSUITE_H
   2:../TestSuite.h **** #define UNITTEST_TESTSUITE_H
   3:../TestSuite.h **** 
   4:../TestSuite.h **** namespace UnitTestSuite {
   5:../TestSuite.h **** 
   6:../TestSuite.h ****     inline char const* GetSuiteName ()
   7:../TestSuite.h ****     {
  13              		.loc 1 7 0
  14              		.cfi_startproc
  15 0000 55       		pushq	%rbp
  16              		.cfi_def_cfa_offset 16
  17              		.cfi_offset 6, -16
  18 0001 4889E5   		movq	%rsp, %rbp
  19              		.cfi_def_cfa_register 6
   8:../TestSuite.h ****         return "DefaultSuite";
  20              		.loc 1 8 0
  21 0004 B8000000 		movl	$.LC0, %eax
  21      00
   9:../TestSuite.h ****     }
  22              		.loc 1 9 0
  23 0009 5D       		popq	%rbp
  24              		.cfi_def_cfa 7, 8
  25 000a C3       		ret
  26              		.cfi_endproc
  27              	.LFE0:
  29              		.section	.text._ZN8UnitTest15MemoryOutStreamC1Ev,"axG",@progbits,_ZN8UnitTest15MemoryOutStreamC1Ev
  30              		.align 2
  31              		.weak	_ZN8UnitTest15MemoryOutStreamC1Ev
  33              	_ZN8UnitTest15MemoryOutStreamC1Ev:
  34              	.LFB1053:
  35              		.file 2 "../MemoryOutStream.h"
   1:../MemoryOutStream.h **** #ifndef UNITTEST_MEMORYOUTSTREAM_H
   2:../MemoryOutStream.h **** #define UNITTEST_MEMORYOUTSTREAM_H
   3:../MemoryOutStream.h **** 
   4:../MemoryOutStream.h **** #include "Config.h"
   5:../MemoryOutStream.h **** 
   6:../MemoryOutStream.h **** #ifndef UNITTEST_USE_CUSTOM_STREAMS
   7:../MemoryOutStream.h **** 
   8:../MemoryOutStream.h **** #include <sstream>
   9:../MemoryOutStream.h **** 
  10:../MemoryOutStream.h **** namespace UnitTest
  11:../MemoryOutStream.h **** {
  12:../MemoryOutStream.h **** 
  13:../MemoryOutStream.h **** class MemoryOutStream : public std::ostringstream
  14:../MemoryOutStream.h **** {
  15:../MemoryOutStream.h **** public:
  16:../MemoryOutStream.h ****     MemoryOutStream() {}
  36              		.loc 2 16 0
  37              		.cfi_startproc
  38              		.cfi_personality 0x3,__gxx_personality_v0
  39              		.cfi_lsda 0x3,.LLSDA1053
  40 0000 55       		pushq	%rbp
  41              		.cfi_def_cfa_offset 16
  42              		.cfi_offset 6, -16
  43 0001 4889E5   		movq	%rsp, %rbp
  44              		.cfi_def_cfa_register 6
  45 0004 53       		pushq	%rbx
  46 0005 4883EC18 		subq	$24, %rsp
  47              		.cfi_offset 3, -24
  48 0009 48897DE8 		movq	%rdi, -24(%rbp)
  49              	.LBB2:
  50              		.loc 2 16 0
  51 000d 488B45E8 		movq	-24(%rbp), %rax
  52 0011 4883C060 		addq	$96, %rax
  53 0015 4889C7   		movq	%rax, %rdi
  54              	.LEHB0:
  55 0018 E8000000 		call	_ZNSt9basic_iosIcSt11char_traitsIcEEC2Ev
  55      00
  56              	.LEHE0:
  57 001d B9000000 		movl	$_ZTTN8UnitTest15MemoryOutStreamE+8, %ecx
  57      00
  58 0022 488B45E8 		movq	-24(%rbp), %rax
  59 0026 BA100000 		movl	$16, %edx
  59      00
  60 002b 4889CE   		movq	%rcx, %rsi
  61 002e 4889C7   		movq	%rax, %rdi
  62              	.LEHB1:
  63 0031 E8000000 		call	_ZNSt19basic_ostringstreamIcSt11char_traitsIcESaIcEEC2ESt13_Ios_Openmode
  63      00
  64              	.LEHE1:
  65              		.loc 2 16 0 is_stmt 0 discriminator 9
  66 0036 BA000000 		movl	$_ZTVN8UnitTest15MemoryOutStreamE+24, %edx
  66      00
  67 003b 488B45E8 		movq	-24(%rbp), %rax
  68 003f 488910   		movq	%rdx, (%rax)
  69 0042 BA600000 		movl	$96, %edx
  69      00
  70 0047 488B45E8 		movq	-24(%rbp), %rax
  71 004b 4801D0   		addq	%rdx, %rax
  72 004e BA000000 		movl	$_ZTVN8UnitTest15MemoryOutStreamE+64, %edx
  72      00
  73 0053 488910   		movq	%rdx, (%rax)
  74 0056 488B45E8 		movq	-24(%rbp), %rax
  75 005a 4883C058 		addq	$88, %rax
  76 005e 4889C7   		movq	%rax, %rdi
  77              	.LEHB2:
  78 0061 E8000000 		call	_ZNSsC1Ev
  78      00
  79              	.LEHE2:
  80              	.LBE2:
  81              		.loc 2 16 0
  82 0066 EB37     		jmp	.L8
  83              	.L6:
  84 0068 4889C3   		movq	%rax, %rbx
  85              	.LBB3:
  86 006b BA000000 		movl	$_ZTTN8UnitTest15MemoryOutStreamE+8, %edx
  86      00
  87 0070 488B45E8 		movq	-24(%rbp), %rax
  88 0074 4889D6   		movq	%rdx, %rsi
  89 0077 4889C7   		movq	%rax, %rdi
  90 007a E8000000 		call	_ZNSt19basic_ostringstreamIcSt11char_traitsIcESaIcEED2Ev
  90      00
  91 007f EB03     		jmp	.L5
  92              	.L7:
  93 0081 4889C3   		movq	%rax, %rbx
  94              	.L5:
  95              		.loc 2 16 0 discriminator 28
  96 0084 488B45E8 		movq	-24(%rbp), %rax
  97 0088 4883C060 		addq	$96, %rax
  98 008c 4889C7   		movq	%rax, %rdi
  99 008f E8000000 		call	_ZNSt9basic_iosIcSt11char_traitsIcEED2Ev
  99      00
 100 0094 4889D8   		movq	%rbx, %rax
 101 0097 4889C7   		movq	%rax, %rdi
 102              	.LEHB3:
 103 009a E8000000 		call	_Unwind_Resume
 103      00
 104              	.LEHE3:
 105              	.L8:
 106              	.LBE3:
 107              		.loc 2 16 0
 108 009f 4883C418 		addq	$24, %rsp
 109 00a3 5B       		popq	%rbx
 110 00a4 5D       		popq	%rbp
 111              		.cfi_def_cfa 7, 8
 112 00a5 C3       		ret
 113              		.cfi_endproc
 114              	.LFE1053:
 115              		.globl	__gxx_personality_v0
 116              		.section	.gcc_except_table._ZN8UnitTest15MemoryOutStreamC1Ev,"aG",@progbits,_ZN8UnitTest15MemoryOu
 117              	.LLSDA1053:
 118 0000 FF       		.byte	0xff
 119 0001 FF       		.byte	0xff
 120 0002 01       		.byte	0x1
 121 0003 12       		.uleb128 .LLSDACSE1053-.LLSDACSB1053
 122              	.LLSDACSB1053:
 123 0004 18       		.uleb128 .LEHB0-.LFB1053
 124 0005 05       		.uleb128 .LEHE0-.LEHB0
 125 0006 00       		.uleb128 0
 126 0007 00       		.uleb128 0
 127 0008 31       		.uleb128 .LEHB1-.LFB1053
 128 0009 05       		.uleb128 .LEHE1-.LEHB1
 129 000a 8101     		.uleb128 .L7-.LFB1053
 130 000c 00       		.uleb128 0
 131 000d 61       		.uleb128 .LEHB2-.LFB1053
 132 000e 05       		.uleb128 .LEHE2-.LEHB2
 133 000f 68       		.uleb128 .L6-.LFB1053
 134 0010 00       		.uleb128 0
 135 0011 9A01     		.uleb128 .LEHB3-.LFB1053
 136 0013 05       		.uleb128 .LEHE3-.LEHB3
 137 0014 00       		.uleb128 0
 138 0015 00       		.uleb128 0
 139              	.LLSDACSE1053:
 140              		.section	.text._ZN8UnitTest15MemoryOutStreamC1Ev,"axG",@progbits,_ZN8UnitTest15MemoryOutStreamC1Ev
 142              		.text
 143              		.align 2
 145              	_ZN8UnitTest12_GLOBAL__N_124MockDeferredTestReporter13ReportSummaryEiiif:
 146              	.LFB1333:
 147              		.file 3 "TestDeferredTestReporter.cpp"
   1:TestDeferredTestReporter.cpp **** #include "../UnitTest++.h"
   2:TestDeferredTestReporter.cpp **** #include "../DeferredTestReporter.h"
   3:TestDeferredTestReporter.cpp **** #include "../Config.h"
   4:TestDeferredTestReporter.cpp **** #include <cstring>
   5:TestDeferredTestReporter.cpp **** 
   6:TestDeferredTestReporter.cpp **** namespace UnitTest
   7:TestDeferredTestReporter.cpp **** {
   8:TestDeferredTestReporter.cpp **** 
   9:TestDeferredTestReporter.cpp **** namespace 
  10:TestDeferredTestReporter.cpp **** {
  11:TestDeferredTestReporter.cpp **** 
  12:TestDeferredTestReporter.cpp **** #ifdef UNITTEST_USE_CUSTOM_STREAMS
  13:TestDeferredTestReporter.cpp **** 	MemoryOutStream& operator <<(MemoryOutStream& lhs, const std::string& rhs)
  14:TestDeferredTestReporter.cpp **** 	{
  15:TestDeferredTestReporter.cpp **** 		lhs << rhs.c_str();
  16:TestDeferredTestReporter.cpp **** 		return lhs;
  17:TestDeferredTestReporter.cpp **** 	}
  18:TestDeferredTestReporter.cpp **** #endif
  19:TestDeferredTestReporter.cpp **** 
  20:TestDeferredTestReporter.cpp **** struct MockDeferredTestReporter : public DeferredTestReporter
  21:TestDeferredTestReporter.cpp **** {
  22:TestDeferredTestReporter.cpp ****     virtual void ReportSummary(int, int, int, float) 
 148              		.loc 3 22 0 is_stmt 1
 149              		.cfi_startproc
 150 0000 55       		pushq	%rbp
 151              		.cfi_def_cfa_offset 16
 152              		.cfi_offset 6, -16
 153 0001 4889E5   		movq	%rsp, %rbp
 154              		.cfi_def_cfa_register 6
 155 0004 48897DF8 		movq	%rdi, -8(%rbp)
 156 0008 8975F4   		movl	%esi, -12(%rbp)
 157 000b 8955F0   		movl	%edx, -16(%rbp)
 158 000e 894DEC   		movl	%ecx, -20(%rbp)
 159 0011 F30F1145 		movss	%xmm0, -24(%rbp)
 159      E8
  23:TestDeferredTestReporter.cpp ****     {
  24:TestDeferredTestReporter.cpp ****     }
 160              		.loc 3 24 0
 161 0016 5D       		popq	%rbp
 162              		.cfi_def_cfa 7, 8
 163 0017 C3       		ret
 164              		.cfi_endproc
 165              	.LFE1333:
 167              		.section	.text._ZN8UnitTest12TestReporterC2Ev,"axG",@progbits,_ZN8UnitTest12TestReporterC5Ev,comda
 168              		.align 2
 169              		.weak	_ZN8UnitTest12TestReporterC2Ev
 171              	_ZN8UnitTest12TestReporterC2Ev:
 172              	.LFB1338:
 173              		.file 4 "../TestReporter.h"
   1:../TestReporter.h **** #ifndef UNITTEST_TESTREPORTER_H
   2:../TestReporter.h **** #define UNITTEST_TESTREPORTER_H
   3:../TestReporter.h **** 
   4:../TestReporter.h **** namespace UnitTest {
   5:../TestReporter.h **** 
   6:../TestReporter.h **** class TestDetails;
   7:../TestReporter.h **** 
   8:../TestReporter.h **** class TestReporter
 174              		.loc 4 8 0
 175              		.cfi_startproc
 176 0000 55       		pushq	%rbp
 177              		.cfi_def_cfa_offset 16
 178              		.cfi_offset 6, -16
 179 0001 4889E5   		movq	%rsp, %rbp
 180              		.cfi_def_cfa_register 6
 181 0004 48897DF8 		movq	%rdi, -8(%rbp)
 182              	.LBB4:
 183              		.loc 4 8 0
 184 0008 488B45F8 		movq	-8(%rbp), %rax
 185 000c 48C70000 		movq	$_ZTVN8UnitTest12TestReporterE+16, (%rax)
 185      000000
 186              	.LBE4:
 187 0013 5D       		popq	%rbp
 188              		.cfi_def_cfa 7, 8
 189 0014 C3       		ret
 190              		.cfi_endproc
 191              	.LFE1338:
 193              		.weak	_ZN8UnitTest12TestReporterC1Ev
 194              		.set	_ZN8UnitTest12TestReporterC1Ev,_ZN8UnitTest12TestReporterC2Ev
 195              		.section	.text._ZN8UnitTest20DeferredTestReporterC2Ev,"axG",@progbits,_ZN8UnitTest20DeferredTestRe
 196              		.align 2
 197              		.weak	_ZN8UnitTest20DeferredTestReporterC2Ev
 199              	_ZN8UnitTest20DeferredTestReporterC2Ev:
 200              	.LFB1340:
 201              		.file 5 "../DeferredTestReporter.h"
   1:../DeferredTestReporter.h **** #ifndef UNITTEST_DEFERREDTESTREPORTER_H
   2:../DeferredTestReporter.h **** #define UNITTEST_DEFERREDTESTREPORTER_H
   3:../DeferredTestReporter.h **** 
   4:../DeferredTestReporter.h **** #include "TestReporter.h"
   5:../DeferredTestReporter.h **** #include "DeferredTestResult.h"
   6:../DeferredTestReporter.h **** 
   7:../DeferredTestReporter.h **** #include <vector>
   8:../DeferredTestReporter.h **** 
   9:../DeferredTestReporter.h **** namespace UnitTest
  10:../DeferredTestReporter.h **** {
  11:../DeferredTestReporter.h **** 
  12:../DeferredTestReporter.h **** class DeferredTestReporter : public TestReporter
 202              		.loc 5 12 0
 203              		.cfi_startproc
 204              		.cfi_personality 0x3,__gxx_personality_v0
 205              		.cfi_lsda 0x3,.LLSDA1340
 206 0000 55       		pushq	%rbp
 207              		.cfi_def_cfa_offset 16
 208              		.cfi_offset 6, -16
 209 0001 4889E5   		movq	%rsp, %rbp
 210              		.cfi_def_cfa_register 6
 211 0004 53       		pushq	%rbx
 212 0005 4883EC18 		subq	$24, %rsp
 213              		.cfi_offset 3, -24
 214 0009 48897DE8 		movq	%rdi, -24(%rbp)
 215              	.LBB5:
 216              		.loc 5 12 0
 217 000d 488B45E8 		movq	-24(%rbp), %rax
 218 0011 4889C7   		movq	%rax, %rdi
 219 0014 E8000000 		call	_ZN8UnitTest12TestReporterC2Ev
 219      00
 220 0019 488B45E8 		movq	-24(%rbp), %rax
 221 001d 48C70000 		movq	$_ZTVN8UnitTest20DeferredTestReporterE+16, (%rax)
 221      000000
 222 0024 488B45E8 		movq	-24(%rbp), %rax
 223 0028 4883C008 		addq	$8, %rax
 224 002c 4889C7   		movq	%rax, %rdi
 225              	.LEHB4:
 226 002f E8000000 		call	_ZNSt6vectorIN8UnitTest18DeferredTestResultESaIS1_EEC1Ev
 226      00
 227              	.LEHE4:
 228              	.LBE5:
 229 0034 EB1A     		jmp	.L14
 230              	.L13:
 231 0036 4889C3   		movq	%rax, %rbx
 232              	.LBB6:
 233 0039 488B45E8 		movq	-24(%rbp), %rax
 234 003d 4889C7   		movq	%rax, %rdi
 235 0040 E8000000 		call	_ZN8UnitTest12TestReporterD2Ev
 235      00
 236 0045 4889D8   		movq	%rbx, %rax
 237 0048 4889C7   		movq	%rax, %rdi
 238              	.LEHB5:
 239 004b E8000000 		call	_Unwind_Resume
 239      00
 240              	.LEHE5:
 241              	.L14:
 242              	.LBE6:
 243 0050 4883C418 		addq	$24, %rsp
 244 0054 5B       		popq	%rbx
 245 0055 5D       		popq	%rbp
 246              		.cfi_def_cfa 7, 8
 247 0056 C3       		ret
 248              		.cfi_endproc
 249              	.LFE1340:
 250              		.section	.gcc_except_table._ZN8UnitTest20DeferredTestReporterC2Ev,"aG",@progbits,_ZN8UnitTest20Def
 251              	.LLSDA1340:
 252 0000 FF       		.byte	0xff
 253 0001 FF       		.byte	0xff
 254 0002 01       		.byte	0x1
 255 0003 08       		.uleb128 .LLSDACSE1340-.LLSDACSB1340
 256              	.LLSDACSB1340:
 257 0004 2F       		.uleb128 .LEHB4-.LFB1340
 258 0005 05       		.uleb128 .LEHE4-.LEHB4
 259 0006 36       		.uleb128 .L13-.LFB1340
 260 0007 00       		.uleb128 0
 261 0008 4B       		.uleb128 .LEHB5-.LFB1340
 262 0009 05       		.uleb128 .LEHE5-.LEHB5
 263 000a 00       		.uleb128 0
 264 000b 00       		.uleb128 0
 265              	.LLSDACSE1340:
 266              		.section	.text._ZN8UnitTest20DeferredTestReporterC2Ev,"axG",@progbits,_ZN8UnitTest20DeferredTestRe
 268              		.weak	_ZN8UnitTest20DeferredTestReporterC1Ev
 269              		.set	_ZN8UnitTest20DeferredTestReporterC1Ev,_ZN8UnitTest20DeferredTestReporterC2Ev
 270              		.section	.text._ZN8UnitTest20DeferredTestReporterD2Ev,"axG",@progbits,_ZN8UnitTest20DeferredTestRe
 271              		.align 2
 272              		.weak	_ZN8UnitTest20DeferredTestReporterD2Ev
 274              	_ZN8UnitTest20DeferredTestReporterD2Ev:
 275              	.LFB1343:
 276              		.loc 5 12 0
 277              		.cfi_startproc
 278              		.cfi_personality 0x3,__gxx_personality_v0
 279              		.cfi_lsda 0x3,.LLSDA1343
 280 0000 55       		pushq	%rbp
 281              		.cfi_def_cfa_offset 16
 282              		.cfi_offset 6, -16
 283 0001 4889E5   		movq	%rsp, %rbp
 284              		.cfi_def_cfa_register 6
 285 0004 53       		pushq	%rbx
 286 0005 4883EC18 		subq	$24, %rsp
 287              		.cfi_offset 3, -24
 288 0009 48897DE8 		movq	%rdi, -24(%rbp)
 289              	.LBB7:
 290              		.loc 5 12 0
 291 000d 488B45E8 		movq	-24(%rbp), %rax
 292 0011 48C70000 		movq	$_ZTVN8UnitTest20DeferredTestReporterE+16, (%rax)
 292      000000
 293 0018 488B45E8 		movq	-24(%rbp), %rax
 294 001c 4883C008 		addq	$8, %rax
 295 0020 4889C7   		movq	%rax, %rdi
 296              	.LEHB6:
 297 0023 E8000000 		call	_ZNSt6vectorIN8UnitTest18DeferredTestResultESaIS1_EED1Ev
 297      00
 298              	.LEHE6:
 299              		.loc 5 12 0 is_stmt 0 discriminator 2
 300 0028 488B45E8 		movq	-24(%rbp), %rax
 301 002c 4889C7   		movq	%rax, %rdi
 302              	.LEHB7:
 303 002f E8000000 		call	_ZN8UnitTest12TestReporterD2Ev
 303      00
 304              	.LEHE7:
 305              	.LBE7:
 306 0034 B8000000 		movl	$0, %eax
 306      00
 307 0039 85C0     		testl	%eax, %eax
 308 003b 7428     		je	.L20
 309              		.loc 5 12 0 discriminator 6
 310 003d 488B45E8 		movq	-24(%rbp), %rax
 311 0041 4889C7   		movq	%rax, %rdi
 312 0044 E8000000 		call	_ZdlPv
 312      00
 313 0049 EB1A     		jmp	.L20
 314              	.L19:
 315 004b 4889C3   		movq	%rax, %rbx
 316              	.LBB8:
 317              		.loc 5 12 0
 318 004e 488B45E8 		movq	-24(%rbp), %rax
 319 0052 4889C7   		movq	%rax, %rdi
 320 0055 E8000000 		call	_ZN8UnitTest12TestReporterD2Ev
 320      00
 321 005a 4889D8   		movq	%rbx, %rax
 322 005d 4889C7   		movq	%rax, %rdi
 323              	.LEHB8:
 324 0060 E8000000 		call	_Unwind_Resume
 324      00
 325              	.LEHE8:
 326              	.L20:
 327              	.LBE8:
 328 0065 4883C418 		addq	$24, %rsp
 329 0069 5B       		popq	%rbx
 330 006a 5D       		popq	%rbp
 331              		.cfi_def_cfa 7, 8
 332 006b C3       		ret
 333              		.cfi_endproc
 334              	.LFE1343:
 335              		.section	.gcc_except_table._ZN8UnitTest20DeferredTestReporterD2Ev,"aG",@progbits,_ZN8UnitTest20Def
 336              	.LLSDA1343:
 337 0000 FF       		.byte	0xff
 338 0001 FF       		.byte	0xff
 339 0002 01       		.byte	0x1
 340 0003 0C       		.uleb128 .LLSDACSE1343-.LLSDACSB1343
 341              	.LLSDACSB1343:
 342 0004 23       		.uleb128 .LEHB6-.LFB1343
 343 0005 05       		.uleb128 .LEHE6-.LEHB6
 344 0006 4B       		.uleb128 .L19-.LFB1343
 345 0007 00       		.uleb128 0
 346 0008 2F       		.uleb128 .LEHB7-.LFB1343
 347 0009 05       		.uleb128 .LEHE7-.LEHB7
 348 000a 00       		.uleb128 0
 349 000b 00       		.uleb128 0
 350 000c 60       		.uleb128 .LEHB8-.LFB1343
 351 000d 05       		.uleb128 .LEHE8-.LEHB8
 352 000e 00       		.uleb128 0
 353 000f 00       		.uleb128 0
 354              	.LLSDACSE1343:
 355              		.section	.text._ZN8UnitTest20DeferredTestReporterD2Ev,"axG",@progbits,_ZN8UnitTest20DeferredTestRe
 357              		.weak	_ZN8UnitTest20DeferredTestReporterD1Ev
 358              		.set	_ZN8UnitTest20DeferredTestReporterD1Ev,_ZN8UnitTest20DeferredTestReporterD2Ev
 359              		.section	.text._ZN8UnitTest20DeferredTestReporterD0Ev,"axG",@progbits,_ZN8UnitTest20DeferredTestRe
 360              		.align 2
 361              		.weak	_ZN8UnitTest20DeferredTestReporterD0Ev
 363              	_ZN8UnitTest20DeferredTestReporterD0Ev:
 364              	.LFB1345:
 365              		.loc 5 12 0 is_stmt 1
 366              		.cfi_startproc
 367 0000 55       		pushq	%rbp
 368              		.cfi_def_cfa_offset 16
 369              		.cfi_offset 6, -16
 370 0001 4889E5   		movq	%rsp, %rbp
 371              		.cfi_def_cfa_register 6
 372 0004 4883EC10 		subq	$16, %rsp
 373 0008 48897DF8 		movq	%rdi, -8(%rbp)
 374              		.loc 5 12 0
 375 000c 488B45F8 		movq	-8(%rbp), %rax
 376 0010 4889C7   		movq	%rax, %rdi
 377 0013 E8000000 		call	_ZN8UnitTest20DeferredTestReporterD1Ev
 377      00
 378 0018 488B45F8 		movq	-8(%rbp), %rax
 379 001c 4889C7   		movq	%rax, %rdi
 380 001f E8000000 		call	_ZdlPv
 380      00
 381 0024 C9       		leave
 382              		.cfi_def_cfa 7, 8
 383 0025 C3       		ret
 384              		.cfi_endproc
 385              	.LFE1345:
 387              		.text
 388              		.align 2
 390              	_ZN8UnitTest12_GLOBAL__N_124MockDeferredTestReporterC2Ev:
 391              	.LFB1346:
  20:TestDeferredTestReporter.cpp **** {
 392              		.loc 3 20 0
 393              		.cfi_startproc
 394 0018 55       		pushq	%rbp
 395              		.cfi_def_cfa_offset 16
 396              		.cfi_offset 6, -16
 397 0019 4889E5   		movq	%rsp, %rbp
 398              		.cfi_def_cfa_register 6
 399 001c 4883EC10 		subq	$16, %rsp
 400 0020 48897DF8 		movq	%rdi, -8(%rbp)
 401              	.LBB9:
  20:TestDeferredTestReporter.cpp **** {
 402              		.loc 3 20 0
 403 0024 488B45F8 		movq	-8(%rbp), %rax
 404 0028 4889C7   		movq	%rax, %rdi
 405 002b E8000000 		call	_ZN8UnitTest20DeferredTestReporterC2Ev
 405      00
 406 0030 488B45F8 		movq	-8(%rbp), %rax
 407 0034 48C70000 		movq	$_ZTVN8UnitTest12_GLOBAL__N_124MockDeferredTestReporterE+16, (%rax)
 407      000000
 408              	.LBE9:
 409 003b C9       		leave
 410              		.cfi_def_cfa 7, 8
 411 003c C3       		ret
 412              		.cfi_endproc
 413              	.LFE1346:
 415              		.section	.rodata
 416              	.LC1:
 417 000d 556E6971 		.string	"UniqueTestName"
 417      75655465 
 417      73744E61 
 417      6D6500
 418              	.LC2:
 419 001c 556E6971 		.string	"UniqueTestSuite"
 419      75655465 
 419      73745375 
 419      69746500 
 420              	.LC3:
 421 002c 66696C65 		.string	"filename.h"
 421      6E616D65 
 421      2E6800
 422              		.text
 423 003d 90       		.align 2
 425              	_ZN8UnitTest12_GLOBAL__N_127DeferredTestReporterFixtureC2Ev:
 426              	.LFB1348:
  25:TestDeferredTestReporter.cpp **** };
  26:TestDeferredTestReporter.cpp **** 
  27:TestDeferredTestReporter.cpp **** struct DeferredTestReporterFixture
  28:TestDeferredTestReporter.cpp **** {
  29:TestDeferredTestReporter.cpp ****     DeferredTestReporterFixture()
 427              		.loc 3 29 0
 428              		.cfi_startproc
 429              		.cfi_personality 0x3,__gxx_personality_v0
 430              		.cfi_lsda 0x3,.LLSDA1348
 431 003e 55       		pushq	%rbp
 432              		.cfi_def_cfa_offset 16
 433              		.cfi_offset 6, -16
 434 003f 4889E5   		movq	%rsp, %rbp
 435              		.cfi_def_cfa_register 6
 436 0042 4155     		pushq	%r13
 437 0044 4154     		pushq	%r12
 438 0046 53       		pushq	%rbx
 439 0047 4883EC28 		subq	$40, %rsp
 440              		.cfi_offset 13, -24
 441              		.cfi_offset 12, -32
 442              		.cfi_offset 3, -40
 443 004b 48897DC8 		movq	%rdi, -56(%rbp)
 444              		.loc 3 29 0
 445 004f 64488B04 		movq	%fs:40, %rax
 445      25280000 
 445      00
 446 0058 488945D8 		movq	%rax, -40(%rbp)
 447 005c 31C0     		xorl	%eax, %eax
 448              	.LBB10:
  30:TestDeferredTestReporter.cpp ****         : testName("UniqueTestName")
  31:TestDeferredTestReporter.cpp ****         , testSuite("UniqueTestSuite")
  32:TestDeferredTestReporter.cpp ****         , fileName("filename.h")
  33:TestDeferredTestReporter.cpp ****         , lineNumber(12)
  34:TestDeferredTestReporter.cpp ****         , details(testName.c_str(), testSuite.c_str(), fileName.c_str(), lineNumber)
 449              		.loc 3 34 0
 450 005e 488B45C8 		movq	-56(%rbp), %rax
 451 0062 4889C7   		movq	%rax, %rdi
 452              	.LEHB9:
 453 0065 E8AEFFFF 		call	_ZN8UnitTest12_GLOBAL__N_124MockDeferredTestReporterC2Ev
 453      FF
 454              	.LEHE9:
 455 006a 488D45D7 		leaq	-41(%rbp), %rax
 456 006e 4889C7   		movq	%rax, %rdi
 457 0071 E8000000 		call	_ZNSaIcEC1Ev
 457      00
 458 0076 488B45C8 		movq	-56(%rbp), %rax
 459 007a 488D4820 		leaq	32(%rax), %rcx
 460 007e 488D45D7 		leaq	-41(%rbp), %rax
 461 0082 4889C2   		movq	%rax, %rdx
 462 0085 BE000000 		movl	$.LC1, %esi
 462      00
 463 008a 4889CF   		movq	%rcx, %rdi
 464              	.LEHB10:
 465 008d E8000000 		call	_ZNSsC1EPKcRKSaIcE
 465      00
 466              	.LEHE10:
 467              		.loc 3 34 0 is_stmt 0 discriminator 2
 468 0092 488D45D7 		leaq	-41(%rbp), %rax
 469 0096 4889C7   		movq	%rax, %rdi
 470 0099 E8000000 		call	_ZNSaIcED1Ev
 470      00
 471 009e 488D45D7 		leaq	-41(%rbp), %rax
 472 00a2 4889C7   		movq	%rax, %rdi
 473 00a5 E8000000 		call	_ZNSaIcEC1Ev
 473      00
 474 00aa 488B45C8 		movq	-56(%rbp), %rax
 475 00ae 488D4828 		leaq	40(%rax), %rcx
 476 00b2 488D45D7 		leaq	-41(%rbp), %rax
 477 00b6 4889C2   		movq	%rax, %rdx
 478 00b9 BE000000 		movl	$.LC2, %esi
 478      00
 479 00be 4889CF   		movq	%rcx, %rdi
 480              	.LEHB11:
 481 00c1 E8000000 		call	_ZNSsC1EPKcRKSaIcE
 481      00
 482              	.LEHE11:
 483              		.loc 3 34 0 discriminator 4
 484 00c6 488D45D7 		leaq	-41(%rbp), %rax
 485 00ca 4889C7   		movq	%rax, %rdi
 486 00cd E8000000 		call	_ZNSaIcED1Ev
 486      00
 487 00d2 488D45D7 		leaq	-41(%rbp), %rax
 488 00d6 4889C7   		movq	%rax, %rdi
 489 00d9 E8000000 		call	_ZNSaIcEC1Ev
 489      00
 490 00de 488B45C8 		movq	-56(%rbp), %rax
 491 00e2 488D4830 		leaq	48(%rax), %rcx
 492 00e6 488D45D7 		leaq	-41(%rbp), %rax
 493 00ea 4889C2   		movq	%rax, %rdx
 494 00ed BE000000 		movl	$.LC3, %esi
 494      00
 495 00f2 4889CF   		movq	%rcx, %rdi
 496              	.LEHB12:
 497 00f5 E8000000 		call	_ZNSsC1EPKcRKSaIcE
 497      00
 498              	.LEHE12:
 499              		.loc 3 34 0 discriminator 6
 500 00fa 488D45D7 		leaq	-41(%rbp), %rax
 501 00fe 4889C7   		movq	%rax, %rdi
 502 0101 E8000000 		call	_ZNSaIcED1Ev
 502      00
 503 0106 488B45C8 		movq	-56(%rbp), %rax
 504 010a C740380C 		movl	$12, 56(%rax)
 504      000000
 505 0111 488B45C8 		movq	-56(%rbp), %rax
 506 0115 8B5838   		movl	56(%rax), %ebx
 507 0118 488B45C8 		movq	-56(%rbp), %rax
 508 011c 4883C030 		addq	$48, %rax
 509 0120 4889C7   		movq	%rax, %rdi
 510              	.LEHB13:
 511 0123 E8000000 		call	_ZNKSs5c_strEv
 511      00
 512 0128 4989C5   		movq	%rax, %r13
 513 012b 488B45C8 		movq	-56(%rbp), %rax
 514 012f 4883C028 		addq	$40, %rax
 515 0133 4889C7   		movq	%rax, %rdi
 516 0136 E8000000 		call	_ZNKSs5c_strEv
 516      00
 517              		.loc 3 34 0 discriminator 8
 518 013b 4989C4   		movq	%rax, %r12
 519 013e 488B45C8 		movq	-56(%rbp), %rax
 520 0142 4883C020 		addq	$32, %rax
 521 0146 4889C7   		movq	%rax, %rdi
 522 0149 E8000000 		call	_ZNKSs5c_strEv
 522      00
 523              		.loc 3 34 0 discriminator 10
 524 014e 4889C6   		movq	%rax, %rsi
 525 0151 488B45C8 		movq	-56(%rbp), %rax
 526 0155 4883C040 		addq	$64, %rax
 527 0159 4189D8   		movl	%ebx, %r8d
 528 015c 4C89E9   		movq	%r13, %rcx
 529 015f 4C89E2   		movq	%r12, %rdx
 530 0162 4889C7   		movq	%rax, %rdi
 531 0165 E8000000 		call	_ZN8UnitTest11TestDetailsC1EPKcS2_S2_i
 531      00
 532              	.LEHE13:
 533              	.LBE10:
  35:TestDeferredTestReporter.cpp ****     {
  36:TestDeferredTestReporter.cpp ****     }
 534              		.loc 3 36 0 is_stmt 1
 535 016a EB7D     		jmp	.L37
 536              	.L33:
 537 016c 4889C3   		movq	%rax, %rbx
 538              	.LBB11:
  34:TestDeferredTestReporter.cpp ****     {
 539              		.loc 3 34 0
 540 016f 488D45D7 		leaq	-41(%rbp), %rax
 541 0173 4889C7   		movq	%rax, %rdi
 542 0176 E8000000 		call	_ZNSaIcED1Ev
 542      00
 543 017b EB55     		jmp	.L26
 544              	.L34:
 545 017d 4889C3   		movq	%rax, %rbx
 546 0180 488D45D7 		leaq	-41(%rbp), %rax
 547 0184 4889C7   		movq	%rax, %rdi
 548 0187 E8000000 		call	_ZNSaIcED1Ev
 548      00
 549 018c EB34     		jmp	.L28
 550              	.L35:
 551 018e 4889C3   		movq	%rax, %rbx
 552 0191 488D45D7 		leaq	-41(%rbp), %rax
 553 0195 4889C7   		movq	%rax, %rdi
 554 0198 E8000000 		call	_ZNSaIcED1Ev
 554      00
 555 019d EB13     		jmp	.L30
 556              	.L36:
 557 019f 4889C3   		movq	%rax, %rbx
 558 01a2 488B45C8 		movq	-56(%rbp), %rax
 559 01a6 4883C030 		addq	$48, %rax
 560 01aa 4889C7   		movq	%rax, %rdi
 561 01ad E8000000 		call	_ZNSsD1Ev
 561      00
 562              	.L30:
 563 01b2 488B45C8 		movq	-56(%rbp), %rax
 564 01b6 4883C028 		addq	$40, %rax
 565 01ba 4889C7   		movq	%rax, %rdi
 566 01bd E8000000 		call	_ZNSsD1Ev
 566      00
 567              	.L28:
 568 01c2 488B45C8 		movq	-56(%rbp), %rax
 569 01c6 4883C020 		addq	$32, %rax
 570 01ca 4889C7   		movq	%rax, %rdi
 571 01cd E8000000 		call	_ZNSsD1Ev
 571      00
 572              	.L26:
 573 01d2 488B45C8 		movq	-56(%rbp), %rax
 574 01d6 4889C7   		movq	%rax, %rdi
 575 01d9 E81E3300 		call	_ZN8UnitTest12_GLOBAL__N_124MockDeferredTestReporterD2Ev
 575      00
 576 01de 4889D8   		movq	%rbx, %rax
 577 01e1 4889C7   		movq	%rax, %rdi
 578              	.LEHB14:
 579 01e4 E8000000 		call	_Unwind_Resume
 579      00
 580              	.LEHE14:
 581              	.L37:
 582              	.LBE11:
 583              		.loc 3 36 0
 584 01e9 488B45D8 		movq	-40(%rbp), %rax
 585 01ed 64483304 		xorq	%fs:40, %rax
 585      25280000 
 585      00
 586 01f6 7405     		je	.L32
 587 01f8 E8000000 		call	__stack_chk_fail
 587      00
 588              	.L32:
 589 01fd 4883C428 		addq	$40, %rsp
 590 0201 5B       		popq	%rbx
 591 0202 415C     		popq	%r12
 592 0204 415D     		popq	%r13
 593 0206 5D       		popq	%rbp
 594              		.cfi_def_cfa 7, 8
 595 0207 C3       		ret
 596              		.cfi_endproc
 597              	.LFE1348:
 598              		.section	.gcc_except_table,"a",@progbits
 599              	.LLSDA1348:
 600 0000 FF       		.byte	0xff
 601 0001 FF       		.byte	0xff
 602 0002 01       		.byte	0x1
 603 0003 20       		.uleb128 .LLSDACSE1348-.LLSDACSB1348
 604              	.LLSDACSB1348:
 605 0004 27       		.uleb128 .LEHB9-.LFB1348
 606 0005 05       		.uleb128 .LEHE9-.LEHB9
 607 0006 00       		.uleb128 0
 608 0007 00       		.uleb128 0
 609 0008 4F       		.uleb128 .LEHB10-.LFB1348
 610 0009 05       		.uleb128 .LEHE10-.LEHB10
 611 000a AE02     		.uleb128 .L33-.LFB1348
 612 000c 00       		.uleb128 0
 613 000d 8301     		.uleb128 .LEHB11-.LFB1348
 614 000f 05       		.uleb128 .LEHE11-.LEHB11
 615 0010 BF02     		.uleb128 .L34-.LFB1348
 616 0012 00       		.uleb128 0
 617 0013 B701     		.uleb128 .LEHB12-.LFB1348
 618 0015 05       		.uleb128 .LEHE12-.LEHB12
 619 0016 D002     		.uleb128 .L35-.LFB1348
 620 0018 00       		.uleb128 0
 621 0019 E501     		.uleb128 .LEHB13-.LFB1348
 622 001b 47       		.uleb128 .LEHE13-.LEHB13
 623 001c E102     		.uleb128 .L36-.LFB1348
 624 001e 00       		.uleb128 0
 625 001f A603     		.uleb128 .LEHB14-.LFB1348
 626 0021 05       		.uleb128 .LEHE14-.LEHB14
 627 0022 00       		.uleb128 0
 628 0023 00       		.uleb128 0
 629              	.LLSDACSE1348:
 630              		.text
 632              		.align 2
 634              	_ZN8UnitTest12_GLOBAL__N_127DeferredTestReporterFixtureD2Ev:
 635              	.LFB1352:
  27:TestDeferredTestReporter.cpp **** {
 636              		.loc 3 27 0
 637              		.cfi_startproc
 638              		.cfi_personality 0x3,__gxx_personality_v0
 639              		.cfi_lsda 0x3,.LLSDA1352
 640 0208 55       		pushq	%rbp
 641              		.cfi_def_cfa_offset 16
 642              		.cfi_offset 6, -16
 643 0209 4889E5   		movq	%rsp, %rbp
 644              		.cfi_def_cfa_register 6
 645 020c 53       		pushq	%rbx
 646 020d 4883EC18 		subq	$24, %rsp
 647              		.cfi_offset 3, -24
 648 0211 48897DE8 		movq	%rdi, -24(%rbp)
 649              	.LBB12:
  27:TestDeferredTestReporter.cpp **** {
 650              		.loc 3 27 0
 651 0215 488B45E8 		movq	-24(%rbp), %rax
 652 0219 4883C030 		addq	$48, %rax
 653 021d 4889C7   		movq	%rax, %rdi
 654              	.LEHB15:
 655 0220 E8000000 		call	_ZNSsD1Ev
 655      00
 656              	.LEHE15:
  27:TestDeferredTestReporter.cpp **** {
 657              		.loc 3 27 0 is_stmt 0 discriminator 2
 658 0225 488B45E8 		movq	-24(%rbp), %rax
 659 0229 4883C028 		addq	$40, %rax
 660 022d 4889C7   		movq	%rax, %rdi
 661              	.LEHB16:
 662 0230 E8000000 		call	_ZNSsD1Ev
 662      00
 663              	.LEHE16:
  27:TestDeferredTestReporter.cpp **** {
 664              		.loc 3 27 0 discriminator 4
 665 0235 488B45E8 		movq	-24(%rbp), %rax
 666 0239 4883C020 		addq	$32, %rax
 667 023d 4889C7   		movq	%rax, %rdi
 668              	.LEHB17:
 669 0240 E8000000 		call	_ZNSsD1Ev
 669      00
 670              	.LEHE17:
  27:TestDeferredTestReporter.cpp **** {
 671              		.loc 3 27 0 discriminator 6
 672 0245 488B45E8 		movq	-24(%rbp), %rax
 673 0249 4889C7   		movq	%rax, %rdi
 674              	.LEHB18:
 675 024c E8AB3200 		call	_ZN8UnitTest12_GLOBAL__N_124MockDeferredTestReporterD2Ev
 675      00
 676              	.LEHE18:
 677 0251 EB44     		jmp	.L46
 678              	.L43:
 679 0253 4889C3   		movq	%rax, %rbx
  27:TestDeferredTestReporter.cpp **** {
 680              		.loc 3 27 0
 681 0256 488B45E8 		movq	-24(%rbp), %rax
 682 025a 4883C028 		addq	$40, %rax
 683 025e 4889C7   		movq	%rax, %rdi
 684 0261 E8000000 		call	_ZNSsD1Ev
 684      00
 685 0266 EB03     		jmp	.L41
 686              	.L44:
 687 0268 4889C3   		movq	%rax, %rbx
 688              	.L41:
  27:TestDeferredTestReporter.cpp **** {
 689              		.loc 3 27 0 discriminator 3
 690 026b 488B45E8 		movq	-24(%rbp), %rax
 691 026f 4883C020 		addq	$32, %rax
 692 0273 4889C7   		movq	%rax, %rdi
 693 0276 E8000000 		call	_ZNSsD1Ev
 693      00
 694 027b EB03     		jmp	.L42
 695              	.L45:
 696 027d 4889C3   		movq	%rax, %rbx
 697              	.L42:
  27:TestDeferredTestReporter.cpp **** {
 698              		.loc 3 27 0 discriminator 5
 699 0280 488B45E8 		movq	-24(%rbp), %rax
 700 0284 4889C7   		movq	%rax, %rdi
 701 0287 E8703200 		call	_ZN8UnitTest12_GLOBAL__N_124MockDeferredTestReporterD2Ev
 701      00
 702 028c 4889D8   		movq	%rbx, %rax
 703 028f 4889C7   		movq	%rax, %rdi
 704              	.LEHB19:
 705 0292 E8000000 		call	_Unwind_Resume
 705      00
 706              	.LEHE19:
 707              	.L46:
 708              	.LBE12:
  27:TestDeferredTestReporter.cpp **** {
 709              		.loc 3 27 0
 710 0297 4883C418 		addq	$24, %rsp
 711 029b 5B       		popq	%rbx
 712 029c 5D       		popq	%rbp
 713              		.cfi_def_cfa 7, 8
 714 029d C3       		ret
 715              		.cfi_endproc
 716              	.LFE1352:
 717              		.section	.gcc_except_table
 718              	.LLSDA1352:
 719 0024 FF       		.byte	0xff
 720 0025 FF       		.byte	0xff
 721 0026 01       		.byte	0x1
 722 0027 15       		.uleb128 .LLSDACSE1352-.LLSDACSB1352
 723              	.LLSDACSB1352:
 724 0028 18       		.uleb128 .LEHB15-.LFB1352
 725 0029 05       		.uleb128 .LEHE15-.LEHB15
 726 002a 4B       		.uleb128 .L43-.LFB1352
 727 002b 00       		.uleb128 0
 728 002c 28       		.uleb128 .LEHB16-.LFB1352
 729 002d 05       		.uleb128 .LEHE16-.LEHB16
 730 002e 60       		.uleb128 .L44-.LFB1352
 731 002f 00       		.uleb128 0
 732 0030 38       		.uleb128 .LEHB17-.LFB1352
 733 0031 05       		.uleb128 .LEHE17-.LEHB17
 734 0032 75       		.uleb128 .L45-.LFB1352
 735 0033 00       		.uleb128 0
 736 0034 44       		.uleb128 .LEHB18-.LFB1352
 737 0035 05       		.uleb128 .LEHE18-.LEHB18
 738 0036 00       		.uleb128 0
 739 0037 00       		.uleb128 0
 740 0038 8A01     		.uleb128 .LEHB19-.LFB1352
 741 003a 05       		.uleb128 .LEHE19-.LEHB19
 742 003b 00       		.uleb128 0
 743 003c 00       		.uleb128 0
 744              	.LLSDACSE1352:
 745              		.text
 747              		.align 2
 749              	_ZN8UnitTest12_GLOBAL__N_171DeferredTestReporterFixtureReportTestStartCreatesANewDeferredTestHelper
 750              	.LFB1354:
  37:TestDeferredTestReporter.cpp **** 
  38:TestDeferredTestReporter.cpp ****     MockDeferredTestReporter reporter;
  39:TestDeferredTestReporter.cpp ****     std::string const testName;
  40:TestDeferredTestReporter.cpp ****     std::string const testSuite;
  41:TestDeferredTestReporter.cpp ****     std::string const fileName;
  42:TestDeferredTestReporter.cpp ****     int const lineNumber;
  43:TestDeferredTestReporter.cpp ****     TestDetails const details;
  44:TestDeferredTestReporter.cpp **** };
  45:TestDeferredTestReporter.cpp **** 
  46:TestDeferredTestReporter.cpp **** TEST_FIXTURE(DeferredTestReporterFixture, ReportTestStartCreatesANewDeferredTest)
 751              		.loc 3 46 0 is_stmt 1
 752              		.cfi_startproc
 753 029e 55       		pushq	%rbp
 754              		.cfi_def_cfa_offset 16
 755              		.cfi_offset 6, -16
 756 029f 4889E5   		movq	%rsp, %rbp
 757              		.cfi_def_cfa_register 6
 758 02a2 4883EC10 		subq	$16, %rsp
 759 02a6 48897DF8 		movq	%rdi, -8(%rbp)
 760 02aa 488975F0 		movq	%rsi, -16(%rbp)
 761              	.LBB13:
 762              		.loc 3 46 0
 763 02ae 488B45F8 		movq	-8(%rbp), %rax
 764 02b2 4889C7   		movq	%rax, %rdi
 765 02b5 E884FDFF 		call	_ZN8UnitTest12_GLOBAL__N_127DeferredTestReporterFixtureC2Ev
 765      FF
 766 02ba 488B45F8 		movq	-8(%rbp), %rax
 767 02be 488B55F0 		movq	-16(%rbp), %rdx
 768 02c2 48895060 		movq	%rdx, 96(%rax)
 769              	.LBE13:
 770 02c6 C9       		leave
 771              		.cfi_def_cfa 7, 8
 772 02c7 C3       		ret
 773              		.cfi_endproc
 774              	.LFE1354:
 776              		.section	.rodata
 777              	.LC4:
 778 0037 54657374 		.string	"TestDeferredTestReporter.cpp"
 778      44656665 
 778      72726564 
 778      54657374 
 778      5265706F 
 779 0054 00000000 		.align 8
 780              	.LC5:
 781 0058 5265706F 		.string	"ReportTestStartCreatesANewDeferredTest"
 781      72745465 
 781      73745374 
 781      61727443 
 781      72656174 
 782              		.text
 783              		.align 2
 785              	_ZN8UnitTest12_GLOBAL__N_169TestDeferredTestReporterFixtureReportTestStartCreatesANewDeferredTestC2
 786              	.LFB1357:
 787              		.loc 3 46 0
 788              		.cfi_startproc
 789 02c8 55       		pushq	%rbp
 790              		.cfi_def_cfa_offset 16
 791              		.cfi_offset 6, -16
 792 02c9 4889E5   		movq	%rsp, %rbp
 793              		.cfi_def_cfa_register 6
 794 02cc 4883EC10 		subq	$16, %rsp
 795 02d0 48897DF8 		movq	%rdi, -8(%rbp)
 796              	.LBB14:
 797              		.loc 3 46 0
 798 02d4 E8000000 		call	_ZN13UnitTestSuite12GetSuiteNameEv
 798      00
 799 02d9 4889C2   		movq	%rax, %rdx
 800 02dc 488B45F8 		movq	-8(%rbp), %rax
 801 02e0 41B82E00 		movl	$46, %r8d
 801      0000
 802 02e6 B9000000 		movl	$.LC4, %ecx
 802      00
 803 02eb BE000000 		movl	$.LC5, %esi
 803      00
 804 02f0 4889C7   		movq	%rax, %rdi
 805 02f3 E8000000 		call	_ZN8UnitTest4TestC2EPKcS2_S2_i
 805      00
 806 02f8 488B45F8 		movq	-8(%rbp), %rax
 807 02fc 48C70000 		movq	$_ZTVN8UnitTest12_GLOBAL__N_169TestDeferredTestReporterFixtureReportTestStartCreatesANewDefer
 807      000000
 808              	.LBE14:
 809 0303 C9       		leave
 810              		.cfi_def_cfa 7, 8
 811 0304 C3       		ret
 812              		.cfi_endproc
 813              	.LFE1357:
 815              		.local	_ZN8UnitTest12_GLOBAL__N_177testDeferredTestReporterFixtureReportTestStartCreatesANewDeferr
 816              		.comm	_ZN8UnitTest12_GLOBAL__N_177testDeferredTestReporterFixtureReportTestStartCreatesANewDeferre
 817              		.local	_ZN8UnitTest12_GLOBAL__N_170adderDeferredTestReporterFixtureReportTestStartCreatesANewDefer
 818              		.comm	_ZN8UnitTest12_GLOBAL__N_170adderDeferredTestReporterFixtureReportTestStartCreatesANewDeferr
 819 0305 90       		.align 2
 821              	_ZN8UnitTest12_GLOBAL__N_171DeferredTestReporterFixtureReportTestStartCreatesANewDeferredTestHelper
 822              	.LFB1361:
 823              		.loc 3 46 0
 824              		.cfi_startproc
 825 0306 55       		pushq	%rbp
 826              		.cfi_def_cfa_offset 16
 827              		.cfi_offset 6, -16
 828 0307 4889E5   		movq	%rsp, %rbp
 829              		.cfi_def_cfa_register 6
 830 030a 4883EC10 		subq	$16, %rsp
 831 030e 48897DF8 		movq	%rdi, -8(%rbp)
 832              	.LBB15:
 833              		.loc 3 46 0
 834 0312 488B45F8 		movq	-8(%rbp), %rax
 835 0316 4889C7   		movq	%rax, %rdi
 836 0319 E8EAFEFF 		call	_ZN8UnitTest12_GLOBAL__N_127DeferredTestReporterFixtureD2Ev
 836      FF
 837              	.LBE15:
 838 031e C9       		leave
 839              		.cfi_def_cfa 7, 8
 840 031f C3       		ret
 841              		.cfi_endproc
 842              	.LFE1361:
 844              		.section	.rodata
 845              	.LC6:
 846 007f 556E6861 		.string	"Unhandled exception: "
 846      6E646C65 
 846      64206578 
 846      63657074 
 846      696F6E3A 
 847 0095 000000   		.align 8
 848              	.LC7:
 849 0098 556E6861 		.string	"Unhandled exception while destroying fixture DeferredTestReporterFixture"
 849      6E646C65 
 849      64206578 
 849      63657074 
 849      696F6E20 
 850 00e1 00000000 		.align 8
 850      000000
 851              	.LC8:
 852 00e8 556E6861 		.string	"Unhandled exception while constructing fixture DeferredTestReporterFixture"
 852      6E646C65 
 852      64206578 
 852      63657074 
 852      696F6E20 
 853              		.text
 854              		.align 2
 856              	_ZNK8UnitTest12_GLOBAL__N_169TestDeferredTestReporterFixtureReportTestStartCreatesANewDeferredTest7
 857              	.LFB1359:
 858              		.loc 3 46 0
 859              		.cfi_startproc
 860              		.cfi_personality 0x3,__gxx_personality_v0
 861              		.cfi_lsda 0x3,.LLSDA1359
 862 0320 55       		pushq	%rbp
 863              		.cfi_def_cfa_offset 16
 864              		.cfi_offset 6, -16
 865 0321 4889E5   		movq	%rsp, %rbp
 866              		.cfi_def_cfa_register 6
 867 0324 4154     		pushq	%r12
 868 0326 53       		pushq	%rbx
 869 0327 4881EC10 		subq	$528, %rsp
 869      020000
 870              		.cfi_offset 12, -24
 871              		.cfi_offset 3, -32
 872 032e 4889BDE8 		movq	%rdi, -536(%rbp)
 872      FDFFFF
 873              		.loc 3 46 0
 874 0335 64488B04 		movq	%fs:40, %rax
 874      25280000 
 874      00
 875 033e 488945E8 		movq	%rax, -24(%rbp)
 876 0342 31C0     		xorl	%eax, %eax
 877              	.LBB16:
 878 0344 C685FFFD 		movb	$0, -513(%rbp)
 878      FFFF00
 879              	.LBB17:
 880 034b 488B85E8 		movq	-536(%rbp), %rax
 880      FDFFFF
 881 0352 488D5008 		leaq	8(%rax), %rdx
 882 0356 488D8510 		leaq	-496(%rbp), %rax
 882      FEFFFF
 883 035d 4889D6   		movq	%rdx, %rsi
 884 0360 4889C7   		movq	%rax, %rdi
 885              	.LEHB20:
 886 0363 E836FFFF 		call	_ZN8UnitTest12_GLOBAL__N_171DeferredTestReporterFixtureReportTestStartCreatesANewDeferredTest
 886      FF
 887              	.LEHE20:
 888              		.loc 3 46 0 is_stmt 0 discriminator 1
 889 0368 C685FFFD 		movb	$1, -513(%rbp)
 889      FFFF01
 890 036f 488B85E8 		movq	-536(%rbp), %rax
 890      FDFFFF
 891 0376 488D5008 		leaq	8(%rax), %rdx
 892 037a 488D8510 		leaq	-496(%rbp), %rax
 892      FEFFFF
 893 0381 4889D6   		movq	%rdx, %rsi
 894 0384 4889C7   		movq	%rax, %rdi
 895              	.LEHB21:
 896 0387 E8BC1E00 		call	_ZN8UnitTest11ExecuteTestINS_12_GLOBAL__N_171DeferredTestReporterFixtureReportTestStartCreate
 896      00
 897              	.LEHE21:
 898              		.loc 3 46 0 discriminator 3
 899 038c 488D8510 		leaq	-496(%rbp), %rax
 899      FEFFFF
 900 0393 4889C7   		movq	%rax, %rdi
 901              	.LEHB22:
 902 0396 E86BFFFF 		call	_ZN8UnitTest12_GLOBAL__N_171DeferredTestReporterFixtureReportTestStartCreatesANewDeferredTest
 902      FF
 903              	.LEHE22:
 904              	.LBE17:
 905              	.LBE16:
 906              		.loc 3 46 0
 907 039b E9640200 		jmp	.L72
 907      00
 908              	.L66:
 909 03a0 4989C4   		movq	%rax, %r12
 910 03a3 4889D3   		movq	%rdx, %rbx
 911              	.LBB25:
 912              	.LBB18:
 913 03a6 488D8510 		leaq	-496(%rbp), %rax
 913      FEFFFF
 914 03ad 4889C7   		movq	%rax, %rdi
 915 03b0 E851FFFF 		call	_ZN8UnitTest12_GLOBAL__N_171DeferredTestReporterFixtureReportTestStartCreatesANewDeferredTest
 915      FF
 916 03b5 4C89E0   		movq	%r12, %rax
 917 03b8 4889DA   		movq	%rbx, %rdx
 918 03bb EB00     		jmp	.L53
 919              	.L65:
 920              	.L53:
 921 03bd 4883FA01 		cmpq	$1, %rdx
 922 03c1 745C     		je	.L55
 923 03c3 4883FA02 		cmpq	$2, %rdx
 924 03c7 0F84F400 		je	.L56
 924      0000
 925 03cd E9980100 		jmp	.L71
 925      00
 926              	.L67:
 927 03d2 4889C3   		movq	%rax, %rbx
 928              	.LBE18:
 929              	.LBB19:
 930 03d5 E8000000 		call	__cxa_end_catch
 930      00
 931 03da 4889D8   		movq	%rbx, %rax
 932 03dd 4889C7   		movq	%rax, %rdi
 933              	.LEHB23:
 934 03e0 E8000000 		call	_Unwind_Resume
 934      00
 935              	.LEHE23:
 936              	.L68:
 937 03e5 4889C3   		movq	%rax, %rbx
 938              	.LBE19:
 939              	.LBB20:
 940              	.LBB21:
 941 03e8 488D8580 		leaq	-384(%rbp), %rax
 941      FEFFFF
 942 03ef 4889C7   		movq	%rax, %rdi
 943 03f2 E8000000 		call	_ZN8UnitTest15MemoryOutStreamD1Ev
 943      00
 944 03f7 EB03     		jmp	.L59
 945              	.L69:
 946 03f9 4889C3   		movq	%rax, %rbx
 947              	.L59:
 948              	.LBE21:
 949 03fc E8000000 		call	__cxa_end_catch
 949      00
 950 0401 4889D8   		movq	%rbx, %rax
 951 0404 4889C7   		movq	%rax, %rdi
 952              	.LEHB24:
 953 0407 E8000000 		call	_Unwind_Resume
 953      00
 954              	.LEHE24:
 955              	.L70:
 956 040c 4889C3   		movq	%rax, %rbx
 957              	.LBE20:
 958 040f E8000000 		call	__cxa_end_catch
 958      00
 959 0414 4889D8   		movq	%rbx, %rax
 960 0417 4889C7   		movq	%rax, %rdi
 961              	.LEHB25:
 962 041a E8000000 		call	_Unwind_Resume
 962      00
 963              	.LEHE25:
 964              	.L55:
 965              	.LBB23:
 966 041f 4889C7   		movq	%rax, %rdi
 967 0422 E8000000 		call	__cxa_begin_catch
 967      00
 968 0427 48898500 		movq	%rax, -512(%rbp)
 968      FEFFFF
 969 042e 488B8500 		movq	-512(%rbp), %rax
 969      FEFFFF
 970 0435 488B00   		movq	(%rax), %rax
 971 0438 4883C010 		addq	$16, %rax
 972 043c 488B00   		movq	(%rax), %rax
 973 043f 488B9500 		movq	-512(%rbp), %rdx
 973      FEFFFF
 974 0446 4889D7   		movq	%rdx, %rdi
 975 0449 FFD0     		call	*%rax
 976 044b 4889C3   		movq	%rax, %rbx
 977 044e 488B8500 		movq	-512(%rbp), %rax
 977      FEFFFF
 978 0455 4889C7   		movq	%rax, %rdi
 979              	.LEHB26:
 980 0458 E8000000 		call	_ZNK8UnitTest15AssertException10LineNumberEv
 980      00
 981 045d 4189C4   		movl	%eax, %r12d
 982 0460 488B8500 		movq	-512(%rbp), %rax
 982      FEFFFF
 983 0467 4889C7   		movq	%rax, %rdi
 984 046a E8000000 		call	_ZNK8UnitTest15AssertException8FilenameEv
 984      00
 985              		.loc 3 46 0 discriminator 5
 986 046f 4889C1   		movq	%rax, %rcx
 987 0472 488B85E8 		movq	-536(%rbp), %rax
 987      FDFFFF
 988 0479 488B5008 		movq	8(%rax), %rdx
 989 047d 488B85E8 		movq	-536(%rbp), %rax
 989      FDFFFF
 990 0484 488B7010 		movq	16(%rax), %rsi
 991 0488 488D8510 		leaq	-496(%rbp), %rax
 991      FEFFFF
 992 048f 4589E0   		movl	%r12d, %r8d
 993 0492 4889C7   		movq	%rax, %rdi
 994 0495 E8000000 		call	_ZN8UnitTest11TestDetailsC1EPKcS2_S2_i
 994      00
 995              		.loc 3 46 0 discriminator 9
 996 049a E8000000 		call	_ZN8UnitTest11CurrentTest7ResultsEv
 996      00
 997 049f 488B00   		movq	(%rax), %rax
 998 04a2 488D8D10 		leaq	-496(%rbp), %rcx
 998      FEFFFF
 999 04a9 4889DA   		movq	%rbx, %rdx
 1000 04ac 4889CE   		movq	%rcx, %rsi
 1001 04af 4889C7   		movq	%rax, %rdi
 1002 04b2 E8000000 		call	_ZN8UnitTest11TestResults13OnTestFailureERKNS_11TestDetailsEPKc
 1002      00
 1003              	.LEHE26:
 1004              		.loc 3 46 0 discriminator 13
 1005 04b7 E8000000 		call	__cxa_end_catch
 1005      00
 1006              	.LBE23:
 1007              	.LBE25:
 1008 04bc E9430100 		jmp	.L72
 1008      00
 1009              	.L56:
 1010              	.LBB26:
 1011              	.LBB24:
 1012              		.loc 3 46 0
 1013 04c1 4889C7   		movq	%rax, %rdi
 1014 04c4 E8000000 		call	__cxa_begin_catch
 1014      00
 1015 04c9 48898508 		movq	%rax, -504(%rbp)
 1015      FEFFFF
 1016              	.LBB22:
 1017 04d0 488D8580 		leaq	-384(%rbp), %rax
 1017      FEFFFF
 1018 04d7 4889C7   		movq	%rax, %rdi
 1019              	.LEHB27:
 1020 04da E8000000 		call	_ZN8UnitTest15MemoryOutStreamC1Ev
 1020      00
 1021              	.LEHE27:
 1022              		.loc 3 46 0 discriminator 15
 1023 04df 488B8508 		movq	-504(%rbp), %rax
 1023      FEFFFF
 1024 04e6 488B00   		movq	(%rax), %rax
 1025 04e9 4883C010 		addq	$16, %rax
 1026 04ed 488B00   		movq	(%rax), %rax
 1027 04f0 488B9508 		movq	-504(%rbp), %rdx
 1027      FEFFFF
 1028 04f7 4889D7   		movq	%rdx, %rdi
 1029 04fa FFD0     		call	*%rax
 1030 04fc 4889C3   		movq	%rax, %rbx
 1031 04ff 488D8580 		leaq	-384(%rbp), %rax
 1031      FEFFFF
 1032 0506 BE000000 		movl	$.LC6, %esi
 1032      00
 1033 050b 4889C7   		movq	%rax, %rdi
 1034              	.LEHB28:
 1035 050e E8000000 		call	_ZStlsISt11char_traitsIcEERSt13basic_ostreamIcT_ES5_PKc
 1035      00
 1036 0513 4889DE   		movq	%rbx, %rsi
 1037 0516 4889C7   		movq	%rax, %rdi
 1038 0519 E8000000 		call	_ZStlsISt11char_traitsIcEERSt13basic_ostreamIcT_ES5_PKc
 1038      00
 1039              		.loc 3 46 0 discriminator 19
 1040 051e 488D8580 		leaq	-384(%rbp), %rax
 1040      FEFFFF
 1041 0525 4889C7   		movq	%rax, %rdi
 1042 0528 E8000000 		call	_ZNK8UnitTest15MemoryOutStream7GetTextEv
 1042      00
 1043 052d 4989C4   		movq	%rax, %r12
 1044 0530 488B85E8 		movq	-536(%rbp), %rax
 1044      FDFFFF
 1045 0537 488D5808 		leaq	8(%rax), %rbx
 1046 053b E8000000 		call	_ZN8UnitTest11CurrentTest7ResultsEv
 1046      00
 1047              		.loc 3 46 0 discriminator 21
 1048 0540 488B00   		movq	(%rax), %rax
 1049 0543 4C89E2   		movq	%r12, %rdx
 1050 0546 4889DE   		movq	%rbx, %rsi
 1051 0549 4889C7   		movq	%rax, %rdi
 1052 054c E8000000 		call	_ZN8UnitTest11TestResults13OnTestFailureERKNS_11TestDetailsEPKc
 1052      00
 1053              	.LEHE28:
 1054              		.loc 3 46 0 discriminator 25
 1055 0551 488D8580 		leaq	-384(%rbp), %rax
 1055      FEFFFF
 1056 0558 4889C7   		movq	%rax, %rdi
 1057              	.LEHB29:
 1058 055b E8000000 		call	_ZN8UnitTest15MemoryOutStreamD1Ev
 1058      00
 1059              	.LEHE29:
 1060              	.LBE22:
 1061              		.loc 3 46 0 discriminator 26
 1062 0560 E8000000 		call	__cxa_end_catch
 1062      00
 1063              	.LBE24:
 1064              	.LBE26:
 1065 0565 E99A0000 		jmp	.L72
 1065      00
 1066              	.L71:
 1067              	.LBB27:
 1068              		.loc 3 46 0
 1069 056a 4889C7   		movq	%rax, %rdi
 1070 056d E8000000 		call	__cxa_begin_catch
 1070      00
 1071 0572 80BDFFFD 		cmpb	$0, -513(%rbp)
 1071      FFFF00
 1072 0579 7443     		je	.L62
 1073              		.loc 3 46 0 discriminator 28
 1074 057b 488B85E8 		movq	-536(%rbp), %rax
 1074      FDFFFF
 1075 0582 488D4808 		leaq	8(%rax), %rcx
 1076 0586 488D8510 		leaq	-496(%rbp), %rax
 1076      FEFFFF
 1077 058d BA2E0000 		movl	$46, %edx
 1077      00
 1078 0592 4889CE   		movq	%rcx, %rsi
 1079 0595 4889C7   		movq	%rax, %rdi
 1080              	.LEHB30:
 1081 0598 E8000000 		call	_ZN8UnitTest11TestDetailsC1ERKS0_i
 1081      00
 1082              		.loc 3 46 0 discriminator 31
 1083 059d E8000000 		call	_ZN8UnitTest11CurrentTest7ResultsEv
 1083      00
 1084 05a2 488B00   		movq	(%rax), %rax
 1085 05a5 488D8D10 		leaq	-496(%rbp), %rcx
 1085      FEFFFF
 1086 05ac BA000000 		movl	$.LC7, %edx
 1086      00
 1087 05b1 4889CE   		movq	%rcx, %rsi
 1088 05b4 4889C7   		movq	%rax, %rdi
 1089 05b7 E8000000 		call	_ZN8UnitTest11TestResults13OnTestFailureERKNS_11TestDetailsEPKc
 1089      00
 1090 05bc EB41     		jmp	.L63
 1091              	.L62:
 1092              		.loc 3 46 0 discriminator 29
 1093 05be 488B85E8 		movq	-536(%rbp), %rax
 1093      FDFFFF
 1094 05c5 488D4808 		leaq	8(%rax), %rcx
 1095 05c9 488D8510 		leaq	-496(%rbp), %rax
 1095      FEFFFF
 1096 05d0 BA2E0000 		movl	$46, %edx
 1096      00
 1097 05d5 4889CE   		movq	%rcx, %rsi
 1098 05d8 4889C7   		movq	%rax, %rdi
 1099 05db E8000000 		call	_ZN8UnitTest11TestDetailsC1ERKS0_i
 1099      00
 1100              		.loc 3 46 0 discriminator 38
 1101 05e0 E8000000 		call	_ZN8UnitTest11CurrentTest7ResultsEv
 1101      00
 1102 05e5 488B00   		movq	(%rax), %rax
 1103 05e8 488D8D10 		leaq	-496(%rbp), %rcx
 1103      FEFFFF
 1104 05ef BA000000 		movl	$.LC8, %edx
 1104      00
 1105 05f4 4889CE   		movq	%rcx, %rsi
 1106 05f7 4889C7   		movq	%rax, %rdi
 1107 05fa E8000000 		call	_ZN8UnitTest11TestResults13OnTestFailureERKNS_11TestDetailsEPKc
 1107      00
 1108              	.LEHE30:
 1109              	.L63:
 1110              	.LEHB31:
 1111              		.loc 3 46 0 discriminator 43
 1112 05ff E8000000 		call	__cxa_end_catch
 1112      00
 1113              	.LEHE31:
 1114              	.L72:
 1115              	.LBE27:
 1116              		.loc 3 46 0
 1117 0604 90       		nop
 1118 0605 488B45E8 		movq	-24(%rbp), %rax
 1119 0609 64483304 		xorq	%fs:40, %rax
 1119      25280000 
 1119      00
 1120 0612 7405     		je	.L64
 1121 0614 E8000000 		call	__stack_chk_fail
 1121      00
 1122              	.L64:
 1123 0619 4881C410 		addq	$528, %rsp
 1123      020000
 1124 0620 5B       		popq	%rbx
 1125 0621 415C     		popq	%r12
 1126 0623 5D       		popq	%rbp
 1127              		.cfi_def_cfa 7, 8
 1128 0624 C3       		ret
 1129              		.cfi_endproc
 1130              	.LFE1359:
 1131              		.section	.gcc_except_table
 1132 003d 000000   		.align 4
 1133              	.LLSDA1359:
 1134 0040 FF       		.byte	0xff
 1135 0041 03       		.byte	0x3
 1136 0042 59       		.uleb128 .LLSDATT1359-.LLSDATTD1359
 1137              	.LLSDATTD1359:
 1138 0043 01       		.byte	0x1
 1139 0044 41       		.uleb128 .LLSDACSE1359-.LLSDACSB1359
 1140              	.LLSDACSB1359:
 1141 0045 43       		.uleb128 .LEHB20-.LFB1359
 1142 0046 05       		.uleb128 .LEHE20-.LEHB20
 1143 0047 9D01     		.uleb128 .L65-.LFB1359
 1144 0049 05       		.uleb128 0x5
 1145 004a 67       		.uleb128 .LEHB21-.LFB1359
 1146 004b 05       		.uleb128 .LEHE21-.LEHB21
 1147 004c 8001     		.uleb128 .L66-.LFB1359
 1148 004e 07       		.uleb128 0x7
 1149 004f 76       		.uleb128 .LEHB22-.LFB1359
 1150 0050 05       		.uleb128 .LEHE22-.LEHB22
 1151 0051 9D01     		.uleb128 .L65-.LFB1359
 1152 0053 05       		.uleb128 0x5
 1153 0054 C001     		.uleb128 .LEHB23-.LFB1359
 1154 0056 05       		.uleb128 .LEHE23-.LEHB23
 1155 0057 00       		.uleb128 0
 1156 0058 00       		.uleb128 0
 1157 0059 E701     		.uleb128 .LEHB24-.LFB1359
 1158 005b 05       		.uleb128 .LEHE24-.LEHB24
 1159 005c 00       		.uleb128 0
 1160 005d 00       		.uleb128 0
 1161 005e FA01     		.uleb128 .LEHB25-.LFB1359
 1162 0060 05       		.uleb128 .LEHE25-.LEHB25
 1163 0061 00       		.uleb128 0
 1164 0062 00       		.uleb128 0
 1165 0063 B802     		.uleb128 .LEHB26-.LFB1359
 1166 0065 5F       		.uleb128 .LEHE26-.LEHB26
 1167 0066 B201     		.uleb128 .L67-.LFB1359
 1168 0068 00       		.uleb128 0
 1169 0069 BA03     		.uleb128 .LEHB27-.LFB1359
 1170 006b 05       		.uleb128 .LEHE27-.LEHB27
 1171 006c D901     		.uleb128 .L69-.LFB1359
 1172 006e 00       		.uleb128 0
 1173 006f EE03     		.uleb128 .LEHB28-.LFB1359
 1174 0071 43       		.uleb128 .LEHE28-.LEHB28
 1175 0072 C501     		.uleb128 .L68-.LFB1359
 1176 0074 00       		.uleb128 0
 1177 0075 BB04     		.uleb128 .LEHB29-.LFB1359
 1178 0077 05       		.uleb128 .LEHE29-.LEHB29
 1179 0078 D901     		.uleb128 .L69-.LFB1359
 1180 007a 00       		.uleb128 0
 1181 007b F804     		.uleb128 .LEHB30-.LFB1359
 1182 007d 67       		.uleb128 .LEHE30-.LEHB30
 1183 007e EC01     		.uleb128 .L70-.LFB1359
 1184 0080 00       		.uleb128 0
 1185 0081 DF05     		.uleb128 .LEHB31-.LFB1359
 1186 0083 05       		.uleb128 .LEHE31-.LEHB31
 1187 0084 00       		.uleb128 0
 1188 0085 00       		.uleb128 0
 1189              	.LLSDACSE1359:
 1190 0086 03       		.byte	0x3
 1191 0087 00       		.byte	0
 1192 0088 02       		.byte	0x2
 1193 0089 7D       		.byte	0x7d
 1194 008a 01       		.byte	0x1
 1195 008b 7D       		.byte	0x7d
 1196 008c 00       		.byte	0
 1197 008d 7D       		.byte	0x7d
 1198 008e 0000     		.align 4
 1199 0090 00000000 		.long	0
 1200              	
 1201 0094 00000000 		.long	_ZTISt9exception
 1202 0098 00000000 		.long	_ZTIN8UnitTest15AssertExceptionE
 1203              	.LLSDATT1359:
 1204              		.text
 1206              		.section	.rodata
 1207 0133 00000000 		.align 8
 1207      00
 1208              	.LC9:
 1209 0138 556E6861 		.string	"Unhandled exception in CHECK_EQUAL(1, (int)reporter.GetResults().size())"
 1209      6E646C65 
 1209      64206578 
 1209      63657074 
 1209      696F6E20 
 1210              		.text
 1211 0625 90       		.align 2
 1213              	_ZN8UnitTest12_GLOBAL__N_171DeferredTestReporterFixtureReportTestStartCreatesANewDeferredTestHelper
 1214              	.LFB1363:
  47:TestDeferredTestReporter.cpp **** {
 1215              		.loc 3 47 0 is_stmt 1
 1216              		.cfi_startproc
 1217              		.cfi_personality 0x3,__gxx_personality_v0
 1218              		.cfi_lsda 0x3,.LLSDA1363
 1219 0626 55       		pushq	%rbp
 1220              		.cfi_def_cfa_offset 16
 1221              		.cfi_offset 6, -16
 1222 0627 4889E5   		movq	%rsp, %rbp
 1223              		.cfi_def_cfa_register 6
 1224 062a 53       		pushq	%rbx
 1225 062b 4883EC58 		subq	$88, %rsp
 1226              		.cfi_offset 3, -24
 1227 062f 48897DA8 		movq	%rdi, -88(%rbp)
 1228              		.loc 3 47 0
 1229 0633 64488B04 		movq	%fs:40, %rax
 1229      25280000 
 1229      00
 1230 063c 488945E8 		movq	%rax, -24(%rbp)
 1231 0640 31C0     		xorl	%eax, %eax
  48:TestDeferredTestReporter.cpp ****     reporter.ReportTestStart(details);
 1232              		.loc 3 48 0
 1233 0642 488B45A8 		movq	-88(%rbp), %rax
 1234 0646 488D5040 		leaq	64(%rax), %rdx
 1235 064a 488B45A8 		movq	-88(%rbp), %rax
 1236 064e 4889D6   		movq	%rdx, %rsi
 1237 0651 4889C7   		movq	%rax, %rdi
 1238              	.LEHB32:
 1239 0654 E8000000 		call	_ZN8UnitTest20DeferredTestReporter15ReportTestStartERKNS_11TestDetailsE
 1239      00
 1240              	.LEHE32:
 1241              	.LEHB33:
  49:TestDeferredTestReporter.cpp ****     CHECK_EQUAL(1, (int)reporter.GetResults().size());
 1242              		.loc 3 49 0
 1243 0659 E8000000 		call	_ZN8UnitTest11CurrentTest7DetailsEv
 1243      00
 1244 065e 488B08   		movq	(%rax), %rcx
 1245 0661 488D45C0 		leaq	-64(%rbp), %rax
 1246 0665 BA310000 		movl	$49, %edx
 1246      00
 1247 066a 4889CE   		movq	%rcx, %rsi
 1248 066d 4889C7   		movq	%rax, %rdi
 1249 0670 E8000000 		call	_ZN8UnitTest11TestDetailsC1ERKS0_i
 1249      00
 1250              		.loc 3 49 0 is_stmt 0 discriminator 2
 1251 0675 488B45A8 		movq	-88(%rbp), %rax
 1252 0679 4889C7   		movq	%rax, %rdi
 1253 067c E8000000 		call	_ZN8UnitTest20DeferredTestReporter10GetResultsEv
 1253      00
 1254 0681 4889C7   		movq	%rax, %rdi
 1255 0684 E8000000 		call	_ZNKSt6vectorIN8UnitTest18DeferredTestResultESaIS1_EE4sizeEv
 1255      00
 1256 0689 8945BC   		movl	%eax, -68(%rbp)
 1257 068c C745B801 		movl	$1, -72(%rbp)
 1257      000000
 1258 0693 E8000000 		call	_ZN8UnitTest11CurrentTest7ResultsEv
 1258      00
 1259              		.loc 3 49 0 discriminator 4
 1260 0698 488B00   		movq	(%rax), %rax
 1261 069b 488D4DC0 		leaq	-64(%rbp), %rcx
 1262 069f 488D55BC 		leaq	-68(%rbp), %rdx
 1263 06a3 488D75B8 		leaq	-72(%rbp), %rsi
 1264 06a7 4889C7   		movq	%rax, %rdi
 1265 06aa E8000000 		call	_ZN8UnitTest10CheckEqualIiiEEvRNS_11TestResultsERKT_RKT0_RKNS_11TestDetailsE
 1265      00
 1266              	.LEHE33:
  50:TestDeferredTestReporter.cpp **** }
 1267              		.loc 3 50 0 is_stmt 1
 1268 06af EB58     		jmp	.L80
 1269              	.L79:
 1270 06b1 4889C3   		movq	%rax, %rbx
  49:TestDeferredTestReporter.cpp ****     CHECK_EQUAL(1, (int)reporter.GetResults().size());
 1271              		.loc 3 49 0
 1272 06b4 E8000000 		call	__cxa_end_catch
 1272      00
 1273 06b9 4889D8   		movq	%rbx, %rax
 1274 06bc 4889C7   		movq	%rax, %rdi
 1275              	.LEHB34:
 1276 06bf E8000000 		call	_Unwind_Resume
 1276      00
 1277              	.LEHE34:
 1278              	.L78:
 1279 06c4 4889C7   		movq	%rax, %rdi
 1280 06c7 E8000000 		call	__cxa_begin_catch
 1280      00
 1281              	.LEHB35:
 1282 06cc E8000000 		call	_ZN8UnitTest11CurrentTest7DetailsEv
 1282      00
 1283 06d1 488B08   		movq	(%rax), %rcx
 1284 06d4 488D45C0 		leaq	-64(%rbp), %rax
 1285 06d8 BA310000 		movl	$49, %edx
 1285      00
 1286 06dd 4889CE   		movq	%rcx, %rsi
 1287 06e0 4889C7   		movq	%rax, %rdi
 1288 06e3 E8000000 		call	_ZN8UnitTest11TestDetailsC1ERKS0_i
 1288      00
  49:TestDeferredTestReporter.cpp ****     CHECK_EQUAL(1, (int)reporter.GetResults().size());
 1289              		.loc 3 49 0 is_stmt 0 discriminator 12
 1290 06e8 E8000000 		call	_ZN8UnitTest11CurrentTest7ResultsEv
 1290      00
 1291 06ed 488B00   		movq	(%rax), %rax
 1292 06f0 488D4DC0 		leaq	-64(%rbp), %rcx
 1293 06f4 BA000000 		movl	$.LC9, %edx
 1293      00
 1294 06f9 4889CE   		movq	%rcx, %rsi
 1295 06fc 4889C7   		movq	%rax, %rdi
 1296 06ff E8000000 		call	_ZN8UnitTest11TestResults13OnTestFailureERKNS_11TestDetailsEPKc
 1296      00
 1297              	.LEHE35:
 1298              	.LEHB36:
  49:TestDeferredTestReporter.cpp ****     CHECK_EQUAL(1, (int)reporter.GetResults().size());
 1299              		.loc 3 49 0 discriminator 16
 1300 0704 E8000000 		call	__cxa_end_catch
 1300      00
 1301              	.LEHE36:
 1302              	.L80:
 1303              		.loc 3 50 0 is_stmt 1
 1304 0709 90       		nop
 1305 070a 488B45E8 		movq	-24(%rbp), %rax
 1306 070e 64483304 		xorq	%fs:40, %rax
 1306      25280000 
 1306      00
 1307 0717 7405     		je	.L77
 1308 0719 E8000000 		call	__stack_chk_fail
 1308      00
 1309              	.L77:
 1310 071e 4883C458 		addq	$88, %rsp
 1311 0722 5B       		popq	%rbx
 1312 0723 5D       		popq	%rbp
 1313              		.cfi_def_cfa 7, 8
 1314 0724 C3       		ret
 1315              		.cfi_endproc
 1316              	.LFE1363:
 1317              		.section	.gcc_except_table
 1318              		.align 4
 1319              	.LLSDA1363:
 1320 009c FF       		.byte	0xff
 1321 009d 03       		.byte	0x3
 1322 009e 21       		.uleb128 .LLSDATT1363-.LLSDATTD1363
 1323              	.LLSDATTD1363:
 1324 009f 01       		.byte	0x1
 1325 00a0 19       		.uleb128 .LLSDACSE1363-.LLSDACSB1363
 1326              	.LLSDACSB1363:
 1327 00a1 2E       		.uleb128 .LEHB32-.LFB1363
 1328 00a2 05       		.uleb128 .LEHE32-.LEHB32
 1329 00a3 00       		.uleb128 0
 1330 00a4 00       		.uleb128 0
 1331 00a5 33       		.uleb128 .LEHB33-.LFB1363
 1332 00a6 56       		.uleb128 .LEHE33-.LEHB33
 1333 00a7 9E01     		.uleb128 .L78-.LFB1363
 1334 00a9 01       		.uleb128 0x1
 1335 00aa 9901     		.uleb128 .LEHB34-.LFB1363
 1336 00ac 05       		.uleb128 .LEHE34-.LEHB34
 1337 00ad 00       		.uleb128 0
 1338 00ae 00       		.uleb128 0
 1339 00af A601     		.uleb128 .LEHB35-.LFB1363
 1340 00b1 38       		.uleb128 .LEHE35-.LEHB35
 1341 00b2 8B01     		.uleb128 .L79-.LFB1363
 1342 00b4 00       		.uleb128 0
 1343 00b5 DE01     		.uleb128 .LEHB36-.LFB1363
 1344 00b7 05       		.uleb128 .LEHE36-.LEHB36
 1345 00b8 00       		.uleb128 0
 1346 00b9 00       		.uleb128 0
 1347              	.LLSDACSE1363:
 1348 00ba 01       		.byte	0x1
 1349 00bb 00       		.byte	0
 1350              		.align 4
 1351 00bc 00000000 		.long	0
 1352              	
 1353              	.LLSDATT1363:
 1354              		.text
 1356 0725 90       		.align 2
 1358              	_ZN8UnitTest12_GLOBAL__N_172DeferredTestReporterFixtureReportTestStartCapturesTestNameAndSuiteHelpe
 1359              	.LFB1365:
  51:TestDeferredTestReporter.cpp **** 
  52:TestDeferredTestReporter.cpp **** TEST_FIXTURE(DeferredTestReporterFixture, ReportTestStartCapturesTestNameAndSuite)
 1360              		.loc 3 52 0
 1361              		.cfi_startproc
 1362 0726 55       		pushq	%rbp
 1363              		.cfi_def_cfa_offset 16
 1364              		.cfi_offset 6, -16
 1365 0727 4889E5   		movq	%rsp, %rbp
 1366              		.cfi_def_cfa_register 6
 1367 072a 4883EC10 		subq	$16, %rsp
 1368 072e 48897DF8 		movq	%rdi, -8(%rbp)
 1369 0732 488975F0 		movq	%rsi, -16(%rbp)
 1370              	.LBB28:
 1371              		.loc 3 52 0
 1372 0736 488B45F8 		movq	-8(%rbp), %rax
 1373 073a 4889C7   		movq	%rax, %rdi
 1374 073d E8FCF8FF 		call	_ZN8UnitTest12_GLOBAL__N_127DeferredTestReporterFixtureC2Ev
 1374      FF
 1375 0742 488B45F8 		movq	-8(%rbp), %rax
 1376 0746 488B55F0 		movq	-16(%rbp), %rdx
 1377 074a 48895060 		movq	%rdx, 96(%rax)
 1378              	.LBE28:
 1379 074e C9       		leave
 1380              		.cfi_def_cfa 7, 8
 1381 074f C3       		ret
 1382              		.cfi_endproc
 1383              	.LFE1365:
 1385              		.section	.rodata
 1386 0181 00000000 		.align 8
 1386      000000
 1387              	.LC10:
 1388 0188 5265706F 		.string	"ReportTestStartCapturesTestNameAndSuite"
 1388      72745465 
 1388      73745374 
 1388      61727443 
 1388      61707475 
 1389              		.text
 1390              		.align 2
 1392              	_ZN8UnitTest12_GLOBAL__N_170TestDeferredTestReporterFixtureReportTestStartCapturesTestNameAndSuiteC
 1393              	.LFB1368:
 1394              		.loc 3 52 0
 1395              		.cfi_startproc
 1396 0750 55       		pushq	%rbp
 1397              		.cfi_def_cfa_offset 16
 1398              		.cfi_offset 6, -16
 1399 0751 4889E5   		movq	%rsp, %rbp
 1400              		.cfi_def_cfa_register 6
 1401 0754 4883EC10 		subq	$16, %rsp
 1402 0758 48897DF8 		movq	%rdi, -8(%rbp)
 1403              	.LBB29:
 1404              		.loc 3 52 0
 1405 075c E8000000 		call	_ZN13UnitTestSuite12GetSuiteNameEv
 1405      00
 1406 0761 4889C2   		movq	%rax, %rdx
 1407 0764 488B45F8 		movq	-8(%rbp), %rax
 1408 0768 41B83400 		movl	$52, %r8d
 1408      0000
 1409 076e B9000000 		movl	$.LC4, %ecx
 1409      00
 1410 0773 BE000000 		movl	$.LC10, %esi
 1410      00
 1411 0778 4889C7   		movq	%rax, %rdi
 1412 077b E8000000 		call	_ZN8UnitTest4TestC2EPKcS2_S2_i
 1412      00
 1413 0780 488B45F8 		movq	-8(%rbp), %rax
 1414 0784 48C70000 		movq	$_ZTVN8UnitTest12_GLOBAL__N_170TestDeferredTestReporterFixtureReportTestStartCapturesTestName
 1414      000000
 1415              	.LBE29:
 1416 078b C9       		leave
 1417              		.cfi_def_cfa 7, 8
 1418 078c C3       		ret
 1419              		.cfi_endproc
 1420              	.LFE1368:
 1422              		.local	_ZN8UnitTest12_GLOBAL__N_178testDeferredTestReporterFixtureReportTestStartCapturesTestNameA
 1423              		.comm	_ZN8UnitTest12_GLOBAL__N_178testDeferredTestReporterFixtureReportTestStartCapturesTestNameAn
 1424              		.local	_ZN8UnitTest12_GLOBAL__N_171adderDeferredTestReporterFixtureReportTestStartCapturesTestName
 1425              		.comm	_ZN8UnitTest12_GLOBAL__N_171adderDeferredTestReporterFixtureReportTestStartCapturesTestNameA
 1426 078d 90       		.align 2
 1428              	_ZN8UnitTest12_GLOBAL__N_172DeferredTestReporterFixtureReportTestStartCapturesTestNameAndSuiteHelpe
 1429              	.LFB1372:
 1430              		.loc 3 52 0
 1431              		.cfi_startproc
 1432 078e 55       		pushq	%rbp
 1433              		.cfi_def_cfa_offset 16
 1434              		.cfi_offset 6, -16
 1435 078f 4889E5   		movq	%rsp, %rbp
 1436              		.cfi_def_cfa_register 6
 1437 0792 4883EC10 		subq	$16, %rsp
 1438 0796 48897DF8 		movq	%rdi, -8(%rbp)
 1439              	.LBB30:
 1440              		.loc 3 52 0
 1441 079a 488B45F8 		movq	-8(%rbp), %rax
 1442 079e 4889C7   		movq	%rax, %rdi
 1443 07a1 E862FAFF 		call	_ZN8UnitTest12_GLOBAL__N_127DeferredTestReporterFixtureD2Ev
 1443      FF
 1444              	.LBE30:
 1445 07a6 C9       		leave
 1446              		.cfi_def_cfa 7, 8
 1447 07a7 C3       		ret
 1448              		.cfi_endproc
 1449              	.LFE1372:
 1451              		.align 2
 1453              	_ZNK8UnitTest12_GLOBAL__N_170TestDeferredTestReporterFixtureReportTestStartCapturesTestNameAndSuite
 1454              	.LFB1370:
 1455              		.loc 3 52 0
 1456              		.cfi_startproc
 1457              		.cfi_personality 0x3,__gxx_personality_v0
 1458              		.cfi_lsda 0x3,.LLSDA1370
 1459 07a8 55       		pushq	%rbp
 1460              		.cfi_def_cfa_offset 16
 1461              		.cfi_offset 6, -16
 1462 07a9 4889E5   		movq	%rsp, %rbp
 1463              		.cfi_def_cfa_register 6
 1464 07ac 4154     		pushq	%r12
 1465 07ae 53       		pushq	%rbx
 1466 07af 4881EC10 		subq	$528, %rsp
 1466      020000
 1467              		.cfi_offset 12, -24
 1468              		.cfi_offset 3, -32
 1469 07b6 4889BDE8 		movq	%rdi, -536(%rbp)
 1469      FDFFFF
 1470              		.loc 3 52 0
 1471 07bd 64488B04 		movq	%fs:40, %rax
 1471      25280000 
 1471      00
 1472 07c6 488945E8 		movq	%rax, -24(%rbp)
 1473 07ca 31C0     		xorl	%eax, %eax
 1474              	.LBB31:
 1475 07cc C685FFFD 		movb	$0, -513(%rbp)
 1475      FFFF00
 1476              	.LBB32:
 1477 07d3 488B85E8 		movq	-536(%rbp), %rax
 1477      FDFFFF
 1478 07da 488D5008 		leaq	8(%rax), %rdx
 1479 07de 488D8510 		leaq	-496(%rbp), %rax
 1479      FEFFFF
 1480 07e5 4889D6   		movq	%rdx, %rsi
 1481 07e8 4889C7   		movq	%rax, %rdi
 1482              	.LEHB37:
 1483 07eb E836FFFF 		call	_ZN8UnitTest12_GLOBAL__N_172DeferredTestReporterFixtureReportTestStartCapturesTestNameAndSuit
 1483      FF
 1484              	.LEHE37:
 1485              		.loc 3 52 0 is_stmt 0 discriminator 1
 1486 07f0 C685FFFD 		movb	$1, -513(%rbp)
 1486      FFFF01
 1487 07f7 488B85E8 		movq	-536(%rbp), %rax
 1487      FDFFFF
 1488 07fe 488D5008 		leaq	8(%rax), %rdx
 1489 0802 488D8510 		leaq	-496(%rbp), %rax
 1489      FEFFFF
 1490 0809 4889D6   		movq	%rdx, %rsi
 1491 080c 4889C7   		movq	%rax, %rdi
 1492              	.LEHB38:
 1493 080f E8F21C00 		call	_ZN8UnitTest11ExecuteTestINS_12_GLOBAL__N_172DeferredTestReporterFixtureReportTestStartCaptur
 1493      00
 1494              	.LEHE38:
 1495              		.loc 3 52 0 discriminator 3
 1496 0814 488D8510 		leaq	-496(%rbp), %rax
 1496      FEFFFF
 1497 081b 4889C7   		movq	%rax, %rdi
 1498              	.LEHB39:
 1499 081e E86BFFFF 		call	_ZN8UnitTest12_GLOBAL__N_172DeferredTestReporterFixtureReportTestStartCapturesTestNameAndSuit
 1499      FF
 1500              	.LEHE39:
 1501              	.LBE32:
 1502              	.LBE31:
 1503              		.loc 3 52 0
 1504 0823 E9640200 		jmp	.L106
 1504      00
 1505              	.L100:
 1506 0828 4989C4   		movq	%rax, %r12
 1507 082b 4889D3   		movq	%rdx, %rbx
 1508              	.LBB40:
 1509              	.LBB33:
 1510 082e 488D8510 		leaq	-496(%rbp), %rax
 1510      FEFFFF
 1511 0835 4889C7   		movq	%rax, %rdi
 1512 0838 E851FFFF 		call	_ZN8UnitTest12_GLOBAL__N_172DeferredTestReporterFixtureReportTestStartCapturesTestNameAndSuit
 1512      FF
 1513 083d 4C89E0   		movq	%r12, %rax
 1514 0840 4889DA   		movq	%rbx, %rdx
 1515 0843 EB00     		jmp	.L87
 1516              	.L99:
 1517              	.L87:
 1518 0845 4883FA01 		cmpq	$1, %rdx
 1519 0849 745C     		je	.L89
 1520 084b 4883FA02 		cmpq	$2, %rdx
 1521 084f 0F84F400 		je	.L90
 1521      0000
 1522 0855 E9980100 		jmp	.L105
 1522      00
 1523              	.L101:
 1524 085a 4889C3   		movq	%rax, %rbx
 1525              	.LBE33:
 1526              	.LBB34:
 1527 085d E8000000 		call	__cxa_end_catch
 1527      00
 1528 0862 4889D8   		movq	%rbx, %rax
 1529 0865 4889C7   		movq	%rax, %rdi
 1530              	.LEHB40:
 1531 0868 E8000000 		call	_Unwind_Resume
 1531      00
 1532              	.LEHE40:
 1533              	.L102:
 1534 086d 4889C3   		movq	%rax, %rbx
 1535              	.LBE34:
 1536              	.LBB35:
 1537              	.LBB36:
 1538 0870 488D8580 		leaq	-384(%rbp), %rax
 1538      FEFFFF
 1539 0877 4889C7   		movq	%rax, %rdi
 1540 087a E8000000 		call	_ZN8UnitTest15MemoryOutStreamD1Ev
 1540      00
 1541 087f EB03     		jmp	.L93
 1542              	.L103:
 1543 0881 4889C3   		movq	%rax, %rbx
 1544              	.L93:
 1545              	.LBE36:
 1546 0884 E8000000 		call	__cxa_end_catch
 1546      00
 1547 0889 4889D8   		movq	%rbx, %rax
 1548 088c 4889C7   		movq	%rax, %rdi
 1549              	.LEHB41:
 1550 088f E8000000 		call	_Unwind_Resume
 1550      00
 1551              	.LEHE41:
 1552              	.L104:
 1553 0894 4889C3   		movq	%rax, %rbx
 1554              	.LBE35:
 1555 0897 E8000000 		call	__cxa_end_catch
 1555      00
 1556 089c 4889D8   		movq	%rbx, %rax
 1557 089f 4889C7   		movq	%rax, %rdi
 1558              	.LEHB42:
 1559 08a2 E8000000 		call	_Unwind_Resume
 1559      00
 1560              	.LEHE42:
 1561              	.L89:
 1562              	.LBB38:
 1563 08a7 4889C7   		movq	%rax, %rdi
 1564 08aa E8000000 		call	__cxa_begin_catch
 1564      00
 1565 08af 48898500 		movq	%rax, -512(%rbp)
 1565      FEFFFF
 1566 08b6 488B8500 		movq	-512(%rbp), %rax
 1566      FEFFFF
 1567 08bd 488B00   		movq	(%rax), %rax
 1568 08c0 4883C010 		addq	$16, %rax
 1569 08c4 488B00   		movq	(%rax), %rax
 1570 08c7 488B9500 		movq	-512(%rbp), %rdx
 1570      FEFFFF
 1571 08ce 4889D7   		movq	%rdx, %rdi
 1572 08d1 FFD0     		call	*%rax
 1573 08d3 4889C3   		movq	%rax, %rbx
 1574 08d6 488B8500 		movq	-512(%rbp), %rax
 1574      FEFFFF
 1575 08dd 4889C7   		movq	%rax, %rdi
 1576              	.LEHB43:
 1577 08e0 E8000000 		call	_ZNK8UnitTest15AssertException10LineNumberEv
 1577      00
 1578 08e5 4189C4   		movl	%eax, %r12d
 1579 08e8 488B8500 		movq	-512(%rbp), %rax
 1579      FEFFFF
 1580 08ef 4889C7   		movq	%rax, %rdi
 1581 08f2 E8000000 		call	_ZNK8UnitTest15AssertException8FilenameEv
 1581      00
 1582              		.loc 3 52 0 discriminator 5
 1583 08f7 4889C1   		movq	%rax, %rcx
 1584 08fa 488B85E8 		movq	-536(%rbp), %rax
 1584      FDFFFF
 1585 0901 488B5008 		movq	8(%rax), %rdx
 1586 0905 488B85E8 		movq	-536(%rbp), %rax
 1586      FDFFFF
 1587 090c 488B7010 		movq	16(%rax), %rsi
 1588 0910 488D8510 		leaq	-496(%rbp), %rax
 1588      FEFFFF
 1589 0917 4589E0   		movl	%r12d, %r8d
 1590 091a 4889C7   		movq	%rax, %rdi
 1591 091d E8000000 		call	_ZN8UnitTest11TestDetailsC1EPKcS2_S2_i
 1591      00
 1592              		.loc 3 52 0 discriminator 9
 1593 0922 E8000000 		call	_ZN8UnitTest11CurrentTest7ResultsEv
 1593      00
 1594 0927 488B00   		movq	(%rax), %rax
 1595 092a 488D8D10 		leaq	-496(%rbp), %rcx
 1595      FEFFFF
 1596 0931 4889DA   		movq	%rbx, %rdx
 1597 0934 4889CE   		movq	%rcx, %rsi
 1598 0937 4889C7   		movq	%rax, %rdi
 1599 093a E8000000 		call	_ZN8UnitTest11TestResults13OnTestFailureERKNS_11TestDetailsEPKc
 1599      00
 1600              	.LEHE43:
 1601              		.loc 3 52 0 discriminator 13
 1602 093f E8000000 		call	__cxa_end_catch
 1602      00
 1603              	.LBE38:
 1604              	.LBE40:
 1605 0944 E9430100 		jmp	.L106
 1605      00
 1606              	.L90:
 1607              	.LBB41:
 1608              	.LBB39:
 1609              		.loc 3 52 0
 1610 0949 4889C7   		movq	%rax, %rdi
 1611 094c E8000000 		call	__cxa_begin_catch
 1611      00
 1612 0951 48898508 		movq	%rax, -504(%rbp)
 1612      FEFFFF
 1613              	.LBB37:
 1614 0958 488D8580 		leaq	-384(%rbp), %rax
 1614      FEFFFF
 1615 095f 4889C7   		movq	%rax, %rdi
 1616              	.LEHB44:
 1617 0962 E8000000 		call	_ZN8UnitTest15MemoryOutStreamC1Ev
 1617      00
 1618              	.LEHE44:
 1619              		.loc 3 52 0 discriminator 15
 1620 0967 488B8508 		movq	-504(%rbp), %rax
 1620      FEFFFF
 1621 096e 488B00   		movq	(%rax), %rax
 1622 0971 4883C010 		addq	$16, %rax
 1623 0975 488B00   		movq	(%rax), %rax
 1624 0978 488B9508 		movq	-504(%rbp), %rdx
 1624      FEFFFF
 1625 097f 4889D7   		movq	%rdx, %rdi
 1626 0982 FFD0     		call	*%rax
 1627 0984 4889C3   		movq	%rax, %rbx
 1628 0987 488D8580 		leaq	-384(%rbp), %rax
 1628      FEFFFF
 1629 098e BE000000 		movl	$.LC6, %esi
 1629      00
 1630 0993 4889C7   		movq	%rax, %rdi
 1631              	.LEHB45:
 1632 0996 E8000000 		call	_ZStlsISt11char_traitsIcEERSt13basic_ostreamIcT_ES5_PKc
 1632      00
 1633 099b 4889DE   		movq	%rbx, %rsi
 1634 099e 4889C7   		movq	%rax, %rdi
 1635 09a1 E8000000 		call	_ZStlsISt11char_traitsIcEERSt13basic_ostreamIcT_ES5_PKc
 1635      00
 1636              		.loc 3 52 0 discriminator 19
 1637 09a6 488D8580 		leaq	-384(%rbp), %rax
 1637      FEFFFF
 1638 09ad 4889C7   		movq	%rax, %rdi
 1639 09b0 E8000000 		call	_ZNK8UnitTest15MemoryOutStream7GetTextEv
 1639      00
 1640 09b5 4989C4   		movq	%rax, %r12
 1641 09b8 488B85E8 		movq	-536(%rbp), %rax
 1641      FDFFFF
 1642 09bf 488D5808 		leaq	8(%rax), %rbx
 1643 09c3 E8000000 		call	_ZN8UnitTest11CurrentTest7ResultsEv
 1643      00
 1644              		.loc 3 52 0 discriminator 21
 1645 09c8 488B00   		movq	(%rax), %rax
 1646 09cb 4C89E2   		movq	%r12, %rdx
 1647 09ce 4889DE   		movq	%rbx, %rsi
 1648 09d1 4889C7   		movq	%rax, %rdi
 1649 09d4 E8000000 		call	_ZN8UnitTest11TestResults13OnTestFailureERKNS_11TestDetailsEPKc
 1649      00
 1650              	.LEHE45:
 1651              		.loc 3 52 0 discriminator 25
 1652 09d9 488D8580 		leaq	-384(%rbp), %rax
 1652      FEFFFF
 1653 09e0 4889C7   		movq	%rax, %rdi
 1654              	.LEHB46:
 1655 09e3 E8000000 		call	_ZN8UnitTest15MemoryOutStreamD1Ev
 1655      00
 1656              	.LEHE46:
 1657              	.LBE37:
 1658              		.loc 3 52 0 discriminator 26
 1659 09e8 E8000000 		call	__cxa_end_catch
 1659      00
 1660              	.LBE39:
 1661              	.LBE41:
 1662 09ed E99A0000 		jmp	.L106
 1662      00
 1663              	.L105:
 1664              	.LBB42:
 1665              		.loc 3 52 0
 1666 09f2 4889C7   		movq	%rax, %rdi
 1667 09f5 E8000000 		call	__cxa_begin_catch
 1667      00
 1668 09fa 80BDFFFD 		cmpb	$0, -513(%rbp)
 1668      FFFF00
 1669 0a01 7443     		je	.L96
 1670              		.loc 3 52 0 discriminator 28
 1671 0a03 488B85E8 		movq	-536(%rbp), %rax
 1671      FDFFFF
 1672 0a0a 488D4808 		leaq	8(%rax), %rcx
 1673 0a0e 488D8510 		leaq	-496(%rbp), %rax
 1673      FEFFFF
 1674 0a15 BA340000 		movl	$52, %edx
 1674      00
 1675 0a1a 4889CE   		movq	%rcx, %rsi
 1676 0a1d 4889C7   		movq	%rax, %rdi
 1677              	.LEHB47:
 1678 0a20 E8000000 		call	_ZN8UnitTest11TestDetailsC1ERKS0_i
 1678      00
 1679              		.loc 3 52 0 discriminator 31
 1680 0a25 E8000000 		call	_ZN8UnitTest11CurrentTest7ResultsEv
 1680      00
 1681 0a2a 488B00   		movq	(%rax), %rax
 1682 0a2d 488D8D10 		leaq	-496(%rbp), %rcx
 1682      FEFFFF
 1683 0a34 BA000000 		movl	$.LC7, %edx
 1683      00
 1684 0a39 4889CE   		movq	%rcx, %rsi
 1685 0a3c 4889C7   		movq	%rax, %rdi
 1686 0a3f E8000000 		call	_ZN8UnitTest11TestResults13OnTestFailureERKNS_11TestDetailsEPKc
 1686      00
 1687 0a44 EB41     		jmp	.L97
 1688              	.L96:
 1689              		.loc 3 52 0 discriminator 29
 1690 0a46 488B85E8 		movq	-536(%rbp), %rax
 1690      FDFFFF
 1691 0a4d 488D4808 		leaq	8(%rax), %rcx
 1692 0a51 488D8510 		leaq	-496(%rbp), %rax
 1692      FEFFFF
 1693 0a58 BA340000 		movl	$52, %edx
 1693      00
 1694 0a5d 4889CE   		movq	%rcx, %rsi
 1695 0a60 4889C7   		movq	%rax, %rdi
 1696 0a63 E8000000 		call	_ZN8UnitTest11TestDetailsC1ERKS0_i
 1696      00
 1697              		.loc 3 52 0 discriminator 38
 1698 0a68 E8000000 		call	_ZN8UnitTest11CurrentTest7ResultsEv
 1698      00
 1699 0a6d 488B00   		movq	(%rax), %rax
 1700 0a70 488D8D10 		leaq	-496(%rbp), %rcx
 1700      FEFFFF
 1701 0a77 BA000000 		movl	$.LC8, %edx
 1701      00
 1702 0a7c 4889CE   		movq	%rcx, %rsi
 1703 0a7f 4889C7   		movq	%rax, %rdi
 1704 0a82 E8000000 		call	_ZN8UnitTest11TestResults13OnTestFailureERKNS_11TestDetailsEPKc
 1704      00
 1705              	.LEHE47:
 1706              	.L97:
 1707              	.LEHB48:
 1708              		.loc 3 52 0 discriminator 43
 1709 0a87 E8000000 		call	__cxa_end_catch
 1709      00
 1710              	.LEHE48:
 1711              	.L106:
 1712              	.LBE42:
 1713              		.loc 3 52 0
 1714 0a8c 90       		nop
 1715 0a8d 488B45E8 		movq	-24(%rbp), %rax
 1716 0a91 64483304 		xorq	%fs:40, %rax
 1716      25280000 
 1716      00
 1717 0a9a 7405     		je	.L98
 1718 0a9c E8000000 		call	__stack_chk_fail
 1718      00
 1719              	.L98:
 1720 0aa1 4881C410 		addq	$528, %rsp
 1720      020000
 1721 0aa8 5B       		popq	%rbx
 1722 0aa9 415C     		popq	%r12
 1723 0aab 5D       		popq	%rbp
 1724              		.cfi_def_cfa 7, 8
 1725 0aac C3       		ret
 1726              		.cfi_endproc
 1727              	.LFE1370:
 1728              		.section	.gcc_except_table
 1729              		.align 4
 1730              	.LLSDA1370:
 1731 00c0 FF       		.byte	0xff
 1732 00c1 03       		.byte	0x3
 1733 00c2 59       		.uleb128 .LLSDATT1370-.LLSDATTD1370
 1734              	.LLSDATTD1370:
 1735 00c3 01       		.byte	0x1
 1736 00c4 41       		.uleb128 .LLSDACSE1370-.LLSDACSB1370
 1737              	.LLSDACSB1370:
 1738 00c5 43       		.uleb128 .LEHB37-.LFB1370
 1739 00c6 05       		.uleb128 .LEHE37-.LEHB37
 1740 00c7 9D01     		.uleb128 .L99-.LFB1370
 1741 00c9 05       		.uleb128 0x5
 1742 00ca 67       		.uleb128 .LEHB38-.LFB1370
 1743 00cb 05       		.uleb128 .LEHE38-.LEHB38
 1744 00cc 8001     		.uleb128 .L100-.LFB1370
 1745 00ce 07       		.uleb128 0x7
 1746 00cf 76       		.uleb128 .LEHB39-.LFB1370
 1747 00d0 05       		.uleb128 .LEHE39-.LEHB39
 1748 00d1 9D01     		.uleb128 .L99-.LFB1370
 1749 00d3 05       		.uleb128 0x5
 1750 00d4 C001     		.uleb128 .LEHB40-.LFB1370
 1751 00d6 05       		.uleb128 .LEHE40-.LEHB40
 1752 00d7 00       		.uleb128 0
 1753 00d8 00       		.uleb128 0
 1754 00d9 E701     		.uleb128 .LEHB41-.LFB1370
 1755 00db 05       		.uleb128 .LEHE41-.LEHB41
 1756 00dc 00       		.uleb128 0
 1757 00dd 00       		.uleb128 0
 1758 00de FA01     		.uleb128 .LEHB42-.LFB1370
 1759 00e0 05       		.uleb128 .LEHE42-.LEHB42
 1760 00e1 00       		.uleb128 0
 1761 00e2 00       		.uleb128 0
 1762 00e3 B802     		.uleb128 .LEHB43-.LFB1370
 1763 00e5 5F       		.uleb128 .LEHE43-.LEHB43
 1764 00e6 B201     		.uleb128 .L101-.LFB1370
 1765 00e8 00       		.uleb128 0
 1766 00e9 BA03     		.uleb128 .LEHB44-.LFB1370
 1767 00eb 05       		.uleb128 .LEHE44-.LEHB44
 1768 00ec D901     		.uleb128 .L103-.LFB1370
 1769 00ee 00       		.uleb128 0
 1770 00ef EE03     		.uleb128 .LEHB45-.LFB1370
 1771 00f1 43       		.uleb128 .LEHE45-.LEHB45
 1772 00f2 C501     		.uleb128 .L102-.LFB1370
 1773 00f4 00       		.uleb128 0
 1774 00f5 BB04     		.uleb128 .LEHB46-.LFB1370
 1775 00f7 05       		.uleb128 .LEHE46-.LEHB46
 1776 00f8 D901     		.uleb128 .L103-.LFB1370
 1777 00fa 00       		.uleb128 0
 1778 00fb F804     		.uleb128 .LEHB47-.LFB1370
 1779 00fd 67       		.uleb128 .LEHE47-.LEHB47
 1780 00fe EC01     		.uleb128 .L104-.LFB1370
 1781 0100 00       		.uleb128 0
 1782 0101 DF05     		.uleb128 .LEHB48-.LFB1370
 1783 0103 05       		.uleb128 .LEHE48-.LEHB48
 1784 0104 00       		.uleb128 0
 1785 0105 00       		.uleb128 0
 1786              	.LLSDACSE1370:
 1787 0106 03       		.byte	0x3
 1788 0107 00       		.byte	0
 1789 0108 02       		.byte	0x2
 1790 0109 7D       		.byte	0x7d
 1791 010a 01       		.byte	0x1
 1792 010b 7D       		.byte	0x7d
 1793 010c 00       		.byte	0
 1794 010d 7D       		.byte	0x7d
 1795 010e 0000     		.align 4
 1796 0110 00000000 		.long	0
 1797              	
 1798 0114 00000000 		.long	_ZTISt9exception
 1799 0118 00000000 		.long	_ZTIN8UnitTest15AssertExceptionE
 1800              	.LLSDATT1370:
 1801              		.text
 1803              		.section	.rodata
 1804              		.align 8
 1805              	.LC11:
 1806 01b0 556E6861 		.string	"Unhandled exception in CHECK_EQUAL(testName.c_str(), result.testName)"
 1806      6E646C65 
 1806      64206578 
 1806      63657074 
 1806      696F6E20 
 1807 01f6 0000     		.align 8
 1808              	.LC12:
 1809 01f8 556E6861 		.string	"Unhandled exception in CHECK_EQUAL(testSuite.c_str(), result.suiteName)"
 1809      6E646C65 
 1809      64206578 
 1809      63657074 
 1809      696F6E20 
 1810              		.text
 1811 0aad 90       		.align 2
 1813              	_ZN8UnitTest12_GLOBAL__N_172DeferredTestReporterFixtureReportTestStartCapturesTestNameAndSuiteHelpe
 1814              	.LFB1374:
  53:TestDeferredTestReporter.cpp **** {
 1815              		.loc 3 53 0 is_stmt 1
 1816              		.cfi_startproc
 1817              		.cfi_personality 0x3,__gxx_personality_v0
 1818              		.cfi_lsda 0x3,.LLSDA1374
 1819 0aae 55       		pushq	%rbp
 1820              		.cfi_def_cfa_offset 16
 1821              		.cfi_offset 6, -16
 1822 0aaf 4889E5   		movq	%rsp, %rbp
 1823              		.cfi_def_cfa_register 6
 1824 0ab2 53       		pushq	%rbx
 1825 0ab3 4883EC58 		subq	$88, %rsp
 1826              		.cfi_offset 3, -24
 1827 0ab7 48897DA8 		movq	%rdi, -88(%rbp)
 1828              		.loc 3 53 0
 1829 0abb 64488B04 		movq	%fs:40, %rax
 1829      25280000 
 1829      00
 1830 0ac4 488945E8 		movq	%rax, -24(%rbp)
 1831 0ac8 31C0     		xorl	%eax, %eax
 1832              	.LBB43:
  54:TestDeferredTestReporter.cpp ****     reporter.ReportTestStart(details);
 1833              		.loc 3 54 0
 1834 0aca 488B45A8 		movq	-88(%rbp), %rax
 1835 0ace 488D5040 		leaq	64(%rax), %rdx
 1836 0ad2 488B45A8 		movq	-88(%rbp), %rax
 1837 0ad6 4889D6   		movq	%rdx, %rsi
 1838 0ad9 4889C7   		movq	%rax, %rdi
 1839              	.LEHB49:
 1840 0adc E8000000 		call	_ZN8UnitTest20DeferredTestReporter15ReportTestStartERKNS_11TestDetailsE
 1840      00
  55:TestDeferredTestReporter.cpp **** 
  56:TestDeferredTestReporter.cpp ****     DeferredTestResult const& result = reporter.GetResults().at(0);
 1841              		.loc 3 56 0
 1842 0ae1 488B45A8 		movq	-88(%rbp), %rax
 1843 0ae5 4889C7   		movq	%rax, %rdi
 1844 0ae8 E8000000 		call	_ZN8UnitTest20DeferredTestReporter10GetResultsEv
 1844      00
 1845 0aed BE000000 		movl	$0, %esi
 1845      00
 1846 0af2 4889C7   		movq	%rax, %rdi
 1847 0af5 E8000000 		call	_ZNSt6vectorIN8UnitTest18DeferredTestResultESaIS1_EE2atEm
 1847      00
 1848              	.LEHE49:
 1849 0afa 488945B8 		movq	%rax, -72(%rbp)
 1850              	.LEHB50:
  57:TestDeferredTestReporter.cpp ****     CHECK_EQUAL(testName.c_str(), result.testName);
 1851              		.loc 3 57 0
 1852 0afe E8000000 		call	_ZN8UnitTest11CurrentTest7DetailsEv
 1852      00
 1853 0b03 488B08   		movq	(%rax), %rcx
 1854 0b06 488D45C0 		leaq	-64(%rbp), %rax
 1855 0b0a BA390000 		movl	$57, %edx
 1855      00
 1856 0b0f 4889CE   		movq	%rcx, %rsi
 1857 0b12 4889C7   		movq	%rax, %rdi
 1858 0b15 E8000000 		call	_ZN8UnitTest11TestDetailsC1ERKS0_i
 1858      00
 1859              		.loc 3 57 0 is_stmt 0 discriminator 2
 1860 0b1a 488B45B8 		movq	-72(%rbp), %rax
 1861 0b1e 488D5808 		leaq	8(%rax), %rbx
 1862 0b22 488B45A8 		movq	-88(%rbp), %rax
 1863 0b26 4883C020 		addq	$32, %rax
 1864 0b2a 4889C7   		movq	%rax, %rdi
 1865 0b2d E8000000 		call	_ZNKSs5c_strEv
 1865      00
 1866 0b32 488945B0 		movq	%rax, -80(%rbp)
 1867 0b36 E8000000 		call	_ZN8UnitTest11CurrentTest7ResultsEv
 1867      00
 1868              		.loc 3 57 0 discriminator 4
 1869 0b3b 488B00   		movq	(%rax), %rax
 1870 0b3e 488D55C0 		leaq	-64(%rbp), %rdx
 1871 0b42 488D75B0 		leaq	-80(%rbp), %rsi
 1872 0b46 4889D1   		movq	%rdx, %rcx
 1873 0b49 4889DA   		movq	%rbx, %rdx
 1874 0b4c 4889C7   		movq	%rax, %rdi
 1875 0b4f E8000000 		call	_ZN8UnitTest10CheckEqualIPKcSsEEvRNS_11TestResultsERKT_RKT0_RKNS_11TestDetailsE
 1875      00
 1876              	.LEHE50:
 1877              	.L110:
 1878              	.LEHB51:
  58:TestDeferredTestReporter.cpp ****     CHECK_EQUAL(testSuite.c_str(), result.suiteName);
 1879              		.loc 3 58 0 is_stmt 1
 1880 0b54 E8000000 		call	_ZN8UnitTest11CurrentTest7DetailsEv
 1880      00
 1881 0b59 488B08   		movq	(%rax), %rcx
 1882 0b5c 488D45C0 		leaq	-64(%rbp), %rax
 1883 0b60 BA3A0000 		movl	$58, %edx
 1883      00
 1884 0b65 4889CE   		movq	%rcx, %rsi
 1885 0b68 4889C7   		movq	%rax, %rdi
 1886 0b6b E8000000 		call	_ZN8UnitTest11TestDetailsC1ERKS0_i
 1886      00
 1887              		.loc 3 58 0 is_stmt 0 discriminator 2
 1888 0b70 488B5DB8 		movq	-72(%rbp), %rbx
 1889 0b74 488B45A8 		movq	-88(%rbp), %rax
 1890 0b78 4883C028 		addq	$40, %rax
 1891 0b7c 4889C7   		movq	%rax, %rdi
 1892 0b7f E8000000 		call	_ZNKSs5c_strEv
 1892      00
 1893 0b84 488945B0 		movq	%rax, -80(%rbp)
 1894 0b88 E8000000 		call	_ZN8UnitTest11CurrentTest7ResultsEv
 1894      00
 1895              		.loc 3 58 0 discriminator 4
 1896 0b8d 488B00   		movq	(%rax), %rax
 1897 0b90 488D55C0 		leaq	-64(%rbp), %rdx
 1898 0b94 488D75B0 		leaq	-80(%rbp), %rsi
 1899 0b98 4889D1   		movq	%rdx, %rcx
 1900 0b9b 4889DA   		movq	%rbx, %rdx
 1901 0b9e 4889C7   		movq	%rax, %rdi
 1902 0ba1 E8000000 		call	_ZN8UnitTest10CheckEqualIPKcSsEEvRNS_11TestResultsERKT_RKT0_RKNS_11TestDetailsE
 1902      00
 1903              	.LEHE51:
 1904              	.LBE43:
  59:TestDeferredTestReporter.cpp **** }
 1905              		.loc 3 59 0 is_stmt 1
 1906 0ba6 E9B50000 		jmp	.L119
 1906      00
 1907              	.L116:
 1908 0bab 4889C3   		movq	%rax, %rbx
 1909              	.LBB44:
  57:TestDeferredTestReporter.cpp ****     CHECK_EQUAL(testName.c_str(), result.testName);
 1910              		.loc 3 57 0
 1911 0bae E8000000 		call	__cxa_end_catch
 1911      00
 1912 0bb3 4889D8   		movq	%rbx, %rax
 1913 0bb6 4889C7   		movq	%rax, %rdi
 1914              	.LEHB52:
 1915 0bb9 E8000000 		call	_Unwind_Resume
 1915      00
 1916              	.LEHE52:
 1917              	.L115:
 1918 0bbe 4889C7   		movq	%rax, %rdi
 1919 0bc1 E8000000 		call	__cxa_begin_catch
 1919      00
 1920              	.LEHB53:
 1921 0bc6 E8000000 		call	_ZN8UnitTest11CurrentTest7DetailsEv
 1921      00
 1922 0bcb 488B08   		movq	(%rax), %rcx
 1923 0bce 488D45C0 		leaq	-64(%rbp), %rax
 1924 0bd2 BA390000 		movl	$57, %edx
 1924      00
 1925 0bd7 4889CE   		movq	%rcx, %rsi
 1926 0bda 4889C7   		movq	%rax, %rdi
 1927 0bdd E8000000 		call	_ZN8UnitTest11TestDetailsC1ERKS0_i
 1927      00
  57:TestDeferredTestReporter.cpp ****     CHECK_EQUAL(testName.c_str(), result.testName);
 1928              		.loc 3 57 0 is_stmt 0 discriminator 12
 1929 0be2 E8000000 		call	_ZN8UnitTest11CurrentTest7ResultsEv
 1929      00
 1930 0be7 488B00   		movq	(%rax), %rax
 1931 0bea 488D4DC0 		leaq	-64(%rbp), %rcx
 1932 0bee BA000000 		movl	$.LC11, %edx
 1932      00
 1933 0bf3 4889CE   		movq	%rcx, %rsi
 1934 0bf6 4889C7   		movq	%rax, %rdi
 1935 0bf9 E8000000 		call	_ZN8UnitTest11TestResults13OnTestFailureERKNS_11TestDetailsEPKc
 1935      00
 1936              	.LEHE53:
 1937              	.LEHB54:
  57:TestDeferredTestReporter.cpp ****     CHECK_EQUAL(testName.c_str(), result.testName);
 1938              		.loc 3 57 0 discriminator 16
 1939 0bfe E8000000 		call	__cxa_end_catch
 1939      00
 1940              	.LEHE54:
 1941 0c03 E94CFFFF 		jmp	.L110
 1941      FF
 1942              	.L118:
 1943 0c08 4889C3   		movq	%rax, %rbx
  58:TestDeferredTestReporter.cpp ****     CHECK_EQUAL(testSuite.c_str(), result.suiteName);
 1944              		.loc 3 58 0 is_stmt 1
 1945 0c0b E8000000 		call	__cxa_end_catch
 1945      00
 1946 0c10 4889D8   		movq	%rbx, %rax
 1947 0c13 4889C7   		movq	%rax, %rdi
 1948              	.LEHB55:
 1949 0c16 E8000000 		call	_Unwind_Resume
 1949      00
 1950              	.LEHE55:
 1951              	.L117:
 1952 0c1b 4889C7   		movq	%rax, %rdi
 1953 0c1e E8000000 		call	__cxa_begin_catch
 1953      00
 1954              	.LEHB56:
 1955 0c23 E8000000 		call	_ZN8UnitTest11CurrentTest7DetailsEv
 1955      00
 1956 0c28 488B08   		movq	(%rax), %rcx
 1957 0c2b 488D45C0 		leaq	-64(%rbp), %rax
 1958 0c2f BA3A0000 		movl	$58, %edx
 1958      00
 1959 0c34 4889CE   		movq	%rcx, %rsi
 1960 0c37 4889C7   		movq	%rax, %rdi
 1961 0c3a E8000000 		call	_ZN8UnitTest11TestDetailsC1ERKS0_i
 1961      00
  58:TestDeferredTestReporter.cpp ****     CHECK_EQUAL(testSuite.c_str(), result.suiteName);
 1962              		.loc 3 58 0 is_stmt 0 discriminator 12
 1963 0c3f E8000000 		call	_ZN8UnitTest11CurrentTest7ResultsEv
 1963      00
 1964 0c44 488B00   		movq	(%rax), %rax
 1965 0c47 488D4DC0 		leaq	-64(%rbp), %rcx
 1966 0c4b BA000000 		movl	$.LC12, %edx
 1966      00
 1967 0c50 4889CE   		movq	%rcx, %rsi
 1968 0c53 4889C7   		movq	%rax, %rdi
 1969 0c56 E8000000 		call	_ZN8UnitTest11TestResults13OnTestFailureERKNS_11TestDetailsEPKc
 1969      00
 1970              	.LEHE56:
 1971              	.LEHB57:
  58:TestDeferredTestReporter.cpp ****     CHECK_EQUAL(testSuite.c_str(), result.suiteName);
 1972              		.loc 3 58 0 discriminator 16
 1973 0c5b E8000000 		call	__cxa_end_catch
 1973      00
 1974              	.LEHE57:
 1975              	.L119:
 1976              	.LBE44:
 1977              		.loc 3 59 0 is_stmt 1
 1978 0c60 90       		nop
 1979 0c61 488B45E8 		movq	-24(%rbp), %rax
 1980 0c65 64483304 		xorq	%fs:40, %rax
 1980      25280000 
 1980      00
 1981 0c6e 7405     		je	.L114
 1982 0c70 E8000000 		call	__stack_chk_fail
 1982      00
 1983              	.L114:
 1984 0c75 4883C458 		addq	$88, %rsp
 1985 0c79 5B       		popq	%rbx
 1986 0c7a 5D       		popq	%rbp
 1987              		.cfi_def_cfa 7, 8
 1988 0c7b C3       		ret
 1989              		.cfi_endproc
 1990              	.LFE1374:
 1991              		.section	.gcc_except_table
 1992              		.align 4
 1993              	.LLSDA1374:
 1994 011c FF       		.byte	0xff
 1995 011d 03       		.byte	0x3
 1996 011e 39       		.uleb128 .LLSDATT1374-.LLSDATTD1374
 1997              	.LLSDATTD1374:
 1998 011f 01       		.byte	0x1
 1999 0120 2F       		.uleb128 .LLSDACSE1374-.LLSDACSB1374
 2000              	.LLSDACSB1374:
 2001 0121 2E       		.uleb128 .LEHB49-.LFB1374
 2002 0122 1E       		.uleb128 .LEHE49-.LEHB49
 2003 0123 00       		.uleb128 0
 2004 0124 00       		.uleb128 0
 2005 0125 50       		.uleb128 .LEHB50-.LFB1374
 2006 0126 56       		.uleb128 .LEHE50-.LEHB50
 2007 0127 9002     		.uleb128 .L115-.LFB1374
 2008 0129 01       		.uleb128 0x1
 2009 012a A601     		.uleb128 .LEHB51-.LFB1374
 2010 012c 52       		.uleb128 .LEHE51-.LEHB51
 2011 012d ED02     		.uleb128 .L117-.LFB1374
 2012 012f 01       		.uleb128 0x1
 2013 0130 8B02     		.uleb128 .LEHB52-.LFB1374
 2014 0132 05       		.uleb128 .LEHE52-.LEHB52
 2015 0133 00       		.uleb128 0
 2016 0134 00       		.uleb128 0
 2017 0135 9802     		.uleb128 .LEHB53-.LFB1374
 2018 0137 38       		.uleb128 .LEHE53-.LEHB53
 2019 0138 FD01     		.uleb128 .L116-.LFB1374
 2020 013a 00       		.uleb128 0
 2021 013b D002     		.uleb128 .LEHB54-.LFB1374
 2022 013d 05       		.uleb128 .LEHE54-.LEHB54
 2023 013e 00       		.uleb128 0
 2024 013f 00       		.uleb128 0
 2025 0140 E802     		.uleb128 .LEHB55-.LFB1374
 2026 0142 05       		.uleb128 .LEHE55-.LEHB55
 2027 0143 00       		.uleb128 0
 2028 0144 00       		.uleb128 0
 2029 0145 F502     		.uleb128 .LEHB56-.LFB1374
 2030 0147 38       		.uleb128 .LEHE56-.LEHB56
 2031 0148 DA02     		.uleb128 .L118-.LFB1374
 2032 014a 00       		.uleb128 0
 2033 014b AD03     		.uleb128 .LEHB57-.LFB1374
 2034 014d 05       		.uleb128 .LEHE57-.LEHB57
 2035 014e 00       		.uleb128 0
 2036 014f 00       		.uleb128 0
 2037              	.LLSDACSE1374:
 2038 0150 01       		.byte	0x1
 2039 0151 00       		.byte	0
 2040 0152 0000     		.align 4
 2041 0154 00000000 		.long	0
 2042              	
 2043              	.LLSDATT1374:
 2044              		.text
 2046              		.align 2
 2048              	_ZN8UnitTest12_GLOBAL__N_162DeferredTestReporterFixtureReportTestEndCapturesTestTimeHelperC2ERKNS_1
 2049              	.LFB1376:
  60:TestDeferredTestReporter.cpp **** 
  61:TestDeferredTestReporter.cpp **** TEST_FIXTURE(DeferredTestReporterFixture, ReportTestEndCapturesTestTime)
 2050              		.loc 3 61 0
 2051              		.cfi_startproc
 2052 0c7c 55       		pushq	%rbp
 2053              		.cfi_def_cfa_offset 16
 2054              		.cfi_offset 6, -16
 2055 0c7d 4889E5   		movq	%rsp, %rbp
 2056              		.cfi_def_cfa_register 6
 2057 0c80 4883EC10 		subq	$16, %rsp
 2058 0c84 48897DF8 		movq	%rdi, -8(%rbp)
 2059 0c88 488975F0 		movq	%rsi, -16(%rbp)
 2060              	.LBB45:
 2061              		.loc 3 61 0
 2062 0c8c 488B45F8 		movq	-8(%rbp), %rax
 2063 0c90 4889C7   		movq	%rax, %rdi
 2064 0c93 E8A6F3FF 		call	_ZN8UnitTest12_GLOBAL__N_127DeferredTestReporterFixtureC2Ev
 2064      FF
 2065 0c98 488B45F8 		movq	-8(%rbp), %rax
 2066 0c9c 488B55F0 		movq	-16(%rbp), %rdx
 2067 0ca0 48895060 		movq	%rdx, 96(%rax)
 2068              	.LBE45:
 2069 0ca4 C9       		leave
 2070              		.cfi_def_cfa 7, 8
 2071 0ca5 C3       		ret
 2072              		.cfi_endproc
 2073              	.LFE1376:
 2075              		.section	.rodata
 2076              	.LC13:
 2077 0240 5265706F 		.string	"ReportTestEndCapturesTestTime"
 2077      72745465 
 2077      7374456E 
 2077      64436170 
 2077      74757265 
 2078              		.text
 2079              		.align 2
 2081              	_ZN8UnitTest12_GLOBAL__N_160TestDeferredTestReporterFixtureReportTestEndCapturesTestTimeC2Ev:
 2082              	.LFB1379:
 2083              		.loc 3 61 0
 2084              		.cfi_startproc
 2085 0ca6 55       		pushq	%rbp
 2086              		.cfi_def_cfa_offset 16
 2087              		.cfi_offset 6, -16
 2088 0ca7 4889E5   		movq	%rsp, %rbp
 2089              		.cfi_def_cfa_register 6
 2090 0caa 4883EC10 		subq	$16, %rsp
 2091 0cae 48897DF8 		movq	%rdi, -8(%rbp)
 2092              	.LBB46:
 2093              		.loc 3 61 0
 2094 0cb2 E8000000 		call	_ZN13UnitTestSuite12GetSuiteNameEv
 2094      00
 2095 0cb7 4889C2   		movq	%rax, %rdx
 2096 0cba 488B45F8 		movq	-8(%rbp), %rax
 2097 0cbe 41B83D00 		movl	$61, %r8d
 2097      0000
 2098 0cc4 B9000000 		movl	$.LC4, %ecx
 2098      00
 2099 0cc9 BE000000 		movl	$.LC13, %esi
 2099      00
 2100 0cce 4889C7   		movq	%rax, %rdi
 2101 0cd1 E8000000 		call	_ZN8UnitTest4TestC2EPKcS2_S2_i
 2101      00
 2102 0cd6 488B45F8 		movq	-8(%rbp), %rax
 2103 0cda 48C70000 		movq	$_ZTVN8UnitTest12_GLOBAL__N_160TestDeferredTestReporterFixtureReportTestEndCapturesTestTimeE+
 2103      000000
 2104              	.LBE46:
 2105 0ce1 C9       		leave
 2106              		.cfi_def_cfa 7, 8
 2107 0ce2 C3       		ret
 2108              		.cfi_endproc
 2109              	.LFE1379:
 2111              		.local	_ZN8UnitTest12_GLOBAL__N_168testDeferredTestReporterFixtureReportTestEndCapturesTestTimeIns
 2112              		.comm	_ZN8UnitTest12_GLOBAL__N_168testDeferredTestReporterFixtureReportTestEndCapturesTestTimeInst
 2113              		.local	_ZN8UnitTest12_GLOBAL__N_161adderDeferredTestReporterFixtureReportTestEndCapturesTestTimeE
 2114              		.comm	_ZN8UnitTest12_GLOBAL__N_161adderDeferredTestReporterFixtureReportTestEndCapturesTestTimeE,1
 2115 0ce3 90       		.align 2
 2117              	_ZN8UnitTest12_GLOBAL__N_162DeferredTestReporterFixtureReportTestEndCapturesTestTimeHelperD2Ev:
 2118              	.LFB1383:
 2119              		.loc 3 61 0
 2120              		.cfi_startproc
 2121 0ce4 55       		pushq	%rbp
 2122              		.cfi_def_cfa_offset 16
 2123              		.cfi_offset 6, -16
 2124 0ce5 4889E5   		movq	%rsp, %rbp
 2125              		.cfi_def_cfa_register 6
 2126 0ce8 4883EC10 		subq	$16, %rsp
 2127 0cec 48897DF8 		movq	%rdi, -8(%rbp)
 2128              	.LBB47:
 2129              		.loc 3 61 0
 2130 0cf0 488B45F8 		movq	-8(%rbp), %rax
 2131 0cf4 4889C7   		movq	%rax, %rdi
 2132 0cf7 E80CF5FF 		call	_ZN8UnitTest12_GLOBAL__N_127DeferredTestReporterFixtureD2Ev
 2132      FF
 2133              	.LBE47:
 2134 0cfc C9       		leave
 2135              		.cfi_def_cfa 7, 8
 2136 0cfd C3       		ret
 2137              		.cfi_endproc
 2138              	.LFE1383:
 2140              		.align 2
 2142              	_ZNK8UnitTest12_GLOBAL__N_160TestDeferredTestReporterFixtureReportTestEndCapturesTestTime7RunImplEv
 2143              	.LFB1381:
 2144              		.loc 3 61 0
 2145              		.cfi_startproc
 2146              		.cfi_personality 0x3,__gxx_personality_v0
 2147              		.cfi_lsda 0x3,.LLSDA1381
 2148 0cfe 55       		pushq	%rbp
 2149              		.cfi_def_cfa_offset 16
 2150              		.cfi_offset 6, -16
 2151 0cff 4889E5   		movq	%rsp, %rbp
 2152              		.cfi_def_cfa_register 6
 2153 0d02 4154     		pushq	%r12
 2154 0d04 53       		pushq	%rbx
 2155 0d05 4881EC10 		subq	$528, %rsp
 2155      020000
 2156              		.cfi_offset 12, -24
 2157              		.cfi_offset 3, -32
 2158 0d0c 4889BDE8 		movq	%rdi, -536(%rbp)
 2158      FDFFFF
 2159              		.loc 3 61 0
 2160 0d13 64488B04 		movq	%fs:40, %rax
 2160      25280000 
 2160      00
 2161 0d1c 488945E8 		movq	%rax, -24(%rbp)
 2162 0d20 31C0     		xorl	%eax, %eax
 2163              	.LBB48:
 2164 0d22 C685FFFD 		movb	$0, -513(%rbp)
 2164      FFFF00
 2165              	.LBB49:
 2166 0d29 488B85E8 		movq	-536(%rbp), %rax
 2166      FDFFFF
 2167 0d30 488D5008 		leaq	8(%rax), %rdx
 2168 0d34 488D8510 		leaq	-496(%rbp), %rax
 2168      FEFFFF
 2169 0d3b 4889D6   		movq	%rdx, %rsi
 2170 0d3e 4889C7   		movq	%rax, %rdi
 2171              	.LEHB58:
 2172 0d41 E836FFFF 		call	_ZN8UnitTest12_GLOBAL__N_162DeferredTestReporterFixtureReportTestEndCapturesTestTimeHelperC2E
 2172      FF
 2173              	.LEHE58:
 2174              		.loc 3 61 0 is_stmt 0 discriminator 1
 2175 0d46 C685FFFD 		movb	$1, -513(%rbp)
 2175      FFFF01
 2176 0d4d 488B85E8 		movq	-536(%rbp), %rax
 2176      FDFFFF
 2177 0d54 488D5008 		leaq	8(%rax), %rdx
 2178 0d58 488D8510 		leaq	-496(%rbp), %rax
 2178      FEFFFF
 2179 0d5f 4889D6   		movq	%rdx, %rsi
 2180 0d62 4889C7   		movq	%rax, %rdi
 2181              	.LEHB59:
 2182 0d65 E85A1A00 		call	_ZN8UnitTest11ExecuteTestINS_12_GLOBAL__N_162DeferredTestReporterFixtureReportTestEndCaptures
 2182      00
 2183              	.LEHE59:
 2184              		.loc 3 61 0 discriminator 3
 2185 0d6a 488D8510 		leaq	-496(%rbp), %rax
 2185      FEFFFF
 2186 0d71 4889C7   		movq	%rax, %rdi
 2187              	.LEHB60:
 2188 0d74 E86BFFFF 		call	_ZN8UnitTest12_GLOBAL__N_162DeferredTestReporterFixtureReportTestEndCapturesTestTimeHelperD2E
 2188      FF
 2189              	.LEHE60:
 2190              	.LBE49:
 2191              	.LBE48:
 2192              		.loc 3 61 0
 2193 0d79 E9640200 		jmp	.L145
 2193      00
 2194              	.L139:
 2195 0d7e 4989C4   		movq	%rax, %r12
 2196 0d81 4889D3   		movq	%rdx, %rbx
 2197              	.LBB57:
 2198              	.LBB50:
 2199 0d84 488D8510 		leaq	-496(%rbp), %rax
 2199      FEFFFF
 2200 0d8b 4889C7   		movq	%rax, %rdi
 2201 0d8e E851FFFF 		call	_ZN8UnitTest12_GLOBAL__N_162DeferredTestReporterFixtureReportTestEndCapturesTestTimeHelperD2E
 2201      FF
 2202 0d93 4C89E0   		movq	%r12, %rax
 2203 0d96 4889DA   		movq	%rbx, %rdx
 2204 0d99 EB00     		jmp	.L126
 2205              	.L138:
 2206              	.L126:
 2207 0d9b 4883FA01 		cmpq	$1, %rdx
 2208 0d9f 745C     		je	.L128
 2209 0da1 4883FA02 		cmpq	$2, %rdx
 2210 0da5 0F84F400 		je	.L129
 2210      0000
 2211 0dab E9980100 		jmp	.L144
 2211      00
 2212              	.L140:
 2213 0db0 4889C3   		movq	%rax, %rbx
 2214              	.LBE50:
 2215              	.LBB51:
 2216 0db3 E8000000 		call	__cxa_end_catch
 2216      00
 2217 0db8 4889D8   		movq	%rbx, %rax
 2218 0dbb 4889C7   		movq	%rax, %rdi
 2219              	.LEHB61:
 2220 0dbe E8000000 		call	_Unwind_Resume
 2220      00
 2221              	.LEHE61:
 2222              	.L141:
 2223 0dc3 4889C3   		movq	%rax, %rbx
 2224              	.LBE51:
 2225              	.LBB52:
 2226              	.LBB53:
 2227 0dc6 488D8580 		leaq	-384(%rbp), %rax
 2227      FEFFFF
 2228 0dcd 4889C7   		movq	%rax, %rdi
 2229 0dd0 E8000000 		call	_ZN8UnitTest15MemoryOutStreamD1Ev
 2229      00
 2230 0dd5 EB03     		jmp	.L132
 2231              	.L142:
 2232 0dd7 4889C3   		movq	%rax, %rbx
 2233              	.L132:
 2234              	.LBE53:
 2235 0dda E8000000 		call	__cxa_end_catch
 2235      00
 2236 0ddf 4889D8   		movq	%rbx, %rax
 2237 0de2 4889C7   		movq	%rax, %rdi
 2238              	.LEHB62:
 2239 0de5 E8000000 		call	_Unwind_Resume
 2239      00
 2240              	.LEHE62:
 2241              	.L143:
 2242 0dea 4889C3   		movq	%rax, %rbx
 2243              	.LBE52:
 2244 0ded E8000000 		call	__cxa_end_catch
 2244      00
 2245 0df2 4889D8   		movq	%rbx, %rax
 2246 0df5 4889C7   		movq	%rax, %rdi
 2247              	.LEHB63:
 2248 0df8 E8000000 		call	_Unwind_Resume
 2248      00
 2249              	.LEHE63:
 2250              	.L128:
 2251              	.LBB55:
 2252 0dfd 4889C7   		movq	%rax, %rdi
 2253 0e00 E8000000 		call	__cxa_begin_catch
 2253      00
 2254 0e05 48898500 		movq	%rax, -512(%rbp)
 2254      FEFFFF
 2255 0e0c 488B8500 		movq	-512(%rbp), %rax
 2255      FEFFFF
 2256 0e13 488B00   		movq	(%rax), %rax
 2257 0e16 4883C010 		addq	$16, %rax
 2258 0e1a 488B00   		movq	(%rax), %rax
 2259 0e1d 488B9500 		movq	-512(%rbp), %rdx
 2259      FEFFFF
 2260 0e24 4889D7   		movq	%rdx, %rdi
 2261 0e27 FFD0     		call	*%rax
 2262 0e29 4889C3   		movq	%rax, %rbx
 2263 0e2c 488B8500 		movq	-512(%rbp), %rax
 2263      FEFFFF
 2264 0e33 4889C7   		movq	%rax, %rdi
 2265              	.LEHB64:
 2266 0e36 E8000000 		call	_ZNK8UnitTest15AssertException10LineNumberEv
 2266      00
 2267 0e3b 4189C4   		movl	%eax, %r12d
 2268 0e3e 488B8500 		movq	-512(%rbp), %rax
 2268      FEFFFF
 2269 0e45 4889C7   		movq	%rax, %rdi
 2270 0e48 E8000000 		call	_ZNK8UnitTest15AssertException8FilenameEv
 2270      00
 2271              		.loc 3 61 0 discriminator 5
 2272 0e4d 4889C1   		movq	%rax, %rcx
 2273 0e50 488B85E8 		movq	-536(%rbp), %rax
 2273      FDFFFF
 2274 0e57 488B5008 		movq	8(%rax), %rdx
 2275 0e5b 488B85E8 		movq	-536(%rbp), %rax
 2275      FDFFFF
 2276 0e62 488B7010 		movq	16(%rax), %rsi
 2277 0e66 488D8510 		leaq	-496(%rbp), %rax
 2277      FEFFFF
 2278 0e6d 4589E0   		movl	%r12d, %r8d
 2279 0e70 4889C7   		movq	%rax, %rdi
 2280 0e73 E8000000 		call	_ZN8UnitTest11TestDetailsC1EPKcS2_S2_i
 2280      00
 2281              		.loc 3 61 0 discriminator 9
 2282 0e78 E8000000 		call	_ZN8UnitTest11CurrentTest7ResultsEv
 2282      00
 2283 0e7d 488B00   		movq	(%rax), %rax
 2284 0e80 488D8D10 		leaq	-496(%rbp), %rcx
 2284      FEFFFF
 2285 0e87 4889DA   		movq	%rbx, %rdx
 2286 0e8a 4889CE   		movq	%rcx, %rsi
 2287 0e8d 4889C7   		movq	%rax, %rdi
 2288 0e90 E8000000 		call	_ZN8UnitTest11TestResults13OnTestFailureERKNS_11TestDetailsEPKc
 2288      00
 2289              	.LEHE64:
 2290              		.loc 3 61 0 discriminator 13
 2291 0e95 E8000000 		call	__cxa_end_catch
 2291      00
 2292              	.LBE55:
 2293              	.LBE57:
 2294 0e9a E9430100 		jmp	.L145
 2294      00
 2295              	.L129:
 2296              	.LBB58:
 2297              	.LBB56:
 2298              		.loc 3 61 0
 2299 0e9f 4889C7   		movq	%rax, %rdi
 2300 0ea2 E8000000 		call	__cxa_begin_catch
 2300      00
 2301 0ea7 48898508 		movq	%rax, -504(%rbp)
 2301      FEFFFF
 2302              	.LBB54:
 2303 0eae 488D8580 		leaq	-384(%rbp), %rax
 2303      FEFFFF
 2304 0eb5 4889C7   		movq	%rax, %rdi
 2305              	.LEHB65:
 2306 0eb8 E8000000 		call	_ZN8UnitTest15MemoryOutStreamC1Ev
 2306      00
 2307              	.LEHE65:
 2308              		.loc 3 61 0 discriminator 15
 2309 0ebd 488B8508 		movq	-504(%rbp), %rax
 2309      FEFFFF
 2310 0ec4 488B00   		movq	(%rax), %rax
 2311 0ec7 4883C010 		addq	$16, %rax
 2312 0ecb 488B00   		movq	(%rax), %rax
 2313 0ece 488B9508 		movq	-504(%rbp), %rdx
 2313      FEFFFF
 2314 0ed5 4889D7   		movq	%rdx, %rdi
 2315 0ed8 FFD0     		call	*%rax
 2316 0eda 4889C3   		movq	%rax, %rbx
 2317 0edd 488D8580 		leaq	-384(%rbp), %rax
 2317      FEFFFF
 2318 0ee4 BE000000 		movl	$.LC6, %esi
 2318      00
 2319 0ee9 4889C7   		movq	%rax, %rdi
 2320              	.LEHB66:
 2321 0eec E8000000 		call	_ZStlsISt11char_traitsIcEERSt13basic_ostreamIcT_ES5_PKc
 2321      00
 2322 0ef1 4889DE   		movq	%rbx, %rsi
 2323 0ef4 4889C7   		movq	%rax, %rdi
 2324 0ef7 E8000000 		call	_ZStlsISt11char_traitsIcEERSt13basic_ostreamIcT_ES5_PKc
 2324      00
 2325              		.loc 3 61 0 discriminator 19
 2326 0efc 488D8580 		leaq	-384(%rbp), %rax
 2326      FEFFFF
 2327 0f03 4889C7   		movq	%rax, %rdi
 2328 0f06 E8000000 		call	_ZNK8UnitTest15MemoryOutStream7GetTextEv
 2328      00
 2329 0f0b 4989C4   		movq	%rax, %r12
 2330 0f0e 488B85E8 		movq	-536(%rbp), %rax
 2330      FDFFFF
 2331 0f15 488D5808 		leaq	8(%rax), %rbx
 2332 0f19 E8000000 		call	_ZN8UnitTest11CurrentTest7ResultsEv
 2332      00
 2333              		.loc 3 61 0 discriminator 21
 2334 0f1e 488B00   		movq	(%rax), %rax
 2335 0f21 4C89E2   		movq	%r12, %rdx
 2336 0f24 4889DE   		movq	%rbx, %rsi
 2337 0f27 4889C7   		movq	%rax, %rdi
 2338 0f2a E8000000 		call	_ZN8UnitTest11TestResults13OnTestFailureERKNS_11TestDetailsEPKc
 2338      00
 2339              	.LEHE66:
 2340              		.loc 3 61 0 discriminator 25
 2341 0f2f 488D8580 		leaq	-384(%rbp), %rax
 2341      FEFFFF
 2342 0f36 4889C7   		movq	%rax, %rdi
 2343              	.LEHB67:
 2344 0f39 E8000000 		call	_ZN8UnitTest15MemoryOutStreamD1Ev
 2344      00
 2345              	.LEHE67:
 2346              	.LBE54:
 2347              		.loc 3 61 0 discriminator 26
 2348 0f3e E8000000 		call	__cxa_end_catch
 2348      00
 2349              	.LBE56:
 2350              	.LBE58:
 2351 0f43 E99A0000 		jmp	.L145
 2351      00
 2352              	.L144:
 2353              	.LBB59:
 2354              		.loc 3 61 0
 2355 0f48 4889C7   		movq	%rax, %rdi
 2356 0f4b E8000000 		call	__cxa_begin_catch
 2356      00
 2357 0f50 80BDFFFD 		cmpb	$0, -513(%rbp)
 2357      FFFF00
 2358 0f57 7443     		je	.L135
 2359              		.loc 3 61 0 discriminator 28
 2360 0f59 488B85E8 		movq	-536(%rbp), %rax
 2360      FDFFFF
 2361 0f60 488D4808 		leaq	8(%rax), %rcx
 2362 0f64 488D8510 		leaq	-496(%rbp), %rax
 2362      FEFFFF
 2363 0f6b BA3D0000 		movl	$61, %edx
 2363      00
 2364 0f70 4889CE   		movq	%rcx, %rsi
 2365 0f73 4889C7   		movq	%rax, %rdi
 2366              	.LEHB68:
 2367 0f76 E8000000 		call	_ZN8UnitTest11TestDetailsC1ERKS0_i
 2367      00
 2368              		.loc 3 61 0 discriminator 31
 2369 0f7b E8000000 		call	_ZN8UnitTest11CurrentTest7ResultsEv
 2369      00
 2370 0f80 488B00   		movq	(%rax), %rax
 2371 0f83 488D8D10 		leaq	-496(%rbp), %rcx
 2371      FEFFFF
 2372 0f8a BA000000 		movl	$.LC7, %edx
 2372      00
 2373 0f8f 4889CE   		movq	%rcx, %rsi
 2374 0f92 4889C7   		movq	%rax, %rdi
 2375 0f95 E8000000 		call	_ZN8UnitTest11TestResults13OnTestFailureERKNS_11TestDetailsEPKc
 2375      00
 2376 0f9a EB41     		jmp	.L136
 2377              	.L135:
 2378              		.loc 3 61 0 discriminator 29
 2379 0f9c 488B85E8 		movq	-536(%rbp), %rax
 2379      FDFFFF
 2380 0fa3 488D4808 		leaq	8(%rax), %rcx
 2381 0fa7 488D8510 		leaq	-496(%rbp), %rax
 2381      FEFFFF
 2382 0fae BA3D0000 		movl	$61, %edx
 2382      00
 2383 0fb3 4889CE   		movq	%rcx, %rsi
 2384 0fb6 4889C7   		movq	%rax, %rdi
 2385 0fb9 E8000000 		call	_ZN8UnitTest11TestDetailsC1ERKS0_i
 2385      00
 2386              		.loc 3 61 0 discriminator 38
 2387 0fbe E8000000 		call	_ZN8UnitTest11CurrentTest7ResultsEv
 2387      00
 2388 0fc3 488B00   		movq	(%rax), %rax
 2389 0fc6 488D8D10 		leaq	-496(%rbp), %rcx
 2389      FEFFFF
 2390 0fcd BA000000 		movl	$.LC8, %edx
 2390      00
 2391 0fd2 4889CE   		movq	%rcx, %rsi
 2392 0fd5 4889C7   		movq	%rax, %rdi
 2393 0fd8 E8000000 		call	_ZN8UnitTest11TestResults13OnTestFailureERKNS_11TestDetailsEPKc
 2393      00
 2394              	.LEHE68:
 2395              	.L136:
 2396              	.LEHB69:
 2397              		.loc 3 61 0 discriminator 43
 2398 0fdd E8000000 		call	__cxa_end_catch
 2398      00
 2399              	.LEHE69:
 2400              	.L145:
 2401              	.LBE59:
 2402              		.loc 3 61 0
 2403 0fe2 90       		nop
 2404 0fe3 488B45E8 		movq	-24(%rbp), %rax
 2405 0fe7 64483304 		xorq	%fs:40, %rax
 2405      25280000 
 2405      00
 2406 0ff0 7405     		je	.L137
 2407 0ff2 E8000000 		call	__stack_chk_fail
 2407      00
 2408              	.L137:
 2409 0ff7 4881C410 		addq	$528, %rsp
 2409      020000
 2410 0ffe 5B       		popq	%rbx
 2411 0fff 415C     		popq	%r12
 2412 1001 5D       		popq	%rbp
 2413              		.cfi_def_cfa 7, 8
 2414 1002 C3       		ret
 2415              		.cfi_endproc
 2416              	.LFE1381:
 2417              		.section	.gcc_except_table
 2418              		.align 4
 2419              	.LLSDA1381:
 2420 0158 FF       		.byte	0xff
 2421 0159 03       		.byte	0x3
 2422 015a 59       		.uleb128 .LLSDATT1381-.LLSDATTD1381
 2423              	.LLSDATTD1381:
 2424 015b 01       		.byte	0x1
 2425 015c 41       		.uleb128 .LLSDACSE1381-.LLSDACSB1381
 2426              	.LLSDACSB1381:
 2427 015d 43       		.uleb128 .LEHB58-.LFB1381
 2428 015e 05       		.uleb128 .LEHE58-.LEHB58
 2429 015f 9D01     		.uleb128 .L138-.LFB1381
 2430 0161 05       		.uleb128 0x5
 2431 0162 67       		.uleb128 .LEHB59-.LFB1381
 2432 0163 05       		.uleb128 .LEHE59-.LEHB59
 2433 0164 8001     		.uleb128 .L139-.LFB1381
 2434 0166 07       		.uleb128 0x7
 2435 0167 76       		.uleb128 .LEHB60-.LFB1381
 2436 0168 05       		.uleb128 .LEHE60-.LEHB60
 2437 0169 9D01     		.uleb128 .L138-.LFB1381
 2438 016b 05       		.uleb128 0x5
 2439 016c C001     		.uleb128 .LEHB61-.LFB1381
 2440 016e 05       		.uleb128 .LEHE61-.LEHB61
 2441 016f 00       		.uleb128 0
 2442 0170 00       		.uleb128 0
 2443 0171 E701     		.uleb128 .LEHB62-.LFB1381
 2444 0173 05       		.uleb128 .LEHE62-.LEHB62
 2445 0174 00       		.uleb128 0
 2446 0175 00       		.uleb128 0
 2447 0176 FA01     		.uleb128 .LEHB63-.LFB1381
 2448 0178 05       		.uleb128 .LEHE63-.LEHB63
 2449 0179 00       		.uleb128 0
 2450 017a 00       		.uleb128 0
 2451 017b B802     		.uleb128 .LEHB64-.LFB1381
 2452 017d 5F       		.uleb128 .LEHE64-.LEHB64
 2453 017e B201     		.uleb128 .L140-.LFB1381
 2454 0180 00       		.uleb128 0
 2455 0181 BA03     		.uleb128 .LEHB65-.LFB1381
 2456 0183 05       		.uleb128 .LEHE65-.LEHB65
 2457 0184 D901     		.uleb128 .L142-.LFB1381
 2458 0186 00       		.uleb128 0
 2459 0187 EE03     		.uleb128 .LEHB66-.LFB1381
 2460 0189 43       		.uleb128 .LEHE66-.LEHB66
 2461 018a C501     		.uleb128 .L141-.LFB1381
 2462 018c 00       		.uleb128 0
 2463 018d BB04     		.uleb128 .LEHB67-.LFB1381
 2464 018f 05       		.uleb128 .LEHE67-.LEHB67
 2465 0190 D901     		.uleb128 .L142-.LFB1381
 2466 0192 00       		.uleb128 0
 2467 0193 F804     		.uleb128 .LEHB68-.LFB1381
 2468 0195 67       		.uleb128 .LEHE68-.LEHB68
 2469 0196 EC01     		.uleb128 .L143-.LFB1381
 2470 0198 00       		.uleb128 0
 2471 0199 DF05     		.uleb128 .LEHB69-.LFB1381
 2472 019b 05       		.uleb128 .LEHE69-.LEHB69
 2473 019c 00       		.uleb128 0
 2474 019d 00       		.uleb128 0
 2475              	.LLSDACSE1381:
 2476 019e 03       		.byte	0x3
 2477 019f 00       		.byte	0
 2478 01a0 02       		.byte	0x2
 2479 01a1 7D       		.byte	0x7d
 2480 01a2 01       		.byte	0x1
 2481 01a3 7D       		.byte	0x7d
 2482 01a4 00       		.byte	0
 2483 01a5 7D       		.byte	0x7d
 2484 01a6 0000     		.align 4
 2485 01a8 00000000 		.long	0
 2486              	
 2487 01ac 00000000 		.long	_ZTISt9exception
 2488 01b0 00000000 		.long	_ZTIN8UnitTest15AssertExceptionE
 2489              	.LLSDATT1381:
 2490              		.text
 2492              		.section	.rodata
 2493 025e 0000     		.align 8
 2494              	.LC16:
 2495 0260 556E6861 		.string	"Unhandled exception in CHECK_CLOSE(elapsed, result.timeElapsed)"
 2495      6E646C65 
 2495      64206578 
 2495      63657074 
 2495      696F6E20 
 2496              		.text
 2497 1003 90       		.align 2
 2499              	_ZN8UnitTest12_GLOBAL__N_162DeferredTestReporterFixtureReportTestEndCapturesTestTimeHelper7RunImplE
 2500              	.LFB1385:
  62:TestDeferredTestReporter.cpp **** {
 2501              		.loc 3 62 0 is_stmt 1
 2502              		.cfi_startproc
 2503              		.cfi_personality 0x3,__gxx_personality_v0
 2504              		.cfi_lsda 0x3,.LLSDA1385
 2505 1004 55       		pushq	%rbp
 2506              		.cfi_def_cfa_offset 16
 2507              		.cfi_offset 6, -16
 2508 1005 4889E5   		movq	%rsp, %rbp
 2509              		.cfi_def_cfa_register 6
 2510 1008 53       		pushq	%rbx
 2511 1009 4883EC58 		subq	$88, %rsp
 2512              		.cfi_offset 3, -24
 2513 100d 48897DA8 		movq	%rdi, -88(%rbp)
 2514              		.loc 3 62 0
 2515 1011 64488B04 		movq	%fs:40, %rax
 2515      25280000 
 2515      00
 2516 101a 488945E8 		movq	%rax, -24(%rbp)
 2517 101e 31C0     		xorl	%eax, %eax
 2518              	.LBB60:
  63:TestDeferredTestReporter.cpp ****     float const elapsed = 123.45f;
 2519              		.loc 3 63 0
 2520 1020 8B050000 		movl	.LC14(%rip), %eax
 2520      0000
 2521 1026 8945B0   		movl	%eax, -80(%rbp)
  64:TestDeferredTestReporter.cpp ****     reporter.ReportTestStart(details);
 2522              		.loc 3 64 0
 2523 1029 488B45A8 		movq	-88(%rbp), %rax
 2524 102d 488D5040 		leaq	64(%rax), %rdx
 2525 1031 488B45A8 		movq	-88(%rbp), %rax
 2526 1035 4889D6   		movq	%rdx, %rsi
 2527 1038 4889C7   		movq	%rax, %rdi
 2528              	.LEHB70:
 2529 103b E8000000 		call	_ZN8UnitTest20DeferredTestReporter15ReportTestStartERKNS_11TestDetailsE
 2529      00
  65:TestDeferredTestReporter.cpp ****     reporter.ReportTestFinish(details, elapsed);
 2530              		.loc 3 65 0
 2531 1040 488B45A8 		movq	-88(%rbp), %rax
 2532 1044 488D5040 		leaq	64(%rax), %rdx
 2533 1048 488B45A8 		movq	-88(%rbp), %rax
 2534 104c F30F1005 		movss	.LC14(%rip), %xmm0
 2534      00000000 
 2535 1054 4889D6   		movq	%rdx, %rsi
 2536 1057 4889C7   		movq	%rax, %rdi
 2537 105a E8000000 		call	_ZN8UnitTest20DeferredTestReporter16ReportTestFinishERKNS_11TestDetailsEf
 2537      00
  66:TestDeferredTestReporter.cpp **** 
  67:TestDeferredTestReporter.cpp ****     DeferredTestResult const& result = reporter.GetResults().at(0);
 2538              		.loc 3 67 0
 2539 105f 488B45A8 		movq	-88(%rbp), %rax
 2540 1063 4889C7   		movq	%rax, %rdi
 2541 1066 E8000000 		call	_ZN8UnitTest20DeferredTestReporter10GetResultsEv
 2541      00
 2542 106b BE000000 		movl	$0, %esi
 2542      00
 2543 1070 4889C7   		movq	%rax, %rdi
 2544 1073 E8000000 		call	_ZNSt6vectorIN8UnitTest18DeferredTestResultESaIS1_EE2atEm
 2544      00
 2545              	.LEHE70:
 2546 1078 488945B8 		movq	%rax, -72(%rbp)
 2547              	.LEHB71:
  68:TestDeferredTestReporter.cpp ****     CHECK_CLOSE(elapsed, result.timeElapsed, 0.0001f);
 2548              		.loc 3 68 0
 2549 107c E8000000 		call	_ZN8UnitTest11CurrentTest7DetailsEv
 2549      00
 2550 1081 488B08   		movq	(%rax), %rcx
 2551 1084 488D45C0 		leaq	-64(%rbp), %rax
 2552 1088 BA440000 		movl	$68, %edx
 2552      00
 2553 108d 4889CE   		movq	%rcx, %rsi
 2554 1090 4889C7   		movq	%rax, %rdi
 2555 1093 E8000000 		call	_ZN8UnitTest11TestDetailsC1ERKS0_i
 2555      00
 2556              		.loc 3 68 0 is_stmt 0 discriminator 2
 2557 1098 8B050000 		movl	.LC15(%rip), %eax
 2557      0000
 2558 109e 8945B4   		movl	%eax, -76(%rbp)
 2559 10a1 488B45B8 		movq	-72(%rbp), %rax
 2560 10a5 488D5830 		leaq	48(%rax), %rbx
 2561 10a9 E8000000 		call	_ZN8UnitTest11CurrentTest7ResultsEv
 2561      00
 2562 10ae 488B00   		movq	(%rax), %rax
 2563 10b1 488D4DC0 		leaq	-64(%rbp), %rcx
 2564 10b5 488D55B4 		leaq	-76(%rbp), %rdx
 2565 10b9 488D75B0 		leaq	-80(%rbp), %rsi
 2566 10bd 4989C8   		movq	%rcx, %r8
 2567 10c0 4889D1   		movq	%rdx, %rcx
 2568 10c3 4889DA   		movq	%rbx, %rdx
 2569 10c6 4889C7   		movq	%rax, %rdi
 2570 10c9 E8000000 		call	_ZN8UnitTest10CheckCloseIfffEEvRNS_11TestResultsERKT_RKT0_RKT1_RKNS_11TestDetailsE
 2570      00
 2571              	.LEHE71:
 2572              	.LBE60:
  69:TestDeferredTestReporter.cpp **** }
 2573              		.loc 3 69 0 is_stmt 1
 2574 10ce EB58     		jmp	.L153
 2575              	.L152:
 2576 10d0 4889C3   		movq	%rax, %rbx
 2577              	.LBB61:
  68:TestDeferredTestReporter.cpp ****     CHECK_CLOSE(elapsed, result.timeElapsed, 0.0001f);
 2578              		.loc 3 68 0
 2579 10d3 E8000000 		call	__cxa_end_catch
 2579      00
 2580 10d8 4889D8   		movq	%rbx, %rax
 2581 10db 4889C7   		movq	%rax, %rdi
 2582              	.LEHB72:
 2583 10de E8000000 		call	_Unwind_Resume
 2583      00
 2584              	.LEHE72:
 2585              	.L151:
 2586 10e3 4889C7   		movq	%rax, %rdi
 2587 10e6 E8000000 		call	__cxa_begin_catch
 2587      00
 2588              	.LEHB73:
 2589 10eb E8000000 		call	_ZN8UnitTest11CurrentTest7DetailsEv
 2589      00
 2590 10f0 488B08   		movq	(%rax), %rcx
 2591 10f3 488D45C0 		leaq	-64(%rbp), %rax
 2592 10f7 BA440000 		movl	$68, %edx
 2592      00
 2593 10fc 4889CE   		movq	%rcx, %rsi
 2594 10ff 4889C7   		movq	%rax, %rdi
 2595 1102 E8000000 		call	_ZN8UnitTest11TestDetailsC1ERKS0_i
 2595      00
  68:TestDeferredTestReporter.cpp ****     CHECK_CLOSE(elapsed, result.timeElapsed, 0.0001f);
 2596              		.loc 3 68 0 is_stmt 0 discriminator 10
 2597 1107 E8000000 		call	_ZN8UnitTest11CurrentTest7ResultsEv
 2597      00
 2598 110c 488B00   		movq	(%rax), %rax
 2599 110f 488D4DC0 		leaq	-64(%rbp), %rcx
 2600 1113 BA000000 		movl	$.LC16, %edx
 2600      00
 2601 1118 4889CE   		movq	%rcx, %rsi
 2602 111b 4889C7   		movq	%rax, %rdi
 2603 111e E8000000 		call	_ZN8UnitTest11TestResults13OnTestFailureERKNS_11TestDetailsEPKc
 2603      00
 2604              	.LEHE73:
 2605              	.LEHB74:
  68:TestDeferredTestReporter.cpp ****     CHECK_CLOSE(elapsed, result.timeElapsed, 0.0001f);
 2606              		.loc 3 68 0 discriminator 14
 2607 1123 E8000000 		call	__cxa_end_catch
 2607      00
 2608              	.LEHE74:
 2609              	.L153:
 2610              	.LBE61:
 2611              		.loc 3 69 0 is_stmt 1
 2612 1128 90       		nop
 2613 1129 488B45E8 		movq	-24(%rbp), %rax
 2614 112d 64483304 		xorq	%fs:40, %rax
 2614      25280000 
 2614      00
 2615 1136 7405     		je	.L150
 2616 1138 E8000000 		call	__stack_chk_fail
 2616      00
 2617              	.L150:
 2618 113d 4883C458 		addq	$88, %rsp
 2619 1141 5B       		popq	%rbx
 2620 1142 5D       		popq	%rbp
 2621              		.cfi_def_cfa 7, 8
 2622 1143 C3       		ret
 2623              		.cfi_endproc
 2624              	.LFE1385:
 2625              		.section	.gcc_except_table
 2626              		.align 4
 2627              	.LLSDA1385:
 2628 01b4 FF       		.byte	0xff
 2629 01b5 03       		.byte	0x3
 2630 01b6 21       		.uleb128 .LLSDATT1385-.LLSDATTD1385
 2631              	.LLSDATTD1385:
 2632 01b7 01       		.byte	0x1
 2633 01b8 19       		.uleb128 .LLSDACSE1385-.LLSDACSB1385
 2634              	.LLSDACSB1385:
 2635 01b9 37       		.uleb128 .LEHB70-.LFB1385
 2636 01ba 3D       		.uleb128 .LEHE70-.LEHB70
 2637 01bb 00       		.uleb128 0
 2638 01bc 00       		.uleb128 0
 2639 01bd 78       		.uleb128 .LEHB71-.LFB1385
 2640 01be 52       		.uleb128 .LEHE71-.LEHB71
 2641 01bf DF01     		.uleb128 .L151-.LFB1385
 2642 01c1 01       		.uleb128 0x1
 2643 01c2 DA01     		.uleb128 .LEHB72-.LFB1385
 2644 01c4 05       		.uleb128 .LEHE72-.LEHB72
 2645 01c5 00       		.uleb128 0
 2646 01c6 00       		.uleb128 0
 2647 01c7 E701     		.uleb128 .LEHB73-.LFB1385
 2648 01c9 38       		.uleb128 .LEHE73-.LEHB73
 2649 01ca CC01     		.uleb128 .L152-.LFB1385
 2650 01cc 00       		.uleb128 0
 2651 01cd 9F02     		.uleb128 .LEHB74-.LFB1385
 2652 01cf 05       		.uleb128 .LEHE74-.LEHB74
 2653 01d0 00       		.uleb128 0
 2654 01d1 00       		.uleb128 0
 2655              	.LLSDACSE1385:
 2656 01d2 01       		.byte	0x1
 2657 01d3 00       		.byte	0
 2658              		.align 4
 2659 01d4 00000000 		.long	0
 2660              	
 2661              	.LLSDATT1385:
 2662              		.text
 2664              		.align 2
 2666              	_ZN8UnitTest12_GLOBAL__N_165DeferredTestReporterFixtureReportFailureSavesFailureDetailsHelperC2ERKN
 2667              	.LFB1387:
  70:TestDeferredTestReporter.cpp **** 
  71:TestDeferredTestReporter.cpp **** TEST_FIXTURE(DeferredTestReporterFixture, ReportFailureSavesFailureDetails)
 2668              		.loc 3 71 0
 2669              		.cfi_startproc
 2670 1144 55       		pushq	%rbp
 2671              		.cfi_def_cfa_offset 16
 2672              		.cfi_offset 6, -16
 2673 1145 4889E5   		movq	%rsp, %rbp
 2674              		.cfi_def_cfa_register 6
 2675 1148 4883EC10 		subq	$16, %rsp
 2676 114c 48897DF8 		movq	%rdi, -8(%rbp)
 2677 1150 488975F0 		movq	%rsi, -16(%rbp)
 2678              	.LBB62:
 2679              		.loc 3 71 0
 2680 1154 488B45F8 		movq	-8(%rbp), %rax
 2681 1158 4889C7   		movq	%rax, %rdi
 2682 115b E8DEEEFF 		call	_ZN8UnitTest12_GLOBAL__N_127DeferredTestReporterFixtureC2Ev
 2682      FF
 2683 1160 488B45F8 		movq	-8(%rbp), %rax
 2684 1164 488B55F0 		movq	-16(%rbp), %rdx
 2685 1168 48895060 		movq	%rdx, 96(%rax)
 2686              	.LBE62:
 2687 116c C9       		leave
 2688              		.cfi_def_cfa 7, 8
 2689 116d C3       		ret
 2690              		.cfi_endproc
 2691              	.LFE1387:
 2693              		.section	.rodata
 2694              		.align 8
 2695              	.LC17:
 2696 02a0 5265706F 		.string	"ReportFailureSavesFailureDetails"
 2696      72744661 
 2696      696C7572 
 2696      65536176 
 2696      65734661 
 2697              		.text
 2698              		.align 2
 2700              	_ZN8UnitTest12_GLOBAL__N_163TestDeferredTestReporterFixtureReportFailureSavesFailureDetailsC2Ev:
 2701              	.LFB1390:
 2702              		.loc 3 71 0
 2703              		.cfi_startproc
 2704 116e 55       		pushq	%rbp
 2705              		.cfi_def_cfa_offset 16
 2706              		.cfi_offset 6, -16
 2707 116f 4889E5   		movq	%rsp, %rbp
 2708              		.cfi_def_cfa_register 6
 2709 1172 4883EC10 		subq	$16, %rsp
 2710 1176 48897DF8 		movq	%rdi, -8(%rbp)
 2711              	.LBB63:
 2712              		.loc 3 71 0
 2713 117a E8000000 		call	_ZN13UnitTestSuite12GetSuiteNameEv
 2713      00
 2714 117f 4889C2   		movq	%rax, %rdx
 2715 1182 488B45F8 		movq	-8(%rbp), %rax
 2716 1186 41B84700 		movl	$71, %r8d
 2716      0000
 2717 118c B9000000 		movl	$.LC4, %ecx
 2717      00
 2718 1191 BE000000 		movl	$.LC17, %esi
 2718      00
 2719 1196 4889C7   		movq	%rax, %rdi
 2720 1199 E8000000 		call	_ZN8UnitTest4TestC2EPKcS2_S2_i
 2720      00
 2721 119e 488B45F8 		movq	-8(%rbp), %rax
 2722 11a2 48C70000 		movq	$_ZTVN8UnitTest12_GLOBAL__N_163TestDeferredTestReporterFixtureReportFailureSavesFailureDetail
 2722      000000
 2723              	.LBE63:
 2724 11a9 C9       		leave
 2725              		.cfi_def_cfa 7, 8
 2726 11aa C3       		ret
 2727              		.cfi_endproc
 2728              	.LFE1390:
 2730              		.local	_ZN8UnitTest12_GLOBAL__N_171testDeferredTestReporterFixtureReportFailureSavesFailureDetails
 2731              		.comm	_ZN8UnitTest12_GLOBAL__N_171testDeferredTestReporterFixtureReportFailureSavesFailureDetailsI
 2732              		.local	_ZN8UnitTest12_GLOBAL__N_164adderDeferredTestReporterFixtureReportFailureSavesFailureDetail
 2733              		.comm	_ZN8UnitTest12_GLOBAL__N_164adderDeferredTestReporterFixtureReportFailureSavesFailureDetails
 2734 11ab 90       		.align 2
 2736              	_ZN8UnitTest12_GLOBAL__N_165DeferredTestReporterFixtureReportFailureSavesFailureDetailsHelperD2Ev:
 2737              	.LFB1394:
 2738              		.loc 3 71 0
 2739              		.cfi_startproc
 2740 11ac 55       		pushq	%rbp
 2741              		.cfi_def_cfa_offset 16
 2742              		.cfi_offset 6, -16
 2743 11ad 4889E5   		movq	%rsp, %rbp
 2744              		.cfi_def_cfa_register 6
 2745 11b0 4883EC10 		subq	$16, %rsp
 2746 11b4 48897DF8 		movq	%rdi, -8(%rbp)
 2747              	.LBB64:
 2748              		.loc 3 71 0
 2749 11b8 488B45F8 		movq	-8(%rbp), %rax
 2750 11bc 4889C7   		movq	%rax, %rdi
 2751 11bf E844F0FF 		call	_ZN8UnitTest12_GLOBAL__N_127DeferredTestReporterFixtureD2Ev
 2751      FF
 2752              	.LBE64:
 2753 11c4 C9       		leave
 2754              		.cfi_def_cfa 7, 8
 2755 11c5 C3       		ret
 2756              		.cfi_endproc
 2757              	.LFE1394:
 2759              		.align 2
 2761              	_ZNK8UnitTest12_GLOBAL__N_163TestDeferredTestReporterFixtureReportFailureSavesFailureDetails7RunImp
 2762              	.LFB1392:
 2763              		.loc 3 71 0
 2764              		.cfi_startproc
 2765              		.cfi_personality 0x3,__gxx_personality_v0
 2766              		.cfi_lsda 0x3,.LLSDA1392
 2767 11c6 55       		pushq	%rbp
 2768              		.cfi_def_cfa_offset 16
 2769              		.cfi_offset 6, -16
 2770 11c7 4889E5   		movq	%rsp, %rbp
 2771              		.cfi_def_cfa_register 6
 2772 11ca 4154     		pushq	%r12
 2773 11cc 53       		pushq	%rbx
 2774 11cd 4881EC10 		subq	$528, %rsp
 2774      020000
 2775              		.cfi_offset 12, -24
 2776              		.cfi_offset 3, -32
 2777 11d4 4889BDE8 		movq	%rdi, -536(%rbp)
 2777      FDFFFF
 2778              		.loc 3 71 0
 2779 11db 64488B04 		movq	%fs:40, %rax
 2779      25280000 
 2779      00
 2780 11e4 488945E8 		movq	%rax, -24(%rbp)
 2781 11e8 31C0     		xorl	%eax, %eax
 2782              	.LBB65:
 2783 11ea C685FFFD 		movb	$0, -513(%rbp)
 2783      FFFF00
 2784              	.LBB66:
 2785 11f1 488B85E8 		movq	-536(%rbp), %rax
 2785      FDFFFF
 2786 11f8 488D5008 		leaq	8(%rax), %rdx
 2787 11fc 488D8510 		leaq	-496(%rbp), %rax
 2787      FEFFFF
 2788 1203 4889D6   		movq	%rdx, %rsi
 2789 1206 4889C7   		movq	%rax, %rdi
 2790              	.LEHB75:
 2791 1209 E836FFFF 		call	_ZN8UnitTest12_GLOBAL__N_165DeferredTestReporterFixtureReportFailureSavesFailureDetailsHelper
 2791      FF
 2792              	.LEHE75:
 2793              		.loc 3 71 0 is_stmt 0 discriminator 1
 2794 120e C685FFFD 		movb	$1, -513(%rbp)
 2794      FFFF01
 2795 1215 488B85E8 		movq	-536(%rbp), %rax
 2795      FDFFFF
 2796 121c 488D5008 		leaq	8(%rax), %rdx
 2797 1220 488D8510 		leaq	-496(%rbp), %rax
 2797      FEFFFF
 2798 1227 4889D6   		movq	%rdx, %rsi
 2799 122a 4889C7   		movq	%rax, %rdi
 2800              	.LEHB76:
 2801 122d E8501800 		call	_ZN8UnitTest11ExecuteTestINS_12_GLOBAL__N_165DeferredTestReporterFixtureReportFailureSavesFai
 2801      00
 2802              	.LEHE76:
 2803              		.loc 3 71 0 discriminator 3
 2804 1232 488D8510 		leaq	-496(%rbp), %rax
 2804      FEFFFF
 2805 1239 4889C7   		movq	%rax, %rdi
 2806              	.LEHB77:
 2807 123c E86BFFFF 		call	_ZN8UnitTest12_GLOBAL__N_165DeferredTestReporterFixtureReportFailureSavesFailureDetailsHelper
 2807      FF
 2808              	.LEHE77:
 2809              	.LBE66:
 2810              	.LBE65:
 2811              		.loc 3 71 0
 2812 1241 E9640200 		jmp	.L179
 2812      00
 2813              	.L173:
 2814 1246 4989C4   		movq	%rax, %r12
 2815 1249 4889D3   		movq	%rdx, %rbx
 2816              	.LBB74:
 2817              	.LBB67:
 2818 124c 488D8510 		leaq	-496(%rbp), %rax
 2818      FEFFFF
 2819 1253 4889C7   		movq	%rax, %rdi
 2820 1256 E851FFFF 		call	_ZN8UnitTest12_GLOBAL__N_165DeferredTestReporterFixtureReportFailureSavesFailureDetailsHelper
 2820      FF
 2821 125b 4C89E0   		movq	%r12, %rax
 2822 125e 4889DA   		movq	%rbx, %rdx
 2823 1261 EB00     		jmp	.L160
 2824              	.L172:
 2825              	.L160:
 2826 1263 4883FA01 		cmpq	$1, %rdx
 2827 1267 745C     		je	.L162
 2828 1269 4883FA02 		cmpq	$2, %rdx
 2829 126d 0F84F400 		je	.L163
 2829      0000
 2830 1273 E9980100 		jmp	.L178
 2830      00
 2831              	.L174:
 2832 1278 4889C3   		movq	%rax, %rbx
 2833              	.LBE67:
 2834              	.LBB68:
 2835 127b E8000000 		call	__cxa_end_catch
 2835      00
 2836 1280 4889D8   		movq	%rbx, %rax
 2837 1283 4889C7   		movq	%rax, %rdi
 2838              	.LEHB78:
 2839 1286 E8000000 		call	_Unwind_Resume
 2839      00
 2840              	.LEHE78:
 2841              	.L175:
 2842 128b 4889C3   		movq	%rax, %rbx
 2843              	.LBE68:
 2844              	.LBB69:
 2845              	.LBB70:
 2846 128e 488D8580 		leaq	-384(%rbp), %rax
 2846      FEFFFF
 2847 1295 4889C7   		movq	%rax, %rdi
 2848 1298 E8000000 		call	_ZN8UnitTest15MemoryOutStreamD1Ev
 2848      00
 2849 129d EB03     		jmp	.L166
 2850              	.L176:
 2851 129f 4889C3   		movq	%rax, %rbx
 2852              	.L166:
 2853              	.LBE70:
 2854 12a2 E8000000 		call	__cxa_end_catch
 2854      00
 2855 12a7 4889D8   		movq	%rbx, %rax
 2856 12aa 4889C7   		movq	%rax, %rdi
 2857              	.LEHB79:
 2858 12ad E8000000 		call	_Unwind_Resume
 2858      00
 2859              	.LEHE79:
 2860              	.L177:
 2861 12b2 4889C3   		movq	%rax, %rbx
 2862              	.LBE69:
 2863 12b5 E8000000 		call	__cxa_end_catch
 2863      00
 2864 12ba 4889D8   		movq	%rbx, %rax
 2865 12bd 4889C7   		movq	%rax, %rdi
 2866              	.LEHB80:
 2867 12c0 E8000000 		call	_Unwind_Resume
 2867      00
 2868              	.LEHE80:
 2869              	.L162:
 2870              	.LBB72:
 2871 12c5 4889C7   		movq	%rax, %rdi
 2872 12c8 E8000000 		call	__cxa_begin_catch
 2872      00
 2873 12cd 48898500 		movq	%rax, -512(%rbp)
 2873      FEFFFF
 2874 12d4 488B8500 		movq	-512(%rbp), %rax
 2874      FEFFFF
 2875 12db 488B00   		movq	(%rax), %rax
 2876 12de 4883C010 		addq	$16, %rax
 2877 12e2 488B00   		movq	(%rax), %rax
 2878 12e5 488B9500 		movq	-512(%rbp), %rdx
 2878      FEFFFF
 2879 12ec 4889D7   		movq	%rdx, %rdi
 2880 12ef FFD0     		call	*%rax
 2881 12f1 4889C3   		movq	%rax, %rbx
 2882 12f4 488B8500 		movq	-512(%rbp), %rax
 2882      FEFFFF
 2883 12fb 4889C7   		movq	%rax, %rdi
 2884              	.LEHB81:
 2885 12fe E8000000 		call	_ZNK8UnitTest15AssertException10LineNumberEv
 2885      00
 2886 1303 4189C4   		movl	%eax, %r12d
 2887 1306 488B8500 		movq	-512(%rbp), %rax
 2887      FEFFFF
 2888 130d 4889C7   		movq	%rax, %rdi
 2889 1310 E8000000 		call	_ZNK8UnitTest15AssertException8FilenameEv
 2889      00
 2890              		.loc 3 71 0 discriminator 5
 2891 1315 4889C1   		movq	%rax, %rcx
 2892 1318 488B85E8 		movq	-536(%rbp), %rax
 2892      FDFFFF
 2893 131f 488B5008 		movq	8(%rax), %rdx
 2894 1323 488B85E8 		movq	-536(%rbp), %rax
 2894      FDFFFF
 2895 132a 488B7010 		movq	16(%rax), %rsi
 2896 132e 488D8510 		leaq	-496(%rbp), %rax
 2896      FEFFFF
 2897 1335 4589E0   		movl	%r12d, %r8d
 2898 1338 4889C7   		movq	%rax, %rdi
 2899 133b E8000000 		call	_ZN8UnitTest11TestDetailsC1EPKcS2_S2_i
 2899      00
 2900              		.loc 3 71 0 discriminator 9
 2901 1340 E8000000 		call	_ZN8UnitTest11CurrentTest7ResultsEv
 2901      00
 2902 1345 488B00   		movq	(%rax), %rax
 2903 1348 488D8D10 		leaq	-496(%rbp), %rcx
 2903      FEFFFF
 2904 134f 4889DA   		movq	%rbx, %rdx
 2905 1352 4889CE   		movq	%rcx, %rsi
 2906 1355 4889C7   		movq	%rax, %rdi
 2907 1358 E8000000 		call	_ZN8UnitTest11TestResults13OnTestFailureERKNS_11TestDetailsEPKc
 2907      00
 2908              	.LEHE81:
 2909              		.loc 3 71 0 discriminator 13
 2910 135d E8000000 		call	__cxa_end_catch
 2910      00
 2911              	.LBE72:
 2912              	.LBE74:
 2913 1362 E9430100 		jmp	.L179
 2913      00
 2914              	.L163:
 2915              	.LBB75:
 2916              	.LBB73:
 2917              		.loc 3 71 0
 2918 1367 4889C7   		movq	%rax, %rdi
 2919 136a E8000000 		call	__cxa_begin_catch
 2919      00
 2920 136f 48898508 		movq	%rax, -504(%rbp)
 2920      FEFFFF
 2921              	.LBB71:
 2922 1376 488D8580 		leaq	-384(%rbp), %rax
 2922      FEFFFF
 2923 137d 4889C7   		movq	%rax, %rdi
 2924              	.LEHB82:
 2925 1380 E8000000 		call	_ZN8UnitTest15MemoryOutStreamC1Ev
 2925      00
 2926              	.LEHE82:
 2927              		.loc 3 71 0 discriminator 15
 2928 1385 488B8508 		movq	-504(%rbp), %rax
 2928      FEFFFF
 2929 138c 488B00   		movq	(%rax), %rax
 2930 138f 4883C010 		addq	$16, %rax
 2931 1393 488B00   		movq	(%rax), %rax
 2932 1396 488B9508 		movq	-504(%rbp), %rdx
 2932      FEFFFF
 2933 139d 4889D7   		movq	%rdx, %rdi
 2934 13a0 FFD0     		call	*%rax
 2935 13a2 4889C3   		movq	%rax, %rbx
 2936 13a5 488D8580 		leaq	-384(%rbp), %rax
 2936      FEFFFF
 2937 13ac BE000000 		movl	$.LC6, %esi
 2937      00
 2938 13b1 4889C7   		movq	%rax, %rdi
 2939              	.LEHB83:
 2940 13b4 E8000000 		call	_ZStlsISt11char_traitsIcEERSt13basic_ostreamIcT_ES5_PKc
 2940      00
 2941 13b9 4889DE   		movq	%rbx, %rsi
 2942 13bc 4889C7   		movq	%rax, %rdi
 2943 13bf E8000000 		call	_ZStlsISt11char_traitsIcEERSt13basic_ostreamIcT_ES5_PKc
 2943      00
 2944              		.loc 3 71 0 discriminator 19
 2945 13c4 488D8580 		leaq	-384(%rbp), %rax
 2945      FEFFFF
 2946 13cb 4889C7   		movq	%rax, %rdi
 2947 13ce E8000000 		call	_ZNK8UnitTest15MemoryOutStream7GetTextEv
 2947      00
 2948 13d3 4989C4   		movq	%rax, %r12
 2949 13d6 488B85E8 		movq	-536(%rbp), %rax
 2949      FDFFFF
 2950 13dd 488D5808 		leaq	8(%rax), %rbx
 2951 13e1 E8000000 		call	_ZN8UnitTest11CurrentTest7ResultsEv
 2951      00
 2952              		.loc 3 71 0 discriminator 21
 2953 13e6 488B00   		movq	(%rax), %rax
 2954 13e9 4C89E2   		movq	%r12, %rdx
 2955 13ec 4889DE   		movq	%rbx, %rsi
 2956 13ef 4889C7   		movq	%rax, %rdi
 2957 13f2 E8000000 		call	_ZN8UnitTest11TestResults13OnTestFailureERKNS_11TestDetailsEPKc
 2957      00
 2958              	.LEHE83:
 2959              		.loc 3 71 0 discriminator 25
 2960 13f7 488D8580 		leaq	-384(%rbp), %rax
 2960      FEFFFF
 2961 13fe 4889C7   		movq	%rax, %rdi
 2962              	.LEHB84:
 2963 1401 E8000000 		call	_ZN8UnitTest15MemoryOutStreamD1Ev
 2963      00
 2964              	.LEHE84:
 2965              	.LBE71:
 2966              		.loc 3 71 0 discriminator 26
 2967 1406 E8000000 		call	__cxa_end_catch
 2967      00
 2968              	.LBE73:
 2969              	.LBE75:
 2970 140b E99A0000 		jmp	.L179
 2970      00
 2971              	.L178:
 2972              	.LBB76:
 2973              		.loc 3 71 0
 2974 1410 4889C7   		movq	%rax, %rdi
 2975 1413 E8000000 		call	__cxa_begin_catch
 2975      00
 2976 1418 80BDFFFD 		cmpb	$0, -513(%rbp)
 2976      FFFF00
 2977 141f 7443     		je	.L169
 2978              		.loc 3 71 0 discriminator 28
 2979 1421 488B85E8 		movq	-536(%rbp), %rax
 2979      FDFFFF
 2980 1428 488D4808 		leaq	8(%rax), %rcx
 2981 142c 488D8510 		leaq	-496(%rbp), %rax
 2981      FEFFFF
 2982 1433 BA470000 		movl	$71, %edx
 2982      00
 2983 1438 4889CE   		movq	%rcx, %rsi
 2984 143b 4889C7   		movq	%rax, %rdi
 2985              	.LEHB85:
 2986 143e E8000000 		call	_ZN8UnitTest11TestDetailsC1ERKS0_i
 2986      00
 2987              		.loc 3 71 0 discriminator 31
 2988 1443 E8000000 		call	_ZN8UnitTest11CurrentTest7ResultsEv
 2988      00
 2989 1448 488B00   		movq	(%rax), %rax
 2990 144b 488D8D10 		leaq	-496(%rbp), %rcx
 2990      FEFFFF
 2991 1452 BA000000 		movl	$.LC7, %edx
 2991      00
 2992 1457 4889CE   		movq	%rcx, %rsi
 2993 145a 4889C7   		movq	%rax, %rdi
 2994 145d E8000000 		call	_ZN8UnitTest11TestResults13OnTestFailureERKNS_11TestDetailsEPKc
 2994      00
 2995 1462 EB41     		jmp	.L170
 2996              	.L169:
 2997              		.loc 3 71 0 discriminator 29
 2998 1464 488B85E8 		movq	-536(%rbp), %rax
 2998      FDFFFF
 2999 146b 488D4808 		leaq	8(%rax), %rcx
 3000 146f 488D8510 		leaq	-496(%rbp), %rax
 3000      FEFFFF
 3001 1476 BA470000 		movl	$71, %edx
 3001      00
 3002 147b 4889CE   		movq	%rcx, %rsi
 3003 147e 4889C7   		movq	%rax, %rdi
 3004 1481 E8000000 		call	_ZN8UnitTest11TestDetailsC1ERKS0_i
 3004      00
 3005              		.loc 3 71 0 discriminator 38
 3006 1486 E8000000 		call	_ZN8UnitTest11CurrentTest7ResultsEv
 3006      00
 3007 148b 488B00   		movq	(%rax), %rax
 3008 148e 488D8D10 		leaq	-496(%rbp), %rcx
 3008      FEFFFF
 3009 1495 BA000000 		movl	$.LC8, %edx
 3009      00
 3010 149a 4889CE   		movq	%rcx, %rsi
 3011 149d 4889C7   		movq	%rax, %rdi
 3012 14a0 E8000000 		call	_ZN8UnitTest11TestResults13OnTestFailureERKNS_11TestDetailsEPKc
 3012      00
 3013              	.LEHE85:
 3014              	.L170:
 3015              	.LEHB86:
 3016              		.loc 3 71 0 discriminator 43
 3017 14a5 E8000000 		call	__cxa_end_catch
 3017      00
 3018              	.LEHE86:
 3019              	.L179:
 3020              	.LBE76:
 3021              		.loc 3 71 0
 3022 14aa 90       		nop
 3023 14ab 488B45E8 		movq	-24(%rbp), %rax
 3024 14af 64483304 		xorq	%fs:40, %rax
 3024      25280000 
 3024      00
 3025 14b8 7405     		je	.L171
 3026 14ba E8000000 		call	__stack_chk_fail
 3026      00
 3027              	.L171:
 3028 14bf 4881C410 		addq	$528, %rsp
 3028      020000
 3029 14c6 5B       		popq	%rbx
 3030 14c7 415C     		popq	%r12
 3031 14c9 5D       		popq	%rbp
 3032              		.cfi_def_cfa 7, 8
 3033 14ca C3       		ret
 3034              		.cfi_endproc
 3035              	.LFE1392:
 3036              		.section	.gcc_except_table
 3037              		.align 4
 3038              	.LLSDA1392:
 3039 01d8 FF       		.byte	0xff
 3040 01d9 03       		.byte	0x3
 3041 01da 59       		.uleb128 .LLSDATT1392-.LLSDATTD1392
 3042              	.LLSDATTD1392:
 3043 01db 01       		.byte	0x1
 3044 01dc 41       		.uleb128 .LLSDACSE1392-.LLSDACSB1392
 3045              	.LLSDACSB1392:
 3046 01dd 43       		.uleb128 .LEHB75-.LFB1392
 3047 01de 05       		.uleb128 .LEHE75-.LEHB75
 3048 01df 9D01     		.uleb128 .L172-.LFB1392
 3049 01e1 05       		.uleb128 0x5
 3050 01e2 67       		.uleb128 .LEHB76-.LFB1392
 3051 01e3 05       		.uleb128 .LEHE76-.LEHB76
 3052 01e4 8001     		.uleb128 .L173-.LFB1392
 3053 01e6 07       		.uleb128 0x7
 3054 01e7 76       		.uleb128 .LEHB77-.LFB1392
 3055 01e8 05       		.uleb128 .LEHE77-.LEHB77
 3056 01e9 9D01     		.uleb128 .L172-.LFB1392
 3057 01eb 05       		.uleb128 0x5
 3058 01ec C001     		.uleb128 .LEHB78-.LFB1392
 3059 01ee 05       		.uleb128 .LEHE78-.LEHB78
 3060 01ef 00       		.uleb128 0
 3061 01f0 00       		.uleb128 0
 3062 01f1 E701     		.uleb128 .LEHB79-.LFB1392
 3063 01f3 05       		.uleb128 .LEHE79-.LEHB79
 3064 01f4 00       		.uleb128 0
 3065 01f5 00       		.uleb128 0
 3066 01f6 FA01     		.uleb128 .LEHB80-.LFB1392
 3067 01f8 05       		.uleb128 .LEHE80-.LEHB80
 3068 01f9 00       		.uleb128 0
 3069 01fa 00       		.uleb128 0
 3070 01fb B802     		.uleb128 .LEHB81-.LFB1392
 3071 01fd 5F       		.uleb128 .LEHE81-.LEHB81
 3072 01fe B201     		.uleb128 .L174-.LFB1392
 3073 0200 00       		.uleb128 0
 3074 0201 BA03     		.uleb128 .LEHB82-.LFB1392
 3075 0203 05       		.uleb128 .LEHE82-.LEHB82
 3076 0204 D901     		.uleb128 .L176-.LFB1392
 3077 0206 00       		.uleb128 0
 3078 0207 EE03     		.uleb128 .LEHB83-.LFB1392
 3079 0209 43       		.uleb128 .LEHE83-.LEHB83
 3080 020a C501     		.uleb128 .L175-.LFB1392
 3081 020c 00       		.uleb128 0
 3082 020d BB04     		.uleb128 .LEHB84-.LFB1392
 3083 020f 05       		.uleb128 .LEHE84-.LEHB84
 3084 0210 D901     		.uleb128 .L176-.LFB1392
 3085 0212 00       		.uleb128 0
 3086 0213 F804     		.uleb128 .LEHB85-.LFB1392
 3087 0215 67       		.uleb128 .LEHE85-.LEHB85
 3088 0216 EC01     		.uleb128 .L177-.LFB1392
 3089 0218 00       		.uleb128 0
 3090 0219 DF05     		.uleb128 .LEHB86-.LFB1392
 3091 021b 05       		.uleb128 .LEHE86-.LEHB86
 3092 021c 00       		.uleb128 0
 3093 021d 00       		.uleb128 0
 3094              	.LLSDACSE1392:
 3095 021e 03       		.byte	0x3
 3096 021f 00       		.byte	0
 3097 0220 02       		.byte	0x2
 3098 0221 7D       		.byte	0x7d
 3099 0222 01       		.byte	0x1
 3100 0223 7D       		.byte	0x7d
 3101 0224 00       		.byte	0
 3102 0225 7D       		.byte	0x7d
 3103 0226 0000     		.align 4
 3104 0228 00000000 		.long	0
 3105              	
 3106 022c 00000000 		.long	_ZTISt9exception
 3107 0230 00000000 		.long	_ZTIN8UnitTest15AssertExceptionE
 3108              	.LLSDATT1392:
 3109              		.text
 3111              		.section	.rodata
 3112              	.LC18:
 3113 02c1 6661696C 		.string	"failure"
 3113      75726500 
 3114              	.LC19:
 3115 02c9 72657375 		.string	"result.failed == true"
 3115      6C742E66 
 3115      61696C65 
 3115      64203D3D 
 3115      20747275 
 3116 02df 00       		.align 8
 3117              	.LC20:
 3118 02e0 556E6861 		.string	"Unhandled exception in CHECK(result.failed == true)"
 3118      6E646C65 
 3118      64206578 
 3118      63657074 
 3118      696F6E20 
 3119 0314 00000000 		.align 8
 3120              	.LC21:
 3121 0318 556E6861 		.string	"Unhandled exception in CHECK_EQUAL(fileName.c_str(), result.failureFile)"
 3121      6E646C65 
 3121      64206578 
 3121      63657074 
 3121      696F6E20 
 3122              		.text
 3123 14cb 90       		.align 2
 3125              	_ZN8UnitTest12_GLOBAL__N_165DeferredTestReporterFixtureReportFailureSavesFailureDetailsHelper7RunIm
 3126              	.LFB1396:
  72:TestDeferredTestReporter.cpp **** {
 3127              		.loc 3 72 0 is_stmt 1
 3128              		.cfi_startproc
 3129              		.cfi_personality 0x3,__gxx_personality_v0
 3130              		.cfi_lsda 0x3,.LLSDA1396
 3131 14cc 55       		pushq	%rbp
 3132              		.cfi_def_cfa_offset 16
 3133              		.cfi_offset 6, -16
 3134 14cd 4889E5   		movq	%rsp, %rbp
 3135              		.cfi_def_cfa_register 6
 3136 14d0 53       		pushq	%rbx
 3137 14d1 4883EC68 		subq	$104, %rsp
 3138              		.cfi_offset 3, -24
 3139 14d5 48897D98 		movq	%rdi, -104(%rbp)
 3140              		.loc 3 72 0
 3141 14d9 64488B04 		movq	%fs:40, %rax
 3141      25280000 
 3141      00
 3142 14e2 488945E8 		movq	%rax, -24(%rbp)
 3143 14e6 31C0     		xorl	%eax, %eax
 3144              	.LBB77:
  73:TestDeferredTestReporter.cpp ****     char const* failure = "failure";
 3145              		.loc 3 73 0
 3146 14e8 48C745B0 		movq	$.LC18, -80(%rbp)
 3146      00000000 
  74:TestDeferredTestReporter.cpp **** 
  75:TestDeferredTestReporter.cpp ****     reporter.ReportTestStart(details);
 3147              		.loc 3 75 0
 3148 14f0 488B4598 		movq	-104(%rbp), %rax
 3149 14f4 488D5040 		leaq	64(%rax), %rdx
 3150 14f8 488B4598 		movq	-104(%rbp), %rax
 3151 14fc 4889D6   		movq	%rdx, %rsi
 3152 14ff 4889C7   		movq	%rax, %rdi
 3153              	.LEHB87:
 3154 1502 E8000000 		call	_ZN8UnitTest20DeferredTestReporter15ReportTestStartERKNS_11TestDetailsE
 3154      00
  76:TestDeferredTestReporter.cpp ****     reporter.ReportFailure(details, failure);
 3155              		.loc 3 76 0
 3156 1507 488B4598 		movq	-104(%rbp), %rax
 3157 150b 488D4840 		leaq	64(%rax), %rcx
 3158 150f 488B4598 		movq	-104(%rbp), %rax
 3159 1513 488B55B0 		movq	-80(%rbp), %rdx
 3160 1517 4889CE   		movq	%rcx, %rsi
 3161 151a 4889C7   		movq	%rax, %rdi
 3162 151d E8000000 		call	_ZN8UnitTest20DeferredTestReporter13ReportFailureERKNS_11TestDetailsEPKc
 3162      00
  77:TestDeferredTestReporter.cpp **** 
  78:TestDeferredTestReporter.cpp ****     DeferredTestResult const& result = reporter.GetResults().at(0);
 3163              		.loc 3 78 0
 3164 1522 488B4598 		movq	-104(%rbp), %rax
 3165 1526 4889C7   		movq	%rax, %rdi
 3166 1529 E8000000 		call	_ZN8UnitTest20DeferredTestReporter10GetResultsEv
 3166      00
 3167 152e BE000000 		movl	$0, %esi
 3167      00
 3168 1533 4889C7   		movq	%rax, %rdi
 3169 1536 E8000000 		call	_ZNSt6vectorIN8UnitTest18DeferredTestResultESaIS1_EE2atEm
 3169      00
 3170              	.LEHE87:
 3171 153b 488945B8 		movq	%rax, -72(%rbp)
  79:TestDeferredTestReporter.cpp ****     CHECK(result.failed == true);
 3172              		.loc 3 79 0
 3173 153f 488B45B8 		movq	-72(%rbp), %rax
 3174 1543 0FB64034 		movzbl	52(%rax), %eax
 3175 1547 0FB6C0   		movzbl	%al, %eax
 3176 154a 89C7     		movl	%eax, %edi
 3177 154c E8000000 		call	_ZN8UnitTest5CheckIbEEbT_
 3177      00
 3178 1551 83F001   		xorl	$1, %eax
 3179 1554 84C0     		testb	%al, %al
 3180 1556 7438     		je	.L181
 3181              	.LEHB88:
 3182              		.loc 3 79 0 is_stmt 0 discriminator 1
 3183 1558 E8000000 		call	_ZN8UnitTest11CurrentTest7DetailsEv
 3183      00
 3184 155d 488B08   		movq	(%rax), %rcx
 3185 1560 488D45C0 		leaq	-64(%rbp), %rax
 3186 1564 BA4F0000 		movl	$79, %edx
 3186      00
 3187 1569 4889CE   		movq	%rcx, %rsi
 3188 156c 4889C7   		movq	%rax, %rdi
 3189 156f E8000000 		call	_ZN8UnitTest11TestDetailsC1ERKS0_i
 3189      00
 3190              		.loc 3 79 0 discriminator 3
 3191 1574 E8000000 		call	_ZN8UnitTest11CurrentTest7ResultsEv
 3191      00
 3192 1579 488B00   		movq	(%rax), %rax
 3193 157c 488D4DC0 		leaq	-64(%rbp), %rcx
 3194 1580 BA000000 		movl	$.LC19, %edx
 3194      00
 3195 1585 4889CE   		movq	%rcx, %rsi
 3196 1588 4889C7   		movq	%rax, %rdi
 3197 158b E8000000 		call	_ZN8UnitTest11TestResults13OnTestFailureERKNS_11TestDetailsEPKc
 3197      00
 3198              	.LEHE88:
 3199              	.L181:
 3200              	.LEHB89:
  80:TestDeferredTestReporter.cpp ****     CHECK_EQUAL(fileName.c_str(), result.failureFile);
 3201              		.loc 3 80 0 is_stmt 1
 3202 1590 E8000000 		call	_ZN8UnitTest11CurrentTest7DetailsEv
 3202      00
 3203 1595 488B08   		movq	(%rax), %rcx
 3204 1598 488D45C0 		leaq	-64(%rbp), %rax
 3205 159c BA500000 		movl	$80, %edx
 3205      00
 3206 15a1 4889CE   		movq	%rcx, %rsi
 3207 15a4 4889C7   		movq	%rax, %rdi
 3208 15a7 E8000000 		call	_ZN8UnitTest11TestDetailsC1ERKS0_i
 3208      00
 3209              		.loc 3 80 0 is_stmt 0 discriminator 2
 3210 15ac 488B45B8 		movq	-72(%rbp), %rax
 3211 15b0 488D5810 		leaq	16(%rax), %rbx
 3212 15b4 488B4598 		movq	-104(%rbp), %rax
 3213 15b8 4883C030 		addq	$48, %rax
 3214 15bc 4889C7   		movq	%rax, %rdi
 3215 15bf E8000000 		call	_ZNKSs5c_strEv
 3215      00
 3216 15c4 488945A8 		movq	%rax, -88(%rbp)
 3217 15c8 E8000000 		call	_ZN8UnitTest11CurrentTest7ResultsEv
 3217      00
 3218              		.loc 3 80 0 discriminator 4
 3219 15cd 488B00   		movq	(%rax), %rax
 3220 15d0 488D55C0 		leaq	-64(%rbp), %rdx
 3221 15d4 488D75A8 		leaq	-88(%rbp), %rsi
 3222 15d8 4889D1   		movq	%rdx, %rcx
 3223 15db 4889DA   		movq	%rbx, %rdx
 3224 15de 4889C7   		movq	%rax, %rdi
 3225 15e1 E8000000 		call	_ZN8UnitTest10CheckEqualIPKcSsEEvRNS_11TestResultsERKT_RKT0_RKNS_11TestDetailsE
 3225      00
 3226              	.LEHE89:
 3227              	.LBE77:
  81:TestDeferredTestReporter.cpp **** }
 3228              		.loc 3 81 0 is_stmt 1
 3229 15e6 E9B50000 		jmp	.L192
 3229      00
 3230              	.L189:
 3231 15eb 4889C3   		movq	%rax, %rbx
 3232              	.LBB78:
  79:TestDeferredTestReporter.cpp ****     CHECK(result.failed == true);
 3233              		.loc 3 79 0
 3234 15ee E8000000 		call	__cxa_end_catch
 3234      00
 3235 15f3 4889D8   		movq	%rbx, %rax
 3236 15f6 4889C7   		movq	%rax, %rdi
 3237              	.LEHB90:
 3238 15f9 E8000000 		call	_Unwind_Resume
 3238      00
 3239              	.LEHE90:
 3240              	.L188:
 3241 15fe 4889C7   		movq	%rax, %rdi
 3242 1601 E8000000 		call	__cxa_begin_catch
 3242      00
 3243              	.LEHB91:
 3244 1606 E8000000 		call	_ZN8UnitTest11CurrentTest7DetailsEv
 3244      00
 3245 160b 488B08   		movq	(%rax), %rcx
 3246 160e 488D45C0 		leaq	-64(%rbp), %rax
 3247 1612 BA4F0000 		movl	$79, %edx
 3247      00
 3248 1617 4889CE   		movq	%rcx, %rsi
 3249 161a 4889C7   		movq	%rax, %rdi
 3250 161d E8000000 		call	_ZN8UnitTest11TestDetailsC1ERKS0_i
 3250      00
  79:TestDeferredTestReporter.cpp ****     CHECK(result.failed == true);
 3251              		.loc 3 79 0 is_stmt 0 discriminator 11
 3252 1622 E8000000 		call	_ZN8UnitTest11CurrentTest7ResultsEv
 3252      00
 3253 1627 488B00   		movq	(%rax), %rax
 3254 162a 488D4DC0 		leaq	-64(%rbp), %rcx
 3255 162e BA000000 		movl	$.LC20, %edx
 3255      00
 3256 1633 4889CE   		movq	%rcx, %rsi
 3257 1636 4889C7   		movq	%rax, %rdi
 3258 1639 E8000000 		call	_ZN8UnitTest11TestResults13OnTestFailureERKNS_11TestDetailsEPKc
 3258      00
 3259              	.LEHE91:
 3260              	.LEHB92:
  79:TestDeferredTestReporter.cpp ****     CHECK(result.failed == true);
 3261              		.loc 3 79 0 discriminator 15
 3262 163e E8000000 		call	__cxa_end_catch
 3262      00
 3263              	.LEHE92:
 3264 1643 E948FFFF 		jmp	.L181
 3264      FF
 3265              	.L191:
 3266 1648 4889C3   		movq	%rax, %rbx
  80:TestDeferredTestReporter.cpp ****     CHECK_EQUAL(fileName.c_str(), result.failureFile);
 3267              		.loc 3 80 0 is_stmt 1
 3268 164b E8000000 		call	__cxa_end_catch
 3268      00
 3269 1650 4889D8   		movq	%rbx, %rax
 3270 1653 4889C7   		movq	%rax, %rdi
 3271              	.LEHB93:
 3272 1656 E8000000 		call	_Unwind_Resume
 3272      00
 3273              	.LEHE93:
 3274              	.L190:
 3275 165b 4889C7   		movq	%rax, %rdi
 3276 165e E8000000 		call	__cxa_begin_catch
 3276      00
 3277              	.LEHB94:
 3278 1663 E8000000 		call	_ZN8UnitTest11CurrentTest7DetailsEv
 3278      00
 3279 1668 488B08   		movq	(%rax), %rcx
 3280 166b 488D45C0 		leaq	-64(%rbp), %rax
 3281 166f BA500000 		movl	$80, %edx
 3281      00
 3282 1674 4889CE   		movq	%rcx, %rsi
 3283 1677 4889C7   		movq	%rax, %rdi
 3284 167a E8000000 		call	_ZN8UnitTest11TestDetailsC1ERKS0_i
 3284      00
  80:TestDeferredTestReporter.cpp ****     CHECK_EQUAL(fileName.c_str(), result.failureFile);
 3285              		.loc 3 80 0 is_stmt 0 discriminator 12
 3286 167f E8000000 		call	_ZN8UnitTest11CurrentTest7ResultsEv
 3286      00
 3287 1684 488B00   		movq	(%rax), %rax
 3288 1687 488D4DC0 		leaq	-64(%rbp), %rcx
 3289 168b BA000000 		movl	$.LC21, %edx
 3289      00
 3290 1690 4889CE   		movq	%rcx, %rsi
 3291 1693 4889C7   		movq	%rax, %rdi
 3292 1696 E8000000 		call	_ZN8UnitTest11TestResults13OnTestFailureERKNS_11TestDetailsEPKc
 3292      00
 3293              	.LEHE94:
 3294              	.LEHB95:
  80:TestDeferredTestReporter.cpp ****     CHECK_EQUAL(fileName.c_str(), result.failureFile);
 3295              		.loc 3 80 0 discriminator 16
 3296 169b E8000000 		call	__cxa_end_catch
 3296      00
 3297              	.LEHE95:
 3298              	.L192:
 3299              	.LBE78:
 3300              		.loc 3 81 0 is_stmt 1
 3301 16a0 90       		nop
 3302 16a1 488B45E8 		movq	-24(%rbp), %rax
 3303 16a5 64483304 		xorq	%fs:40, %rax
 3303      25280000 
 3303      00
 3304 16ae 7405     		je	.L187
 3305 16b0 E8000000 		call	__stack_chk_fail
 3305      00
 3306              	.L187:
 3307 16b5 4883C468 		addq	$104, %rsp
 3308 16b9 5B       		popq	%rbx
 3309 16ba 5D       		popq	%rbp
 3310              		.cfi_def_cfa 7, 8
 3311 16bb C3       		ret
 3312              		.cfi_endproc
 3313              	.LFE1396:
 3314              		.section	.gcc_except_table
 3315              		.align 4
 3316              	.LLSDA1396:
 3317 0234 FF       		.byte	0xff
 3318 0235 03       		.byte	0x3
 3319 0236 39       		.uleb128 .LLSDATT1396-.LLSDATTD1396
 3320              	.LLSDATTD1396:
 3321 0237 01       		.byte	0x1
 3322 0238 30       		.uleb128 .LLSDACSE1396-.LLSDACSB1396
 3323              	.LLSDACSB1396:
 3324 0239 36       		.uleb128 .LEHB87-.LFB1396
 3325 023a 39       		.uleb128 .LEHE87-.LEHB87
 3326 023b 00       		.uleb128 0
 3327 023c 00       		.uleb128 0
 3328 023d 8C01     		.uleb128 .LEHB88-.LFB1396
 3329 023f 38       		.uleb128 .LEHE88-.LEHB88
 3330 0240 B202     		.uleb128 .L188-.LFB1396
 3331 0242 01       		.uleb128 0x1
 3332 0243 C401     		.uleb128 .LEHB89-.LFB1396
 3333 0245 56       		.uleb128 .LEHE89-.LEHB89
 3334 0246 8F03     		.uleb128 .L190-.LFB1396
 3335 0248 01       		.uleb128 0x1
 3336 0249 AD02     		.uleb128 .LEHB90-.LFB1396
 3337 024b 05       		.uleb128 .LEHE90-.LEHB90
 3338 024c 00       		.uleb128 0
 3339 024d 00       		.uleb128 0
 3340 024e BA02     		.uleb128 .LEHB91-.LFB1396
 3341 0250 38       		.uleb128 .LEHE91-.LEHB91
 3342 0251 9F02     		.uleb128 .L189-.LFB1396
 3343 0253 00       		.uleb128 0
 3344 0254 F202     		.uleb128 .LEHB92-.LFB1396
 3345 0256 05       		.uleb128 .LEHE92-.LEHB92
 3346 0257 00       		.uleb128 0
 3347 0258 00       		.uleb128 0
 3348 0259 8A03     		.uleb128 .LEHB93-.LFB1396
 3349 025b 05       		.uleb128 .LEHE93-.LEHB93
 3350 025c 00       		.uleb128 0
 3351 025d 00       		.uleb128 0
 3352 025e 9703     		.uleb128 .LEHB94-.LFB1396
 3353 0260 38       		.uleb128 .LEHE94-.LEHB94
 3354 0261 FC02     		.uleb128 .L191-.LFB1396
 3355 0263 00       		.uleb128 0
 3356 0264 CF03     		.uleb128 .LEHB95-.LFB1396
 3357 0266 05       		.uleb128 .LEHE95-.LEHB95
 3358 0267 00       		.uleb128 0
 3359 0268 00       		.uleb128 0
 3360              	.LLSDACSE1396:
 3361 0269 01       		.byte	0x1
 3362 026a 00       		.byte	0
 3363 026b 00       		.align 4
 3364 026c 00000000 		.long	0
 3365              	
 3366              	.LLSDATT1396:
 3367              		.text
 3369              		.align 2
 3371              	_ZN8UnitTest12_GLOBAL__N_184DeferredTestReporterFixtureReportFailureSavesFailureDetailsForMultipleF
 3372              	.LFB1398:
  82:TestDeferredTestReporter.cpp **** 
  83:TestDeferredTestReporter.cpp **** TEST_FIXTURE(DeferredTestReporterFixture, ReportFailureSavesFailureDetailsForMultipleFailures)
 3373              		.loc 3 83 0
 3374              		.cfi_startproc
 3375 16bc 55       		pushq	%rbp
 3376              		.cfi_def_cfa_offset 16
 3377              		.cfi_offset 6, -16
 3378 16bd 4889E5   		movq	%rsp, %rbp
 3379              		.cfi_def_cfa_register 6
 3380 16c0 4883EC10 		subq	$16, %rsp
 3381 16c4 48897DF8 		movq	%rdi, -8(%rbp)
 3382 16c8 488975F0 		movq	%rsi, -16(%rbp)
 3383              	.LBB79:
 3384              		.loc 3 83 0
 3385 16cc 488B45F8 		movq	-8(%rbp), %rax
 3386 16d0 4889C7   		movq	%rax, %rdi
 3387 16d3 E866E9FF 		call	_ZN8UnitTest12_GLOBAL__N_127DeferredTestReporterFixtureC2Ev
 3387      FF
 3388 16d8 488B45F8 		movq	-8(%rbp), %rax
 3389 16dc 488B55F0 		movq	-16(%rbp), %rdx
 3390 16e0 48895060 		movq	%rdx, 96(%rax)
 3391              	.LBE79:
 3392 16e4 C9       		leave
 3393              		.cfi_def_cfa 7, 8
 3394 16e5 C3       		ret
 3395              		.cfi_endproc
 3396              	.LFE1398:
 3398              		.section	.rodata
 3399 0361 00000000 		.align 8
 3399      000000
 3400              	.LC22:
 3401 0368 5265706F 		.string	"ReportFailureSavesFailureDetailsForMultipleFailures"
 3401      72744661 
 3401      696C7572 
 3401      65536176 
 3401      65734661 
 3402              		.text
 3403              		.align 2
 3405              	_ZN8UnitTest12_GLOBAL__N_182TestDeferredTestReporterFixtureReportFailureSavesFailureDetailsForMulti
 3406              	.LFB1401:
 3407              		.loc 3 83 0
 3408              		.cfi_startproc
 3409 16e6 55       		pushq	%rbp
 3410              		.cfi_def_cfa_offset 16
 3411              		.cfi_offset 6, -16
 3412 16e7 4889E5   		movq	%rsp, %rbp
 3413              		.cfi_def_cfa_register 6
 3414 16ea 4883EC10 		subq	$16, %rsp
 3415 16ee 48897DF8 		movq	%rdi, -8(%rbp)
 3416              	.LBB80:
 3417              		.loc 3 83 0
 3418 16f2 E8000000 		call	_ZN13UnitTestSuite12GetSuiteNameEv
 3418      00
 3419 16f7 4889C2   		movq	%rax, %rdx
 3420 16fa 488B45F8 		movq	-8(%rbp), %rax
 3421 16fe 41B85300 		movl	$83, %r8d
 3421      0000
 3422 1704 B9000000 		movl	$.LC4, %ecx
 3422      00
 3423 1709 BE000000 		movl	$.LC22, %esi
 3423      00
 3424 170e 4889C7   		movq	%rax, %rdi
 3425 1711 E8000000 		call	_ZN8UnitTest4TestC2EPKcS2_S2_i
 3425      00
 3426 1716 488B45F8 		movq	-8(%rbp), %rax
 3427 171a 48C70000 		movq	$_ZTVN8UnitTest12_GLOBAL__N_182TestDeferredTestReporterFixtureReportFailureSavesFailureDetail
 3427      000000
 3428              	.LBE80:
 3429 1721 C9       		leave
 3430              		.cfi_def_cfa 7, 8
 3431 1722 C3       		ret
 3432              		.cfi_endproc
 3433              	.LFE1401:
 3435              		.local	_ZN8UnitTest12_GLOBAL__N_190testDeferredTestReporterFixtureReportFailureSavesFailureDetails
 3436              		.comm	_ZN8UnitTest12_GLOBAL__N_190testDeferredTestReporterFixtureReportFailureSavesFailureDetailsF
 3437              		.local	_ZN8UnitTest12_GLOBAL__N_183adderDeferredTestReporterFixtureReportFailureSavesFailureDetail
 3438              		.comm	_ZN8UnitTest12_GLOBAL__N_183adderDeferredTestReporterFixtureReportFailureSavesFailureDetails
 3439 1723 90       		.align 2
 3441              	_ZN8UnitTest12_GLOBAL__N_184DeferredTestReporterFixtureReportFailureSavesFailureDetailsForMultipleF
 3442              	.LFB1405:
 3443              		.loc 3 83 0
 3444              		.cfi_startproc
 3445 1724 55       		pushq	%rbp
 3446              		.cfi_def_cfa_offset 16
 3447              		.cfi_offset 6, -16
 3448 1725 4889E5   		movq	%rsp, %rbp
 3449              		.cfi_def_cfa_register 6
 3450 1728 4883EC10 		subq	$16, %rsp
 3451 172c 48897DF8 		movq	%rdi, -8(%rbp)
 3452              	.LBB81:
 3453              		.loc 3 83 0
 3454 1730 488B45F8 		movq	-8(%rbp), %rax
 3455 1734 4889C7   		movq	%rax, %rdi
 3456 1737 E8CCEAFF 		call	_ZN8UnitTest12_GLOBAL__N_127DeferredTestReporterFixtureD2Ev
 3456      FF
 3457              	.LBE81:
 3458 173c C9       		leave
 3459              		.cfi_def_cfa 7, 8
 3460 173d C3       		ret
 3461              		.cfi_endproc
 3462              	.LFE1405:
 3464              		.align 2
 3466              	_ZNK8UnitTest12_GLOBAL__N_182TestDeferredTestReporterFixtureReportFailureSavesFailureDetailsForMult
 3467              	.LFB1403:
 3468              		.loc 3 83 0
 3469              		.cfi_startproc
 3470              		.cfi_personality 0x3,__gxx_personality_v0
 3471              		.cfi_lsda 0x3,.LLSDA1403
 3472 173e 55       		pushq	%rbp
 3473              		.cfi_def_cfa_offset 16
 3474              		.cfi_offset 6, -16
 3475 173f 4889E5   		movq	%rsp, %rbp
 3476              		.cfi_def_cfa_register 6
 3477 1742 4154     		pushq	%r12
 3478 1744 53       		pushq	%rbx
 3479 1745 4881EC10 		subq	$528, %rsp
 3479      020000
 3480              		.cfi_offset 12, -24
 3481              		.cfi_offset 3, -32
 3482 174c 4889BDE8 		movq	%rdi, -536(%rbp)
 3482      FDFFFF
 3483              		.loc 3 83 0
 3484 1753 64488B04 		movq	%fs:40, %rax
 3484      25280000 
 3484      00
 3485 175c 488945E8 		movq	%rax, -24(%rbp)
 3486 1760 31C0     		xorl	%eax, %eax
 3487              	.LBB82:
 3488 1762 C685FFFD 		movb	$0, -513(%rbp)
 3488      FFFF00
 3489              	.LBB83:
 3490 1769 488B85E8 		movq	-536(%rbp), %rax
 3490      FDFFFF
 3491 1770 488D5008 		leaq	8(%rax), %rdx
 3492 1774 488D8510 		leaq	-496(%rbp), %rax
 3492      FEFFFF
 3493 177b 4889D6   		movq	%rdx, %rsi
 3494 177e 4889C7   		movq	%rax, %rdi
 3495              	.LEHB96:
 3496 1781 E836FFFF 		call	_ZN8UnitTest12_GLOBAL__N_184DeferredTestReporterFixtureReportFailureSavesFailureDetailsForMul
 3496      FF
 3497              	.LEHE96:
 3498              		.loc 3 83 0 is_stmt 0 discriminator 1
 3499 1786 C685FFFD 		movb	$1, -513(%rbp)
 3499      FFFF01
 3500 178d 488B85E8 		movq	-536(%rbp), %rax
 3500      FDFFFF
 3501 1794 488D5008 		leaq	8(%rax), %rdx
 3502 1798 488D8510 		leaq	-496(%rbp), %rax
 3502      FEFFFF
 3503 179f 4889D6   		movq	%rdx, %rsi
 3504 17a2 4889C7   		movq	%rax, %rdi
 3505              	.LEHB97:
 3506 17a5 E8961500 		call	_ZN8UnitTest11ExecuteTestINS_12_GLOBAL__N_184DeferredTestReporterFixtureReportFailureSavesFai
 3506      00
 3507              	.LEHE97:
 3508              		.loc 3 83 0 discriminator 3
 3509 17aa 488D8510 		leaq	-496(%rbp), %rax
 3509      FEFFFF
 3510 17b1 4889C7   		movq	%rax, %rdi
 3511              	.LEHB98:
 3512 17b4 E86BFFFF 		call	_ZN8UnitTest12_GLOBAL__N_184DeferredTestReporterFixtureReportFailureSavesFailureDetailsForMul
 3512      FF
 3513              	.LEHE98:
 3514              	.LBE83:
 3515              	.LBE82:
 3516              		.loc 3 83 0
 3517 17b9 E9640200 		jmp	.L218
 3517      00
 3518              	.L212:
 3519 17be 4989C4   		movq	%rax, %r12
 3520 17c1 4889D3   		movq	%rdx, %rbx
 3521              	.LBB91:
 3522              	.LBB84:
 3523 17c4 488D8510 		leaq	-496(%rbp), %rax
 3523      FEFFFF
 3524 17cb 4889C7   		movq	%rax, %rdi
 3525 17ce E851FFFF 		call	_ZN8UnitTest12_GLOBAL__N_184DeferredTestReporterFixtureReportFailureSavesFailureDetailsForMul
 3525      FF
 3526 17d3 4C89E0   		movq	%r12, %rax
 3527 17d6 4889DA   		movq	%rbx, %rdx
 3528 17d9 EB00     		jmp	.L199
 3529              	.L211:
 3530              	.L199:
 3531 17db 4883FA01 		cmpq	$1, %rdx
 3532 17df 745C     		je	.L201
 3533 17e1 4883FA02 		cmpq	$2, %rdx
 3534 17e5 0F84F400 		je	.L202
 3534      0000
 3535 17eb E9980100 		jmp	.L217
 3535      00
 3536              	.L213:
 3537 17f0 4889C3   		movq	%rax, %rbx
 3538              	.LBE84:
 3539              	.LBB85:
 3540 17f3 E8000000 		call	__cxa_end_catch
 3540      00
 3541 17f8 4889D8   		movq	%rbx, %rax
 3542 17fb 4889C7   		movq	%rax, %rdi
 3543              	.LEHB99:
 3544 17fe E8000000 		call	_Unwind_Resume
 3544      00
 3545              	.LEHE99:
 3546              	.L214:
 3547 1803 4889C3   		movq	%rax, %rbx
 3548              	.LBE85:
 3549              	.LBB86:
 3550              	.LBB87:
 3551 1806 488D8580 		leaq	-384(%rbp), %rax
 3551      FEFFFF
 3552 180d 4889C7   		movq	%rax, %rdi
 3553 1810 E8000000 		call	_ZN8UnitTest15MemoryOutStreamD1Ev
 3553      00
 3554 1815 EB03     		jmp	.L205
 3555              	.L215:
 3556 1817 4889C3   		movq	%rax, %rbx
 3557              	.L205:
 3558              	.LBE87:
 3559 181a E8000000 		call	__cxa_end_catch
 3559      00
 3560 181f 4889D8   		movq	%rbx, %rax
 3561 1822 4889C7   		movq	%rax, %rdi
 3562              	.LEHB100:
 3563 1825 E8000000 		call	_Unwind_Resume
 3563      00
 3564              	.LEHE100:
 3565              	.L216:
 3566 182a 4889C3   		movq	%rax, %rbx
 3567              	.LBE86:
 3568 182d E8000000 		call	__cxa_end_catch
 3568      00
 3569 1832 4889D8   		movq	%rbx, %rax
 3570 1835 4889C7   		movq	%rax, %rdi
 3571              	.LEHB101:
 3572 1838 E8000000 		call	_Unwind_Resume
 3572      00
 3573              	.LEHE101:
 3574              	.L201:
 3575              	.LBB89:
 3576 183d 4889C7   		movq	%rax, %rdi
 3577 1840 E8000000 		call	__cxa_begin_catch
 3577      00
 3578 1845 48898500 		movq	%rax, -512(%rbp)
 3578      FEFFFF
 3579 184c 488B8500 		movq	-512(%rbp), %rax
 3579      FEFFFF
 3580 1853 488B00   		movq	(%rax), %rax
 3581 1856 4883C010 		addq	$16, %rax
 3582 185a 488B00   		movq	(%rax), %rax
 3583 185d 488B9500 		movq	-512(%rbp), %rdx
 3583      FEFFFF
 3584 1864 4889D7   		movq	%rdx, %rdi
 3585 1867 FFD0     		call	*%rax
 3586 1869 4889C3   		movq	%rax, %rbx
 3587 186c 488B8500 		movq	-512(%rbp), %rax
 3587      FEFFFF
 3588 1873 4889C7   		movq	%rax, %rdi
 3589              	.LEHB102:
 3590 1876 E8000000 		call	_ZNK8UnitTest15AssertException10LineNumberEv
 3590      00
 3591 187b 4189C4   		movl	%eax, %r12d
 3592 187e 488B8500 		movq	-512(%rbp), %rax
 3592      FEFFFF
 3593 1885 4889C7   		movq	%rax, %rdi
 3594 1888 E8000000 		call	_ZNK8UnitTest15AssertException8FilenameEv
 3594      00
 3595              		.loc 3 83 0 discriminator 5
 3596 188d 4889C1   		movq	%rax, %rcx
 3597 1890 488B85E8 		movq	-536(%rbp), %rax
 3597      FDFFFF
 3598 1897 488B5008 		movq	8(%rax), %rdx
 3599 189b 488B85E8 		movq	-536(%rbp), %rax
 3599      FDFFFF
 3600 18a2 488B7010 		movq	16(%rax), %rsi
 3601 18a6 488D8510 		leaq	-496(%rbp), %rax
 3601      FEFFFF
 3602 18ad 4589E0   		movl	%r12d, %r8d
 3603 18b0 4889C7   		movq	%rax, %rdi
 3604 18b3 E8000000 		call	_ZN8UnitTest11TestDetailsC1EPKcS2_S2_i
 3604      00
 3605              		.loc 3 83 0 discriminator 9
 3606 18b8 E8000000 		call	_ZN8UnitTest11CurrentTest7ResultsEv
 3606      00
 3607 18bd 488B00   		movq	(%rax), %rax
 3608 18c0 488D8D10 		leaq	-496(%rbp), %rcx
 3608      FEFFFF
 3609 18c7 4889DA   		movq	%rbx, %rdx
 3610 18ca 4889CE   		movq	%rcx, %rsi
 3611 18cd 4889C7   		movq	%rax, %rdi
 3612 18d0 E8000000 		call	_ZN8UnitTest11TestResults13OnTestFailureERKNS_11TestDetailsEPKc
 3612      00
 3613              	.LEHE102:
 3614              		.loc 3 83 0 discriminator 13
 3615 18d5 E8000000 		call	__cxa_end_catch
 3615      00
 3616              	.LBE89:
 3617              	.LBE91:
 3618 18da E9430100 		jmp	.L218
 3618      00
 3619              	.L202:
 3620              	.LBB92:
 3621              	.LBB90:
 3622              		.loc 3 83 0
 3623 18df 4889C7   		movq	%rax, %rdi
 3624 18e2 E8000000 		call	__cxa_begin_catch
 3624      00
 3625 18e7 48898508 		movq	%rax, -504(%rbp)
 3625      FEFFFF
 3626              	.LBB88:
 3627 18ee 488D8580 		leaq	-384(%rbp), %rax
 3627      FEFFFF
 3628 18f5 4889C7   		movq	%rax, %rdi
 3629              	.LEHB103:
 3630 18f8 E8000000 		call	_ZN8UnitTest15MemoryOutStreamC1Ev
 3630      00
 3631              	.LEHE103:
 3632              		.loc 3 83 0 discriminator 15
 3633 18fd 488B8508 		movq	-504(%rbp), %rax
 3633      FEFFFF
 3634 1904 488B00   		movq	(%rax), %rax
 3635 1907 4883C010 		addq	$16, %rax
 3636 190b 488B00   		movq	(%rax), %rax
 3637 190e 488B9508 		movq	-504(%rbp), %rdx
 3637      FEFFFF
 3638 1915 4889D7   		movq	%rdx, %rdi
 3639 1918 FFD0     		call	*%rax
 3640 191a 4889C3   		movq	%rax, %rbx
 3641 191d 488D8580 		leaq	-384(%rbp), %rax
 3641      FEFFFF
 3642 1924 BE000000 		movl	$.LC6, %esi
 3642      00
 3643 1929 4889C7   		movq	%rax, %rdi
 3644              	.LEHB104:
 3645 192c E8000000 		call	_ZStlsISt11char_traitsIcEERSt13basic_ostreamIcT_ES5_PKc
 3645      00
 3646 1931 4889DE   		movq	%rbx, %rsi
 3647 1934 4889C7   		movq	%rax, %rdi
 3648 1937 E8000000 		call	_ZStlsISt11char_traitsIcEERSt13basic_ostreamIcT_ES5_PKc
 3648      00
 3649              		.loc 3 83 0 discriminator 19
 3650 193c 488D8580 		leaq	-384(%rbp), %rax
 3650      FEFFFF
 3651 1943 4889C7   		movq	%rax, %rdi
 3652 1946 E8000000 		call	_ZNK8UnitTest15MemoryOutStream7GetTextEv
 3652      00
 3653 194b 4989C4   		movq	%rax, %r12
 3654 194e 488B85E8 		movq	-536(%rbp), %rax
 3654      FDFFFF
 3655 1955 488D5808 		leaq	8(%rax), %rbx
 3656 1959 E8000000 		call	_ZN8UnitTest11CurrentTest7ResultsEv
 3656      00
 3657              		.loc 3 83 0 discriminator 21
 3658 195e 488B00   		movq	(%rax), %rax
 3659 1961 4C89E2   		movq	%r12, %rdx
 3660 1964 4889DE   		movq	%rbx, %rsi
 3661 1967 4889C7   		movq	%rax, %rdi
 3662 196a E8000000 		call	_ZN8UnitTest11TestResults13OnTestFailureERKNS_11TestDetailsEPKc
 3662      00
 3663              	.LEHE104:
 3664              		.loc 3 83 0 discriminator 25
 3665 196f 488D8580 		leaq	-384(%rbp), %rax
 3665      FEFFFF
 3666 1976 4889C7   		movq	%rax, %rdi
 3667              	.LEHB105:
 3668 1979 E8000000 		call	_ZN8UnitTest15MemoryOutStreamD1Ev
 3668      00
 3669              	.LEHE105:
 3670              	.LBE88:
 3671              		.loc 3 83 0 discriminator 26
 3672 197e E8000000 		call	__cxa_end_catch
 3672      00
 3673              	.LBE90:
 3674              	.LBE92:
 3675 1983 E99A0000 		jmp	.L218
 3675      00
 3676              	.L217:
 3677              	.LBB93:
 3678              		.loc 3 83 0
 3679 1988 4889C7   		movq	%rax, %rdi
 3680 198b E8000000 		call	__cxa_begin_catch
 3680      00
 3681 1990 80BDFFFD 		cmpb	$0, -513(%rbp)
 3681      FFFF00
 3682 1997 7443     		je	.L208
 3683              		.loc 3 83 0 discriminator 28
 3684 1999 488B85E8 		movq	-536(%rbp), %rax
 3684      FDFFFF
 3685 19a0 488D4808 		leaq	8(%rax), %rcx
 3686 19a4 488D8510 		leaq	-496(%rbp), %rax
 3686      FEFFFF
 3687 19ab BA530000 		movl	$83, %edx
 3687      00
 3688 19b0 4889CE   		movq	%rcx, %rsi
 3689 19b3 4889C7   		movq	%rax, %rdi
 3690              	.LEHB106:
 3691 19b6 E8000000 		call	_ZN8UnitTest11TestDetailsC1ERKS0_i
 3691      00
 3692              		.loc 3 83 0 discriminator 31
 3693 19bb E8000000 		call	_ZN8UnitTest11CurrentTest7ResultsEv
 3693      00
 3694 19c0 488B00   		movq	(%rax), %rax
 3695 19c3 488D8D10 		leaq	-496(%rbp), %rcx
 3695      FEFFFF
 3696 19ca BA000000 		movl	$.LC7, %edx
 3696      00
 3697 19cf 4889CE   		movq	%rcx, %rsi
 3698 19d2 4889C7   		movq	%rax, %rdi
 3699 19d5 E8000000 		call	_ZN8UnitTest11TestResults13OnTestFailureERKNS_11TestDetailsEPKc
 3699      00
 3700 19da EB41     		jmp	.L209
 3701              	.L208:
 3702              		.loc 3 83 0 discriminator 29
 3703 19dc 488B85E8 		movq	-536(%rbp), %rax
 3703      FDFFFF
 3704 19e3 488D4808 		leaq	8(%rax), %rcx
 3705 19e7 488D8510 		leaq	-496(%rbp), %rax
 3705      FEFFFF
 3706 19ee BA530000 		movl	$83, %edx
 3706      00
 3707 19f3 4889CE   		movq	%rcx, %rsi
 3708 19f6 4889C7   		movq	%rax, %rdi
 3709 19f9 E8000000 		call	_ZN8UnitTest11TestDetailsC1ERKS0_i
 3709      00
 3710              		.loc 3 83 0 discriminator 38
 3711 19fe E8000000 		call	_ZN8UnitTest11CurrentTest7ResultsEv
 3711      00
 3712 1a03 488B00   		movq	(%rax), %rax
 3713 1a06 488D8D10 		leaq	-496(%rbp), %rcx
 3713      FEFFFF
 3714 1a0d BA000000 		movl	$.LC8, %edx
 3714      00
 3715 1a12 4889CE   		movq	%rcx, %rsi
 3716 1a15 4889C7   		movq	%rax, %rdi
 3717 1a18 E8000000 		call	_ZN8UnitTest11TestResults13OnTestFailureERKNS_11TestDetailsEPKc
 3717      00
 3718              	.LEHE106:
 3719              	.L209:
 3720              	.LEHB107:
 3721              		.loc 3 83 0 discriminator 43
 3722 1a1d E8000000 		call	__cxa_end_catch
 3722      00
 3723              	.LEHE107:
 3724              	.L218:
 3725              	.LBE93:
 3726              		.loc 3 83 0
 3727 1a22 90       		nop
 3728 1a23 488B45E8 		movq	-24(%rbp), %rax
 3729 1a27 64483304 		xorq	%fs:40, %rax
 3729      25280000 
 3729      00
 3730 1a30 7405     		je	.L210
 3731 1a32 E8000000 		call	__stack_chk_fail
 3731      00
 3732              	.L210:
 3733 1a37 4881C410 		addq	$528, %rsp
 3733      020000
 3734 1a3e 5B       		popq	%rbx
 3735 1a3f 415C     		popq	%r12
 3736 1a41 5D       		popq	%rbp
 3737              		.cfi_def_cfa 7, 8
 3738 1a42 C3       		ret
 3739              		.cfi_endproc
 3740              	.LFE1403:
 3741              		.section	.gcc_except_table
 3742              		.align 4
 3743              	.LLSDA1403:
 3744 0270 FF       		.byte	0xff
 3745 0271 03       		.byte	0x3
 3746 0272 59       		.uleb128 .LLSDATT1403-.LLSDATTD1403
 3747              	.LLSDATTD1403:
 3748 0273 01       		.byte	0x1
 3749 0274 41       		.uleb128 .LLSDACSE1403-.LLSDACSB1403
 3750              	.LLSDACSB1403:
 3751 0275 43       		.uleb128 .LEHB96-.LFB1403
 3752 0276 05       		.uleb128 .LEHE96-.LEHB96
 3753 0277 9D01     		.uleb128 .L211-.LFB1403
 3754 0279 05       		.uleb128 0x5
 3755 027a 67       		.uleb128 .LEHB97-.LFB1403
 3756 027b 05       		.uleb128 .LEHE97-.LEHB97
 3757 027c 8001     		.uleb128 .L212-.LFB1403
 3758 027e 07       		.uleb128 0x7
 3759 027f 76       		.uleb128 .LEHB98-.LFB1403
 3760 0280 05       		.uleb128 .LEHE98-.LEHB98
 3761 0281 9D01     		.uleb128 .L211-.LFB1403
 3762 0283 05       		.uleb128 0x5
 3763 0284 C001     		.uleb128 .LEHB99-.LFB1403
 3764 0286 05       		.uleb128 .LEHE99-.LEHB99
 3765 0287 00       		.uleb128 0
 3766 0288 00       		.uleb128 0
 3767 0289 E701     		.uleb128 .LEHB100-.LFB1403
 3768 028b 05       		.uleb128 .LEHE100-.LEHB100
 3769 028c 00       		.uleb128 0
 3770 028d 00       		.uleb128 0
 3771 028e FA01     		.uleb128 .LEHB101-.LFB1403
 3772 0290 05       		.uleb128 .LEHE101-.LEHB101
 3773 0291 00       		.uleb128 0
 3774 0292 00       		.uleb128 0
 3775 0293 B802     		.uleb128 .LEHB102-.LFB1403
 3776 0295 5F       		.uleb128 .LEHE102-.LEHB102
 3777 0296 B201     		.uleb128 .L213-.LFB1403
 3778 0298 00       		.uleb128 0
 3779 0299 BA03     		.uleb128 .LEHB103-.LFB1403
 3780 029b 05       		.uleb128 .LEHE103-.LEHB103
 3781 029c D901     		.uleb128 .L215-.LFB1403
 3782 029e 00       		.uleb128 0
 3783 029f EE03     		.uleb128 .LEHB104-.LFB1403
 3784 02a1 43       		.uleb128 .LEHE104-.LEHB104
 3785 02a2 C501     		.uleb128 .L214-.LFB1403
 3786 02a4 00       		.uleb128 0
 3787 02a5 BB04     		.uleb128 .LEHB105-.LFB1403
 3788 02a7 05       		.uleb128 .LEHE105-.LEHB105
 3789 02a8 D901     		.uleb128 .L215-.LFB1403
 3790 02aa 00       		.uleb128 0
 3791 02ab F804     		.uleb128 .LEHB106-.LFB1403
 3792 02ad 67       		.uleb128 .LEHE106-.LEHB106
 3793 02ae EC01     		.uleb128 .L216-.LFB1403
 3794 02b0 00       		.uleb128 0
 3795 02b1 DF05     		.uleb128 .LEHB107-.LFB1403
 3796 02b3 05       		.uleb128 .LEHE107-.LEHB107
 3797 02b4 00       		.uleb128 0
 3798 02b5 00       		.uleb128 0
 3799              	.LLSDACSE1403:
 3800 02b6 03       		.byte	0x3
 3801 02b7 00       		.byte	0
 3802 02b8 02       		.byte	0x2
 3803 02b9 7D       		.byte	0x7d
 3804 02ba 01       		.byte	0x1
 3805 02bb 7D       		.byte	0x7d
 3806 02bc 00       		.byte	0
 3807 02bd 7D       		.byte	0x7d
 3808 02be 0000     		.align 4
 3809 02c0 00000000 		.long	0
 3810              	
 3811 02c4 00000000 		.long	_ZTISt9exception
 3812 02c8 00000000 		.long	_ZTIN8UnitTest15AssertExceptionE
 3813              	.LLSDATT1403:
 3814              		.text
 3816              		.section	.rodata
 3817              	.LC23:
 3818 039c 6661696C 		.string	"failure 1"
 3818      75726520 
 3818      3100
 3819              	.LC24:
 3820 03a6 6661696C 		.string	"failure 2"
 3820      75726520 
 3820      3200
 3821              		.align 8
 3822              	.LC25:
 3823 03b0 556E6861 		.string	"Unhandled exception in CHECK_EQUAL(2, (int)result.failures.size())"
 3823      6E646C65 
 3823      64206578 
 3823      63657074 
 3823      696F6E20 
 3824 03f3 00000000 		.align 8
 3824      00
 3825              	.LC26:
 3826 03f8 556E6861 		.string	"Unhandled exception in CHECK_EQUAL(failure1, result.failures[0].second)"
 3826      6E646C65 
 3826      64206578 
 3826      63657074 
 3826      696F6E20 
 3827              		.align 8
 3828              	.LC27:
 3829 0440 556E6861 		.string	"Unhandled exception in CHECK_EQUAL(failure2, result.failures[1].second)"
 3829      6E646C65 
 3829      64206578 
 3829      63657074 
 3829      696F6E20 
 3830              		.text
 3831 1a43 90       		.align 2
 3833              	_ZN8UnitTest12_GLOBAL__N_184DeferredTestReporterFixtureReportFailureSavesFailureDetailsForMultipleF
 3834              	.LFB1407:
  84:TestDeferredTestReporter.cpp **** {
 3835              		.loc 3 84 0 is_stmt 1
 3836              		.cfi_startproc
 3837              		.cfi_personality 0x3,__gxx_personality_v0
 3838              		.cfi_lsda 0x3,.LLSDA1407
 3839 1a44 55       		pushq	%rbp
 3840              		.cfi_def_cfa_offset 16
 3841              		.cfi_offset 6, -16
 3842 1a45 4889E5   		movq	%rsp, %rbp
 3843              		.cfi_def_cfa_register 6
 3844 1a48 53       		pushq	%rbx
 3845 1a49 4883EC68 		subq	$104, %rsp
 3846              		.cfi_offset 3, -24
 3847 1a4d 48897D98 		movq	%rdi, -104(%rbp)
 3848              		.loc 3 84 0
 3849 1a51 64488B04 		movq	%fs:40, %rax
 3849      25280000 
 3849      00
 3850 1a5a 488945E8 		movq	%rax, -24(%rbp)
 3851 1a5e 31C0     		xorl	%eax, %eax
 3852              	.LBB94:
  85:TestDeferredTestReporter.cpp ****     char const* failure1 = "failure 1";
 3853              		.loc 3 85 0
 3854 1a60 48C745A8 		movq	$.LC23, -88(%rbp)
 3854      00000000 
  86:TestDeferredTestReporter.cpp ****     char const* failure2 = "failure 2";
 3855              		.loc 3 86 0
 3856 1a68 48C745B0 		movq	$.LC24, -80(%rbp)
 3856      00000000 
  87:TestDeferredTestReporter.cpp **** 
  88:TestDeferredTestReporter.cpp ****     reporter.ReportTestStart(details);
 3857              		.loc 3 88 0
 3858 1a70 488B4598 		movq	-104(%rbp), %rax
 3859 1a74 488D5040 		leaq	64(%rax), %rdx
 3860 1a78 488B4598 		movq	-104(%rbp), %rax
 3861 1a7c 4889D6   		movq	%rdx, %rsi
 3862 1a7f 4889C7   		movq	%rax, %rdi
 3863              	.LEHB108:
 3864 1a82 E8000000 		call	_ZN8UnitTest20DeferredTestReporter15ReportTestStartERKNS_11TestDetailsE
 3864      00
  89:TestDeferredTestReporter.cpp ****     reporter.ReportFailure(details, failure1);
 3865              		.loc 3 89 0
 3866 1a87 488B55A8 		movq	-88(%rbp), %rdx
 3867 1a8b 488B4598 		movq	-104(%rbp), %rax
 3868 1a8f 488D4840 		leaq	64(%rax), %rcx
 3869 1a93 488B4598 		movq	-104(%rbp), %rax
 3870 1a97 4889CE   		movq	%rcx, %rsi
 3871 1a9a 4889C7   		movq	%rax, %rdi
 3872 1a9d E8000000 		call	_ZN8UnitTest20DeferredTestReporter13ReportFailureERKNS_11TestDetailsEPKc
 3872      00
  90:TestDeferredTestReporter.cpp ****     reporter.ReportFailure(details, failure2);
 3873              		.loc 3 90 0
 3874 1aa2 488B55B0 		movq	-80(%rbp), %rdx
 3875 1aa6 488B4598 		movq	-104(%rbp), %rax
 3876 1aaa 488D4840 		leaq	64(%rax), %rcx
 3877 1aae 488B4598 		movq	-104(%rbp), %rax
 3878 1ab2 4889CE   		movq	%rcx, %rsi
 3879 1ab5 4889C7   		movq	%rax, %rdi
 3880 1ab8 E8000000 		call	_ZN8UnitTest20DeferredTestReporter13ReportFailureERKNS_11TestDetailsEPKc
 3880      00
  91:TestDeferredTestReporter.cpp **** 
  92:TestDeferredTestReporter.cpp ****     DeferredTestResult const& result = reporter.GetResults().at(0);
 3881              		.loc 3 92 0
 3882 1abd 488B4598 		movq	-104(%rbp), %rax
 3883 1ac1 4889C7   		movq	%rax, %rdi
 3884 1ac4 E8000000 		call	_ZN8UnitTest20DeferredTestReporter10GetResultsEv
 3884      00
 3885 1ac9 BE000000 		movl	$0, %esi
 3885      00
 3886 1ace 4889C7   		movq	%rax, %rdi
 3887 1ad1 E8000000 		call	_ZNSt6vectorIN8UnitTest18DeferredTestResultESaIS1_EE2atEm
 3887      00
 3888              	.LEHE108:
 3889 1ad6 488945B8 		movq	%rax, -72(%rbp)
 3890              	.LEHB109:
  93:TestDeferredTestReporter.cpp ****     CHECK_EQUAL(2, (int)result.failures.size());
 3891              		.loc 3 93 0
 3892 1ada E8000000 		call	_ZN8UnitTest11CurrentTest7DetailsEv
 3892      00
 3893 1adf 488B08   		movq	(%rax), %rcx
 3894 1ae2 488D45C0 		leaq	-64(%rbp), %rax
 3895 1ae6 BA5D0000 		movl	$93, %edx
 3895      00
 3896 1aeb 4889CE   		movq	%rcx, %rsi
 3897 1aee 4889C7   		movq	%rax, %rdi
 3898 1af1 E8000000 		call	_ZN8UnitTest11TestDetailsC1ERKS0_i
 3898      00
 3899              		.loc 3 93 0 is_stmt 0 discriminator 2
 3900 1af6 488B45B8 		movq	-72(%rbp), %rax
 3901 1afa 4883C018 		addq	$24, %rax
 3902 1afe 4889C7   		movq	%rax, %rdi
 3903 1b01 E8000000 		call	_ZNKSt6vectorISt4pairIiSsESaIS1_EE4sizeEv
 3903      00
 3904 1b06 8945A4   		movl	%eax, -92(%rbp)
 3905 1b09 C745A002 		movl	$2, -96(%rbp)
 3905      000000
 3906 1b10 E8000000 		call	_ZN8UnitTest11CurrentTest7ResultsEv
 3906      00
 3907 1b15 488B00   		movq	(%rax), %rax
 3908 1b18 488D4DC0 		leaq	-64(%rbp), %rcx
 3909 1b1c 488D55A4 		leaq	-92(%rbp), %rdx
 3910 1b20 488D75A0 		leaq	-96(%rbp), %rsi
 3911 1b24 4889C7   		movq	%rax, %rdi
 3912 1b27 E8000000 		call	_ZN8UnitTest10CheckEqualIiiEEvRNS_11TestResultsERKT_RKT0_RKNS_11TestDetailsE
 3912      00
 3913              	.LEHE109:
 3914              	.L222:
 3915              	.LEHB110:
  94:TestDeferredTestReporter.cpp ****     CHECK_EQUAL(failure1, result.failures[0].second);
 3916              		.loc 3 94 0 is_stmt 1
 3917 1b2c E8000000 		call	_ZN8UnitTest11CurrentTest7DetailsEv
 3917      00
 3918 1b31 488B08   		movq	(%rax), %rcx
 3919 1b34 488D45C0 		leaq	-64(%rbp), %rax
 3920 1b38 BA5E0000 		movl	$94, %edx
 3920      00
 3921 1b3d 4889CE   		movq	%rcx, %rsi
 3922 1b40 4889C7   		movq	%rax, %rdi
 3923 1b43 E8000000 		call	_ZN8UnitTest11TestDetailsC1ERKS0_i
 3923      00
 3924              		.loc 3 94 0 is_stmt 0 discriminator 2
 3925 1b48 488B45B8 		movq	-72(%rbp), %rax
 3926 1b4c 4883C018 		addq	$24, %rax
 3927 1b50 BE000000 		movl	$0, %esi
 3927      00
 3928 1b55 4889C7   		movq	%rax, %rdi
 3929 1b58 E8000000 		call	_ZNKSt6vectorISt4pairIiSsESaIS1_EEixEm
 3929      00
 3930 1b5d 488D5808 		leaq	8(%rax), %rbx
 3931 1b61 E8000000 		call	_ZN8UnitTest11CurrentTest7ResultsEv
 3931      00
 3932 1b66 488B00   		movq	(%rax), %rax
 3933 1b69 488D55C0 		leaq	-64(%rbp), %rdx
 3934 1b6d 488D75A8 		leaq	-88(%rbp), %rsi
 3935 1b71 4889D1   		movq	%rdx, %rcx
 3936 1b74 4889DA   		movq	%rbx, %rdx
 3937 1b77 4889C7   		movq	%rax, %rdi
 3938 1b7a E8000000 		call	_ZN8UnitTest10CheckEqualIPKcSsEEvRNS_11TestResultsERKT_RKT0_RKNS_11TestDetailsE
 3938      00
 3939              	.LEHE110:
 3940              	.L225:
 3941              	.LEHB111:
  95:TestDeferredTestReporter.cpp ****     CHECK_EQUAL(failure2, result.failures[1].second);
 3942              		.loc 3 95 0 is_stmt 1
 3943 1b7f E8000000 		call	_ZN8UnitTest11CurrentTest7DetailsEv
 3943      00
 3944 1b84 488B08   		movq	(%rax), %rcx
 3945 1b87 488D45C0 		leaq	-64(%rbp), %rax
 3946 1b8b BA5F0000 		movl	$95, %edx
 3946      00
 3947 1b90 4889CE   		movq	%rcx, %rsi
 3948 1b93 4889C7   		movq	%rax, %rdi
 3949 1b96 E8000000 		call	_ZN8UnitTest11TestDetailsC1ERKS0_i
 3949      00
 3950              		.loc 3 95 0 is_stmt 0 discriminator 2
 3951 1b9b 488B45B8 		movq	-72(%rbp), %rax
 3952 1b9f 4883C018 		addq	$24, %rax
 3953 1ba3 BE010000 		movl	$1, %esi
 3953      00
 3954 1ba8 4889C7   		movq	%rax, %rdi
 3955 1bab E8000000 		call	_ZNKSt6vectorISt4pairIiSsESaIS1_EEixEm
 3955      00
 3956 1bb0 488D5808 		leaq	8(%rax), %rbx
 3957 1bb4 E8000000 		call	_ZN8UnitTest11CurrentTest7ResultsEv
 3957      00
 3958 1bb9 488B00   		movq	(%rax), %rax
 3959 1bbc 488D55C0 		leaq	-64(%rbp), %rdx
 3960 1bc0 488D75B0 		leaq	-80(%rbp), %rsi
 3961 1bc4 4889D1   		movq	%rdx, %rcx
 3962 1bc7 4889DA   		movq	%rbx, %rdx
 3963 1bca 4889C7   		movq	%rax, %rdi
 3964 1bcd E8000000 		call	_ZN8UnitTest10CheckEqualIPKcSsEEvRNS_11TestResultsERKT_RKT0_RKNS_11TestDetailsE
 3964      00
 3965              	.LEHE111:
 3966              	.LBE94:
  96:TestDeferredTestReporter.cpp **** }
 3967              		.loc 3 96 0 is_stmt 1
 3968 1bd2 E9120100 		jmp	.L236
 3968      00
 3969              	.L231:
 3970 1bd7 4889C3   		movq	%rax, %rbx
 3971              	.LBB95:
  93:TestDeferredTestReporter.cpp ****     CHECK_EQUAL(failure1, result.failures[0].second);
 3972              		.loc 3 93 0
 3973 1bda E8000000 		call	__cxa_end_catch
 3973      00
 3974 1bdf 4889D8   		movq	%rbx, %rax
 3975 1be2 4889C7   		movq	%rax, %rdi
 3976              	.LEHB112:
 3977 1be5 E8000000 		call	_Unwind_Resume
 3977      00
 3978              	.LEHE112:
 3979              	.L230:
 3980 1bea 4889C7   		movq	%rax, %rdi
 3981 1bed E8000000 		call	__cxa_begin_catch
 3981      00
 3982              	.LEHB113:
 3983 1bf2 E8000000 		call	_ZN8UnitTest11CurrentTest7DetailsEv
 3983      00
 3984 1bf7 488B08   		movq	(%rax), %rcx
 3985 1bfa 488D45C0 		leaq	-64(%rbp), %rax
 3986 1bfe BA5D0000 		movl	$93, %edx
 3986      00
 3987 1c03 4889CE   		movq	%rcx, %rsi
 3988 1c06 4889C7   		movq	%rax, %rdi
 3989 1c09 E8000000 		call	_ZN8UnitTest11TestDetailsC1ERKS0_i
 3989      00
  93:TestDeferredTestReporter.cpp ****     CHECK_EQUAL(failure1, result.failures[0].second);
 3990              		.loc 3 93 0 is_stmt 0 discriminator 10
 3991 1c0e E8000000 		call	_ZN8UnitTest11CurrentTest7ResultsEv
 3991      00
 3992 1c13 488B00   		movq	(%rax), %rax
 3993 1c16 488D4DC0 		leaq	-64(%rbp), %rcx
 3994 1c1a BA000000 		movl	$.LC25, %edx
 3994      00
 3995 1c1f 4889CE   		movq	%rcx, %rsi
 3996 1c22 4889C7   		movq	%rax, %rdi
 3997 1c25 E8000000 		call	_ZN8UnitTest11TestResults13OnTestFailureERKNS_11TestDetailsEPKc
 3997      00
 3998              	.LEHE113:
 3999              	.LEHB114:
  93:TestDeferredTestReporter.cpp ****     CHECK_EQUAL(failure1, result.failures[0].second);
 4000              		.loc 3 93 0 discriminator 14
 4001 1c2a E8000000 		call	__cxa_end_catch
 4001      00
 4002              	.LEHE114:
 4003 1c2f E9F8FEFF 		jmp	.L222
 4003      FF
 4004              	.L233:
 4005 1c34 4889C3   		movq	%rax, %rbx
  94:TestDeferredTestReporter.cpp ****     CHECK_EQUAL(failure2, result.failures[1].second);
 4006              		.loc 3 94 0 is_stmt 1
 4007 1c37 E8000000 		call	__cxa_end_catch
 4007      00
 4008 1c3c 4889D8   		movq	%rbx, %rax
 4009 1c3f 4889C7   		movq	%rax, %rdi
 4010              	.LEHB115:
 4011 1c42 E8000000 		call	_Unwind_Resume
 4011      00
 4012              	.LEHE115:
 4013              	.L232:
 4014 1c47 4889C7   		movq	%rax, %rdi
 4015 1c4a E8000000 		call	__cxa_begin_catch
 4015      00
 4016              	.LEHB116:
 4017 1c4f E8000000 		call	_ZN8UnitTest11CurrentTest7DetailsEv
 4017      00
 4018 1c54 488B08   		movq	(%rax), %rcx
 4019 1c57 488D45C0 		leaq	-64(%rbp), %rax
 4020 1c5b BA5E0000 		movl	$94, %edx
 4020      00
 4021 1c60 4889CE   		movq	%rcx, %rsi
 4022 1c63 4889C7   		movq	%rax, %rdi
 4023 1c66 E8000000 		call	_ZN8UnitTest11TestDetailsC1ERKS0_i
 4023      00
  94:TestDeferredTestReporter.cpp ****     CHECK_EQUAL(failure2, result.failures[1].second);
 4024              		.loc 3 94 0 is_stmt 0 discriminator 10
 4025 1c6b E8000000 		call	_ZN8UnitTest11CurrentTest7ResultsEv
 4025      00
 4026 1c70 488B00   		movq	(%rax), %rax
 4027 1c73 488D4DC0 		leaq	-64(%rbp), %rcx
 4028 1c77 BA000000 		movl	$.LC26, %edx
 4028      00
 4029 1c7c 4889CE   		movq	%rcx, %rsi
 4030 1c7f 4889C7   		movq	%rax, %rdi
 4031 1c82 E8000000 		call	_ZN8UnitTest11TestResults13OnTestFailureERKNS_11TestDetailsEPKc
 4031      00
 4032              	.LEHE116:
 4033              	.LEHB117:
  94:TestDeferredTestReporter.cpp ****     CHECK_EQUAL(failure2, result.failures[1].second);
 4034              		.loc 3 94 0 discriminator 14
 4035 1c87 E8000000 		call	__cxa_end_catch
 4035      00
 4036              	.LEHE117:
 4037 1c8c E9EEFEFF 		jmp	.L225
 4037      FF
 4038              	.L235:
 4039 1c91 4889C3   		movq	%rax, %rbx
  95:TestDeferredTestReporter.cpp **** }
 4040              		.loc 3 95 0 is_stmt 1
 4041 1c94 E8000000 		call	__cxa_end_catch
 4041      00
 4042 1c99 4889D8   		movq	%rbx, %rax
 4043 1c9c 4889C7   		movq	%rax, %rdi
 4044              	.LEHB118:
 4045 1c9f E8000000 		call	_Unwind_Resume
 4045      00
 4046              	.LEHE118:
 4047              	.L234:
 4048 1ca4 4889C7   		movq	%rax, %rdi
 4049 1ca7 E8000000 		call	__cxa_begin_catch
 4049      00
 4050              	.LEHB119:
 4051 1cac E8000000 		call	_ZN8UnitTest11CurrentTest7DetailsEv
 4051      00
 4052 1cb1 488B08   		movq	(%rax), %rcx
 4053 1cb4 488D45C0 		leaq	-64(%rbp), %rax
 4054 1cb8 BA5F0000 		movl	$95, %edx
 4054      00
 4055 1cbd 4889CE   		movq	%rcx, %rsi
 4056 1cc0 4889C7   		movq	%rax, %rdi
 4057 1cc3 E8000000 		call	_ZN8UnitTest11TestDetailsC1ERKS0_i
 4057      00
  95:TestDeferredTestReporter.cpp **** }
 4058              		.loc 3 95 0 is_stmt 0 discriminator 10
 4059 1cc8 E8000000 		call	_ZN8UnitTest11CurrentTest7ResultsEv
 4059      00
 4060 1ccd 488B00   		movq	(%rax), %rax
 4061 1cd0 488D4DC0 		leaq	-64(%rbp), %rcx
 4062 1cd4 BA000000 		movl	$.LC27, %edx
 4062      00
 4063 1cd9 4889CE   		movq	%rcx, %rsi
 4064 1cdc 4889C7   		movq	%rax, %rdi
 4065 1cdf E8000000 		call	_ZN8UnitTest11TestResults13OnTestFailureERKNS_11TestDetailsEPKc
 4065      00
 4066              	.LEHE119:
 4067              	.LEHB120:
  95:TestDeferredTestReporter.cpp **** }
 4068              		.loc 3 95 0 discriminator 14
 4069 1ce4 E8000000 		call	__cxa_end_catch
 4069      00
 4070              	.LEHE120:
 4071              	.L236:
 4072              	.LBE95:
 4073              		.loc 3 96 0 is_stmt 1
 4074 1ce9 90       		nop
 4075 1cea 488B45E8 		movq	-24(%rbp), %rax
 4076 1cee 64483304 		xorq	%fs:40, %rax
 4076      25280000 
 4076      00
 4077 1cf7 7405     		je	.L229
 4078 1cf9 E8000000 		call	__stack_chk_fail
 4078      00
 4079              	.L229:
 4080 1cfe 4883C468 		addq	$104, %rsp
 4081 1d02 5B       		popq	%rbx
 4082 1d03 5D       		popq	%rbp
 4083              		.cfi_def_cfa 7, 8
 4084 1d04 C3       		ret
 4085              		.cfi_endproc
 4086              	.LFE1407:
 4087              		.section	.gcc_except_table
 4088              		.align 4
 4089              	.LLSDA1407:
 4090 02cc FF       		.byte	0xff
 4091 02cd 03       		.byte	0x3
 4092 02ce 51       		.uleb128 .LLSDATT1407-.LLSDATTD1407
 4093              	.LLSDATTD1407:
 4094 02cf 01       		.byte	0x1
 4095 02d0 46       		.uleb128 .LLSDACSE1407-.LLSDACSB1407
 4096              	.LLSDACSB1407:
 4097 02d1 3E       		.uleb128 .LEHB108-.LFB1407
 4098 02d2 54       		.uleb128 .LEHE108-.LEHB108
 4099 02d3 00       		.uleb128 0
 4100 02d4 00       		.uleb128 0
 4101 02d5 9601     		.uleb128 .LEHB109-.LFB1407
 4102 02d7 52       		.uleb128 .LEHE109-.LEHB109
 4103 02d8 A603     		.uleb128 .L230-.LFB1407
 4104 02da 01       		.uleb128 0x1
 4105 02db E801     		.uleb128 .LEHB110-.LFB1407
 4106 02dd 53       		.uleb128 .LEHE110-.LEHB110
 4107 02de 8304     		.uleb128 .L232-.LFB1407
 4108 02e0 01       		.uleb128 0x1
 4109 02e1 BB02     		.uleb128 .LEHB111-.LFB1407
 4110 02e3 53       		.uleb128 .LEHE111-.LEHB111
 4111 02e4 E004     		.uleb128 .L234-.LFB1407
 4112 02e6 01       		.uleb128 0x1
 4113 02e7 A103     		.uleb128 .LEHB112-.LFB1407
 4114 02e9 05       		.uleb128 .LEHE112-.LEHB112
 4115 02ea 00       		.uleb128 0
 4116 02eb 00       		.uleb128 0
 4117 02ec AE03     		.uleb128 .LEHB113-.LFB1407
 4118 02ee 38       		.uleb128 .LEHE113-.LEHB113
 4119 02ef 9303     		.uleb128 .L231-.LFB1407
 4120 02f1 00       		.uleb128 0
 4121 02f2 E603     		.uleb128 .LEHB114-.LFB1407
 4122 02f4 05       		.uleb128 .LEHE114-.LEHB114
 4123 02f5 00       		.uleb128 0
 4124 02f6 00       		.uleb128 0
 4125 02f7 FE03     		.uleb128 .LEHB115-.LFB1407
 4126 02f9 05       		.uleb128 .LEHE115-.LEHB115
 4127 02fa 00       		.uleb128 0
 4128 02fb 00       		.uleb128 0
 4129 02fc 8B04     		.uleb128 .LEHB116-.LFB1407
 4130 02fe 38       		.uleb128 .LEHE116-.LEHB116
 4131 02ff F003     		.uleb128 .L233-.LFB1407
 4132 0301 00       		.uleb128 0
 4133 0302 C304     		.uleb128 .LEHB117-.LFB1407
 4134 0304 05       		.uleb128 .LEHE117-.LEHB117
 4135 0305 00       		.uleb128 0
 4136 0306 00       		.uleb128 0
 4137 0307 DB04     		.uleb128 .LEHB118-.LFB1407
 4138 0309 05       		.uleb128 .LEHE118-.LEHB118
 4139 030a 00       		.uleb128 0
 4140 030b 00       		.uleb128 0
 4141 030c E804     		.uleb128 .LEHB119-.LFB1407
 4142 030e 38       		.uleb128 .LEHE119-.LEHB119
 4143 030f CD04     		.uleb128 .L235-.LFB1407
 4144 0311 00       		.uleb128 0
 4145 0312 A005     		.uleb128 .LEHB120-.LFB1407
 4146 0314 05       		.uleb128 .LEHE120-.LEHB120
 4147 0315 00       		.uleb128 0
 4148 0316 00       		.uleb128 0
 4149              	.LLSDACSE1407:
 4150 0317 01       		.byte	0x1
 4151 0318 00       		.byte	0
 4152 0319 000000   		.align 4
 4153 031c 00000000 		.long	0
 4154              	
 4155              	.LLSDATT1407:
 4156              		.text
 4158 1d05 90       		.align 2
 4160              	_ZN8UnitTest12_GLOBAL__N_178DeferredTestReporterFixtureDeferredTestReporterTakesCopyOfFailureMessag
 4161              	.LFB1409:
  97:TestDeferredTestReporter.cpp **** 
  98:TestDeferredTestReporter.cpp **** TEST_FIXTURE(DeferredTestReporterFixture, DeferredTestReporterTakesCopyOfFailureMessage)
 4162              		.loc 3 98 0
 4163              		.cfi_startproc
 4164 1d06 55       		pushq	%rbp
 4165              		.cfi_def_cfa_offset 16
 4166              		.cfi_offset 6, -16
 4167 1d07 4889E5   		movq	%rsp, %rbp
 4168              		.cfi_def_cfa_register 6
 4169 1d0a 4883EC10 		subq	$16, %rsp
 4170 1d0e 48897DF8 		movq	%rdi, -8(%rbp)
 4171 1d12 488975F0 		movq	%rsi, -16(%rbp)
 4172              	.LBB96:
 4173              		.loc 3 98 0
 4174 1d16 488B45F8 		movq	-8(%rbp), %rax
 4175 1d1a 4889C7   		movq	%rax, %rdi
 4176 1d1d E81CE3FF 		call	_ZN8UnitTest12_GLOBAL__N_127DeferredTestReporterFixtureC2Ev
 4176      FF
 4177 1d22 488B45F8 		movq	-8(%rbp), %rax
 4178 1d26 488B55F0 		movq	-16(%rbp), %rdx
 4179 1d2a 48895060 		movq	%rdx, 96(%rax)
 4180              	.LBE96:
 4181 1d2e C9       		leave
 4182              		.cfi_def_cfa 7, 8
 4183 1d2f C3       		ret
 4184              		.cfi_endproc
 4185              	.LFE1409:
 4187              		.section	.rodata
 4188              		.align 8
 4189              	.LC28:
 4190 0488 44656665 		.string	"DeferredTestReporterTakesCopyOfFailureMessage"
 4190      72726564 
 4190      54657374 
 4190      5265706F 
 4190      72746572 
 4191              		.text
 4192              		.align 2
 4194              	_ZN8UnitTest12_GLOBAL__N_176TestDeferredTestReporterFixtureDeferredTestReporterTakesCopyOfFailureMe
 4195              	.LFB1412:
 4196              		.loc 3 98 0
 4197              		.cfi_startproc
 4198 1d30 55       		pushq	%rbp
 4199              		.cfi_def_cfa_offset 16
 4200              		.cfi_offset 6, -16
 4201 1d31 4889E5   		movq	%rsp, %rbp
 4202              		.cfi_def_cfa_register 6
 4203 1d34 4883EC10 		subq	$16, %rsp
 4204 1d38 48897DF8 		movq	%rdi, -8(%rbp)
 4205              	.LBB97:
 4206              		.loc 3 98 0
 4207 1d3c E8000000 		call	_ZN13UnitTestSuite12GetSuiteNameEv
 4207      00
 4208 1d41 4889C2   		movq	%rax, %rdx
 4209 1d44 488B45F8 		movq	-8(%rbp), %rax
 4210 1d48 41B86200 		movl	$98, %r8d
 4210      0000
 4211 1d4e B9000000 		movl	$.LC4, %ecx
 4211      00
 4212 1d53 BE000000 		movl	$.LC28, %esi
 4212      00
 4213 1d58 4889C7   		movq	%rax, %rdi
 4214 1d5b E8000000 		call	_ZN8UnitTest4TestC2EPKcS2_S2_i
 4214      00
 4215 1d60 488B45F8 		movq	-8(%rbp), %rax
 4216 1d64 48C70000 		movq	$_ZTVN8UnitTest12_GLOBAL__N_176TestDeferredTestReporterFixtureDeferredTestReporterTakesCopyOf
 4216      000000
 4217              	.LBE97:
 4218 1d6b C9       		leave
 4219              		.cfi_def_cfa 7, 8
 4220 1d6c C3       		ret
 4221              		.cfi_endproc
 4222              	.LFE1412:
 4224              		.local	_ZN8UnitTest12_GLOBAL__N_184testDeferredTestReporterFixtureDeferredTestReporterTakesCopyOfF
 4225              		.comm	_ZN8UnitTest12_GLOBAL__N_184testDeferredTestReporterFixtureDeferredTestReporterTakesCopyOfFa
 4226              		.local	_ZN8UnitTest12_GLOBAL__N_177adderDeferredTestReporterFixtureDeferredTestReporterTakesCopyOf
 4227              		.comm	_ZN8UnitTest12_GLOBAL__N_177adderDeferredTestReporterFixtureDeferredTestReporterTakesCopyOfF
 4228 1d6d 90       		.align 2
 4230              	_ZN8UnitTest12_GLOBAL__N_178DeferredTestReporterFixtureDeferredTestReporterTakesCopyOfFailureMessag
 4231              	.LFB1416:
 4232              		.loc 3 98 0
 4233              		.cfi_startproc
 4234 1d6e 55       		pushq	%rbp
 4235              		.cfi_def_cfa_offset 16
 4236              		.cfi_offset 6, -16
 4237 1d6f 4889E5   		movq	%rsp, %rbp
 4238              		.cfi_def_cfa_register 6
 4239 1d72 4883EC10 		subq	$16, %rsp
 4240 1d76 48897DF8 		movq	%rdi, -8(%rbp)
 4241              	.LBB98:
 4242              		.loc 3 98 0
 4243 1d7a 488B45F8 		movq	-8(%rbp), %rax
 4244 1d7e 4889C7   		movq	%rax, %rdi
 4245 1d81 E882E4FF 		call	_ZN8UnitTest12_GLOBAL__N_127DeferredTestReporterFixtureD2Ev
 4245      FF
 4246              	.LBE98:
 4247 1d86 C9       		leave
 4248              		.cfi_def_cfa 7, 8
 4249 1d87 C3       		ret
 4250              		.cfi_endproc
 4251              	.LFE1416:
 4253              		.align 2
 4255              	_ZNK8UnitTest12_GLOBAL__N_176TestDeferredTestReporterFixtureDeferredTestReporterTakesCopyOfFailureM
 4256              	.LFB1414:
 4257              		.loc 3 98 0
 4258              		.cfi_startproc
 4259              		.cfi_personality 0x3,__gxx_personality_v0
 4260              		.cfi_lsda 0x3,.LLSDA1414
 4261 1d88 55       		pushq	%rbp
 4262              		.cfi_def_cfa_offset 16
 4263              		.cfi_offset 6, -16
 4264 1d89 4889E5   		movq	%rsp, %rbp
 4265              		.cfi_def_cfa_register 6
 4266 1d8c 4154     		pushq	%r12
 4267 1d8e 53       		pushq	%rbx
 4268 1d8f 4881EC10 		subq	$528, %rsp
 4268      020000
 4269              		.cfi_offset 12, -24
 4270              		.cfi_offset 3, -32
 4271 1d96 4889BDE8 		movq	%rdi, -536(%rbp)
 4271      FDFFFF
 4272              		.loc 3 98 0
 4273 1d9d 64488B04 		movq	%fs:40, %rax
 4273      25280000 
 4273      00
 4274 1da6 488945E8 		movq	%rax, -24(%rbp)
 4275 1daa 31C0     		xorl	%eax, %eax
 4276              	.LBB99:
 4277 1dac C685FFFD 		movb	$0, -513(%rbp)
 4277      FFFF00
 4278              	.LBB100:
 4279 1db3 488B85E8 		movq	-536(%rbp), %rax
 4279      FDFFFF
 4280 1dba 488D5008 		leaq	8(%rax), %rdx
 4281 1dbe 488D8510 		leaq	-496(%rbp), %rax
 4281      FEFFFF
 4282 1dc5 4889D6   		movq	%rdx, %rsi
 4283 1dc8 4889C7   		movq	%rax, %rdi
 4284              	.LEHB121:
 4285 1dcb E836FFFF 		call	_ZN8UnitTest12_GLOBAL__N_178DeferredTestReporterFixtureDeferredTestReporterTakesCopyOfFailure
 4285      FF
 4286              	.LEHE121:
 4287              		.loc 3 98 0 is_stmt 0 discriminator 1
 4288 1dd0 C685FFFD 		movb	$1, -513(%rbp)
 4288      FFFF01
 4289 1dd7 488B85E8 		movq	-536(%rbp), %rax
 4289      FDFFFF
 4290 1dde 488D5008 		leaq	8(%rax), %rdx
 4291 1de2 488D8510 		leaq	-496(%rbp), %rax
 4291      FEFFFF
 4292 1de9 4889D6   		movq	%rdx, %rsi
 4293 1dec 4889C7   		movq	%rax, %rdi
 4294              	.LEHB122:
 4295 1def E80A1200 		call	_ZN8UnitTest11ExecuteTestINS_12_GLOBAL__N_178DeferredTestReporterFixtureDeferredTestReporterT
 4295      00
 4296              	.LEHE122:
 4297              		.loc 3 98 0 discriminator 3
 4298 1df4 488D8510 		leaq	-496(%rbp), %rax
 4298      FEFFFF
 4299 1dfb 4889C7   		movq	%rax, %rdi
 4300              	.LEHB123:
 4301 1dfe E86BFFFF 		call	_ZN8UnitTest12_GLOBAL__N_178DeferredTestReporterFixtureDeferredTestReporterTakesCopyOfFailure
 4301      FF
 4302              	.LEHE123:
 4303              	.LBE100:
 4304              	.LBE99:
 4305              		.loc 3 98 0
 4306 1e03 E9640200 		jmp	.L262
 4306      00
 4307              	.L256:
 4308 1e08 4989C4   		movq	%rax, %r12
 4309 1e0b 4889D3   		movq	%rdx, %rbx
 4310              	.LBB108:
 4311              	.LBB101:
 4312 1e0e 488D8510 		leaq	-496(%rbp), %rax
 4312      FEFFFF
 4313 1e15 4889C7   		movq	%rax, %rdi
 4314 1e18 E851FFFF 		call	_ZN8UnitTest12_GLOBAL__N_178DeferredTestReporterFixtureDeferredTestReporterTakesCopyOfFailure
 4314      FF
 4315 1e1d 4C89E0   		movq	%r12, %rax
 4316 1e20 4889DA   		movq	%rbx, %rdx
 4317 1e23 EB00     		jmp	.L243
 4318              	.L255:
 4319              	.L243:
 4320 1e25 4883FA01 		cmpq	$1, %rdx
 4321 1e29 745C     		je	.L245
 4322 1e2b 4883FA02 		cmpq	$2, %rdx
 4323 1e2f 0F84F400 		je	.L246
 4323      0000
 4324 1e35 E9980100 		jmp	.L261
 4324      00
 4325              	.L257:
 4326 1e3a 4889C3   		movq	%rax, %rbx
 4327              	.LBE101:
 4328              	.LBB102:
 4329 1e3d E8000000 		call	__cxa_end_catch
 4329      00
 4330 1e42 4889D8   		movq	%rbx, %rax
 4331 1e45 4889C7   		movq	%rax, %rdi
 4332              	.LEHB124:
 4333 1e48 E8000000 		call	_Unwind_Resume
 4333      00
 4334              	.LEHE124:
 4335              	.L258:
 4336 1e4d 4889C3   		movq	%rax, %rbx
 4337              	.LBE102:
 4338              	.LBB103:
 4339              	.LBB104:
 4340 1e50 488D8580 		leaq	-384(%rbp), %rax
 4340      FEFFFF
 4341 1e57 4889C7   		movq	%rax, %rdi
 4342 1e5a E8000000 		call	_ZN8UnitTest15MemoryOutStreamD1Ev
 4342      00
 4343 1e5f EB03     		jmp	.L249
 4344              	.L259:
 4345 1e61 4889C3   		movq	%rax, %rbx
 4346              	.L249:
 4347              	.LBE104:
 4348 1e64 E8000000 		call	__cxa_end_catch
 4348      00
 4349 1e69 4889D8   		movq	%rbx, %rax
 4350 1e6c 4889C7   		movq	%rax, %rdi
 4351              	.LEHB125:
 4352 1e6f E8000000 		call	_Unwind_Resume
 4352      00
 4353              	.LEHE125:
 4354              	.L260:
 4355 1e74 4889C3   		movq	%rax, %rbx
 4356              	.LBE103:
 4357 1e77 E8000000 		call	__cxa_end_catch
 4357      00
 4358 1e7c 4889D8   		movq	%rbx, %rax
 4359 1e7f 4889C7   		movq	%rax, %rdi
 4360              	.LEHB126:
 4361 1e82 E8000000 		call	_Unwind_Resume
 4361      00
 4362              	.LEHE126:
 4363              	.L245:
 4364              	.LBB106:
 4365 1e87 4889C7   		movq	%rax, %rdi
 4366 1e8a E8000000 		call	__cxa_begin_catch
 4366      00
 4367 1e8f 48898500 		movq	%rax, -512(%rbp)
 4367      FEFFFF
 4368 1e96 488B8500 		movq	-512(%rbp), %rax
 4368      FEFFFF
 4369 1e9d 488B00   		movq	(%rax), %rax
 4370 1ea0 4883C010 		addq	$16, %rax
 4371 1ea4 488B00   		movq	(%rax), %rax
 4372 1ea7 488B9500 		movq	-512(%rbp), %rdx
 4372      FEFFFF
 4373 1eae 4889D7   		movq	%rdx, %rdi
 4374 1eb1 FFD0     		call	*%rax
 4375 1eb3 4889C3   		movq	%rax, %rbx
 4376 1eb6 488B8500 		movq	-512(%rbp), %rax
 4376      FEFFFF
 4377 1ebd 4889C7   		movq	%rax, %rdi
 4378              	.LEHB127:
 4379 1ec0 E8000000 		call	_ZNK8UnitTest15AssertException10LineNumberEv
 4379      00
 4380 1ec5 4189C4   		movl	%eax, %r12d
 4381 1ec8 488B8500 		movq	-512(%rbp), %rax
 4381      FEFFFF
 4382 1ecf 4889C7   		movq	%rax, %rdi
 4383 1ed2 E8000000 		call	_ZNK8UnitTest15AssertException8FilenameEv
 4383      00
 4384              		.loc 3 98 0 discriminator 5
 4385 1ed7 4889C1   		movq	%rax, %rcx
 4386 1eda 488B85E8 		movq	-536(%rbp), %rax
 4386      FDFFFF
 4387 1ee1 488B5008 		movq	8(%rax), %rdx
 4388 1ee5 488B85E8 		movq	-536(%rbp), %rax
 4388      FDFFFF
 4389 1eec 488B7010 		movq	16(%rax), %rsi
 4390 1ef0 488D8510 		leaq	-496(%rbp), %rax
 4390      FEFFFF
 4391 1ef7 4589E0   		movl	%r12d, %r8d
 4392 1efa 4889C7   		movq	%rax, %rdi
 4393 1efd E8000000 		call	_ZN8UnitTest11TestDetailsC1EPKcS2_S2_i
 4393      00
 4394              		.loc 3 98 0 discriminator 9
 4395 1f02 E8000000 		call	_ZN8UnitTest11CurrentTest7ResultsEv
 4395      00
 4396 1f07 488B00   		movq	(%rax), %rax
 4397 1f0a 488D8D10 		leaq	-496(%rbp), %rcx
 4397      FEFFFF
 4398 1f11 4889DA   		movq	%rbx, %rdx
 4399 1f14 4889CE   		movq	%rcx, %rsi
 4400 1f17 4889C7   		movq	%rax, %rdi
 4401 1f1a E8000000 		call	_ZN8UnitTest11TestResults13OnTestFailureERKNS_11TestDetailsEPKc
 4401      00
 4402              	.LEHE127:
 4403              		.loc 3 98 0 discriminator 13
 4404 1f1f E8000000 		call	__cxa_end_catch
 4404      00
 4405              	.LBE106:
 4406              	.LBE108:
 4407 1f24 E9430100 		jmp	.L262
 4407      00
 4408              	.L246:
 4409              	.LBB109:
 4410              	.LBB107:
 4411              		.loc 3 98 0
 4412 1f29 4889C7   		movq	%rax, %rdi
 4413 1f2c E8000000 		call	__cxa_begin_catch
 4413      00
 4414 1f31 48898508 		movq	%rax, -504(%rbp)
 4414      FEFFFF
 4415              	.LBB105:
 4416 1f38 488D8580 		leaq	-384(%rbp), %rax
 4416      FEFFFF
 4417 1f3f 4889C7   		movq	%rax, %rdi
 4418              	.LEHB128:
 4419 1f42 E8000000 		call	_ZN8UnitTest15MemoryOutStreamC1Ev
 4419      00
 4420              	.LEHE128:
 4421              		.loc 3 98 0 discriminator 15
 4422 1f47 488B8508 		movq	-504(%rbp), %rax
 4422      FEFFFF
 4423 1f4e 488B00   		movq	(%rax), %rax
 4424 1f51 4883C010 		addq	$16, %rax
 4425 1f55 488B00   		movq	(%rax), %rax
 4426 1f58 488B9508 		movq	-504(%rbp), %rdx
 4426      FEFFFF
 4427 1f5f 4889D7   		movq	%rdx, %rdi
 4428 1f62 FFD0     		call	*%rax
 4429 1f64 4889C3   		movq	%rax, %rbx
 4430 1f67 488D8580 		leaq	-384(%rbp), %rax
 4430      FEFFFF
 4431 1f6e BE000000 		movl	$.LC6, %esi
 4431      00
 4432 1f73 4889C7   		movq	%rax, %rdi
 4433              	.LEHB129:
 4434 1f76 E8000000 		call	_ZStlsISt11char_traitsIcEERSt13basic_ostreamIcT_ES5_PKc
 4434      00
 4435 1f7b 4889DE   		movq	%rbx, %rsi
 4436 1f7e 4889C7   		movq	%rax, %rdi
 4437 1f81 E8000000 		call	_ZStlsISt11char_traitsIcEERSt13basic_ostreamIcT_ES5_PKc
 4437      00
 4438              		.loc 3 98 0 discriminator 19
 4439 1f86 488D8580 		leaq	-384(%rbp), %rax
 4439      FEFFFF
 4440 1f8d 4889C7   		movq	%rax, %rdi
 4441 1f90 E8000000 		call	_ZNK8UnitTest15MemoryOutStream7GetTextEv
 4441      00
 4442 1f95 4989C4   		movq	%rax, %r12
 4443 1f98 488B85E8 		movq	-536(%rbp), %rax
 4443      FDFFFF
 4444 1f9f 488D5808 		leaq	8(%rax), %rbx
 4445 1fa3 E8000000 		call	_ZN8UnitTest11CurrentTest7ResultsEv
 4445      00
 4446              		.loc 3 98 0 discriminator 21
 4447 1fa8 488B00   		movq	(%rax), %rax
 4448 1fab 4C89E2   		movq	%r12, %rdx
 4449 1fae 4889DE   		movq	%rbx, %rsi
 4450 1fb1 4889C7   		movq	%rax, %rdi
 4451 1fb4 E8000000 		call	_ZN8UnitTest11TestResults13OnTestFailureERKNS_11TestDetailsEPKc
 4451      00
 4452              	.LEHE129:
 4453              		.loc 3 98 0 discriminator 25
 4454 1fb9 488D8580 		leaq	-384(%rbp), %rax
 4454      FEFFFF
 4455 1fc0 4889C7   		movq	%rax, %rdi
 4456              	.LEHB130:
 4457 1fc3 E8000000 		call	_ZN8UnitTest15MemoryOutStreamD1Ev
 4457      00
 4458              	.LEHE130:
 4459              	.LBE105:
 4460              		.loc 3 98 0 discriminator 26
 4461 1fc8 E8000000 		call	__cxa_end_catch
 4461      00
 4462              	.LBE107:
 4463              	.LBE109:
 4464 1fcd E99A0000 		jmp	.L262
 4464      00
 4465              	.L261:
 4466              	.LBB110:
 4467              		.loc 3 98 0
 4468 1fd2 4889C7   		movq	%rax, %rdi
 4469 1fd5 E8000000 		call	__cxa_begin_catch
 4469      00
 4470 1fda 80BDFFFD 		cmpb	$0, -513(%rbp)
 4470      FFFF00
 4471 1fe1 7443     		je	.L252
 4472              		.loc 3 98 0 discriminator 28
 4473 1fe3 488B85E8 		movq	-536(%rbp), %rax
 4473      FDFFFF
 4474 1fea 488D4808 		leaq	8(%rax), %rcx
 4475 1fee 488D8510 		leaq	-496(%rbp), %rax
 4475      FEFFFF
 4476 1ff5 BA620000 		movl	$98, %edx
 4476      00
 4477 1ffa 4889CE   		movq	%rcx, %rsi
 4478 1ffd 4889C7   		movq	%rax, %rdi
 4479              	.LEHB131:
 4480 2000 E8000000 		call	_ZN8UnitTest11TestDetailsC1ERKS0_i
 4480      00
 4481              		.loc 3 98 0 discriminator 31
 4482 2005 E8000000 		call	_ZN8UnitTest11CurrentTest7ResultsEv
 4482      00
 4483 200a 488B00   		movq	(%rax), %rax
 4484 200d 488D8D10 		leaq	-496(%rbp), %rcx
 4484      FEFFFF
 4485 2014 BA000000 		movl	$.LC7, %edx
 4485      00
 4486 2019 4889CE   		movq	%rcx, %rsi
 4487 201c 4889C7   		movq	%rax, %rdi
 4488 201f E8000000 		call	_ZN8UnitTest11TestResults13OnTestFailureERKNS_11TestDetailsEPKc
 4488      00
 4489 2024 EB41     		jmp	.L253
 4490              	.L252:
 4491              		.loc 3 98 0 discriminator 29
 4492 2026 488B85E8 		movq	-536(%rbp), %rax
 4492      FDFFFF
 4493 202d 488D4808 		leaq	8(%rax), %rcx
 4494 2031 488D8510 		leaq	-496(%rbp), %rax
 4494      FEFFFF
 4495 2038 BA620000 		movl	$98, %edx
 4495      00
 4496 203d 4889CE   		movq	%rcx, %rsi
 4497 2040 4889C7   		movq	%rax, %rdi
 4498 2043 E8000000 		call	_ZN8UnitTest11TestDetailsC1ERKS0_i
 4498      00
 4499              		.loc 3 98 0 discriminator 38
 4500 2048 E8000000 		call	_ZN8UnitTest11CurrentTest7ResultsEv
 4500      00
 4501 204d 488B00   		movq	(%rax), %rax
 4502 2050 488D8D10 		leaq	-496(%rbp), %rcx
 4502      FEFFFF
 4503 2057 BA000000 		movl	$.LC8, %edx
 4503      00
 4504 205c 4889CE   		movq	%rcx, %rsi
 4505 205f 4889C7   		movq	%rax, %rdi
 4506 2062 E8000000 		call	_ZN8UnitTest11TestResults13OnTestFailureERKNS_11TestDetailsEPKc
 4506      00
 4507              	.LEHE131:
 4508              	.L253:
 4509              	.LEHB132:
 4510              		.loc 3 98 0 discriminator 43
 4511 2067 E8000000 		call	__cxa_end_catch
 4511      00
 4512              	.LEHE132:
 4513              	.L262:
 4514              	.LBE110:
 4515              		.loc 3 98 0
 4516 206c 90       		nop
 4517 206d 488B45E8 		movq	-24(%rbp), %rax
 4518 2071 64483304 		xorq	%fs:40, %rax
 4518      25280000 
 4518      00
 4519 207a 7405     		je	.L254
 4520 207c E8000000 		call	__stack_chk_fail
 4520      00
 4521              	.L254:
 4522 2081 4881C410 		addq	$528, %rsp
 4522      020000
 4523 2088 5B       		popq	%rbx
 4524 2089 415C     		popq	%r12
 4525 208b 5D       		popq	%rbp
 4526              		.cfi_def_cfa 7, 8
 4527 208c C3       		ret
 4528              		.cfi_endproc
 4529              	.LFE1414:
 4530              		.section	.gcc_except_table
 4531              		.align 4
 4532              	.LLSDA1414:
 4533 0320 FF       		.byte	0xff
 4534 0321 03       		.byte	0x3
 4535 0322 59       		.uleb128 .LLSDATT1414-.LLSDATTD1414
 4536              	.LLSDATTD1414:
 4537 0323 01       		.byte	0x1
 4538 0324 41       		.uleb128 .LLSDACSE1414-.LLSDACSB1414
 4539              	.LLSDACSB1414:
 4540 0325 43       		.uleb128 .LEHB121-.LFB1414
 4541 0326 05       		.uleb128 .LEHE121-.LEHB121
 4542 0327 9D01     		.uleb128 .L255-.LFB1414
 4543 0329 05       		.uleb128 0x5
 4544 032a 67       		.uleb128 .LEHB122-.LFB1414
 4545 032b 05       		.uleb128 .LEHE122-.LEHB122
 4546 032c 8001     		.uleb128 .L256-.LFB1414
 4547 032e 07       		.uleb128 0x7
 4548 032f 76       		.uleb128 .LEHB123-.LFB1414
 4549 0330 05       		.uleb128 .LEHE123-.LEHB123
 4550 0331 9D01     		.uleb128 .L255-.LFB1414
 4551 0333 05       		.uleb128 0x5
 4552 0334 C001     		.uleb128 .LEHB124-.LFB1414
 4553 0336 05       		.uleb128 .LEHE124-.LEHB124
 4554 0337 00       		.uleb128 0
 4555 0338 00       		.uleb128 0
 4556 0339 E701     		.uleb128 .LEHB125-.LFB1414
 4557 033b 05       		.uleb128 .LEHE125-.LEHB125
 4558 033c 00       		.uleb128 0
 4559 033d 00       		.uleb128 0
 4560 033e FA01     		.uleb128 .LEHB126-.LFB1414
 4561 0340 05       		.uleb128 .LEHE126-.LEHB126
 4562 0341 00       		.uleb128 0
 4563 0342 00       		.uleb128 0
 4564 0343 B802     		.uleb128 .LEHB127-.LFB1414
 4565 0345 5F       		.uleb128 .LEHE127-.LEHB127
 4566 0346 B201     		.uleb128 .L257-.LFB1414
 4567 0348 00       		.uleb128 0
 4568 0349 BA03     		.uleb128 .LEHB128-.LFB1414
 4569 034b 05       		.uleb128 .LEHE128-.LEHB128
 4570 034c D901     		.uleb128 .L259-.LFB1414
 4571 034e 00       		.uleb128 0
 4572 034f EE03     		.uleb128 .LEHB129-.LFB1414
 4573 0351 43       		.uleb128 .LEHE129-.LEHB129
 4574 0352 C501     		.uleb128 .L258-.LFB1414
 4575 0354 00       		.uleb128 0
 4576 0355 BB04     		.uleb128 .LEHB130-.LFB1414
 4577 0357 05       		.uleb128 .LEHE130-.LEHB130
 4578 0358 D901     		.uleb128 .L259-.LFB1414
 4579 035a 00       		.uleb128 0
 4580 035b F804     		.uleb128 .LEHB131-.LFB1414
 4581 035d 67       		.uleb128 .LEHE131-.LEHB131
 4582 035e EC01     		.uleb128 .L260-.LFB1414
 4583 0360 00       		.uleb128 0
 4584 0361 DF05     		.uleb128 .LEHB132-.LFB1414
 4585 0363 05       		.uleb128 .LEHE132-.LEHB132
 4586 0364 00       		.uleb128 0
 4587 0365 00       		.uleb128 0
 4588              	.LLSDACSE1414:
 4589 0366 03       		.byte	0x3
 4590 0367 00       		.byte	0
 4591 0368 02       		.byte	0x2
 4592 0369 7D       		.byte	0x7d
 4593 036a 01       		.byte	0x1
 4594 036b 7D       		.byte	0x7d
 4595 036c 00       		.byte	0
 4596 036d 7D       		.byte	0x7d
 4597 036e 0000     		.align 4
 4598 0370 00000000 		.long	0
 4599              	
 4600 0374 00000000 		.long	_ZTISt9exception
 4601 0378 00000000 		.long	_ZTIN8UnitTest15AssertExceptionE
 4602              	.LLSDATT1414:
 4603              		.text
 4605              		.section	.rodata
 4606              	.LC29:
 4607 04b6 5265616C 		.string	"Real failure message"
 4607      20666169 
 4607      6C757265 
 4607      206D6573 
 4607      73616765 
 4608              	.LC30:
 4609 04cb 426F6775 		.string	"Bogus failure message"
 4609      73206661 
 4609      696C7572 
 4609      65206D65 
 4609      73736167 
 4610 04e1 00000000 		.align 8
 4610      000000
 4611              	.LC31:
 4612 04e8 556E6861 		.string	"Unhandled exception in CHECK_EQUAL(goodStr, failure.second)"
 4612      6E646C65 
 4612      64206578 
 4612      63657074 
 4612      696F6E20 
 4613              		.text
 4614 208d 90       		.align 2
 4616              	_ZN8UnitTest12_GLOBAL__N_178DeferredTestReporterFixtureDeferredTestReporterTakesCopyOfFailureMessag
 4617              	.LFB1418:
  99:TestDeferredTestReporter.cpp **** {
 4618              		.loc 3 99 0 is_stmt 1
 4619              		.cfi_startproc
 4620              		.cfi_personality 0x3,__gxx_personality_v0
 4621              		.cfi_lsda 0x3,.LLSDA1418
 4622 208e 55       		pushq	%rbp
 4623              		.cfi_def_cfa_offset 16
 4624              		.cfi_offset 6, -16
 4625 208f 4889E5   		movq	%rsp, %rbp
 4626              		.cfi_def_cfa_register 6
 4627 2092 53       		pushq	%rbx
 4628 2093 4881ECE8 		subq	$232, %rsp
 4628      000000
 4629              		.cfi_offset 3, -24
 4630 209a 4889BD18 		movq	%rdi, -232(%rbp)
 4630      FFFFFF
 4631              		.loc 3 99 0
 4632 20a1 64488B04 		movq	%fs:40, %rax
 4632      25280000 
 4632      00
 4633 20aa 488945E8 		movq	%rax, -24(%rbp)
 4634 20ae 31C0     		xorl	%eax, %eax
 4635              	.LBB111:
 100:TestDeferredTestReporter.cpp ****     reporter.ReportTestStart(details);
 4636              		.loc 3 100 0
 4637 20b0 488B8518 		movq	-232(%rbp), %rax
 4637      FFFFFF
 4638 20b7 488D5040 		leaq	64(%rax), %rdx
 4639 20bb 488B8518 		movq	-232(%rbp), %rax
 4639      FFFFFF
 4640 20c2 4889D6   		movq	%rdx, %rsi
 4641 20c5 4889C7   		movq	%rax, %rdi
 4642              	.LEHB133:
 4643 20c8 E8000000 		call	_ZN8UnitTest20DeferredTestReporter15ReportTestStartERKNS_11TestDetailsE
 4643      00
 101:TestDeferredTestReporter.cpp **** 
 102:TestDeferredTestReporter.cpp ****     char failureMessage[128];
 103:TestDeferredTestReporter.cpp ****     char const* goodStr = "Real failure message";
 4644              		.loc 3 103 0
 4645 20cd 48C78520 		movq	$.LC29, -224(%rbp)
 4645      FFFFFF00 
 4645      000000
 104:TestDeferredTestReporter.cpp ****     char const* badStr = "Bogus failure message";
 4646              		.loc 3 104 0
 4647 20d8 48C78528 		movq	$.LC30, -216(%rbp)
 4647      FFFFFF00 
 4647      000000
 105:TestDeferredTestReporter.cpp ****     
 106:TestDeferredTestReporter.cpp **** 	using namespace std;
 107:TestDeferredTestReporter.cpp **** 
 108:TestDeferredTestReporter.cpp ****     strcpy(failureMessage, goodStr);
 4648              		.loc 3 108 0
 4649 20e3 488B9520 		movq	-224(%rbp), %rdx
 4649      FFFFFF
 4650 20ea 488D8560 		leaq	-160(%rbp), %rax
 4650      FFFFFF
 4651 20f1 4889D6   		movq	%rdx, %rsi
 4652 20f4 4889C7   		movq	%rax, %rdi
 4653 20f7 E8000000 		call	strcpy
 4653      00
 109:TestDeferredTestReporter.cpp ****     reporter.ReportFailure(details, failureMessage);
 4654              		.loc 3 109 0
 4655 20fc 488B8518 		movq	-232(%rbp), %rax
 4655      FFFFFF
 4656 2103 488D4840 		leaq	64(%rax), %rcx
 4657 2107 488B8518 		movq	-232(%rbp), %rax
 4657      FFFFFF
 4658 210e 488D9560 		leaq	-160(%rbp), %rdx
 4658      FFFFFF
 4659 2115 4889CE   		movq	%rcx, %rsi
 4660 2118 4889C7   		movq	%rax, %rdi
 4661 211b E8000000 		call	_ZN8UnitTest20DeferredTestReporter13ReportFailureERKNS_11TestDetailsEPKc
 4661      00
 110:TestDeferredTestReporter.cpp ****     strcpy(failureMessage, badStr);
 4662              		.loc 3 110 0
 4663 2120 488B9528 		movq	-216(%rbp), %rdx
 4663      FFFFFF
 4664 2127 488D8560 		leaq	-160(%rbp), %rax
 4664      FFFFFF
 4665 212e 4889D6   		movq	%rdx, %rsi
 4666 2131 4889C7   		movq	%rax, %rdi
 4667 2134 E8000000 		call	strcpy
 4667      00
 111:TestDeferredTestReporter.cpp **** 
 112:TestDeferredTestReporter.cpp ****     DeferredTestResult const& result = reporter.GetResults().at(0);
 4668              		.loc 3 112 0
 4669 2139 488B8518 		movq	-232(%rbp), %rax
 4669      FFFFFF
 4670 2140 4889C7   		movq	%rax, %rdi
 4671 2143 E8000000 		call	_ZN8UnitTest20DeferredTestReporter10GetResultsEv
 4671      00
 4672 2148 BE000000 		movl	$0, %esi
 4672      00
 4673 214d 4889C7   		movq	%rax, %rdi
 4674 2150 E8000000 		call	_ZNSt6vectorIN8UnitTest18DeferredTestResultESaIS1_EE2atEm
 4674      00
 4675 2155 48898530 		movq	%rax, -208(%rbp)
 4675      FFFFFF
 113:TestDeferredTestReporter.cpp ****     DeferredTestResult::Failure const& failure = result.failures.at(0);
 4676              		.loc 3 113 0
 4677 215c 488B8530 		movq	-208(%rbp), %rax
 4677      FFFFFF
 4678 2163 4883C018 		addq	$24, %rax
 4679 2167 BE000000 		movl	$0, %esi
 4679      00
 4680 216c 4889C7   		movq	%rax, %rdi
 4681 216f E8000000 		call	_ZNKSt6vectorISt4pairIiSsESaIS1_EE2atEm
 4681      00
 4682              	.LEHE133:
 4683 2174 48898538 		movq	%rax, -200(%rbp)
 4683      FFFFFF
 4684              	.LEHB134:
 114:TestDeferredTestReporter.cpp ****     CHECK_EQUAL(goodStr, failure.second);
 4685              		.loc 3 114 0
 4686 217b E8000000 		call	_ZN8UnitTest11CurrentTest7DetailsEv
 4686      00
 4687 2180 488B08   		movq	(%rax), %rcx
 4688 2183 488D8540 		leaq	-192(%rbp), %rax
 4688      FFFFFF
 4689 218a BA720000 		movl	$114, %edx
 4689      00
 4690 218f 4889CE   		movq	%rcx, %rsi
 4691 2192 4889C7   		movq	%rax, %rdi
 4692 2195 E8000000 		call	_ZN8UnitTest11TestDetailsC1ERKS0_i
 4692      00
 4693              		.loc 3 114 0 is_stmt 0 discriminator 2
 4694 219a 488B8538 		movq	-200(%rbp), %rax
 4694      FFFFFF
 4695 21a1 488D5808 		leaq	8(%rax), %rbx
 4696 21a5 E8000000 		call	_ZN8UnitTest11CurrentTest7ResultsEv
 4696      00
 4697 21aa 488B00   		movq	(%rax), %rax
 4698 21ad 488D9540 		leaq	-192(%rbp), %rdx
 4698      FFFFFF
 4699 21b4 488DB520 		leaq	-224(%rbp), %rsi
 4699      FFFFFF
 4700 21bb 4889D1   		movq	%rdx, %rcx
 4701 21be 4889DA   		movq	%rbx, %rdx
 4702 21c1 4889C7   		movq	%rax, %rdi
 4703 21c4 E8000000 		call	_ZN8UnitTest10CheckEqualIPKcSsEEvRNS_11TestResultsERKT_RKT0_RKNS_11TestDetailsE
 4703      00
 4704              	.LEHE134:
 4705              	.LBE111:
 115:TestDeferredTestReporter.cpp **** }
 4706              		.loc 3 115 0 is_stmt 1
 4707 21c9 EB5E     		jmp	.L270
 4708              	.L269:
 4709 21cb 4889C3   		movq	%rax, %rbx
 4710              	.LBB112:
 114:TestDeferredTestReporter.cpp ****     CHECK_EQUAL(goodStr, failure.second);
 4711              		.loc 3 114 0
 4712 21ce E8000000 		call	__cxa_end_catch
 4712      00
 4713 21d3 4889D8   		movq	%rbx, %rax
 4714 21d6 4889C7   		movq	%rax, %rdi
 4715              	.LEHB135:
 4716 21d9 E8000000 		call	_Unwind_Resume
 4716      00
 4717              	.LEHE135:
 4718              	.L268:
 4719 21de 4889C7   		movq	%rax, %rdi
 4720 21e1 E8000000 		call	__cxa_begin_catch
 4720      00
 4721              	.LEHB136:
 4722 21e6 E8000000 		call	_ZN8UnitTest11CurrentTest7DetailsEv
 4722      00
 4723 21eb 488B08   		movq	(%rax), %rcx
 4724 21ee 488D8540 		leaq	-192(%rbp), %rax
 4724      FFFFFF
 4725 21f5 BA720000 		movl	$114, %edx
 4725      00
 4726 21fa 4889CE   		movq	%rcx, %rsi
 4727 21fd 4889C7   		movq	%rax, %rdi
 4728 2200 E8000000 		call	_ZN8UnitTest11TestDetailsC1ERKS0_i
 4728      00
 114:TestDeferredTestReporter.cpp ****     CHECK_EQUAL(goodStr, failure.second);
 4729              		.loc 3 114 0 is_stmt 0 discriminator 10
 4730 2205 E8000000 		call	_ZN8UnitTest11CurrentTest7ResultsEv
 4730      00
 4731 220a 488B00   		movq	(%rax), %rax
 4732 220d 488D8D40 		leaq	-192(%rbp), %rcx
 4732      FFFFFF
 4733 2214 BA000000 		movl	$.LC31, %edx
 4733      00
 4734 2219 4889CE   		movq	%rcx, %rsi
 4735 221c 4889C7   		movq	%rax, %rdi
 4736 221f E8000000 		call	_ZN8UnitTest11TestResults13OnTestFailureERKNS_11TestDetailsEPKc
 4736      00
 4737              	.LEHE136:
 4738              	.LEHB137:
 114:TestDeferredTestReporter.cpp ****     CHECK_EQUAL(goodStr, failure.second);
 4739              		.loc 3 114 0 discriminator 14
 4740 2224 E8000000 		call	__cxa_end_catch
 4740      00
 4741              	.LEHE137:
 4742              	.L270:
 4743              	.LBE112:
 4744              		.loc 3 115 0 is_stmt 1
 4745 2229 90       		nop
 4746 222a 488B45E8 		movq	-24(%rbp), %rax
 4747 222e 64483304 		xorq	%fs:40, %rax
 4747      25280000 
 4747      00
 4748 2237 7405     		je	.L267
 4749 2239 E8000000 		call	__stack_chk_fail
 4749      00
 4750              	.L267:
 4751 223e 4881C4E8 		addq	$232, %rsp
 4751      000000
 4752 2245 5B       		popq	%rbx
 4753 2246 5D       		popq	%rbp
 4754              		.cfi_def_cfa 7, 8
 4755 2247 C3       		ret
 4756              		.cfi_endproc
 4757              	.LFE1418:
 4758              		.section	.gcc_except_table
 4759              		.align 4
 4760              	.LLSDA1418:
 4761 037c FF       		.byte	0xff
 4762 037d 03       		.byte	0x3
 4763 037e 25       		.uleb128 .LLSDATT1418-.LLSDATTD1418
 4764              	.LLSDATTD1418:
 4765 037f 01       		.byte	0x1
 4766 0380 1B       		.uleb128 .LLSDACSE1418-.LLSDACSB1418
 4767              	.LLSDACSB1418:
 4768 0381 3A       		.uleb128 .LEHB133-.LFB1418
 4769 0382 AC01     		.uleb128 .LEHE133-.LEHB133
 4770 0384 00       		.uleb128 0
 4771 0385 00       		.uleb128 0
 4772 0386 ED01     		.uleb128 .LEHB134-.LFB1418
 4773 0388 4E       		.uleb128 .LEHE134-.LEHB134
 4774 0389 D002     		.uleb128 .L268-.LFB1418
 4775 038b 01       		.uleb128 0x1
 4776 038c CB02     		.uleb128 .LEHB135-.LFB1418
 4777 038e 05       		.uleb128 .LEHE135-.LEHB135
 4778 038f 00       		.uleb128 0
 4779 0390 00       		.uleb128 0
 4780 0391 D802     		.uleb128 .LEHB136-.LFB1418
 4781 0393 3E       		.uleb128 .LEHE136-.LEHB136
 4782 0394 BD02     		.uleb128 .L269-.LFB1418
 4783 0396 00       		.uleb128 0
 4784 0397 9603     		.uleb128 .LEHB137-.LFB1418
 4785 0399 05       		.uleb128 .LEHE137-.LEHB137
 4786 039a 00       		.uleb128 0
 4787 039b 00       		.uleb128 0
 4788              	.LLSDACSE1418:
 4789 039c 01       		.byte	0x1
 4790 039d 00       		.byte	0
 4791 039e 0000     		.align 4
 4792 03a0 00000000 		.long	0
 4793              	
 4794              	.LLSDATT1418:
 4795              		.text
 4797              		.section	.text._ZNSt6vectorIN8UnitTest18DeferredTestResultESaIS1_EEC2Ev,"axG",@progbits,_ZNSt6vect
 4798              		.align 2
 4799              		.weak	_ZNSt6vectorIN8UnitTest18DeferredTestResultESaIS1_EEC2Ev
 4801              	_ZNSt6vectorIN8UnitTest18DeferredTestResultESaIS1_EEC2Ev:
 4802              	.LFB1449:
 4803              		.file 6 "/usr/include/c++/4.9/bits/stl_vector.h"
   1:/usr/include/c++/4.9/bits/stl_vector.h **** // Vector implementation -*- C++ -*-
   2:/usr/include/c++/4.9/bits/stl_vector.h **** 
   3:/usr/include/c++/4.9/bits/stl_vector.h **** // Copyright (C) 2001-2014 Free Software Foundation, Inc.
   4:/usr/include/c++/4.9/bits/stl_vector.h **** //
   5:/usr/include/c++/4.9/bits/stl_vector.h **** // This file is part of the GNU ISO C++ Library.  This library is free
   6:/usr/include/c++/4.9/bits/stl_vector.h **** // software; you can redistribute it and/or modify it under the
   7:/usr/include/c++/4.9/bits/stl_vector.h **** // terms of the GNU General Public License as published by the
   8:/usr/include/c++/4.9/bits/stl_vector.h **** // Free Software Foundation; either version 3, or (at your option)
   9:/usr/include/c++/4.9/bits/stl_vector.h **** // any later version.
  10:/usr/include/c++/4.9/bits/stl_vector.h **** 
  11:/usr/include/c++/4.9/bits/stl_vector.h **** // This library is distributed in the hope that it will be useful,
  12:/usr/include/c++/4.9/bits/stl_vector.h **** // but WITHOUT ANY WARRANTY; without even the implied warranty of
  13:/usr/include/c++/4.9/bits/stl_vector.h **** // MERCHANTABILITY or FITNESS FOR A PARTICULAR PURPOSE.  See the
  14:/usr/include/c++/4.9/bits/stl_vector.h **** // GNU General Public License for more details.
  15:/usr/include/c++/4.9/bits/stl_vector.h **** 
  16:/usr/include/c++/4.9/bits/stl_vector.h **** // Under Section 7 of GPL version 3, you are granted additional
  17:/usr/include/c++/4.9/bits/stl_vector.h **** // permissions described in the GCC Runtime Library Exception, version
  18:/usr/include/c++/4.9/bits/stl_vector.h **** // 3.1, as published by the Free Software Foundation.
  19:/usr/include/c++/4.9/bits/stl_vector.h **** 
  20:/usr/include/c++/4.9/bits/stl_vector.h **** // You should have received a copy of the GNU General Public License and
  21:/usr/include/c++/4.9/bits/stl_vector.h **** // a copy of the GCC Runtime Library Exception along with this program;
  22:/usr/include/c++/4.9/bits/stl_vector.h **** // see the files COPYING3 and COPYING.RUNTIME respectively.  If not, see
  23:/usr/include/c++/4.9/bits/stl_vector.h **** // <http://www.gnu.org/licenses/>.
  24:/usr/include/c++/4.9/bits/stl_vector.h **** 
  25:/usr/include/c++/4.9/bits/stl_vector.h **** /*
  26:/usr/include/c++/4.9/bits/stl_vector.h ****  *
  27:/usr/include/c++/4.9/bits/stl_vector.h ****  * Copyright (c) 1994
  28:/usr/include/c++/4.9/bits/stl_vector.h ****  * Hewlett-Packard Company
  29:/usr/include/c++/4.9/bits/stl_vector.h ****  *
  30:/usr/include/c++/4.9/bits/stl_vector.h ****  * Permission to use, copy, modify, distribute and sell this software
  31:/usr/include/c++/4.9/bits/stl_vector.h ****  * and its documentation for any purpose is hereby granted without fee,
  32:/usr/include/c++/4.9/bits/stl_vector.h ****  * provided that the above copyright notice appear in all copies and
  33:/usr/include/c++/4.9/bits/stl_vector.h ****  * that both that copyright notice and this permission notice appear
  34:/usr/include/c++/4.9/bits/stl_vector.h ****  * in supporting documentation.  Hewlett-Packard Company makes no
  35:/usr/include/c++/4.9/bits/stl_vector.h ****  * representations about the suitability of this software for any
  36:/usr/include/c++/4.9/bits/stl_vector.h ****  * purpose.  It is provided "as is" without express or implied warranty.
  37:/usr/include/c++/4.9/bits/stl_vector.h ****  *
  38:/usr/include/c++/4.9/bits/stl_vector.h ****  *
  39:/usr/include/c++/4.9/bits/stl_vector.h ****  * Copyright (c) 1996
  40:/usr/include/c++/4.9/bits/stl_vector.h ****  * Silicon Graphics Computer Systems, Inc.
  41:/usr/include/c++/4.9/bits/stl_vector.h ****  *
  42:/usr/include/c++/4.9/bits/stl_vector.h ****  * Permission to use, copy, modify, distribute and sell this software
  43:/usr/include/c++/4.9/bits/stl_vector.h ****  * and its documentation for any purpose is hereby granted without fee,
  44:/usr/include/c++/4.9/bits/stl_vector.h ****  * provided that the above copyright notice appear in all copies and
  45:/usr/include/c++/4.9/bits/stl_vector.h ****  * that both that copyright notice and this permission notice appear
  46:/usr/include/c++/4.9/bits/stl_vector.h ****  * in supporting documentation.  Silicon Graphics makes no
  47:/usr/include/c++/4.9/bits/stl_vector.h ****  * representations about the suitability of this  software for any
  48:/usr/include/c++/4.9/bits/stl_vector.h ****  * purpose.  It is provided "as is" without express or implied warranty.
  49:/usr/include/c++/4.9/bits/stl_vector.h ****  */
  50:/usr/include/c++/4.9/bits/stl_vector.h **** 
  51:/usr/include/c++/4.9/bits/stl_vector.h **** /** @file bits/stl_vector.h
  52:/usr/include/c++/4.9/bits/stl_vector.h ****  *  This is an internal header file, included by other library headers.
  53:/usr/include/c++/4.9/bits/stl_vector.h ****  *  Do not attempt to use it directly. @headername{vector}
  54:/usr/include/c++/4.9/bits/stl_vector.h ****  */
  55:/usr/include/c++/4.9/bits/stl_vector.h **** 
  56:/usr/include/c++/4.9/bits/stl_vector.h **** #ifndef _STL_VECTOR_H
  57:/usr/include/c++/4.9/bits/stl_vector.h **** #define _STL_VECTOR_H 1
  58:/usr/include/c++/4.9/bits/stl_vector.h **** 
  59:/usr/include/c++/4.9/bits/stl_vector.h **** #include <bits/stl_iterator_base_funcs.h>
  60:/usr/include/c++/4.9/bits/stl_vector.h **** #include <bits/functexcept.h>
  61:/usr/include/c++/4.9/bits/stl_vector.h **** #include <bits/concept_check.h>
  62:/usr/include/c++/4.9/bits/stl_vector.h **** #if __cplusplus >= 201103L
  63:/usr/include/c++/4.9/bits/stl_vector.h **** #include <initializer_list>
  64:/usr/include/c++/4.9/bits/stl_vector.h **** #endif
  65:/usr/include/c++/4.9/bits/stl_vector.h **** 
  66:/usr/include/c++/4.9/bits/stl_vector.h **** namespace std _GLIBCXX_VISIBILITY(default)
  67:/usr/include/c++/4.9/bits/stl_vector.h **** {
  68:/usr/include/c++/4.9/bits/stl_vector.h **** _GLIBCXX_BEGIN_NAMESPACE_CONTAINER
  69:/usr/include/c++/4.9/bits/stl_vector.h **** 
  70:/usr/include/c++/4.9/bits/stl_vector.h ****   /// See bits/stl_deque.h's _Deque_base for an explanation.
  71:/usr/include/c++/4.9/bits/stl_vector.h ****   template<typename _Tp, typename _Alloc>
  72:/usr/include/c++/4.9/bits/stl_vector.h ****     struct _Vector_base
  73:/usr/include/c++/4.9/bits/stl_vector.h ****     {
  74:/usr/include/c++/4.9/bits/stl_vector.h ****       typedef typename __gnu_cxx::__alloc_traits<_Alloc>::template
  75:/usr/include/c++/4.9/bits/stl_vector.h ****         rebind<_Tp>::other _Tp_alloc_type;
  76:/usr/include/c++/4.9/bits/stl_vector.h ****       typedef typename __gnu_cxx::__alloc_traits<_Tp_alloc_type>::pointer
  77:/usr/include/c++/4.9/bits/stl_vector.h ****        	pointer;
  78:/usr/include/c++/4.9/bits/stl_vector.h **** 
  79:/usr/include/c++/4.9/bits/stl_vector.h ****       struct _Vector_impl 
  80:/usr/include/c++/4.9/bits/stl_vector.h ****       : public _Tp_alloc_type
  81:/usr/include/c++/4.9/bits/stl_vector.h ****       {
  82:/usr/include/c++/4.9/bits/stl_vector.h **** 	pointer _M_start;
  83:/usr/include/c++/4.9/bits/stl_vector.h **** 	pointer _M_finish;
  84:/usr/include/c++/4.9/bits/stl_vector.h **** 	pointer _M_end_of_storage;
  85:/usr/include/c++/4.9/bits/stl_vector.h **** 
  86:/usr/include/c++/4.9/bits/stl_vector.h **** 	_Vector_impl()
  87:/usr/include/c++/4.9/bits/stl_vector.h **** 	: _Tp_alloc_type(), _M_start(0), _M_finish(0), _M_end_of_storage(0)
  88:/usr/include/c++/4.9/bits/stl_vector.h **** 	{ }
  89:/usr/include/c++/4.9/bits/stl_vector.h **** 
  90:/usr/include/c++/4.9/bits/stl_vector.h **** 	_Vector_impl(_Tp_alloc_type const& __a) _GLIBCXX_NOEXCEPT
  91:/usr/include/c++/4.9/bits/stl_vector.h **** 	: _Tp_alloc_type(__a), _M_start(0), _M_finish(0), _M_end_of_storage(0)
  92:/usr/include/c++/4.9/bits/stl_vector.h **** 	{ }
  93:/usr/include/c++/4.9/bits/stl_vector.h **** 
  94:/usr/include/c++/4.9/bits/stl_vector.h **** #if __cplusplus >= 201103L
  95:/usr/include/c++/4.9/bits/stl_vector.h **** 	_Vector_impl(_Tp_alloc_type&& __a) noexcept
  96:/usr/include/c++/4.9/bits/stl_vector.h **** 	: _Tp_alloc_type(std::move(__a)),
  97:/usr/include/c++/4.9/bits/stl_vector.h **** 	  _M_start(0), _M_finish(0), _M_end_of_storage(0)
  98:/usr/include/c++/4.9/bits/stl_vector.h **** 	{ }
  99:/usr/include/c++/4.9/bits/stl_vector.h **** #endif
 100:/usr/include/c++/4.9/bits/stl_vector.h **** 
 101:/usr/include/c++/4.9/bits/stl_vector.h **** 	void _M_swap_data(_Vector_impl& __x) _GLIBCXX_NOEXCEPT
 102:/usr/include/c++/4.9/bits/stl_vector.h **** 	{
 103:/usr/include/c++/4.9/bits/stl_vector.h **** 	  std::swap(_M_start, __x._M_start);
 104:/usr/include/c++/4.9/bits/stl_vector.h **** 	  std::swap(_M_finish, __x._M_finish);
 105:/usr/include/c++/4.9/bits/stl_vector.h **** 	  std::swap(_M_end_of_storage, __x._M_end_of_storage);
 106:/usr/include/c++/4.9/bits/stl_vector.h **** 	}
 107:/usr/include/c++/4.9/bits/stl_vector.h ****       };
 108:/usr/include/c++/4.9/bits/stl_vector.h ****       
 109:/usr/include/c++/4.9/bits/stl_vector.h ****     public:
 110:/usr/include/c++/4.9/bits/stl_vector.h ****       typedef _Alloc allocator_type;
 111:/usr/include/c++/4.9/bits/stl_vector.h **** 
 112:/usr/include/c++/4.9/bits/stl_vector.h ****       _Tp_alloc_type&
 113:/usr/include/c++/4.9/bits/stl_vector.h ****       _M_get_Tp_allocator() _GLIBCXX_NOEXCEPT
 114:/usr/include/c++/4.9/bits/stl_vector.h ****       { return *static_cast<_Tp_alloc_type*>(&this->_M_impl); }
 115:/usr/include/c++/4.9/bits/stl_vector.h **** 
 116:/usr/include/c++/4.9/bits/stl_vector.h ****       const _Tp_alloc_type&
 117:/usr/include/c++/4.9/bits/stl_vector.h ****       _M_get_Tp_allocator() const _GLIBCXX_NOEXCEPT
 118:/usr/include/c++/4.9/bits/stl_vector.h ****       { return *static_cast<const _Tp_alloc_type*>(&this->_M_impl); }
 119:/usr/include/c++/4.9/bits/stl_vector.h **** 
 120:/usr/include/c++/4.9/bits/stl_vector.h ****       allocator_type
 121:/usr/include/c++/4.9/bits/stl_vector.h ****       get_allocator() const _GLIBCXX_NOEXCEPT
 122:/usr/include/c++/4.9/bits/stl_vector.h ****       { return allocator_type(_M_get_Tp_allocator()); }
 123:/usr/include/c++/4.9/bits/stl_vector.h **** 
 124:/usr/include/c++/4.9/bits/stl_vector.h ****       _Vector_base()
 125:/usr/include/c++/4.9/bits/stl_vector.h ****       : _M_impl() { }
 126:/usr/include/c++/4.9/bits/stl_vector.h **** 
 127:/usr/include/c++/4.9/bits/stl_vector.h ****       _Vector_base(const allocator_type& __a) _GLIBCXX_NOEXCEPT
 128:/usr/include/c++/4.9/bits/stl_vector.h ****       : _M_impl(__a) { }
 129:/usr/include/c++/4.9/bits/stl_vector.h **** 
 130:/usr/include/c++/4.9/bits/stl_vector.h ****       _Vector_base(size_t __n)
 131:/usr/include/c++/4.9/bits/stl_vector.h ****       : _M_impl()
 132:/usr/include/c++/4.9/bits/stl_vector.h ****       { _M_create_storage(__n); }
 133:/usr/include/c++/4.9/bits/stl_vector.h **** 
 134:/usr/include/c++/4.9/bits/stl_vector.h ****       _Vector_base(size_t __n, const allocator_type& __a)
 135:/usr/include/c++/4.9/bits/stl_vector.h ****       : _M_impl(__a)
 136:/usr/include/c++/4.9/bits/stl_vector.h ****       { _M_create_storage(__n); }
 137:/usr/include/c++/4.9/bits/stl_vector.h **** 
 138:/usr/include/c++/4.9/bits/stl_vector.h **** #if __cplusplus >= 201103L
 139:/usr/include/c++/4.9/bits/stl_vector.h ****       _Vector_base(_Tp_alloc_type&& __a) noexcept
 140:/usr/include/c++/4.9/bits/stl_vector.h ****       : _M_impl(std::move(__a)) { }
 141:/usr/include/c++/4.9/bits/stl_vector.h **** 
 142:/usr/include/c++/4.9/bits/stl_vector.h ****       _Vector_base(_Vector_base&& __x) noexcept
 143:/usr/include/c++/4.9/bits/stl_vector.h ****       : _M_impl(std::move(__x._M_get_Tp_allocator()))
 144:/usr/include/c++/4.9/bits/stl_vector.h ****       { this->_M_impl._M_swap_data(__x._M_impl); }
 145:/usr/include/c++/4.9/bits/stl_vector.h **** 
 146:/usr/include/c++/4.9/bits/stl_vector.h ****       _Vector_base(_Vector_base&& __x, const allocator_type& __a)
 147:/usr/include/c++/4.9/bits/stl_vector.h ****       : _M_impl(__a)
 148:/usr/include/c++/4.9/bits/stl_vector.h ****       {
 149:/usr/include/c++/4.9/bits/stl_vector.h **** 	if (__x.get_allocator() == __a)
 150:/usr/include/c++/4.9/bits/stl_vector.h **** 	  this->_M_impl._M_swap_data(__x._M_impl);
 151:/usr/include/c++/4.9/bits/stl_vector.h **** 	else
 152:/usr/include/c++/4.9/bits/stl_vector.h **** 	  {
 153:/usr/include/c++/4.9/bits/stl_vector.h **** 	    size_t __n = __x._M_impl._M_finish - __x._M_impl._M_start;
 154:/usr/include/c++/4.9/bits/stl_vector.h **** 	    _M_create_storage(__n);
 155:/usr/include/c++/4.9/bits/stl_vector.h **** 	  }
 156:/usr/include/c++/4.9/bits/stl_vector.h ****       }
 157:/usr/include/c++/4.9/bits/stl_vector.h **** #endif
 158:/usr/include/c++/4.9/bits/stl_vector.h **** 
 159:/usr/include/c++/4.9/bits/stl_vector.h ****       ~_Vector_base() _GLIBCXX_NOEXCEPT
 160:/usr/include/c++/4.9/bits/stl_vector.h ****       { _M_deallocate(this->_M_impl._M_start, this->_M_impl._M_end_of_storage
 161:/usr/include/c++/4.9/bits/stl_vector.h **** 		      - this->_M_impl._M_start); }
 162:/usr/include/c++/4.9/bits/stl_vector.h **** 
 163:/usr/include/c++/4.9/bits/stl_vector.h ****     public:
 164:/usr/include/c++/4.9/bits/stl_vector.h ****       _Vector_impl _M_impl;
 165:/usr/include/c++/4.9/bits/stl_vector.h **** 
 166:/usr/include/c++/4.9/bits/stl_vector.h ****       pointer
 167:/usr/include/c++/4.9/bits/stl_vector.h ****       _M_allocate(size_t __n)
 168:/usr/include/c++/4.9/bits/stl_vector.h ****       {
 169:/usr/include/c++/4.9/bits/stl_vector.h **** 	typedef __gnu_cxx::__alloc_traits<_Tp_alloc_type> _Tr;
 170:/usr/include/c++/4.9/bits/stl_vector.h **** 	return __n != 0 ? _Tr::allocate(_M_impl, __n) : 0;
 171:/usr/include/c++/4.9/bits/stl_vector.h ****       }
 172:/usr/include/c++/4.9/bits/stl_vector.h **** 
 173:/usr/include/c++/4.9/bits/stl_vector.h ****       void
 174:/usr/include/c++/4.9/bits/stl_vector.h ****       _M_deallocate(pointer __p, size_t __n)
 175:/usr/include/c++/4.9/bits/stl_vector.h ****       {
 176:/usr/include/c++/4.9/bits/stl_vector.h **** 	typedef __gnu_cxx::__alloc_traits<_Tp_alloc_type> _Tr;
 177:/usr/include/c++/4.9/bits/stl_vector.h **** 	if (__p)
 178:/usr/include/c++/4.9/bits/stl_vector.h **** 	  _Tr::deallocate(_M_impl, __p, __n);
 179:/usr/include/c++/4.9/bits/stl_vector.h ****       }
 180:/usr/include/c++/4.9/bits/stl_vector.h **** 
 181:/usr/include/c++/4.9/bits/stl_vector.h ****     private:
 182:/usr/include/c++/4.9/bits/stl_vector.h ****       void
 183:/usr/include/c++/4.9/bits/stl_vector.h ****       _M_create_storage(size_t __n)
 184:/usr/include/c++/4.9/bits/stl_vector.h ****       {
 185:/usr/include/c++/4.9/bits/stl_vector.h **** 	this->_M_impl._M_start = this->_M_allocate(__n);
 186:/usr/include/c++/4.9/bits/stl_vector.h **** 	this->_M_impl._M_finish = this->_M_impl._M_start;
 187:/usr/include/c++/4.9/bits/stl_vector.h **** 	this->_M_impl._M_end_of_storage = this->_M_impl._M_start + __n;
 188:/usr/include/c++/4.9/bits/stl_vector.h ****       }
 189:/usr/include/c++/4.9/bits/stl_vector.h ****     };
 190:/usr/include/c++/4.9/bits/stl_vector.h **** 
 191:/usr/include/c++/4.9/bits/stl_vector.h **** 
 192:/usr/include/c++/4.9/bits/stl_vector.h ****   /**
 193:/usr/include/c++/4.9/bits/stl_vector.h ****    *  @brief A standard container which offers fixed time access to
 194:/usr/include/c++/4.9/bits/stl_vector.h ****    *  individual elements in any order.
 195:/usr/include/c++/4.9/bits/stl_vector.h ****    *
 196:/usr/include/c++/4.9/bits/stl_vector.h ****    *  @ingroup sequences
 197:/usr/include/c++/4.9/bits/stl_vector.h ****    *
 198:/usr/include/c++/4.9/bits/stl_vector.h ****    *  @tparam _Tp  Type of element.
 199:/usr/include/c++/4.9/bits/stl_vector.h ****    *  @tparam _Alloc  Allocator type, defaults to allocator<_Tp>.
 200:/usr/include/c++/4.9/bits/stl_vector.h ****    *
 201:/usr/include/c++/4.9/bits/stl_vector.h ****    *  Meets the requirements of a <a href="tables.html#65">container</a>, a
 202:/usr/include/c++/4.9/bits/stl_vector.h ****    *  <a href="tables.html#66">reversible container</a>, and a
 203:/usr/include/c++/4.9/bits/stl_vector.h ****    *  <a href="tables.html#67">sequence</a>, including the
 204:/usr/include/c++/4.9/bits/stl_vector.h ****    *  <a href="tables.html#68">optional sequence requirements</a> with the
 205:/usr/include/c++/4.9/bits/stl_vector.h ****    *  %exception of @c push_front and @c pop_front.
 206:/usr/include/c++/4.9/bits/stl_vector.h ****    *
 207:/usr/include/c++/4.9/bits/stl_vector.h ****    *  In some terminology a %vector can be described as a dynamic
 208:/usr/include/c++/4.9/bits/stl_vector.h ****    *  C-style array, it offers fast and efficient access to individual
 209:/usr/include/c++/4.9/bits/stl_vector.h ****    *  elements in any order and saves the user from worrying about
 210:/usr/include/c++/4.9/bits/stl_vector.h ****    *  memory and size allocation.  Subscripting ( @c [] ) access is
 211:/usr/include/c++/4.9/bits/stl_vector.h ****    *  also provided as with C-style arrays.
 212:/usr/include/c++/4.9/bits/stl_vector.h ****   */
 213:/usr/include/c++/4.9/bits/stl_vector.h ****   template<typename _Tp, typename _Alloc = std::allocator<_Tp> >
 214:/usr/include/c++/4.9/bits/stl_vector.h ****     class vector : protected _Vector_base<_Tp, _Alloc>
 215:/usr/include/c++/4.9/bits/stl_vector.h ****     {
 216:/usr/include/c++/4.9/bits/stl_vector.h ****       // Concept requirements.
 217:/usr/include/c++/4.9/bits/stl_vector.h ****       typedef typename _Alloc::value_type                _Alloc_value_type;
 218:/usr/include/c++/4.9/bits/stl_vector.h ****       __glibcxx_class_requires(_Tp, _SGIAssignableConcept)
 219:/usr/include/c++/4.9/bits/stl_vector.h ****       __glibcxx_class_requires2(_Tp, _Alloc_value_type, _SameTypeConcept)
 220:/usr/include/c++/4.9/bits/stl_vector.h ****       
 221:/usr/include/c++/4.9/bits/stl_vector.h ****       typedef _Vector_base<_Tp, _Alloc>			 _Base;
 222:/usr/include/c++/4.9/bits/stl_vector.h ****       typedef typename _Base::_Tp_alloc_type		 _Tp_alloc_type;
 223:/usr/include/c++/4.9/bits/stl_vector.h ****       typedef __gnu_cxx::__alloc_traits<_Tp_alloc_type>  _Alloc_traits;
 224:/usr/include/c++/4.9/bits/stl_vector.h **** 
 225:/usr/include/c++/4.9/bits/stl_vector.h ****     public:
 226:/usr/include/c++/4.9/bits/stl_vector.h ****       typedef _Tp					 value_type;
 227:/usr/include/c++/4.9/bits/stl_vector.h ****       typedef typename _Base::pointer                    pointer;
 228:/usr/include/c++/4.9/bits/stl_vector.h ****       typedef typename _Alloc_traits::const_pointer      const_pointer;
 229:/usr/include/c++/4.9/bits/stl_vector.h ****       typedef typename _Alloc_traits::reference          reference;
 230:/usr/include/c++/4.9/bits/stl_vector.h ****       typedef typename _Alloc_traits::const_reference    const_reference;
 231:/usr/include/c++/4.9/bits/stl_vector.h ****       typedef __gnu_cxx::__normal_iterator<pointer, vector> iterator;
 232:/usr/include/c++/4.9/bits/stl_vector.h ****       typedef __gnu_cxx::__normal_iterator<const_pointer, vector>
 233:/usr/include/c++/4.9/bits/stl_vector.h ****       const_iterator;
 234:/usr/include/c++/4.9/bits/stl_vector.h ****       typedef std::reverse_iterator<const_iterator>  const_reverse_iterator;
 235:/usr/include/c++/4.9/bits/stl_vector.h ****       typedef std::reverse_iterator<iterator>		 reverse_iterator;
 236:/usr/include/c++/4.9/bits/stl_vector.h ****       typedef size_t					 size_type;
 237:/usr/include/c++/4.9/bits/stl_vector.h ****       typedef ptrdiff_t					 difference_type;
 238:/usr/include/c++/4.9/bits/stl_vector.h ****       typedef _Alloc                        		 allocator_type;
 239:/usr/include/c++/4.9/bits/stl_vector.h **** 
 240:/usr/include/c++/4.9/bits/stl_vector.h ****     protected:
 241:/usr/include/c++/4.9/bits/stl_vector.h ****       using _Base::_M_allocate;
 242:/usr/include/c++/4.9/bits/stl_vector.h ****       using _Base::_M_deallocate;
 243:/usr/include/c++/4.9/bits/stl_vector.h ****       using _Base::_M_impl;
 244:/usr/include/c++/4.9/bits/stl_vector.h ****       using _Base::_M_get_Tp_allocator;
 245:/usr/include/c++/4.9/bits/stl_vector.h **** 
 246:/usr/include/c++/4.9/bits/stl_vector.h ****     public:
 247:/usr/include/c++/4.9/bits/stl_vector.h ****       // [23.2.4.1] construct/copy/destroy
 248:/usr/include/c++/4.9/bits/stl_vector.h ****       // (assign() and get_allocator() are also listed in this section)
 249:/usr/include/c++/4.9/bits/stl_vector.h **** 
 250:/usr/include/c++/4.9/bits/stl_vector.h ****       /**
 251:/usr/include/c++/4.9/bits/stl_vector.h ****        *  @brief  Creates a %vector with no elements.
 252:/usr/include/c++/4.9/bits/stl_vector.h ****        */
 253:/usr/include/c++/4.9/bits/stl_vector.h ****       vector()
 4804              		.loc 6 253 0
 4805              		.cfi_startproc
 4806 0000 55       		pushq	%rbp
 4807              		.cfi_def_cfa_offset 16
 4808              		.cfi_offset 6, -16
 4809 0001 4889E5   		movq	%rsp, %rbp
 4810              		.cfi_def_cfa_register 6
 4811 0004 4883EC10 		subq	$16, %rsp
 4812 0008 48897DF8 		movq	%rdi, -8(%rbp)
 4813              	.LBB113:
 254:/usr/include/c++/4.9/bits/stl_vector.h **** #if __cplusplus >= 201103L
 255:/usr/include/c++/4.9/bits/stl_vector.h ****       noexcept(is_nothrow_default_constructible<_Alloc>::value)
 256:/usr/include/c++/4.9/bits/stl_vector.h **** #endif
 257:/usr/include/c++/4.9/bits/stl_vector.h ****       : _Base() { }
 4814              		.loc 6 257 0
 4815 000c 488B45F8 		movq	-8(%rbp), %rax
 4816 0010 4889C7   		movq	%rax, %rdi
 4817 0013 E8000000 		call	_ZNSt12_Vector_baseIN8UnitTest18DeferredTestResultESaIS1_EEC2Ev
 4817      00
 4818              	.LBE113:
 4819 0018 C9       		leave
 4820              		.cfi_def_cfa 7, 8
 4821 0019 C3       		ret
 4822              		.cfi_endproc
 4823              	.LFE1449:
 4825              		.weak	_ZNSt6vectorIN8UnitTest18DeferredTestResultESaIS1_EEC1Ev
 4826              		.set	_ZNSt6vectorIN8UnitTest18DeferredTestResultESaIS1_EEC1Ev,_ZNSt6vectorIN8UnitTest18DeferredTes
 4827              		.section	.text._ZNSt6vectorIN8UnitTest18DeferredTestResultESaIS1_EED2Ev,"axG",@progbits,_ZNSt6vect
 4828              		.align 2
 4829              		.weak	_ZNSt6vectorIN8UnitTest18DeferredTestResultESaIS1_EED2Ev
 4831              	_ZNSt6vectorIN8UnitTest18DeferredTestResultESaIS1_EED2Ev:
 4832              	.LFB1452:
 258:/usr/include/c++/4.9/bits/stl_vector.h **** 
 259:/usr/include/c++/4.9/bits/stl_vector.h ****       /**
 260:/usr/include/c++/4.9/bits/stl_vector.h ****        *  @brief  Creates a %vector with no elements.
 261:/usr/include/c++/4.9/bits/stl_vector.h ****        *  @param  __a  An allocator object.
 262:/usr/include/c++/4.9/bits/stl_vector.h ****        */
 263:/usr/include/c++/4.9/bits/stl_vector.h ****       explicit
 264:/usr/include/c++/4.9/bits/stl_vector.h ****       vector(const allocator_type& __a) _GLIBCXX_NOEXCEPT
 265:/usr/include/c++/4.9/bits/stl_vector.h ****       : _Base(__a) { }
 266:/usr/include/c++/4.9/bits/stl_vector.h **** 
 267:/usr/include/c++/4.9/bits/stl_vector.h **** #if __cplusplus >= 201103L
 268:/usr/include/c++/4.9/bits/stl_vector.h ****       /**
 269:/usr/include/c++/4.9/bits/stl_vector.h ****        *  @brief  Creates a %vector with default constructed elements.
 270:/usr/include/c++/4.9/bits/stl_vector.h ****        *  @param  __n  The number of elements to initially create.
 271:/usr/include/c++/4.9/bits/stl_vector.h ****        *  @param  __a  An allocator.
 272:/usr/include/c++/4.9/bits/stl_vector.h ****        *
 273:/usr/include/c++/4.9/bits/stl_vector.h ****        *  This constructor fills the %vector with @a __n default
 274:/usr/include/c++/4.9/bits/stl_vector.h ****        *  constructed elements.
 275:/usr/include/c++/4.9/bits/stl_vector.h ****        */
 276:/usr/include/c++/4.9/bits/stl_vector.h ****       explicit
 277:/usr/include/c++/4.9/bits/stl_vector.h ****       vector(size_type __n, const allocator_type& __a = allocator_type())
 278:/usr/include/c++/4.9/bits/stl_vector.h ****       : _Base(__n, __a)
 279:/usr/include/c++/4.9/bits/stl_vector.h ****       { _M_default_initialize(__n); }
 280:/usr/include/c++/4.9/bits/stl_vector.h **** 
 281:/usr/include/c++/4.9/bits/stl_vector.h ****       /**
 282:/usr/include/c++/4.9/bits/stl_vector.h ****        *  @brief  Creates a %vector with copies of an exemplar element.
 283:/usr/include/c++/4.9/bits/stl_vector.h ****        *  @param  __n  The number of elements to initially create.
 284:/usr/include/c++/4.9/bits/stl_vector.h ****        *  @param  __value  An element to copy.
 285:/usr/include/c++/4.9/bits/stl_vector.h ****        *  @param  __a  An allocator.
 286:/usr/include/c++/4.9/bits/stl_vector.h ****        *
 287:/usr/include/c++/4.9/bits/stl_vector.h ****        *  This constructor fills the %vector with @a __n copies of @a __value.
 288:/usr/include/c++/4.9/bits/stl_vector.h ****        */
 289:/usr/include/c++/4.9/bits/stl_vector.h ****       vector(size_type __n, const value_type& __value,
