   1              		.file	"TestChecks.cpp"
   2              		.text
   3              	.Ltext0:
   4              		.section	.rodata
   5              	.LC0:
   6 0000 44656661 		.string	"DefaultSuite"
   6      756C7453 
   6      75697465 
   6      00
   7              		.section	.text._ZN13UnitTestSuite12GetSuiteNameEv,"axG",@progbits,_ZN13UnitTestSuite12GetSuiteName
   8              		.weak	_ZN13UnitTestSuite12GetSuiteNameEv
  10              	_ZN13UnitTestSuite12GetSuiteNameEv:
  11              	.LFB0:
  12              		.file 1 "../TestSuite.h"
   1:../TestSuite.h **** #ifndef UNITTEST_TESTSUITE_H
   2:../TestSuite.h **** #define UNITTEST_TESTSUITE_H
   3:../TestSuite.h **** 
   4:../TestSuite.h **** namespace UnitTestSuite {
   5:../TestSuite.h **** 
   6:../TestSuite.h ****     inline char const* GetSuiteName ()
   7:../TestSuite.h ****     {
  13              		.loc 1 7 0
  14              		.cfi_startproc
  15 0000 55       		pushq	%rbp
  16              		.cfi_def_cfa_offset 16
  17              		.cfi_offset 6, -16
  18 0001 4889E5   		movq	%rsp, %rbp
  19              		.cfi_def_cfa_register 6
   8:../TestSuite.h ****         return "DefaultSuite";
  20              		.loc 1 8 0
  21 0004 B8000000 		movl	$.LC0, %eax
  21      00
   9:../TestSuite.h ****     }
  22              		.loc 1 9 0
  23 0009 5D       		popq	%rbp
  24              		.cfi_def_cfa 7, 8
  25 000a C3       		ret
  26              		.cfi_endproc
  27              	.LFE0:
  29              		.section	.text._ZN8UnitTest15MemoryOutStreamC1Ev,"axG",@progbits,_ZN8UnitTest15MemoryOutStreamC1Ev
  30              		.align 2
  31              		.weak	_ZN8UnitTest15MemoryOutStreamC1Ev
  33              	_ZN8UnitTest15MemoryOutStreamC1Ev:
  34              	.LFB1053:
  35              		.file 2 "../MemoryOutStream.h"
   1:../MemoryOutStream.h **** #ifndef UNITTEST_MEMORYOUTSTREAM_H
   2:../MemoryOutStream.h **** #define UNITTEST_MEMORYOUTSTREAM_H
   3:../MemoryOutStream.h **** 
   4:../MemoryOutStream.h **** #include "Config.h"
   5:../MemoryOutStream.h **** 
   6:../MemoryOutStream.h **** #ifndef UNITTEST_USE_CUSTOM_STREAMS
   7:../MemoryOutStream.h **** 
   8:../MemoryOutStream.h **** #include <sstream>
   9:../MemoryOutStream.h **** 
  10:../MemoryOutStream.h **** namespace UnitTest
  11:../MemoryOutStream.h **** {
  12:../MemoryOutStream.h **** 
  13:../MemoryOutStream.h **** class MemoryOutStream : public std::ostringstream
  14:../MemoryOutStream.h **** {
  15:../MemoryOutStream.h **** public:
  16:../MemoryOutStream.h ****     MemoryOutStream() {}
  36              		.loc 2 16 0
  37              		.cfi_startproc
  38              		.cfi_personality 0x3,__gxx_personality_v0
  39              		.cfi_lsda 0x3,.LLSDA1053
  40 0000 55       		pushq	%rbp
  41              		.cfi_def_cfa_offset 16
  42              		.cfi_offset 6, -16
  43 0001 4889E5   		movq	%rsp, %rbp
  44              		.cfi_def_cfa_register 6
  45 0004 53       		pushq	%rbx
  46 0005 4883EC18 		subq	$24, %rsp
  47              		.cfi_offset 3, -24
  48 0009 48897DE8 		movq	%rdi, -24(%rbp)
  49              	.LBB2:
  50              		.loc 2 16 0
  51 000d 488B45E8 		movq	-24(%rbp), %rax
  52 0011 4883C060 		addq	$96, %rax
  53 0015 4889C7   		movq	%rax, %rdi
  54              	.LEHB0:
  55 0018 E8000000 		call	_ZNSt9basic_iosIcSt11char_traitsIcEEC2Ev
  55      00
  56              	.LEHE0:
  57 001d B9000000 		movl	$_ZTTN8UnitTest15MemoryOutStreamE+8, %ecx
  57      00
  58 0022 488B45E8 		movq	-24(%rbp), %rax
  59 0026 BA100000 		movl	$16, %edx
  59      00
  60 002b 4889CE   		movq	%rcx, %rsi
  61 002e 4889C7   		movq	%rax, %rdi
  62              	.LEHB1:
  63 0031 E8000000 		call	_ZNSt19basic_ostringstreamIcSt11char_traitsIcESaIcEEC2ESt13_Ios_Openmode
  63      00
  64              	.LEHE1:
  65              		.loc 2 16 0 is_stmt 0 discriminator 9
  66 0036 BA000000 		movl	$_ZTVN8UnitTest15MemoryOutStreamE+24, %edx
  66      00
  67 003b 488B45E8 		movq	-24(%rbp), %rax
  68 003f 488910   		movq	%rdx, (%rax)
  69 0042 BA600000 		movl	$96, %edx
  69      00
  70 0047 488B45E8 		movq	-24(%rbp), %rax
  71 004b 4801D0   		addq	%rdx, %rax
  72 004e BA000000 		movl	$_ZTVN8UnitTest15MemoryOutStreamE+64, %edx
  72      00
  73 0053 488910   		movq	%rdx, (%rax)
  74 0056 488B45E8 		movq	-24(%rbp), %rax
  75 005a 4883C058 		addq	$88, %rax
  76 005e 4889C7   		movq	%rax, %rdi
  77              	.LEHB2:
  78 0061 E8000000 		call	_ZNSsC1Ev
  78      00
  79              	.LEHE2:
  80              	.LBE2:
  81              		.loc 2 16 0
  82 0066 EB37     		jmp	.L8
  83              	.L6:
  84 0068 4889C3   		movq	%rax, %rbx
  85              	.LBB3:
  86 006b BA000000 		movl	$_ZTTN8UnitTest15MemoryOutStreamE+8, %edx
  86      00
  87 0070 488B45E8 		movq	-24(%rbp), %rax
  88 0074 4889D6   		movq	%rdx, %rsi
  89 0077 4889C7   		movq	%rax, %rdi
  90 007a E8000000 		call	_ZNSt19basic_ostringstreamIcSt11char_traitsIcESaIcEED2Ev
  90      00
  91 007f EB03     		jmp	.L5
  92              	.L7:
  93 0081 4889C3   		movq	%rax, %rbx
  94              	.L5:
  95              		.loc 2 16 0 discriminator 28
  96 0084 488B45E8 		movq	-24(%rbp), %rax
  97 0088 4883C060 		addq	$96, %rax
  98 008c 4889C7   		movq	%rax, %rdi
  99 008f E8000000 		call	_ZNSt9basic_iosIcSt11char_traitsIcEED2Ev
  99      00
 100 0094 4889D8   		movq	%rbx, %rax
 101 0097 4889C7   		movq	%rax, %rdi
 102              	.LEHB3:
 103 009a E8000000 		call	_Unwind_Resume
 103      00
 104              	.LEHE3:
 105              	.L8:
 106              	.LBE3:
 107              		.loc 2 16 0
 108 009f 4883C418 		addq	$24, %rsp
 109 00a3 5B       		popq	%rbx
 110 00a4 5D       		popq	%rbp
 111              		.cfi_def_cfa 7, 8
 112 00a5 C3       		ret
 113              		.cfi_endproc
 114              	.LFE1053:
 115              		.globl	__gxx_personality_v0
 116              		.section	.gcc_except_table._ZN8UnitTest15MemoryOutStreamC1Ev,"aG",@progbits,_ZN8UnitTest15MemoryOu
 117              	.LLSDA1053:
 118 0000 FF       		.byte	0xff
 119 0001 FF       		.byte	0xff
 120 0002 01       		.byte	0x1
 121 0003 12       		.uleb128 .LLSDACSE1053-.LLSDACSB1053
 122              	.LLSDACSB1053:
 123 0004 18       		.uleb128 .LEHB0-.LFB1053
 124 0005 05       		.uleb128 .LEHE0-.LEHB0
 125 0006 00       		.uleb128 0
 126 0007 00       		.uleb128 0
 127 0008 31       		.uleb128 .LEHB1-.LFB1053
 128 0009 05       		.uleb128 .LEHE1-.LEHB1
 129 000a 8101     		.uleb128 .L7-.LFB1053
 130 000c 00       		.uleb128 0
 131 000d 61       		.uleb128 .LEHB2-.LFB1053
 132 000e 05       		.uleb128 .LEHE2-.LEHB2
 133 000f 68       		.uleb128 .L6-.LFB1053
 134 0010 00       		.uleb128 0
 135 0011 9A01     		.uleb128 .LEHB3-.LFB1053
 136 0013 05       		.uleb128 .LEHE3-.LEHB3
 137 0014 00       		.uleb128 0
 138 0015 00       		.uleb128 0
 139              	.LLSDACSE1053:
 140              		.section	.text._ZN8UnitTest15MemoryOutStreamC1Ev,"axG",@progbits,_ZN8UnitTest15MemoryOutStreamC1Ev
 142              		.section	.text._ZN8UnitTest12TestReporterC2Ev,"axG",@progbits,_ZN8UnitTest12TestReporterC5Ev,comda
 143              		.align 2
 144              		.weak	_ZN8UnitTest12TestReporterC2Ev
 146              	_ZN8UnitTest12TestReporterC2Ev:
 147              	.LFB1067:
 148              		.file 3 "../TestReporter.h"
   1:../TestReporter.h **** #ifndef UNITTEST_TESTREPORTER_H
   2:../TestReporter.h **** #define UNITTEST_TESTREPORTER_H
   3:../TestReporter.h **** 
   4:../TestReporter.h **** namespace UnitTest {
   5:../TestReporter.h **** 
   6:../TestReporter.h **** class TestDetails;
   7:../TestReporter.h **** 
   8:../TestReporter.h **** class TestReporter
 149              		.loc 3 8 0 is_stmt 1
 150              		.cfi_startproc
 151 0000 55       		pushq	%rbp
 152              		.cfi_def_cfa_offset 16
 153              		.cfi_offset 6, -16
 154 0001 4889E5   		movq	%rsp, %rbp
 155              		.cfi_def_cfa_register 6
 156 0004 48897DF8 		movq	%rdi, -8(%rbp)
 157              	.LBB4:
 158              		.loc 3 8 0
 159 0008 488B45F8 		movq	-8(%rbp), %rax
 160 000c 48C70000 		movq	$_ZTVN8UnitTest12TestReporterE+16, (%rax)
 160      000000
 161              	.LBE4:
 162 0013 5D       		popq	%rbp
 163              		.cfi_def_cfa 7, 8
 164 0014 C3       		ret
 165              		.cfi_endproc
 166              	.LFE1067:
 168              		.weak	_ZN8UnitTest12TestReporterC1Ev
 169              		.set	_ZN8UnitTest12TestReporterC1Ev,_ZN8UnitTest12TestReporterC2Ev
 170              		.section	.text._ZN17RecordingReporterC2Ev,"axG",@progbits,_ZN17RecordingReporterC5Ev,comdat
 171              		.align 2
 172              		.weak	_ZN17RecordingReporterC2Ev
 174              	_ZN17RecordingReporterC2Ev:
 175              	.LFB1069:
 176              		.file 4 "RecordingReporter.h"
   1:RecordingReporter.h **** #ifndef UNITTEST_RECORDINGREPORTER_H
   2:RecordingReporter.h **** #define UNITTEST_RECORDINGREPORTER_H
   3:RecordingReporter.h **** 
   4:RecordingReporter.h **** #include "../TestReporter.h"
   5:RecordingReporter.h **** #include <cstring>
   6:RecordingReporter.h **** 
   7:RecordingReporter.h **** #include "../TestDetails.h"
   8:RecordingReporter.h **** 
   9:RecordingReporter.h **** struct RecordingReporter : public UnitTest::TestReporter
  10:RecordingReporter.h **** {
  11:RecordingReporter.h **** private:
  12:RecordingReporter.h ****     enum { kMaxStringLength = 256 };
  13:RecordingReporter.h **** 
  14:RecordingReporter.h **** public:
  15:RecordingReporter.h ****     RecordingReporter()
 177              		.loc 4 15 0
 178              		.cfi_startproc
 179 0000 55       		pushq	%rbp
 180              		.cfi_def_cfa_offset 16
 181              		.cfi_offset 6, -16
 182 0001 4889E5   		movq	%rsp, %rbp
 183              		.cfi_def_cfa_register 6
 184 0004 4883EC10 		subq	$16, %rsp
 185 0008 48897DF8 		movq	%rdi, -8(%rbp)
 186              	.LBB5:
  16:RecordingReporter.h ****         : testRunCount(0)
  17:RecordingReporter.h ****         , testFailedCount(0)
  18:RecordingReporter.h ****         , lastFailedLine(0)
  19:RecordingReporter.h ****         , testFinishedCount(0)
  20:RecordingReporter.h ****         , lastFinishedTestTime(0)
  21:RecordingReporter.h ****         , summaryTotalTestCount(0)
  22:RecordingReporter.h ****         , summaryFailedTestCount(0)
  23:RecordingReporter.h ****         , summaryFailureCount(0)
  24:RecordingReporter.h ****         , summarySecondsElapsed(0)
 187              		.loc 4 24 0
 188 000c 488B45F8 		movq	-8(%rbp), %rax
 189 0010 4889C7   		movq	%rax, %rdi
 190 0013 E8000000 		call	_ZN8UnitTest12TestReporterC2Ev
 190      00
 191 0018 488B45F8 		movq	-8(%rbp), %rax
 192 001c 48C70000 		movq	$_ZTV17RecordingReporter+16, (%rax)
 192      000000
 193 0023 488B45F8 		movq	-8(%rbp), %rax
 194 0027 C7400800 		movl	$0, 8(%rax)
 194      000000
 195 002e 488B45F8 		movq	-8(%rbp), %rax
 196 0032 C7800C02 		movl	$0, 524(%rax)
 196      00000000 
 196      0000
 197 003c 488B45F8 		movq	-8(%rbp), %rax
 198 0040 C7801003 		movl	$0, 784(%rax)
 198      00000000 
 198      0000
 199 004a 488B45F8 		movq	-8(%rbp), %rax
 200 004e C7801406 		movl	$0, 1556(%rax)
 200      00000000 
 200      0000
 201 0058 488B55F8 		movq	-8(%rbp), %rdx
 202 005c 8B050000 		movl	.LC1(%rip), %eax
 202      0000
 203 0062 89821808 		movl	%eax, 2072(%rdx)
 203      0000
 204 0068 488B45F8 		movq	-8(%rbp), %rax
 205 006c C7801C08 		movl	$0, 2076(%rax)
 205      00000000 
 205      0000
 206 0076 488B45F8 		movq	-8(%rbp), %rax
 207 007a C7802008 		movl	$0, 2080(%rax)
 207      00000000 
 207      0000
 208 0084 488B45F8 		movq	-8(%rbp), %rax
 209 0088 C7802408 		movl	$0, 2084(%rax)
 209      00000000 
 209      0000
 210 0092 488B55F8 		movq	-8(%rbp), %rdx
 211 0096 8B050000 		movl	.LC1(%rip), %eax
 211      0000
 212 009c 89822808 		movl	%eax, 2088(%rdx)
 212      0000
  25:RecordingReporter.h ****     {
  26:RecordingReporter.h ****         lastStartedSuite[0] = '\0';
 213              		.loc 4 26 0
 214 00a2 488B45F8 		movq	-8(%rbp), %rax
 215 00a6 C6400C00 		movb	$0, 12(%rax)
  27:RecordingReporter.h ****         lastStartedTest[0] = '\0';
 216              		.loc 4 27 0
 217 00aa 488B45F8 		movq	-8(%rbp), %rax
 218 00ae C6800C01 		movb	$0, 268(%rax)
 218      000000
  28:RecordingReporter.h ****         lastFailedFile[0] = '\0';
 219              		.loc 4 28 0
 220 00b5 488B45F8 		movq	-8(%rbp), %rax
 221 00b9 C6801002 		movb	$0, 528(%rax)
 221      000000
  29:RecordingReporter.h ****         lastFailedSuite[0] = '\0';
 222              		.loc 4 29 0
 223 00c0 488B45F8 		movq	-8(%rbp), %rax
 224 00c4 C6801403 		movb	$0, 788(%rax)
 224      000000
  30:RecordingReporter.h ****         lastFailedTest[0] = '\0';
 225              		.loc 4 30 0
 226 00cb 488B45F8 		movq	-8(%rbp), %rax
 227 00cf C6801404 		movb	$0, 1044(%rax)
 227      000000
  31:RecordingReporter.h ****         lastFailedMessage[0] = '\0';
 228              		.loc 4 31 0
 229 00d6 488B45F8 		movq	-8(%rbp), %rax
 230 00da C6801405 		movb	$0, 1300(%rax)
 230      000000
  32:RecordingReporter.h ****         lastFinishedSuite[0] = '\0';
 231              		.loc 4 32 0
 232 00e1 488B45F8 		movq	-8(%rbp), %rax
 233 00e5 C6801806 		movb	$0, 1560(%rax)
 233      000000
  33:RecordingReporter.h ****         lastFinishedTest[0] = '\0';
 234              		.loc 4 33 0
 235 00ec 488B45F8 		movq	-8(%rbp), %rax
 236 00f0 C6801807 		movb	$0, 1816(%rax)
 236      000000
 237              	.LBE5:
  34:RecordingReporter.h ****     }
 238              		.loc 4 34 0
 239 00f7 C9       		leave
 240              		.cfi_def_cfa 7, 8
 241 00f8 C3       		ret
 242              		.cfi_endproc
 243              	.LFE1069:
 245              		.weak	_ZN17RecordingReporterC1Ev
 246              		.set	_ZN17RecordingReporterC1Ev,_ZN17RecordingReporterC2Ev
 247              		.section	.text._ZN17RecordingReporter15ReportTestStartERKN8UnitTest11TestDetailsE,"axG",@progbits,
 248              		.align 2
 249              		.weak	_ZN17RecordingReporter15ReportTestStartERKN8UnitTest11TestDetailsE
 251              	_ZN17RecordingReporter15ReportTestStartERKN8UnitTest11TestDetailsE:
 252              	.LFB1071:
  35:RecordingReporter.h **** 
  36:RecordingReporter.h ****     virtual void ReportTestStart(UnitTest::TestDetails const& test)
 253              		.loc 4 36 0
 254              		.cfi_startproc
 255 0000 55       		pushq	%rbp
 256              		.cfi_def_cfa_offset 16
 257              		.cfi_offset 6, -16
 258 0001 4889E5   		movq	%rsp, %rbp
 259              		.cfi_def_cfa_register 6
 260 0004 4883EC10 		subq	$16, %rsp
 261 0008 48897DF8 		movq	%rdi, -8(%rbp)
 262 000c 488975F0 		movq	%rsi, -16(%rbp)
 263              	.LBB6:
  37:RecordingReporter.h ****     {
  38:RecordingReporter.h **** 		using namespace std;
  39:RecordingReporter.h **** 
  40:RecordingReporter.h ****         ++testRunCount;
 264              		.loc 4 40 0
 265 0010 488B45F8 		movq	-8(%rbp), %rax
 266 0014 8B4008   		movl	8(%rax), %eax
 267 0017 8D5001   		leal	1(%rax), %edx
 268 001a 488B45F8 		movq	-8(%rbp), %rax
 269 001e 895008   		movl	%edx, 8(%rax)
  41:RecordingReporter.h ****         strcpy(lastStartedSuite, test.suiteName);
 270              		.loc 4 41 0
 271 0021 488B45F0 		movq	-16(%rbp), %rax
 272 0025 488B00   		movq	(%rax), %rax
 273 0028 488B55F8 		movq	-8(%rbp), %rdx
 274 002c 4883C20C 		addq	$12, %rdx
 275 0030 4889C6   		movq	%rax, %rsi
 276 0033 4889D7   		movq	%rdx, %rdi
 277 0036 E8000000 		call	strcpy
 277      00
  42:RecordingReporter.h ****         strcpy(lastStartedTest, test.testName);
 278              		.loc 4 42 0
 279 003b 488B45F0 		movq	-16(%rbp), %rax
 280 003f 488B4008 		movq	8(%rax), %rax
 281 0043 488B55F8 		movq	-8(%rbp), %rdx
 282 0047 4881C20C 		addq	$268, %rdx
 282      010000
 283 004e 4889C6   		movq	%rax, %rsi
 284 0051 4889D7   		movq	%rdx, %rdi
 285 0054 E8000000 		call	strcpy
 285      00
 286              	.LBE6:
  43:RecordingReporter.h ****     }
 287              		.loc 4 43 0
 288 0059 C9       		leave
 289              		.cfi_def_cfa 7, 8
 290 005a C3       		ret
 291              		.cfi_endproc
 292              	.LFE1071:
 294              		.section	.text._ZN17RecordingReporter13ReportFailureERKN8UnitTest11TestDetailsEPKc,"axG",@progbits
 295              		.align 2
 296              		.weak	_ZN17RecordingReporter13ReportFailureERKN8UnitTest11TestDetailsEPKc
 298              	_ZN17RecordingReporter13ReportFailureERKN8UnitTest11TestDetailsEPKc:
 299              	.LFB1072:
  44:RecordingReporter.h **** 
  45:RecordingReporter.h ****     virtual void ReportFailure(UnitTest::TestDetails const& test, char const* failure)
 300              		.loc 4 45 0
 301              		.cfi_startproc
 302 0000 55       		pushq	%rbp
 303              		.cfi_def_cfa_offset 16
 304              		.cfi_offset 6, -16
 305 0001 4889E5   		movq	%rsp, %rbp
 306              		.cfi_def_cfa_register 6
 307 0004 4883EC20 		subq	$32, %rsp
 308 0008 48897DF8 		movq	%rdi, -8(%rbp)
 309 000c 488975F0 		movq	%rsi, -16(%rbp)
 310 0010 488955E8 		movq	%rdx, -24(%rbp)
 311              	.LBB7:
  46:RecordingReporter.h ****     {
  47:RecordingReporter.h **** 		using namespace std;
  48:RecordingReporter.h **** 
  49:RecordingReporter.h **** 		++testFailedCount;
 312              		.loc 4 49 0
 313 0014 488B45F8 		movq	-8(%rbp), %rax
 314 0018 8B800C02 		movl	524(%rax), %eax
 314      0000
 315 001e 8D5001   		leal	1(%rax), %edx
 316 0021 488B45F8 		movq	-8(%rbp), %rax
 317 0025 89900C02 		movl	%edx, 524(%rax)
 317      0000
  50:RecordingReporter.h ****         strcpy(lastFailedFile, test.filename);
 318              		.loc 4 50 0
 319 002b 488B45F0 		movq	-16(%rbp), %rax
 320 002f 488B4010 		movq	16(%rax), %rax
 321 0033 488B55F8 		movq	-8(%rbp), %rdx
 322 0037 4881C210 		addq	$528, %rdx
 322      020000
 323 003e 4889C6   		movq	%rax, %rsi
 324 0041 4889D7   		movq	%rdx, %rdi
 325 0044 E8000000 		call	strcpy
 325      00
  51:RecordingReporter.h ****         lastFailedLine = test.lineNumber;
 326              		.loc 4 51 0
 327 0049 488B45F0 		movq	-16(%rbp), %rax
 328 004d 8B5018   		movl	24(%rax), %edx
 329 0050 488B45F8 		movq	-8(%rbp), %rax
 330 0054 89901003 		movl	%edx, 784(%rax)
 330      0000
  52:RecordingReporter.h ****         strcpy(lastFailedSuite, test.suiteName);
 331              		.loc 4 52 0
 332 005a 488B45F0 		movq	-16(%rbp), %rax
 333 005e 488B00   		movq	(%rax), %rax
 334 0061 488B55F8 		movq	-8(%rbp), %rdx
 335 0065 4881C214 		addq	$788, %rdx
 335      030000
 336 006c 4889C6   		movq	%rax, %rsi
 337 006f 4889D7   		movq	%rdx, %rdi
 338 0072 E8000000 		call	strcpy
 338      00
  53:RecordingReporter.h ****         strcpy(lastFailedTest, test.testName);
 339              		.loc 4 53 0
 340 0077 488B45F0 		movq	-16(%rbp), %rax
 341 007b 488B4008 		movq	8(%rax), %rax
 342 007f 488B55F8 		movq	-8(%rbp), %rdx
 343 0083 4881C214 		addq	$1044, %rdx
 343      040000
 344 008a 4889C6   		movq	%rax, %rsi
 345 008d 4889D7   		movq	%rdx, %rdi
 346 0090 E8000000 		call	strcpy
 346      00
  54:RecordingReporter.h ****         strcpy(lastFailedMessage, failure);
 347              		.loc 4 54 0
 348 0095 488B45F8 		movq	-8(%rbp), %rax
 349 0099 488D9014 		leaq	1300(%rax), %rdx
 349      050000
 350 00a0 488B45E8 		movq	-24(%rbp), %rax
 351 00a4 4889C6   		movq	%rax, %rsi
 352 00a7 4889D7   		movq	%rdx, %rdi
 353 00aa E8000000 		call	strcpy
 353      00
 354              	.LBE7:
  55:RecordingReporter.h ****     }
 355              		.loc 4 55 0
 356 00af C9       		leave
 357              		.cfi_def_cfa 7, 8
 358 00b0 C3       		ret
 359              		.cfi_endproc
 360              	.LFE1072:
 362              		.section	.text._ZN17RecordingReporter16ReportTestFinishERKN8UnitTest11TestDetailsEf,"axG",@progbit
 363              		.align 2
 364              		.weak	_ZN17RecordingReporter16ReportTestFinishERKN8UnitTest11TestDetailsEf
 366              	_ZN17RecordingReporter16ReportTestFinishERKN8UnitTest11TestDetailsEf:
 367              	.LFB1073:
  56:RecordingReporter.h **** 
  57:RecordingReporter.h ****     virtual void ReportTestFinish(UnitTest::TestDetails const& test, float testDuration)
 368              		.loc 4 57 0
 369              		.cfi_startproc
 370 0000 55       		pushq	%rbp
 371              		.cfi_def_cfa_offset 16
 372              		.cfi_offset 6, -16
 373 0001 4889E5   		movq	%rsp, %rbp
 374              		.cfi_def_cfa_register 6
 375 0004 4883EC20 		subq	$32, %rsp
 376 0008 48897DF8 		movq	%rdi, -8(%rbp)
 377 000c 488975F0 		movq	%rsi, -16(%rbp)
 378 0010 F30F1145 		movss	%xmm0, -20(%rbp)
 378      EC
 379              	.LBB8:
  58:RecordingReporter.h ****     {
  59:RecordingReporter.h **** 		using namespace std;
  60:RecordingReporter.h **** 
  61:RecordingReporter.h **** 		++testFinishedCount;
 380              		.loc 4 61 0
 381 0015 488B45F8 		movq	-8(%rbp), %rax
 382 0019 8B801406 		movl	1556(%rax), %eax
 382      0000
 383 001f 8D5001   		leal	1(%rax), %edx
 384 0022 488B45F8 		movq	-8(%rbp), %rax
 385 0026 89901406 		movl	%edx, 1556(%rax)
 385      0000
  62:RecordingReporter.h ****         strcpy(lastFinishedSuite, test.suiteName);
 386              		.loc 4 62 0
 387 002c 488B45F0 		movq	-16(%rbp), %rax
 388 0030 488B00   		movq	(%rax), %rax
 389 0033 488B55F8 		movq	-8(%rbp), %rdx
 390 0037 4881C218 		addq	$1560, %rdx
 390      060000
 391 003e 4889C6   		movq	%rax, %rsi
 392 0041 4889D7   		movq	%rdx, %rdi
 393 0044 E8000000 		call	strcpy
 393      00
  63:RecordingReporter.h ****         strcpy(lastFinishedTest, test.testName);
 394              		.loc 4 63 0
 395 0049 488B45F0 		movq	-16(%rbp), %rax
 396 004d 488B4008 		movq	8(%rax), %rax
 397 0051 488B55F8 		movq	-8(%rbp), %rdx
 398 0055 4881C218 		addq	$1816, %rdx
 398      070000
 399 005c 4889C6   		movq	%rax, %rsi
 400 005f 4889D7   		movq	%rdx, %rdi
 401 0062 E8000000 		call	strcpy
 401      00
  64:RecordingReporter.h ****         lastFinishedTestTime = testDuration;
 402              		.loc 4 64 0
 403 0067 488B55F8 		movq	-8(%rbp), %rdx
 404 006b 8B45EC   		movl	-20(%rbp), %eax
 405 006e 89821808 		movl	%eax, 2072(%rdx)
 405      0000
 406              	.LBE8:
  65:RecordingReporter.h ****     }
 407              		.loc 4 65 0
 408 0074 C9       		leave
 409              		.cfi_def_cfa 7, 8
 410 0075 C3       		ret
 411              		.cfi_endproc
 412              	.LFE1073:
 414              		.section	.text._ZN17RecordingReporter13ReportSummaryEiiif,"axG",@progbits,_ZN17RecordingReporter13
 415              		.align 2
 416              		.weak	_ZN17RecordingReporter13ReportSummaryEiiif
 418              	_ZN17RecordingReporter13ReportSummaryEiiif:
 419              	.LFB1074:
  66:RecordingReporter.h **** 
  67:RecordingReporter.h ****     virtual void ReportSummary(int totalTestCount, int failedTestCount, int failureCount, float sec
 420              		.loc 4 67 0
 421              		.cfi_startproc
 422 0000 55       		pushq	%rbp
 423              		.cfi_def_cfa_offset 16
 424              		.cfi_offset 6, -16
 425 0001 4889E5   		movq	%rsp, %rbp
 426              		.cfi_def_cfa_register 6
 427 0004 48897DF8 		movq	%rdi, -8(%rbp)
 428 0008 8975F4   		movl	%esi, -12(%rbp)
 429 000b 8955F0   		movl	%edx, -16(%rbp)
 430 000e 894DEC   		movl	%ecx, -20(%rbp)
 431 0011 F30F1145 		movss	%xmm0, -24(%rbp)
 431      E8
  68:RecordingReporter.h ****     {
  69:RecordingReporter.h ****         summaryTotalTestCount = totalTestCount;
 432              		.loc 4 69 0
 433 0016 488B45F8 		movq	-8(%rbp), %rax
 434 001a 8B55F4   		movl	-12(%rbp), %edx
 435 001d 89901C08 		movl	%edx, 2076(%rax)
 435      0000
  70:RecordingReporter.h ****         summaryFailedTestCount = failedTestCount;
 436              		.loc 4 70 0
 437 0023 488B45F8 		movq	-8(%rbp), %rax
 438 0027 8B55F0   		movl	-16(%rbp), %edx
 439 002a 89902008 		movl	%edx, 2080(%rax)
 439      0000
  71:RecordingReporter.h ****         summaryFailureCount = failureCount;
 440              		.loc 4 71 0
 441 0030 488B45F8 		movq	-8(%rbp), %rax
 442 0034 8B55EC   		movl	-20(%rbp), %edx
 443 0037 89902408 		movl	%edx, 2084(%rax)
 443      0000
  72:RecordingReporter.h ****         summarySecondsElapsed = secondsElapsed;
 444              		.loc 4 72 0
 445 003d 488B55F8 		movq	-8(%rbp), %rdx
 446 0041 8B45E8   		movl	-24(%rbp), %eax
 447 0044 89822808 		movl	%eax, 2088(%rdx)
 447      0000
  73:RecordingReporter.h ****     }
 448              		.loc 4 73 0
 449 004a 5D       		popq	%rbp
 450              		.cfi_def_cfa 7, 8
 451 004b C3       		ret
 452              		.cfi_endproc
 453              	.LFE1074:
 455              		.section	.rodata
 456              	.LC2:
 457 000d 54657374 		.string	"TestChecks.cpp"
 457      43686563 
 457      6B732E63 
 457      707000
 458              	.LC3:
 459 001c 43686563 		.string	"CheckEqualWithUnsignedLong"
 459      6B457175 
 459      616C5769 
 459      7468556E 
 459      7369676E 
 460              		.text
 461              		.align 2
 463              	_ZN12_GLOBAL__N_130TestCheckEqualWithUnsignedLongC2Ev:
 464              	.LFB1076:
 465              		.file 5 "TestChecks.cpp"
   1:TestChecks.cpp **** #include "../UnitTest++.h"
   2:TestChecks.cpp **** #include "RecordingReporter.h"
   3:TestChecks.cpp **** 
   4:TestChecks.cpp **** using namespace UnitTest;
   5:TestChecks.cpp **** 
   6:TestChecks.cpp **** 
   7:TestChecks.cpp **** namespace {
   8:TestChecks.cpp **** 
   9:TestChecks.cpp **** 
  10:TestChecks.cpp **** TEST(CheckEqualWithUnsignedLong)
 466              		.loc 5 10 0
 467              		.cfi_startproc
 468 0000 55       		pushq	%rbp
 469              		.cfi_def_cfa_offset 16
 470              		.cfi_offset 6, -16
 471 0001 4889E5   		movq	%rsp, %rbp
 472              		.cfi_def_cfa_register 6
 473 0004 4883EC10 		subq	$16, %rsp
 474 0008 48897DF8 		movq	%rdi, -8(%rbp)
 475              	.LBB9:
 476              		.loc 5 10 0
 477 000c E8000000 		call	_ZN13UnitTestSuite12GetSuiteNameEv
 477      00
 478 0011 4889C2   		movq	%rax, %rdx
 479 0014 488B45F8 		movq	-8(%rbp), %rax
 480 0018 41B80A00 		movl	$10, %r8d
 480      0000
 481 001e B9000000 		movl	$.LC2, %ecx
 481      00
 482 0023 BE000000 		movl	$.LC3, %esi
 482      00
 483 0028 4889C7   		movq	%rax, %rdi
 484 002b E8000000 		call	_ZN8UnitTest4TestC2EPKcS2_S2_i
 484      00
 485 0030 488B45F8 		movq	-8(%rbp), %rax
 486 0034 48C70000 		movq	$_ZTVN12_GLOBAL__N_130TestCheckEqualWithUnsignedLongE+16, (%rax)
 486      000000
 487              	.LBE9:
 488 003b C9       		leave
 489              		.cfi_def_cfa 7, 8
 490 003c C3       		ret
 491              		.cfi_endproc
 492              	.LFE1076:
 494              		.local	_ZN12_GLOBAL__N_138testCheckEqualWithUnsignedLongInstanceE
 495              		.comm	_ZN12_GLOBAL__N_138testCheckEqualWithUnsignedLongInstanceE,56,32
 496              		.local	_ZN12_GLOBAL__N_131adderCheckEqualWithUnsignedLongE
 497              		.comm	_ZN12_GLOBAL__N_131adderCheckEqualWithUnsignedLongE,1,1
 498              		.section	.rodata
 499 0037 00       		.align 8
 500              	.LC4:
 501 0038 556E6861 		.string	"Unhandled exception in CHECK_EQUAL(something, something)"
 501      6E646C65 
 501      64206578 
 501      63657074 
 501      696F6E20 
 502              		.text
 503 003d 90       		.align 2
 505              	_ZNK12_GLOBAL__N_130TestCheckEqualWithUnsignedLong7RunImplEv:
 506              	.LFB1078:
  11:TestChecks.cpp **** {
 507              		.loc 5 11 0
 508              		.cfi_startproc
 509              		.cfi_personality 0x3,__gxx_personality_v0
 510              		.cfi_lsda 0x3,.LLSDA1078
 511 003e 55       		pushq	%rbp
 512              		.cfi_def_cfa_offset 16
 513              		.cfi_offset 6, -16
 514 003f 4889E5   		movq	%rsp, %rbp
 515              		.cfi_def_cfa_register 6
 516 0042 53       		pushq	%rbx
 517 0043 4883EC78 		subq	$120, %rsp
 518              		.cfi_offset 3, -24
 519 0047 48897D88 		movq	%rdi, -120(%rbp)
 520              		.loc 5 11 0
 521 004b 64488B04 		movq	%fs:40, %rax
 521      25280000 
 521      00
 522 0054 488945E8 		movq	%rax, -24(%rbp)
 523 0058 31C0     		xorl	%eax, %eax
 524              	.LBB10:
  12:TestChecks.cpp ****     TestResults results;
 525              		.loc 5 12 0
 526 005a 488D45A0 		leaq	-96(%rbp), %rax
 527 005e BE000000 		movl	$0, %esi
 527      00
 528 0063 4889C7   		movq	%rax, %rdi
 529              	.LEHB4:
 530 0066 E8000000 		call	_ZN8UnitTest11TestResultsC1EPNS_12TestReporterE
 530      00
 531              	.LEHE4:
  13:TestChecks.cpp ****     unsigned long something = 2;
 532              		.loc 5 13 0
 533 006b 48C74598 		movq	$2, -104(%rbp)
 533      02000000 
 534              	.LEHB5:
  14:TestChecks.cpp ****     CHECK_EQUAL(something, something);
 535              		.loc 5 14 0
 536 0073 E8000000 		call	_ZN8UnitTest11CurrentTest7DetailsEv
 536      00
 537 0078 488B08   		movq	(%rax), %rcx
 538 007b 488D45C0 		leaq	-64(%rbp), %rax
 539 007f BA0E0000 		movl	$14, %edx
 539      00
 540 0084 4889CE   		movq	%rcx, %rsi
 541 0087 4889C7   		movq	%rax, %rdi
 542 008a E8000000 		call	_ZN8UnitTest11TestDetailsC1ERKS0_i
 542      00
 543              		.loc 5 14 0 is_stmt 0 discriminator 2
 544 008f E8000000 		call	_ZN8UnitTest11CurrentTest7ResultsEv
 544      00
 545 0094 488B00   		movq	(%rax), %rax
 546 0097 488D4DC0 		leaq	-64(%rbp), %rcx
 547 009b 488D5598 		leaq	-104(%rbp), %rdx
 548 009f 488D7598 		leaq	-104(%rbp), %rsi
 549 00a3 4889C7   		movq	%rax, %rdi
 550 00a6 E8000000 		call	_ZN8UnitTest10CheckEqualImmEEvRNS_11TestResultsERKT_RKT0_RKNS_11TestDetailsE
 550      00
 551              	.LEHE5:
 552              	.LBE10:
  15:TestChecks.cpp **** }
 553              		.loc 5 15 0 is_stmt 1
 554 00ab EB58     		jmp	.L23
 555              	.L22:
 556 00ad 4889C3   		movq	%rax, %rbx
 557              	.LBB11:
  14:TestChecks.cpp ****     CHECK_EQUAL(something, something);
 558              		.loc 5 14 0
 559 00b0 E8000000 		call	__cxa_end_catch
 559      00
 560 00b5 4889D8   		movq	%rbx, %rax
 561 00b8 4889C7   		movq	%rax, %rdi
 562              	.LEHB6:
 563 00bb E8000000 		call	_Unwind_Resume
 563      00
 564              	.LEHE6:
 565              	.L21:
 566 00c0 4889C7   		movq	%rax, %rdi
 567 00c3 E8000000 		call	__cxa_begin_catch
 567      00
 568              	.LEHB7:
 569 00c8 E8000000 		call	_ZN8UnitTest11CurrentTest7DetailsEv
 569      00
 570 00cd 488B08   		movq	(%rax), %rcx
 571 00d0 488D45C0 		leaq	-64(%rbp), %rax
 572 00d4 BA0E0000 		movl	$14, %edx
 572      00
 573 00d9 4889CE   		movq	%rcx, %rsi
 574 00dc 4889C7   		movq	%rax, %rdi
 575 00df E8000000 		call	_ZN8UnitTest11TestDetailsC1ERKS0_i
 575      00
  14:TestChecks.cpp ****     CHECK_EQUAL(something, something);
 576              		.loc 5 14 0 is_stmt 0 discriminator 10
 577 00e4 E8000000 		call	_ZN8UnitTest11CurrentTest7ResultsEv
 577      00
 578 00e9 488B00   		movq	(%rax), %rax
 579 00ec 488D4DC0 		leaq	-64(%rbp), %rcx
 580 00f0 BA000000 		movl	$.LC4, %edx
 580      00
 581 00f5 4889CE   		movq	%rcx, %rsi
 582 00f8 4889C7   		movq	%rax, %rdi
 583 00fb E8000000 		call	_ZN8UnitTest11TestResults13OnTestFailureERKNS_11TestDetailsEPKc
 583      00
 584              	.LEHE7:
 585              	.LEHB8:
  14:TestChecks.cpp ****     CHECK_EQUAL(something, something);
 586              		.loc 5 14 0 discriminator 14
 587 0100 E8000000 		call	__cxa_end_catch
 587      00
 588              	.LEHE8:
 589              	.L23:
 590              	.LBE11:
 591              		.loc 5 15 0 is_stmt 1
 592 0105 90       		nop
 593 0106 488B45E8 		movq	-24(%rbp), %rax
 594 010a 64483304 		xorq	%fs:40, %rax
 594      25280000 
 594      00
 595 0113 7405     		je	.L20
 596 0115 E8000000 		call	__stack_chk_fail
 596      00
 597              	.L20:
 598 011a 4883C478 		addq	$120, %rsp
 599 011e 5B       		popq	%rbx
 600 011f 5D       		popq	%rbp
 601              		.cfi_def_cfa 7, 8
 602 0120 C3       		ret
 603              		.cfi_endproc
 604              	.LFE1078:
 605              		.section	.gcc_except_table,"a",@progbits
 606              		.align 4
 607              	.LLSDA1078:
 608 0000 FF       		.byte	0xff
 609 0001 03       		.byte	0x3
 610 0002 21       		.uleb128 .LLSDATT1078-.LLSDATTD1078
 611              	.LLSDATTD1078:
 612 0003 01       		.byte	0x1
 613 0004 17       		.uleb128 .LLSDACSE1078-.LLSDACSB1078
 614              	.LLSDACSB1078:
 615 0005 28       		.uleb128 .LEHB4-.LFB1078
 616 0006 05       		.uleb128 .LEHE4-.LEHB4
 617 0007 00       		.uleb128 0
 618 0008 00       		.uleb128 0
 619 0009 35       		.uleb128 .LEHB5-.LFB1078
 620 000a 38       		.uleb128 .LEHE5-.LEHB5
 621 000b 8201     		.uleb128 .L21-.LFB1078
 622 000d 01       		.uleb128 0x1
 623 000e 7D       		.uleb128 .LEHB6-.LFB1078
 624 000f 05       		.uleb128 .LEHE6-.LEHB6
 625 0010 00       		.uleb128 0
 626 0011 00       		.uleb128 0
 627 0012 8A01     		.uleb128 .LEHB7-.LFB1078
 628 0014 38       		.uleb128 .LEHE7-.LEHB7
 629 0015 6F       		.uleb128 .L22-.LFB1078
 630 0016 00       		.uleb128 0
 631 0017 C201     		.uleb128 .LEHB8-.LFB1078
 632 0019 05       		.uleb128 .LEHE8-.LEHB8
 633 001a 00       		.uleb128 0
 634 001b 00       		.uleb128 0
 635              	.LLSDACSE1078:
 636 001c 01       		.byte	0x1
 637 001d 00       		.byte	0
 638 001e 0000     		.align 4
 639 0020 00000000 		.long	0
 640              	
 641              	.LLSDATT1078:
 642              		.text
 644              		.section	.rodata
 645 0071 00000000 		.align 8
 645      000000
 646              	.LC5:
 647 0078 43686563 		.string	"CheckEqualsWithStringsFailsOnDifferentStrings"
 647      6B457175 
 647      616C7357 
 647      69746853 
 647      7472696E 
 648              		.text
 649 0121 90       		.align 2
 651              	_ZN12_GLOBAL__N_149TestCheckEqualsWithStringsFailsOnDifferentStringsC2Ev:
 652              	.LFB1080:
  16:TestChecks.cpp **** 
  17:TestChecks.cpp **** TEST(CheckEqualsWithStringsFailsOnDifferentStrings)
 653              		.loc 5 17 0
 654              		.cfi_startproc
 655 0122 55       		pushq	%rbp
 656              		.cfi_def_cfa_offset 16
 657              		.cfi_offset 6, -16
 658 0123 4889E5   		movq	%rsp, %rbp
 659              		.cfi_def_cfa_register 6
 660 0126 4883EC10 		subq	$16, %rsp
 661 012a 48897DF8 		movq	%rdi, -8(%rbp)
 662              	.LBB12:
 663              		.loc 5 17 0
 664 012e E8000000 		call	_ZN13UnitTestSuite12GetSuiteNameEv
 664      00
 665 0133 4889C2   		movq	%rax, %rdx
 666 0136 488B45F8 		movq	-8(%rbp), %rax
 667 013a 41B81100 		movl	$17, %r8d
 667      0000
 668 0140 B9000000 		movl	$.LC2, %ecx
 668      00
 669 0145 BE000000 		movl	$.LC5, %esi
 669      00
 670 014a 4889C7   		movq	%rax, %rdi
 671 014d E8000000 		call	_ZN8UnitTest4TestC2EPKcS2_S2_i
 671      00
 672 0152 488B45F8 		movq	-8(%rbp), %rax
 673 0156 48C70000 		movq	$_ZTVN12_GLOBAL__N_149TestCheckEqualsWithStringsFailsOnDifferentStringsE+16, (%rax)
 673      000000
 674              	.LBE12:
 675 015d C9       		leave
 676              		.cfi_def_cfa 7, 8
 677 015e C3       		ret
 678              		.cfi_endproc
 679              	.LFE1080:
 681              		.local	_ZN12_GLOBAL__N_157testCheckEqualsWithStringsFailsOnDifferentStringsInstanceE
 682              		.comm	_ZN12_GLOBAL__N_157testCheckEqualsWithStringsFailsOnDifferentStringsInstanceE,56,32
 683              		.local	_ZN12_GLOBAL__N_150adderCheckEqualsWithStringsFailsOnDifferentStringsE
 684              		.comm	_ZN12_GLOBAL__N_150adderCheckEqualsWithStringsFailsOnDifferentStringsE,1,1
 685              		.section	.rodata
 686              	.LC6:
 687 00a6 00       		.string	""
 688 00a7 00       		.align 8
 689              	.LC7:
 690 00a8 556E6861 		.string	"Unhandled exception in CHECK_EQUAL(1, results.GetFailureCount())"
 690      6E646C65 
 690      64206578 
 690      63657074 
 690      696F6E20 
 691              		.text
 692 015f 90       		.align 2
 694              	_ZNK12_GLOBAL__N_149TestCheckEqualsWithStringsFailsOnDifferentStrings7RunImplEv:
 695              	.LFB1082:
  18:TestChecks.cpp **** {
 696              		.loc 5 18 0
 697              		.cfi_startproc
 698              		.cfi_personality 0x3,__gxx_personality_v0
 699              		.cfi_lsda 0x3,.LLSDA1082
 700 0160 55       		pushq	%rbp
 701              		.cfi_def_cfa_offset 16
 702              		.cfi_offset 6, -16
 703 0161 4889E5   		movq	%rsp, %rbp
 704              		.cfi_def_cfa_register 6
 705 0164 53       		pushq	%rbx
 706 0165 4881EC88 		subq	$136, %rsp
 706      000000
 707              		.cfi_offset 3, -24
 708 016c 4889BD78 		movq	%rdi, -136(%rbp)
 708      FFFFFF
 709              		.loc 5 18 0
 710 0173 64488B04 		movq	%fs:40, %rax
 710      25280000 
 710      00
 711 017c 488945E8 		movq	%rax, -24(%rbp)
 712 0180 31C0     		xorl	%eax, %eax
 713              	.LBB13:
  19:TestChecks.cpp ****     char txt1[] = "Hello";
 714              		.loc 5 19 0
 715 0182 C745D048 		movl	$1819043144, -48(%rbp)
 715      656C6C
 716 0189 66C745D4 		movw	$111, -44(%rbp)
 716      6F00
  20:TestChecks.cpp ****     char txt2[] = "Hallo";
 717              		.loc 5 20 0
 718 018f C745E048 		movl	$1819042120, -32(%rbp)
 718      616C6C
 719 0196 66C745E4 		movw	$111, -28(%rbp)
 719      6F00
  21:TestChecks.cpp ****     TestResults results;
 720              		.loc 5 21 0
 721 019c 488D4590 		leaq	-112(%rbp), %rax
 722 01a0 BE000000 		movl	$0, %esi
 722      00
 723 01a5 4889C7   		movq	%rax, %rdi
 724              	.LEHB9:
 725 01a8 E8000000 		call	_ZN8UnitTest11TestResultsC1EPNS_12TestReporterE
 725      00
  22:TestChecks.cpp ****     CheckEqual(results, txt1, txt2, TestDetails("", "", "", 0));
 726              		.loc 5 22 0
 727 01ad 488D45B0 		leaq	-80(%rbp), %rax
 728 01b1 41B80000 		movl	$0, %r8d
 728      0000
 729 01b7 B9000000 		movl	$.LC6, %ecx
 729      00
 730 01bc BA000000 		movl	$.LC6, %edx
 730      00
 731 01c1 BE000000 		movl	$.LC6, %esi
 731      00
 732 01c6 4889C7   		movq	%rax, %rdi
 733 01c9 E8000000 		call	_ZN8UnitTest11TestDetailsC1EPKcS2_S2_i
 733      00
 734 01ce 488D4DB0 		leaq	-80(%rbp), %rcx
 735 01d2 488D55E0 		leaq	-32(%rbp), %rdx
 736 01d6 488D75D0 		leaq	-48(%rbp), %rsi
 737 01da 488D4590 		leaq	-112(%rbp), %rax
 738 01de 4889C7   		movq	%rax, %rdi
 739 01e1 E8000000 		call	_ZN8UnitTest10CheckEqualERNS_11TestResultsEPcS2_RKNS_11TestDetailsE
 739      00
 740              	.LEHE9:
 741              	.LEHB10:
  23:TestChecks.cpp ****     CHECK_EQUAL(1, results.GetFailureCount());
 742              		.loc 5 23 0
 743 01e6 E8000000 		call	_ZN8UnitTest11CurrentTest7DetailsEv
 743      00
 744 01eb 488B08   		movq	(%rax), %rcx
 745 01ee 488D45B0 		leaq	-80(%rbp), %rax
 746 01f2 BA170000 		movl	$23, %edx
 746      00
 747 01f7 4889CE   		movq	%rcx, %rsi
 748 01fa 4889C7   		movq	%rax, %rdi
 749 01fd E8000000 		call	_ZN8UnitTest11TestDetailsC1ERKS0_i
 749      00
 750              		.loc 5 23 0 is_stmt 0 discriminator 2
 751 0202 488D4590 		leaq	-112(%rbp), %rax
 752 0206 4889C7   		movq	%rax, %rdi
 753 0209 E8000000 		call	_ZNK8UnitTest11TestResults15GetFailureCountEv
 753      00
 754 020e 89458C   		movl	%eax, -116(%rbp)
 755 0211 C7458801 		movl	$1, -120(%rbp)
 755      000000
 756 0218 E8000000 		call	_ZN8UnitTest11CurrentTest7ResultsEv
 756      00
 757              		.loc 5 23 0 discriminator 4
 758 021d 488B00   		movq	(%rax), %rax
 759 0220 488D4DB0 		leaq	-80(%rbp), %rcx
 760 0224 488D558C 		leaq	-116(%rbp), %rdx
 761 0228 488D7588 		leaq	-120(%rbp), %rsi
 762 022c 4889C7   		movq	%rax, %rdi
 763 022f E8000000 		call	_ZN8UnitTest10CheckEqualIiiEEvRNS_11TestResultsERKT_RKT0_RKNS_11TestDetailsE
 763      00
 764              	.LEHE10:
 765              	.LBE13:
  24:TestChecks.cpp **** }
 766              		.loc 5 24 0 is_stmt 1
 767 0234 EB58     		jmp	.L32
 768              	.L31:
 769 0236 4889C3   		movq	%rax, %rbx
 770              	.LBB14:
  23:TestChecks.cpp ****     CHECK_EQUAL(1, results.GetFailureCount());
 771              		.loc 5 23 0
 772 0239 E8000000 		call	__cxa_end_catch
 772      00
 773 023e 4889D8   		movq	%rbx, %rax
 774 0241 4889C7   		movq	%rax, %rdi
 775              	.LEHB11:
 776 0244 E8000000 		call	_Unwind_Resume
 776      00
 777              	.LEHE11:
 778              	.L30:
 779 0249 4889C7   		movq	%rax, %rdi
 780 024c E8000000 		call	__cxa_begin_catch
 780      00
 781              	.LEHB12:
 782 0251 E8000000 		call	_ZN8UnitTest11CurrentTest7DetailsEv
 782      00
 783 0256 488B08   		movq	(%rax), %rcx
 784 0259 488D45B0 		leaq	-80(%rbp), %rax
 785 025d BA170000 		movl	$23, %edx
 785      00
 786 0262 4889CE   		movq	%rcx, %rsi
 787 0265 4889C7   		movq	%rax, %rdi
 788 0268 E8000000 		call	_ZN8UnitTest11TestDetailsC1ERKS0_i
 788      00
  23:TestChecks.cpp ****     CHECK_EQUAL(1, results.GetFailureCount());
 789              		.loc 5 23 0 is_stmt 0 discriminator 12
 790 026d E8000000 		call	_ZN8UnitTest11CurrentTest7ResultsEv
 790      00
 791 0272 488B00   		movq	(%rax), %rax
 792 0275 488D4DB0 		leaq	-80(%rbp), %rcx
 793 0279 BA000000 		movl	$.LC7, %edx
 793      00
 794 027e 4889CE   		movq	%rcx, %rsi
 795 0281 4889C7   		movq	%rax, %rdi
 796 0284 E8000000 		call	_ZN8UnitTest11TestResults13OnTestFailureERKNS_11TestDetailsEPKc
 796      00
 797              	.LEHE12:
 798              	.LEHB13:
  23:TestChecks.cpp ****     CHECK_EQUAL(1, results.GetFailureCount());
 799              		.loc 5 23 0 discriminator 16
 800 0289 E8000000 		call	__cxa_end_catch
 800      00
 801              	.LEHE13:
 802              	.L32:
 803              	.LBE14:
 804              		.loc 5 24 0 is_stmt 1
 805 028e 90       		nop
 806 028f 488B45E8 		movq	-24(%rbp), %rax
 807 0293 64483304 		xorq	%fs:40, %rax
 807      25280000 
 807      00
 808 029c 7405     		je	.L29
 809 029e E8000000 		call	__stack_chk_fail
 809      00
 810              	.L29:
 811 02a3 4881C488 		addq	$136, %rsp
 811      000000
 812 02aa 5B       		popq	%rbx
 813 02ab 5D       		popq	%rbp
 814              		.cfi_def_cfa 7, 8
 815 02ac C3       		ret
 816              		.cfi_endproc
 817              	.LFE1082:
 818              		.section	.gcc_except_table
 819              		.align 4
 820              	.LLSDA1082:
 821 0024 FF       		.byte	0xff
 822 0025 03       		.byte	0x3
 823 0026 25       		.uleb128 .LLSDATT1082-.LLSDATTD1082
 824              	.LLSDATTD1082:
 825 0027 01       		.byte	0x1
 826 0028 1A       		.uleb128 .LLSDACSE1082-.LLSDACSB1082
 827              	.LLSDACSB1082:
 828 0029 48       		.uleb128 .LEHB9-.LFB1082
 829 002a 3E       		.uleb128 .LEHE9-.LEHB9
 830 002b 00       		.uleb128 0
 831 002c 00       		.uleb128 0
 832 002d 8601     		.uleb128 .LEHB10-.LFB1082
 833 002f 4E       		.uleb128 .LEHE10-.LEHB10
 834 0030 E901     		.uleb128 .L30-.LFB1082
 835 0032 01       		.uleb128 0x1
 836 0033 E401     		.uleb128 .LEHB11-.LFB1082
 837 0035 05       		.uleb128 .LEHE11-.LEHB11
 838 0036 00       		.uleb128 0
 839 0037 00       		.uleb128 0
 840 0038 F101     		.uleb128 .LEHB12-.LFB1082
 841 003a 38       		.uleb128 .LEHE12-.LEHB12
 842 003b D601     		.uleb128 .L31-.LFB1082
 843 003d 00       		.uleb128 0
 844 003e A902     		.uleb128 .LEHB13-.LFB1082
 845 0040 05       		.uleb128 .LEHE13-.LEHB13
 846 0041 00       		.uleb128 0
 847 0042 00       		.uleb128 0
 848              	.LLSDACSE1082:
 849 0043 01       		.byte	0x1
 850 0044 00       		.byte	0
 851 0045 000000   		.align 4
 852 0048 00000000 		.long	0
 853              	
 854              	.LLSDATT1082:
 855              		.text
 857              		.data
 860              	_ZN12_GLOBAL__N_14txt1E:
 861 0000 48656C6C 		.string	"Hello"
 861      6F00
 864              	_ZN12_GLOBAL__N_14txt2E:
 865 0006 48656C6C 		.string	"Hello"
 865      6F00
 866              		.section	.rodata
 867 00e9 00000000 		.align 8
 867      000000
 868              	.LC8:
 869 00f0 43686563 		.string	"CheckEqualsWithStringsWorksOnContentsNonConstNonConst"
 869      6B457175 
 869      616C7357 
 869      69746853 
 869      7472696E 
 870              		.text
 871 02ad 90       		.align 2
 873              	_ZN12_GLOBAL__N_157TestCheckEqualsWithStringsWorksOnContentsNonConstNonConstC2Ev:
 874              	.LFB1084:
  25:TestChecks.cpp **** 
  26:TestChecks.cpp **** char txt1[] = "Hello"; // non-const on purpose so no folding of duplicate data
  27:TestChecks.cpp **** char txt2[] = "Hello";
  28:TestChecks.cpp **** 
  29:TestChecks.cpp **** TEST(CheckEqualsWithStringsWorksOnContentsNonConstNonConst)
 875              		.loc 5 29 0
 876              		.cfi_startproc
 877 02ae 55       		pushq	%rbp
 878              		.cfi_def_cfa_offset 16
 879              		.cfi_offset 6, -16
 880 02af 4889E5   		movq	%rsp, %rbp
 881              		.cfi_def_cfa_register 6
 882 02b2 4883EC10 		subq	$16, %rsp
 883 02b6 48897DF8 		movq	%rdi, -8(%rbp)
 884              	.LBB15:
 885              		.loc 5 29 0
 886 02ba E8000000 		call	_ZN13UnitTestSuite12GetSuiteNameEv
 886      00
 887 02bf 4889C2   		movq	%rax, %rdx
 888 02c2 488B45F8 		movq	-8(%rbp), %rax
 889 02c6 41B81D00 		movl	$29, %r8d
 889      0000
 890 02cc B9000000 		movl	$.LC2, %ecx
 890      00
 891 02d1 BE000000 		movl	$.LC8, %esi
 891      00
 892 02d6 4889C7   		movq	%rax, %rdi
 893 02d9 E8000000 		call	_ZN8UnitTest4TestC2EPKcS2_S2_i
 893      00
 894 02de 488B45F8 		movq	-8(%rbp), %rax
 895 02e2 48C70000 		movq	$_ZTVN12_GLOBAL__N_157TestCheckEqualsWithStringsWorksOnContentsNonConstNonConstE+16, (%rax)
 895      000000
 896              	.LBE15:
 897 02e9 C9       		leave
 898              		.cfi_def_cfa 7, 8
 899 02ea C3       		ret
 900              		.cfi_endproc
 901              	.LFE1084:
 903              		.local	_ZN12_GLOBAL__N_165testCheckEqualsWithStringsWorksOnContentsNonConstNonConstInstanceE
 904              		.comm	_ZN12_GLOBAL__N_165testCheckEqualsWithStringsWorksOnContentsNonConstNonConstInstanceE,56,32
 905              		.local	_ZN12_GLOBAL__N_158adderCheckEqualsWithStringsWorksOnContentsNonConstNonConstE
 906              		.comm	_ZN12_GLOBAL__N_158adderCheckEqualsWithStringsWorksOnContentsNonConstNonConstE,1,1
 907              		.section	.rodata
 908 0126 0000     		.align 8
 909              	.LC9:
 910 0128 556E6861 		.string	"Unhandled exception in CHECK_EQUAL(0, results.GetFailureCount())"
 910      6E646C65 
 910      64206578 
 910      63657074 
 910      696F6E20 
 911              		.text
 912 02eb 90       		.align 2
 914              	_ZNK12_GLOBAL__N_157TestCheckEqualsWithStringsWorksOnContentsNonConstNonConst7RunImplEv:
 915              	.LFB1086:
  30:TestChecks.cpp **** {
 916              		.loc 5 30 0
 917              		.cfi_startproc
 918              		.cfi_personality 0x3,__gxx_personality_v0
 919              		.cfi_lsda 0x3,.LLSDA1086
 920 02ec 55       		pushq	%rbp
 921              		.cfi_def_cfa_offset 16
 922              		.cfi_offset 6, -16
 923 02ed 4889E5   		movq	%rsp, %rbp
 924              		.cfi_def_cfa_register 6
 925 02f0 53       		pushq	%rbx
 926 02f1 4881EC88 		subq	$136, %rsp
 926      000000
 927              		.cfi_offset 3, -24
 928 02f8 4889BD78 		movq	%rdi, -136(%rbp)
 928      FFFFFF
 929              		.loc 5 30 0
 930 02ff 64488B04 		movq	%fs:40, %rax
 930      25280000 
 930      00
 931 0308 488945E8 		movq	%rax, -24(%rbp)
 932 030c 31C0     		xorl	%eax, %eax
 933              	.LBB16:
  31:TestChecks.cpp ****     char const* const p1 = txt1;
 934              		.loc 5 31 0
 935 030e 48C74590 		movq	$_ZN12_GLOBAL__N_14txt1E, -112(%rbp)
 935      00000000 
  32:TestChecks.cpp ****     char const* const p2 = txt2;
 936              		.loc 5 32 0
 937 0316 48C74598 		movq	$_ZN12_GLOBAL__N_14txt2E, -104(%rbp)
 937      00000000 
  33:TestChecks.cpp ****     TestResults results;
 938              		.loc 5 33 0
 939 031e 488D45A0 		leaq	-96(%rbp), %rax
 940 0322 BE000000 		movl	$0, %esi
 940      00
 941 0327 4889C7   		movq	%rax, %rdi
 942              	.LEHB14:
 943 032a E8000000 		call	_ZN8UnitTest11TestResultsC1EPNS_12TestReporterE
 943      00
  34:TestChecks.cpp ****     CheckEqual(results, p1, p2, TestDetails("", "", "", 0));
 944              		.loc 5 34 0
 945 032f 488D45C0 		leaq	-64(%rbp), %rax
 946 0333 41B80000 		movl	$0, %r8d
 946      0000
 947 0339 B9000000 		movl	$.LC6, %ecx
 947      00
 948 033e BA000000 		movl	$.LC6, %edx
 948      00
 949 0343 BE000000 		movl	$.LC6, %esi
 949      00
 950 0348 4889C7   		movq	%rax, %rdi
 951 034b E8000000 		call	_ZN8UnitTest11TestDetailsC1EPKcS2_S2_i
 951      00
 952 0350 488D55C0 		leaq	-64(%rbp), %rdx
 953 0354 488D45A0 		leaq	-96(%rbp), %rax
 954 0358 4889D1   		movq	%rdx, %rcx
 955 035b BA000000 		movl	$_ZN12_GLOBAL__N_14txt2E, %edx
 955      00
 956 0360 BE000000 		movl	$_ZN12_GLOBAL__N_14txt1E, %esi
 956      00
 957 0365 4889C7   		movq	%rax, %rdi
 958 0368 E8000000 		call	_ZN8UnitTest10CheckEqualERNS_11TestResultsEPKcS3_RKNS_11TestDetailsE
 958      00
 959              	.LEHE14:
 960              	.LEHB15:
  35:TestChecks.cpp ****     CHECK_EQUAL(0, results.GetFailureCount());
 961              		.loc 5 35 0
 962 036d E8000000 		call	_ZN8UnitTest11CurrentTest7DetailsEv
 962      00
 963 0372 488B08   		movq	(%rax), %rcx
 964 0375 488D45C0 		leaq	-64(%rbp), %rax
 965 0379 BA230000 		movl	$35, %edx
 965      00
 966 037e 4889CE   		movq	%rcx, %rsi
 967 0381 4889C7   		movq	%rax, %rdi
 968 0384 E8000000 		call	_ZN8UnitTest11TestDetailsC1ERKS0_i
 968      00
 969              		.loc 5 35 0 is_stmt 0 discriminator 2
 970 0389 488D45A0 		leaq	-96(%rbp), %rax
 971 038d 4889C7   		movq	%rax, %rdi
 972 0390 E8000000 		call	_ZNK8UnitTest11TestResults15GetFailureCountEv
 972      00
 973 0395 89458C   		movl	%eax, -116(%rbp)
 974 0398 C7458800 		movl	$0, -120(%rbp)
 974      000000
 975 039f E8000000 		call	_ZN8UnitTest11CurrentTest7ResultsEv
 975      00
 976              		.loc 5 35 0 discriminator 4
 977 03a4 488B00   		movq	(%rax), %rax
 978 03a7 488D4DC0 		leaq	-64(%rbp), %rcx
 979 03ab 488D558C 		leaq	-116(%rbp), %rdx
 980 03af 488D7588 		leaq	-120(%rbp), %rsi
 981 03b3 4889C7   		movq	%rax, %rdi
 982 03b6 E8000000 		call	_ZN8UnitTest10CheckEqualIiiEEvRNS_11TestResultsERKT_RKT0_RKNS_11TestDetailsE
 982      00
 983              	.LEHE15:
 984              	.LBE16:
  36:TestChecks.cpp **** }
 985              		.loc 5 36 0 is_stmt 1
 986 03bb EB58     		jmp	.L41
 987              	.L40:
 988 03bd 4889C3   		movq	%rax, %rbx
 989              	.LBB17:
  35:TestChecks.cpp ****     CHECK_EQUAL(0, results.GetFailureCount());
 990              		.loc 5 35 0
 991 03c0 E8000000 		call	__cxa_end_catch
 991      00
 992 03c5 4889D8   		movq	%rbx, %rax
 993 03c8 4889C7   		movq	%rax, %rdi
 994              	.LEHB16:
 995 03cb E8000000 		call	_Unwind_Resume
 995      00
 996              	.LEHE16:
 997              	.L39:
 998 03d0 4889C7   		movq	%rax, %rdi
 999 03d3 E8000000 		call	__cxa_begin_catch
 999      00
 1000              	.LEHB17:
 1001 03d8 E8000000 		call	_ZN8UnitTest11CurrentTest7DetailsEv
 1001      00
 1002 03dd 488B08   		movq	(%rax), %rcx
 1003 03e0 488D45C0 		leaq	-64(%rbp), %rax
 1004 03e4 BA230000 		movl	$35, %edx
 1004      00
 1005 03e9 4889CE   		movq	%rcx, %rsi
 1006 03ec 4889C7   		movq	%rax, %rdi
 1007 03ef E8000000 		call	_ZN8UnitTest11TestDetailsC1ERKS0_i
 1007      00
  35:TestChecks.cpp ****     CHECK_EQUAL(0, results.GetFailureCount());
 1008              		.loc 5 35 0 is_stmt 0 discriminator 12
 1009 03f4 E8000000 		call	_ZN8UnitTest11CurrentTest7ResultsEv
 1009      00
 1010 03f9 488B00   		movq	(%rax), %rax
 1011 03fc 488D4DC0 		leaq	-64(%rbp), %rcx
 1012 0400 BA000000 		movl	$.LC9, %edx
 1012      00
 1013 0405 4889CE   		movq	%rcx, %rsi
 1014 0408 4889C7   		movq	%rax, %rdi
 1015 040b E8000000 		call	_ZN8UnitTest11TestResults13OnTestFailureERKNS_11TestDetailsEPKc
 1015      00
 1016              	.LEHE17:
 1017              	.LEHB18:
  35:TestChecks.cpp ****     CHECK_EQUAL(0, results.GetFailureCount());
 1018              		.loc 5 35 0 discriminator 16
 1019 0410 E8000000 		call	__cxa_end_catch
 1019      00
 1020              	.LEHE18:
 1021              	.L41:
 1022              	.LBE17:
 1023              		.loc 5 36 0 is_stmt 1
 1024 0415 90       		nop
 1025 0416 488B45E8 		movq	-24(%rbp), %rax
 1026 041a 64483304 		xorq	%fs:40, %rax
 1026      25280000 
 1026      00
 1027 0423 7405     		je	.L38
 1028 0425 E8000000 		call	__stack_chk_fail
 1028      00
 1029              	.L38:
 1030 042a 4881C488 		addq	$136, %rsp
 1030      000000
 1031 0431 5B       		popq	%rbx
 1032 0432 5D       		popq	%rbp
 1033              		.cfi_def_cfa 7, 8
 1034 0433 C3       		ret
 1035              		.cfi_endproc
 1036              	.LFE1086:
 1037              		.section	.gcc_except_table
 1038              		.align 4
 1039              	.LLSDA1086:
 1040 004c FF       		.byte	0xff
 1041 004d 03       		.byte	0x3
 1042 004e 25       		.uleb128 .LLSDATT1086-.LLSDATTD1086
 1043              	.LLSDATTD1086:
 1044 004f 01       		.byte	0x1
 1045 0050 1A       		.uleb128 .LLSDACSE1086-.LLSDACSB1086
 1046              	.LLSDACSB1086:
 1047 0051 3E       		.uleb128 .LEHB14-.LFB1086
 1048 0052 43       		.uleb128 .LEHE14-.LEHB14
 1049 0053 00       		.uleb128 0
 1050 0054 00       		.uleb128 0
 1051 0055 8101     		.uleb128 .LEHB15-.LFB1086
 1052 0057 4E       		.uleb128 .LEHE15-.LEHB15
 1053 0058 E401     		.uleb128 .L39-.LFB1086
 1054 005a 01       		.uleb128 0x1
 1055 005b DF01     		.uleb128 .LEHB16-.LFB1086
 1056 005d 05       		.uleb128 .LEHE16-.LEHB16
 1057 005e 00       		.uleb128 0
 1058 005f 00       		.uleb128 0
 1059 0060 EC01     		.uleb128 .LEHB17-.LFB1086
 1060 0062 38       		.uleb128 .LEHE17-.LEHB17
 1061 0063 D101     		.uleb128 .L40-.LFB1086
 1062 0065 00       		.uleb128 0
 1063 0066 A402     		.uleb128 .LEHB18-.LFB1086
 1064 0068 05       		.uleb128 .LEHE18-.LEHB18
 1065 0069 00       		.uleb128 0
 1066 006a 00       		.uleb128 0
 1067              	.LLSDACSE1086:
 1068 006b 01       		.byte	0x1
 1069 006c 00       		.byte	0
 1070 006d 000000   		.align 4
 1071 0070 00000000 		.long	0
 1072              	
 1073              	.LLSDATT1086:
 1074              		.text
 1076              		.section	.rodata
 1077 0169 00000000 		.align 8
 1077      000000
 1078              	.LC10:
 1079 0170 43686563 		.string	"CheckEqualsWithStringsWorksOnContentsConstConst"
 1079      6B457175 
 1079      616C7357 
 1079      69746853 
 1079      7472696E 
 1080              		.text
 1081              		.align 2
 1083              	_ZN12_GLOBAL__N_151TestCheckEqualsWithStringsWorksOnContentsConstConstC2Ev:
 1084              	.LFB1088:
  37:TestChecks.cpp **** 
  38:TestChecks.cpp **** TEST(CheckEqualsWithStringsWorksOnContentsConstConst)
 1085              		.loc 5 38 0
 1086              		.cfi_startproc
 1087 0434 55       		pushq	%rbp
 1088              		.cfi_def_cfa_offset 16
 1089              		.cfi_offset 6, -16
 1090 0435 4889E5   		movq	%rsp, %rbp
 1091              		.cfi_def_cfa_register 6
 1092 0438 4883EC10 		subq	$16, %rsp
 1093 043c 48897DF8 		movq	%rdi, -8(%rbp)
 1094              	.LBB18:
 1095              		.loc 5 38 0
 1096 0440 E8000000 		call	_ZN13UnitTestSuite12GetSuiteNameEv
 1096      00
 1097 0445 4889C2   		movq	%rax, %rdx
 1098 0448 488B45F8 		movq	-8(%rbp), %rax
 1099 044c 41B82600 		movl	$38, %r8d
 1099      0000
 1100 0452 B9000000 		movl	$.LC2, %ecx
 1100      00
 1101 0457 BE000000 		movl	$.LC10, %esi
 1101      00
 1102 045c 4889C7   		movq	%rax, %rdi
 1103 045f E8000000 		call	_ZN8UnitTest4TestC2EPKcS2_S2_i
 1103      00
 1104 0464 488B45F8 		movq	-8(%rbp), %rax
 1105 0468 48C70000 		movq	$_ZTVN12_GLOBAL__N_151TestCheckEqualsWithStringsWorksOnContentsConstConstE+16, (%rax)
 1105      000000
 1106              	.LBE18:
 1107 046f C9       		leave
 1108              		.cfi_def_cfa 7, 8
 1109 0470 C3       		ret
 1110              		.cfi_endproc
 1111              	.LFE1088:
 1113              		.local	_ZN12_GLOBAL__N_159testCheckEqualsWithStringsWorksOnContentsConstConstInstanceE
 1114              		.comm	_ZN12_GLOBAL__N_159testCheckEqualsWithStringsWorksOnContentsConstConstInstanceE,56,32
 1115              		.local	_ZN12_GLOBAL__N_152adderCheckEqualsWithStringsWorksOnContentsConstConstE
 1116              		.comm	_ZN12_GLOBAL__N_152adderCheckEqualsWithStringsWorksOnContentsConstConstE,1,1
 1117 0471 90       		.align 2
 1119              	_ZNK12_GLOBAL__N_151TestCheckEqualsWithStringsWorksOnContentsConstConst7RunImplEv:
 1120              	.LFB1090:
  39:TestChecks.cpp **** {
 1121              		.loc 5 39 0
 1122              		.cfi_startproc
 1123              		.cfi_personality 0x3,__gxx_personality_v0
 1124              		.cfi_lsda 0x3,.LLSDA1090
 1125 0472 55       		pushq	%rbp
 1126              		.cfi_def_cfa_offset 16
 1127              		.cfi_offset 6, -16
 1128 0473 4889E5   		movq	%rsp, %rbp
 1129              		.cfi_def_cfa_register 6
 1130 0476 53       		pushq	%rbx
 1131 0477 4881EC88 		subq	$136, %rsp
 1131      000000
 1132              		.cfi_offset 3, -24
 1133 047e 4889BD78 		movq	%rdi, -136(%rbp)
 1133      FFFFFF
 1134              		.loc 5 39 0
 1135 0485 64488B04 		movq	%fs:40, %rax
 1135      25280000 
 1135      00
 1136 048e 488945E8 		movq	%rax, -24(%rbp)
 1137 0492 31C0     		xorl	%eax, %eax
 1138              	.LBB19:
  40:TestChecks.cpp ****     char* const p1 = txt1;
 1139              		.loc 5 40 0
 1140 0494 48C74590 		movq	$_ZN12_GLOBAL__N_14txt1E, -112(%rbp)
 1140      00000000 
  41:TestChecks.cpp ****     char* const p2 = txt2;
 1141              		.loc 5 41 0
 1142 049c 48C74598 		movq	$_ZN12_GLOBAL__N_14txt2E, -104(%rbp)
 1142      00000000 
  42:TestChecks.cpp ****     TestResults results;
 1143              		.loc 5 42 0
 1144 04a4 488D45A0 		leaq	-96(%rbp), %rax
 1145 04a8 BE000000 		movl	$0, %esi
 1145      00
 1146 04ad 4889C7   		movq	%rax, %rdi
 1147              	.LEHB19:
 1148 04b0 E8000000 		call	_ZN8UnitTest11TestResultsC1EPNS_12TestReporterE
 1148      00
  43:TestChecks.cpp ****     CheckEqual(results, p1, p2, TestDetails("", "", "", 0));
 1149              		.loc 5 43 0
 1150 04b5 488D45C0 		leaq	-64(%rbp), %rax
 1151 04b9 41B80000 		movl	$0, %r8d
 1151      0000
 1152 04bf B9000000 		movl	$.LC6, %ecx
 1152      00
 1153 04c4 BA000000 		movl	$.LC6, %edx
 1153      00
 1154 04c9 BE000000 		movl	$.LC6, %esi
 1154      00
 1155 04ce 4889C7   		movq	%rax, %rdi
 1156 04d1 E8000000 		call	_ZN8UnitTest11TestDetailsC1EPKcS2_S2_i
 1156      00
 1157 04d6 488D55C0 		leaq	-64(%rbp), %rdx
 1158 04da 488D45A0 		leaq	-96(%rbp), %rax
 1159 04de 4889D1   		movq	%rdx, %rcx
 1160 04e1 BA000000 		movl	$_ZN12_GLOBAL__N_14txt2E, %edx
 1160      00
 1161 04e6 BE000000 		movl	$_ZN12_GLOBAL__N_14txt1E, %esi
 1161      00
 1162 04eb 4889C7   		movq	%rax, %rdi
 1163 04ee E8000000 		call	_ZN8UnitTest10CheckEqualERNS_11TestResultsEPcS2_RKNS_11TestDetailsE
 1163      00
 1164              	.LEHE19:
 1165              	.LEHB20:
  44:TestChecks.cpp ****     CHECK_EQUAL(0, results.GetFailureCount());
 1166              		.loc 5 44 0
 1167 04f3 E8000000 		call	_ZN8UnitTest11CurrentTest7DetailsEv
 1167      00
 1168 04f8 488B08   		movq	(%rax), %rcx
 1169 04fb 488D45C0 		leaq	-64(%rbp), %rax
 1170 04ff BA2C0000 		movl	$44, %edx
 1170      00
 1171 0504 4889CE   		movq	%rcx, %rsi
 1172 0507 4889C7   		movq	%rax, %rdi
 1173 050a E8000000 		call	_ZN8UnitTest11TestDetailsC1ERKS0_i
 1173      00
 1174              		.loc 5 44 0 is_stmt 0 discriminator 2
 1175 050f 488D45A0 		leaq	-96(%rbp), %rax
 1176 0513 4889C7   		movq	%rax, %rdi
 1177 0516 E8000000 		call	_ZNK8UnitTest11TestResults15GetFailureCountEv
 1177      00
 1178 051b 89458C   		movl	%eax, -116(%rbp)
 1179 051e C7458800 		movl	$0, -120(%rbp)
 1179      000000
 1180 0525 E8000000 		call	_ZN8UnitTest11CurrentTest7ResultsEv
 1180      00
 1181              		.loc 5 44 0 discriminator 4
 1182 052a 488B00   		movq	(%rax), %rax
 1183 052d 488D4DC0 		leaq	-64(%rbp), %rcx
 1184 0531 488D558C 		leaq	-116(%rbp), %rdx
 1185 0535 488D7588 		leaq	-120(%rbp), %rsi
 1186 0539 4889C7   		movq	%rax, %rdi
 1187 053c E8000000 		call	_ZN8UnitTest10CheckEqualIiiEEvRNS_11TestResultsERKT_RKT0_RKNS_11TestDetailsE
 1187      00
 1188              	.LEHE20:
 1189              	.LBE19:
  45:TestChecks.cpp **** }
 1190              		.loc 5 45 0 is_stmt 1
 1191 0541 EB58     		jmp	.L50
 1192              	.L49:
 1193 0543 4889C3   		movq	%rax, %rbx
 1194              	.LBB20:
  44:TestChecks.cpp ****     CHECK_EQUAL(0, results.GetFailureCount());
 1195              		.loc 5 44 0
 1196 0546 E8000000 		call	__cxa_end_catch
 1196      00
 1197 054b 4889D8   		movq	%rbx, %rax
 1198 054e 4889C7   		movq	%rax, %rdi
 1199              	.LEHB21:
 1200 0551 E8000000 		call	_Unwind_Resume
 1200      00
 1201              	.LEHE21:
 1202              	.L48:
 1203 0556 4889C7   		movq	%rax, %rdi
 1204 0559 E8000000 		call	__cxa_begin_catch
 1204      00
 1205              	.LEHB22:
 1206 055e E8000000 		call	_ZN8UnitTest11CurrentTest7DetailsEv
 1206      00
 1207 0563 488B08   		movq	(%rax), %rcx
 1208 0566 488D45C0 		leaq	-64(%rbp), %rax
 1209 056a BA2C0000 		movl	$44, %edx
 1209      00
 1210 056f 4889CE   		movq	%rcx, %rsi
 1211 0572 4889C7   		movq	%rax, %rdi
 1212 0575 E8000000 		call	_ZN8UnitTest11TestDetailsC1ERKS0_i
 1212      00
  44:TestChecks.cpp ****     CHECK_EQUAL(0, results.GetFailureCount());
 1213              		.loc 5 44 0 is_stmt 0 discriminator 12
 1214 057a E8000000 		call	_ZN8UnitTest11CurrentTest7ResultsEv
 1214      00
 1215 057f 488B00   		movq	(%rax), %rax
 1216 0582 488D4DC0 		leaq	-64(%rbp), %rcx
 1217 0586 BA000000 		movl	$.LC9, %edx
 1217      00
 1218 058b 4889CE   		movq	%rcx, %rsi
 1219 058e 4889C7   		movq	%rax, %rdi
 1220 0591 E8000000 		call	_ZN8UnitTest11TestResults13OnTestFailureERKNS_11TestDetailsEPKc
 1220      00
 1221              	.LEHE22:
 1222              	.LEHB23:
  44:TestChecks.cpp ****     CHECK_EQUAL(0, results.GetFailureCount());
 1223              		.loc 5 44 0 discriminator 16
 1224 0596 E8000000 		call	__cxa_end_catch
 1224      00
 1225              	.LEHE23:
 1226              	.L50:
 1227              	.LBE20:
 1228              		.loc 5 45 0 is_stmt 1
 1229 059b 90       		nop
 1230 059c 488B45E8 		movq	-24(%rbp), %rax
 1231 05a0 64483304 		xorq	%fs:40, %rax
 1231      25280000 
 1231      00
 1232 05a9 7405     		je	.L47
 1233 05ab E8000000 		call	__stack_chk_fail
 1233      00
 1234              	.L47:
 1235 05b0 4881C488 		addq	$136, %rsp
 1235      000000
 1236 05b7 5B       		popq	%rbx
 1237 05b8 5D       		popq	%rbp
 1238              		.cfi_def_cfa 7, 8
 1239 05b9 C3       		ret
 1240              		.cfi_endproc
 1241              	.LFE1090:
 1242              		.section	.gcc_except_table
 1243              		.align 4
 1244              	.LLSDA1090:
 1245 0074 FF       		.byte	0xff
 1246 0075 03       		.byte	0x3
 1247 0076 25       		.uleb128 .LLSDATT1090-.LLSDATTD1090
 1248              	.LLSDATTD1090:
 1249 0077 01       		.byte	0x1
 1250 0078 1A       		.uleb128 .LLSDACSE1090-.LLSDACSB1090
 1251              	.LLSDACSB1090:
 1252 0079 3E       		.uleb128 .LEHB19-.LFB1090
 1253 007a 43       		.uleb128 .LEHE19-.LEHB19
 1254 007b 00       		.uleb128 0
 1255 007c 00       		.uleb128 0
 1256 007d 8101     		.uleb128 .LEHB20-.LFB1090
 1257 007f 4E       		.uleb128 .LEHE20-.LEHB20
 1258 0080 E401     		.uleb128 .L48-.LFB1090
 1259 0082 01       		.uleb128 0x1
 1260 0083 DF01     		.uleb128 .LEHB21-.LFB1090
 1261 0085 05       		.uleb128 .LEHE21-.LEHB21
 1262 0086 00       		.uleb128 0
 1263 0087 00       		.uleb128 0
 1264 0088 EC01     		.uleb128 .LEHB22-.LFB1090
 1265 008a 38       		.uleb128 .LEHE22-.LEHB22
 1266 008b D101     		.uleb128 .L49-.LFB1090
 1267 008d 00       		.uleb128 0
 1268 008e A402     		.uleb128 .LEHB23-.LFB1090
 1269 0090 05       		.uleb128 .LEHE23-.LEHB23
 1270 0091 00       		.uleb128 0
 1271 0092 00       		.uleb128 0
 1272              	.LLSDACSE1090:
 1273 0093 01       		.byte	0x1
 1274 0094 00       		.byte	0
 1275 0095 000000   		.align 4
 1276 0098 00000000 		.long	0
 1277              	
 1278              	.LLSDATT1090:
 1279              		.text
 1281              		.section	.rodata
 1282              		.align 8
 1283              	.LC11:
 1284 01a0 43686563 		.string	"CheckEqualsWithStringsWorksOnContentsNonConstConst"
 1284      6B457175 
 1284      616C7357 
 1284      69746853 
 1284      7472696E 
 1285              		.text
 1286              		.align 2
 1288              	_ZN12_GLOBAL__N_154TestCheckEqualsWithStringsWorksOnContentsNonConstConstC2Ev:
 1289              	.LFB1092:
  46:TestChecks.cpp **** 
  47:TestChecks.cpp **** TEST(CheckEqualsWithStringsWorksOnContentsNonConstConst)
 1290              		.loc 5 47 0
 1291              		.cfi_startproc
 1292 05ba 55       		pushq	%rbp
 1293              		.cfi_def_cfa_offset 16
 1294              		.cfi_offset 6, -16
 1295 05bb 4889E5   		movq	%rsp, %rbp
 1296              		.cfi_def_cfa_register 6
 1297 05be 4883EC10 		subq	$16, %rsp
 1298 05c2 48897DF8 		movq	%rdi, -8(%rbp)
 1299              	.LBB21:
 1300              		.loc 5 47 0
 1301 05c6 E8000000 		call	_ZN13UnitTestSuite12GetSuiteNameEv
 1301      00
 1302 05cb 4889C2   		movq	%rax, %rdx
 1303 05ce 488B45F8 		movq	-8(%rbp), %rax
 1304 05d2 41B82F00 		movl	$47, %r8d
 1304      0000
 1305 05d8 B9000000 		movl	$.LC2, %ecx
 1305      00
 1306 05dd BE000000 		movl	$.LC11, %esi
 1306      00
 1307 05e2 4889C7   		movq	%rax, %rdi
 1308 05e5 E8000000 		call	_ZN8UnitTest4TestC2EPKcS2_S2_i
 1308      00
 1309 05ea 488B45F8 		movq	-8(%rbp), %rax
 1310 05ee 48C70000 		movq	$_ZTVN12_GLOBAL__N_154TestCheckEqualsWithStringsWorksOnContentsNonConstConstE+16, (%rax)
 1310      000000
 1311              	.LBE21:
 1312 05f5 C9       		leave
 1313              		.cfi_def_cfa 7, 8
 1314 05f6 C3       		ret
 1315              		.cfi_endproc
 1316              	.LFE1092:
 1318              		.local	_ZN12_GLOBAL__N_162testCheckEqualsWithStringsWorksOnContentsNonConstConstInstanceE
 1319              		.comm	_ZN12_GLOBAL__N_162testCheckEqualsWithStringsWorksOnContentsNonConstConstInstanceE,56,32
 1320              		.local	_ZN12_GLOBAL__N_155adderCheckEqualsWithStringsWorksOnContentsNonConstConstE
 1321              		.comm	_ZN12_GLOBAL__N_155adderCheckEqualsWithStringsWorksOnContentsNonConstConstE,1,1
 1322 05f7 90       		.align 2
 1324              	_ZNK12_GLOBAL__N_154TestCheckEqualsWithStringsWorksOnContentsNonConstConst7RunImplEv:
 1325              	.LFB1094:
  48:TestChecks.cpp **** {
 1326              		.loc 5 48 0
 1327              		.cfi_startproc
 1328              		.cfi_personality 0x3,__gxx_personality_v0
 1329              		.cfi_lsda 0x3,.LLSDA1094
 1330 05f8 55       		pushq	%rbp
 1331              		.cfi_def_cfa_offset 16
 1332              		.cfi_offset 6, -16
 1333 05f9 4889E5   		movq	%rsp, %rbp
 1334              		.cfi_def_cfa_register 6
 1335 05fc 53       		pushq	%rbx
 1336 05fd 4881EC88 		subq	$136, %rsp
 1336      000000
 1337              		.cfi_offset 3, -24
 1338 0604 4889BD78 		movq	%rdi, -136(%rbp)
 1338      FFFFFF
 1339              		.loc 5 48 0
 1340 060b 64488B04 		movq	%fs:40, %rax
 1340      25280000 
 1340      00
 1341 0614 488945E8 		movq	%rax, -24(%rbp)
 1342 0618 31C0     		xorl	%eax, %eax
 1343              	.LBB22:
  49:TestChecks.cpp ****     char* const p1 = txt1;
 1344              		.loc 5 49 0
 1345 061a 48C74590 		movq	$_ZN12_GLOBAL__N_14txt1E, -112(%rbp)
 1345      00000000 
  50:TestChecks.cpp ****     char const* const p2 = txt2;
 1346              		.loc 5 50 0
 1347 0622 48C74598 		movq	$_ZN12_GLOBAL__N_14txt2E, -104(%rbp)
 1347      00000000 
  51:TestChecks.cpp ****     TestResults results;
 1348              		.loc 5 51 0
 1349 062a 488D45A0 		leaq	-96(%rbp), %rax
 1350 062e BE000000 		movl	$0, %esi
 1350      00
 1351 0633 4889C7   		movq	%rax, %rdi
 1352              	.LEHB24:
 1353 0636 E8000000 		call	_ZN8UnitTest11TestResultsC1EPNS_12TestReporterE
 1353      00
  52:TestChecks.cpp ****     CheckEqual(results, p1, p2, TestDetails("", "", "", 0));
 1354              		.loc 5 52 0
 1355 063b 488D45C0 		leaq	-64(%rbp), %rax
 1356 063f 41B80000 		movl	$0, %r8d
 1356      0000
 1357 0645 B9000000 		movl	$.LC6, %ecx
 1357      00
 1358 064a BA000000 		movl	$.LC6, %edx
 1358      00
 1359 064f BE000000 		movl	$.LC6, %esi
 1359      00
 1360 0654 4889C7   		movq	%rax, %rdi
 1361 0657 E8000000 		call	_ZN8UnitTest11TestDetailsC1EPKcS2_S2_i
 1361      00
 1362 065c 488D55C0 		leaq	-64(%rbp), %rdx
 1363 0660 488D45A0 		leaq	-96(%rbp), %rax
 1364 0664 4889D1   		movq	%rdx, %rcx
 1365 0667 BA000000 		movl	$_ZN12_GLOBAL__N_14txt2E, %edx
 1365      00
 1366 066c BE000000 		movl	$_ZN12_GLOBAL__N_14txt1E, %esi
 1366      00
 1367 0671 4889C7   		movq	%rax, %rdi
 1368 0674 E8000000 		call	_ZN8UnitTest10CheckEqualERNS_11TestResultsEPcPKcRKNS_11TestDetailsE
 1368      00
 1369              	.LEHE24:
 1370              	.LEHB25:
  53:TestChecks.cpp ****     CHECK_EQUAL(0, results.GetFailureCount());
 1371              		.loc 5 53 0
 1372 0679 E8000000 		call	_ZN8UnitTest11CurrentTest7DetailsEv
 1372      00
 1373 067e 488B08   		movq	(%rax), %rcx
 1374 0681 488D45C0 		leaq	-64(%rbp), %rax
 1375 0685 BA350000 		movl	$53, %edx
 1375      00
 1376 068a 4889CE   		movq	%rcx, %rsi
 1377 068d 4889C7   		movq	%rax, %rdi
 1378 0690 E8000000 		call	_ZN8UnitTest11TestDetailsC1ERKS0_i
 1378      00
 1379              		.loc 5 53 0 is_stmt 0 discriminator 2
 1380 0695 488D45A0 		leaq	-96(%rbp), %rax
 1381 0699 4889C7   		movq	%rax, %rdi
 1382 069c E8000000 		call	_ZNK8UnitTest11TestResults15GetFailureCountEv
 1382      00
 1383 06a1 89458C   		movl	%eax, -116(%rbp)
 1384 06a4 C7458800 		movl	$0, -120(%rbp)
 1384      000000
 1385 06ab E8000000 		call	_ZN8UnitTest11CurrentTest7ResultsEv
 1385      00
 1386              		.loc 5 53 0 discriminator 4
 1387 06b0 488B00   		movq	(%rax), %rax
 1388 06b3 488D4DC0 		leaq	-64(%rbp), %rcx
 1389 06b7 488D558C 		leaq	-116(%rbp), %rdx
 1390 06bb 488D7588 		leaq	-120(%rbp), %rsi
 1391 06bf 4889C7   		movq	%rax, %rdi
 1392 06c2 E8000000 		call	_ZN8UnitTest10CheckEqualIiiEEvRNS_11TestResultsERKT_RKT0_RKNS_11TestDetailsE
 1392      00
 1393              	.LEHE25:
 1394              	.LBE22:
  54:TestChecks.cpp **** }
 1395              		.loc 5 54 0 is_stmt 1
 1396 06c7 EB58     		jmp	.L59
 1397              	.L58:
 1398 06c9 4889C3   		movq	%rax, %rbx
 1399              	.LBB23:
  53:TestChecks.cpp ****     CHECK_EQUAL(0, results.GetFailureCount());
 1400              		.loc 5 53 0
 1401 06cc E8000000 		call	__cxa_end_catch
 1401      00
 1402 06d1 4889D8   		movq	%rbx, %rax
 1403 06d4 4889C7   		movq	%rax, %rdi
 1404              	.LEHB26:
 1405 06d7 E8000000 		call	_Unwind_Resume
 1405      00
 1406              	.LEHE26:
 1407              	.L57:
 1408 06dc 4889C7   		movq	%rax, %rdi
 1409 06df E8000000 		call	__cxa_begin_catch
 1409      00
 1410              	.LEHB27:
 1411 06e4 E8000000 		call	_ZN8UnitTest11CurrentTest7DetailsEv
 1411      00
 1412 06e9 488B08   		movq	(%rax), %rcx
 1413 06ec 488D45C0 		leaq	-64(%rbp), %rax
 1414 06f0 BA350000 		movl	$53, %edx
 1414      00
 1415 06f5 4889CE   		movq	%rcx, %rsi
 1416 06f8 4889C7   		movq	%rax, %rdi
 1417 06fb E8000000 		call	_ZN8UnitTest11TestDetailsC1ERKS0_i
 1417      00
  53:TestChecks.cpp ****     CHECK_EQUAL(0, results.GetFailureCount());
 1418              		.loc 5 53 0 is_stmt 0 discriminator 12
 1419 0700 E8000000 		call	_ZN8UnitTest11CurrentTest7ResultsEv
 1419      00
 1420 0705 488B00   		movq	(%rax), %rax
 1421 0708 488D4DC0 		leaq	-64(%rbp), %rcx
 1422 070c BA000000 		movl	$.LC9, %edx
 1422      00
 1423 0711 4889CE   		movq	%rcx, %rsi
 1424 0714 4889C7   		movq	%rax, %rdi
 1425 0717 E8000000 		call	_ZN8UnitTest11TestResults13OnTestFailureERKNS_11TestDetailsEPKc
 1425      00
 1426              	.LEHE27:
 1427              	.LEHB28:
  53:TestChecks.cpp ****     CHECK_EQUAL(0, results.GetFailureCount());
 1428              		.loc 5 53 0 discriminator 16
 1429 071c E8000000 		call	__cxa_end_catch
 1429      00
 1430              	.LEHE28:
 1431              	.L59:
 1432              	.LBE23:
 1433              		.loc 5 54 0 is_stmt 1
 1434 0721 90       		nop
 1435 0722 488B45E8 		movq	-24(%rbp), %rax
 1436 0726 64483304 		xorq	%fs:40, %rax
 1436      25280000 
 1436      00
 1437 072f 7405     		je	.L56
 1438 0731 E8000000 		call	__stack_chk_fail
 1438      00
 1439              	.L56:
 1440 0736 4881C488 		addq	$136, %rsp
 1440      000000
 1441 073d 5B       		popq	%rbx
 1442 073e 5D       		popq	%rbp
 1443              		.cfi_def_cfa 7, 8
 1444 073f C3       		ret
 1445              		.cfi_endproc
 1446              	.LFE1094:
 1447              		.section	.gcc_except_table
 1448              		.align 4
 1449              	.LLSDA1094:
 1450 009c FF       		.byte	0xff
 1451 009d 03       		.byte	0x3
 1452 009e 25       		.uleb128 .LLSDATT1094-.LLSDATTD1094
 1453              	.LLSDATTD1094:
 1454 009f 01       		.byte	0x1
 1455 00a0 1A       		.uleb128 .LLSDACSE1094-.LLSDACSB1094
 1456              	.LLSDACSB1094:
 1457 00a1 3E       		.uleb128 .LEHB24-.LFB1094
 1458 00a2 43       		.uleb128 .LEHE24-.LEHB24
 1459 00a3 00       		.uleb128 0
 1460 00a4 00       		.uleb128 0
 1461 00a5 8101     		.uleb128 .LEHB25-.LFB1094
 1462 00a7 4E       		.uleb128 .LEHE25-.LEHB25
 1463 00a8 E401     		.uleb128 .L57-.LFB1094
 1464 00aa 01       		.uleb128 0x1
 1465 00ab DF01     		.uleb128 .LEHB26-.LFB1094
 1466 00ad 05       		.uleb128 .LEHE26-.LEHB26
 1467 00ae 00       		.uleb128 0
 1468 00af 00       		.uleb128 0
 1469 00b0 EC01     		.uleb128 .LEHB27-.LFB1094
 1470 00b2 38       		.uleb128 .LEHE27-.LEHB27
 1471 00b3 D101     		.uleb128 .L58-.LFB1094
 1472 00b5 00       		.uleb128 0
 1473 00b6 A402     		.uleb128 .LEHB28-.LFB1094
 1474 00b8 05       		.uleb128 .LEHE28-.LEHB28
 1475 00b9 00       		.uleb128 0
 1476 00ba 00       		.uleb128 0
 1477              	.LLSDACSE1094:
 1478 00bb 01       		.byte	0x1
 1479 00bc 00       		.byte	0
 1480 00bd 000000   		.align 4
 1481 00c0 00000000 		.long	0
 1482              	
 1483              	.LLSDATT1094:
 1484              		.text
 1486              		.section	.rodata
 1487 01d3 00000000 		.align 8
 1487      00
 1488              	.LC12:
 1489 01d8 43686563 		.string	"CheckEqualsWithStringsWorksOnContentsConstNonConst"
 1489      6B457175 
 1489      616C7357 
 1489      69746853 
 1489      7472696E 
 1490              		.text
 1491              		.align 2
 1493              	_ZN12_GLOBAL__N_154TestCheckEqualsWithStringsWorksOnContentsConstNonConstC2Ev:
 1494              	.LFB1096:
  55:TestChecks.cpp **** 
  56:TestChecks.cpp **** TEST(CheckEqualsWithStringsWorksOnContentsConstNonConst)
 1495              		.loc 5 56 0
 1496              		.cfi_startproc
 1497 0740 55       		pushq	%rbp
 1498              		.cfi_def_cfa_offset 16
 1499              		.cfi_offset 6, -16
 1500 0741 4889E5   		movq	%rsp, %rbp
 1501              		.cfi_def_cfa_register 6
 1502 0744 4883EC10 		subq	$16, %rsp
 1503 0748 48897DF8 		movq	%rdi, -8(%rbp)
 1504              	.LBB24:
 1505              		.loc 5 56 0
 1506 074c E8000000 		call	_ZN13UnitTestSuite12GetSuiteNameEv
 1506      00
 1507 0751 4889C2   		movq	%rax, %rdx
 1508 0754 488B45F8 		movq	-8(%rbp), %rax
 1509 0758 41B83800 		movl	$56, %r8d
 1509      0000
 1510 075e B9000000 		movl	$.LC2, %ecx
 1510      00
 1511 0763 BE000000 		movl	$.LC12, %esi
 1511      00
 1512 0768 4889C7   		movq	%rax, %rdi
 1513 076b E8000000 		call	_ZN8UnitTest4TestC2EPKcS2_S2_i
 1513      00
 1514 0770 488B45F8 		movq	-8(%rbp), %rax
 1515 0774 48C70000 		movq	$_ZTVN12_GLOBAL__N_154TestCheckEqualsWithStringsWorksOnContentsConstNonConstE+16, (%rax)
 1515      000000
 1516              	.LBE24:
 1517 077b C9       		leave
 1518              		.cfi_def_cfa 7, 8
 1519 077c C3       		ret
 1520              		.cfi_endproc
 1521              	.LFE1096:
 1523              		.local	_ZN12_GLOBAL__N_162testCheckEqualsWithStringsWorksOnContentsConstNonConstInstanceE
 1524              		.comm	_ZN12_GLOBAL__N_162testCheckEqualsWithStringsWorksOnContentsConstNonConstInstanceE,56,32
 1525              		.local	_ZN12_GLOBAL__N_155adderCheckEqualsWithStringsWorksOnContentsConstNonConstE
 1526              		.comm	_ZN12_GLOBAL__N_155adderCheckEqualsWithStringsWorksOnContentsConstNonConstE,1,1
 1527 077d 90       		.align 2
 1529              	_ZNK12_GLOBAL__N_154TestCheckEqualsWithStringsWorksOnContentsConstNonConst7RunImplEv:
 1530              	.LFB1098:
  57:TestChecks.cpp **** {
 1531              		.loc 5 57 0
 1532              		.cfi_startproc
 1533              		.cfi_personality 0x3,__gxx_personality_v0
 1534              		.cfi_lsda 0x3,.LLSDA1098
 1535 077e 55       		pushq	%rbp
 1536              		.cfi_def_cfa_offset 16
 1537              		.cfi_offset 6, -16
 1538 077f 4889E5   		movq	%rsp, %rbp
 1539              		.cfi_def_cfa_register 6
 1540 0782 53       		pushq	%rbx
 1541 0783 4881EC88 		subq	$136, %rsp
 1541      000000
 1542              		.cfi_offset 3, -24
 1543 078a 4889BD78 		movq	%rdi, -136(%rbp)
 1543      FFFFFF
 1544              		.loc 5 57 0
 1545 0791 64488B04 		movq	%fs:40, %rax
 1545      25280000 
 1545      00
 1546 079a 488945E8 		movq	%rax, -24(%rbp)
 1547 079e 31C0     		xorl	%eax, %eax
 1548              	.LBB25:
  58:TestChecks.cpp ****     char const* const p1 = txt1;
 1549              		.loc 5 58 0
 1550 07a0 48C74590 		movq	$_ZN12_GLOBAL__N_14txt1E, -112(%rbp)
 1550      00000000 
  59:TestChecks.cpp ****     char* const p2 = txt2;
 1551              		.loc 5 59 0
 1552 07a8 48C74598 		movq	$_ZN12_GLOBAL__N_14txt2E, -104(%rbp)
 1552      00000000 
  60:TestChecks.cpp ****     TestResults results;
 1553              		.loc 5 60 0
 1554 07b0 488D45A0 		leaq	-96(%rbp), %rax
 1555 07b4 BE000000 		movl	$0, %esi
 1555      00
 1556 07b9 4889C7   		movq	%rax, %rdi
 1557              	.LEHB29:
 1558 07bc E8000000 		call	_ZN8UnitTest11TestResultsC1EPNS_12TestReporterE
 1558      00
  61:TestChecks.cpp ****     CheckEqual(results, p1, p2, TestDetails("", "", "", 0));
 1559              		.loc 5 61 0
 1560 07c1 488D45C0 		leaq	-64(%rbp), %rax
 1561 07c5 41B80000 		movl	$0, %r8d
 1561      0000
 1562 07cb B9000000 		movl	$.LC6, %ecx
 1562      00
 1563 07d0 BA000000 		movl	$.LC6, %edx
 1563      00
 1564 07d5 BE000000 		movl	$.LC6, %esi
 1564      00
 1565 07da 4889C7   		movq	%rax, %rdi
 1566 07dd E8000000 		call	_ZN8UnitTest11TestDetailsC1EPKcS2_S2_i
 1566      00
 1567 07e2 488D55C0 		leaq	-64(%rbp), %rdx
 1568 07e6 488D45A0 		leaq	-96(%rbp), %rax
 1569 07ea 4889D1   		movq	%rdx, %rcx
 1570 07ed BA000000 		movl	$_ZN12_GLOBAL__N_14txt2E, %edx
 1570      00
 1571 07f2 BE000000 		movl	$_ZN12_GLOBAL__N_14txt1E, %esi
 1571      00
 1572 07f7 4889C7   		movq	%rax, %rdi
 1573 07fa E8000000 		call	_ZN8UnitTest10CheckEqualERNS_11TestResultsEPKcPcRKNS_11TestDetailsE
 1573      00
 1574              	.LEHE29:
 1575              	.LEHB30:
  62:TestChecks.cpp ****     CHECK_EQUAL(0, results.GetFailureCount());
 1576              		.loc 5 62 0
 1577 07ff E8000000 		call	_ZN8UnitTest11CurrentTest7DetailsEv
 1577      00
 1578 0804 488B08   		movq	(%rax), %rcx
 1579 0807 488D45C0 		leaq	-64(%rbp), %rax
 1580 080b BA3E0000 		movl	$62, %edx
 1580      00
 1581 0810 4889CE   		movq	%rcx, %rsi
 1582 0813 4889C7   		movq	%rax, %rdi
 1583 0816 E8000000 		call	_ZN8UnitTest11TestDetailsC1ERKS0_i
 1583      00
 1584              		.loc 5 62 0 is_stmt 0 discriminator 2
 1585 081b 488D45A0 		leaq	-96(%rbp), %rax
 1586 081f 4889C7   		movq	%rax, %rdi
 1587 0822 E8000000 		call	_ZNK8UnitTest11TestResults15GetFailureCountEv
 1587      00
 1588 0827 89458C   		movl	%eax, -116(%rbp)
 1589 082a C7458800 		movl	$0, -120(%rbp)
 1589      000000
 1590 0831 E8000000 		call	_ZN8UnitTest11CurrentTest7ResultsEv
 1590      00
 1591              		.loc 5 62 0 discriminator 4
 1592 0836 488B00   		movq	(%rax), %rax
 1593 0839 488D4DC0 		leaq	-64(%rbp), %rcx
 1594 083d 488D558C 		leaq	-116(%rbp), %rdx
 1595 0841 488D7588 		leaq	-120(%rbp), %rsi
 1596 0845 4889C7   		movq	%rax, %rdi
 1597 0848 E8000000 		call	_ZN8UnitTest10CheckEqualIiiEEvRNS_11TestResultsERKT_RKT0_RKNS_11TestDetailsE
 1597      00
 1598              	.LEHE30:
 1599              	.LBE25:
  63:TestChecks.cpp **** }
 1600              		.loc 5 63 0 is_stmt 1
 1601 084d EB58     		jmp	.L68
 1602              	.L67:
 1603 084f 4889C3   		movq	%rax, %rbx
 1604              	.LBB26:
  62:TestChecks.cpp ****     CHECK_EQUAL(0, results.GetFailureCount());
 1605              		.loc 5 62 0
 1606 0852 E8000000 		call	__cxa_end_catch
 1606      00
 1607 0857 4889D8   		movq	%rbx, %rax
 1608 085a 4889C7   		movq	%rax, %rdi
 1609              	.LEHB31:
 1610 085d E8000000 		call	_Unwind_Resume
 1610      00
 1611              	.LEHE31:
 1612              	.L66:
 1613 0862 4889C7   		movq	%rax, %rdi
 1614 0865 E8000000 		call	__cxa_begin_catch
 1614      00
 1615              	.LEHB32:
 1616 086a E8000000 		call	_ZN8UnitTest11CurrentTest7DetailsEv
 1616      00
 1617 086f 488B08   		movq	(%rax), %rcx
 1618 0872 488D45C0 		leaq	-64(%rbp), %rax
 1619 0876 BA3E0000 		movl	$62, %edx
 1619      00
 1620 087b 4889CE   		movq	%rcx, %rsi
 1621 087e 4889C7   		movq	%rax, %rdi
 1622 0881 E8000000 		call	_ZN8UnitTest11TestDetailsC1ERKS0_i
 1622      00
  62:TestChecks.cpp ****     CHECK_EQUAL(0, results.GetFailureCount());
 1623              		.loc 5 62 0 is_stmt 0 discriminator 12
 1624 0886 E8000000 		call	_ZN8UnitTest11CurrentTest7ResultsEv
 1624      00
 1625 088b 488B00   		movq	(%rax), %rax
 1626 088e 488D4DC0 		leaq	-64(%rbp), %rcx
 1627 0892 BA000000 		movl	$.LC9, %edx
 1627      00
 1628 0897 4889CE   		movq	%rcx, %rsi
 1629 089a 4889C7   		movq	%rax, %rdi
 1630 089d E8000000 		call	_ZN8UnitTest11TestResults13OnTestFailureERKNS_11TestDetailsEPKc
 1630      00
 1631              	.LEHE32:
 1632              	.LEHB33:
  62:TestChecks.cpp ****     CHECK_EQUAL(0, results.GetFailureCount());
 1633              		.loc 5 62 0 discriminator 16
 1634 08a2 E8000000 		call	__cxa_end_catch
 1634      00
 1635              	.LEHE33:
 1636              	.L68:
 1637              	.LBE26:
 1638              		.loc 5 63 0 is_stmt 1
 1639 08a7 90       		nop
 1640 08a8 488B45E8 		movq	-24(%rbp), %rax
 1641 08ac 64483304 		xorq	%fs:40, %rax
 1641      25280000 
 1641      00
 1642 08b5 7405     		je	.L65
 1643 08b7 E8000000 		call	__stack_chk_fail
 1643      00
 1644              	.L65:
 1645 08bc 4881C488 		addq	$136, %rsp
 1645      000000
 1646 08c3 5B       		popq	%rbx
 1647 08c4 5D       		popq	%rbp
 1648              		.cfi_def_cfa 7, 8
 1649 08c5 C3       		ret
 1650              		.cfi_endproc
 1651              	.LFE1098:
 1652              		.section	.gcc_except_table
 1653              		.align 4
 1654              	.LLSDA1098:
 1655 00c4 FF       		.byte	0xff
 1656 00c5 03       		.byte	0x3
 1657 00c6 25       		.uleb128 .LLSDATT1098-.LLSDATTD1098
 1658              	.LLSDATTD1098:
 1659 00c7 01       		.byte	0x1
 1660 00c8 1A       		.uleb128 .LLSDACSE1098-.LLSDACSB1098
 1661              	.LLSDACSB1098:
 1662 00c9 3E       		.uleb128 .LEHB29-.LFB1098
 1663 00ca 43       		.uleb128 .LEHE29-.LEHB29
 1664 00cb 00       		.uleb128 0
 1665 00cc 00       		.uleb128 0
 1666 00cd 8101     		.uleb128 .LEHB30-.LFB1098
 1667 00cf 4E       		.uleb128 .LEHE30-.LEHB30
 1668 00d0 E401     		.uleb128 .L66-.LFB1098
 1669 00d2 01       		.uleb128 0x1
 1670 00d3 DF01     		.uleb128 .LEHB31-.LFB1098
 1671 00d5 05       		.uleb128 .LEHE31-.LEHB31
 1672 00d6 00       		.uleb128 0
 1673 00d7 00       		.uleb128 0
 1674 00d8 EC01     		.uleb128 .LEHB32-.LFB1098
 1675 00da 38       		.uleb128 .LEHE32-.LEHB32
 1676 00db D101     		.uleb128 .L67-.LFB1098
 1677 00dd 00       		.uleb128 0
 1678 00de A402     		.uleb128 .LEHB33-.LFB1098
 1679 00e0 05       		.uleb128 .LEHE33-.LEHB33
 1680 00e1 00       		.uleb128 0
 1681 00e2 00       		.uleb128 0
 1682              	.LLSDACSE1098:
 1683 00e3 01       		.byte	0x1
 1684 00e4 00       		.byte	0
 1685 00e5 000000   		.align 4
 1686 00e8 00000000 		.long	0
 1687              	
 1688              	.LLSDATT1098:
 1689              		.text
 1691              		.section	.rodata
 1692 020b 00000000 		.align 8
 1692      00
 1693              	.LC13:
 1694 0210 43686563 		.string	"CheckEqualsWithStringsWorksOnContentsWithALiteral"
 1694      6B457175 
 1694      616C7357 
 1694      69746853 
 1694      7472696E 
 1695              		.text
 1696              		.align 2
 1698              	_ZN12_GLOBAL__N_153TestCheckEqualsWithStringsWorksOnContentsWithALiteralC2Ev:
 1699              	.LFB1100:
  64:TestChecks.cpp **** 
  65:TestChecks.cpp **** TEST(CheckEqualsWithStringsWorksOnContentsWithALiteral)
 1700              		.loc 5 65 0
 1701              		.cfi_startproc
 1702 08c6 55       		pushq	%rbp
 1703              		.cfi_def_cfa_offset 16
 1704              		.cfi_offset 6, -16
 1705 08c7 4889E5   		movq	%rsp, %rbp
 1706              		.cfi_def_cfa_register 6
 1707 08ca 4883EC10 		subq	$16, %rsp
 1708 08ce 48897DF8 		movq	%rdi, -8(%rbp)
 1709              	.LBB27:
 1710              		.loc 5 65 0
 1711 08d2 E8000000 		call	_ZN13UnitTestSuite12GetSuiteNameEv
 1711      00
 1712 08d7 4889C2   		movq	%rax, %rdx
 1713 08da 488B45F8 		movq	-8(%rbp), %rax
 1714 08de 41B84100 		movl	$65, %r8d
 1714      0000
 1715 08e4 B9000000 		movl	$.LC2, %ecx
 1715      00
 1716 08e9 BE000000 		movl	$.LC13, %esi
 1716      00
 1717 08ee 4889C7   		movq	%rax, %rdi
 1718 08f1 E8000000 		call	_ZN8UnitTest4TestC2EPKcS2_S2_i
 1718      00
 1719 08f6 488B45F8 		movq	-8(%rbp), %rax
 1720 08fa 48C70000 		movq	$_ZTVN12_GLOBAL__N_153TestCheckEqualsWithStringsWorksOnContentsWithALiteralE+16, (%rax)
 1720      000000
 1721              	.LBE27:
 1722 0901 C9       		leave
 1723              		.cfi_def_cfa 7, 8
 1724 0902 C3       		ret
 1725              		.cfi_endproc
 1726              	.LFE1100:
 1728              		.local	_ZN12_GLOBAL__N_161testCheckEqualsWithStringsWorksOnContentsWithALiteralInstanceE
 1729              		.comm	_ZN12_GLOBAL__N_161testCheckEqualsWithStringsWorksOnContentsWithALiteralInstanceE,56,32
 1730              		.local	_ZN12_GLOBAL__N_154adderCheckEqualsWithStringsWorksOnContentsWithALiteralE
 1731              		.comm	_ZN12_GLOBAL__N_154adderCheckEqualsWithStringsWorksOnContentsWithALiteralE,1,1
 1732              		.section	.rodata
 1733              	.LC14:
 1734 0242 48656C6C 		.string	"Hello"
 1734      6F00
 1735              		.text
 1736 0903 90       		.align 2
 1738              	_ZNK12_GLOBAL__N_153TestCheckEqualsWithStringsWorksOnContentsWithALiteral7RunImplEv:
 1739              	.LFB1102:
  66:TestChecks.cpp **** {
 1740              		.loc 5 66 0
 1741              		.cfi_startproc
 1742              		.cfi_personality 0x3,__gxx_personality_v0
 1743              		.cfi_lsda 0x3,.LLSDA1102
 1744 0904 55       		pushq	%rbp
 1745              		.cfi_def_cfa_offset 16
 1746              		.cfi_offset 6, -16
 1747 0905 4889E5   		movq	%rsp, %rbp
 1748              		.cfi_def_cfa_register 6
 1749 0908 53       		pushq	%rbx
 1750 0909 4883EC78 		subq	$120, %rsp
 1751              		.cfi_offset 3, -24
 1752 090d 48897D88 		movq	%rdi, -120(%rbp)
 1753              		.loc 5 66 0
 1754 0911 64488B04 		movq	%fs:40, %rax
 1754      25280000 
 1754      00
 1755 091a 488945E8 		movq	%rax, -24(%rbp)
 1756 091e 31C0     		xorl	%eax, %eax
 1757              	.LBB28:
  67:TestChecks.cpp ****     char const* const p1 = txt1;
 1758              		.loc 5 67 0
 1759 0920 48C74598 		movq	$_ZN12_GLOBAL__N_14txt1E, -104(%rbp)
 1759      00000000 
  68:TestChecks.cpp ****     TestResults results;
 1760              		.loc 5 68 0
 1761 0928 488D45A0 		leaq	-96(%rbp), %rax
 1762 092c BE000000 		movl	$0, %esi
 1762      00
 1763 0931 4889C7   		movq	%rax, %rdi
 1764              	.LEHB34:
 1765 0934 E8000000 		call	_ZN8UnitTest11TestResultsC1EPNS_12TestReporterE
 1765      00
  69:TestChecks.cpp ****     CheckEqual(results, "Hello", p1, TestDetails("", "", "", 0));
 1766              		.loc 5 69 0
 1767 0939 488D45C0 		leaq	-64(%rbp), %rax
 1768 093d 41B80000 		movl	$0, %r8d
 1768      0000
 1769 0943 B9000000 		movl	$.LC6, %ecx
 1769      00
 1770 0948 BA000000 		movl	$.LC6, %edx
 1770      00
 1771 094d BE000000 		movl	$.LC6, %esi
 1771      00
 1772 0952 4889C7   		movq	%rax, %rdi
 1773 0955 E8000000 		call	_ZN8UnitTest11TestDetailsC1EPKcS2_S2_i
 1773      00
 1774 095a 488D55C0 		leaq	-64(%rbp), %rdx
 1775 095e 488D45A0 		leaq	-96(%rbp), %rax
 1776 0962 4889D1   		movq	%rdx, %rcx
 1777 0965 BA000000 		movl	$_ZN12_GLOBAL__N_14txt1E, %edx
 1777      00
 1778 096a BE000000 		movl	$.LC14, %esi
 1778      00
 1779 096f 4889C7   		movq	%rax, %rdi
 1780 0972 E8000000 		call	_ZN8UnitTest10CheckEqualERNS_11TestResultsEPKcS3_RKNS_11TestDetailsE
 1780      00
 1781              	.LEHE34:
 1782              	.LEHB35:
  70:TestChecks.cpp ****     CHECK_EQUAL(0, results.GetFailureCount());
 1783              		.loc 5 70 0
 1784 0977 E8000000 		call	_ZN8UnitTest11CurrentTest7DetailsEv
 1784      00
 1785 097c 488B08   		movq	(%rax), %rcx
 1786 097f 488D45C0 		leaq	-64(%rbp), %rax
 1787 0983 BA460000 		movl	$70, %edx
 1787      00
 1788 0988 4889CE   		movq	%rcx, %rsi
 1789 098b 4889C7   		movq	%rax, %rdi
 1790 098e E8000000 		call	_ZN8UnitTest11TestDetailsC1ERKS0_i
 1790      00
 1791              		.loc 5 70 0 is_stmt 0 discriminator 2
 1792 0993 488D45A0 		leaq	-96(%rbp), %rax
 1793 0997 4889C7   		movq	%rax, %rdi
 1794 099a E8000000 		call	_ZNK8UnitTest11TestResults15GetFailureCountEv
 1794      00
 1795 099f 894594   		movl	%eax, -108(%rbp)
 1796 09a2 C7459000 		movl	$0, -112(%rbp)
 1796      000000
 1797 09a9 E8000000 		call	_ZN8UnitTest11CurrentTest7ResultsEv
 1797      00
 1798              		.loc 5 70 0 discriminator 4
 1799 09ae 488B00   		movq	(%rax), %rax
 1800 09b1 488D4DC0 		leaq	-64(%rbp), %rcx
 1801 09b5 488D5594 		leaq	-108(%rbp), %rdx
 1802 09b9 488D7590 		leaq	-112(%rbp), %rsi
 1803 09bd 4889C7   		movq	%rax, %rdi
 1804 09c0 E8000000 		call	_ZN8UnitTest10CheckEqualIiiEEvRNS_11TestResultsERKT_RKT0_RKNS_11TestDetailsE
 1804      00
 1805              	.LEHE35:
 1806              	.LBE28:
  71:TestChecks.cpp **** }
 1807              		.loc 5 71 0 is_stmt 1
 1808 09c5 EB58     		jmp	.L77
 1809              	.L76:
 1810 09c7 4889C3   		movq	%rax, %rbx
 1811              	.LBB29:
  70:TestChecks.cpp ****     CHECK_EQUAL(0, results.GetFailureCount());
 1812              		.loc 5 70 0
 1813 09ca E8000000 		call	__cxa_end_catch
 1813      00
 1814 09cf 4889D8   		movq	%rbx, %rax
 1815 09d2 4889C7   		movq	%rax, %rdi
 1816              	.LEHB36:
 1817 09d5 E8000000 		call	_Unwind_Resume
 1817      00
 1818              	.LEHE36:
 1819              	.L75:
 1820 09da 4889C7   		movq	%rax, %rdi
 1821 09dd E8000000 		call	__cxa_begin_catch
 1821      00
 1822              	.LEHB37:
 1823 09e2 E8000000 		call	_ZN8UnitTest11CurrentTest7DetailsEv
 1823      00
 1824 09e7 488B08   		movq	(%rax), %rcx
 1825 09ea 488D45C0 		leaq	-64(%rbp), %rax
 1826 09ee BA460000 		movl	$70, %edx
 1826      00
 1827 09f3 4889CE   		movq	%rcx, %rsi
 1828 09f6 4889C7   		movq	%rax, %rdi
 1829 09f9 E8000000 		call	_ZN8UnitTest11TestDetailsC1ERKS0_i
 1829      00
  70:TestChecks.cpp ****     CHECK_EQUAL(0, results.GetFailureCount());
 1830              		.loc 5 70 0 is_stmt 0 discriminator 12
 1831 09fe E8000000 		call	_ZN8UnitTest11CurrentTest7ResultsEv
 1831      00
 1832 0a03 488B00   		movq	(%rax), %rax
 1833 0a06 488D4DC0 		leaq	-64(%rbp), %rcx
 1834 0a0a BA000000 		movl	$.LC9, %edx
 1834      00
 1835 0a0f 4889CE   		movq	%rcx, %rsi
 1836 0a12 4889C7   		movq	%rax, %rdi
 1837 0a15 E8000000 		call	_ZN8UnitTest11TestResults13OnTestFailureERKNS_11TestDetailsEPKc
 1837      00
 1838              	.LEHE37:
 1839              	.LEHB38:
  70:TestChecks.cpp ****     CHECK_EQUAL(0, results.GetFailureCount());
 1840              		.loc 5 70 0 discriminator 16
 1841 0a1a E8000000 		call	__cxa_end_catch
 1841      00
 1842              	.LEHE38:
 1843              	.L77:
 1844              	.LBE29:
 1845              		.loc 5 71 0 is_stmt 1
 1846 0a1f 90       		nop
 1847 0a20 488B45E8 		movq	-24(%rbp), %rax
 1848 0a24 64483304 		xorq	%fs:40, %rax
 1848      25280000 
 1848      00
 1849 0a2d 7405     		je	.L74
 1850 0a2f E8000000 		call	__stack_chk_fail
 1850      00
 1851              	.L74:
 1852 0a34 4883C478 		addq	$120, %rsp
 1853 0a38 5B       		popq	%rbx
 1854 0a39 5D       		popq	%rbp
 1855              		.cfi_def_cfa 7, 8
 1856 0a3a C3       		ret
 1857              		.cfi_endproc
 1858              	.LFE1102:
 1859              		.section	.gcc_except_table
 1860              		.align 4
 1861              	.LLSDA1102:
 1862 00ec FF       		.byte	0xff
 1863 00ed 03       		.byte	0x3
 1864 00ee 21       		.uleb128 .LLSDATT1102-.LLSDATTD1102
 1865              	.LLSDATTD1102:
 1866 00ef 01       		.byte	0x1
 1867 00f0 19       		.uleb128 .LLSDACSE1102-.LLSDACSB1102
 1868              	.LLSDACSB1102:
 1869 00f1 30       		.uleb128 .LEHB34-.LFB1102
 1870 00f2 43       		.uleb128 .LEHE34-.LEHB34
 1871 00f3 00       		.uleb128 0
 1872 00f4 00       		.uleb128 0
 1873 00f5 73       		.uleb128 .LEHB35-.LFB1102
 1874 00f6 4E       		.uleb128 .LEHE35-.LEHB35
 1875 00f7 D601     		.uleb128 .L75-.LFB1102
 1876 00f9 01       		.uleb128 0x1
 1877 00fa D101     		.uleb128 .LEHB36-.LFB1102
 1878 00fc 05       		.uleb128 .LEHE36-.LEHB36
 1879 00fd 00       		.uleb128 0
 1880 00fe 00       		.uleb128 0
 1881 00ff DE01     		.uleb128 .LEHB37-.LFB1102
 1882 0101 38       		.uleb128 .LEHE37-.LEHB37
 1883 0102 C301     		.uleb128 .L76-.LFB1102
 1884 0104 00       		.uleb128 0
 1885 0105 9602     		.uleb128 .LEHB38-.LFB1102
 1886 0107 05       		.uleb128 .LEHE38-.LEHB38
 1887 0108 00       		.uleb128 0
 1888 0109 00       		.uleb128 0
 1889              	.LLSDACSE1102:
 1890 010a 01       		.byte	0x1
 1891 010b 00       		.byte	0
 1892              		.align 4
 1893 010c 00000000 		.long	0
 1894              	
 1895              	.LLSDATT1102:
 1896              		.text
 1898              		.section	.rodata
 1899              		.align 8
 1900              	.LC15:
 1901 0248 43686563 		.string	"CheckEqualFailureIncludesCheckExpectedAndActual"
 1901      6B457175 
 1901      616C4661 
 1901      696C7572 
 1901      65496E63 
 1902              		.text
 1903 0a3b 90       		.align 2
 1905              	_ZN12_GLOBAL__N_151TestCheckEqualFailureIncludesCheckExpectedAndActualC2Ev:
 1906              	.LFB1104:
  72:TestChecks.cpp **** 
  73:TestChecks.cpp **** TEST(CheckEqualFailureIncludesCheckExpectedAndActual)
 1907              		.loc 5 73 0
 1908              		.cfi_startproc
 1909 0a3c 55       		pushq	%rbp
 1910              		.cfi_def_cfa_offset 16
 1911              		.cfi_offset 6, -16
 1912 0a3d 4889E5   		movq	%rsp, %rbp
 1913              		.cfi_def_cfa_register 6
 1914 0a40 4883EC10 		subq	$16, %rsp
 1915 0a44 48897DF8 		movq	%rdi, -8(%rbp)
 1916              	.LBB30:
 1917              		.loc 5 73 0
 1918 0a48 E8000000 		call	_ZN13UnitTestSuite12GetSuiteNameEv
 1918      00
 1919 0a4d 4889C2   		movq	%rax, %rdx
 1920 0a50 488B45F8 		movq	-8(%rbp), %rax
 1921 0a54 41B84900 		movl	$73, %r8d
 1921      0000
 1922 0a5a B9000000 		movl	$.LC2, %ecx
 1922      00
 1923 0a5f BE000000 		movl	$.LC15, %esi
 1923      00
 1924 0a64 4889C7   		movq	%rax, %rdi
 1925 0a67 E8000000 		call	_ZN8UnitTest4TestC2EPKcS2_S2_i
 1925      00
 1926 0a6c 488B45F8 		movq	-8(%rbp), %rax
 1927 0a70 48C70000 		movq	$_ZTVN12_GLOBAL__N_151TestCheckEqualFailureIncludesCheckExpectedAndActualE+16, (%rax)
 1927      000000
 1928              	.LBE30:
 1929 0a77 C9       		leave
 1930              		.cfi_def_cfa 7, 8
 1931 0a78 C3       		ret
 1932              		.cfi_endproc
 1933              	.LFE1104:
 1935              		.local	_ZN12_GLOBAL__N_159testCheckEqualFailureIncludesCheckExpectedAndActualInstanceE
 1936              		.comm	_ZN12_GLOBAL__N_159testCheckEqualFailureIncludesCheckExpectedAndActualInstanceE,56,32
 1937              		.local	_ZN12_GLOBAL__N_152adderCheckEqualFailureIncludesCheckExpectedAndActualE
 1938              		.comm	_ZN12_GLOBAL__N_152adderCheckEqualFailureIncludesCheckExpectedAndActualE,1,1
 1939              		.section	.rodata
 1940              	.LC16:
 1941 0278 78706563 		.string	"xpected 1"
 1941      74656420 
 1941      3100
 1942 0282 00000000 		.align 8
 1942      0000
 1943              	.LC17:
 1944 0288 73747273 		.string	"strstr(reporter.lastFailedMessage, \"xpected 1\")"
 1944      74722872 
 1944      65706F72 
 1944      7465722E 
 1944      6C617374 
 1945              	.LC18:
 1946 02b8 77617320 		.string	"was 2"
 1946      3200
 1947 02be 0000     		.align 8
 1948              	.LC19:
 1949 02c0 73747273 		.string	"strstr(reporter.lastFailedMessage, \"was 2\")"
 1949      74722872 
 1949      65706F72 
 1949      7465722E 
 1949      6C617374 
 1950 02ec 00000000 		.align 8
 1951              	.LC20:
 1952 02f0 556E6861 		.string	"Unhandled exception in CHECK(strstr(reporter.lastFailedMessage, \"xpected 1\"))"
 1952      6E646C65 
 1952      64206578 
 1952      63657074 
 1952      696F6E20 
 1953 033e 0000     		.align 8
 1954              	.LC21:
 1955 0340 556E6861 		.string	"Unhandled exception in CHECK(strstr(reporter.lastFailedMessage, \"was 2\"))"
 1955      6E646C65 
 1955      64206578 
 1955      63657074 
 1955      696F6E20 
 1956              		.text
 1957 0a79 90       		.align 2
 1959              	_ZNK12_GLOBAL__N_151TestCheckEqualFailureIncludesCheckExpectedAndActual7RunImplEv:
 1960              	.LFB1106:
  74:TestChecks.cpp **** {
 1961              		.loc 5 74 0
 1962              		.cfi_startproc
 1963              		.cfi_personality 0x3,__gxx_personality_v0
 1964              		.cfi_lsda 0x3,.LLSDA1106
 1965 0a7a 55       		pushq	%rbp
 1966              		.cfi_def_cfa_offset 16
 1967              		.cfi_offset 6, -16
 1968 0a7b 4889E5   		movq	%rsp, %rbp
 1969              		.cfi_def_cfa_register 6
 1970 0a7e 53       		pushq	%rbx
 1971 0a7f 4881ECA8 		subq	$2216, %rsp
 1971      080000
 1972              		.cfi_offset 3, -24
 1973 0a86 4889BD58 		movq	%rdi, -2216(%rbp)
 1973      F7FFFF
 1974              		.loc 5 74 0
 1975 0a8d 64488B04 		movq	%fs:40, %rax
 1975      25280000 
 1975      00
 1976 0a96 488945E8 		movq	%rax, -24(%rbp)
 1977 0a9a 31C0     		xorl	%eax, %eax
 1978              	.LBB31:
  75:TestChecks.cpp ****     RecordingReporter reporter;
 1979              		.loc 5 75 0
 1980 0a9c 488D85B0 		leaq	-2128(%rbp), %rax
 1980      F7FFFF
 1981 0aa3 4889C7   		movq	%rax, %rdi
 1982 0aa6 E8000000 		call	_ZN17RecordingReporterC1Ev
 1982      00
  76:TestChecks.cpp ****     TestResults results(&reporter);
 1983              		.loc 5 76 0
 1984 0aab 488D95B0 		leaq	-2128(%rbp), %rdx
 1984      F7FFFF
 1985 0ab2 488D8570 		leaq	-2192(%rbp), %rax
 1985      F7FFFF
 1986 0ab9 4889D6   		movq	%rdx, %rsi
 1987 0abc 4889C7   		movq	%rax, %rdi
 1988              	.LEHB39:
 1989 0abf E8000000 		call	_ZN8UnitTest11TestResultsC1EPNS_12TestReporterE
 1989      00
  77:TestChecks.cpp ****     const int something = 2;
 1990              		.loc 5 77 0
 1991 0ac4 C78568F7 		movl	$2, -2200(%rbp)
 1991      FFFF0200 
 1991      0000
  78:TestChecks.cpp ****     CheckEqual(results, 1, something, TestDetails("", "", "", 0));
 1992              		.loc 5 78 0
 1993 0ace 488D8590 		leaq	-2160(%rbp), %rax
 1993      F7FFFF
 1994 0ad5 41B80000 		movl	$0, %r8d
 1994      0000
 1995 0adb B9000000 		movl	$.LC6, %ecx
 1995      00
 1996 0ae0 BA000000 		movl	$.LC6, %edx
 1996      00
 1997 0ae5 BE000000 		movl	$.LC6, %esi
 1997      00
 1998 0aea 4889C7   		movq	%rax, %rdi
 1999 0aed E8000000 		call	_ZN8UnitTest11TestDetailsC1EPKcS2_S2_i
 1999      00
 2000              		.loc 5 78 0 is_stmt 0 discriminator 1
 2001 0af2 C7856CF7 		movl	$1, -2196(%rbp)
 2001      FFFF0100 
 2001      0000
 2002 0afc 488D8D90 		leaq	-2160(%rbp), %rcx
 2002      F7FFFF
 2003 0b03 488D9568 		leaq	-2200(%rbp), %rdx
 2003      F7FFFF
 2004 0b0a 488DB56C 		leaq	-2196(%rbp), %rsi
 2004      F7FFFF
 2005 0b11 488D8570 		leaq	-2192(%rbp), %rax
 2005      F7FFFF
 2006 0b18 4889C7   		movq	%rax, %rdi
 2007 0b1b E8000000 		call	_ZN8UnitTest10CheckEqualIiiEEvRNS_11TestResultsERKT_RKT0_RKNS_11TestDetailsE
 2007      00
 2008              	.LEHE39:
  79:TestChecks.cpp **** 
  80:TestChecks.cpp **** 	using namespace std;
  81:TestChecks.cpp ****     CHECK(strstr(reporter.lastFailedMessage, "xpected 1"));
 2009              		.loc 5 81 0 is_stmt 1 discriminator 3
 2010 0b20 488D85B0 		leaq	-2128(%rbp), %rax
 2010      F7FFFF
 2011 0b27 48051405 		addq	$1300, %rax
 2011      0000
 2012 0b2d BE000000 		movl	$.LC16, %esi
 2012      00
 2013 0b32 4889C7   		movq	%rax, %rdi
 2014 0b35 E8000000 		call	strstr
 2014      00
 2015 0b3a 4889C7   		movq	%rax, %rdi
 2016 0b3d E8000000 		call	_ZN8UnitTest5CheckIPcEEbT_
 2016      00
 2017 0b42 83F001   		xorl	$1, %eax
 2018 0b45 84C0     		testb	%al, %al
 2019 0b47 743E     		je	.L80
 2020              	.LEHB40:
 2021              		.loc 5 81 0 is_stmt 0 discriminator 1
 2022 0b49 E8000000 		call	_ZN8UnitTest11CurrentTest7DetailsEv
 2022      00
 2023 0b4e 488B08   		movq	(%rax), %rcx
 2024 0b51 488D8590 		leaq	-2160(%rbp), %rax
 2024      F7FFFF
 2025 0b58 BA510000 		movl	$81, %edx
 2025      00
 2026 0b5d 4889CE   		movq	%rcx, %rsi
 2027 0b60 4889C7   		movq	%rax, %rdi
 2028 0b63 E8000000 		call	_ZN8UnitTest11TestDetailsC1ERKS0_i
 2028      00
 2029              		.loc 5 81 0 discriminator 3
 2030 0b68 E8000000 		call	_ZN8UnitTest11CurrentTest7ResultsEv
 2030      00
 2031 0b6d 488B00   		movq	(%rax), %rax
 2032 0b70 488D8D90 		leaq	-2160(%rbp), %rcx
 2032      F7FFFF
 2033 0b77 BA000000 		movl	$.LC17, %edx
 2033      00
 2034 0b7c 4889CE   		movq	%rcx, %rsi
 2035 0b7f 4889C7   		movq	%rax, %rdi
 2036 0b82 E8000000 		call	_ZN8UnitTest11TestResults13OnTestFailureERKNS_11TestDetailsEPKc
 2036      00
 2037              	.LEHE40:
 2038              	.L80:
  82:TestChecks.cpp ****     CHECK(strstr(reporter.lastFailedMessage, "was 2"));
 2039              		.loc 5 82 0 is_stmt 1
 2040 0b87 488D85B0 		leaq	-2128(%rbp), %rax
 2040      F7FFFF
 2041 0b8e 48051405 		addq	$1300, %rax
 2041      0000
 2042 0b94 BE000000 		movl	$.LC18, %esi
 2042      00
 2043 0b99 4889C7   		movq	%rax, %rdi
 2044 0b9c E8000000 		call	strstr
 2044      00
 2045 0ba1 4889C7   		movq	%rax, %rdi
 2046 0ba4 E8000000 		call	_ZN8UnitTest5CheckIPcEEbT_
 2046      00
 2047 0ba9 83F001   		xorl	$1, %eax
 2048 0bac 84C0     		testb	%al, %al
 2049 0bae 743E     		je	.L81
 2050              	.LEHB41:
 2051              		.loc 5 82 0 is_stmt 0 discriminator 1
 2052 0bb0 E8000000 		call	_ZN8UnitTest11CurrentTest7DetailsEv
 2052      00
 2053 0bb5 488B08   		movq	(%rax), %rcx
 2054 0bb8 488D8590 		leaq	-2160(%rbp), %rax
 2054      F7FFFF
 2055 0bbf BA520000 		movl	$82, %edx
 2055      00
 2056 0bc4 4889CE   		movq	%rcx, %rsi
 2057 0bc7 4889C7   		movq	%rax, %rdi
 2058 0bca E8000000 		call	_ZN8UnitTest11TestDetailsC1ERKS0_i
 2058      00
 2059              		.loc 5 82 0 discriminator 4
 2060 0bcf E8000000 		call	_ZN8UnitTest11CurrentTest7ResultsEv
 2060      00
 2061 0bd4 488B00   		movq	(%rax), %rax
 2062 0bd7 488D8D90 		leaq	-2160(%rbp), %rcx
 2062      F7FFFF
 2063 0bde BA000000 		movl	$.LC19, %edx
 2063      00
 2064 0be3 4889CE   		movq	%rcx, %rsi
 2065 0be6 4889C7   		movq	%rax, %rdi
 2066 0be9 E8000000 		call	_ZN8UnitTest11TestResults13OnTestFailureERKNS_11TestDetailsEPKc
 2066      00
 2067              	.LEHE41:
 2068              	.L81:
 2069              		.loc 5 82 0 discriminator 9
 2070 0bee 488D85B0 		leaq	-2128(%rbp), %rax
 2070      F7FFFF
 2071 0bf5 4889C7   		movq	%rax, %rdi
 2072              	.LEHB42:
 2073 0bf8 E8000000 		call	_ZN17RecordingReporterD1Ev
 2073      00
 2074              	.LEHE42:
 2075              	.LBE31:
  83:TestChecks.cpp **** }
 2076              		.loc 5 83 0 is_stmt 1 discriminator 9
 2077 0bfd 488B45E8 		movq	-24(%rbp), %rax
 2078 0c01 64483304 		xorq	%fs:40, %rax
 2078      25280000 
 2078      00
 2079 0c0a 0F84DE00 		je	.L87
 2079      0000
 2080 0c10 E9D40000 		jmp	.L93
 2080      00
 2081              	.L90:
 2082 0c15 4889C3   		movq	%rax, %rbx
 2083              	.LBB32:
  81:TestChecks.cpp ****     CHECK(strstr(reporter.lastFailedMessage, "was 2"));
 2084              		.loc 5 81 0
 2085 0c18 E8000000 		call	__cxa_end_catch
 2085      00
 2086 0c1d E9AD0000 		jmp	.L83
 2086      00
 2087              	.L89:
 2088 0c22 4889C7   		movq	%rax, %rdi
 2089 0c25 E8000000 		call	__cxa_begin_catch
 2089      00
 2090              	.LEHB43:
 2091 0c2a E8000000 		call	_ZN8UnitTest11CurrentTest7DetailsEv
 2091      00
 2092 0c2f 488B08   		movq	(%rax), %rcx
 2093 0c32 488D8590 		leaq	-2160(%rbp), %rax
 2093      F7FFFF
 2094 0c39 BA510000 		movl	$81, %edx
 2094      00
 2095 0c3e 4889CE   		movq	%rcx, %rsi
 2096 0c41 4889C7   		movq	%rax, %rdi
 2097 0c44 E8000000 		call	_ZN8UnitTest11TestDetailsC1ERKS0_i
 2097      00
  81:TestChecks.cpp ****     CHECK(strstr(reporter.lastFailedMessage, "was 2"));
 2098              		.loc 5 81 0 is_stmt 0 discriminator 11
 2099 0c49 E8000000 		call	_ZN8UnitTest11CurrentTest7ResultsEv
 2099      00
 2100 0c4e 488B00   		movq	(%rax), %rax
 2101 0c51 488D8D90 		leaq	-2160(%rbp), %rcx
 2101      F7FFFF
 2102 0c58 BA000000 		movl	$.LC20, %edx
 2102      00
 2103 0c5d 4889CE   		movq	%rcx, %rsi
 2104 0c60 4889C7   		movq	%rax, %rdi
 2105 0c63 E8000000 		call	_ZN8UnitTest11TestResults13OnTestFailureERKNS_11TestDetailsEPKc
 2105      00
 2106              	.LEHE43:
 2107              	.LEHB44:
  81:TestChecks.cpp ****     CHECK(strstr(reporter.lastFailedMessage, "was 2"));
 2108              		.loc 5 81 0 discriminator 15
 2109 0c68 E8000000 		call	__cxa_end_catch
 2109      00
 2110              	.LEHE44:
  81:TestChecks.cpp ****     CHECK(strstr(reporter.lastFailedMessage, "was 2"));
 2111              		.loc 5 81 0
 2112 0c6d E915FFFF 		jmp	.L80
 2112      FF
 2113              	.L92:
 2114 0c72 4889C3   		movq	%rax, %rbx
  82:TestChecks.cpp ****     CHECK(strstr(reporter.lastFailedMessage, "was 2"));
 2115              		.loc 5 82 0 is_stmt 1
 2116 0c75 E8000000 		call	__cxa_end_catch
 2116      00
 2117 0c7a EB53     		jmp	.L83
 2118              	.L91:
 2119 0c7c 4889C7   		movq	%rax, %rdi
 2120 0c7f E8000000 		call	__cxa_begin_catch
 2120      00
 2121              	.LEHB45:
 2122 0c84 E8000000 		call	_ZN8UnitTest11CurrentTest7DetailsEv
 2122      00
 2123 0c89 488B08   		movq	(%rax), %rcx
 2124 0c8c 488D8590 		leaq	-2160(%rbp), %rax
 2124      F7FFFF
 2125 0c93 BA520000 		movl	$82, %edx
 2125      00
 2126 0c98 4889CE   		movq	%rcx, %rsi
 2127 0c9b 4889C7   		movq	%rax, %rdi
 2128 0c9e E8000000 		call	_ZN8UnitTest11TestDetailsC1ERKS0_i
 2128      00
  82:TestChecks.cpp ****     CHECK(strstr(reporter.lastFailedMessage, "was 2"));
 2129              		.loc 5 82 0 is_stmt 0 discriminator 13
 2130 0ca3 E8000000 		call	_ZN8UnitTest11CurrentTest7ResultsEv
 2130      00
 2131 0ca8 488B00   		movq	(%rax), %rax
 2132 0cab 488D8D90 		leaq	-2160(%rbp), %rcx
 2132      F7FFFF
 2133 0cb2 BA000000 		movl	$.LC21, %edx
 2133      00
 2134 0cb7 4889CE   		movq	%rcx, %rsi
 2135 0cba 4889C7   		movq	%rax, %rdi
 2136 0cbd E8000000 		call	_ZN8UnitTest11TestResults13OnTestFailureERKNS_11TestDetailsEPKc
 2136      00
 2137              	.LEHE45:
 2138              	.LEHB46:
  82:TestChecks.cpp ****     CHECK(strstr(reporter.lastFailedMessage, "was 2"));
 2139              		.loc 5 82 0 discriminator 17
 2140 0cc2 E8000000 		call	__cxa_end_catch
 2140      00
 2141              	.LEHE46:
  82:TestChecks.cpp ****     CHECK(strstr(reporter.lastFailedMessage, "was 2"));
 2142              		.loc 5 82 0
 2143 0cc7 E922FFFF 		jmp	.L81
 2143      FF
 2144              	.L88:
 2145 0ccc 4889C3   		movq	%rax, %rbx
 2146              	.L83:
  82:TestChecks.cpp ****     CHECK(strstr(reporter.lastFailedMessage, "was 2"));
 2147              		.loc 5 82 0 discriminator 18
 2148 0ccf 488D85B0 		leaq	-2128(%rbp), %rax
 2148      F7FFFF
 2149 0cd6 4889C7   		movq	%rax, %rdi
 2150 0cd9 E8000000 		call	_ZN17RecordingReporterD1Ev
 2150      00
 2151 0cde 4889D8   		movq	%rbx, %rax
 2152 0ce1 4889C7   		movq	%rax, %rdi
 2153              	.LEHB47:
 2154 0ce4 E8000000 		call	_Unwind_Resume
 2154      00
 2155              	.LEHE47:
 2156              	.L93:
 2157              	.LBE32:
 2158              		.loc 5 83 0 is_stmt 1
 2159 0ce9 E8000000 		call	__stack_chk_fail
 2159      00
 2160              	.L87:
 2161 0cee 4881C4A8 		addq	$2216, %rsp
 2161      080000
 2162 0cf5 5B       		popq	%rbx
 2163 0cf6 5D       		popq	%rbp
 2164              		.cfi_def_cfa 7, 8
 2165 0cf7 C3       		ret
 2166              		.cfi_endproc
 2167              	.LFE1106:
 2168              		.section	.gcc_except_table
 2169              		.align 4
 2170              	.LLSDA1106:
 2171 0110 FF       		.byte	0xff
 2172 0111 03       		.byte	0x3
 2173 0112 3D       		.uleb128 .LLSDATT1106-.LLSDATTD1106
 2174              	.LLSDATTD1106:
 2175 0113 01       		.byte	0x1
 2176 0114 33       		.uleb128 .LLSDACSE1106-.LLSDACSB1106
 2177              	.LLSDACSB1106:
 2178 0115 45       		.uleb128 .LEHB39-.LFB1106
 2179 0116 61       		.uleb128 .LEHE39-.LEHB39
 2180 0117 D204     		.uleb128 .L88-.LFB1106
 2181 0119 00       		.uleb128 0
 2182 011a CF01     		.uleb128 .LEHB40-.LFB1106
 2183 011c 3E       		.uleb128 .LEHE40-.LEHB40
 2184 011d A803     		.uleb128 .L89-.LFB1106
 2185 011f 01       		.uleb128 0x1
 2186 0120 B602     		.uleb128 .LEHB41-.LFB1106
 2187 0122 3E       		.uleb128 .LEHE41-.LEHB41
 2188 0123 8204     		.uleb128 .L91-.LFB1106
 2189 0125 01       		.uleb128 0x1
 2190 0126 FE02     		.uleb128 .LEHB42-.LFB1106
 2191 0128 05       		.uleb128 .LEHE42-.LEHB42
 2192 0129 00       		.uleb128 0
 2193 012a 00       		.uleb128 0
 2194 012b B003     		.uleb128 .LEHB43-.LFB1106
 2195 012d 3E       		.uleb128 .LEHE43-.LEHB43
 2196 012e 9B03     		.uleb128 .L90-.LFB1106
 2197 0130 00       		.uleb128 0
 2198 0131 EE03     		.uleb128 .LEHB44-.LFB1106
 2199 0133 05       		.uleb128 .LEHE44-.LEHB44
 2200 0134 D204     		.uleb128 .L88-.LFB1106
 2201 0136 00       		.uleb128 0
 2202 0137 8A04     		.uleb128 .LEHB45-.LFB1106
 2203 0139 3E       		.uleb128 .LEHE45-.LEHB45
 2204 013a F803     		.uleb128 .L92-.LFB1106
 2205 013c 00       		.uleb128 0
 2206 013d C804     		.uleb128 .LEHB46-.LFB1106
 2207 013f 05       		.uleb128 .LEHE46-.LEHB46
 2208 0140 D204     		.uleb128 .L88-.LFB1106
 2209 0142 00       		.uleb128 0
 2210 0143 EA04     		.uleb128 .LEHB47-.LFB1106
 2211 0145 05       		.uleb128 .LEHE47-.LEHB47
 2212 0146 00       		.uleb128 0
 2213 0147 00       		.uleb128 0
 2214              	.LLSDACSE1106:
 2215 0148 01       		.byte	0x1
 2216 0149 00       		.byte	0
 2217 014a 0000     		.align 4
 2218 014c 00000000 		.long	0
 2219              	
 2220              	.LLSDATT1106:
 2221              		.text
 2223              		.section	.rodata
 2224 038a 00000000 		.align 8
 2224      0000
 2225              	.LC22:
 2226 0390 43686563 		.string	"CheckEqualFailureIncludesDetails"
 2226      6B457175 
 2226      616C4661 
 2226      696C7572 
 2226      65496E63 
 2227              		.text
 2228              		.align 2
 2230              	_ZN12_GLOBAL__N_136TestCheckEqualFailureIncludesDetailsC2Ev:
 2231              	.LFB1108:
  84:TestChecks.cpp **** 
  85:TestChecks.cpp **** TEST(CheckEqualFailureIncludesDetails)
 2232              		.loc 5 85 0
 2233              		.cfi_startproc
 2234 0cf8 55       		pushq	%rbp
 2235              		.cfi_def_cfa_offset 16
 2236              		.cfi_offset 6, -16
 2237 0cf9 4889E5   		movq	%rsp, %rbp
 2238              		.cfi_def_cfa_register 6
 2239 0cfc 4883EC10 		subq	$16, %rsp
 2240 0d00 48897DF8 		movq	%rdi, -8(%rbp)
 2241              	.LBB33:
 2242              		.loc 5 85 0
 2243 0d04 E8000000 		call	_ZN13UnitTestSuite12GetSuiteNameEv
 2243      00
 2244 0d09 4889C2   		movq	%rax, %rdx
 2245 0d0c 488B45F8 		movq	-8(%rbp), %rax
 2246 0d10 41B85500 		movl	$85, %r8d
 2246      0000
 2247 0d16 B9000000 		movl	$.LC2, %ecx
 2247      00
 2248 0d1b BE000000 		movl	$.LC22, %esi
 2248      00
 2249 0d20 4889C7   		movq	%rax, %rdi
 2250 0d23 E8000000 		call	_ZN8UnitTest4TestC2EPKcS2_S2_i
 2250      00
 2251 0d28 488B45F8 		movq	-8(%rbp), %rax
 2252 0d2c 48C70000 		movq	$_ZTVN12_GLOBAL__N_136TestCheckEqualFailureIncludesDetailsE+16, (%rax)
 2252      000000
 2253              	.LBE33:
 2254 0d33 C9       		leave
 2255              		.cfi_def_cfa 7, 8
 2256 0d34 C3       		ret
 2257              		.cfi_endproc
 2258              	.LFE1108:
 2260              		.local	_ZN12_GLOBAL__N_144testCheckEqualFailureIncludesDetailsInstanceE
 2261              		.comm	_ZN12_GLOBAL__N_144testCheckEqualFailureIncludesDetailsInstanceE,56,32
 2262              		.local	_ZN12_GLOBAL__N_137adderCheckEqualFailureIncludesDetailsE
 2263              		.comm	_ZN12_GLOBAL__N_137adderCheckEqualFailureIncludesDetailsE,1,1
 2264              		.section	.rodata
 2265              	.LC23:
 2266 03b1 66696C65 		.string	"file.h"
 2266      2E6800
 2267              	.LC24:
 2268 03b8 6D797375 		.string	"mysuite"
 2268      69746500 
 2269              	.LC25:
 2270 03c0 6D797465 		.string	"mytest"
 2270      737400
 2271 03c7 00       		.align 8
 2272              	.LC26:
 2273 03c8 556E6861 		.string	"Unhandled exception in CHECK_EQUAL(\"mytest\", reporter.lastFailedTest)"
 2273      6E646C65 
 2273      64206578 
 2273      63657074 
 2273      696F6E20 
 2274 040e 0000     		.align 8
 2275              	.LC27:
 2276 0410 556E6861 		.string	"Unhandled exception in CHECK_EQUAL(\"mysuite\", reporter.lastFailedSuite)"
 2276      6E646C65 
 2276      64206578 
 2276      63657074 
 2276      696F6E20 
 2277              		.align 8
 2278              	.LC28:
 2279 0458 556E6861 		.string	"Unhandled exception in CHECK_EQUAL(\"file.h\", reporter.lastFailedFile)"
 2279      6E646C65 
 2279      64206578 
 2279      63657074 
 2279      696F6E20 
 2280 049e 0000     		.align 8
 2281              	.LC29:
 2282 04a0 556E6861 		.string	"Unhandled exception in CHECK_EQUAL(101, reporter.lastFailedLine)"
 2282      6E646C65 
 2282      64206578 
 2282      63657074 
 2282      696F6E20 
 2283              		.text
 2284 0d35 90       		.align 2
 2286              	_ZNK12_GLOBAL__N_136TestCheckEqualFailureIncludesDetails7RunImplEv:
 2287              	.LFB1110:
  86:TestChecks.cpp **** {
 2288              		.loc 5 86 0
 2289              		.cfi_startproc
 2290              		.cfi_personality 0x3,__gxx_personality_v0
 2291              		.cfi_lsda 0x3,.LLSDA1110
 2292 0d36 55       		pushq	%rbp
 2293              		.cfi_def_cfa_offset 16
 2294              		.cfi_offset 6, -16
 2295 0d37 4889E5   		movq	%rsp, %rbp
 2296              		.cfi_def_cfa_register 6
 2297 0d3a 53       		pushq	%rbx
 2298 0d3b 4881ECC8 		subq	$2248, %rsp
 2298      080000
 2299              		.cfi_offset 3, -24
 2300 0d42 4889BD38 		movq	%rdi, -2248(%rbp)
 2300      F7FFFF
 2301              		.loc 5 86 0
 2302 0d49 64488B04 		movq	%fs:40, %rax
 2302      25280000 
 2302      00
 2303 0d52 488945E8 		movq	%rax, -24(%rbp)
 2304 0d56 31C0     		xorl	%eax, %eax
 2305              	.LBB34:
  87:TestChecks.cpp ****     RecordingReporter reporter;
 2306              		.loc 5 87 0
 2307 0d58 488D85B0 		leaq	-2128(%rbp), %rax
 2307      F7FFFF
 2308 0d5f 4889C7   		movq	%rax, %rdi
 2309 0d62 E8000000 		call	_ZN17RecordingReporterC1Ev
 2309      00
  88:TestChecks.cpp ****     TestResults results(&reporter);
 2310              		.loc 5 88 0
 2311 0d67 488D95B0 		leaq	-2128(%rbp), %rdx
 2311      F7FFFF
 2312 0d6e 488D8550 		leaq	-2224(%rbp), %rax
 2312      F7FFFF
 2313 0d75 4889D6   		movq	%rdx, %rsi
 2314 0d78 4889C7   		movq	%rax, %rdi
 2315              	.LEHB48:
 2316 0d7b E8000000 		call	_ZN8UnitTest11TestResultsC1EPNS_12TestReporterE
 2316      00
  89:TestChecks.cpp ****     TestDetails const details("mytest", "mysuite", "file.h", 101);
 2317              		.loc 5 89 0
 2318 0d80 488D8570 		leaq	-2192(%rbp), %rax
 2318      F7FFFF
 2319 0d87 41B86500 		movl	$101, %r8d
 2319      0000
 2320 0d8d B9000000 		movl	$.LC23, %ecx
 2320      00
 2321 0d92 BA000000 		movl	$.LC24, %edx
 2321      00
 2322 0d97 BE000000 		movl	$.LC25, %esi
 2322      00
 2323 0d9c 4889C7   		movq	%rax, %rdi
 2324 0d9f E8000000 		call	_ZN8UnitTest11TestDetailsC1EPKcS2_S2_i
 2324      00
  90:TestChecks.cpp **** 
  91:TestChecks.cpp ****     CheckEqual(results, 1, 2, details);
 2325              		.loc 5 91 0
 2326 0da4 C78590F7 		movl	$2, -2160(%rbp)
 2326      FFFF0200 
 2326      0000
 2327 0dae C7854CF7 		movl	$1, -2228(%rbp)
 2327      FFFF0100 
 2327      0000
 2328 0db8 488D8D70 		leaq	-2192(%rbp), %rcx
 2328      F7FFFF
 2329 0dbf 488D9590 		leaq	-2160(%rbp), %rdx
 2329      F7FFFF
 2330 0dc6 488DB54C 		leaq	-2228(%rbp), %rsi
 2330      F7FFFF
 2331 0dcd 488D8550 		leaq	-2224(%rbp), %rax
 2331      F7FFFF
 2332 0dd4 4889C7   		movq	%rax, %rdi
 2333 0dd7 E8000000 		call	_ZN8UnitTest10CheckEqualIiiEEvRNS_11TestResultsERKT_RKT0_RKNS_11TestDetailsE
 2333      00
 2334              	.LEHE48:
 2335              	.LEHB49:
  92:TestChecks.cpp **** 
  93:TestChecks.cpp ****     CHECK_EQUAL("mytest", reporter.lastFailedTest);
 2336              		.loc 5 93 0 discriminator 2
 2337 0ddc E8000000 		call	_ZN8UnitTest11CurrentTest7DetailsEv
 2337      00
 2338 0de1 488B08   		movq	(%rax), %rcx
 2339 0de4 488D8590 		leaq	-2160(%rbp), %rax
 2339      F7FFFF
 2340 0deb BA5D0000 		movl	$93, %edx
 2340      00
 2341 0df0 4889CE   		movq	%rcx, %rsi
 2342 0df3 4889C7   		movq	%rax, %rdi
 2343 0df6 E8000000 		call	_ZN8UnitTest11TestDetailsC1ERKS0_i
 2343      00
 2344 0dfb E8000000 		call	_ZN8UnitTest11CurrentTest7ResultsEv
 2344      00
 2345 0e00 488B00   		movq	(%rax), %rax
 2346 0e03 488D9590 		leaq	-2160(%rbp), %rdx
 2346      F7FFFF
 2347 0e0a 488D8DB0 		leaq	-2128(%rbp), %rcx
 2347      F7FFFF
 2348 0e11 488DB114 		leaq	1044(%rcx), %rsi
 2348      040000
 2349 0e18 4889D1   		movq	%rdx, %rcx
 2350 0e1b 4889F2   		movq	%rsi, %rdx
 2351 0e1e BE000000 		movl	$.LC25, %esi
 2351      00
 2352 0e23 4889C7   		movq	%rax, %rdi
 2353 0e26 E8000000 		call	_ZN8UnitTest10CheckEqualERNS_11TestResultsEPKcPcRKNS_11TestDetailsE
 2353      00
 2354              	.LEHE49:
 2355              	.L99:
 2356              	.LEHB50:
  94:TestChecks.cpp ****     CHECK_EQUAL("mysuite", reporter.lastFailedSuite);
 2357              		.loc 5 94 0
 2358 0e2b E8000000 		call	_ZN8UnitTest11CurrentTest7DetailsEv
 2358      00
 2359 0e30 488B08   		movq	(%rax), %rcx
 2360 0e33 488D8590 		leaq	-2160(%rbp), %rax
 2360      F7FFFF
 2361 0e3a BA5E0000 		movl	$94, %edx
 2361      00
 2362 0e3f 4889CE   		movq	%rcx, %rsi
 2363 0e42 4889C7   		movq	%rax, %rdi
 2364 0e45 E8000000 		call	_ZN8UnitTest11TestDetailsC1ERKS0_i
 2364      00
 2365              		.loc 5 94 0 is_stmt 0 discriminator 2
 2366 0e4a E8000000 		call	_ZN8UnitTest11CurrentTest7ResultsEv
 2366      00
 2367 0e4f 488B00   		movq	(%rax), %rax
 2368 0e52 488D9590 		leaq	-2160(%rbp), %rdx
 2368      F7FFFF
 2369 0e59 488D8DB0 		leaq	-2128(%rbp), %rcx
 2369      F7FFFF
 2370 0e60 488DB114 		leaq	788(%rcx), %rsi
 2370      030000
 2371 0e67 4889D1   		movq	%rdx, %rcx
 2372 0e6a 4889F2   		movq	%rsi, %rdx
 2373 0e6d BE000000 		movl	$.LC24, %esi
 2373      00
 2374 0e72 4889C7   		movq	%rax, %rdi
 2375 0e75 E8000000 		call	_ZN8UnitTest10CheckEqualERNS_11TestResultsEPKcPcRKNS_11TestDetailsE
 2375      00
 2376              	.LEHE50:
 2377              	.L102:
 2378              	.LEHB51:
  95:TestChecks.cpp ****     CHECK_EQUAL("file.h", reporter.lastFailedFile);
 2379              		.loc 5 95 0 is_stmt 1
 2380 0e7a E8000000 		call	_ZN8UnitTest11CurrentTest7DetailsEv
 2380      00
 2381 0e7f 488B08   		movq	(%rax), %rcx
 2382 0e82 488D8590 		leaq	-2160(%rbp), %rax
 2382      F7FFFF
 2383 0e89 BA5F0000 		movl	$95, %edx
 2383      00
 2384 0e8e 4889CE   		movq	%rcx, %rsi
 2385 0e91 4889C7   		movq	%rax, %rdi
 2386 0e94 E8000000 		call	_ZN8UnitTest11TestDetailsC1ERKS0_i
 2386      00
 2387              		.loc 5 95 0 is_stmt 0 discriminator 2
 2388 0e99 E8000000 		call	_ZN8UnitTest11CurrentTest7ResultsEv
 2388      00
 2389 0e9e 488B00   		movq	(%rax), %rax
 2390 0ea1 488D9590 		leaq	-2160(%rbp), %rdx
 2390      F7FFFF
 2391 0ea8 488D8DB0 		leaq	-2128(%rbp), %rcx
 2391      F7FFFF
 2392 0eaf 488DB110 		leaq	528(%rcx), %rsi
 2392      020000
 2393 0eb6 4889D1   		movq	%rdx, %rcx
 2394 0eb9 4889F2   		movq	%rsi, %rdx
 2395 0ebc BE000000 		movl	$.LC23, %esi
 2395      00
 2396 0ec1 4889C7   		movq	%rax, %rdi
 2397 0ec4 E8000000 		call	_ZN8UnitTest10CheckEqualERNS_11TestResultsEPKcPcRKNS_11TestDetailsE
 2397      00
 2398              	.LEHE51:
 2399              	.L105:
 2400              	.LEHB52:
  96:TestChecks.cpp ****     CHECK_EQUAL(101, reporter.lastFailedLine);
 2401              		.loc 5 96 0 is_stmt 1
 2402 0ec9 E8000000 		call	_ZN8UnitTest11CurrentTest7DetailsEv
 2402      00
 2403 0ece 488B08   		movq	(%rax), %rcx
 2404 0ed1 488D8590 		leaq	-2160(%rbp), %rax
 2404      F7FFFF
 2405 0ed8 BA600000 		movl	$96, %edx
 2405      00
 2406 0edd 4889CE   		movq	%rcx, %rsi
 2407 0ee0 4889C7   		movq	%rax, %rdi
 2408 0ee3 E8000000 		call	_ZN8UnitTest11TestDetailsC1ERKS0_i
 2408      00
 2409              		.loc 5 96 0 is_stmt 0 discriminator 2
 2410 0ee8 C7854CF7 		movl	$101, -2228(%rbp)
 2410      FFFF6500 
 2410      0000
 2411 0ef2 E8000000 		call	_ZN8UnitTest11CurrentTest7ResultsEv
 2411      00
 2412 0ef7 488B00   		movq	(%rax), %rax
 2413 0efa 488D9590 		leaq	-2160(%rbp), %rdx
 2413      F7FFFF
 2414 0f01 488D8DB0 		leaq	-2128(%rbp), %rcx
 2414      F7FFFF
 2415 0f08 488DB910 		leaq	784(%rcx), %rdi
 2415      030000
 2416 0f0f 488DB54C 		leaq	-2228(%rbp), %rsi
 2416      F7FFFF
 2417 0f16 4889D1   		movq	%rdx, %rcx
 2418 0f19 4889FA   		movq	%rdi, %rdx
 2419 0f1c 4889C7   		movq	%rax, %rdi
 2420 0f1f E8000000 		call	_ZN8UnitTest10CheckEqualIiiEEvRNS_11TestResultsERKT_RKT0_RKNS_11TestDetailsE
 2420      00
 2421              	.LEHE52:
 2422              	.L108:
 2423              		.loc 5 96 0 discriminator 7
 2424 0f24 488D85B0 		leaq	-2128(%rbp), %rax
 2424      F7FFFF
 2425 0f2b 4889C7   		movq	%rax, %rdi
 2426              	.LEHB53:
 2427 0f2e E8000000 		call	_ZN17RecordingReporterD1Ev
 2427      00
 2428              	.LEHE53:
 2429              	.LBE34:
  97:TestChecks.cpp **** }
 2430              		.loc 5 97 0 is_stmt 1 discriminator 7
 2431 0f33 488B45E8 		movq	-24(%rbp), %rax
 2432 0f37 64483304 		xorq	%fs:40, %rax
 2432      25280000 
 2432      00
 2433 0f40 0F849801 		je	.L109
 2433      0000
 2434 0f46 E98E0100 		jmp	.L119
 2434      00
 2435              	.L112:
 2436 0f4b 4889C3   		movq	%rax, %rbx
 2437              	.LBB35:
  93:TestChecks.cpp ****     CHECK_EQUAL("mysuite", reporter.lastFailedSuite);
 2438              		.loc 5 93 0
 2439 0f4e E8000000 		call	__cxa_end_catch
 2439      00
 2440 0f53 E9670100 		jmp	.L97
 2440      00
 2441              	.L111:
 2442 0f58 4889C7   		movq	%rax, %rdi
 2443 0f5b E8000000 		call	__cxa_begin_catch
 2443      00
 2444              	.LEHB54:
 2445 0f60 E8000000 		call	_ZN8UnitTest11CurrentTest7DetailsEv
 2445      00
 2446 0f65 488B08   		movq	(%rax), %rcx
 2447 0f68 488D8590 		leaq	-2160(%rbp), %rax
 2447      F7FFFF
 2448 0f6f BA5D0000 		movl	$93, %edx
 2448      00
 2449 0f74 4889CE   		movq	%rcx, %rsi
 2450 0f77 4889C7   		movq	%rax, %rdi
 2451 0f7a E8000000 		call	_ZN8UnitTest11TestDetailsC1ERKS0_i
 2451      00
  93:TestChecks.cpp ****     CHECK_EQUAL("mysuite", reporter.lastFailedSuite);
 2452              		.loc 5 93 0 is_stmt 0 discriminator 10
 2453 0f7f E8000000 		call	_ZN8UnitTest11CurrentTest7ResultsEv
 2453      00
 2454 0f84 488B00   		movq	(%rax), %rax
 2455 0f87 488D8D90 		leaq	-2160(%rbp), %rcx
 2455      F7FFFF
 2456 0f8e BA000000 		movl	$.LC26, %edx
 2456      00
 2457 0f93 4889CE   		movq	%rcx, %rsi
 2458 0f96 4889C7   		movq	%rax, %rdi
 2459 0f99 E8000000 		call	_ZN8UnitTest11TestResults13OnTestFailureERKNS_11TestDetailsEPKc
 2459      00
 2460              	.LEHE54:
 2461              	.LEHB55:
  93:TestChecks.cpp ****     CHECK_EQUAL("mysuite", reporter.lastFailedSuite);
 2462              		.loc 5 93 0 discriminator 14
 2463 0f9e E8000000 		call	__cxa_end_catch
 2463      00
 2464              	.LEHE55:
  93:TestChecks.cpp ****     CHECK_EQUAL("mysuite", reporter.lastFailedSuite);
 2465              		.loc 5 93 0
 2466 0fa3 E983FEFF 		jmp	.L99
 2466      FF
 2467              	.L114:
 2468 0fa8 4889C3   		movq	%rax, %rbx
  94:TestChecks.cpp ****     CHECK_EQUAL("file.h", reporter.lastFailedFile);
 2469              		.loc 5 94 0 is_stmt 1
 2470 0fab E8000000 		call	__cxa_end_catch
 2470      00
 2471 0fb0 E90A0100 		jmp	.L97
 2471      00
 2472              	.L113:
 2473 0fb5 4889C7   		movq	%rax, %rdi
 2474 0fb8 E8000000 		call	__cxa_begin_catch
 2474      00
 2475              	.LEHB56:
 2476 0fbd E8000000 		call	_ZN8UnitTest11CurrentTest7DetailsEv
 2476      00
 2477 0fc2 488B08   		movq	(%rax), %rcx
 2478 0fc5 488D8590 		leaq	-2160(%rbp), %rax
 2478      F7FFFF
 2479 0fcc BA5E0000 		movl	$94, %edx
 2479      00
 2480 0fd1 4889CE   		movq	%rcx, %rsi
 2481 0fd4 4889C7   		movq	%rax, %rdi
 2482 0fd7 E8000000 		call	_ZN8UnitTest11TestDetailsC1ERKS0_i
 2482      00
  94:TestChecks.cpp ****     CHECK_EQUAL("file.h", reporter.lastFailedFile);
 2483              		.loc 5 94 0 is_stmt 0 discriminator 10
 2484 0fdc E8000000 		call	_ZN8UnitTest11CurrentTest7ResultsEv
 2484      00
 2485 0fe1 488B00   		movq	(%rax), %rax
 2486 0fe4 488D8D90 		leaq	-2160(%rbp), %rcx
 2486      F7FFFF
 2487 0feb BA000000 		movl	$.LC27, %edx
 2487      00
 2488 0ff0 4889CE   		movq	%rcx, %rsi
 2489 0ff3 4889C7   		movq	%rax, %rdi
 2490 0ff6 E8000000 		call	_ZN8UnitTest11TestResults13OnTestFailureERKNS_11TestDetailsEPKc
 2490      00
 2491              	.LEHE56:
 2492              	.LEHB57:
  94:TestChecks.cpp ****     CHECK_EQUAL("file.h", reporter.lastFailedFile);
 2493              		.loc 5 94 0 discriminator 14
 2494 0ffb E8000000 		call	__cxa_end_catch
 2494      00
 2495              	.LEHE57:
  94:TestChecks.cpp ****     CHECK_EQUAL("file.h", reporter.lastFailedFile);
 2496              		.loc 5 94 0
 2497 1000 E975FEFF 		jmp	.L102
 2497      FF
 2498              	.L116:
 2499 1005 4889C3   		movq	%rax, %rbx
  95:TestChecks.cpp ****     CHECK_EQUAL(101, reporter.lastFailedLine);
 2500              		.loc 5 95 0 is_stmt 1
 2501 1008 E8000000 		call	__cxa_end_catch
 2501      00
 2502 100d E9AD0000 		jmp	.L97
 2502      00
 2503              	.L115:
 2504 1012 4889C7   		movq	%rax, %rdi
 2505 1015 E8000000 		call	__cxa_begin_catch
 2505      00
 2506              	.LEHB58:
 2507 101a E8000000 		call	_ZN8UnitTest11CurrentTest7DetailsEv
 2507      00
 2508 101f 488B08   		movq	(%rax), %rcx
 2509 1022 488D8590 		leaq	-2160(%rbp), %rax
 2509      F7FFFF
 2510 1029 BA5F0000 		movl	$95, %edx
 2510      00
 2511 102e 4889CE   		movq	%rcx, %rsi
 2512 1031 4889C7   		movq	%rax, %rdi
 2513 1034 E8000000 		call	_ZN8UnitTest11TestDetailsC1ERKS0_i
 2513      00
  95:TestChecks.cpp ****     CHECK_EQUAL(101, reporter.lastFailedLine);
 2514              		.loc 5 95 0 is_stmt 0 discriminator 10
 2515 1039 E8000000 		call	_ZN8UnitTest11CurrentTest7ResultsEv
 2515      00
 2516 103e 488B00   		movq	(%rax), %rax
 2517 1041 488D8D90 		leaq	-2160(%rbp), %rcx
 2517      F7FFFF
 2518 1048 BA000000 		movl	$.LC28, %edx
 2518      00
 2519 104d 4889CE   		movq	%rcx, %rsi
 2520 1050 4889C7   		movq	%rax, %rdi
 2521 1053 E8000000 		call	_ZN8UnitTest11TestResults13OnTestFailureERKNS_11TestDetailsEPKc
 2521      00
 2522              	.LEHE58:
 2523              	.LEHB59:
  95:TestChecks.cpp ****     CHECK_EQUAL(101, reporter.lastFailedLine);
 2524              		.loc 5 95 0 discriminator 14
 2525 1058 E8000000 		call	__cxa_end_catch
 2525      00
 2526              	.LEHE59:
  95:TestChecks.cpp ****     CHECK_EQUAL(101, reporter.lastFailedLine);
 2527              		.loc 5 95 0
 2528 105d E967FEFF 		jmp	.L105
 2528      FF
 2529              	.L118:
 2530 1062 4889C3   		movq	%rax, %rbx
  96:TestChecks.cpp **** }
 2531              		.loc 5 96 0 is_stmt 1
 2532 1065 E8000000 		call	__cxa_end_catch
 2532      00
 2533 106a EB53     		jmp	.L97
 2534              	.L117:
 2535 106c 4889C7   		movq	%rax, %rdi
 2536 106f E8000000 		call	__cxa_begin_catch
 2536      00
 2537              	.LEHB60:
 2538 1074 E8000000 		call	_ZN8UnitTest11CurrentTest7DetailsEv
 2538      00
 2539 1079 488B08   		movq	(%rax), %rcx
 2540 107c 488D8590 		leaq	-2160(%rbp), %rax
 2540      F7FFFF
 2541 1083 BA600000 		movl	$96, %edx
 2541      00
 2542 1088 4889CE   		movq	%rcx, %rsi
 2543 108b 4889C7   		movq	%rax, %rdi
 2544 108e E8000000 		call	_ZN8UnitTest11TestDetailsC1ERKS0_i
 2544      00
  96:TestChecks.cpp **** }
 2545              		.loc 5 96 0 is_stmt 0 discriminator 11
 2546 1093 E8000000 		call	_ZN8UnitTest11CurrentTest7ResultsEv
 2546      00
 2547 1098 488B00   		movq	(%rax), %rax
 2548 109b 488D8D90 		leaq	-2160(%rbp), %rcx
 2548      F7FFFF
 2549 10a2 BA000000 		movl	$.LC29, %edx
 2549      00
 2550 10a7 4889CE   		movq	%rcx, %rsi
 2551 10aa 4889C7   		movq	%rax, %rdi
 2552 10ad E8000000 		call	_ZN8UnitTest11TestResults13OnTestFailureERKNS_11TestDetailsEPKc
 2552      00
 2553              	.LEHE60:
 2554              	.LEHB61:
  96:TestChecks.cpp **** }
 2555              		.loc 5 96 0 discriminator 15
 2556 10b2 E8000000 		call	__cxa_end_catch
 2556      00
 2557              	.LEHE61:
  96:TestChecks.cpp **** }
 2558              		.loc 5 96 0
 2559 10b7 E968FEFF 		jmp	.L108
 2559      FF
 2560              	.L110:
 2561 10bc 4889C3   		movq	%rax, %rbx
 2562              	.L97:
  96:TestChecks.cpp **** }
 2563              		.loc 5 96 0 discriminator 16
 2564 10bf 488D85B0 		leaq	-2128(%rbp), %rax
 2564      F7FFFF
 2565 10c6 4889C7   		movq	%rax, %rdi
 2566 10c9 E8000000 		call	_ZN17RecordingReporterD1Ev
 2566      00
 2567 10ce 4889D8   		movq	%rbx, %rax
 2568 10d1 4889C7   		movq	%rax, %rdi
 2569              	.LEHB62:
 2570 10d4 E8000000 		call	_Unwind_Resume
 2570      00
 2571              	.LEHE62:
 2572              	.L119:
 2573              	.LBE35:
 2574              		.loc 5 97 0 is_stmt 1
 2575 10d9 E8000000 		call	__stack_chk_fail
 2575      00
 2576              	.L109:
 2577 10de 4881C4C8 		addq	$2248, %rsp
 2577      080000
 2578 10e5 5B       		popq	%rbx
 2579 10e6 5D       		popq	%rbp
 2580              		.cfi_def_cfa 7, 8
 2581 10e7 C3       		ret
 2582              		.cfi_endproc
 2583              	.LFE1110:
 2584              		.section	.gcc_except_table
 2585              		.align 4
 2586              	.LLSDA1110:
 2587 0150 FF       		.byte	0xff
 2588 0151 03       		.byte	0x3
 2589 0152 61       		.uleb128 .LLSDATT1110-.LLSDATTD1110
 2590              	.LLSDATTD1110:
 2591 0153 01       		.byte	0x1
 2592 0154 57       		.uleb128 .LLSDACSE1110-.LLSDACSB1110
 2593              	.LLSDACSB1110:
 2594 0155 45       		.uleb128 .LEHB48-.LFB1110
 2595 0156 61       		.uleb128 .LEHE48-.LEHB48
 2596 0157 8607     		.uleb128 .L110-.LFB1110
 2597 0159 00       		.uleb128 0
 2598 015a A601     		.uleb128 .LEHB49-.LFB1110
 2599 015c 4F       		.uleb128 .LEHE49-.LEHB49
 2600 015d A204     		.uleb128 .L111-.LFB1110
 2601 015f 01       		.uleb128 0x1
 2602 0160 F501     		.uleb128 .LEHB50-.LFB1110
 2603 0162 4F       		.uleb128 .LEHE50-.LEHB50
 2604 0163 FF04     		.uleb128 .L113-.LFB1110
 2605 0165 01       		.uleb128 0x1
 2606 0166 C402     		.uleb128 .LEHB51-.LFB1110
 2607 0168 4F       		.uleb128 .LEHE51-.LEHB51
 2608 0169 DC05     		.uleb128 .L115-.LFB1110
 2609 016b 01       		.uleb128 0x1
 2610 016c 9303     		.uleb128 .LEHB52-.LFB1110
 2611 016e 5B       		.uleb128 .LEHE52-.LEHB52
 2612 016f B606     		.uleb128 .L117-.LFB1110
 2613 0171 01       		.uleb128 0x1
 2614 0172 F803     		.uleb128 .LEHB53-.LFB1110
 2615 0174 05       		.uleb128 .LEHE53-.LEHB53
 2616 0175 00       		.uleb128 0
 2617 0176 00       		.uleb128 0
 2618 0177 AA04     		.uleb128 .LEHB54-.LFB1110
 2619 0179 3E       		.uleb128 .LEHE54-.LEHB54
 2620 017a 9504     		.uleb128 .L112-.LFB1110
 2621 017c 00       		.uleb128 0
 2622 017d E804     		.uleb128 .LEHB55-.LFB1110
 2623 017f 05       		.uleb128 .LEHE55-.LEHB55
 2624 0180 8607     		.uleb128 .L110-.LFB1110
 2625 0182 00       		.uleb128 0
 2626 0183 8705     		.uleb128 .LEHB56-.LFB1110
 2627 0185 3E       		.uleb128 .LEHE56-.LEHB56
 2628 0186 F204     		.uleb128 .L114-.LFB1110
 2629 0188 00       		.uleb128 0
 2630 0189 C505     		.uleb128 .LEHB57-.LFB1110
 2631 018b 05       		.uleb128 .LEHE57-.LEHB57
 2632 018c 8607     		.uleb128 .L110-.LFB1110
 2633 018e 00       		.uleb128 0
 2634 018f E405     		.uleb128 .LEHB58-.LFB1110
 2635 0191 3E       		.uleb128 .LEHE58-.LEHB58
 2636 0192 CF05     		.uleb128 .L116-.LFB1110
 2637 0194 00       		.uleb128 0
 2638 0195 A206     		.uleb128 .LEHB59-.LFB1110
 2639 0197 05       		.uleb128 .LEHE59-.LEHB59
 2640 0198 8607     		.uleb128 .L110-.LFB1110
 2641 019a 00       		.uleb128 0
 2642 019b BE06     		.uleb128 .LEHB60-.LFB1110
 2643 019d 3E       		.uleb128 .LEHE60-.LEHB60
 2644 019e AC06     		.uleb128 .L118-.LFB1110
 2645 01a0 00       		.uleb128 0
 2646 01a1 FC06     		.uleb128 .LEHB61-.LFB1110
 2647 01a3 05       		.uleb128 .LEHE61-.LEHB61
 2648 01a4 8607     		.uleb128 .L110-.LFB1110
 2649 01a6 00       		.uleb128 0
 2650 01a7 9E07     		.uleb128 .LEHB62-.LFB1110
 2651 01a9 05       		.uleb128 .LEHE62-.LEHB62
 2652 01aa 00       		.uleb128 0
 2653 01ab 00       		.uleb128 0
 2654              	.LLSDACSE1110:
 2655 01ac 01       		.byte	0x1
 2656 01ad 00       		.byte	0
 2657 01ae 0000     		.align 4
 2658 01b0 00000000 		.long	0
 2659              	
 2660              	.LLSDATT1110:
 2661              		.text
 2663              		.section	.rodata
 2664              	.LC30:
 2665 04e1 43686563 		.string	"CheckCloseTrue"
 2665      6B436C6F 
 2665      73655472 
 2665      756500
 2666              		.text
 2667              		.align 2
 2669              	_ZN12_GLOBAL__N_118TestCheckCloseTrueC2Ev:
 2670              	.LFB1112:
  98:TestChecks.cpp **** 
  99:TestChecks.cpp **** TEST(CheckCloseTrue)
 2671              		.loc 5 99 0
 2672              		.cfi_startproc
 2673 10e8 55       		pushq	%rbp
 2674              		.cfi_def_cfa_offset 16
 2675              		.cfi_offset 6, -16
 2676 10e9 4889E5   		movq	%rsp, %rbp
 2677              		.cfi_def_cfa_register 6
 2678 10ec 4883EC10 		subq	$16, %rsp
 2679 10f0 48897DF8 		movq	%rdi, -8(%rbp)
 2680              	.LBB36:
 2681              		.loc 5 99 0
 2682 10f4 E8000000 		call	_ZN13UnitTestSuite12GetSuiteNameEv
 2682      00
 2683 10f9 4889C2   		movq	%rax, %rdx
 2684 10fc 488B45F8 		movq	-8(%rbp), %rax
 2685 1100 41B86300 		movl	$99, %r8d
 2685      0000
 2686 1106 B9000000 		movl	$.LC2, %ecx
 2686      00
 2687 110b BE000000 		movl	$.LC30, %esi
 2687      00
 2688 1110 4889C7   		movq	%rax, %rdi
 2689 1113 E8000000 		call	_ZN8UnitTest4TestC2EPKcS2_S2_i
 2689      00
 2690 1118 488B45F8 		movq	-8(%rbp), %rax
 2691 111c 48C70000 		movq	$_ZTVN12_GLOBAL__N_118TestCheckCloseTrueE+16, (%rax)
 2691      000000
 2692              	.LBE36:
 2693 1123 C9       		leave
 2694              		.cfi_def_cfa 7, 8
 2695 1124 C3       		ret
 2696              		.cfi_endproc
 2697              	.LFE1112:
 2699              		.local	_ZN12_GLOBAL__N_126testCheckCloseTrueInstanceE
 2700              		.comm	_ZN12_GLOBAL__N_126testCheckCloseTrueInstanceE,56,32
 2701              		.local	_ZN12_GLOBAL__N_119adderCheckCloseTrueE
 2702              		.comm	_ZN12_GLOBAL__N_119adderCheckCloseTrueE,1,1
 2703 1125 90       		.align 2
 2705              	_ZNK12_GLOBAL__N_118TestCheckCloseTrue7RunImplEv:
 2706              	.LFB1114:
 100:TestChecks.cpp **** {
 2707              		.loc 5 100 0
 2708              		.cfi_startproc
 2709              		.cfi_personality 0x3,__gxx_personality_v0
 2710              		.cfi_lsda 0x3,.LLSDA1114
 2711 1126 55       		pushq	%rbp
 2712              		.cfi_def_cfa_offset 16
 2713              		.cfi_offset 6, -16
 2714 1127 4889E5   		movq	%rsp, %rbp
 2715              		.cfi_def_cfa_register 6
 2716 112a 53       		pushq	%rbx
 2717 112b 4883EC78 		subq	$120, %rsp
 2718              		.cfi_offset 3, -24
 2719 112f 48897D88 		movq	%rdi, -120(%rbp)
 2720              		.loc 5 100 0
 2721 1133 64488B04 		movq	%fs:40, %rax
 2721      25280000 
 2721      00
 2722 113c 488945E8 		movq	%rax, -24(%rbp)
 2723 1140 31C0     		xorl	%eax, %eax
 2724              	.LBB37:
 101:TestChecks.cpp ****     TestResults results;
 2725              		.loc 5 101 0
 2726 1142 488D45A0 		leaq	-96(%rbp), %rax
 2727 1146 BE000000 		movl	$0, %esi
 2727      00
 2728 114b 4889C7   		movq	%rax, %rdi
 2729              	.LEHB63:
 2730 114e E8000000 		call	_ZN8UnitTest11TestResultsC1EPNS_12TestReporterE
 2730      00
 102:TestChecks.cpp ****     CheckClose(results, 3.001f, 3.0f, 0.1f, TestDetails("", "", "", 0));
 2731              		.loc 5 102 0
 2732 1153 488D45C0 		leaq	-64(%rbp), %rax
 2733 1157 41B80000 		movl	$0, %r8d
 2733      0000
 2734 115d B9000000 		movl	$.LC6, %ecx
 2734      00
 2735 1162 BA000000 		movl	$.LC6, %edx
 2735      00
 2736 1167 BE000000 		movl	$.LC6, %esi
 2736      00
 2737 116c 4889C7   		movq	%rax, %rdi
 2738 116f E8000000 		call	_ZN8UnitTest11TestDetailsC1EPKcS2_S2_i
 2738      00
 2739 1174 8B050000 		movl	.LC31(%rip), %eax
 2739      0000
 2740 117a 89459C   		movl	%eax, -100(%rbp)
 2741 117d 8B050000 		movl	.LC32(%rip), %eax
 2741      0000
 2742 1183 894598   		movl	%eax, -104(%rbp)
 2743 1186 8B050000 		movl	.LC33(%rip), %eax
 2743      0000
 2744 118c 894594   		movl	%eax, -108(%rbp)
 2745 118f 488D7DC0 		leaq	-64(%rbp), %rdi
 2746 1193 488D4D9C 		leaq	-100(%rbp), %rcx
 2747 1197 488D5598 		leaq	-104(%rbp), %rdx
 2748 119b 488D7594 		leaq	-108(%rbp), %rsi
 2749 119f 488D45A0 		leaq	-96(%rbp), %rax
 2750 11a3 4989F8   		movq	%rdi, %r8
 2751 11a6 4889C7   		movq	%rax, %rdi
 2752 11a9 E8000000 		call	_ZN8UnitTest10CheckCloseIfffEEvRNS_11TestResultsERKT_RKT0_RKT1_RKNS_11TestDetailsE
 2752      00
 2753              	.LEHE63:
 2754              	.LEHB64:
 103:TestChecks.cpp ****     CHECK_EQUAL(0, results.GetFailureCount());
 2755              		.loc 5 103 0
 2756 11ae E8000000 		call	_ZN8UnitTest11CurrentTest7DetailsEv
 2756      00
 2757 11b3 488B08   		movq	(%rax), %rcx
 2758 11b6 488D45C0 		leaq	-64(%rbp), %rax
 2759 11ba BA670000 		movl	$103, %edx
 2759      00
 2760 11bf 4889CE   		movq	%rcx, %rsi
 2761 11c2 4889C7   		movq	%rax, %rdi
 2762 11c5 E8000000 		call	_ZN8UnitTest11TestDetailsC1ERKS0_i
 2762      00
 2763              		.loc 5 103 0 is_stmt 0 discriminator 2
 2764 11ca 488D45A0 		leaq	-96(%rbp), %rax
 2765 11ce 4889C7   		movq	%rax, %rdi
 2766 11d1 E8000000 		call	_ZNK8UnitTest11TestResults15GetFailureCountEv
 2766      00
 2767 11d6 89459C   		movl	%eax, -100(%rbp)
 2768 11d9 C7459800 		movl	$0, -104(%rbp)
 2768      000000
 2769 11e0 E8000000 		call	_ZN8UnitTest11CurrentTest7ResultsEv
 2769      00
 2770              		.loc 5 103 0 discriminator 4
 2771 11e5 488B00   		movq	(%rax), %rax
 2772 11e8 488D4DC0 		leaq	-64(%rbp), %rcx
 2773 11ec 488D559C 		leaq	-100(%rbp), %rdx
 2774 11f0 488D7598 		leaq	-104(%rbp), %rsi
 2775 11f4 4889C7   		movq	%rax, %rdi
 2776 11f7 E8000000 		call	_ZN8UnitTest10CheckEqualIiiEEvRNS_11TestResultsERKT_RKT0_RKNS_11TestDetailsE
 2776      00
 2777              	.LEHE64:
 2778              	.LBE37:
 104:TestChecks.cpp **** }
 2779              		.loc 5 104 0 is_stmt 1
 2780 11fc EB58     		jmp	.L128
 2781              	.L127:
 2782 11fe 4889C3   		movq	%rax, %rbx
 2783              	.LBB38:
 103:TestChecks.cpp ****     CHECK_EQUAL(0, results.GetFailureCount());
 2784              		.loc 5 103 0
 2785 1201 E8000000 		call	__cxa_end_catch
 2785      00
 2786 1206 4889D8   		movq	%rbx, %rax
 2787 1209 4889C7   		movq	%rax, %rdi
 2788              	.LEHB65:
 2789 120c E8000000 		call	_Unwind_Resume
 2789      00
 2790              	.LEHE65:
 2791              	.L126:
 2792 1211 4889C7   		movq	%rax, %rdi
 2793 1214 E8000000 		call	__cxa_begin_catch
 2793      00
 2794              	.LEHB66:
 2795 1219 E8000000 		call	_ZN8UnitTest11CurrentTest7DetailsEv
 2795      00
 2796 121e 488B08   		movq	(%rax), %rcx
 2797 1221 488D45C0 		leaq	-64(%rbp), %rax
 2798 1225 BA670000 		movl	$103, %edx
 2798      00
 2799 122a 4889CE   		movq	%rcx, %rsi
 2800 122d 4889C7   		movq	%rax, %rdi
 2801 1230 E8000000 		call	_ZN8UnitTest11TestDetailsC1ERKS0_i
 2801      00
 103:TestChecks.cpp ****     CHECK_EQUAL(0, results.GetFailureCount());
 2802              		.loc 5 103 0 is_stmt 0 discriminator 12
 2803 1235 E8000000 		call	_ZN8UnitTest11CurrentTest7ResultsEv
 2803      00
 2804 123a 488B00   		movq	(%rax), %rax
 2805 123d 488D4DC0 		leaq	-64(%rbp), %rcx
 2806 1241 BA000000 		movl	$.LC9, %edx
 2806      00
 2807 1246 4889CE   		movq	%rcx, %rsi
 2808 1249 4889C7   		movq	%rax, %rdi
 2809 124c E8000000 		call	_ZN8UnitTest11TestResults13OnTestFailureERKNS_11TestDetailsEPKc
 2809      00
 2810              	.LEHE66:
 2811              	.LEHB67:
 103:TestChecks.cpp ****     CHECK_EQUAL(0, results.GetFailureCount());
 2812              		.loc 5 103 0 discriminator 16
 2813 1251 E8000000 		call	__cxa_end_catch
 2813      00
 2814              	.LEHE67:
 2815              	.L128:
 2816              	.LBE38:
 2817              		.loc 5 104 0 is_stmt 1
 2818 1256 90       		nop
 2819 1257 488B45E8 		movq	-24(%rbp), %rax
 2820 125b 64483304 		xorq	%fs:40, %rax
 2820      25280000 
 2820      00
 2821 1264 7405     		je	.L125
 2822 1266 E8000000 		call	__stack_chk_fail
 2822      00
 2823              	.L125:
 2824 126b 4883C478 		addq	$120, %rsp
 2825 126f 5B       		popq	%rbx
 2826 1270 5D       		popq	%rbp
 2827              		.cfi_def_cfa 7, 8
 2828 1271 C3       		ret
 2829              		.cfi_endproc
 2830              	.LFE1114:
 2831              		.section	.gcc_except_table
 2832              		.align 4
 2833              	.LLSDA1114:
 2834 01b4 FF       		.byte	0xff
 2835 01b5 03       		.byte	0x3
 2836 01b6 25       		.uleb128 .LLSDATT1114-.LLSDATTD1114
 2837              	.LLSDATTD1114:
 2838 01b7 01       		.byte	0x1
 2839 01b8 1A       		.uleb128 .LLSDACSE1114-.LLSDACSB1114
 2840              	.LLSDACSB1114:
 2841 01b9 28       		.uleb128 .LEHB63-.LFB1114
 2842 01ba 60       		.uleb128 .LEHE63-.LEHB63
 2843 01bb 00       		.uleb128 0
 2844 01bc 00       		.uleb128 0
 2845 01bd 8801     		.uleb128 .LEHB64-.LFB1114
 2846 01bf 4E       		.uleb128 .LEHE64-.LEHB64
 2847 01c0 EB01     		.uleb128 .L126-.LFB1114
 2848 01c2 01       		.uleb128 0x1
 2849 01c3 E601     		.uleb128 .LEHB65-.LFB1114
 2850 01c5 05       		.uleb128 .LEHE65-.LEHB65
 2851 01c6 00       		.uleb128 0
 2852 01c7 00       		.uleb128 0
 2853 01c8 F301     		.uleb128 .LEHB66-.LFB1114
 2854 01ca 38       		.uleb128 .LEHE66-.LEHB66
 2855 01cb D801     		.uleb128 .L127-.LFB1114
 2856 01cd 00       		.uleb128 0
 2857 01ce AB02     		.uleb128 .LEHB67-.LFB1114
 2858 01d0 05       		.uleb128 .LEHE67-.LEHB67
 2859 01d1 00       		.uleb128 0
 2860 01d2 00       		.uleb128 0
 2861              	.LLSDACSE1114:
 2862 01d3 01       		.byte	0x1
 2863 01d4 00       		.byte	0
 2864 01d5 000000   		.align 4
 2865 01d8 00000000 		.long	0
 2866              	
 2867              	.LLSDATT1114:
 2868              		.text
 2870              		.section	.rodata
 2871              	.LC34:
 2872 04f0 43686563 		.string	"CheckCloseFalse"
 2872      6B436C6F 
 2872      73654661 
 2872      6C736500 
 2873              		.text
 2874              		.align 2
 2876              	_ZN12_GLOBAL__N_119TestCheckCloseFalseC2Ev:
 2877              	.LFB1116:
 105:TestChecks.cpp **** 
 106:TestChecks.cpp **** TEST(CheckCloseFalse)
 2878              		.loc 5 106 0
 2879              		.cfi_startproc
 2880 1272 55       		pushq	%rbp
 2881              		.cfi_def_cfa_offset 16
 2882              		.cfi_offset 6, -16
 2883 1273 4889E5   		movq	%rsp, %rbp
 2884              		.cfi_def_cfa_register 6
 2885 1276 4883EC10 		subq	$16, %rsp
 2886 127a 48897DF8 		movq	%rdi, -8(%rbp)
 2887              	.LBB39:
 2888              		.loc 5 106 0
 2889 127e E8000000 		call	_ZN13UnitTestSuite12GetSuiteNameEv
 2889      00
 2890 1283 4889C2   		movq	%rax, %rdx
 2891 1286 488B45F8 		movq	-8(%rbp), %rax
 2892 128a 41B86A00 		movl	$106, %r8d
 2892      0000
 2893 1290 B9000000 		movl	$.LC2, %ecx
 2893      00
 2894 1295 BE000000 		movl	$.LC34, %esi
 2894      00
 2895 129a 4889C7   		movq	%rax, %rdi
 2896 129d E8000000 		call	_ZN8UnitTest4TestC2EPKcS2_S2_i
 2896      00
 2897 12a2 488B45F8 		movq	-8(%rbp), %rax
 2898 12a6 48C70000 		movq	$_ZTVN12_GLOBAL__N_119TestCheckCloseFalseE+16, (%rax)
 2898      000000
 2899              	.LBE39:
 2900 12ad C9       		leave
 2901              		.cfi_def_cfa 7, 8
 2902 12ae C3       		ret
 2903              		.cfi_endproc
 2904              	.LFE1116:
 2906              		.local	_ZN12_GLOBAL__N_127testCheckCloseFalseInstanceE
 2907              		.comm	_ZN12_GLOBAL__N_127testCheckCloseFalseInstanceE,56,32
 2908              		.local	_ZN12_GLOBAL__N_120adderCheckCloseFalseE
 2909              		.comm	_ZN12_GLOBAL__N_120adderCheckCloseFalseE,1,1
 2910 12af 90       		.align 2
 2912              	_ZNK12_GLOBAL__N_119TestCheckCloseFalse7RunImplEv:
 2913              	.LFB1118:
 107:TestChecks.cpp **** {
 2914              		.loc 5 107 0
 2915              		.cfi_startproc
 2916              		.cfi_personality 0x3,__gxx_personality_v0
 2917              		.cfi_lsda 0x3,.LLSDA1118
 2918 12b0 55       		pushq	%rbp
 2919              		.cfi_def_cfa_offset 16
 2920              		.cfi_offset 6, -16
 2921 12b1 4889E5   		movq	%rsp, %rbp
 2922              		.cfi_def_cfa_register 6
 2923 12b4 53       		pushq	%rbx
 2924 12b5 4883EC78 		subq	$120, %rsp
 2925              		.cfi_offset 3, -24
 2926 12b9 48897D88 		movq	%rdi, -120(%rbp)
 2927              		.loc 5 107 0
 2928 12bd 64488B04 		movq	%fs:40, %rax
 2928      25280000 
 2928      00
 2929 12c6 488945E8 		movq	%rax, -24(%rbp)
 2930 12ca 31C0     		xorl	%eax, %eax
 2931              	.LBB40:
 108:TestChecks.cpp ****     TestResults results;
 2932              		.loc 5 108 0
 2933 12cc 488D45A0 		leaq	-96(%rbp), %rax
 2934 12d0 BE000000 		movl	$0, %esi
 2934      00
 2935 12d5 4889C7   		movq	%rax, %rdi
 2936              	.LEHB68:
 2937 12d8 E8000000 		call	_ZN8UnitTest11TestResultsC1EPNS_12TestReporterE
 2937      00
 109:TestChecks.cpp ****     CheckClose(results, 3.12f, 3.0f, 0.1f, TestDetails("", "", "", 0));
 2938              		.loc 5 109 0
 2939 12dd 488D45C0 		leaq	-64(%rbp), %rax
 2940 12e1 41B80000 		movl	$0, %r8d
 2940      0000
 2941 12e7 B9000000 		movl	$.LC6, %ecx
 2941      00
 2942 12ec BA000000 		movl	$.LC6, %edx
 2942      00
 2943 12f1 BE000000 		movl	$.LC6, %esi
 2943      00
 2944 12f6 4889C7   		movq	%rax, %rdi
 2945 12f9 E8000000 		call	_ZN8UnitTest11TestDetailsC1EPKcS2_S2_i
 2945      00
 2946 12fe 8B050000 		movl	.LC31(%rip), %eax
 2946      0000
 2947 1304 89459C   		movl	%eax, -100(%rbp)
 2948 1307 8B050000 		movl	.LC32(%rip), %eax
 2948      0000
 2949 130d 894598   		movl	%eax, -104(%rbp)
 2950 1310 8B050000 		movl	.LC35(%rip), %eax
 2950      0000
 2951 1316 894594   		movl	%eax, -108(%rbp)
 2952 1319 488D7DC0 		leaq	-64(%rbp), %rdi
 2953 131d 488D4D9C 		leaq	-100(%rbp), %rcx
 2954 1321 488D5598 		leaq	-104(%rbp), %rdx
 2955 1325 488D7594 		leaq	-108(%rbp), %rsi
 2956 1329 488D45A0 		leaq	-96(%rbp), %rax
 2957 132d 4989F8   		movq	%rdi, %r8
 2958 1330 4889C7   		movq	%rax, %rdi
 2959 1333 E8000000 		call	_ZN8UnitTest10CheckCloseIfffEEvRNS_11TestResultsERKT_RKT0_RKT1_RKNS_11TestDetailsE
 2959      00
 2960              	.LEHE68:
 2961              	.LEHB69:
 110:TestChecks.cpp ****     CHECK_EQUAL(1, results.GetFailureCount());
 2962              		.loc 5 110 0
 2963 1338 E8000000 		call	_ZN8UnitTest11CurrentTest7DetailsEv
 2963      00
 2964 133d 488B08   		movq	(%rax), %rcx
 2965 1340 488D45C0 		leaq	-64(%rbp), %rax
 2966 1344 BA6E0000 		movl	$110, %edx
 2966      00
 2967 1349 4889CE   		movq	%rcx, %rsi
 2968 134c 4889C7   		movq	%rax, %rdi
 2969 134f E8000000 		call	_ZN8UnitTest11TestDetailsC1ERKS0_i
 2969      00
 2970              		.loc 5 110 0 is_stmt 0 discriminator 2
 2971 1354 488D45A0 		leaq	-96(%rbp), %rax
 2972 1358 4889C7   		movq	%rax, %rdi
 2973 135b E8000000 		call	_ZNK8UnitTest11TestResults15GetFailureCountEv
 2973      00
 2974 1360 89459C   		movl	%eax, -100(%rbp)
 2975 1363 C7459801 		movl	$1, -104(%rbp)
 2975      000000
 2976 136a E8000000 		call	_ZN8UnitTest11CurrentTest7ResultsEv
 2976      00
 2977              		.loc 5 110 0 discriminator 4
 2978 136f 488B00   		movq	(%rax), %rax
 2979 1372 488D4DC0 		leaq	-64(%rbp), %rcx
 2980 1376 488D559C 		leaq	-100(%rbp), %rdx
 2981 137a 488D7598 		leaq	-104(%rbp), %rsi
 2982 137e 4889C7   		movq	%rax, %rdi
 2983 1381 E8000000 		call	_ZN8UnitTest10CheckEqualIiiEEvRNS_11TestResultsERKT_RKT0_RKNS_11TestDetailsE
 2983      00
 2984              	.LEHE69:
 2985              	.LBE40:
 111:TestChecks.cpp **** }
 2986              		.loc 5 111 0 is_stmt 1
 2987 1386 EB58     		jmp	.L137
 2988              	.L136:
 2989 1388 4889C3   		movq	%rax, %rbx
 2990              	.LBB41:
 110:TestChecks.cpp ****     CHECK_EQUAL(1, results.GetFailureCount());
 2991              		.loc 5 110 0
 2992 138b E8000000 		call	__cxa_end_catch
 2992      00
 2993 1390 4889D8   		movq	%rbx, %rax
 2994 1393 4889C7   		movq	%rax, %rdi
 2995              	.LEHB70:
 2996 1396 E8000000 		call	_Unwind_Resume
 2996      00
 2997              	.LEHE70:
 2998              	.L135:
 2999 139b 4889C7   		movq	%rax, %rdi
 3000 139e E8000000 		call	__cxa_begin_catch
 3000      00
 3001              	.LEHB71:
 3002 13a3 E8000000 		call	_ZN8UnitTest11CurrentTest7DetailsEv
 3002      00
 3003 13a8 488B08   		movq	(%rax), %rcx
 3004 13ab 488D45C0 		leaq	-64(%rbp), %rax
 3005 13af BA6E0000 		movl	$110, %edx
 3005      00
 3006 13b4 4889CE   		movq	%rcx, %rsi
 3007 13b7 4889C7   		movq	%rax, %rdi
 3008 13ba E8000000 		call	_ZN8UnitTest11TestDetailsC1ERKS0_i
 3008      00
 110:TestChecks.cpp ****     CHECK_EQUAL(1, results.GetFailureCount());
 3009              		.loc 5 110 0 is_stmt 0 discriminator 12
 3010 13bf E8000000 		call	_ZN8UnitTest11CurrentTest7ResultsEv
 3010      00
 3011 13c4 488B00   		movq	(%rax), %rax
 3012 13c7 488D4DC0 		leaq	-64(%rbp), %rcx
 3013 13cb BA000000 		movl	$.LC7, %edx
 3013      00
 3014 13d0 4889CE   		movq	%rcx, %rsi
 3015 13d3 4889C7   		movq	%rax, %rdi
 3016 13d6 E8000000 		call	_ZN8UnitTest11TestResults13OnTestFailureERKNS_11TestDetailsEPKc
 3016      00
 3017              	.LEHE71:
 3018              	.LEHB72:
 110:TestChecks.cpp ****     CHECK_EQUAL(1, results.GetFailureCount());
 3019              		.loc 5 110 0 discriminator 16
 3020 13db E8000000 		call	__cxa_end_catch
 3020      00
 3021              	.LEHE72:
 3022              	.L137:
 3023              	.LBE41:
 3024              		.loc 5 111 0 is_stmt 1
 3025 13e0 90       		nop
 3026 13e1 488B45E8 		movq	-24(%rbp), %rax
 3027 13e5 64483304 		xorq	%fs:40, %rax
 3027      25280000 
 3027      00
 3028 13ee 7405     		je	.L134
 3029 13f0 E8000000 		call	__stack_chk_fail
 3029      00
 3030              	.L134:
 3031 13f5 4883C478 		addq	$120, %rsp
 3032 13f9 5B       		popq	%rbx
 3033 13fa 5D       		popq	%rbp
 3034              		.cfi_def_cfa 7, 8
 3035 13fb C3       		ret
 3036              		.cfi_endproc
 3037              	.LFE1118:
 3038              		.section	.gcc_except_table
 3039              		.align 4
 3040              	.LLSDA1118:
 3041 01dc FF       		.byte	0xff
 3042 01dd 03       		.byte	0x3
 3043 01de 25       		.uleb128 .LLSDATT1118-.LLSDATTD1118
 3044              	.LLSDATTD1118:
 3045 01df 01       		.byte	0x1
 3046 01e0 1A       		.uleb128 .LLSDACSE1118-.LLSDACSB1118
 3047              	.LLSDACSB1118:
 3048 01e1 28       		.uleb128 .LEHB68-.LFB1118
 3049 01e2 60       		.uleb128 .LEHE68-.LEHB68
 3050 01e3 00       		.uleb128 0
 3051 01e4 00       		.uleb128 0
 3052 01e5 8801     		.uleb128 .LEHB69-.LFB1118
 3053 01e7 4E       		.uleb128 .LEHE69-.LEHB69
 3054 01e8 EB01     		.uleb128 .L135-.LFB1118
 3055 01ea 01       		.uleb128 0x1
 3056 01eb E601     		.uleb128 .LEHB70-.LFB1118
 3057 01ed 05       		.uleb128 .LEHE70-.LEHB70
 3058 01ee 00       		.uleb128 0
 3059 01ef 00       		.uleb128 0
 3060 01f0 F301     		.uleb128 .LEHB71-.LFB1118
 3061 01f2 38       		.uleb128 .LEHE71-.LEHB71
 3062 01f3 D801     		.uleb128 .L136-.LFB1118
 3063 01f5 00       		.uleb128 0
 3064 01f6 AB02     		.uleb128 .LEHB72-.LFB1118
 3065 01f8 05       		.uleb128 .LEHE72-.LEHB72
 3066 01f9 00       		.uleb128 0
 3067 01fa 00       		.uleb128 0
 3068              	.LLSDACSE1118:
 3069 01fb 01       		.byte	0x1
 3070 01fc 00       		.byte	0
 3071 01fd 000000   		.align 4
 3072 0200 00000000 		.long	0
 3073              	
 3074              	.LLSDATT1118:
 3075              		.text
 3077              		.section	.rodata
 3078              		.align 8
 3079              	.LC36:
 3080 0500 43686563 		.string	"CheckCloseWithZeroEpsilonWorksForSameNumber"
 3080      6B436C6F 
 3080      73655769 
 3080      74685A65 
 3080      726F4570 
 3081              		.text
 3082              		.align 2
 3084              	_ZN12_GLOBAL__N_147TestCheckCloseWithZeroEpsilonWorksForSameNumberC2Ev:
 3085              	.LFB1120:
 112:TestChecks.cpp **** 
 113:TestChecks.cpp **** TEST(CheckCloseWithZeroEpsilonWorksForSameNumber)
 3086              		.loc 5 113 0
 3087              		.cfi_startproc
 3088 13fc 55       		pushq	%rbp
 3089              		.cfi_def_cfa_offset 16
 3090              		.cfi_offset 6, -16
 3091 13fd 4889E5   		movq	%rsp, %rbp
 3092              		.cfi_def_cfa_register 6
 3093 1400 4883EC10 		subq	$16, %rsp
 3094 1404 48897DF8 		movq	%rdi, -8(%rbp)
 3095              	.LBB42:
 3096              		.loc 5 113 0
 3097 1408 E8000000 		call	_ZN13UnitTestSuite12GetSuiteNameEv
 3097      00
 3098 140d 4889C2   		movq	%rax, %rdx
 3099 1410 488B45F8 		movq	-8(%rbp), %rax
 3100 1414 41B87100 		movl	$113, %r8d
 3100      0000
 3101 141a B9000000 		movl	$.LC2, %ecx
 3101      00
 3102 141f BE000000 		movl	$.LC36, %esi
 3102      00
 3103 1424 4889C7   		movq	%rax, %rdi
 3104 1427 E8000000 		call	_ZN8UnitTest4TestC2EPKcS2_S2_i
 3104      00
 3105 142c 488B45F8 		movq	-8(%rbp), %rax
 3106 1430 48C70000 		movq	$_ZTVN12_GLOBAL__N_147TestCheckCloseWithZeroEpsilonWorksForSameNumberE+16, (%rax)
 3106      000000
 3107              	.LBE42:
 3108 1437 C9       		leave
 3109              		.cfi_def_cfa 7, 8
 3110 1438 C3       		ret
 3111              		.cfi_endproc
 3112              	.LFE1120:
 3114              		.local	_ZN12_GLOBAL__N_155testCheckCloseWithZeroEpsilonWorksForSameNumberInstanceE
 3115              		.comm	_ZN12_GLOBAL__N_155testCheckCloseWithZeroEpsilonWorksForSameNumberInstanceE,56,32
 3116              		.local	_ZN12_GLOBAL__N_148adderCheckCloseWithZeroEpsilonWorksForSameNumberE
 3117              		.comm	_ZN12_GLOBAL__N_148adderCheckCloseWithZeroEpsilonWorksForSameNumberE,1,1
 3118 1439 90       		.align 2
 3120              	_ZNK12_GLOBAL__N_147TestCheckCloseWithZeroEpsilonWorksForSameNumber7RunImplEv:
 3121              	.LFB1122:
 114:TestChecks.cpp **** {
 3122              		.loc 5 114 0
 3123              		.cfi_startproc
 3124              		.cfi_personality 0x3,__gxx_personality_v0
 3125              		.cfi_lsda 0x3,.LLSDA1122
 3126 143a 55       		pushq	%rbp
 3127              		.cfi_def_cfa_offset 16
 3128              		.cfi_offset 6, -16
 3129 143b 4889E5   		movq	%rsp, %rbp
 3130              		.cfi_def_cfa_register 6
 3131 143e 53       		pushq	%rbx
 3132 143f 4883EC78 		subq	$120, %rsp
 3133              		.cfi_offset 3, -24
 3134 1443 48897D88 		movq	%rdi, -120(%rbp)
 3135              		.loc 5 114 0
 3136 1447 64488B04 		movq	%fs:40, %rax
 3136      25280000 
 3136      00
 3137 1450 488945E8 		movq	%rax, -24(%rbp)
 3138 1454 31C0     		xorl	%eax, %eax
 3139              	.LBB43:
 115:TestChecks.cpp ****     TestResults results;
 3140              		.loc 5 115 0
 3141 1456 488D45A0 		leaq	-96(%rbp), %rax
 3142 145a BE000000 		movl	$0, %esi
 3142      00
 3143 145f 4889C7   		movq	%rax, %rdi
 3144              	.LEHB73:
 3145 1462 E8000000 		call	_ZN8UnitTest11TestResultsC1EPNS_12TestReporterE
 3145      00
 116:TestChecks.cpp ****     CheckClose(results, 0.1f, 0.1f, 0, TestDetails("", "", "", 0));
 3146              		.loc 5 116 0
 3147 1467 488D45C0 		leaq	-64(%rbp), %rax
 3148 146b 41B80000 		movl	$0, %r8d
 3148      0000
 3149 1471 B9000000 		movl	$.LC6, %ecx
 3149      00
 3150 1476 BA000000 		movl	$.LC6, %edx
 3150      00
 3151 147b BE000000 		movl	$.LC6, %esi
 3151      00
 3152 1480 4889C7   		movq	%rax, %rdi
 3153 1483 E8000000 		call	_ZN8UnitTest11TestDetailsC1EPKcS2_S2_i
 3153      00
 3154 1488 C7459C00 		movl	$0, -100(%rbp)
 3154      000000
 3155 148f 8B050000 		movl	.LC31(%rip), %eax
 3155      0000
 3156 1495 894598   		movl	%eax, -104(%rbp)
 3157 1498 8B050000 		movl	.LC31(%rip), %eax
 3157      0000
 3158 149e 894594   		movl	%eax, -108(%rbp)
 3159 14a1 488D7DC0 		leaq	-64(%rbp), %rdi
 3160 14a5 488D4D9C 		leaq	-100(%rbp), %rcx
 3161 14a9 488D5598 		leaq	-104(%rbp), %rdx
 3162 14ad 488D7594 		leaq	-108(%rbp), %rsi
 3163 14b1 488D45A0 		leaq	-96(%rbp), %rax
 3164 14b5 4989F8   		movq	%rdi, %r8
 3165 14b8 4889C7   		movq	%rax, %rdi
 3166 14bb E8000000 		call	_ZN8UnitTest10CheckCloseIffiEEvRNS_11TestResultsERKT_RKT0_RKT1_RKNS_11TestDetailsE
 3166      00
 3167              	.LEHE73:
 3168              	.LEHB74:
 117:TestChecks.cpp ****     CHECK_EQUAL(0, results.GetFailureCount());
 3169              		.loc 5 117 0
 3170 14c0 E8000000 		call	_ZN8UnitTest11CurrentTest7DetailsEv
 3170      00
 3171 14c5 488B08   		movq	(%rax), %rcx
 3172 14c8 488D45C0 		leaq	-64(%rbp), %rax
 3173 14cc BA750000 		movl	$117, %edx
 3173      00
 3174 14d1 4889CE   		movq	%rcx, %rsi
 3175 14d4 4889C7   		movq	%rax, %rdi
 3176 14d7 E8000000 		call	_ZN8UnitTest11TestDetailsC1ERKS0_i
 3176      00
 3177              		.loc 5 117 0 is_stmt 0 discriminator 2
 3178 14dc 488D45A0 		leaq	-96(%rbp), %rax
 3179 14e0 4889C7   		movq	%rax, %rdi
 3180 14e3 E8000000 		call	_ZNK8UnitTest11TestResults15GetFailureCountEv
 3180      00
 3181 14e8 89459C   		movl	%eax, -100(%rbp)
 3182 14eb C7459800 		movl	$0, -104(%rbp)
 3182      000000
 3183 14f2 E8000000 		call	_ZN8UnitTest11CurrentTest7ResultsEv
 3183      00
 3184              		.loc 5 117 0 discriminator 4
 3185 14f7 488B00   		movq	(%rax), %rax
 3186 14fa 488D4DC0 		leaq	-64(%rbp), %rcx
 3187 14fe 488D559C 		leaq	-100(%rbp), %rdx
 3188 1502 488D7598 		leaq	-104(%rbp), %rsi
 3189 1506 4889C7   		movq	%rax, %rdi
 3190 1509 E8000000 		call	_ZN8UnitTest10CheckEqualIiiEEvRNS_11TestResultsERKT_RKT0_RKNS_11TestDetailsE
 3190      00
 3191              	.LEHE74:
 3192              	.LBE43:
 118:TestChecks.cpp **** }
 3193              		.loc 5 118 0 is_stmt 1
 3194 150e EB58     		jmp	.L146
 3195              	.L145:
 3196 1510 4889C3   		movq	%rax, %rbx
 3197              	.LBB44:
 117:TestChecks.cpp ****     CHECK_EQUAL(0, results.GetFailureCount());
 3198              		.loc 5 117 0
 3199 1513 E8000000 		call	__cxa_end_catch
 3199      00
 3200 1518 4889D8   		movq	%rbx, %rax
 3201 151b 4889C7   		movq	%rax, %rdi
 3202              	.LEHB75:
 3203 151e E8000000 		call	_Unwind_Resume
 3203      00
 3204              	.LEHE75:
 3205              	.L144:
 3206 1523 4889C7   		movq	%rax, %rdi
 3207 1526 E8000000 		call	__cxa_begin_catch
 3207      00
 3208              	.LEHB76:
 3209 152b E8000000 		call	_ZN8UnitTest11CurrentTest7DetailsEv
 3209      00
 3210 1530 488B08   		movq	(%rax), %rcx
 3211 1533 488D45C0 		leaq	-64(%rbp), %rax
 3212 1537 BA750000 		movl	$117, %edx
 3212      00
 3213 153c 4889CE   		movq	%rcx, %rsi
 3214 153f 4889C7   		movq	%rax, %rdi
 3215 1542 E8000000 		call	_ZN8UnitTest11TestDetailsC1ERKS0_i
 3215      00
 117:TestChecks.cpp ****     CHECK_EQUAL(0, results.GetFailureCount());
 3216              		.loc 5 117 0 is_stmt 0 discriminator 12
 3217 1547 E8000000 		call	_ZN8UnitTest11CurrentTest7ResultsEv
 3217      00
 3218 154c 488B00   		movq	(%rax), %rax
 3219 154f 488D4DC0 		leaq	-64(%rbp), %rcx
 3220 1553 BA000000 		movl	$.LC9, %edx
 3220      00
 3221 1558 4889CE   		movq	%rcx, %rsi
 3222 155b 4889C7   		movq	%rax, %rdi
 3223 155e E8000000 		call	_ZN8UnitTest11TestResults13OnTestFailureERKNS_11TestDetailsEPKc
 3223      00
 3224              	.LEHE76:
 3225              	.LEHB77:
 117:TestChecks.cpp ****     CHECK_EQUAL(0, results.GetFailureCount());
 3226              		.loc 5 117 0 discriminator 16
 3227 1563 E8000000 		call	__cxa_end_catch
 3227      00
 3228              	.LEHE77:
 3229              	.L146:
 3230              	.LBE44:
 3231              		.loc 5 118 0 is_stmt 1
 3232 1568 90       		nop
 3233 1569 488B45E8 		movq	-24(%rbp), %rax
 3234 156d 64483304 		xorq	%fs:40, %rax
 3234      25280000 
 3234      00
 3235 1576 7405     		je	.L143
 3236 1578 E8000000 		call	__stack_chk_fail
 3236      00
 3237              	.L143:
 3238 157d 4883C478 		addq	$120, %rsp
 3239 1581 5B       		popq	%rbx
 3240 1582 5D       		popq	%rbp
 3241              		.cfi_def_cfa 7, 8
 3242 1583 C3       		ret
 3243              		.cfi_endproc
 3244              	.LFE1122:
 3245              		.section	.gcc_except_table
 3246              		.align 4
 3247              	.LLSDA1122:
 3248 0204 FF       		.byte	0xff
 3249 0205 03       		.byte	0x3
 3250 0206 25       		.uleb128 .LLSDATT1122-.LLSDATTD1122
 3251              	.LLSDATTD1122:
 3252 0207 01       		.byte	0x1
 3253 0208 1A       		.uleb128 .LLSDACSE1122-.LLSDACSB1122
 3254              	.LLSDACSB1122:
 3255 0209 28       		.uleb128 .LEHB73-.LFB1122
 3256 020a 5E       		.uleb128 .LEHE73-.LEHB73
 3257 020b 00       		.uleb128 0
 3258 020c 00       		.uleb128 0
 3259 020d 8601     		.uleb128 .LEHB74-.LFB1122
 3260 020f 4E       		.uleb128 .LEHE74-.LEHB74
 3261 0210 E901     		.uleb128 .L144-.LFB1122
 3262 0212 01       		.uleb128 0x1
 3263 0213 E401     		.uleb128 .LEHB75-.LFB1122
 3264 0215 05       		.uleb128 .LEHE75-.LEHB75
 3265 0216 00       		.uleb128 0
 3266 0217 00       		.uleb128 0
 3267 0218 F101     		.uleb128 .LEHB76-.LFB1122
 3268 021a 38       		.uleb128 .LEHE76-.LEHB76
 3269 021b D601     		.uleb128 .L145-.LFB1122
 3270 021d 00       		.uleb128 0
 3271 021e A902     		.uleb128 .LEHB77-.LFB1122
 3272 0220 05       		.uleb128 .LEHE77-.LEHB77
 3273 0221 00       		.uleb128 0
 3274 0222 00       		.uleb128 0
 3275              	.LLSDACSE1122:
 3276 0223 01       		.byte	0x1
 3277 0224 00       		.byte	0
 3278 0225 000000   		.align 4
 3279 0228 00000000 		.long	0
 3280              	
 3281              	.LLSDATT1122:
 3282              		.text
 3284              		.section	.rodata
 3285              	.LC37:
 3286 052c 43686563 		.string	"CheckCloseWithNaNFails"
 3286      6B436C6F 
 3286      73655769 
 3286      74684E61 
 3286      4E466169 
 3287              		.text
 3288              		.align 2
 3290              	_ZN12_GLOBAL__N_126TestCheckCloseWithNaNFailsC2Ev:
 3291              	.LFB1124:
 119:TestChecks.cpp **** 
 120:TestChecks.cpp **** TEST(CheckCloseWithNaNFails)
 3292              		.loc 5 120 0
 3293              		.cfi_startproc
 3294 1584 55       		pushq	%rbp
 3295              		.cfi_def_cfa_offset 16
 3296              		.cfi_offset 6, -16
 3297 1585 4889E5   		movq	%rsp, %rbp
 3298              		.cfi_def_cfa_register 6
 3299 1588 4883EC10 		subq	$16, %rsp
 3300 158c 48897DF8 		movq	%rdi, -8(%rbp)
 3301              	.LBB45:
 3302              		.loc 5 120 0
 3303 1590 E8000000 		call	_ZN13UnitTestSuite12GetSuiteNameEv
 3303      00
 3304 1595 4889C2   		movq	%rax, %rdx
 3305 1598 488B45F8 		movq	-8(%rbp), %rax
 3306 159c 41B87800 		movl	$120, %r8d
 3306      0000
 3307 15a2 B9000000 		movl	$.LC2, %ecx
 3307      00
 3308 15a7 BE000000 		movl	$.LC37, %esi
 3308      00
 3309 15ac 4889C7   		movq	%rax, %rdi
 3310 15af E8000000 		call	_ZN8UnitTest4TestC2EPKcS2_S2_i
 3310      00
 3311 15b4 488B45F8 		movq	-8(%rbp), %rax
 3312 15b8 48C70000 		movq	$_ZTVN12_GLOBAL__N_126TestCheckCloseWithNaNFailsE+16, (%rax)
 3312      000000
 3313              	.LBE45:
 3314 15bf C9       		leave
 3315              		.cfi_def_cfa 7, 8
 3316 15c0 C3       		ret
 3317              		.cfi_endproc
 3318              	.LFE1124:
 3320              		.local	_ZN12_GLOBAL__N_134testCheckCloseWithNaNFailsInstanceE
 3321              		.comm	_ZN12_GLOBAL__N_134testCheckCloseWithNaNFailsInstanceE,56,32
 3322              		.local	_ZN12_GLOBAL__N_127adderCheckCloseWithNaNFailsE
 3323              		.comm	_ZN12_GLOBAL__N_127adderCheckCloseWithNaNFailsE,1,1
 3324 15c1 90       		.align 2
 3326              	_ZNK12_GLOBAL__N_126TestCheckCloseWithNaNFails7RunImplEv:
 3327              	.LFB1126:
 121:TestChecks.cpp **** {
 3328              		.loc 5 121 0
 3329              		.cfi_startproc
 3330              		.cfi_personality 0x3,__gxx_personality_v0
 3331              		.cfi_lsda 0x3,.LLSDA1126
 3332 15c2 55       		pushq	%rbp
 3333              		.cfi_def_cfa_offset 16
 3334              		.cfi_offset 6, -16
 3335 15c3 4889E5   		movq	%rsp, %rbp
 3336              		.cfi_def_cfa_register 6
 3337 15c6 53       		pushq	%rbx
 3338 15c7 4883EC78 		subq	$120, %rsp
 3339              		.cfi_offset 3, -24
 3340 15cb 48897D88 		movq	%rdi, -120(%rbp)
 3341              		.loc 5 121 0
 3342 15cf 64488B04 		movq	%fs:40, %rax
 3342      25280000 
 3342      00
 3343 15d8 488945E8 		movq	%rax, -24(%rbp)
 3344 15dc 31C0     		xorl	%eax, %eax
 3345              	.LBB46:
 122:TestChecks.cpp ****     union
 123:TestChecks.cpp ****     {
 124:TestChecks.cpp ****         unsigned int bitpattern;
 125:TestChecks.cpp ****         float nan;
 126:TestChecks.cpp ****     };
 127:TestChecks.cpp ****     bitpattern = 0xFFFFFFFF;
 3346              		.loc 5 127 0
 3347 15de C74590FF 		movl	$-1, -112(%rbp)
 3347      FFFFFF
 128:TestChecks.cpp ****     TestResults results;
 3348              		.loc 5 128 0
 3349 15e5 488D45A0 		leaq	-96(%rbp), %rax
 3350 15e9 BE000000 		movl	$0, %esi
 3350      00
 3351 15ee 4889C7   		movq	%rax, %rdi
 3352              	.LEHB78:
 3353 15f1 E8000000 		call	_ZN8UnitTest11TestResultsC1EPNS_12TestReporterE
 3353      00
 129:TestChecks.cpp ****     CheckClose(results, 3.0f, nan, 0.1f, TestDetails("", "", "", 0));
 3354              		.loc 5 129 0
 3355 15f6 488D45C0 		leaq	-64(%rbp), %rax
 3356 15fa 41B80000 		movl	$0, %r8d
 3356      0000
 3357 1600 B9000000 		movl	$.LC6, %ecx
 3357      00
 3358 1605 BA000000 		movl	$.LC6, %edx
 3358      00
 3359 160a BE000000 		movl	$.LC6, %esi
 3359      00
 3360 160f 4889C7   		movq	%rax, %rdi
 3361 1612 E8000000 		call	_ZN8UnitTest11TestDetailsC1EPKcS2_S2_i
 3361      00
 3362 1617 8B050000 		movl	.LC31(%rip), %eax
 3362      0000
 3363 161d 89459C   		movl	%eax, -100(%rbp)
 3364 1620 8B050000 		movl	.LC32(%rip), %eax
 3364      0000
 3365 1626 894598   		movl	%eax, -104(%rbp)
 3366 1629 488D7DC0 		leaq	-64(%rbp), %rdi
 3367 162d 488D4D9C 		leaq	-100(%rbp), %rcx
 3368 1631 488D5590 		leaq	-112(%rbp), %rdx
 3369 1635 488D7598 		leaq	-104(%rbp), %rsi
 3370 1639 488D45A0 		leaq	-96(%rbp), %rax
 3371 163d 4989F8   		movq	%rdi, %r8
 3372 1640 4889C7   		movq	%rax, %rdi
 3373 1643 E8000000 		call	_ZN8UnitTest10CheckCloseIfffEEvRNS_11TestResultsERKT_RKT0_RKT1_RKNS_11TestDetailsE
 3373      00
 3374              	.LEHE78:
 3375              	.LEHB79:
 130:TestChecks.cpp ****     CHECK_EQUAL(1, results.GetFailureCount());
 3376              		.loc 5 130 0
 3377 1648 E8000000 		call	_ZN8UnitTest11CurrentTest7DetailsEv
 3377      00
 3378 164d 488B08   		movq	(%rax), %rcx
 3379 1650 488D45C0 		leaq	-64(%rbp), %rax
 3380 1654 BA820000 		movl	$130, %edx
 3380      00
 3381 1659 4889CE   		movq	%rcx, %rsi
 3382 165c 4889C7   		movq	%rax, %rdi
 3383 165f E8000000 		call	_ZN8UnitTest11TestDetailsC1ERKS0_i
 3383      00
 3384              		.loc 5 130 0 is_stmt 0 discriminator 2
 3385 1664 488D45A0 		leaq	-96(%rbp), %rax
 3386 1668 4889C7   		movq	%rax, %rdi
 3387 166b E8000000 		call	_ZNK8UnitTest11TestResults15GetFailureCountEv
 3387      00
 3388 1670 89459C   		movl	%eax, -100(%rbp)
 3389 1673 C7459801 		movl	$1, -104(%rbp)
 3389      000000
 3390 167a E8000000 		call	_ZN8UnitTest11CurrentTest7ResultsEv
 3390      00
 3391              		.loc 5 130 0 discriminator 4
 3392 167f 488B00   		movq	(%rax), %rax
 3393 1682 488D4DC0 		leaq	-64(%rbp), %rcx
 3394 1686 488D559C 		leaq	-100(%rbp), %rdx
 3395 168a 488D7598 		leaq	-104(%rbp), %rsi
 3396 168e 4889C7   		movq	%rax, %rdi
 3397 1691 E8000000 		call	_ZN8UnitTest10CheckEqualIiiEEvRNS_11TestResultsERKT_RKT0_RKNS_11TestDetailsE
 3397      00
 3398              	.LEHE79:
 3399              	.LBE46:
 131:TestChecks.cpp **** }
 3400              		.loc 5 131 0 is_stmt 1
 3401 1696 EB58     		jmp	.L155
 3402              	.L154:
 3403 1698 4889C3   		movq	%rax, %rbx
 3404              	.LBB47:
 130:TestChecks.cpp ****     CHECK_EQUAL(1, results.GetFailureCount());
 3405              		.loc 5 130 0
 3406 169b E8000000 		call	__cxa_end_catch
 3406      00
 3407 16a0 4889D8   		movq	%rbx, %rax
 3408 16a3 4889C7   		movq	%rax, %rdi
 3409              	.LEHB80:
 3410 16a6 E8000000 		call	_Unwind_Resume
 3410      00
 3411              	.LEHE80:
 3412              	.L153:
 3413 16ab 4889C7   		movq	%rax, %rdi
 3414 16ae E8000000 		call	__cxa_begin_catch
 3414      00
 3415              	.LEHB81:
 3416 16b3 E8000000 		call	_ZN8UnitTest11CurrentTest7DetailsEv
 3416      00
 3417 16b8 488B08   		movq	(%rax), %rcx
 3418 16bb 488D45C0 		leaq	-64(%rbp), %rax
 3419 16bf BA820000 		movl	$130, %edx
 3419      00
 3420 16c4 4889CE   		movq	%rcx, %rsi
 3421 16c7 4889C7   		movq	%rax, %rdi
 3422 16ca E8000000 		call	_ZN8UnitTest11TestDetailsC1ERKS0_i
 3422      00
 130:TestChecks.cpp ****     CHECK_EQUAL(1, results.GetFailureCount());
 3423              		.loc 5 130 0 is_stmt 0 discriminator 12
 3424 16cf E8000000 		call	_ZN8UnitTest11CurrentTest7ResultsEv
 3424      00
 3425 16d4 488B00   		movq	(%rax), %rax
 3426 16d7 488D4DC0 		leaq	-64(%rbp), %rcx
 3427 16db BA000000 		movl	$.LC7, %edx
 3427      00
 3428 16e0 4889CE   		movq	%rcx, %rsi
 3429 16e3 4889C7   		movq	%rax, %rdi
 3430 16e6 E8000000 		call	_ZN8UnitTest11TestResults13OnTestFailureERKNS_11TestDetailsEPKc
 3430      00
 3431              	.LEHE81:
 3432              	.LEHB82:
 130:TestChecks.cpp ****     CHECK_EQUAL(1, results.GetFailureCount());
 3433              		.loc 5 130 0 discriminator 16
 3434 16eb E8000000 		call	__cxa_end_catch
 3434      00
 3435              	.LEHE82:
 3436              	.L155:
 3437              	.LBE47:
 3438              		.loc 5 131 0 is_stmt 1
 3439 16f0 90       		nop
 3440 16f1 488B45E8 		movq	-24(%rbp), %rax
 3441 16f5 64483304 		xorq	%fs:40, %rax
 3441      25280000 
 3441      00
 3442 16fe 7405     		je	.L152
 3443 1700 E8000000 		call	__stack_chk_fail
 3443      00
 3444              	.L152:
 3445 1705 4883C478 		addq	$120, %rsp
 3446 1709 5B       		popq	%rbx
 3447 170a 5D       		popq	%rbp
 3448              		.cfi_def_cfa 7, 8
 3449 170b C3       		ret
 3450              		.cfi_endproc
 3451              	.LFE1126:
 3452              		.section	.gcc_except_table
 3453              		.align 4
 3454              	.LLSDA1126:
 3455 022c FF       		.byte	0xff
 3456 022d 03       		.byte	0x3
 3457 022e 25       		.uleb128 .LLSDATT1126-.LLSDATTD1126
 3458              	.LLSDATTD1126:
 3459 022f 01       		.byte	0x1
 3460 0230 1A       		.uleb128 .LLSDACSE1126-.LLSDACSB1126
 3461              	.LLSDACSB1126:
 3462 0231 2F       		.uleb128 .LEHB78-.LFB1126
 3463 0232 57       		.uleb128 .LEHE78-.LEHB78
 3464 0233 00       		.uleb128 0
 3465 0234 00       		.uleb128 0
 3466 0235 8601     		.uleb128 .LEHB79-.LFB1126
 3467 0237 4E       		.uleb128 .LEHE79-.LEHB79
 3468 0238 E901     		.uleb128 .L153-.LFB1126
 3469 023a 01       		.uleb128 0x1
 3470 023b E401     		.uleb128 .LEHB80-.LFB1126
 3471 023d 05       		.uleb128 .LEHE80-.LEHB80
 3472 023e 00       		.uleb128 0
 3473 023f 00       		.uleb128 0
 3474 0240 F101     		.uleb128 .LEHB81-.LFB1126
 3475 0242 38       		.uleb128 .LEHE81-.LEHB81
 3476 0243 D601     		.uleb128 .L154-.LFB1126
 3477 0245 00       		.uleb128 0
 3478 0246 A902     		.uleb128 .LEHB82-.LFB1126
 3479 0248 05       		.uleb128 .LEHE82-.LEHB82
 3480 0249 00       		.uleb128 0
 3481 024a 00       		.uleb128 0
 3482              	.LLSDACSE1126:
 3483 024b 01       		.byte	0x1
 3484 024c 00       		.byte	0
 3485 024d 000000   		.align 4
 3486 0250 00000000 		.long	0
 3487              	
 3488              	.LLSDATT1126:
 3489              		.text
 3491              		.section	.rodata
 3492 0543 00000000 		.align 8
 3492      00
 3493              	.LC38:
 3494 0548 43686563 		.string	"CheckCloseWithNaNAgainstItselfFails"
 3494      6B436C6F 
 3494      73655769 
 3494      74684E61 
 3494      4E416761 
 3495              		.text
 3496              		.align 2
 3498              	_ZN12_GLOBAL__N_139TestCheckCloseWithNaNAgainstItselfFailsC2Ev:
 3499              	.LFB1128:
 132:TestChecks.cpp **** 
 133:TestChecks.cpp **** TEST(CheckCloseWithNaNAgainstItselfFails)
 3500              		.loc 5 133 0
 3501              		.cfi_startproc
 3502 170c 55       		pushq	%rbp
 3503              		.cfi_def_cfa_offset 16
 3504              		.cfi_offset 6, -16
 3505 170d 4889E5   		movq	%rsp, %rbp
 3506              		.cfi_def_cfa_register 6
 3507 1710 4883EC10 		subq	$16, %rsp
 3508 1714 48897DF8 		movq	%rdi, -8(%rbp)
 3509              	.LBB48:
 3510              		.loc 5 133 0
 3511 1718 E8000000 		call	_ZN13UnitTestSuite12GetSuiteNameEv
 3511      00
 3512 171d 4889C2   		movq	%rax, %rdx
 3513 1720 488B45F8 		movq	-8(%rbp), %rax
 3514 1724 41B88500 		movl	$133, %r8d
 3514      0000
 3515 172a B9000000 		movl	$.LC2, %ecx
 3515      00
 3516 172f BE000000 		movl	$.LC38, %esi
 3516      00
 3517 1734 4889C7   		movq	%rax, %rdi
 3518 1737 E8000000 		call	_ZN8UnitTest4TestC2EPKcS2_S2_i
 3518      00
 3519 173c 488B45F8 		movq	-8(%rbp), %rax
 3520 1740 48C70000 		movq	$_ZTVN12_GLOBAL__N_139TestCheckCloseWithNaNAgainstItselfFailsE+16, (%rax)
 3520      000000
 3521              	.LBE48:
 3522 1747 C9       		leave
 3523              		.cfi_def_cfa 7, 8
 3524 1748 C3       		ret
 3525              		.cfi_endproc
 3526              	.LFE1128:
 3528              		.local	_ZN12_GLOBAL__N_147testCheckCloseWithNaNAgainstItselfFailsInstanceE
 3529              		.comm	_ZN12_GLOBAL__N_147testCheckCloseWithNaNAgainstItselfFailsInstanceE,56,32
 3530              		.local	_ZN12_GLOBAL__N_140adderCheckCloseWithNaNAgainstItselfFailsE
 3531              		.comm	_ZN12_GLOBAL__N_140adderCheckCloseWithNaNAgainstItselfFailsE,1,1
 3532 1749 90       		.align 2
 3534              	_ZNK12_GLOBAL__N_139TestCheckCloseWithNaNAgainstItselfFails7RunImplEv:
 3535              	.LFB1130:
 134:TestChecks.cpp **** {
 3536              		.loc 5 134 0
 3537              		.cfi_startproc
 3538              		.cfi_personality 0x3,__gxx_personality_v0
 3539              		.cfi_lsda 0x3,.LLSDA1130
 3540 174a 55       		pushq	%rbp
 3541              		.cfi_def_cfa_offset 16
 3542              		.cfi_offset 6, -16
 3543 174b 4889E5   		movq	%rsp, %rbp
 3544              		.cfi_def_cfa_register 6
 3545 174e 53       		pushq	%rbx
 3546 174f 4883EC78 		subq	$120, %rsp
 3547              		.cfi_offset 3, -24
 3548 1753 48897D88 		movq	%rdi, -120(%rbp)
 3549              		.loc 5 134 0
 3550 1757 64488B04 		movq	%fs:40, %rax
 3550      25280000 
 3550      00
 3551 1760 488945E8 		movq	%rax, -24(%rbp)
 3552 1764 31C0     		xorl	%eax, %eax
 3553              	.LBB49:
 135:TestChecks.cpp ****     union
 136:TestChecks.cpp ****     {
 137:TestChecks.cpp ****         unsigned int bitpattern;
 138:TestChecks.cpp ****         float nan;
 139:TestChecks.cpp ****     };
 140:TestChecks.cpp ****     bitpattern = 0xFFFFFFFF;
 3554              		.loc 5 140 0
 3555 1766 C74590FF 		movl	$-1, -112(%rbp)
 3555      FFFFFF
 141:TestChecks.cpp ****     TestResults results;
 3556              		.loc 5 141 0
 3557 176d 488D45A0 		leaq	-96(%rbp), %rax
 3558 1771 BE000000 		movl	$0, %esi
 3558      00
 3559 1776 4889C7   		movq	%rax, %rdi
 3560              	.LEHB83:
 3561 1779 E8000000 		call	_ZN8UnitTest11TestResultsC1EPNS_12TestReporterE
 3561      00
 142:TestChecks.cpp ****     CheckClose(results, nan, nan, 0.1f, TestDetails("", "", "", 0));
 3562              		.loc 5 142 0
 3563 177e 488D45C0 		leaq	-64(%rbp), %rax
 3564 1782 41B80000 		movl	$0, %r8d
 3564      0000
 3565 1788 B9000000 		movl	$.LC6, %ecx
 3565      00
 3566 178d BA000000 		movl	$.LC6, %edx
 3566      00
 3567 1792 BE000000 		movl	$.LC6, %esi
 3567      00
 3568 1797 4889C7   		movq	%rax, %rdi
 3569 179a E8000000 		call	_ZN8UnitTest11TestDetailsC1EPKcS2_S2_i
 3569      00
 3570 179f 8B050000 		movl	.LC31(%rip), %eax
 3570      0000
 3571 17a5 89459C   		movl	%eax, -100(%rbp)
 3572 17a8 488D7DC0 		leaq	-64(%rbp), %rdi
 3573 17ac 488D4D9C 		leaq	-100(%rbp), %rcx
 3574 17b0 488D5590 		leaq	-112(%rbp), %rdx
 3575 17b4 488D7590 		leaq	-112(%rbp), %rsi
 3576 17b8 488D45A0 		leaq	-96(%rbp), %rax
 3577 17bc 4989F8   		movq	%rdi, %r8
 3578 17bf 4889C7   		movq	%rax, %rdi
 3579 17c2 E8000000 		call	_ZN8UnitTest10CheckCloseIfffEEvRNS_11TestResultsERKT_RKT0_RKT1_RKNS_11TestDetailsE
 3579      00
 3580              	.LEHE83:
 3581              	.LEHB84:
 143:TestChecks.cpp ****     CHECK_EQUAL(1, results.GetFailureCount());
 3582              		.loc 5 143 0
 3583 17c7 E8000000 		call	_ZN8UnitTest11CurrentTest7DetailsEv
 3583      00
 3584 17cc 488B08   		movq	(%rax), %rcx
 3585 17cf 488D45C0 		leaq	-64(%rbp), %rax
 3586 17d3 BA8F0000 		movl	$143, %edx
 3586      00
 3587 17d8 4889CE   		movq	%rcx, %rsi
 3588 17db 4889C7   		movq	%rax, %rdi
 3589 17de E8000000 		call	_ZN8UnitTest11TestDetailsC1ERKS0_i
 3589      00
 3590              		.loc 5 143 0 is_stmt 0 discriminator 2
 3591 17e3 488D45A0 		leaq	-96(%rbp), %rax
 3592 17e7 4889C7   		movq	%rax, %rdi
 3593 17ea E8000000 		call	_ZNK8UnitTest11TestResults15GetFailureCountEv
 3593      00
 3594 17ef 89459C   		movl	%eax, -100(%rbp)
 3595 17f2 C7459801 		movl	$1, -104(%rbp)
 3595      000000
 3596 17f9 E8000000 		call	_ZN8UnitTest11CurrentTest7ResultsEv
 3596      00
 3597              		.loc 5 143 0 discriminator 4
 3598 17fe 488B00   		movq	(%rax), %rax
 3599 1801 488D4DC0 		leaq	-64(%rbp), %rcx
 3600 1805 488D559C 		leaq	-100(%rbp), %rdx
 3601 1809 488D7598 		leaq	-104(%rbp), %rsi
 3602 180d 4889C7   		movq	%rax, %rdi
 3603 1810 E8000000 		call	_ZN8UnitTest10CheckEqualIiiEEvRNS_11TestResultsERKT_RKT0_RKNS_11TestDetailsE
 3603      00
 3604              	.LEHE84:
 3605              	.LBE49:
 144:TestChecks.cpp **** }
 3606              		.loc 5 144 0 is_stmt 1
 3607 1815 EB58     		jmp	.L164
 3608              	.L163:
 3609 1817 4889C3   		movq	%rax, %rbx
 3610              	.LBB50:
 143:TestChecks.cpp ****     CHECK_EQUAL(1, results.GetFailureCount());
 3611              		.loc 5 143 0
 3612 181a E8000000 		call	__cxa_end_catch
 3612      00
 3613 181f 4889D8   		movq	%rbx, %rax
 3614 1822 4889C7   		movq	%rax, %rdi
 3615              	.LEHB85:
 3616 1825 E8000000 		call	_Unwind_Resume
 3616      00
 3617              	.LEHE85:
 3618              	.L162:
 3619 182a 4889C7   		movq	%rax, %rdi
 3620 182d E8000000 		call	__cxa_begin_catch
 3620      00
 3621              	.LEHB86:
 3622 1832 E8000000 		call	_ZN8UnitTest11CurrentTest7DetailsEv
 3622      00
 3623 1837 488B08   		movq	(%rax), %rcx
 3624 183a 488D45C0 		leaq	-64(%rbp), %rax
 3625 183e BA8F0000 		movl	$143, %edx
 3625      00
 3626 1843 4889CE   		movq	%rcx, %rsi
 3627 1846 4889C7   		movq	%rax, %rdi
 3628 1849 E8000000 		call	_ZN8UnitTest11TestDetailsC1ERKS0_i
 3628      00
 143:TestChecks.cpp ****     CHECK_EQUAL(1, results.GetFailureCount());
 3629              		.loc 5 143 0 is_stmt 0 discriminator 12
 3630 184e E8000000 		call	_ZN8UnitTest11CurrentTest7ResultsEv
 3630      00
 3631 1853 488B00   		movq	(%rax), %rax
 3632 1856 488D4DC0 		leaq	-64(%rbp), %rcx
 3633 185a BA000000 		movl	$.LC7, %edx
 3633      00
 3634 185f 4889CE   		movq	%rcx, %rsi
 3635 1862 4889C7   		movq	%rax, %rdi
 3636 1865 E8000000 		call	_ZN8UnitTest11TestResults13OnTestFailureERKNS_11TestDetailsEPKc
 3636      00
 3637              	.LEHE86:
 3638              	.LEHB87:
 143:TestChecks.cpp ****     CHECK_EQUAL(1, results.GetFailureCount());
 3639              		.loc 5 143 0 discriminator 16
 3640 186a E8000000 		call	__cxa_end_catch
 3640      00
 3641              	.LEHE87:
 3642              	.L164:
 3643              	.LBE50:
 3644              		.loc 5 144 0 is_stmt 1
 3645 186f 90       		nop
 3646 1870 488B45E8 		movq	-24(%rbp), %rax
 3647 1874 64483304 		xorq	%fs:40, %rax
 3647      25280000 
 3647      00
 3648 187d 7405     		je	.L161
 3649 187f E8000000 		call	__stack_chk_fail
 3649      00
 3650              	.L161:
 3651 1884 4883C478 		addq	$120, %rsp
 3652 1888 5B       		popq	%rbx
 3653 1889 5D       		popq	%rbp
 3654              		.cfi_def_cfa 7, 8
 3655 188a C3       		ret
 3656              		.cfi_endproc
 3657              	.LFE1130:
 3658              		.section	.gcc_except_table
 3659              		.align 4
 3660              	.LLSDA1130:
 3661 0254 FF       		.byte	0xff
 3662 0255 03       		.byte	0x3
 3663 0256 21       		.uleb128 .LLSDATT1130-.LLSDATTD1130
 3664              	.LLSDATTD1130:
 3665 0257 01       		.byte	0x1
 3666 0258 19       		.uleb128 .LLSDACSE1130-.LLSDACSB1130
 3667              	.LLSDACSB1130:
 3668 0259 2F       		.uleb128 .LEHB83-.LFB1130
 3669 025a 4E       		.uleb128 .LEHE83-.LEHB83
 3670 025b 00       		.uleb128 0
 3671 025c 00       		.uleb128 0
 3672 025d 7D       		.uleb128 .LEHB84-.LFB1130
 3673 025e 4E       		.uleb128 .LEHE84-.LEHB84
 3674 025f E001     		.uleb128 .L162-.LFB1130
 3675 0261 01       		.uleb128 0x1
 3676 0262 DB01     		.uleb128 .LEHB85-.LFB1130
 3677 0264 05       		.uleb128 .LEHE85-.LEHB85
 3678 0265 00       		.uleb128 0
 3679 0266 00       		.uleb128 0
 3680 0267 E801     		.uleb128 .LEHB86-.LFB1130
 3681 0269 38       		.uleb128 .LEHE86-.LEHB86
 3682 026a CD01     		.uleb128 .L163-.LFB1130
 3683 026c 00       		.uleb128 0
 3684 026d A002     		.uleb128 .LEHB87-.LFB1130
 3685 026f 05       		.uleb128 .LEHE87-.LEHB87
 3686 0270 00       		.uleb128 0
 3687 0271 00       		.uleb128 0
 3688              	.LLSDACSE1130:
 3689 0272 01       		.byte	0x1
 3690 0273 00       		.byte	0
 3691              		.align 4
 3692 0274 00000000 		.long	0
 3693              	
 3694              	.LLSDATT1130:
 3695              		.text
 3697              		.section	.rodata
 3698 056c 00000000 		.align 8
 3699              	.LC39:
 3700 0570 43686563 		.string	"CheckCloseFailureIncludesCheckExpectedAndActual"
 3700      6B436C6F 
 3700      73654661 
 3700      696C7572 
 3700      65496E63 
 3701              		.text
 3702 188b 90       		.align 2
 3704              	_ZN12_GLOBAL__N_151TestCheckCloseFailureIncludesCheckExpectedAndActualC2Ev:
 3705              	.LFB1132:
 145:TestChecks.cpp **** 
 146:TestChecks.cpp **** TEST(CheckCloseFailureIncludesCheckExpectedAndActual)
 3706              		.loc 5 146 0
 3707              		.cfi_startproc
 3708 188c 55       		pushq	%rbp
 3709              		.cfi_def_cfa_offset 16
 3710              		.cfi_offset 6, -16
 3711 188d 4889E5   		movq	%rsp, %rbp
 3712              		.cfi_def_cfa_register 6
 3713 1890 4883EC10 		subq	$16, %rsp
 3714 1894 48897DF8 		movq	%rdi, -8(%rbp)
 3715              	.LBB51:
 3716              		.loc 5 146 0
 3717 1898 E8000000 		call	_ZN13UnitTestSuite12GetSuiteNameEv
 3717      00
 3718 189d 4889C2   		movq	%rax, %rdx
 3719 18a0 488B45F8 		movq	-8(%rbp), %rax
 3720 18a4 41B89200 		movl	$146, %r8d
 3720      0000
 3721 18aa B9000000 		movl	$.LC2, %ecx
 3721      00
 3722 18af BE000000 		movl	$.LC39, %esi
 3722      00
 3723 18b4 4889C7   		movq	%rax, %rdi
 3724 18b7 E8000000 		call	_ZN8UnitTest4TestC2EPKcS2_S2_i
 3724      00
 3725 18bc 488B45F8 		movq	-8(%rbp), %rax
 3726 18c0 48C70000 		movq	$_ZTVN12_GLOBAL__N_151TestCheckCloseFailureIncludesCheckExpectedAndActualE+16, (%rax)
 3726      000000
 3727              	.LBE51:
 3728 18c7 C9       		leave
 3729              		.cfi_def_cfa 7, 8
 3730 18c8 C3       		ret
 3731              		.cfi_endproc
 3732              	.LFE1132:
 3734              		.local	_ZN12_GLOBAL__N_159testCheckCloseFailureIncludesCheckExpectedAndActualInstanceE
 3735              		.comm	_ZN12_GLOBAL__N_159testCheckCloseFailureIncludesCheckExpectedAndActualInstanceE,56,32
 3736              		.local	_ZN12_GLOBAL__N_152adderCheckCloseFailureIncludesCheckExpectedAndActualE
 3737              		.comm	_ZN12_GLOBAL__N_152adderCheckCloseFailureIncludesCheckExpectedAndActualE,1,1
 3738              		.section	.rodata
 3739              	.LC43:
 3740 05a0 78706563 		.string	"xpected 0.9"
 3740      74656420 
 3740      302E3900 
 3741 05ac 00000000 		.align 8
 3742              	.LC44:
 3743 05b0 73747273 		.string	"strstr(reporter.lastFailedMessage, \"xpected 0.9\")"
 3743      74722872 
 3743      65706F72 
 3743      7465722E 
 3743      6C617374 
 3744              	.LC45:
 3745 05e2 77617320 		.string	"was 1.1"
 3745      312E3100 
 3746 05ea 00000000 		.align 8
 3746      0000
 3747              	.LC46:
 3748 05f0 73747273 		.string	"strstr(reporter.lastFailedMessage, \"was 1.1\")"
 3748      74722872 
 3748      65706F72 
 3748      7465722E 
 3748      6C617374 
 3749 061e 0000     		.align 8
 3750              	.LC47:
 3751 0620 556E6861 		.string	"Unhandled exception in CHECK(strstr(reporter.lastFailedMessage, \"xpected 0.9\"))"
 3751      6E646C65 
 3751      64206578 
 3751      63657074 
 3751      696F6E20 
 3752              		.align 8
 3753              	.LC48:
 3754 0670 556E6861 		.string	"Unhandled exception in CHECK(strstr(reporter.lastFailedMessage, \"was 1.1\"))"
 3754      6E646C65 
 3754      64206578 
 3754      63657074 
 3754      696F6E20 
 3755              		.text
 3756 18c9 90       		.align 2
 3758              	_ZNK12_GLOBAL__N_151TestCheckCloseFailureIncludesCheckExpectedAndActual7RunImplEv:
 3759              	.LFB1134:
 147:TestChecks.cpp **** {
 3760              		.loc 5 147 0
 3761              		.cfi_startproc
 3762              		.cfi_personality 0x3,__gxx_personality_v0
 3763              		.cfi_lsda 0x3,.LLSDA1134
 3764 18ca 55       		pushq	%rbp
 3765              		.cfi_def_cfa_offset 16
 3766              		.cfi_offset 6, -16
 3767 18cb 4889E5   		movq	%rsp, %rbp
 3768              		.cfi_def_cfa_register 6
 3769 18ce 53       		pushq	%rbx
 3770 18cf 4881ECA8 		subq	$2216, %rsp
 3770      080000
 3771              		.cfi_offset 3, -24
 3772 18d6 4889BD58 		movq	%rdi, -2216(%rbp)
 3772      F7FFFF
 3773              		.loc 5 147 0
 3774 18dd 64488B04 		movq	%fs:40, %rax
 3774      25280000 
 3774      00
 3775 18e6 488945E8 		movq	%rax, -24(%rbp)
 3776 18ea 31C0     		xorl	%eax, %eax
 3777              	.LBB52:
 148:TestChecks.cpp ****     RecordingReporter reporter;
 3778              		.loc 5 148 0
 3779 18ec 488D85B0 		leaq	-2128(%rbp), %rax
 3779      F7FFFF
 3780 18f3 4889C7   		movq	%rax, %rdi
 3781 18f6 E8000000 		call	_ZN17RecordingReporterC1Ev
 3781      00
 149:TestChecks.cpp ****     TestResults results(&reporter);
 3782              		.loc 5 149 0
 3783 18fb 488D95B0 		leaq	-2128(%rbp), %rdx
 3783      F7FFFF
 3784 1902 488D8570 		leaq	-2192(%rbp), %rax
 3784      F7FFFF
 3785 1909 4889D6   		movq	%rdx, %rsi
 3786 190c 4889C7   		movq	%rax, %rdi
 3787              	.LEHB88:
 3788 190f E8000000 		call	_ZN8UnitTest11TestResultsC1EPNS_12TestReporterE
 3788      00
 150:TestChecks.cpp ****     const float expected = 0.9f;
 3789              		.loc 5 150 0
 3790 1914 8B050000 		movl	.LC40(%rip), %eax
 3790      0000
 3791 191a 898564F7 		movl	%eax, -2204(%rbp)
 3791      FFFF
 151:TestChecks.cpp ****     const float actual = 1.1f;
 3792              		.loc 5 151 0
 3793 1920 8B050000 		movl	.LC41(%rip), %eax
 3793      0000
 3794 1926 898568F7 		movl	%eax, -2200(%rbp)
 3794      FFFF
 152:TestChecks.cpp ****     CheckClose(results, expected, actual, 0.01f, TestDetails("", "", "", 0));
 3795              		.loc 5 152 0
 3796 192c 488D8590 		leaq	-2160(%rbp), %rax
 3796      F7FFFF
 3797 1933 41B80000 		movl	$0, %r8d
 3797      0000
 3798 1939 B9000000 		movl	$.LC6, %ecx
 3798      00
 3799 193e BA000000 		movl	$.LC6, %edx
 3799      00
 3800 1943 BE000000 		movl	$.LC6, %esi
 3800      00
 3801 1948 4889C7   		movq	%rax, %rdi
 3802 194b E8000000 		call	_ZN8UnitTest11TestDetailsC1EPKcS2_S2_i
 3802      00
 3803              		.loc 5 152 0 is_stmt 0 discriminator 1
 3804 1950 8B050000 		movl	.LC42(%rip), %eax
 3804      0000
 3805 1956 89856CF7 		movl	%eax, -2196(%rbp)
 3805      FFFF
 3806 195c 488DBD90 		leaq	-2160(%rbp), %rdi
 3806      F7FFFF
 3807 1963 488D8D6C 		leaq	-2196(%rbp), %rcx
 3807      F7FFFF
 3808 196a 488D9568 		leaq	-2200(%rbp), %rdx
 3808      F7FFFF
 3809 1971 488DB564 		leaq	-2204(%rbp), %rsi
 3809      F7FFFF
 3810 1978 488D8570 		leaq	-2192(%rbp), %rax
 3810      F7FFFF
 3811 197f 4989F8   		movq	%rdi, %r8
 3812 1982 4889C7   		movq	%rax, %rdi
 3813 1985 E8000000 		call	_ZN8UnitTest10CheckCloseIfffEEvRNS_11TestResultsERKT_RKT0_RKT1_RKNS_11TestDetailsE
 3813      00
 3814              	.LEHE88:
 153:TestChecks.cpp **** 
 154:TestChecks.cpp **** 	using namespace std;
 155:TestChecks.cpp ****     CHECK(strstr(reporter.lastFailedMessage, "xpected 0.9"));
 3815              		.loc 5 155 0 is_stmt 1 discriminator 3
 3816 198a 488D85B0 		leaq	-2128(%rbp), %rax
 3816      F7FFFF
 3817 1991 48051405 		addq	$1300, %rax
 3817      0000
 3818 1997 BE000000 		movl	$.LC43, %esi
 3818      00
 3819 199c 4889C7   		movq	%rax, %rdi
 3820 199f E8000000 		call	strstr
 3820      00
 3821 19a4 4889C7   		movq	%rax, %rdi
 3822 19a7 E8000000 		call	_ZN8UnitTest5CheckIPcEEbT_
 3822      00
 3823 19ac 83F001   		xorl	$1, %eax
 3824 19af 84C0     		testb	%al, %al
 3825 19b1 743E     		je	.L167
 3826              	.LEHB89:
 3827              		.loc 5 155 0 is_stmt 0 discriminator 1
 3828 19b3 E8000000 		call	_ZN8UnitTest11CurrentTest7DetailsEv
 3828      00
 3829 19b8 488B08   		movq	(%rax), %rcx
 3830 19bb 488D8590 		leaq	-2160(%rbp), %rax
 3830      F7FFFF
 3831 19c2 BA9B0000 		movl	$155, %edx
 3831      00
 3832 19c7 4889CE   		movq	%rcx, %rsi
 3833 19ca 4889C7   		movq	%rax, %rdi
 3834 19cd E8000000 		call	_ZN8UnitTest11TestDetailsC1ERKS0_i
 3834      00
 3835              		.loc 5 155 0 discriminator 3
 3836 19d2 E8000000 		call	_ZN8UnitTest11CurrentTest7ResultsEv
 3836      00
 3837 19d7 488B00   		movq	(%rax), %rax
 3838 19da 488D8D90 		leaq	-2160(%rbp), %rcx
 3838      F7FFFF
 3839 19e1 BA000000 		movl	$.LC44, %edx
 3839      00
 3840 19e6 4889CE   		movq	%rcx, %rsi
 3841 19e9 4889C7   		movq	%rax, %rdi
 3842 19ec E8000000 		call	_ZN8UnitTest11TestResults13OnTestFailureERKNS_11TestDetailsEPKc
 3842      00
 3843              	.LEHE89:
 3844              	.L167:
 156:TestChecks.cpp ****     CHECK(strstr(reporter.lastFailedMessage, "was 1.1"));
 3845              		.loc 5 156 0 is_stmt 1
 3846 19f1 488D85B0 		leaq	-2128(%rbp), %rax
 3846      F7FFFF
 3847 19f8 48051405 		addq	$1300, %rax
 3847      0000
 3848 19fe BE000000 		movl	$.LC45, %esi
 3848      00
 3849 1a03 4889C7   		movq	%rax, %rdi
 3850 1a06 E8000000 		call	strstr
 3850      00
 3851 1a0b 4889C7   		movq	%rax, %rdi
 3852 1a0e E8000000 		call	_ZN8UnitTest5CheckIPcEEbT_
 3852      00
 3853 1a13 83F001   		xorl	$1, %eax
 3854 1a16 84C0     		testb	%al, %al
 3855 1a18 743E     		je	.L168
 3856              	.LEHB90:
 3857              		.loc 5 156 0 is_stmt 0 discriminator 1
 3858 1a1a E8000000 		call	_ZN8UnitTest11CurrentTest7DetailsEv
 3858      00
 3859 1a1f 488B08   		movq	(%rax), %rcx
 3860 1a22 488D8590 		leaq	-2160(%rbp), %rax
 3860      F7FFFF
 3861 1a29 BA9C0000 		movl	$156, %edx
 3861      00
 3862 1a2e 4889CE   		movq	%rcx, %rsi
 3863 1a31 4889C7   		movq	%rax, %rdi
 3864 1a34 E8000000 		call	_ZN8UnitTest11TestDetailsC1ERKS0_i
 3864      00
 3865              		.loc 5 156 0 discriminator 4
 3866 1a39 E8000000 		call	_ZN8UnitTest11CurrentTest7ResultsEv
 3866      00
 3867 1a3e 488B00   		movq	(%rax), %rax
 3868 1a41 488D8D90 		leaq	-2160(%rbp), %rcx
 3868      F7FFFF
 3869 1a48 BA000000 		movl	$.LC46, %edx
 3869      00
 3870 1a4d 4889CE   		movq	%rcx, %rsi
 3871 1a50 4889C7   		movq	%rax, %rdi
 3872 1a53 E8000000 		call	_ZN8UnitTest11TestResults13OnTestFailureERKNS_11TestDetailsEPKc
 3872      00
 3873              	.LEHE90:
 3874              	.L168:
 3875              		.loc 5 156 0 discriminator 9
 3876 1a58 488D85B0 		leaq	-2128(%rbp), %rax
 3876      F7FFFF
 3877 1a5f 4889C7   		movq	%rax, %rdi
 3878              	.LEHB91:
 3879 1a62 E8000000 		call	_ZN17RecordingReporterD1Ev
 3879      00
 3880              	.LEHE91:
 3881              	.LBE52:
 157:TestChecks.cpp **** }
 3882              		.loc 5 157 0 is_stmt 1 discriminator 9
 3883 1a67 488B45E8 		movq	-24(%rbp), %rax
 3884 1a6b 64483304 		xorq	%fs:40, %rax
 3884      25280000 
 3884      00
 3885 1a74 0F84DE00 		je	.L174
 3885      0000
 3886 1a7a E9D40000 		jmp	.L180
 3886      00
 3887              	.L177:
 3888 1a7f 4889C3   		movq	%rax, %rbx
 3889              	.LBB53:
 155:TestChecks.cpp ****     CHECK(strstr(reporter.lastFailedMessage, "was 1.1"));
 3890              		.loc 5 155 0
 3891 1a82 E8000000 		call	__cxa_end_catch
 3891      00
 3892 1a87 E9AD0000 		jmp	.L170
 3892      00
 3893              	.L176:
 3894 1a8c 4889C7   		movq	%rax, %rdi
 3895 1a8f E8000000 		call	__cxa_begin_catch
 3895      00
 3896              	.LEHB92:
 3897 1a94 E8000000 		call	_ZN8UnitTest11CurrentTest7DetailsEv
 3897      00
 3898 1a99 488B08   		movq	(%rax), %rcx
 3899 1a9c 488D8590 		leaq	-2160(%rbp), %rax
 3899      F7FFFF
 3900 1aa3 BA9B0000 		movl	$155, %edx
 3900      00
 3901 1aa8 4889CE   		movq	%rcx, %rsi
 3902 1aab 4889C7   		movq	%rax, %rdi
 3903 1aae E8000000 		call	_ZN8UnitTest11TestDetailsC1ERKS0_i
 3903      00
 155:TestChecks.cpp ****     CHECK(strstr(reporter.lastFailedMessage, "was 1.1"));
 3904              		.loc 5 155 0 is_stmt 0 discriminator 11
 3905 1ab3 E8000000 		call	_ZN8UnitTest11CurrentTest7ResultsEv
 3905      00
 3906 1ab8 488B00   		movq	(%rax), %rax
 3907 1abb 488D8D90 		leaq	-2160(%rbp), %rcx
 3907      F7FFFF
 3908 1ac2 BA000000 		movl	$.LC47, %edx
 3908      00
 3909 1ac7 4889CE   		movq	%rcx, %rsi
 3910 1aca 4889C7   		movq	%rax, %rdi
 3911 1acd E8000000 		call	_ZN8UnitTest11TestResults13OnTestFailureERKNS_11TestDetailsEPKc
 3911      00
 3912              	.LEHE92:
 3913              	.LEHB93:
 155:TestChecks.cpp ****     CHECK(strstr(reporter.lastFailedMessage, "was 1.1"));
 3914              		.loc 5 155 0 discriminator 15
 3915 1ad2 E8000000 		call	__cxa_end_catch
 3915      00
 3916              	.LEHE93:
 155:TestChecks.cpp ****     CHECK(strstr(reporter.lastFailedMessage, "was 1.1"));
 3917              		.loc 5 155 0
 3918 1ad7 E915FFFF 		jmp	.L167
 3918      FF
 3919              	.L179:
 3920 1adc 4889C3   		movq	%rax, %rbx
 156:TestChecks.cpp ****     CHECK(strstr(reporter.lastFailedMessage, "was 1.1"));
 3921              		.loc 5 156 0 is_stmt 1
 3922 1adf E8000000 		call	__cxa_end_catch
 3922      00
 3923 1ae4 EB53     		jmp	.L170
 3924              	.L178:
 3925 1ae6 4889C7   		movq	%rax, %rdi
 3926 1ae9 E8000000 		call	__cxa_begin_catch
 3926      00
 3927              	.LEHB94:
 3928 1aee E8000000 		call	_ZN8UnitTest11CurrentTest7DetailsEv
 3928      00
 3929 1af3 488B08   		movq	(%rax), %rcx
 3930 1af6 488D8590 		leaq	-2160(%rbp), %rax
 3930      F7FFFF
 3931 1afd BA9C0000 		movl	$156, %edx
 3931      00
 3932 1b02 4889CE   		movq	%rcx, %rsi
 3933 1b05 4889C7   		movq	%rax, %rdi
 3934 1b08 E8000000 		call	_ZN8UnitTest11TestDetailsC1ERKS0_i
 3934      00
 156:TestChecks.cpp ****     CHECK(strstr(reporter.lastFailedMessage, "was 1.1"));
 3935              		.loc 5 156 0 is_stmt 0 discriminator 13
 3936 1b0d E8000000 		call	_ZN8UnitTest11CurrentTest7ResultsEv
 3936      00
 3937 1b12 488B00   		movq	(%rax), %rax
 3938 1b15 488D8D90 		leaq	-2160(%rbp), %rcx
 3938      F7FFFF
 3939 1b1c BA000000 		movl	$.LC48, %edx
 3939      00
 3940 1b21 4889CE   		movq	%rcx, %rsi
 3941 1b24 4889C7   		movq	%rax, %rdi
 3942 1b27 E8000000 		call	_ZN8UnitTest11TestResults13OnTestFailureERKNS_11TestDetailsEPKc
 3942      00
 3943              	.LEHE94:
 3944              	.LEHB95:
 156:TestChecks.cpp ****     CHECK(strstr(reporter.lastFailedMessage, "was 1.1"));
 3945              		.loc 5 156 0 discriminator 17
 3946 1b2c E8000000 		call	__cxa_end_catch
 3946      00
 3947              	.LEHE95:
 156:TestChecks.cpp ****     CHECK(strstr(reporter.lastFailedMessage, "was 1.1"));
 3948              		.loc 5 156 0
 3949 1b31 E922FFFF 		jmp	.L168
 3949      FF
 3950              	.L175:
 3951 1b36 4889C3   		movq	%rax, %rbx
 3952              	.L170:
 156:TestChecks.cpp ****     CHECK(strstr(reporter.lastFailedMessage, "was 1.1"));
 3953              		.loc 5 156 0 discriminator 18
 3954 1b39 488D85B0 		leaq	-2128(%rbp), %rax
 3954      F7FFFF
 3955 1b40 4889C7   		movq	%rax, %rdi
 3956 1b43 E8000000 		call	_ZN17RecordingReporterD1Ev
 3956      00
 3957 1b48 4889D8   		movq	%rbx, %rax
 3958 1b4b 4889C7   		movq	%rax, %rdi
 3959              	.LEHB96:
 3960 1b4e E8000000 		call	_Unwind_Resume
 3960      00
 3961              	.LEHE96:
 3962              	.L180:
 3963              	.LBE53:
 3964              		.loc 5 157 0 is_stmt 1
 3965 1b53 E8000000 		call	__stack_chk_fail
 3965      00
 3966              	.L174:
 3967 1b58 4881C4A8 		addq	$2216, %rsp
 3967      080000
 3968 1b5f 5B       		popq	%rbx
 3969 1b60 5D       		popq	%rbp
 3970              		.cfi_def_cfa 7, 8
 3971 1b61 C3       		ret
 3972              		.cfi_endproc
 3973              	.LFE1134:
 3974              		.section	.gcc_except_table
 3975              		.align 4
 3976              	.LLSDA1134:
 3977 0278 FF       		.byte	0xff
 3978 0279 03       		.byte	0x3
 3979 027a 3D       		.uleb128 .LLSDATT1134-.LLSDATTD1134
 3980              	.LLSDATTD1134:
 3981 027b 01       		.byte	0x1
 3982 027c 33       		.uleb128 .LLSDACSE1134-.LLSDACSB1134
 3983              	.LLSDACSB1134:
 3984 027d 45       		.uleb128 .LEHB88-.LFB1134
 3985 027e 7B       		.uleb128 .LEHE88-.LEHB88
 3986 027f EC04     		.uleb128 .L175-.LFB1134
 3987 0281 00       		.uleb128 0
 3988 0282 E901     		.uleb128 .LEHB89-.LFB1134
 3989 0284 3E       		.uleb128 .LEHE89-.LEHB89
 3990 0285 C203     		.uleb128 .L176-.LFB1134
 3991 0287 01       		.uleb128 0x1
 3992 0288 D002     		.uleb128 .LEHB90-.LFB1134
 3993 028a 3E       		.uleb128 .LEHE90-.LEHB90
 3994 028b 9C04     		.uleb128 .L178-.LFB1134
 3995 028d 01       		.uleb128 0x1
 3996 028e 9803     		.uleb128 .LEHB91-.LFB1134
 3997 0290 05       		.uleb128 .LEHE91-.LEHB91
 3998 0291 00       		.uleb128 0
 3999 0292 00       		.uleb128 0
 4000 0293 CA03     		.uleb128 .LEHB92-.LFB1134
 4001 0295 3E       		.uleb128 .LEHE92-.LEHB92
 4002 0296 B503     		.uleb128 .L177-.LFB1134
 4003 0298 00       		.uleb128 0
 4004 0299 8804     		.uleb128 .LEHB93-.LFB1134
 4005 029b 05       		.uleb128 .LEHE93-.LEHB93
 4006 029c EC04     		.uleb128 .L175-.LFB1134
 4007 029e 00       		.uleb128 0
 4008 029f A404     		.uleb128 .LEHB94-.LFB1134
 4009 02a1 3E       		.uleb128 .LEHE94-.LEHB94
 4010 02a2 9204     		.uleb128 .L179-.LFB1134
 4011 02a4 00       		.uleb128 0
 4012 02a5 E204     		.uleb128 .LEHB95-.LFB1134
 4013 02a7 05       		.uleb128 .LEHE95-.LEHB95
 4014 02a8 EC04     		.uleb128 .L175-.LFB1134
 4015 02aa 00       		.uleb128 0
 4016 02ab 8405     		.uleb128 .LEHB96-.LFB1134
 4017 02ad 05       		.uleb128 .LEHE96-.LEHB96
 4018 02ae 00       		.uleb128 0
 4019 02af 00       		.uleb128 0
 4020              	.LLSDACSE1134:
 4021 02b0 01       		.byte	0x1
 4022 02b1 00       		.byte	0
 4023 02b2 0000     		.align 4
 4024 02b4 00000000 		.long	0
 4025              	
 4026              	.LLSDATT1134:
 4027              		.text
 4029              		.section	.rodata
 4030 06bc 00000000 		.align 8
 4031              	.LC49:
 4032 06c0 43686563 		.string	"CheckCloseFailureIncludesTolerance"
 4032      6B436C6F 
 4032      73654661 
 4032      696C7572 
 4032      65496E63 
 4033              		.text
 4034              		.align 2
 4036              	_ZN12_GLOBAL__N_138TestCheckCloseFailureIncludesToleranceC2Ev:
 4037              	.LFB1136:
 158:TestChecks.cpp **** 
 159:TestChecks.cpp **** TEST(CheckCloseFailureIncludesTolerance)
 4038              		.loc 5 159 0
 4039              		.cfi_startproc
 4040 1b62 55       		pushq	%rbp
 4041              		.cfi_def_cfa_offset 16
 4042              		.cfi_offset 6, -16
 4043 1b63 4889E5   		movq	%rsp, %rbp
 4044              		.cfi_def_cfa_register 6
 4045 1b66 4883EC10 		subq	$16, %rsp
 4046 1b6a 48897DF8 		movq	%rdi, -8(%rbp)
 4047              	.LBB54:
 4048              		.loc 5 159 0
 4049 1b6e E8000000 		call	_ZN13UnitTestSuite12GetSuiteNameEv
 4049      00
 4050 1b73 4889C2   		movq	%rax, %rdx
 4051 1b76 488B45F8 		movq	-8(%rbp), %rax
 4052 1b7a 41B89F00 		movl	$159, %r8d
 4052      0000
 4053 1b80 B9000000 		movl	$.LC2, %ecx
 4053      00
 4054 1b85 BE000000 		movl	$.LC49, %esi
 4054      00
 4055 1b8a 4889C7   		movq	%rax, %rdi
 4056 1b8d E8000000 		call	_ZN8UnitTest4TestC2EPKcS2_S2_i
 4056      00
 4057 1b92 488B45F8 		movq	-8(%rbp), %rax
 4058 1b96 48C70000 		movq	$_ZTVN12_GLOBAL__N_138TestCheckCloseFailureIncludesToleranceE+16, (%rax)
 4058      000000
 4059              	.LBE54:
 4060 1b9d C9       		leave
 4061              		.cfi_def_cfa 7, 8
 4062 1b9e C3       		ret
 4063              		.cfi_endproc
 4064              	.LFE1136:
 4066              		.local	_ZN12_GLOBAL__N_146testCheckCloseFailureIncludesToleranceInstanceE
 4067              		.comm	_ZN12_GLOBAL__N_146testCheckCloseFailureIncludesToleranceInstanceE,56,32
 4068              		.local	_ZN12_GLOBAL__N_139adderCheckCloseFailureIncludesToleranceE
 4069              		.comm	_ZN12_GLOBAL__N_139adderCheckCloseFailureIncludesToleranceE,1,1
 4070              		.section	.rodata
 4071              	.LC50:
 4072 06e3 302E3031 		.string	"0.01"
 4072      00
 4073              		.align 8
 4074              	.LC51:
 4075 06e8 73747273 		.string	"strstr(reporter.lastFailedMessage, \"0.01\")"
 4075      74722872 
 4075      65706F72 
 4075      7465722E 
 4075      6C617374 
 4076 0713 00000000 		.align 8
 4076      00
 4077              	.LC52:
 4078 0718 556E6861 		.string	"Unhandled exception in CHECK(strstr(reporter.lastFailedMessage, \"0.01\"))"
 4078      6E646C65 
 4078      64206578 
 4078      63657074 
 4078      696F6E20 
 4079              		.text
 4080 1b9f 90       		.align 2
 4082              	_ZNK12_GLOBAL__N_138TestCheckCloseFailureIncludesTolerance7RunImplEv:
 4083              	.LFB1138:
 160:TestChecks.cpp **** {
 4084              		.loc 5 160 0
 4085              		.cfi_startproc
 4086              		.cfi_personality 0x3,__gxx_personality_v0
 4087              		.cfi_lsda 0x3,.LLSDA1138
 4088 1ba0 55       		pushq	%rbp
 4089              		.cfi_def_cfa_offset 16
 4090              		.cfi_offset 6, -16
 4091 1ba1 4889E5   		movq	%rsp, %rbp
 4092              		.cfi_def_cfa_register 6
 4093 1ba4 53       		pushq	%rbx
 4094 1ba5 4881ECA8 		subq	$2216, %rsp
 4094      080000
 4095              		.cfi_offset 3, -24
 4096 1bac 4889BD58 		movq	%rdi, -2216(%rbp)
 4096      F7FFFF
 4097              		.loc 5 160 0
 4098 1bb3 64488B04 		movq	%fs:40, %rax
 4098      25280000 
 4098      00
 4099 1bbc 488945E8 		movq	%rax, -24(%rbp)
 4100 1bc0 31C0     		xorl	%eax, %eax
 4101              	.LBB55:
 161:TestChecks.cpp ****     RecordingReporter reporter;
 4102              		.loc 5 161 0
 4103 1bc2 488D85B0 		leaq	-2128(%rbp), %rax
 4103      F7FFFF
 4104 1bc9 4889C7   		movq	%rax, %rdi
 4105 1bcc E8000000 		call	_ZN17RecordingReporterC1Ev
 4105      00
 162:TestChecks.cpp ****     TestResults results(&reporter);
 4106              		.loc 5 162 0
 4107 1bd1 488D95B0 		leaq	-2128(%rbp), %rdx
 4107      F7FFFF
 4108 1bd8 488D8570 		leaq	-2192(%rbp), %rax
 4108      F7FFFF
 4109 1bdf 4889D6   		movq	%rdx, %rsi
 4110 1be2 4889C7   		movq	%rax, %rdi
 4111              	.LEHB97:
 4112 1be5 E8000000 		call	_ZN8UnitTest11TestResultsC1EPNS_12TestReporterE
 4112      00
 163:TestChecks.cpp ****     CheckClose(results, 2, 3, 0.01f, TestDetails("", "", "", 0));
 4113              		.loc 5 163 0
 4114 1bea 488D8590 		leaq	-2160(%rbp), %rax
 4114      F7FFFF
 4115 1bf1 41B80000 		movl	$0, %r8d
 4115      0000
 4116 1bf7 B9000000 		movl	$.LC6, %ecx
 4116      00
 4117 1bfc BA000000 		movl	$.LC6, %edx
 4117      00
 4118 1c01 BE000000 		movl	$.LC6, %esi
 4118      00
 4119 1c06 4889C7   		movq	%rax, %rdi
 4120 1c09 E8000000 		call	_ZN8UnitTest11TestDetailsC1EPKcS2_S2_i
 4120      00
 4121              		.loc 5 163 0 is_stmt 0 discriminator 1
 4122 1c0e 8B050000 		movl	.LC42(%rip), %eax
 4122      0000
 4123 1c14 89856CF7 		movl	%eax, -2196(%rbp)
 4123      FFFF
 4124 1c1a C78568F7 		movl	$3, -2200(%rbp)
 4124      FFFF0300 
 4124      0000
 4125 1c24 C78564F7 		movl	$2, -2204(%rbp)
 4125      FFFF0200 
 4125      0000
 4126 1c2e 488DBD90 		leaq	-2160(%rbp), %rdi
 4126      F7FFFF
 4127 1c35 488D8D6C 		leaq	-2196(%rbp), %rcx
 4127      F7FFFF
 4128 1c3c 488D9568 		leaq	-2200(%rbp), %rdx
 4128      F7FFFF
 4129 1c43 488DB564 		leaq	-2204(%rbp), %rsi
 4129      F7FFFF
 4130 1c4a 488D8570 		leaq	-2192(%rbp), %rax
 4130      F7FFFF
 4131 1c51 4989F8   		movq	%rdi, %r8
 4132 1c54 4889C7   		movq	%rax, %rdi
 4133 1c57 E8000000 		call	_ZN8UnitTest10CheckCloseIiifEEvRNS_11TestResultsERKT_RKT0_RKT1_RKNS_11TestDetailsE
 4133      00
 4134              	.LEHE97:
 164:TestChecks.cpp **** 
 165:TestChecks.cpp **** 	using namespace std;
 166:TestChecks.cpp ****     CHECK(strstr(reporter.lastFailedMessage, "0.01"));
 4135              		.loc 5 166 0 is_stmt 1 discriminator 3
 4136 1c5c 488D85B0 		leaq	-2128(%rbp), %rax
 4136      F7FFFF
 4137 1c63 48051405 		addq	$1300, %rax
 4137      0000
 4138 1c69 BE000000 		movl	$.LC50, %esi
 4138      00
 4139 1c6e 4889C7   		movq	%rax, %rdi
 4140 1c71 E8000000 		call	strstr
 4140      00
 4141 1c76 4889C7   		movq	%rax, %rdi
 4142 1c79 E8000000 		call	_ZN8UnitTest5CheckIPcEEbT_
 4142      00
 4143 1c7e 83F001   		xorl	$1, %eax
 4144 1c81 84C0     		testb	%al, %al
 4145 1c83 743E     		je	.L183
 4146              	.LEHB98:
 4147              		.loc 5 166 0 is_stmt 0 discriminator 1
 4148 1c85 E8000000 		call	_ZN8UnitTest11CurrentTest7DetailsEv
 4148      00
 4149 1c8a 488B08   		movq	(%rax), %rcx
 4150 1c8d 488D8590 		leaq	-2160(%rbp), %rax
 4150      F7FFFF
 4151 1c94 BAA60000 		movl	$166, %edx
 4151      00
 4152 1c99 4889CE   		movq	%rcx, %rsi
 4153 1c9c 4889C7   		movq	%rax, %rdi
 4154 1c9f E8000000 		call	_ZN8UnitTest11TestDetailsC1ERKS0_i
 4154      00
 4155              		.loc 5 166 0 discriminator 4
 4156 1ca4 E8000000 		call	_ZN8UnitTest11CurrentTest7ResultsEv
 4156      00
 4157 1ca9 488B00   		movq	(%rax), %rax
 4158 1cac 488D8D90 		leaq	-2160(%rbp), %rcx
 4158      F7FFFF
 4159 1cb3 BA000000 		movl	$.LC51, %edx
 4159      00
 4160 1cb8 4889CE   		movq	%rcx, %rsi
 4161 1cbb 4889C7   		movq	%rax, %rdi
 4162 1cbe E8000000 		call	_ZN8UnitTest11TestResults13OnTestFailureERKNS_11TestDetailsEPKc
 4162      00
 4163              	.LEHE98:
 4164              	.L183:
 4165              		.loc 5 166 0 discriminator 9
 4166 1cc3 488D85B0 		leaq	-2128(%rbp), %rax
 4166      F7FFFF
 4167 1cca 4889C7   		movq	%rax, %rdi
 4168              	.LEHB99:
 4169 1ccd E8000000 		call	_ZN17RecordingReporterD1Ev
 4169      00
 4170              	.LEHE99:
 4171              	.LBE55:
 167:TestChecks.cpp **** }
 4172              		.loc 5 167 0 is_stmt 1 discriminator 9
 4173 1cd2 488B45E8 		movq	-24(%rbp), %rax
 4174 1cd6 64483304 		xorq	%fs:40, %rax
 4174      25280000 
 4174      00
 4175 1cdf 747B     		je	.L187
 4176 1ce1 EB74     		jmp	.L191
 4177              	.L190:
 4178 1ce3 4889C3   		movq	%rax, %rbx
 4179              	.LBB56:
 166:TestChecks.cpp **** }
 4180              		.loc 5 166 0
 4181 1ce6 E8000000 		call	__cxa_end_catch
 4181      00
 4182 1ceb EB50     		jmp	.L185
 4183              	.L189:
 4184 1ced 4889C7   		movq	%rax, %rdi
 4185 1cf0 E8000000 		call	__cxa_begin_catch
 4185      00
 4186              	.LEHB100:
 4187 1cf5 E8000000 		call	_ZN8UnitTest11CurrentTest7DetailsEv
 4187      00
 4188 1cfa 488B08   		movq	(%rax), %rcx
 4189 1cfd 488D8590 		leaq	-2160(%rbp), %rax
 4189      F7FFFF
 4190 1d04 BAA60000 		movl	$166, %edx
 4190      00
 4191 1d09 4889CE   		movq	%rcx, %rsi
 4192 1d0c 4889C7   		movq	%rax, %rdi
 4193 1d0f E8000000 		call	_ZN8UnitTest11TestDetailsC1ERKS0_i
 4193      00
 166:TestChecks.cpp **** }
 4194              		.loc 5 166 0 is_stmt 0 discriminator 13
 4195 1d14 E8000000 		call	_ZN8UnitTest11CurrentTest7ResultsEv
 4195      00
 4196 1d19 488B00   		movq	(%rax), %rax
 4197 1d1c 488D8D90 		leaq	-2160(%rbp), %rcx
 4197      F7FFFF
 4198 1d23 BA000000 		movl	$.LC52, %edx
 4198      00
 4199 1d28 4889CE   		movq	%rcx, %rsi
 4200 1d2b 4889C7   		movq	%rax, %rdi
 4201 1d2e E8000000 		call	_ZN8UnitTest11TestResults13OnTestFailureERKNS_11TestDetailsEPKc
 4201      00
 4202              	.LEHE100:
 4203              	.LEHB101:
 166:TestChecks.cpp **** }
 4204              		.loc 5 166 0 discriminator 17
 4205 1d33 E8000000 		call	__cxa_end_catch
 4205      00
 4206              	.LEHE101:
 166:TestChecks.cpp **** }
 4207              		.loc 5 166 0
 4208 1d38 EB89     		jmp	.L183
 4209              	.L188:
 4210 1d3a 4889C3   		movq	%rax, %rbx
 4211              	.L185:
 166:TestChecks.cpp **** }
 4212              		.loc 5 166 0 discriminator 18
 4213 1d3d 488D85B0 		leaq	-2128(%rbp), %rax
 4213      F7FFFF
 4214 1d44 4889C7   		movq	%rax, %rdi
 4215 1d47 E8000000 		call	_ZN17RecordingReporterD1Ev
 4215      00
 4216 1d4c 4889D8   		movq	%rbx, %rax
 4217 1d4f 4889C7   		movq	%rax, %rdi
 4218              	.LEHB102:
 4219 1d52 E8000000 		call	_Unwind_Resume
 4219      00
 4220              	.LEHE102:
 4221              	.L191:
 4222              	.LBE56:
 4223              		.loc 5 167 0 is_stmt 1
 4224 1d57 E8000000 		call	__stack_chk_fail
 4224      00
 4225              	.L187:
 4226 1d5c 4881C4A8 		addq	$2216, %rsp
 4226      080000
 4227 1d63 5B       		popq	%rbx
 4228 1d64 5D       		popq	%rbp
 4229              		.cfi_def_cfa 7, 8
 4230 1d65 C3       		ret
 4231              		.cfi_endproc
 4232              	.LFE1138:
 4233              		.section	.gcc_except_table
 4234              		.align 4
 4235              	.LLSDA1138:
 4236 02b8 FF       		.byte	0xff
 4237 02b9 03       		.byte	0x3
 4238 02ba 29       		.uleb128 .LLSDATT1138-.LLSDATTD1138
 4239              	.LLSDATTD1138:
 4240 02bb 01       		.byte	0x1
 4241 02bc 21       		.uleb128 .LLSDACSE1138-.LLSDACSB1138
 4242              	.LLSDACSB1138:
 4243 02bd 45       		.uleb128 .LEHB97-.LFB1138
 4244 02be 77       		.uleb128 .LEHE97-.LEHB97
 4245 02bf 9A03     		.uleb128 .L188-.LFB1138
 4246 02c1 00       		.uleb128 0
 4247 02c2 E501     		.uleb128 .LEHB98-.LFB1138
 4248 02c4 3E       		.uleb128 .LEHE98-.LEHB98
 4249 02c5 CD02     		.uleb128 .L189-.LFB1138
 4250 02c7 01       		.uleb128 0x1
 4251 02c8 AD02     		.uleb128 .LEHB99-.LFB1138
 4252 02ca 05       		.uleb128 .LEHE99-.LEHB99
 4253 02cb 00       		.uleb128 0
 4254 02cc 00       		.uleb128 0
 4255 02cd D502     		.uleb128 .LEHB100-.LFB1138
 4256 02cf 3E       		.uleb128 .LEHE100-.LEHB100
 4257 02d0 C302     		.uleb128 .L190-.LFB1138
 4258 02d2 00       		.uleb128 0
 4259 02d3 9303     		.uleb128 .LEHB101-.LFB1138
 4260 02d5 05       		.uleb128 .LEHE101-.LEHB101
 4261 02d6 9A03     		.uleb128 .L188-.LFB1138
 4262 02d8 00       		.uleb128 0
 4263 02d9 B203     		.uleb128 .LEHB102-.LFB1138
 4264 02db 05       		.uleb128 .LEHE102-.LEHB102
 4265 02dc 00       		.uleb128 0
 4266 02dd 00       		.uleb128 0
 4267              	.LLSDACSE1138:
 4268 02de 01       		.byte	0x1
 4269 02df 00       		.byte	0
 4270              		.align 4
 4271 02e0 00000000 		.long	0
 4272              	
 4273              	.LLSDATT1138:
 4274              		.text
 4276              		.section	.rodata
 4277 0761 00000000 		.align 8
 4277      000000
 4278              	.LC53:
 4279 0768 43686563 		.string	"CheckCloseFailureIncludesDetails"
 4279      6B436C6F 
 4279      73654661 
 4279      696C7572 
 4279      65496E63 
 4280              		.text
 4281              		.align 2
 4283              	_ZN12_GLOBAL__N_136TestCheckCloseFailureIncludesDetailsC2Ev:
 4284              	.LFB1140:
 168:TestChecks.cpp **** 
 169:TestChecks.cpp **** TEST(CheckCloseFailureIncludesDetails)
 4285              		.loc 5 169 0
 4286              		.cfi_startproc
 4287 1d66 55       		pushq	%rbp
 4288              		.cfi_def_cfa_offset 16
 4289              		.cfi_offset 6, -16
 4290 1d67 4889E5   		movq	%rsp, %rbp
 4291              		.cfi_def_cfa_register 6
 4292 1d6a 4883EC10 		subq	$16, %rsp
 4293 1d6e 48897DF8 		movq	%rdi, -8(%rbp)
 4294              	.LBB57:
 4295              		.loc 5 169 0
 4296 1d72 E8000000 		call	_ZN13UnitTestSuite12GetSuiteNameEv
 4296      00
 4297 1d77 4889C2   		movq	%rax, %rdx
 4298 1d7a 488B45F8 		movq	-8(%rbp), %rax
 4299 1d7e 41B8A900 		movl	$169, %r8d
 4299      0000
 4300 1d84 B9000000 		movl	$.LC2, %ecx
 4300      00
 4301 1d89 BE000000 		movl	$.LC53, %esi
 4301      00
 4302 1d8e 4889C7   		movq	%rax, %rdi
 4303 1d91 E8000000 		call	_ZN8UnitTest4TestC2EPKcS2_S2_i
 4303      00
 4304 1d96 488B45F8 		movq	-8(%rbp), %rax
 4305 1d9a 48C70000 		movq	$_ZTVN12_GLOBAL__N_136TestCheckCloseFailureIncludesDetailsE+16, (%rax)
 4305      000000
 4306              	.LBE57:
 4307 1da1 C9       		leave
 4308              		.cfi_def_cfa 7, 8
 4309 1da2 C3       		ret
 4310              		.cfi_endproc
 4311              	.LFE1140:
 4313              		.local	_ZN12_GLOBAL__N_144testCheckCloseFailureIncludesDetailsInstanceE
 4314              		.comm	_ZN12_GLOBAL__N_144testCheckCloseFailureIncludesDetailsInstanceE,56,32
 4315              		.local	_ZN12_GLOBAL__N_137adderCheckCloseFailureIncludesDetailsE
 4316              		.comm	_ZN12_GLOBAL__N_137adderCheckCloseFailureIncludesDetailsE,1,1
 4317              		.section	.rodata
 4318              	.LC54:
 4319 0789 68656164 		.string	"header.h"
 4319      65722E68 
 4319      00
 4320 0792 00000000 		.align 8
 4320      0000
 4321              	.LC55:
 4322 0798 556E6861 		.string	"Unhandled exception in CHECK_EQUAL(\"header.h\", reporter.lastFailedFile)"
 4322      6E646C65 
 4322      64206578 
 4322      63657074 
 4322      696F6E20 
 4323              		.align 8
 4324              	.LC56:
 4325 07e0 556E6861 		.string	"Unhandled exception in CHECK_EQUAL(10, reporter.lastFailedLine)"
 4325      6E646C65 
 4325      64206578 
 4325      63657074 
 4325      696F6E20 
 4326              		.text
 4327 1da3 90       		.align 2
 4329              	_ZNK12_GLOBAL__N_136TestCheckCloseFailureIncludesDetails7RunImplEv:
 4330              	.LFB1142:
 170:TestChecks.cpp **** {
 4331              		.loc 5 170 0
 4332              		.cfi_startproc
 4333              		.cfi_personality 0x3,__gxx_personality_v0
 4334              		.cfi_lsda 0x3,.LLSDA1142
 4335 1da4 55       		pushq	%rbp
 4336              		.cfi_def_cfa_offset 16
 4337              		.cfi_offset 6, -16
 4338 1da5 4889E5   		movq	%rsp, %rbp
 4339              		.cfi_def_cfa_register 6
 4340 1da8 53       		pushq	%rbx
 4341 1da9 4881ECC8 		subq	$2248, %rsp
 4341      080000
 4342              		.cfi_offset 3, -24
 4343 1db0 4889BD38 		movq	%rdi, -2248(%rbp)
 4343      F7FFFF
 4344              		.loc 5 170 0
 4345 1db7 64488B04 		movq	%fs:40, %rax
 4345      25280000 
 4345      00
 4346 1dc0 488945E8 		movq	%rax, -24(%rbp)
 4347 1dc4 31C0     		xorl	%eax, %eax
 4348              	.LBB58:
 171:TestChecks.cpp ****     RecordingReporter reporter;
 4349              		.loc 5 171 0
 4350 1dc6 488D85B0 		leaq	-2128(%rbp), %rax
 4350      F7FFFF
 4351 1dcd 4889C7   		movq	%rax, %rdi
 4352 1dd0 E8000000 		call	_ZN17RecordingReporterC1Ev
 4352      00
 172:TestChecks.cpp ****     TestResults results(&reporter);
 4353              		.loc 5 172 0
 4354 1dd5 488D95B0 		leaq	-2128(%rbp), %rdx
 4354      F7FFFF
 4355 1ddc 488D8550 		leaq	-2224(%rbp), %rax
 4355      F7FFFF
 4356 1de3 4889D6   		movq	%rdx, %rsi
 4357 1de6 4889C7   		movq	%rax, %rdi
 4358              	.LEHB103:
 4359 1de9 E8000000 		call	_ZN8UnitTest11TestResultsC1EPNS_12TestReporterE
 4359      00
 173:TestChecks.cpp ****     TestDetails const details("mytest", "mysuite", "header.h", 10);
 4360              		.loc 5 173 0
 4361 1dee 488D8570 		leaq	-2192(%rbp), %rax
 4361      F7FFFF
 4362 1df5 41B80A00 		movl	$10, %r8d
 4362      0000
 4363 1dfb B9000000 		movl	$.LC54, %ecx
 4363      00
 4364 1e00 BA000000 		movl	$.LC24, %edx
 4364      00
 4365 1e05 BE000000 		movl	$.LC25, %esi
 4365      00
 4366 1e0a 4889C7   		movq	%rax, %rdi
 4367 1e0d E8000000 		call	_ZN8UnitTest11TestDetailsC1EPKcS2_S2_i
 4367      00
 174:TestChecks.cpp **** 
 175:TestChecks.cpp ****     CheckClose(results, 2, 3, 0.01f, details);
 4368              		.loc 5 175 0
 4369 1e12 8B050000 		movl	.LC42(%rip), %eax
 4369      0000
 4370 1e18 898590F7 		movl	%eax, -2160(%rbp)
 4370      FFFF
 4371 1e1e C7854CF7 		movl	$3, -2228(%rbp)
 4371      FFFF0300 
 4371      0000
 4372 1e28 C78548F7 		movl	$2, -2232(%rbp)
 4372      FFFF0200 
 4372      0000
 4373 1e32 488DBD70 		leaq	-2192(%rbp), %rdi
 4373      F7FFFF
 4374 1e39 488D8D90 		leaq	-2160(%rbp), %rcx
 4374      F7FFFF
 4375 1e40 488D954C 		leaq	-2228(%rbp), %rdx
 4375      F7FFFF
 4376 1e47 488DB548 		leaq	-2232(%rbp), %rsi
 4376      F7FFFF
 4377 1e4e 488D8550 		leaq	-2224(%rbp), %rax
 4377      F7FFFF
 4378 1e55 4989F8   		movq	%rdi, %r8
 4379 1e58 4889C7   		movq	%rax, %rdi
 4380 1e5b E8000000 		call	_ZN8UnitTest10CheckCloseIiifEEvRNS_11TestResultsERKT_RKT0_RKT1_RKNS_11TestDetailsE
 4380      00
 4381              	.LEHE103:
 4382              	.LEHB104:
 176:TestChecks.cpp **** 
 177:TestChecks.cpp ****     CHECK_EQUAL("mytest", reporter.lastFailedTest);
 4383              		.loc 5 177 0 discriminator 2
 4384 1e60 E8000000 		call	_ZN8UnitTest11CurrentTest7DetailsEv
 4384      00
 4385 1e65 488B08   		movq	(%rax), %rcx
 4386 1e68 488D8590 		leaq	-2160(%rbp), %rax
 4386      F7FFFF
 4387 1e6f BAB10000 		movl	$177, %edx
 4387      00
 4388 1e74 4889CE   		movq	%rcx, %rsi
 4389 1e77 4889C7   		movq	%rax, %rdi
 4390 1e7a E8000000 		call	_ZN8UnitTest11TestDetailsC1ERKS0_i
 4390      00
 4391 1e7f E8000000 		call	_ZN8UnitTest11CurrentTest7ResultsEv
 4391      00
 4392 1e84 488B00   		movq	(%rax), %rax
 4393 1e87 488D9590 		leaq	-2160(%rbp), %rdx
 4393      F7FFFF
 4394 1e8e 488D8DB0 		leaq	-2128(%rbp), %rcx
 4394      F7FFFF
 4395 1e95 488DB114 		leaq	1044(%rcx), %rsi
 4395      040000
 4396 1e9c 4889D1   		movq	%rdx, %rcx
 4397 1e9f 4889F2   		movq	%rsi, %rdx
 4398 1ea2 BE000000 		movl	$.LC25, %esi
 4398      00
 4399 1ea7 4889C7   		movq	%rax, %rdi
 4400 1eaa E8000000 		call	_ZN8UnitTest10CheckEqualERNS_11TestResultsEPKcPcRKNS_11TestDetailsE
 4400      00
 4401              	.LEHE104:
 4402              	.L197:
 4403              	.LEHB105:
 178:TestChecks.cpp ****     CHECK_EQUAL("mysuite", reporter.lastFailedSuite);
 4404              		.loc 5 178 0
 4405 1eaf E8000000 		call	_ZN8UnitTest11CurrentTest7DetailsEv
 4405      00
 4406 1eb4 488B08   		movq	(%rax), %rcx
 4407 1eb7 488D8590 		leaq	-2160(%rbp), %rax
 4407      F7FFFF
 4408 1ebe BAB20000 		movl	$178, %edx
 4408      00
 4409 1ec3 4889CE   		movq	%rcx, %rsi
 4410 1ec6 4889C7   		movq	%rax, %rdi
 4411 1ec9 E8000000 		call	_ZN8UnitTest11TestDetailsC1ERKS0_i
 4411      00
 4412              		.loc 5 178 0 is_stmt 0 discriminator 2
 4413 1ece E8000000 		call	_ZN8UnitTest11CurrentTest7ResultsEv
 4413      00
 4414 1ed3 488B00   		movq	(%rax), %rax
 4415 1ed6 488D9590 		leaq	-2160(%rbp), %rdx
 4415      F7FFFF
 4416 1edd 488D8DB0 		leaq	-2128(%rbp), %rcx
 4416      F7FFFF
 4417 1ee4 488DB114 		leaq	788(%rcx), %rsi
 4417      030000
 4418 1eeb 4889D1   		movq	%rdx, %rcx
 4419 1eee 4889F2   		movq	%rsi, %rdx
 4420 1ef1 BE000000 		movl	$.LC24, %esi
 4420      00
 4421 1ef6 4889C7   		movq	%rax, %rdi
 4422 1ef9 E8000000 		call	_ZN8UnitTest10CheckEqualERNS_11TestResultsEPKcPcRKNS_11TestDetailsE
 4422      00
 4423              	.LEHE105:
 4424              	.L200:
 4425              	.LEHB106:
 179:TestChecks.cpp ****     CHECK_EQUAL("header.h", reporter.lastFailedFile);
 4426              		.loc 5 179 0 is_stmt 1
 4427 1efe E8000000 		call	_ZN8UnitTest11CurrentTest7DetailsEv
 4427      00
 4428 1f03 488B08   		movq	(%rax), %rcx
 4429 1f06 488D8590 		leaq	-2160(%rbp), %rax
 4429      F7FFFF
 4430 1f0d BAB30000 		movl	$179, %edx
 4430      00
 4431 1f12 4889CE   		movq	%rcx, %rsi
 4432 1f15 4889C7   		movq	%rax, %rdi
 4433 1f18 E8000000 		call	_ZN8UnitTest11TestDetailsC1ERKS0_i
 4433      00
 4434              		.loc 5 179 0 is_stmt 0 discriminator 2
 4435 1f1d E8000000 		call	_ZN8UnitTest11CurrentTest7ResultsEv
 4435      00
 4436 1f22 488B00   		movq	(%rax), %rax
 4437 1f25 488D9590 		leaq	-2160(%rbp), %rdx
 4437      F7FFFF
 4438 1f2c 488D8DB0 		leaq	-2128(%rbp), %rcx
 4438      F7FFFF
 4439 1f33 488DB110 		leaq	528(%rcx), %rsi
 4439      020000
 4440 1f3a 4889D1   		movq	%rdx, %rcx
 4441 1f3d 4889F2   		movq	%rsi, %rdx
 4442 1f40 BE000000 		movl	$.LC54, %esi
 4442      00
 4443 1f45 4889C7   		movq	%rax, %rdi
 4444 1f48 E8000000 		call	_ZN8UnitTest10CheckEqualERNS_11TestResultsEPKcPcRKNS_11TestDetailsE
 4444      00
 4445              	.LEHE106:
 4446              	.L203:
 4447              	.LEHB107:
 180:TestChecks.cpp ****     CHECK_EQUAL(10, reporter.lastFailedLine);
 4448              		.loc 5 180 0 is_stmt 1
 4449 1f4d E8000000 		call	_ZN8UnitTest11CurrentTest7DetailsEv
 4449      00
 4450 1f52 488B08   		movq	(%rax), %rcx
 4451 1f55 488D8590 		leaq	-2160(%rbp), %rax
 4451      F7FFFF
 4452 1f5c BAB40000 		movl	$180, %edx
 4452      00
 4453 1f61 4889CE   		movq	%rcx, %rsi
 4454 1f64 4889C7   		movq	%rax, %rdi
 4455 1f67 E8000000 		call	_ZN8UnitTest11TestDetailsC1ERKS0_i
 4455      00
 4456              		.loc 5 180 0 is_stmt 0 discriminator 2
 4457 1f6c C7854CF7 		movl	$10, -2228(%rbp)
 4457      FFFF0A00 
 4457      0000
 4458 1f76 E8000000 		call	_ZN8UnitTest11CurrentTest7ResultsEv
 4458      00
 4459 1f7b 488B00   		movq	(%rax), %rax
 4460 1f7e 488D9590 		leaq	-2160(%rbp), %rdx
 4460      F7FFFF
 4461 1f85 488D8DB0 		leaq	-2128(%rbp), %rcx
 4461      F7FFFF
 4462 1f8c 488DB910 		leaq	784(%rcx), %rdi
 4462      030000
 4463 1f93 488DB54C 		leaq	-2228(%rbp), %rsi
 4463      F7FFFF
 4464 1f9a 4889D1   		movq	%rdx, %rcx
 4465 1f9d 4889FA   		movq	%rdi, %rdx
 4466 1fa0 4889C7   		movq	%rax, %rdi
 4467 1fa3 E8000000 		call	_ZN8UnitTest10CheckEqualIiiEEvRNS_11TestResultsERKT_RKT0_RKNS_11TestDetailsE
 4467      00
 4468              	.LEHE107:
 4469              	.L206:
 4470              		.loc 5 180 0 discriminator 7
 4471 1fa8 488D85B0 		leaq	-2128(%rbp), %rax
 4471      F7FFFF
 4472 1faf 4889C7   		movq	%rax, %rdi
 4473              	.LEHB108:
 4474 1fb2 E8000000 		call	_ZN17RecordingReporterD1Ev
 4474      00
 4475              	.LEHE108:
 4476              	.LBE58:
 181:TestChecks.cpp **** }
 4477              		.loc 5 181 0 is_stmt 1 discriminator 7
 4478 1fb7 488B45E8 		movq	-24(%rbp), %rax
 4479 1fbb 64483304 		xorq	%fs:40, %rax
 4479      25280000 
 4479      00
 4480 1fc4 0F849801 		je	.L207
 4480      0000
 4481 1fca E98E0100 		jmp	.L217
 4481      00
 4482              	.L210:
 4483 1fcf 4889C3   		movq	%rax, %rbx
 4484              	.LBB59:
 177:TestChecks.cpp ****     CHECK_EQUAL("mysuite", reporter.lastFailedSuite);
 4485              		.loc 5 177 0
 4486 1fd2 E8000000 		call	__cxa_end_catch
 4486      00
 4487 1fd7 E9670100 		jmp	.L195
 4487      00
 4488              	.L209:
 4489 1fdc 4889C7   		movq	%rax, %rdi
 4490 1fdf E8000000 		call	__cxa_begin_catch
 4490      00
 4491              	.LEHB109:
 4492 1fe4 E8000000 		call	_ZN8UnitTest11CurrentTest7DetailsEv
 4492      00
 4493 1fe9 488B08   		movq	(%rax), %rcx
 4494 1fec 488D8590 		leaq	-2160(%rbp), %rax
 4494      F7FFFF
 4495 1ff3 BAB10000 		movl	$177, %edx
 4495      00
 4496 1ff8 4889CE   		movq	%rcx, %rsi
 4497 1ffb 4889C7   		movq	%rax, %rdi
 4498 1ffe E8000000 		call	_ZN8UnitTest11TestDetailsC1ERKS0_i
 4498      00
 177:TestChecks.cpp ****     CHECK_EQUAL("mysuite", reporter.lastFailedSuite);
 4499              		.loc 5 177 0 is_stmt 0 discriminator 10
 4500 2003 E8000000 		call	_ZN8UnitTest11CurrentTest7ResultsEv
 4500      00
 4501 2008 488B00   		movq	(%rax), %rax
 4502 200b 488D8D90 		leaq	-2160(%rbp), %rcx
 4502      F7FFFF
 4503 2012 BA000000 		movl	$.LC26, %edx
 4503      00
 4504 2017 4889CE   		movq	%rcx, %rsi
 4505 201a 4889C7   		movq	%rax, %rdi
 4506 201d E8000000 		call	_ZN8UnitTest11TestResults13OnTestFailureERKNS_11TestDetailsEPKc
 4506      00
 4507              	.LEHE109:
 4508              	.LEHB110:
 177:TestChecks.cpp ****     CHECK_EQUAL("mysuite", reporter.lastFailedSuite);
 4509              		.loc 5 177 0 discriminator 14
 4510 2022 E8000000 		call	__cxa_end_catch
 4510      00
 4511              	.LEHE110:
 177:TestChecks.cpp ****     CHECK_EQUAL("mysuite", reporter.lastFailedSuite);
 4512              		.loc 5 177 0
 4513 2027 E983FEFF 		jmp	.L197
 4513      FF
 4514              	.L212:
 4515 202c 4889C3   		movq	%rax, %rbx
 178:TestChecks.cpp ****     CHECK_EQUAL("header.h", reporter.lastFailedFile);
 4516              		.loc 5 178 0 is_stmt 1
 4517 202f E8000000 		call	__cxa_end_catch
 4517      00
 4518 2034 E90A0100 		jmp	.L195
 4518      00
 4519              	.L211:
 4520 2039 4889C7   		movq	%rax, %rdi
 4521 203c E8000000 		call	__cxa_begin_catch
 4521      00
 4522              	.LEHB111:
 4523 2041 E8000000 		call	_ZN8UnitTest11CurrentTest7DetailsEv
 4523      00
 4524 2046 488B08   		movq	(%rax), %rcx
 4525 2049 488D8590 		leaq	-2160(%rbp), %rax
 4525      F7FFFF
 4526 2050 BAB20000 		movl	$178, %edx
 4526      00
 4527 2055 4889CE   		movq	%rcx, %rsi
 4528 2058 4889C7   		movq	%rax, %rdi
 4529 205b E8000000 		call	_ZN8UnitTest11TestDetailsC1ERKS0_i
 4529      00
 178:TestChecks.cpp ****     CHECK_EQUAL("header.h", reporter.lastFailedFile);
 4530              		.loc 5 178 0 is_stmt 0 discriminator 10
 4531 2060 E8000000 		call	_ZN8UnitTest11CurrentTest7ResultsEv
 4531      00
 4532 2065 488B00   		movq	(%rax), %rax
 4533 2068 488D8D90 		leaq	-2160(%rbp), %rcx
 4533      F7FFFF
 4534 206f BA000000 		movl	$.LC27, %edx
 4534      00
 4535 2074 4889CE   		movq	%rcx, %rsi
 4536 2077 4889C7   		movq	%rax, %rdi
 4537 207a E8000000 		call	_ZN8UnitTest11TestResults13OnTestFailureERKNS_11TestDetailsEPKc
 4537      00
 4538              	.LEHE111:
 4539              	.LEHB112:
 178:TestChecks.cpp ****     CHECK_EQUAL("header.h", reporter.lastFailedFile);
 4540              		.loc 5 178 0 discriminator 14
 4541 207f E8000000 		call	__cxa_end_catch
 4541      00
 4542              	.LEHE112:
 178:TestChecks.cpp ****     CHECK_EQUAL("header.h", reporter.lastFailedFile);
 4543              		.loc 5 178 0
 4544 2084 E975FEFF 		jmp	.L200
 4544      FF
 4545              	.L214:
 4546 2089 4889C3   		movq	%rax, %rbx
 179:TestChecks.cpp ****     CHECK_EQUAL(10, reporter.lastFailedLine);
 4547              		.loc 5 179 0 is_stmt 1
 4548 208c E8000000 		call	__cxa_end_catch
 4548      00
 4549 2091 E9AD0000 		jmp	.L195
 4549      00
 4550              	.L213:
 4551 2096 4889C7   		movq	%rax, %rdi
 4552 2099 E8000000 		call	__cxa_begin_catch
 4552      00
 4553              	.LEHB113:
 4554 209e E8000000 		call	_ZN8UnitTest11CurrentTest7DetailsEv
 4554      00
 4555 20a3 488B08   		movq	(%rax), %rcx
 4556 20a6 488D8590 		leaq	-2160(%rbp), %rax
 4556      F7FFFF
 4557 20ad BAB30000 		movl	$179, %edx
 4557      00
 4558 20b2 4889CE   		movq	%rcx, %rsi
 4559 20b5 4889C7   		movq	%rax, %rdi
 4560 20b8 E8000000 		call	_ZN8UnitTest11TestDetailsC1ERKS0_i
 4560      00
 179:TestChecks.cpp ****     CHECK_EQUAL(10, reporter.lastFailedLine);
 4561              		.loc 5 179 0 is_stmt 0 discriminator 10
 4562 20bd E8000000 		call	_ZN8UnitTest11CurrentTest7ResultsEv
 4562      00
 4563 20c2 488B00   		movq	(%rax), %rax
 4564 20c5 488D8D90 		leaq	-2160(%rbp), %rcx
 4564      F7FFFF
 4565 20cc BA000000 		movl	$.LC55, %edx
 4565      00
 4566 20d1 4889CE   		movq	%rcx, %rsi
 4567 20d4 4889C7   		movq	%rax, %rdi
 4568 20d7 E8000000 		call	_ZN8UnitTest11TestResults13OnTestFailureERKNS_11TestDetailsEPKc
 4568      00
 4569              	.LEHE113:
 4570              	.LEHB114:
 179:TestChecks.cpp ****     CHECK_EQUAL(10, reporter.lastFailedLine);
 4571              		.loc 5 179 0 discriminator 14
 4572 20dc E8000000 		call	__cxa_end_catch
 4572      00
 4573              	.LEHE114:
 179:TestChecks.cpp ****     CHECK_EQUAL(10, reporter.lastFailedLine);
 4574              		.loc 5 179 0
 4575 20e1 E967FEFF 		jmp	.L203
 4575      FF
 4576              	.L216:
 4577 20e6 4889C3   		movq	%rax, %rbx
 180:TestChecks.cpp **** }
 4578              		.loc 5 180 0 is_stmt 1
 4579 20e9 E8000000 		call	__cxa_end_catch
 4579      00
 4580 20ee EB53     		jmp	.L195
 4581              	.L215:
 4582 20f0 4889C7   		movq	%rax, %rdi
 4583 20f3 E8000000 		call	__cxa_begin_catch
 4583      00
 4584              	.LEHB115:
 4585 20f8 E8000000 		call	_ZN8UnitTest11CurrentTest7DetailsEv
 4585      00
 4586 20fd 488B08   		movq	(%rax), %rcx
 4587 2100 488D8590 		leaq	-2160(%rbp), %rax
 4587      F7FFFF
 4588 2107 BAB40000 		movl	$180, %edx
 4588      00
 4589 210c 4889CE   		movq	%rcx, %rsi
 4590 210f 4889C7   		movq	%rax, %rdi
 4591 2112 E8000000 		call	_ZN8UnitTest11TestDetailsC1ERKS0_i
 4591      00
 180:TestChecks.cpp **** }
 4592              		.loc 5 180 0 is_stmt 0 discriminator 11
 4593 2117 E8000000 		call	_ZN8UnitTest11CurrentTest7ResultsEv
 4593      00
 4594 211c 488B00   		movq	(%rax), %rax
 4595 211f 488D8D90 		leaq	-2160(%rbp), %rcx
 4595      F7FFFF
 4596 2126 BA000000 		movl	$.LC56, %edx
 4596      00
 4597 212b 4889CE   		movq	%rcx, %rsi
 4598 212e 4889C7   		movq	%rax, %rdi
 4599 2131 E8000000 		call	_ZN8UnitTest11TestResults13OnTestFailureERKNS_11TestDetailsEPKc
 4599      00
 4600              	.LEHE115:
 4601              	.LEHB116:
 180:TestChecks.cpp **** }
 4602              		.loc 5 180 0 discriminator 15
 4603 2136 E8000000 		call	__cxa_end_catch
 4603      00
 4604              	.LEHE116:
 180:TestChecks.cpp **** }
 4605              		.loc 5 180 0
 4606 213b E968FEFF 		jmp	.L206
 4606      FF
 4607              	.L208:
 4608 2140 4889C3   		movq	%rax, %rbx
 4609              	.L195:
 180:TestChecks.cpp **** }
 4610              		.loc 5 180 0 discriminator 16
 4611 2143 488D85B0 		leaq	-2128(%rbp), %rax
 4611      F7FFFF
 4612 214a 4889C7   		movq	%rax, %rdi
 4613 214d E8000000 		call	_ZN17RecordingReporterD1Ev
 4613      00
 4614 2152 4889D8   		movq	%rbx, %rax
 4615 2155 4889C7   		movq	%rax, %rdi
 4616              	.LEHB117:
 4617 2158 E8000000 		call	_Unwind_Resume
 4617      00
 4618              	.LEHE117:
 4619              	.L217:
 4620              	.LBE59:
 4621              		.loc 5 181 0 is_stmt 1
 4622 215d E8000000 		call	__stack_chk_fail
 4622      00
 4623              	.L207:
 4624 2162 4881C4C8 		addq	$2248, %rsp
 4624      080000
 4625 2169 5B       		popq	%rbx
 4626 216a 5D       		popq	%rbp
 4627              		.cfi_def_cfa 7, 8
 4628 216b C3       		ret
 4629              		.cfi_endproc
 4630              	.LFE1142:
 4631              		.section	.gcc_except_table
 4632              		.align 4
 4633              	.LLSDA1142:
 4634 02e4 FF       		.byte	0xff
 4635 02e5 03       		.byte	0x3
 4636 02e6 61       		.uleb128 .LLSDATT1142-.LLSDATTD1142
 4637              	.LLSDATTD1142:
 4638 02e7 01       		.byte	0x1
 4639 02e8 57       		.uleb128 .LLSDACSE1142-.LLSDACSB1142
 4640              	.LLSDACSB1142:
 4641 02e9 45       		.uleb128 .LEHB103-.LFB1142
 4642 02ea 77       		.uleb128 .LEHE103-.LEHB103
 4643 02eb 9C07     		.uleb128 .L208-.LFB1142
 4644 02ed 00       		.uleb128 0
 4645 02ee BC01     		.uleb128 .LEHB104-.LFB1142
 4646 02f0 4F       		.uleb128 .LEHE104-.LEHB104
 4647 02f1 B804     		.uleb128 .L209-.LFB1142
 4648 02f3 01       		.uleb128 0x1
 4649 02f4 8B02     		.uleb128 .LEHB105-.LFB1142
 4650 02f6 4F       		.uleb128 .LEHE105-.LEHB105
 4651 02f7 9505     		.uleb128 .L211-.LFB1142
 4652 02f9 01       		.uleb128 0x1
 4653 02fa DA02     		.uleb128 .LEHB106-.LFB1142
 4654 02fc 4F       		.uleb128 .LEHE106-.LEHB106
 4655 02fd F205     		.uleb128 .L213-.LFB1142
 4656 02ff 01       		.uleb128 0x1
 4657 0300 A903     		.uleb128 .LEHB107-.LFB1142
 4658 0302 5B       		.uleb128 .LEHE107-.LEHB107
 4659 0303 CC06     		.uleb128 .L215-.LFB1142
 4660 0305 01       		.uleb128 0x1
 4661 0306 8E04     		.uleb128 .LEHB108-.LFB1142
 4662 0308 05       		.uleb128 .LEHE108-.LEHB108
 4663 0309 00       		.uleb128 0
 4664 030a 00       		.uleb128 0
 4665 030b C004     		.uleb128 .LEHB109-.LFB1142
 4666 030d 3E       		.uleb128 .LEHE109-.LEHB109
 4667 030e AB04     		.uleb128 .L210-.LFB1142
 4668 0310 00       		.uleb128 0
 4669 0311 FE04     		.uleb128 .LEHB110-.LFB1142
 4670 0313 05       		.uleb128 .LEHE110-.LEHB110
 4671 0314 9C07     		.uleb128 .L208-.LFB1142
 4672 0316 00       		.uleb128 0
 4673 0317 9D05     		.uleb128 .LEHB111-.LFB1142
 4674 0319 3E       		.uleb128 .LEHE111-.LEHB111
 4675 031a 8805     		.uleb128 .L212-.LFB1142
 4676 031c 00       		.uleb128 0
 4677 031d DB05     		.uleb128 .LEHB112-.LFB1142
 4678 031f 05       		.uleb128 .LEHE112-.LEHB112
 4679 0320 9C07     		.uleb128 .L208-.LFB1142
 4680 0322 00       		.uleb128 0
 4681 0323 FA05     		.uleb128 .LEHB113-.LFB1142
 4682 0325 3E       		.uleb128 .LEHE113-.LEHB113
 4683 0326 E505     		.uleb128 .L214-.LFB1142
 4684 0328 00       		.uleb128 0
 4685 0329 B806     		.uleb128 .LEHB114-.LFB1142
 4686 032b 05       		.uleb128 .LEHE114-.LEHB114
 4687 032c 9C07     		.uleb128 .L208-.LFB1142
 4688 032e 00       		.uleb128 0
 4689 032f D406     		.uleb128 .LEHB115-.LFB1142
 4690 0331 3E       		.uleb128 .LEHE115-.LEHB115
 4691 0332 C206     		.uleb128 .L216-.LFB1142
 4692 0334 00       		.uleb128 0
 4693 0335 9207     		.uleb128 .LEHB116-.LFB1142
 4694 0337 05       		.uleb128 .LEHE116-.LEHB116
 4695 0338 9C07     		.uleb128 .L208-.LFB1142
 4696 033a 00       		.uleb128 0
 4697 033b B407     		.uleb128 .LEHB117-.LFB1142
 4698 033d 05       		.uleb128 .LEHE117-.LEHB117
 4699 033e 00       		.uleb128 0
 4700 033f 00       		.uleb128 0
 4701              	.LLSDACSE1142:
 4702 0340 01       		.byte	0x1
 4703 0341 00       		.byte	0
 4704 0342 0000     		.align 4
 4705 0344 00000000 		.long	0
 4706              	
 4707              	.LLSDATT1142:
 4708              		.text
 4710              		.section	.rodata
 4711              	.LC57:
 4712 0820 43686563 		.string	"CheckArrayEqualTrue"
 4712      6B417272 
 4712      61794571 
 4712      75616C54 
 4712      72756500 
 4713              		.text
 4714              		.align 2
 4716              	_ZN12_GLOBAL__N_123TestCheckArrayEqualTrueC2Ev:
 4717              	.LFB1144:
 182:TestChecks.cpp **** 
 183:TestChecks.cpp **** 
 184:TestChecks.cpp **** TEST(CheckArrayEqualTrue)
 4718              		.loc 5 184 0
 4719              		.cfi_startproc
 4720 216c 55       		pushq	%rbp
 4721              		.cfi_def_cfa_offset 16
 4722              		.cfi_offset 6, -16
 4723 216d 4889E5   		movq	%rsp, %rbp
 4724              		.cfi_def_cfa_register 6
 4725 2170 4883EC10 		subq	$16, %rsp
 4726 2174 48897DF8 		movq	%rdi, -8(%rbp)
 4727              	.LBB60:
 4728              		.loc 5 184 0
 4729 2178 E8000000 		call	_ZN13UnitTestSuite12GetSuiteNameEv
 4729      00
 4730 217d 4889C2   		movq	%rax, %rdx
 4731 2180 488B45F8 		movq	-8(%rbp), %rax
 4732 2184 41B8B800 		movl	$184, %r8d
 4732      0000
 4733 218a B9000000 		movl	$.LC2, %ecx
 4733      00
 4734 218f BE000000 		movl	$.LC57, %esi
 4734      00
 4735 2194 4889C7   		movq	%rax, %rdi
 4736 2197 E8000000 		call	_ZN8UnitTest4TestC2EPKcS2_S2_i
 4736      00
 4737 219c 488B45F8 		movq	-8(%rbp), %rax
 4738 21a0 48C70000 		movq	$_ZTVN12_GLOBAL__N_123TestCheckArrayEqualTrueE+16, (%rax)
 4738      000000
 4739              	.LBE60:
 4740 21a7 C9       		leave
 4741              		.cfi_def_cfa 7, 8
 4742 21a8 C3       		ret
 4743              		.cfi_endproc
 4744              	.LFE1144:
 4746              		.local	_ZN12_GLOBAL__N_131testCheckArrayEqualTrueInstanceE
 4747              		.comm	_ZN12_GLOBAL__N_131testCheckArrayEqualTrueInstanceE,56,32
 4748              		.local	_ZN12_GLOBAL__N_124adderCheckArrayEqualTrueE
 4749              		.comm	_ZN12_GLOBAL__N_124adderCheckArrayEqualTrueE,1,1
 4750 21a9 90       		.align 2
 4752              	_ZNK12_GLOBAL__N_123TestCheckArrayEqualTrue7RunImplEv:
 4753              	.LFB1146:
 185:TestChecks.cpp **** {
 4754              		.loc 5 185 0
 4755              		.cfi_startproc
 4756              		.cfi_personality 0x3,__gxx_personality_v0
 4757              		.cfi_lsda 0x3,.LLSDA1146
 4758 21aa 55       		pushq	%rbp
 4759              		.cfi_def_cfa_offset 16
 4760              		.cfi_offset 6, -16
 4761 21ab 4889E5   		movq	%rsp, %rbp
 4762              		.cfi_def_cfa_register 6
 4763 21ae 53       		pushq	%rbx
 4764 21af 4881EC88 		subq	$136, %rsp
 4764      000000
 4765              		.cfi_offset 3, -24
 4766 21b6 4889BD78 		movq	%rdi, -136(%rbp)
 4766      FFFFFF
 4767              		.loc 5 185 0
 4768 21bd 64488B04 		movq	%fs:40, %rax
 4768      25280000 
 4768      00
 4769 21c6 488945E8 		movq	%rax, -24(%rbp)
 4770 21ca 31C0     		xorl	%eax, %eax
 4771              	.LBB61:
 186:TestChecks.cpp ****     TestResults results;
 4772              		.loc 5 186 0
 4773 21cc 488D45A0 		leaq	-96(%rbp), %rax
 4774 21d0 BE000000 		movl	$0, %esi
 4774      00
 4775 21d5 4889C7   		movq	%rax, %rdi
 4776              	.LEHB118:
 4777 21d8 E8000000 		call	_ZN8UnitTest11TestResultsC1EPNS_12TestReporterE
 4777      00
 187:TestChecks.cpp **** 
 188:TestChecks.cpp ****     int const array[3] = { 1, 2, 3 };
 4778              		.loc 5 188 0
 4779 21dd C7459001 		movl	$1, -112(%rbp)
 4779      000000
 4780 21e4 C7459402 		movl	$2, -108(%rbp)
 4780      000000
 4781 21eb C7459803 		movl	$3, -104(%rbp)
 4781      000000
 189:TestChecks.cpp ****     CheckArrayEqual(results, array, array, 3, TestDetails("", "", "", 0));
 4782              		.loc 5 189 0
 4783 21f2 488D45C0 		leaq	-64(%rbp), %rax
 4784 21f6 41B80000 		movl	$0, %r8d
 4784      0000
 4785 21fc B9000000 		movl	$.LC6, %ecx
 4785      00
 4786 2201 BA000000 		movl	$.LC6, %edx
 4786      00
 4787 2206 BE000000 		movl	$.LC6, %esi
 4787      00
 4788 220b 4889C7   		movq	%rax, %rdi
 4789 220e E8000000 		call	_ZN8UnitTest11TestDetailsC1EPKcS2_S2_i
 4789      00
 4790 2213 488D4DC0 		leaq	-64(%rbp), %rcx
 4791 2217 488D5590 		leaq	-112(%rbp), %rdx
 4792 221b 488D7590 		leaq	-112(%rbp), %rsi
 4793 221f 488D45A0 		leaq	-96(%rbp), %rax
 4794 2223 4989C8   		movq	%rcx, %r8
 4795 2226 B9030000 		movl	$3, %ecx
 4795      00
 4796 222b 4889C7   		movq	%rax, %rdi
 4797 222e E8000000 		call	_ZN8UnitTest15CheckArrayEqualIA3_iS1_EEvRNS_11TestResultsERKT_RKT0_iRKNS_11TestDetailsE
 4797      00
 4798              	.LEHE118:
 4799              	.LEHB119:
 190:TestChecks.cpp ****     CHECK_EQUAL(0, results.GetFailureCount());
 4800              		.loc 5 190 0
 4801 2233 E8000000 		call	_ZN8UnitTest11CurrentTest7DetailsEv
 4801      00
 4802 2238 488B08   		movq	(%rax), %rcx
 4803 223b 488D45C0 		leaq	-64(%rbp), %rax
 4804 223f BABE0000 		movl	$190, %edx
 4804      00
 4805 2244 4889CE   		movq	%rcx, %rsi
 4806 2247 4889C7   		movq	%rax, %rdi
 4807 224a E8000000 		call	_ZN8UnitTest11TestDetailsC1ERKS0_i
 4807      00
 4808              		.loc 5 190 0 is_stmt 0 discriminator 2
 4809 224f 488D45A0 		leaq	-96(%rbp), %rax
 4810 2253 4889C7   		movq	%rax, %rdi
 4811 2256 E8000000 		call	_ZNK8UnitTest11TestResults15GetFailureCountEv
 4811      00
 4812 225b 89458C   		movl	%eax, -116(%rbp)
 4813 225e C7458800 		movl	$0, -120(%rbp)
 4813      000000
 4814 2265 E8000000 		call	_ZN8UnitTest11CurrentTest7ResultsEv
 4814      00
 4815              		.loc 5 190 0 discriminator 4
 4816 226a 488B00   		movq	(%rax), %rax
 4817 226d 488D4DC0 		leaq	-64(%rbp), %rcx
 4818 2271 488D558C 		leaq	-116(%rbp), %rdx
 4819 2275 488D7588 		leaq	-120(%rbp), %rsi
 4820 2279 4889C7   		movq	%rax, %rdi
 4821 227c E8000000 		call	_ZN8UnitTest10CheckEqualIiiEEvRNS_11TestResultsERKT_RKT0_RKNS_11TestDetailsE
 4821      00
 4822              	.LEHE119:
 4823              	.LBE61:
 191:TestChecks.cpp **** }
 4824              		.loc 5 191 0 is_stmt 1
 4825 2281 EB58     		jmp	.L226
 4826              	.L225:
 4827 2283 4889C3   		movq	%rax, %rbx
 4828              	.LBB62:
 190:TestChecks.cpp ****     CHECK_EQUAL(0, results.GetFailureCount());
 4829              		.loc 5 190 0
 4830 2286 E8000000 		call	__cxa_end_catch
 4830      00
 4831 228b 4889D8   		movq	%rbx, %rax
 4832 228e 4889C7   		movq	%rax, %rdi
 4833              	.LEHB120:
 4834 2291 E8000000 		call	_Unwind_Resume
 4834      00
 4835              	.LEHE120:
 4836              	.L224:
 4837 2296 4889C7   		movq	%rax, %rdi
 4838 2299 E8000000 		call	__cxa_begin_catch
 4838      00
 4839              	.LEHB121:
 4840 229e E8000000 		call	_ZN8UnitTest11CurrentTest7DetailsEv
 4840      00
 4841 22a3 488B08   		movq	(%rax), %rcx
 4842 22a6 488D45C0 		leaq	-64(%rbp), %rax
 4843 22aa BABE0000 		movl	$190, %edx
 4843      00
 4844 22af 4889CE   		movq	%rcx, %rsi
 4845 22b2 4889C7   		movq	%rax, %rdi
 4846 22b5 E8000000 		call	_ZN8UnitTest11TestDetailsC1ERKS0_i
 4846      00
 190:TestChecks.cpp ****     CHECK_EQUAL(0, results.GetFailureCount());
 4847              		.loc 5 190 0 is_stmt 0 discriminator 12
 4848 22ba E8000000 		call	_ZN8UnitTest11CurrentTest7ResultsEv
 4848      00
 4849 22bf 488B00   		movq	(%rax), %rax
 4850 22c2 488D4DC0 		leaq	-64(%rbp), %rcx
 4851 22c6 BA000000 		movl	$.LC9, %edx
 4851      00
 4852 22cb 4889CE   		movq	%rcx, %rsi
 4853 22ce 4889C7   		movq	%rax, %rdi
 4854 22d1 E8000000 		call	_ZN8UnitTest11TestResults13OnTestFailureERKNS_11TestDetailsEPKc
 4854      00
 4855              	.LEHE121:
 4856              	.LEHB122:
 190:TestChecks.cpp ****     CHECK_EQUAL(0, results.GetFailureCount());
 4857              		.loc 5 190 0 discriminator 16
 4858 22d6 E8000000 		call	__cxa_end_catch
 4858      00
 4859              	.LEHE122:
 4860              	.L226:
 4861              	.LBE62:
 4862              		.loc 5 191 0 is_stmt 1
 4863 22db 90       		nop
 4864 22dc 488B45E8 		movq	-24(%rbp), %rax
 4865 22e0 64483304 		xorq	%fs:40, %rax
 4865      25280000 
 4865      00
 4866 22e9 7405     		je	.L223
 4867 22eb E8000000 		call	__stack_chk_fail
 4867      00
 4868              	.L223:
 4869 22f0 4881C488 		addq	$136, %rsp
 4869      000000
 4870 22f7 5B       		popq	%rbx
 4871 22f8 5D       		popq	%rbp
 4872              		.cfi_def_cfa 7, 8
 4873 22f9 C3       		ret
 4874              		.cfi_endproc
 4875              	.LFE1146:
 4876              		.section	.gcc_except_table
 4877              		.align 4
 4878              	.LLSDA1146:
 4879 0348 FF       		.byte	0xff
 4880 0349 03       		.byte	0x3
 4881 034a 25       		.uleb128 .LLSDATT1146-.LLSDATTD1146
 4882              	.LLSDATTD1146:
 4883 034b 01       		.byte	0x1
 4884 034c 1A       		.uleb128 .LLSDACSE1146-.LLSDACSB1146
 4885              	.LLSDACSB1146:
 4886 034d 2E       		.uleb128 .LEHB118-.LFB1146
 4887 034e 5B       		.uleb128 .LEHE118-.LEHB118
 4888 034f 00       		.uleb128 0
 4889 0350 00       		.uleb128 0
 4890 0351 8901     		.uleb128 .LEHB119-.LFB1146
 4891 0353 4E       		.uleb128 .LEHE119-.LEHB119
 4892 0354 EC01     		.uleb128 .L224-.LFB1146
 4893 0356 01       		.uleb128 0x1
 4894 0357 E701     		.uleb128 .LEHB120-.LFB1146
 4895 0359 05       		.uleb128 .LEHE120-.LEHB120
 4896 035a 00       		.uleb128 0
 4897 035b 00       		.uleb128 0
 4898 035c F401     		.uleb128 .LEHB121-.LFB1146
 4899 035e 38       		.uleb128 .LEHE121-.LEHB121
 4900 035f D901     		.uleb128 .L225-.LFB1146
 4901 0361 00       		.uleb128 0
 4902 0362 AC02     		.uleb128 .LEHB122-.LFB1146
 4903 0364 05       		.uleb128 .LEHE122-.LEHB122
 4904 0365 00       		.uleb128 0
 4905 0366 00       		.uleb128 0
 4906              	.LLSDACSE1146:
 4907 0367 01       		.byte	0x1
 4908 0368 00       		.byte	0
 4909 0369 000000   		.align 4
 4910 036c 00000000 		.long	0
 4911              	
 4912              	.LLSDATT1146:
 4913              		.text
 4915              		.section	.rodata
 4916              	.LC58:
 4917 0834 43686563 		.string	"CheckArrayEqualFalse"
 4917      6B417272 
 4917      61794571 
 4917      75616C46 
 4917      616C7365 
 4918              		.text
 4919              		.align 2
 4921              	_ZN12_GLOBAL__N_124TestCheckArrayEqualFalseC2Ev:
 4922              	.LFB1148:
 192:TestChecks.cpp **** 
 193:TestChecks.cpp **** TEST(CheckArrayEqualFalse)
 4923              		.loc 5 193 0
 4924              		.cfi_startproc
 4925 22fa 55       		pushq	%rbp
 4926              		.cfi_def_cfa_offset 16
 4927              		.cfi_offset 6, -16
 4928 22fb 4889E5   		movq	%rsp, %rbp
 4929              		.cfi_def_cfa_register 6
 4930 22fe 4883EC10 		subq	$16, %rsp
 4931 2302 48897DF8 		movq	%rdi, -8(%rbp)
 4932              	.LBB63:
 4933              		.loc 5 193 0
 4934 2306 E8000000 		call	_ZN13UnitTestSuite12GetSuiteNameEv
 4934      00
 4935 230b 4889C2   		movq	%rax, %rdx
 4936 230e 488B45F8 		movq	-8(%rbp), %rax
 4937 2312 41B8C100 		movl	$193, %r8d
 4937      0000
 4938 2318 B9000000 		movl	$.LC2, %ecx
 4938      00
 4939 231d BE000000 		movl	$.LC58, %esi
 4939      00
 4940 2322 4889C7   		movq	%rax, %rdi
 4941 2325 E8000000 		call	_ZN8UnitTest4TestC2EPKcS2_S2_i
 4941      00
 4942 232a 488B45F8 		movq	-8(%rbp), %rax
 4943 232e 48C70000 		movq	$_ZTVN12_GLOBAL__N_124TestCheckArrayEqualFalseE+16, (%rax)
 4943      000000
 4944              	.LBE63:
 4945 2335 C9       		leave
 4946              		.cfi_def_cfa 7, 8
 4947 2336 C3       		ret
 4948              		.cfi_endproc
 4949              	.LFE1148:
 4951              		.local	_ZN12_GLOBAL__N_132testCheckArrayEqualFalseInstanceE
 4952              		.comm	_ZN12_GLOBAL__N_132testCheckArrayEqualFalseInstanceE,56,32
 4953              		.local	_ZN12_GLOBAL__N_125adderCheckArrayEqualFalseE
 4954              		.comm	_ZN12_GLOBAL__N_125adderCheckArrayEqualFalseE,1,1
 4955 2337 90       		.align 2
 4957              	_ZNK12_GLOBAL__N_124TestCheckArrayEqualFalse7RunImplEv:
 4958              	.LFB1150:
 194:TestChecks.cpp **** {
 4959              		.loc 5 194 0
 4960              		.cfi_startproc
 4961              		.cfi_personality 0x3,__gxx_personality_v0
 4962              		.cfi_lsda 0x3,.LLSDA1150
 4963 2338 55       		pushq	%rbp
 4964              		.cfi_def_cfa_offset 16
 4965              		.cfi_offset 6, -16
 4966 2339 4889E5   		movq	%rsp, %rbp
 4967              		.cfi_def_cfa_register 6
 4968 233c 53       		pushq	%rbx
 4969 233d 4881EC98 		subq	$152, %rsp
 4969      000000
 4970              		.cfi_offset 3, -24
 4971 2344 4889BD68 		movq	%rdi, -152(%rbp)
 4971      FFFFFF
 4972              		.loc 5 194 0
 4973 234b 64488B04 		movq	%fs:40, %rax
 4973      25280000 
 4973      00
 4974 2354 488945E8 		movq	%rax, -24(%rbp)
 4975 2358 31C0     		xorl	%eax, %eax
 4976              	.LBB64:
 195:TestChecks.cpp ****     TestResults results;
 4977              		.loc 5 195 0
 4978 235a 488D45A0 		leaq	-96(%rbp), %rax
 4979 235e BE000000 		movl	$0, %esi
 4979      00
 4980 2363 4889C7   		movq	%rax, %rdi
 4981              	.LEHB123:
 4982 2366 E8000000 		call	_ZN8UnitTest11TestResultsC1EPNS_12TestReporterE
 4982      00
 196:TestChecks.cpp **** 
 197:TestChecks.cpp ****     int const array1[3] = { 1, 2, 3 };
 4983              		.loc 5 197 0
 4984 236b C7458001 		movl	$1, -128(%rbp)
 4984      000000
 4985 2372 C7458402 		movl	$2, -124(%rbp)
 4985      000000
 4986 2379 C7458803 		movl	$3, -120(%rbp)
 4986      000000
 198:TestChecks.cpp ****     int const array2[3] = { 1, 2, 2 };
 4987              		.loc 5 198 0
 4988 2380 C7459001 		movl	$1, -112(%rbp)
 4988      000000
 4989 2387 C7459402 		movl	$2, -108(%rbp)
 4989      000000
 4990 238e C7459802 		movl	$2, -104(%rbp)
 4990      000000
 199:TestChecks.cpp ****     CheckArrayEqual(results, array1, array2, 3, TestDetails("", "", "", 0));
 4991              		.loc 5 199 0
 4992 2395 488D45C0 		leaq	-64(%rbp), %rax
 4993 2399 41B80000 		movl	$0, %r8d
 4993      0000
 4994 239f B9000000 		movl	$.LC6, %ecx
 4994      00
 4995 23a4 BA000000 		movl	$.LC6, %edx
 4995      00
 4996 23a9 BE000000 		movl	$.LC6, %esi
 4996      00
 4997 23ae 4889C7   		movq	%rax, %rdi
 4998 23b1 E8000000 		call	_ZN8UnitTest11TestDetailsC1EPKcS2_S2_i
 4998      00
 4999 23b6 488D4DC0 		leaq	-64(%rbp), %rcx
 5000 23ba 488D5590 		leaq	-112(%rbp), %rdx
 5001 23be 488D7580 		leaq	-128(%rbp), %rsi
 5002 23c2 488D45A0 		leaq	-96(%rbp), %rax
 5003 23c6 4989C8   		movq	%rcx, %r8
 5004 23c9 B9030000 		movl	$3, %ecx
 5004      00
 5005 23ce 4889C7   		movq	%rax, %rdi
 5006 23d1 E8000000 		call	_ZN8UnitTest15CheckArrayEqualIA3_iS1_EEvRNS_11TestResultsERKT_RKT0_iRKNS_11TestDetailsE
 5006      00
 5007              	.LEHE123:
 5008              	.LEHB124:
 200:TestChecks.cpp ****     CHECK_EQUAL(1, results.GetFailureCount());
 5009              		.loc 5 200 0
 5010 23d6 E8000000 		call	_ZN8UnitTest11CurrentTest7DetailsEv
 5010      00
 5011 23db 488B08   		movq	(%rax), %rcx
 5012 23de 488D45C0 		leaq	-64(%rbp), %rax
 5013 23e2 BAC80000 		movl	$200, %edx
 5013      00
 5014 23e7 4889CE   		movq	%rcx, %rsi
 5015 23ea 4889C7   		movq	%rax, %rdi
 5016 23ed E8000000 		call	_ZN8UnitTest11TestDetailsC1ERKS0_i
 5016      00
 5017              		.loc 5 200 0 is_stmt 0 discriminator 2
 5018 23f2 488D45A0 		leaq	-96(%rbp), %rax
 5019 23f6 4889C7   		movq	%rax, %rdi
 5020 23f9 E8000000 		call	_ZNK8UnitTest11TestResults15GetFailureCountEv
 5020      00
 5021 23fe 89857CFF 		movl	%eax, -132(%rbp)
 5021      FFFF
 5022 2404 C78578FF 		movl	$1, -136(%rbp)
 5022      FFFF0100 
 5022      0000
 5023 240e E8000000 		call	_ZN8UnitTest11CurrentTest7ResultsEv
 5023      00
 5024              		.loc 5 200 0 discriminator 4
 5025 2413 488B00   		movq	(%rax), %rax
 5026 2416 488D4DC0 		leaq	-64(%rbp), %rcx
 5027 241a 488D957C 		leaq	-132(%rbp), %rdx
 5027      FFFFFF
 5028 2421 488DB578 		leaq	-136(%rbp), %rsi
 5028      FFFFFF
 5029 2428 4889C7   		movq	%rax, %rdi
 5030 242b E8000000 		call	_ZN8UnitTest10CheckEqualIiiEEvRNS_11TestResultsERKT_RKT0_RKNS_11TestDetailsE
 5030      00
 5031              	.LEHE124:
 5032              	.LBE64:
 201:TestChecks.cpp **** }
 5033              		.loc 5 201 0 is_stmt 1
 5034 2430 EB58     		jmp	.L235
 5035              	.L234:
 5036 2432 4889C3   		movq	%rax, %rbx
 5037              	.LBB65:
 200:TestChecks.cpp ****     CHECK_EQUAL(1, results.GetFailureCount());
 5038              		.loc 5 200 0
 5039 2435 E8000000 		call	__cxa_end_catch
 5039      00
 5040 243a 4889D8   		movq	%rbx, %rax
 5041 243d 4889C7   		movq	%rax, %rdi
 5042              	.LEHB125:
 5043 2440 E8000000 		call	_Unwind_Resume
 5043      00
 5044              	.LEHE125:
 5045              	.L233:
 5046 2445 4889C7   		movq	%rax, %rdi
 5047 2448 E8000000 		call	__cxa_begin_catch
 5047      00
 5048              	.LEHB126:
 5049 244d E8000000 		call	_ZN8UnitTest11CurrentTest7DetailsEv
 5049      00
 5050 2452 488B08   		movq	(%rax), %rcx
 5051 2455 488D45C0 		leaq	-64(%rbp), %rax
 5052 2459 BAC80000 		movl	$200, %edx
 5052      00
 5053 245e 4889CE   		movq	%rcx, %rsi
 5054 2461 4889C7   		movq	%rax, %rdi
 5055 2464 E8000000 		call	_ZN8UnitTest11TestDetailsC1ERKS0_i
 5055      00
 200:TestChecks.cpp ****     CHECK_EQUAL(1, results.GetFailureCount());
 5056              		.loc 5 200 0 is_stmt 0 discriminator 12
 5057 2469 E8000000 		call	_ZN8UnitTest11CurrentTest7ResultsEv
 5057      00
 5058 246e 488B00   		movq	(%rax), %rax
 5059 2471 488D4DC0 		leaq	-64(%rbp), %rcx
 5060 2475 BA000000 		movl	$.LC7, %edx
 5060      00
 5061 247a 4889CE   		movq	%rcx, %rsi
 5062 247d 4889C7   		movq	%rax, %rdi
 5063 2480 E8000000 		call	_ZN8UnitTest11TestResults13OnTestFailureERKNS_11TestDetailsEPKc
 5063      00
 5064              	.LEHE126:
 5065              	.LEHB127:
 200:TestChecks.cpp ****     CHECK_EQUAL(1, results.GetFailureCount());
 5066              		.loc 5 200 0 discriminator 16
 5067 2485 E8000000 		call	__cxa_end_catch
 5067      00
 5068              	.LEHE127:
 5069              	.L235:
 5070              	.LBE65:
 5071              		.loc 5 201 0 is_stmt 1
 5072 248a 90       		nop
 5073 248b 488B45E8 		movq	-24(%rbp), %rax
 5074 248f 64483304 		xorq	%fs:40, %rax
 5074      25280000 
 5074      00
 5075 2498 7405     		je	.L232
 5076 249a E8000000 		call	__stack_chk_fail
 5076      00
 5077              	.L232:
 5078 249f 4881C498 		addq	$152, %rsp
 5078      000000
 5079 24a6 5B       		popq	%rbx
 5080 24a7 5D       		popq	%rbp
 5081              		.cfi_def_cfa 7, 8
 5082 24a8 C3       		ret
 5083              		.cfi_endproc
 5084              	.LFE1150:
 5085              		.section	.gcc_except_table
 5086              		.align 4
 5087              	.LLSDA1150:
 5088 0370 FF       		.byte	0xff
 5089 0371 03       		.byte	0x3
 5090 0372 25       		.uleb128 .LLSDATT1150-.LLSDATTD1150
 5091              	.LLSDATTD1150:
 5092 0373 01       		.byte	0x1
 5093 0374 1A       		.uleb128 .LLSDACSE1150-.LLSDACSB1150
 5094              	.LLSDACSB1150:
 5095 0375 2E       		.uleb128 .LEHB123-.LFB1150
 5096 0376 70       		.uleb128 .LEHE123-.LEHB123
 5097 0377 00       		.uleb128 0
 5098 0378 00       		.uleb128 0
 5099 0379 9E01     		.uleb128 .LEHB124-.LFB1150
 5100 037b 5A       		.uleb128 .LEHE124-.LEHB124
 5101 037c 8D02     		.uleb128 .L233-.LFB1150
 5102 037e 01       		.uleb128 0x1
 5103 037f 8802     		.uleb128 .LEHB125-.LFB1150
 5104 0381 05       		.uleb128 .LEHE125-.LEHB125
 5105 0382 00       		.uleb128 0
 5106 0383 00       		.uleb128 0
 5107 0384 9502     		.uleb128 .LEHB126-.LFB1150
 5108 0386 38       		.uleb128 .LEHE126-.LEHB126
 5109 0387 FA01     		.uleb128 .L234-.LFB1150
 5110 0389 00       		.uleb128 0
 5111 038a CD02     		.uleb128 .LEHB127-.LFB1150
 5112 038c 05       		.uleb128 .LEHE127-.LEHB127
 5113 038d 00       		.uleb128 0
 5114 038e 00       		.uleb128 0
 5115              	.LLSDACSE1150:
 5116 038f 01       		.byte	0x1
 5117 0390 00       		.byte	0
 5118 0391 000000   		.align 4
 5119 0394 00000000 		.long	0
 5120              	
 5121              	.LLSDATT1150:
 5122              		.text
 5124              		.section	.rodata
 5125              	.LC59:
 5126 0849 43686563 		.string	"CheckArrayCloseTrue"
 5126      6B417272 
 5126      6179436C 
 5126      6F736554 
 5126      72756500 
 5127              		.text
 5128 24a9 90       		.align 2
 5130              	_ZN12_GLOBAL__N_123TestCheckArrayCloseTrueC2Ev:
 5131              	.LFB1152:
 202:TestChecks.cpp **** 
 203:TestChecks.cpp **** TEST(CheckArrayCloseTrue)
 5132              		.loc 5 203 0
 5133              		.cfi_startproc
 5134 24aa 55       		pushq	%rbp
 5135              		.cfi_def_cfa_offset 16
 5136              		.cfi_offset 6, -16
 5137 24ab 4889E5   		movq	%rsp, %rbp
 5138              		.cfi_def_cfa_register 6
 5139 24ae 4883EC10 		subq	$16, %rsp
 5140 24b2 48897DF8 		movq	%rdi, -8(%rbp)
 5141              	.LBB66:
 5142              		.loc 5 203 0
 5143 24b6 E8000000 		call	_ZN13UnitTestSuite12GetSuiteNameEv
 5143      00
 5144 24bb 4889C2   		movq	%rax, %rdx
 5145 24be 488B45F8 		movq	-8(%rbp), %rax
 5146 24c2 41B8CB00 		movl	$203, %r8d
 5146      0000
 5147 24c8 B9000000 		movl	$.LC2, %ecx
 5147      00
 5148 24cd BE000000 		movl	$.LC59, %esi
 5148      00
 5149 24d2 4889C7   		movq	%rax, %rdi
 5150 24d5 E8000000 		call	_ZN8UnitTest4TestC2EPKcS2_S2_i
 5150      00
 5151 24da 488B45F8 		movq	-8(%rbp), %rax
 5152 24de 48C70000 		movq	$_ZTVN12_GLOBAL__N_123TestCheckArrayCloseTrueE+16, (%rax)
 5152      000000
 5153              	.LBE66:
 5154 24e5 C9       		leave
 5155              		.cfi_def_cfa 7, 8
 5156 24e6 C3       		ret
 5157              		.cfi_endproc
 5158              	.LFE1152:
 5160              		.local	_ZN12_GLOBAL__N_131testCheckArrayCloseTrueInstanceE
 5161              		.comm	_ZN12_GLOBAL__N_131testCheckArrayCloseTrueInstanceE,56,32
 5162              		.local	_ZN12_GLOBAL__N_124adderCheckArrayCloseTrueE
 5163              		.comm	_ZN12_GLOBAL__N_124adderCheckArrayCloseTrueE,1,1
 5164 24e7 90       		.align 2
 5166              	_ZNK12_GLOBAL__N_123TestCheckArrayCloseTrue7RunImplEv:
 5167              	.LFB1154:
 204:TestChecks.cpp **** {
 5168              		.loc 5 204 0
 5169              		.cfi_startproc
 5170              		.cfi_personality 0x3,__gxx_personality_v0
 5171              		.cfi_lsda 0x3,.LLSDA1154
 5172 24e8 55       		pushq	%rbp
 5173              		.cfi_def_cfa_offset 16
 5174              		.cfi_offset 6, -16
 5175 24e9 4889E5   		movq	%rsp, %rbp
 5176              		.cfi_def_cfa_register 6
 5177 24ec 53       		pushq	%rbx
 5178 24ed 4881EC98 		subq	$152, %rsp
 5178      000000
 5179              		.cfi_offset 3, -24
 5180 24f4 4889BD68 		movq	%rdi, -152(%rbp)
 5180      FFFFFF
 5181              		.loc 5 204 0
 5182 24fb 64488B04 		movq	%fs:40, %rax
 5182      25280000 
 5182      00
 5183 2504 488945E8 		movq	%rax, -24(%rbp)
 5184 2508 31C0     		xorl	%eax, %eax
 5185              	.LBB67:
 205:TestChecks.cpp ****     TestResults results;
 5186              		.loc 5 205 0
 5187 250a 488D45A0 		leaq	-96(%rbp), %rax
 5188 250e BE000000 		movl	$0, %esi
 5188      00
 5189 2513 4889C7   		movq	%rax, %rdi
 5190              	.LEHB128:
 5191 2516 E8000000 		call	_ZN8UnitTest11TestResultsC1EPNS_12TestReporterE
 5191      00
 206:TestChecks.cpp **** 
 207:TestChecks.cpp ****     float const array1[3] = { 1.0f, 1.5f, 2.0f };
 5192              		.loc 5 207 0
 5193 251b 8B050000 		movl	.LC60(%rip), %eax
 5193      0000
 5194 2521 894580   		movl	%eax, -128(%rbp)
 5195 2524 8B050000 		movl	.LC61(%rip), %eax
 5195      0000
 5196 252a 894584   		movl	%eax, -124(%rbp)
 5197 252d 8B050000 		movl	.LC62(%rip), %eax
 5197      0000
 5198 2533 894588   		movl	%eax, -120(%rbp)
 208:TestChecks.cpp ****     float const array2[3] = { 1.01f, 1.51f, 2.01f };
 5199              		.loc 5 208 0
 5200 2536 8B050000 		movl	.LC63(%rip), %eax
 5200      0000
 5201 253c 894590   		movl	%eax, -112(%rbp)
 5202 253f 8B050000 		movl	.LC64(%rip), %eax
 5202      0000
 5203 2545 894594   		movl	%eax, -108(%rbp)
 5204 2548 8B050000 		movl	.LC65(%rip), %eax
 5204      0000
 5205 254e 894598   		movl	%eax, -104(%rbp)
 209:TestChecks.cpp ****     CheckArrayClose(results, array1, array2, 3, 0.02f, TestDetails("", "", "", 0));
 5206              		.loc 5 209 0
 5207 2551 488D45C0 		leaq	-64(%rbp), %rax
 5208 2555 41B80000 		movl	$0, %r8d
 5208      0000
 5209 255b B9000000 		movl	$.LC6, %ecx
 5209      00
 5210 2560 BA000000 		movl	$.LC6, %edx
 5210      00
 5211 2565 BE000000 		movl	$.LC6, %esi
 5211      00
 5212 256a 4889C7   		movq	%rax, %rdi
 5213 256d E8000000 		call	_ZN8UnitTest11TestDetailsC1EPKcS2_S2_i
 5213      00
 5214 2572 8B050000 		movl	.LC66(%rip), %eax
 5214      0000
 5215 2578 89857CFF 		movl	%eax, -132(%rbp)
 5215      FFFF
 5216 257e 488D7DC0 		leaq	-64(%rbp), %rdi
 5217 2582 488D8D7C 		leaq	-132(%rbp), %rcx
 5217      FFFFFF
 5218 2589 488D5590 		leaq	-112(%rbp), %rdx
 5219 258d 488D7580 		leaq	-128(%rbp), %rsi
 5220 2591 488D45A0 		leaq	-96(%rbp), %rax
 5221 2595 4989F9   		movq	%rdi, %r9
 5222 2598 4989C8   		movq	%rcx, %r8
 5223 259b B9030000 		movl	$3, %ecx
 5223      00
 5224 25a0 4889C7   		movq	%rax, %rdi
 5225 25a3 E8000000 		call	_ZN8UnitTest15CheckArrayCloseIA3_fS1_fEEvRNS_11TestResultsERKT_RKT0_iRKT1_RKNS_11TestDetailsE
 5225      00
 5226              	.LEHE128:
 5227              	.LEHB129:
 210:TestChecks.cpp ****     CHECK_EQUAL(0, results.GetFailureCount());
 5228              		.loc 5 210 0
 5229 25a8 E8000000 		call	_ZN8UnitTest11CurrentTest7DetailsEv
 5229      00
 5230 25ad 488B08   		movq	(%rax), %rcx
 5231 25b0 488D45C0 		leaq	-64(%rbp), %rax
 5232 25b4 BAD20000 		movl	$210, %edx
 5232      00
 5233 25b9 4889CE   		movq	%rcx, %rsi
 5234 25bc 4889C7   		movq	%rax, %rdi
 5235 25bf E8000000 		call	_ZN8UnitTest11TestDetailsC1ERKS0_i
 5235      00
 5236              		.loc 5 210 0 is_stmt 0 discriminator 2
 5237 25c4 488D45A0 		leaq	-96(%rbp), %rax
 5238 25c8 4889C7   		movq	%rax, %rdi
 5239 25cb E8000000 		call	_ZNK8UnitTest11TestResults15GetFailureCountEv
 5239      00
 5240 25d0 89857CFF 		movl	%eax, -132(%rbp)
 5240      FFFF
 5241 25d6 C78578FF 		movl	$0, -136(%rbp)
 5241      FFFF0000 
 5241      0000
 5242 25e0 E8000000 		call	_ZN8UnitTest11CurrentTest7ResultsEv
 5242      00
 5243              		.loc 5 210 0 discriminator 4
 5244 25e5 488B00   		movq	(%rax), %rax
 5245 25e8 488D4DC0 		leaq	-64(%rbp), %rcx
 5246 25ec 488D957C 		leaq	-132(%rbp), %rdx
 5246      FFFFFF
 5247 25f3 488DB578 		leaq	-136(%rbp), %rsi
 5247      FFFFFF
 5248 25fa 4889C7   		movq	%rax, %rdi
 5249 25fd E8000000 		call	_ZN8UnitTest10CheckEqualIiiEEvRNS_11TestResultsERKT_RKT0_RKNS_11TestDetailsE
 5249      00
 5250              	.LEHE129:
 5251              	.LBE67:
 211:TestChecks.cpp **** }
 5252              		.loc 5 211 0 is_stmt 1
 5253 2602 EB58     		jmp	.L244
 5254              	.L243:
 5255 2604 4889C3   		movq	%rax, %rbx
 5256              	.LBB68:
 210:TestChecks.cpp ****     CHECK_EQUAL(0, results.GetFailureCount());
 5257              		.loc 5 210 0
 5258 2607 E8000000 		call	__cxa_end_catch
 5258      00
 5259 260c 4889D8   		movq	%rbx, %rax
 5260 260f 4889C7   		movq	%rax, %rdi
 5261              	.LEHB130:
 5262 2612 E8000000 		call	_Unwind_Resume
 5262      00
 5263              	.LEHE130:
 5264              	.L242:
 5265 2617 4889C7   		movq	%rax, %rdi
 5266 261a E8000000 		call	__cxa_begin_catch
 5266      00
 5267              	.LEHB131:
 5268 261f E8000000 		call	_ZN8UnitTest11CurrentTest7DetailsEv
 5268      00
 5269 2624 488B08   		movq	(%rax), %rcx
 5270 2627 488D45C0 		leaq	-64(%rbp), %rax
 5271 262b BAD20000 		movl	$210, %edx
 5271      00
 5272 2630 4889CE   		movq	%rcx, %rsi
 5273 2633 4889C7   		movq	%rax, %rdi
 5274 2636 E8000000 		call	_ZN8UnitTest11TestDetailsC1ERKS0_i
 5274      00
 210:TestChecks.cpp ****     CHECK_EQUAL(0, results.GetFailureCount());
 5275              		.loc 5 210 0 is_stmt 0 discriminator 12
 5276 263b E8000000 		call	_ZN8UnitTest11CurrentTest7ResultsEv
 5276      00
 5277 2640 488B00   		movq	(%rax), %rax
 5278 2643 488D4DC0 		leaq	-64(%rbp), %rcx
 5279 2647 BA000000 		movl	$.LC9, %edx
 5279      00
 5280 264c 4889CE   		movq	%rcx, %rsi
 5281 264f 4889C7   		movq	%rax, %rdi
 5282 2652 E8000000 		call	_ZN8UnitTest11TestResults13OnTestFailureERKNS_11TestDetailsEPKc
 5282      00
 5283              	.LEHE131:
 5284              	.LEHB132:
 210:TestChecks.cpp ****     CHECK_EQUAL(0, results.GetFailureCount());
 5285              		.loc 5 210 0 discriminator 16
 5286 2657 E8000000 		call	__cxa_end_catch
 5286      00
 5287              	.LEHE132:
 5288              	.L244:
 5289              	.LBE68:
 5290              		.loc 5 211 0 is_stmt 1
 5291 265c 90       		nop
 5292 265d 488B45E8 		movq	-24(%rbp), %rax
 5293 2661 64483304 		xorq	%fs:40, %rax
 5293      25280000 
 5293      00
 5294 266a 7405     		je	.L241
 5295 266c E8000000 		call	__stack_chk_fail
 5295      00
 5296              	.L241:
 5297 2671 4881C498 		addq	$152, %rsp
 5297      000000
 5298 2678 5B       		popq	%rbx
 5299 2679 5D       		popq	%rbp
 5300              		.cfi_def_cfa 7, 8
 5301 267a C3       		ret
 5302              		.cfi_endproc
 5303              	.LFE1154:
 5304              		.section	.gcc_except_table
 5305              		.align 4
 5306              	.LLSDA1154:
 5307 0398 FF       		.byte	0xff
 5308 0399 03       		.byte	0x3
 5309 039a 25       		.uleb128 .LLSDATT1154-.LLSDATTD1154
 5310              	.LLSDATTD1154:
 5311 039b 01       		.byte	0x1
 5312 039c 1B       		.uleb128 .LLSDACSE1154-.LLSDACSB1154
 5313              	.LLSDACSB1154:
 5314 039d 2E       		.uleb128 .LEHB128-.LFB1154
 5315 039e 9201     		.uleb128 .LEHE128-.LEHB128
 5316 03a0 00       		.uleb128 0
 5317 03a1 00       		.uleb128 0
 5318 03a2 C001     		.uleb128 .LEHB129-.LFB1154
 5319 03a4 5A       		.uleb128 .LEHE129-.LEHB129
 5320 03a5 AF02     		.uleb128 .L242-.LFB1154
 5321 03a7 01       		.uleb128 0x1
 5322 03a8 AA02     		.uleb128 .LEHB130-.LFB1154
 5323 03aa 05       		.uleb128 .LEHE130-.LEHB130
 5324 03ab 00       		.uleb128 0
 5325 03ac 00       		.uleb128 0
 5326 03ad B702     		.uleb128 .LEHB131-.LFB1154
 5327 03af 38       		.uleb128 .LEHE131-.LEHB131
 5328 03b0 9C02     		.uleb128 .L243-.LFB1154
 5329 03b2 00       		.uleb128 0
 5330 03b3 EF02     		.uleb128 .LEHB132-.LFB1154
 5331 03b5 05       		.uleb128 .LEHE132-.LEHB132
 5332 03b6 00       		.uleb128 0
 5333 03b7 00       		.uleb128 0
 5334              	.LLSDACSE1154:
 5335 03b8 01       		.byte	0x1
 5336 03b9 00       		.byte	0
 5337 03ba 0000     		.align 4
 5338 03bc 00000000 		.long	0
 5339              	
 5340              	.LLSDATT1154:
 5341              		.text
 5343              		.section	.rodata
 5344              	.LC67:
 5345 085d 43686563 		.string	"CheckArrayCloseFalse"
 5345      6B417272 
 5345      6179436C 
 5345      6F736546 
 5345      616C7365 
 5346              		.text
 5347 267b 90       		.align 2
 5349              	_ZN12_GLOBAL__N_124TestCheckArrayCloseFalseC2Ev:
 5350              	.LFB1156:
 212:TestChecks.cpp **** 
 213:TestChecks.cpp **** TEST(CheckArrayCloseFalse)
 5351              		.loc 5 213 0
 5352              		.cfi_startproc
 5353 267c 55       		pushq	%rbp
 5354              		.cfi_def_cfa_offset 16
 5355              		.cfi_offset 6, -16
 5356 267d 4889E5   		movq	%rsp, %rbp
 5357              		.cfi_def_cfa_register 6
 5358 2680 4883EC10 		subq	$16, %rsp
 5359 2684 48897DF8 		movq	%rdi, -8(%rbp)
 5360              	.LBB69:
 5361              		.loc 5 213 0
 5362 2688 E8000000 		call	_ZN13UnitTestSuite12GetSuiteNameEv
 5362      00
 5363 268d 4889C2   		movq	%rax, %rdx
 5364 2690 488B45F8 		movq	-8(%rbp), %rax
 5365 2694 41B8D500 		movl	$213, %r8d
 5365      0000
 5366 269a B9000000 		movl	$.LC2, %ecx
 5366      00
 5367 269f BE000000 		movl	$.LC67, %esi
 5367      00
 5368 26a4 4889C7   		movq	%rax, %rdi
 5369 26a7 E8000000 		call	_ZN8UnitTest4TestC2EPKcS2_S2_i
 5369      00
 5370 26ac 488B45F8 		movq	-8(%rbp), %rax
 5371 26b0 48C70000 		movq	$_ZTVN12_GLOBAL__N_124TestCheckArrayCloseFalseE+16, (%rax)
 5371      000000
 5372              	.LBE69:
 5373 26b7 C9       		leave
 5374              		.cfi_def_cfa 7, 8
 5375 26b8 C3       		ret
 5376              		.cfi_endproc
 5377              	.LFE1156:
 5379              		.local	_ZN12_GLOBAL__N_132testCheckArrayCloseFalseInstanceE
 5380              		.comm	_ZN12_GLOBAL__N_132testCheckArrayCloseFalseInstanceE,56,32
 5381              		.local	_ZN12_GLOBAL__N_125adderCheckArrayCloseFalseE
 5382              		.comm	_ZN12_GLOBAL__N_125adderCheckArrayCloseFalseE,1,1
 5383 26b9 90       		.align 2
 5385              	_ZNK12_GLOBAL__N_124TestCheckArrayCloseFalse7RunImplEv:
 5386              	.LFB1158:
 214:TestChecks.cpp **** {
 5387              		.loc 5 214 0
 5388              		.cfi_startproc
 5389              		.cfi_personality 0x3,__gxx_personality_v0
 5390              		.cfi_lsda 0x3,.LLSDA1158
 5391 26ba 55       		pushq	%rbp
 5392              		.cfi_def_cfa_offset 16
 5393              		.cfi_offset 6, -16
 5394 26bb 4889E5   		movq	%rsp, %rbp
 5395              		.cfi_def_cfa_register 6
 5396 26be 53       		pushq	%rbx
 5397 26bf 4881EC98 		subq	$152, %rsp
 5397      000000
 5398              		.cfi_offset 3, -24
 5399 26c6 4889BD68 		movq	%rdi, -152(%rbp)
 5399      FFFFFF
 5400              		.loc 5 214 0
 5401 26cd 64488B04 		movq	%fs:40, %rax
 5401      25280000 
 5401      00
 5402 26d6 488945E8 		movq	%rax, -24(%rbp)
 5403 26da 31C0     		xorl	%eax, %eax
 5404              	.LBB70:
 215:TestChecks.cpp ****     TestResults results;
 5405              		.loc 5 215 0
 5406 26dc 488D45A0 		leaq	-96(%rbp), %rax
 5407 26e0 BE000000 		movl	$0, %esi
 5407      00
 5408 26e5 4889C7   		movq	%rax, %rdi
 5409              	.LEHB133:
 5410 26e8 E8000000 		call	_ZN8UnitTest11TestResultsC1EPNS_12TestReporterE
 5410      00
 216:TestChecks.cpp **** 
 217:TestChecks.cpp ****     float const array1[3] = { 1.0f, 1.5f, 2.0f };
 5411              		.loc 5 217 0
 5412 26ed 8B050000 		movl	.LC60(%rip), %eax
 5412      0000
 5413 26f3 894580   		movl	%eax, -128(%rbp)
 5414 26f6 8B050000 		movl	.LC61(%rip), %eax
 5414      0000
 5415 26fc 894584   		movl	%eax, -124(%rbp)
 5416 26ff 8B050000 		movl	.LC62(%rip), %eax
 5416      0000
 5417 2705 894588   		movl	%eax, -120(%rbp)
 218:TestChecks.cpp ****     float const array2[3] = { 1.01f, 1.51f, 2.01f };
 5418              		.loc 5 218 0
 5419 2708 8B050000 		movl	.LC63(%rip), %eax
 5419      0000
 5420 270e 894590   		movl	%eax, -112(%rbp)
 5421 2711 8B050000 		movl	.LC64(%rip), %eax
 5421      0000
 5422 2717 894594   		movl	%eax, -108(%rbp)
 5423 271a 8B050000 		movl	.LC65(%rip), %eax
 5423      0000
 5424 2720 894598   		movl	%eax, -104(%rbp)
 219:TestChecks.cpp ****     CheckArrayClose(results, array1, array2, 3, 0.001f, TestDetails("", "", "", 0));
 5425              		.loc 5 219 0
 5426 2723 488D45C0 		leaq	-64(%rbp), %rax
 5427 2727 41B80000 		movl	$0, %r8d
 5427      0000
 5428 272d B9000000 		movl	$.LC6, %ecx
 5428      00
 5429 2732 BA000000 		movl	$.LC6, %edx
 5429      00
 5430 2737 BE000000 		movl	$.LC6, %esi
 5430      00
 5431 273c 4889C7   		movq	%rax, %rdi
 5432 273f E8000000 		call	_ZN8UnitTest11TestDetailsC1EPKcS2_S2_i
 5432      00
 5433 2744 8B050000 		movl	.LC68(%rip), %eax
 5433      0000
 5434 274a 89857CFF 		movl	%eax, -132(%rbp)
 5434      FFFF
 5435 2750 488D7DC0 		leaq	-64(%rbp), %rdi
 5436 2754 488D8D7C 		leaq	-132(%rbp), %rcx
 5436      FFFFFF
 5437 275b 488D5590 		leaq	-112(%rbp), %rdx
 5438 275f 488D7580 		leaq	-128(%rbp), %rsi
 5439 2763 488D45A0 		leaq	-96(%rbp), %rax
 5440 2767 4989F9   		movq	%rdi, %r9
 5441 276a 4989C8   		movq	%rcx, %r8
 5442 276d B9030000 		movl	$3, %ecx
 5442      00
 5443 2772 4889C7   		movq	%rax, %rdi
 5444 2775 E8000000 		call	_ZN8UnitTest15CheckArrayCloseIA3_fS1_fEEvRNS_11TestResultsERKT_RKT0_iRKT1_RKNS_11TestDetailsE
 5444      00
 5445              	.LEHE133:
 5446              	.LEHB134:
 220:TestChecks.cpp ****     CHECK_EQUAL(1, results.GetFailureCount());
 5447              		.loc 5 220 0
 5448 277a E8000000 		call	_ZN8UnitTest11CurrentTest7DetailsEv
 5448      00
 5449 277f 488B08   		movq	(%rax), %rcx
 5450 2782 488D45C0 		leaq	-64(%rbp), %rax
 5451 2786 BADC0000 		movl	$220, %edx
 5451      00
 5452 278b 4889CE   		movq	%rcx, %rsi
 5453 278e 4889C7   		movq	%rax, %rdi
 5454 2791 E8000000 		call	_ZN8UnitTest11TestDetailsC1ERKS0_i
 5454      00
 5455              		.loc 5 220 0 is_stmt 0 discriminator 2
 5456 2796 488D45A0 		leaq	-96(%rbp), %rax
 5457 279a 4889C7   		movq	%rax, %rdi
 5458 279d E8000000 		call	_ZNK8UnitTest11TestResults15GetFailureCountEv
 5458      00
 5459 27a2 89857CFF 		movl	%eax, -132(%rbp)
 5459      FFFF
 5460 27a8 C78578FF 		movl	$1, -136(%rbp)
 5460      FFFF0100 
 5460      0000
 5461 27b2 E8000000 		call	_ZN8UnitTest11CurrentTest7ResultsEv
 5461      00
 5462              		.loc 5 220 0 discriminator 4
 5463 27b7 488B00   		movq	(%rax), %rax
 5464 27ba 488D4DC0 		leaq	-64(%rbp), %rcx
 5465 27be 488D957C 		leaq	-132(%rbp), %rdx
 5465      FFFFFF
 5466 27c5 488DB578 		leaq	-136(%rbp), %rsi
 5466      FFFFFF
 5467 27cc 4889C7   		movq	%rax, %rdi
 5468 27cf E8000000 		call	_ZN8UnitTest10CheckEqualIiiEEvRNS_11TestResultsERKT_RKT0_RKNS_11TestDetailsE
 5468      00
 5469              	.LEHE134:
 5470              	.LBE70:
 221:TestChecks.cpp **** }
 5471              		.loc 5 221 0 is_stmt 1
 5472 27d4 EB58     		jmp	.L253
 5473              	.L252:
 5474 27d6 4889C3   		movq	%rax, %rbx
 5475              	.LBB71:
 220:TestChecks.cpp ****     CHECK_EQUAL(1, results.GetFailureCount());
 5476              		.loc 5 220 0
 5477 27d9 E8000000 		call	__cxa_end_catch
 5477      00
 5478 27de 4889D8   		movq	%rbx, %rax
 5479 27e1 4889C7   		movq	%rax, %rdi
 5480              	.LEHB135:
 5481 27e4 E8000000 		call	_Unwind_Resume
 5481      00
 5482              	.LEHE135:
 5483              	.L251:
 5484 27e9 4889C7   		movq	%rax, %rdi
 5485 27ec E8000000 		call	__cxa_begin_catch
 5485      00
 5486              	.LEHB136:
 5487 27f1 E8000000 		call	_ZN8UnitTest11CurrentTest7DetailsEv
 5487      00
 5488 27f6 488B08   		movq	(%rax), %rcx
 5489 27f9 488D45C0 		leaq	-64(%rbp), %rax
 5490 27fd BADC0000 		movl	$220, %edx
 5490      00
 5491 2802 4889CE   		movq	%rcx, %rsi
 5492 2805 4889C7   		movq	%rax, %rdi
 5493 2808 E8000000 		call	_ZN8UnitTest11TestDetailsC1ERKS0_i
 5493      00
 220:TestChecks.cpp ****     CHECK_EQUAL(1, results.GetFailureCount());
 5494              		.loc 5 220 0 is_stmt 0 discriminator 12
 5495 280d E8000000 		call	_ZN8UnitTest11CurrentTest7ResultsEv
 5495      00
 5496 2812 488B00   		movq	(%rax), %rax
 5497 2815 488D4DC0 		leaq	-64(%rbp), %rcx
 5498 2819 BA000000 		movl	$.LC7, %edx
 5498      00
 5499 281e 4889CE   		movq	%rcx, %rsi
 5500 2821 4889C7   		movq	%rax, %rdi
 5501 2824 E8000000 		call	_ZN8UnitTest11TestResults13OnTestFailureERKNS_11TestDetailsEPKc
 5501      00
 5502              	.LEHE136:
 5503              	.LEHB137:
 220:TestChecks.cpp ****     CHECK_EQUAL(1, results.GetFailureCount());
 5504              		.loc 5 220 0 discriminator 16
 5505 2829 E8000000 		call	__cxa_end_catch
 5505      00
 5506              	.LEHE137:
 5507              	.L253:
 5508              	.LBE71:
 5509              		.loc 5 221 0 is_stmt 1
 5510 282e 90       		nop
 5511 282f 488B45E8 		movq	-24(%rbp), %rax
 5512 2833 64483304 		xorq	%fs:40, %rax
 5512      25280000 
 5512      00
 5513 283c 7405     		je	.L250
 5514 283e E8000000 		call	__stack_chk_fail
 5514      00
 5515              	.L250:
 5516 2843 4881C498 		addq	$152, %rsp
 5516      000000
 5517 284a 5B       		popq	%rbx
 5518 284b 5D       		popq	%rbp
 5519              		.cfi_def_cfa 7, 8
 5520 284c C3       		ret
 5521              		.cfi_endproc
 5522              	.LFE1158:
 5523              		.section	.gcc_except_table
 5524              		.align 4
 5525              	.LLSDA1158:
 5526 03c0 FF       		.byte	0xff
 5527 03c1 03       		.byte	0x3
 5528 03c2 25       		.uleb128 .LLSDATT1158-.LLSDATTD1158
 5529              	.LLSDATTD1158:
 5530 03c3 01       		.byte	0x1
 5531 03c4 1B       		.uleb128 .LLSDACSE1158-.LLSDACSB1158
 5532              	.LLSDACSB1158:
 5533 03c5 2E       		.uleb128 .LEHB133-.LFB1158
 5534 03c6 9201     		.uleb128 .LEHE133-.LEHB133
 5535 03c8 00       		.uleb128 0
 5536 03c9 00       		.uleb128 0
 5537 03ca C001     		.uleb128 .LEHB134-.LFB1158
 5538 03cc 5A       		.uleb128 .LEHE134-.LEHB134
 5539 03cd AF02     		.uleb128 .L251-.LFB1158
 5540 03cf 01       		.uleb128 0x1
 5541 03d0 AA02     		.uleb128 .LEHB135-.LFB1158
 5542 03d2 05       		.uleb128 .LEHE135-.LEHB135
 5543 03d3 00       		.uleb128 0
 5544 03d4 00       		.uleb128 0
 5545 03d5 B702     		.uleb128 .LEHB136-.LFB1158
 5546 03d7 38       		.uleb128 .LEHE136-.LEHB136
 5547 03d8 9C02     		.uleb128 .L252-.LFB1158
 5548 03da 00       		.uleb128 0
 5549 03db EF02     		.uleb128 .LEHB137-.LFB1158
 5550 03dd 05       		.uleb128 .LEHE137-.LEHB137
 5551 03de 00       		.uleb128 0
 5552 03df 00       		.uleb128 0
 5553              	.LLSDACSE1158:
 5554 03e0 01       		.byte	0x1
 5555 03e1 00       		.byte	0
 5556 03e2 0000     		.align 4
 5557 03e4 00000000 		.long	0
 5558              	
 5559              	.LLSDATT1158:
 5560              		.text
 5562              		.section	.rodata
 5563 0872 00000000 		.align 8
 5563      0000
 5564              	.LC69:
 5565 0878 43686563 		.string	"CheckArrayCloseFailureIncludesDetails"
 5565      6B417272 
 5565      6179436C 
 5565      6F736546 
 5565      61696C75 
 5566              		.text
 5567 284d 90       		.align 2
 5569              	_ZN12_GLOBAL__N_141TestCheckArrayCloseFailureIncludesDetailsC2Ev:
 5570              	.LFB1160:
 222:TestChecks.cpp **** 
 223:TestChecks.cpp **** TEST(CheckArrayCloseFailureIncludesDetails)
 5571              		.loc 5 223 0
 5572              		.cfi_startproc
 5573 284e 55       		pushq	%rbp
 5574              		.cfi_def_cfa_offset 16
 5575              		.cfi_offset 6, -16
 5576 284f 4889E5   		movq	%rsp, %rbp
 5577              		.cfi_def_cfa_register 6
 5578 2852 4883EC10 		subq	$16, %rsp
 5579 2856 48897DF8 		movq	%rdi, -8(%rbp)
 5580              	.LBB72:
 5581              		.loc 5 223 0
 5582 285a E8000000 		call	_ZN13UnitTestSuite12GetSuiteNameEv
 5582      00
 5583 285f 4889C2   		movq	%rax, %rdx
 5584 2862 488B45F8 		movq	-8(%rbp), %rax
 5585 2866 41B8DF00 		movl	$223, %r8d
 5585      0000
 5586 286c B9000000 		movl	$.LC2, %ecx
 5586      00
 5587 2871 BE000000 		movl	$.LC69, %esi
 5587      00
 5588 2876 4889C7   		movq	%rax, %rdi
 5589 2879 E8000000 		call	_ZN8UnitTest4TestC2EPKcS2_S2_i
 5589      00
 5590 287e 488B45F8 		movq	-8(%rbp), %rax
 5591 2882 48C70000 		movq	$_ZTVN12_GLOBAL__N_141TestCheckArrayCloseFailureIncludesDetailsE+16, (%rax)
 5591      000000
 5592              	.LBE72:
 5593 2889 C9       		leave
 5594              		.cfi_def_cfa 7, 8
 5595 288a C3       		ret
 5596              		.cfi_endproc
 5597              	.LFE1160:
 5599              		.local	_ZN12_GLOBAL__N_149testCheckArrayCloseFailureIncludesDetailsInstanceE
 5600              		.comm	_ZN12_GLOBAL__N_149testCheckArrayCloseFailureIncludesDetailsInstanceE,56,32
 5601              		.local	_ZN12_GLOBAL__N_142adderCheckArrayCloseFailureIncludesDetailsE
 5602              		.comm	_ZN12_GLOBAL__N_142adderCheckArrayCloseFailureIncludesDetailsE,1,1
 5603              		.section	.rodata
 5604              	.LC70:
 5605 089e 66696C65 		.string	"file"
 5605      00
 5606              	.LC71:
 5607 08a3 61727261 		.string	"arrayCloseSuite"
 5607      79436C6F 
 5607      73655375 
 5607      69746500 
 5608              	.LC72:
 5609 08b3 61727261 		.string	"arrayCloseTest"
 5609      79436C6F 
 5609      73655465 
 5609      737400
 5610 08c2 00000000 		.align 8
 5610      0000
 5611              	.LC73:
 5612 08c8 556E6861 		.string	"Unhandled exception in CHECK_EQUAL(\"arrayCloseTest\", reporter.lastFailedTest)"
 5612      6E646C65 
 5612      64206578 
 5612      63657074 
 5612      696F6E20 
 5613 0916 0000     		.align 8
 5614              	.LC74:
 5615 0918 556E6861 		.string	"Unhandled exception in CHECK_EQUAL(\"arrayCloseSuite\", reporter.lastFailedSuite)"
 5615      6E646C65 
 5615      64206578 
 5615      63657074 
 5615      696F6E20 
 5616              		.align 8
 5617              	.LC75:
 5618 0968 556E6861 		.string	"Unhandled exception in CHECK_EQUAL(\"file\", reporter.lastFailedFile)"
 5618      6E646C65 
 5618      64206578 
 5618      63657074 
 5618      696F6E20 
 5619 09ac 00000000 		.align 8
 5620              	.LC76:
 5621 09b0 556E6861 		.string	"Unhandled exception in CHECK_EQUAL(1337, reporter.lastFailedLine)"
 5621      6E646C65 
 5621      64206578 
 5621      63657074 
 5621      696F6E20 
 5622              		.text
 5623 288b 90       		.align 2
 5625              	_ZNK12_GLOBAL__N_141TestCheckArrayCloseFailureIncludesDetails7RunImplEv:
 5626              	.LFB1162:
 224:TestChecks.cpp **** {
 5627              		.loc 5 224 0
 5628              		.cfi_startproc
 5629              		.cfi_personality 0x3,__gxx_personality_v0
 5630              		.cfi_lsda 0x3,.LLSDA1162
 5631 288c 55       		pushq	%rbp
 5632              		.cfi_def_cfa_offset 16
 5633              		.cfi_offset 6, -16
 5634 288d 4889E5   		movq	%rsp, %rbp
 5635              		.cfi_def_cfa_register 6
 5636 2890 53       		pushq	%rbx
 5637 2891 4881ECE8 		subq	$2280, %rsp
 5637      080000
 5638              		.cfi_offset 3, -24
 5639 2898 4889BD18 		movq	%rdi, -2280(%rbp)
 5639      F7FFFF
 5640              		.loc 5 224 0
 5641 289f 64488B04 		movq	%fs:40, %rax
 5641      25280000 
 5641      00
 5642 28a8 488945E8 		movq	%rax, -24(%rbp)
 5643 28ac 31C0     		xorl	%eax, %eax
 5644              	.LBB73:
 225:TestChecks.cpp ****     RecordingReporter reporter;
 5645              		.loc 5 225 0
 5646 28ae 488D85B0 		leaq	-2128(%rbp), %rax
 5646      F7FFFF
 5647 28b5 4889C7   		movq	%rax, %rdi
 5648 28b8 E8000000 		call	_ZN17RecordingReporterC1Ev
 5648      00
 226:TestChecks.cpp ****     TestResults results(&reporter);
 5649              		.loc 5 226 0
 5650 28bd 488D95B0 		leaq	-2128(%rbp), %rdx
 5650      F7FFFF
 5651 28c4 488D8550 		leaq	-2224(%rbp), %rax
 5651      F7FFFF
 5652 28cb 4889D6   		movq	%rdx, %rsi
 5653 28ce 4889C7   		movq	%rax, %rdi
 5654              	.LEHB138:
 5655 28d1 E8000000 		call	_ZN8UnitTest11TestResultsC1EPNS_12TestReporterE
 5655      00
 227:TestChecks.cpp ****     TestDetails const details("arrayCloseTest", "arrayCloseSuite", "file", 1337);
 5656              		.loc 5 227 0
 5657 28d6 488D8570 		leaq	-2192(%rbp), %rax
 5657      F7FFFF
 5658 28dd 41B83905 		movl	$1337, %r8d
 5658      0000
 5659 28e3 B9000000 		movl	$.LC70, %ecx
 5659      00
 5660 28e8 BA000000 		movl	$.LC71, %edx
 5660      00
 5661 28ed BE000000 		movl	$.LC72, %esi
 5661      00
 5662 28f2 4889C7   		movq	%rax, %rdi
 5663 28f5 E8000000 		call	_ZN8UnitTest11TestDetailsC1EPKcS2_S2_i
 5663      00
 228:TestChecks.cpp **** 
 229:TestChecks.cpp ****     float const array1[3] = { 1.0f, 1.5f, 2.0f };
 5664              		.loc 5 229 0
 5665 28fa 8B050000 		movl	.LC60(%rip), %eax
 5665      0000
 5666 2900 898530F7 		movl	%eax, -2256(%rbp)
 5666      FFFF
 5667 2906 8B050000 		movl	.LC61(%rip), %eax
 5667      0000
 5668 290c 898534F7 		movl	%eax, -2252(%rbp)
 5668      FFFF
 5669 2912 8B050000 		movl	.LC62(%rip), %eax
 5669      0000
 5670 2918 898538F7 		movl	%eax, -2248(%rbp)
 5670      FFFF
 230:TestChecks.cpp ****     float const array2[3] = { 1.01f, 1.51f, 2.01f };
 5671              		.loc 5 230 0
 5672 291e 8B050000 		movl	.LC63(%rip), %eax
 5672      0000
 5673 2924 898540F7 		movl	%eax, -2240(%rbp)
 5673      FFFF
 5674 292a 8B050000 		movl	.LC64(%rip), %eax
 5674      0000
 5675 2930 898544F7 		movl	%eax, -2236(%rbp)
 5675      FFFF
 5676 2936 8B050000 		movl	.LC65(%rip), %eax
 5676      0000
 5677 293c 898548F7 		movl	%eax, -2232(%rbp)
 5677      FFFF
 231:TestChecks.cpp ****     CheckArrayClose(results, array1, array2, 3, 0.001f, details);
 5678              		.loc 5 231 0
 5679 2942 8B050000 		movl	.LC68(%rip), %eax
 5679      0000
 5680 2948 898590F7 		movl	%eax, -2160(%rbp)
 5680      FFFF
 5681 294e 488DBD70 		leaq	-2192(%rbp), %rdi
 5681      F7FFFF
 5682 2955 488D8D90 		leaq	-2160(%rbp), %rcx
 5682      F7FFFF
 5683 295c 488D9540 		leaq	-2240(%rbp), %rdx
 5683      F7FFFF
 5684 2963 488DB530 		leaq	-2256(%rbp), %rsi
 5684      F7FFFF
 5685 296a 488D8550 		leaq	-2224(%rbp), %rax
 5685      F7FFFF
 5686 2971 4989F9   		movq	%rdi, %r9
 5687 2974 4989C8   		movq	%rcx, %r8
 5688 2977 B9030000 		movl	$3, %ecx
 5688      00
 5689 297c 4889C7   		movq	%rax, %rdi
 5690 297f E8000000 		call	_ZN8UnitTest15CheckArrayCloseIA3_fS1_fEEvRNS_11TestResultsERKT_RKT0_iRKT1_RKNS_11TestDetailsE
 5690      00
 5691              	.LEHE138:
 5692              	.LEHB139:
 232:TestChecks.cpp **** 
 233:TestChecks.cpp ****     CHECK_EQUAL("arrayCloseTest", reporter.lastFailedTest);
 5693              		.loc 5 233 0 discriminator 2
 5694 2984 E8000000 		call	_ZN8UnitTest11CurrentTest7DetailsEv
 5694      00
 5695 2989 488B08   		movq	(%rax), %rcx
 5696 298c 488D8590 		leaq	-2160(%rbp), %rax
 5696      F7FFFF
 5697 2993 BAE90000 		movl	$233, %edx
 5697      00
 5698 2998 4889CE   		movq	%rcx, %rsi
 5699 299b 4889C7   		movq	%rax, %rdi
 5700 299e E8000000 		call	_ZN8UnitTest11TestDetailsC1ERKS0_i
 5700      00
 5701 29a3 E8000000 		call	_ZN8UnitTest11CurrentTest7ResultsEv
 5701      00
 5702 29a8 488B00   		movq	(%rax), %rax
 5703 29ab 488D9590 		leaq	-2160(%rbp), %rdx
 5703      F7FFFF
 5704 29b2 488D8DB0 		leaq	-2128(%rbp), %rcx
 5704      F7FFFF
 5705 29b9 488DB114 		leaq	1044(%rcx), %rsi
 5705      040000
 5706 29c0 4889D1   		movq	%rdx, %rcx
 5707 29c3 4889F2   		movq	%rsi, %rdx
 5708 29c6 BE000000 		movl	$.LC72, %esi
 5708      00
 5709 29cb 4889C7   		movq	%rax, %rdi
 5710 29ce E8000000 		call	_ZN8UnitTest10CheckEqualERNS_11TestResultsEPKcPcRKNS_11TestDetailsE
 5710      00
 5711              	.LEHE139:
 5712              	.L259:
 5713              	.LEHB140:
 234:TestChecks.cpp ****     CHECK_EQUAL("arrayCloseSuite", reporter.lastFailedSuite);
 5714              		.loc 5 234 0
 5715 29d3 E8000000 		call	_ZN8UnitTest11CurrentTest7DetailsEv
 5715      00
 5716 29d8 488B08   		movq	(%rax), %rcx
 5717 29db 488D8590 		leaq	-2160(%rbp), %rax
 5717      F7FFFF
 5718 29e2 BAEA0000 		movl	$234, %edx
 5718      00
 5719 29e7 4889CE   		movq	%rcx, %rsi
 5720 29ea 4889C7   		movq	%rax, %rdi
 5721 29ed E8000000 		call	_ZN8UnitTest11TestDetailsC1ERKS0_i
 5721      00
 5722              		.loc 5 234 0 is_stmt 0 discriminator 2
 5723 29f2 E8000000 		call	_ZN8UnitTest11CurrentTest7ResultsEv
 5723      00
 5724 29f7 488B00   		movq	(%rax), %rax
 5725 29fa 488D9590 		leaq	-2160(%rbp), %rdx
 5725      F7FFFF
 5726 2a01 488D8DB0 		leaq	-2128(%rbp), %rcx
 5726      F7FFFF
 5727 2a08 488DB114 		leaq	788(%rcx), %rsi
 5727      030000
 5728 2a0f 4889D1   		movq	%rdx, %rcx
 5729 2a12 4889F2   		movq	%rsi, %rdx
 5730 2a15 BE000000 		movl	$.LC71, %esi
 5730      00
 5731 2a1a 4889C7   		movq	%rax, %rdi
 5732 2a1d E8000000 		call	_ZN8UnitTest10CheckEqualERNS_11TestResultsEPKcPcRKNS_11TestDetailsE
 5732      00
 5733              	.LEHE140:
 5734              	.L262:
 5735              	.LEHB141:
 235:TestChecks.cpp ****     CHECK_EQUAL("file", reporter.lastFailedFile);
 5736              		.loc 5 235 0 is_stmt 1
 5737 2a22 E8000000 		call	_ZN8UnitTest11CurrentTest7DetailsEv
 5737      00
 5738 2a27 488B08   		movq	(%rax), %rcx
 5739 2a2a 488D8590 		leaq	-2160(%rbp), %rax
 5739      F7FFFF
 5740 2a31 BAEB0000 		movl	$235, %edx
 5740      00
 5741 2a36 4889CE   		movq	%rcx, %rsi
 5742 2a39 4889C7   		movq	%rax, %rdi
 5743 2a3c E8000000 		call	_ZN8UnitTest11TestDetailsC1ERKS0_i
 5743      00
 5744              		.loc 5 235 0 is_stmt 0 discriminator 2
 5745 2a41 E8000000 		call	_ZN8UnitTest11CurrentTest7ResultsEv
 5745      00
 5746 2a46 488B00   		movq	(%rax), %rax
 5747 2a49 488D9590 		leaq	-2160(%rbp), %rdx
 5747      F7FFFF
 5748 2a50 488D8DB0 		leaq	-2128(%rbp), %rcx
 5748      F7FFFF
 5749 2a57 488DB110 		leaq	528(%rcx), %rsi
 5749      020000
 5750 2a5e 4889D1   		movq	%rdx, %rcx
 5751 2a61 4889F2   		movq	%rsi, %rdx
 5752 2a64 BE000000 		movl	$.LC70, %esi
 5752      00
 5753 2a69 4889C7   		movq	%rax, %rdi
 5754 2a6c E8000000 		call	_ZN8UnitTest10CheckEqualERNS_11TestResultsEPKcPcRKNS_11TestDetailsE
 5754      00
 5755              	.LEHE141:
 5756              	.L265:
 5757              	.LEHB142:
 236:TestChecks.cpp ****     CHECK_EQUAL(1337, reporter.lastFailedLine);
 5758              		.loc 5 236 0 is_stmt 1
 5759 2a71 E8000000 		call	_ZN8UnitTest11CurrentTest7DetailsEv
 5759      00
 5760 2a76 488B08   		movq	(%rax), %rcx
 5761 2a79 488D8590 		leaq	-2160(%rbp), %rax
 5761      F7FFFF
 5762 2a80 BAEC0000 		movl	$236, %edx
 5762      00
 5763 2a85 4889CE   		movq	%rcx, %rsi
 5764 2a88 4889C7   		movq	%rax, %rdi
 5765 2a8b E8000000 		call	_ZN8UnitTest11TestDetailsC1ERKS0_i
 5765      00
 5766              		.loc 5 236 0 is_stmt 0 discriminator 2
 5767 2a90 C7852CF7 		movl	$1337, -2260(%rbp)
 5767      FFFF3905 
 5767      0000
 5768 2a9a E8000000 		call	_ZN8UnitTest11CurrentTest7ResultsEv
 5768      00
 5769 2a9f 488B00   		movq	(%rax), %rax
 5770 2aa2 488D9590 		leaq	-2160(%rbp), %rdx
 5770      F7FFFF
 5771 2aa9 488D8DB0 		leaq	-2128(%rbp), %rcx
 5771      F7FFFF
 5772 2ab0 488DB910 		leaq	784(%rcx), %rdi
 5772      030000
 5773 2ab7 488DB52C 		leaq	-2260(%rbp), %rsi
 5773      F7FFFF
 5774 2abe 4889D1   		movq	%rdx, %rcx
 5775 2ac1 4889FA   		movq	%rdi, %rdx
 5776 2ac4 4889C7   		movq	%rax, %rdi
 5777 2ac7 E8000000 		call	_ZN8UnitTest10CheckEqualIiiEEvRNS_11TestResultsERKT_RKT0_RKNS_11TestDetailsE
 5777      00
 5778              	.LEHE142:
 5779              	.L268:
 5780              		.loc 5 236 0 discriminator 7
 5781 2acc 488D85B0 		leaq	-2128(%rbp), %rax
 5781      F7FFFF
 5782 2ad3 4889C7   		movq	%rax, %rdi
 5783              	.LEHB143:
 5784 2ad6 E8000000 		call	_ZN17RecordingReporterD1Ev
 5784      00
 5785              	.LEHE143:
 5786              	.LBE73:
 237:TestChecks.cpp **** }
 5787              		.loc 5 237 0 is_stmt 1 discriminator 7
 5788 2adb 488B45E8 		movq	-24(%rbp), %rax
 5789 2adf 64483304 		xorq	%fs:40, %rax
 5789      25280000 
 5789      00
 5790 2ae8 0F849801 		je	.L269
 5790      0000
 5791 2aee E98E0100 		jmp	.L279
 5791      00
 5792              	.L272:
 5793 2af3 4889C3   		movq	%rax, %rbx
 5794              	.LBB74:
 233:TestChecks.cpp ****     CHECK_EQUAL("arrayCloseSuite", reporter.lastFailedSuite);
 5795              		.loc 5 233 0
 5796 2af6 E8000000 		call	__cxa_end_catch
 5796      00
 5797 2afb E9670100 		jmp	.L257
 5797      00
 5798              	.L271:
 5799 2b00 4889C7   		movq	%rax, %rdi
 5800 2b03 E8000000 		call	__cxa_begin_catch
 5800      00
 5801              	.LEHB144:
 5802 2b08 E8000000 		call	_ZN8UnitTest11CurrentTest7DetailsEv
 5802      00
 5803 2b0d 488B08   		movq	(%rax), %rcx
 5804 2b10 488D8590 		leaq	-2160(%rbp), %rax
 5804      F7FFFF
 5805 2b17 BAE90000 		movl	$233, %edx
 5805      00
 5806 2b1c 4889CE   		movq	%rcx, %rsi
 5807 2b1f 4889C7   		movq	%rax, %rdi
 5808 2b22 E8000000 		call	_ZN8UnitTest11TestDetailsC1ERKS0_i
 5808      00
 233:TestChecks.cpp ****     CHECK_EQUAL("arrayCloseSuite", reporter.lastFailedSuite);
 5809              		.loc 5 233 0 is_stmt 0 discriminator 10
 5810 2b27 E8000000 		call	_ZN8UnitTest11CurrentTest7ResultsEv
 5810      00
 5811 2b2c 488B00   		movq	(%rax), %rax
 5812 2b2f 488D8D90 		leaq	-2160(%rbp), %rcx
 5812      F7FFFF
 5813 2b36 BA000000 		movl	$.LC73, %edx
 5813      00
 5814 2b3b 4889CE   		movq	%rcx, %rsi
 5815 2b3e 4889C7   		movq	%rax, %rdi
 5816 2b41 E8000000 		call	_ZN8UnitTest11TestResults13OnTestFailureERKNS_11TestDetailsEPKc
 5816      00
 5817              	.LEHE144:
 5818              	.LEHB145:
 233:TestChecks.cpp ****     CHECK_EQUAL("arrayCloseSuite", reporter.lastFailedSuite);
 5819              		.loc 5 233 0 discriminator 14
 5820 2b46 E8000000 		call	__cxa_end_catch
 5820      00
 5821              	.LEHE145:
 233:TestChecks.cpp ****     CHECK_EQUAL("arrayCloseSuite", reporter.lastFailedSuite);
 5822              		.loc 5 233 0
 5823 2b4b E983FEFF 		jmp	.L259
 5823      FF
 5824              	.L274:
 5825 2b50 4889C3   		movq	%rax, %rbx
 234:TestChecks.cpp ****     CHECK_EQUAL("file", reporter.lastFailedFile);
 5826              		.loc 5 234 0 is_stmt 1
 5827 2b53 E8000000 		call	__cxa_end_catch
 5827      00
 5828 2b58 E90A0100 		jmp	.L257
 5828      00
 5829              	.L273:
 5830 2b5d 4889C7   		movq	%rax, %rdi
 5831 2b60 E8000000 		call	__cxa_begin_catch
 5831      00
 5832              	.LEHB146:
 5833 2b65 E8000000 		call	_ZN8UnitTest11CurrentTest7DetailsEv
 5833      00
 5834 2b6a 488B08   		movq	(%rax), %rcx
 5835 2b6d 488D8590 		leaq	-2160(%rbp), %rax
 5835      F7FFFF
 5836 2b74 BAEA0000 		movl	$234, %edx
 5836      00
 5837 2b79 4889CE   		movq	%rcx, %rsi
 5838 2b7c 4889C7   		movq	%rax, %rdi
 5839 2b7f E8000000 		call	_ZN8UnitTest11TestDetailsC1ERKS0_i
 5839      00
 234:TestChecks.cpp ****     CHECK_EQUAL("file", reporter.lastFailedFile);
 5840              		.loc 5 234 0 is_stmt 0 discriminator 10
 5841 2b84 E8000000 		call	_ZN8UnitTest11CurrentTest7ResultsEv
 5841      00
 5842 2b89 488B00   		movq	(%rax), %rax
 5843 2b8c 488D8D90 		leaq	-2160(%rbp), %rcx
 5843      F7FFFF
 5844 2b93 BA000000 		movl	$.LC74, %edx
 5844      00
 5845 2b98 4889CE   		movq	%rcx, %rsi
 5846 2b9b 4889C7   		movq	%rax, %rdi
 5847 2b9e E8000000 		call	_ZN8UnitTest11TestResults13OnTestFailureERKNS_11TestDetailsEPKc
 5847      00
 5848              	.LEHE146:
 5849              	.LEHB147:
 234:TestChecks.cpp ****     CHECK_EQUAL("file", reporter.lastFailedFile);
 5850              		.loc 5 234 0 discriminator 14
 5851 2ba3 E8000000 		call	__cxa_end_catch
 5851      00
 5852              	.LEHE147:
 234:TestChecks.cpp ****     CHECK_EQUAL("file", reporter.lastFailedFile);
 5853              		.loc 5 234 0
 5854 2ba8 E975FEFF 		jmp	.L262
 5854      FF
 5855              	.L276:
 5856 2bad 4889C3   		movq	%rax, %rbx
 235:TestChecks.cpp ****     CHECK_EQUAL(1337, reporter.lastFailedLine);
 5857              		.loc 5 235 0 is_stmt 1
 5858 2bb0 E8000000 		call	__cxa_end_catch
 5858      00
 5859 2bb5 E9AD0000 		jmp	.L257
 5859      00
 5860              	.L275:
 5861 2bba 4889C7   		movq	%rax, %rdi
 5862 2bbd E8000000 		call	__cxa_begin_catch
 5862      00
 5863              	.LEHB148:
 5864 2bc2 E8000000 		call	_ZN8UnitTest11CurrentTest7DetailsEv
 5864      00
 5865 2bc7 488B08   		movq	(%rax), %rcx
 5866 2bca 488D8590 		leaq	-2160(%rbp), %rax
 5866      F7FFFF
 5867 2bd1 BAEB0000 		movl	$235, %edx
 5867      00
 5868 2bd6 4889CE   		movq	%rcx, %rsi
 5869 2bd9 4889C7   		movq	%rax, %rdi
 5870 2bdc E8000000 		call	_ZN8UnitTest11TestDetailsC1ERKS0_i
 5870      00
 235:TestChecks.cpp ****     CHECK_EQUAL(1337, reporter.lastFailedLine);
 5871              		.loc 5 235 0 is_stmt 0 discriminator 10
 5872 2be1 E8000000 		call	_ZN8UnitTest11CurrentTest7ResultsEv
 5872      00
 5873 2be6 488B00   		movq	(%rax), %rax
 5874 2be9 488D8D90 		leaq	-2160(%rbp), %rcx
 5874      F7FFFF
 5875 2bf0 BA000000 		movl	$.LC75, %edx
 5875      00
 5876 2bf5 4889CE   		movq	%rcx, %rsi
 5877 2bf8 4889C7   		movq	%rax, %rdi
 5878 2bfb E8000000 		call	_ZN8UnitTest11TestResults13OnTestFailureERKNS_11TestDetailsEPKc
 5878      00
 5879              	.LEHE148:
 5880              	.LEHB149:
 235:TestChecks.cpp ****     CHECK_EQUAL(1337, reporter.lastFailedLine);
 5881              		.loc 5 235 0 discriminator 14
 5882 2c00 E8000000 		call	__cxa_end_catch
 5882      00
 5883              	.LEHE149:
 235:TestChecks.cpp ****     CHECK_EQUAL(1337, reporter.lastFailedLine);
 5884              		.loc 5 235 0
 5885 2c05 E967FEFF 		jmp	.L265
 5885      FF
 5886              	.L278:
 5887 2c0a 4889C3   		movq	%rax, %rbx
 236:TestChecks.cpp **** }
 5888              		.loc 5 236 0 is_stmt 1
 5889 2c0d E8000000 		call	__cxa_end_catch
 5889      00
 5890 2c12 EB53     		jmp	.L257
 5891              	.L277:
 5892 2c14 4889C7   		movq	%rax, %rdi
 5893 2c17 E8000000 		call	__cxa_begin_catch
 5893      00
 5894              	.LEHB150:
 5895 2c1c E8000000 		call	_ZN8UnitTest11CurrentTest7DetailsEv
 5895      00
 5896 2c21 488B08   		movq	(%rax), %rcx
 5897 2c24 488D8590 		leaq	-2160(%rbp), %rax
 5897      F7FFFF
 5898 2c2b BAEC0000 		movl	$236, %edx
 5898      00
 5899 2c30 4889CE   		movq	%rcx, %rsi
 5900 2c33 4889C7   		movq	%rax, %rdi
 5901 2c36 E8000000 		call	_ZN8UnitTest11TestDetailsC1ERKS0_i
 5901      00
 236:TestChecks.cpp **** }
 5902              		.loc 5 236 0 is_stmt 0 discriminator 11
 5903 2c3b E8000000 		call	_ZN8UnitTest11CurrentTest7ResultsEv
 5903      00
 5904 2c40 488B00   		movq	(%rax), %rax
 5905 2c43 488D8D90 		leaq	-2160(%rbp), %rcx
 5905      F7FFFF
 5906 2c4a BA000000 		movl	$.LC76, %edx
 5906      00
 5907 2c4f 4889CE   		movq	%rcx, %rsi
 5908 2c52 4889C7   		movq	%rax, %rdi
 5909 2c55 E8000000 		call	_ZN8UnitTest11TestResults13OnTestFailureERKNS_11TestDetailsEPKc
 5909      00
 5910              	.LEHE150:
 5911              	.LEHB151:
 236:TestChecks.cpp **** }
 5912              		.loc 5 236 0 discriminator 15
 5913 2c5a E8000000 		call	__cxa_end_catch
 5913      00
 5914              	.LEHE151:
 236:TestChecks.cpp **** }
 5915              		.loc 5 236 0
 5916 2c5f E968FEFF 		jmp	.L268
 5916      FF
 5917              	.L270:
 5918 2c64 4889C3   		movq	%rax, %rbx
 5919              	.L257:
 236:TestChecks.cpp **** }
 5920              		.loc 5 236 0 discriminator 16
 5921 2c67 488D85B0 		leaq	-2128(%rbp), %rax
 5921      F7FFFF
 5922 2c6e 4889C7   		movq	%rax, %rdi
 5923 2c71 E8000000 		call	_ZN17RecordingReporterD1Ev
 5923      00
 5924 2c76 4889D8   		movq	%rbx, %rax
 5925 2c79 4889C7   		movq	%rax, %rdi
 5926              	.LEHB152:
 5927 2c7c E8000000 		call	_Unwind_Resume
 5927      00
 5928              	.LEHE152:
 5929              	.L279:
 5930              	.LBE74:
 5931              		.loc 5 237 0 is_stmt 1
 5932 2c81 E8000000 		call	__stack_chk_fail
 5932      00
 5933              	.L269:
 5934 2c86 4881C4E8 		addq	$2280, %rsp
 5934      080000
 5935 2c8d 5B       		popq	%rbx
 5936 2c8e 5D       		popq	%rbp
 5937              		.cfi_def_cfa 7, 8
 5938 2c8f C3       		ret
 5939              		.cfi_endproc
 5940              	.LFE1162:
 5941              		.section	.gcc_except_table
 5942              		.align 4
 5943              	.LLSDA1162:
 5944 03e8 FF       		.byte	0xff
 5945 03e9 03       		.byte	0x3
 5946 03ea 61       		.uleb128 .LLSDATT1162-.LLSDATTD1162
 5947              	.LLSDATTD1162:
 5948 03eb 01       		.byte	0x1
 5949 03ec 58       		.uleb128 .LLSDACSE1162-.LLSDACSB1162
 5950              	.LLSDACSB1162:
 5951 03ed 45       		.uleb128 .LEHB138-.LFB1162
 5952 03ee B301     		.uleb128 .LEHE138-.LEHB138
 5953 03f0 D807     		.uleb128 .L270-.LFB1162
 5954 03f2 00       		.uleb128 0
 5955 03f3 F801     		.uleb128 .LEHB139-.LFB1162
 5956 03f5 4F       		.uleb128 .LEHE139-.LEHB139
 5957 03f6 F404     		.uleb128 .L271-.LFB1162
 5958 03f8 01       		.uleb128 0x1
 5959 03f9 C702     		.uleb128 .LEHB140-.LFB1162
 5960 03fb 4F       		.uleb128 .LEHE140-.LEHB140
 5961 03fc D105     		.uleb128 .L273-.LFB1162
 5962 03fe 01       		.uleb128 0x1
 5963 03ff 9603     		.uleb128 .LEHB141-.LFB1162
 5964 0401 4F       		.uleb128 .LEHE141-.LEHB141
 5965 0402 AE06     		.uleb128 .L275-.LFB1162
 5966 0404 01       		.uleb128 0x1
 5967 0405 E503     		.uleb128 .LEHB142-.LFB1162
 5968 0407 5B       		.uleb128 .LEHE142-.LEHB142
 5969 0408 8807     		.uleb128 .L277-.LFB1162
 5970 040a 01       		.uleb128 0x1
 5971 040b CA04     		.uleb128 .LEHB143-.LFB1162
 5972 040d 05       		.uleb128 .LEHE143-.LEHB143
 5973 040e 00       		.uleb128 0
 5974 040f 00       		.uleb128 0
 5975 0410 FC04     		.uleb128 .LEHB144-.LFB1162
 5976 0412 3E       		.uleb128 .LEHE144-.LEHB144
 5977 0413 E704     		.uleb128 .L272-.LFB1162
 5978 0415 00       		.uleb128 0
 5979 0416 BA05     		.uleb128 .LEHB145-.LFB1162
 5980 0418 05       		.uleb128 .LEHE145-.LEHB145
 5981 0419 D807     		.uleb128 .L270-.LFB1162
 5982 041b 00       		.uleb128 0
 5983 041c D905     		.uleb128 .LEHB146-.LFB1162
 5984 041e 3E       		.uleb128 .LEHE146-.LEHB146
 5985 041f C405     		.uleb128 .L274-.LFB1162
 5986 0421 00       		.uleb128 0
 5987 0422 9706     		.uleb128 .LEHB147-.LFB1162
 5988 0424 05       		.uleb128 .LEHE147-.LEHB147
 5989 0425 D807     		.uleb128 .L270-.LFB1162
 5990 0427 00       		.uleb128 0
 5991 0428 B606     		.uleb128 .LEHB148-.LFB1162
 5992 042a 3E       		.uleb128 .LEHE148-.LEHB148
 5993 042b A106     		.uleb128 .L276-.LFB1162
 5994 042d 00       		.uleb128 0
 5995 042e F406     		.uleb128 .LEHB149-.LFB1162
 5996 0430 05       		.uleb128 .LEHE149-.LEHB149
 5997 0431 D807     		.uleb128 .L270-.LFB1162
 5998 0433 00       		.uleb128 0
 5999 0434 9007     		.uleb128 .LEHB150-.LFB1162
 6000 0436 3E       		.uleb128 .LEHE150-.LEHB150
 6001 0437 FE06     		.uleb128 .L278-.LFB1162
 6002 0439 00       		.uleb128 0
 6003 043a CE07     		.uleb128 .LEHB151-.LFB1162
 6004 043c 05       		.uleb128 .LEHE151-.LEHB151
 6005 043d D807     		.uleb128 .L270-.LFB1162
 6006 043f 00       		.uleb128 0
 6007 0440 F007     		.uleb128 .LEHB152-.LFB1162
 6008 0442 05       		.uleb128 .LEHE152-.LEHB152
 6009 0443 00       		.uleb128 0
 6010 0444 00       		.uleb128 0
 6011              	.LLSDACSE1162:
 6012 0445 01       		.byte	0x1
 6013 0446 00       		.byte	0
 6014 0447 00       		.align 4
 6015 0448 00000000 		.long	0
 6016              	
 6017              	.LLSDATT1162:
 6018              		.text
 6020              		.section	.rodata
 6021              	.LC77:
 6022 09f2 43686563 		.string	"CheckArray2DCloseTrue"
 6022      6B417272 
 6022      61793244 
 6022      436C6F73 
 6022      65547275 
 6023              		.text
 6024              		.align 2
 6026              	_ZN12_GLOBAL__N_125TestCheckArray2DCloseTrueC2Ev:
 6027              	.LFB1164:
 238:TestChecks.cpp **** 
 239:TestChecks.cpp **** 
 240:TestChecks.cpp **** TEST(CheckArray2DCloseTrue)
 6028              		.loc 5 240 0
 6029              		.cfi_startproc
 6030 2c90 55       		pushq	%rbp
 6031              		.cfi_def_cfa_offset 16
 6032              		.cfi_offset 6, -16
 6033 2c91 4889E5   		movq	%rsp, %rbp
 6034              		.cfi_def_cfa_register 6
 6035 2c94 4883EC10 		subq	$16, %rsp
 6036 2c98 48897DF8 		movq	%rdi, -8(%rbp)
 6037              	.LBB75:
 6038              		.loc 5 240 0
 6039 2c9c E8000000 		call	_ZN13UnitTestSuite12GetSuiteNameEv
 6039      00
 6040 2ca1 4889C2   		movq	%rax, %rdx
 6041 2ca4 488B45F8 		movq	-8(%rbp), %rax
 6042 2ca8 41B8F000 		movl	$240, %r8d
 6042      0000
 6043 2cae B9000000 		movl	$.LC2, %ecx
 6043      00
 6044 2cb3 BE000000 		movl	$.LC77, %esi
 6044      00
 6045 2cb8 4889C7   		movq	%rax, %rdi
 6046 2cbb E8000000 		call	_ZN8UnitTest4TestC2EPKcS2_S2_i
 6046      00
 6047 2cc0 488B45F8 		movq	-8(%rbp), %rax
 6048 2cc4 48C70000 		movq	$_ZTVN12_GLOBAL__N_125TestCheckArray2DCloseTrueE+16, (%rax)
 6048      000000
 6049              	.LBE75:
 6050 2ccb C9       		leave
 6051              		.cfi_def_cfa 7, 8
 6052 2ccc C3       		ret
 6053              		.cfi_endproc
 6054              	.LFE1164:
 6056              		.local	_ZN12_GLOBAL__N_133testCheckArray2DCloseTrueInstanceE
 6057              		.comm	_ZN12_GLOBAL__N_133testCheckArray2DCloseTrueInstanceE,56,32
 6058              		.local	_ZN12_GLOBAL__N_126adderCheckArray2DCloseTrueE
 6059              		.comm	_ZN12_GLOBAL__N_126adderCheckArray2DCloseTrueE,1,1
 6060 2ccd 90       		.align 2
 6062              	_ZNK12_GLOBAL__N_125TestCheckArray2DCloseTrue7RunImplEv:
 6063              	.LFB1166:
 241:TestChecks.cpp **** {
 6064              		.loc 5 241 0
 6065              		.cfi_startproc
 6066              		.cfi_personality 0x3,__gxx_personality_v0
 6067              		.cfi_lsda 0x3,.LLSDA1166
 6068 2cce 55       		pushq	%rbp
 6069              		.cfi_def_cfa_offset 16
 6070              		.cfi_offset 6, -16
 6071 2ccf 4889E5   		movq	%rsp, %rbp
 6072              		.cfi_def_cfa_register 6
 6073 2cd2 53       		pushq	%rbx
 6074 2cd3 4881ECC8 		subq	$200, %rsp
 6074      000000
 6075              		.cfi_offset 3, -24
 6076 2cda 4889BD38 		movq	%rdi, -200(%rbp)
 6076      FFFFFF
 6077              		.loc 5 241 0
 6078 2ce1 64488B04 		movq	%fs:40, %rax
 6078      25280000 
 6078      00
 6079 2cea 488945E8 		movq	%rax, -24(%rbp)
 6080 2cee 31C0     		xorl	%eax, %eax
 6081              	.LBB76:
 242:TestChecks.cpp ****     TestResults results;
 6082              		.loc 5 242 0
 6083 2cf0 488D8550 		leaq	-176(%rbp), %rax
 6083      FFFFFF
 6084 2cf7 BE000000 		movl	$0, %esi
 6084      00
 6085 2cfc 4889C7   		movq	%rax, %rdi
 6086              	.LEHB153:
 6087 2cff E8000000 		call	_ZN8UnitTest11TestResultsC1EPNS_12TestReporterE
 6087      00
 243:TestChecks.cpp **** 
 244:TestChecks.cpp ****     float const array1[3][3] = { { 1.0f, 1.5f, 2.0f },
 245:TestChecks.cpp ****                                  { 2.0f, 2.5f, 3.0f },
 246:TestChecks.cpp ****                                  { 3.0f, 3.5f, 4.0f } };
 6088              		.loc 5 246 0
 6089 2d04 8B050000 		movl	.LC60(%rip), %eax
 6089      0000
 6090 2d0a 894590   		movl	%eax, -112(%rbp)
 6091 2d0d 8B050000 		movl	.LC61(%rip), %eax
 6091      0000
 6092 2d13 894594   		movl	%eax, -108(%rbp)
 6093 2d16 8B050000 		movl	.LC62(%rip), %eax
 6093      0000
 6094 2d1c 894598   		movl	%eax, -104(%rbp)
 6095 2d1f 8B050000 		movl	.LC62(%rip), %eax
 6095      0000
 6096 2d25 89459C   		movl	%eax, -100(%rbp)
 6097 2d28 8B050000 		movl	.LC78(%rip), %eax
 6097      0000
 6098 2d2e 8945A0   		movl	%eax, -96(%rbp)
 6099 2d31 8B050000 		movl	.LC32(%rip), %eax
 6099      0000
 6100 2d37 8945A4   		movl	%eax, -92(%rbp)
 6101 2d3a 8B050000 		movl	.LC32(%rip), %eax
 6101      0000
 6102 2d40 8945A8   		movl	%eax, -88(%rbp)
 6103 2d43 8B050000 		movl	.LC79(%rip), %eax
 6103      0000
 6104 2d49 8945AC   		movl	%eax, -84(%rbp)
 6105 2d4c 8B050000 		movl	.LC80(%rip), %eax
 6105      0000
 6106 2d52 8945B0   		movl	%eax, -80(%rbp)
 247:TestChecks.cpp ****     float const array2[3][3] = { { 1.01f, 1.51f, 2.01f },
 248:TestChecks.cpp ****                                  { 2.01f, 2.51f, 3.01f },
 249:TestChecks.cpp ****                                  { 3.01f, 3.51f, 4.01f } };
 6107              		.loc 5 249 0
 6108 2d55 8B050000 		movl	.LC63(%rip), %eax
 6108      0000
 6109 2d5b 8945C0   		movl	%eax, -64(%rbp)
 6110 2d5e 8B050000 		movl	.LC64(%rip), %eax
 6110      0000
 6111 2d64 8945C4   		movl	%eax, -60(%rbp)
 6112 2d67 8B050000 		movl	.LC65(%rip), %eax
 6112      0000
 6113 2d6d 8945C8   		movl	%eax, -56(%rbp)
 6114 2d70 8B050000 		movl	.LC65(%rip), %eax
 6114      0000
 6115 2d76 8945CC   		movl	%eax, -52(%rbp)
 6116 2d79 8B050000 		movl	.LC81(%rip), %eax
 6116      0000
 6117 2d7f 8945D0   		movl	%eax, -48(%rbp)
 6118 2d82 8B050000 		movl	.LC82(%rip), %eax
 6118      0000
 6119 2d88 8945D4   		movl	%eax, -44(%rbp)
 6120 2d8b 8B050000 		movl	.LC82(%rip), %eax
 6120      0000
 6121 2d91 8945D8   		movl	%eax, -40(%rbp)
 6122 2d94 8B050000 		movl	.LC83(%rip), %eax
 6122      0000
 6123 2d9a 8945DC   		movl	%eax, -36(%rbp)
 6124 2d9d 8B050000 		movl	.LC84(%rip), %eax
 6124      0000
 6125 2da3 8945E0   		movl	%eax, -32(%rbp)
 250:TestChecks.cpp ****     CheckArray2DClose(results, array1, array2, 3, 3, 0.02f, TestDetails("", "", "", 0));
 6126              		.loc 5 250 0
 6127 2da6 488D8570 		leaq	-144(%rbp), %rax
 6127      FFFFFF
 6128 2dad 41B80000 		movl	$0, %r8d
 6128      0000
 6129 2db3 B9000000 		movl	$.LC6, %ecx
 6129      00
 6130 2db8 BA000000 		movl	$.LC6, %edx
 6130      00
 6131 2dbd BE000000 		movl	$.LC6, %esi
 6131      00
 6132 2dc2 4889C7   		movq	%rax, %rdi
 6133 2dc5 E8000000 		call	_ZN8UnitTest11TestDetailsC1EPKcS2_S2_i
 6133      00
 6134 2dca 8B050000 		movl	.LC66(%rip), %eax
 6134      0000
 6135 2dd0 89854CFF 		movl	%eax, -180(%rbp)
 6135      FFFF
 6136 2dd6 4883EC08 		subq	$8, %rsp
 6137 2dda 488DBD4C 		leaq	-180(%rbp), %rdi
 6137      FFFFFF
 6138 2de1 488D55C0 		leaq	-64(%rbp), %rdx
 6139 2de5 488D7590 		leaq	-112(%rbp), %rsi
 6140 2de9 488D8550 		leaq	-176(%rbp), %rax
 6140      FFFFFF
 6141 2df0 488D8D70 		leaq	-144(%rbp), %rcx
 6141      FFFFFF
 6142 2df7 51       		pushq	%rcx
 6143 2df8 4989F9   		movq	%rdi, %r9
 6144 2dfb 41B80300 		movl	$3, %r8d
 6144      0000
 6145 2e01 B9030000 		movl	$3, %ecx
 6145      00
 6146 2e06 4889C7   		movq	%rax, %rdi
 6147 2e09 E8000000 		call	_ZN8UnitTest17CheckArray2DCloseIA3_A3_fS2_fEEvRNS_11TestResultsERKT_RKT0_iiRKT1_RKNS_11TestDe
 6147      00
 6148              	.LEHE153:
 6149 2e0e 4883C410 		addq	$16, %rsp
 6150              	.LEHB154:
 251:TestChecks.cpp ****     CHECK_EQUAL(0, results.GetFailureCount());
 6151              		.loc 5 251 0
 6152 2e12 E8000000 		call	_ZN8UnitTest11CurrentTest7DetailsEv
 6152      00
 6153 2e17 488B08   		movq	(%rax), %rcx
 6154 2e1a 488D8570 		leaq	-144(%rbp), %rax
 6154      FFFFFF
 6155 2e21 BAFB0000 		movl	$251, %edx
 6155      00
 6156 2e26 4889CE   		movq	%rcx, %rsi
 6157 2e29 4889C7   		movq	%rax, %rdi
 6158 2e2c E8000000 		call	_ZN8UnitTest11TestDetailsC1ERKS0_i
 6158      00
 6159              		.loc 5 251 0 is_stmt 0 discriminator 2
 6160 2e31 488D8550 		leaq	-176(%rbp), %rax
 6160      FFFFFF
 6161 2e38 4889C7   		movq	%rax, %rdi
 6162 2e3b E8000000 		call	_ZNK8UnitTest11TestResults15GetFailureCountEv
 6162      00
 6163 2e40 89854CFF 		movl	%eax, -180(%rbp)
 6163      FFFF
 6164 2e46 C78548FF 		movl	$0, -184(%rbp)
 6164      FFFF0000 
 6164      0000
 6165 2e50 E8000000 		call	_ZN8UnitTest11CurrentTest7ResultsEv
 6165      00
 6166              		.loc 5 251 0 discriminator 4
 6167 2e55 488B00   		movq	(%rax), %rax
 6168 2e58 488D8D70 		leaq	-144(%rbp), %rcx
 6168      FFFFFF
 6169 2e5f 488D954C 		leaq	-180(%rbp), %rdx
 6169      FFFFFF
 6170 2e66 488DB548 		leaq	-184(%rbp), %rsi
 6170      FFFFFF
 6171 2e6d 4889C7   		movq	%rax, %rdi
 6172 2e70 E8000000 		call	_ZN8UnitTest10CheckEqualIiiEEvRNS_11TestResultsERKT_RKT0_RKNS_11TestDetailsE
 6172      00
 6173              	.LEHE154:
 6174              	.LBE76:
 252:TestChecks.cpp **** }
 6175              		.loc 5 252 0 is_stmt 1
 6176 2e75 EB5E     		jmp	.L288
 6177              	.L287:
 6178 2e77 4889C3   		movq	%rax, %rbx
 6179              	.LBB77:
 251:TestChecks.cpp ****     CHECK_EQUAL(0, results.GetFailureCount());
 6180              		.loc 5 251 0
 6181 2e7a E8000000 		call	__cxa_end_catch
 6181      00
 6182 2e7f 4889D8   		movq	%rbx, %rax
 6183 2e82 4889C7   		movq	%rax, %rdi
 6184              	.LEHB155:
 6185 2e85 E8000000 		call	_Unwind_Resume
 6185      00
 6186              	.LEHE155:
 6187              	.L286:
 6188 2e8a 4889C7   		movq	%rax, %rdi
 6189 2e8d E8000000 		call	__cxa_begin_catch
 6189      00
 6190              	.LEHB156:
 6191 2e92 E8000000 		call	_ZN8UnitTest11CurrentTest7DetailsEv
 6191      00
 6192 2e97 488B08   		movq	(%rax), %rcx
 6193 2e9a 488D8570 		leaq	-144(%rbp), %rax
 6193      FFFFFF
 6194 2ea1 BAFB0000 		movl	$251, %edx
 6194      00
 6195 2ea6 4889CE   		movq	%rcx, %rsi
 6196 2ea9 4889C7   		movq	%rax, %rdi
 6197 2eac E8000000 		call	_ZN8UnitTest11TestDetailsC1ERKS0_i
 6197      00
 251:TestChecks.cpp ****     CHECK_EQUAL(0, results.GetFailureCount());
 6198              		.loc 5 251 0 is_stmt 0 discriminator 12
 6199 2eb1 E8000000 		call	_ZN8UnitTest11CurrentTest7ResultsEv
 6199      00
 6200 2eb6 488B00   		movq	(%rax), %rax
 6201 2eb9 488D8D70 		leaq	-144(%rbp), %rcx
 6201      FFFFFF
 6202 2ec0 BA000000 		movl	$.LC9, %edx
 6202      00
 6203 2ec5 4889CE   		movq	%rcx, %rsi
 6204 2ec8 4889C7   		movq	%rax, %rdi
 6205 2ecb E8000000 		call	_ZN8UnitTest11TestResults13OnTestFailureERKNS_11TestDetailsEPKc
 6205      00
 6206              	.LEHE156:
 6207              	.LEHB157:
 251:TestChecks.cpp ****     CHECK_EQUAL(0, results.GetFailureCount());
 6208              		.loc 5 251 0 discriminator 16
 6209 2ed0 E8000000 		call	__cxa_end_catch
 6209      00
 6210              	.LEHE157:
 6211              	.L288:
 6212              	.LBE77:
 6213              		.loc 5 252 0 is_stmt 1
 6214 2ed5 90       		nop
 6215 2ed6 488B45E8 		movq	-24(%rbp), %rax
 6216 2eda 64483304 		xorq	%fs:40, %rax
 6216      25280000 
 6216      00
 6217 2ee3 7405     		je	.L285
 6218 2ee5 E8000000 		call	__stack_chk_fail
 6218      00
 6219              	.L285:
 6220 2eea 488B5DF8 		movq	-8(%rbp), %rbx
 6221 2eee C9       		leave
 6222              		.cfi_def_cfa 7, 8
 6223 2eef C3       		ret
 6224              		.cfi_endproc
 6225              	.LFE1166:
 6226              		.section	.gcc_except_table
 6227              		.align 4
 6228              	.LLSDA1166:
 6229 044c FF       		.byte	0xff
 6230 044d 03       		.byte	0x3
 6231 044e 25       		.uleb128 .LLSDATT1166-.LLSDATTD1166
 6232              	.LLSDATTD1166:
 6233 044f 01       		.byte	0x1
 6234 0450 1B       		.uleb128 .LLSDACSE1166-.LLSDACSB1166
 6235              	.LLSDACSB1166:
 6236 0451 31       		.uleb128 .LEHB153-.LFB1166
 6237 0452 8F02     		.uleb128 .LEHE153-.LEHB153
 6238 0454 00       		.uleb128 0
 6239 0455 00       		.uleb128 0
 6240 0456 C402     		.uleb128 .LEHB154-.LFB1166
 6241 0458 63       		.uleb128 .LEHE154-.LEHB154
 6242 0459 BC03     		.uleb128 .L286-.LFB1166
 6243 045b 01       		.uleb128 0x1
 6244 045c B703     		.uleb128 .LEHB155-.LFB1166
 6245 045e 05       		.uleb128 .LEHE155-.LEHB155
 6246 045f 00       		.uleb128 0
 6247 0460 00       		.uleb128 0
 6248 0461 C403     		.uleb128 .LEHB156-.LFB1166
 6249 0463 3E       		.uleb128 .LEHE156-.LEHB156
 6250 0464 A903     		.uleb128 .L287-.LFB1166
 6251 0466 00       		.uleb128 0
 6252 0467 8204     		.uleb128 .LEHB157-.LFB1166
 6253 0469 05       		.uleb128 .LEHE157-.LEHB157
 6254 046a 00       		.uleb128 0
 6255 046b 00       		.uleb128 0
 6256              	.LLSDACSE1166:
 6257 046c 01       		.byte	0x1
 6258 046d 00       		.byte	0
 6259 046e 0000     		.align 4
 6260 0470 00000000 		.long	0
 6261              	
 6262              	.LLSDATT1166:
 6263              		.text
 6265              		.section	.rodata
 6266              	.LC85:
 6267 0a08 43686563 		.string	"CheckArray2DCloseFalse"
 6267      6B417272 
 6267      61793244 
 6267      436C6F73 
 6267      6546616C 
 6268              		.text
 6269              		.align 2
 6271              	_ZN12_GLOBAL__N_126TestCheckArray2DCloseFalseC2Ev:
 6272              	.LFB1168:
 253:TestChecks.cpp **** 
 254:TestChecks.cpp **** TEST(CheckArray2DCloseFalse)
 6273              		.loc 5 254 0
 6274              		.cfi_startproc
 6275 2ef0 55       		pushq	%rbp
 6276              		.cfi_def_cfa_offset 16
 6277              		.cfi_offset 6, -16
 6278 2ef1 4889E5   		movq	%rsp, %rbp
 6279              		.cfi_def_cfa_register 6
 6280 2ef4 4883EC10 		subq	$16, %rsp
 6281 2ef8 48897DF8 		movq	%rdi, -8(%rbp)
 6282              	.LBB78:
 6283              		.loc 5 254 0
 6284 2efc E8000000 		call	_ZN13UnitTestSuite12GetSuiteNameEv
 6284      00
 6285 2f01 4889C2   		movq	%rax, %rdx
 6286 2f04 488B45F8 		movq	-8(%rbp), %rax
 6287 2f08 41B8FE00 		movl	$254, %r8d
 6287      0000
 6288 2f0e B9000000 		movl	$.LC2, %ecx
 6288      00
 6289 2f13 BE000000 		movl	$.LC85, %esi
 6289      00
 6290 2f18 4889C7   		movq	%rax, %rdi
 6291 2f1b E8000000 		call	_ZN8UnitTest4TestC2EPKcS2_S2_i
 6291      00
 6292 2f20 488B45F8 		movq	-8(%rbp), %rax
 6293 2f24 48C70000 		movq	$_ZTVN12_GLOBAL__N_126TestCheckArray2DCloseFalseE+16, (%rax)
 6293      000000
 6294              	.LBE78:
 6295 2f2b C9       		leave
 6296              		.cfi_def_cfa 7, 8
 6297 2f2c C3       		ret
 6298              		.cfi_endproc
 6299              	.LFE1168:
 6301              		.local	_ZN12_GLOBAL__N_134testCheckArray2DCloseFalseInstanceE
 6302              		.comm	_ZN12_GLOBAL__N_134testCheckArray2DCloseFalseInstanceE,56,32
 6303              		.local	_ZN12_GLOBAL__N_127adderCheckArray2DCloseFalseE
 6304              		.comm	_ZN12_GLOBAL__N_127adderCheckArray2DCloseFalseE,1,1
 6305 2f2d 90       		.align 2
 6307              	_ZNK12_GLOBAL__N_126TestCheckArray2DCloseFalse7RunImplEv:
 6308              	.LFB1170:
 255:TestChecks.cpp **** {
 6309              		.loc 5 255 0
 6310              		.cfi_startproc
 6311              		.cfi_personality 0x3,__gxx_personality_v0
 6312              		.cfi_lsda 0x3,.LLSDA1170
 6313 2f2e 55       		pushq	%rbp
 6314              		.cfi_def_cfa_offset 16
 6315              		.cfi_offset 6, -16
 6316 2f2f 4889E5   		movq	%rsp, %rbp
 6317              		.cfi_def_cfa_register 6
 6318 2f32 53       		pushq	%rbx
 6319 2f33 4881ECC8 		subq	$200, %rsp
 6319      000000
 6320              		.cfi_offset 3, -24
 6321 2f3a 4889BD38 		movq	%rdi, -200(%rbp)
 6321      FFFFFF
 6322              		.loc 5 255 0
 6323 2f41 64488B04 		movq	%fs:40, %rax
 6323      25280000 
 6323      00
 6324 2f4a 488945E8 		movq	%rax, -24(%rbp)
 6325 2f4e 31C0     		xorl	%eax, %eax
 6326              	.LBB79:
 256:TestChecks.cpp ****     TestResults results;
 6327              		.loc 5 256 0
 6328 2f50 488D8550 		leaq	-176(%rbp), %rax
 6328      FFFFFF
 6329 2f57 BE000000 		movl	$0, %esi
 6329      00
 6330 2f5c 4889C7   		movq	%rax, %rdi
 6331              	.LEHB158:
 6332 2f5f E8000000 		call	_ZN8UnitTest11TestResultsC1EPNS_12TestReporterE
 6332      00
 257:TestChecks.cpp **** 
 258:TestChecks.cpp ****     float const array1[3][3] = { { 1.0f, 1.5f, 2.0f },
 259:TestChecks.cpp ****                                  { 2.0f, 2.5f, 3.0f },
 260:TestChecks.cpp ****                                  { 3.0f, 3.5f, 4.0f } };
 6333              		.loc 5 260 0
 6334 2f64 8B050000 		movl	.LC60(%rip), %eax
 6334      0000
 6335 2f6a 894590   		movl	%eax, -112(%rbp)
 6336 2f6d 8B050000 		movl	.LC61(%rip), %eax
 6336      0000
 6337 2f73 894594   		movl	%eax, -108(%rbp)
 6338 2f76 8B050000 		movl	.LC62(%rip), %eax
 6338      0000
 6339 2f7c 894598   		movl	%eax, -104(%rbp)
 6340 2f7f 8B050000 		movl	.LC62(%rip), %eax
 6340      0000
 6341 2f85 89459C   		movl	%eax, -100(%rbp)
 6342 2f88 8B050000 		movl	.LC78(%rip), %eax
 6342      0000
 6343 2f8e 8945A0   		movl	%eax, -96(%rbp)
 6344 2f91 8B050000 		movl	.LC32(%rip), %eax
 6344      0000
 6345 2f97 8945A4   		movl	%eax, -92(%rbp)
 6346 2f9a 8B050000 		movl	.LC32(%rip), %eax
 6346      0000
 6347 2fa0 8945A8   		movl	%eax, -88(%rbp)
 6348 2fa3 8B050000 		movl	.LC79(%rip), %eax
 6348      0000
 6349 2fa9 8945AC   		movl	%eax, -84(%rbp)
 6350 2fac 8B050000 		movl	.LC80(%rip), %eax
 6350      0000
 6351 2fb2 8945B0   		movl	%eax, -80(%rbp)
 261:TestChecks.cpp ****     float const array2[3][3] = { { 1.01f, 1.51f, 2.01f },
 262:TestChecks.cpp ****                                  { 2.01f, 2.51f, 3.01f },
 263:TestChecks.cpp ****                                  { 3.01f, 3.51f, 4.01f } };
 6352              		.loc 5 263 0
 6353 2fb5 8B050000 		movl	.LC63(%rip), %eax
 6353      0000
 6354 2fbb 8945C0   		movl	%eax, -64(%rbp)
 6355 2fbe 8B050000 		movl	.LC64(%rip), %eax
 6355      0000
 6356 2fc4 8945C4   		movl	%eax, -60(%rbp)
 6357 2fc7 8B050000 		movl	.LC65(%rip), %eax
 6357      0000
 6358 2fcd 8945C8   		movl	%eax, -56(%rbp)
 6359 2fd0 8B050000 		movl	.LC65(%rip), %eax
 6359      0000
 6360 2fd6 8945CC   		movl	%eax, -52(%rbp)
 6361 2fd9 8B050000 		movl	.LC81(%rip), %eax
 6361      0000
 6362 2fdf 8945D0   		movl	%eax, -48(%rbp)
 6363 2fe2 8B050000 		movl	.LC82(%rip), %eax
 6363      0000
 6364 2fe8 8945D4   		movl	%eax, -44(%rbp)
 6365 2feb 8B050000 		movl	.LC82(%rip), %eax
 6365      0000
 6366 2ff1 8945D8   		movl	%eax, -40(%rbp)
 6367 2ff4 8B050000 		movl	.LC83(%rip), %eax
 6367      0000
 6368 2ffa 8945DC   		movl	%eax, -36(%rbp)
 6369 2ffd 8B050000 		movl	.LC84(%rip), %eax
 6369      0000
 6370 3003 8945E0   		movl	%eax, -32(%rbp)
 264:TestChecks.cpp ****     CheckArray2DClose(results, array1, array2, 3, 3, 0.001f, TestDetails("", "", "", 0));
 6371              		.loc 5 264 0
 6372 3006 488D8570 		leaq	-144(%rbp), %rax
 6372      FFFFFF
 6373 300d 41B80000 		movl	$0, %r8d
 6373      0000
 6374 3013 B9000000 		movl	$.LC6, %ecx
 6374      00
 6375 3018 BA000000 		movl	$.LC6, %edx
 6375      00
 6376 301d BE000000 		movl	$.LC6, %esi
 6376      00
 6377 3022 4889C7   		movq	%rax, %rdi
 6378 3025 E8000000 		call	_ZN8UnitTest11TestDetailsC1EPKcS2_S2_i
 6378      00
 6379 302a 8B050000 		movl	.LC68(%rip), %eax
 6379      0000
 6380 3030 89854CFF 		movl	%eax, -180(%rbp)
 6380      FFFF
 6381 3036 4883EC08 		subq	$8, %rsp
 6382 303a 488DBD4C 		leaq	-180(%rbp), %rdi
 6382      FFFFFF
 6383 3041 488D55C0 		leaq	-64(%rbp), %rdx
 6384 3045 488D7590 		leaq	-112(%rbp), %rsi
 6385 3049 488D8550 		leaq	-176(%rbp), %rax
 6385      FFFFFF
 6386 3050 488D8D70 		leaq	-144(%rbp), %rcx
 6386      FFFFFF
 6387 3057 51       		pushq	%rcx
 6388 3058 4989F9   		movq	%rdi, %r9
 6389 305b 41B80300 		movl	$3, %r8d
 6389      0000
 6390 3061 B9030000 		movl	$3, %ecx
 6390      00
 6391 3066 4889C7   		movq	%rax, %rdi
 6392 3069 E8000000 		call	_ZN8UnitTest17CheckArray2DCloseIA3_A3_fS2_fEEvRNS_11TestResultsERKT_RKT0_iiRKT1_RKNS_11TestDe
 6392      00
 6393              	.LEHE158:
 6394 306e 4883C410 		addq	$16, %rsp
 6395              	.LEHB159:
 265:TestChecks.cpp ****     CHECK_EQUAL(1, results.GetFailureCount());
 6396              		.loc 5 265 0
 6397 3072 E8000000 		call	_ZN8UnitTest11CurrentTest7DetailsEv
 6397      00
 6398 3077 488B08   		movq	(%rax), %rcx
 6399 307a 488D8570 		leaq	-144(%rbp), %rax
 6399      FFFFFF
 6400 3081 BA090100 		movl	$265, %edx
 6400      00
 6401 3086 4889CE   		movq	%rcx, %rsi
 6402 3089 4889C7   		movq	%rax, %rdi
 6403 308c E8000000 		call	_ZN8UnitTest11TestDetailsC1ERKS0_i
 6403      00
 6404              		.loc 5 265 0 is_stmt 0 discriminator 2
 6405 3091 488D8550 		leaq	-176(%rbp), %rax
 6405      FFFFFF
 6406 3098 4889C7   		movq	%rax, %rdi
 6407 309b E8000000 		call	_ZNK8UnitTest11TestResults15GetFailureCountEv
 6407      00
 6408 30a0 89854CFF 		movl	%eax, -180(%rbp)
 6408      FFFF
 6409 30a6 C78548FF 		movl	$1, -184(%rbp)
 6409      FFFF0100 
 6409      0000
 6410 30b0 E8000000 		call	_ZN8UnitTest11CurrentTest7ResultsEv
 6410      00
 6411              		.loc 5 265 0 discriminator 4
 6412 30b5 488B00   		movq	(%rax), %rax
 6413 30b8 488D8D70 		leaq	-144(%rbp), %rcx
 6413      FFFFFF
 6414 30bf 488D954C 		leaq	-180(%rbp), %rdx
 6414      FFFFFF
 6415 30c6 488DB548 		leaq	-184(%rbp), %rsi
 6415      FFFFFF
 6416 30cd 4889C7   		movq	%rax, %rdi
 6417 30d0 E8000000 		call	_ZN8UnitTest10CheckEqualIiiEEvRNS_11TestResultsERKT_RKT0_RKNS_11TestDetailsE
 6417      00
 6418              	.LEHE159:
 6419              	.LBE79:
 266:TestChecks.cpp **** }
 6420              		.loc 5 266 0 is_stmt 1
 6421 30d5 EB5E     		jmp	.L297
 6422              	.L296:
 6423 30d7 4889C3   		movq	%rax, %rbx
 6424              	.LBB80:
 265:TestChecks.cpp ****     CHECK_EQUAL(1, results.GetFailureCount());
 6425              		.loc 5 265 0
 6426 30da E8000000 		call	__cxa_end_catch
 6426      00
 6427 30df 4889D8   		movq	%rbx, %rax
 6428 30e2 4889C7   		movq	%rax, %rdi
 6429              	.LEHB160:
 6430 30e5 E8000000 		call	_Unwind_Resume
 6430      00
 6431              	.LEHE160:
 6432              	.L295:
 6433 30ea 4889C7   		movq	%rax, %rdi
 6434 30ed E8000000 		call	__cxa_begin_catch
 6434      00
 6435              	.LEHB161:
 6436 30f2 E8000000 		call	_ZN8UnitTest11CurrentTest7DetailsEv
 6436      00
 6437 30f7 488B08   		movq	(%rax), %rcx
 6438 30fa 488D8570 		leaq	-144(%rbp), %rax
 6438      FFFFFF
 6439 3101 BA090100 		movl	$265, %edx
 6439      00
 6440 3106 4889CE   		movq	%rcx, %rsi
 6441 3109 4889C7   		movq	%rax, %rdi
 6442 310c E8000000 		call	_ZN8UnitTest11TestDetailsC1ERKS0_i
 6442      00
 265:TestChecks.cpp ****     CHECK_EQUAL(1, results.GetFailureCount());
 6443              		.loc 5 265 0 is_stmt 0 discriminator 12
 6444 3111 E8000000 		call	_ZN8UnitTest11CurrentTest7ResultsEv
 6444      00
 6445 3116 488B00   		movq	(%rax), %rax
 6446 3119 488D8D70 		leaq	-144(%rbp), %rcx
 6446      FFFFFF
 6447 3120 BA000000 		movl	$.LC7, %edx
 6447      00
 6448 3125 4889CE   		movq	%rcx, %rsi
 6449 3128 4889C7   		movq	%rax, %rdi
 6450 312b E8000000 		call	_ZN8UnitTest11TestResults13OnTestFailureERKNS_11TestDetailsEPKc
 6450      00
 6451              	.LEHE161:
 6452              	.LEHB162:
 265:TestChecks.cpp ****     CHECK_EQUAL(1, results.GetFailureCount());
 6453              		.loc 5 265 0 discriminator 16
 6454 3130 E8000000 		call	__cxa_end_catch
 6454      00
 6455              	.LEHE162:
 6456              	.L297:
 6457              	.LBE80:
 6458              		.loc 5 266 0 is_stmt 1
 6459 3135 90       		nop
 6460 3136 488B45E8 		movq	-24(%rbp), %rax
 6461 313a 64483304 		xorq	%fs:40, %rax
 6461      25280000 
 6461      00
 6462 3143 7405     		je	.L294
 6463 3145 E8000000 		call	__stack_chk_fail
 6463      00
 6464              	.L294:
 6465 314a 488B5DF8 		movq	-8(%rbp), %rbx
 6466 314e C9       		leave
 6467              		.cfi_def_cfa 7, 8
 6468 314f C3       		ret
 6469              		.cfi_endproc
 6470              	.LFE1170:
 6471              		.section	.gcc_except_table
 6472              		.align 4
 6473              	.LLSDA1170:
 6474 0474 FF       		.byte	0xff
 6475 0475 03       		.byte	0x3
 6476 0476 25       		.uleb128 .LLSDATT1170-.LLSDATTD1170
 6477              	.LLSDATTD1170:
 6478 0477 01       		.byte	0x1
 6479 0478 1B       		.uleb128 .LLSDACSE1170-.LLSDACSB1170
 6480              	.LLSDACSB1170:
 6481 0479 31       		.uleb128 .LEHB158-.LFB1170
 6482 047a 8F02     		.uleb128 .LEHE158-.LEHB158
 6483 047c 00       		.uleb128 0
 6484 047d 00       		.uleb128 0
 6485 047e C402     		.uleb128 .LEHB159-.LFB1170
 6486 0480 63       		.uleb128 .LEHE159-.LEHB159
 6487 0481 BC03     		.uleb128 .L295-.LFB1170
 6488 0483 01       		.uleb128 0x1
 6489 0484 B703     		.uleb128 .LEHB160-.LFB1170
 6490 0486 05       		.uleb128 .LEHE160-.LEHB160
 6491 0487 00       		.uleb128 0
 6492 0488 00       		.uleb128 0
 6493 0489 C403     		.uleb128 .LEHB161-.LFB1170
 6494 048b 3E       		.uleb128 .LEHE161-.LEHB161
 6495 048c A903     		.uleb128 .L296-.LFB1170
 6496 048e 00       		.uleb128 0
 6497 048f 8204     		.uleb128 .LEHB162-.LFB1170
 6498 0491 05       		.uleb128 .LEHE162-.LEHB162
 6499 0492 00       		.uleb128 0
 6500 0493 00       		.uleb128 0
 6501              	.LLSDACSE1170:
 6502 0494 01       		.byte	0x1
 6503 0495 00       		.byte	0
 6504 0496 0000     		.align 4
 6505 0498 00000000 		.long	0
 6506              	
 6507              	.LLSDATT1170:
 6508              		.text
 6510              		.section	.rodata
 6511              	.LC86:
 6512 0a1f 43686563 		.string	"CheckCloseWithDoublesSucceeds"
 6512      6B436C6F 
 6512      73655769 
 6512      7468446F 
 6512      75626C65 
 6513              		.text
 6514              		.align 2
 6516              	_ZN12_GLOBAL__N_133TestCheckCloseWithDoublesSucceedsC2Ev:
 6517              	.LFB1172:
 267:TestChecks.cpp **** 
 268:TestChecks.cpp **** TEST(CheckCloseWithDoublesSucceeds)
 6518              		.loc 5 268 0
 6519              		.cfi_startproc
 6520 3150 55       		pushq	%rbp
 6521              		.cfi_def_cfa_offset 16
 6522              		.cfi_offset 6, -16
 6523 3151 4889E5   		movq	%rsp, %rbp
 6524              		.cfi_def_cfa_register 6
 6525 3154 4883EC10 		subq	$16, %rsp
 6526 3158 48897DF8 		movq	%rdi, -8(%rbp)
 6527              	.LBB81:
 6528              		.loc 5 268 0
 6529 315c E8000000 		call	_ZN13UnitTestSuite12GetSuiteNameEv
 6529      00
 6530 3161 4889C2   		movq	%rax, %rdx
 6531 3164 488B45F8 		movq	-8(%rbp), %rax
 6532 3168 41B80C01 		movl	$268, %r8d
 6532      0000
 6533 316e B9000000 		movl	$.LC2, %ecx
 6533      00
 6534 3173 BE000000 		movl	$.LC86, %esi
 6534      00
 6535 3178 4889C7   		movq	%rax, %rdi
 6536 317b E8000000 		call	_ZN8UnitTest4TestC2EPKcS2_S2_i
 6536      00
 6537 3180 488B45F8 		movq	-8(%rbp), %rax
 6538 3184 48C70000 		movq	$_ZTVN12_GLOBAL__N_133TestCheckCloseWithDoublesSucceedsE+16, (%rax)
 6538      000000
 6539              	.LBE81:
 6540 318b C9       		leave
 6541              		.cfi_def_cfa 7, 8
 6542 318c C3       		ret
 6543              		.cfi_endproc
 6544              	.LFE1172:
 6546              		.local	_ZN12_GLOBAL__N_141testCheckCloseWithDoublesSucceedsInstanceE
 6547              		.comm	_ZN12_GLOBAL__N_141testCheckCloseWithDoublesSucceedsInstanceE,56,32
 6548              		.local	_ZN12_GLOBAL__N_134adderCheckCloseWithDoublesSucceedsE
 6549              		.comm	_ZN12_GLOBAL__N_134adderCheckCloseWithDoublesSucceedsE,1,1
 6550              		.section	.rodata
 6551 0a3d 000000   		.align 8
 6552              	.LC89:
 6553 0a40 556E6861 		.string	"Unhandled exception in CHECK_CLOSE(0.5, 0.5)"
 6553      6E646C65 
 6553      64206578 
 6553      63657074 
 6553      696F6E20 
 6554              		.text
 6555 318d 90       		.align 2
 6557              	_ZNK12_GLOBAL__N_133TestCheckCloseWithDoublesSucceeds7RunImplEv:
 6558              	.LFB1174:
 269:TestChecks.cpp **** {
 6559              		.loc 5 269 0
 6560              		.cfi_startproc
 6561              		.cfi_personality 0x3,__gxx_personality_v0
 6562              		.cfi_lsda 0x3,.LLSDA1174
 6563 318e 55       		pushq	%rbp
 6564              		.cfi_def_cfa_offset 16
 6565              		.cfi_offset 6, -16
 6566 318f 4889E5   		movq	%rsp, %rbp
 6567              		.cfi_def_cfa_register 6
 6568 3192 53       		pushq	%rbx
 6569 3193 4883EC68 		subq	$104, %rsp
 6570              		.cfi_offset 3, -24
 6571 3197 48897D98 		movq	%rdi, -104(%rbp)
 6572              		.loc 5 269 0
 6573 319b 64488B04 		movq	%fs:40, %rax
 6573      25280000 
 6573      00
 6574 31a4 488945E8 		movq	%rax, -24(%rbp)
 6575 31a8 31C0     		xorl	%eax, %eax
 6576              	.LEHB163:
 270:TestChecks.cpp ****     CHECK_CLOSE(0.5, 0.5, 0.0001);
 6577              		.loc 5 270 0
 6578 31aa E8000000 		call	_ZN8UnitTest11CurrentTest7DetailsEv
 6578      00
 6579 31af 488B08   		movq	(%rax), %rcx
 6580 31b2 488D45C0 		leaq	-64(%rbp), %rax
 6581 31b6 BA0E0100 		movl	$270, %edx
 6581      00
 6582 31bb 4889CE   		movq	%rcx, %rsi
 6583 31be 4889C7   		movq	%rax, %rdi
 6584 31c1 E8000000 		call	_ZN8UnitTest11TestDetailsC1ERKS0_i
 6584      00
 6585              		.loc 5 270 0 is_stmt 0 discriminator 2
 6586 31c6 48B82D43 		movabsq	$4547007122018943789, %rax
 6586      1CEBE236 
 6586      1A3F
 6587 31d0 488945B8 		movq	%rax, -72(%rbp)
 6588 31d4 48B80000 		movabsq	$4602678819172646912, %rax
 6588      00000000 
 6588      E03F
 6589 31de 488945B0 		movq	%rax, -80(%rbp)
 6590 31e2 48B80000 		movabsq	$4602678819172646912, %rax
 6590      00000000 
 6590      E03F
 6591 31ec 488945A8 		movq	%rax, -88(%rbp)
 6592 31f0 E8000000 		call	_ZN8UnitTest11CurrentTest7ResultsEv
 6592      00
 6593 31f5 488B00   		movq	(%rax), %rax
 6594 31f8 488D7DC0 		leaq	-64(%rbp), %rdi
 6595 31fc 488D4DB8 		leaq	-72(%rbp), %rcx
 6596 3200 488D55B0 		leaq	-80(%rbp), %rdx
 6597 3204 488D75A8 		leaq	-88(%rbp), %rsi
 6598 3208 4989F8   		movq	%rdi, %r8
 6599 320b 4889C7   		movq	%rax, %rdi
 6600 320e E8000000 		call	_ZN8UnitTest10CheckCloseIdddEEvRNS_11TestResultsERKT_RKT0_RKT1_RKNS_11TestDetailsE
 6600      00
 6601              	.LEHE163:
 271:TestChecks.cpp **** }
 6602              		.loc 5 271 0 is_stmt 1
 6603 3213 EB58     		jmp	.L306
 6604              	.L305:
 6605 3215 4889C3   		movq	%rax, %rbx
 270:TestChecks.cpp ****     CHECK_CLOSE(0.5, 0.5, 0.0001);
 6606              		.loc 5 270 0
 6607 3218 E8000000 		call	__cxa_end_catch
 6607      00
 6608 321d 4889D8   		movq	%rbx, %rax
 6609 3220 4889C7   		movq	%rax, %rdi
 6610              	.LEHB164:
 6611 3223 E8000000 		call	_Unwind_Resume
 6611      00
 6612              	.LEHE164:
 6613              	.L304:
 6614 3228 4889C7   		movq	%rax, %rdi
 6615 322b E8000000 		call	__cxa_begin_catch
 6615      00
 6616              	.LEHB165:
 6617 3230 E8000000 		call	_ZN8UnitTest11CurrentTest7DetailsEv
 6617      00
 6618 3235 488B08   		movq	(%rax), %rcx
 6619 3238 488D45C0 		leaq	-64(%rbp), %rax
 6620 323c BA0E0100 		movl	$270, %edx
 6620      00
 6621 3241 4889CE   		movq	%rcx, %rsi
 6622 3244 4889C7   		movq	%rax, %rdi
 6623 3247 E8000000 		call	_ZN8UnitTest11TestDetailsC1ERKS0_i
 6623      00
 270:TestChecks.cpp ****     CHECK_CLOSE(0.5, 0.5, 0.0001);
 6624              		.loc 5 270 0 is_stmt 0 discriminator 10
 6625 324c E8000000 		call	_ZN8UnitTest11CurrentTest7ResultsEv
 6625      00
 6626 3251 488B00   		movq	(%rax), %rax
 6627 3254 488D4DC0 		leaq	-64(%rbp), %rcx
 6628 3258 BA000000 		movl	$.LC89, %edx
 6628      00
 6629 325d 4889CE   		movq	%rcx, %rsi
 6630 3260 4889C7   		movq	%rax, %rdi
 6631 3263 E8000000 		call	_ZN8UnitTest11TestResults13OnTestFailureERKNS_11TestDetailsEPKc
 6631      00
 6632              	.LEHE165:
 6633              	.LEHB166:
 270:TestChecks.cpp ****     CHECK_CLOSE(0.5, 0.5, 0.0001);
 6634              		.loc 5 270 0 discriminator 14
 6635 3268 E8000000 		call	__cxa_end_catch
 6635      00
 6636              	.LEHE166:
 6637              	.L306:
 6638              		.loc 5 271 0 is_stmt 1
 6639 326d 90       		nop
 6640 326e 488B45E8 		movq	-24(%rbp), %rax
 6641 3272 64483304 		xorq	%fs:40, %rax
 6641      25280000 
 6641      00
 6642 327b 7405     		je	.L303
 6643 327d E8000000 		call	__stack_chk_fail
 6643      00
 6644              	.L303:
 6645 3282 4883C468 		addq	$104, %rsp
 6646 3286 5B       		popq	%rbx
 6647 3287 5D       		popq	%rbp
 6648              		.cfi_def_cfa 7, 8
 6649 3288 C3       		ret
 6650              		.cfi_endproc
 6651              	.LFE1174:
 6652              		.section	.gcc_except_table
 6653              		.align 4
 6654              	.LLSDA1174:
 6655 049c FF       		.byte	0xff
 6656 049d 03       		.byte	0x3
 6657 049e 1D       		.uleb128 .LLSDATT1174-.LLSDATTD1174
 6658              	.LLSDATTD1174:
 6659 049f 01       		.byte	0x1
 6660 04a0 15       		.uleb128 .LLSDACSE1174-.LLSDACSB1174
 6661              	.LLSDACSB1174:
 6662 04a1 1C       		.uleb128 .LEHB163-.LFB1174
 6663 04a2 69       		.uleb128 .LEHE163-.LEHB163
 6664 04a3 9A01     		.uleb128 .L304-.LFB1174
 6665 04a5 01       		.uleb128 0x1
 6666 04a6 9501     		.uleb128 .LEHB164-.LFB1174
 6667 04a8 05       		.uleb128 .LEHE164-.LEHB164
 6668 04a9 00       		.uleb128 0
 6669 04aa 00       		.uleb128 0
 6670 04ab A201     		.uleb128 .LEHB165-.LFB1174
 6671 04ad 38       		.uleb128 .LEHE165-.LEHB165
 6672 04ae 8701     		.uleb128 .L305-.LFB1174
 6673 04b0 00       		.uleb128 0
 6674 04b1 DA01     		.uleb128 .LEHB166-.LFB1174
 6675 04b3 05       		.uleb128 .LEHE166-.LEHB166
 6676 04b4 00       		.uleb128 0
 6677 04b5 00       		.uleb128 0
 6678              	.LLSDACSE1174:
 6679 04b6 01       		.byte	0x1
 6680 04b7 00       		.byte	0
 6681              		.align 4
 6682 04b8 00000000 		.long	0
 6683              	
 6684              	.LLSDATT1174:
 6685              		.text
 6687              		.section	.rodata
 6688 0a6d 000000   		.align 8
 6689              	.LC90:
 6690 0a70 43686563 		.string	"CheckArray2DCloseFailureIncludesDetails"
 6690      6B417272 
 6690      61793244 
 6690      436C6F73 
 6690      65466169 
 6691              		.text
 6692 3289 90       		.align 2
 6694              	_ZN12_GLOBAL__N_143TestCheckArray2DCloseFailureIncludesDetailsC2Ev:
 6695              	.LFB1176:
 272:TestChecks.cpp **** 
 273:TestChecks.cpp **** TEST(CheckArray2DCloseFailureIncludesDetails)
 6696              		.loc 5 273 0
 6697              		.cfi_startproc
 6698 328a 55       		pushq	%rbp
 6699              		.cfi_def_cfa_offset 16
 6700              		.cfi_offset 6, -16
 6701 328b 4889E5   		movq	%rsp, %rbp
 6702              		.cfi_def_cfa_register 6
 6703 328e 4883EC10 		subq	$16, %rsp
 6704 3292 48897DF8 		movq	%rdi, -8(%rbp)
 6705              	.LBB82:
 6706              		.loc 5 273 0
 6707 3296 E8000000 		call	_ZN13UnitTestSuite12GetSuiteNameEv
 6707      00
 6708 329b 4889C2   		movq	%rax, %rdx
 6709 329e 488B45F8 		movq	-8(%rbp), %rax
 6710 32a2 41B81101 		movl	$273, %r8d
 6710      0000
 6711 32a8 B9000000 		movl	$.LC2, %ecx
 6711      00
 6712 32ad BE000000 		movl	$.LC90, %esi
 6712      00
 6713 32b2 4889C7   		movq	%rax, %rdi
 6714 32b5 E8000000 		call	_ZN8UnitTest4TestC2EPKcS2_S2_i
 6714      00
 6715 32ba 488B45F8 		movq	-8(%rbp), %rax
 6716 32be 48C70000 		movq	$_ZTVN12_GLOBAL__N_143TestCheckArray2DCloseFailureIncludesDetailsE+16, (%rax)
 6716      000000
 6717              	.LBE82:
 6718 32c5 C9       		leave
 6719              		.cfi_def_cfa 7, 8
 6720 32c6 C3       		ret
 6721              		.cfi_endproc
 6722              	.LFE1176:
 6724              		.local	_ZN12_GLOBAL__N_151testCheckArray2DCloseFailureIncludesDetailsInstanceE
 6725              		.comm	_ZN12_GLOBAL__N_151testCheckArray2DCloseFailureIncludesDetailsInstanceE,56,32
 6726              		.local	_ZN12_GLOBAL__N_144adderCheckArray2DCloseFailureIncludesDetailsE
 6727              		.comm	_ZN12_GLOBAL__N_144adderCheckArray2DCloseFailureIncludesDetailsE,1,1
 6728              		.section	.rodata
 6729              	.LC91:
 6730 0a98 61727261 		.string	"array2DCloseSuite"
 6730      79324443 
 6730      6C6F7365 
 6730      53756974 
 6730      6500
 6731              	.LC92:
 6732 0aaa 61727261 		.string	"array2DCloseTest"
 6732      79324443 
 6732      6C6F7365 
 6732      54657374 
 6732      00
 6733 0abb 00000000 		.align 8
 6733      00
 6734              	.LC93:
 6735 0ac0 556E6861 		.string	"Unhandled exception in CHECK_EQUAL(\"array2DCloseTest\", reporter.lastFailedTest)"
 6735      6E646C65 
 6735      64206578 
 6735      63657074 
 6735      696F6E20 
 6736              		.align 8
 6737              	.LC94:
 6738 0b10 556E6861 		.string	"Unhandled exception in CHECK_EQUAL(\"array2DCloseSuite\", reporter.lastFailedSuite)"
 6738      6E646C65 
 6738      64206578 
 6738      63657074 
 6738      696F6E20 
 6739 0b62 00000000 		.align 8
 6739      0000
 6740              	.LC95:
 6741 0b68 556E6861 		.string	"Unhandled exception in CHECK_EQUAL(1234, reporter.lastFailedLine)"
 6741      6E646C65 
 6741      64206578 
 6741      63657074 
 6741      696F6E20 
 6742              		.text
 6743 32c7 90       		.align 2
 6745              	_ZNK12_GLOBAL__N_143TestCheckArray2DCloseFailureIncludesDetails7RunImplEv:
 6746              	.LFB1178:
 274:TestChecks.cpp **** {
 6747              		.loc 5 274 0
 6748              		.cfi_startproc
 6749              		.cfi_personality 0x3,__gxx_personality_v0
 6750              		.cfi_lsda 0x3,.LLSDA1178
 6751 32c8 55       		pushq	%rbp
 6752              		.cfi_def_cfa_offset 16
 6753              		.cfi_offset 6, -16
 6754 32c9 4889E5   		movq	%rsp, %rbp
 6755              		.cfi_def_cfa_register 6
 6756 32cc 53       		pushq	%rbx
 6757 32cd 4881EC28 		subq	$2344, %rsp
 6757      090000
 6758              		.cfi_offset 3, -24
 6759 32d4 4889BDD8 		movq	%rdi, -2344(%rbp)
 6759      F6FFFF
 6760              		.loc 5 274 0
 6761 32db 64488B04 		movq	%fs:40, %rax
 6761      25280000 
 6761      00
 6762 32e4 488945E8 		movq	%rax, -24(%rbp)
 6763 32e8 31C0     		xorl	%eax, %eax
 6764              	.LBB83:
 275:TestChecks.cpp ****     RecordingReporter reporter;
 6765              		.loc 5 275 0
 6766 32ea 488D85B0 		leaq	-2128(%rbp), %rax
 6766      F7FFFF
 6767 32f1 4889C7   		movq	%rax, %rdi
 6768 32f4 E8000000 		call	_ZN17RecordingReporterC1Ev
 6768      00
 276:TestChecks.cpp ****     TestResults results(&reporter);
 6769              		.loc 5 276 0
 6770 32f9 488D95B0 		leaq	-2128(%rbp), %rdx
 6770      F7FFFF
 6771 3300 488D85F0 		leaq	-2320(%rbp), %rax
 6771      F6FFFF
 6772 3307 4889D6   		movq	%rdx, %rsi
 6773 330a 4889C7   		movq	%rax, %rdi
 6774              	.LEHB167:
 6775 330d E8000000 		call	_ZN8UnitTest11TestResultsC1EPNS_12TestReporterE
 6775      00
 277:TestChecks.cpp ****     TestDetails const details("array2DCloseTest", "array2DCloseSuite", "file", 1234);
 6776              		.loc 5 277 0
 6777 3312 488D8510 		leaq	-2288(%rbp), %rax
 6777      F7FFFF
 6778 3319 41B8D204 		movl	$1234, %r8d
 6778      0000
 6779 331f B9000000 		movl	$.LC70, %ecx
 6779      00
 6780 3324 BA000000 		movl	$.LC91, %edx
 6780      00
 6781 3329 BE000000 		movl	$.LC92, %esi
 6781      00
 6782 332e 4889C7   		movq	%rax, %rdi
 6783 3331 E8000000 		call	_ZN8UnitTest11TestDetailsC1EPKcS2_S2_i
 6783      00
 278:TestChecks.cpp **** 
 279:TestChecks.cpp ****     float const array1[3][3] = { { 1.0f, 1.5f, 2.0f },
 280:TestChecks.cpp ****                                  { 2.0f, 2.5f, 3.0f },
 281:TestChecks.cpp ****                                  { 3.0f, 3.5f, 4.0f } };
 6784              		.loc 5 281 0
 6785 3336 8B050000 		movl	.LC60(%rip), %eax
 6785      0000
 6786 333c 898550F7 		movl	%eax, -2224(%rbp)
 6786      FFFF
 6787 3342 8B050000 		movl	.LC61(%rip), %eax
 6787      0000
 6788 3348 898554F7 		movl	%eax, -2220(%rbp)
 6788      FFFF
 6789 334e 8B050000 		movl	.LC62(%rip), %eax
 6789      0000
 6790 3354 898558F7 		movl	%eax, -2216(%rbp)
 6790      FFFF
 6791 335a 8B050000 		movl	.LC62(%rip), %eax
 6791      0000
 6792 3360 89855CF7 		movl	%eax, -2212(%rbp)
 6792      FFFF
 6793 3366 8B050000 		movl	.LC78(%rip), %eax
 6793      0000
 6794 336c 898560F7 		movl	%eax, -2208(%rbp)
 6794      FFFF
 6795 3372 8B050000 		movl	.LC32(%rip), %eax
 6795      0000
 6796 3378 898564F7 		movl	%eax, -2204(%rbp)
 6796      FFFF
 6797 337e 8B050000 		movl	.LC32(%rip), %eax
 6797      0000
 6798 3384 898568F7 		movl	%eax, -2200(%rbp)
 6798      FFFF
 6799 338a 8B050000 		movl	.LC79(%rip), %eax
 6799      0000
 6800 3390 89856CF7 		movl	%eax, -2196(%rbp)
 6800      FFFF
 6801 3396 8B050000 		movl	.LC80(%rip), %eax
 6801      0000
 6802 339c 898570F7 		movl	%eax, -2192(%rbp)
 6802      FFFF
 282:TestChecks.cpp ****     float const array2[3][3] = { { 1.01f, 1.51f, 2.01f },
 283:TestChecks.cpp ****                                  { 2.01f, 2.51f, 3.01f },
 284:TestChecks.cpp ****                                  { 3.01f, 3.51f, 4.01f } };
 6803              		.loc 5 284 0
 6804 33a2 8B050000 		movl	.LC63(%rip), %eax
 6804      0000
 6805 33a8 898580F7 		movl	%eax, -2176(%rbp)
 6805      FFFF
 6806 33ae 8B050000 		movl	.LC64(%rip), %eax
 6806      0000
 6807 33b4 898584F7 		movl	%eax, -2172(%rbp)
 6807      FFFF
 6808 33ba 8B050000 		movl	.LC65(%rip), %eax
 6808      0000
 6809 33c0 898588F7 		movl	%eax, -2168(%rbp)
 6809      FFFF
 6810 33c6 8B050000 		movl	.LC65(%rip), %eax
 6810      0000
 6811 33cc 89858CF7 		movl	%eax, -2164(%rbp)
 6811      FFFF
 6812 33d2 8B050000 		movl	.LC81(%rip), %eax
 6812      0000
 6813 33d8 898590F7 		movl	%eax, -2160(%rbp)
 6813      FFFF
 6814 33de 8B050000 		movl	.LC82(%rip), %eax
 6814      0000
 6815 33e4 898594F7 		movl	%eax, -2156(%rbp)
 6815      FFFF
 6816 33ea 8B050000 		movl	.LC82(%rip), %eax
 6816      0000
 6817 33f0 898598F7 		movl	%eax, -2152(%rbp)
 6817      FFFF
 6818 33f6 8B050000 		movl	.LC83(%rip), %eax
 6818      0000
 6819 33fc 89859CF7 		movl	%eax, -2148(%rbp)
 6819      FFFF
 6820 3402 8B050000 		movl	.LC84(%rip), %eax
 6820      0000
 6821 3408 8985A0F7 		movl	%eax, -2144(%rbp)
 6821      FFFF
 285:TestChecks.cpp ****     CheckArray2DClose(results, array1, array2, 3, 3, 0.001f, details);
 6822              		.loc 5 285 0
 6823 340e 8B050000 		movl	.LC68(%rip), %eax
 6823      0000
 6824 3414 898530F7 		movl	%eax, -2256(%rbp)
 6824      FFFF
 6825 341a 4883EC08 		subq	$8, %rsp
 6826 341e 488DBD30 		leaq	-2256(%rbp), %rdi
 6826      F7FFFF
 6827 3425 488D9580 		leaq	-2176(%rbp), %rdx
 6827      F7FFFF
 6828 342c 488DB550 		leaq	-2224(%rbp), %rsi
 6828      F7FFFF
 6829 3433 488D85F0 		leaq	-2320(%rbp), %rax
 6829      F6FFFF
 6830 343a 488D8D10 		leaq	-2288(%rbp), %rcx
 6830      F7FFFF
 6831 3441 51       		pushq	%rcx
 6832 3442 4989F9   		movq	%rdi, %r9
 6833 3445 41B80300 		movl	$3, %r8d
 6833      0000
 6834 344b B9030000 		movl	$3, %ecx
 6834      00
 6835 3450 4889C7   		movq	%rax, %rdi
 6836              		.cfi_escape 0x2e,0x10
 6837 3453 E8000000 		call	_ZN8UnitTest17CheckArray2DCloseIA3_A3_fS2_fEEvRNS_11TestResultsERKT_RKT0_iiRKT1_RKNS_11TestDe
 6837      00
 6838              	.LEHE167:
 6839 3458 4883C410 		addq	$16, %rsp
 6840              	.LEHB168:
 6841              		.cfi_escape 0x2e,0
 286:TestChecks.cpp **** 
 287:TestChecks.cpp ****     CHECK_EQUAL("array2DCloseTest", reporter.lastFailedTest);
 6842              		.loc 5 287 0
 6843 345c E8000000 		call	_ZN8UnitTest11CurrentTest7DetailsEv
 6843      00
 6844              		.loc 5 287 0 is_stmt 0 discriminator 2
 6845 3461 488B08   		movq	(%rax), %rcx
 6846 3464 488D8530 		leaq	-2256(%rbp), %rax
 6846      F7FFFF
 6847 346b BA1F0100 		movl	$287, %edx
 6847      00
 6848 3470 4889CE   		movq	%rcx, %rsi
 6849 3473 4889C7   		movq	%rax, %rdi
 6850 3476 E8000000 		call	_ZN8UnitTest11TestDetailsC1ERKS0_i
 6850      00
 6851 347b E8000000 		call	_ZN8UnitTest11CurrentTest7ResultsEv
 6851      00
 6852 3480 488B00   		movq	(%rax), %rax
 6853 3483 488D9530 		leaq	-2256(%rbp), %rdx
 6853      F7FFFF
 6854 348a 488D8DB0 		leaq	-2128(%rbp), %rcx
 6854      F7FFFF
 6855 3491 488DB114 		leaq	1044(%rcx), %rsi
 6855      040000
 6856 3498 4889D1   		movq	%rdx, %rcx
 6857 349b 4889F2   		movq	%rsi, %rdx
 6858 349e BE000000 		movl	$.LC92, %esi
 6858      00
 6859 34a3 4889C7   		movq	%rax, %rdi
 6860 34a6 E8000000 		call	_ZN8UnitTest10CheckEqualERNS_11TestResultsEPKcPcRKNS_11TestDetailsE
 6860      00
 6861              	.LEHE168:
 6862              	.L312:
 6863              	.LEHB169:
 288:TestChecks.cpp ****     CHECK_EQUAL("array2DCloseSuite", reporter.lastFailedSuite);
 6864              		.loc 5 288 0 is_stmt 1
 6865 34ab E8000000 		call	_ZN8UnitTest11CurrentTest7DetailsEv
 6865      00
 6866 34b0 488B08   		movq	(%rax), %rcx
 6867 34b3 488D8530 		leaq	-2256(%rbp), %rax
 6867      F7FFFF
 6868 34ba BA200100 		movl	$288, %edx
 6868      00
 6869 34bf 4889CE   		movq	%rcx, %rsi
 6870 34c2 4889C7   		movq	%rax, %rdi
 6871 34c5 E8000000 		call	_ZN8UnitTest11TestDetailsC1ERKS0_i
 6871      00
 6872              		.loc 5 288 0 is_stmt 0 discriminator 2
 6873 34ca E8000000 		call	_ZN8UnitTest11CurrentTest7ResultsEv
 6873      00
 6874 34cf 488B00   		movq	(%rax), %rax
 6875 34d2 488D9530 		leaq	-2256(%rbp), %rdx
 6875      F7FFFF
 6876 34d9 488D8DB0 		leaq	-2128(%rbp), %rcx
 6876      F7FFFF
 6877 34e0 488DB114 		leaq	788(%rcx), %rsi
 6877      030000
 6878 34e7 4889D1   		movq	%rdx, %rcx
 6879 34ea 4889F2   		movq	%rsi, %rdx
 6880 34ed BE000000 		movl	$.LC91, %esi
 6880      00
 6881 34f2 4889C7   		movq	%rax, %rdi
 6882 34f5 E8000000 		call	_ZN8UnitTest10CheckEqualERNS_11TestResultsEPKcPcRKNS_11TestDetailsE
 6882      00
 6883              	.LEHE169:
 6884              	.L315:
 6885              	.LEHB170:
 289:TestChecks.cpp ****     CHECK_EQUAL("file", reporter.lastFailedFile);
 6886              		.loc 5 289 0 is_stmt 1
 6887 34fa E8000000 		call	_ZN8UnitTest11CurrentTest7DetailsEv
 6887      00
 6888 34ff 488B08   		movq	(%rax), %rcx
 6889 3502 488D8530 		leaq	-2256(%rbp), %rax
 6889      F7FFFF
 6890 3509 BA210100 		movl	$289, %edx
 6890      00
 6891 350e 4889CE   		movq	%rcx, %rsi
 6892 3511 4889C7   		movq	%rax, %rdi
 6893 3514 E8000000 		call	_ZN8UnitTest11TestDetailsC1ERKS0_i
 6893      00
 6894              		.loc 5 289 0 is_stmt 0 discriminator 2
 6895 3519 E8000000 		call	_ZN8UnitTest11CurrentTest7ResultsEv
 6895      00
 6896 351e 488B00   		movq	(%rax), %rax
 6897 3521 488D9530 		leaq	-2256(%rbp), %rdx
 6897      F7FFFF
 6898 3528 488D8DB0 		leaq	-2128(%rbp), %rcx
 6898      F7FFFF
 6899 352f 488DB110 		leaq	528(%rcx), %rsi
 6899      020000
 6900 3536 4889D1   		movq	%rdx, %rcx
 6901 3539 4889F2   		movq	%rsi, %rdx
 6902 353c BE000000 		movl	$.LC70, %esi
 6902      00
 6903 3541 4889C7   		movq	%rax, %rdi
 6904 3544 E8000000 		call	_ZN8UnitTest10CheckEqualERNS_11TestResultsEPKcPcRKNS_11TestDetailsE
 6904      00
 6905              	.LEHE170:
 6906              	.L318:
 6907              	.LEHB171:
 290:TestChecks.cpp ****     CHECK_EQUAL(1234, reporter.lastFailedLine);
 6908              		.loc 5 290 0 is_stmt 1
 6909 3549 E8000000 		call	_ZN8UnitTest11CurrentTest7DetailsEv
 6909      00
 6910 354e 488B08   		movq	(%rax), %rcx
 6911 3551 488D8530 		leaq	-2256(%rbp), %rax
 6911      F7FFFF
 6912 3558 BA220100 		movl	$290, %edx
 6912      00
 6913 355d 4889CE   		movq	%rcx, %rsi
 6914 3560 4889C7   		movq	%rax, %rdi
 6915 3563 E8000000 		call	_ZN8UnitTest11TestDetailsC1ERKS0_i
 6915      00
 6916              		.loc 5 290 0 is_stmt 0 discriminator 2
 6917 3568 C785ECF6 		movl	$1234, -2324(%rbp)
 6917      FFFFD204 
 6917      0000
 6918 3572 E8000000 		call	_ZN8UnitTest11CurrentTest7ResultsEv
 6918      00
 6919 3577 488B00   		movq	(%rax), %rax
 6920 357a 488D9530 		leaq	-2256(%rbp), %rdx
 6920      F7FFFF
 6921 3581 488D8DB0 		leaq	-2128(%rbp), %rcx
 6921      F7FFFF
 6922 3588 488DB910 		leaq	784(%rcx), %rdi
 6922      030000
 6923 358f 488DB5EC 		leaq	-2324(%rbp), %rsi
 6923      F6FFFF
 6924 3596 4889D1   		movq	%rdx, %rcx
 6925 3599 4889FA   		movq	%rdi, %rdx
 6926 359c 4889C7   		movq	%rax, %rdi
 6927 359f E8000000 		call	_ZN8UnitTest10CheckEqualIiiEEvRNS_11TestResultsERKT_RKT0_RKNS_11TestDetailsE
 6927      00
 6928              	.LEHE171:
 6929              	.L321:
 6930              		.loc 5 290 0 discriminator 7
 6931 35a4 488D85B0 		leaq	-2128(%rbp), %rax
 6931      F7FFFF
 6932 35ab 4889C7   		movq	%rax, %rdi
 6933              	.LEHB172:
 6934 35ae E8000000 		call	_ZN17RecordingReporterD1Ev
 6934      00
 6935              	.LEHE172:
 6936              	.LBE83:
 291:TestChecks.cpp **** }
 6937              		.loc 5 291 0 is_stmt 1 discriminator 7
 6938 35b3 488B45E8 		movq	-24(%rbp), %rax
 6939 35b7 64483304 		xorq	%fs:40, %rax
 6939      25280000 
 6939      00
 6940 35c0 0F849801 		je	.L322
 6940      0000
 6941 35c6 E98E0100 		jmp	.L332
 6941      00
 6942              	.L325:
 6943 35cb 4889C3   		movq	%rax, %rbx
 6944              	.LBB84:
 287:TestChecks.cpp ****     CHECK_EQUAL("array2DCloseSuite", reporter.lastFailedSuite);
 6945              		.loc 5 287 0
 6946 35ce E8000000 		call	__cxa_end_catch
 6946      00
 6947 35d3 E9670100 		jmp	.L310
 6947      00
 6948              	.L324:
 6949 35d8 4889C7   		movq	%rax, %rdi
 6950 35db E8000000 		call	__cxa_begin_catch
 6950      00
 6951              	.LEHB173:
 6952 35e0 E8000000 		call	_ZN8UnitTest11CurrentTest7DetailsEv
 6952      00
 6953 35e5 488B08   		movq	(%rax), %rcx
 6954 35e8 488D8530 		leaq	-2256(%rbp), %rax
 6954      F7FFFF
 6955 35ef BA1F0100 		movl	$287, %edx
 6955      00
 6956 35f4 4889CE   		movq	%rcx, %rsi
 6957 35f7 4889C7   		movq	%rax, %rdi
 6958 35fa E8000000 		call	_ZN8UnitTest11TestDetailsC1ERKS0_i
 6958      00
 287:TestChecks.cpp ****     CHECK_EQUAL("array2DCloseSuite", reporter.lastFailedSuite);
 6959              		.loc 5 287 0 is_stmt 0 discriminator 10
 6960 35ff E8000000 		call	_ZN8UnitTest11CurrentTest7ResultsEv
 6960      00
 6961 3604 488B00   		movq	(%rax), %rax
 6962 3607 488D8D30 		leaq	-2256(%rbp), %rcx
 6962      F7FFFF
 6963 360e BA000000 		movl	$.LC93, %edx
 6963      00
 6964 3613 4889CE   		movq	%rcx, %rsi
 6965 3616 4889C7   		movq	%rax, %rdi
 6966 3619 E8000000 		call	_ZN8UnitTest11TestResults13OnTestFailureERKNS_11TestDetailsEPKc
 6966      00
 6967              	.LEHE173:
 6968              	.LEHB174:
 287:TestChecks.cpp ****     CHECK_EQUAL("array2DCloseSuite", reporter.lastFailedSuite);
 6969              		.loc 5 287 0 discriminator 14
 6970 361e E8000000 		call	__cxa_end_catch
 6970      00
 6971              	.LEHE174:
 287:TestChecks.cpp ****     CHECK_EQUAL("array2DCloseSuite", reporter.lastFailedSuite);
 6972              		.loc 5 287 0
 6973 3623 E983FEFF 		jmp	.L312
 6973      FF
 6974              	.L327:
 6975 3628 4889C3   		movq	%rax, %rbx
 288:TestChecks.cpp ****     CHECK_EQUAL("file", reporter.lastFailedFile);
 6976              		.loc 5 288 0 is_stmt 1
 6977 362b E8000000 		call	__cxa_end_catch
 6977      00
 6978 3630 E90A0100 		jmp	.L310
 6978      00
 6979              	.L326:
 6980 3635 4889C7   		movq	%rax, %rdi
 6981 3638 E8000000 		call	__cxa_begin_catch
 6981      00
 6982              	.LEHB175:
 6983 363d E8000000 		call	_ZN8UnitTest11CurrentTest7DetailsEv
 6983      00
 6984 3642 488B08   		movq	(%rax), %rcx
 6985 3645 488D8530 		leaq	-2256(%rbp), %rax
 6985      F7FFFF
 6986 364c BA200100 		movl	$288, %edx
 6986      00
 6987 3651 4889CE   		movq	%rcx, %rsi
 6988 3654 4889C7   		movq	%rax, %rdi
 6989 3657 E8000000 		call	_ZN8UnitTest11TestDetailsC1ERKS0_i
 6989      00
 288:TestChecks.cpp ****     CHECK_EQUAL("file", reporter.lastFailedFile);
 6990              		.loc 5 288 0 is_stmt 0 discriminator 10
 6991 365c E8000000 		call	_ZN8UnitTest11CurrentTest7ResultsEv
 6991      00
 6992 3661 488B00   		movq	(%rax), %rax
 6993 3664 488D8D30 		leaq	-2256(%rbp), %rcx
 6993      F7FFFF
 6994 366b BA000000 		movl	$.LC94, %edx
 6994      00
 6995 3670 4889CE   		movq	%rcx, %rsi
 6996 3673 4889C7   		movq	%rax, %rdi
 6997 3676 E8000000 		call	_ZN8UnitTest11TestResults13OnTestFailureERKNS_11TestDetailsEPKc
 6997      00
 6998              	.LEHE175:
 6999              	.LEHB176:
 288:TestChecks.cpp ****     CHECK_EQUAL("file", reporter.lastFailedFile);
 7000              		.loc 5 288 0 discriminator 14
 7001 367b E8000000 		call	__cxa_end_catch
 7001      00
 7002              	.LEHE176:
 288:TestChecks.cpp ****     CHECK_EQUAL("file", reporter.lastFailedFile);
 7003              		.loc 5 288 0
 7004 3680 E975FEFF 		jmp	.L315
 7004      FF
 7005              	.L329:
 7006 3685 4889C3   		movq	%rax, %rbx
 289:TestChecks.cpp ****     CHECK_EQUAL(1234, reporter.lastFailedLine);
 7007              		.loc 5 289 0 is_stmt 1
 7008 3688 E8000000 		call	__cxa_end_catch
 7008      00
 7009 368d E9AD0000 		jmp	.L310
 7009      00
 7010              	.L328:
 7011 3692 4889C7   		movq	%rax, %rdi
 7012 3695 E8000000 		call	__cxa_begin_catch
 7012      00
 7013              	.LEHB177:
 7014 369a E8000000 		call	_ZN8UnitTest11CurrentTest7DetailsEv
 7014      00
 7015 369f 488B08   		movq	(%rax), %rcx
 7016 36a2 488D8530 		leaq	-2256(%rbp), %rax
 7016      F7FFFF
 7017 36a9 BA210100 		movl	$289, %edx
 7017      00
 7018 36ae 4889CE   		movq	%rcx, %rsi
 7019 36b1 4889C7   		movq	%rax, %rdi
 7020 36b4 E8000000 		call	_ZN8UnitTest11TestDetailsC1ERKS0_i
 7020      00
 289:TestChecks.cpp ****     CHECK_EQUAL(1234, reporter.lastFailedLine);
 7021              		.loc 5 289 0 is_stmt 0 discriminator 10
 7022 36b9 E8000000 		call	_ZN8UnitTest11CurrentTest7ResultsEv
 7022      00
 7023 36be 488B00   		movq	(%rax), %rax
 7024 36c1 488D8D30 		leaq	-2256(%rbp), %rcx
 7024      F7FFFF
 7025 36c8 BA000000 		movl	$.LC75, %edx
 7025      00
 7026 36cd 4889CE   		movq	%rcx, %rsi
 7027 36d0 4889C7   		movq	%rax, %rdi
 7028 36d3 E8000000 		call	_ZN8UnitTest11TestResults13OnTestFailureERKNS_11TestDetailsEPKc
 7028      00
 7029              	.LEHE177:
 7030              	.LEHB178:
 289:TestChecks.cpp ****     CHECK_EQUAL(1234, reporter.lastFailedLine);
 7031              		.loc 5 289 0 discriminator 14
 7032 36d8 E8000000 		call	__cxa_end_catch
 7032      00
 7033              	.LEHE178:
 289:TestChecks.cpp ****     CHECK_EQUAL(1234, reporter.lastFailedLine);
 7034              		.loc 5 289 0
 7035 36dd E967FEFF 		jmp	.L318
 7035      FF
 7036              	.L331:
 7037 36e2 4889C3   		movq	%rax, %rbx
 290:TestChecks.cpp **** }
 7038              		.loc 5 290 0 is_stmt 1
 7039 36e5 E8000000 		call	__cxa_end_catch
 7039      00
 7040 36ea EB53     		jmp	.L310
 7041              	.L330:
 7042 36ec 4889C7   		movq	%rax, %rdi
 7043 36ef E8000000 		call	__cxa_begin_catch
 7043      00
 7044              	.LEHB179:
 7045 36f4 E8000000 		call	_ZN8UnitTest11CurrentTest7DetailsEv
 7045      00
 7046 36f9 488B08   		movq	(%rax), %rcx
 7047 36fc 488D8530 		leaq	-2256(%rbp), %rax
 7047      F7FFFF
 7048 3703 BA220100 		movl	$290, %edx
 7048      00
 7049 3708 4889CE   		movq	%rcx, %rsi
 7050 370b 4889C7   		movq	%rax, %rdi
 7051 370e E8000000 		call	_ZN8UnitTest11TestDetailsC1ERKS0_i
 7051      00
 290:TestChecks.cpp **** }
 7052              		.loc 5 290 0 is_stmt 0 discriminator 11
 7053 3713 E8000000 		call	_ZN8UnitTest11CurrentTest7ResultsEv
 7053      00
 7054 3718 488B00   		movq	(%rax), %rax
 7055 371b 488D8D30 		leaq	-2256(%rbp), %rcx
 7055      F7FFFF
 7056 3722 BA000000 		movl	$.LC95, %edx
 7056      00
 7057 3727 4889CE   		movq	%rcx, %rsi
 7058 372a 4889C7   		movq	%rax, %rdi
 7059 372d E8000000 		call	_ZN8UnitTest11TestResults13OnTestFailureERKNS_11TestDetailsEPKc
 7059      00
 7060              	.LEHE179:
 7061              	.LEHB180:
 290:TestChecks.cpp **** }
 7062              		.loc 5 290 0 discriminator 15
 7063 3732 E8000000 		call	__cxa_end_catch
 7063      00
 7064              	.LEHE180:
 290:TestChecks.cpp **** }
 7065              		.loc 5 290 0
 7066 3737 E968FEFF 		jmp	.L321
 7066      FF
 7067              	.L323:
 7068 373c 4889C3   		movq	%rax, %rbx
 7069              	.L310:
 290:TestChecks.cpp **** }
 7070              		.loc 5 290 0 discriminator 16
 7071 373f 488D85B0 		leaq	-2128(%rbp), %rax
 7071      F7FFFF
 7072 3746 4889C7   		movq	%rax, %rdi
 7073 3749 E8000000 		call	_ZN17RecordingReporterD1Ev
 7073      00
 7074 374e 4889D8   		movq	%rbx, %rax
 7075 3751 4889C7   		movq	%rax, %rdi
 7076              	.LEHB181:
 7077 3754 E8000000 		call	_Unwind_Resume
 7077      00
 7078              	.LEHE181:
 7079              	.L332:
 7080              	.LBE84:
 7081              		.loc 5 291 0 is_stmt 1
 7082 3759 E8000000 		call	__stack_chk_fail
 7082      00
 7083              	.L322:
 7084 375e 488B5DF8 		movq	-8(%rbp), %rbx
 7085 3762 C9       		leave
 7086              		.cfi_def_cfa 7, 8
 7087 3763 C3       		ret
 7088              		.cfi_endproc
 7089              	.LFE1178:
 7090              		.section	.gcc_except_table
 7091              		.align 4
 7092              	.LLSDA1178:
 7093 04bc FF       		.byte	0xff
 7094 04bd 03       		.byte	0x3
 7095 04be 61       		.uleb128 .LLSDATT1178-.LLSDATTD1178
 7096              	.LLSDATTD1178:
 7097 04bf 01       		.byte	0x1
 7098 04c0 58       		.uleb128 .LLSDACSE1178-.LLSDACSB1178
 7099              	.LLSDACSB1178:
 7100 04c1 45       		.uleb128 .LEHB167-.LFB1178
 7101 04c2 CB02     		.uleb128 .LEHE167-.LEHB167
 7102 04c4 F408     		.uleb128 .L323-.LFB1178
 7103 04c6 00       		.uleb128 0
 7104 04c7 9403     		.uleb128 .LEHB168-.LFB1178
 7105 04c9 4F       		.uleb128 .LEHE168-.LEHB168
 7106 04ca 9006     		.uleb128 .L324-.LFB1178
 7107 04cc 01       		.uleb128 0x1
 7108 04cd E303     		.uleb128 .LEHB169-.LFB1178
 7109 04cf 4F       		.uleb128 .LEHE169-.LEHB169
 7110 04d0 ED06     		.uleb128 .L326-.LFB1178
 7111 04d2 01       		.uleb128 0x1
 7112 04d3 B204     		.uleb128 .LEHB170-.LFB1178
 7113 04d5 4F       		.uleb128 .LEHE170-.LEHB170
 7114 04d6 CA07     		.uleb128 .L328-.LFB1178
 7115 04d8 01       		.uleb128 0x1
 7116 04d9 8105     		.uleb128 .LEHB171-.LFB1178
 7117 04db 5B       		.uleb128 .LEHE171-.LEHB171
 7118 04dc A408     		.uleb128 .L330-.LFB1178
 7119 04de 01       		.uleb128 0x1
 7120 04df E605     		.uleb128 .LEHB172-.LFB1178
 7121 04e1 05       		.uleb128 .LEHE172-.LEHB172
 7122 04e2 00       		.uleb128 0
 7123 04e3 00       		.uleb128 0
 7124 04e4 9806     		.uleb128 .LEHB173-.LFB1178
 7125 04e6 3E       		.uleb128 .LEHE173-.LEHB173
 7126 04e7 8306     		.uleb128 .L325-.LFB1178
 7127 04e9 00       		.uleb128 0
 7128 04ea D606     		.uleb128 .LEHB174-.LFB1178
 7129 04ec 05       		.uleb128 .LEHE174-.LEHB174
 7130 04ed F408     		.uleb128 .L323-.LFB1178
 7131 04ef 00       		.uleb128 0
 7132 04f0 F506     		.uleb128 .LEHB175-.LFB1178
 7133 04f2 3E       		.uleb128 .LEHE175-.LEHB175
 7134 04f3 E006     		.uleb128 .L327-.LFB1178
 7135 04f5 00       		.uleb128 0
 7136 04f6 B307     		.uleb128 .LEHB176-.LFB1178
 7137 04f8 05       		.uleb128 .LEHE176-.LEHB176
 7138 04f9 F408     		.uleb128 .L323-.LFB1178
 7139 04fb 00       		.uleb128 0
 7140 04fc D207     		.uleb128 .LEHB177-.LFB1178
 7141 04fe 3E       		.uleb128 .LEHE177-.LEHB177
 7142 04ff BD07     		.uleb128 .L329-.LFB1178
 7143 0501 00       		.uleb128 0
 7144 0502 9008     		.uleb128 .LEHB178-.LFB1178
 7145 0504 05       		.uleb128 .LEHE178-.LEHB178
 7146 0505 F408     		.uleb128 .L323-.LFB1178
 7147 0507 00       		.uleb128 0
 7148 0508 AC08     		.uleb128 .LEHB179-.LFB1178
 7149 050a 3E       		.uleb128 .LEHE179-.LEHB179
 7150 050b 9A08     		.uleb128 .L331-.LFB1178
 7151 050d 00       		.uleb128 0
 7152 050e EA08     		.uleb128 .LEHB180-.LFB1178
 7153 0510 05       		.uleb128 .LEHE180-.LEHB180
 7154 0511 F408     		.uleb128 .L323-.LFB1178
 7155 0513 00       		.uleb128 0
 7156 0514 8C09     		.uleb128 .LEHB181-.LFB1178
 7157 0516 05       		.uleb128 .LEHE181-.LEHB181
 7158 0517 00       		.uleb128 0
 7159 0518 00       		.uleb128 0
 7160              	.LLSDACSE1178:
 7161 0519 01       		.byte	0x1
 7162 051a 00       		.byte	0
 7163 051b 00       		.align 4
 7164 051c 00000000 		.long	0
 7165              	
 7166              	.LLSDATT1178:
 7167              		.text
 7169              		.section	.text._ZN8UnitTest15MemoryOutStreamD1Ev,"axG",@progbits,_ZN8UnitTest15MemoryOutStreamD1Ev
 7170              		.align 2
 7171              		.weak	_ZN8UnitTest15MemoryOutStreamD1Ev
 7173              	_ZN8UnitTest15MemoryOutStreamD1Ev:
 7174              	.LFB1209:
  13:../MemoryOutStream.h **** {
 7175              		.loc 2 13 0
 7176              		.cfi_startproc
 7177              		.cfi_personality 0x3,__gxx_personality_v0
 7178              		.cfi_lsda 0x3,.LLSDA1209
 7179 0000 55       		pushq	%rbp
 7180              		.cfi_def_cfa_offset 16
 7181              		.cfi_offset 6, -16
 7182 0001 4889E5   		movq	%rsp, %rbp
 7183              		.cfi_def_cfa_register 6
 7184 0004 53       		pushq	%rbx
 7185 0005 4883EC18 		subq	$24, %rsp
 7186              		.cfi_offset 3, -24
 7187 0009 48897DE8 		movq	%rdi, -24(%rbp)
 7188              	.LBB85:
  13:../MemoryOutStream.h **** {
 7189              		.loc 2 13 0
 7190 000d BA000000 		movl	$_ZTVN8UnitTest15MemoryOutStreamE+24, %edx
 7190      00
 7191 0012 488B45E8 		movq	-24(%rbp), %rax
 7192 0016 488910   		movq	%rdx, (%rax)
 7193 0019 BA600000 		movl	$96, %edx
 7193      00
 7194 001e 488B45E8 		movq	-24(%rbp), %rax
 7195 0022 4801D0   		addq	%rdx, %rax
 7196 0025 BA000000 		movl	$_ZTVN8UnitTest15MemoryOutStreamE+64, %edx
 7196      00
 7197 002a 488910   		movq	%rdx, (%rax)
 7198 002d 488B45E8 		movq	-24(%rbp), %rax
 7199 0031 4883C058 		addq	$88, %rax
 7200 0035 4889C7   		movq	%rax, %rdi
 7201              	.LEHB182:
 7202 0038 E8000000 		call	_ZNSsD1Ev
 7202      00
 7203              	.LEHE182:
  13:../MemoryOutStream.h **** {
 7204              		.loc 2 13 0 is_stmt 0 discriminator 14
 7205 003d BA000000 		movl	$_ZTTN8UnitTest15MemoryOutStreamE+8, %edx
 7205      00
 7206 0042 488B45E8 		movq	-24(%rbp), %rax
 7207 0046 4889D6   		movq	%rdx, %rsi
 7208 0049 4889C7   		movq	%rax, %rdi
 7209              	.LEHB183:
 7210 004c E8000000 		call	_ZNSt19basic_ostringstreamIcSt11char_traitsIcESaIcEED2Ev
 7210      00
 7211              	.LEHE183:
  13:../MemoryOutStream.h **** {
 7212              		.loc 2 13 0 discriminator 20
 7213 0051 B8020000 		movl	$2, %eax
 7213      00
 7214 0056 85C0     		testl	%eax, %eax
 7215 0058 7410     		je	.L335
  13:../MemoryOutStream.h **** {
 7216              		.loc 2 13 0 discriminator 21
 7217 005a 488B45E8 		movq	-24(%rbp), %rax
 7218 005e 4883C060 		addq	$96, %rax
 7219 0062 4889C7   		movq	%rax, %rdi
 7220              	.LEHB184:
 7221 0065 E8000000 		call	_ZNSt9basic_iosIcSt11char_traitsIcEED2Ev
 7221      00
 7222              	.LEHE184:
 7223              	.L335:
 7224              	.LBE85:
  13:../MemoryOutStream.h **** {
 7225              		.loc 2 13 0 discriminator 24
 7226 006a B8000000 		movl	$0, %eax
 7226      00
 7227 006f 85C0     		testl	%eax, %eax
 7228 0071 744E     		je	.L342
  13:../MemoryOutStream.h **** {
 7229              		.loc 2 13 0 discriminator 25
 7230 0073 488B45E8 		movq	-24(%rbp), %rax
 7231 0077 4889C7   		movq	%rax, %rdi
 7232 007a E8000000 		call	_ZdlPv
 7232      00
 7233 007f EB40     		jmp	.L342
 7234              	.L340:
 7235 0081 4889C3   		movq	%rax, %rbx
 7236              	.LBB86:
  13:../MemoryOutStream.h **** {
 7237              		.loc 2 13 0
 7238 0084 BA000000 		movl	$_ZTTN8UnitTest15MemoryOutStreamE+8, %edx
 7238      00
 7239 0089 488B45E8 		movq	-24(%rbp), %rax
 7240 008d 4889D6   		movq	%rdx, %rsi
 7241 0090 4889C7   		movq	%rax, %rdi
 7242 0093 E8000000 		call	_ZNSt19basic_ostringstreamIcSt11char_traitsIcESaIcEED2Ev
 7242      00
 7243 0098 EB03     		jmp	.L338
 7244              	.L341:
 7245 009a 4889C3   		movq	%rax, %rbx
 7246              	.L338:
  13:../MemoryOutStream.h **** {
 7247              		.loc 2 13 0 discriminator 19
 7248 009d B8020000 		movl	$2, %eax
 7248      00
 7249 00a2 85C0     		testl	%eax, %eax
 7250 00a4 7410     		je	.L339
  13:../MemoryOutStream.h **** {
 7251              		.loc 2 13 0 discriminator 32
 7252 00a6 488B45E8 		movq	-24(%rbp), %rax
 7253 00aa 4883C060 		addq	$96, %rax
 7254 00ae 4889C7   		movq	%rax, %rdi
 7255 00b1 E8000000 		call	_ZNSt9basic_iosIcSt11char_traitsIcEED2Ev
 7255      00
 7256              	.L339:
 7257 00b6 4889D8   		movq	%rbx, %rax
 7258 00b9 4889C7   		movq	%rax, %rdi
 7259              	.LEHB185:
 7260 00bc E8000000 		call	_Unwind_Resume
 7260      00
 7261              	.LEHE185:
 7262              	.L342:
 7263              	.LBE86:
  13:../MemoryOutStream.h **** {
 7264              		.loc 2 13 0
 7265 00c1 4883C418 		addq	$24, %rsp
 7266 00c5 5B       		popq	%rbx
 7267 00c6 5D       		popq	%rbp
 7268              		.cfi_def_cfa 7, 8
 7269 00c7 C3       		ret
 7270              		.cfi_endproc
 7271              	.LFE1209:
 7272              		.section	.gcc_except_table
 7273              	.LLSDA1209:
 7274 0520 FF       		.byte	0xff
 7275 0521 FF       		.byte	0xff
 7276 0522 01       		.byte	0x1
 7277 0523 13       		.uleb128 .LLSDACSE1209-.LLSDACSB1209
 7278              	.LLSDACSB1209:
 7279 0524 38       		.uleb128 .LEHB182-.LFB1209
 7280 0525 05       		.uleb128 .LEHE182-.LEHB182
 7281 0526 8101     		.uleb128 .L340-.LFB1209
 7282 0528 00       		.uleb128 0
 7283 0529 4C       		.uleb128 .LEHB183-.LFB1209
 7284 052a 05       		.uleb128 .LEHE183-.LEHB183
 7285 052b 9A01     		.uleb128 .L341-.LFB1209
 7286 052d 00       		.uleb128 0
 7287 052e 65       		.uleb128 .LEHB184-.LFB1209
 7288 052f 05       		.uleb128 .LEHE184-.LEHB184
 7289 0530 00       		.uleb128 0
 7290 0531 00       		.uleb128 0
 7291 0532 BC01     		.uleb128 .LEHB185-.LFB1209
 7292 0534 05       		.uleb128 .LEHE185-.LEHB185
 7293 0535 00       		.uleb128 0
 7294 0536 00       		.uleb128 0
 7295              	.LLSDACSE1209:
 7296              		.section	.text._ZN8UnitTest15MemoryOutStreamD1Ev,"axG",@progbits,_ZN8UnitTest15MemoryOutStreamD1Ev
 7298              		.set	.LTHUNK0,_ZN8UnitTest15MemoryOutStreamD1Ev
 7299              		.weak	_ZTv0_n24_N8UnitTest15MemoryOutStreamD1Ev
 7301              	_ZTv0_n24_N8UnitTest15MemoryOutStreamD1Ev:
 7302              	.LFB1386:
  13:../MemoryOutStream.h **** {
 7303              		.loc 2 13 0 is_stmt 1
 7304              		.cfi_startproc
 7305 00c8 4C8B17   		movq	(%rdi), %r10
 7306 00cb 49037AE8 		addq	-24(%r10), %rdi
 7307 00cf E92CFFFF 		jmp	.LTHUNK0
 7307      FF
 7308              		.cfi_endproc
 7309              	.LFE1386:
 7311              		.section	.text._ZN8UnitTest15MemoryOutStreamD0Ev,"axG",@progbits,_ZN8UnitTest15MemoryOutStreamD0Ev
 7312              		.align 2
 7313              		.weak	_ZN8UnitTest15MemoryOutStreamD0Ev
 7315              	_ZN8UnitTest15MemoryOutStreamD0Ev:
 7316              	.LFB1210:
  13:../MemoryOutStream.h **** {
 7317              		.loc 2 13 0
 7318              		.cfi_startproc
 7319 0000 55       		pushq	%rbp
 7320              		.cfi_def_cfa_offset 16
 7321              		.cfi_offset 6, -16
 7322 0001 4889E5   		movq	%rsp, %rbp
 7323              		.cfi_def_cfa_register 6
 7324 0004 4883EC10 		subq	$16, %rsp
 7325 0008 48897DF8 		movq	%rdi, -8(%rbp)
  13:../MemoryOutStream.h **** {
 7326              		.loc 2 13 0
 7327 000c 488B45F8 		movq	-8(%rbp), %rax
 7328 0010 4889C7   		movq	%rax, %rdi
 7329 0013 E8000000 		call	_ZN8UnitTest15MemoryOutStreamD1Ev
 7329      00
 7330 0018 488B45F8 		movq	-8(%rbp), %rax
 7331 001c 4889C7   		movq	%rax, %rdi
 7332 001f E8000000 		call	_ZdlPv
 7332      00
 7333 0024 C9       		leave
 7334              		.cfi_def_cfa 7, 8
 7335 0025 C3       		ret
 7336              		.cfi_endproc
 7337              	.LFE1210:
 7339              		.set	.LTHUNK1,_ZN8UnitTest15MemoryOutStreamD0Ev
 7340              		.weak	_ZTv0_n24_N8UnitTest15MemoryOutStreamD0Ev
 7342              	_ZTv0_n24_N8UnitTest15MemoryOutStreamD0Ev:
 7343              	.LFB1387:
  13:../MemoryOutStream.h **** {
 7344              		.loc 2 13 0
 7345              		.cfi_startproc
 7346 0026 4C8B17   		movq	(%rdi), %r10
 7347 0029 49037AE8 		addq	-24(%r10), %rdi
 7348 002d EBD1     		jmp	.LTHUNK1
 7349              		.cfi_endproc
 7350              	.LFE1387:
 7352              		.section	.rodata
 7353              	.LC96:
 7354 0baa 45787065 		.string	"Expected "
 7354      63746564 
 7354      2000
 7355              	.LC97:
 7356 0bb4 20627574 		.string	" but was "
 7356      20776173 
 7356      2000
 7357              		.section	.text._ZN8UnitTest10CheckEqualImmEEvRNS_11TestResultsERKT_RKT0_RKNS_11TestDetailsE,"axG",
 7358              		.weak	_ZN8UnitTest10CheckEqualImmEEvRNS_11TestResultsERKT_RKT0_RKNS_11TestDetailsE
 7360              	_ZN8UnitTest10CheckEqualImmEEvRNS_11TestResultsERKT_RKT0_RKNS_11TestDetailsE:
 7361              	.LFB1206:
 7362              		.file 6 "../Checks.h"
   1:../Checks.h   **** #ifndef UNITTEST_CHECKS_H
   2:../Checks.h   **** #define UNITTEST_CHECKS_H
   3:../Checks.h   **** 
   4:../Checks.h   **** #include "Config.h"
   5:../Checks.h   **** #include "TestResults.h"
   6:../Checks.h   **** #include "MemoryOutStream.h"
   7:../Checks.h   **** 
   8:../Checks.h   **** namespace UnitTest {
   9:../Checks.h   **** 
  10:../Checks.h   **** 
  11:../Checks.h   **** template< typename Value >
  12:../Checks.h   **** bool Check(Value const value)
  13:../Checks.h   **** {
  14:../Checks.h   ****     return !!value; // doing double negative to avoid silly VS warnings
  15:../Checks.h   **** }
  16:../Checks.h   **** 
  17:../Checks.h   **** 
  18:../Checks.h   **** template< typename Expected, typename Actual >
  19:../Checks.h   **** void CheckEqual(TestResults& results, Expected const& expected, Actual const& actual, TestDetails c
 7363              		.loc 6 19 0
 7364              		.cfi_startproc
 7365              		.cfi_personality 0x3,__gxx_personality_v0
 7366              		.cfi_lsda 0x3,.LLSDA1206
 7367 0000 55       		pushq	%rbp
 7368              		.cfi_def_cfa_offset 16
 7369              		.cfi_offset 6, -16
 7370 0001 4889E5   		movq	%rsp, %rbp
 7371              		.cfi_def_cfa_register 6
 7372 0004 4154     		pushq	%r12
 7373 0006 53       		pushq	%rbx
 7374 0007 4881EC90 		subq	$400, %rsp
 7374      010000
 7375              		.cfi_offset 12, -24
 7376              		.cfi_offset 3, -32
 7377 000e 4889BD78 		movq	%rdi, -392(%rbp)
 7377      FEFFFF
 7378 0015 4889B570 		movq	%rsi, -400(%rbp)
 7378      FEFFFF
 7379 001c 48899568 		movq	%rdx, -408(%rbp)
 7379      FEFFFF
 7380 0023 48898D60 		movq	%rcx, -416(%rbp)
 7380      FEFFFF
 7381              		.loc 6 19 0
 7382 002a 64488B04 		movq	%fs:40, %rax
 7382      25280000 
 7382      00
 7383 0033 488945E8 		movq	%rax, -24(%rbp)
 7384 0037 31C0     		xorl	%eax, %eax
 7385              	.LBB87:
 7386              	.LBB88:
  20:../Checks.h   **** {
  21:../Checks.h   ****     if (!(expected == actual))
 7387              		.loc 6 21 0
 7388 0039 488B8570 		movq	-400(%rbp), %rax
 7388      FEFFFF
 7389 0040 488B10   		movq	(%rax), %rdx
 7390 0043 488B8568 		movq	-408(%rbp), %rax
 7390      FEFFFF
 7391 004a 488B00   		movq	(%rax), %rax
 7392 004d 4839C2   		cmpq	%rax, %rdx
 7393 0050 0F849400 		je	.L346
 7393      0000
 7394              	.LBB89:
  22:../Checks.h   ****     {
  23:../Checks.h   ****         UnitTest::MemoryOutStream stream;
 7395              		.loc 6 23 0
 7396 0056 488D8580 		leaq	-384(%rbp), %rax
 7396      FEFFFF
 7397 005d 4889C7   		movq	%rax, %rdi
 7398              	.LEHB186:
 7399 0060 E8000000 		call	_ZN8UnitTest15MemoryOutStreamC1Ev
 7399      00
 7400              	.LEHE186:
  24:../Checks.h   ****         stream << "Expected " << expected << " but was " << actual;
 7401              		.loc 6 24 0
 7402 0065 488B8568 		movq	-408(%rbp), %rax
 7402      FEFFFF
 7403 006c 488B18   		movq	(%rax), %rbx
 7404 006f 488B8570 		movq	-400(%rbp), %rax
 7404      FEFFFF
 7405 0076 4C8B20   		movq	(%rax), %r12
 7406 0079 488D8580 		leaq	-384(%rbp), %rax
 7406      FEFFFF
 7407 0080 BE000000 		movl	$.LC96, %esi
 7407      00
 7408 0085 4889C7   		movq	%rax, %rdi
 7409              	.LEHB187:
 7410 0088 E8000000 		call	_ZStlsISt11char_traitsIcEERSt13basic_ostreamIcT_ES5_PKc
 7410      00
 7411 008d 4C89E6   		movq	%r12, %rsi
 7412 0090 4889C7   		movq	%rax, %rdi
 7413 0093 E8000000 		call	_ZNSolsEm
 7413      00
 7414              		.loc 6 24 0 is_stmt 0 discriminator 1
 7415 0098 BE000000 		movl	$.LC97, %esi
 7415      00
 7416 009d 4889C7   		movq	%rax, %rdi
 7417 00a0 E8000000 		call	_ZStlsISt11char_traitsIcEERSt13basic_ostreamIcT_ES5_PKc
 7417      00
 7418              		.loc 6 24 0 discriminator 2
 7419 00a5 4889DE   		movq	%rbx, %rsi
 7420 00a8 4889C7   		movq	%rax, %rdi
 7421 00ab E8000000 		call	_ZNSolsEm
 7421      00
  25:../Checks.h   **** 
  26:../Checks.h   ****         results.OnTestFailure(details, stream.GetText());
 7422              		.loc 6 26 0 is_stmt 1
 7423 00b0 488D8580 		leaq	-384(%rbp), %rax
 7423      FEFFFF
 7424 00b7 4889C7   		movq	%rax, %rdi
 7425 00ba E8000000 		call	_ZNK8UnitTest15MemoryOutStream7GetTextEv
 7425      00
 7426 00bf 4889C2   		movq	%rax, %rdx
 7427 00c2 488B8D60 		movq	-416(%rbp), %rcx
 7427      FEFFFF
 7428 00c9 488B8578 		movq	-392(%rbp), %rax
 7428      FEFFFF
 7429 00d0 4889CE   		movq	%rcx, %rsi
 7430 00d3 4889C7   		movq	%rax, %rdi
 7431 00d6 E8000000 		call	_ZN8UnitTest11TestResults13OnTestFailureERKNS_11TestDetailsEPKc
 7431      00
 7432              	.LEHE187:
 7433              		.loc 6 26 0 is_stmt 0 discriminator 4
 7434 00db 488D8580 		leaq	-384(%rbp), %rax
 7434      FEFFFF
 7435 00e2 4889C7   		movq	%rax, %rdi
 7436              	.LEHB188:
 7437 00e5 E8000000 		call	_ZN8UnitTest15MemoryOutStreamD1Ev
 7437      00
 7438              	.LEHE188:
 7439              	.L346:
 7440              	.LBE89:
 7441              	.LBE88:
 7442              	.LBE87:
  27:../Checks.h   ****     }
  28:../Checks.h   **** }
 7443              		.loc 6 28 0 is_stmt 1
 7444 00ea 488B45E8 		movq	-24(%rbp), %rax
 7445 00ee 64483304 		xorq	%fs:40, %rax
 7445      25280000 
 7445      00
 7446 00f7 7424     		je	.L348
 7447 00f9 EB1D     		jmp	.L350
 7448              	.L349:
 7449 00fb 4889C3   		movq	%rax, %rbx
 7450              	.LBB92:
 7451              	.LBB91:
 7452              	.LBB90:
  26:../Checks.h   ****     }
 7453              		.loc 6 26 0
 7454 00fe 488D8580 		leaq	-384(%rbp), %rax
 7454      FEFFFF
 7455 0105 4889C7   		movq	%rax, %rdi
 7456 0108 E8000000 		call	_ZN8UnitTest15MemoryOutStreamD1Ev
 7456      00
 7457 010d 4889D8   		movq	%rbx, %rax
 7458 0110 4889C7   		movq	%rax, %rdi
 7459              	.LEHB189:
 7460 0113 E8000000 		call	_Unwind_Resume
 7460      00
 7461              	.LEHE189:
 7462              	.L350:
 7463              	.LBE90:
 7464              	.LBE91:
 7465              	.LBE92:
 7466              		.loc 6 28 0
 7467 0118 E8000000 		call	__stack_chk_fail
 7467      00
 7468              	.L348:
 7469 011d 4881C490 		addq	$400, %rsp
 7469      010000
 7470 0124 5B       		popq	%rbx
 7471 0125 415C     		popq	%r12
 7472 0127 5D       		popq	%rbp
 7473              		.cfi_def_cfa 7, 8
 7474 0128 C3       		ret
 7475              		.cfi_endproc
 7476              	.LFE1206:
 7477              		.section	.gcc_except_table
 7478              	.LLSDA1206:
 7479 0537 FF       		.byte	0xff
 7480 0538 FF       		.byte	0xff
 7481 0539 01       		.byte	0x1
 7482 053a 14       		.uleb128 .LLSDACSE1206-.LLSDACSB1206
 7483              	.LLSDACSB1206:
 7484 053b 60       		.uleb128 .LEHB186-.LFB1206
 7485 053c 05       		.uleb128 .LEHE186-.LEHB186
 7486 053d 00       		.uleb128 0
 7487 053e 00       		.uleb128 0
 7488 053f 8801     		.uleb128 .LEHB187-.LFB1206
 7489 0541 53       		.uleb128 .LEHE187-.LEHB187
 7490 0542 FB01     		.uleb128 .L349-.LFB1206
 7491 0544 00       		.uleb128 0
 7492 0545 E501     		.uleb128 .LEHB188-.LFB1206
 7493 0547 05       		.uleb128 .LEHE188-.LEHB188
 7494 0548 00       		.uleb128 0
 7495 0549 00       		.uleb128 0
 7496 054a 9302     		.uleb128 .LEHB189-.LFB1206
 7497 054c 05       		.uleb128 .LEHE189-.LEHB189
 7498 054d 00       		.uleb128 0
 7499 054e 00       		.uleb128 0
 7500              	.LLSDACSE1206:
 7501              		.section	.text._ZN8UnitTest10CheckEqualImmEEvRNS_11TestResultsERKT_RKT0_RKNS_11TestDetailsE,"axG",
 7503              		.section	.text._ZN8UnitTest10CheckEqualIiiEEvRNS_11TestResultsERKT_RKT0_RKNS_11TestDetailsE,"axG",
 7504              		.weak	_ZN8UnitTest10CheckEqualIiiEEvRNS_11TestResultsERKT_RKT0_RKNS_11TestDetailsE
 7506              	_ZN8UnitTest10CheckEqualIiiEEvRNS_11TestResultsERKT_RKT0_RKNS_11TestDetailsE:
 7507              	.LFB1211:
  19:../Checks.h   **** {
 7508              		.loc 6 19 0
 7509              		.cfi_startproc
 7510              		.cfi_personality 0x3,__gxx_personality_v0
 7511              		.cfi_lsda 0x3,.LLSDA1211
 7512 0000 55       		pushq	%rbp
 7513              		.cfi_def_cfa_offset 16
 7514              		.cfi_offset 6, -16
 7515 0001 4889E5   		movq	%rsp, %rbp
 7516              		.cfi_def_cfa_register 6
 7517 0004 4154     		pushq	%r12
 7518 0006 53       		pushq	%rbx
 7519 0007 4881EC90 		subq	$400, %rsp
 7519      010000
 7520              		.cfi_offset 12, -24
 7521              		.cfi_offset 3, -32
 7522 000e 4889BD78 		movq	%rdi, -392(%rbp)
 7522      FEFFFF
 7523 0015 4889B570 		movq	%rsi, -400(%rbp)
 7523      FEFFFF
 7524 001c 48899568 		movq	%rdx, -408(%rbp)
 7524      FEFFFF
 7525 0023 48898D60 		movq	%rcx, -416(%rbp)
 7525      FEFFFF
  19:../Checks.h   **** {
 7526              		.loc 6 19 0
 7527 002a 64488B04 		movq	%fs:40, %rax
 7527      25280000 
 7527      00
 7528 0033 488945E8 		movq	%rax, -24(%rbp)
 7529 0037 31C0     		xorl	%eax, %eax
 7530              	.LBB93:
 7531              	.LBB94:
  21:../Checks.h   ****     {
 7532              		.loc 6 21 0
 7533 0039 488B8570 		movq	-400(%rbp), %rax
 7533      FEFFFF
 7534 0040 8B10     		movl	(%rax), %edx
 7535 0042 488B8568 		movq	-408(%rbp), %rax
 7535      FEFFFF
 7536 0049 8B00     		movl	(%rax), %eax
 7537 004b 39C2     		cmpl	%eax, %edx
 7538 004d 0F849200 		je	.L352
 7538      0000
 7539              	.LBB95:
  23:../Checks.h   ****         stream << "Expected " << expected << " but was " << actual;
 7540              		.loc 6 23 0
 7541 0053 488D8580 		leaq	-384(%rbp), %rax
 7541      FEFFFF
 7542 005a 4889C7   		movq	%rax, %rdi
 7543              	.LEHB190:
 7544 005d E8000000 		call	_ZN8UnitTest15MemoryOutStreamC1Ev
 7544      00
 7545              	.LEHE190:
  24:../Checks.h   **** 
 7546              		.loc 6 24 0
 7547 0062 488B8568 		movq	-408(%rbp), %rax
 7547      FEFFFF
 7548 0069 8B18     		movl	(%rax), %ebx
 7549 006b 488B8570 		movq	-400(%rbp), %rax
 7549      FEFFFF
 7550 0072 448B20   		movl	(%rax), %r12d
 7551 0075 488D8580 		leaq	-384(%rbp), %rax
 7551      FEFFFF
 7552 007c BE000000 		movl	$.LC96, %esi
 7552      00
 7553 0081 4889C7   		movq	%rax, %rdi
 7554              	.LEHB191:
 7555 0084 E8000000 		call	_ZStlsISt11char_traitsIcEERSt13basic_ostreamIcT_ES5_PKc
 7555      00
 7556 0089 4489E6   		movl	%r12d, %esi
 7557 008c 4889C7   		movq	%rax, %rdi
 7558 008f E8000000 		call	_ZNSolsEi
 7558      00
  24:../Checks.h   **** 
 7559              		.loc 6 24 0 is_stmt 0 discriminator 1
 7560 0094 BE000000 		movl	$.LC97, %esi
 7560      00
 7561 0099 4889C7   		movq	%rax, %rdi
 7562 009c E8000000 		call	_ZStlsISt11char_traitsIcEERSt13basic_ostreamIcT_ES5_PKc
 7562      00
  24:../Checks.h   **** 
 7563              		.loc 6 24 0 discriminator 2
 7564 00a1 89DE     		movl	%ebx, %esi
 7565 00a3 4889C7   		movq	%rax, %rdi
 7566 00a6 E8000000 		call	_ZNSolsEi
 7566      00
  26:../Checks.h   ****     }
 7567              		.loc 6 26 0 is_stmt 1
 7568 00ab 488D8580 		leaq	-384(%rbp), %rax
 7568      FEFFFF
 7569 00b2 4889C7   		movq	%rax, %rdi
 7570 00b5 E8000000 		call	_ZNK8UnitTest15MemoryOutStream7GetTextEv
 7570      00
 7571 00ba 4889C2   		movq	%rax, %rdx
 7572 00bd 488B8D60 		movq	-416(%rbp), %rcx
 7572      FEFFFF
 7573 00c4 488B8578 		movq	-392(%rbp), %rax
 7573      FEFFFF
 7574 00cb 4889CE   		movq	%rcx, %rsi
 7575 00ce 4889C7   		movq	%rax, %rdi
 7576 00d1 E8000000 		call	_ZN8UnitTest11TestResults13OnTestFailureERKNS_11TestDetailsEPKc
 7576      00
 7577              	.LEHE191:
  26:../Checks.h   ****     }
 7578              		.loc 6 26 0 is_stmt 0 discriminator 4
 7579 00d6 488D8580 		leaq	-384(%rbp), %rax
 7579      FEFFFF
 7580 00dd 4889C7   		movq	%rax, %rdi
 7581              	.LEHB192:
 7582 00e0 E8000000 		call	_ZN8UnitTest15MemoryOutStreamD1Ev
 7582      00
 7583              	.LEHE192:
 7584              	.L352:
 7585              	.LBE95:
 7586              	.LBE94:
 7587              	.LBE93:
 7588              		.loc 6 28 0 is_stmt 1
 7589 00e5 488B45E8 		movq	-24(%rbp), %rax
 7590 00e9 64483304 		xorq	%fs:40, %rax
 7590      25280000 
 7590      00
 7591 00f2 7424     		je	.L354
 7592 00f4 EB1D     		jmp	.L356
 7593              	.L355:
 7594 00f6 4889C3   		movq	%rax, %rbx
 7595              	.LBB98:
 7596              	.LBB97:
 7597              	.LBB96:
  26:../Checks.h   ****     }
 7598              		.loc 6 26 0
 7599 00f9 488D8580 		leaq	-384(%rbp), %rax
 7599      FEFFFF
 7600 0100 4889C7   		movq	%rax, %rdi
 7601 0103 E8000000 		call	_ZN8UnitTest15MemoryOutStreamD1Ev
 7601      00
 7602 0108 4889D8   		movq	%rbx, %rax
 7603 010b 4889C7   		movq	%rax, %rdi
 7604              	.LEHB193:
 7605 010e E8000000 		call	_Unwind_Resume
 7605      00
 7606              	.LEHE193:
 7607              	.L356:
 7608              	.LBE96:
 7609              	.LBE97:
 7610              	.LBE98:
 7611              		.loc 6 28 0
 7612 0113 E8000000 		call	__stack_chk_fail
 7612      00
 7613              	.L354:
 7614 0118 4881C490 		addq	$400, %rsp
 7614      010000
 7615 011f 5B       		popq	%rbx
 7616 0120 415C     		popq	%r12
 7617 0122 5D       		popq	%rbp
 7618              		.cfi_def_cfa 7, 8
 7619 0123 C3       		ret
 7620              		.cfi_endproc
 7621              	.LFE1211:
 7622              		.section	.gcc_except_table
 7623              	.LLSDA1211:
 7624 054f FF       		.byte	0xff
 7625 0550 FF       		.byte	0xff
 7626 0551 01       		.byte	0x1
 7627 0552 14       		.uleb128 .LLSDACSE1211-.LLSDACSB1211
 7628              	.LLSDACSB1211:
 7629 0553 5D       		.uleb128 .LEHB190-.LFB1211
 7630 0554 05       		.uleb128 .LEHE190-.LEHB190
 7631 0555 00       		.uleb128 0
 7632 0556 00       		.uleb128 0
 7633 0557 8401     		.uleb128 .LEHB191-.LFB1211
 7634 0559 52       		.uleb128 .LEHE191-.LEHB191
 7635 055a F601     		.uleb128 .L355-.LFB1211
 7636 055c 00       		.uleb128 0
 7637 055d E001     		.uleb128 .LEHB192-.LFB1211
 7638 055f 05       		.uleb128 .LEHE192-.LEHB192
 7639 0560 00       		.uleb128 0
 7640 0561 00       		.uleb128 0
 7641 0562 8E02     		.uleb128 .LEHB193-.LFB1211
 7642 0564 05       		.uleb128 .LEHE193-.LEHB193
 7643 0565 00       		.uleb128 0
 7644 0566 00       		.uleb128 0
 7645              	.LLSDACSE1211:
 7646              		.section	.text._ZN8UnitTest10CheckEqualIiiEEvRNS_11TestResultsERKT_RKT0_RKNS_11TestDetailsE,"axG",
 7648              		.section	.text._ZN8UnitTest5CheckIPcEEbT_,"axG",@progbits,_ZN8UnitTest5CheckIPcEEbT_,comdat
 7649              		.weak	_ZN8UnitTest5CheckIPcEEbT_
 7651              	_ZN8UnitTest5CheckIPcEEbT_:
 7652              	.LFB1212:
  12:../Checks.h   **** {
 7653              		.loc 6 12 0
 7654              		.cfi_startproc
 7655 0000 55       		pushq	%rbp
 7656              		.cfi_def_cfa_offset 16
 7657              		.cfi_offset 6, -16
 7658 0001 4889E5   		movq	%rsp, %rbp
 7659              		.cfi_def_cfa_register 6
 7660 0004 48897DF8 		movq	%rdi, -8(%rbp)
  14:../Checks.h   **** }
 7661              		.loc 6 14 0
 7662 0008 48837DF8 		cmpq	$0, -8(%rbp)
 7662      00
 7663 000d 0F95C0   		setne	%al
  15:../Checks.h   **** 
 7664              		.loc 6 15 0
 7665 0010 5D       		popq	%rbp
 7666              		.cfi_def_cfa 7, 8
 7667 0011 C3       		ret
 7668              		.cfi_endproc
 7669              	.LFE1212:
 7671              		.section	.rodata
 7672              	.LC98:
 7673 0bbe 202B2F2D 		.string	" +/- "
 7673      2000
 7674              		.section	.text._ZN8UnitTest10CheckCloseIfffEEvRNS_11TestResultsERKT_RKT0_RKT1_RKNS_11TestDetailsE,
 7675              		.weak	_ZN8UnitTest10CheckCloseIfffEEvRNS_11TestResultsERKT_RKT0_RKT1_RKNS_11TestDetailsE
 7677              	_ZN8UnitTest10CheckCloseIfffEEvRNS_11TestResultsERKT_RKT0_RKT1_RKNS_11TestDetailsE:
 7678              	.LFB1213:
  29:../Checks.h   **** 
  30:../Checks.h   **** void CheckEqual(TestResults& results, char const* expected, char const* actual, TestDetails const& 
  31:../Checks.h   **** 
  32:../Checks.h   **** void CheckEqual(TestResults& results, char* expected, char* actual, TestDetails const& details);
  33:../Checks.h   **** 
  34:../Checks.h   **** void CheckEqual(TestResults& results, char* expected, char const* actual, TestDetails const& detail
  35:../Checks.h   **** 
  36:../Checks.h   **** void CheckEqual(TestResults& results, char const* expected, char* actual, TestDetails const& detail
  37:../Checks.h   **** 
  38:../Checks.h   **** template< typename Expected, typename Actual, typename Tolerance >
  39:../Checks.h   **** bool AreClose(Expected const& expected, Actual const& actual, Tolerance const& tolerance)
  40:../Checks.h   **** {
  41:../Checks.h   ****     return (actual >= (expected - tolerance)) && (actual <= (expected + tolerance));
  42:../Checks.h   **** }
  43:../Checks.h   **** 
  44:../Checks.h   **** template< typename Expected, typename Actual, typename Tolerance >
  45:../Checks.h   **** void CheckClose(TestResults& results, Expected const& expected, Actual const& actual, Tolerance con
 7679              		.loc 6 45 0
 7680              		.cfi_startproc
 7681              		.cfi_personality 0x3,__gxx_personality_v0
 7682              		.cfi_lsda 0x3,.LLSDA1213
 7683 0000 55       		pushq	%rbp
 7684              		.cfi_def_cfa_offset 16
 7685              		.cfi_offset 6, -16
 7686 0001 4889E5   		movq	%rsp, %rbp
 7687              		.cfi_def_cfa_register 6
 7688 0004 4155     		pushq	%r13
 7689 0006 4154     		pushq	%r12
 7690 0008 53       		pushq	%rbx
 7691 0009 4881ECA8 		subq	$424, %rsp
 7691      010000
 7692              		.cfi_offset 13, -24
 7693              		.cfi_offset 12, -32
 7694              		.cfi_offset 3, -40
 7695 0010 4889BD68 		movq	%rdi, -408(%rbp)
 7695      FEFFFF
 7696 0017 4889B560 		movq	%rsi, -416(%rbp)
 7696      FEFFFF
 7697 001e 48899558 		movq	%rdx, -424(%rbp)
 7697      FEFFFF
 7698 0025 48898D50 		movq	%rcx, -432(%rbp)
 7698      FEFFFF
 7699 002c 4C898548 		movq	%r8, -440(%rbp)
 7699      FEFFFF
 7700              		.loc 6 45 0
 7701 0033 64488B04 		movq	%fs:40, %rax
 7701      25280000 
 7701      00
 7702 003c 488945D8 		movq	%rax, -40(%rbp)
 7703 0040 31C0     		xorl	%eax, %eax
 7704              	.LBB99:
 7705              	.LBB100:
  46:../Checks.h   ****                 TestDetails const& details)
  47:../Checks.h   **** {
  48:../Checks.h   ****     if (!AreClose(expected, actual, tolerance))
 7706              		.loc 6 48 0
 7707 0042 488B9550 		movq	-432(%rbp), %rdx
 7707      FEFFFF
 7708 0049 488B8D58 		movq	-424(%rbp), %rcx
 7708      FEFFFF
 7709 0050 488B8560 		movq	-416(%rbp), %rax
 7709      FEFFFF
 7710 0057 4889CE   		movq	%rcx, %rsi
 7711 005a 4889C7   		movq	%rax, %rdi
 7712 005d E8000000 		call	_ZN8UnitTest8AreCloseIfffEEbRKT_RKT0_RKT1_
 7712      00
 7713 0062 83F001   		xorl	$1, %eax
 7714 0065 84C0     		testb	%al, %al
 7715 0067 0F84D800 		je	.L360
 7715      0000
 7716              	.LBB101:
  49:../Checks.h   ****     { 
  50:../Checks.h   ****         UnitTest::MemoryOutStream stream;
 7717              		.loc 6 50 0
 7718 006d 488D8570 		leaq	-400(%rbp), %rax
 7718      FEFFFF
 7719 0074 4889C7   		movq	%rax, %rdi
 7720              	.LEHB194:
 7721 0077 E8000000 		call	_ZN8UnitTest15MemoryOutStreamC1Ev
 7721      00
 7722              	.LEHE194:
  51:../Checks.h   ****         stream << "Expected " << expected << " +/- " << tolerance << " but was " << actual;
 7723              		.loc 6 51 0
 7724 007c 488B8558 		movq	-424(%rbp), %rax
 7724      FEFFFF
 7725 0083 8B18     		movl	(%rax), %ebx
 7726 0085 488B8550 		movq	-432(%rbp), %rax
 7726      FEFFFF
 7727 008c 448B20   		movl	(%rax), %r12d
 7728 008f 488B8560 		movq	-416(%rbp), %rax
 7728      FEFFFF
 7729 0096 448B28   		movl	(%rax), %r13d
 7730 0099 488D8570 		leaq	-400(%rbp), %rax
 7730      FEFFFF
 7731 00a0 BE000000 		movl	$.LC96, %esi
 7731      00
 7732 00a5 4889C7   		movq	%rax, %rdi
 7733              	.LEHB195:
 7734 00a8 E8000000 		call	_ZStlsISt11char_traitsIcEERSt13basic_ostreamIcT_ES5_PKc
 7734      00
 7735 00ad 4489AD44 		movl	%r13d, -444(%rbp)
 7735      FEFFFF
 7736 00b4 F30F1085 		movss	-444(%rbp), %xmm0
 7736      44FEFFFF 
 7737 00bc 4889C7   		movq	%rax, %rdi
 7738 00bf E8000000 		call	_ZNSolsEf
 7738      00
 7739              		.loc 6 51 0 is_stmt 0 discriminator 1
 7740 00c4 BE000000 		movl	$.LC98, %esi
 7740      00
 7741 00c9 4889C7   		movq	%rax, %rdi
 7742 00cc E8000000 		call	_ZStlsISt11char_traitsIcEERSt13basic_ostreamIcT_ES5_PKc
 7742      00
 7743              		.loc 6 51 0 discriminator 2
 7744 00d1 4489A544 		movl	%r12d, -444(%rbp)
 7744      FEFFFF
 7745 00d8 F30F1085 		movss	-444(%rbp), %xmm0
 7745      44FEFFFF 
 7746 00e0 4889C7   		movq	%rax, %rdi
 7747 00e3 E8000000 		call	_ZNSolsEf
 7747      00
 7748              		.loc 6 51 0 discriminator 3
 7749 00e8 BE000000 		movl	$.LC97, %esi
 7749      00
 7750 00ed 4889C7   		movq	%rax, %rdi
 7751 00f0 E8000000 		call	_ZStlsISt11char_traitsIcEERSt13basic_ostreamIcT_ES5_PKc
 7751      00
 7752              		.loc 6 51 0 discriminator 4
 7753 00f5 899D44FE 		movl	%ebx, -444(%rbp)
 7753      FFFF
 7754 00fb F30F1085 		movss	-444(%rbp), %xmm0
 7754      44FEFFFF 
 7755 0103 4889C7   		movq	%rax, %rdi
 7756 0106 E8000000 		call	_ZNSolsEf
 7756      00
  52:../Checks.h   **** 
  53:../Checks.h   ****         results.OnTestFailure(details, stream.GetText());
 7757              		.loc 6 53 0 is_stmt 1
 7758 010b 488D8570 		leaq	-400(%rbp), %rax
 7758      FEFFFF
 7759 0112 4889C7   		movq	%rax, %rdi
 7760 0115 E8000000 		call	_ZNK8UnitTest15MemoryOutStream7GetTextEv
 7760      00
 7761 011a 4889C2   		movq	%rax, %rdx
 7762 011d 488B8D48 		movq	-440(%rbp), %rcx
 7762      FEFFFF
 7763 0124 488B8568 		movq	-408(%rbp), %rax
 7763      FEFFFF
 7764 012b 4889CE   		movq	%rcx, %rsi
 7765 012e 4889C7   		movq	%rax, %rdi
 7766 0131 E8000000 		call	_ZN8UnitTest11TestResults13OnTestFailureERKNS_11TestDetailsEPKc
 7766      00
 7767              	.LEHE195:
 7768              		.loc 6 53 0 is_stmt 0 discriminator 4
 7769 0136 488D8570 		leaq	-400(%rbp), %rax
 7769      FEFFFF
 7770 013d 4889C7   		movq	%rax, %rdi
 7771              	.LEHB196:
 7772 0140 E8000000 		call	_ZN8UnitTest15MemoryOutStreamD1Ev
 7772      00
 7773              	.LEHE196:
 7774              	.L360:
 7775              	.LBE101:
 7776              	.LBE100:
 7777              	.LBE99:
  54:../Checks.h   ****     }
  55:../Checks.h   **** }
 7778              		.loc 6 55 0 is_stmt 1
 7779 0145 488B45D8 		movq	-40(%rbp), %rax
 7780 0149 64483304 		xorq	%fs:40, %rax
 7780      25280000 
 7780      00
 7781 0152 7424     		je	.L362
 7782 0154 EB1D     		jmp	.L364
 7783              	.L363:
 7784 0156 4889C3   		movq	%rax, %rbx
 7785              	.LBB104:
 7786              	.LBB103:
 7787              	.LBB102:
  53:../Checks.h   ****     }
 7788              		.loc 6 53 0
 7789 0159 488D8570 		leaq	-400(%rbp), %rax
 7789      FEFFFF
 7790 0160 4889C7   		movq	%rax, %rdi
 7791 0163 E8000000 		call	_ZN8UnitTest15MemoryOutStreamD1Ev
 7791      00
 7792 0168 4889D8   		movq	%rbx, %rax
 7793 016b 4889C7   		movq	%rax, %rdi
 7794              	.LEHB197:
 7795 016e E8000000 		call	_Unwind_Resume
 7795      00
 7796              	.LEHE197:
 7797              	.L364:
 7798              	.LBE102:
 7799              	.LBE103:
 7800              	.LBE104:
 7801              		.loc 6 55 0
 7802 0173 E8000000 		call	__stack_chk_fail
 7802      00
 7803              	.L362:
 7804 0178 4881C4A8 		addq	$424, %rsp
 7804      010000
 7805 017f 5B       		popq	%rbx
 7806 0180 415C     		popq	%r12
 7807 0182 415D     		popq	%r13
 7808 0184 5D       		popq	%rbp
 7809              		.cfi_def_cfa 7, 8
 7810 0185 C3       		ret
 7811              		.cfi_endproc
 7812              	.LFE1213:
 7813              		.section	.gcc_except_table
 7814              	.LLSDA1213:
 7815 0567 FF       		.byte	0xff
 7816 0568 FF       		.byte	0xff
 7817 0569 01       		.byte	0x1
 7818 056a 15       		.uleb128 .LLSDACSE1213-.LLSDACSB1213
 7819              	.LLSDACSB1213:
 7820 056b 77       		.uleb128 .LEHB194-.LFB1213
 7821 056c 05       		.uleb128 .LEHE194-.LEHB194
 7822 056d 00       		.uleb128 0
 7823 056e 00       		.uleb128 0
 7824 056f A801     		.uleb128 .LEHB195-.LFB1213
 7825 0571 8E01     		.uleb128 .LEHE195-.LEHB195
 7826 0573 D602     		.uleb128 .L363-.LFB1213
 7827 0575 00       		.uleb128 0
 7828 0576 C002     		.uleb128 .LEHB196-.LFB1213
 7829 0578 05       		.uleb128 .LEHE196-.LEHB196
 7830 0579 00       		.uleb128 0
 7831 057a 00       		.uleb128 0
 7832 057b EE02     		.uleb128 .LEHB197-.LFB1213
 7833 057d 05       		.uleb128 .LEHE197-.LEHB197
 7834 057e 00       		.uleb128 0
 7835 057f 00       		.uleb128 0
 7836              	.LLSDACSE1213:
 7837              		.section	.text._ZN8UnitTest10CheckCloseIfffEEvRNS_11TestResultsERKT_RKT0_RKT1_RKNS_11TestDetailsE,
 7839              		.section	.text._ZN8UnitTest10CheckCloseIffiEEvRNS_11TestResultsERKT_RKT0_RKT1_RKNS_11TestDetailsE,
 7840              		.weak	_ZN8UnitTest10CheckCloseIffiEEvRNS_11TestResultsERKT_RKT0_RKT1_RKNS_11TestDetailsE
 7842              	_ZN8UnitTest10CheckCloseIffiEEvRNS_11TestResultsERKT_RKT0_RKT1_RKNS_11TestDetailsE:
 7843              	.LFB1214:
  45:../Checks.h   ****                 TestDetails const& details)
 7844              		.loc 6 45 0
 7845              		.cfi_startproc
 7846              		.cfi_personality 0x3,__gxx_personality_v0
 7847              		.cfi_lsda 0x3,.LLSDA1214
 7848 0000 55       		pushq	%rbp
 7849              		.cfi_def_cfa_offset 16
 7850              		.cfi_offset 6, -16
 7851 0001 4889E5   		movq	%rsp, %rbp
 7852              		.cfi_def_cfa_register 6
 7853 0004 4155     		pushq	%r13
 7854 0006 4154     		pushq	%r12
 7855 0008 53       		pushq	%rbx
 7856 0009 4881ECA8 		subq	$424, %rsp
 7856      010000
 7857              		.cfi_offset 13, -24
 7858              		.cfi_offset 12, -32
 7859              		.cfi_offset 3, -40
 7860 0010 4889BD68 		movq	%rdi, -408(%rbp)
 7860      FEFFFF
 7861 0017 4889B560 		movq	%rsi, -416(%rbp)
 7861      FEFFFF
 7862 001e 48899558 		movq	%rdx, -424(%rbp)
 7862      FEFFFF
 7863 0025 48898D50 		movq	%rcx, -432(%rbp)
 7863      FEFFFF
 7864 002c 4C898548 		movq	%r8, -440(%rbp)
 7864      FEFFFF
  45:../Checks.h   ****                 TestDetails const& details)
 7865              		.loc 6 45 0
 7866 0033 64488B04 		movq	%fs:40, %rax
 7866      25280000 
 7866      00
 7867 003c 488945D8 		movq	%rax, -40(%rbp)
 7868 0040 31C0     		xorl	%eax, %eax
 7869              	.LBB105:
 7870              	.LBB106:
  48:../Checks.h   ****     { 
 7871              		.loc 6 48 0
 7872 0042 488B9550 		movq	-432(%rbp), %rdx
 7872      FEFFFF
 7873 0049 488B8D58 		movq	-424(%rbp), %rcx
 7873      FEFFFF
 7874 0050 488B8560 		movq	-416(%rbp), %rax
 7874      FEFFFF
 7875 0057 4889CE   		movq	%rcx, %rsi
 7876 005a 4889C7   		movq	%rax, %rdi
 7877 005d E8000000 		call	_ZN8UnitTest8AreCloseIffiEEbRKT_RKT0_RKT1_
 7877      00
 7878 0062 83F001   		xorl	$1, %eax
 7879 0065 84C0     		testb	%al, %al
 7880 0067 0F84CC00 		je	.L366
 7880      0000
 7881              	.LBB107:
  50:../Checks.h   ****         stream << "Expected " << expected << " +/- " << tolerance << " but was " << actual;
 7882              		.loc 6 50 0
 7883 006d 488D8570 		leaq	-400(%rbp), %rax
 7883      FEFFFF
 7884 0074 4889C7   		movq	%rax, %rdi
 7885              	.LEHB198:
 7886 0077 E8000000 		call	_ZN8UnitTest15MemoryOutStreamC1Ev
 7886      00
 7887              	.LEHE198:
  51:../Checks.h   **** 
 7888              		.loc 6 51 0
 7889 007c 488B8558 		movq	-424(%rbp), %rax
 7889      FEFFFF
 7890 0083 8B18     		movl	(%rax), %ebx
 7891 0085 488B8550 		movq	-432(%rbp), %rax
 7891      FEFFFF
 7892 008c 448B20   		movl	(%rax), %r12d
 7893 008f 488B8560 		movq	-416(%rbp), %rax
 7893      FEFFFF
 7894 0096 448B28   		movl	(%rax), %r13d
 7895 0099 488D8570 		leaq	-400(%rbp), %rax
 7895      FEFFFF
 7896 00a0 BE000000 		movl	$.LC96, %esi
 7896      00
 7897 00a5 4889C7   		movq	%rax, %rdi
 7898              	.LEHB199:
 7899 00a8 E8000000 		call	_ZStlsISt11char_traitsIcEERSt13basic_ostreamIcT_ES5_PKc
 7899      00
 7900 00ad 4489AD44 		movl	%r13d, -444(%rbp)
 7900      FEFFFF
 7901 00b4 F30F1085 		movss	-444(%rbp), %xmm0
 7901      44FEFFFF 
 7902 00bc 4889C7   		movq	%rax, %rdi
 7903 00bf E8000000 		call	_ZNSolsEf
 7903      00
  51:../Checks.h   **** 
 7904              		.loc 6 51 0 is_stmt 0 discriminator 1
 7905 00c4 BE000000 		movl	$.LC98, %esi
 7905      00
 7906 00c9 4889C7   		movq	%rax, %rdi
 7907 00cc E8000000 		call	_ZStlsISt11char_traitsIcEERSt13basic_ostreamIcT_ES5_PKc
 7907      00
  51:../Checks.h   **** 
 7908              		.loc 6 51 0 discriminator 2
 7909 00d1 4489E6   		movl	%r12d, %esi
 7910 00d4 4889C7   		movq	%rax, %rdi
 7911 00d7 E8000000 		call	_ZNSolsEi
 7911      00
  51:../Checks.h   **** 
 7912              		.loc 6 51 0 discriminator 3
 7913 00dc BE000000 		movl	$.LC97, %esi
 7913      00
 7914 00e1 4889C7   		movq	%rax, %rdi
 7915 00e4 E8000000 		call	_ZStlsISt11char_traitsIcEERSt13basic_ostreamIcT_ES5_PKc
 7915      00
  51:../Checks.h   **** 
 7916              		.loc 6 51 0 discriminator 4
 7917 00e9 899D44FE 		movl	%ebx, -444(%rbp)
 7917      FFFF
 7918 00ef F30F1085 		movss	-444(%rbp), %xmm0
 7918      44FEFFFF 
 7919 00f7 4889C7   		movq	%rax, %rdi
 7920 00fa E8000000 		call	_ZNSolsEf
 7920      00
  53:../Checks.h   ****     }
 7921              		.loc 6 53 0 is_stmt 1
 7922 00ff 488D8570 		leaq	-400(%rbp), %rax
 7922      FEFFFF
 7923 0106 4889C7   		movq	%rax, %rdi
 7924 0109 E8000000 		call	_ZNK8UnitTest15MemoryOutStream7GetTextEv
 7924      00
 7925 010e 4889C2   		movq	%rax, %rdx
 7926 0111 488B8D48 		movq	-440(%rbp), %rcx
 7926      FEFFFF
 7927 0118 488B8568 		movq	-408(%rbp), %rax
 7927      FEFFFF
 7928 011f 4889CE   		movq	%rcx, %rsi
 7929 0122 4889C7   		movq	%rax, %rdi
 7930 0125 E8000000 		call	_ZN8UnitTest11TestResults13OnTestFailureERKNS_11TestDetailsEPKc
 7930      00
 7931              	.LEHE199:
  53:../Checks.h   ****     }
 7932              		.loc 6 53 0 is_stmt 0 discriminator 4
 7933 012a 488D8570 		leaq	-400(%rbp), %rax
 7933      FEFFFF
 7934 0131 4889C7   		movq	%rax, %rdi
 7935              	.LEHB200:
 7936 0134 E8000000 		call	_ZN8UnitTest15MemoryOutStreamD1Ev
 7936      00
 7937              	.LEHE200:
 7938              	.L366:
 7939              	.LBE107:
 7940              	.LBE106:
 7941              	.LBE105:
 7942              		.loc 6 55 0 is_stmt 1
 7943 0139 488B45D8 		movq	-40(%rbp), %rax
 7944 013d 64483304 		xorq	%fs:40, %rax
 7944      25280000 
 7944      00
 7945 0146 7424     		je	.L368
 7946 0148 EB1D     		jmp	.L370
 7947              	.L369:
 7948 014a 4889C3   		movq	%rax, %rbx
 7949              	.LBB110:
 7950              	.LBB109:
 7951              	.LBB108:
  53:../Checks.h   ****     }
 7952              		.loc 6 53 0
 7953 014d 488D8570 		leaq	-400(%rbp), %rax
 7953      FEFFFF
 7954 0154 4889C7   		movq	%rax, %rdi
 7955 0157 E8000000 		call	_ZN8UnitTest15MemoryOutStreamD1Ev
 7955      00
 7956 015c 4889D8   		movq	%rbx, %rax
 7957 015f 4889C7   		movq	%rax, %rdi
 7958              	.LEHB201:
 7959 0162 E8000000 		call	_Unwind_Resume
 7959      00
 7960              	.LEHE201:
 7961              	.L370:
 7962              	.LBE108:
 7963              	.LBE109:
 7964              	.LBE110:
 7965              		.loc 6 55 0
 7966 0167 E8000000 		call	__stack_chk_fail
 7966      00
 7967              	.L368:
 7968 016c 4881C4A8 		addq	$424, %rsp
 7968      010000
 7969 0173 5B       		popq	%rbx
 7970 0174 415C     		popq	%r12
 7971 0176 415D     		popq	%r13
 7972 0178 5D       		popq	%rbp
 7973              		.cfi_def_cfa 7, 8
 7974 0179 C3       		ret
 7975              		.cfi_endproc
 7976              	.LFE1214:
 7977              		.section	.gcc_except_table
 7978              	.LLSDA1214:
 7979 0580 FF       		.byte	0xff
 7980 0581 FF       		.byte	0xff
 7981 0582 01       		.byte	0x1
 7982 0583 15       		.uleb128 .LLSDACSE1214-.LLSDACSB1214
 7983              	.LLSDACSB1214:
 7984 0584 77       		.uleb128 .LEHB198-.LFB1214
 7985 0585 05       		.uleb128 .LEHE198-.LEHB198
 7986 0586 00       		.uleb128 0
 7987 0587 00       		.uleb128 0
 7988 0588 A801     		.uleb128 .LEHB199-.LFB1214
 7989 058a 8201     		.uleb128 .LEHE199-.LEHB199
 7990 058c CA02     		.uleb128 .L369-.LFB1214
 7991 058e 00       		.uleb128 0
 7992 058f B402     		.uleb128 .LEHB200-.LFB1214
 7993 0591 05       		.uleb128 .LEHE200-.LEHB200
 7994 0592 00       		.uleb128 0
 7995 0593 00       		.uleb128 0
 7996 0594 E202     		.uleb128 .LEHB201-.LFB1214
 7997 0596 05       		.uleb128 .LEHE201-.LEHB201
 7998 0597 00       		.uleb128 0
 7999 0598 00       		.uleb128 0
 8000              	.LLSDACSE1214:
 8001              		.section	.text._ZN8UnitTest10CheckCloseIffiEEvRNS_11TestResultsERKT_RKT0_RKT1_RKNS_11TestDetailsE,
 8003              		.section	.text._ZN8UnitTest10CheckCloseIiifEEvRNS_11TestResultsERKT_RKT0_RKT1_RKNS_11TestDetailsE,
 8004              		.weak	_ZN8UnitTest10CheckCloseIiifEEvRNS_11TestResultsERKT_RKT0_RKT1_RKNS_11TestDetailsE
 8006              	_ZN8UnitTest10CheckCloseIiifEEvRNS_11TestResultsERKT_RKT0_RKT1_RKNS_11TestDetailsE:
 8007              	.LFB1215:
  45:../Checks.h   ****                 TestDetails const& details)
 8008              		.loc 6 45 0
 8009              		.cfi_startproc
 8010              		.cfi_personality 0x3,__gxx_personality_v0
 8011              		.cfi_lsda 0x3,.LLSDA1215
 8012 0000 55       		pushq	%rbp
 8013              		.cfi_def_cfa_offset 16
 8014              		.cfi_offset 6, -16
 8015 0001 4889E5   		movq	%rsp, %rbp
 8016              		.cfi_def_cfa_register 6
 8017 0004 4155     		pushq	%r13
 8018 0006 4154     		pushq	%r12
 8019 0008 53       		pushq	%rbx
 8020 0009 4881ECA8 		subq	$424, %rsp
 8020      010000
 8021              		.cfi_offset 13, -24
 8022              		.cfi_offset 12, -32
 8023              		.cfi_offset 3, -40
 8024 0010 4889BD68 		movq	%rdi, -408(%rbp)
 8024      FEFFFF
 8025 0017 4889B560 		movq	%rsi, -416(%rbp)
 8025      FEFFFF
 8026 001e 48899558 		movq	%rdx, -424(%rbp)
 8026      FEFFFF
 8027 0025 48898D50 		movq	%rcx, -432(%rbp)
 8027      FEFFFF
 8028 002c 4C898548 		movq	%r8, -440(%rbp)
 8028      FEFFFF
  45:../Checks.h   ****                 TestDetails const& details)
 8029              		.loc 6 45 0
 8030 0033 64488B04 		movq	%fs:40, %rax
 8030      25280000 
 8030      00
 8031 003c 488945D8 		movq	%rax, -40(%rbp)
 8032 0040 31C0     		xorl	%eax, %eax
 8033              	.LBB111:
 8034              	.LBB112:
  48:../Checks.h   ****     { 
 8035              		.loc 6 48 0
 8036 0042 488B9550 		movq	-432(%rbp), %rdx
 8036      FEFFFF
 8037 0049 488B8D58 		movq	-424(%rbp), %rcx
 8037      FEFFFF
 8038 0050 488B8560 		movq	-416(%rbp), %rax
 8038      FEFFFF
 8039 0057 4889CE   		movq	%rcx, %rsi
 8040 005a 4889C7   		movq	%rax, %rdi
 8041 005d E8000000 		call	_ZN8UnitTest8AreCloseIiifEEbRKT_RKT0_RKT1_
 8041      00
 8042 0062 83F001   		xorl	$1, %eax
 8043 0065 84C0     		testb	%al, %al
 8044 0067 0F84C000 		je	.L372
 8044      0000
 8045              	.LBB113:
  50:../Checks.h   ****         stream << "Expected " << expected << " +/- " << tolerance << " but was " << actual;
 8046              		.loc 6 50 0
 8047 006d 488D8570 		leaq	-400(%rbp), %rax
 8047      FEFFFF
 8048 0074 4889C7   		movq	%rax, %rdi
 8049              	.LEHB202:
 8050 0077 E8000000 		call	_ZN8UnitTest15MemoryOutStreamC1Ev
 8050      00
 8051              	.LEHE202:
  51:../Checks.h   **** 
 8052              		.loc 6 51 0
 8053 007c 488B8558 		movq	-424(%rbp), %rax
 8053      FEFFFF
 8054 0083 8B18     		movl	(%rax), %ebx
 8055 0085 488B8550 		movq	-432(%rbp), %rax
 8055      FEFFFF
 8056 008c 448B20   		movl	(%rax), %r12d
 8057 008f 488B8560 		movq	-416(%rbp), %rax
 8057      FEFFFF
 8058 0096 448B28   		movl	(%rax), %r13d
 8059 0099 488D8570 		leaq	-400(%rbp), %rax
 8059      FEFFFF
 8060 00a0 BE000000 		movl	$.LC96, %esi
 8060      00
 8061 00a5 4889C7   		movq	%rax, %rdi
 8062              	.LEHB203:
 8063 00a8 E8000000 		call	_ZStlsISt11char_traitsIcEERSt13basic_ostreamIcT_ES5_PKc
 8063      00
 8064 00ad 4489EE   		movl	%r13d, %esi
 8065 00b0 4889C7   		movq	%rax, %rdi
 8066 00b3 E8000000 		call	_ZNSolsEi
 8066      00
  51:../Checks.h   **** 
 8067              		.loc 6 51 0 is_stmt 0 discriminator 1
 8068 00b8 BE000000 		movl	$.LC98, %esi
 8068      00
 8069 00bd 4889C7   		movq	%rax, %rdi
 8070 00c0 E8000000 		call	_ZStlsISt11char_traitsIcEERSt13basic_ostreamIcT_ES5_PKc
 8070      00
  51:../Checks.h   **** 
 8071              		.loc 6 51 0 discriminator 2
 8072 00c5 4489A544 		movl	%r12d, -444(%rbp)
 8072      FEFFFF
 8073 00cc F30F1085 		movss	-444(%rbp), %xmm0
 8073      44FEFFFF 
 8074 00d4 4889C7   		movq	%rax, %rdi
 8075 00d7 E8000000 		call	_ZNSolsEf
 8075      00
  51:../Checks.h   **** 
 8076              		.loc 6 51 0 discriminator 3
 8077 00dc BE000000 		movl	$.LC97, %esi
 8077      00
 8078 00e1 4889C7   		movq	%rax, %rdi
 8079 00e4 E8000000 		call	_ZStlsISt11char_traitsIcEERSt13basic_ostreamIcT_ES5_PKc
 8079      00
  51:../Checks.h   **** 
 8080              		.loc 6 51 0 discriminator 4
 8081 00e9 89DE     		movl	%ebx, %esi
 8082 00eb 4889C7   		movq	%rax, %rdi
 8083 00ee E8000000 		call	_ZNSolsEi
 8083      00
  53:../Checks.h   ****     }
 8084              		.loc 6 53 0 is_stmt 1
 8085 00f3 488D8570 		leaq	-400(%rbp), %rax
 8085      FEFFFF
 8086 00fa 4889C7   		movq	%rax, %rdi
 8087 00fd E8000000 		call	_ZNK8UnitTest15MemoryOutStream7GetTextEv
 8087      00
 8088 0102 4889C2   		movq	%rax, %rdx
 8089 0105 488B8D48 		movq	-440(%rbp), %rcx
 8089      FEFFFF
 8090 010c 488B8568 		movq	-408(%rbp), %rax
 8090      FEFFFF
 8091 0113 4889CE   		movq	%rcx, %rsi
 8092 0116 4889C7   		movq	%rax, %rdi
 8093 0119 E8000000 		call	_ZN8UnitTest11TestResults13OnTestFailureERKNS_11TestDetailsEPKc
 8093      00
 8094              	.LEHE203:
  53:../Checks.h   ****     }
 8095              		.loc 6 53 0 is_stmt 0 discriminator 4
 8096 011e 488D8570 		leaq	-400(%rbp), %rax
 8096      FEFFFF
 8097 0125 4889C7   		movq	%rax, %rdi
 8098              	.LEHB204:
 8099 0128 E8000000 		call	_ZN8UnitTest15MemoryOutStreamD1Ev
 8099      00
 8100              	.LEHE204:
 8101              	.L372:
 8102              	.LBE113:
 8103              	.LBE112:
 8104              	.LBE111:
 8105              		.loc 6 55 0 is_stmt 1
 8106 012d 488B45D8 		movq	-40(%rbp), %rax
 8107 0131 64483304 		xorq	%fs:40, %rax
 8107      25280000 
 8107      00
 8108 013a 7424     		je	.L374
 8109 013c EB1D     		jmp	.L376
 8110              	.L375:
 8111 013e 4889C3   		movq	%rax, %rbx
 8112              	.LBB116:
 8113              	.LBB115:
 8114              	.LBB114:
  53:../Checks.h   ****     }
 8115              		.loc 6 53 0
 8116 0141 488D8570 		leaq	-400(%rbp), %rax
 8116      FEFFFF
 8117 0148 4889C7   		movq	%rax, %rdi
 8118 014b E8000000 		call	_ZN8UnitTest15MemoryOutStreamD1Ev
 8118      00
 8119 0150 4889D8   		movq	%rbx, %rax
 8120 0153 4889C7   		movq	%rax, %rdi
 8121              	.LEHB205:
 8122 0156 E8000000 		call	_Unwind_Resume
 8122      00
 8123              	.LEHE205:
 8124              	.L376:
 8125              	.LBE114:
 8126              	.LBE115:
 8127              	.LBE116:
 8128              		.loc 6 55 0
 8129 015b E8000000 		call	__stack_chk_fail
 8129      00
 8130              	.L374:
 8131 0160 4881C4A8 		addq	$424, %rsp
 8131      010000
 8132 0167 5B       		popq	%rbx
 8133 0168 415C     		popq	%r12
 8134 016a 415D     		popq	%r13
 8135 016c 5D       		popq	%rbp
 8136              		.cfi_def_cfa 7, 8
 8137 016d C3       		ret
 8138              		.cfi_endproc
 8139              	.LFE1215:
 8140              		.section	.gcc_except_table
 8141              	.LLSDA1215:
 8142 0599 FF       		.byte	0xff
 8143 059a FF       		.byte	0xff
 8144 059b 01       		.byte	0x1
 8145 059c 14       		.uleb128 .LLSDACSE1215-.LLSDACSB1215
 8146              	.LLSDACSB1215:
 8147 059d 77       		.uleb128 .LEHB202-.LFB1215
 8148 059e 05       		.uleb128 .LEHE202-.LEHB202
 8149 059f 00       		.uleb128 0
 8150 05a0 00       		.uleb128 0
 8151 05a1 A801     		.uleb128 .LEHB203-.LFB1215
 8152 05a3 76       		.uleb128 .LEHE203-.LEHB203
 8153 05a4 BE02     		.uleb128 .L375-.LFB1215
 8154 05a6 00       		.uleb128 0
 8155 05a7 A802     		.uleb128 .LEHB204-.LFB1215
 8156 05a9 05       		.uleb128 .LEHE204-.LEHB204
 8157 05aa 00       		.uleb128 0
 8158 05ab 00       		.uleb128 0
 8159 05ac D602     		.uleb128 .LEHB205-.LFB1215
 8160 05ae 05       		.uleb128 .LEHE205-.LEHB205
 8161 05af 00       		.uleb128 0
 8162 05b0 00       		.uleb128 0
 8163              	.LLSDACSE1215:
 8164              		.section	.text._ZN8UnitTest10CheckCloseIiifEEvRNS_11TestResultsERKT_RKT0_RKT1_RKNS_11TestDetailsE,
 8166              		.section	.rodata
 8167              	.LC99:
 8168 0bc4 45787065 		.string	"Expected [ "
 8168      63746564 
 8168      205B2000 
 8169              	.LC100:
 8170 0bd0 2000     		.string	" "
 8171              	.LC101:
 8172 0bd2 5D206275 		.string	"] but was [ "
 8172      74207761 
 8172      73205B20 
 8172      00
 8173              	.LC102:
 8174 0bdf 5D00     		.string	"]"
 8175              		.section	.text._ZN8UnitTest15CheckArrayEqualIA3_iS1_EEvRNS_11TestResultsERKT_RKT0_iRKNS_11TestDeta
 8176              		.weak	_ZN8UnitTest15CheckArrayEqualIA3_iS1_EEvRNS_11TestResultsERKT_RKT0_iRKNS_11TestDetailsE
 8178              	_ZN8UnitTest15CheckArrayEqualIA3_iS1_EEvRNS_11TestResultsERKT_RKT0_iRKNS_11TestDetailsE:
 8179              	.LFB1216:
  56:../Checks.h   **** 
  57:../Checks.h   **** 
  58:../Checks.h   **** template< typename Expected, typename Actual >
  59:../Checks.h   **** void CheckArrayEqual(TestResults& results, Expected const& expected, Actual const& actual,
 8180              		.loc 6 59 0
 8181              		.cfi_startproc
 8182              		.cfi_personality 0x3,__gxx_personality_v0
 8183              		.cfi_lsda 0x3,.LLSDA1216
 8184 0000 55       		pushq	%rbp
 8185              		.cfi_def_cfa_offset 16
 8186              		.cfi_offset 6, -16
 8187 0001 4889E5   		movq	%rsp, %rbp
 8188              		.cfi_def_cfa_register 6
 8189 0004 53       		pushq	%rbx
 8190 0005 4881ECB8 		subq	$440, %rsp
 8190      010000
 8191              		.cfi_offset 3, -24
 8192 000c 4889BD68 		movq	%rdi, -408(%rbp)
 8192      FEFFFF
 8193 0013 4889B560 		movq	%rsi, -416(%rbp)
 8193      FEFFFF
 8194 001a 48899558 		movq	%rdx, -424(%rbp)
 8194      FEFFFF
 8195 0021 898D54FE 		movl	%ecx, -428(%rbp)
 8195      FFFF
 8196 0027 4C898548 		movq	%r8, -440(%rbp)
 8196      FEFFFF
 8197              		.loc 6 59 0
 8198 002e 64488B04 		movq	%fs:40, %rax
 8198      25280000 
 8198      00
 8199 0037 488945E8 		movq	%rax, -24(%rbp)
 8200 003b 31C0     		xorl	%eax, %eax
 8201              	.LBB117:
  60:../Checks.h   ****                 int const count, TestDetails const& details)
  61:../Checks.h   **** {
  62:../Checks.h   ****     bool equal = true;
 8202              		.loc 6 62 0
 8203 003d C68573FE 		movb	$1, -397(%rbp)
 8203      FFFF01
 8204              	.LBB118:
  63:../Checks.h   ****     for (int i = 0; i < count; ++i)
 8205              		.loc 6 63 0
 8206 0044 C78574FE 		movl	$0, -396(%rbp)
 8206      FFFF0000 
 8206      0000
 8207 004e EB49     		jmp	.L378
 8208              	.L379:
  64:../Checks.h   ****         equal &= (expected[i] == actual[i]);
 8209              		.loc 6 64 0 discriminator 3
 8210 0050 0FB68D73 		movzbl	-397(%rbp), %ecx
 8210      FEFFFF
 8211 0057 488B8560 		movq	-416(%rbp), %rax
 8211      FEFFFF
 8212 005e 8B9574FE 		movl	-396(%rbp), %edx
 8212      FFFF
 8213 0064 4863D2   		movslq	%edx, %rdx
 8214 0067 8B3490   		movl	(%rax,%rdx,4), %esi
 8215 006a 488B8558 		movq	-424(%rbp), %rax
 8215      FEFFFF
 8216 0071 8B9574FE 		movl	-396(%rbp), %edx
 8216      FFFF
 8217 0077 4863D2   		movslq	%edx, %rdx
 8218 007a 8B0490   		movl	(%rax,%rdx,4), %eax
 8219 007d 39C6     		cmpl	%eax, %esi
 8220 007f 0F94C0   		sete	%al
 8221 0082 0FB6C0   		movzbl	%al, %eax
 8222 0085 21C8     		andl	%ecx, %eax
 8223 0087 85C0     		testl	%eax, %eax
 8224 0089 0F95C0   		setne	%al
 8225 008c 888573FE 		movb	%al, -397(%rbp)
 8225      FFFF
  63:../Checks.h   ****     for (int i = 0; i < count; ++i)
 8226              		.loc 6 63 0 discriminator 3
 8227 0092 838574FE 		addl	$1, -396(%rbp)
 8227      FFFF01
 8228              	.L378:
  63:../Checks.h   ****     for (int i = 0; i < count; ++i)
 8229              		.loc 6 63 0 is_stmt 0 discriminator 1
 8230 0099 8B8574FE 		movl	-396(%rbp), %eax
 8230      FFFF
 8231 009f 3B8554FE 		cmpl	-428(%rbp), %eax
 8231      FFFF
 8232 00a5 7CA9     		jl	.L379
 8233              	.LBE118:
 8234              	.LBB119:
  65:../Checks.h   **** 
  66:../Checks.h   ****     if (!equal)
 8235              		.loc 6 66 0 is_stmt 1
 8236 00a7 0FB68573 		movzbl	-397(%rbp), %eax
 8236      FEFFFF
 8237 00ae 83F001   		xorl	$1, %eax
 8238 00b1 84C0     		testb	%al, %al
 8239 00b3 0F842901 		je	.L380
 8239      0000
 8240              	.LBB120:
  67:../Checks.h   ****     {
  68:../Checks.h   ****         UnitTest::MemoryOutStream stream;
 8241              		.loc 6 68 0
 8242 00b9 488D8580 		leaq	-384(%rbp), %rax
 8242      FEFFFF
 8243 00c0 4889C7   		movq	%rax, %rdi
 8244              	.LEHB206:
 8245 00c3 E8000000 		call	_ZN8UnitTest15MemoryOutStreamC1Ev
 8245      00
 8246              	.LEHE206:
  69:../Checks.h   **** 
  70:../Checks.h   **** 		stream << "Expected [ ";
 8247              		.loc 6 70 0
 8248 00c8 488D8580 		leaq	-384(%rbp), %rax
 8248      FEFFFF
 8249 00cf BE000000 		movl	$.LC99, %esi
 8249      00
 8250 00d4 4889C7   		movq	%rax, %rdi
 8251              	.LEHB207:
 8252 00d7 E8000000 		call	_ZStlsISt11char_traitsIcEERSt13basic_ostreamIcT_ES5_PKc
 8252      00
 8253              	.LBB121:
  71:../Checks.h   **** 
  72:../Checks.h   **** 		for (int expectedIndex = 0; expectedIndex < count; ++expectedIndex)
 8254              		.loc 6 72 0
 8255 00dc C78578FE 		movl	$0, -392(%rbp)
 8255      FFFF0000 
 8255      0000
 8256 00e6 EB38     		jmp	.L381
 8257              	.L382:
  73:../Checks.h   ****             stream << expected[expectedIndex] << " ";
 8258              		.loc 6 73 0
 8259 00e8 488B8560 		movq	-416(%rbp), %rax
 8259      FEFFFF
 8260 00ef 8B9578FE 		movl	-392(%rbp), %edx
 8260      FFFF
 8261 00f5 4863D2   		movslq	%edx, %rdx
 8262 00f8 8B1490   		movl	(%rax,%rdx,4), %edx
 8263 00fb 488D8580 		leaq	-384(%rbp), %rax
 8263      FEFFFF
 8264 0102 89D6     		movl	%edx, %esi
 8265 0104 4889C7   		movq	%rax, %rdi
 8266 0107 E8000000 		call	_ZNSolsEi
 8266      00
 8267 010c BE000000 		movl	$.LC100, %esi
 8267      00
 8268 0111 4889C7   		movq	%rax, %rdi
 8269 0114 E8000000 		call	_ZStlsISt11char_traitsIcEERSt13basic_ostreamIcT_ES5_PKc
 8269      00
  72:../Checks.h   ****             stream << expected[expectedIndex] << " ";
 8270              		.loc 6 72 0 discriminator 2
 8271 0119 838578FE 		addl	$1, -392(%rbp)
 8271      FFFF01
 8272              	.L381:
  72:../Checks.h   ****             stream << expected[expectedIndex] << " ";
 8273              		.loc 6 72 0 is_stmt 0 discriminator 1
 8274 0120 8B8578FE 		movl	-392(%rbp), %eax
 8274      FFFF
 8275 0126 3B8554FE 		cmpl	-428(%rbp), %eax
 8275      FFFF
 8276 012c 7CBA     		jl	.L382
 8277              	.LBE121:
  74:../Checks.h   **** 
  75:../Checks.h   **** 		stream << "] but was [ ";
 8278              		.loc 6 75 0 is_stmt 1
 8279 012e 488D8580 		leaq	-384(%rbp), %rax
 8279      FEFFFF
 8280 0135 BE000000 		movl	$.LC101, %esi
 8280      00
 8281 013a 4889C7   		movq	%rax, %rdi
 8282 013d E8000000 		call	_ZStlsISt11char_traitsIcEERSt13basic_ostreamIcT_ES5_PKc
 8282      00
 8283              	.LBB122:
  76:../Checks.h   **** 
  77:../Checks.h   **** 		for (int actualIndex = 0; actualIndex < count; ++actualIndex)
 8284              		.loc 6 77 0
 8285 0142 C7857CFE 		movl	$0, -388(%rbp)
 8285      FFFF0000 
 8285      0000
 8286 014c EB38     		jmp	.L383
 8287              	.L384:
  78:../Checks.h   ****             stream << actual[actualIndex] << " ";
 8288              		.loc 6 78 0
 8289 014e 488B8558 		movq	-424(%rbp), %rax
 8289      FEFFFF
 8290 0155 8B957CFE 		movl	-388(%rbp), %edx
 8290      FFFF
 8291 015b 4863D2   		movslq	%edx, %rdx
 8292 015e 8B1490   		movl	(%rax,%rdx,4), %edx
 8293 0161 488D8580 		leaq	-384(%rbp), %rax
 8293      FEFFFF
 8294 0168 89D6     		movl	%edx, %esi
 8295 016a 4889C7   		movq	%rax, %rdi
 8296 016d E8000000 		call	_ZNSolsEi
 8296      00
 8297 0172 BE000000 		movl	$.LC100, %esi
 8297      00
 8298 0177 4889C7   		movq	%rax, %rdi
 8299 017a E8000000 		call	_ZStlsISt11char_traitsIcEERSt13basic_ostreamIcT_ES5_PKc
 8299      00
  77:../Checks.h   ****             stream << actual[actualIndex] << " ";
 8300              		.loc 6 77 0 discriminator 2
 8301 017f 83857CFE 		addl	$1, -388(%rbp)
 8301      FFFF01
 8302              	.L383:
  77:../Checks.h   ****             stream << actual[actualIndex] << " ";
 8303              		.loc 6 77 0 is_stmt 0 discriminator 1
 8304 0186 8B857CFE 		movl	-388(%rbp), %eax
 8304      FFFF
 8305 018c 3B8554FE 		cmpl	-428(%rbp), %eax
 8305      FFFF
 8306 0192 7CBA     		jl	.L384
 8307              	.LBE122:
  79:../Checks.h   **** 
  80:../Checks.h   **** 		stream << "]";
 8308              		.loc 6 80 0 is_stmt 1
 8309 0194 488D8580 		leaq	-384(%rbp), %rax
 8309      FEFFFF
 8310 019b BE000000 		movl	$.LC102, %esi
 8310      00
 8311 01a0 4889C7   		movq	%rax, %rdi
 8312 01a3 E8000000 		call	_ZStlsISt11char_traitsIcEERSt13basic_ostreamIcT_ES5_PKc
 8312      00
  81:../Checks.h   **** 
  82:../Checks.h   ****         results.OnTestFailure(details, stream.GetText());
 8313              		.loc 6 82 0
 8314 01a8 488D8580 		leaq	-384(%rbp), %rax
 8314      FEFFFF
 8315 01af 4889C7   		movq	%rax, %rdi
 8316 01b2 E8000000 		call	_ZNK8UnitTest15MemoryOutStream7GetTextEv
 8316      00
 8317 01b7 4889C2   		movq	%rax, %rdx
 8318 01ba 488B8D48 		movq	-440(%rbp), %rcx
 8318      FEFFFF
 8319 01c1 488B8568 		movq	-408(%rbp), %rax
 8319      FEFFFF
 8320 01c8 4889CE   		movq	%rcx, %rsi
 8321 01cb 4889C7   		movq	%rax, %rdi
 8322 01ce E8000000 		call	_ZN8UnitTest11TestResults13OnTestFailureERKNS_11TestDetailsEPKc
 8322      00
 8323              	.LEHE207:
 8324              		.loc 6 82 0 is_stmt 0 discriminator 4
 8325 01d3 488D8580 		leaq	-384(%rbp), %rax
 8325      FEFFFF
 8326 01da 4889C7   		movq	%rax, %rdi
 8327              	.LEHB208:
 8328 01dd E8000000 		call	_ZN8UnitTest15MemoryOutStreamD1Ev
 8328      00
 8329              	.LEHE208:
 8330              	.L380:
 8331              	.LBE120:
 8332              	.LBE119:
 8333              	.LBE117:
  83:../Checks.h   ****     }
  84:../Checks.h   **** }
 8334              		.loc 6 84 0 is_stmt 1
 8335 01e2 488B45E8 		movq	-24(%rbp), %rax
 8336 01e6 64483304 		xorq	%fs:40, %rax
 8336      25280000 
 8336      00
 8337 01ef 7424     		je	.L386
 8338 01f1 EB1D     		jmp	.L388
 8339              	.L387:
 8340 01f3 4889C3   		movq	%rax, %rbx
 8341              	.LBB125:
 8342              	.LBB124:
 8343              	.LBB123:
  82:../Checks.h   ****     }
 8344              		.loc 6 82 0
 8345 01f6 488D8580 		leaq	-384(%rbp), %rax
 8345      FEFFFF
 8346 01fd 4889C7   		movq	%rax, %rdi
 8347 0200 E8000000 		call	_ZN8UnitTest15MemoryOutStreamD1Ev
 8347      00
 8348 0205 4889D8   		movq	%rbx, %rax
 8349 0208 4889C7   		movq	%rax, %rdi
 8350              	.LEHB209:
 8351 020b E8000000 		call	_Unwind_Resume
 8351      00
 8352              	.LEHE209:
 8353              	.L388:
 8354              	.LBE123:
 8355              	.LBE124:
 8356              	.LBE125:
 8357              		.loc 6 84 0
 8358 0210 E8000000 		call	__stack_chk_fail
 8358      00
 8359              	.L386:
 8360 0215 4881C4B8 		addq	$440, %rsp
 8360      010000
 8361 021c 5B       		popq	%rbx
 8362 021d 5D       		popq	%rbp
 8363              		.cfi_def_cfa 7, 8
 8364 021e C3       		ret
 8365              		.cfi_endproc
 8366              	.LFE1216:
 8367              		.section	.gcc_except_table
 8368              	.LLSDA1216:
 8369 05b1 FF       		.byte	0xff
 8370 05b2 FF       		.byte	0xff
 8371 05b3 01       		.byte	0x1
 8372 05b4 16       		.uleb128 .LLSDACSE1216-.LLSDACSB1216
 8373              	.LLSDACSB1216:
 8374 05b5 C301     		.uleb128 .LEHB206-.LFB1216
 8375 05b7 05       		.uleb128 .LEHE206-.LEHB206
 8376 05b8 00       		.uleb128 0
 8377 05b9 00       		.uleb128 0
 8378 05ba D701     		.uleb128 .LEHB207-.LFB1216
 8379 05bc FC01     		.uleb128 .LEHE207-.LEHB207
 8380 05be F303     		.uleb128 .L387-.LFB1216
 8381 05c0 00       		.uleb128 0
 8382 05c1 DD03     		.uleb128 .LEHB208-.LFB1216
 8383 05c3 05       		.uleb128 .LEHE208-.LEHB208
 8384 05c4 00       		.uleb128 0
 8385 05c5 00       		.uleb128 0
 8386 05c6 8B04     		.uleb128 .LEHB209-.LFB1216
 8387 05c8 05       		.uleb128 .LEHE209-.LEHB209
 8388 05c9 00       		.uleb128 0
 8389 05ca 00       		.uleb128 0
 8390              	.LLSDACSE1216:
 8391              		.section	.text._ZN8UnitTest15CheckArrayEqualIA3_iS1_EEvRNS_11TestResultsERKT_RKT0_iRKNS_11TestDeta
 8393              		.section	.rodata
 8394              	.LC103:
 8395 0be1 5D202B2F 		.string	"] +/- "
 8395      2D2000
 8396              	.LC104:
 8397 0be8 20627574 		.string	" but was [ "
 8397      20776173 
 8397      205B2000 
 8398              		.section	.text._ZN8UnitTest15CheckArrayCloseIA3_fS1_fEEvRNS_11TestResultsERKT_RKT0_iRKT1_RKNS_11Te
 8399              		.weak	_ZN8UnitTest15CheckArrayCloseIA3_fS1_fEEvRNS_11TestResultsERKT_RKT0_iRKT1_RKNS_11TestDetails
 8401              	_ZN8UnitTest15CheckArrayCloseIA3_fS1_fEEvRNS_11TestResultsERKT_RKT0_iRKT1_RKNS_11TestDetailsE:
 8402              	.LFB1217:
  85:../Checks.h   **** 
  86:../Checks.h   **** template< typename Expected, typename Actual, typename Tolerance >
  87:../Checks.h   **** bool ArrayAreClose(Expected const& expected, Actual const& actual, int const count, Tolerance const
  88:../Checks.h   **** {
  89:../Checks.h   ****     bool equal = true;
  90:../Checks.h   ****     for (int i = 0; i < count; ++i)
  91:../Checks.h   ****         equal &= AreClose(expected[i], actual[i], tolerance);
  92:../Checks.h   ****     return equal;
  93:../Checks.h   **** }
  94:../Checks.h   **** 
  95:../Checks.h   **** template< typename Expected, typename Actual, typename Tolerance >
  96:../Checks.h   **** void CheckArrayClose(TestResults& results, Expected const& expected, Actual const& actual,
 8403              		.loc 6 96 0
 8404              		.cfi_startproc
 8405              		.cfi_personality 0x3,__gxx_personality_v0
 8406              		.cfi_lsda 0x3,.LLSDA1217
 8407 0000 55       		pushq	%rbp
 8408              		.cfi_def_cfa_offset 16
 8409              		.cfi_offset 6, -16
 8410 0001 4889E5   		movq	%rsp, %rbp
 8411              		.cfi_def_cfa_register 6
 8412 0004 53       		pushq	%rbx
 8413 0005 4881ECB8 		subq	$440, %rsp
 8413      010000
 8414              		.cfi_offset 3, -24
 8415 000c 4889BD68 		movq	%rdi, -408(%rbp)
 8415      FEFFFF
 8416 0013 4889B560 		movq	%rsi, -416(%rbp)
 8416      FEFFFF
 8417 001a 48899558 		movq	%rdx, -424(%rbp)
 8417      FEFFFF
 8418 0021 898D54FE 		movl	%ecx, -428(%rbp)
 8418      FFFF
 8419 0027 4C898548 		movq	%r8, -440(%rbp)
 8419      FEFFFF
 8420 002e 4C898D40 		movq	%r9, -448(%rbp)
 8420      FEFFFF
 8421              		.loc 6 96 0
 8422 0035 64488B04 		movq	%fs:40, %rax
 8422      25280000 
 8422      00
 8423 003e 488945E8 		movq	%rax, -24(%rbp)
 8424 0042 31C0     		xorl	%eax, %eax
 8425              	.LBB126:
  97:../Checks.h   ****                    int const count, Tolerance const& tolerance, TestDetails const& details)
  98:../Checks.h   **** {
  99:../Checks.h   ****     bool equal = ArrayAreClose(expected, actual, count, tolerance);
 8426              		.loc 6 99 0
 8427 0044 488B8D48 		movq	-440(%rbp), %rcx
 8427      FEFFFF
 8428 004b 8B9554FE 		movl	-428(%rbp), %edx
 8428      FFFF
 8429 0051 488BB558 		movq	-424(%rbp), %rsi
 8429      FEFFFF
 8430 0058 488B8560 		movq	-416(%rbp), %rax
 8430      FEFFFF
 8431 005f 4889C7   		movq	%rax, %rdi
 8432 0062 E8000000 		call	_ZN8UnitTest13ArrayAreCloseIA3_fS1_fEEbRKT_RKT0_iRKT1_
 8432      00
 8433 0067 888577FE 		movb	%al, -393(%rbp)
 8433      FFFF
 8434              	.LBB127:
 100:../Checks.h   **** 
 101:../Checks.h   ****     if (!equal)
 8435              		.loc 6 101 0
 8436 006d 0FB68577 		movzbl	-393(%rbp), %eax
 8436      FEFFFF
 8437 0074 83F001   		xorl	$1, %eax
 8438 0077 84C0     		testb	%al, %al
 8439 0079 0F846D01 		je	.L390
 8439      0000
 8440              	.LBB128:
 102:../Checks.h   ****     {
 103:../Checks.h   ****         UnitTest::MemoryOutStream stream;
 8441              		.loc 6 103 0
 8442 007f 488D8580 		leaq	-384(%rbp), %rax
 8442      FEFFFF
 8443 0086 4889C7   		movq	%rax, %rdi
 8444              	.LEHB210:
 8445 0089 E8000000 		call	_ZN8UnitTest15MemoryOutStreamC1Ev
 8445      00
 8446              	.LEHE210:
 104:../Checks.h   **** 
 105:../Checks.h   ****         stream << "Expected [ ";
 8447              		.loc 6 105 0
 8448 008e 488D8580 		leaq	-384(%rbp), %rax
 8448      FEFFFF
 8449 0095 BE000000 		movl	$.LC99, %esi
 8449      00
 8450 009a 4889C7   		movq	%rax, %rdi
 8451              	.LEHB211:
 8452 009d E8000000 		call	_ZStlsISt11char_traitsIcEERSt13basic_ostreamIcT_ES5_PKc
 8452      00
 8453              	.LBB129:
 106:../Checks.h   ****         for (int expectedIndex = 0; expectedIndex < count; ++expectedIndex)
 8454              		.loc 6 106 0
 8455 00a2 C78578FE 		movl	$0, -392(%rbp)
 8455      FFFF0000 
 8455      0000
 8456 00ac EB44     		jmp	.L391
 8457              	.L392:
 107:../Checks.h   ****             stream << expected[expectedIndex] << " ";
 8458              		.loc 6 107 0
 8459 00ae 488B8560 		movq	-416(%rbp), %rax
 8459      FEFFFF
 8460 00b5 8B9578FE 		movl	-392(%rbp), %edx
 8460      FFFF
 8461 00bb 4863D2   		movslq	%edx, %rdx
 8462 00be 8B1490   		movl	(%rax,%rdx,4), %edx
 8463 00c1 488D8580 		leaq	-384(%rbp), %rax
 8463      FEFFFF
 8464 00c8 899550FE 		movl	%edx, -432(%rbp)
 8464      FFFF
 8465 00ce F30F1085 		movss	-432(%rbp), %xmm0
 8465      50FEFFFF 
 8466 00d6 4889C7   		movq	%rax, %rdi
 8467 00d9 E8000000 		call	_ZNSolsEf
 8467      00
 8468 00de BE000000 		movl	$.LC100, %esi
 8468      00
 8469 00e3 4889C7   		movq	%rax, %rdi
 8470 00e6 E8000000 		call	_ZStlsISt11char_traitsIcEERSt13basic_ostreamIcT_ES5_PKc
 8470      00
 106:../Checks.h   ****         for (int expectedIndex = 0; expectedIndex < count; ++expectedIndex)
 8471              		.loc 6 106 0 discriminator 2
 8472 00eb 838578FE 		addl	$1, -392(%rbp)
 8472      FFFF01
 8473              	.L391:
 106:../Checks.h   ****         for (int expectedIndex = 0; expectedIndex < count; ++expectedIndex)
 8474              		.loc 6 106 0 is_stmt 0 discriminator 1
 8475 00f2 8B8578FE 		movl	-392(%rbp), %eax
 8475      FFFF
 8476 00f8 3B8554FE 		cmpl	-428(%rbp), %eax
 8476      FFFF
 8477 00fe 7CAE     		jl	.L392
 8478              	.LBE129:
 108:../Checks.h   ****         stream << "] +/- " << tolerance << " but was [ ";
 8479              		.loc 6 108 0 is_stmt 1
 8480 0100 488B8548 		movq	-440(%rbp), %rax
 8480      FEFFFF
 8481 0107 8B18     		movl	(%rax), %ebx
 8482 0109 488D8580 		leaq	-384(%rbp), %rax
 8482      FEFFFF
 8483 0110 BE000000 		movl	$.LC103, %esi
 8483      00
 8484 0115 4889C7   		movq	%rax, %rdi
 8485 0118 E8000000 		call	_ZStlsISt11char_traitsIcEERSt13basic_ostreamIcT_ES5_PKc
 8485      00
 8486 011d 899D50FE 		movl	%ebx, -432(%rbp)
 8486      FFFF
 8487 0123 F30F1085 		movss	-432(%rbp), %xmm0
 8487      50FEFFFF 
 8488 012b 4889C7   		movq	%rax, %rdi
 8489 012e E8000000 		call	_ZNSolsEf
 8489      00
 8490              		.loc 6 108 0 is_stmt 0 discriminator 1
 8491 0133 BE000000 		movl	$.LC104, %esi
 8491      00
 8492 0138 4889C7   		movq	%rax, %rdi
 8493 013b E8000000 		call	_ZStlsISt11char_traitsIcEERSt13basic_ostreamIcT_ES5_PKc
 8493      00
 8494              	.LBB130:
 109:../Checks.h   **** 
 110:../Checks.h   **** 		for (int actualIndex = 0; actualIndex < count; ++actualIndex)
 8495              		.loc 6 110 0 is_stmt 1
 8496 0140 C7857CFE 		movl	$0, -388(%rbp)
 8496      FFFF0000 
 8496      0000
 8497 014a EB44     		jmp	.L393
 8498              	.L394:
 111:../Checks.h   ****             stream << actual[actualIndex] << " ";
 8499              		.loc 6 111 0
 8500 014c 488B8558 		movq	-424(%rbp), %rax
 8500      FEFFFF
 8501 0153 8B957CFE 		movl	-388(%rbp), %edx
 8501      FFFF
 8502 0159 4863D2   		movslq	%edx, %rdx
 8503 015c 8B1490   		movl	(%rax,%rdx,4), %edx
 8504 015f 488D8580 		leaq	-384(%rbp), %rax
 8504      FEFFFF
 8505 0166 899550FE 		movl	%edx, -432(%rbp)
 8505      FFFF
 8506 016c F30F1085 		movss	-432(%rbp), %xmm0
 8506      50FEFFFF 
 8507 0174 4889C7   		movq	%rax, %rdi
 8508 0177 E8000000 		call	_ZNSolsEf
 8508      00
 8509 017c BE000000 		movl	$.LC100, %esi
 8509      00
 8510 0181 4889C7   		movq	%rax, %rdi
 8511 0184 E8000000 		call	_ZStlsISt11char_traitsIcEERSt13basic_ostreamIcT_ES5_PKc
 8511      00
 110:../Checks.h   ****             stream << actual[actualIndex] << " ";
 8512              		.loc 6 110 0 discriminator 2
 8513 0189 83857CFE 		addl	$1, -388(%rbp)
 8513      FFFF01
 8514              	.L393:
 110:../Checks.h   ****             stream << actual[actualIndex] << " ";
 8515              		.loc 6 110 0 is_stmt 0 discriminator 1
 8516 0190 8B857CFE 		movl	-388(%rbp), %eax
 8516      FFFF
 8517 0196 3B8554FE 		cmpl	-428(%rbp), %eax
 8517      FFFF
 8518 019c 7CAE     		jl	.L394
 8519              	.LBE130:
 112:../Checks.h   ****         stream << "]";
 8520              		.loc 6 112 0 is_stmt 1
 8521 019e 488D8580 		leaq	-384(%rbp), %rax
 8521      FEFFFF
 8522 01a5 BE000000 		movl	$.LC102, %esi
 8522      00
 8523 01aa 4889C7   		movq	%rax, %rdi
 8524 01ad E8000000 		call	_ZStlsISt11char_traitsIcEERSt13basic_ostreamIcT_ES5_PKc
 8524      00
 113:../Checks.h   **** 
 114:../Checks.h   ****         results.OnTestFailure(details, stream.GetText());
 8525              		.loc 6 114 0
 8526 01b2 488D8580 		leaq	-384(%rbp), %rax
 8526      FEFFFF
 8527 01b9 4889C7   		movq	%rax, %rdi
 8528 01bc E8000000 		call	_ZNK8UnitTest15MemoryOutStream7GetTextEv
 8528      00
 8529 01c1 4889C2   		movq	%rax, %rdx
 8530 01c4 488B8D40 		movq	-448(%rbp), %rcx
 8530      FEFFFF
 8531 01cb 488B8568 		movq	-408(%rbp), %rax
 8531      FEFFFF
 8532 01d2 4889CE   		movq	%rcx, %rsi
 8533 01d5 4889C7   		movq	%rax, %rdi
 8534 01d8 E8000000 		call	_ZN8UnitTest11TestResults13OnTestFailureERKNS_11TestDetailsEPKc
 8534      00
 8535              	.LEHE211:
 8536              		.loc 6 114 0 is_stmt 0 discriminator 4
 8537 01dd 488D8580 		leaq	-384(%rbp), %rax
 8537      FEFFFF
 8538 01e4 4889C7   		movq	%rax, %rdi
 8539              	.LEHB212:
 8540 01e7 E8000000 		call	_ZN8UnitTest15MemoryOutStreamD1Ev
 8540      00
 8541              	.LEHE212:
 8542              	.L390:
 8543              	.LBE128:
 8544              	.LBE127:
 8545              	.LBE126:
 115:../Checks.h   ****     }
 116:../Checks.h   **** }
 8546              		.loc 6 116 0 is_stmt 1
 8547 01ec 488B45E8 		movq	-24(%rbp), %rax
 8548 01f0 64483304 		xorq	%fs:40, %rax
 8548      25280000 
 8548      00
 8549 01f9 7424     		je	.L396
 8550 01fb EB1D     		jmp	.L398
 8551              	.L397:
 8552 01fd 4889C3   		movq	%rax, %rbx
 8553              	.LBB133:
 8554              	.LBB132:
 8555              	.LBB131:
 114:../Checks.h   ****     }
 8556              		.loc 6 114 0
 8557 0200 488D8580 		leaq	-384(%rbp), %rax
 8557      FEFFFF
 8558 0207 4889C7   		movq	%rax, %rdi
 8559 020a E8000000 		call	_ZN8UnitTest15MemoryOutStreamD1Ev
 8559      00
 8560 020f 4889D8   		movq	%rbx, %rax
 8561 0212 4889C7   		movq	%rax, %rdi
 8562              	.LEHB213:
 8563 0215 E8000000 		call	_Unwind_Resume
 8563      00
 8564              	.LEHE213:
 8565              	.L398:
 8566              	.LBE131:
 8567              	.LBE132:
 8568              	.LBE133:
 8569              		.loc 6 116 0
 8570 021a E8000000 		call	__stack_chk_fail
 8570      00
 8571              	.L396:
 8572 021f 4881C4B8 		addq	$440, %rsp
 8572      010000
 8573 0226 5B       		popq	%rbx
 8574 0227 5D       		popq	%rbp
 8575              		.cfi_def_cfa 7, 8
 8576 0228 C3       		ret
 8577              		.cfi_endproc
 8578              	.LFE1217:
 8579              		.section	.gcc_except_table
 8580              	.LLSDA1217:
 8581 05cb FF       		.byte	0xff
 8582 05cc FF       		.byte	0xff
 8583 05cd 01       		.byte	0x1
 8584 05ce 16       		.uleb128 .LLSDACSE1217-.LLSDACSB1217
 8585              	.LLSDACSB1217:
 8586 05cf 8901     		.uleb128 .LEHB210-.LFB1217
 8587 05d1 05       		.uleb128 .LEHE210-.LEHB210
 8588 05d2 00       		.uleb128 0
 8589 05d3 00       		.uleb128 0
 8590 05d4 9D01     		.uleb128 .LEHB211-.LFB1217
 8591 05d6 C002     		.uleb128 .LEHE211-.LEHB211
 8592 05d8 FD03     		.uleb128 .L397-.LFB1217
 8593 05da 00       		.uleb128 0
 8594 05db E703     		.uleb128 .LEHB212-.LFB1217
 8595 05dd 05       		.uleb128 .LEHE212-.LEHB212
 8596 05de 00       		.uleb128 0
 8597 05df 00       		.uleb128 0
 8598 05e0 9504     		.uleb128 .LEHB213-.LFB1217
 8599 05e2 05       		.uleb128 .LEHE213-.LEHB213
 8600 05e3 00       		.uleb128 0
 8601 05e4 00       		.uleb128 0
 8602              	.LLSDACSE1217:
 8603              		.section	.text._ZN8UnitTest15CheckArrayCloseIA3_fS1_fEEvRNS_11TestResultsERKT_RKT0_iRKT1_RKNS_11Te
 8605              		.section	.rodata
 8606              	.LC105:
 8607 0bf4 5B2000   		.string	"[ "
 8608              	.LC106:
 8609 0bf7 5D2000   		.string	"] "
 8610              		.section	.text._ZN8UnitTest17CheckArray2DCloseIA3_A3_fS2_fEEvRNS_11TestResultsERKT_RKT0_iiRKT1_RKN
 8611              		.weak	_ZN8UnitTest17CheckArray2DCloseIA3_A3_fS2_fEEvRNS_11TestResultsERKT_RKT0_iiRKT1_RKNS_11TestD
 8613              	_ZN8UnitTest17CheckArray2DCloseIA3_A3_fS2_fEEvRNS_11TestResultsERKT_RKT0_iiRKT1_RKNS_11TestDetailsE
 8614              	.LFB1218:
 117:../Checks.h   **** 
 118:../Checks.h   **** template< typename Expected, typename Actual, typename Tolerance >
 119:../Checks.h   **** void CheckArray2DClose(TestResults& results, Expected const& expected, Actual const& actual,
 8615              		.loc 6 119 0
 8616              		.cfi_startproc
 8617              		.cfi_personality 0x3,__gxx_personality_v0
 8618              		.cfi_lsda 0x3,.LLSDA1218
 8619 0000 55       		pushq	%rbp
 8620              		.cfi_def_cfa_offset 16
 8621              		.cfi_offset 6, -16
 8622 0001 4889E5   		movq	%rsp, %rbp
 8623              		.cfi_def_cfa_register 6
 8624 0004 53       		pushq	%rbx
 8625 0005 4881ECD8 		subq	$472, %rsp
 8625      010000
 8626              		.cfi_offset 3, -24
 8627 000c 4889BD58 		movq	%rdi, -424(%rbp)
 8627      FEFFFF
 8628 0013 4889B550 		movq	%rsi, -432(%rbp)
 8628      FEFFFF
 8629 001a 48899548 		movq	%rdx, -440(%rbp)
 8629      FEFFFF
 8630 0021 898D44FE 		movl	%ecx, -444(%rbp)
 8630      FFFF
 8631 0027 44898540 		movl	%r8d, -448(%rbp)
 8631      FEFFFF
 8632 002e 4C898D38 		movq	%r9, -456(%rbp)
 8632      FEFFFF
 8633 0035 488B4510 		movq	16(%rbp), %rax
 8634 0039 48898530 		movq	%rax, -464(%rbp)
 8634      FEFFFF
 8635              		.loc 6 119 0
 8636 0040 64488B04 		movq	%fs:40, %rax
 8636      25280000 
 8636      00
 8637 0049 488945E8 		movq	%rax, -24(%rbp)
 8638 004d 31C0     		xorl	%eax, %eax
 8639              	.LBB134:
 120:../Checks.h   ****                    int const rows, int const columns, Tolerance const& tolerance, TestDetails const
 121:../Checks.h   **** {
 122:../Checks.h   ****     bool equal = true;
 8640              		.loc 6 122 0
 8641 004f C6856BFE 		movb	$1, -405(%rbp)
 8641      FFFF01
 8642              	.LBB135:
 123:../Checks.h   ****     for (int i = 0; i < rows; ++i)
 8643              		.loc 6 123 0
 8644 0056 C7856CFE 		movl	$0, -404(%rbp)
 8644      FFFF0000 
 8644      0000
 8645 0060 EB77     		jmp	.L400
 8646              	.L401:
 124:../Checks.h   ****         equal &= ArrayAreClose(expected[i], actual[i], columns, tolerance);
 8647              		.loc 6 124 0 discriminator 3
 8648 0062 8B856CFE 		movl	-404(%rbp), %eax
 8648      FFFF
 8649 0068 4863D0   		movslq	%eax, %rdx
 8650 006b 4889D0   		movq	%rdx, %rax
 8651 006e 4801C0   		addq	%rax, %rax
 8652 0071 4801D0   		addq	%rdx, %rax
 8653 0074 48C1E002 		salq	$2, %rax
 8654 0078 488B9548 		movq	-440(%rbp), %rdx
 8654      FEFFFF
 8655 007f 488D3410 		leaq	(%rax,%rdx), %rsi
 8656 0083 8B856CFE 		movl	-404(%rbp), %eax
 8656      FFFF
 8657 0089 4863D0   		movslq	%eax, %rdx
 8658 008c 4889D0   		movq	%rdx, %rax
 8659 008f 4801C0   		addq	%rax, %rax
 8660 0092 4801D0   		addq	%rdx, %rax
 8661 0095 48C1E002 		salq	$2, %rax
 8662 0099 488B9550 		movq	-432(%rbp), %rdx
 8662      FEFFFF
 8663 00a0 488D3C10 		leaq	(%rax,%rdx), %rdi
 8664 00a4 488B9538 		movq	-456(%rbp), %rdx
 8664      FEFFFF
 8665 00ab 8B8540FE 		movl	-448(%rbp), %eax
 8665      FFFF
 8666 00b1 4889D1   		movq	%rdx, %rcx
 8667 00b4 89C2     		movl	%eax, %edx
 8668 00b6 E8000000 		call	_ZN8UnitTest13ArrayAreCloseIA3_fS1_fEEbRKT_RKT0_iRKT1_
 8668      00
 8669 00bb 0FB6956B 		movzbl	-405(%rbp), %edx
 8669      FEFFFF
 8670 00c2 0FB6C0   		movzbl	%al, %eax
 8671 00c5 21D0     		andl	%edx, %eax
 8672 00c7 85C0     		testl	%eax, %eax
 8673 00c9 0F95C0   		setne	%al
 8674 00cc 88856BFE 		movb	%al, -405(%rbp)
 8674      FFFF
 123:../Checks.h   ****     for (int i = 0; i < rows; ++i)
 8675              		.loc 6 123 0 discriminator 3
 8676 00d2 83856CFE 		addl	$1, -404(%rbp)
 8676      FFFF01
 8677              	.L400:
 123:../Checks.h   ****     for (int i = 0; i < rows; ++i)
 8678              		.loc 6 123 0 is_stmt 0 discriminator 1
 8679 00d9 8B856CFE 		movl	-404(%rbp), %eax
 8679      FFFF
 8680 00df 3B8544FE 		cmpl	-444(%rbp), %eax
 8680      FFFF
 8681 00e5 0F8C77FF 		jl	.L401
 8681      FFFF
 8682              	.LBE135:
 8683              	.LBB136:
 125:../Checks.h   **** 
 126:../Checks.h   ****     if (!equal)
 8684              		.loc 6 126 0 is_stmt 1
 8685 00eb 0FB6856B 		movzbl	-405(%rbp), %eax
 8685      FEFFFF
 8686 00f2 83F001   		xorl	$1, %eax
 8687 00f5 84C0     		testb	%al, %al
 8688 00f7 0F843702 		je	.L402
 8688      0000
 8689              	.LBB137:
 127:../Checks.h   ****     {
 128:../Checks.h   ****         UnitTest::MemoryOutStream stream;
 8690              		.loc 6 128 0
 8691 00fd 488D8580 		leaq	-384(%rbp), %rax
 8691      FEFFFF
 8692 0104 4889C7   		movq	%rax, %rdi
 8693              	.LEHB214:
 8694 0107 E8000000 		call	_ZN8UnitTest15MemoryOutStreamC1Ev
 8694      00
 8695              	.LEHE214:
 129:../Checks.h   **** 
 130:../Checks.h   ****         stream << "Expected [ ";    
 8696              		.loc 6 130 0
 8697 010c 488D8580 		leaq	-384(%rbp), %rax
 8697      FEFFFF
 8698 0113 BE000000 		movl	$.LC99, %esi
 8698      00
 8699 0118 4889C7   		movq	%rax, %rdi
 8700              	.LEHB215:
 8701 011b E8000000 		call	_ZStlsISt11char_traitsIcEERSt13basic_ostreamIcT_ES5_PKc
 8701      00
 8702              	.LBB138:
 131:../Checks.h   **** 
 132:../Checks.h   **** 		for (int expectedRow = 0; expectedRow < rows; ++expectedRow)
 8703              		.loc 6 132 0
 8704 0120 C78570FE 		movl	$0, -400(%rbp)
 8704      FFFF0000 
 8704      0000
 8705 012a E9A20000 		jmp	.L403
 8705      00
 8706              	.L406:
 8707              	.LBB139:
 133:../Checks.h   ****         {
 134:../Checks.h   ****             stream << "[ ";
 8708              		.loc 6 134 0
 8709 012f 488D8580 		leaq	-384(%rbp), %rax
 8709      FEFFFF
 8710 0136 BE000000 		movl	$.LC105, %esi
 8710      00
 8711 013b 4889C7   		movq	%rax, %rdi
 8712 013e E8000000 		call	_ZStlsISt11char_traitsIcEERSt13basic_ostreamIcT_ES5_PKc
 8712      00
 8713              	.LBB140:
 135:../Checks.h   ****             for (int expectedColumn = 0; expectedColumn < columns; ++expectedColumn)
 8714              		.loc 6 135 0
 8715 0143 C78574FE 		movl	$0, -396(%rbp)
 8715      FFFF0000 
 8715      0000
 8716 014d EB59     		jmp	.L404
 8717              	.L405:
 136:../Checks.h   ****                 stream << expected[expectedRow][expectedColumn] << " ";
 8718              		.loc 6 136 0
 8719 014f 488B8D50 		movq	-432(%rbp), %rcx
 8719      FEFFFF
 8720 0156 8B8574FE 		movl	-396(%rbp), %eax
 8720      FFFF
 8721 015c 4863F0   		movslq	%eax, %rsi
 8722 015f 8B8570FE 		movl	-400(%rbp), %eax
 8722      FFFF
 8723 0165 4863D0   		movslq	%eax, %rdx
 8724 0168 4889D0   		movq	%rdx, %rax
 8725 016b 4801C0   		addq	%rax, %rax
 8726 016e 4801D0   		addq	%rdx, %rax
 8727 0171 4801F0   		addq	%rsi, %rax
 8728 0174 8B1481   		movl	(%rcx,%rax,4), %edx
 8729 0177 488D8580 		leaq	-384(%rbp), %rax
 8729      FEFFFF
 8730 017e 89952CFE 		movl	%edx, -468(%rbp)
 8730      FFFF
 8731 0184 F30F1085 		movss	-468(%rbp), %xmm0
 8731      2CFEFFFF 
 8732 018c 4889C7   		movq	%rax, %rdi
 8733 018f E8000000 		call	_ZNSolsEf
 8733      00
 8734 0194 BE000000 		movl	$.LC100, %esi
 8734      00
 8735 0199 4889C7   		movq	%rax, %rdi
 8736 019c E8000000 		call	_ZStlsISt11char_traitsIcEERSt13basic_ostreamIcT_ES5_PKc
 8736      00
 135:../Checks.h   ****             for (int expectedColumn = 0; expectedColumn < columns; ++expectedColumn)
 8737              		.loc 6 135 0 discriminator 2
 8738 01a1 838574FE 		addl	$1, -396(%rbp)
 8738      FFFF01
 8739              	.L404:
 135:../Checks.h   ****             for (int expectedColumn = 0; expectedColumn < columns; ++expectedColumn)
 8740              		.loc 6 135 0 is_stmt 0 discriminator 1
 8741 01a8 8B8574FE 		movl	-396(%rbp), %eax
 8741      FFFF
 8742 01ae 3B8540FE 		cmpl	-448(%rbp), %eax
 8742      FFFF
 8743 01b4 7C99     		jl	.L405
 8744              	.LBE140:
 137:../Checks.h   ****             stream << "] ";
 8745              		.loc 6 137 0 is_stmt 1
 8746 01b6 488D8580 		leaq	-384(%rbp), %rax
 8746      FEFFFF
 8747 01bd BE000000 		movl	$.LC106, %esi
 8747      00
 8748 01c2 4889C7   		movq	%rax, %rdi
 8749 01c5 E8000000 		call	_ZStlsISt11char_traitsIcEERSt13basic_ostreamIcT_ES5_PKc
 8749      00
 8750              	.LBE139:
 132:../Checks.h   ****         {
 8751              		.loc 6 132 0 discriminator 2
 8752 01ca 838570FE 		addl	$1, -400(%rbp)
 8752      FFFF01
 8753              	.L403:
 132:../Checks.h   ****         {
 8754              		.loc 6 132 0 is_stmt 0 discriminator 1
 8755 01d1 8B8570FE 		movl	-400(%rbp), %eax
 8755      FFFF
 8756 01d7 3B8544FE 		cmpl	-444(%rbp), %eax
 8756      FFFF
 8757 01dd 0F8C4CFF 		jl	.L406
 8757      FFFF
 8758              	.LBE138:
 138:../Checks.h   ****         }
 139:../Checks.h   **** 
 140:../Checks.h   **** 		stream << "] +/- " << tolerance << " but was [ ";
 8759              		.loc 6 140 0 is_stmt 1
 8760 01e3 488B8538 		movq	-456(%rbp), %rax
 8760      FEFFFF
 8761 01ea 8B18     		movl	(%rax), %ebx
 8762 01ec 488D8580 		leaq	-384(%rbp), %rax
 8762      FEFFFF
 8763 01f3 BE000000 		movl	$.LC103, %esi
 8763      00
 8764 01f8 4889C7   		movq	%rax, %rdi
 8765 01fb E8000000 		call	_ZStlsISt11char_traitsIcEERSt13basic_ostreamIcT_ES5_PKc
 8765      00
 8766 0200 899D2CFE 		movl	%ebx, -468(%rbp)
 8766      FFFF
 8767 0206 F30F1085 		movss	-468(%rbp), %xmm0
 8767      2CFEFFFF 
 8768 020e 4889C7   		movq	%rax, %rdi
 8769 0211 E8000000 		call	_ZNSolsEf
 8769      00
 8770              		.loc 6 140 0 is_stmt 0 discriminator 1
 8771 0216 BE000000 		movl	$.LC104, %esi
 8771      00
 8772 021b 4889C7   		movq	%rax, %rdi
 8773 021e E8000000 		call	_ZStlsISt11char_traitsIcEERSt13basic_ostreamIcT_ES5_PKc
 8773      00
 8774              	.LBB141:
 141:../Checks.h   **** 
 142:../Checks.h   **** 		for (int actualRow = 0; actualRow < rows; ++actualRow)
 8775              		.loc 6 142 0 is_stmt 1
 8776 0223 C78578FE 		movl	$0, -392(%rbp)
 8776      FFFF0000 
 8776      0000
 8777 022d E9A20000 		jmp	.L407
 8777      00
 8778              	.L410:
 8779              	.LBB142:
 143:../Checks.h   ****         {
 144:../Checks.h   ****             stream << "[ ";
 8780              		.loc 6 144 0
 8781 0232 488D8580 		leaq	-384(%rbp), %rax
 8781      FEFFFF
 8782 0239 BE000000 		movl	$.LC105, %esi
 8782      00
 8783 023e 4889C7   		movq	%rax, %rdi
 8784 0241 E8000000 		call	_ZStlsISt11char_traitsIcEERSt13basic_ostreamIcT_ES5_PKc
 8784      00
 8785              	.LBB143:
 145:../Checks.h   ****             for (int actualColumn = 0; actualColumn < columns; ++actualColumn)
 8786              		.loc 6 145 0
 8787 0246 C7857CFE 		movl	$0, -388(%rbp)
 8787      FFFF0000 
 8787      0000
 8788 0250 EB59     		jmp	.L408
 8789              	.L409:
 146:../Checks.h   ****                 stream << actual[actualRow][actualColumn] << " ";
 8790              		.loc 6 146 0
 8791 0252 488B8D48 		movq	-440(%rbp), %rcx
 8791      FEFFFF
 8792 0259 8B857CFE 		movl	-388(%rbp), %eax
 8792      FFFF
 8793 025f 4863F0   		movslq	%eax, %rsi
 8794 0262 8B8578FE 		movl	-392(%rbp), %eax
 8794      FFFF
 8795 0268 4863D0   		movslq	%eax, %rdx
 8796 026b 4889D0   		movq	%rdx, %rax
 8797 026e 4801C0   		addq	%rax, %rax
 8798 0271 4801D0   		addq	%rdx, %rax
 8799 0274 4801F0   		addq	%rsi, %rax
 8800 0277 8B1481   		movl	(%rcx,%rax,4), %edx
 8801 027a 488D8580 		leaq	-384(%rbp), %rax
 8801      FEFFFF
 8802 0281 89952CFE 		movl	%edx, -468(%rbp)
 8802      FFFF
 8803 0287 F30F1085 		movss	-468(%rbp), %xmm0
 8803      2CFEFFFF 
 8804 028f 4889C7   		movq	%rax, %rdi
 8805 0292 E8000000 		call	_ZNSolsEf
 8805      00
 8806 0297 BE000000 		movl	$.LC100, %esi
 8806      00
 8807 029c 4889C7   		movq	%rax, %rdi
 8808 029f E8000000 		call	_ZStlsISt11char_traitsIcEERSt13basic_ostreamIcT_ES5_PKc
 8808      00
 145:../Checks.h   ****             for (int actualColumn = 0; actualColumn < columns; ++actualColumn)
 8809              		.loc 6 145 0 discriminator 2
 8810 02a4 83857CFE 		addl	$1, -388(%rbp)
 8810      FFFF01
 8811              	.L408:
 145:../Checks.h   ****             for (int actualColumn = 0; actualColumn < columns; ++actualColumn)
 8812              		.loc 6 145 0 is_stmt 0 discriminator 1
 8813 02ab 8B857CFE 		movl	-388(%rbp), %eax
 8813      FFFF
 8814 02b1 3B8540FE 		cmpl	-448(%rbp), %eax
 8814      FFFF
 8815 02b7 7C99     		jl	.L409
 8816              	.LBE143:
 147:../Checks.h   ****             stream << "] ";
 8817              		.loc 6 147 0 is_stmt 1
 8818 02b9 488D8580 		leaq	-384(%rbp), %rax
 8818      FEFFFF
 8819 02c0 BE000000 		movl	$.LC106, %esi
 8819      00
 8820 02c5 4889C7   		movq	%rax, %rdi
 8821 02c8 E8000000 		call	_ZStlsISt11char_traitsIcEERSt13basic_ostreamIcT_ES5_PKc
 8821      00
 8822              	.LBE142:
 142:../Checks.h   ****         {
 8823              		.loc 6 142 0 discriminator 2
 8824 02cd 838578FE 		addl	$1, -392(%rbp)
 8824      FFFF01
 8825              	.L407:
 142:../Checks.h   ****         {
 8826              		.loc 6 142 0 is_stmt 0 discriminator 1
 8827 02d4 8B8578FE 		movl	-392(%rbp), %eax
 8827      FFFF
 8828 02da 3B8544FE 		cmpl	-444(%rbp), %eax
 8828      FFFF
 8829 02e0 0F8C4CFF 		jl	.L410
 8829      FFFF
 8830              	.LBE141:
 148:../Checks.h   ****         }
 149:../Checks.h   **** 
 150:../Checks.h   **** 		stream << "]";
 8831              		.loc 6 150 0 is_stmt 1
 8832 02e6 488D8580 		leaq	-384(%rbp), %rax
 8832      FEFFFF
 8833 02ed BE000000 		movl	$.LC102, %esi
 8833      00
 8834 02f2 4889C7   		movq	%rax, %rdi
 8835 02f5 E8000000 		call	_ZStlsISt11char_traitsIcEERSt13basic_ostreamIcT_ES5_PKc
 8835      00
 151:../Checks.h   **** 
 152:../Checks.h   ****         results.OnTestFailure(details, stream.GetText());
 8836              		.loc 6 152 0
 8837 02fa 488D8580 		leaq	-384(%rbp), %rax
 8837      FEFFFF
 8838 0301 4889C7   		movq	%rax, %rdi
 8839 0304 E8000000 		call	_ZNK8UnitTest15MemoryOutStream7GetTextEv
 8839      00
 8840 0309 4889C2   		movq	%rax, %rdx
 8841 030c 488B8D30 		movq	-464(%rbp), %rcx
 8841      FEFFFF
 8842 0313 488B8558 		movq	-424(%rbp), %rax
 8842      FEFFFF
 8843 031a 4889CE   		movq	%rcx, %rsi
 8844 031d 4889C7   		movq	%rax, %rdi
 8845 0320 E8000000 		call	_ZN8UnitTest11TestResults13OnTestFailureERKNS_11TestDetailsEPKc
 8845      00
 8846              	.LEHE215:
 8847              		.loc 6 152 0 is_stmt 0 discriminator 4
 8848 0325 488D8580 		leaq	-384(%rbp), %rax
 8848      FEFFFF
 8849 032c 4889C7   		movq	%rax, %rdi
 8850              	.LEHB216:
 8851 032f E8000000 		call	_ZN8UnitTest15MemoryOutStreamD1Ev
 8851      00
 8852              	.LEHE216:
 8853              	.L402:
 8854              	.LBE137:
 8855              	.LBE136:
 8856              	.LBE134:
 153:../Checks.h   ****     }
 154:../Checks.h   **** }
 8857              		.loc 6 154 0 is_stmt 1
 8858 0334 488B45E8 		movq	-24(%rbp), %rax
 8859 0338 64483304 		xorq	%fs:40, %rax
 8859      25280000 
 8859      00
 8860 0341 7424     		je	.L412
 8861 0343 EB1D     		jmp	.L414
 8862              	.L413:
 8863 0345 4889C3   		movq	%rax, %rbx
 8864              	.LBB146:
 8865              	.LBB145:
 8866              	.LBB144:
 152:../Checks.h   ****     }
 8867              		.loc 6 152 0
 8868 0348 488D8580 		leaq	-384(%rbp), %rax
 8868      FEFFFF
 8869 034f 4889C7   		movq	%rax, %rdi
 8870 0352 E8000000 		call	_ZN8UnitTest15MemoryOutStreamD1Ev
 8870      00
 8871 0357 4889D8   		movq	%rbx, %rax
 8872 035a 4889C7   		movq	%rax, %rdi
 8873              	.LEHB217:
 8874 035d E8000000 		call	_Unwind_Resume
 8874      00
 8875              	.LEHE217:
 8876              	.L414:
 8877              	.LBE144:
 8878              	.LBE145:
 8879              	.LBE146:
 8880              		.loc 6 154 0
 8881 0362 E8000000 		call	__stack_chk_fail
 8881      00
 8882              	.L412:
 8883 0367 4881C4D8 		addq	$472, %rsp
 8883      010000
 8884 036e 5B       		popq	%rbx
 8885 036f 5D       		popq	%rbp
 8886              		.cfi_def_cfa 7, 8
 8887 0370 C3       		ret
 8888              		.cfi_endproc
 8889              	.LFE1218:
 8890              		.section	.gcc_except_table
 8891              	.LLSDA1218:
 8892 05e5 FF       		.byte	0xff
 8893 05e6 FF       		.byte	0xff
 8894 05e7 01       		.byte	0x1
 8895 05e8 16       		.uleb128 .LLSDACSE1218-.LLSDACSB1218
 8896              	.LLSDACSB1218:
 8897 05e9 8702     		.uleb128 .LEHB214-.LFB1218
 8898 05eb 05       		.uleb128 .LEHE214-.LEHB214
 8899 05ec 00       		.uleb128 0
 8900 05ed 00       		.uleb128 0
 8901 05ee 9B02     		.uleb128 .LEHB215-.LFB1218
 8902 05f0 8A04     		.uleb128 .LEHE215-.LEHB215
 8903 05f2 C506     		.uleb128 .L413-.LFB1218
 8904 05f4 00       		.uleb128 0
 8905 05f5 AF06     		.uleb128 .LEHB216-.LFB1218
 8906 05f7 05       		.uleb128 .LEHE216-.LEHB216
 8907 05f8 00       		.uleb128 0
 8908 05f9 00       		.uleb128 0
 8909 05fa DD06     		.uleb128 .LEHB217-.LFB1218
 8910 05fc 05       		.uleb128 .LEHE217-.LEHB217
 8911 05fd 00       		.uleb128 0
 8912 05fe 00       		.uleb128 0
 8913              	.LLSDACSE1218:
 8914              		.section	.text._ZN8UnitTest17CheckArray2DCloseIA3_A3_fS2_fEEvRNS_11TestResultsERKT_RKT0_iiRKT1_RKN
 8916              		.section	.text._ZN8UnitTest10CheckCloseIdddEEvRNS_11TestResultsERKT_RKT0_RKT1_RKNS_11TestDetailsE,
 8917              		.weak	_ZN8UnitTest10CheckCloseIdddEEvRNS_11TestResultsERKT_RKT0_RKT1_RKNS_11TestDetailsE
 8919              	_ZN8UnitTest10CheckCloseIdddEEvRNS_11TestResultsERKT_RKT0_RKT1_RKNS_11TestDetailsE:
 8920              	.LFB1219:
  45:../Checks.h   ****                 TestDetails const& details)
 8921              		.loc 6 45 0
 8922              		.cfi_startproc
 8923              		.cfi_personality 0x3,__gxx_personality_v0
 8924              		.cfi_lsda 0x3,.LLSDA1219
 8925 0000 55       		pushq	%rbp
 8926              		.cfi_def_cfa_offset 16
 8927              		.cfi_offset 6, -16
 8928 0001 4889E5   		movq	%rsp, %rbp
 8929              		.cfi_def_cfa_register 6
 8930 0004 4155     		pushq	%r13
 8931 0006 4154     		pushq	%r12
 8932 0008 53       		pushq	%rbx
 8933 0009 4881ECA8 		subq	$424, %rsp
 8933      010000
 8934              		.cfi_offset 13, -24
 8935              		.cfi_offset 12, -32
 8936              		.cfi_offset 3, -40
 8937 0010 4889BD68 		movq	%rdi, -408(%rbp)
 8937      FEFFFF
 8938 0017 4889B560 		movq	%rsi, -416(%rbp)
 8938      FEFFFF
 8939 001e 48899558 		movq	%rdx, -424(%rbp)
 8939      FEFFFF
 8940 0025 48898D50 		movq	%rcx, -432(%rbp)
 8940      FEFFFF
 8941 002c 4C898548 		movq	%r8, -440(%rbp)
 8941      FEFFFF
  45:../Checks.h   ****                 TestDetails const& details)
 8942              		.loc 6 45 0
 8943 0033 64488B04 		movq	%fs:40, %rax
 8943      25280000 
 8943      00
 8944 003c 488945D8 		movq	%rax, -40(%rbp)
 8945 0040 31C0     		xorl	%eax, %eax
 8946              	.LBB147:
 8947              	.LBB148:
  48:../Checks.h   ****     { 
 8948              		.loc 6 48 0
 8949 0042 488B9550 		movq	-432(%rbp), %rdx
 8949      FEFFFF
 8950 0049 488B8D58 		movq	-424(%rbp), %rcx
 8950      FEFFFF
 8951 0050 488B8560 		movq	-416(%rbp), %rax
 8951      FEFFFF
 8952 0057 4889CE   		movq	%rcx, %rsi
 8953 005a 4889C7   		movq	%rax, %rdi
 8954 005d E8000000 		call	_ZN8UnitTest8AreCloseIdddEEbRKT_RKT0_RKT1_
 8954      00
 8955 0062 83F001   		xorl	$1, %eax
 8956 0065 84C0     		testb	%al, %al
 8957 0067 0F84DA00 		je	.L416
 8957      0000
 8958              	.LBB149:
  50:../Checks.h   ****         stream << "Expected " << expected << " +/- " << tolerance << " but was " << actual;
 8959              		.loc 6 50 0
 8960 006d 488D8570 		leaq	-400(%rbp), %rax
 8960      FEFFFF
 8961 0074 4889C7   		movq	%rax, %rdi
 8962              	.LEHB218:
 8963 0077 E8000000 		call	_ZN8UnitTest15MemoryOutStreamC1Ev
 8963      00
 8964              	.LEHE218:
  51:../Checks.h   **** 
 8965              		.loc 6 51 0
 8966 007c 488B8558 		movq	-424(%rbp), %rax
 8966      FEFFFF
 8967 0083 488B18   		movq	(%rax), %rbx
 8968 0086 488B8550 		movq	-432(%rbp), %rax
 8968      FEFFFF
 8969 008d 4C8B20   		movq	(%rax), %r12
 8970 0090 488B8560 		movq	-416(%rbp), %rax
 8970      FEFFFF
 8971 0097 4C8B28   		movq	(%rax), %r13
 8972 009a 488D8570 		leaq	-400(%rbp), %rax
 8972      FEFFFF
 8973 00a1 BE000000 		movl	$.LC96, %esi
 8973      00
 8974 00a6 4889C7   		movq	%rax, %rdi
 8975              	.LEHB219:
 8976 00a9 E8000000 		call	_ZStlsISt11char_traitsIcEERSt13basic_ostreamIcT_ES5_PKc
 8976      00
 8977 00ae 4C89AD40 		movq	%r13, -448(%rbp)
 8977      FEFFFF
 8978 00b5 F20F1085 		movsd	-448(%rbp), %xmm0
 8978      40FEFFFF 
 8979 00bd 4889C7   		movq	%rax, %rdi
 8980 00c0 E8000000 		call	_ZNSolsEd
 8980      00
  51:../Checks.h   **** 
 8981              		.loc 6 51 0 is_stmt 0 discriminator 1
 8982 00c5 BE000000 		movl	$.LC98, %esi
 8982      00
 8983 00ca 4889C7   		movq	%rax, %rdi
 8984 00cd E8000000 		call	_ZStlsISt11char_traitsIcEERSt13basic_ostreamIcT_ES5_PKc
 8984      00
  51:../Checks.h   **** 
 8985              		.loc 6 51 0 discriminator 2
 8986 00d2 4C89A540 		movq	%r12, -448(%rbp)
 8986      FEFFFF
 8987 00d9 F20F1085 		movsd	-448(%rbp), %xmm0
 8987      40FEFFFF 
 8988 00e1 4889C7   		movq	%rax, %rdi
 8989 00e4 E8000000 		call	_ZNSolsEd
 8989      00
  51:../Checks.h   **** 
 8990              		.loc 6 51 0 discriminator 3
 8991 00e9 BE000000 		movl	$.LC97, %esi
 8991      00
 8992 00ee 4889C7   		movq	%rax, %rdi
 8993 00f1 E8000000 		call	_ZStlsISt11char_traitsIcEERSt13basic_ostreamIcT_ES5_PKc
 8993      00
  51:../Checks.h   **** 
 8994              		.loc 6 51 0 discriminator 4
 8995 00f6 48899D40 		movq	%rbx, -448(%rbp)
 8995      FEFFFF
 8996 00fd F20F1085 		movsd	-448(%rbp), %xmm0
 8996      40FEFFFF 
 8997 0105 4889C7   		movq	%rax, %rdi
 8998 0108 E8000000 		call	_ZNSolsEd
 8998      00
  53:../Checks.h   ****     }
 8999              		.loc 6 53 0 is_stmt 1
 9000 010d 488D8570 		leaq	-400(%rbp), %rax
 9000      FEFFFF
 9001 0114 4889C7   		movq	%rax, %rdi
 9002 0117 E8000000 		call	_ZNK8UnitTest15MemoryOutStream7GetTextEv
 9002      00
 9003 011c 4889C2   		movq	%rax, %rdx
 9004 011f 488B8D48 		movq	-440(%rbp), %rcx
 9004      FEFFFF
 9005 0126 488B8568 		movq	-408(%rbp), %rax
 9005      FEFFFF
 9006 012d 4889CE   		movq	%rcx, %rsi
 9007 0130 4889C7   		movq	%rax, %rdi
 9008 0133 E8000000 		call	_ZN8UnitTest11TestResults13OnTestFailureERKNS_11TestDetailsEPKc
 9008      00
 9009              	.LEHE219:
  53:../Checks.h   ****     }
 9010              		.loc 6 53 0 is_stmt 0 discriminator 4
 9011 0138 488D8570 		leaq	-400(%rbp), %rax
 9011      FEFFFF
 9012 013f 4889C7   		movq	%rax, %rdi
 9013              	.LEHB220:
 9014 0142 E8000000 		call	_ZN8UnitTest15MemoryOutStreamD1Ev
 9014      00
 9015              	.LEHE220:
 9016              	.L416:
 9017              	.LBE149:
 9018              	.LBE148:
 9019              	.LBE147:
  55:../Checks.h   **** 
 9020              		.loc 6 55 0 is_stmt 1
 9021 0147 488B45D8 		movq	-40(%rbp), %rax
 9022 014b 64483304 		xorq	%fs:40, %rax
 9022      25280000 
 9022      00
 9023 0154 7424     		je	.L418
 9024 0156 EB1D     		jmp	.L420
 9025              	.L419:
 9026 0158 4889C3   		movq	%rax, %rbx
 9027              	.LBB152:
 9028              	.LBB151:
 9029              	.LBB150:
  53:../Checks.h   ****     }
 9030              		.loc 6 53 0
 9031 015b 488D8570 		leaq	-400(%rbp), %rax
 9031      FEFFFF
 9032 0162 4889C7   		movq	%rax, %rdi
 9033 0165 E8000000 		call	_ZN8UnitTest15MemoryOutStreamD1Ev
 9033      00
 9034 016a 4889D8   		movq	%rbx, %rax
 9035 016d 4889C7   		movq	%rax, %rdi
 9036              	.LEHB221:
 9037 0170 E8000000 		call	_Unwind_Resume
 9037      00
 9038              	.LEHE221:
 9039              	.L420:
 9040              	.LBE150:
 9041              	.LBE151:
 9042              	.LBE152:
  55:../Checks.h   **** 
 9043              		.loc 6 55 0
 9044 0175 E8000000 		call	__stack_chk_fail
 9044      00
 9045              	.L418:
 9046 017a 4881C4A8 		addq	$424, %rsp
 9046      010000
 9047 0181 5B       		popq	%rbx
 9048 0182 415C     		popq	%r12
 9049 0184 415D     		popq	%r13
 9050 0186 5D       		popq	%rbp
 9051              		.cfi_def_cfa 7, 8
 9052 0187 C3       		ret
 9053              		.cfi_endproc
 9054              	.LFE1219:
 9055              		.section	.gcc_except_table
 9056              	.LLSDA1219:
 9057 05ff FF       		.byte	0xff
 9058 0600 FF       		.byte	0xff
 9059 0601 01       		.byte	0x1
 9060 0602 15       		.uleb128 .LLSDACSE1219-.LLSDACSB1219
 9061              	.LLSDACSB1219:
 9062 0603 77       		.uleb128 .LEHB218-.LFB1219
 9063 0604 05       		.uleb128 .LEHE218-.LEHB218
 9064 0605 00       		.uleb128 0
 9065 0606 00       		.uleb128 0
 9066 0607 A901     		.uleb128 .LEHB219-.LFB1219
 9067 0609 8F01     		.uleb128 .LEHE219-.LEHB219
 9068 060b D802     		.uleb128 .L419-.LFB1219
 9069 060d 00       		.uleb128 0
 9070 060e C202     		.uleb128 .LEHB220-.LFB1219
 9071 0610 05       		.uleb128 .LEHE220-.LEHB220
 9072 0611 00       		.uleb128 0
 9073 0612 00       		.uleb128 0
 9074 0613 F002     		.uleb128 .LEHB221-.LFB1219
 9075 0615 05       		.uleb128 .LEHE221-.LEHB221
 9076 0616 00       		.uleb128 0
 9077 0617 00       		.uleb128 0
 9078              	.LLSDACSE1219:
 9079              		.section	.text._ZN8UnitTest10CheckCloseIdddEEvRNS_11TestResultsERKT_RKT0_RKT1_RKNS_11TestDetailsE,
 9081              		.section	.text._ZN8UnitTest8AreCloseIfffEEbRKT_RKT0_RKT1_,"axG",@progbits,_ZN8UnitTest8AreCloseIff
 9082              		.weak	_ZN8UnitTest8AreCloseIfffEEbRKT_RKT0_RKT1_
 9084              	_ZN8UnitTest8AreCloseIfffEEbRKT_RKT0_RKT1_:
 9085              	.LFB1250:
  39:../Checks.h   **** {
 9086              		.loc 6 39 0
 9087              		.cfi_startproc
 9088 0000 55       		pushq	%rbp
 9089              		.cfi_def_cfa_offset 16
 9090              		.cfi_offset 6, -16
 9091 0001 4889E5   		movq	%rsp, %rbp
 9092              		.cfi_def_cfa_register 6
 9093 0004 48897DF8 		movq	%rdi, -8(%rbp)
 9094 0008 488975F0 		movq	%rsi, -16(%rbp)
 9095 000c 488955E8 		movq	%rdx, -24(%rbp)
  41:../Checks.h   **** }
 9096              		.loc 6 41 0
 9097 0010 488B45F0 		movq	-16(%rbp), %rax
 9098 0014 F30F1008 		movss	(%rax), %xmm1
 9099 0018 488B45F8 		movq	-8(%rbp), %rax
 9100 001c F30F1000 		movss	(%rax), %xmm0
 9101 0020 488B45E8 		movq	-24(%rbp), %rax
 9102 0024 F30F1010 		movss	(%rax), %xmm2
 9103 0028 F30F5CC2 		subss	%xmm2, %xmm0
 9104 002c 0F2EC8   		ucomiss	%xmm0, %xmm1
 9105 002f 7228     		jb	.L422
  41:../Checks.h   **** }
 9106              		.loc 6 41 0 is_stmt 0 discriminator 1
 9107 0031 488B45F0 		movq	-16(%rbp), %rax
 9108 0035 F30F1008 		movss	(%rax), %xmm1
 9109 0039 488B45F8 		movq	-8(%rbp), %rax
 9110 003d F30F1010 		movss	(%rax), %xmm2
 9111 0041 488B45E8 		movq	-24(%rbp), %rax
 9112 0045 F30F1000 		movss	(%rax), %xmm0
 9113 0049 F30F58C2 		addss	%xmm2, %xmm0
 9114 004d 0F2EC1   		ucomiss	%xmm1, %xmm0
 9115 0050 7207     		jb	.L422
  41:../Checks.h   **** }
 9116              		.loc 6 41 0 discriminator 3
 9117 0052 B8010000 		movl	$1, %eax
 9117      00
 9118 0057 EB05     		jmp	.L426
 9119              	.L422:
  41:../Checks.h   **** }
 9120              		.loc 6 41 0 discriminator 4
 9121 0059 B8000000 		movl	$0, %eax
 9121      00
 9122              	.L426:
  42:../Checks.h   **** 
 9123              		.loc 6 42 0 is_stmt 1 discriminator 7
 9124 005e 5D       		popq	%rbp
 9125              		.cfi_def_cfa 7, 8
 9126 005f C3       		ret
 9127              		.cfi_endproc
 9128              	.LFE1250:
 9130              		.section	.text._ZN8UnitTest8AreCloseIffiEEbRKT_RKT0_RKT1_,"axG",@progbits,_ZN8UnitTest8AreCloseIff
 9131              		.weak	_ZN8UnitTest8AreCloseIffiEEbRKT_RKT0_RKT1_
 9133              	_ZN8UnitTest8AreCloseIffiEEbRKT_RKT0_RKT1_:
 9134              	.LFB1252:
  39:../Checks.h   **** {
 9135              		.loc 6 39 0
 9136              		.cfi_startproc
 9137 0000 55       		pushq	%rbp
 9138              		.cfi_def_cfa_offset 16
 9139              		.cfi_offset 6, -16
 9140 0001 4889E5   		movq	%rsp, %rbp
 9141              		.cfi_def_cfa_register 6
 9142 0004 48897DF8 		movq	%rdi, -8(%rbp)
 9143 0008 488975F0 		movq	%rsi, -16(%rbp)
 9144 000c 488955E8 		movq	%rdx, -24(%rbp)
  41:../Checks.h   **** }
 9145              		.loc 6 41 0
 9146 0010 488B45F0 		movq	-16(%rbp), %rax
 9147 0014 F30F1008 		movss	(%rax), %xmm1
 9148 0018 488B45F8 		movq	-8(%rbp), %rax
 9149 001c F30F1010 		movss	(%rax), %xmm2
 9150 0020 488B45E8 		movq	-24(%rbp), %rax
 9151 0024 8B00     		movl	(%rax), %eax
 9152 0026 660FEFC0 		pxor	%xmm0, %xmm0
 9153 002a F30F2AC0 		cvtsi2ss	%eax, %xmm0
 9154 002e F30F5CD0 		subss	%xmm0, %xmm2
 9155 0032 0F28C2   		movaps	%xmm2, %xmm0
 9156 0035 0F2EC8   		ucomiss	%xmm0, %xmm1
 9157 0038 722E     		jb	.L430
  41:../Checks.h   **** }
 9158              		.loc 6 41 0 is_stmt 0 discriminator 1
 9159 003a 488B45F0 		movq	-16(%rbp), %rax
 9160 003e F30F1008 		movss	(%rax), %xmm1
 9161 0042 488B45F8 		movq	-8(%rbp), %rax
 9162 0046 F30F1010 		movss	(%rax), %xmm2
 9163 004a 488B45E8 		movq	-24(%rbp), %rax
 9164 004e 8B00     		movl	(%rax), %eax
 9165 0050 660FEFC0 		pxor	%xmm0, %xmm0
 9166 0054 F30F2AC0 		cvtsi2ss	%eax, %xmm0
 9167 0058 F30F58C2 		addss	%xmm2, %xmm0
 9168 005c 0F2EC1   		ucomiss	%xmm1, %xmm0
 9169 005f 7207     		jb	.L430
  41:../Checks.h   **** }
 9170              		.loc 6 41 0 discriminator 3
 9171 0061 B8010000 		movl	$1, %eax
 9171      00
 9172 0066 EB05     		jmp	.L434
 9173              	.L430:
  41:../Checks.h   **** }
 9174              		.loc 6 41 0 discriminator 4
 9175 0068 B8000000 		movl	$0, %eax
 9175      00
 9176              	.L434:
  42:../Checks.h   **** 
 9177              		.loc 6 42 0 is_stmt 1 discriminator 7
 9178 006d 5D       		popq	%rbp
 9179              		.cfi_def_cfa 7, 8
 9180 006e C3       		ret
 9181              		.cfi_endproc
 9182              	.LFE1252:
 9184              		.section	.text._ZN8UnitTest8AreCloseIiifEEbRKT_RKT0_RKT1_,"axG",@progbits,_ZN8UnitTest8AreCloseIii
 9185              		.weak	_ZN8UnitTest8AreCloseIiifEEbRKT_RKT0_RKT1_
 9187              	_ZN8UnitTest8AreCloseIiifEEbRKT_RKT0_RKT1_:
 9188              	.LFB1253:
  39:../Checks.h   **** {
 9189              		.loc 6 39 0
 9190              		.cfi_startproc
 9191 0000 55       		pushq	%rbp
 9192              		.cfi_def_cfa_offset 16
 9193              		.cfi_offset 6, -16
 9194 0001 4889E5   		movq	%rsp, %rbp
 9195              		.cfi_def_cfa_register 6
 9196 0004 48897DF8 		movq	%rdi, -8(%rbp)
 9197 0008 488975F0 		movq	%rsi, -16(%rbp)
 9198 000c 488955E8 		movq	%rdx, -24(%rbp)
  41:../Checks.h   **** }
 9199              		.loc 6 41 0
 9200 0010 488B45F0 		movq	-16(%rbp), %rax
 9201 0014 8B00     		movl	(%rax), %eax
 9202 0016 660FEFC0 		pxor	%xmm0, %xmm0
 9203 001a F30F2AC0 		cvtsi2ss	%eax, %xmm0
 9204 001e 488B45F8 		movq	-8(%rbp), %rax
 9205 0022 8B00     		movl	(%rax), %eax
 9206 0024 660FEFC9 		pxor	%xmm1, %xmm1
 9207 0028 F30F2AC8 		cvtsi2ss	%eax, %xmm1
 9208 002c 488B45E8 		movq	-24(%rbp), %rax
 9209 0030 F30F1010 		movss	(%rax), %xmm2
 9210 0034 F30F5CCA 		subss	%xmm2, %xmm1
 9211 0038 0F2EC1   		ucomiss	%xmm1, %xmm0
 9212 003b 7234     		jb	.L438
  41:../Checks.h   **** }
 9213              		.loc 6 41 0 is_stmt 0 discriminator 1
 9214 003d 488B45F0 		movq	-16(%rbp), %rax
 9215 0041 8B00     		movl	(%rax), %eax
 9216 0043 660FEFC9 		pxor	%xmm1, %xmm1
 9217 0047 F30F2AC8 		cvtsi2ss	%eax, %xmm1
 9218 004b 488B45F8 		movq	-8(%rbp), %rax
 9219 004f 8B00     		movl	(%rax), %eax
 9220 0051 660FEFC0 		pxor	%xmm0, %xmm0
 9221 0055 F30F2AC0 		cvtsi2ss	%eax, %xmm0
 9222 0059 488B45E8 		movq	-24(%rbp), %rax
 9223 005d F30F1010 		movss	(%rax), %xmm2
 9224 0061 F30F58C2 		addss	%xmm2, %xmm0
 9225 0065 0F2EC1   		ucomiss	%xmm1, %xmm0
 9226 0068 7207     		jb	.L438
  41:../Checks.h   **** }
 9227              		.loc 6 41 0 discriminator 3
 9228 006a B8010000 		movl	$1, %eax
 9228      00
 9229 006f EB05     		jmp	.L442
 9230              	.L438:
  41:../Checks.h   **** }
 9231              		.loc 6 41 0 discriminator 4
 9232 0071 B8000000 		movl	$0, %eax
 9232      00
 9233              	.L442:
  42:../Checks.h   **** 
 9234              		.loc 6 42 0 is_stmt 1 discriminator 7
 9235 0076 5D       		popq	%rbp
 9236              		.cfi_def_cfa 7, 8
 9237 0077 C3       		ret
 9238              		.cfi_endproc
 9239              	.LFE1253:
 9241              		.section	.text._ZN8UnitTest13ArrayAreCloseIA3_fS1_fEEbRKT_RKT0_iRKT1_,"axG",@progbits,_ZN8UnitTest
 9242              		.weak	_ZN8UnitTest13ArrayAreCloseIA3_fS1_fEEbRKT_RKT0_iRKT1_
 9244              	_ZN8UnitTest13ArrayAreCloseIA3_fS1_fEEbRKT_RKT0_iRKT1_:
 9245              	.LFB1254:
  87:../Checks.h   **** {
 9246              		.loc 6 87 0
 9247              		.cfi_startproc
 9248 0000 55       		pushq	%rbp
 9249              		.cfi_def_cfa_offset 16
 9250              		.cfi_offset 6, -16
 9251 0001 4889E5   		movq	%rsp, %rbp
 9252              		.cfi_def_cfa_register 6
 9253 0004 4883EC30 		subq	$48, %rsp
 9254 0008 48897DE8 		movq	%rdi, -24(%rbp)
 9255 000c 488975E0 		movq	%rsi, -32(%rbp)
 9256 0010 8955DC   		movl	%edx, -36(%rbp)
 9257 0013 48894DD0 		movq	%rcx, -48(%rbp)
 9258              	.LBB153:
  89:../Checks.h   ****     for (int i = 0; i < count; ++i)
 9259              		.loc 6 89 0
 9260 0017 C645FB01 		movb	$1, -5(%rbp)
 9261              	.LBB154:
  90:../Checks.h   ****         equal &= AreClose(expected[i], actual[i], tolerance);
 9262              		.loc 6 90 0
 9263 001b C745FC00 		movl	$0, -4(%rbp)
 9263      000000
 9264 0022 EB4E     		jmp	.L446
 9265              	.L447:
  91:../Checks.h   ****     return equal;
 9266              		.loc 6 91 0 discriminator 3
 9267 0024 8B45FC   		movl	-4(%rbp), %eax
 9268 0027 4898     		cltq
 9269 0029 488D1485 		leaq	0(,%rax,4), %rdx
 9269      00000000 
 9270 0031 488B45E0 		movq	-32(%rbp), %rax
 9271 0035 488D3402 		leaq	(%rdx,%rax), %rsi
 9272 0039 8B45FC   		movl	-4(%rbp), %eax
 9273 003c 4898     		cltq
 9274 003e 488D1485 		leaq	0(,%rax,4), %rdx
 9274      00000000 
 9275 0046 488B45E8 		movq	-24(%rbp), %rax
 9276 004a 488D0C02 		leaq	(%rdx,%rax), %rcx
 9277 004e 488B45D0 		movq	-48(%rbp), %rax
 9278 0052 4889C2   		movq	%rax, %rdx
 9279 0055 4889CF   		movq	%rcx, %rdi
 9280 0058 E8000000 		call	_ZN8UnitTest8AreCloseIfffEEbRKT_RKT0_RKT1_
 9280      00
 9281 005d 0FB655FB 		movzbl	-5(%rbp), %edx
 9282 0061 0FB6C0   		movzbl	%al, %eax
 9283 0064 21D0     		andl	%edx, %eax
 9284 0066 85C0     		testl	%eax, %eax
 9285 0068 0F95C0   		setne	%al
 9286 006b 8845FB   		movb	%al, -5(%rbp)
  90:../Checks.h   ****         equal &= AreClose(expected[i], actual[i], tolerance);
 9287              		.loc 6 90 0 discriminator 3
 9288 006e 8345FC01 		addl	$1, -4(%rbp)
 9289              	.L446:
  90:../Checks.h   ****         equal &= AreClose(expected[i], actual[i], tolerance);
 9290              		.loc 6 90 0 is_stmt 0 discriminator 1
 9291 0072 8B45FC   		movl	-4(%rbp), %eax
 9292 0075 3B45DC   		cmpl	-36(%rbp), %eax
 9293 0078 7CAA     		jl	.L447
 9294              	.LBE154:
  92:../Checks.h   **** }
 9295              		.loc 6 92 0 is_stmt 1
 9296 007a 0FB645FB 		movzbl	-5(%rbp), %eax
 9297              	.LBE153:
  93:../Checks.h   **** 
 9298              		.loc 6 93 0
 9299 007e C9       		leave
 9300              		.cfi_def_cfa 7, 8
 9301 007f C3       		ret
 9302              		.cfi_endproc
 9303              	.LFE1254:
 9305              		.section	.text._ZN8UnitTest8AreCloseIdddEEbRKT_RKT0_RKT1_,"axG",@progbits,_ZN8UnitTest8AreCloseIdd
 9306              		.weak	_ZN8UnitTest8AreCloseIdddEEbRKT_RKT0_RKT1_
 9308              	_ZN8UnitTest8AreCloseIdddEEbRKT_RKT0_RKT1_:
 9309              	.LFB1255:
  39:../Checks.h   **** {
 9310              		.loc 6 39 0
 9311              		.cfi_startproc
 9312 0000 55       		pushq	%rbp
 9313              		.cfi_def_cfa_offset 16
 9314              		.cfi_offset 6, -16
 9315 0001 4889E5   		movq	%rsp, %rbp
 9316              		.cfi_def_cfa_register 6
 9317 0004 48897DF8 		movq	%rdi, -8(%rbp)
 9318 0008 488975F0 		movq	%rsi, -16(%rbp)
 9319 000c 488955E8 		movq	%rdx, -24(%rbp)
  41:../Checks.h   **** }
 9320              		.loc 6 41 0
 9321 0010 488B45F0 		movq	-16(%rbp), %rax
 9322 0014 F20F1008 		movsd	(%rax), %xmm1
 9323 0018 488B45F8 		movq	-8(%rbp), %rax
 9324 001c F20F1000 		movsd	(%rax), %xmm0
 9325 0020 488B45E8 		movq	-24(%rbp), %rax
 9326 0024 F20F1010 		movsd	(%rax), %xmm2
 9327 0028 F20F5CC2 		subsd	%xmm2, %xmm0
 9328 002c 660F2EC8 		ucomisd	%xmm0, %xmm1
 9329 0030 7229     		jb	.L450
  41:../Checks.h   **** }
 9330              		.loc 6 41 0 is_stmt 0 discriminator 1
 9331 0032 488B45F0 		movq	-16(%rbp), %rax
 9332 0036 F20F1008 		movsd	(%rax), %xmm1
 9333 003a 488B45F8 		movq	-8(%rbp), %rax
 9334 003e F20F1010 		movsd	(%rax), %xmm2
 9335 0042 488B45E8 		movq	-24(%rbp), %rax
 9336 0046 F20F1000 		movsd	(%rax), %xmm0
 9337 004a F20F58C2 		addsd	%xmm2, %xmm0
 9338 004e 660F2EC1 		ucomisd	%xmm1, %xmm0
 9339 0052 7207     		jb	.L450
  41:../Checks.h   **** }
 9340              		.loc 6 41 0 discriminator 3
 9341 0054 B8010000 		movl	$1, %eax
 9341      00
 9342 0059 EB05     		jmp	.L454
 9343              	.L450:
  41:../Checks.h   **** }
 9344              		.loc 6 41 0 discriminator 4
 9345 005b B8000000 		movl	$0, %eax
 9345      00
 9346              	.L454:
  42:../Checks.h   **** 
 9347              		.loc 6 42 0 is_stmt 1 discriminator 7
 9348 0060 5D       		popq	%rbp
 9349              		.cfi_def_cfa 7, 8
 9350 0061 C3       		ret
 9351              		.cfi_endproc
 9352              	.LFE1255:
 9354              		.section	.rodata
 9355 0bfa 00000000 		.align 32
 9355      0000
 9358              	_ZTVN12_GLOBAL__N_143TestCheckArray2DCloseFailureIncludesDetailsE:
 9359 0c00 00000000 		.quad	0
 9359      00000000 
 9360 0c08 00000000 		.quad	_ZTIN12_GLOBAL__N_143TestCheckArray2DCloseFailureIncludesDetailsE
 9360      00000000 
 9361 0c10 00000000 		.quad	_ZN12_GLOBAL__N_143TestCheckArray2DCloseFailureIncludesDetailsD1Ev
 9361      00000000 
 9362 0c18 00000000 		.quad	_ZN12_GLOBAL__N_143TestCheckArray2DCloseFailureIncludesDetailsD0Ev
 9362      00000000 
 9363 0c20 00000000 		.quad	_ZNK12_GLOBAL__N_143TestCheckArray2DCloseFailureIncludesDetails7RunImplEv
 9363      00000000 
 9364              		.text
 9365              		.align 2
 9367              	_ZN12_GLOBAL__N_143TestCheckArray2DCloseFailureIncludesDetailsD2Ev:
 9368              	.LFB1277:
 273:TestChecks.cpp **** {
 9369              		.loc 5 273 0
 9370              		.cfi_startproc
 9371 3764 55       		pushq	%rbp
 9372              		.cfi_def_cfa_offset 16
 9373              		.cfi_offset 6, -16
 9374 3765 4889E5   		movq	%rsp, %rbp
 9375              		.cfi_def_cfa_register 6
 9376 3768 4883EC10 		subq	$16, %rsp
 9377 376c 48897DF8 		movq	%rdi, -8(%rbp)
 9378              	.LBB155:
 273:TestChecks.cpp **** {
 9379              		.loc 5 273 0
 9380 3770 488B45F8 		movq	-8(%rbp), %rax
 9381 3774 48C70000 		movq	$_ZTVN12_GLOBAL__N_143TestCheckArray2DCloseFailureIncludesDetailsE+16, (%rax)
 9381      000000
 9382 377b 488B45F8 		movq	-8(%rbp), %rax
 9383 377f 4889C7   		movq	%rax, %rdi
 9384 3782 E8000000 		call	_ZN8UnitTest4TestD2Ev
 9384      00
 9385              	.LBE155:
 9386 3787 B8000000 		movl	$0, %eax
 9386      00
 9387 378c 85C0     		testl	%eax, %eax
 9388 378e 740C     		je	.L457
 273:TestChecks.cpp **** {
 9389              		.loc 5 273 0 is_stmt 0 discriminator 4
 9390 3790 488B45F8 		movq	-8(%rbp), %rax
 9391 3794 4889C7   		movq	%rax, %rdi
 9392 3797 E8000000 		call	_ZdlPv
 9392      00
 9393              	.L457:
 273:TestChecks.cpp **** {
 9394              		.loc 5 273 0
 9395 379c C9       		leave
 9396              		.cfi_def_cfa 7, 8
 9397 379d C3       		ret
 9398              		.cfi_endproc
 9399              	.LFE1277:
 9401              		.set	_ZN12_GLOBAL__N_143TestCheckArray2DCloseFailureIncludesDetailsD1Ev,_ZN12_GLOBAL__N_143TestChe
 9402              		.align 2
 9404              	_ZN12_GLOBAL__N_143TestCheckArray2DCloseFailureIncludesDetailsD0Ev:
 9405              	.LFB1279:
 273:TestChecks.cpp **** {
 9406              		.loc 5 273 0 is_stmt 1
 9407              		.cfi_startproc
 9408 379e 55       		pushq	%rbp
 9409              		.cfi_def_cfa_offset 16
 9410              		.cfi_offset 6, -16
 9411 379f 4889E5   		movq	%rsp, %rbp
 9412              		.cfi_def_cfa_register 6
 9413 37a2 4883EC10 		subq	$16, %rsp
 9414 37a6 48897DF8 		movq	%rdi, -8(%rbp)
 273:TestChecks.cpp **** {
 9415              		.loc 5 273 0
 9416 37aa 488B45F8 		movq	-8(%rbp), %rax
 9417 37ae 4889C7   		movq	%rax, %rdi
 9418 37b1 E8AEFFFF 		call	_ZN12_GLOBAL__N_143TestCheckArray2DCloseFailureIncludesDetailsD2Ev
 9418      FF
 9419 37b6 488B45F8 		movq	-8(%rbp), %rax
 9420 37ba 4889C7   		movq	%rax, %rdi
 9421 37bd E8000000 		call	_ZdlPv
 9421      00
 9422 37c2 C9       		leave
 9423              		.cfi_def_cfa 7, 8
 9424 37c3 C3       		ret
 9425              		.cfi_endproc
 9426              	.LFE1279:
 9428              		.section	.rodata
 9429 0c28 00000000 		.align 32
 9429      00000000 
 9429      00000000 
 9429      00000000 
 9429      00000000 
 9432              	_ZTVN12_GLOBAL__N_133TestCheckCloseWithDoublesSucceedsE:
 9433 0c40 00000000 		.quad	0
 9433      00000000 
 9434 0c48 00000000 		.quad	_ZTIN12_GLOBAL__N_133TestCheckCloseWithDoublesSucceedsE
 9434      00000000 
 9435 0c50 00000000 		.quad	_ZN12_GLOBAL__N_133TestCheckCloseWithDoublesSucceedsD1Ev
 9435      00000000 
 9436 0c58 00000000 		.quad	_ZN12_GLOBAL__N_133TestCheckCloseWithDoublesSucceedsD0Ev
 9436      00000000 
 9437 0c60 00000000 		.quad	_ZNK12_GLOBAL__N_133TestCheckCloseWithDoublesSucceeds7RunImplEv
 9437      00000000 
 9438              		.text
 9439              		.align 2
 9441              	_ZN12_GLOBAL__N_133TestCheckCloseWithDoublesSucceedsD2Ev:
 9442              	.LFB1281:
 268:TestChecks.cpp **** {
 9443              		.loc 5 268 0
 9444              		.cfi_startproc
 9445 37c4 55       		pushq	%rbp
 9446              		.cfi_def_cfa_offset 16
 9447              		.cfi_offset 6, -16
 9448 37c5 4889E5   		movq	%rsp, %rbp
 9449              		.cfi_def_cfa_register 6
 9450 37c8 4883EC10 		subq	$16, %rsp
 9451 37cc 48897DF8 		movq	%rdi, -8(%rbp)
 9452              	.LBB156:
 268:TestChecks.cpp **** {
 9453              		.loc 5 268 0
 9454 37d0 488B45F8 		movq	-8(%rbp), %rax
 9455 37d4 48C70000 		movq	$_ZTVN12_GLOBAL__N_133TestCheckCloseWithDoublesSucceedsE+16, (%rax)
 9455      000000
 9456 37db 488B45F8 		movq	-8(%rbp), %rax
 9457 37df 4889C7   		movq	%rax, %rdi
 9458 37e2 E8000000 		call	_ZN8UnitTest4TestD2Ev
 9458      00
 9459              	.LBE156:
 9460 37e7 B8000000 		movl	$0, %eax
 9460      00
 9461 37ec 85C0     		testl	%eax, %eax
 9462 37ee 740C     		je	.L462
 268:TestChecks.cpp **** {
 9463              		.loc 5 268 0 is_stmt 0 discriminator 4
 9464 37f0 488B45F8 		movq	-8(%rbp), %rax
 9465 37f4 4889C7   		movq	%rax, %rdi
 9466 37f7 E8000000 		call	_ZdlPv
 9466      00
 9467              	.L462:
 268:TestChecks.cpp **** {
 9468              		.loc 5 268 0
 9469 37fc C9       		leave
 9470              		.cfi_def_cfa 7, 8
 9471 37fd C3       		ret
 9472              		.cfi_endproc
 9473              	.LFE1281:
 9475              		.set	_ZN12_GLOBAL__N_133TestCheckCloseWithDoublesSucceedsD1Ev,_ZN12_GLOBAL__N_133TestCheckCloseWit
 9476              		.align 2
 9478              	_ZN12_GLOBAL__N_133TestCheckCloseWithDoublesSucceedsD0Ev:
 9479              	.LFB1283:
 268:TestChecks.cpp **** {
 9480              		.loc 5 268 0 is_stmt 1
 9481              		.cfi_startproc
 9482 37fe 55       		pushq	%rbp
 9483              		.cfi_def_cfa_offset 16
 9484              		.cfi_offset 6, -16
 9485 37ff 4889E5   		movq	%rsp, %rbp
 9486              		.cfi_def_cfa_register 6
 9487 3802 4883EC10 		subq	$16, %rsp
 9488 3806 48897DF8 		movq	%rdi, -8(%rbp)
 268:TestChecks.cpp **** {
 9489              		.loc 5 268 0
 9490 380a 488B45F8 		movq	-8(%rbp), %rax
 9491 380e 4889C7   		movq	%rax, %rdi
 9492 3811 E8AEFFFF 		call	_ZN12_GLOBAL__N_133TestCheckCloseWithDoublesSucceedsD2Ev
 9492      FF
 9493 3816 488B45F8 		movq	-8(%rbp), %rax
 9494 381a 4889C7   		movq	%rax, %rdi
 9495 381d E8000000 		call	_ZdlPv
 9495      00
 9496 3822 C9       		leave
 9497              		.cfi_def_cfa 7, 8
 9498 3823 C3       		ret
 9499              		.cfi_endproc
 9500              	.LFE1283:
 9502              		.section	.rodata
 9503 0c68 00000000 		.align 32
 9503      00000000 
 9503      00000000 
 9503      00000000 
 9503      00000000 
 9506              	_ZTVN12_GLOBAL__N_126TestCheckArray2DCloseFalseE:
 9507 0c80 00000000 		.quad	0
 9507      00000000 
 9508 0c88 00000000 		.quad	_ZTIN12_GLOBAL__N_126TestCheckArray2DCloseFalseE
 9508      00000000 
 9509 0c90 00000000 		.quad	_ZN12_GLOBAL__N_126TestCheckArray2DCloseFalseD1Ev
 9509      00000000 
 9510 0c98 00000000 		.quad	_ZN12_GLOBAL__N_126TestCheckArray2DCloseFalseD0Ev
 9510      00000000 
 9511 0ca0 00000000 		.quad	_ZNK12_GLOBAL__N_126TestCheckArray2DCloseFalse7RunImplEv
 9511      00000000 
 9512              		.text
 9513              		.align 2
 9515              	_ZN12_GLOBAL__N_126TestCheckArray2DCloseFalseD2Ev:
 9516              	.LFB1285:
 254:TestChecks.cpp **** {
 9517              		.loc 5 254 0
 9518              		.cfi_startproc
 9519 3824 55       		pushq	%rbp
 9520              		.cfi_def_cfa_offset 16
 9521              		.cfi_offset 6, -16
 9522 3825 4889E5   		movq	%rsp, %rbp
 9523              		.cfi_def_cfa_register 6
 9524 3828 4883EC10 		subq	$16, %rsp
 9525 382c 48897DF8 		movq	%rdi, -8(%rbp)
 9526              	.LBB157:
 254:TestChecks.cpp **** {
 9527              		.loc 5 254 0
 9528 3830 488B45F8 		movq	-8(%rbp), %rax
 9529 3834 48C70000 		movq	$_ZTVN12_GLOBAL__N_126TestCheckArray2DCloseFalseE+16, (%rax)
 9529      000000
 9530 383b 488B45F8 		movq	-8(%rbp), %rax
 9531 383f 4889C7   		movq	%rax, %rdi
 9532 3842 E8000000 		call	_ZN8UnitTest4TestD2Ev
 9532      00
 9533              	.LBE157:
 9534 3847 B8000000 		movl	$0, %eax
 9534      00
 9535 384c 85C0     		testl	%eax, %eax
 9536 384e 740C     		je	.L467
 254:TestChecks.cpp **** {
 9537              		.loc 5 254 0 is_stmt 0 discriminator 4
 9538 3850 488B45F8 		movq	-8(%rbp), %rax
 9539 3854 4889C7   		movq	%rax, %rdi
 9540 3857 E8000000 		call	_ZdlPv
 9540      00
 9541              	.L467:
 254:TestChecks.cpp **** {
 9542              		.loc 5 254 0
 9543 385c C9       		leave
 9544              		.cfi_def_cfa 7, 8
 9545 385d C3       		ret
 9546              		.cfi_endproc
 9547              	.LFE1285:
 9549              		.set	_ZN12_GLOBAL__N_126TestCheckArray2DCloseFalseD1Ev,_ZN12_GLOBAL__N_126TestCheckArray2DCloseFal
 9550              		.align 2
 9552              	_ZN12_GLOBAL__N_126TestCheckArray2DCloseFalseD0Ev:
 9553              	.LFB1287:
 254:TestChecks.cpp **** {
 9554              		.loc 5 254 0 is_stmt 1
 9555              		.cfi_startproc
 9556 385e 55       		pushq	%rbp
 9557              		.cfi_def_cfa_offset 16
 9558              		.cfi_offset 6, -16
 9559 385f 4889E5   		movq	%rsp, %rbp
 9560              		.cfi_def_cfa_register 6
 9561 3862 4883EC10 		subq	$16, %rsp
 9562 3866 48897DF8 		movq	%rdi, -8(%rbp)
 254:TestChecks.cpp **** {
 9563              		.loc 5 254 0
 9564 386a 488B45F8 		movq	-8(%rbp), %rax
 9565 386e 4889C7   		movq	%rax, %rdi
 9566 3871 E8AEFFFF 		call	_ZN12_GLOBAL__N_126TestCheckArray2DCloseFalseD2Ev
 9566      FF
 9567 3876 488B45F8 		movq	-8(%rbp), %rax
 9568 387a 4889C7   		movq	%rax, %rdi
 9569 387d E8000000 		call	_ZdlPv
 9569      00
 9570 3882 C9       		leave
 9571              		.cfi_def_cfa 7, 8
 9572 3883 C3       		ret
 9573              		.cfi_endproc
 9574              	.LFE1287:
 9576              		.section	.rodata
 9577 0ca8 00000000 		.align 32
 9577      00000000 
 9577      00000000 
 9577      00000000 
 9577      00000000 
 9580              	_ZTVN12_GLOBAL__N_125TestCheckArray2DCloseTrueE:
 9581 0cc0 00000000 		.quad	0
 9581      00000000 
 9582 0cc8 00000000 		.quad	_ZTIN12_GLOBAL__N_125TestCheckArray2DCloseTrueE
 9582      00000000 
 9583 0cd0 00000000 		.quad	_ZN12_GLOBAL__N_125TestCheckArray2DCloseTrueD1Ev
 9583      00000000 
 9584 0cd8 00000000 		.quad	_ZN12_GLOBAL__N_125TestCheckArray2DCloseTrueD0Ev
 9584      00000000 
 9585 0ce0 00000000 		.quad	_ZNK12_GLOBAL__N_125TestCheckArray2DCloseTrue7RunImplEv
 9585      00000000 
 9586              		.text
 9587              		.align 2
 9589              	_ZN12_GLOBAL__N_125TestCheckArray2DCloseTrueD2Ev:
 9590              	.LFB1289:
 240:TestChecks.cpp **** {
 9591              		.loc 5 240 0
 9592              		.cfi_startproc
 9593 3884 55       		pushq	%rbp
 9594              		.cfi_def_cfa_offset 16
 9595              		.cfi_offset 6, -16
 9596 3885 4889E5   		movq	%rsp, %rbp
 9597              		.cfi_def_cfa_register 6
 9598 3888 4883EC10 		subq	$16, %rsp
 9599 388c 48897DF8 		movq	%rdi, -8(%rbp)
 9600              	.LBB158:
 240:TestChecks.cpp **** {
 9601              		.loc 5 240 0
 9602 3890 488B45F8 		movq	-8(%rbp), %rax
 9603 3894 48C70000 		movq	$_ZTVN12_GLOBAL__N_125TestCheckArray2DCloseTrueE+16, (%rax)
 9603      000000
 9604 389b 488B45F8 		movq	-8(%rbp), %rax
 9605 389f 4889C7   		movq	%rax, %rdi
 9606 38a2 E8000000 		call	_ZN8UnitTest4TestD2Ev
 9606      00
 9607              	.LBE158:
 9608 38a7 B8000000 		movl	$0, %eax
 9608      00
 9609 38ac 85C0     		testl	%eax, %eax
 9610 38ae 740C     		je	.L472
 240:TestChecks.cpp **** {
 9611              		.loc 5 240 0 is_stmt 0 discriminator 4
 9612 38b0 488B45F8 		movq	-8(%rbp), %rax
 9613 38b4 4889C7   		movq	%rax, %rdi
 9614 38b7 E8000000 		call	_ZdlPv
 9614      00
 9615              	.L472:
 240:TestChecks.cpp **** {
 9616              		.loc 5 240 0
 9617 38bc C9       		leave
 9618              		.cfi_def_cfa 7, 8
 9619 38bd C3       		ret
 9620              		.cfi_endproc
 9621              	.LFE1289:
 9623              		.set	_ZN12_GLOBAL__N_125TestCheckArray2DCloseTrueD1Ev,_ZN12_GLOBAL__N_125TestCheckArray2DCloseTrue
 9624              		.align 2
 9626              	_ZN12_GLOBAL__N_125TestCheckArray2DCloseTrueD0Ev:
 9627              	.LFB1291:
 240:TestChecks.cpp **** {
 9628              		.loc 5 240 0 is_stmt 1
 9629              		.cfi_startproc
 9630 38be 55       		pushq	%rbp
 9631              		.cfi_def_cfa_offset 16
 9632              		.cfi_offset 6, -16
 9633 38bf 4889E5   		movq	%rsp, %rbp
 9634              		.cfi_def_cfa_register 6
 9635 38c2 4883EC10 		subq	$16, %rsp
 9636 38c6 48897DF8 		movq	%rdi, -8(%rbp)
 240:TestChecks.cpp **** {
 9637              		.loc 5 240 0
 9638 38ca 488B45F8 		movq	-8(%rbp), %rax
 9639 38ce 4889C7   		movq	%rax, %rdi
 9640 38d1 E8AEFFFF 		call	_ZN12_GLOBAL__N_125TestCheckArray2DCloseTrueD2Ev
 9640      FF
 9641 38d6 488B45F8 		movq	-8(%rbp), %rax
 9642 38da 4889C7   		movq	%rax, %rdi
 9643 38dd E8000000 		call	_ZdlPv
 9643      00
 9644 38e2 C9       		leave
 9645              		.cfi_def_cfa 7, 8
 9646 38e3 C3       		ret
 9647              		.cfi_endproc
 9648              	.LFE1291:
 9650              		.section	.rodata
 9651 0ce8 00000000 		.align 32
 9651      00000000 
 9651      00000000 
 9651      00000000 
 9651      00000000 
 9654              	_ZTVN12_GLOBAL__N_141TestCheckArrayCloseFailureIncludesDetailsE:
 9655 0d00 00000000 		.quad	0
 9655      00000000 
 9656 0d08 00000000 		.quad	_ZTIN12_GLOBAL__N_141TestCheckArrayCloseFailureIncludesDetailsE
 9656      00000000 
 9657 0d10 00000000 		.quad	_ZN12_GLOBAL__N_141TestCheckArrayCloseFailureIncludesDetailsD1Ev
 9657      00000000 
 9658 0d18 00000000 		.quad	_ZN12_GLOBAL__N_141TestCheckArrayCloseFailureIncludesDetailsD0Ev
 9658      00000000 
 9659 0d20 00000000 		.quad	_ZNK12_GLOBAL__N_141TestCheckArrayCloseFailureIncludesDetails7RunImplEv
 9659      00000000 
 9660              		.text
 9661              		.align 2
 9663              	_ZN12_GLOBAL__N_141TestCheckArrayCloseFailureIncludesDetailsD2Ev:
 9664              	.LFB1293:
 223:TestChecks.cpp **** {
 9665              		.loc 5 223 0
 9666              		.cfi_startproc
 9667 38e4 55       		pushq	%rbp
 9668              		.cfi_def_cfa_offset 16
 9669              		.cfi_offset 6, -16
 9670 38e5 4889E5   		movq	%rsp, %rbp
 9671              		.cfi_def_cfa_register 6
 9672 38e8 4883EC10 		subq	$16, %rsp
 9673 38ec 48897DF8 		movq	%rdi, -8(%rbp)
 9674              	.LBB159:
 223:TestChecks.cpp **** {
 9675              		.loc 5 223 0
 9676 38f0 488B45F8 		movq	-8(%rbp), %rax
 9677 38f4 48C70000 		movq	$_ZTVN12_GLOBAL__N_141TestCheckArrayCloseFailureIncludesDetailsE+16, (%rax)
 9677      000000
 9678 38fb 488B45F8 		movq	-8(%rbp), %rax
 9679 38ff 4889C7   		movq	%rax, %rdi
 9680 3902 E8000000 		call	_ZN8UnitTest4TestD2Ev
 9680      00
 9681              	.LBE159:
 9682 3907 B8000000 		movl	$0, %eax
 9682      00
 9683 390c 85C0     		testl	%eax, %eax
 9684 390e 740C     		je	.L477
 223:TestChecks.cpp **** {
 9685              		.loc 5 223 0 is_stmt 0 discriminator 4
 9686 3910 488B45F8 		movq	-8(%rbp), %rax
 9687 3914 4889C7   		movq	%rax, %rdi
 9688 3917 E8000000 		call	_ZdlPv
 9688      00
 9689              	.L477:
 223:TestChecks.cpp **** {
 9690              		.loc 5 223 0
 9691 391c C9       		leave
 9692              		.cfi_def_cfa 7, 8
 9693 391d C3       		ret
 9694              		.cfi_endproc
 9695              	.LFE1293:
 9697              		.set	_ZN12_GLOBAL__N_141TestCheckArrayCloseFailureIncludesDetailsD1Ev,_ZN12_GLOBAL__N_141TestCheck
 9698              		.align 2
 9700              	_ZN12_GLOBAL__N_141TestCheckArrayCloseFailureIncludesDetailsD0Ev:
 9701              	.LFB1295:
 223:TestChecks.cpp **** {
 9702              		.loc 5 223 0 is_stmt 1
 9703              		.cfi_startproc
 9704 391e 55       		pushq	%rbp
 9705              		.cfi_def_cfa_offset 16
 9706              		.cfi_offset 6, -16
 9707 391f 4889E5   		movq	%rsp, %rbp
 9708              		.cfi_def_cfa_register 6
 9709 3922 4883EC10 		subq	$16, %rsp
 9710 3926 48897DF8 		movq	%rdi, -8(%rbp)
 223:TestChecks.cpp **** {
 9711              		.loc 5 223 0
 9712 392a 488B45F8 		movq	-8(%rbp), %rax
 9713 392e 4889C7   		movq	%rax, %rdi
 9714 3931 E8AEFFFF 		call	_ZN12_GLOBAL__N_141TestCheckArrayCloseFailureIncludesDetailsD2Ev
 9714      FF
 9715 3936 488B45F8 		movq	-8(%rbp), %rax
 9716 393a 4889C7   		movq	%rax, %rdi
 9717 393d E8000000 		call	_ZdlPv
 9717      00
 9718 3942 C9       		leave
 9719              		.cfi_def_cfa 7, 8
 9720 3943 C3       		ret
 9721              		.cfi_endproc
 9722              	.LFE1295:
 9724              		.section	.rodata
 9725 0d28 00000000 		.align 32
 9725      00000000 
 9725      00000000 
 9725      00000000 
 9725      00000000 
 9728              	_ZTVN12_GLOBAL__N_124TestCheckArrayCloseFalseE:
 9729 0d40 00000000 		.quad	0
 9729      00000000 
 9730 0d48 00000000 		.quad	_ZTIN12_GLOBAL__N_124TestCheckArrayCloseFalseE
 9730      00000000 
 9731 0d50 00000000 		.quad	_ZN12_GLOBAL__N_124TestCheckArrayCloseFalseD1Ev
 9731      00000000 
 9732 0d58 00000000 		.quad	_ZN12_GLOBAL__N_124TestCheckArrayCloseFalseD0Ev
 9732      00000000 
 9733 0d60 00000000 		.quad	_ZNK12_GLOBAL__N_124TestCheckArrayCloseFalse7RunImplEv
 9733      00000000 
 9734              		.text
 9735              		.align 2
 9737              	_ZN12_GLOBAL__N_124TestCheckArrayCloseFalseD2Ev:
 9738              	.LFB1297:
 213:TestChecks.cpp **** {
 9739              		.loc 5 213 0
 9740              		.cfi_startproc
 9741 3944 55       		pushq	%rbp
 9742              		.cfi_def_cfa_offset 16
 9743              		.cfi_offset 6, -16
 9744 3945 4889E5   		movq	%rsp, %rbp
 9745              		.cfi_def_cfa_register 6
 9746 3948 4883EC10 		subq	$16, %rsp
 9747 394c 48897DF8 		movq	%rdi, -8(%rbp)
 9748              	.LBB160:
 213:TestChecks.cpp **** {
 9749              		.loc 5 213 0
 9750 3950 488B45F8 		movq	-8(%rbp), %rax
 9751 3954 48C70000 		movq	$_ZTVN12_GLOBAL__N_124TestCheckArrayCloseFalseE+16, (%rax)
 9751      000000
 9752 395b 488B45F8 		movq	-8(%rbp), %rax
 9753 395f 4889C7   		movq	%rax, %rdi
 9754 3962 E8000000 		call	_ZN8UnitTest4TestD2Ev
 9754      00
 9755              	.LBE160:
 9756 3967 B8000000 		movl	$0, %eax
 9756      00
 9757 396c 85C0     		testl	%eax, %eax
 9758 396e 740C     		je	.L482
 213:TestChecks.cpp **** {
 9759              		.loc 5 213 0 is_stmt 0 discriminator 4
 9760 3970 488B45F8 		movq	-8(%rbp), %rax
 9761 3974 4889C7   		movq	%rax, %rdi
 9762 3977 E8000000 		call	_ZdlPv
 9762      00
 9763              	.L482:
 213:TestChecks.cpp **** {
 9764              		.loc 5 213 0
 9765 397c C9       		leave
 9766              		.cfi_def_cfa 7, 8
 9767 397d C3       		ret
 9768              		.cfi_endproc
 9769              	.LFE1297:
 9771              		.set	_ZN12_GLOBAL__N_124TestCheckArrayCloseFalseD1Ev,_ZN12_GLOBAL__N_124TestCheckArrayCloseFalseD2
 9772              		.align 2
 9774              	_ZN12_GLOBAL__N_124TestCheckArrayCloseFalseD0Ev:
 9775              	.LFB1299:
 213:TestChecks.cpp **** {
 9776              		.loc 5 213 0 is_stmt 1
 9777              		.cfi_startproc
 9778 397e 55       		pushq	%rbp
 9779              		.cfi_def_cfa_offset 16
 9780              		.cfi_offset 6, -16
 9781 397f 4889E5   		movq	%rsp, %rbp
 9782              		.cfi_def_cfa_register 6
 9783 3982 4883EC10 		subq	$16, %rsp
 9784 3986 48897DF8 		movq	%rdi, -8(%rbp)
 213:TestChecks.cpp **** {
 9785              		.loc 5 213 0
 9786 398a 488B45F8 		movq	-8(%rbp), %rax
 9787 398e 4889C7   		movq	%rax, %rdi
 9788 3991 E8AEFFFF 		call	_ZN12_GLOBAL__N_124TestCheckArrayCloseFalseD2Ev
 9788      FF
 9789 3996 488B45F8 		movq	-8(%rbp), %rax
 9790 399a 4889C7   		movq	%rax, %rdi
 9791 399d E8000000 		call	_ZdlPv
 9791      00
 9792 39a2 C9       		leave
 9793              		.cfi_def_cfa 7, 8
 9794 39a3 C3       		ret
 9795              		.cfi_endproc
 9796              	.LFE1299:
 9798              		.section	.rodata
 9799 0d68 00000000 		.align 32
 9799      00000000 
 9799      00000000 
 9799      00000000 
 9799      00000000 
 9802              	_ZTVN12_GLOBAL__N_123TestCheckArrayCloseTrueE:
 9803 0d80 00000000 		.quad	0
 9803      00000000 
 9804 0d88 00000000 		.quad	_ZTIN12_GLOBAL__N_123TestCheckArrayCloseTrueE
 9804      00000000 
 9805 0d90 00000000 		.quad	_ZN12_GLOBAL__N_123TestCheckArrayCloseTrueD1Ev
 9805      00000000 
 9806 0d98 00000000 		.quad	_ZN12_GLOBAL__N_123TestCheckArrayCloseTrueD0Ev
 9806      00000000 
 9807 0da0 00000000 		.quad	_ZNK12_GLOBAL__N_123TestCheckArrayCloseTrue7RunImplEv
 9807      00000000 
 9808              		.text
 9809              		.align 2
 9811              	_ZN12_GLOBAL__N_123TestCheckArrayCloseTrueD2Ev:
 9812              	.LFB1301:
 203:TestChecks.cpp **** {
 9813              		.loc 5 203 0
 9814              		.cfi_startproc
 9815 39a4 55       		pushq	%rbp
 9816              		.cfi_def_cfa_offset 16
 9817              		.cfi_offset 6, -16
 9818 39a5 4889E5   		movq	%rsp, %rbp
 9819              		.cfi_def_cfa_register 6
 9820 39a8 4883EC10 		subq	$16, %rsp
 9821 39ac 48897DF8 		movq	%rdi, -8(%rbp)
 9822              	.LBB161:
 203:TestChecks.cpp **** {
 9823              		.loc 5 203 0
 9824 39b0 488B45F8 		movq	-8(%rbp), %rax
 9825 39b4 48C70000 		movq	$_ZTVN12_GLOBAL__N_123TestCheckArrayCloseTrueE+16, (%rax)
 9825      000000
 9826 39bb 488B45F8 		movq	-8(%rbp), %rax
 9827 39bf 4889C7   		movq	%rax, %rdi
 9828 39c2 E8000000 		call	_ZN8UnitTest4TestD2Ev
 9828      00
 9829              	.LBE161:
 9830 39c7 B8000000 		movl	$0, %eax
 9830      00
 9831 39cc 85C0     		testl	%eax, %eax
 9832 39ce 740C     		je	.L487
 203:TestChecks.cpp **** {
 9833              		.loc 5 203 0 is_stmt 0 discriminator 4
 9834 39d0 488B45F8 		movq	-8(%rbp), %rax
 9835 39d4 4889C7   		movq	%rax, %rdi
 9836 39d7 E8000000 		call	_ZdlPv
 9836      00
 9837              	.L487:
 203:TestChecks.cpp **** {
 9838              		.loc 5 203 0
 9839 39dc C9       		leave
 9840              		.cfi_def_cfa 7, 8
 9841 39dd C3       		ret
 9842              		.cfi_endproc
 9843              	.LFE1301:
 9845              		.set	_ZN12_GLOBAL__N_123TestCheckArrayCloseTrueD1Ev,_ZN12_GLOBAL__N_123TestCheckArrayCloseTrueD2Ev
 9846              		.align 2
 9848              	_ZN12_GLOBAL__N_123TestCheckArrayCloseTrueD0Ev:
 9849              	.LFB1303:
 203:TestChecks.cpp **** {
 9850              		.loc 5 203 0 is_stmt 1
 9851              		.cfi_startproc
 9852 39de 55       		pushq	%rbp
 9853              		.cfi_def_cfa_offset 16
 9854              		.cfi_offset 6, -16
 9855 39df 4889E5   		movq	%rsp, %rbp
 9856              		.cfi_def_cfa_register 6
 9857 39e2 4883EC10 		subq	$16, %rsp
 9858 39e6 48897DF8 		movq	%rdi, -8(%rbp)
 203:TestChecks.cpp **** {
 9859              		.loc 5 203 0
 9860 39ea 488B45F8 		movq	-8(%rbp), %rax
 9861 39ee 4889C7   		movq	%rax, %rdi
 9862 39f1 E8AEFFFF 		call	_ZN12_GLOBAL__N_123TestCheckArrayCloseTrueD2Ev
 9862      FF
 9863 39f6 488B45F8 		movq	-8(%rbp), %rax
 9864 39fa 4889C7   		movq	%rax, %rdi
 9865 39fd E8000000 		call	_ZdlPv
 9865      00
 9866 3a02 C9       		leave
 9867              		.cfi_def_cfa 7, 8
 9868 3a03 C3       		ret
 9869              		.cfi_endproc
 9870              	.LFE1303:
 9872              		.section	.rodata
 9873 0da8 00000000 		.align 32
 9873      00000000 
 9873      00000000 
 9873      00000000 
 9873      00000000 
 9876              	_ZTVN12_GLOBAL__N_124TestCheckArrayEqualFalseE:
 9877 0dc0 00000000 		.quad	0
 9877      00000000 
 9878 0dc8 00000000 		.quad	_ZTIN12_GLOBAL__N_124TestCheckArrayEqualFalseE
 9878      00000000 
 9879 0dd0 00000000 		.quad	_ZN12_GLOBAL__N_124TestCheckArrayEqualFalseD1Ev
 9879      00000000 
 9880 0dd8 00000000 		.quad	_ZN12_GLOBAL__N_124TestCheckArrayEqualFalseD0Ev
 9880      00000000 
 9881 0de0 00000000 		.quad	_ZNK12_GLOBAL__N_124TestCheckArrayEqualFalse7RunImplEv
 9881      00000000 
 9882              		.text
 9883              		.align 2
 9885              	_ZN12_GLOBAL__N_124TestCheckArrayEqualFalseD2Ev:
 9886              	.LFB1305:
 193:TestChecks.cpp **** {
 9887              		.loc 5 193 0
 9888              		.cfi_startproc
 9889 3a04 55       		pushq	%rbp
 9890              		.cfi_def_cfa_offset 16
 9891              		.cfi_offset 6, -16
 9892 3a05 4889E5   		movq	%rsp, %rbp
 9893              		.cfi_def_cfa_register 6
 9894 3a08 4883EC10 		subq	$16, %rsp
 9895 3a0c 48897DF8 		movq	%rdi, -8(%rbp)
 9896              	.LBB162:
 193:TestChecks.cpp **** {
 9897              		.loc 5 193 0
 9898 3a10 488B45F8 		movq	-8(%rbp), %rax
 9899 3a14 48C70000 		movq	$_ZTVN12_GLOBAL__N_124TestCheckArrayEqualFalseE+16, (%rax)
 9899      000000
 9900 3a1b 488B45F8 		movq	-8(%rbp), %rax
 9901 3a1f 4889C7   		movq	%rax, %rdi
 9902 3a22 E8000000 		call	_ZN8UnitTest4TestD2Ev
 9902      00
 9903              	.LBE162:
 9904 3a27 B8000000 		movl	$0, %eax
 9904      00
 9905 3a2c 85C0     		testl	%eax, %eax
 9906 3a2e 740C     		je	.L492
 193:TestChecks.cpp **** {
 9907              		.loc 5 193 0 is_stmt 0 discriminator 4
 9908 3a30 488B45F8 		movq	-8(%rbp), %rax
 9909 3a34 4889C7   		movq	%rax, %rdi
 9910 3a37 E8000000 		call	_ZdlPv
 9910      00
 9911              	.L492:
 193:TestChecks.cpp **** {
 9912              		.loc 5 193 0
 9913 3a3c C9       		leave
 9914              		.cfi_def_cfa 7, 8
 9915 3a3d C3       		ret
 9916              		.cfi_endproc
 9917              	.LFE1305:
 9919              		.set	_ZN12_GLOBAL__N_124TestCheckArrayEqualFalseD1Ev,_ZN12_GLOBAL__N_124TestCheckArrayEqualFalseD2
 9920              		.align 2
 9922              	_ZN12_GLOBAL__N_124TestCheckArrayEqualFalseD0Ev:
 9923              	.LFB1307:
 193:TestChecks.cpp **** {
 9924              		.loc 5 193 0 is_stmt 1
 9925              		.cfi_startproc
 9926 3a3e 55       		pushq	%rbp
 9927              		.cfi_def_cfa_offset 16
 9928              		.cfi_offset 6, -16
 9929 3a3f 4889E5   		movq	%rsp, %rbp
 9930              		.cfi_def_cfa_register 6
 9931 3a42 4883EC10 		subq	$16, %rsp
 9932 3a46 48897DF8 		movq	%rdi, -8(%rbp)
 193:TestChecks.cpp **** {
 9933              		.loc 5 193 0
 9934 3a4a 488B45F8 		movq	-8(%rbp), %rax
 9935 3a4e 4889C7   		movq	%rax, %rdi
 9936 3a51 E8AEFFFF 		call	_ZN12_GLOBAL__N_124TestCheckArrayEqualFalseD2Ev
 9936      FF
 9937 3a56 488B45F8 		movq	-8(%rbp), %rax
 9938 3a5a 4889C7   		movq	%rax, %rdi
 9939 3a5d E8000000 		call	_ZdlPv
 9939      00
 9940 3a62 C9       		leave
 9941              		.cfi_def_cfa 7, 8
 9942 3a63 C3       		ret
 9943              		.cfi_endproc
 9944              	.LFE1307:
 9946              		.section	.rodata
 9947 0de8 00000000 		.align 32
 9947      00000000 
 9947      00000000 
 9947      00000000 
 9947      00000000 
 9950              	_ZTVN12_GLOBAL__N_123TestCheckArrayEqualTrueE:
 9951 0e00 00000000 		.quad	0
 9951      00000000 
 9952 0e08 00000000 		.quad	_ZTIN12_GLOBAL__N_123TestCheckArrayEqualTrueE
 9952      00000000 
 9953 0e10 00000000 		.quad	_ZN12_GLOBAL__N_123TestCheckArrayEqualTrueD1Ev
 9953      00000000 
 9954 0e18 00000000 		.quad	_ZN12_GLOBAL__N_123TestCheckArrayEqualTrueD0Ev
 9954      00000000 
 9955 0e20 00000000 		.quad	_ZNK12_GLOBAL__N_123TestCheckArrayEqualTrue7RunImplEv
 9955      00000000 
 9956              		.text
 9957              		.align 2
 9959              	_ZN12_GLOBAL__N_123TestCheckArrayEqualTrueD2Ev:
 9960              	.LFB1309:
 184:TestChecks.cpp **** {
 9961              		.loc 5 184 0
 9962              		.cfi_startproc
 9963 3a64 55       		pushq	%rbp
 9964              		.cfi_def_cfa_offset 16
 9965              		.cfi_offset 6, -16
 9966 3a65 4889E5   		movq	%rsp, %rbp
 9967              		.cfi_def_cfa_register 6
 9968 3a68 4883EC10 		subq	$16, %rsp
 9969 3a6c 48897DF8 		movq	%rdi, -8(%rbp)
 9970              	.LBB163:
 184:TestChecks.cpp **** {
 9971              		.loc 5 184 0
 9972 3a70 488B45F8 		movq	-8(%rbp), %rax
 9973 3a74 48C70000 		movq	$_ZTVN12_GLOBAL__N_123TestCheckArrayEqualTrueE+16, (%rax)
 9973      000000
 9974 3a7b 488B45F8 		movq	-8(%rbp), %rax
 9975 3a7f 4889C7   		movq	%rax, %rdi
 9976 3a82 E8000000 		call	_ZN8UnitTest4TestD2Ev
 9976      00
 9977              	.LBE163:
 9978 3a87 B8000000 		movl	$0, %eax
 9978      00
 9979 3a8c 85C0     		testl	%eax, %eax
 9980 3a8e 740C     		je	.L497
 184:TestChecks.cpp **** {
 9981              		.loc 5 184 0 is_stmt 0 discriminator 4
 9982 3a90 488B45F8 		movq	-8(%rbp), %rax
 9983 3a94 4889C7   		movq	%rax, %rdi
 9984 3a97 E8000000 		call	_ZdlPv
 9984      00
 9985              	.L497:
 184:TestChecks.cpp **** {
 9986              		.loc 5 184 0
 9987 3a9c C9       		leave
 9988              		.cfi_def_cfa 7, 8
 9989 3a9d C3       		ret
 9990              		.cfi_endproc
 9991              	.LFE1309:
 9993              		.set	_ZN12_GLOBAL__N_123TestCheckArrayEqualTrueD1Ev,_ZN12_GLOBAL__N_123TestCheckArrayEqualTrueD2Ev
 9994              		.align 2
 9996              	_ZN12_GLOBAL__N_123TestCheckArrayEqualTrueD0Ev:
 9997              	.LFB1311:
 184:TestChecks.cpp **** {
 9998              		.loc 5 184 0 is_stmt 1
 9999              		.cfi_startproc
 10000 3a9e 55       		pushq	%rbp
 10001              		.cfi_def_cfa_offset 16
 10002              		.cfi_offset 6, -16
 10003 3a9f 4889E5   		movq	%rsp, %rbp
 10004              		.cfi_def_cfa_register 6
 10005 3aa2 4883EC10 		subq	$16, %rsp
 10006 3aa6 48897DF8 		movq	%rdi, -8(%rbp)
 184:TestChecks.cpp **** {
 10007              		.loc 5 184 0
 10008 3aaa 488B45F8 		movq	-8(%rbp), %rax
 10009 3aae 4889C7   		movq	%rax, %rdi
 10010 3ab1 E8AEFFFF 		call	_ZN12_GLOBAL__N_123TestCheckArrayEqualTrueD2Ev
 10010      FF
 10011 3ab6 488B45F8 		movq	-8(%rbp), %rax
 10012 3aba 4889C7   		movq	%rax, %rdi
 10013 3abd E8000000 		call	_ZdlPv
 10013      00
 10014 3ac2 C9       		leave
 10015              		.cfi_def_cfa 7, 8
 10016 3ac3 C3       		ret
 10017              		.cfi_endproc
 10018              	.LFE1311:
 10020              		.section	.rodata
 10021 0e28 00000000 		.align 32
 10021      00000000 
 10021      00000000 
 10021      00000000 
 10021      00000000 
 10024              	_ZTVN12_GLOBAL__N_136TestCheckCloseFailureIncludesDetailsE:
 10025 0e40 00000000 		.quad	0
 10025      00000000 
 10026 0e48 00000000 		.quad	_ZTIN12_GLOBAL__N_136TestCheckCloseFailureIncludesDetailsE
 10026      00000000 
 10027 0e50 00000000 		.quad	_ZN12_GLOBAL__N_136TestCheckCloseFailureIncludesDetailsD1Ev
 10027      00000000 
 10028 0e58 00000000 		.quad	_ZN12_GLOBAL__N_136TestCheckCloseFailureIncludesDetailsD0Ev
 10028      00000000 
 10029 0e60 00000000 		.quad	_ZNK12_GLOBAL__N_136TestCheckCloseFailureIncludesDetails7RunImplEv
 10029      00000000 
 10030              		.text
 10031              		.align 2
 10033              	_ZN12_GLOBAL__N_136TestCheckCloseFailureIncludesDetailsD2Ev:
 10034              	.LFB1313:
 169:TestChecks.cpp **** {
 10035              		.loc 5 169 0
 10036              		.cfi_startproc
 10037 3ac4 55       		pushq	%rbp
 10038              		.cfi_def_cfa_offset 16
 10039              		.cfi_offset 6, -16
 10040 3ac5 4889E5   		movq	%rsp, %rbp
 10041              		.cfi_def_cfa_register 6
 10042 3ac8 4883EC10 		subq	$16, %rsp
 10043 3acc 48897DF8 		movq	%rdi, -8(%rbp)
 10044              	.LBB164:
 169:TestChecks.cpp **** {
 10045              		.loc 5 169 0
 10046 3ad0 488B45F8 		movq	-8(%rbp), %rax
 10047 3ad4 48C70000 		movq	$_ZTVN12_GLOBAL__N_136TestCheckCloseFailureIncludesDetailsE+16, (%rax)
 10047      000000
 10048 3adb 488B45F8 		movq	-8(%rbp), %rax
 10049 3adf 4889C7   		movq	%rax, %rdi
 10050 3ae2 E8000000 		call	_ZN8UnitTest4TestD2Ev
 10050      00
 10051              	.LBE164:
 10052 3ae7 B8000000 		movl	$0, %eax
 10052      00
 10053 3aec 85C0     		testl	%eax, %eax
 10054 3aee 740C     		je	.L502
 169:TestChecks.cpp **** {
 10055              		.loc 5 169 0 is_stmt 0 discriminator 4
 10056 3af0 488B45F8 		movq	-8(%rbp), %rax
 10057 3af4 4889C7   		movq	%rax, %rdi
 10058 3af7 E8000000 		call	_ZdlPv
 10058      00
 10059              	.L502:
 169:TestChecks.cpp **** {
 10060              		.loc 5 169 0
 10061 3afc C9       		leave
 10062              		.cfi_def_cfa 7, 8
 10063 3afd C3       		ret
 10064              		.cfi_endproc
 10065              	.LFE1313:
 10067              		.set	_ZN12_GLOBAL__N_136TestCheckCloseFailureIncludesDetailsD1Ev,_ZN12_GLOBAL__N_136TestCheckClose
 10068              		.align 2
 10070              	_ZN12_GLOBAL__N_136TestCheckCloseFailureIncludesDetailsD0Ev:
 10071              	.LFB1315:
 169:TestChecks.cpp **** {
 10072              		.loc 5 169 0 is_stmt 1
 10073              		.cfi_startproc
 10074 3afe 55       		pushq	%rbp
 10075              		.cfi_def_cfa_offset 16
 10076              		.cfi_offset 6, -16
 10077 3aff 4889E5   		movq	%rsp, %rbp
 10078              		.cfi_def_cfa_register 6
 10079 3b02 4883EC10 		subq	$16, %rsp
 10080 3b06 48897DF8 		movq	%rdi, -8(%rbp)
 169:TestChecks.cpp **** {
 10081              		.loc 5 169 0
 10082 3b0a 488B45F8 		movq	-8(%rbp), %rax
 10083 3b0e 4889C7   		movq	%rax, %rdi
 10084 3b11 E8AEFFFF 		call	_ZN12_GLOBAL__N_136TestCheckCloseFailureIncludesDetailsD2Ev
 10084      FF
 10085 3b16 488B45F8 		movq	-8(%rbp), %rax
 10086 3b1a 4889C7   		movq	%rax, %rdi
 10087 3b1d E8000000 		call	_ZdlPv
 10087      00
 10088 3b22 C9       		leave
 10089              		.cfi_def_cfa 7, 8
 10090 3b23 C3       		ret
 10091              		.cfi_endproc
 10092              	.LFE1315:
 10094              		.section	.rodata
 10095 0e68 00000000 		.align 32
 10095      00000000 
 10095      00000000 
 10095      00000000 
 10095      00000000 
 10098              	_ZTVN12_GLOBAL__N_138TestCheckCloseFailureIncludesToleranceE:
 10099 0e80 00000000 		.quad	0
 10099      00000000 
 10100 0e88 00000000 		.quad	_ZTIN12_GLOBAL__N_138TestCheckCloseFailureIncludesToleranceE
 10100      00000000 
 10101 0e90 00000000 		.quad	_ZN12_GLOBAL__N_138TestCheckCloseFailureIncludesToleranceD1Ev
 10101      00000000 
 10102 0e98 00000000 		.quad	_ZN12_GLOBAL__N_138TestCheckCloseFailureIncludesToleranceD0Ev
 10102      00000000 
 10103 0ea0 00000000 		.quad	_ZNK12_GLOBAL__N_138TestCheckCloseFailureIncludesTolerance7RunImplEv
 10103      00000000 
 10104              		.text
 10105              		.align 2
 10107              	_ZN12_GLOBAL__N_138TestCheckCloseFailureIncludesToleranceD2Ev:
 10108              	.LFB1317:
 159:TestChecks.cpp **** {
 10109              		.loc 5 159 0
 10110              		.cfi_startproc
 10111 3b24 55       		pushq	%rbp
 10112              		.cfi_def_cfa_offset 16
 10113              		.cfi_offset 6, -16
 10114 3b25 4889E5   		movq	%rsp, %rbp
 10115              		.cfi_def_cfa_register 6
 10116 3b28 4883EC10 		subq	$16, %rsp
 10117 3b2c 48897DF8 		movq	%rdi, -8(%rbp)
 10118              	.LBB165:
 159:TestChecks.cpp **** {
 10119              		.loc 5 159 0
 10120 3b30 488B45F8 		movq	-8(%rbp), %rax
 10121 3b34 48C70000 		movq	$_ZTVN12_GLOBAL__N_138TestCheckCloseFailureIncludesToleranceE+16, (%rax)
 10121      000000
 10122 3b3b 488B45F8 		movq	-8(%rbp), %rax
 10123 3b3f 4889C7   		movq	%rax, %rdi
 10124 3b42 E8000000 		call	_ZN8UnitTest4TestD2Ev
 10124      00
 10125              	.LBE165:
 10126 3b47 B8000000 		movl	$0, %eax
 10126      00
 10127 3b4c 85C0     		testl	%eax, %eax
 10128 3b4e 740C     		je	.L507
 159:TestChecks.cpp **** {
 10129              		.loc 5 159 0 is_stmt 0 discriminator 4
 10130 3b50 488B45F8 		movq	-8(%rbp), %rax
 10131 3b54 4889C7   		movq	%rax, %rdi
 10132 3b57 E8000000 		call	_ZdlPv
 10132      00
 10133              	.L507:
 159:TestChecks.cpp **** {
 10134              		.loc 5 159 0
 10135 3b5c C9       		leave
 10136              		.cfi_def_cfa 7, 8
 10137 3b5d C3       		ret
 10138              		.cfi_endproc
 10139              	.LFE1317:
 10141              		.set	_ZN12_GLOBAL__N_138TestCheckCloseFailureIncludesToleranceD1Ev,_ZN12_GLOBAL__N_138TestCheckClo
 10142              		.align 2
 10144              	_ZN12_GLOBAL__N_138TestCheckCloseFailureIncludesToleranceD0Ev:
 10145              	.LFB1319:
 159:TestChecks.cpp **** {
 10146              		.loc 5 159 0 is_stmt 1
 10147              		.cfi_startproc
 10148 3b5e 55       		pushq	%rbp
 10149              		.cfi_def_cfa_offset 16
 10150              		.cfi_offset 6, -16
 10151 3b5f 4889E5   		movq	%rsp, %rbp
 10152              		.cfi_def_cfa_register 6
 10153 3b62 4883EC10 		subq	$16, %rsp
 10154 3b66 48897DF8 		movq	%rdi, -8(%rbp)
 159:TestChecks.cpp **** {
 10155              		.loc 5 159 0
 10156 3b6a 488B45F8 		movq	-8(%rbp), %rax
 10157 3b6e 4889C7   		movq	%rax, %rdi
 10158 3b71 E8AEFFFF 		call	_ZN12_GLOBAL__N_138TestCheckCloseFailureIncludesToleranceD2Ev
 10158      FF
 10159 3b76 488B45F8 		movq	-8(%rbp), %rax
 10160 3b7a 4889C7   		movq	%rax, %rdi
 10161 3b7d E8000000 		call	_ZdlPv
 10161      00
 10162 3b82 C9       		leave
 10163              		.cfi_def_cfa 7, 8
 10164 3b83 C3       		ret
 10165              		.cfi_endproc
 10166              	.LFE1319:
 10168              		.section	.rodata
 10169 0ea8 00000000 		.align 32
 10169      00000000 
 10169      00000000 
 10169      00000000 
 10169      00000000 
 10172              	_ZTVN12_GLOBAL__N_151TestCheckCloseFailureIncludesCheckExpectedAndActualE:
 10173 0ec0 00000000 		.quad	0
 10173      00000000 
 10174 0ec8 00000000 		.quad	_ZTIN12_GLOBAL__N_151TestCheckCloseFailureIncludesCheckExpectedAndActualE
 10174      00000000 
 10175 0ed0 00000000 		.quad	_ZN12_GLOBAL__N_151TestCheckCloseFailureIncludesCheckExpectedAndActualD1Ev
 10175      00000000 
 10176 0ed8 00000000 		.quad	_ZN12_GLOBAL__N_151TestCheckCloseFailureIncludesCheckExpectedAndActualD0Ev
 10176      00000000 
 10177 0ee0 00000000 		.quad	_ZNK12_GLOBAL__N_151TestCheckCloseFailureIncludesCheckExpectedAndActual7RunImplEv
 10177      00000000 
 10178              		.text
 10179              		.align 2
 10181              	_ZN12_GLOBAL__N_151TestCheckCloseFailureIncludesCheckExpectedAndActualD2Ev:
 10182              	.LFB1321:
 146:TestChecks.cpp **** {
 10183              		.loc 5 146 0
 10184              		.cfi_startproc
 10185 3b84 55       		pushq	%rbp
 10186              		.cfi_def_cfa_offset 16
 10187              		.cfi_offset 6, -16
 10188 3b85 4889E5   		movq	%rsp, %rbp
 10189              		.cfi_def_cfa_register 6
 10190 3b88 4883EC10 		subq	$16, %rsp
 10191 3b8c 48897DF8 		movq	%rdi, -8(%rbp)
 10192              	.LBB166:
 146:TestChecks.cpp **** {
 10193              		.loc 5 146 0
 10194 3b90 488B45F8 		movq	-8(%rbp), %rax
 10195 3b94 48C70000 		movq	$_ZTVN12_GLOBAL__N_151TestCheckCloseFailureIncludesCheckExpectedAndActualE+16, (%rax)
 10195      000000
 10196 3b9b 488B45F8 		movq	-8(%rbp), %rax
 10197 3b9f 4889C7   		movq	%rax, %rdi
 10198 3ba2 E8000000 		call	_ZN8UnitTest4TestD2Ev
 10198      00
 10199              	.LBE166:
 10200 3ba7 B8000000 		movl	$0, %eax
 10200      00
 10201 3bac 85C0     		testl	%eax, %eax
 10202 3bae 740C     		je	.L512
 146:TestChecks.cpp **** {
 10203              		.loc 5 146 0 is_stmt 0 discriminator 4
 10204 3bb0 488B45F8 		movq	-8(%rbp), %rax
 10205 3bb4 4889C7   		movq	%rax, %rdi
 10206 3bb7 E8000000 		call	_ZdlPv
 10206      00
 10207              	.L512:
 146:TestChecks.cpp **** {
 10208              		.loc 5 146 0
 10209 3bbc C9       		leave
 10210              		.cfi_def_cfa 7, 8
 10211 3bbd C3       		ret
 10212              		.cfi_endproc
 10213              	.LFE1321:
 10215              		.set	_ZN12_GLOBAL__N_151TestCheckCloseFailureIncludesCheckExpectedAndActualD1Ev,_ZN12_GLOBAL__N_15
 10216              		.align 2
 10218              	_ZN12_GLOBAL__N_151TestCheckCloseFailureIncludesCheckExpectedAndActualD0Ev:
 10219              	.LFB1323:
 146:TestChecks.cpp **** {
 10220              		.loc 5 146 0 is_stmt 1
 10221              		.cfi_startproc
 10222 3bbe 55       		pushq	%rbp
 10223              		.cfi_def_cfa_offset 16
 10224              		.cfi_offset 6, -16
 10225 3bbf 4889E5   		movq	%rsp, %rbp
 10226              		.cfi_def_cfa_register 6
 10227 3bc2 4883EC10 		subq	$16, %rsp
 10228 3bc6 48897DF8 		movq	%rdi, -8(%rbp)
 146:TestChecks.cpp **** {
 10229              		.loc 5 146 0
 10230 3bca 488B45F8 		movq	-8(%rbp), %rax
 10231 3bce 4889C7   		movq	%rax, %rdi
 10232 3bd1 E8AEFFFF 		call	_ZN12_GLOBAL__N_151TestCheckCloseFailureIncludesCheckExpectedAndActualD2Ev
 10232      FF
 10233 3bd6 488B45F8 		movq	-8(%rbp), %rax
 10234 3bda 4889C7   		movq	%rax, %rdi
 10235 3bdd E8000000 		call	_ZdlPv
 10235      00
 10236 3be2 C9       		leave
 10237              		.cfi_def_cfa 7, 8
 10238 3be3 C3       		ret
 10239              		.cfi_endproc
 10240              	.LFE1323:
 10242              		.section	.rodata
 10243 0ee8 00000000 		.align 32
 10243      00000000 
 10243      00000000 
 10243      00000000 
 10243      00000000 
 10246              	_ZTVN12_GLOBAL__N_139TestCheckCloseWithNaNAgainstItselfFailsE:
 10247 0f00 00000000 		.quad	0
 10247      00000000 
 10248 0f08 00000000 		.quad	_ZTIN12_GLOBAL__N_139TestCheckCloseWithNaNAgainstItselfFailsE
 10248      00000000 
 10249 0f10 00000000 		.quad	_ZN12_GLOBAL__N_139TestCheckCloseWithNaNAgainstItselfFailsD1Ev
 10249      00000000 
 10250 0f18 00000000 		.quad	_ZN12_GLOBAL__N_139TestCheckCloseWithNaNAgainstItselfFailsD0Ev
 10250      00000000 
 10251 0f20 00000000 		.quad	_ZNK12_GLOBAL__N_139TestCheckCloseWithNaNAgainstItselfFails7RunImplEv
 10251      00000000 
 10252              		.text
 10253              		.align 2
 10255              	_ZN12_GLOBAL__N_139TestCheckCloseWithNaNAgainstItselfFailsD2Ev:
 10256              	.LFB1325:
 133:TestChecks.cpp **** {
 10257              		.loc 5 133 0
 10258              		.cfi_startproc
 10259 3be4 55       		pushq	%rbp
 10260              		.cfi_def_cfa_offset 16
 10261              		.cfi_offset 6, -16
 10262 3be5 4889E5   		movq	%rsp, %rbp
 10263              		.cfi_def_cfa_register 6
 10264 3be8 4883EC10 		subq	$16, %rsp
 10265 3bec 48897DF8 		movq	%rdi, -8(%rbp)
 10266              	.LBB167:
 133:TestChecks.cpp **** {
 10267              		.loc 5 133 0
 10268 3bf0 488B45F8 		movq	-8(%rbp), %rax
 10269 3bf4 48C70000 		movq	$_ZTVN12_GLOBAL__N_139TestCheckCloseWithNaNAgainstItselfFailsE+16, (%rax)
 10269      000000
 10270 3bfb 488B45F8 		movq	-8(%rbp), %rax
 10271 3bff 4889C7   		movq	%rax, %rdi
 10272 3c02 E8000000 		call	_ZN8UnitTest4TestD2Ev
 10272      00
 10273              	.LBE167:
 10274 3c07 B8000000 		movl	$0, %eax
 10274      00
 10275 3c0c 85C0     		testl	%eax, %eax
 10276 3c0e 740C     		je	.L517
 133:TestChecks.cpp **** {
 10277              		.loc 5 133 0 is_stmt 0 discriminator 4
 10278 3c10 488B45F8 		movq	-8(%rbp), %rax
 10279 3c14 4889C7   		movq	%rax, %rdi
 10280 3c17 E8000000 		call	_ZdlPv
 10280      00
 10281              	.L517:
 133:TestChecks.cpp **** {
 10282              		.loc 5 133 0
 10283 3c1c C9       		leave
 10284              		.cfi_def_cfa 7, 8
 10285 3c1d C3       		ret
 10286              		.cfi_endproc
 10287              	.LFE1325:
 10289              		.set	_ZN12_GLOBAL__N_139TestCheckCloseWithNaNAgainstItselfFailsD1Ev,_ZN12_GLOBAL__N_139TestCheckCl
 10290              		.align 2
 10292              	_ZN12_GLOBAL__N_139TestCheckCloseWithNaNAgainstItselfFailsD0Ev:
 10293              	.LFB1327:
 133:TestChecks.cpp **** {
 10294              		.loc 5 133 0 is_stmt 1
 10295              		.cfi_startproc
 10296 3c1e 55       		pushq	%rbp
 10297              		.cfi_def_cfa_offset 16
 10298              		.cfi_offset 6, -16
 10299 3c1f 4889E5   		movq	%rsp, %rbp
 10300              		.cfi_def_cfa_register 6
 10301 3c22 4883EC10 		subq	$16, %rsp
 10302 3c26 48897DF8 		movq	%rdi, -8(%rbp)
 133:TestChecks.cpp **** {
 10303              		.loc 5 133 0
 10304 3c2a 488B45F8 		movq	-8(%rbp), %rax
 10305 3c2e 4889C7   		movq	%rax, %rdi
 10306 3c31 E8AEFFFF 		call	_ZN12_GLOBAL__N_139TestCheckCloseWithNaNAgainstItselfFailsD2Ev
 10306      FF
 10307 3c36 488B45F8 		movq	-8(%rbp), %rax
 10308 3c3a 4889C7   		movq	%rax, %rdi
 10309 3c3d E8000000 		call	_ZdlPv
 10309      00
 10310 3c42 C9       		leave
 10311              		.cfi_def_cfa 7, 8
 10312 3c43 C3       		ret
 10313              		.cfi_endproc
 10314              	.LFE1327:
 10316              		.section	.rodata
 10317 0f28 00000000 		.align 32
 10317      00000000 
 10317      00000000 
 10317      00000000 
 10317      00000000 
 10320              	_ZTVN12_GLOBAL__N_126TestCheckCloseWithNaNFailsE:
 10321 0f40 00000000 		.quad	0
 10321      00000000 
 10322 0f48 00000000 		.quad	_ZTIN12_GLOBAL__N_126TestCheckCloseWithNaNFailsE
 10322      00000000 
 10323 0f50 00000000 		.quad	_ZN12_GLOBAL__N_126TestCheckCloseWithNaNFailsD1Ev
 10323      00000000 
 10324 0f58 00000000 		.quad	_ZN12_GLOBAL__N_126TestCheckCloseWithNaNFailsD0Ev
 10324      00000000 
 10325 0f60 00000000 		.quad	_ZNK12_GLOBAL__N_126TestCheckCloseWithNaNFails7RunImplEv
 10325      00000000 
 10326              		.text
 10327              		.align 2
 10329              	_ZN12_GLOBAL__N_126TestCheckCloseWithNaNFailsD2Ev:
 10330              	.LFB1329:
 120:TestChecks.cpp **** {
 10331              		.loc 5 120 0
 10332              		.cfi_startproc
 10333 3c44 55       		pushq	%rbp
 10334              		.cfi_def_cfa_offset 16
 10335              		.cfi_offset 6, -16
 10336 3c45 4889E5   		movq	%rsp, %rbp
 10337              		.cfi_def_cfa_register 6
 10338 3c48 4883EC10 		subq	$16, %rsp
 10339 3c4c 48897DF8 		movq	%rdi, -8(%rbp)
 10340              	.LBB168:
 120:TestChecks.cpp **** {
 10341              		.loc 5 120 0
 10342 3c50 488B45F8 		movq	-8(%rbp), %rax
 10343 3c54 48C70000 		movq	$_ZTVN12_GLOBAL__N_126TestCheckCloseWithNaNFailsE+16, (%rax)
 10343      000000
 10344 3c5b 488B45F8 		movq	-8(%rbp), %rax
 10345 3c5f 4889C7   		movq	%rax, %rdi
 10346 3c62 E8000000 		call	_ZN8UnitTest4TestD2Ev
 10346      00
 10347              	.LBE168:
 10348 3c67 B8000000 		movl	$0, %eax
 10348      00
 10349 3c6c 85C0     		testl	%eax, %eax
 10350 3c6e 740C     		je	.L522
 120:TestChecks.cpp **** {
 10351              		.loc 5 120 0 is_stmt 0 discriminator 4
 10352 3c70 488B45F8 		movq	-8(%rbp), %rax
 10353 3c74 4889C7   		movq	%rax, %rdi
 10354 3c77 E8000000 		call	_ZdlPv
 10354      00
 10355              	.L522:
 120:TestChecks.cpp **** {
 10356              		.loc 5 120 0
 10357 3c7c C9       		leave
 10358              		.cfi_def_cfa 7, 8
 10359 3c7d C3       		ret
 10360              		.cfi_endproc
 10361              	.LFE1329:
 10363              		.set	_ZN12_GLOBAL__N_126TestCheckCloseWithNaNFailsD1Ev,_ZN12_GLOBAL__N_126TestCheckCloseWithNaNFai
 10364              		.align 2
 10366              	_ZN12_GLOBAL__N_126TestCheckCloseWithNaNFailsD0Ev:
 10367              	.LFB1331:
 120:TestChecks.cpp **** {
 10368              		.loc 5 120 0 is_stmt 1
 10369              		.cfi_startproc
 10370 3c7e 55       		pushq	%rbp
 10371              		.cfi_def_cfa_offset 16
 10372              		.cfi_offset 6, -16
 10373 3c7f 4889E5   		movq	%rsp, %rbp
 10374              		.cfi_def_cfa_register 6
 10375 3c82 4883EC10 		subq	$16, %rsp
 10376 3c86 48897DF8 		movq	%rdi, -8(%rbp)
 120:TestChecks.cpp **** {
 10377              		.loc 5 120 0
 10378 3c8a 488B45F8 		movq	-8(%rbp), %rax
 10379 3c8e 4889C7   		movq	%rax, %rdi
 10380 3c91 E8AEFFFF 		call	_ZN12_GLOBAL__N_126TestCheckCloseWithNaNFailsD2Ev
 10380      FF
 10381 3c96 488B45F8 		movq	-8(%rbp), %rax
 10382 3c9a 4889C7   		movq	%rax, %rdi
 10383 3c9d E8000000 		call	_ZdlPv
 10383      00
 10384 3ca2 C9       		leave
 10385              		.cfi_def_cfa 7, 8
 10386 3ca3 C3       		ret
 10387              		.cfi_endproc
 10388              	.LFE1331:
 10390              		.section	.rodata
 10391 0f68 00000000 		.align 32
 10391      00000000 
 10391      00000000 
 10391      00000000 
 10391      00000000 
 10394              	_ZTVN12_GLOBAL__N_147TestCheckCloseWithZeroEpsilonWorksForSameNumberE:
 10395 0f80 00000000 		.quad	0
 10395      00000000 
 10396 0f88 00000000 		.quad	_ZTIN12_GLOBAL__N_147TestCheckCloseWithZeroEpsilonWorksForSameNumberE
 10396      00000000 
 10397 0f90 00000000 		.quad	_ZN12_GLOBAL__N_147TestCheckCloseWithZeroEpsilonWorksForSameNumberD1Ev
 10397      00000000 
 10398 0f98 00000000 		.quad	_ZN12_GLOBAL__N_147TestCheckCloseWithZeroEpsilonWorksForSameNumberD0Ev
 10398      00000000 
 10399 0fa0 00000000 		.quad	_ZNK12_GLOBAL__N_147TestCheckCloseWithZeroEpsilonWorksForSameNumber7RunImplEv
 10399      00000000 
 10400              		.text
 10401              		.align 2
 10403              	_ZN12_GLOBAL__N_147TestCheckCloseWithZeroEpsilonWorksForSameNumberD2Ev:
 10404              	.LFB1333:
 113:TestChecks.cpp **** {
 10405              		.loc 5 113 0
 10406              		.cfi_startproc
 10407 3ca4 55       		pushq	%rbp
 10408              		.cfi_def_cfa_offset 16
 10409              		.cfi_offset 6, -16
 10410 3ca5 4889E5   		movq	%rsp, %rbp
 10411              		.cfi_def_cfa_register 6
 10412 3ca8 4883EC10 		subq	$16, %rsp
 10413 3cac 48897DF8 		movq	%rdi, -8(%rbp)
 10414              	.LBB169:
 113:TestChecks.cpp **** {
 10415              		.loc 5 113 0
 10416 3cb0 488B45F8 		movq	-8(%rbp), %rax
 10417 3cb4 48C70000 		movq	$_ZTVN12_GLOBAL__N_147TestCheckCloseWithZeroEpsilonWorksForSameNumberE+16, (%rax)
 10417      000000
 10418 3cbb 488B45F8 		movq	-8(%rbp), %rax
 10419 3cbf 4889C7   		movq	%rax, %rdi
 10420 3cc2 E8000000 		call	_ZN8UnitTest4TestD2Ev
 10420      00
 10421              	.LBE169:
 10422 3cc7 B8000000 		movl	$0, %eax
 10422      00
 10423 3ccc 85C0     		testl	%eax, %eax
 10424 3cce 740C     		je	.L527
 113:TestChecks.cpp **** {
 10425              		.loc 5 113 0 is_stmt 0 discriminator 4
 10426 3cd0 488B45F8 		movq	-8(%rbp), %rax
 10427 3cd4 4889C7   		movq	%rax, %rdi
 10428 3cd7 E8000000 		call	_ZdlPv
 10428      00
 10429              	.L527:
 113:TestChecks.cpp **** {
 10430              		.loc 5 113 0
 10431 3cdc C9       		leave
 10432              		.cfi_def_cfa 7, 8
 10433 3cdd C3       		ret
 10434              		.cfi_endproc
 10435              	.LFE1333:
 10437              		.set	_ZN12_GLOBAL__N_147TestCheckCloseWithZeroEpsilonWorksForSameNumberD1Ev,_ZN12_GLOBAL__N_147Tes
 10438              		.align 2
 10440              	_ZN12_GLOBAL__N_147TestCheckCloseWithZeroEpsilonWorksForSameNumberD0Ev:
 10441              	.LFB1335:
 113:TestChecks.cpp **** {
 10442              		.loc 5 113 0 is_stmt 1
 10443              		.cfi_startproc
 10444 3cde 55       		pushq	%rbp
 10445              		.cfi_def_cfa_offset 16
 10446              		.cfi_offset 6, -16
 10447 3cdf 4889E5   		movq	%rsp, %rbp
 10448              		.cfi_def_cfa_register 6
 10449 3ce2 4883EC10 		subq	$16, %rsp
 10450 3ce6 48897DF8 		movq	%rdi, -8(%rbp)
 113:TestChecks.cpp **** {
 10451              		.loc 5 113 0
 10452 3cea 488B45F8 		movq	-8(%rbp), %rax
 10453 3cee 4889C7   		movq	%rax, %rdi
 10454 3cf1 E8AEFFFF 		call	_ZN12_GLOBAL__N_147TestCheckCloseWithZeroEpsilonWorksForSameNumberD2Ev
 10454      FF
 10455 3cf6 488B45F8 		movq	-8(%rbp), %rax
 10456 3cfa 4889C7   		movq	%rax, %rdi
 10457 3cfd E8000000 		call	_ZdlPv
 10457      00
 10458 3d02 C9       		leave
 10459              		.cfi_def_cfa 7, 8
 10460 3d03 C3       		ret
 10461              		.cfi_endproc
 10462              	.LFE1335:
 10464              		.section	.rodata
 10465 0fa8 00000000 		.align 32
 10465      00000000 
 10465      00000000 
 10465      00000000 
 10465      00000000 
 10468              	_ZTVN12_GLOBAL__N_119TestCheckCloseFalseE:
 10469 0fc0 00000000 		.quad	0
 10469      00000000 
 10470 0fc8 00000000 		.quad	_ZTIN12_GLOBAL__N_119TestCheckCloseFalseE
 10470      00000000 
 10471 0fd0 00000000 		.quad	_ZN12_GLOBAL__N_119TestCheckCloseFalseD1Ev
 10471      00000000 
 10472 0fd8 00000000 		.quad	_ZN12_GLOBAL__N_119TestCheckCloseFalseD0Ev
 10472      00000000 
 10473 0fe0 00000000 		.quad	_ZNK12_GLOBAL__N_119TestCheckCloseFalse7RunImplEv
 10473      00000000 
 10474              		.text
 10475              		.align 2
 10477              	_ZN12_GLOBAL__N_119TestCheckCloseFalseD2Ev:
 10478              	.LFB1337:
 106:TestChecks.cpp **** {
 10479              		.loc 5 106 0
 10480              		.cfi_startproc
 10481 3d04 55       		pushq	%rbp
 10482              		.cfi_def_cfa_offset 16
 10483              		.cfi_offset 6, -16
 10484 3d05 4889E5   		movq	%rsp, %rbp
 10485              		.cfi_def_cfa_register 6
 10486 3d08 4883EC10 		subq	$16, %rsp
 10487 3d0c 48897DF8 		movq	%rdi, -8(%rbp)
 10488              	.LBB170:
 106:TestChecks.cpp **** {
 10489              		.loc 5 106 0
 10490 3d10 488B45F8 		movq	-8(%rbp), %rax
 10491 3d14 48C70000 		movq	$_ZTVN12_GLOBAL__N_119TestCheckCloseFalseE+16, (%rax)
 10491      000000
 10492 3d1b 488B45F8 		movq	-8(%rbp), %rax
 10493 3d1f 4889C7   		movq	%rax, %rdi
 10494 3d22 E8000000 		call	_ZN8UnitTest4TestD2Ev
 10494      00
 10495              	.LBE170:
 10496 3d27 B8000000 		movl	$0, %eax
 10496      00
 10497 3d2c 85C0     		testl	%eax, %eax
 10498 3d2e 740C     		je	.L532
 106:TestChecks.cpp **** {
 10499              		.loc 5 106 0 is_stmt 0 discriminator 4
 10500 3d30 488B45F8 		movq	-8(%rbp), %rax
 10501 3d34 4889C7   		movq	%rax, %rdi
 10502 3d37 E8000000 		call	_ZdlPv
 10502      00
 10503              	.L532:
 106:TestChecks.cpp **** {
 10504              		.loc 5 106 0
 10505 3d3c C9       		leave
 10506              		.cfi_def_cfa 7, 8
 10507 3d3d C3       		ret
 10508              		.cfi_endproc
 10509              	.LFE1337:
 10511              		.set	_ZN12_GLOBAL__N_119TestCheckCloseFalseD1Ev,_ZN12_GLOBAL__N_119TestCheckCloseFalseD2Ev
 10512              		.align 2
 10514              	_ZN12_GLOBAL__N_119TestCheckCloseFalseD0Ev:
 10515              	.LFB1339:
 106:TestChecks.cpp **** {
 10516              		.loc 5 106 0 is_stmt 1
 10517              		.cfi_startproc
 10518 3d3e 55       		pushq	%rbp
 10519              		.cfi_def_cfa_offset 16
 10520              		.cfi_offset 6, -16
 10521 3d3f 4889E5   		movq	%rsp, %rbp
 10522              		.cfi_def_cfa_register 6
 10523 3d42 4883EC10 		subq	$16, %rsp
 10524 3d46 48897DF8 		movq	%rdi, -8(%rbp)
 106:TestChecks.cpp **** {
 10525              		.loc 5 106 0
 10526 3d4a 488B45F8 		movq	-8(%rbp), %rax
 10527 3d4e 4889C7   		movq	%rax, %rdi
 10528 3d51 E8AEFFFF 		call	_ZN12_GLOBAL__N_119TestCheckCloseFalseD2Ev
 10528      FF
 10529 3d56 488B45F8 		movq	-8(%rbp), %rax
 10530 3d5a 4889C7   		movq	%rax, %rdi
 10531 3d5d E8000000 		call	_ZdlPv
 10531      00
 10532 3d62 C9       		leave
 10533              		.cfi_def_cfa 7, 8
 10534 3d63 C3       		ret
 10535              		.cfi_endproc
 10536              	.LFE1339:
 10538              		.section	.rodata
 10539 0fe8 00000000 		.align 32
 10539      00000000 
 10539      00000000 
 10539      00000000 
 10539      00000000 
 10542              	_ZTVN12_GLOBAL__N_118TestCheckCloseTrueE:
 10543 1000 00000000 		.quad	0
 10543      00000000 
 10544 1008 00000000 		.quad	_ZTIN12_GLOBAL__N_118TestCheckCloseTrueE
 10544      00000000 
 10545 1010 00000000 		.quad	_ZN12_GLOBAL__N_118TestCheckCloseTrueD1Ev
 10545      00000000 
 10546 1018 00000000 		.quad	_ZN12_GLOBAL__N_118TestCheckCloseTrueD0Ev
 10546      00000000 
 10547 1020 00000000 		.quad	_ZNK12_GLOBAL__N_118TestCheckCloseTrue7RunImplEv
 10547      00000000 
 10548              		.text
 10549              		.align 2
 10551              	_ZN12_GLOBAL__N_118TestCheckCloseTrueD2Ev:
 10552              	.LFB1341:
  99:TestChecks.cpp **** {
 10553              		.loc 5 99 0
 10554              		.cfi_startproc
 10555 3d64 55       		pushq	%rbp
 10556              		.cfi_def_cfa_offset 16
 10557              		.cfi_offset 6, -16
 10558 3d65 4889E5   		movq	%rsp, %rbp
 10559              		.cfi_def_cfa_register 6
 10560 3d68 4883EC10 		subq	$16, %rsp
 10561 3d6c 48897DF8 		movq	%rdi, -8(%rbp)
 10562              	.LBB171:
  99:TestChecks.cpp **** {
 10563              		.loc 5 99 0
 10564 3d70 488B45F8 		movq	-8(%rbp), %rax
 10565 3d74 48C70000 		movq	$_ZTVN12_GLOBAL__N_118TestCheckCloseTrueE+16, (%rax)
 10565      000000
 10566 3d7b 488B45F8 		movq	-8(%rbp), %rax
 10567 3d7f 4889C7   		movq	%rax, %rdi
 10568 3d82 E8000000 		call	_ZN8UnitTest4TestD2Ev
 10568      00
 10569              	.LBE171:
 10570 3d87 B8000000 		movl	$0, %eax
 10570      00
 10571 3d8c 85C0     		testl	%eax, %eax
 10572 3d8e 740C     		je	.L537
  99:TestChecks.cpp **** {
 10573              		.loc 5 99 0 is_stmt 0 discriminator 4
 10574 3d90 488B45F8 		movq	-8(%rbp), %rax
 10575 3d94 4889C7   		movq	%rax, %rdi
 10576 3d97 E8000000 		call	_ZdlPv
 10576      00
 10577              	.L537:
  99:TestChecks.cpp **** {
 10578              		.loc 5 99 0
 10579 3d9c C9       		leave
 10580              		.cfi_def_cfa 7, 8
 10581 3d9d C3       		ret
 10582              		.cfi_endproc
 10583              	.LFE1341:
 10585              		.set	_ZN12_GLOBAL__N_118TestCheckCloseTrueD1Ev,_ZN12_GLOBAL__N_118TestCheckCloseTrueD2Ev
 10586              		.align 2
 10588              	_ZN12_GLOBAL__N_118TestCheckCloseTrueD0Ev:
 10589              	.LFB1343:
  99:TestChecks.cpp **** {
 10590              		.loc 5 99 0 is_stmt 1
 10591              		.cfi_startproc
 10592 3d9e 55       		pushq	%rbp
 10593              		.cfi_def_cfa_offset 16
 10594              		.cfi_offset 6, -16
 10595 3d9f 4889E5   		movq	%rsp, %rbp
 10596              		.cfi_def_cfa_register 6
 10597 3da2 4883EC10 		subq	$16, %rsp
 10598 3da6 48897DF8 		movq	%rdi, -8(%rbp)
  99:TestChecks.cpp **** {
 10599              		.loc 5 99 0
 10600 3daa 488B45F8 		movq	-8(%rbp), %rax
 10601 3dae 4889C7   		movq	%rax, %rdi
 10602 3db1 E8AEFFFF 		call	_ZN12_GLOBAL__N_118TestCheckCloseTrueD2Ev
 10602      FF
 10603 3db6 488B45F8 		movq	-8(%rbp), %rax
 10604 3dba 4889C7   		movq	%rax, %rdi
 10605 3dbd E8000000 		call	_ZdlPv
 10605      00
 10606 3dc2 C9       		leave
 10607              		.cfi_def_cfa 7, 8
 10608 3dc3 C3       		ret
 10609              		.cfi_endproc
 10610              	.LFE1343:
 10612              		.section	.rodata
 10613 1028 00000000 		.align 32
 10613      00000000 
 10613      00000000 
 10613      00000000 
 10613      00000000 
 10616              	_ZTVN12_GLOBAL__N_136TestCheckEqualFailureIncludesDetailsE:
 10617 1040 00000000 		.quad	0
 10617      00000000 
 10618 1048 00000000 		.quad	_ZTIN12_GLOBAL__N_136TestCheckEqualFailureIncludesDetailsE
 10618      00000000 
 10619 1050 00000000 		.quad	_ZN12_GLOBAL__N_136TestCheckEqualFailureIncludesDetailsD1Ev
 10619      00000000 
 10620 1058 00000000 		.quad	_ZN12_GLOBAL__N_136TestCheckEqualFailureIncludesDetailsD0Ev
 10620      00000000 
 10621 1060 00000000 		.quad	_ZNK12_GLOBAL__N_136TestCheckEqualFailureIncludesDetails7RunImplEv
 10621      00000000 
 10622              		.text
 10623              		.align 2
 10625              	_ZN12_GLOBAL__N_136TestCheckEqualFailureIncludesDetailsD2Ev:
 10626              	.LFB1345:
  85:TestChecks.cpp **** {
 10627              		.loc 5 85 0
 10628              		.cfi_startproc
 10629 3dc4 55       		pushq	%rbp
 10630              		.cfi_def_cfa_offset 16
 10631              		.cfi_offset 6, -16
 10632 3dc5 4889E5   		movq	%rsp, %rbp
 10633              		.cfi_def_cfa_register 6
 10634 3dc8 4883EC10 		subq	$16, %rsp
 10635 3dcc 48897DF8 		movq	%rdi, -8(%rbp)
 10636              	.LBB172:
  85:TestChecks.cpp **** {
 10637              		.loc 5 85 0
 10638 3dd0 488B45F8 		movq	-8(%rbp), %rax
 10639 3dd4 48C70000 		movq	$_ZTVN12_GLOBAL__N_136TestCheckEqualFailureIncludesDetailsE+16, (%rax)
 10639      000000
 10640 3ddb 488B45F8 		movq	-8(%rbp), %rax
 10641 3ddf 4889C7   		movq	%rax, %rdi
 10642 3de2 E8000000 		call	_ZN8UnitTest4TestD2Ev
 10642      00
 10643              	.LBE172:
 10644 3de7 B8000000 		movl	$0, %eax
 10644      00
 10645 3dec 85C0     		testl	%eax, %eax
 10646 3dee 740C     		je	.L542
  85:TestChecks.cpp **** {
 10647              		.loc 5 85 0 is_stmt 0 discriminator 4
 10648 3df0 488B45F8 		movq	-8(%rbp), %rax
 10649 3df4 4889C7   		movq	%rax, %rdi
 10650 3df7 E8000000 		call	_ZdlPv
 10650      00
 10651              	.L542:
  85:TestChecks.cpp **** {
 10652              		.loc 5 85 0
 10653 3dfc C9       		leave
 10654              		.cfi_def_cfa 7, 8
 10655 3dfd C3       		ret
 10656              		.cfi_endproc
 10657              	.LFE1345:
 10659              		.set	_ZN12_GLOBAL__N_136TestCheckEqualFailureIncludesDetailsD1Ev,_ZN12_GLOBAL__N_136TestCheckEqual
 10660              		.align 2
 10662              	_ZN12_GLOBAL__N_136TestCheckEqualFailureIncludesDetailsD0Ev:
 10663              	.LFB1347:
  85:TestChecks.cpp **** {
 10664              		.loc 5 85 0 is_stmt 1
 10665              		.cfi_startproc
 10666 3dfe 55       		pushq	%rbp
 10667              		.cfi_def_cfa_offset 16
 10668              		.cfi_offset 6, -16
 10669 3dff 4889E5   		movq	%rsp, %rbp
 10670              		.cfi_def_cfa_register 6
 10671 3e02 4883EC10 		subq	$16, %rsp
 10672 3e06 48897DF8 		movq	%rdi, -8(%rbp)
  85:TestChecks.cpp **** {
 10673              		.loc 5 85 0
 10674 3e0a 488B45F8 		movq	-8(%rbp), %rax
 10675 3e0e 4889C7   		movq	%rax, %rdi
 10676 3e11 E8AEFFFF 		call	_ZN12_GLOBAL__N_136TestCheckEqualFailureIncludesDetailsD2Ev
 10676      FF
 10677 3e16 488B45F8 		movq	-8(%rbp), %rax
 10678 3e1a 4889C7   		movq	%rax, %rdi
 10679 3e1d E8000000 		call	_ZdlPv
 10679      00
 10680 3e22 C9       		leave
 10681              		.cfi_def_cfa 7, 8
 10682 3e23 C3       		ret
 10683              		.cfi_endproc
 10684              	.LFE1347:
 10686              		.section	.rodata
 10687 1068 00000000 		.align 32
 10687      00000000 
 10687      00000000 
 10687      00000000 
 10687      00000000 
 10690              	_ZTVN12_GLOBAL__N_151TestCheckEqualFailureIncludesCheckExpectedAndActualE:
 10691 1080 00000000 		.quad	0
 10691      00000000 
 10692 1088 00000000 		.quad	_ZTIN12_GLOBAL__N_151TestCheckEqualFailureIncludesCheckExpectedAndActualE
 10692      00000000 
 10693 1090 00000000 		.quad	_ZN12_GLOBAL__N_151TestCheckEqualFailureIncludesCheckExpectedAndActualD1Ev
 10693      00000000 
 10694 1098 00000000 		.quad	_ZN12_GLOBAL__N_151TestCheckEqualFailureIncludesCheckExpectedAndActualD0Ev
 10694      00000000 
 10695 10a0 00000000 		.quad	_ZNK12_GLOBAL__N_151TestCheckEqualFailureIncludesCheckExpectedAndActual7RunImplEv
 10695      00000000 
 10696              		.text
 10697              		.align 2
 10699              	_ZN12_GLOBAL__N_151TestCheckEqualFailureIncludesCheckExpectedAndActualD2Ev:
 10700              	.LFB1349:
  73:TestChecks.cpp **** {
 10701              		.loc 5 73 0
 10702              		.cfi_startproc
 10703 3e24 55       		pushq	%rbp
 10704              		.cfi_def_cfa_offset 16
 10705              		.cfi_offset 6, -16
 10706 3e25 4889E5   		movq	%rsp, %rbp
 10707              		.cfi_def_cfa_register 6
 10708 3e28 4883EC10 		subq	$16, %rsp
 10709 3e2c 48897DF8 		movq	%rdi, -8(%rbp)
 10710              	.LBB173:
  73:TestChecks.cpp **** {
 10711              		.loc 5 73 0
 10712 3e30 488B45F8 		movq	-8(%rbp), %rax
 10713 3e34 48C70000 		movq	$_ZTVN12_GLOBAL__N_151TestCheckEqualFailureIncludesCheckExpectedAndActualE+16, (%rax)
 10713      000000
 10714 3e3b 488B45F8 		movq	-8(%rbp), %rax
 10715 3e3f 4889C7   		movq	%rax, %rdi
 10716 3e42 E8000000 		call	_ZN8UnitTest4TestD2Ev
 10716      00
 10717              	.LBE173:
 10718 3e47 B8000000 		movl	$0, %eax
 10718      00
 10719 3e4c 85C0     		testl	%eax, %eax
 10720 3e4e 740C     		je	.L547
  73:TestChecks.cpp **** {
 10721              		.loc 5 73 0 is_stmt 0 discriminator 4
 10722 3e50 488B45F8 		movq	-8(%rbp), %rax
 10723 3e54 4889C7   		movq	%rax, %rdi
 10724 3e57 E8000000 		call	_ZdlPv
 10724      00
 10725              	.L547:
  73:TestChecks.cpp **** {
 10726              		.loc 5 73 0
 10727 3e5c C9       		leave
 10728              		.cfi_def_cfa 7, 8
 10729 3e5d C3       		ret
 10730              		.cfi_endproc
 10731              	.LFE1349:
 10733              		.set	_ZN12_GLOBAL__N_151TestCheckEqualFailureIncludesCheckExpectedAndActualD1Ev,_ZN12_GLOBAL__N_15
 10734              		.align 2
 10736              	_ZN12_GLOBAL__N_151TestCheckEqualFailureIncludesCheckExpectedAndActualD0Ev:
 10737              	.LFB1351:
  73:TestChecks.cpp **** {
 10738              		.loc 5 73 0 is_stmt 1
 10739              		.cfi_startproc
 10740 3e5e 55       		pushq	%rbp
 10741              		.cfi_def_cfa_offset 16
 10742              		.cfi_offset 6, -16
 10743 3e5f 4889E5   		movq	%rsp, %rbp
 10744              		.cfi_def_cfa_register 6
 10745 3e62 4883EC10 		subq	$16, %rsp
 10746 3e66 48897DF8 		movq	%rdi, -8(%rbp)
  73:TestChecks.cpp **** {
 10747              		.loc 5 73 0
 10748 3e6a 488B45F8 		movq	-8(%rbp), %rax
 10749 3e6e 4889C7   		movq	%rax, %rdi
 10750 3e71 E8AEFFFF 		call	_ZN12_GLOBAL__N_151TestCheckEqualFailureIncludesCheckExpectedAndActualD2Ev
 10750      FF
 10751 3e76 488B45F8 		movq	-8(%rbp), %rax
 10752 3e7a 4889C7   		movq	%rax, %rdi
 10753 3e7d E8000000 		call	_ZdlPv
 10753      00
 10754 3e82 C9       		leave
 10755              		.cfi_def_cfa 7, 8
 10756 3e83 C3       		ret
 10757              		.cfi_endproc
 10758              	.LFE1351:
 10760              		.section	.rodata
 10761 10a8 00000000 		.align 32
 10761      00000000 
 10761      00000000 
 10761      00000000 
 10761      00000000 
 10764              	_ZTVN12_GLOBAL__N_153TestCheckEqualsWithStringsWorksOnContentsWithALiteralE:
 10765 10c0 00000000 		.quad	0
 10765      00000000 
 10766 10c8 00000000 		.quad	_ZTIN12_GLOBAL__N_153TestCheckEqualsWithStringsWorksOnContentsWithALiteralE
 10766      00000000 
 10767 10d0 00000000 		.quad	_ZN12_GLOBAL__N_153TestCheckEqualsWithStringsWorksOnContentsWithALiteralD1Ev
 10767      00000000 
 10768 10d8 00000000 		.quad	_ZN12_GLOBAL__N_153TestCheckEqualsWithStringsWorksOnContentsWithALiteralD0Ev
 10768      00000000 
 10769 10e0 00000000 		.quad	_ZNK12_GLOBAL__N_153TestCheckEqualsWithStringsWorksOnContentsWithALiteral7RunImplEv
 10769      00000000 
 10770              		.text
 10771              		.align 2
 10773              	_ZN12_GLOBAL__N_153TestCheckEqualsWithStringsWorksOnContentsWithALiteralD2Ev:
 10774              	.LFB1353:
  65:TestChecks.cpp **** {
 10775              		.loc 5 65 0
 10776              		.cfi_startproc
 10777 3e84 55       		pushq	%rbp
 10778              		.cfi_def_cfa_offset 16
 10779              		.cfi_offset 6, -16
 10780 3e85 4889E5   		movq	%rsp, %rbp
 10781              		.cfi_def_cfa_register 6
 10782 3e88 4883EC10 		subq	$16, %rsp
 10783 3e8c 48897DF8 		movq	%rdi, -8(%rbp)
 10784              	.LBB174:
  65:TestChecks.cpp **** {
 10785              		.loc 5 65 0
 10786 3e90 488B45F8 		movq	-8(%rbp), %rax
 10787 3e94 48C70000 		movq	$_ZTVN12_GLOBAL__N_153TestCheckEqualsWithStringsWorksOnContentsWithALiteralE+16, (%rax)
 10787      000000
 10788 3e9b 488B45F8 		movq	-8(%rbp), %rax
 10789 3e9f 4889C7   		movq	%rax, %rdi
 10790 3ea2 E8000000 		call	_ZN8UnitTest4TestD2Ev
 10790      00
 10791              	.LBE174:
 10792 3ea7 B8000000 		movl	$0, %eax
 10792      00
 10793 3eac 85C0     		testl	%eax, %eax
 10794 3eae 740C     		je	.L552
  65:TestChecks.cpp **** {
 10795              		.loc 5 65 0 is_stmt 0 discriminator 4
 10796 3eb0 488B45F8 		movq	-8(%rbp), %rax
 10797 3eb4 4889C7   		movq	%rax, %rdi
 10798 3eb7 E8000000 		call	_ZdlPv
 10798      00
 10799              	.L552:
  65:TestChecks.cpp **** {
 10800              		.loc 5 65 0
 10801 3ebc C9       		leave
 10802              		.cfi_def_cfa 7, 8
 10803 3ebd C3       		ret
 10804              		.cfi_endproc
 10805              	.LFE1353:
 10807              		.set	_ZN12_GLOBAL__N_153TestCheckEqualsWithStringsWorksOnContentsWithALiteralD1Ev,_ZN12_GLOBAL__N_
 10808              		.align 2
 10810              	_ZN12_GLOBAL__N_153TestCheckEqualsWithStringsWorksOnContentsWithALiteralD0Ev:
 10811              	.LFB1355:
  65:TestChecks.cpp **** {
 10812              		.loc 5 65 0 is_stmt 1
 10813              		.cfi_startproc
 10814 3ebe 55       		pushq	%rbp
 10815              		.cfi_def_cfa_offset 16
 10816              		.cfi_offset 6, -16
 10817 3ebf 4889E5   		movq	%rsp, %rbp
 10818              		.cfi_def_cfa_register 6
 10819 3ec2 4883EC10 		subq	$16, %rsp
 10820 3ec6 48897DF8 		movq	%rdi, -8(%rbp)
  65:TestChecks.cpp **** {
 10821              		.loc 5 65 0
 10822 3eca 488B45F8 		movq	-8(%rbp), %rax
 10823 3ece 4889C7   		movq	%rax, %rdi
 10824 3ed1 E8AEFFFF 		call	_ZN12_GLOBAL__N_153TestCheckEqualsWithStringsWorksOnContentsWithALiteralD2Ev
 10824      FF
 10825 3ed6 488B45F8 		movq	-8(%rbp), %rax
 10826 3eda 4889C7   		movq	%rax, %rdi
 10827 3edd E8000000 		call	_ZdlPv
 10827      00
 10828 3ee2 C9       		leave
 10829              		.cfi_def_cfa 7, 8
 10830 3ee3 C3       		ret
 10831              		.cfi_endproc
 10832              	.LFE1355:
 10834              		.section	.rodata
 10835 10e8 00000000 		.align 32
 10835      00000000 
 10835      00000000 
 10835      00000000 
 10835      00000000 
 10838              	_ZTVN12_GLOBAL__N_154TestCheckEqualsWithStringsWorksOnContentsConstNonConstE:
 10839 1100 00000000 		.quad	0
 10839      00000000 
 10840 1108 00000000 		.quad	_ZTIN12_GLOBAL__N_154TestCheckEqualsWithStringsWorksOnContentsConstNonConstE
 10840      00000000 
 10841 1110 00000000 		.quad	_ZN12_GLOBAL__N_154TestCheckEqualsWithStringsWorksOnContentsConstNonConstD1Ev
 10841      00000000 
 10842 1118 00000000 		.quad	_ZN12_GLOBAL__N_154TestCheckEqualsWithStringsWorksOnContentsConstNonConstD0Ev
 10842      00000000 
 10843 1120 00000000 		.quad	_ZNK12_GLOBAL__N_154TestCheckEqualsWithStringsWorksOnContentsConstNonConst7RunImplEv
 10843      00000000 
 10844              		.text
 10845              		.align 2
 10847              	_ZN12_GLOBAL__N_154TestCheckEqualsWithStringsWorksOnContentsConstNonConstD2Ev:
 10848              	.LFB1357:
  56:TestChecks.cpp **** {
 10849              		.loc 5 56 0
 10850              		.cfi_startproc
 10851 3ee4 55       		pushq	%rbp
 10852              		.cfi_def_cfa_offset 16
 10853              		.cfi_offset 6, -16
 10854 3ee5 4889E5   		movq	%rsp, %rbp
 10855              		.cfi_def_cfa_register 6
 10856 3ee8 4883EC10 		subq	$16, %rsp
 10857 3eec 48897DF8 		movq	%rdi, -8(%rbp)
 10858              	.LBB175:
  56:TestChecks.cpp **** {
 10859              		.loc 5 56 0
 10860 3ef0 488B45F8 		movq	-8(%rbp), %rax
 10861 3ef4 48C70000 		movq	$_ZTVN12_GLOBAL__N_154TestCheckEqualsWithStringsWorksOnContentsConstNonConstE+16, (%rax)
 10861      000000
 10862 3efb 488B45F8 		movq	-8(%rbp), %rax
 10863 3eff 4889C7   		movq	%rax, %rdi
 10864 3f02 E8000000 		call	_ZN8UnitTest4TestD2Ev
 10864      00
 10865              	.LBE175:
 10866 3f07 B8000000 		movl	$0, %eax
 10866      00
 10867 3f0c 85C0     		testl	%eax, %eax
 10868 3f0e 740C     		je	.L557
  56:TestChecks.cpp **** {
 10869              		.loc 5 56 0 is_stmt 0 discriminator 4
 10870 3f10 488B45F8 		movq	-8(%rbp), %rax
 10871 3f14 4889C7   		movq	%rax, %rdi
 10872 3f17 E8000000 		call	_ZdlPv
 10872      00
 10873              	.L557:
  56:TestChecks.cpp **** {
 10874              		.loc 5 56 0
 10875 3f1c C9       		leave
 10876              		.cfi_def_cfa 7, 8
 10877 3f1d C3       		ret
 10878              		.cfi_endproc
 10879              	.LFE1357:
 10881              		.set	_ZN12_GLOBAL__N_154TestCheckEqualsWithStringsWorksOnContentsConstNonConstD1Ev,_ZN12_GLOBAL__N
 10882              		.align 2
 10884              	_ZN12_GLOBAL__N_154TestCheckEqualsWithStringsWorksOnContentsConstNonConstD0Ev:
 10885              	.LFB1359:
  56:TestChecks.cpp **** {
 10886              		.loc 5 56 0 is_stmt 1
 10887              		.cfi_startproc
 10888 3f1e 55       		pushq	%rbp
 10889              		.cfi_def_cfa_offset 16
 10890              		.cfi_offset 6, -16
 10891 3f1f 4889E5   		movq	%rsp, %rbp
 10892              		.cfi_def_cfa_register 6
 10893 3f22 4883EC10 		subq	$16, %rsp
 10894 3f26 48897DF8 		movq	%rdi, -8(%rbp)
  56:TestChecks.cpp **** {
 10895              		.loc 5 56 0
 10896 3f2a 488B45F8 		movq	-8(%rbp), %rax
 10897 3f2e 4889C7   		movq	%rax, %rdi
 10898 3f31 E8AEFFFF 		call	_ZN12_GLOBAL__N_154TestCheckEqualsWithStringsWorksOnContentsConstNonConstD2Ev
 10898      FF
 10899 3f36 488B45F8 		movq	-8(%rbp), %rax
 10900 3f3a 4889C7   		movq	%rax, %rdi
 10901 3f3d E8000000 		call	_ZdlPv
 10901      00
 10902 3f42 C9       		leave
 10903              		.cfi_def_cfa 7, 8
 10904 3f43 C3       		ret
 10905              		.cfi_endproc
 10906              	.LFE1359:
 10908              		.section	.rodata
 10909 1128 00000000 		.align 32
 10909      00000000 
 10909      00000000 
 10909      00000000 
 10909      00000000 
 10912              	_ZTVN12_GLOBAL__N_154TestCheckEqualsWithStringsWorksOnContentsNonConstConstE:
 10913 1140 00000000 		.quad	0
 10913      00000000 
 10914 1148 00000000 		.quad	_ZTIN12_GLOBAL__N_154TestCheckEqualsWithStringsWorksOnContentsNonConstConstE
 10914      00000000 
 10915 1150 00000000 		.quad	_ZN12_GLOBAL__N_154TestCheckEqualsWithStringsWorksOnContentsNonConstConstD1Ev
 10915      00000000 
 10916 1158 00000000 		.quad	_ZN12_GLOBAL__N_154TestCheckEqualsWithStringsWorksOnContentsNonConstConstD0Ev
 10916      00000000 
 10917 1160 00000000 		.quad	_ZNK12_GLOBAL__N_154TestCheckEqualsWithStringsWorksOnContentsNonConstConst7RunImplEv
 10917      00000000 
 10918              		.text
 10919              		.align 2
 10921              	_ZN12_GLOBAL__N_154TestCheckEqualsWithStringsWorksOnContentsNonConstConstD2Ev:
 10922              	.LFB1361:
  47:TestChecks.cpp **** {
 10923              		.loc 5 47 0
 10924              		.cfi_startproc
 10925 3f44 55       		pushq	%rbp
 10926              		.cfi_def_cfa_offset 16
 10927              		.cfi_offset 6, -16
 10928 3f45 4889E5   		movq	%rsp, %rbp
 10929              		.cfi_def_cfa_register 6
 10930 3f48 4883EC10 		subq	$16, %rsp
 10931 3f4c 48897DF8 		movq	%rdi, -8(%rbp)
 10932              	.LBB176:
  47:TestChecks.cpp **** {
 10933              		.loc 5 47 0
 10934 3f50 488B45F8 		movq	-8(%rbp), %rax
 10935 3f54 48C70000 		movq	$_ZTVN12_GLOBAL__N_154TestCheckEqualsWithStringsWorksOnContentsNonConstConstE+16, (%rax)
 10935      000000
 10936 3f5b 488B45F8 		movq	-8(%rbp), %rax
 10937 3f5f 4889C7   		movq	%rax, %rdi
 10938 3f62 E8000000 		call	_ZN8UnitTest4TestD2Ev
 10938      00
 10939              	.LBE176:
 10940 3f67 B8000000 		movl	$0, %eax
 10940      00
 10941 3f6c 85C0     		testl	%eax, %eax
 10942 3f6e 740C     		je	.L562
  47:TestChecks.cpp **** {
 10943              		.loc 5 47 0 is_stmt 0 discriminator 4
 10944 3f70 488B45F8 		movq	-8(%rbp), %rax
 10945 3f74 4889C7   		movq	%rax, %rdi
 10946 3f77 E8000000 		call	_ZdlPv
 10946      00
 10947              	.L562:
  47:TestChecks.cpp **** {
 10948              		.loc 5 47 0
 10949 3f7c C9       		leave
 10950              		.cfi_def_cfa 7, 8
 10951 3f7d C3       		ret
 10952              		.cfi_endproc
 10953              	.LFE1361:
 10955              		.set	_ZN12_GLOBAL__N_154TestCheckEqualsWithStringsWorksOnContentsNonConstConstD1Ev,_ZN12_GLOBAL__N
 10956              		.align 2
 10958              	_ZN12_GLOBAL__N_154TestCheckEqualsWithStringsWorksOnContentsNonConstConstD0Ev:
 10959              	.LFB1363:
  47:TestChecks.cpp **** {
 10960              		.loc 5 47 0 is_stmt 1
 10961              		.cfi_startproc
 10962 3f7e 55       		pushq	%rbp
 10963              		.cfi_def_cfa_offset 16
 10964              		.cfi_offset 6, -16
 10965 3f7f 4889E5   		movq	%rsp, %rbp
 10966              		.cfi_def_cfa_register 6
 10967 3f82 4883EC10 		subq	$16, %rsp
 10968 3f86 48897DF8 		movq	%rdi, -8(%rbp)
  47:TestChecks.cpp **** {
 10969              		.loc 5 47 0
 10970 3f8a 488B45F8 		movq	-8(%rbp), %rax
 10971 3f8e 4889C7   		movq	%rax, %rdi
 10972 3f91 E8AEFFFF 		call	_ZN12_GLOBAL__N_154TestCheckEqualsWithStringsWorksOnContentsNonConstConstD2Ev
 10972      FF
 10973 3f96 488B45F8 		movq	-8(%rbp), %rax
 10974 3f9a 4889C7   		movq	%rax, %rdi
 10975 3f9d E8000000 		call	_ZdlPv
 10975      00
 10976 3fa2 C9       		leave
 10977              		.cfi_def_cfa 7, 8
 10978 3fa3 C3       		ret
 10979              		.cfi_endproc
 10980              	.LFE1363:
 10982              		.section	.rodata
 10983 1168 00000000 		.align 32
 10983      00000000 
 10983      00000000 
 10983      00000000 
 10983      00000000 
 10986              	_ZTVN12_GLOBAL__N_151TestCheckEqualsWithStringsWorksOnContentsConstConstE:
 10987 1180 00000000 		.quad	0
 10987      00000000 
 10988 1188 00000000 		.quad	_ZTIN12_GLOBAL__N_151TestCheckEqualsWithStringsWorksOnContentsConstConstE
 10988      00000000 
 10989 1190 00000000 		.quad	_ZN12_GLOBAL__N_151TestCheckEqualsWithStringsWorksOnContentsConstConstD1Ev
 10989      00000000 
 10990 1198 00000000 		.quad	_ZN12_GLOBAL__N_151TestCheckEqualsWithStringsWorksOnContentsConstConstD0Ev
 10990      00000000 
 10991 11a0 00000000 		.quad	_ZNK12_GLOBAL__N_151TestCheckEqualsWithStringsWorksOnContentsConstConst7RunImplEv
 10991      00000000 
 10992              		.text
 10993              		.align 2
 10995              	_ZN12_GLOBAL__N_151TestCheckEqualsWithStringsWorksOnContentsConstConstD2Ev:
 10996              	.LFB1365:
  38:TestChecks.cpp **** {
 10997              		.loc 5 38 0
 10998              		.cfi_startproc
 10999 3fa4 55       		pushq	%rbp
 11000              		.cfi_def_cfa_offset 16
 11001              		.cfi_offset 6, -16
 11002 3fa5 4889E5   		movq	%rsp, %rbp
 11003              		.cfi_def_cfa_register 6
 11004 3fa8 4883EC10 		subq	$16, %rsp
 11005 3fac 48897DF8 		movq	%rdi, -8(%rbp)
 11006              	.LBB177:
  38:TestChecks.cpp **** {
 11007              		.loc 5 38 0
 11008 3fb0 488B45F8 		movq	-8(%rbp), %rax
 11009 3fb4 48C70000 		movq	$_ZTVN12_GLOBAL__N_151TestCheckEqualsWithStringsWorksOnContentsConstConstE+16, (%rax)
 11009      000000
 11010 3fbb 488B45F8 		movq	-8(%rbp), %rax
 11011 3fbf 4889C7   		movq	%rax, %rdi
 11012 3fc2 E8000000 		call	_ZN8UnitTest4TestD2Ev
 11012      00
 11013              	.LBE177:
 11014 3fc7 B8000000 		movl	$0, %eax
 11014      00
 11015 3fcc 85C0     		testl	%eax, %eax
 11016 3fce 740C     		je	.L567
  38:TestChecks.cpp **** {
 11017              		.loc 5 38 0 is_stmt 0 discriminator 4
 11018 3fd0 488B45F8 		movq	-8(%rbp), %rax
 11019 3fd4 4889C7   		movq	%rax, %rdi
 11020 3fd7 E8000000 		call	_ZdlPv
 11020      00
 11021              	.L567:
  38:TestChecks.cpp **** {
 11022              		.loc 5 38 0
 11023 3fdc C9       		leave
 11024              		.cfi_def_cfa 7, 8
 11025 3fdd C3       		ret
 11026              		.cfi_endproc
 11027              	.LFE1365:
 11029              		.set	_ZN12_GLOBAL__N_151TestCheckEqualsWithStringsWorksOnContentsConstConstD1Ev,_ZN12_GLOBAL__N_15
 11030              		.align 2
 11032              	_ZN12_GLOBAL__N_151TestCheckEqualsWithStringsWorksOnContentsConstConstD0Ev:
 11033              	.LFB1367:
  38:TestChecks.cpp **** {
 11034              		.loc 5 38 0 is_stmt 1
 11035              		.cfi_startproc
 11036 3fde 55       		pushq	%rbp
 11037              		.cfi_def_cfa_offset 16
 11038              		.cfi_offset 6, -16
 11039 3fdf 4889E5   		movq	%rsp, %rbp
 11040              		.cfi_def_cfa_register 6
 11041 3fe2 4883EC10 		subq	$16, %rsp
 11042 3fe6 48897DF8 		movq	%rdi, -8(%rbp)
  38:TestChecks.cpp **** {
 11043              		.loc 5 38 0
 11044 3fea 488B45F8 		movq	-8(%rbp), %rax
 11045 3fee 4889C7   		movq	%rax, %rdi
 11046 3ff1 E8AEFFFF 		call	_ZN12_GLOBAL__N_151TestCheckEqualsWithStringsWorksOnContentsConstConstD2Ev
 11046      FF
 11047 3ff6 488B45F8 		movq	-8(%rbp), %rax
 11048 3ffa 4889C7   		movq	%rax, %rdi
 11049 3ffd E8000000 		call	_ZdlPv
 11049      00
 11050 4002 C9       		leave
 11051              		.cfi_def_cfa 7, 8
 11052 4003 C3       		ret
 11053              		.cfi_endproc
 11054              	.LFE1367:
 11056              		.section	.rodata
 11057 11a8 00000000 		.align 32
 11057      00000000 
 11057      00000000 
 11057      00000000 
 11057      00000000 
 11060              	_ZTVN12_GLOBAL__N_157TestCheckEqualsWithStringsWorksOnContentsNonConstNonConstE:
 11061 11c0 00000000 		.quad	0
 11061      00000000 
 11062 11c8 00000000 		.quad	_ZTIN12_GLOBAL__N_157TestCheckEqualsWithStringsWorksOnContentsNonConstNonConstE
 11062      00000000 
 11063 11d0 00000000 		.quad	_ZN12_GLOBAL__N_157TestCheckEqualsWithStringsWorksOnContentsNonConstNonConstD1Ev
 11063      00000000 
 11064 11d8 00000000 		.quad	_ZN12_GLOBAL__N_157TestCheckEqualsWithStringsWorksOnContentsNonConstNonConstD0Ev
 11064      00000000 
 11065 11e0 00000000 		.quad	_ZNK12_GLOBAL__N_157TestCheckEqualsWithStringsWorksOnContentsNonConstNonConst7RunImplEv
 11065      00000000 
 11066              		.text
 11067              		.align 2
 11069              	_ZN12_GLOBAL__N_157TestCheckEqualsWithStringsWorksOnContentsNonConstNonConstD2Ev:
 11070              	.LFB1369:
  29:TestChecks.cpp **** {
 11071              		.loc 5 29 0
 11072              		.cfi_startproc
 11073 4004 55       		pushq	%rbp
 11074              		.cfi_def_cfa_offset 16
 11075              		.cfi_offset 6, -16
 11076 4005 4889E5   		movq	%rsp, %rbp
 11077              		.cfi_def_cfa_register 6
 11078 4008 4883EC10 		subq	$16, %rsp
 11079 400c 48897DF8 		movq	%rdi, -8(%rbp)
 11080              	.LBB178:
  29:TestChecks.cpp **** {
 11081              		.loc 5 29 0
 11082 4010 488B45F8 		movq	-8(%rbp), %rax
 11083 4014 48C70000 		movq	$_ZTVN12_GLOBAL__N_157TestCheckEqualsWithStringsWorksOnContentsNonConstNonConstE+16, (%rax)
 11083      000000
 11084 401b 488B45F8 		movq	-8(%rbp), %rax
 11085 401f 4889C7   		movq	%rax, %rdi
 11086 4022 E8000000 		call	_ZN8UnitTest4TestD2Ev
 11086      00
 11087              	.LBE178:
 11088 4027 B8000000 		movl	$0, %eax
 11088      00
 11089 402c 85C0     		testl	%eax, %eax
 11090 402e 740C     		je	.L572
  29:TestChecks.cpp **** {
 11091              		.loc 5 29 0 is_stmt 0 discriminator 4
 11092 4030 488B45F8 		movq	-8(%rbp), %rax
 11093 4034 4889C7   		movq	%rax, %rdi
 11094 4037 E8000000 		call	_ZdlPv
 11094      00
 11095              	.L572:
  29:TestChecks.cpp **** {
 11096              		.loc 5 29 0
 11097 403c C9       		leave
 11098              		.cfi_def_cfa 7, 8
 11099 403d C3       		ret
 11100              		.cfi_endproc
 11101              	.LFE1369:
 11103              		.set	_ZN12_GLOBAL__N_157TestCheckEqualsWithStringsWorksOnContentsNonConstNonConstD1Ev,_ZN12_GLOBAL
 11104              		.align 2
 11106              	_ZN12_GLOBAL__N_157TestCheckEqualsWithStringsWorksOnContentsNonConstNonConstD0Ev:
 11107              	.LFB1371:
  29:TestChecks.cpp **** {
 11108              		.loc 5 29 0 is_stmt 1
 11109              		.cfi_startproc
 11110 403e 55       		pushq	%rbp
 11111              		.cfi_def_cfa_offset 16
 11112              		.cfi_offset 6, -16
 11113 403f 4889E5   		movq	%rsp, %rbp
 11114              		.cfi_def_cfa_register 6
 11115 4042 4883EC10 		subq	$16, %rsp
 11116 4046 48897DF8 		movq	%rdi, -8(%rbp)
  29:TestChecks.cpp **** {
 11117              		.loc 5 29 0
 11118 404a 488B45F8 		movq	-8(%rbp), %rax
 11119 404e 4889C7   		movq	%rax, %rdi
 11120 4051 E8AEFFFF 		call	_ZN12_GLOBAL__N_157TestCheckEqualsWithStringsWorksOnContentsNonConstNonConstD2Ev
 11120      FF
 11121 4056 488B45F8 		movq	-8(%rbp), %rax
 11122 405a 4889C7   		movq	%rax, %rdi
 11123 405d E8000000 		call	_ZdlPv
 11123      00
 11124 4062 C9       		leave
 11125              		.cfi_def_cfa 7, 8
 11126 4063 C3       		ret
 11127              		.cfi_endproc
 11128              	.LFE1371:
 11130              		.section	.rodata
 11131 11e8 00000000 		.align 32
 11131      00000000 
 11131      00000000 
 11131      00000000 
 11131      00000000 
 11134              	_ZTVN12_GLOBAL__N_149TestCheckEqualsWithStringsFailsOnDifferentStringsE:
 11135 1200 00000000 		.quad	0
 11135      00000000 
 11136 1208 00000000 		.quad	_ZTIN12_GLOBAL__N_149TestCheckEqualsWithStringsFailsOnDifferentStringsE
 11136      00000000 
 11137 1210 00000000 		.quad	_ZN12_GLOBAL__N_149TestCheckEqualsWithStringsFailsOnDifferentStringsD1Ev
 11137      00000000 
 11138 1218 00000000 		.quad	_ZN12_GLOBAL__N_149TestCheckEqualsWithStringsFailsOnDifferentStringsD0Ev
 11138      00000000 
 11139 1220 00000000 		.quad	_ZNK12_GLOBAL__N_149TestCheckEqualsWithStringsFailsOnDifferentStrings7RunImplEv
 11139      00000000 
 11140              		.text
 11141              		.align 2
 11143              	_ZN12_GLOBAL__N_149TestCheckEqualsWithStringsFailsOnDifferentStringsD2Ev:
 11144              	.LFB1373:
  17:TestChecks.cpp **** {
 11145              		.loc 5 17 0
 11146              		.cfi_startproc
 11147 4064 55       		pushq	%rbp
 11148              		.cfi_def_cfa_offset 16
 11149              		.cfi_offset 6, -16
 11150 4065 4889E5   		movq	%rsp, %rbp
 11151              		.cfi_def_cfa_register 6
 11152 4068 4883EC10 		subq	$16, %rsp
 11153 406c 48897DF8 		movq	%rdi, -8(%rbp)
 11154              	.LBB179:
  17:TestChecks.cpp **** {
 11155              		.loc 5 17 0
 11156 4070 488B45F8 		movq	-8(%rbp), %rax
 11157 4074 48C70000 		movq	$_ZTVN12_GLOBAL__N_149TestCheckEqualsWithStringsFailsOnDifferentStringsE+16, (%rax)
 11157      000000
 11158 407b 488B45F8 		movq	-8(%rbp), %rax
 11159 407f 4889C7   		movq	%rax, %rdi
 11160 4082 E8000000 		call	_ZN8UnitTest4TestD2Ev
 11160      00
 11161              	.LBE179:
 11162 4087 B8000000 		movl	$0, %eax
 11162      00
 11163 408c 85C0     		testl	%eax, %eax
 11164 408e 740C     		je	.L577
  17:TestChecks.cpp **** {
 11165              		.loc 5 17 0 is_stmt 0 discriminator 4
 11166 4090 488B45F8 		movq	-8(%rbp), %rax
 11167 4094 4889C7   		movq	%rax, %rdi
 11168 4097 E8000000 		call	_ZdlPv
 11168      00
 11169              	.L577:
  17:TestChecks.cpp **** {
 11170              		.loc 5 17 0
 11171 409c C9       		leave
 11172              		.cfi_def_cfa 7, 8
 11173 409d C3       		ret
 11174              		.cfi_endproc
 11175              	.LFE1373:
 11177              		.set	_ZN12_GLOBAL__N_149TestCheckEqualsWithStringsFailsOnDifferentStringsD1Ev,_ZN12_GLOBAL__N_149T
 11178              		.align 2
 11180              	_ZN12_GLOBAL__N_149TestCheckEqualsWithStringsFailsOnDifferentStringsD0Ev:
 11181              	.LFB1375:
  17:TestChecks.cpp **** {
 11182              		.loc 5 17 0 is_stmt 1
 11183              		.cfi_startproc
 11184 409e 55       		pushq	%rbp
 11185              		.cfi_def_cfa_offset 16
 11186              		.cfi_offset 6, -16
 11187 409f 4889E5   		movq	%rsp, %rbp
 11188              		.cfi_def_cfa_register 6
 11189 40a2 4883EC10 		subq	$16, %rsp
 11190 40a6 48897DF8 		movq	%rdi, -8(%rbp)
  17:TestChecks.cpp **** {
 11191              		.loc 5 17 0
 11192 40aa 488B45F8 		movq	-8(%rbp), %rax
 11193 40ae 4889C7   		movq	%rax, %rdi
 11194 40b1 E8AEFFFF 		call	_ZN12_GLOBAL__N_149TestCheckEqualsWithStringsFailsOnDifferentStringsD2Ev
 11194      FF
 11195 40b6 488B45F8 		movq	-8(%rbp), %rax
 11196 40ba 4889C7   		movq	%rax, %rdi
 11197 40bd E8000000 		call	_ZdlPv
 11197      00
 11198 40c2 C9       		leave
 11199              		.cfi_def_cfa 7, 8
 11200 40c3 C3       		ret
 11201              		.cfi_endproc
 11202              	.LFE1375:
 11204              		.section	.rodata
 11205 1228 00000000 		.align 32
 11205      00000000 
 11205      00000000 
 11205      00000000 
 11205      00000000 
 11208              	_ZTVN12_GLOBAL__N_130TestCheckEqualWithUnsignedLongE:
 11209 1240 00000000 		.quad	0
 11209      00000000 
 11210 1248 00000000 		.quad	_ZTIN12_GLOBAL__N_130TestCheckEqualWithUnsignedLongE
 11210      00000000 
 11211 1250 00000000 		.quad	_ZN12_GLOBAL__N_130TestCheckEqualWithUnsignedLongD1Ev
 11211      00000000 
 11212 1258 00000000 		.quad	_ZN12_GLOBAL__N_130TestCheckEqualWithUnsignedLongD0Ev
 11212      00000000 
 11213 1260 00000000 		.quad	_ZNK12_GLOBAL__N_130TestCheckEqualWithUnsignedLong7RunImplEv
 11213      00000000 
 11214              		.text
 11215              		.align 2
 11217              	_ZN12_GLOBAL__N_130TestCheckEqualWithUnsignedLongD2Ev:
 11218              	.LFB1377:
  10:TestChecks.cpp **** {
 11219              		.loc 5 10 0
 11220              		.cfi_startproc
 11221 40c4 55       		pushq	%rbp
 11222              		.cfi_def_cfa_offset 16
 11223              		.cfi_offset 6, -16
 11224 40c5 4889E5   		movq	%rsp, %rbp
 11225              		.cfi_def_cfa_register 6
 11226 40c8 4883EC10 		subq	$16, %rsp
 11227 40cc 48897DF8 		movq	%rdi, -8(%rbp)
 11228              	.LBB180:
  10:TestChecks.cpp **** {
 11229              		.loc 5 10 0
 11230 40d0 488B45F8 		movq	-8(%rbp), %rax
 11231 40d4 48C70000 		movq	$_ZTVN12_GLOBAL__N_130TestCheckEqualWithUnsignedLongE+16, (%rax)
 11231      000000
 11232 40db 488B45F8 		movq	-8(%rbp), %rax
 11233 40df 4889C7   		movq	%rax, %rdi
 11234 40e2 E8000000 		call	_ZN8UnitTest4TestD2Ev
 11234      00
 11235              	.LBE180:
 11236 40e7 B8000000 		movl	$0, %eax
 11236      00
 11237 40ec 85C0     		testl	%eax, %eax
 11238 40ee 740C     		je	.L582
  10:TestChecks.cpp **** {
 11239              		.loc 5 10 0 is_stmt 0 discriminator 4
 11240 40f0 488B45F8 		movq	-8(%rbp), %rax
 11241 40f4 4889C7   		movq	%rax, %rdi
 11242 40f7 E8000000 		call	_ZdlPv
 11242      00
 11243              	.L582:
  10:TestChecks.cpp **** {
 11244              		.loc 5 10 0
 11245 40fc C9       		leave
 11246              		.cfi_def_cfa 7, 8
 11247 40fd C3       		ret
 11248              		.cfi_endproc
 11249              	.LFE1377:
 11251              		.set	_ZN12_GLOBAL__N_130TestCheckEqualWithUnsignedLongD1Ev,_ZN12_GLOBAL__N_130TestCheckEqualWithUn
 11252              		.align 2
 11254              	_ZN12_GLOBAL__N_130TestCheckEqualWithUnsignedLongD0Ev:
 11255              	.LFB1379:
  10:TestChecks.cpp **** {
 11256              		.loc 5 10 0 is_stmt 1
 11257              		.cfi_startproc
 11258 40fe 55       		pushq	%rbp
 11259              		.cfi_def_cfa_offset 16
 11260              		.cfi_offset 6, -16
 11261 40ff 4889E5   		movq	%rsp, %rbp
 11262              		.cfi_def_cfa_register 6
 11263 4102 4883EC10 		subq	$16, %rsp
 11264 4106 48897DF8 		movq	%rdi, -8(%rbp)
  10:TestChecks.cpp **** {
 11265              		.loc 5 10 0
 11266 410a 488B45F8 		movq	-8(%rbp), %rax
 11267 410e 4889C7   		movq	%rax, %rdi
 11268 4111 E8AEFFFF 		call	_ZN12_GLOBAL__N_130TestCheckEqualWithUnsignedLongD2Ev
 11268      FF
 11269 4116 488B45F8 		movq	-8(%rbp), %rax
 11270 411a 4889C7   		movq	%rax, %rdi
 11271 411d E8000000 		call	_ZdlPv
 11271      00
 11272 4122 C9       		leave
 11273              		.cfi_def_cfa 7, 8
 11274 4123 C3       		ret
 11275              		.cfi_endproc
 11276              	.LFE1379:
 11278              		.weak	_ZTV17RecordingReporter
 11279              		.section	.rodata._ZTV17RecordingReporter,"aG",@progbits,_ZTV17RecordingReporter,comdat
 11280              		.align 64
 11283              	_ZTV17RecordingReporter:
 11284 0000 00000000 		.quad	0
 11284      00000000 
 11285 0008 00000000 		.quad	_ZTI17RecordingReporter
 11285      00000000 
 11286 0010 00000000 		.quad	_ZN17RecordingReporterD1Ev
 11286      00000000 
 11287 0018 00000000 		.quad	_ZN17RecordingReporterD0Ev
 11287      00000000 
 11288 0020 00000000 		.quad	_ZN17RecordingReporter15ReportTestStartERKN8UnitTest11TestDetailsE
 11288      00000000 
 11289 0028 00000000 		.quad	_ZN17RecordingReporter13ReportFailureERKN8UnitTest11TestDetailsEPKc
 11289      00000000 
 11290 0030 00000000 		.quad	_ZN17RecordingReporter16ReportTestFinishERKN8UnitTest11TestDetailsEf
 11290      00000000 
 11291 0038 00000000 		.quad	_ZN17RecordingReporter13ReportSummaryEiiif
 11291      00000000 
 11292              		.section	.text._ZN17RecordingReporterD2Ev,"axG",@progbits,_ZN17RecordingReporterD5Ev,comdat
 11293              		.align 2
 11294              		.weak	_ZN17RecordingReporterD2Ev
 11296              	_ZN17RecordingReporterD2Ev:
 11297              	.LFB1381:
   9:RecordingReporter.h **** {
 11298              		.loc 4 9 0
 11299              		.cfi_startproc
 11300 0000 55       		pushq	%rbp
 11301              		.cfi_def_cfa_offset 16
 11302              		.cfi_offset 6, -16
 11303 0001 4889E5   		movq	%rsp, %rbp
 11304              		.cfi_def_cfa_register 6
 11305 0004 4883EC10 		subq	$16, %rsp
 11306 0008 48897DF8 		movq	%rdi, -8(%rbp)
 11307              	.LBB181:
   9:RecordingReporter.h **** {
 11308              		.loc 4 9 0
 11309 000c 488B45F8 		movq	-8(%rbp), %rax
 11310 0010 48C70000 		movq	$_ZTV17RecordingReporter+16, (%rax)
 11310      000000
 11311 0017 488B45F8 		movq	-8(%rbp), %rax
 11312 001b 4889C7   		movq	%rax, %rdi
 11313 001e E8000000 		call	_ZN8UnitTest12TestReporterD2Ev
 11313      00
 11314              	.LBE181:
 11315 0023 B8000000 		movl	$0, %eax
 11315      00
 11316 0028 85C0     		testl	%eax, %eax
 11317 002a 740C     		je	.L587
   9:RecordingReporter.h **** {
 11318              		.loc 4 9 0 is_stmt 0 discriminator 4
 11319 002c 488B45F8 		movq	-8(%rbp), %rax
 11320 0030 4889C7   		movq	%rax, %rdi
 11321 0033 E8000000 		call	_ZdlPv
 11321      00
 11322              	.L587:
   9:RecordingReporter.h **** {
 11323              		.loc 4 9 0
 11324 0038 C9       		leave
 11325              		.cfi_def_cfa 7, 8
 11326 0039 C3       		ret
 11327              		.cfi_endproc
 11328              	.LFE1381:
 11330              		.weak	_ZN17RecordingReporterD1Ev
 11331              		.set	_ZN17RecordingReporterD1Ev,_ZN17RecordingReporterD2Ev
 11332              		.section	.text._ZN17RecordingReporterD0Ev,"axG",@progbits,_ZN17RecordingReporterD5Ev,comdat
 11333              		.align 2
 11334              		.weak	_ZN17RecordingReporterD0Ev
 11336              	_ZN17RecordingReporterD0Ev:
 11337              	.LFB1383:
   9:RecordingReporter.h **** {
 11338              		.loc 4 9 0 is_stmt 1
 11339              		.cfi_startproc
 11340 0000 55       		pushq	%rbp
 11341              		.cfi_def_cfa_offset 16
 11342              		.cfi_offset 6, -16
 11343 0001 4889E5   		movq	%rsp, %rbp
 11344              		.cfi_def_cfa_register 6
 11345 0004 4883EC10 		subq	$16, %rsp
 11346 0008 48897DF8 		movq	%rdi, -8(%rbp)
   9:RecordingReporter.h **** {
 11347              		.loc 4 9 0
 11348 000c 488B45F8 		movq	-8(%rbp), %rax
 11349 0010 4889C7   		movq	%rax, %rdi
 11350 0013 E8000000 		call	_ZN17RecordingReporterD1Ev
 11350      00
 11351 0018 488B45F8 		movq	-8(%rbp), %rax
 11352 001c 4889C7   		movq	%rax, %rdi
 11353 001f E8000000 		call	_ZdlPv
 11353      00
 11354 0024 C9       		leave
 11355              		.cfi_def_cfa 7, 8
 11356 0025 C3       		ret
 11357              		.cfi_endproc
 11358              	.LFE1383:
 11360              		.weak	_ZTVN8UnitTest15MemoryOutStreamE
 11361              		.section	.rodata._ZTVN8UnitTest15MemoryOutStreamE,"aG",@progbits,_ZTVN8UnitTest15MemoryOutStreamE,
 11362              		.align 64
 11365              	_ZTVN8UnitTest15MemoryOutStreamE:
 11366 0000 60000000 		.quad	96
 11366      00000000 
 11367 0008 00000000 		.quad	0
 11367      00000000 
 11368 0010 00000000 		.quad	_ZTIN8UnitTest15MemoryOutStreamE
 11368      00000000 
 11369 0018 00000000 		.quad	_ZN8UnitTest15MemoryOutStreamD1Ev
 11369      00000000 
 11370 0020 00000000 		.quad	_ZN8UnitTest15MemoryOutStreamD0Ev
 11370      00000000 
 11371 0028 A0FFFFFF 		.quad	-96
 11371      FFFFFFFF 
 11372 0030 A0FFFFFF 		.quad	-96
 11372      FFFFFFFF 
 11373 0038 00000000 		.quad	_ZTIN8UnitTest15MemoryOutStreamE
 11373      00000000 
 11374 0040 00000000 		.quad	_ZTv0_n24_N8UnitTest15MemoryOutStreamD1Ev
 11374      00000000 
 11375 0048 00000000 		.quad	_ZTv0_n24_N8UnitTest15MemoryOutStreamD0Ev
 11375      00000000 
 11376              		.weak	_ZTTN8UnitTest15MemoryOutStreamE
 11377              		.section	.rodata._ZTTN8UnitTest15MemoryOutStreamE,"aG",@progbits,_ZTVN8UnitTest15MemoryOutStreamE,
 11378              		.align 32
 11381              	_ZTTN8UnitTest15MemoryOutStreamE:
 11382 0000 00000000 		.quad	_ZTVN8UnitTest15MemoryOutStreamE+24
 11382      00000000 
 11383 0008 00000000 		.quad	_ZTCN8UnitTest15MemoryOutStreamE0_St19basic_ostringstreamIcSt11char_traitsIcESaIcEE+24
 11383      00000000 
 11384 0010 00000000 		.quad	_ZTCN8UnitTest15MemoryOutStreamE0_So+24
 11384      00000000 
 11385 0018 00000000 		.quad	_ZTCN8UnitTest15MemoryOutStreamE0_So+64
 11385      00000000 
 11386 0020 00000000 		.quad	_ZTCN8UnitTest15MemoryOutStreamE0_St19basic_ostringstreamIcSt11char_traitsIcESaIcEE+64
 11386      00000000 
 11387 0028 00000000 		.quad	_ZTVN8UnitTest15MemoryOutStreamE+64
 11387      00000000 
 11388              		.hidden	_ZTCN8UnitTest15MemoryOutStreamE0_St19basic_ostringstreamIcSt11char_traitsIcESaIcEE
 11389              		.weak	_ZTCN8UnitTest15MemoryOutStreamE0_St19basic_ostringstreamIcSt11char_traitsIcESaIcEE
 11390              		.section	.rodata._ZTCN8UnitTest15MemoryOutStreamE0_St19basic_ostringstreamIcSt11char_traitsIcESaIc
 11391              		.align 64
 11394              	_ZTCN8UnitTest15MemoryOutStreamE0_St19basic_ostringstreamIcSt11char_traitsIcESaIcEE:
 11395 0000 60000000 		.quad	96
 11395      00000000 
 11396 0008 00000000 		.quad	0
 11396      00000000 
 11397 0010 00000000 		.quad	_ZTISt19basic_ostringstreamIcSt11char_traitsIcESaIcEE
 11397      00000000 
 11398 0018 00000000 		.quad	0
 11398      00000000 
 11399 0020 00000000 		.quad	0
 11399      00000000 
 11400 0028 A0FFFFFF 		.quad	-96
 11400      FFFFFFFF 
 11401 0030 A0FFFFFF 		.quad	-96
 11401      FFFFFFFF 
 11402 0038 00000000 		.quad	_ZTISt19basic_ostringstreamIcSt11char_traitsIcESaIcEE
 11402      00000000 
 11403 0040 00000000 		.quad	0
 11403      00000000 
 11404 0048 00000000 		.quad	0
 11404      00000000 
 11405              		.hidden	_ZTCN8UnitTest15MemoryOutStreamE0_So
 11406              		.weak	_ZTCN8UnitTest15MemoryOutStreamE0_So
 11407              		.section	.rodata._ZTCN8UnitTest15MemoryOutStreamE0_So,"aG",@progbits,_ZTVN8UnitTest15MemoryOutStre
 11408              		.align 64
 11411              	_ZTCN8UnitTest15MemoryOutStreamE0_So:
 11412 0000 60000000 		.quad	96
 11412      00000000 
 11413 0008 00000000 		.quad	0
 11413      00000000 
 11414 0010 00000000 		.quad	_ZTISo
 11414      00000000 
 11415 0018 00000000 		.quad	0
 11415      00000000 
 11416 0020 00000000 		.quad	0
 11416      00000000 
 11417 0028 A0FFFFFF 		.quad	-96
 11417      FFFFFFFF 
 11418 0030 A0FFFFFF 		.quad	-96
 11418      FFFFFFFF 
 11419 0038 00000000 		.quad	_ZTISo
 11419      00000000 
 11420 0040 00000000 		.quad	0
 11420      00000000 
 11421 0048 00000000 		.quad	0
 11421      00000000 
 11422              		.weak	_ZTS17RecordingReporter
 11423              		.section	.rodata._ZTS17RecordingReporter,"aG",@progbits,_ZTS17RecordingReporter,comdat
 11424              		.align 16
 11427              	_ZTS17RecordingReporter:
 11428 0000 31375265 		.string	"17RecordingReporter"
 11428      636F7264 
 11428      696E6752 
 11428      65706F72 
 11428      74657200 
 11429              		.weak	_ZTI17RecordingReporter
 11430              		.section	.rodata._ZTI17RecordingReporter,"aG",@progbits,_ZTI17RecordingReporter,comdat
 11431              		.align 16
 11434              	_ZTI17RecordingReporter:
 11435 0000 00000000 		.quad	_ZTVN10__cxxabiv120__si_class_type_infoE+16
 11435      00000000 
 11436 0008 00000000 		.quad	_ZTS17RecordingReporter
 11436      00000000 
 11437 0010 00000000 		.quad	_ZTIN8UnitTest12TestReporterE
 11437      00000000 
 11438              		.weak	_ZTSN8UnitTest15MemoryOutStreamE
 11439              		.section	.rodata._ZTSN8UnitTest15MemoryOutStreamE,"aG",@progbits,_ZTSN8UnitTest15MemoryOutStreamE,
 11440              		.align 16
 11443              	_ZTSN8UnitTest15MemoryOutStreamE:
 11444 0000 4E38556E 		.string	"N8UnitTest15MemoryOutStreamE"
 11444      69745465 
 11444      73743135 
 11444      4D656D6F 
 11444      72794F75 
 11445              		.weak	_ZTIN8UnitTest15MemoryOutStreamE
 11446              		.section	.rodata._ZTIN8UnitTest15MemoryOutStreamE,"aG",@progbits,_ZTIN8UnitTest15MemoryOutStreamE,
 11447              		.align 16
 11450              	_ZTIN8UnitTest15MemoryOutStreamE:
 11451 0000 00000000 		.quad	_ZTVN10__cxxabiv120__si_class_type_infoE+16
 11451      00000000 
 11452 0008 00000000 		.quad	_ZTSN8UnitTest15MemoryOutStreamE
 11452      00000000 
 11453 0010 00000000 		.quad	_ZTISt19basic_ostringstreamIcSt11char_traitsIcESaIcEE
 11453      00000000 
 11454              		.text
 11456              	_Z41__static_initialization_and_destruction_0ii:
 11457              	.LFB1384:
 292:TestChecks.cpp **** 
 293:TestChecks.cpp **** }
 11458              		.loc 5 293 0
 11459              		.cfi_startproc
 11460 4124 55       		pushq	%rbp
 11461              		.cfi_def_cfa_offset 16
 11462              		.cfi_offset 6, -16
 11463 4125 4889E5   		movq	%rsp, %rbp
 11464              		.cfi_def_cfa_register 6
 11465 4128 4883EC10 		subq	$16, %rsp
 11466 412c 897DFC   		movl	%edi, -4(%rbp)
 11467 412f 8975F8   		movl	%esi, -8(%rbp)
 11468              		.loc 5 293 0
 11469 4132 837DFC01 		cmpl	$1, -4(%rbp)
 11470 4136 0F856F05 		jne	.L592
 11470      0000
 11471              		.loc 5 293 0 is_stmt 0 discriminator 1
 11472 413c 817DF8FF 		cmpl	$65535, -8(%rbp)
 11472      FF0000
 11473 4143 0F856205 		jne	.L592
 11473      0000
  10:TestChecks.cpp **** {
 11474              		.loc 5 10 0 is_stmt 1
 11475 4149 BF000000 		movl	$_ZN12_GLOBAL__N_138testCheckEqualWithUnsignedLongInstanceE, %edi
 11475      00
 11476 414e E8ADBEFF 		call	_ZN12_GLOBAL__N_130TestCheckEqualWithUnsignedLongC2Ev
 11476      FF
 11477 4153 BA000000 		movl	$__dso_handle, %edx
 11477      00
 11478 4158 BE000000 		movl	$_ZN12_GLOBAL__N_138testCheckEqualWithUnsignedLongInstanceE, %esi
 11478      00
 11479 415d BF000000 		movl	$_ZN12_GLOBAL__N_130TestCheckEqualWithUnsignedLongD1Ev, %edi
 11479      00
 11480 4162 E8000000 		call	__cxa_atexit
 11480      00
 11481 4167 E8000000 		call	_ZN8UnitTest4Test11GetTestListEv
 11481      00
 11482 416c BA000000 		movl	$_ZN12_GLOBAL__N_138testCheckEqualWithUnsignedLongInstanceE, %edx
 11482      00
 11483 4171 4889C6   		movq	%rax, %rsi
 11484 4174 BF000000 		movl	$_ZN12_GLOBAL__N_131adderCheckEqualWithUnsignedLongE, %edi
 11484      00
 11485 4179 E8000000 		call	_ZN8UnitTest9ListAdderC1ERNS_8TestListEPNS_4TestE
 11485      00
  17:TestChecks.cpp **** {
 11486              		.loc 5 17 0
 11487 417e BF000000 		movl	$_ZN12_GLOBAL__N_157testCheckEqualsWithStringsFailsOnDifferentStringsInstanceE, %edi
 11487      00
 11488 4183 E89ABFFF 		call	_ZN12_GLOBAL__N_149TestCheckEqualsWithStringsFailsOnDifferentStringsC2Ev
 11488      FF
 11489 4188 BA000000 		movl	$__dso_handle, %edx
 11489      00
 11490 418d BE000000 		movl	$_ZN12_GLOBAL__N_157testCheckEqualsWithStringsFailsOnDifferentStringsInstanceE, %esi
 11490      00
 11491 4192 BF000000 		movl	$_ZN12_GLOBAL__N_149TestCheckEqualsWithStringsFailsOnDifferentStringsD1Ev, %edi
 11491      00
 11492 4197 E8000000 		call	__cxa_atexit
 11492      00
 11493 419c E8000000 		call	_ZN8UnitTest4Test11GetTestListEv
 11493      00
 11494 41a1 BA000000 		movl	$_ZN12_GLOBAL__N_157testCheckEqualsWithStringsFailsOnDifferentStringsInstanceE, %edx
 11494      00
 11495 41a6 4889C6   		movq	%rax, %rsi
 11496 41a9 BF000000 		movl	$_ZN12_GLOBAL__N_150adderCheckEqualsWithStringsFailsOnDifferentStringsE, %edi
 11496      00
 11497 41ae E8000000 		call	_ZN8UnitTest9ListAdderC1ERNS_8TestListEPNS_4TestE
 11497      00
  29:TestChecks.cpp **** {
 11498              		.loc 5 29 0
 11499 41b3 BF000000 		movl	$_ZN12_GLOBAL__N_165testCheckEqualsWithStringsWorksOnContentsNonConstNonConstInstanceE, %edi
 11499      00
 11500 41b8 E8F1C0FF 		call	_ZN12_GLOBAL__N_157TestCheckEqualsWithStringsWorksOnContentsNonConstNonConstC2Ev
 11500      FF
 11501 41bd BA000000 		movl	$__dso_handle, %edx
 11501      00
 11502 41c2 BE000000 		movl	$_ZN12_GLOBAL__N_165testCheckEqualsWithStringsWorksOnContentsNonConstNonConstInstanceE, %esi
 11502      00
 11503 41c7 BF000000 		movl	$_ZN12_GLOBAL__N_157TestCheckEqualsWithStringsWorksOnContentsNonConstNonConstD1Ev, %edi
 11503      00
 11504 41cc E8000000 		call	__cxa_atexit
 11504      00
 11505 41d1 E8000000 		call	_ZN8UnitTest4Test11GetTestListEv
 11505      00
 11506 41d6 BA000000 		movl	$_ZN12_GLOBAL__N_165testCheckEqualsWithStringsWorksOnContentsNonConstNonConstInstanceE, %edx
 11506      00
 11507 41db 4889C6   		movq	%rax, %rsi
 11508 41de BF000000 		movl	$_ZN12_GLOBAL__N_158adderCheckEqualsWithStringsWorksOnContentsNonConstNonConstE, %edi
 11508      00
 11509 41e3 E8000000 		call	_ZN8UnitTest9ListAdderC1ERNS_8TestListEPNS_4TestE
 11509      00
  38:TestChecks.cpp **** {
 11510              		.loc 5 38 0
 11511 41e8 BF000000 		movl	$_ZN12_GLOBAL__N_159testCheckEqualsWithStringsWorksOnContentsConstConstInstanceE, %edi
 11511      00
 11512 41ed E842C2FF 		call	_ZN12_GLOBAL__N_151TestCheckEqualsWithStringsWorksOnContentsConstConstC2Ev
 11512      FF
 11513 41f2 BA000000 		movl	$__dso_handle, %edx
 11513      00
 11514 41f7 BE000000 		movl	$_ZN12_GLOBAL__N_159testCheckEqualsWithStringsWorksOnContentsConstConstInstanceE, %esi
 11514      00
 11515 41fc BF000000 		movl	$_ZN12_GLOBAL__N_151TestCheckEqualsWithStringsWorksOnContentsConstConstD1Ev, %edi
 11515      00
 11516 4201 E8000000 		call	__cxa_atexit
 11516      00
 11517 4206 E8000000 		call	_ZN8UnitTest4Test11GetTestListEv
 11517      00
 11518 420b BA000000 		movl	$_ZN12_GLOBAL__N_159testCheckEqualsWithStringsWorksOnContentsConstConstInstanceE, %edx
 11518      00
 11519 4210 4889C6   		movq	%rax, %rsi
 11520 4213 BF000000 		movl	$_ZN12_GLOBAL__N_152adderCheckEqualsWithStringsWorksOnContentsConstConstE, %edi
 11520      00
 11521 4218 E8000000 		call	_ZN8UnitTest9ListAdderC1ERNS_8TestListEPNS_4TestE
 11521      00
  47:TestChecks.cpp **** {
 11522              		.loc 5 47 0
 11523 421d BF000000 		movl	$_ZN12_GLOBAL__N_162testCheckEqualsWithStringsWorksOnContentsNonConstConstInstanceE, %edi
 11523      00
 11524 4222 E893C3FF 		call	_ZN12_GLOBAL__N_154TestCheckEqualsWithStringsWorksOnContentsNonConstConstC2Ev
 11524      FF
 11525 4227 BA000000 		movl	$__dso_handle, %edx
 11525      00
 11526 422c BE000000 		movl	$_ZN12_GLOBAL__N_162testCheckEqualsWithStringsWorksOnContentsNonConstConstInstanceE, %esi
 11526      00
 11527 4231 BF000000 		movl	$_ZN12_GLOBAL__N_154TestCheckEqualsWithStringsWorksOnContentsNonConstConstD1Ev, %edi
 11527      00
 11528 4236 E8000000 		call	__cxa_atexit
 11528      00
 11529 423b E8000000 		call	_ZN8UnitTest4Test11GetTestListEv
 11529      00
 11530 4240 BA000000 		movl	$_ZN12_GLOBAL__N_162testCheckEqualsWithStringsWorksOnContentsNonConstConstInstanceE, %edx
 11530      00
 11531 4245 4889C6   		movq	%rax, %rsi
 11532 4248 BF000000 		movl	$_ZN12_GLOBAL__N_155adderCheckEqualsWithStringsWorksOnContentsNonConstConstE, %edi
 11532      00
 11533 424d E8000000 		call	_ZN8UnitTest9ListAdderC1ERNS_8TestListEPNS_4TestE
 11533      00
  56:TestChecks.cpp **** {
 11534              		.loc 5 56 0
 11535 4252 BF000000 		movl	$_ZN12_GLOBAL__N_162testCheckEqualsWithStringsWorksOnContentsConstNonConstInstanceE, %edi
 11535      00
 11536 4257 E8E4C4FF 		call	_ZN12_GLOBAL__N_154TestCheckEqualsWithStringsWorksOnContentsConstNonConstC2Ev
 11536      FF
 11537 425c BA000000 		movl	$__dso_handle, %edx
 11537      00
 11538 4261 BE000000 		movl	$_ZN12_GLOBAL__N_162testCheckEqualsWithStringsWorksOnContentsConstNonConstInstanceE, %esi
 11538      00
 11539 4266 BF000000 		movl	$_ZN12_GLOBAL__N_154TestCheckEqualsWithStringsWorksOnContentsConstNonConstD1Ev, %edi
 11539      00
 11540 426b E8000000 		call	__cxa_atexit
 11540      00
 11541 4270 E8000000 		call	_ZN8UnitTest4Test11GetTestListEv
 11541      00
 11542 4275 BA000000 		movl	$_ZN12_GLOBAL__N_162testCheckEqualsWithStringsWorksOnContentsConstNonConstInstanceE, %edx
 11542      00
 11543 427a 4889C6   		movq	%rax, %rsi
 11544 427d BF000000 		movl	$_ZN12_GLOBAL__N_155adderCheckEqualsWithStringsWorksOnContentsConstNonConstE, %edi
 11544      00
 11545 4282 E8000000 		call	_ZN8UnitTest9ListAdderC1ERNS_8TestListEPNS_4TestE
 11545      00
  65:TestChecks.cpp **** {
 11546              		.loc 5 65 0
 11547 4287 BF000000 		movl	$_ZN12_GLOBAL__N_161testCheckEqualsWithStringsWorksOnContentsWithALiteralInstanceE, %edi
 11547      00
 11548 428c E835C6FF 		call	_ZN12_GLOBAL__N_153TestCheckEqualsWithStringsWorksOnContentsWithALiteralC2Ev
 11548      FF
 11549 4291 BA000000 		movl	$__dso_handle, %edx
 11549      00
 11550 4296 BE000000 		movl	$_ZN12_GLOBAL__N_161testCheckEqualsWithStringsWorksOnContentsWithALiteralInstanceE, %esi
 11550      00
 11551 429b BF000000 		movl	$_ZN12_GLOBAL__N_153TestCheckEqualsWithStringsWorksOnContentsWithALiteralD1Ev, %edi
 11551      00
 11552 42a0 E8000000 		call	__cxa_atexit
 11552      00
 11553 42a5 E8000000 		call	_ZN8UnitTest4Test11GetTestListEv
 11553      00
 11554 42aa BA000000 		movl	$_ZN12_GLOBAL__N_161testCheckEqualsWithStringsWorksOnContentsWithALiteralInstanceE, %edx
 11554      00
 11555 42af 4889C6   		movq	%rax, %rsi
 11556 42b2 BF000000 		movl	$_ZN12_GLOBAL__N_154adderCheckEqualsWithStringsWorksOnContentsWithALiteralE, %edi
 11556      00
 11557 42b7 E8000000 		call	_ZN8UnitTest9ListAdderC1ERNS_8TestListEPNS_4TestE
 11557      00
  73:TestChecks.cpp **** {
 11558              		.loc 5 73 0
 11559 42bc BF000000 		movl	$_ZN12_GLOBAL__N_159testCheckEqualFailureIncludesCheckExpectedAndActualInstanceE, %edi
 11559      00
 11560 42c1 E876C7FF 		call	_ZN12_GLOBAL__N_151TestCheckEqualFailureIncludesCheckExpectedAndActualC2Ev
 11560      FF
 11561 42c6 BA000000 		movl	$__dso_handle, %edx
 11561      00
 11562 42cb BE000000 		movl	$_ZN12_GLOBAL__N_159testCheckEqualFailureIncludesCheckExpectedAndActualInstanceE, %esi
 11562      00
 11563 42d0 BF000000 		movl	$_ZN12_GLOBAL__N_151TestCheckEqualFailureIncludesCheckExpectedAndActualD1Ev, %edi
 11563      00
 11564 42d5 E8000000 		call	__cxa_atexit
 11564      00
 11565 42da E8000000 		call	_ZN8UnitTest4Test11GetTestListEv
 11565      00
 11566 42df BA000000 		movl	$_ZN12_GLOBAL__N_159testCheckEqualFailureIncludesCheckExpectedAndActualInstanceE, %edx
 11566      00
 11567 42e4 4889C6   		movq	%rax, %rsi
 11568 42e7 BF000000 		movl	$_ZN12_GLOBAL__N_152adderCheckEqualFailureIncludesCheckExpectedAndActualE, %edi
 11568      00
 11569 42ec E8000000 		call	_ZN8UnitTest9ListAdderC1ERNS_8TestListEPNS_4TestE
 11569      00
  85:TestChecks.cpp **** {
 11570              		.loc 5 85 0
 11571 42f1 BF000000 		movl	$_ZN12_GLOBAL__N_144testCheckEqualFailureIncludesDetailsInstanceE, %edi
 11571      00
 11572 42f6 E8FDC9FF 		call	_ZN12_GLOBAL__N_136TestCheckEqualFailureIncludesDetailsC2Ev
 11572      FF
 11573 42fb BA000000 		movl	$__dso_handle, %edx
 11573      00
 11574 4300 BE000000 		movl	$_ZN12_GLOBAL__N_144testCheckEqualFailureIncludesDetailsInstanceE, %esi
 11574      00
 11575 4305 BF000000 		movl	$_ZN12_GLOBAL__N_136TestCheckEqualFailureIncludesDetailsD1Ev, %edi
 11575      00
 11576 430a E8000000 		call	__cxa_atexit
 11576      00
 11577 430f E8000000 		call	_ZN8UnitTest4Test11GetTestListEv
 11577      00
 11578 4314 BA000000 		movl	$_ZN12_GLOBAL__N_144testCheckEqualFailureIncludesDetailsInstanceE, %edx
 11578      00
 11579 4319 4889C6   		movq	%rax, %rsi
 11580 431c BF000000 		movl	$_ZN12_GLOBAL__N_137adderCheckEqualFailureIncludesDetailsE, %edi
 11580      00
 11581 4321 E8000000 		call	_ZN8UnitTest9ListAdderC1ERNS_8TestListEPNS_4TestE
 11581      00
  99:TestChecks.cpp **** {
 11582              		.loc 5 99 0
 11583 4326 BF000000 		movl	$_ZN12_GLOBAL__N_126testCheckCloseTrueInstanceE, %edi
 11583      00
 11584 432b E8B8CDFF 		call	_ZN12_GLOBAL__N_118TestCheckCloseTrueC2Ev
 11584      FF
 11585 4330 BA000000 		movl	$__dso_handle, %edx
 11585      00
 11586 4335 BE000000 		movl	$_ZN12_GLOBAL__N_126testCheckCloseTrueInstanceE, %esi
 11586      00
 11587 433a BF000000 		movl	$_ZN12_GLOBAL__N_118TestCheckCloseTrueD1Ev, %edi
 11587      00
 11588 433f E8000000 		call	__cxa_atexit
 11588      00
 11589 4344 E8000000 		call	_ZN8UnitTest4Test11GetTestListEv
 11589      00
 11590 4349 BA000000 		movl	$_ZN12_GLOBAL__N_126testCheckCloseTrueInstanceE, %edx
 11590      00
 11591 434e 4889C6   		movq	%rax, %rsi
 11592 4351 BF000000 		movl	$_ZN12_GLOBAL__N_119adderCheckCloseTrueE, %edi
 11592      00
 11593 4356 E8000000 		call	_ZN8UnitTest9ListAdderC1ERNS_8TestListEPNS_4TestE
 11593      00
 106:TestChecks.cpp **** {
 11594              		.loc 5 106 0
 11595 435b BF000000 		movl	$_ZN12_GLOBAL__N_127testCheckCloseFalseInstanceE, %edi
 11595      00
 11596 4360 E80DCFFF 		call	_ZN12_GLOBAL__N_119TestCheckCloseFalseC2Ev
 11596      FF
 11597 4365 BA000000 		movl	$__dso_handle, %edx
 11597      00
 11598 436a BE000000 		movl	$_ZN12_GLOBAL__N_127testCheckCloseFalseInstanceE, %esi
 11598      00
 11599 436f BF000000 		movl	$_ZN12_GLOBAL__N_119TestCheckCloseFalseD1Ev, %edi
 11599      00
 11600 4374 E8000000 		call	__cxa_atexit
 11600      00
 11601 4379 E8000000 		call	_ZN8UnitTest4Test11GetTestListEv
 11601      00
 11602 437e BA000000 		movl	$_ZN12_GLOBAL__N_127testCheckCloseFalseInstanceE, %edx
 11602      00
 11603 4383 4889C6   		movq	%rax, %rsi
 11604 4386 BF000000 		movl	$_ZN12_GLOBAL__N_120adderCheckCloseFalseE, %edi
 11604      00
 11605 438b E8000000 		call	_ZN8UnitTest9ListAdderC1ERNS_8TestListEPNS_4TestE
 11605      00
 113:TestChecks.cpp **** {
 11606              		.loc 5 113 0
 11607 4390 BF000000 		movl	$_ZN12_GLOBAL__N_155testCheckCloseWithZeroEpsilonWorksForSameNumberInstanceE, %edi
 11607      00
 11608 4395 E862D0FF 		call	_ZN12_GLOBAL__N_147TestCheckCloseWithZeroEpsilonWorksForSameNumberC2Ev
 11608      FF
 11609 439a BA000000 		movl	$__dso_handle, %edx
 11609      00
 11610 439f BE000000 		movl	$_ZN12_GLOBAL__N_155testCheckCloseWithZeroEpsilonWorksForSameNumberInstanceE, %esi
 11610      00
 11611 43a4 BF000000 		movl	$_ZN12_GLOBAL__N_147TestCheckCloseWithZeroEpsilonWorksForSameNumberD1Ev, %edi
 11611      00
 11612 43a9 E8000000 		call	__cxa_atexit
 11612      00
 11613 43ae E8000000 		call	_ZN8UnitTest4Test11GetTestListEv
 11613      00
 11614 43b3 BA000000 		movl	$_ZN12_GLOBAL__N_155testCheckCloseWithZeroEpsilonWorksForSameNumberInstanceE, %edx
 11614      00
 11615 43b8 4889C6   		movq	%rax, %rsi
 11616 43bb BF000000 		movl	$_ZN12_GLOBAL__N_148adderCheckCloseWithZeroEpsilonWorksForSameNumberE, %edi
 11616      00
 11617 43c0 E8000000 		call	_ZN8UnitTest9ListAdderC1ERNS_8TestListEPNS_4TestE
 11617      00
 120:TestChecks.cpp **** {
 11618              		.loc 5 120 0
 11619 43c5 BF000000 		movl	$_ZN12_GLOBAL__N_134testCheckCloseWithNaNFailsInstanceE, %edi
 11619      00
 11620 43ca E8B5D1FF 		call	_ZN12_GLOBAL__N_126TestCheckCloseWithNaNFailsC2Ev
 11620      FF
 11621 43cf BA000000 		movl	$__dso_handle, %edx
 11621      00
 11622 43d4 BE000000 		movl	$_ZN12_GLOBAL__N_134testCheckCloseWithNaNFailsInstanceE, %esi
 11622      00
 11623 43d9 BF000000 		movl	$_ZN12_GLOBAL__N_126TestCheckCloseWithNaNFailsD1Ev, %edi
 11623      00
 11624 43de E8000000 		call	__cxa_atexit
 11624      00
 11625 43e3 E8000000 		call	_ZN8UnitTest4Test11GetTestListEv
 11625      00
 11626 43e8 BA000000 		movl	$_ZN12_GLOBAL__N_134testCheckCloseWithNaNFailsInstanceE, %edx
 11626      00
 11627 43ed 4889C6   		movq	%rax, %rsi
 11628 43f0 BF000000 		movl	$_ZN12_GLOBAL__N_127adderCheckCloseWithNaNFailsE, %edi
 11628      00
 11629 43f5 E8000000 		call	_ZN8UnitTest9ListAdderC1ERNS_8TestListEPNS_4TestE
 11629      00
 133:TestChecks.cpp **** {
 11630              		.loc 5 133 0
 11631 43fa BF000000 		movl	$_ZN12_GLOBAL__N_147testCheckCloseWithNaNAgainstItselfFailsInstanceE, %edi
 11631      00
 11632 43ff E808D3FF 		call	_ZN12_GLOBAL__N_139TestCheckCloseWithNaNAgainstItselfFailsC2Ev
 11632      FF
 11633 4404 BA000000 		movl	$__dso_handle, %edx
 11633      00
 11634 4409 BE000000 		movl	$_ZN12_GLOBAL__N_147testCheckCloseWithNaNAgainstItselfFailsInstanceE, %esi
 11634      00
 11635 440e BF000000 		movl	$_ZN12_GLOBAL__N_139TestCheckCloseWithNaNAgainstItselfFailsD1Ev, %edi
 11635      00
 11636 4413 E8000000 		call	__cxa_atexit
 11636      00
 11637 4418 E8000000 		call	_ZN8UnitTest4Test11GetTestListEv
 11637      00
 11638 441d BA000000 		movl	$_ZN12_GLOBAL__N_147testCheckCloseWithNaNAgainstItselfFailsInstanceE, %edx
 11638      00
 11639 4422 4889C6   		movq	%rax, %rsi
 11640 4425 BF000000 		movl	$_ZN12_GLOBAL__N_140adderCheckCloseWithNaNAgainstItselfFailsE, %edi
 11640      00
 11641 442a E8000000 		call	_ZN8UnitTest9ListAdderC1ERNS_8TestListEPNS_4TestE
 11641      00
 146:TestChecks.cpp **** {
 11642              		.loc 5 146 0
 11643 442f BF000000 		movl	$_ZN12_GLOBAL__N_159testCheckCloseFailureIncludesCheckExpectedAndActualInstanceE, %edi
 11643      00
 11644 4434 E853D4FF 		call	_ZN12_GLOBAL__N_151TestCheckCloseFailureIncludesCheckExpectedAndActualC2Ev
 11644      FF
 11645 4439 BA000000 		movl	$__dso_handle, %edx
 11645      00
 11646 443e BE000000 		movl	$_ZN12_GLOBAL__N_159testCheckCloseFailureIncludesCheckExpectedAndActualInstanceE, %esi
 11646      00
 11647 4443 BF000000 		movl	$_ZN12_GLOBAL__N_151TestCheckCloseFailureIncludesCheckExpectedAndActualD1Ev, %edi
 11647      00
 11648 4448 E8000000 		call	__cxa_atexit
 11648      00
 11649 444d E8000000 		call	_ZN8UnitTest4Test11GetTestListEv
 11649      00
 11650 4452 BA000000 		movl	$_ZN12_GLOBAL__N_159testCheckCloseFailureIncludesCheckExpectedAndActualInstanceE, %edx
 11650      00
 11651 4457 4889C6   		movq	%rax, %rsi
 11652 445a BF000000 		movl	$_ZN12_GLOBAL__N_152adderCheckCloseFailureIncludesCheckExpectedAndActualE, %edi
 11652      00
 11653 445f E8000000 		call	_ZN8UnitTest9ListAdderC1ERNS_8TestListEPNS_4TestE
 11653      00
 159:TestChecks.cpp **** {
 11654              		.loc 5 159 0
 11655 4464 BF000000 		movl	$_ZN12_GLOBAL__N_146testCheckCloseFailureIncludesToleranceInstanceE, %edi
 11655      00
 11656 4469 E8F4D6FF 		call	_ZN12_GLOBAL__N_138TestCheckCloseFailureIncludesToleranceC2Ev
 11656      FF
 11657 446e BA000000 		movl	$__dso_handle, %edx
 11657      00
 11658 4473 BE000000 		movl	$_ZN12_GLOBAL__N_146testCheckCloseFailureIncludesToleranceInstanceE, %esi
 11658      00
 11659 4478 BF000000 		movl	$_ZN12_GLOBAL__N_138TestCheckCloseFailureIncludesToleranceD1Ev, %edi
 11659      00
 11660 447d E8000000 		call	__cxa_atexit
 11660      00
 11661 4482 E8000000 		call	_ZN8UnitTest4Test11GetTestListEv
 11661      00
 11662 4487 BA000000 		movl	$_ZN12_GLOBAL__N_146testCheckCloseFailureIncludesToleranceInstanceE, %edx
 11662      00
 11663 448c 4889C6   		movq	%rax, %rsi
 11664 448f BF000000 		movl	$_ZN12_GLOBAL__N_139adderCheckCloseFailureIncludesToleranceE, %edi
 11664      00
 11665 4494 E8000000 		call	_ZN8UnitTest9ListAdderC1ERNS_8TestListEPNS_4TestE
 11665      00
 169:TestChecks.cpp **** {
 11666              		.loc 5 169 0
 11667 4499 BF000000 		movl	$_ZN12_GLOBAL__N_144testCheckCloseFailureIncludesDetailsInstanceE, %edi
 11667      00
 11668 449e E8C3D8FF 		call	_ZN12_GLOBAL__N_136TestCheckCloseFailureIncludesDetailsC2Ev
 11668      FF
 11669 44a3 BA000000 		movl	$__dso_handle, %edx
 11669      00
 11670 44a8 BE000000 		movl	$_ZN12_GLOBAL__N_144testCheckCloseFailureIncludesDetailsInstanceE, %esi
 11670      00
 11671 44ad BF000000 		movl	$_ZN12_GLOBAL__N_136TestCheckCloseFailureIncludesDetailsD1Ev, %edi
 11671      00
 11672 44b2 E8000000 		call	__cxa_atexit
 11672      00
 11673 44b7 E8000000 		call	_ZN8UnitTest4Test11GetTestListEv
 11673      00
 11674 44bc BA000000 		movl	$_ZN12_GLOBAL__N_144testCheckCloseFailureIncludesDetailsInstanceE, %edx
 11674      00
 11675 44c1 4889C6   		movq	%rax, %rsi
 11676 44c4 BF000000 		movl	$_ZN12_GLOBAL__N_137adderCheckCloseFailureIncludesDetailsE, %edi
 11676      00
 11677 44c9 E8000000 		call	_ZN8UnitTest9ListAdderC1ERNS_8TestListEPNS_4TestE
 11677      00
 184:TestChecks.cpp **** {
 11678              		.loc 5 184 0
 11679 44ce BF000000 		movl	$_ZN12_GLOBAL__N_131testCheckArrayEqualTrueInstanceE, %edi
 11679      00
 11680 44d3 E894DCFF 		call	_ZN12_GLOBAL__N_123TestCheckArrayEqualTrueC2Ev
 11680      FF
 11681 44d8 BA000000 		movl	$__dso_handle, %edx
 11681      00
 11682 44dd BE000000 		movl	$_ZN12_GLOBAL__N_131testCheckArrayEqualTrueInstanceE, %esi
 11682      00
 11683 44e2 BF000000 		movl	$_ZN12_GLOBAL__N_123TestCheckArrayEqualTrueD1Ev, %edi
 11683      00
 11684 44e7 E8000000 		call	__cxa_atexit
 11684      00
 11685 44ec E8000000 		call	_ZN8UnitTest4Test11GetTestListEv
 11685      00
 11686 44f1 BA000000 		movl	$_ZN12_GLOBAL__N_131testCheckArrayEqualTrueInstanceE, %edx
 11686      00
 11687 44f6 4889C6   		movq	%rax, %rsi
 11688 44f9 BF000000 		movl	$_ZN12_GLOBAL__N_124adderCheckArrayEqualTrueE, %edi
 11688      00
 11689 44fe E8000000 		call	_ZN8UnitTest9ListAdderC1ERNS_8TestListEPNS_4TestE
 11689      00
 193:TestChecks.cpp **** {
 11690              		.loc 5 193 0
 11691 4503 BF000000 		movl	$_ZN12_GLOBAL__N_132testCheckArrayEqualFalseInstanceE, %edi
 11691      00
 11692 4508 E8EDDDFF 		call	_ZN12_GLOBAL__N_124TestCheckArrayEqualFalseC2Ev
 11692      FF
 11693 450d BA000000 		movl	$__dso_handle, %edx
 11693      00
 11694 4512 BE000000 		movl	$_ZN12_GLOBAL__N_132testCheckArrayEqualFalseInstanceE, %esi
 11694      00
 11695 4517 BF000000 		movl	$_ZN12_GLOBAL__N_124TestCheckArrayEqualFalseD1Ev, %edi
 11695      00
 11696 451c E8000000 		call	__cxa_atexit
 11696      00
 11697 4521 E8000000 		call	_ZN8UnitTest4Test11GetTestListEv
 11697      00
 11698 4526 BA000000 		movl	$_ZN12_GLOBAL__N_132testCheckArrayEqualFalseInstanceE, %edx
 11698      00
 11699 452b 4889C6   		movq	%rax, %rsi
 11700 452e BF000000 		movl	$_ZN12_GLOBAL__N_125adderCheckArrayEqualFalseE, %edi
 11700      00
 11701 4533 E8000000 		call	_ZN8UnitTest9ListAdderC1ERNS_8TestListEPNS_4TestE
 11701      00
 203:TestChecks.cpp **** {
 11702              		.loc 5 203 0
 11703 4538 BF000000 		movl	$_ZN12_GLOBAL__N_131testCheckArrayCloseTrueInstanceE, %edi
 11703      00
 11704 453d E868DFFF 		call	_ZN12_GLOBAL__N_123TestCheckArrayCloseTrueC2Ev
 11704      FF
 11705 4542 BA000000 		movl	$__dso_handle, %edx
 11705      00
 11706 4547 BE000000 		movl	$_ZN12_GLOBAL__N_131testCheckArrayCloseTrueInstanceE, %esi
 11706      00
 11707 454c BF000000 		movl	$_ZN12_GLOBAL__N_123TestCheckArrayCloseTrueD1Ev, %edi
 11707      00
 11708 4551 E8000000 		call	__cxa_atexit
 11708      00
 11709 4556 E8000000 		call	_ZN8UnitTest4Test11GetTestListEv
 11709      00
 11710 455b BA000000 		movl	$_ZN12_GLOBAL__N_131testCheckArrayCloseTrueInstanceE, %edx
 11710      00
 11711 4560 4889C6   		movq	%rax, %rsi
 11712 4563 BF000000 		movl	$_ZN12_GLOBAL__N_124adderCheckArrayCloseTrueE, %edi
 11712      00
 11713 4568 E8000000 		call	_ZN8UnitTest9ListAdderC1ERNS_8TestListEPNS_4TestE
 11713      00
 213:TestChecks.cpp **** {
 11714              		.loc 5 213 0
 11715 456d BF000000 		movl	$_ZN12_GLOBAL__N_132testCheckArrayCloseFalseInstanceE, %edi
 11715      00
 11716 4572 E805E1FF 		call	_ZN12_GLOBAL__N_124TestCheckArrayCloseFalseC2Ev
 11716      FF
 11717 4577 BA000000 		movl	$__dso_handle, %edx
 11717      00
 11718 457c BE000000 		movl	$_ZN12_GLOBAL__N_132testCheckArrayCloseFalseInstanceE, %esi
 11718      00
 11719 4581 BF000000 		movl	$_ZN12_GLOBAL__N_124TestCheckArrayCloseFalseD1Ev, %edi
 11719      00
 11720 4586 E8000000 		call	__cxa_atexit
 11720      00
 11721 458b E8000000 		call	_ZN8UnitTest4Test11GetTestListEv
 11721      00
 11722 4590 BA000000 		movl	$_ZN12_GLOBAL__N_132testCheckArrayCloseFalseInstanceE, %edx
 11722      00
 11723 4595 4889C6   		movq	%rax, %rsi
 11724 4598 BF000000 		movl	$_ZN12_GLOBAL__N_125adderCheckArrayCloseFalseE, %edi
 11724      00
 11725 459d E8000000 		call	_ZN8UnitTest9ListAdderC1ERNS_8TestListEPNS_4TestE
 11725      00
 223:TestChecks.cpp **** {
 11726              		.loc 5 223 0
 11727 45a2 BF000000 		movl	$_ZN12_GLOBAL__N_149testCheckArrayCloseFailureIncludesDetailsInstanceE, %edi
 11727      00
 11728 45a7 E8A2E2FF 		call	_ZN12_GLOBAL__N_141TestCheckArrayCloseFailureIncludesDetailsC2Ev
 11728      FF
 11729 45ac BA000000 		movl	$__dso_handle, %edx
 11729      00
 11730 45b1 BE000000 		movl	$_ZN12_GLOBAL__N_149testCheckArrayCloseFailureIncludesDetailsInstanceE, %esi
 11730      00
 11731 45b6 BF000000 		movl	$_ZN12_GLOBAL__N_141TestCheckArrayCloseFailureIncludesDetailsD1Ev, %edi
 11731      00
 11732 45bb E8000000 		call	__cxa_atexit
 11732      00
 11733 45c0 E8000000 		call	_ZN8UnitTest4Test11GetTestListEv
 11733      00
 11734 45c5 BA000000 		movl	$_ZN12_GLOBAL__N_149testCheckArrayCloseFailureIncludesDetailsInstanceE, %edx
 11734      00
 11735 45ca 4889C6   		movq	%rax, %rsi
 11736 45cd BF000000 		movl	$_ZN12_GLOBAL__N_142adderCheckArrayCloseFailureIncludesDetailsE, %edi
 11736      00
 11737 45d2 E8000000 		call	_ZN8UnitTest9ListAdderC1ERNS_8TestListEPNS_4TestE
 11737      00
 240:TestChecks.cpp **** {
 11738              		.loc 5 240 0
 11739 45d7 BF000000 		movl	$_ZN12_GLOBAL__N_133testCheckArray2DCloseTrueInstanceE, %edi
 11739      00
 11740 45dc E8AFE6FF 		call	_ZN12_GLOBAL__N_125TestCheckArray2DCloseTrueC2Ev
 11740      FF
 11741 45e1 BA000000 		movl	$__dso_handle, %edx
 11741      00
 11742 45e6 BE000000 		movl	$_ZN12_GLOBAL__N_133testCheckArray2DCloseTrueInstanceE, %esi
 11742      00
 11743 45eb BF000000 		movl	$_ZN12_GLOBAL__N_125TestCheckArray2DCloseTrueD1Ev, %edi
 11743      00
 11744 45f0 E8000000 		call	__cxa_atexit
 11744      00
 11745 45f5 E8000000 		call	_ZN8UnitTest4Test11GetTestListEv
 11745      00
 11746 45fa BA000000 		movl	$_ZN12_GLOBAL__N_133testCheckArray2DCloseTrueInstanceE, %edx
 11746      00
 11747 45ff 4889C6   		movq	%rax, %rsi
 11748 4602 BF000000 		movl	$_ZN12_GLOBAL__N_126adderCheckArray2DCloseTrueE, %edi
 11748      00
 11749 4607 E8000000 		call	_ZN8UnitTest9ListAdderC1ERNS_8TestListEPNS_4TestE
 11749      00
 254:TestChecks.cpp **** {
 11750              		.loc 5 254 0
 11751 460c BF000000 		movl	$_ZN12_GLOBAL__N_134testCheckArray2DCloseFalseInstanceE, %edi
 11751      00
 11752 4611 E8DAE8FF 		call	_ZN12_GLOBAL__N_126TestCheckArray2DCloseFalseC2Ev
 11752      FF
 11753 4616 BA000000 		movl	$__dso_handle, %edx
 11753      00
 11754 461b BE000000 		movl	$_ZN12_GLOBAL__N_134testCheckArray2DCloseFalseInstanceE, %esi
 11754      00
 11755 4620 BF000000 		movl	$_ZN12_GLOBAL__N_126TestCheckArray2DCloseFalseD1Ev, %edi
 11755      00
 11756 4625 E8000000 		call	__cxa_atexit
 11756      00
 11757 462a E8000000 		call	_ZN8UnitTest4Test11GetTestListEv
 11757      00
 11758 462f BA000000 		movl	$_ZN12_GLOBAL__N_134testCheckArray2DCloseFalseInstanceE, %edx
 11758      00
 11759 4634 4889C6   		movq	%rax, %rsi
 11760 4637 BF000000 		movl	$_ZN12_GLOBAL__N_127adderCheckArray2DCloseFalseE, %edi
 11760      00
 11761 463c E8000000 		call	_ZN8UnitTest9ListAdderC1ERNS_8TestListEPNS_4TestE
 11761      00
 268:TestChecks.cpp **** {
 11762              		.loc 5 268 0
 11763 4641 BF000000 		movl	$_ZN12_GLOBAL__N_141testCheckCloseWithDoublesSucceedsInstanceE, %edi
 11763      00
 11764 4646 E805EBFF 		call	_ZN12_GLOBAL__N_133TestCheckCloseWithDoublesSucceedsC2Ev
 11764      FF
 11765 464b BA000000 		movl	$__dso_handle, %edx
 11765      00
 11766 4650 BE000000 		movl	$_ZN12_GLOBAL__N_141testCheckCloseWithDoublesSucceedsInstanceE, %esi
 11766      00
 11767 4655 BF000000 		movl	$_ZN12_GLOBAL__N_133TestCheckCloseWithDoublesSucceedsD1Ev, %edi
 11767      00
 11768 465a E8000000 		call	__cxa_atexit
 11768      00
 11769 465f E8000000 		call	_ZN8UnitTest4Test11GetTestListEv
 11769      00
 11770 4664 BA000000 		movl	$_ZN12_GLOBAL__N_141testCheckCloseWithDoublesSucceedsInstanceE, %edx
 11770      00
 11771 4669 4889C6   		movq	%rax, %rsi
 11772 466c BF000000 		movl	$_ZN12_GLOBAL__N_134adderCheckCloseWithDoublesSucceedsE, %edi
 11772      00
 11773 4671 E8000000 		call	_ZN8UnitTest9ListAdderC1ERNS_8TestListEPNS_4TestE
 11773      00
 273:TestChecks.cpp **** {
 11774              		.loc 5 273 0
 11775 4676 BF000000 		movl	$_ZN12_GLOBAL__N_151testCheckArray2DCloseFailureIncludesDetailsInstanceE, %edi
 11775      00
 11776 467b E80AECFF 		call	_ZN12_GLOBAL__N_143TestCheckArray2DCloseFailureIncludesDetailsC2Ev
 11776      FF
 11777 4680 BA000000 		movl	$__dso_handle, %edx
 11777      00
 11778 4685 BE000000 		movl	$_ZN12_GLOBAL__N_151testCheckArray2DCloseFailureIncludesDetailsInstanceE, %esi
 11778      00
 11779 468a BF000000 		movl	$_ZN12_GLOBAL__N_143TestCheckArray2DCloseFailureIncludesDetailsD1Ev, %edi
 11779      00
 11780 468f E8000000 		call	__cxa_atexit
 11780      00
 11781 4694 E8000000 		call	_ZN8UnitTest4Test11GetTestListEv
 11781      00
 11782 4699 BA000000 		movl	$_ZN12_GLOBAL__N_151testCheckArray2DCloseFailureIncludesDetailsInstanceE, %edx
 11782      00
 11783 469e 4889C6   		movq	%rax, %rsi
 11784 46a1 BF000000 		movl	$_ZN12_GLOBAL__N_144adderCheckArray2DCloseFailureIncludesDetailsE, %edi
 11784      00
 11785 46a6 E8000000 		call	_ZN8UnitTest9ListAdderC1ERNS_8TestListEPNS_4TestE
 11785      00
 11786              	.L592:
 11787              		.loc 5 293 0
 11788 46ab C9       		leave
 11789              		.cfi_def_cfa 7, 8
 11790 46ac C3       		ret
 11791              		.cfi_endproc
 11792              	.LFE1384:
 11794              		.section	.rodata
 11795 1268 00000000 		.align 16
 11795      00000000 
 11798              	_ZTIN12_GLOBAL__N_130TestCheckEqualWithUnsignedLongE:
 11799 1270 00000000 		.quad	_ZTVN10__cxxabiv120__si_class_type_infoE+16
 11799      00000000 
 11800 1278 00000000 		.quad	_ZTSN12_GLOBAL__N_130TestCheckEqualWithUnsignedLongE
 11800      00000000 
 11801 1280 00000000 		.quad	_ZTIN8UnitTest4TestE
 11801      00000000 
 11802 1288 00000000 		.align 16
 11802      00000000 
 11805              	_ZTIN12_GLOBAL__N_149TestCheckEqualsWithStringsFailsOnDifferentStringsE:
 11806 1290 00000000 		.quad	_ZTVN10__cxxabiv120__si_class_type_infoE+16
 11806      00000000 
 11807 1298 00000000 		.quad	_ZTSN12_GLOBAL__N_149TestCheckEqualsWithStringsFailsOnDifferentStringsE
 11807      00000000 
 11808 12a0 00000000 		.quad	_ZTIN8UnitTest4TestE
 11808      00000000 
 11809 12a8 00000000 		.align 16
 11809      00000000 
 11812              	_ZTIN12_GLOBAL__N_157TestCheckEqualsWithStringsWorksOnContentsNonConstNonConstE:
 11813 12b0 00000000 		.quad	_ZTVN10__cxxabiv120__si_class_type_infoE+16
 11813      00000000 
 11814 12b8 00000000 		.quad	_ZTSN12_GLOBAL__N_157TestCheckEqualsWithStringsWorksOnContentsNonConstNonConstE
 11814      00000000 
 11815 12c0 00000000 		.quad	_ZTIN8UnitTest4TestE
 11815      00000000 
 11816 12c8 00000000 		.align 16
 11816      00000000 
 11819              	_ZTIN12_GLOBAL__N_151TestCheckEqualsWithStringsWorksOnContentsConstConstE:
 11820 12d0 00000000 		.quad	_ZTVN10__cxxabiv120__si_class_type_infoE+16
 11820      00000000 
 11821 12d8 00000000 		.quad	_ZTSN12_GLOBAL__N_151TestCheckEqualsWithStringsWorksOnContentsConstConstE
 11821      00000000 
 11822 12e0 00000000 		.quad	_ZTIN8UnitTest4TestE
 11822      00000000 
 11823 12e8 00000000 		.align 16
 11823      00000000 
 11826              	_ZTIN12_GLOBAL__N_154TestCheckEqualsWithStringsWorksOnContentsNonConstConstE:
 11827 12f0 00000000 		.quad	_ZTVN10__cxxabiv120__si_class_type_infoE+16
 11827      00000000 
 11828 12f8 00000000 		.quad	_ZTSN12_GLOBAL__N_154TestCheckEqualsWithStringsWorksOnContentsNonConstConstE
 11828      00000000 
 11829 1300 00000000 		.quad	_ZTIN8UnitTest4TestE
 11829      00000000 
 11830 1308 00000000 		.align 16
 11830      00000000 
 11833              	_ZTIN12_GLOBAL__N_154TestCheckEqualsWithStringsWorksOnContentsConstNonConstE:
 11834 1310 00000000 		.quad	_ZTVN10__cxxabiv120__si_class_type_infoE+16
 11834      00000000 
 11835 1318 00000000 		.quad	_ZTSN12_GLOBAL__N_154TestCheckEqualsWithStringsWorksOnContentsConstNonConstE
 11835      00000000 
 11836 1320 00000000 		.quad	_ZTIN8UnitTest4TestE
 11836      00000000 
 11837 1328 00000000 		.align 16
 11837      00000000 
 11840              	_ZTIN12_GLOBAL__N_153TestCheckEqualsWithStringsWorksOnContentsWithALiteralE:
 11841 1330 00000000 		.quad	_ZTVN10__cxxabiv120__si_class_type_infoE+16
 11841      00000000 
 11842 1338 00000000 		.quad	_ZTSN12_GLOBAL__N_153TestCheckEqualsWithStringsWorksOnContentsWithALiteralE
 11842      00000000 
 11843 1340 00000000 		.quad	_ZTIN8UnitTest4TestE
 11843      00000000 
 11844 1348 00000000 		.align 16
 11844      00000000 
 11847              	_ZTIN12_GLOBAL__N_151TestCheckEqualFailureIncludesCheckExpectedAndActualE:
 11848 1350 00000000 		.quad	_ZTVN10__cxxabiv120__si_class_type_infoE+16
 11848      00000000 
 11849 1358 00000000 		.quad	_ZTSN12_GLOBAL__N_151TestCheckEqualFailureIncludesCheckExpectedAndActualE
 11849      00000000 
 11850 1360 00000000 		.quad	_ZTIN8UnitTest4TestE
 11850      00000000 
 11851 1368 00000000 		.align 16
 11851      00000000 
 11854              	_ZTIN12_GLOBAL__N_136TestCheckEqualFailureIncludesDetailsE:
 11855 1370 00000000 		.quad	_ZTVN10__cxxabiv120__si_class_type_infoE+16
 11855      00000000 
 11856 1378 00000000 		.quad	_ZTSN12_GLOBAL__N_136TestCheckEqualFailureIncludesDetailsE
 11856      00000000 
 11857 1380 00000000 		.quad	_ZTIN8UnitTest4TestE
 11857      00000000 
 11858 1388 00000000 		.align 16
 11858      00000000 
 11861              	_ZTIN12_GLOBAL__N_118TestCheckCloseTrueE:
 11862 1390 00000000 		.quad	_ZTVN10__cxxabiv120__si_class_type_infoE+16
 11862      00000000 
 11863 1398 00000000 		.quad	_ZTSN12_GLOBAL__N_118TestCheckCloseTrueE
 11863      00000000 
 11864 13a0 00000000 		.quad	_ZTIN8UnitTest4TestE
 11864      00000000 
 11865 13a8 00000000 		.align 16
 11865      00000000 
 11868              	_ZTIN12_GLOBAL__N_119TestCheckCloseFalseE:
 11869 13b0 00000000 		.quad	_ZTVN10__cxxabiv120__si_class_type_infoE+16
 11869      00000000 
 11870 13b8 00000000 		.quad	_ZTSN12_GLOBAL__N_119TestCheckCloseFalseE
 11870      00000000 
 11871 13c0 00000000 		.quad	_ZTIN8UnitTest4TestE
 11871      00000000 
 11872 13c8 00000000 		.align 16
 11872      00000000 
 11875              	_ZTIN12_GLOBAL__N_147TestCheckCloseWithZeroEpsilonWorksForSameNumberE:
 11876 13d0 00000000 		.quad	_ZTVN10__cxxabiv120__si_class_type_infoE+16
 11876      00000000 
 11877 13d8 00000000 		.quad	_ZTSN12_GLOBAL__N_147TestCheckCloseWithZeroEpsilonWorksForSameNumberE
 11877      00000000 
 11878 13e0 00000000 		.quad	_ZTIN8UnitTest4TestE
 11878      00000000 
 11879 13e8 00000000 		.align 16
 11879      00000000 
 11882              	_ZTIN12_GLOBAL__N_126TestCheckCloseWithNaNFailsE:
 11883 13f0 00000000 		.quad	_ZTVN10__cxxabiv120__si_class_type_infoE+16
 11883      00000000 
 11884 13f8 00000000 		.quad	_ZTSN12_GLOBAL__N_126TestCheckCloseWithNaNFailsE
 11884      00000000 
 11885 1400 00000000 		.quad	_ZTIN8UnitTest4TestE
 11885      00000000 
 11886 1408 00000000 		.align 16
 11886      00000000 
 11889              	_ZTIN12_GLOBAL__N_139TestCheckCloseWithNaNAgainstItselfFailsE:
 11890 1410 00000000 		.quad	_ZTVN10__cxxabiv120__si_class_type_infoE+16
 11890      00000000 
 11891 1418 00000000 		.quad	_ZTSN12_GLOBAL__N_139TestCheckCloseWithNaNAgainstItselfFailsE
 11891      00000000 
 11892 1420 00000000 		.quad	_ZTIN8UnitTest4TestE
 11892      00000000 
 11893 1428 00000000 		.align 16
 11893      00000000 
 11896              	_ZTIN12_GLOBAL__N_151TestCheckCloseFailureIncludesCheckExpectedAndActualE:
 11897 1430 00000000 		.quad	_ZTVN10__cxxabiv120__si_class_type_infoE+16
 11897      00000000 
 11898 1438 00000000 		.quad	_ZTSN12_GLOBAL__N_151TestCheckCloseFailureIncludesCheckExpectedAndActualE
 11898      00000000 
 11899 1440 00000000 		.quad	_ZTIN8UnitTest4TestE
 11899      00000000 
 11900 1448 00000000 		.align 16
 11900      00000000 
 11903              	_ZTIN12_GLOBAL__N_138TestCheckCloseFailureIncludesToleranceE:
 11904 1450 00000000 		.quad	_ZTVN10__cxxabiv120__si_class_type_infoE+16
 11904      00000000 
 11905 1458 00000000 		.quad	_ZTSN12_GLOBAL__N_138TestCheckCloseFailureIncludesToleranceE
 11905      00000000 
 11906 1460 00000000 		.quad	_ZTIN8UnitTest4TestE
 11906      00000000 
 11907 1468 00000000 		.align 16
 11907      00000000 
 11910              	_ZTIN12_GLOBAL__N_136TestCheckCloseFailureIncludesDetailsE:
 11911 1470 00000000 		.quad	_ZTVN10__cxxabiv120__si_class_type_infoE+16
 11911      00000000 
 11912 1478 00000000 		.quad	_ZTSN12_GLOBAL__N_136TestCheckCloseFailureIncludesDetailsE
 11912      00000000 
 11913 1480 00000000 		.quad	_ZTIN8UnitTest4TestE
 11913      00000000 
 11914 1488 00000000 		.align 16
 11914      00000000 
 11917              	_ZTIN12_GLOBAL__N_123TestCheckArrayEqualTrueE:
 11918 1490 00000000 		.quad	_ZTVN10__cxxabiv120__si_class_type_infoE+16
 11918      00000000 
 11919 1498 00000000 		.quad	_ZTSN12_GLOBAL__N_123TestCheckArrayEqualTrueE
 11919      00000000 
 11920 14a0 00000000 		.quad	_ZTIN8UnitTest4TestE
 11920      00000000 
 11921 14a8 00000000 		.align 16
 11921      00000000 
 11924              	_ZTIN12_GLOBAL__N_124TestCheckArrayEqualFalseE:
 11925 14b0 00000000 		.quad	_ZTVN10__cxxabiv120__si_class_type_infoE+16
 11925      00000000 
 11926 14b8 00000000 		.quad	_ZTSN12_GLOBAL__N_124TestCheckArrayEqualFalseE
 11926      00000000 
 11927 14c0 00000000 		.quad	_ZTIN8UnitTest4TestE
 11927      00000000 
 11928 14c8 00000000 		.align 16
 11928      00000000 
 11931              	_ZTIN12_GLOBAL__N_123TestCheckArrayCloseTrueE:
 11932 14d0 00000000 		.quad	_ZTVN10__cxxabiv120__si_class_type_infoE+16
 11932      00000000 
 11933 14d8 00000000 		.quad	_ZTSN12_GLOBAL__N_123TestCheckArrayCloseTrueE
 11933      00000000 
 11934 14e0 00000000 		.quad	_ZTIN8UnitTest4TestE
 11934      00000000 
 11935 14e8 00000000 		.align 16
 11935      00000000 
 11938              	_ZTIN12_GLOBAL__N_124TestCheckArrayCloseFalseE:
 11939 14f0 00000000 		.quad	_ZTVN10__cxxabiv120__si_class_type_infoE+16
 11939      00000000 
 11940 14f8 00000000 		.quad	_ZTSN12_GLOBAL__N_124TestCheckArrayCloseFalseE
 11940      00000000 
 11941 1500 00000000 		.quad	_ZTIN8UnitTest4TestE
 11941      00000000 
 11942 1508 00000000 		.align 16
 11942      00000000 
 11945              	_ZTIN12_GLOBAL__N_141TestCheckArrayCloseFailureIncludesDetailsE:
 11946 1510 00000000 		.quad	_ZTVN10__cxxabiv120__si_class_type_infoE+16
 11946      00000000 
 11947 1518 00000000 		.quad	_ZTSN12_GLOBAL__N_141TestCheckArrayCloseFailureIncludesDetailsE
 11947      00000000 
 11948 1520 00000000 		.quad	_ZTIN8UnitTest4TestE
 11948      00000000 
 11949 1528 00000000 		.align 16
 11949      00000000 
 11952              	_ZTIN12_GLOBAL__N_125TestCheckArray2DCloseTrueE:
 11953 1530 00000000 		.quad	_ZTVN10__cxxabiv120__si_class_type_infoE+16
 11953      00000000 
 11954 1538 00000000 		.quad	_ZTSN12_GLOBAL__N_125TestCheckArray2DCloseTrueE
 11954      00000000 
 11955 1540 00000000 		.quad	_ZTIN8UnitTest4TestE
 11955      00000000 
 11956 1548 00000000 		.align 16
 11956      00000000 
 11959              	_ZTIN12_GLOBAL__N_126TestCheckArray2DCloseFalseE:
 11960 1550 00000000 		.quad	_ZTVN10__cxxabiv120__si_class_type_infoE+16
 11960      00000000 
 11961 1558 00000000 		.quad	_ZTSN12_GLOBAL__N_126TestCheckArray2DCloseFalseE
 11961      00000000 
 11962 1560 00000000 		.quad	_ZTIN8UnitTest4TestE
 11962      00000000 
 11963 1568 00000000 		.align 16
 11963      00000000 
 11966              	_ZTIN12_GLOBAL__N_133TestCheckCloseWithDoublesSucceedsE:
 11967 1570 00000000 		.quad	_ZTVN10__cxxabiv120__si_class_type_infoE+16
 11967      00000000 
 11968 1578 00000000 		.quad	_ZTSN12_GLOBAL__N_133TestCheckCloseWithDoublesSucceedsE
 11968      00000000 
 11969 1580 00000000 		.quad	_ZTIN8UnitTest4TestE
 11969      00000000 
 11970 1588 00000000 		.align 16
 11970      00000000 
 11973              	_ZTIN12_GLOBAL__N_143TestCheckArray2DCloseFailureIncludesDetailsE:
 11974 1590 00000000 		.quad	_ZTVN10__cxxabiv120__si_class_type_infoE+16
 11974      00000000 
 11975 1598 00000000 		.quad	_ZTSN12_GLOBAL__N_143TestCheckArray2DCloseFailureIncludesDetailsE
 11975      00000000 
 11976 15a0 00000000 		.quad	_ZTIN8UnitTest4TestE
 11976      00000000 
 11977 15a8 00000000 		.align 32
 11977      00000000 
 11977      00000000 
 11977      00000000 
 11977      00000000 
 11980              	_ZTSN12_GLOBAL__N_143TestCheckArray2DCloseFailureIncludesDetailsE:
 11981 15c0 2A4E3132 		.string	"*N12_GLOBAL__N_143TestCheckArray2DCloseFailureIncludesDetailsE"
 11981      5F474C4F 
 11981      42414C5F 
 11981      5F4E5F31 
 11981      34335465 
 11982 15ff 00       		.align 32
 11985              	_ZTSN12_GLOBAL__N_133TestCheckCloseWithDoublesSucceedsE:
 11986 1600 2A4E3132 		.string	"*N12_GLOBAL__N_133TestCheckCloseWithDoublesSucceedsE"
 11986      5F474C4F 
 11986      42414C5F 
 11986      5F4E5F31 
 11986      33335465 
 11987 1635 00000000 		.align 32
 11987      00000000 
 11987      000000
 11990              	_ZTSN12_GLOBAL__N_126TestCheckArray2DCloseFalseE:
 11991 1640 2A4E3132 		.string	"*N12_GLOBAL__N_126TestCheckArray2DCloseFalseE"
 11991      5F474C4F 
 11991      42414C5F 
 11991      5F4E5F31 
 11991      32365465 
 11992 166e 00000000 		.align 32
 11992      00000000 
 11992      00000000 
 11992      00000000 
 11992      0000
 11995              	_ZTSN12_GLOBAL__N_125TestCheckArray2DCloseTrueE:
 11996 1680 2A4E3132 		.string	"*N12_GLOBAL__N_125TestCheckArray2DCloseTrueE"
 11996      5F474C4F 
 11996      42414C5F 
 11996      5F4E5F31 
 11996      32355465 
 11997 16ad 00000000 		.align 32
 11997      00000000 
 11997      00000000 
 11997      00000000 
 11997      000000
 12000              	_ZTSN12_GLOBAL__N_141TestCheckArrayCloseFailureIncludesDetailsE:
 12001 16c0 2A4E3132 		.string	"*N12_GLOBAL__N_141TestCheckArrayCloseFailureIncludesDetailsE"
 12001      5F474C4F 
 12001      42414C5F 
 12001      5F4E5F31 
 12001      34315465 
 12002 16fd 000000   		.align 32
 12005              	_ZTSN12_GLOBAL__N_124TestCheckArrayCloseFalseE:
 12006 1700 2A4E3132 		.string	"*N12_GLOBAL__N_124TestCheckArrayCloseFalseE"
 12006      5F474C4F 
 12006      42414C5F 
 12006      5F4E5F31 
 12006      32345465 
 12007 172c 00000000 		.align 32
 12007      00000000 
 12007      00000000 
 12007      00000000 
 12007      00000000 
 12010              	_ZTSN12_GLOBAL__N_123TestCheckArrayCloseTrueE:
 12011 1740 2A4E3132 		.string	"*N12_GLOBAL__N_123TestCheckArrayCloseTrueE"
 12011      5F474C4F 
 12011      42414C5F 
 12011      5F4E5F31 
 12011      32335465 
 12012 176b 00000000 		.align 32
 12012      00000000 
 12012      00000000 
 12012      00000000 
 12012      00000000 
 12015              	_ZTSN12_GLOBAL__N_124TestCheckArrayEqualFalseE:
 12016 1780 2A4E3132 		.string	"*N12_GLOBAL__N_124TestCheckArrayEqualFalseE"
 12016      5F474C4F 
 12016      42414C5F 
 12016      5F4E5F31 
 12016      32345465 
 12017 17ac 00000000 		.align 32
 12017      00000000 
 12017      00000000 
 12017      00000000 
 12017      00000000 
 12020              	_ZTSN12_GLOBAL__N_123TestCheckArrayEqualTrueE:
 12021 17c0 2A4E3132 		.string	"*N12_GLOBAL__N_123TestCheckArrayEqualTrueE"
 12021      5F474C4F 
 12021      42414C5F 
 12021      5F4E5F31 
 12021      32335465 
 12022 17eb 00000000 		.align 32
 12022      00000000 
 12022      00000000 
 12022      00000000 
 12022      00000000 
 12025              	_ZTSN12_GLOBAL__N_136TestCheckCloseFailureIncludesDetailsE:
 12026 1800 2A4E3132 		.string	"*N12_GLOBAL__N_136TestCheckCloseFailureIncludesDetailsE"
 12026      5F474C4F 
 12026      42414C5F 
 12026      5F4E5F31 
 12026      33365465 
 12027 1838 00000000 		.align 32
 12027      00000000 
 12030              	_ZTSN12_GLOBAL__N_138TestCheckCloseFailureIncludesToleranceE:
 12031 1840 2A4E3132 		.string	"*N12_GLOBAL__N_138TestCheckCloseFailureIncludesToleranceE"
 12031      5F474C4F 
 12031      42414C5F 
 12031      5F4E5F31 
 12031      33385465 
 12032 187a 00000000 		.align 64
 12032      0000
 12035              	_ZTSN12_GLOBAL__N_151TestCheckCloseFailureIncludesCheckExpectedAndActualE:
 12036 1880 2A4E3132 		.string	"*N12_GLOBAL__N_151TestCheckCloseFailureIncludesCheckExpectedAndActualE"
 12036      5F474C4F 
 12036      42414C5F 
 12036      5F4E5F31 
 12036      35315465 
 12037 18c7 00000000 		.align 32
 12037      00000000 
 12037      00000000 
 12037      00000000 
 12037      00000000 
 12040              	_ZTSN12_GLOBAL__N_139TestCheckCloseWithNaNAgainstItselfFailsE:
 12041 18e0 2A4E3132 		.string	"*N12_GLOBAL__N_139TestCheckCloseWithNaNAgainstItselfFailsE"
 12041      5F474C4F 
 12041      42414C5F 
 12041      5F4E5F31 
 12041      33395465 
 12042 191b 00000000 		.align 32
 12042      00
 12045              	_ZTSN12_GLOBAL__N_126TestCheckCloseWithNaNFailsE:
 12046 1920 2A4E3132 		.string	"*N12_GLOBAL__N_126TestCheckCloseWithNaNFailsE"
 12046      5F474C4F 
 12046      42414C5F 
 12046      5F4E5F31 
 12046      32365465 
 12047 194e 00000000 		.align 64
 12047      00000000 
 12047      00000000 
 12047      00000000 
 12047      00000000 
 12050              	_ZTSN12_GLOBAL__N_147TestCheckCloseWithZeroEpsilonWorksForSameNumberE:
 12051 1980 2A4E3132 		.string	"*N12_GLOBAL__N_147TestCheckCloseWithZeroEpsilonWorksForSameNumberE"
 12051      5F474C4F 
 12051      42414C5F 
 12051      5F4E5F31 
 12051      34375465 
 12052 19c3 00000000 		.align 32
 12052      00000000 
 12052      00000000 
 12052      00000000 
 12052      00000000 
 12055              	_ZTSN12_GLOBAL__N_119TestCheckCloseFalseE:
 12056 19e0 2A4E3132 		.string	"*N12_GLOBAL__N_119TestCheckCloseFalseE"
 12056      5F474C4F 
 12056      42414C5F 
 12056      5F4E5F31 
 12056      31395465 
 12057 1a07 00000000 		.align 32
 12057      00000000 
 12057      00000000 
 12057      00000000 
 12057      00000000 
 12060              	_ZTSN12_GLOBAL__N_118TestCheckCloseTrueE:
 12061 1a20 2A4E3132 		.string	"*N12_GLOBAL__N_118TestCheckCloseTrueE"
 12061      5F474C4F 
 12061      42414C5F 
 12061      5F4E5F31 
 12061      31385465 
 12062 1a46 00000000 		.align 32
 12062      00000000 
 12062      00000000 
 12062      00000000 
 12062      00000000 
 12065              	_ZTSN12_GLOBAL__N_136TestCheckEqualFailureIncludesDetailsE:
 12066 1a60 2A4E3132 		.string	"*N12_GLOBAL__N_136TestCheckEqualFailureIncludesDetailsE"
 12066      5F474C4F 
 12066      42414C5F 
 12066      5F4E5F31 
 12066      33365465 
 12067 1a98 00000000 		.align 64
 12067      00000000 
 12067      00000000 
 12067      00000000 
 12067      00000000 
 12070              	_ZTSN12_GLOBAL__N_151TestCheckEqualFailureIncludesCheckExpectedAndActualE:
 12071 1ac0 2A4E3132 		.string	"*N12_GLOBAL__N_151TestCheckEqualFailureIncludesCheckExpectedAndActualE"
 12071      5F474C4F 
 12071      42414C5F 
 12071      5F4E5F31 
 12071      35315465 
 12072 1b07 00000000 		.align 64
 12072      00000000 
 12072      00000000 
 12072      00000000 
 12072      00000000 
 12075              	_ZTSN12_GLOBAL__N_153TestCheckEqualsWithStringsWorksOnContentsWithALiteralE:
 12076 1b40 2A4E3132 		.string	"*N12_GLOBAL__N_153TestCheckEqualsWithStringsWorksOnContentsWithALiteralE"
 12076      5F474C4F 
 12076      42414C5F 
 12076      5F4E5F31 
 12076      35335465 
 12077 1b89 00000000 		.align 64
 12077      00000000 
 12077      00000000 
 12077      00000000 
 12077      00000000 
 12080              	_ZTSN12_GLOBAL__N_154TestCheckEqualsWithStringsWorksOnContentsConstNonConstE:
 12081 1bc0 2A4E3132 		.string	"*N12_GLOBAL__N_154TestCheckEqualsWithStringsWorksOnContentsConstNonConstE"
 12081      5F474C4F 
 12081      42414C5F 
 12081      5F4E5F31 
 12081      35345465 
 12082 1c0a 00000000 		.align 64
 12082      00000000 
 12082      00000000 
 12082      00000000 
 12082      00000000 
 12085              	_ZTSN12_GLOBAL__N_154TestCheckEqualsWithStringsWorksOnContentsNonConstConstE:
 12086 1c40 2A4E3132 		.string	"*N12_GLOBAL__N_154TestCheckEqualsWithStringsWorksOnContentsNonConstConstE"
 12086      5F474C4F 
 12086      42414C5F 
 12086      5F4E5F31 
 12086      35345465 
 12087 1c8a 00000000 		.align 64
 12087      00000000 
 12087      00000000 
 12087      00000000 
 12087      00000000 
 12090              	_ZTSN12_GLOBAL__N_151TestCheckEqualsWithStringsWorksOnContentsConstConstE:
 12091 1cc0 2A4E3132 		.string	"*N12_GLOBAL__N_151TestCheckEqualsWithStringsWorksOnContentsConstConstE"
 12091      5F474C4F 
 12091      42414C5F 
 12091      5F4E5F31 
 12091      35315465 
 12092 1d07 00000000 		.align 64
 12092      00000000 
 12092      00000000 
 12092      00000000 
 12092      00000000 
 12095              	_ZTSN12_GLOBAL__N_157TestCheckEqualsWithStringsWorksOnContentsNonConstNonConstE:
 12096 1d40 2A4E3132 		.string	"*N12_GLOBAL__N_157TestCheckEqualsWithStringsWorksOnContentsNonConstNonConstE"
 12096      5F474C4F 
 12096      42414C5F 
 12096      5F4E5F31 
 12096      35375465 
 12097 1d8d 00000000 		.align 64
 12097      00000000 
 12097      00000000 
 12097      00000000 
 12097      00000000 
 12100              	_ZTSN12_GLOBAL__N_149TestCheckEqualsWithStringsFailsOnDifferentStringsE:
 12101 1dc0 2A4E3132 		.string	"*N12_GLOBAL__N_149TestCheckEqualsWithStringsFailsOnDifferentStringsE"
 12101      5F474C4F 
 12101      42414C5F 
 12101      5F4E5F31 
 12101      34395465 
 12102 1e05 00000000 		.align 32
 12102      00000000 
 12102      00000000 
 12102      00000000 
 12102      00000000 
 12105              	_ZTSN12_GLOBAL__N_130TestCheckEqualWithUnsignedLongE:
 12106 1e20 2A4E3132 		.string	"*N12_GLOBAL__N_130TestCheckEqualWithUnsignedLongE"
 12106      5F474C4F 
 12106      42414C5F 
 12106      5F4E5F31 
 12106      33305465 
 12107              		.text
 12109              	_GLOBAL__sub_I_TestChecks.cpp:
 12110              	.LFB1385:
 12111              		.loc 5 293 0
 12112              		.cfi_startproc
 12113 46ad 55       		pushq	%rbp
 12114              		.cfi_def_cfa_offset 16
 12115              		.cfi_offset 6, -16
 12116 46ae 4889E5   		movq	%rsp, %rbp
 12117              		.cfi_def_cfa_register 6
 12118              		.loc 5 293 0
 12119 46b1 BEFFFF00 		movl	$65535, %esi
 12119      00
 12120 46b6 BF010000 		movl	$1, %edi
 12120      00
 12121 46bb E864FAFF 		call	_Z41__static_initialization_and_destruction_0ii
 12121      FF
 12122 46c0 5D       		popq	%rbp
 12123              		.cfi_def_cfa 7, 8
 12124 46c1 C3       		ret
 12125              		.cfi_endproc
 12126              	.LFE1385:
 12128              		.section	.init_array,"aw"
 12129              		.align 8
 12130 0000 00000000 		.quad	_GLOBAL__sub_I_TestChecks.cpp
 12130      00000000 
 12131              		.section	.rodata
 12132 1e52 00000000 		.align 8
 12132      0000
 12135              	_ZZL18__gthread_active_pvE20__gthread_active_ptr:
 12136 1e58 00000000 		.quad	_ZL28__gthrw___pthread_key_createPjPFvPvE
 12136      00000000 
 12137              		.weakref	_ZL28__gthrw___pthread_key_createPjPFvPvE,__pthread_key_create
 12138              		.align 4
 12139              	.LC1:
 12140 1e60 00000000 		.long	0
 12141              		.align 4
 12142              	.LC31:
 12143 1e64 CDCCCC3D 		.long	1036831949
 12144              		.align 4
 12145              	.LC32:
 12146 1e68 00004040 		.long	1077936128
 12147              		.align 4
 12148              	.LC33:
 12149 1e6c 62104040 		.long	1077940322
 12150              		.align 4
 12151              	.LC35:
 12152 1e70 14AE4740 		.long	1078439444
 12153              		.align 4
 12154              	.LC40:
 12155 1e74 6666663F 		.long	1063675494
 12156              		.align 4
 12157              	.LC41:
 12158 1e78 CDCC8C3F 		.long	1066192077
 12159              		.align 4
 12160              	.LC42:
 12161 1e7c 0AD7233C 		.long	1008981770
 12162              		.align 4
 12163              	.LC60:
 12164 1e80 0000803F 		.long	1065353216
 12165              		.align 4
 12166              	.LC61:
 12167 1e84 0000C03F 		.long	1069547520
 12168              		.align 4
 12169              	.LC62:
 12170 1e88 00000040 		.long	1073741824
 12171              		.align 4
 12172              	.LC63:
 12173 1e8c AE47813F 		.long	1065437102
 12174              		.align 4
 12175              	.LC64:
 12176 1e90 AE47C13F 		.long	1069631406
 12177              		.align 4
 12178              	.LC65:
 12179 1e94 D7A30040 		.long	1073783767
 12180              		.align 4
 12181              	.LC66:
 12182 1e98 0AD7A33C 		.long	1017370378
 12183              		.align 4
 12184              	.LC68:
 12185 1e9c 6F12833A 		.long	981668463
 12186              		.align 4
 12187              	.LC78:
 12188 1ea0 00002040 		.long	1075838976
 12189              		.align 4
 12190              	.LC79:
 12191 1ea4 00006040 		.long	1080033280
 12192              		.align 4
 12193              	.LC80:
 12194 1ea8 00008040 		.long	1082130432
 12195              		.align 4
 12196              	.LC81:
 12197 1eac D7A32040 		.long	1075880919
 12198              		.align 4
 12199              	.LC82:
 12200 1eb0 D7A34040 		.long	1077978071
 12201              		.align 4
 12202              	.LC83:
 12203 1eb4 D7A36040 		.long	1080075223
 12204              		.align 4
 12205              	.LC84:
 12206 1eb8 EC518040 		.long	1082151404
 12207              		.text
 12208              	.Letext0:
 12209              		.file 7 "../TestDetails.h"
 12210              		.file 8 "../TestList.h"
 12211              		.file 9 "../TestResults.h"
 12212              		.file 10 "<built-in>"
 12213              		.file 11 "/usr/include/stdio.h"
 12214              		.file 12 "/usr/lib/gcc/x86_64-linux-gnu/4.9/include/stddef.h"
 12215              		.file 13 "/usr/include/wchar.h"
 12216              		.file 14 "/usr/include/c++/4.9/cwchar"
 12217              		.file 15 "/usr/include/c++/4.9/bits/char_traits.h"
 12218              		.file 16 "/usr/include/x86_64-linux-gnu/c++/4.9/bits/c++config.h"
 12219              		.file 17 "/usr/include/c++/4.9/clocale"
 12220              		.file 18 "/usr/include/c++/4.9/bits/allocator.h"
 12221              		.file 19 "/usr/include/c++/4.9/bits/basic_string.h"
 12222              		.file 20 "/usr/include/c++/4.9/bits/basic_string.tcc"
 12223              		.file 21 "/usr/include/c++/4.9/bits/stringfwd.h"
 12224              		.file 22 "/usr/include/c++/4.9/cwctype"
 12225              		.file 23 "/usr/include/c++/4.9/cstring"
 12226              		.file 24 "/usr/include/time.h"
 12227              		.file 25 "/usr/include/c++/4.9/debug/debug.h"
 12228              		.file 26 "/usr/include/c++/4.9/bits/predefined_ops.h"
 12229              		.file 27 "/usr/include/c++/4.9/ext/new_allocator.h"
 12230              		.file 28 "/usr/include/c++/4.9/ext/numeric_traits.h"
 12231              		.file 29 "/usr/include/locale.h"
 12232              		.file 30 "/usr/include/x86_64-linux-gnu/bits/types.h"
 12233              		.file 31 "/usr/include/x86_64-linux-gnu/c++/4.9/bits/atomic_word.h"
 12234              		.file 32 "/usr/include/wctype.h"
 12235              		.file 33 "/usr/include/string.h"
DEFINED SYMBOLS
                            *ABS*:0000000000000000 TestChecks.cpp
     /tmp/ccKX6WT6.s:10     .text._ZN13UnitTestSuite12GetSuiteNameEv:0000000000000000 _ZN13UnitTestSuite12GetSuiteNameEv
     /tmp/ccKX6WT6.s:33     .text._ZN8UnitTest15MemoryOutStreamC1Ev:0000000000000000 _ZN8UnitTest15MemoryOutStreamC1Ev
     /tmp/ccKX6WT6.s:11381  .rodata._ZTTN8UnitTest15MemoryOutStreamE:0000000000000000 _ZTTN8UnitTest15MemoryOutStreamE
     /tmp/ccKX6WT6.s:11365  .rodata._ZTVN8UnitTest15MemoryOutStreamE:0000000000000000 _ZTVN8UnitTest15MemoryOutStreamE
     /tmp/ccKX6WT6.s:146    .text._ZN8UnitTest12TestReporterC2Ev:0000000000000000 _ZN8UnitTest12TestReporterC2Ev
     /tmp/ccKX6WT6.s:146    .text._ZN8UnitTest12TestReporterC2Ev:0000000000000000 _ZN8UnitTest12TestReporterC1Ev
     /tmp/ccKX6WT6.s:174    .text._ZN17RecordingReporterC2Ev:0000000000000000 _ZN17RecordingReporterC2Ev
     /tmp/ccKX6WT6.s:11283  .rodata._ZTV17RecordingReporter:0000000000000000 _ZTV17RecordingReporter
     /tmp/ccKX6WT6.s:174    .text._ZN17RecordingReporterC2Ev:0000000000000000 _ZN17RecordingReporterC1Ev
     /tmp/ccKX6WT6.s:251    .text._ZN17RecordingReporter15ReportTestStartERKN8UnitTest11TestDetailsE:0000000000000000 _ZN17RecordingReporter15ReportTestStartERKN8UnitTest11TestDetailsE
     /tmp/ccKX6WT6.s:298    .text._ZN17RecordingReporter13ReportFailureERKN8UnitTest11TestDetailsEPKc:0000000000000000 _ZN17RecordingReporter13ReportFailureERKN8UnitTest11TestDetailsEPKc
     /tmp/ccKX6WT6.s:366    .text._ZN17RecordingReporter16ReportTestFinishERKN8UnitTest11TestDetailsEf:0000000000000000 _ZN17RecordingReporter16ReportTestFinishERKN8UnitTest11TestDetailsEf
     /tmp/ccKX6WT6.s:418    .text._ZN17RecordingReporter13ReportSummaryEiiif:0000000000000000 _ZN17RecordingReporter13ReportSummaryEiiif
     /tmp/ccKX6WT6.s:463    .text:0000000000000000 _ZN12_GLOBAL__N_130TestCheckEqualWithUnsignedLongC2Ev
     /tmp/ccKX6WT6.s:11208  .rodata:0000000000001240 _ZTVN12_GLOBAL__N_130TestCheckEqualWithUnsignedLongE
     /tmp/ccKX6WT6.s:495    .bss:0000000000000000 _ZN12_GLOBAL__N_138testCheckEqualWithUnsignedLongInstanceE
     /tmp/ccKX6WT6.s:495    .bss:0000000000000038 _ZN12_GLOBAL__N_131adderCheckEqualWithUnsignedLongE
     /tmp/ccKX6WT6.s:505    .text:000000000000003e _ZNK12_GLOBAL__N_130TestCheckEqualWithUnsignedLong7RunImplEv
     /tmp/ccKX6WT6.s:7360   .text._ZN8UnitTest10CheckEqualImmEEvRNS_11TestResultsERKT_RKT0_RKNS_11TestDetailsE:0000000000000000 _ZN8UnitTest10CheckEqualImmEEvRNS_11TestResultsERKT_RKT0_RKNS_11TestDetailsE
     /tmp/ccKX6WT6.s:651    .text:0000000000000122 _ZN12_GLOBAL__N_149TestCheckEqualsWithStringsFailsOnDifferentStringsC2Ev
     /tmp/ccKX6WT6.s:11134  .rodata:0000000000001200 _ZTVN12_GLOBAL__N_149TestCheckEqualsWithStringsFailsOnDifferentStringsE
     /tmp/ccKX6WT6.s:682    .bss:0000000000000040 _ZN12_GLOBAL__N_157testCheckEqualsWithStringsFailsOnDifferentStringsInstanceE
     /tmp/ccKX6WT6.s:682    .bss:0000000000000078 _ZN12_GLOBAL__N_150adderCheckEqualsWithStringsFailsOnDifferentStringsE
     /tmp/ccKX6WT6.s:694    .text:0000000000000160 _ZNK12_GLOBAL__N_149TestCheckEqualsWithStringsFailsOnDifferentStrings7RunImplEv
     /tmp/ccKX6WT6.s:7506   .text._ZN8UnitTest10CheckEqualIiiEEvRNS_11TestResultsERKT_RKT0_RKNS_11TestDetailsE:0000000000000000 _ZN8UnitTest10CheckEqualIiiEEvRNS_11TestResultsERKT_RKT0_RKNS_11TestDetailsE
     /tmp/ccKX6WT6.s:860    .data:0000000000000000 _ZN12_GLOBAL__N_14txt1E
     /tmp/ccKX6WT6.s:864    .data:0000000000000006 _ZN12_GLOBAL__N_14txt2E
     /tmp/ccKX6WT6.s:873    .text:00000000000002ae _ZN12_GLOBAL__N_157TestCheckEqualsWithStringsWorksOnContentsNonConstNonConstC2Ev
     /tmp/ccKX6WT6.s:11060  .rodata:00000000000011c0 _ZTVN12_GLOBAL__N_157TestCheckEqualsWithStringsWorksOnContentsNonConstNonConstE
     /tmp/ccKX6WT6.s:904    .bss:0000000000000080 _ZN12_GLOBAL__N_165testCheckEqualsWithStringsWorksOnContentsNonConstNonConstInstanceE
     /tmp/ccKX6WT6.s:904    .bss:00000000000000b8 _ZN12_GLOBAL__N_158adderCheckEqualsWithStringsWorksOnContentsNonConstNonConstE
     /tmp/ccKX6WT6.s:914    .text:00000000000002ec _ZNK12_GLOBAL__N_157TestCheckEqualsWithStringsWorksOnContentsNonConstNonConst7RunImplEv
     /tmp/ccKX6WT6.s:1083   .text:0000000000000434 _ZN12_GLOBAL__N_151TestCheckEqualsWithStringsWorksOnContentsConstConstC2Ev
     /tmp/ccKX6WT6.s:10986  .rodata:0000000000001180 _ZTVN12_GLOBAL__N_151TestCheckEqualsWithStringsWorksOnContentsConstConstE
     /tmp/ccKX6WT6.s:1114   .bss:00000000000000c0 _ZN12_GLOBAL__N_159testCheckEqualsWithStringsWorksOnContentsConstConstInstanceE
     /tmp/ccKX6WT6.s:1114   .bss:00000000000000f8 _ZN12_GLOBAL__N_152adderCheckEqualsWithStringsWorksOnContentsConstConstE
     /tmp/ccKX6WT6.s:1119   .text:0000000000000472 _ZNK12_GLOBAL__N_151TestCheckEqualsWithStringsWorksOnContentsConstConst7RunImplEv
     /tmp/ccKX6WT6.s:1288   .text:00000000000005ba _ZN12_GLOBAL__N_154TestCheckEqualsWithStringsWorksOnContentsNonConstConstC2Ev
     /tmp/ccKX6WT6.s:10912  .rodata:0000000000001140 _ZTVN12_GLOBAL__N_154TestCheckEqualsWithStringsWorksOnContentsNonConstConstE
     /tmp/ccKX6WT6.s:1319   .bss:0000000000000100 _ZN12_GLOBAL__N_162testCheckEqualsWithStringsWorksOnContentsNonConstConstInstanceE
     /tmp/ccKX6WT6.s:1319   .bss:0000000000000138 _ZN12_GLOBAL__N_155adderCheckEqualsWithStringsWorksOnContentsNonConstConstE
     /tmp/ccKX6WT6.s:1324   .text:00000000000005f8 _ZNK12_GLOBAL__N_154TestCheckEqualsWithStringsWorksOnContentsNonConstConst7RunImplEv
     /tmp/ccKX6WT6.s:1493   .text:0000000000000740 _ZN12_GLOBAL__N_154TestCheckEqualsWithStringsWorksOnContentsConstNonConstC2Ev
     /tmp/ccKX6WT6.s:10838  .rodata:0000000000001100 _ZTVN12_GLOBAL__N_154TestCheckEqualsWithStringsWorksOnContentsConstNonConstE
     /tmp/ccKX6WT6.s:1524   .bss:0000000000000140 _ZN12_GLOBAL__N_162testCheckEqualsWithStringsWorksOnContentsConstNonConstInstanceE
     /tmp/ccKX6WT6.s:1524   .bss:0000000000000178 _ZN12_GLOBAL__N_155adderCheckEqualsWithStringsWorksOnContentsConstNonConstE
     /tmp/ccKX6WT6.s:1529   .text:000000000000077e _ZNK12_GLOBAL__N_154TestCheckEqualsWithStringsWorksOnContentsConstNonConst7RunImplEv
     /tmp/ccKX6WT6.s:1698   .text:00000000000008c6 _ZN12_GLOBAL__N_153TestCheckEqualsWithStringsWorksOnContentsWithALiteralC2Ev
     /tmp/ccKX6WT6.s:10764  .rodata:00000000000010c0 _ZTVN12_GLOBAL__N_153TestCheckEqualsWithStringsWorksOnContentsWithALiteralE
     /tmp/ccKX6WT6.s:1729   .bss:0000000000000180 _ZN12_GLOBAL__N_161testCheckEqualsWithStringsWorksOnContentsWithALiteralInstanceE
     /tmp/ccKX6WT6.s:1729   .bss:00000000000001b8 _ZN12_GLOBAL__N_154adderCheckEqualsWithStringsWorksOnContentsWithALiteralE
     /tmp/ccKX6WT6.s:1738   .text:0000000000000904 _ZNK12_GLOBAL__N_153TestCheckEqualsWithStringsWorksOnContentsWithALiteral7RunImplEv
     /tmp/ccKX6WT6.s:1905   .text:0000000000000a3c _ZN12_GLOBAL__N_151TestCheckEqualFailureIncludesCheckExpectedAndActualC2Ev
     /tmp/ccKX6WT6.s:10690  .rodata:0000000000001080 _ZTVN12_GLOBAL__N_151TestCheckEqualFailureIncludesCheckExpectedAndActualE
     /tmp/ccKX6WT6.s:1936   .bss:00000000000001c0 _ZN12_GLOBAL__N_159testCheckEqualFailureIncludesCheckExpectedAndActualInstanceE
     /tmp/ccKX6WT6.s:1936   .bss:00000000000001f8 _ZN12_GLOBAL__N_152adderCheckEqualFailureIncludesCheckExpectedAndActualE
     /tmp/ccKX6WT6.s:1959   .text:0000000000000a7a _ZNK12_GLOBAL__N_151TestCheckEqualFailureIncludesCheckExpectedAndActual7RunImplEv
     /tmp/ccKX6WT6.s:7651   .text._ZN8UnitTest5CheckIPcEEbT_:0000000000000000 _ZN8UnitTest5CheckIPcEEbT_
     /tmp/ccKX6WT6.s:11296  .text._ZN17RecordingReporterD2Ev:0000000000000000 _ZN17RecordingReporterD1Ev
     /tmp/ccKX6WT6.s:2230   .text:0000000000000cf8 _ZN12_GLOBAL__N_136TestCheckEqualFailureIncludesDetailsC2Ev
     /tmp/ccKX6WT6.s:10616  .rodata:0000000000001040 _ZTVN12_GLOBAL__N_136TestCheckEqualFailureIncludesDetailsE
     /tmp/ccKX6WT6.s:2261   .bss:0000000000000200 _ZN12_GLOBAL__N_144testCheckEqualFailureIncludesDetailsInstanceE
     /tmp/ccKX6WT6.s:2261   .bss:0000000000000238 _ZN12_GLOBAL__N_137adderCheckEqualFailureIncludesDetailsE
     /tmp/ccKX6WT6.s:2286   .text:0000000000000d36 _ZNK12_GLOBAL__N_136TestCheckEqualFailureIncludesDetails7RunImplEv
     /tmp/ccKX6WT6.s:2669   .text:00000000000010e8 _ZN12_GLOBAL__N_118TestCheckCloseTrueC2Ev
     /tmp/ccKX6WT6.s:10542  .rodata:0000000000001000 _ZTVN12_GLOBAL__N_118TestCheckCloseTrueE
     /tmp/ccKX6WT6.s:2700   .bss:0000000000000240 _ZN12_GLOBAL__N_126testCheckCloseTrueInstanceE
     /tmp/ccKX6WT6.s:2700   .bss:0000000000000278 _ZN12_GLOBAL__N_119adderCheckCloseTrueE
     /tmp/ccKX6WT6.s:2705   .text:0000000000001126 _ZNK12_GLOBAL__N_118TestCheckCloseTrue7RunImplEv
     /tmp/ccKX6WT6.s:7677   .text._ZN8UnitTest10CheckCloseIfffEEvRNS_11TestResultsERKT_RKT0_RKT1_RKNS_11TestDetailsE:0000000000000000 _ZN8UnitTest10CheckCloseIfffEEvRNS_11TestResultsERKT_RKT0_RKT1_RKNS_11TestDetailsE
     /tmp/ccKX6WT6.s:2876   .text:0000000000001272 _ZN12_GLOBAL__N_119TestCheckCloseFalseC2Ev
     /tmp/ccKX6WT6.s:10468  .rodata:0000000000000fc0 _ZTVN12_GLOBAL__N_119TestCheckCloseFalseE
     /tmp/ccKX6WT6.s:2907   .bss:0000000000000280 _ZN12_GLOBAL__N_127testCheckCloseFalseInstanceE
     /tmp/ccKX6WT6.s:2907   .bss:00000000000002b8 _ZN12_GLOBAL__N_120adderCheckCloseFalseE
     /tmp/ccKX6WT6.s:2912   .text:00000000000012b0 _ZNK12_GLOBAL__N_119TestCheckCloseFalse7RunImplEv
     /tmp/ccKX6WT6.s:3084   .text:00000000000013fc _ZN12_GLOBAL__N_147TestCheckCloseWithZeroEpsilonWorksForSameNumberC2Ev
     /tmp/ccKX6WT6.s:10394  .rodata:0000000000000f80 _ZTVN12_GLOBAL__N_147TestCheckCloseWithZeroEpsilonWorksForSameNumberE
     /tmp/ccKX6WT6.s:3115   .bss:00000000000002c0 _ZN12_GLOBAL__N_155testCheckCloseWithZeroEpsilonWorksForSameNumberInstanceE
     /tmp/ccKX6WT6.s:3115   .bss:00000000000002f8 _ZN12_GLOBAL__N_148adderCheckCloseWithZeroEpsilonWorksForSameNumberE
     /tmp/ccKX6WT6.s:3120   .text:000000000000143a _ZNK12_GLOBAL__N_147TestCheckCloseWithZeroEpsilonWorksForSameNumber7RunImplEv
     /tmp/ccKX6WT6.s:7842   .text._ZN8UnitTest10CheckCloseIffiEEvRNS_11TestResultsERKT_RKT0_RKT1_RKNS_11TestDetailsE:0000000000000000 _ZN8UnitTest10CheckCloseIffiEEvRNS_11TestResultsERKT_RKT0_RKT1_RKNS_11TestDetailsE
     /tmp/ccKX6WT6.s:3290   .text:0000000000001584 _ZN12_GLOBAL__N_126TestCheckCloseWithNaNFailsC2Ev
     /tmp/ccKX6WT6.s:10320  .rodata:0000000000000f40 _ZTVN12_GLOBAL__N_126TestCheckCloseWithNaNFailsE
     /tmp/ccKX6WT6.s:3321   .bss:0000000000000300 _ZN12_GLOBAL__N_134testCheckCloseWithNaNFailsInstanceE
     /tmp/ccKX6WT6.s:3321   .bss:0000000000000338 _ZN12_GLOBAL__N_127adderCheckCloseWithNaNFailsE
     /tmp/ccKX6WT6.s:3326   .text:00000000000015c2 _ZNK12_GLOBAL__N_126TestCheckCloseWithNaNFails7RunImplEv
     /tmp/ccKX6WT6.s:3498   .text:000000000000170c _ZN12_GLOBAL__N_139TestCheckCloseWithNaNAgainstItselfFailsC2Ev
     /tmp/ccKX6WT6.s:10246  .rodata:0000000000000f00 _ZTVN12_GLOBAL__N_139TestCheckCloseWithNaNAgainstItselfFailsE
     /tmp/ccKX6WT6.s:3529   .bss:0000000000000340 _ZN12_GLOBAL__N_147testCheckCloseWithNaNAgainstItselfFailsInstanceE
     /tmp/ccKX6WT6.s:3529   .bss:0000000000000378 _ZN12_GLOBAL__N_140adderCheckCloseWithNaNAgainstItselfFailsE
     /tmp/ccKX6WT6.s:3534   .text:000000000000174a _ZNK12_GLOBAL__N_139TestCheckCloseWithNaNAgainstItselfFails7RunImplEv
     /tmp/ccKX6WT6.s:3704   .text:000000000000188c _ZN12_GLOBAL__N_151TestCheckCloseFailureIncludesCheckExpectedAndActualC2Ev
     /tmp/ccKX6WT6.s:10172  .rodata:0000000000000ec0 _ZTVN12_GLOBAL__N_151TestCheckCloseFailureIncludesCheckExpectedAndActualE
     /tmp/ccKX6WT6.s:3735   .bss:0000000000000380 _ZN12_GLOBAL__N_159testCheckCloseFailureIncludesCheckExpectedAndActualInstanceE
     /tmp/ccKX6WT6.s:3735   .bss:00000000000003b8 _ZN12_GLOBAL__N_152adderCheckCloseFailureIncludesCheckExpectedAndActualE
     /tmp/ccKX6WT6.s:3758   .text:00000000000018ca _ZNK12_GLOBAL__N_151TestCheckCloseFailureIncludesCheckExpectedAndActual7RunImplEv
     /tmp/ccKX6WT6.s:4036   .text:0000000000001b62 _ZN12_GLOBAL__N_138TestCheckCloseFailureIncludesToleranceC2Ev
     /tmp/ccKX6WT6.s:10098  .rodata:0000000000000e80 _ZTVN12_GLOBAL__N_138TestCheckCloseFailureIncludesToleranceE
     /tmp/ccKX6WT6.s:4067   .bss:00000000000003c0 _ZN12_GLOBAL__N_146testCheckCloseFailureIncludesToleranceInstanceE
     /tmp/ccKX6WT6.s:4067   .bss:00000000000003f8 _ZN12_GLOBAL__N_139adderCheckCloseFailureIncludesToleranceE
     /tmp/ccKX6WT6.s:4082   .text:0000000000001ba0 _ZNK12_GLOBAL__N_138TestCheckCloseFailureIncludesTolerance7RunImplEv
     /tmp/ccKX6WT6.s:8006   .text._ZN8UnitTest10CheckCloseIiifEEvRNS_11TestResultsERKT_RKT0_RKT1_RKNS_11TestDetailsE:0000000000000000 _ZN8UnitTest10CheckCloseIiifEEvRNS_11TestResultsERKT_RKT0_RKT1_RKNS_11TestDetailsE
     /tmp/ccKX6WT6.s:4283   .text:0000000000001d66 _ZN12_GLOBAL__N_136TestCheckCloseFailureIncludesDetailsC2Ev
     /tmp/ccKX6WT6.s:10024  .rodata:0000000000000e40 _ZTVN12_GLOBAL__N_136TestCheckCloseFailureIncludesDetailsE
     /tmp/ccKX6WT6.s:4314   .bss:0000000000000400 _ZN12_GLOBAL__N_144testCheckCloseFailureIncludesDetailsInstanceE
     /tmp/ccKX6WT6.s:4314   .bss:0000000000000438 _ZN12_GLOBAL__N_137adderCheckCloseFailureIncludesDetailsE
     /tmp/ccKX6WT6.s:4329   .text:0000000000001da4 _ZNK12_GLOBAL__N_136TestCheckCloseFailureIncludesDetails7RunImplEv
     /tmp/ccKX6WT6.s:4716   .text:000000000000216c _ZN12_GLOBAL__N_123TestCheckArrayEqualTrueC2Ev
     /tmp/ccKX6WT6.s:9950   .rodata:0000000000000e00 _ZTVN12_GLOBAL__N_123TestCheckArrayEqualTrueE
     /tmp/ccKX6WT6.s:4747   .bss:0000000000000440 _ZN12_GLOBAL__N_131testCheckArrayEqualTrueInstanceE
     /tmp/ccKX6WT6.s:4747   .bss:0000000000000478 _ZN12_GLOBAL__N_124adderCheckArrayEqualTrueE
     /tmp/ccKX6WT6.s:4752   .text:00000000000021aa _ZNK12_GLOBAL__N_123TestCheckArrayEqualTrue7RunImplEv
     /tmp/ccKX6WT6.s:8178   .text._ZN8UnitTest15CheckArrayEqualIA3_iS1_EEvRNS_11TestResultsERKT_RKT0_iRKNS_11TestDetailsE:0000000000000000 _ZN8UnitTest15CheckArrayEqualIA3_iS1_EEvRNS_11TestResultsERKT_RKT0_iRKNS_11TestDetailsE
     /tmp/ccKX6WT6.s:4921   .text:00000000000022fa _ZN12_GLOBAL__N_124TestCheckArrayEqualFalseC2Ev
     /tmp/ccKX6WT6.s:9876   .rodata:0000000000000dc0 _ZTVN12_GLOBAL__N_124TestCheckArrayEqualFalseE
     /tmp/ccKX6WT6.s:4952   .bss:0000000000000480 _ZN12_GLOBAL__N_132testCheckArrayEqualFalseInstanceE
     /tmp/ccKX6WT6.s:4952   .bss:00000000000004b8 _ZN12_GLOBAL__N_125adderCheckArrayEqualFalseE
     /tmp/ccKX6WT6.s:4957   .text:0000000000002338 _ZNK12_GLOBAL__N_124TestCheckArrayEqualFalse7RunImplEv
     /tmp/ccKX6WT6.s:5130   .text:00000000000024aa _ZN12_GLOBAL__N_123TestCheckArrayCloseTrueC2Ev
     /tmp/ccKX6WT6.s:9802   .rodata:0000000000000d80 _ZTVN12_GLOBAL__N_123TestCheckArrayCloseTrueE
     /tmp/ccKX6WT6.s:5161   .bss:00000000000004c0 _ZN12_GLOBAL__N_131testCheckArrayCloseTrueInstanceE
     /tmp/ccKX6WT6.s:5161   .bss:00000000000004f8 _ZN12_GLOBAL__N_124adderCheckArrayCloseTrueE
     /tmp/ccKX6WT6.s:5166   .text:00000000000024e8 _ZNK12_GLOBAL__N_123TestCheckArrayCloseTrue7RunImplEv
     /tmp/ccKX6WT6.s:8401   .text._ZN8UnitTest15CheckArrayCloseIA3_fS1_fEEvRNS_11TestResultsERKT_RKT0_iRKT1_RKNS_11TestDetailsE:0000000000000000 _ZN8UnitTest15CheckArrayCloseIA3_fS1_fEEvRNS_11TestResultsERKT_RKT0_iRKT1_RKNS_11TestDetailsE
     /tmp/ccKX6WT6.s:5349   .text:000000000000267c _ZN12_GLOBAL__N_124TestCheckArrayCloseFalseC2Ev
     /tmp/ccKX6WT6.s:9728   .rodata:0000000000000d40 _ZTVN12_GLOBAL__N_124TestCheckArrayCloseFalseE
     /tmp/ccKX6WT6.s:5380   .bss:0000000000000500 _ZN12_GLOBAL__N_132testCheckArrayCloseFalseInstanceE
     /tmp/ccKX6WT6.s:5380   .bss:0000000000000538 _ZN12_GLOBAL__N_125adderCheckArrayCloseFalseE
     /tmp/ccKX6WT6.s:5385   .text:00000000000026ba _ZNK12_GLOBAL__N_124TestCheckArrayCloseFalse7RunImplEv
     /tmp/ccKX6WT6.s:5569   .text:000000000000284e _ZN12_GLOBAL__N_141TestCheckArrayCloseFailureIncludesDetailsC2Ev
     /tmp/ccKX6WT6.s:9654   .rodata:0000000000000d00 _ZTVN12_GLOBAL__N_141TestCheckArrayCloseFailureIncludesDetailsE
     /tmp/ccKX6WT6.s:5600   .bss:0000000000000540 _ZN12_GLOBAL__N_149testCheckArrayCloseFailureIncludesDetailsInstanceE
     /tmp/ccKX6WT6.s:5600   .bss:0000000000000578 _ZN12_GLOBAL__N_142adderCheckArrayCloseFailureIncludesDetailsE
     /tmp/ccKX6WT6.s:5625   .text:000000000000288c _ZNK12_GLOBAL__N_141TestCheckArrayCloseFailureIncludesDetails7RunImplEv
     /tmp/ccKX6WT6.s:6026   .text:0000000000002c90 _ZN12_GLOBAL__N_125TestCheckArray2DCloseTrueC2Ev
     /tmp/ccKX6WT6.s:9580   .rodata:0000000000000cc0 _ZTVN12_GLOBAL__N_125TestCheckArray2DCloseTrueE
     /tmp/ccKX6WT6.s:6057   .bss:0000000000000580 _ZN12_GLOBAL__N_133testCheckArray2DCloseTrueInstanceE
     /tmp/ccKX6WT6.s:6057   .bss:00000000000005b8 _ZN12_GLOBAL__N_126adderCheckArray2DCloseTrueE
     /tmp/ccKX6WT6.s:6062   .text:0000000000002cce _ZNK12_GLOBAL__N_125TestCheckArray2DCloseTrue7RunImplEv
     /tmp/ccKX6WT6.s:8613   .text._ZN8UnitTest17CheckArray2DCloseIA3_A3_fS2_fEEvRNS_11TestResultsERKT_RKT0_iiRKT1_RKNS_11TestDetailsE:0000000000000000 _ZN8UnitTest17CheckArray2DCloseIA3_A3_fS2_fEEvRNS_11TestResultsERKT_RKT0_iiRKT1_RKNS_11TestDetailsE
     /tmp/ccKX6WT6.s:6271   .text:0000000000002ef0 _ZN12_GLOBAL__N_126TestCheckArray2DCloseFalseC2Ev
     /tmp/ccKX6WT6.s:9506   .rodata:0000000000000c80 _ZTVN12_GLOBAL__N_126TestCheckArray2DCloseFalseE
     /tmp/ccKX6WT6.s:6302   .bss:00000000000005c0 _ZN12_GLOBAL__N_134testCheckArray2DCloseFalseInstanceE
     /tmp/ccKX6WT6.s:6302   .bss:00000000000005f8 _ZN12_GLOBAL__N_127adderCheckArray2DCloseFalseE
     /tmp/ccKX6WT6.s:6307   .text:0000000000002f2e _ZNK12_GLOBAL__N_126TestCheckArray2DCloseFalse7RunImplEv
     /tmp/ccKX6WT6.s:6516   .text:0000000000003150 _ZN12_GLOBAL__N_133TestCheckCloseWithDoublesSucceedsC2Ev
     /tmp/ccKX6WT6.s:9432   .rodata:0000000000000c40 _ZTVN12_GLOBAL__N_133TestCheckCloseWithDoublesSucceedsE
     /tmp/ccKX6WT6.s:6547   .bss:0000000000000600 _ZN12_GLOBAL__N_141testCheckCloseWithDoublesSucceedsInstanceE
     /tmp/ccKX6WT6.s:6547   .bss:0000000000000638 _ZN12_GLOBAL__N_134adderCheckCloseWithDoublesSucceedsE
     /tmp/ccKX6WT6.s:6557   .text:000000000000318e _ZNK12_GLOBAL__N_133TestCheckCloseWithDoublesSucceeds7RunImplEv
     /tmp/ccKX6WT6.s:8919   .text._ZN8UnitTest10CheckCloseIdddEEvRNS_11TestResultsERKT_RKT0_RKT1_RKNS_11TestDetailsE:0000000000000000 _ZN8UnitTest10CheckCloseIdddEEvRNS_11TestResultsERKT_RKT0_RKT1_RKNS_11TestDetailsE
     /tmp/ccKX6WT6.s:6694   .text:000000000000328a _ZN12_GLOBAL__N_143TestCheckArray2DCloseFailureIncludesDetailsC2Ev
     /tmp/ccKX6WT6.s:9358   .rodata:0000000000000c00 _ZTVN12_GLOBAL__N_143TestCheckArray2DCloseFailureIncludesDetailsE
     /tmp/ccKX6WT6.s:6725   .bss:0000000000000640 _ZN12_GLOBAL__N_151testCheckArray2DCloseFailureIncludesDetailsInstanceE
     /tmp/ccKX6WT6.s:6725   .bss:0000000000000678 _ZN12_GLOBAL__N_144adderCheckArray2DCloseFailureIncludesDetailsE
     /tmp/ccKX6WT6.s:6745   .text:00000000000032c8 _ZNK12_GLOBAL__N_143TestCheckArray2DCloseFailureIncludesDetails7RunImplEv
     /tmp/ccKX6WT6.s:7173   .text._ZN8UnitTest15MemoryOutStreamD1Ev:0000000000000000 _ZN8UnitTest15MemoryOutStreamD1Ev
     /tmp/ccKX6WT6.s:7301   .text._ZN8UnitTest15MemoryOutStreamD1Ev:00000000000000c8 _ZTv0_n24_N8UnitTest15MemoryOutStreamD1Ev
     /tmp/ccKX6WT6.s:7315   .text._ZN8UnitTest15MemoryOutStreamD0Ev:0000000000000000 _ZN8UnitTest15MemoryOutStreamD0Ev
     /tmp/ccKX6WT6.s:7342   .text._ZN8UnitTest15MemoryOutStreamD0Ev:0000000000000026 _ZTv0_n24_N8UnitTest15MemoryOutStreamD0Ev
     /tmp/ccKX6WT6.s:9084   .text._ZN8UnitTest8AreCloseIfffEEbRKT_RKT0_RKT1_:0000000000000000 _ZN8UnitTest8AreCloseIfffEEbRKT_RKT0_RKT1_
     /tmp/ccKX6WT6.s:9133   .text._ZN8UnitTest8AreCloseIffiEEbRKT_RKT0_RKT1_:0000000000000000 _ZN8UnitTest8AreCloseIffiEEbRKT_RKT0_RKT1_
     /tmp/ccKX6WT6.s:9187   .text._ZN8UnitTest8AreCloseIiifEEbRKT_RKT0_RKT1_:0000000000000000 _ZN8UnitTest8AreCloseIiifEEbRKT_RKT0_RKT1_
     /tmp/ccKX6WT6.s:9244   .text._ZN8UnitTest13ArrayAreCloseIA3_fS1_fEEbRKT_RKT0_iRKT1_:0000000000000000 _ZN8UnitTest13ArrayAreCloseIA3_fS1_fEEbRKT_RKT0_iRKT1_
     /tmp/ccKX6WT6.s:9308   .text._ZN8UnitTest8AreCloseIdddEEbRKT_RKT0_RKT1_:0000000000000000 _ZN8UnitTest8AreCloseIdddEEbRKT_RKT0_RKT1_
     /tmp/ccKX6WT6.s:11973  .rodata:0000000000001590 _ZTIN12_GLOBAL__N_143TestCheckArray2DCloseFailureIncludesDetailsE
     /tmp/ccKX6WT6.s:9367   .text:0000000000003764 _ZN12_GLOBAL__N_143TestCheckArray2DCloseFailureIncludesDetailsD1Ev
     /tmp/ccKX6WT6.s:9404   .text:000000000000379e _ZN12_GLOBAL__N_143TestCheckArray2DCloseFailureIncludesDetailsD0Ev
     /tmp/ccKX6WT6.s:9367   .text:0000000000003764 _ZN12_GLOBAL__N_143TestCheckArray2DCloseFailureIncludesDetailsD2Ev
     /tmp/ccKX6WT6.s:11966  .rodata:0000000000001570 _ZTIN12_GLOBAL__N_133TestCheckCloseWithDoublesSucceedsE
     /tmp/ccKX6WT6.s:9441   .text:00000000000037c4 _ZN12_GLOBAL__N_133TestCheckCloseWithDoublesSucceedsD1Ev
     /tmp/ccKX6WT6.s:9478   .text:00000000000037fe _ZN12_GLOBAL__N_133TestCheckCloseWithDoublesSucceedsD0Ev
     /tmp/ccKX6WT6.s:9441   .text:00000000000037c4 _ZN12_GLOBAL__N_133TestCheckCloseWithDoublesSucceedsD2Ev
     /tmp/ccKX6WT6.s:11959  .rodata:0000000000001550 _ZTIN12_GLOBAL__N_126TestCheckArray2DCloseFalseE
     /tmp/ccKX6WT6.s:9515   .text:0000000000003824 _ZN12_GLOBAL__N_126TestCheckArray2DCloseFalseD1Ev
     /tmp/ccKX6WT6.s:9552   .text:000000000000385e _ZN12_GLOBAL__N_126TestCheckArray2DCloseFalseD0Ev
     /tmp/ccKX6WT6.s:9515   .text:0000000000003824 _ZN12_GLOBAL__N_126TestCheckArray2DCloseFalseD2Ev
     /tmp/ccKX6WT6.s:11952  .rodata:0000000000001530 _ZTIN12_GLOBAL__N_125TestCheckArray2DCloseTrueE
     /tmp/ccKX6WT6.s:9589   .text:0000000000003884 _ZN12_GLOBAL__N_125TestCheckArray2DCloseTrueD1Ev
     /tmp/ccKX6WT6.s:9626   .text:00000000000038be _ZN12_GLOBAL__N_125TestCheckArray2DCloseTrueD0Ev
     /tmp/ccKX6WT6.s:9589   .text:0000000000003884 _ZN12_GLOBAL__N_125TestCheckArray2DCloseTrueD2Ev
     /tmp/ccKX6WT6.s:11945  .rodata:0000000000001510 _ZTIN12_GLOBAL__N_141TestCheckArrayCloseFailureIncludesDetailsE
     /tmp/ccKX6WT6.s:9663   .text:00000000000038e4 _ZN12_GLOBAL__N_141TestCheckArrayCloseFailureIncludesDetailsD1Ev
     /tmp/ccKX6WT6.s:9700   .text:000000000000391e _ZN12_GLOBAL__N_141TestCheckArrayCloseFailureIncludesDetailsD0Ev
     /tmp/ccKX6WT6.s:9663   .text:00000000000038e4 _ZN12_GLOBAL__N_141TestCheckArrayCloseFailureIncludesDetailsD2Ev
     /tmp/ccKX6WT6.s:11938  .rodata:00000000000014f0 _ZTIN12_GLOBAL__N_124TestCheckArrayCloseFalseE
     /tmp/ccKX6WT6.s:9737   .text:0000000000003944 _ZN12_GLOBAL__N_124TestCheckArrayCloseFalseD1Ev
     /tmp/ccKX6WT6.s:9774   .text:000000000000397e _ZN12_GLOBAL__N_124TestCheckArrayCloseFalseD0Ev
     /tmp/ccKX6WT6.s:9737   .text:0000000000003944 _ZN12_GLOBAL__N_124TestCheckArrayCloseFalseD2Ev
     /tmp/ccKX6WT6.s:11931  .rodata:00000000000014d0 _ZTIN12_GLOBAL__N_123TestCheckArrayCloseTrueE
     /tmp/ccKX6WT6.s:9811   .text:00000000000039a4 _ZN12_GLOBAL__N_123TestCheckArrayCloseTrueD1Ev
     /tmp/ccKX6WT6.s:9848   .text:00000000000039de _ZN12_GLOBAL__N_123TestCheckArrayCloseTrueD0Ev
     /tmp/ccKX6WT6.s:9811   .text:00000000000039a4 _ZN12_GLOBAL__N_123TestCheckArrayCloseTrueD2Ev
     /tmp/ccKX6WT6.s:11924  .rodata:00000000000014b0 _ZTIN12_GLOBAL__N_124TestCheckArrayEqualFalseE
     /tmp/ccKX6WT6.s:9885   .text:0000000000003a04 _ZN12_GLOBAL__N_124TestCheckArrayEqualFalseD1Ev
     /tmp/ccKX6WT6.s:9922   .text:0000000000003a3e _ZN12_GLOBAL__N_124TestCheckArrayEqualFalseD0Ev
     /tmp/ccKX6WT6.s:9885   .text:0000000000003a04 _ZN12_GLOBAL__N_124TestCheckArrayEqualFalseD2Ev
     /tmp/ccKX6WT6.s:11917  .rodata:0000000000001490 _ZTIN12_GLOBAL__N_123TestCheckArrayEqualTrueE
     /tmp/ccKX6WT6.s:9959   .text:0000000000003a64 _ZN12_GLOBAL__N_123TestCheckArrayEqualTrueD1Ev
     /tmp/ccKX6WT6.s:9996   .text:0000000000003a9e _ZN12_GLOBAL__N_123TestCheckArrayEqualTrueD0Ev
     /tmp/ccKX6WT6.s:9959   .text:0000000000003a64 _ZN12_GLOBAL__N_123TestCheckArrayEqualTrueD2Ev
     /tmp/ccKX6WT6.s:11910  .rodata:0000000000001470 _ZTIN12_GLOBAL__N_136TestCheckCloseFailureIncludesDetailsE
     /tmp/ccKX6WT6.s:10033  .text:0000000000003ac4 _ZN12_GLOBAL__N_136TestCheckCloseFailureIncludesDetailsD1Ev
     /tmp/ccKX6WT6.s:10070  .text:0000000000003afe _ZN12_GLOBAL__N_136TestCheckCloseFailureIncludesDetailsD0Ev
     /tmp/ccKX6WT6.s:10033  .text:0000000000003ac4 _ZN12_GLOBAL__N_136TestCheckCloseFailureIncludesDetailsD2Ev
     /tmp/ccKX6WT6.s:11903  .rodata:0000000000001450 _ZTIN12_GLOBAL__N_138TestCheckCloseFailureIncludesToleranceE
     /tmp/ccKX6WT6.s:10107  .text:0000000000003b24 _ZN12_GLOBAL__N_138TestCheckCloseFailureIncludesToleranceD1Ev
     /tmp/ccKX6WT6.s:10144  .text:0000000000003b5e _ZN12_GLOBAL__N_138TestCheckCloseFailureIncludesToleranceD0Ev
     /tmp/ccKX6WT6.s:10107  .text:0000000000003b24 _ZN12_GLOBAL__N_138TestCheckCloseFailureIncludesToleranceD2Ev
     /tmp/ccKX6WT6.s:11896  .rodata:0000000000001430 _ZTIN12_GLOBAL__N_151TestCheckCloseFailureIncludesCheckExpectedAndActualE
     /tmp/ccKX6WT6.s:10181  .text:0000000000003b84 _ZN12_GLOBAL__N_151TestCheckCloseFailureIncludesCheckExpectedAndActualD1Ev
     /tmp/ccKX6WT6.s:10218  .text:0000000000003bbe _ZN12_GLOBAL__N_151TestCheckCloseFailureIncludesCheckExpectedAndActualD0Ev
     /tmp/ccKX6WT6.s:10181  .text:0000000000003b84 _ZN12_GLOBAL__N_151TestCheckCloseFailureIncludesCheckExpectedAndActualD2Ev
     /tmp/ccKX6WT6.s:11889  .rodata:0000000000001410 _ZTIN12_GLOBAL__N_139TestCheckCloseWithNaNAgainstItselfFailsE
     /tmp/ccKX6WT6.s:10255  .text:0000000000003be4 _ZN12_GLOBAL__N_139TestCheckCloseWithNaNAgainstItselfFailsD1Ev
     /tmp/ccKX6WT6.s:10292  .text:0000000000003c1e _ZN12_GLOBAL__N_139TestCheckCloseWithNaNAgainstItselfFailsD0Ev
     /tmp/ccKX6WT6.s:10255  .text:0000000000003be4 _ZN12_GLOBAL__N_139TestCheckCloseWithNaNAgainstItselfFailsD2Ev
     /tmp/ccKX6WT6.s:11882  .rodata:00000000000013f0 _ZTIN12_GLOBAL__N_126TestCheckCloseWithNaNFailsE
     /tmp/ccKX6WT6.s:10329  .text:0000000000003c44 _ZN12_GLOBAL__N_126TestCheckCloseWithNaNFailsD1Ev
     /tmp/ccKX6WT6.s:10366  .text:0000000000003c7e _ZN12_GLOBAL__N_126TestCheckCloseWithNaNFailsD0Ev
     /tmp/ccKX6WT6.s:10329  .text:0000000000003c44 _ZN12_GLOBAL__N_126TestCheckCloseWithNaNFailsD2Ev
     /tmp/ccKX6WT6.s:11875  .rodata:00000000000013d0 _ZTIN12_GLOBAL__N_147TestCheckCloseWithZeroEpsilonWorksForSameNumberE
     /tmp/ccKX6WT6.s:10403  .text:0000000000003ca4 _ZN12_GLOBAL__N_147TestCheckCloseWithZeroEpsilonWorksForSameNumberD1Ev
     /tmp/ccKX6WT6.s:10440  .text:0000000000003cde _ZN12_GLOBAL__N_147TestCheckCloseWithZeroEpsilonWorksForSameNumberD0Ev
     /tmp/ccKX6WT6.s:10403  .text:0000000000003ca4 _ZN12_GLOBAL__N_147TestCheckCloseWithZeroEpsilonWorksForSameNumberD2Ev
     /tmp/ccKX6WT6.s:11868  .rodata:00000000000013b0 _ZTIN12_GLOBAL__N_119TestCheckCloseFalseE
     /tmp/ccKX6WT6.s:10477  .text:0000000000003d04 _ZN12_GLOBAL__N_119TestCheckCloseFalseD1Ev
     /tmp/ccKX6WT6.s:10514  .text:0000000000003d3e _ZN12_GLOBAL__N_119TestCheckCloseFalseD0Ev
     /tmp/ccKX6WT6.s:10477  .text:0000000000003d04 _ZN12_GLOBAL__N_119TestCheckCloseFalseD2Ev
     /tmp/ccKX6WT6.s:11861  .rodata:0000000000001390 _ZTIN12_GLOBAL__N_118TestCheckCloseTrueE
     /tmp/ccKX6WT6.s:10551  .text:0000000000003d64 _ZN12_GLOBAL__N_118TestCheckCloseTrueD1Ev
     /tmp/ccKX6WT6.s:10588  .text:0000000000003d9e _ZN12_GLOBAL__N_118TestCheckCloseTrueD0Ev
     /tmp/ccKX6WT6.s:10551  .text:0000000000003d64 _ZN12_GLOBAL__N_118TestCheckCloseTrueD2Ev
     /tmp/ccKX6WT6.s:11854  .rodata:0000000000001370 _ZTIN12_GLOBAL__N_136TestCheckEqualFailureIncludesDetailsE
     /tmp/ccKX6WT6.s:10625  .text:0000000000003dc4 _ZN12_GLOBAL__N_136TestCheckEqualFailureIncludesDetailsD1Ev
     /tmp/ccKX6WT6.s:10662  .text:0000000000003dfe _ZN12_GLOBAL__N_136TestCheckEqualFailureIncludesDetailsD0Ev
     /tmp/ccKX6WT6.s:10625  .text:0000000000003dc4 _ZN12_GLOBAL__N_136TestCheckEqualFailureIncludesDetailsD2Ev
     /tmp/ccKX6WT6.s:11847  .rodata:0000000000001350 _ZTIN12_GLOBAL__N_151TestCheckEqualFailureIncludesCheckExpectedAndActualE
     /tmp/ccKX6WT6.s:10699  .text:0000000000003e24 _ZN12_GLOBAL__N_151TestCheckEqualFailureIncludesCheckExpectedAndActualD1Ev
     /tmp/ccKX6WT6.s:10736  .text:0000000000003e5e _ZN12_GLOBAL__N_151TestCheckEqualFailureIncludesCheckExpectedAndActualD0Ev
     /tmp/ccKX6WT6.s:10699  .text:0000000000003e24 _ZN12_GLOBAL__N_151TestCheckEqualFailureIncludesCheckExpectedAndActualD2Ev
     /tmp/ccKX6WT6.s:11840  .rodata:0000000000001330 _ZTIN12_GLOBAL__N_153TestCheckEqualsWithStringsWorksOnContentsWithALiteralE
     /tmp/ccKX6WT6.s:10773  .text:0000000000003e84 _ZN12_GLOBAL__N_153TestCheckEqualsWithStringsWorksOnContentsWithALiteralD1Ev
     /tmp/ccKX6WT6.s:10810  .text:0000000000003ebe _ZN12_GLOBAL__N_153TestCheckEqualsWithStringsWorksOnContentsWithALiteralD0Ev
     /tmp/ccKX6WT6.s:10773  .text:0000000000003e84 _ZN12_GLOBAL__N_153TestCheckEqualsWithStringsWorksOnContentsWithALiteralD2Ev
     /tmp/ccKX6WT6.s:11833  .rodata:0000000000001310 _ZTIN12_GLOBAL__N_154TestCheckEqualsWithStringsWorksOnContentsConstNonConstE
     /tmp/ccKX6WT6.s:10847  .text:0000000000003ee4 _ZN12_GLOBAL__N_154TestCheckEqualsWithStringsWorksOnContentsConstNonConstD1Ev
     /tmp/ccKX6WT6.s:10884  .text:0000000000003f1e _ZN12_GLOBAL__N_154TestCheckEqualsWithStringsWorksOnContentsConstNonConstD0Ev
     /tmp/ccKX6WT6.s:10847  .text:0000000000003ee4 _ZN12_GLOBAL__N_154TestCheckEqualsWithStringsWorksOnContentsConstNonConstD2Ev
     /tmp/ccKX6WT6.s:11826  .rodata:00000000000012f0 _ZTIN12_GLOBAL__N_154TestCheckEqualsWithStringsWorksOnContentsNonConstConstE
     /tmp/ccKX6WT6.s:10921  .text:0000000000003f44 _ZN12_GLOBAL__N_154TestCheckEqualsWithStringsWorksOnContentsNonConstConstD1Ev
     /tmp/ccKX6WT6.s:10958  .text:0000000000003f7e _ZN12_GLOBAL__N_154TestCheckEqualsWithStringsWorksOnContentsNonConstConstD0Ev
     /tmp/ccKX6WT6.s:10921  .text:0000000000003f44 _ZN12_GLOBAL__N_154TestCheckEqualsWithStringsWorksOnContentsNonConstConstD2Ev
     /tmp/ccKX6WT6.s:11819  .rodata:00000000000012d0 _ZTIN12_GLOBAL__N_151TestCheckEqualsWithStringsWorksOnContentsConstConstE
     /tmp/ccKX6WT6.s:10995  .text:0000000000003fa4 _ZN12_GLOBAL__N_151TestCheckEqualsWithStringsWorksOnContentsConstConstD1Ev
     /tmp/ccKX6WT6.s:11032  .text:0000000000003fde _ZN12_GLOBAL__N_151TestCheckEqualsWithStringsWorksOnContentsConstConstD0Ev
     /tmp/ccKX6WT6.s:10995  .text:0000000000003fa4 _ZN12_GLOBAL__N_151TestCheckEqualsWithStringsWorksOnContentsConstConstD2Ev
     /tmp/ccKX6WT6.s:11812  .rodata:00000000000012b0 _ZTIN12_GLOBAL__N_157TestCheckEqualsWithStringsWorksOnContentsNonConstNonConstE
     /tmp/ccKX6WT6.s:11069  .text:0000000000004004 _ZN12_GLOBAL__N_157TestCheckEqualsWithStringsWorksOnContentsNonConstNonConstD1Ev
     /tmp/ccKX6WT6.s:11106  .text:000000000000403e _ZN12_GLOBAL__N_157TestCheckEqualsWithStringsWorksOnContentsNonConstNonConstD0Ev
     /tmp/ccKX6WT6.s:11069  .text:0000000000004004 _ZN12_GLOBAL__N_157TestCheckEqualsWithStringsWorksOnContentsNonConstNonConstD2Ev
     /tmp/ccKX6WT6.s:11805  .rodata:0000000000001290 _ZTIN12_GLOBAL__N_149TestCheckEqualsWithStringsFailsOnDifferentStringsE
     /tmp/ccKX6WT6.s:11143  .text:0000000000004064 _ZN12_GLOBAL__N_149TestCheckEqualsWithStringsFailsOnDifferentStringsD1Ev
     /tmp/ccKX6WT6.s:11180  .text:000000000000409e _ZN12_GLOBAL__N_149TestCheckEqualsWithStringsFailsOnDifferentStringsD0Ev
     /tmp/ccKX6WT6.s:11143  .text:0000000000004064 _ZN12_GLOBAL__N_149TestCheckEqualsWithStringsFailsOnDifferentStringsD2Ev
     /tmp/ccKX6WT6.s:11798  .rodata:0000000000001270 _ZTIN12_GLOBAL__N_130TestCheckEqualWithUnsignedLongE
     /tmp/ccKX6WT6.s:11217  .text:00000000000040c4 _ZN12_GLOBAL__N_130TestCheckEqualWithUnsignedLongD1Ev
     /tmp/ccKX6WT6.s:11254  .text:00000000000040fe _ZN12_GLOBAL__N_130TestCheckEqualWithUnsignedLongD0Ev
     /tmp/ccKX6WT6.s:11217  .text:00000000000040c4 _ZN12_GLOBAL__N_130TestCheckEqualWithUnsignedLongD2Ev
     /tmp/ccKX6WT6.s:11434  .rodata._ZTI17RecordingReporter:0000000000000000 _ZTI17RecordingReporter
     /tmp/ccKX6WT6.s:11336  .text._ZN17RecordingReporterD0Ev:0000000000000000 _ZN17RecordingReporterD0Ev
     /tmp/ccKX6WT6.s:11296  .text._ZN17RecordingReporterD2Ev:0000000000000000 _ZN17RecordingReporterD2Ev
     /tmp/ccKX6WT6.s:11450  .rodata._ZTIN8UnitTest15MemoryOutStreamE:0000000000000000 _ZTIN8UnitTest15MemoryOutStreamE
     /tmp/ccKX6WT6.s:11394  .rodata._ZTCN8UnitTest15MemoryOutStreamE0_St19basic_ostringstreamIcSt11char_traitsIcESaIcEE:0000000000000000 _ZTCN8UnitTest15MemoryOutStreamE0_St19basic_ostringstreamIcSt11char_traitsIcESaIcEE
     /tmp/ccKX6WT6.s:11411  .rodata._ZTCN8UnitTest15MemoryOutStreamE0_So:0000000000000000 _ZTCN8UnitTest15MemoryOutStreamE0_So
     /tmp/ccKX6WT6.s:11427  .rodata._ZTS17RecordingReporter:0000000000000000 _ZTS17RecordingReporter
     /tmp/ccKX6WT6.s:11443  .rodata._ZTSN8UnitTest15MemoryOutStreamE:0000000000000000 _ZTSN8UnitTest15MemoryOutStreamE
     /tmp/ccKX6WT6.s:11456  .text:0000000000004124 _Z41__static_initialization_and_destruction_0ii
     /tmp/ccKX6WT6.s:12105  .rodata:0000000000001e20 _ZTSN12_GLOBAL__N_130TestCheckEqualWithUnsignedLongE
     /tmp/ccKX6WT6.s:12100  .rodata:0000000000001dc0 _ZTSN12_GLOBAL__N_149TestCheckEqualsWithStringsFailsOnDifferentStringsE
     /tmp/ccKX6WT6.s:12095  .rodata:0000000000001d40 _ZTSN12_GLOBAL__N_157TestCheckEqualsWithStringsWorksOnContentsNonConstNonConstE
     /tmp/ccKX6WT6.s:12090  .rodata:0000000000001cc0 _ZTSN12_GLOBAL__N_151TestCheckEqualsWithStringsWorksOnContentsConstConstE
     /tmp/ccKX6WT6.s:12085  .rodata:0000000000001c40 _ZTSN12_GLOBAL__N_154TestCheckEqualsWithStringsWorksOnContentsNonConstConstE
     /tmp/ccKX6WT6.s:12080  .rodata:0000000000001bc0 _ZTSN12_GLOBAL__N_154TestCheckEqualsWithStringsWorksOnContentsConstNonConstE
     /tmp/ccKX6WT6.s:12075  .rodata:0000000000001b40 _ZTSN12_GLOBAL__N_153TestCheckEqualsWithStringsWorksOnContentsWithALiteralE
     /tmp/ccKX6WT6.s:12070  .rodata:0000000000001ac0 _ZTSN12_GLOBAL__N_151TestCheckEqualFailureIncludesCheckExpectedAndActualE
     /tmp/ccKX6WT6.s:12065  .rodata:0000000000001a60 _ZTSN12_GLOBAL__N_136TestCheckEqualFailureIncludesDetailsE
     /tmp/ccKX6WT6.s:12060  .rodata:0000000000001a20 _ZTSN12_GLOBAL__N_118TestCheckCloseTrueE
     /tmp/ccKX6WT6.s:12055  .rodata:00000000000019e0 _ZTSN12_GLOBAL__N_119TestCheckCloseFalseE
     /tmp/ccKX6WT6.s:12050  .rodata:0000000000001980 _ZTSN12_GLOBAL__N_147TestCheckCloseWithZeroEpsilonWorksForSameNumberE
     /tmp/ccKX6WT6.s:12045  .rodata:0000000000001920 _ZTSN12_GLOBAL__N_126TestCheckCloseWithNaNFailsE
     /tmp/ccKX6WT6.s:12040  .rodata:00000000000018e0 _ZTSN12_GLOBAL__N_139TestCheckCloseWithNaNAgainstItselfFailsE
     /tmp/ccKX6WT6.s:12035  .rodata:0000000000001880 _ZTSN12_GLOBAL__N_151TestCheckCloseFailureIncludesCheckExpectedAndActualE
     /tmp/ccKX6WT6.s:12030  .rodata:0000000000001840 _ZTSN12_GLOBAL__N_138TestCheckCloseFailureIncludesToleranceE
     /tmp/ccKX6WT6.s:12025  .rodata:0000000000001800 _ZTSN12_GLOBAL__N_136TestCheckCloseFailureIncludesDetailsE
     /tmp/ccKX6WT6.s:12020  .rodata:00000000000017c0 _ZTSN12_GLOBAL__N_123TestCheckArrayEqualTrueE
     /tmp/ccKX6WT6.s:12015  .rodata:0000000000001780 _ZTSN12_GLOBAL__N_124TestCheckArrayEqualFalseE
     /tmp/ccKX6WT6.s:12010  .rodata:0000000000001740 _ZTSN12_GLOBAL__N_123TestCheckArrayCloseTrueE
     /tmp/ccKX6WT6.s:12005  .rodata:0000000000001700 _ZTSN12_GLOBAL__N_124TestCheckArrayCloseFalseE
     /tmp/ccKX6WT6.s:12000  .rodata:00000000000016c0 _ZTSN12_GLOBAL__N_141TestCheckArrayCloseFailureIncludesDetailsE
     /tmp/ccKX6WT6.s:11995  .rodata:0000000000001680 _ZTSN12_GLOBAL__N_125TestCheckArray2DCloseTrueE
     /tmp/ccKX6WT6.s:11990  .rodata:0000000000001640 _ZTSN12_GLOBAL__N_126TestCheckArray2DCloseFalseE
     /tmp/ccKX6WT6.s:11985  .rodata:0000000000001600 _ZTSN12_GLOBAL__N_133TestCheckCloseWithDoublesSucceedsE
     /tmp/ccKX6WT6.s:11980  .rodata:00000000000015c0 _ZTSN12_GLOBAL__N_143TestCheckArray2DCloseFailureIncludesDetailsE
     /tmp/ccKX6WT6.s:12109  .text:00000000000046ad _GLOBAL__sub_I_TestChecks.cpp
     /tmp/ccKX6WT6.s:12135  .rodata:0000000000001e58 _ZZL18__gthread_active_pvE20__gthread_active_ptr
                           .group:0000000000000000 _ZN8UnitTest12TestReporterC5Ev
                           .group:0000000000000000 _ZN17RecordingReporterC5Ev
                           .group:0000000000000000 _ZN17RecordingReporterD5Ev

UNDEFINED SYMBOLS
__gxx_personality_v0
_ZNSt9basic_iosIcSt11char_traitsIcEEC2Ev
_ZNSt19basic_ostringstreamIcSt11char_traitsIcESaIcEEC2ESt13_Ios_Openmode
_ZNSsC1Ev
_ZNSt19basic_ostringstreamIcSt11char_traitsIcESaIcEED2Ev
_ZNSt9basic_iosIcSt11char_traitsIcEED2Ev
_Unwind_Resume
_ZTVN8UnitTest12TestReporterE
strcpy
_ZN8UnitTest4TestC2EPKcS2_S2_i
_ZN8UnitTest11TestResultsC1EPNS_12TestReporterE
_ZN8UnitTest11CurrentTest7DetailsEv
_ZN8UnitTest11TestDetailsC1ERKS0_i
_ZN8UnitTest11CurrentTest7ResultsEv
__cxa_end_catch
__cxa_begin_catch
_ZN8UnitTest11TestResults13OnTestFailureERKNS_11TestDetailsEPKc
__stack_chk_fail
_ZN8UnitTest11TestDetailsC1EPKcS2_S2_i
_ZN8UnitTest10CheckEqualERNS_11TestResultsEPcS2_RKNS_11TestDetailsE
_ZNK8UnitTest11TestResults15GetFailureCountEv
_ZN8UnitTest10CheckEqualERNS_11TestResultsEPKcS3_RKNS_11TestDetailsE
_ZN8UnitTest10CheckEqualERNS_11TestResultsEPcPKcRKNS_11TestDetailsE
_ZN8UnitTest10CheckEqualERNS_11TestResultsEPKcPcRKNS_11TestDetailsE
strstr
_ZNSsD1Ev
_ZdlPv
_ZStlsISt11char_traitsIcEERSt13basic_ostreamIcT_ES5_PKc
_ZNSolsEm
_ZNK8UnitTest15MemoryOutStream7GetTextEv
_ZNSolsEi
_ZNSolsEf
_ZNSolsEd
_ZN8UnitTest4TestD2Ev
_ZN8UnitTest12TestReporterD2Ev
_ZTISt19basic_ostringstreamIcSt11char_traitsIcESaIcEE
_ZTISo
_ZTVN10__cxxabiv120__si_class_type_infoE
_ZTIN8UnitTest12TestReporterE
__dso_handle
__cxa_atexit
_ZN8UnitTest4Test11GetTestListEv
_ZN8UnitTest9ListAdderC1ERNS_8TestListEPNS_4TestE
_ZTIN8UnitTest4TestE
__pthread_key_create
