   1              		.file	"TestTest.cpp"
   2              		.text
   3              	.Ltext0:
   4              		.section	.rodata
   5              	.LC0:
   6 0000 44656661 		.string	"DefaultSuite"
   6      756C7453 
   6      75697465 
   6      00
   7              		.section	.text._ZN13UnitTestSuite12GetSuiteNameEv,"axG",@progbits,_ZN13UnitTestSuite12GetSuiteName
   8              		.weak	_ZN13UnitTestSuite12GetSuiteNameEv
  10              	_ZN13UnitTestSuite12GetSuiteNameEv:
  11              	.LFB0:
  12              		.file 1 "../TestSuite.h"
   1:../TestSuite.h **** #ifndef UNITTEST_TESTSUITE_H
   2:../TestSuite.h **** #define UNITTEST_TESTSUITE_H
   3:../TestSuite.h **** 
   4:../TestSuite.h **** namespace UnitTestSuite {
   5:../TestSuite.h **** 
   6:../TestSuite.h ****     inline char const* GetSuiteName ()
   7:../TestSuite.h ****     {
  13              		.loc 1 7 0
  14              		.cfi_startproc
  15 0000 55       		pushq	%rbp
  16              		.cfi_def_cfa_offset 16
  17              		.cfi_offset 6, -16
  18 0001 4889E5   		movq	%rsp, %rbp
  19              		.cfi_def_cfa_register 6
   8:../TestSuite.h ****         return "DefaultSuite";
  20              		.loc 1 8 0
  21 0004 B8000000 		movl	$.LC0, %eax
  21      00
   9:../TestSuite.h ****     }
  22              		.loc 1 9 0
  23 0009 5D       		popq	%rbp
  24              		.cfi_def_cfa 7, 8
  25 000a C3       		ret
  26              		.cfi_endproc
  27              	.LFE0:
  29              		.section	.text._ZN8UnitTest15MemoryOutStreamC1Ev,"axG",@progbits,_ZN8UnitTest15MemoryOutStreamC1Ev
  30              		.align 2
  31              		.weak	_ZN8UnitTest15MemoryOutStreamC1Ev
  33              	_ZN8UnitTest15MemoryOutStreamC1Ev:
  34              	.LFB1053:
  35              		.file 2 "../MemoryOutStream.h"
   1:../MemoryOutStream.h **** #ifndef UNITTEST_MEMORYOUTSTREAM_H
   2:../MemoryOutStream.h **** #define UNITTEST_MEMORYOUTSTREAM_H
   3:../MemoryOutStream.h **** 
   4:../MemoryOutStream.h **** #include "Config.h"
   5:../MemoryOutStream.h **** 
   6:../MemoryOutStream.h **** #ifndef UNITTEST_USE_CUSTOM_STREAMS
   7:../MemoryOutStream.h **** 
   8:../MemoryOutStream.h **** #include <sstream>
   9:../MemoryOutStream.h **** 
  10:../MemoryOutStream.h **** namespace UnitTest
  11:../MemoryOutStream.h **** {
  12:../MemoryOutStream.h **** 
  13:../MemoryOutStream.h **** class MemoryOutStream : public std::ostringstream
  14:../MemoryOutStream.h **** {
  15:../MemoryOutStream.h **** public:
  16:../MemoryOutStream.h ****     MemoryOutStream() {}
  36              		.loc 2 16 0
  37              		.cfi_startproc
  38              		.cfi_personality 0x3,__gxx_personality_v0
  39              		.cfi_lsda 0x3,.LLSDA1053
  40 0000 55       		pushq	%rbp
  41              		.cfi_def_cfa_offset 16
  42              		.cfi_offset 6, -16
  43 0001 4889E5   		movq	%rsp, %rbp
  44              		.cfi_def_cfa_register 6
  45 0004 53       		pushq	%rbx
  46 0005 4883EC18 		subq	$24, %rsp
  47              		.cfi_offset 3, -24
  48 0009 48897DE8 		movq	%rdi, -24(%rbp)
  49              	.LBB2:
  50              		.loc 2 16 0
  51 000d 488B45E8 		movq	-24(%rbp), %rax
  52 0011 4883C060 		addq	$96, %rax
  53 0015 4889C7   		movq	%rax, %rdi
  54              	.LEHB0:
  55 0018 E8000000 		call	_ZNSt9basic_iosIcSt11char_traitsIcEEC2Ev
  55      00
  56              	.LEHE0:
  57 001d B9000000 		movl	$_ZTTN8UnitTest15MemoryOutStreamE+8, %ecx
  57      00
  58 0022 488B45E8 		movq	-24(%rbp), %rax
  59 0026 BA100000 		movl	$16, %edx
  59      00
  60 002b 4889CE   		movq	%rcx, %rsi
  61 002e 4889C7   		movq	%rax, %rdi
  62              	.LEHB1:
  63 0031 E8000000 		call	_ZNSt19basic_ostringstreamIcSt11char_traitsIcESaIcEEC2ESt13_Ios_Openmode
  63      00
  64              	.LEHE1:
  65              		.loc 2 16 0 is_stmt 0 discriminator 9
  66 0036 BA000000 		movl	$_ZTVN8UnitTest15MemoryOutStreamE+24, %edx
  66      00
  67 003b 488B45E8 		movq	-24(%rbp), %rax
  68 003f 488910   		movq	%rdx, (%rax)
  69 0042 BA600000 		movl	$96, %edx
  69      00
  70 0047 488B45E8 		movq	-24(%rbp), %rax
  71 004b 4801D0   		addq	%rdx, %rax
  72 004e BA000000 		movl	$_ZTVN8UnitTest15MemoryOutStreamE+64, %edx
  72      00
  73 0053 488910   		movq	%rdx, (%rax)
  74 0056 488B45E8 		movq	-24(%rbp), %rax
  75 005a 4883C058 		addq	$88, %rax
  76 005e 4889C7   		movq	%rax, %rdi
  77              	.LEHB2:
  78 0061 E8000000 		call	_ZNSsC1Ev
  78      00
  79              	.LEHE2:
  80              	.LBE2:
  81              		.loc 2 16 0
  82 0066 EB37     		jmp	.L8
  83              	.L6:
  84 0068 4889C3   		movq	%rax, %rbx
  85              	.LBB3:
  86 006b BA000000 		movl	$_ZTTN8UnitTest15MemoryOutStreamE+8, %edx
  86      00
  87 0070 488B45E8 		movq	-24(%rbp), %rax
  88 0074 4889D6   		movq	%rdx, %rsi
  89 0077 4889C7   		movq	%rax, %rdi
  90 007a E8000000 		call	_ZNSt19basic_ostringstreamIcSt11char_traitsIcESaIcEED2Ev
  90      00
  91 007f EB03     		jmp	.L5
  92              	.L7:
  93 0081 4889C3   		movq	%rax, %rbx
  94              	.L5:
  95              		.loc 2 16 0 discriminator 28
  96 0084 488B45E8 		movq	-24(%rbp), %rax
  97 0088 4883C060 		addq	$96, %rax
  98 008c 4889C7   		movq	%rax, %rdi
  99 008f E8000000 		call	_ZNSt9basic_iosIcSt11char_traitsIcEED2Ev
  99      00
 100 0094 4889D8   		movq	%rbx, %rax
 101 0097 4889C7   		movq	%rax, %rdi
 102              	.LEHB3:
 103 009a E8000000 		call	_Unwind_Resume
 103      00
 104              	.LEHE3:
 105              	.L8:
 106              	.LBE3:
 107              		.loc 2 16 0
 108 009f 4883C418 		addq	$24, %rsp
 109 00a3 5B       		popq	%rbx
 110 00a4 5D       		popq	%rbp
 111              		.cfi_def_cfa 7, 8
 112 00a5 C3       		ret
 113              		.cfi_endproc
 114              	.LFE1053:
 115              		.globl	__gxx_personality_v0
 116              		.section	.gcc_except_table._ZN8UnitTest15MemoryOutStreamC1Ev,"aG",@progbits,_ZN8UnitTest15MemoryOu
 117              	.LLSDA1053:
 118 0000 FF       		.byte	0xff
 119 0001 FF       		.byte	0xff
 120 0002 01       		.byte	0x1
 121 0003 12       		.uleb128 .LLSDACSE1053-.LLSDACSB1053
 122              	.LLSDACSB1053:
 123 0004 18       		.uleb128 .LEHB0-.LFB1053
 124 0005 05       		.uleb128 .LEHE0-.LEHB0
 125 0006 00       		.uleb128 0
 126 0007 00       		.uleb128 0
 127 0008 31       		.uleb128 .LEHB1-.LFB1053
 128 0009 05       		.uleb128 .LEHE1-.LEHB1
 129 000a 8101     		.uleb128 .L7-.LFB1053
 130 000c 00       		.uleb128 0
 131 000d 61       		.uleb128 .LEHB2-.LFB1053
 132 000e 05       		.uleb128 .LEHE2-.LEHB2
 133 000f 68       		.uleb128 .L6-.LFB1053
 134 0010 00       		.uleb128 0
 135 0011 9A01     		.uleb128 .LEHB3-.LFB1053
 136 0013 05       		.uleb128 .LEHE3-.LEHB3
 137 0014 00       		.uleb128 0
 138 0015 00       		.uleb128 0
 139              	.LLSDACSE1053:
 140              		.section	.text._ZN8UnitTest15MemoryOutStreamC1Ev,"axG",@progbits,_ZN8UnitTest15MemoryOutStreamC1Ev
 142              		.section	.text._ZN17ScopedCurrentTestC2ERN8UnitTest11TestResultsEPKNS0_11TestDetailsE,"axG",@progb
 143              		.align 2
 144              		.weak	_ZN17ScopedCurrentTestC2ERN8UnitTest11TestResultsEPKNS0_11TestDetailsE
 146              	_ZN17ScopedCurrentTestC2ERN8UnitTest11TestResultsEPKNS0_11TestDetailsE:
 147              	.LFB1069:
 148              		.file 3 "ScopedCurrentTest.h"
   1:ScopedCurrentTest.h **** #ifndef UNITTEST_SCOPEDCURRENTTEST_H
   2:ScopedCurrentTest.h **** #define UNITTEST_SCOPEDCURRENTTEST_H
   3:ScopedCurrentTest.h **** 
   4:ScopedCurrentTest.h **** #include "../CurrentTest.h"
   5:ScopedCurrentTest.h **** #include <cstddef>
   6:ScopedCurrentTest.h **** 
   7:ScopedCurrentTest.h **** class ScopedCurrentTest
   8:ScopedCurrentTest.h **** {
   9:ScopedCurrentTest.h **** public:
  10:ScopedCurrentTest.h **** 	ScopedCurrentTest()
  11:ScopedCurrentTest.h **** 		: m_oldTestResults(UnitTest::CurrentTest::Results())
  12:ScopedCurrentTest.h **** 		, m_oldTestDetails(UnitTest::CurrentTest::Details())
  13:ScopedCurrentTest.h **** 	{
  14:ScopedCurrentTest.h **** 	}
  15:ScopedCurrentTest.h **** 
  16:ScopedCurrentTest.h **** 	explicit ScopedCurrentTest(UnitTest::TestResults& newResults, const UnitTest::TestDetails* newDeta
 149              		.loc 3 16 0 is_stmt 1
 150              		.cfi_startproc
 151 0000 55       		pushq	%rbp
 152              		.cfi_def_cfa_offset 16
 153              		.cfi_offset 6, -16
 154 0001 4889E5   		movq	%rsp, %rbp
 155              		.cfi_def_cfa_register 6
 156 0004 4883EC20 		subq	$32, %rsp
 157 0008 48897DF8 		movq	%rdi, -8(%rbp)
 158 000c 488975F0 		movq	%rsi, -16(%rbp)
 159 0010 488955E8 		movq	%rdx, -24(%rbp)
 160              	.LBB4:
  17:ScopedCurrentTest.h **** 		: m_oldTestResults(UnitTest::CurrentTest::Results())
 161              		.loc 3 17 0
 162 0014 E8000000 		call	_ZN8UnitTest11CurrentTest7ResultsEv
 162      00
  18:ScopedCurrentTest.h **** 		, m_oldTestDetails(UnitTest::CurrentTest::Details())
 163              		.loc 3 18 0
 164 0019 488B10   		movq	(%rax), %rdx
 165 001c 488B45F8 		movq	-8(%rbp), %rax
 166 0020 488910   		movq	%rdx, (%rax)
 167 0023 E8000000 		call	_ZN8UnitTest11CurrentTest7DetailsEv
 167      00
 168 0028 488B10   		movq	(%rax), %rdx
 169 002b 488B45F8 		movq	-8(%rbp), %rax
 170 002f 48895008 		movq	%rdx, 8(%rax)
  19:ScopedCurrentTest.h **** 	{
  20:ScopedCurrentTest.h **** 		UnitTest::CurrentTest::Results() = &newResults;
 171              		.loc 3 20 0
 172 0033 E8000000 		call	_ZN8UnitTest11CurrentTest7ResultsEv
 172      00
 173 0038 4889C2   		movq	%rax, %rdx
 174 003b 488B45F0 		movq	-16(%rbp), %rax
 175 003f 488902   		movq	%rax, (%rdx)
  21:ScopedCurrentTest.h **** 
  22:ScopedCurrentTest.h **** 		if (newDetails != NULL)
 176              		.loc 3 22 0
 177 0042 48837DE8 		cmpq	$0, -24(%rbp)
 177      00
 178 0047 740F     		je	.L9
  23:ScopedCurrentTest.h **** 			UnitTest::CurrentTest::Details() = newDetails;
 179              		.loc 3 23 0
 180 0049 E8000000 		call	_ZN8UnitTest11CurrentTest7DetailsEv
 180      00
 181 004e 4889C2   		movq	%rax, %rdx
 182 0051 488B45E8 		movq	-24(%rbp), %rax
 183 0055 488902   		movq	%rax, (%rdx)
 184              	.L9:
 185              	.LBE4:
  24:ScopedCurrentTest.h **** 	}
 186              		.loc 3 24 0
 187 0058 C9       		leave
 188              		.cfi_def_cfa 7, 8
 189 0059 C3       		ret
 190              		.cfi_endproc
 191              	.LFE1069:
 193              		.weak	_ZN17ScopedCurrentTestC1ERN8UnitTest11TestResultsEPKNS0_11TestDetailsE
 194              		.set	_ZN17ScopedCurrentTestC1ERN8UnitTest11TestResultsEPKNS0_11TestDetailsE,_ZN17ScopedCurrentTest
 195              		.section	.text._ZN17ScopedCurrentTestD2Ev,"axG",@progbits,_ZN17ScopedCurrentTestD5Ev,comdat
 196              		.align 2
 197              		.weak	_ZN17ScopedCurrentTestD2Ev
 199              	_ZN17ScopedCurrentTestD2Ev:
 200              	.LFB1072:
  25:ScopedCurrentTest.h **** 
  26:ScopedCurrentTest.h **** 	~ScopedCurrentTest()
 201              		.loc 3 26 0
 202              		.cfi_startproc
 203 0000 55       		pushq	%rbp
 204              		.cfi_def_cfa_offset 16
 205              		.cfi_offset 6, -16
 206 0001 4889E5   		movq	%rsp, %rbp
 207              		.cfi_def_cfa_register 6
 208 0004 4883EC10 		subq	$16, %rsp
 209 0008 48897DF8 		movq	%rdi, -8(%rbp)
 210              	.LBB5:
  27:ScopedCurrentTest.h **** 	{
  28:ScopedCurrentTest.h **** 		UnitTest::CurrentTest::Results() = m_oldTestResults;
 211              		.loc 3 28 0
 212 000c E8000000 		call	_ZN8UnitTest11CurrentTest7ResultsEv
 212      00
 213 0011 4889C2   		movq	%rax, %rdx
 214 0014 488B45F8 		movq	-8(%rbp), %rax
 215 0018 488B00   		movq	(%rax), %rax
 216 001b 488902   		movq	%rax, (%rdx)
  29:ScopedCurrentTest.h **** 		UnitTest::CurrentTest::Details() = m_oldTestDetails;
 217              		.loc 3 29 0
 218 001e E8000000 		call	_ZN8UnitTest11CurrentTest7DetailsEv
 218      00
 219 0023 4889C2   		movq	%rax, %rdx
 220 0026 488B45F8 		movq	-8(%rbp), %rax
 221 002a 488B4008 		movq	8(%rax), %rax
 222 002e 488902   		movq	%rax, (%rdx)
 223              	.LBE5:
  30:ScopedCurrentTest.h **** 	}
 224              		.loc 3 30 0
 225 0031 C9       		leave
 226              		.cfi_def_cfa 7, 8
 227 0032 C3       		ret
 228              		.cfi_endproc
 229              	.LFE1072:
 231              		.weak	_ZN17ScopedCurrentTestD1Ev
 232              		.set	_ZN17ScopedCurrentTestD1Ev,_ZN17ScopedCurrentTestD2Ev
 233              		.section	.rodata
 234              	.LC1:
 235 000d 54657374 		.string	"TestTest.cpp"
 235      54657374 
 235      2E637070 
 235      00
 236              	.LC2:
 237 001a 50617373 		.string	"PassingTestHasNoFailures"
 237      696E6754 
 237      65737448 
 237      61734E6F 
 237      4661696C 
 238              		.text
 239              		.align 2
 241              	_ZN12_GLOBAL__N_128TestPassingTestHasNoFailuresC2Ev:
 242              	.LFB1075:
 243              		.file 4 "TestTest.cpp"
   1:TestTest.cpp  **** #include "../UnitTest++.h"
   2:TestTest.cpp  **** #include "../TestReporter.h"
   3:TestTest.cpp  **** #include "../TimeHelpers.h"
   4:TestTest.cpp  **** #include "ScopedCurrentTest.h"
   5:TestTest.cpp  **** 
   6:TestTest.cpp  **** using namespace UnitTest;
   7:TestTest.cpp  **** 
   8:TestTest.cpp  **** namespace {
   9:TestTest.cpp  **** 
  10:TestTest.cpp  **** TEST(PassingTestHasNoFailures)
 244              		.loc 4 10 0
 245              		.cfi_startproc
 246 0000 55       		pushq	%rbp
 247              		.cfi_def_cfa_offset 16
 248              		.cfi_offset 6, -16
 249 0001 4889E5   		movq	%rsp, %rbp
 250              		.cfi_def_cfa_register 6
 251 0004 4883EC10 		subq	$16, %rsp
 252 0008 48897DF8 		movq	%rdi, -8(%rbp)
 253              	.LBB6:
 254              		.loc 4 10 0
 255 000c E8000000 		call	_ZN13UnitTestSuite12GetSuiteNameEv
 255      00
 256 0011 4889C2   		movq	%rax, %rdx
 257 0014 488B45F8 		movq	-8(%rbp), %rax
 258 0018 41B80A00 		movl	$10, %r8d
 258      0000
 259 001e B9000000 		movl	$.LC1, %ecx
 259      00
 260 0023 BE000000 		movl	$.LC2, %esi
 260      00
 261 0028 4889C7   		movq	%rax, %rdi
 262 002b E8000000 		call	_ZN8UnitTest4TestC2EPKcS2_S2_i
 262      00
 263 0030 488B45F8 		movq	-8(%rbp), %rax
 264 0034 48C70000 		movq	$_ZTVN12_GLOBAL__N_128TestPassingTestHasNoFailuresE+16, (%rax)
 264      000000
 265              	.LBE6:
 266 003b C9       		leave
 267              		.cfi_def_cfa 7, 8
 268 003c C3       		ret
 269              		.cfi_endproc
 270              	.LFE1075:
 272              		.local	_ZN12_GLOBAL__N_136testPassingTestHasNoFailuresInstanceE
 273              		.comm	_ZN12_GLOBAL__N_136testPassingTestHasNoFailuresInstanceE,56,32
 274              		.local	_ZN12_GLOBAL__N_129adderPassingTestHasNoFailuresE
 275              		.comm	_ZN12_GLOBAL__N_129adderPassingTestHasNoFailuresE,1,1
 276              		.section	.rodata
 277              	.LC3:
 278 0033 00       		.string	""
 279              	.LC4:
 280 0034 70617373 		.string	"passing"
 280      696E6700 
 281              		.text
 282 003d 90       		.align 2
 284              	_ZZNK12_GLOBAL__N_128TestPassingTestHasNoFailures7RunImplEvEN11PassingTestC2Ev:
 285              	.LFB1079:
  11:TestTest.cpp  **** {
  12:TestTest.cpp  ****     class PassingTest : public Test
  13:TestTest.cpp  ****     {
  14:TestTest.cpp  ****     public:
  15:TestTest.cpp  ****         PassingTest() : Test("passing") {}
 286              		.loc 4 15 0
 287              		.cfi_startproc
 288 003e 55       		pushq	%rbp
 289              		.cfi_def_cfa_offset 16
 290              		.cfi_offset 6, -16
 291 003f 4889E5   		movq	%rsp, %rbp
 292              		.cfi_def_cfa_register 6
 293 0042 4883EC10 		subq	$16, %rsp
 294 0046 48897DF8 		movq	%rdi, -8(%rbp)
 295              	.LBB7:
 296              		.loc 4 15 0
 297 004a 488B45F8 		movq	-8(%rbp), %rax
 298 004e 41B80000 		movl	$0, %r8d
 298      0000
 299 0054 B9000000 		movl	$.LC3, %ecx
 299      00
 300 0059 BA000000 		movl	$.LC0, %edx
 300      00
 301 005e BE000000 		movl	$.LC4, %esi
 301      00
 302 0063 4889C7   		movq	%rax, %rdi
 303 0066 E8000000 		call	_ZN8UnitTest4TestC2EPKcS2_S2_i
 303      00
 304 006b 488B45F8 		movq	-8(%rbp), %rax
 305 006f 48C70000 		movq	$_ZTVZNK12_GLOBAL__N_128TestPassingTestHasNoFailures7RunImplEvE11PassingTest+16, (%rax)
 305      000000
 306              	.LBE7:
 307 0076 C9       		leave
 308              		.cfi_def_cfa 7, 8
 309 0077 C3       		ret
 310              		.cfi_endproc
 311              	.LFE1079:
 313              		.section	.rodata
 314              	.LC5:
 315 003c 74727565 		.string	"true"
 315      00
 316 0041 00000000 		.align 8
 316      000000
 317              	.LC6:
 318 0048 556E6861 		.string	"Unhandled exception in CHECK(true)"
 318      6E646C65 
 318      64206578 
 318      63657074 
 318      696F6E20 
 319              		.text
 320              		.align 2
 322              	_ZZNK12_GLOBAL__N_128TestPassingTestHasNoFailures7RunImplEvENK11PassingTest7RunImplEv:
 323              	.LFB1081:
  16:TestTest.cpp  ****         virtual void RunImpl() const
 324              		.loc 4 16 0
 325              		.cfi_startproc
 326              		.cfi_personality 0x3,__gxx_personality_v0
 327              		.cfi_lsda 0x3,.LLSDA1081
 328 0078 55       		pushq	%rbp
 329              		.cfi_def_cfa_offset 16
 330              		.cfi_offset 6, -16
 331 0079 4889E5   		movq	%rsp, %rbp
 332              		.cfi_def_cfa_register 6
 333 007c 53       		pushq	%rbx
 334 007d 4883EC48 		subq	$72, %rsp
 335              		.cfi_offset 3, -24
 336 0081 48897DB8 		movq	%rdi, -72(%rbp)
 337              		.loc 4 16 0
 338 0085 64488B04 		movq	%fs:40, %rax
 338      25280000 
 338      00
 339 008e 488945E8 		movq	%rax, -24(%rbp)
 340 0092 31C0     		xorl	%eax, %eax
  17:TestTest.cpp  ****         {
  18:TestTest.cpp  ****             CHECK(true);
 341              		.loc 4 18 0
 342 0094 BF010000 		movl	$1, %edi
 342      00
 343 0099 E8000000 		call	_ZN8UnitTest5CheckIbEEbT_
 343      00
 344 009e 83F001   		xorl	$1, %eax
 345 00a1 84C0     		testb	%al, %al
 346 00a3 0F849300 		je	.L15
 346      0000
 347              	.LEHB4:
 348              		.loc 4 18 0 is_stmt 0 discriminator 1
 349 00a9 E8000000 		call	_ZN8UnitTest11CurrentTest7DetailsEv
 349      00
 350 00ae 488B08   		movq	(%rax), %rcx
 351 00b1 488D45C0 		leaq	-64(%rbp), %rax
 352 00b5 BA120000 		movl	$18, %edx
 352      00
 353 00ba 4889CE   		movq	%rcx, %rsi
 354 00bd 4889C7   		movq	%rax, %rdi
 355 00c0 E8000000 		call	_ZN8UnitTest11TestDetailsC1ERKS0_i
 355      00
 356              		.loc 4 18 0 discriminator 3
 357 00c5 E8000000 		call	_ZN8UnitTest11CurrentTest7ResultsEv
 357      00
 358 00ca 488B00   		movq	(%rax), %rax
 359 00cd 488D4DC0 		leaq	-64(%rbp), %rcx
 360 00d1 BA000000 		movl	$.LC5, %edx
 360      00
 361 00d6 4889CE   		movq	%rcx, %rsi
 362 00d9 4889C7   		movq	%rax, %rdi
 363 00dc E8000000 		call	_ZN8UnitTest11TestResults13OnTestFailureERKNS_11TestDetailsEPKc
 363      00
 364              	.LEHE4:
 365 00e1 EB59     		jmp	.L15
 366              	.L21:
 367 00e3 4889C3   		movq	%rax, %rbx
 368              		.loc 4 18 0
 369 00e6 E8000000 		call	__cxa_end_catch
 369      00
 370 00eb 4889D8   		movq	%rbx, %rax
 371 00ee 4889C7   		movq	%rax, %rdi
 372              	.LEHB5:
 373 00f1 E8000000 		call	_Unwind_Resume
 373      00
 374              	.LEHE5:
 375              	.L20:
 376 00f6 4889C7   		movq	%rax, %rdi
 377 00f9 E8000000 		call	__cxa_begin_catch
 377      00
 378              	.LEHB6:
 379 00fe E8000000 		call	_ZN8UnitTest11CurrentTest7DetailsEv
 379      00
 380 0103 488B08   		movq	(%rax), %rcx
 381 0106 488D45C0 		leaq	-64(%rbp), %rax
 382 010a BA120000 		movl	$18, %edx
 382      00
 383 010f 4889CE   		movq	%rcx, %rsi
 384 0112 4889C7   		movq	%rax, %rdi
 385 0115 E8000000 		call	_ZN8UnitTest11TestDetailsC1ERKS0_i
 385      00
 386              		.loc 4 18 0 discriminator 11
 387 011a E8000000 		call	_ZN8UnitTest11CurrentTest7ResultsEv
 387      00
 388 011f 488B00   		movq	(%rax), %rax
 389 0122 488D4DC0 		leaq	-64(%rbp), %rcx
 390 0126 BA000000 		movl	$.LC6, %edx
 390      00
 391 012b 4889CE   		movq	%rcx, %rsi
 392 012e 4889C7   		movq	%rax, %rdi
 393 0131 E8000000 		call	_ZN8UnitTest11TestResults13OnTestFailureERKNS_11TestDetailsEPKc
 393      00
 394              	.LEHE6:
 395              	.LEHB7:
 396              		.loc 4 18 0 discriminator 15
 397 0136 E8000000 		call	__cxa_end_catch
 397      00
 398              	.LEHE7:
  19:TestTest.cpp  ****         }
 399              		.loc 4 19 0 is_stmt 1 discriminator 15
 400 013b 90       		nop
 401              	.L15:
 402              		.loc 4 19 0 is_stmt 0
 403 013c 488B45E8 		movq	-24(%rbp), %rax
 404 0140 64483304 		xorq	%fs:40, %rax
 404      25280000 
 404      00
 405 0149 7405     		je	.L19
 406 014b E8000000 		call	__stack_chk_fail
 406      00
 407              	.L19:
 408 0150 4883C448 		addq	$72, %rsp
 409 0154 5B       		popq	%rbx
 410 0155 5D       		popq	%rbp
 411              		.cfi_def_cfa 7, 8
 412 0156 C3       		ret
 413              		.cfi_endproc
 414              	.LFE1081:
 415              		.section	.gcc_except_table,"a",@progbits
 416              		.align 4
 417              	.LLSDA1081:
 418 0000 FF       		.byte	0xff
 419 0001 03       		.byte	0x3
 420 0002 1D       		.uleb128 .LLSDATT1081-.LLSDATTD1081
 421              	.LLSDATTD1081:
 422 0003 01       		.byte	0x1
 423 0004 12       		.uleb128 .LLSDACSE1081-.LLSDACSB1081
 424              	.LLSDACSB1081:
 425 0005 31       		.uleb128 .LEHB4-.LFB1081
 426 0006 38       		.uleb128 .LEHE4-.LEHB4
 427 0007 7E       		.uleb128 .L20-.LFB1081
 428 0008 01       		.uleb128 0x1
 429 0009 79       		.uleb128 .LEHB5-.LFB1081
 430 000a 05       		.uleb128 .LEHE5-.LEHB5
 431 000b 00       		.uleb128 0
 432 000c 00       		.uleb128 0
 433 000d 8601     		.uleb128 .LEHB6-.LFB1081
 434 000f 38       		.uleb128 .LEHE6-.LEHB6
 435 0010 6B       		.uleb128 .L21-.LFB1081
 436 0011 00       		.uleb128 0
 437 0012 BE01     		.uleb128 .LEHB7-.LFB1081
 438 0014 05       		.uleb128 .LEHE7-.LEHB7
 439 0015 00       		.uleb128 0
 440 0016 00       		.uleb128 0
 441              	.LLSDACSE1081:
 442 0017 01       		.byte	0x1
 443 0018 00       		.byte	0
 444 0019 000000   		.align 4
 445 001c 00000000 		.long	0
 446              	
 447              	.LLSDATT1081:
 448              		.text
 450              		.section	.rodata
 451 006b 00000000 		.align 8
 451      00
 452              	.LC7:
 453 0070 556E6861 		.string	"Unhandled exception in CHECK_EQUAL(0, results.GetFailureCount())"
 453      6E646C65 
 453      64206578 
 453      63657074 
 453      696F6E20 
 454              		.text
 455 0157 90       		.align 2
 457              	_ZNK12_GLOBAL__N_128TestPassingTestHasNoFailures7RunImplEv:
 458              	.LFB1077:
  11:TestTest.cpp  ****     class PassingTest : public Test
 459              		.loc 4 11 0 is_stmt 1
 460              		.cfi_startproc
 461              		.cfi_personality 0x3,__gxx_personality_v0
 462              		.cfi_lsda 0x3,.LLSDA1077
 463 0158 55       		pushq	%rbp
 464              		.cfi_def_cfa_offset 16
 465              		.cfi_offset 6, -16
 466 0159 4889E5   		movq	%rsp, %rbp
 467              		.cfi_def_cfa_register 6
 468 015c 53       		pushq	%rbx
 469 015d 4881EC98 		subq	$152, %rsp
 469      000000
 470              		.cfi_offset 3, -24
 471 0164 4889BD68 		movq	%rdi, -152(%rbp)
 471      FFFFFF
  11:TestTest.cpp  ****     class PassingTest : public Test
 472              		.loc 4 11 0
 473 016b 64488B04 		movq	%fs:40, %rax
 473      25280000 
 473      00
 474 0174 488945E8 		movq	%rax, -24(%rbp)
 475 0178 31C0     		xorl	%eax, %eax
 476              	.LBB8:
  20:TestTest.cpp  ****     };
  21:TestTest.cpp  **** 
  22:TestTest.cpp  ****     TestResults results;
 477              		.loc 4 22 0
 478 017a 488D4590 		leaq	-112(%rbp), %rax
 479 017e BE000000 		movl	$0, %esi
 479      00
 480 0183 4889C7   		movq	%rax, %rdi
 481              	.LEHB8:
 482 0186 E8000000 		call	_ZN8UnitTest11TestResultsC1EPNS_12TestReporterE
 482      00
 483              	.LBB9:
  23:TestTest.cpp  **** 	{
  24:TestTest.cpp  **** 		ScopedCurrentTest scopedResults(results);
 484              		.loc 4 24 0
 485 018b 488D4D90 		leaq	-112(%rbp), %rcx
 486 018f 488D4580 		leaq	-128(%rbp), %rax
 487 0193 BA000000 		movl	$0, %edx
 487      00
 488 0198 4889CE   		movq	%rcx, %rsi
 489 019b 4889C7   		movq	%rax, %rdi
 490 019e E8000000 		call	_ZN17ScopedCurrentTestC1ERN8UnitTest11TestResultsEPKNS0_11TestDetailsE
 490      00
 491              	.LEHE8:
  25:TestTest.cpp  **** 		PassingTest().Run();
 492              		.loc 4 25 0
 493 01a3 488D45B0 		leaq	-80(%rbp), %rax
 494 01a7 4889C7   		movq	%rax, %rdi
 495              	.LEHB9:
 496 01aa E88FFEFF 		call	_ZZNK12_GLOBAL__N_128TestPassingTestHasNoFailures7RunImplEvEN11PassingTestC2Ev
 496      FF
 497              	.LEHE9:
 498              		.loc 4 25 0 is_stmt 0 discriminator 2
 499 01af 488D45B0 		leaq	-80(%rbp), %rax
 500 01b3 4889C7   		movq	%rax, %rdi
 501              	.LEHB10:
 502 01b6 E8000000 		call	_ZN8UnitTest4Test3RunEv
 502      00
 503              	.LEHE10:
 504              		.loc 4 25 0 discriminator 4
 505 01bb 488D45B0 		leaq	-80(%rbp), %rax
 506 01bf 4889C7   		movq	%rax, %rdi
 507              	.LEHB11:
 508 01c2 E8091200 		call	_ZZNK12_GLOBAL__N_128TestPassingTestHasNoFailures7RunImplEvEN11PassingTestD2Ev
 508      00
 509              	.LEHE11:
 510              		.loc 4 25 0 discriminator 6
 511 01c7 488D4580 		leaq	-128(%rbp), %rax
 512 01cb 4889C7   		movq	%rax, %rdi
 513              	.LEHB12:
 514 01ce E8000000 		call	_ZN17ScopedCurrentTestD1Ev
 514      00
 515              	.LEHE12:
 516              	.LEHB13:
 517              	.LBE9:
  26:TestTest.cpp  **** 	}
  27:TestTest.cpp  **** 
  28:TestTest.cpp  ****     CHECK_EQUAL(0, results.GetFailureCount());
 518              		.loc 4 28 0 is_stmt 1 discriminator 6
 519 01d3 E8000000 		call	_ZN8UnitTest11CurrentTest7DetailsEv
 519      00
 520 01d8 488B08   		movq	(%rax), %rcx
 521 01db 488D45B0 		leaq	-80(%rbp), %rax
 522 01df BA1C0000 		movl	$28, %edx
 522      00
 523 01e4 4889CE   		movq	%rcx, %rsi
 524 01e7 4889C7   		movq	%rax, %rdi
 525 01ea E8000000 		call	_ZN8UnitTest11TestDetailsC1ERKS0_i
 525      00
 526              		.loc 4 28 0 is_stmt 0 discriminator 2
 527 01ef 488D4590 		leaq	-112(%rbp), %rax
 528 01f3 4889C7   		movq	%rax, %rdi
 529 01f6 E8000000 		call	_ZNK8UnitTest11TestResults15GetFailureCountEv
 529      00
 530 01fb 894580   		movl	%eax, -128(%rbp)
 531 01fe C7857CFF 		movl	$0, -132(%rbp)
 531      FFFF0000 
 531      0000
 532 0208 E8000000 		call	_ZN8UnitTest11CurrentTest7ResultsEv
 532      00
 533              		.loc 4 28 0 discriminator 4
 534 020d 488B00   		movq	(%rax), %rax
 535 0210 488D4DB0 		leaq	-80(%rbp), %rcx
 536 0214 488D5580 		leaq	-128(%rbp), %rdx
 537 0218 488DB57C 		leaq	-132(%rbp), %rsi
 537      FFFFFF
 538 021f 4889C7   		movq	%rax, %rdi
 539 0222 E8000000 		call	_ZN8UnitTest10CheckEqualIiiEEvRNS_11TestResultsERKT_RKT0_RKNS_11TestDetailsE
 539      00
 540              	.LEHE13:
 541              	.LBE8:
  29:TestTest.cpp  **** }
 542              		.loc 4 29 0 is_stmt 1
 543 0227 E9830000 		jmp	.L33
 543      00
 544              	.L30:
 545 022c 4889C3   		movq	%rax, %rbx
 546              	.LBB11:
 547              	.LBB10:
  25:TestTest.cpp  **** 		PassingTest().Run();
 548              		.loc 4 25 0
 549 022f 488D45B0 		leaq	-80(%rbp), %rax
 550 0233 4889C7   		movq	%rax, %rdi
 551 0236 E8951100 		call	_ZZNK12_GLOBAL__N_128TestPassingTestHasNoFailures7RunImplEvEN11PassingTestD2Ev
 551      00
 552 023b EB03     		jmp	.L24
 553              	.L29:
 554 023d 4889C3   		movq	%rax, %rbx
 555              	.L24:
  25:TestTest.cpp  **** 		PassingTest().Run();
 556              		.loc 4 25 0 is_stmt 0 discriminator 5
 557 0240 488D4580 		leaq	-128(%rbp), %rax
 558 0244 4889C7   		movq	%rax, %rdi
 559 0247 E8000000 		call	_ZN17ScopedCurrentTestD1Ev
 559      00
 560 024c 4889D8   		movq	%rbx, %rax
 561 024f 4889C7   		movq	%rax, %rdi
 562              	.LEHB14:
 563 0252 E8000000 		call	_Unwind_Resume
 563      00
 564              	.LEHE14:
 565              	.L32:
 566 0257 4889C3   		movq	%rax, %rbx
 567              	.LBE10:
  28:TestTest.cpp  **** }
 568              		.loc 4 28 0 is_stmt 1
 569 025a E8000000 		call	__cxa_end_catch
 569      00
 570 025f 4889D8   		movq	%rbx, %rax
 571 0262 4889C7   		movq	%rax, %rdi
 572              	.LEHB15:
 573 0265 E8000000 		call	_Unwind_Resume
 573      00
 574              	.LEHE15:
 575              	.L31:
 576 026a 4889C7   		movq	%rax, %rdi
 577 026d E8000000 		call	__cxa_begin_catch
 577      00
 578              	.LEHB16:
 579 0272 E8000000 		call	_ZN8UnitTest11CurrentTest7DetailsEv
 579      00
 580 0277 488B08   		movq	(%rax), %rcx
 581 027a 488D45B0 		leaq	-80(%rbp), %rax
 582 027e BA1C0000 		movl	$28, %edx
 582      00
 583 0283 4889CE   		movq	%rcx, %rsi
 584 0286 4889C7   		movq	%rax, %rdi
 585 0289 E8000000 		call	_ZN8UnitTest11TestDetailsC1ERKS0_i
 585      00
  28:TestTest.cpp  **** }
 586              		.loc 4 28 0 is_stmt 0 discriminator 12
 587 028e E8000000 		call	_ZN8UnitTest11CurrentTest7ResultsEv
 587      00
 588 0293 488B00   		movq	(%rax), %rax
 589 0296 488D4DB0 		leaq	-80(%rbp), %rcx
 590 029a BA000000 		movl	$.LC7, %edx
 590      00
 591 029f 4889CE   		movq	%rcx, %rsi
 592 02a2 4889C7   		movq	%rax, %rdi
 593 02a5 E8000000 		call	_ZN8UnitTest11TestResults13OnTestFailureERKNS_11TestDetailsEPKc
 593      00
 594              	.LEHE16:
 595              	.LEHB17:
  28:TestTest.cpp  **** }
 596              		.loc 4 28 0 discriminator 16
 597 02aa E8000000 		call	__cxa_end_catch
 597      00
 598              	.LEHE17:
 599              	.L33:
 600              	.LBE11:
 601              		.loc 4 29 0 is_stmt 1
 602 02af 90       		nop
 603 02b0 488B45E8 		movq	-24(%rbp), %rax
 604 02b4 64483304 		xorq	%fs:40, %rax
 604      25280000 
 604      00
 605 02bd 7405     		je	.L28
 606 02bf E8000000 		call	__stack_chk_fail
 606      00
 607              	.L28:
 608 02c4 4881C498 		addq	$152, %rsp
 608      000000
 609 02cb 5B       		popq	%rbx
 610 02cc 5D       		popq	%rbp
 611              		.cfi_def_cfa 7, 8
 612 02cd C3       		ret
 613              		.cfi_endproc
 614              	.LFE1077:
 615              		.section	.gcc_except_table
 616              		.align 4
 617              	.LLSDA1077:
 618 0020 FF       		.byte	0xff
 619 0021 03       		.byte	0x3
 620 0022 39       		.uleb128 .LLSDATT1077-.LLSDATTD1077
 621              	.LLSDATTD1077:
 622 0023 01       		.byte	0x1
 623 0024 31       		.uleb128 .LLSDACSE1077-.LLSDACSB1077
 624              	.LLSDACSB1077:
 625 0025 2E       		.uleb128 .LEHB8-.LFB1077
 626 0026 1D       		.uleb128 .LEHE8-.LEHB8
 627 0027 00       		.uleb128 0
 628 0028 00       		.uleb128 0
 629 0029 52       		.uleb128 .LEHB9-.LFB1077
 630 002a 05       		.uleb128 .LEHE9-.LEHB9
 631 002b E501     		.uleb128 .L29-.LFB1077
 632 002d 00       		.uleb128 0
 633 002e 5E       		.uleb128 .LEHB10-.LFB1077
 634 002f 05       		.uleb128 .LEHE10-.LEHB10
 635 0030 D401     		.uleb128 .L30-.LFB1077
 636 0032 00       		.uleb128 0
 637 0033 6A       		.uleb128 .LEHB11-.LFB1077
 638 0034 05       		.uleb128 .LEHE11-.LEHB11
 639 0035 E501     		.uleb128 .L29-.LFB1077
 640 0037 00       		.uleb128 0
 641 0038 76       		.uleb128 .LEHB12-.LFB1077
 642 0039 05       		.uleb128 .LEHE12-.LEHB12
 643 003a 00       		.uleb128 0
 644 003b 00       		.uleb128 0
 645 003c 7B       		.uleb128 .LEHB13-.LFB1077
 646 003d 54       		.uleb128 .LEHE13-.LEHB13
 647 003e 9202     		.uleb128 .L31-.LFB1077
 648 0040 01       		.uleb128 0x1
 649 0041 FA01     		.uleb128 .LEHB14-.LFB1077
 650 0043 05       		.uleb128 .LEHE14-.LEHB14
 651 0044 00       		.uleb128 0
 652 0045 00       		.uleb128 0
 653 0046 8D02     		.uleb128 .LEHB15-.LFB1077
 654 0048 05       		.uleb128 .LEHE15-.LEHB15
 655 0049 00       		.uleb128 0
 656 004a 00       		.uleb128 0
 657 004b 9A02     		.uleb128 .LEHB16-.LFB1077
 658 004d 38       		.uleb128 .LEHE16-.LEHB16
 659 004e FF01     		.uleb128 .L32-.LFB1077
 660 0050 00       		.uleb128 0
 661 0051 D202     		.uleb128 .LEHB17-.LFB1077
 662 0053 05       		.uleb128 .LEHE17-.LEHB17
 663 0054 00       		.uleb128 0
 664 0055 00       		.uleb128 0
 665              	.LLSDACSE1077:
 666 0056 01       		.byte	0x1
 667 0057 00       		.byte	0
 668              		.align 4
 669 0058 00000000 		.long	0
 670              	
 671              	.LLSDATT1077:
 672              		.text
 674              		.section	.rodata
 675              	.LC8:
 676 00b1 4661696C 		.string	"FailingTestHasFailures"
 676      696E6754 
 676      65737448 
 676      61734661 
 676      696C7572 
 677              		.text
 678              		.align 2
 680              	_ZN12_GLOBAL__N_126TestFailingTestHasFailuresC2Ev:
 681              	.LFB1083:
  30:TestTest.cpp  **** 
  31:TestTest.cpp  **** 
  32:TestTest.cpp  **** TEST(FailingTestHasFailures)
 682              		.loc 4 32 0
 683              		.cfi_startproc
 684 02ce 55       		pushq	%rbp
 685              		.cfi_def_cfa_offset 16
 686              		.cfi_offset 6, -16
 687 02cf 4889E5   		movq	%rsp, %rbp
 688              		.cfi_def_cfa_register 6
 689 02d2 4883EC10 		subq	$16, %rsp
 690 02d6 48897DF8 		movq	%rdi, -8(%rbp)
 691              	.LBB12:
 692              		.loc 4 32 0
 693 02da E8000000 		call	_ZN13UnitTestSuite12GetSuiteNameEv
 693      00
 694 02df 4889C2   		movq	%rax, %rdx
 695 02e2 488B45F8 		movq	-8(%rbp), %rax
 696 02e6 41B82000 		movl	$32, %r8d
 696      0000
 697 02ec B9000000 		movl	$.LC1, %ecx
 697      00
 698 02f1 BE000000 		movl	$.LC8, %esi
 698      00
 699 02f6 4889C7   		movq	%rax, %rdi
 700 02f9 E8000000 		call	_ZN8UnitTest4TestC2EPKcS2_S2_i
 700      00
 701 02fe 488B45F8 		movq	-8(%rbp), %rax
 702 0302 48C70000 		movq	$_ZTVN12_GLOBAL__N_126TestFailingTestHasFailuresE+16, (%rax)
 702      000000
 703              	.LBE12:
 704 0309 C9       		leave
 705              		.cfi_def_cfa 7, 8
 706 030a C3       		ret
 707              		.cfi_endproc
 708              	.LFE1083:
 710              		.local	_ZN12_GLOBAL__N_134testFailingTestHasFailuresInstanceE
 711              		.comm	_ZN12_GLOBAL__N_134testFailingTestHasFailuresInstanceE,56,32
 712              		.local	_ZN12_GLOBAL__N_127adderFailingTestHasFailuresE
 713              		.comm	_ZN12_GLOBAL__N_127adderFailingTestHasFailuresE,1,1
 714              		.section	.rodata
 715              	.LC9:
 716 00c8 6661696C 		.string	"failing"
 716      696E6700 
 717              		.text
 718 030b 90       		.align 2
 720              	_ZZNK12_GLOBAL__N_126TestFailingTestHasFailures7RunImplEvEN11FailingTestC2Ev:
 721              	.LFB1087:
  33:TestTest.cpp  **** {
  34:TestTest.cpp  ****     class FailingTest : public Test
  35:TestTest.cpp  ****     {
  36:TestTest.cpp  ****     public:
  37:TestTest.cpp  ****         FailingTest() : Test("failing") {}
 722              		.loc 4 37 0
 723              		.cfi_startproc
 724 030c 55       		pushq	%rbp
 725              		.cfi_def_cfa_offset 16
 726              		.cfi_offset 6, -16
 727 030d 4889E5   		movq	%rsp, %rbp
 728              		.cfi_def_cfa_register 6
 729 0310 4883EC10 		subq	$16, %rsp
 730 0314 48897DF8 		movq	%rdi, -8(%rbp)
 731              	.LBB13:
 732              		.loc 4 37 0
 733 0318 488B45F8 		movq	-8(%rbp), %rax
 734 031c 41B80000 		movl	$0, %r8d
 734      0000
 735 0322 B9000000 		movl	$.LC3, %ecx
 735      00
 736 0327 BA000000 		movl	$.LC0, %edx
 736      00
 737 032c BE000000 		movl	$.LC9, %esi
 737      00
 738 0331 4889C7   		movq	%rax, %rdi
 739 0334 E8000000 		call	_ZN8UnitTest4TestC2EPKcS2_S2_i
 739      00
 740 0339 488B45F8 		movq	-8(%rbp), %rax
 741 033d 48C70000 		movq	$_ZTVZNK12_GLOBAL__N_126TestFailingTestHasFailures7RunImplEvE11FailingTest+16, (%rax)
 741      000000
 742              	.LBE13:
 743 0344 C9       		leave
 744              		.cfi_def_cfa 7, 8
 745 0345 C3       		ret
 746              		.cfi_endproc
 747              	.LFE1087:
 749              		.section	.rodata
 750              	.LC10:
 751 00d0 66616C73 		.string	"false"
 751      6500
 752 00d6 0000     		.align 8
 753              	.LC11:
 754 00d8 556E6861 		.string	"Unhandled exception in CHECK(false)"
 754      6E646C65 
 754      64206578 
 754      63657074 
 754      696F6E20 
 755              		.text
 756              		.align 2
 758              	_ZZNK12_GLOBAL__N_126TestFailingTestHasFailures7RunImplEvENK11FailingTest7RunImplEv:
 759              	.LFB1089:
  38:TestTest.cpp  ****         virtual void RunImpl() const
 760              		.loc 4 38 0
 761              		.cfi_startproc
 762              		.cfi_personality 0x3,__gxx_personality_v0
 763              		.cfi_lsda 0x3,.LLSDA1089
 764 0346 55       		pushq	%rbp
 765              		.cfi_def_cfa_offset 16
 766              		.cfi_offset 6, -16
 767 0347 4889E5   		movq	%rsp, %rbp
 768              		.cfi_def_cfa_register 6
 769 034a 53       		pushq	%rbx
 770 034b 4883EC48 		subq	$72, %rsp
 771              		.cfi_offset 3, -24
 772 034f 48897DB8 		movq	%rdi, -72(%rbp)
 773              		.loc 4 38 0
 774 0353 64488B04 		movq	%fs:40, %rax
 774      25280000 
 774      00
 775 035c 488945E8 		movq	%rax, -24(%rbp)
 776 0360 31C0     		xorl	%eax, %eax
  39:TestTest.cpp  ****         {
  40:TestTest.cpp  ****             CHECK(false);
 777              		.loc 4 40 0
 778 0362 BF000000 		movl	$0, %edi
 778      00
 779 0367 E8000000 		call	_ZN8UnitTest5CheckIbEEbT_
 779      00
 780 036c 83F001   		xorl	$1, %eax
 781 036f 84C0     		testb	%al, %al
 782 0371 0F849300 		je	.L36
 782      0000
 783              	.LEHB18:
 784              		.loc 4 40 0 is_stmt 0 discriminator 1
 785 0377 E8000000 		call	_ZN8UnitTest11CurrentTest7DetailsEv
 785      00
 786 037c 488B08   		movq	(%rax), %rcx
 787 037f 488D45C0 		leaq	-64(%rbp), %rax
 788 0383 BA280000 		movl	$40, %edx
 788      00
 789 0388 4889CE   		movq	%rcx, %rsi
 790 038b 4889C7   		movq	%rax, %rdi
 791 038e E8000000 		call	_ZN8UnitTest11TestDetailsC1ERKS0_i
 791      00
 792              		.loc 4 40 0 discriminator 3
 793 0393 E8000000 		call	_ZN8UnitTest11CurrentTest7ResultsEv
 793      00
 794 0398 488B00   		movq	(%rax), %rax
 795 039b 488D4DC0 		leaq	-64(%rbp), %rcx
 796 039f BA000000 		movl	$.LC10, %edx
 796      00
 797 03a4 4889CE   		movq	%rcx, %rsi
 798 03a7 4889C7   		movq	%rax, %rdi
 799 03aa E8000000 		call	_ZN8UnitTest11TestResults13OnTestFailureERKNS_11TestDetailsEPKc
 799      00
 800              	.LEHE18:
 801 03af EB59     		jmp	.L36
 802              	.L42:
 803 03b1 4889C3   		movq	%rax, %rbx
 804              		.loc 4 40 0
 805 03b4 E8000000 		call	__cxa_end_catch
 805      00
 806 03b9 4889D8   		movq	%rbx, %rax
 807 03bc 4889C7   		movq	%rax, %rdi
 808              	.LEHB19:
 809 03bf E8000000 		call	_Unwind_Resume
 809      00
 810              	.LEHE19:
 811              	.L41:
 812 03c4 4889C7   		movq	%rax, %rdi
 813 03c7 E8000000 		call	__cxa_begin_catch
 813      00
 814              	.LEHB20:
 815 03cc E8000000 		call	_ZN8UnitTest11CurrentTest7DetailsEv
 815      00
 816 03d1 488B08   		movq	(%rax), %rcx
 817 03d4 488D45C0 		leaq	-64(%rbp), %rax
 818 03d8 BA280000 		movl	$40, %edx
 818      00
 819 03dd 4889CE   		movq	%rcx, %rsi
 820 03e0 4889C7   		movq	%rax, %rdi
 821 03e3 E8000000 		call	_ZN8UnitTest11TestDetailsC1ERKS0_i
 821      00
 822              		.loc 4 40 0 discriminator 11
 823 03e8 E8000000 		call	_ZN8UnitTest11CurrentTest7ResultsEv
 823      00
 824 03ed 488B00   		movq	(%rax), %rax
 825 03f0 488D4DC0 		leaq	-64(%rbp), %rcx
 826 03f4 BA000000 		movl	$.LC11, %edx
 826      00
 827 03f9 4889CE   		movq	%rcx, %rsi
 828 03fc 4889C7   		movq	%rax, %rdi
 829 03ff E8000000 		call	_ZN8UnitTest11TestResults13OnTestFailureERKNS_11TestDetailsEPKc
 829      00
 830              	.LEHE20:
 831              	.LEHB21:
 832              		.loc 4 40 0 discriminator 15
 833 0404 E8000000 		call	__cxa_end_catch
 833      00
 834              	.LEHE21:
  41:TestTest.cpp  ****         }
 835              		.loc 4 41 0 is_stmt 1 discriminator 15
 836 0409 90       		nop
 837              	.L36:
 838              		.loc 4 41 0 is_stmt 0
 839 040a 488B45E8 		movq	-24(%rbp), %rax
 840 040e 64483304 		xorq	%fs:40, %rax
 840      25280000 
 840      00
 841 0417 7405     		je	.L40
 842 0419 E8000000 		call	__stack_chk_fail
 842      00
 843              	.L40:
 844 041e 4883C448 		addq	$72, %rsp
 845 0422 5B       		popq	%rbx
 846 0423 5D       		popq	%rbp
 847              		.cfi_def_cfa 7, 8
 848 0424 C3       		ret
 849              		.cfi_endproc
 850              	.LFE1089:
 851              		.section	.gcc_except_table
 852              		.align 4
 853              	.LLSDA1089:
 854 005c FF       		.byte	0xff
 855 005d 03       		.byte	0x3
 856 005e 1D       		.uleb128 .LLSDATT1089-.LLSDATTD1089
 857              	.LLSDATTD1089:
 858 005f 01       		.byte	0x1
 859 0060 12       		.uleb128 .LLSDACSE1089-.LLSDACSB1089
 860              	.LLSDACSB1089:
 861 0061 31       		.uleb128 .LEHB18-.LFB1089
 862 0062 38       		.uleb128 .LEHE18-.LEHB18
 863 0063 7E       		.uleb128 .L41-.LFB1089
 864 0064 01       		.uleb128 0x1
 865 0065 79       		.uleb128 .LEHB19-.LFB1089
 866 0066 05       		.uleb128 .LEHE19-.LEHB19
 867 0067 00       		.uleb128 0
 868 0068 00       		.uleb128 0
 869 0069 8601     		.uleb128 .LEHB20-.LFB1089
 870 006b 38       		.uleb128 .LEHE20-.LEHB20
 871 006c 6B       		.uleb128 .L42-.LFB1089
 872 006d 00       		.uleb128 0
 873 006e BE01     		.uleb128 .LEHB21-.LFB1089
 874 0070 05       		.uleb128 .LEHE21-.LEHB21
 875 0071 00       		.uleb128 0
 876 0072 00       		.uleb128 0
 877              	.LLSDACSE1089:
 878 0073 01       		.byte	0x1
 879 0074 00       		.byte	0
 880 0075 000000   		.align 4
 881 0078 00000000 		.long	0
 882              	
 883              	.LLSDATT1089:
 884              		.text
 886              		.section	.rodata
 887 00fc 00000000 		.align 8
 888              	.LC12:
 889 0100 556E6861 		.string	"Unhandled exception in CHECK_EQUAL(1, results.GetFailureCount())"
 889      6E646C65 
 889      64206578 
 889      63657074 
 889      696F6E20 
 890              		.text
 891 0425 90       		.align 2
 893              	_ZNK12_GLOBAL__N_126TestFailingTestHasFailures7RunImplEv:
 894              	.LFB1085:
  33:TestTest.cpp  ****     class FailingTest : public Test
 895              		.loc 4 33 0 is_stmt 1
 896              		.cfi_startproc
 897              		.cfi_personality 0x3,__gxx_personality_v0
 898              		.cfi_lsda 0x3,.LLSDA1085
 899 0426 55       		pushq	%rbp
 900              		.cfi_def_cfa_offset 16
 901              		.cfi_offset 6, -16
 902 0427 4889E5   		movq	%rsp, %rbp
 903              		.cfi_def_cfa_register 6
 904 042a 53       		pushq	%rbx
 905 042b 4881EC98 		subq	$152, %rsp
 905      000000
 906              		.cfi_offset 3, -24
 907 0432 4889BD68 		movq	%rdi, -152(%rbp)
 907      FFFFFF
  33:TestTest.cpp  ****     class FailingTest : public Test
 908              		.loc 4 33 0
 909 0439 64488B04 		movq	%fs:40, %rax
 909      25280000 
 909      00
 910 0442 488945E8 		movq	%rax, -24(%rbp)
 911 0446 31C0     		xorl	%eax, %eax
 912              	.LBB14:
  42:TestTest.cpp  ****     };
  43:TestTest.cpp  **** 
  44:TestTest.cpp  ****     TestResults results;
 913              		.loc 4 44 0
 914 0448 488D4590 		leaq	-112(%rbp), %rax
 915 044c BE000000 		movl	$0, %esi
 915      00
 916 0451 4889C7   		movq	%rax, %rdi
 917              	.LEHB22:
 918 0454 E8000000 		call	_ZN8UnitTest11TestResultsC1EPNS_12TestReporterE
 918      00
 919              	.LBB15:
  45:TestTest.cpp  **** 	{
  46:TestTest.cpp  **** 		ScopedCurrentTest scopedResults(results);
 920              		.loc 4 46 0
 921 0459 488D4D90 		leaq	-112(%rbp), %rcx
 922 045d 488D4580 		leaq	-128(%rbp), %rax
 923 0461 BA000000 		movl	$0, %edx
 923      00
 924 0466 4889CE   		movq	%rcx, %rsi
 925 0469 4889C7   		movq	%rax, %rdi
 926 046c E8000000 		call	_ZN17ScopedCurrentTestC1ERN8UnitTest11TestResultsEPKNS0_11TestDetailsE
 926      00
 927              	.LEHE22:
  47:TestTest.cpp  **** 		FailingTest().Run();
 928              		.loc 4 47 0
 929 0471 488D45B0 		leaq	-80(%rbp), %rax
 930 0475 4889C7   		movq	%rax, %rdi
 931              	.LEHB23:
 932 0478 E88FFEFF 		call	_ZZNK12_GLOBAL__N_126TestFailingTestHasFailures7RunImplEvEN11FailingTestC2Ev
 932      FF
 933              	.LEHE23:
 934              		.loc 4 47 0 is_stmt 0 discriminator 2
 935 047d 488D45B0 		leaq	-80(%rbp), %rax
 936 0481 4889C7   		movq	%rax, %rdi
 937              	.LEHB24:
 938 0484 E8000000 		call	_ZN8UnitTest4Test3RunEv
 938      00
 939              	.LEHE24:
 940              		.loc 4 47 0 discriminator 4
 941 0489 488D45B0 		leaq	-80(%rbp), %rax
 942 048d 4889C7   		movq	%rax, %rdi
 943              	.LEHB25:
 944 0490 E87B0E00 		call	_ZZNK12_GLOBAL__N_126TestFailingTestHasFailures7RunImplEvEN11FailingTestD2Ev
 944      00
 945              	.LEHE25:
 946              		.loc 4 47 0 discriminator 6
 947 0495 488D4580 		leaq	-128(%rbp), %rax
 948 0499 4889C7   		movq	%rax, %rdi
 949              	.LEHB26:
 950 049c E8000000 		call	_ZN17ScopedCurrentTestD1Ev
 950      00
 951              	.LEHE26:
 952              	.LEHB27:
 953              	.LBE15:
  48:TestTest.cpp  **** 	}
  49:TestTest.cpp  **** 
  50:TestTest.cpp  ****     CHECK_EQUAL(1, results.GetFailureCount());
 954              		.loc 4 50 0 is_stmt 1 discriminator 6
 955 04a1 E8000000 		call	_ZN8UnitTest11CurrentTest7DetailsEv
 955      00
 956 04a6 488B08   		movq	(%rax), %rcx
 957 04a9 488D45B0 		leaq	-80(%rbp), %rax
 958 04ad BA320000 		movl	$50, %edx
 958      00
 959 04b2 4889CE   		movq	%rcx, %rsi
 960 04b5 4889C7   		movq	%rax, %rdi
 961 04b8 E8000000 		call	_ZN8UnitTest11TestDetailsC1ERKS0_i
 961      00
 962              		.loc 4 50 0 is_stmt 0 discriminator 2
 963 04bd 488D4590 		leaq	-112(%rbp), %rax
 964 04c1 4889C7   		movq	%rax, %rdi
 965 04c4 E8000000 		call	_ZNK8UnitTest11TestResults15GetFailureCountEv
 965      00
 966 04c9 894580   		movl	%eax, -128(%rbp)
 967 04cc C7857CFF 		movl	$1, -132(%rbp)
 967      FFFF0100 
 967      0000
 968 04d6 E8000000 		call	_ZN8UnitTest11CurrentTest7ResultsEv
 968      00
 969              		.loc 4 50 0 discriminator 4
 970 04db 488B00   		movq	(%rax), %rax
 971 04de 488D4DB0 		leaq	-80(%rbp), %rcx
 972 04e2 488D5580 		leaq	-128(%rbp), %rdx
 973 04e6 488DB57C 		leaq	-132(%rbp), %rsi
 973      FFFFFF
 974 04ed 4889C7   		movq	%rax, %rdi
 975 04f0 E8000000 		call	_ZN8UnitTest10CheckEqualIiiEEvRNS_11TestResultsERKT_RKT0_RKNS_11TestDetailsE
 975      00
 976              	.LEHE27:
 977              	.LBE14:
  51:TestTest.cpp  **** }
 978              		.loc 4 51 0 is_stmt 1
 979 04f5 E9830000 		jmp	.L54
 979      00
 980              	.L51:
 981 04fa 4889C3   		movq	%rax, %rbx
 982              	.LBB17:
 983              	.LBB16:
  47:TestTest.cpp  **** 		FailingTest().Run();
 984              		.loc 4 47 0
 985 04fd 488D45B0 		leaq	-80(%rbp), %rax
 986 0501 4889C7   		movq	%rax, %rdi
 987 0504 E8070E00 		call	_ZZNK12_GLOBAL__N_126TestFailingTestHasFailures7RunImplEvEN11FailingTestD2Ev
 987      00
 988 0509 EB03     		jmp	.L45
 989              	.L50:
 990 050b 4889C3   		movq	%rax, %rbx
 991              	.L45:
  47:TestTest.cpp  **** 		FailingTest().Run();
 992              		.loc 4 47 0 is_stmt 0 discriminator 5
 993 050e 488D4580 		leaq	-128(%rbp), %rax
 994 0512 4889C7   		movq	%rax, %rdi
 995 0515 E8000000 		call	_ZN17ScopedCurrentTestD1Ev
 995      00
 996 051a 4889D8   		movq	%rbx, %rax
 997 051d 4889C7   		movq	%rax, %rdi
 998              	.LEHB28:
 999 0520 E8000000 		call	_Unwind_Resume
 999      00
 1000              	.LEHE28:
 1001              	.L53:
 1002 0525 4889C3   		movq	%rax, %rbx
 1003              	.LBE16:
  50:TestTest.cpp  **** }
 1004              		.loc 4 50 0 is_stmt 1
 1005 0528 E8000000 		call	__cxa_end_catch
 1005      00
 1006 052d 4889D8   		movq	%rbx, %rax
 1007 0530 4889C7   		movq	%rax, %rdi
 1008              	.LEHB29:
 1009 0533 E8000000 		call	_Unwind_Resume
 1009      00
 1010              	.LEHE29:
 1011              	.L52:
 1012 0538 4889C7   		movq	%rax, %rdi
 1013 053b E8000000 		call	__cxa_begin_catch
 1013      00
 1014              	.LEHB30:
 1015 0540 E8000000 		call	_ZN8UnitTest11CurrentTest7DetailsEv
 1015      00
 1016 0545 488B08   		movq	(%rax), %rcx
 1017 0548 488D45B0 		leaq	-80(%rbp), %rax
 1018 054c BA320000 		movl	$50, %edx
 1018      00
 1019 0551 4889CE   		movq	%rcx, %rsi
 1020 0554 4889C7   		movq	%rax, %rdi
 1021 0557 E8000000 		call	_ZN8UnitTest11TestDetailsC1ERKS0_i
 1021      00
  50:TestTest.cpp  **** }
 1022              		.loc 4 50 0 is_stmt 0 discriminator 12
 1023 055c E8000000 		call	_ZN8UnitTest11CurrentTest7ResultsEv
 1023      00
 1024 0561 488B00   		movq	(%rax), %rax
 1025 0564 488D4DB0 		leaq	-80(%rbp), %rcx
 1026 0568 BA000000 		movl	$.LC12, %edx
 1026      00
 1027 056d 4889CE   		movq	%rcx, %rsi
 1028 0570 4889C7   		movq	%rax, %rdi
 1029 0573 E8000000 		call	_ZN8UnitTest11TestResults13OnTestFailureERKNS_11TestDetailsEPKc
 1029      00
 1030              	.LEHE30:
 1031              	.LEHB31:
  50:TestTest.cpp  **** }
 1032              		.loc 4 50 0 discriminator 16
 1033 0578 E8000000 		call	__cxa_end_catch
 1033      00
 1034              	.LEHE31:
 1035              	.L54:
 1036              	.LBE17:
 1037              		.loc 4 51 0 is_stmt 1
 1038 057d 90       		nop
 1039 057e 488B45E8 		movq	-24(%rbp), %rax
 1040 0582 64483304 		xorq	%fs:40, %rax
 1040      25280000 
 1040      00
 1041 058b 7405     		je	.L49
 1042 058d E8000000 		call	__stack_chk_fail
 1042      00
 1043              	.L49:
 1044 0592 4881C498 		addq	$152, %rsp
 1044      000000
 1045 0599 5B       		popq	%rbx
 1046 059a 5D       		popq	%rbp
 1047              		.cfi_def_cfa 7, 8
 1048 059b C3       		ret
 1049              		.cfi_endproc
 1050              	.LFE1085:
 1051              		.section	.gcc_except_table
 1052              		.align 4
 1053              	.LLSDA1085:
 1054 007c FF       		.byte	0xff
 1055 007d 03       		.byte	0x3
 1056 007e 39       		.uleb128 .LLSDATT1085-.LLSDATTD1085
 1057              	.LLSDATTD1085:
 1058 007f 01       		.byte	0x1
 1059 0080 31       		.uleb128 .LLSDACSE1085-.LLSDACSB1085
 1060              	.LLSDACSB1085:
 1061 0081 2E       		.uleb128 .LEHB22-.LFB1085
 1062 0082 1D       		.uleb128 .LEHE22-.LEHB22
 1063 0083 00       		.uleb128 0
 1064 0084 00       		.uleb128 0
 1065 0085 52       		.uleb128 .LEHB23-.LFB1085
 1066 0086 05       		.uleb128 .LEHE23-.LEHB23
 1067 0087 E501     		.uleb128 .L50-.LFB1085
 1068 0089 00       		.uleb128 0
 1069 008a 5E       		.uleb128 .LEHB24-.LFB1085
 1070 008b 05       		.uleb128 .LEHE24-.LEHB24
 1071 008c D401     		.uleb128 .L51-.LFB1085
 1072 008e 00       		.uleb128 0
 1073 008f 6A       		.uleb128 .LEHB25-.LFB1085
 1074 0090 05       		.uleb128 .LEHE25-.LEHB25
 1075 0091 E501     		.uleb128 .L50-.LFB1085
 1076 0093 00       		.uleb128 0
 1077 0094 76       		.uleb128 .LEHB26-.LFB1085
 1078 0095 05       		.uleb128 .LEHE26-.LEHB26
 1079 0096 00       		.uleb128 0
 1080 0097 00       		.uleb128 0
 1081 0098 7B       		.uleb128 .LEHB27-.LFB1085
 1082 0099 54       		.uleb128 .LEHE27-.LEHB27
 1083 009a 9202     		.uleb128 .L52-.LFB1085
 1084 009c 01       		.uleb128 0x1
 1085 009d FA01     		.uleb128 .LEHB28-.LFB1085
 1086 009f 05       		.uleb128 .LEHE28-.LEHB28
 1087 00a0 00       		.uleb128 0
 1088 00a1 00       		.uleb128 0
 1089 00a2 8D02     		.uleb128 .LEHB29-.LFB1085
 1090 00a4 05       		.uleb128 .LEHE29-.LEHB29
 1091 00a5 00       		.uleb128 0
 1092 00a6 00       		.uleb128 0
 1093 00a7 9A02     		.uleb128 .LEHB30-.LFB1085
 1094 00a9 38       		.uleb128 .LEHE30-.LEHB30
 1095 00aa FF01     		.uleb128 .L53-.LFB1085
 1096 00ac 00       		.uleb128 0
 1097 00ad D202     		.uleb128 .LEHB31-.LFB1085
 1098 00af 05       		.uleb128 .LEHE31-.LEHB31
 1099 00b0 00       		.uleb128 0
 1100 00b1 00       		.uleb128 0
 1101              	.LLSDACSE1085:
 1102 00b2 01       		.byte	0x1
 1103 00b3 00       		.byte	0
 1104              		.align 4
 1105 00b4 00000000 		.long	0
 1106              	
 1107              	.LLSDATT1085:
 1108              		.text
 1110              		.section	.rodata
 1111 0141 00000000 		.align 8
 1111      000000
 1112              	.LC13:
 1113 0148 5468726F 		.string	"ThrowingTestsAreReportedAsFailures"
 1113      77696E67 
 1113      54657374 
 1113      73417265 
 1113      5265706F 
 1114              		.text
 1115              		.align 2
 1117              	_ZN12_GLOBAL__N_138TestThrowingTestsAreReportedAsFailuresC2Ev:
 1118              	.LFB1091:
  52:TestTest.cpp  **** 
  53:TestTest.cpp  **** 
  54:TestTest.cpp  **** TEST(ThrowingTestsAreReportedAsFailures)
 1119              		.loc 4 54 0
 1120              		.cfi_startproc
 1121 059c 55       		pushq	%rbp
 1122              		.cfi_def_cfa_offset 16
 1123              		.cfi_offset 6, -16
 1124 059d 4889E5   		movq	%rsp, %rbp
 1125              		.cfi_def_cfa_register 6
 1126 05a0 4883EC10 		subq	$16, %rsp
 1127 05a4 48897DF8 		movq	%rdi, -8(%rbp)
 1128              	.LBB18:
 1129              		.loc 4 54 0
 1130 05a8 E8000000 		call	_ZN13UnitTestSuite12GetSuiteNameEv
 1130      00
 1131 05ad 4889C2   		movq	%rax, %rdx
 1132 05b0 488B45F8 		movq	-8(%rbp), %rax
 1133 05b4 41B83600 		movl	$54, %r8d
 1133      0000
 1134 05ba B9000000 		movl	$.LC1, %ecx
 1134      00
 1135 05bf BE000000 		movl	$.LC13, %esi
 1135      00
 1136 05c4 4889C7   		movq	%rax, %rdi
 1137 05c7 E8000000 		call	_ZN8UnitTest4TestC2EPKcS2_S2_i
 1137      00
 1138 05cc 488B45F8 		movq	-8(%rbp), %rax
 1139 05d0 48C70000 		movq	$_ZTVN12_GLOBAL__N_138TestThrowingTestsAreReportedAsFailuresE+16, (%rax)
 1139      000000
 1140              	.LBE18:
 1141 05d7 C9       		leave
 1142              		.cfi_def_cfa 7, 8
 1143 05d8 C3       		ret
 1144              		.cfi_endproc
 1145              	.LFE1091:
 1147              		.local	_ZN12_GLOBAL__N_146testThrowingTestsAreReportedAsFailuresInstanceE
 1148              		.comm	_ZN12_GLOBAL__N_146testThrowingTestsAreReportedAsFailuresInstanceE,56,32
 1149              		.local	_ZN12_GLOBAL__N_139adderThrowingTestsAreReportedAsFailuresE
 1150              		.comm	_ZN12_GLOBAL__N_139adderThrowingTestsAreReportedAsFailuresE,1,1
 1151              		.section	.rodata
 1152              	.LC14:
 1153 016b 7468726F 		.string	"throwing"
 1153      77696E67 
 1153      00
 1154              		.text
 1155 05d9 90       		.align 2
 1157              	_ZZNK12_GLOBAL__N_138TestThrowingTestsAreReportedAsFailures7RunImplEvEN12CrashingTestC2Ev:
 1158              	.LFB1095:
  55:TestTest.cpp  **** {
  56:TestTest.cpp  ****     class CrashingTest : public Test
  57:TestTest.cpp  ****     {
  58:TestTest.cpp  ****     public:
  59:TestTest.cpp  ****         CrashingTest() : Test("throwing") {}
 1159              		.loc 4 59 0
 1160              		.cfi_startproc
 1161 05da 55       		pushq	%rbp
 1162              		.cfi_def_cfa_offset 16
 1163              		.cfi_offset 6, -16
 1164 05db 4889E5   		movq	%rsp, %rbp
 1165              		.cfi_def_cfa_register 6
 1166 05de 4883EC10 		subq	$16, %rsp
 1167 05e2 48897DF8 		movq	%rdi, -8(%rbp)
 1168              	.LBB19:
 1169              		.loc 4 59 0
 1170 05e6 488B45F8 		movq	-8(%rbp), %rax
 1171 05ea 41B80000 		movl	$0, %r8d
 1171      0000
 1172 05f0 B9000000 		movl	$.LC3, %ecx
 1172      00
 1173 05f5 BA000000 		movl	$.LC0, %edx
 1173      00
 1174 05fa BE000000 		movl	$.LC14, %esi
 1174      00
 1175 05ff 4889C7   		movq	%rax, %rdi
 1176 0602 E8000000 		call	_ZN8UnitTest4TestC2EPKcS2_S2_i
 1176      00
 1177 0607 488B45F8 		movq	-8(%rbp), %rax
 1178 060b 48C70000 		movq	$_ZTVZNK12_GLOBAL__N_138TestThrowingTestsAreReportedAsFailures7RunImplEvE12CrashingTest+16, (
 1178      000000
 1179              	.LBE19:
 1180 0612 C9       		leave
 1181              		.cfi_def_cfa 7, 8
 1182 0613 C3       		ret
 1183              		.cfi_endproc
 1184              	.LFE1095:
 1186              		.section	.rodata
 1187              	.LC15:
 1188 0174 426C6168 		.string	"Blah"
 1188      00
 1189              		.text
 1190              		.align 2
 1192              	_ZZNK12_GLOBAL__N_138TestThrowingTestsAreReportedAsFailures7RunImplEvENK12CrashingTest7RunImplEv:
 1193              	.LFB1097:
  60:TestTest.cpp  ****         virtual void RunImpl() const
 1194              		.loc 4 60 0
 1195              		.cfi_startproc
 1196 0614 55       		pushq	%rbp
 1197              		.cfi_def_cfa_offset 16
 1198              		.cfi_offset 6, -16
 1199 0615 4889E5   		movq	%rsp, %rbp
 1200              		.cfi_def_cfa_register 6
 1201 0618 4883EC10 		subq	$16, %rsp
 1202 061c 48897DF8 		movq	%rdi, -8(%rbp)
  61:TestTest.cpp  ****         {
  62:TestTest.cpp  ****             throw "Blah";
 1203              		.loc 4 62 0
 1204 0620 BF080000 		movl	$8, %edi
 1204      00
 1205 0625 E8000000 		call	__cxa_allocate_exception
 1205      00
 1206 062a 48C70000 		movq	$.LC15, (%rax)
 1206      000000
 1207 0631 BA000000 		movl	$0, %edx
 1207      00
 1208 0636 BE000000 		movl	$_ZTIPKc, %esi
 1208      00
 1209 063b 4889C7   		movq	%rax, %rdi
 1210 063e E8000000 		call	__cxa_throw
 1210      00
 1211              		.cfi_endproc
 1212              	.LFE1097:
 1214 0643 90       		.align 2
 1216              	_ZNK12_GLOBAL__N_138TestThrowingTestsAreReportedAsFailures7RunImplEv:
 1217              	.LFB1093:
  55:TestTest.cpp  ****     class CrashingTest : public Test
 1218              		.loc 4 55 0
 1219              		.cfi_startproc
 1220              		.cfi_personality 0x3,__gxx_personality_v0
 1221              		.cfi_lsda 0x3,.LLSDA1093
 1222 0644 55       		pushq	%rbp
 1223              		.cfi_def_cfa_offset 16
 1224              		.cfi_offset 6, -16
 1225 0645 4889E5   		movq	%rsp, %rbp
 1226              		.cfi_def_cfa_register 6
 1227 0648 53       		pushq	%rbx
 1228 0649 4881EC98 		subq	$152, %rsp
 1228      000000
 1229              		.cfi_offset 3, -24
 1230 0650 4889BD68 		movq	%rdi, -152(%rbp)
 1230      FFFFFF
  55:TestTest.cpp  ****     class CrashingTest : public Test
 1231              		.loc 4 55 0
 1232 0657 64488B04 		movq	%fs:40, %rax
 1232      25280000 
 1232      00
 1233 0660 488945E8 		movq	%rax, -24(%rbp)
 1234 0664 31C0     		xorl	%eax, %eax
 1235              	.LBB20:
  63:TestTest.cpp  ****         }
  64:TestTest.cpp  ****     };
  65:TestTest.cpp  ****  
  66:TestTest.cpp  ****     TestResults results;
 1236              		.loc 4 66 0
 1237 0666 488D4590 		leaq	-112(%rbp), %rax
 1238 066a BE000000 		movl	$0, %esi
 1238      00
 1239 066f 4889C7   		movq	%rax, %rdi
 1240              	.LEHB32:
 1241 0672 E8000000 		call	_ZN8UnitTest11TestResultsC1EPNS_12TestReporterE
 1241      00
 1242              	.LBB21:
  67:TestTest.cpp  **** 	{
  68:TestTest.cpp  **** 		ScopedCurrentTest scopedResult(results);
 1243              		.loc 4 68 0
 1244 0677 488D4D90 		leaq	-112(%rbp), %rcx
 1245 067b 488D4580 		leaq	-128(%rbp), %rax
 1246 067f BA000000 		movl	$0, %edx
 1246      00
 1247 0684 4889CE   		movq	%rcx, %rsi
 1248 0687 4889C7   		movq	%rax, %rdi
 1249 068a E8000000 		call	_ZN17ScopedCurrentTestC1ERN8UnitTest11TestResultsEPKNS0_11TestDetailsE
 1249      00
 1250              	.LEHE32:
  69:TestTest.cpp  **** 		CrashingTest().Run();
 1251              		.loc 4 69 0
 1252 068f 488D45B0 		leaq	-80(%rbp), %rax
 1253 0693 4889C7   		movq	%rax, %rdi
 1254              	.LEHB33:
 1255 0696 E83FFFFF 		call	_ZZNK12_GLOBAL__N_138TestThrowingTestsAreReportedAsFailures7RunImplEvEN12CrashingTestC2Ev
 1255      FF
 1256              	.LEHE33:
 1257              		.loc 4 69 0 is_stmt 0 discriminator 2
 1258 069b 488D45B0 		leaq	-80(%rbp), %rax
 1259 069f 4889C7   		movq	%rax, %rdi
 1260              	.LEHB34:
 1261 06a2 E8000000 		call	_ZN8UnitTest4Test3RunEv
 1261      00
 1262              	.LEHE34:
 1263              		.loc 4 69 0 discriminator 4
 1264 06a7 488D45B0 		leaq	-80(%rbp), %rax
 1265 06ab 4889C7   		movq	%rax, %rdi
 1266              	.LEHB35:
 1267 06ae E89D0B00 		call	_ZZNK12_GLOBAL__N_138TestThrowingTestsAreReportedAsFailures7RunImplEvEN12CrashingTestD2Ev
 1267      00
 1268              	.LEHE35:
 1269              		.loc 4 69 0 discriminator 6
 1270 06b3 488D4580 		leaq	-128(%rbp), %rax
 1271 06b7 4889C7   		movq	%rax, %rdi
 1272              	.LEHB36:
 1273 06ba E8000000 		call	_ZN17ScopedCurrentTestD1Ev
 1273      00
 1274              	.LEHE36:
 1275              	.LEHB37:
 1276              	.LBE21:
  70:TestTest.cpp  **** 	}
  71:TestTest.cpp  **** 
  72:TestTest.cpp  **** 	CHECK_EQUAL(1, results.GetFailureCount());
 1277              		.loc 4 72 0 is_stmt 1 discriminator 6
 1278 06bf E8000000 		call	_ZN8UnitTest11CurrentTest7DetailsEv
 1278      00
 1279 06c4 488B08   		movq	(%rax), %rcx
 1280 06c7 488D45B0 		leaq	-80(%rbp), %rax
 1281 06cb BA480000 		movl	$72, %edx
 1281      00
 1282 06d0 4889CE   		movq	%rcx, %rsi
 1283 06d3 4889C7   		movq	%rax, %rdi
 1284 06d6 E8000000 		call	_ZN8UnitTest11TestDetailsC1ERKS0_i
 1284      00
 1285              		.loc 4 72 0 is_stmt 0 discriminator 2
 1286 06db 488D4590 		leaq	-112(%rbp), %rax
 1287 06df 4889C7   		movq	%rax, %rdi
 1288 06e2 E8000000 		call	_ZNK8UnitTest11TestResults15GetFailureCountEv
 1288      00
 1289 06e7 894580   		movl	%eax, -128(%rbp)
 1290 06ea C7857CFF 		movl	$1, -132(%rbp)
 1290      FFFF0100 
 1290      0000
 1291 06f4 E8000000 		call	_ZN8UnitTest11CurrentTest7ResultsEv
 1291      00
 1292              		.loc 4 72 0 discriminator 4
 1293 06f9 488B00   		movq	(%rax), %rax
 1294 06fc 488D4DB0 		leaq	-80(%rbp), %rcx
 1295 0700 488D5580 		leaq	-128(%rbp), %rdx
 1296 0704 488DB57C 		leaq	-132(%rbp), %rsi
 1296      FFFFFF
 1297 070b 4889C7   		movq	%rax, %rdi
 1298 070e E8000000 		call	_ZN8UnitTest10CheckEqualIiiEEvRNS_11TestResultsERKT_RKT0_RKNS_11TestDetailsE
 1298      00
 1299              	.LEHE37:
 1300              	.LBE20:
  73:TestTest.cpp  **** }
 1301              		.loc 4 73 0 is_stmt 1
 1302 0713 E9830000 		jmp	.L69
 1302      00
 1303              	.L66:
 1304 0718 4889C3   		movq	%rax, %rbx
 1305              	.LBB23:
 1306              	.LBB22:
  69:TestTest.cpp  **** 		CrashingTest().Run();
 1307              		.loc 4 69 0
 1308 071b 488D45B0 		leaq	-80(%rbp), %rax
 1309 071f 4889C7   		movq	%rax, %rdi
 1310 0722 E8290B00 		call	_ZZNK12_GLOBAL__N_138TestThrowingTestsAreReportedAsFailures7RunImplEvEN12CrashingTestD2Ev
 1310      00
 1311 0727 EB03     		jmp	.L60
 1312              	.L65:
 1313 0729 4889C3   		movq	%rax, %rbx
 1314              	.L60:
  69:TestTest.cpp  **** 		CrashingTest().Run();
 1315              		.loc 4 69 0 is_stmt 0 discriminator 5
 1316 072c 488D4580 		leaq	-128(%rbp), %rax
 1317 0730 4889C7   		movq	%rax, %rdi
 1318 0733 E8000000 		call	_ZN17ScopedCurrentTestD1Ev
 1318      00
 1319 0738 4889D8   		movq	%rbx, %rax
 1320 073b 4889C7   		movq	%rax, %rdi
 1321              	.LEHB38:
 1322 073e E8000000 		call	_Unwind_Resume
 1322      00
 1323              	.LEHE38:
 1324              	.L68:
 1325 0743 4889C3   		movq	%rax, %rbx
 1326              	.LBE22:
  72:TestTest.cpp  **** }
 1327              		.loc 4 72 0 is_stmt 1
 1328 0746 E8000000 		call	__cxa_end_catch
 1328      00
 1329 074b 4889D8   		movq	%rbx, %rax
 1330 074e 4889C7   		movq	%rax, %rdi
 1331              	.LEHB39:
 1332 0751 E8000000 		call	_Unwind_Resume
 1332      00
 1333              	.LEHE39:
 1334              	.L67:
 1335 0756 4889C7   		movq	%rax, %rdi
 1336 0759 E8000000 		call	__cxa_begin_catch
 1336      00
 1337              	.LEHB40:
 1338 075e E8000000 		call	_ZN8UnitTest11CurrentTest7DetailsEv
 1338      00
 1339 0763 488B08   		movq	(%rax), %rcx
 1340 0766 488D45B0 		leaq	-80(%rbp), %rax
 1341 076a BA480000 		movl	$72, %edx
 1341      00
 1342 076f 4889CE   		movq	%rcx, %rsi
 1343 0772 4889C7   		movq	%rax, %rdi
 1344 0775 E8000000 		call	_ZN8UnitTest11TestDetailsC1ERKS0_i
 1344      00
  72:TestTest.cpp  **** }
 1345              		.loc 4 72 0 is_stmt 0 discriminator 12
 1346 077a E8000000 		call	_ZN8UnitTest11CurrentTest7ResultsEv
 1346      00
 1347 077f 488B00   		movq	(%rax), %rax
 1348 0782 488D4DB0 		leaq	-80(%rbp), %rcx
 1349 0786 BA000000 		movl	$.LC12, %edx
 1349      00
 1350 078b 4889CE   		movq	%rcx, %rsi
 1351 078e 4889C7   		movq	%rax, %rdi
 1352 0791 E8000000 		call	_ZN8UnitTest11TestResults13OnTestFailureERKNS_11TestDetailsEPKc
 1352      00
 1353              	.LEHE40:
 1354              	.LEHB41:
  72:TestTest.cpp  **** }
 1355              		.loc 4 72 0 discriminator 16
 1356 0796 E8000000 		call	__cxa_end_catch
 1356      00
 1357              	.LEHE41:
 1358              	.L69:
 1359              	.LBE23:
 1360              		.loc 4 73 0 is_stmt 1
 1361 079b 90       		nop
 1362 079c 488B45E8 		movq	-24(%rbp), %rax
 1363 07a0 64483304 		xorq	%fs:40, %rax
 1363      25280000 
 1363      00
 1364 07a9 7405     		je	.L64
 1365 07ab E8000000 		call	__stack_chk_fail
 1365      00
 1366              	.L64:
 1367 07b0 4881C498 		addq	$152, %rsp
 1367      000000
 1368 07b7 5B       		popq	%rbx
 1369 07b8 5D       		popq	%rbp
 1370              		.cfi_def_cfa 7, 8
 1371 07b9 C3       		ret
 1372              		.cfi_endproc
 1373              	.LFE1093:
 1374              		.section	.gcc_except_table
 1375              		.align 4
 1376              	.LLSDA1093:
 1377 00b8 FF       		.byte	0xff
 1378 00b9 03       		.byte	0x3
 1379 00ba 39       		.uleb128 .LLSDATT1093-.LLSDATTD1093
 1380              	.LLSDATTD1093:
 1381 00bb 01       		.byte	0x1
 1382 00bc 31       		.uleb128 .LLSDACSE1093-.LLSDACSB1093
 1383              	.LLSDACSB1093:
 1384 00bd 2E       		.uleb128 .LEHB32-.LFB1093
 1385 00be 1D       		.uleb128 .LEHE32-.LEHB32
 1386 00bf 00       		.uleb128 0
 1387 00c0 00       		.uleb128 0
 1388 00c1 52       		.uleb128 .LEHB33-.LFB1093
 1389 00c2 05       		.uleb128 .LEHE33-.LEHB33
 1390 00c3 E501     		.uleb128 .L65-.LFB1093
 1391 00c5 00       		.uleb128 0
 1392 00c6 5E       		.uleb128 .LEHB34-.LFB1093
 1393 00c7 05       		.uleb128 .LEHE34-.LEHB34
 1394 00c8 D401     		.uleb128 .L66-.LFB1093
 1395 00ca 00       		.uleb128 0
 1396 00cb 6A       		.uleb128 .LEHB35-.LFB1093
 1397 00cc 05       		.uleb128 .LEHE35-.LEHB35
 1398 00cd E501     		.uleb128 .L65-.LFB1093
 1399 00cf 00       		.uleb128 0
 1400 00d0 76       		.uleb128 .LEHB36-.LFB1093
 1401 00d1 05       		.uleb128 .LEHE36-.LEHB36
 1402 00d2 00       		.uleb128 0
 1403 00d3 00       		.uleb128 0
 1404 00d4 7B       		.uleb128 .LEHB37-.LFB1093
 1405 00d5 54       		.uleb128 .LEHE37-.LEHB37
 1406 00d6 9202     		.uleb128 .L67-.LFB1093
 1407 00d8 01       		.uleb128 0x1
 1408 00d9 FA01     		.uleb128 .LEHB38-.LFB1093
 1409 00db 05       		.uleb128 .LEHE38-.LEHB38
 1410 00dc 00       		.uleb128 0
 1411 00dd 00       		.uleb128 0
 1412 00de 8D02     		.uleb128 .LEHB39-.LFB1093
 1413 00e0 05       		.uleb128 .LEHE39-.LEHB39
 1414 00e1 00       		.uleb128 0
 1415 00e2 00       		.uleb128 0
 1416 00e3 9A02     		.uleb128 .LEHB40-.LFB1093
 1417 00e5 38       		.uleb128 .LEHE40-.LEHB40
 1418 00e6 FF01     		.uleb128 .L68-.LFB1093
 1419 00e8 00       		.uleb128 0
 1420 00e9 D202     		.uleb128 .LEHB41-.LFB1093
 1421 00eb 05       		.uleb128 .LEHE41-.LEHB41
 1422 00ec 00       		.uleb128 0
 1423 00ed 00       		.uleb128 0
 1424              	.LLSDACSE1093:
 1425 00ee 01       		.byte	0x1
 1426 00ef 00       		.byte	0
 1427              		.align 4
 1428 00f0 00000000 		.long	0
 1429              	
 1430              	.LLSDATT1093:
 1431              		.text
 1433              		.section	.rodata
 1434 0179 00000000 		.align 8
 1434      000000
 1435              	.LC16:
 1436 0180 43726173 		.string	"CrashingTestsAreReportedAsFailures"
 1436      68696E67 
 1436      54657374 
 1436      73417265 
 1436      5265706F 
 1437              		.text
 1438              		.align 2
 1440              	_ZN12_GLOBAL__N_138TestCrashingTestsAreReportedAsFailuresC2Ev:
 1441              	.LFB1099:
  74:TestTest.cpp  **** 
  75:TestTest.cpp  **** 
  76:TestTest.cpp  **** #ifndef UNITTEST_MINGW
  77:TestTest.cpp  **** TEST(CrashingTestsAreReportedAsFailures)
 1442              		.loc 4 77 0
 1443              		.cfi_startproc
 1444 07ba 55       		pushq	%rbp
 1445              		.cfi_def_cfa_offset 16
 1446              		.cfi_offset 6, -16
 1447 07bb 4889E5   		movq	%rsp, %rbp
 1448              		.cfi_def_cfa_register 6
 1449 07be 4883EC10 		subq	$16, %rsp
 1450 07c2 48897DF8 		movq	%rdi, -8(%rbp)
 1451              	.LBB24:
 1452              		.loc 4 77 0
 1453 07c6 E8000000 		call	_ZN13UnitTestSuite12GetSuiteNameEv
 1453      00
 1454 07cb 4889C2   		movq	%rax, %rdx
 1455 07ce 488B45F8 		movq	-8(%rbp), %rax
 1456 07d2 41B84D00 		movl	$77, %r8d
 1456      0000
 1457 07d8 B9000000 		movl	$.LC1, %ecx
 1457      00
 1458 07dd BE000000 		movl	$.LC16, %esi
 1458      00
 1459 07e2 4889C7   		movq	%rax, %rdi
 1460 07e5 E8000000 		call	_ZN8UnitTest4TestC2EPKcS2_S2_i
 1460      00
 1461 07ea 488B45F8 		movq	-8(%rbp), %rax
 1462 07ee 48C70000 		movq	$_ZTVN12_GLOBAL__N_138TestCrashingTestsAreReportedAsFailuresE+16, (%rax)
 1462      000000
 1463              	.LBE24:
 1464 07f5 C9       		leave
 1465              		.cfi_def_cfa 7, 8
 1466 07f6 C3       		ret
 1467              		.cfi_endproc
 1468              	.LFE1099:
 1470              		.local	_ZN12_GLOBAL__N_146testCrashingTestsAreReportedAsFailuresInstanceE
 1471              		.comm	_ZN12_GLOBAL__N_146testCrashingTestsAreReportedAsFailuresInstanceE,56,32
 1472              		.local	_ZN12_GLOBAL__N_139adderCrashingTestsAreReportedAsFailuresE
 1473              		.comm	_ZN12_GLOBAL__N_139adderCrashingTestsAreReportedAsFailuresE,1,1
 1474              		.section	.rodata
 1475              	.LC17:
 1476 01a3 63726173 		.string	"crashing"
 1476      68696E67 
 1476      00
 1477              		.text
 1478 07f7 90       		.align 2
 1480              	_ZZNK12_GLOBAL__N_138TestCrashingTestsAreReportedAsFailures7RunImplEvEN12CrashingTestC2Ev:
 1481              	.LFB1103:
  78:TestTest.cpp  **** {
  79:TestTest.cpp  ****     class CrashingTest : public Test
  80:TestTest.cpp  ****     {
  81:TestTest.cpp  ****     public:
  82:TestTest.cpp  ****         CrashingTest() : Test("crashing") {}
 1482              		.loc 4 82 0
 1483              		.cfi_startproc
 1484 07f8 55       		pushq	%rbp
 1485              		.cfi_def_cfa_offset 16
 1486              		.cfi_offset 6, -16
 1487 07f9 4889E5   		movq	%rsp, %rbp
 1488              		.cfi_def_cfa_register 6
 1489 07fc 4883EC10 		subq	$16, %rsp
 1490 0800 48897DF8 		movq	%rdi, -8(%rbp)
 1491              	.LBB25:
 1492              		.loc 4 82 0
 1493 0804 488B45F8 		movq	-8(%rbp), %rax
 1494 0808 41B80000 		movl	$0, %r8d
 1494      0000
 1495 080e B9000000 		movl	$.LC3, %ecx
 1495      00
 1496 0813 BA000000 		movl	$.LC0, %edx
 1496      00
 1497 0818 BE000000 		movl	$.LC17, %esi
 1497      00
 1498 081d 4889C7   		movq	%rax, %rdi
 1499 0820 E8000000 		call	_ZN8UnitTest4TestC2EPKcS2_S2_i
 1499      00
 1500 0825 488B45F8 		movq	-8(%rbp), %rax
 1501 0829 48C70000 		movq	$_ZTVZNK12_GLOBAL__N_138TestCrashingTestsAreReportedAsFailures7RunImplEvE12CrashingTest+16, (
 1501      000000
 1502              	.LBE25:
 1503 0830 C9       		leave
 1504              		.cfi_def_cfa 7, 8
 1505 0831 C3       		ret
 1506              		.cfi_endproc
 1507              	.LFE1103:
 1509              		.align 2
 1511              	_ZZNK12_GLOBAL__N_138TestCrashingTestsAreReportedAsFailures7RunImplEvENK12CrashingTest7RunImplEv:
 1512              	.LFB1105:
  83:TestTest.cpp  ****         virtual void RunImpl() const
 1513              		.loc 4 83 0
 1514              		.cfi_startproc
 1515 0832 55       		pushq	%rbp
 1516              		.cfi_def_cfa_offset 16
 1517              		.cfi_offset 6, -16
 1518 0833 4889E5   		movq	%rsp, %rbp
 1519              		.cfi_def_cfa_register 6
 1520 0836 4883EC10 		subq	$16, %rsp
 1521 083a 48897DF8 		movq	%rdi, -8(%rbp)
  84:TestTest.cpp  ****         {
  85:TestTest.cpp  ****             reinterpret_cast< void (*)() >(0)();
 1522              		.loc 4 85 0
 1523 083e B8000000 		movl	$0, %eax
 1523      00
 1524 0843 FFD0     		call	*%rax
  86:TestTest.cpp  ****         }
 1525              		.loc 4 86 0
 1526 0845 C9       		leave
 1527              		.cfi_def_cfa 7, 8
 1528 0846 C3       		ret
 1529              		.cfi_endproc
 1530              	.LFE1105:
 1532 0847 90       		.align 2
 1534              	_ZNK12_GLOBAL__N_138TestCrashingTestsAreReportedAsFailures7RunImplEv:
 1535              	.LFB1101:
  78:TestTest.cpp  ****     class CrashingTest : public Test
 1536              		.loc 4 78 0
 1537              		.cfi_startproc
 1538              		.cfi_personality 0x3,__gxx_personality_v0
 1539              		.cfi_lsda 0x3,.LLSDA1101
 1540 0848 55       		pushq	%rbp
 1541              		.cfi_def_cfa_offset 16
 1542              		.cfi_offset 6, -16
 1543 0849 4889E5   		movq	%rsp, %rbp
 1544              		.cfi_def_cfa_register 6
 1545 084c 53       		pushq	%rbx
 1546 084d 4881EC98 		subq	$152, %rsp
 1546      000000
 1547              		.cfi_offset 3, -24
 1548 0854 4889BD68 		movq	%rdi, -152(%rbp)
 1548      FFFFFF
  78:TestTest.cpp  ****     class CrashingTest : public Test
 1549              		.loc 4 78 0
 1550 085b 64488B04 		movq	%fs:40, %rax
 1550      25280000 
 1550      00
 1551 0864 488945E8 		movq	%rax, -24(%rbp)
 1552 0868 31C0     		xorl	%eax, %eax
 1553              	.LBB26:
  87:TestTest.cpp  ****     };
  88:TestTest.cpp  **** 
  89:TestTest.cpp  ****     TestResults results;
 1554              		.loc 4 89 0
 1555 086a 488D4590 		leaq	-112(%rbp), %rax
 1556 086e BE000000 		movl	$0, %esi
 1556      00
 1557 0873 4889C7   		movq	%rax, %rdi
 1558              	.LEHB42:
 1559 0876 E8000000 		call	_ZN8UnitTest11TestResultsC1EPNS_12TestReporterE
 1559      00
 1560              	.LBB27:
  90:TestTest.cpp  **** 	{
  91:TestTest.cpp  **** 		ScopedCurrentTest scopedResult(results);
 1561              		.loc 4 91 0
 1562 087b 488D4D90 		leaq	-112(%rbp), %rcx
 1563 087f 488D4580 		leaq	-128(%rbp), %rax
 1564 0883 BA000000 		movl	$0, %edx
 1564      00
 1565 0888 4889CE   		movq	%rcx, %rsi
 1566 088b 4889C7   		movq	%rax, %rdi
 1567 088e E8000000 		call	_ZN17ScopedCurrentTestC1ERN8UnitTest11TestResultsEPKNS0_11TestDetailsE
 1567      00
 1568              	.LEHE42:
  92:TestTest.cpp  **** 		CrashingTest().Run();
 1569              		.loc 4 92 0
 1570 0893 488D45B0 		leaq	-80(%rbp), %rax
 1571 0897 4889C7   		movq	%rax, %rdi
 1572              	.LEHB43:
 1573 089a E859FFFF 		call	_ZZNK12_GLOBAL__N_138TestCrashingTestsAreReportedAsFailures7RunImplEvEN12CrashingTestC2Ev
 1573      FF
 1574              	.LEHE43:
 1575              		.loc 4 92 0 is_stmt 0 discriminator 2
 1576 089f 488D45B0 		leaq	-80(%rbp), %rax
 1577 08a3 4889C7   		movq	%rax, %rdi
 1578              	.LEHB44:
 1579 08a6 E8000000 		call	_ZN8UnitTest4Test3RunEv
 1579      00
 1580              	.LEHE44:
 1581              		.loc 4 92 0 discriminator 4
 1582 08ab 488D45B0 		leaq	-80(%rbp), %rax
 1583 08af 4889C7   		movq	%rax, %rdi
 1584              	.LEHB45:
 1585 08b2 E8D90800 		call	_ZZNK12_GLOBAL__N_138TestCrashingTestsAreReportedAsFailures7RunImplEvEN12CrashingTestD2Ev
 1585      00
 1586              	.LEHE45:
 1587              		.loc 4 92 0 discriminator 6
 1588 08b7 488D4580 		leaq	-128(%rbp), %rax
 1589 08bb 4889C7   		movq	%rax, %rdi
 1590              	.LEHB46:
 1591 08be E8000000 		call	_ZN17ScopedCurrentTestD1Ev
 1591      00
 1592              	.LEHE46:
 1593              	.LEHB47:
 1594              	.LBE27:
  93:TestTest.cpp  **** 	}
  94:TestTest.cpp  **** 
  95:TestTest.cpp  **** 	CHECK_EQUAL(1, results.GetFailureCount());
 1595              		.loc 4 95 0 is_stmt 1 discriminator 6
 1596 08c3 E8000000 		call	_ZN8UnitTest11CurrentTest7DetailsEv
 1596      00
 1597 08c8 488B08   		movq	(%rax), %rcx
 1598 08cb 488D45B0 		leaq	-80(%rbp), %rax
 1599 08cf BA5F0000 		movl	$95, %edx
 1599      00
 1600 08d4 4889CE   		movq	%rcx, %rsi
 1601 08d7 4889C7   		movq	%rax, %rdi
 1602 08da E8000000 		call	_ZN8UnitTest11TestDetailsC1ERKS0_i
 1602      00
 1603              		.loc 4 95 0 is_stmt 0 discriminator 2
 1604 08df 488D4590 		leaq	-112(%rbp), %rax
 1605 08e3 4889C7   		movq	%rax, %rdi
 1606 08e6 E8000000 		call	_ZNK8UnitTest11TestResults15GetFailureCountEv
 1606      00
 1607 08eb 894580   		movl	%eax, -128(%rbp)
 1608 08ee C7857CFF 		movl	$1, -132(%rbp)
 1608      FFFF0100 
 1608      0000
 1609 08f8 E8000000 		call	_ZN8UnitTest11CurrentTest7ResultsEv
 1609      00
 1610              		.loc 4 95 0 discriminator 4
 1611 08fd 488B00   		movq	(%rax), %rax
 1612 0900 488D4DB0 		leaq	-80(%rbp), %rcx
 1613 0904 488D5580 		leaq	-128(%rbp), %rdx
 1614 0908 488DB57C 		leaq	-132(%rbp), %rsi
 1614      FFFFFF
 1615 090f 4889C7   		movq	%rax, %rdi
 1616 0912 E8000000 		call	_ZN8UnitTest10CheckEqualIiiEEvRNS_11TestResultsERKT_RKT0_RKNS_11TestDetailsE
 1616      00
 1617              	.LEHE47:
 1618              	.LBE26:
  96:TestTest.cpp  **** }
 1619              		.loc 4 96 0 is_stmt 1
 1620 0917 E9830000 		jmp	.L84
 1620      00
 1621              	.L81:
 1622 091c 4889C3   		movq	%rax, %rbx
 1623              	.LBB29:
 1624              	.LBB28:
  92:TestTest.cpp  **** 		CrashingTest().Run();
 1625              		.loc 4 92 0
 1626 091f 488D45B0 		leaq	-80(%rbp), %rax
 1627 0923 4889C7   		movq	%rax, %rdi
 1628 0926 E8650800 		call	_ZZNK12_GLOBAL__N_138TestCrashingTestsAreReportedAsFailures7RunImplEvEN12CrashingTestD2Ev
 1628      00
 1629 092b EB03     		jmp	.L75
 1630              	.L80:
 1631 092d 4889C3   		movq	%rax, %rbx
 1632              	.L75:
  92:TestTest.cpp  **** 		CrashingTest().Run();
 1633              		.loc 4 92 0 is_stmt 0 discriminator 5
 1634 0930 488D4580 		leaq	-128(%rbp), %rax
 1635 0934 4889C7   		movq	%rax, %rdi
 1636 0937 E8000000 		call	_ZN17ScopedCurrentTestD1Ev
 1636      00
 1637 093c 4889D8   		movq	%rbx, %rax
 1638 093f 4889C7   		movq	%rax, %rdi
 1639              	.LEHB48:
 1640 0942 E8000000 		call	_Unwind_Resume
 1640      00
 1641              	.LEHE48:
 1642              	.L83:
 1643 0947 4889C3   		movq	%rax, %rbx
 1644              	.LBE28:
  95:TestTest.cpp  **** }
 1645              		.loc 4 95 0 is_stmt 1
 1646 094a E8000000 		call	__cxa_end_catch
 1646      00
 1647 094f 4889D8   		movq	%rbx, %rax
 1648 0952 4889C7   		movq	%rax, %rdi
 1649              	.LEHB49:
 1650 0955 E8000000 		call	_Unwind_Resume
 1650      00
 1651              	.LEHE49:
 1652              	.L82:
 1653 095a 4889C7   		movq	%rax, %rdi
 1654 095d E8000000 		call	__cxa_begin_catch
 1654      00
 1655              	.LEHB50:
 1656 0962 E8000000 		call	_ZN8UnitTest11CurrentTest7DetailsEv
 1656      00
 1657 0967 488B08   		movq	(%rax), %rcx
 1658 096a 488D45B0 		leaq	-80(%rbp), %rax
 1659 096e BA5F0000 		movl	$95, %edx
 1659      00
 1660 0973 4889CE   		movq	%rcx, %rsi
 1661 0976 4889C7   		movq	%rax, %rdi
 1662 0979 E8000000 		call	_ZN8UnitTest11TestDetailsC1ERKS0_i
 1662      00
  95:TestTest.cpp  **** }
 1663              		.loc 4 95 0 is_stmt 0 discriminator 12
 1664 097e E8000000 		call	_ZN8UnitTest11CurrentTest7ResultsEv
 1664      00
 1665 0983 488B00   		movq	(%rax), %rax
 1666 0986 488D4DB0 		leaq	-80(%rbp), %rcx
 1667 098a BA000000 		movl	$.LC12, %edx
 1667      00
 1668 098f 4889CE   		movq	%rcx, %rsi
 1669 0992 4889C7   		movq	%rax, %rdi
 1670 0995 E8000000 		call	_ZN8UnitTest11TestResults13OnTestFailureERKNS_11TestDetailsEPKc
 1670      00
 1671              	.LEHE50:
 1672              	.LEHB51:
  95:TestTest.cpp  **** }
 1673              		.loc 4 95 0 discriminator 16
 1674 099a E8000000 		call	__cxa_end_catch
 1674      00
 1675              	.LEHE51:
 1676              	.L84:
 1677              	.LBE29:
 1678              		.loc 4 96 0 is_stmt 1
 1679 099f 90       		nop
 1680 09a0 488B45E8 		movq	-24(%rbp), %rax
 1681 09a4 64483304 		xorq	%fs:40, %rax
 1681      25280000 
 1681      00
 1682 09ad 7405     		je	.L79
 1683 09af E8000000 		call	__stack_chk_fail
 1683      00
 1684              	.L79:
 1685 09b4 4881C498 		addq	$152, %rsp
 1685      000000
 1686 09bb 5B       		popq	%rbx
 1687 09bc 5D       		popq	%rbp
 1688              		.cfi_def_cfa 7, 8
 1689 09bd C3       		ret
 1690              		.cfi_endproc
 1691              	.LFE1101:
 1692              		.section	.gcc_except_table
 1693              		.align 4
 1694              	.LLSDA1101:
 1695 00f4 FF       		.byte	0xff
 1696 00f5 03       		.byte	0x3
 1697 00f6 39       		.uleb128 .LLSDATT1101-.LLSDATTD1101
 1698              	.LLSDATTD1101:
 1699 00f7 01       		.byte	0x1
 1700 00f8 31       		.uleb128 .LLSDACSE1101-.LLSDACSB1101
 1701              	.LLSDACSB1101:
 1702 00f9 2E       		.uleb128 .LEHB42-.LFB1101
 1703 00fa 1D       		.uleb128 .LEHE42-.LEHB42
 1704 00fb 00       		.uleb128 0
 1705 00fc 00       		.uleb128 0
 1706 00fd 52       		.uleb128 .LEHB43-.LFB1101
 1707 00fe 05       		.uleb128 .LEHE43-.LEHB43
 1708 00ff E501     		.uleb128 .L80-.LFB1101
 1709 0101 00       		.uleb128 0
 1710 0102 5E       		.uleb128 .LEHB44-.LFB1101
 1711 0103 05       		.uleb128 .LEHE44-.LEHB44
 1712 0104 D401     		.uleb128 .L81-.LFB1101
 1713 0106 00       		.uleb128 0
 1714 0107 6A       		.uleb128 .LEHB45-.LFB1101
 1715 0108 05       		.uleb128 .LEHE45-.LEHB45
 1716 0109 E501     		.uleb128 .L80-.LFB1101
 1717 010b 00       		.uleb128 0
 1718 010c 76       		.uleb128 .LEHB46-.LFB1101
 1719 010d 05       		.uleb128 .LEHE46-.LEHB46
 1720 010e 00       		.uleb128 0
 1721 010f 00       		.uleb128 0
 1722 0110 7B       		.uleb128 .LEHB47-.LFB1101
 1723 0111 54       		.uleb128 .LEHE47-.LEHB47
 1724 0112 9202     		.uleb128 .L82-.LFB1101
 1725 0114 01       		.uleb128 0x1
 1726 0115 FA01     		.uleb128 .LEHB48-.LFB1101
 1727 0117 05       		.uleb128 .LEHE48-.LEHB48
 1728 0118 00       		.uleb128 0
 1729 0119 00       		.uleb128 0
 1730 011a 8D02     		.uleb128 .LEHB49-.LFB1101
 1731 011c 05       		.uleb128 .LEHE49-.LEHB49
 1732 011d 00       		.uleb128 0
 1733 011e 00       		.uleb128 0
 1734 011f 9A02     		.uleb128 .LEHB50-.LFB1101
 1735 0121 38       		.uleb128 .LEHE50-.LEHB50
 1736 0122 FF01     		.uleb128 .L83-.LFB1101
 1737 0124 00       		.uleb128 0
 1738 0125 D202     		.uleb128 .LEHB51-.LFB1101
 1739 0127 05       		.uleb128 .LEHE51-.LEHB51
 1740 0128 00       		.uleb128 0
 1741 0129 00       		.uleb128 0
 1742              	.LLSDACSE1101:
 1743 012a 01       		.byte	0x1
 1744 012b 00       		.byte	0
 1745              		.align 4
 1746 012c 00000000 		.long	0
 1747              	
 1748              	.LLSDATT1101:
 1749              		.text
 1751              		.section	.rodata
 1752 01ac 00000000 		.align 8
 1753              	.LC18:
 1754 01b0 54657374 		.string	"TestWithUnspecifiedSuiteGetsDefaultSuite"
 1754      57697468 
 1754      556E7370 
 1754      65636966 
 1754      69656453 
 1755              		.text
 1756              		.align 2
 1758              	_ZN12_GLOBAL__N_144TestTestWithUnspecifiedSuiteGetsDefaultSuiteC2Ev:
 1759              	.LFB1107:
  97:TestTest.cpp  **** #endif
  98:TestTest.cpp  **** 
  99:TestTest.cpp  **** TEST(TestWithUnspecifiedSuiteGetsDefaultSuite)
 1760              		.loc 4 99 0
 1761              		.cfi_startproc
 1762 09be 55       		pushq	%rbp
 1763              		.cfi_def_cfa_offset 16
 1764              		.cfi_offset 6, -16
 1765 09bf 4889E5   		movq	%rsp, %rbp
 1766              		.cfi_def_cfa_register 6
 1767 09c2 4883EC10 		subq	$16, %rsp
 1768 09c6 48897DF8 		movq	%rdi, -8(%rbp)
 1769              	.LBB30:
 1770              		.loc 4 99 0
 1771 09ca E8000000 		call	_ZN13UnitTestSuite12GetSuiteNameEv
 1771      00
 1772 09cf 4889C2   		movq	%rax, %rdx
 1773 09d2 488B45F8 		movq	-8(%rbp), %rax
 1774 09d6 41B86300 		movl	$99, %r8d
 1774      0000
 1775 09dc B9000000 		movl	$.LC1, %ecx
 1775      00
 1776 09e1 BE000000 		movl	$.LC18, %esi
 1776      00
 1777 09e6 4889C7   		movq	%rax, %rdi
 1778 09e9 E8000000 		call	_ZN8UnitTest4TestC2EPKcS2_S2_i
 1778      00
 1779 09ee 488B45F8 		movq	-8(%rbp), %rax
 1780 09f2 48C70000 		movq	$_ZTVN12_GLOBAL__N_144TestTestWithUnspecifiedSuiteGetsDefaultSuiteE+16, (%rax)
 1780      000000
 1781              	.LBE30:
 1782 09f9 C9       		leave
 1783              		.cfi_def_cfa 7, 8
 1784 09fa C3       		ret
 1785              		.cfi_endproc
 1786              	.LFE1107:
 1788              		.local	_ZN12_GLOBAL__N_152testTestWithUnspecifiedSuiteGetsDefaultSuiteInstanceE
 1789              		.comm	_ZN12_GLOBAL__N_152testTestWithUnspecifiedSuiteGetsDefaultSuiteInstanceE,56,32
 1790              		.local	_ZN12_GLOBAL__N_145adderTestWithUnspecifiedSuiteGetsDefaultSuiteE
 1791              		.comm	_ZN12_GLOBAL__N_145adderTestWithUnspecifiedSuiteGetsDefaultSuiteE,1,1
 1792              		.section	.rodata
 1793              	.LC19:
 1794 01d9 74657374 		.string	"test"
 1794      00
 1795 01de 0000     		.align 8
 1796              	.LC20:
 1797 01e0 74657374 		.string	"test.m_details.suiteName != NULL"
 1797      2E6D5F64 
 1797      65746169 
 1797      6C732E73 
 1797      75697465 
 1798 0201 00000000 		.align 8
 1798      000000
 1799              	.LC21:
 1800 0208 556E6861 		.string	"Unhandled exception in CHECK(test.m_details.suiteName != NULL)"
 1800      6E646C65 
 1800      64206578 
 1800      63657074 
 1800      696F6E20 
 1801 0247 00       		.align 8
 1802              	.LC22:
 1803 0248 556E6861 		.string	"Unhandled exception in CHECK_EQUAL(\"DefaultSuite\", test.m_details.suiteName)"
 1803      6E646C65 
 1803      64206578 
 1803      63657074 
 1803      696F6E20 
 1804              		.text
 1805 09fb 90       		.align 2
 1807              	_ZNK12_GLOBAL__N_144TestTestWithUnspecifiedSuiteGetsDefaultSuite7RunImplEv:
 1808              	.LFB1109:
 100:TestTest.cpp  **** {
 1809              		.loc 4 100 0
 1810              		.cfi_startproc
 1811              		.cfi_personality 0x3,__gxx_personality_v0
 1812              		.cfi_lsda 0x3,.LLSDA1109
 1813 09fc 55       		pushq	%rbp
 1814              		.cfi_def_cfa_offset 16
 1815              		.cfi_offset 6, -16
 1816 09fd 4889E5   		movq	%rsp, %rbp
 1817              		.cfi_def_cfa_register 6
 1818 0a00 53       		pushq	%rbx
 1819 0a01 4883EC78 		subq	$120, %rsp
 1820              		.cfi_offset 3, -24
 1821 0a05 48897D88 		movq	%rdi, -120(%rbp)
 1822              		.loc 4 100 0
 1823 0a09 64488B04 		movq	%fs:40, %rax
 1823      25280000 
 1823      00
 1824 0a12 488945E8 		movq	%rax, -24(%rbp)
 1825 0a16 31C0     		xorl	%eax, %eax
 1826              	.LBB31:
 101:TestTest.cpp  ****     Test test("test");
 1827              		.loc 4 101 0
 1828 0a18 488D45B0 		leaq	-80(%rbp), %rax
 1829 0a1c 41B80000 		movl	$0, %r8d
 1829      0000
 1830 0a22 B9000000 		movl	$.LC3, %ecx
 1830      00
 1831 0a27 BA000000 		movl	$.LC0, %edx
 1831      00
 1832 0a2c BE000000 		movl	$.LC19, %esi
 1832      00
 1833 0a31 4889C7   		movq	%rax, %rdi
 1834              	.LEHB52:
 1835 0a34 E8000000 		call	_ZN8UnitTest4TestC1EPKcS2_S2_i
 1835      00
 1836              	.LEHE52:
 102:TestTest.cpp  ****     CHECK(test.m_details.suiteName != NULL);
 1837              		.loc 4 102 0
 1838 0a39 488B45B8 		movq	-72(%rbp), %rax
 1839 0a3d 4885C0   		testq	%rax, %rax
 1840 0a40 0F95C0   		setne	%al
 1841 0a43 0FB6C0   		movzbl	%al, %eax
 1842 0a46 89C7     		movl	%eax, %edi
 1843 0a48 E8000000 		call	_ZN8UnitTest5CheckIbEEbT_
 1843      00
 1844 0a4d 83F001   		xorl	$1, %eax
 1845 0a50 84C0     		testb	%al, %al
 1846 0a52 7438     		je	.L87
 1847              	.LEHB53:
 1848              		.loc 4 102 0 is_stmt 0 discriminator 1
 1849 0a54 E8000000 		call	_ZN8UnitTest11CurrentTest7DetailsEv
 1849      00
 1850 0a59 488B08   		movq	(%rax), %rcx
 1851 0a5c 488D4590 		leaq	-112(%rbp), %rax
 1852 0a60 BA660000 		movl	$102, %edx
 1852      00
 1853 0a65 4889CE   		movq	%rcx, %rsi
 1854 0a68 4889C7   		movq	%rax, %rdi
 1855 0a6b E8000000 		call	_ZN8UnitTest11TestDetailsC1ERKS0_i
 1855      00
 1856              		.loc 4 102 0 discriminator 3
 1857 0a70 E8000000 		call	_ZN8UnitTest11CurrentTest7ResultsEv
 1857      00
 1858 0a75 488B00   		movq	(%rax), %rax
 1859 0a78 488D4D90 		leaq	-112(%rbp), %rcx
 1860 0a7c BA000000 		movl	$.LC20, %edx
 1860      00
 1861 0a81 4889CE   		movq	%rcx, %rsi
 1862 0a84 4889C7   		movq	%rax, %rdi
 1863 0a87 E8000000 		call	_ZN8UnitTest11TestResults13OnTestFailureERKNS_11TestDetailsEPKc
 1863      00
 1864              	.LEHE53:
 1865              	.L87:
 1866              	.LEHB54:
 103:TestTest.cpp  ****     CHECK_EQUAL("DefaultSuite", test.m_details.suiteName);
 1867              		.loc 4 103 0 is_stmt 1
 1868 0a8c E8000000 		call	_ZN8UnitTest11CurrentTest7DetailsEv
 1868      00
 1869 0a91 488B08   		movq	(%rax), %rcx
 1870 0a94 488D4590 		leaq	-112(%rbp), %rax
 1871 0a98 BA670000 		movl	$103, %edx
 1871      00
 1872 0a9d 4889CE   		movq	%rcx, %rsi
 1873 0aa0 4889C7   		movq	%rax, %rdi
 1874 0aa3 E8000000 		call	_ZN8UnitTest11TestDetailsC1ERKS0_i
 1874      00
 1875              		.loc 4 103 0 is_stmt 0 discriminator 2
 1876 0aa8 488B5DB8 		movq	-72(%rbp), %rbx
 1877 0aac E8000000 		call	_ZN8UnitTest11CurrentTest7ResultsEv
 1877      00
 1878 0ab1 488B00   		movq	(%rax), %rax
 1879 0ab4 488D5590 		leaq	-112(%rbp), %rdx
 1880 0ab8 4889D1   		movq	%rdx, %rcx
 1881 0abb 4889DA   		movq	%rbx, %rdx
 1882 0abe BE000000 		movl	$.LC0, %esi
 1882      00
 1883 0ac3 4889C7   		movq	%rax, %rdi
 1884 0ac6 E8000000 		call	_ZN8UnitTest10CheckEqualERNS_11TestResultsEPKcS3_RKNS_11TestDetailsE
 1884      00
 1885              	.LEHE54:
 1886              	.L93:
 1887              		.loc 4 103 0 discriminator 7
 1888 0acb 488D45B0 		leaq	-80(%rbp), %rax
 1889 0acf 4889C7   		movq	%rax, %rdi
 1890              	.LEHB55:
 1891 0ad2 E8000000 		call	_ZN8UnitTest4TestD1Ev
 1891      00
 1892              	.LEHE55:
 1893              	.LBE31:
 104:TestTest.cpp  **** }
 1894              		.loc 4 104 0 is_stmt 1 discriminator 7
 1895 0ad7 488B45E8 		movq	-24(%rbp), %rax
 1896 0adb 64483304 		xorq	%fs:40, %rax
 1896      25280000 
 1896      00
 1897 0ae4 0F84CF00 		je	.L94
 1897      0000
 1898 0aea E9C50000 		jmp	.L100
 1898      00
 1899              	.L97:
 1900 0aef 4889C3   		movq	%rax, %rbx
 1901              	.LBB32:
 102:TestTest.cpp  ****     CHECK(test.m_details.suiteName != NULL);
 1902              		.loc 4 102 0
 1903 0af2 E8000000 		call	__cxa_end_catch
 1903      00
 1904 0af7 E9A10000 		jmp	.L89
 1904      00
 1905              	.L95:
 1906 0afc 4889C7   		movq	%rax, %rdi
 1907 0aff E8000000 		call	__cxa_begin_catch
 1907      00
 1908              	.LEHB56:
 1909 0b04 E8000000 		call	_ZN8UnitTest11CurrentTest7DetailsEv
 1909      00
 1910 0b09 488B08   		movq	(%rax), %rcx
 1911 0b0c 488D4590 		leaq	-112(%rbp), %rax
 1912 0b10 BA660000 		movl	$102, %edx
 1912      00
 1913 0b15 4889CE   		movq	%rcx, %rsi
 1914 0b18 4889C7   		movq	%rax, %rdi
 1915 0b1b E8000000 		call	_ZN8UnitTest11TestDetailsC1ERKS0_i
 1915      00
 102:TestTest.cpp  ****     CHECK(test.m_details.suiteName != NULL);
 1916              		.loc 4 102 0 is_stmt 0 discriminator 11
 1917 0b20 E8000000 		call	_ZN8UnitTest11CurrentTest7ResultsEv
 1917      00
 1918 0b25 488B00   		movq	(%rax), %rax
 1919 0b28 488D4D90 		leaq	-112(%rbp), %rcx
 1920 0b2c BA000000 		movl	$.LC21, %edx
 1920      00
 1921 0b31 4889CE   		movq	%rcx, %rsi
 1922 0b34 4889C7   		movq	%rax, %rdi
 1923 0b37 E8000000 		call	_ZN8UnitTest11TestResults13OnTestFailureERKNS_11TestDetailsEPKc
 1923      00
 1924              	.LEHE56:
 1925              	.LEHB57:
 102:TestTest.cpp  ****     CHECK(test.m_details.suiteName != NULL);
 1926              		.loc 4 102 0 discriminator 15
 1927 0b3c E8000000 		call	__cxa_end_catch
 1927      00
 1928              	.LEHE57:
 102:TestTest.cpp  ****     CHECK(test.m_details.suiteName != NULL);
 1929              		.loc 4 102 0
 1930 0b41 E946FFFF 		jmp	.L87
 1930      FF
 1931              	.L99:
 1932 0b46 4889C3   		movq	%rax, %rbx
 103:TestTest.cpp  ****     CHECK_EQUAL("DefaultSuite", test.m_details.suiteName);
 1933              		.loc 4 103 0 is_stmt 1
 1934 0b49 E8000000 		call	__cxa_end_catch
 1934      00
 1935 0b4e EB4D     		jmp	.L89
 1936              	.L98:
 1937 0b50 4889C7   		movq	%rax, %rdi
 1938 0b53 E8000000 		call	__cxa_begin_catch
 1938      00
 1939              	.LEHB58:
 1940 0b58 E8000000 		call	_ZN8UnitTest11CurrentTest7DetailsEv
 1940      00
 1941 0b5d 488B08   		movq	(%rax), %rcx
 1942 0b60 488D4590 		leaq	-112(%rbp), %rax
 1943 0b64 BA670000 		movl	$103, %edx
 1943      00
 1944 0b69 4889CE   		movq	%rcx, %rsi
 1945 0b6c 4889C7   		movq	%rax, %rdi
 1946 0b6f E8000000 		call	_ZN8UnitTest11TestDetailsC1ERKS0_i
 1946      00
 103:TestTest.cpp  ****     CHECK_EQUAL("DefaultSuite", test.m_details.suiteName);
 1947              		.loc 4 103 0 is_stmt 0 discriminator 11
 1948 0b74 E8000000 		call	_ZN8UnitTest11CurrentTest7ResultsEv
 1948      00
 1949 0b79 488B00   		movq	(%rax), %rax
 1950 0b7c 488D4D90 		leaq	-112(%rbp), %rcx
 1951 0b80 BA000000 		movl	$.LC22, %edx
 1951      00
 1952 0b85 4889CE   		movq	%rcx, %rsi
 1953 0b88 4889C7   		movq	%rax, %rdi
 1954 0b8b E8000000 		call	_ZN8UnitTest11TestResults13OnTestFailureERKNS_11TestDetailsEPKc
 1954      00
 1955              	.LEHE58:
 1956              	.LEHB59:
 103:TestTest.cpp  ****     CHECK_EQUAL("DefaultSuite", test.m_details.suiteName);
 1957              		.loc 4 103 0 discriminator 15
 1958 0b90 E8000000 		call	__cxa_end_catch
 1958      00
 1959              	.LEHE59:
 103:TestTest.cpp  ****     CHECK_EQUAL("DefaultSuite", test.m_details.suiteName);
 1960              		.loc 4 103 0
 1961 0b95 E931FFFF 		jmp	.L93
 1961      FF
 1962              	.L96:
 1963 0b9a 4889C3   		movq	%rax, %rbx
 1964              	.L89:
 103:TestTest.cpp  ****     CHECK_EQUAL("DefaultSuite", test.m_details.suiteName);
 1965              		.loc 4 103 0 discriminator 16
 1966 0b9d 488D45B0 		leaq	-80(%rbp), %rax
 1967 0ba1 4889C7   		movq	%rax, %rdi
 1968 0ba4 E8000000 		call	_ZN8UnitTest4TestD1Ev
 1968      00
 1969 0ba9 4889D8   		movq	%rbx, %rax
 1970 0bac 4889C7   		movq	%rax, %rdi
 1971              	.LEHB60:
 1972 0baf E8000000 		call	_Unwind_Resume
 1972      00
 1973              	.LEHE60:
 1974              	.L100:
 1975              	.LBE32:
 1976              		.loc 4 104 0 is_stmt 1
 1977 0bb4 E8000000 		call	__stack_chk_fail
 1977      00
 1978              	.L94:
 1979 0bb9 4883C478 		addq	$120, %rsp
 1980 0bbd 5B       		popq	%rbx
 1981 0bbe 5D       		popq	%rbp
 1982              		.cfi_def_cfa 7, 8
 1983 0bbf C3       		ret
 1984              		.cfi_endproc
 1985              	.LFE1109:
 1986              		.section	.gcc_except_table
 1987              		.align 4
 1988              	.LLSDA1109:
 1989 0130 FF       		.byte	0xff
 1990 0131 03       		.byte	0x3
 1991 0132 39       		.uleb128 .LLSDATT1109-.LLSDATTD1109
 1992              	.LLSDATTD1109:
 1993 0133 01       		.byte	0x1
 1994 0134 31       		.uleb128 .LLSDACSE1109-.LLSDACSB1109
 1995              	.LLSDACSB1109:
 1996 0135 38       		.uleb128 .LEHB52-.LFB1109
 1997 0136 05       		.uleb128 .LEHE52-.LEHB52
 1998 0137 00       		.uleb128 0
 1999 0138 00       		.uleb128 0
 2000 0139 58       		.uleb128 .LEHB53-.LFB1109
 2001 013a 38       		.uleb128 .LEHE53-.LEHB53
 2002 013b 8002     		.uleb128 .L95-.LFB1109
 2003 013d 01       		.uleb128 0x1
 2004 013e 9001     		.uleb128 .LEHB54-.LFB1109
 2005 0140 3F       		.uleb128 .LEHE54-.LEHB54
 2006 0141 D402     		.uleb128 .L98-.LFB1109
 2007 0143 01       		.uleb128 0x1
 2008 0144 D601     		.uleb128 .LEHB55-.LFB1109
 2009 0146 05       		.uleb128 .LEHE55-.LEHB55
 2010 0147 00       		.uleb128 0
 2011 0148 00       		.uleb128 0
 2012 0149 8802     		.uleb128 .LEHB56-.LFB1109
 2013 014b 38       		.uleb128 .LEHE56-.LEHB56
 2014 014c F301     		.uleb128 .L97-.LFB1109
 2015 014e 00       		.uleb128 0
 2016 014f C002     		.uleb128 .LEHB57-.LFB1109
 2017 0151 05       		.uleb128 .LEHE57-.LEHB57
 2018 0152 9E03     		.uleb128 .L96-.LFB1109
 2019 0154 00       		.uleb128 0
 2020 0155 DC02     		.uleb128 .LEHB58-.LFB1109
 2021 0157 38       		.uleb128 .LEHE58-.LEHB58
 2022 0158 CA02     		.uleb128 .L99-.LFB1109
 2023 015a 00       		.uleb128 0
 2024 015b 9403     		.uleb128 .LEHB59-.LFB1109
 2025 015d 05       		.uleb128 .LEHE59-.LEHB59
 2026 015e 9E03     		.uleb128 .L96-.LFB1109
 2027 0160 00       		.uleb128 0
 2028 0161 B303     		.uleb128 .LEHB60-.LFB1109
 2029 0163 05       		.uleb128 .LEHE60-.LEHB60
 2030 0164 00       		.uleb128 0
 2031 0165 00       		.uleb128 0
 2032              	.LLSDACSE1109:
 2033 0166 01       		.byte	0x1
 2034 0167 00       		.byte	0
 2035              		.align 4
 2036 0168 00000000 		.long	0
 2037              	
 2038              	.LLSDATT1109:
 2039              		.text
 2041              		.section	.rodata
 2042 0295 000000   		.align 8
 2043              	.LC23:
 2044 0298 54657374 		.string	"TestReflectsSpecifiedSuiteName"
 2044      5265666C 
 2044      65637473 
 2044      53706563 
 2044      69666965 
 2045              		.text
 2046              		.align 2
 2048              	_ZN12_GLOBAL__N_134TestTestReflectsSpecifiedSuiteNameC2Ev:
 2049              	.LFB1111:
 105:TestTest.cpp  **** 
 106:TestTest.cpp  **** TEST(TestReflectsSpecifiedSuiteName)
 2050              		.loc 4 106 0
 2051              		.cfi_startproc
 2052 0bc0 55       		pushq	%rbp
 2053              		.cfi_def_cfa_offset 16
 2054              		.cfi_offset 6, -16
 2055 0bc1 4889E5   		movq	%rsp, %rbp
 2056              		.cfi_def_cfa_register 6
 2057 0bc4 4883EC10 		subq	$16, %rsp
 2058 0bc8 48897DF8 		movq	%rdi, -8(%rbp)
 2059              	.LBB33:
 2060              		.loc 4 106 0
 2061 0bcc E8000000 		call	_ZN13UnitTestSuite12GetSuiteNameEv
 2061      00
 2062 0bd1 4889C2   		movq	%rax, %rdx
 2063 0bd4 488B45F8 		movq	-8(%rbp), %rax
 2064 0bd8 41B86A00 		movl	$106, %r8d
 2064      0000
 2065 0bde B9000000 		movl	$.LC1, %ecx
 2065      00
 2066 0be3 BE000000 		movl	$.LC23, %esi
 2066      00
 2067 0be8 4889C7   		movq	%rax, %rdi
 2068 0beb E8000000 		call	_ZN8UnitTest4TestC2EPKcS2_S2_i
 2068      00
 2069 0bf0 488B45F8 		movq	-8(%rbp), %rax
 2070 0bf4 48C70000 		movq	$_ZTVN12_GLOBAL__N_134TestTestReflectsSpecifiedSuiteNameE+16, (%rax)
 2070      000000
 2071              	.LBE33:
 2072 0bfb C9       		leave
 2073              		.cfi_def_cfa 7, 8
 2074 0bfc C3       		ret
 2075              		.cfi_endproc
 2076              	.LFE1111:
 2078              		.local	_ZN12_GLOBAL__N_142testTestReflectsSpecifiedSuiteNameInstanceE
 2079              		.comm	_ZN12_GLOBAL__N_142testTestReflectsSpecifiedSuiteNameInstanceE,56,32
 2080              		.local	_ZN12_GLOBAL__N_135adderTestReflectsSpecifiedSuiteNameE
 2081              		.comm	_ZN12_GLOBAL__N_135adderTestReflectsSpecifiedSuiteNameE,1,1
 2082              		.section	.rodata
 2083              	.LC24:
 2084 02b7 74657374 		.string	"testSuite"
 2084      53756974 
 2084      6500
 2085 02c1 00000000 		.align 8
 2085      000000
 2086              	.LC25:
 2087 02c8 556E6861 		.string	"Unhandled exception in CHECK_EQUAL(\"testSuite\", test.m_details.suiteName)"
 2087      6E646C65 
 2087      64206578 
 2087      63657074 
 2087      696F6E20 
 2088              		.text
 2089 0bfd 90       		.align 2
 2091              	_ZNK12_GLOBAL__N_134TestTestReflectsSpecifiedSuiteName7RunImplEv:
 2092              	.LFB1113:
 107:TestTest.cpp  **** {
 2093              		.loc 4 107 0
 2094              		.cfi_startproc
 2095              		.cfi_personality 0x3,__gxx_personality_v0
 2096              		.cfi_lsda 0x3,.LLSDA1113
 2097 0bfe 55       		pushq	%rbp
 2098              		.cfi_def_cfa_offset 16
 2099              		.cfi_offset 6, -16
 2100 0bff 4889E5   		movq	%rsp, %rbp
 2101              		.cfi_def_cfa_register 6
 2102 0c02 53       		pushq	%rbx
 2103 0c03 4883EC78 		subq	$120, %rsp
 2104              		.cfi_offset 3, -24
 2105 0c07 48897D88 		movq	%rdi, -120(%rbp)
 2106              		.loc 4 107 0
 2107 0c0b 64488B04 		movq	%fs:40, %rax
 2107      25280000 
 2107      00
 2108 0c14 488945E8 		movq	%rax, -24(%rbp)
 2109 0c18 31C0     		xorl	%eax, %eax
 2110              	.LBB34:
 108:TestTest.cpp  ****     Test test("test", "testSuite");
 2111              		.loc 4 108 0
 2112 0c1a 488D45B0 		leaq	-80(%rbp), %rax
 2113 0c1e 41B80000 		movl	$0, %r8d
 2113      0000
 2114 0c24 B9000000 		movl	$.LC3, %ecx
 2114      00
 2115 0c29 BA000000 		movl	$.LC24, %edx
 2115      00
 2116 0c2e BE000000 		movl	$.LC19, %esi
 2116      00
 2117 0c33 4889C7   		movq	%rax, %rdi
 2118              	.LEHB61:
 2119 0c36 E8000000 		call	_ZN8UnitTest4TestC1EPKcS2_S2_i
 2119      00
 2120              	.LEHE61:
 109:TestTest.cpp  ****     CHECK(test.m_details.suiteName != NULL);
 2121              		.loc 4 109 0
 2122 0c3b 488B45B8 		movq	-72(%rbp), %rax
 2123 0c3f 4885C0   		testq	%rax, %rax
 2124 0c42 0F95C0   		setne	%al
 2125 0c45 0FB6C0   		movzbl	%al, %eax
 2126 0c48 89C7     		movl	%eax, %edi
 2127 0c4a E8000000 		call	_ZN8UnitTest5CheckIbEEbT_
 2127      00
 2128 0c4f 83F001   		xorl	$1, %eax
 2129 0c52 84C0     		testb	%al, %al
 2130 0c54 7438     		je	.L103
 2131              	.LEHB62:
 2132              		.loc 4 109 0 is_stmt 0 discriminator 1
 2133 0c56 E8000000 		call	_ZN8UnitTest11CurrentTest7DetailsEv
 2133      00
 2134 0c5b 488B08   		movq	(%rax), %rcx
 2135 0c5e 488D4590 		leaq	-112(%rbp), %rax
 2136 0c62 BA6D0000 		movl	$109, %edx
 2136      00
 2137 0c67 4889CE   		movq	%rcx, %rsi
 2138 0c6a 4889C7   		movq	%rax, %rdi
 2139 0c6d E8000000 		call	_ZN8UnitTest11TestDetailsC1ERKS0_i
 2139      00
 2140              		.loc 4 109 0 discriminator 3
 2141 0c72 E8000000 		call	_ZN8UnitTest11CurrentTest7ResultsEv
 2141      00
 2142 0c77 488B00   		movq	(%rax), %rax
 2143 0c7a 488D4D90 		leaq	-112(%rbp), %rcx
 2144 0c7e BA000000 		movl	$.LC20, %edx
 2144      00
 2145 0c83 4889CE   		movq	%rcx, %rsi
 2146 0c86 4889C7   		movq	%rax, %rdi
 2147 0c89 E8000000 		call	_ZN8UnitTest11TestResults13OnTestFailureERKNS_11TestDetailsEPKc
 2147      00
 2148              	.LEHE62:
 2149              	.L103:
 2150              	.LEHB63:
 110:TestTest.cpp  ****     CHECK_EQUAL("testSuite", test.m_details.suiteName);
 2151              		.loc 4 110 0 is_stmt 1
 2152 0c8e E8000000 		call	_ZN8UnitTest11CurrentTest7DetailsEv
 2152      00
 2153 0c93 488B08   		movq	(%rax), %rcx
 2154 0c96 488D4590 		leaq	-112(%rbp), %rax
 2155 0c9a BA6E0000 		movl	$110, %edx
 2155      00
 2156 0c9f 4889CE   		movq	%rcx, %rsi
 2157 0ca2 4889C7   		movq	%rax, %rdi
 2158 0ca5 E8000000 		call	_ZN8UnitTest11TestDetailsC1ERKS0_i
 2158      00
 2159              		.loc 4 110 0 is_stmt 0 discriminator 2
 2160 0caa 488B5DB8 		movq	-72(%rbp), %rbx
 2161 0cae E8000000 		call	_ZN8UnitTest11CurrentTest7ResultsEv
 2161      00
 2162 0cb3 488B00   		movq	(%rax), %rax
 2163 0cb6 488D5590 		leaq	-112(%rbp), %rdx
 2164 0cba 4889D1   		movq	%rdx, %rcx
 2165 0cbd 4889DA   		movq	%rbx, %rdx
 2166 0cc0 BE000000 		movl	$.LC24, %esi
 2166      00
 2167 0cc5 4889C7   		movq	%rax, %rdi
 2168 0cc8 E8000000 		call	_ZN8UnitTest10CheckEqualERNS_11TestResultsEPKcS3_RKNS_11TestDetailsE
 2168      00
 2169              	.LEHE63:
 2170              	.L109:
 2171              		.loc 4 110 0 discriminator 7
 2172 0ccd 488D45B0 		leaq	-80(%rbp), %rax
 2173 0cd1 4889C7   		movq	%rax, %rdi
 2174              	.LEHB64:
 2175 0cd4 E8000000 		call	_ZN8UnitTest4TestD1Ev
 2175      00
 2176              	.LEHE64:
 2177              	.LBE34:
 111:TestTest.cpp  **** }
 2178              		.loc 4 111 0 is_stmt 1 discriminator 7
 2179 0cd9 488B45E8 		movq	-24(%rbp), %rax
 2180 0cdd 64483304 		xorq	%fs:40, %rax
 2180      25280000 
 2180      00
 2181 0ce6 0F84CF00 		je	.L110
 2181      0000
 2182 0cec E9C50000 		jmp	.L116
 2182      00
 2183              	.L113:
 2184 0cf1 4889C3   		movq	%rax, %rbx
 2185              	.LBB35:
 109:TestTest.cpp  ****     CHECK(test.m_details.suiteName != NULL);
 2186              		.loc 4 109 0
 2187 0cf4 E8000000 		call	__cxa_end_catch
 2187      00
 2188 0cf9 E9A10000 		jmp	.L105
 2188      00
 2189              	.L111:
 2190 0cfe 4889C7   		movq	%rax, %rdi
 2191 0d01 E8000000 		call	__cxa_begin_catch
 2191      00
 2192              	.LEHB65:
 2193 0d06 E8000000 		call	_ZN8UnitTest11CurrentTest7DetailsEv
 2193      00
 2194 0d0b 488B08   		movq	(%rax), %rcx
 2195 0d0e 488D4590 		leaq	-112(%rbp), %rax
 2196 0d12 BA6D0000 		movl	$109, %edx
 2196      00
 2197 0d17 4889CE   		movq	%rcx, %rsi
 2198 0d1a 4889C7   		movq	%rax, %rdi
 2199 0d1d E8000000 		call	_ZN8UnitTest11TestDetailsC1ERKS0_i
 2199      00
 109:TestTest.cpp  ****     CHECK(test.m_details.suiteName != NULL);
 2200              		.loc 4 109 0 is_stmt 0 discriminator 11
 2201 0d22 E8000000 		call	_ZN8UnitTest11CurrentTest7ResultsEv
 2201      00
 2202 0d27 488B00   		movq	(%rax), %rax
 2203 0d2a 488D4D90 		leaq	-112(%rbp), %rcx
 2204 0d2e BA000000 		movl	$.LC21, %edx
 2204      00
 2205 0d33 4889CE   		movq	%rcx, %rsi
 2206 0d36 4889C7   		movq	%rax, %rdi
 2207 0d39 E8000000 		call	_ZN8UnitTest11TestResults13OnTestFailureERKNS_11TestDetailsEPKc
 2207      00
 2208              	.LEHE65:
 2209              	.LEHB66:
 109:TestTest.cpp  ****     CHECK(test.m_details.suiteName != NULL);
 2210              		.loc 4 109 0 discriminator 15
 2211 0d3e E8000000 		call	__cxa_end_catch
 2211      00
 2212              	.LEHE66:
 109:TestTest.cpp  ****     CHECK(test.m_details.suiteName != NULL);
 2213              		.loc 4 109 0
 2214 0d43 E946FFFF 		jmp	.L103
 2214      FF
 2215              	.L115:
 2216 0d48 4889C3   		movq	%rax, %rbx
 110:TestTest.cpp  ****     CHECK_EQUAL("testSuite", test.m_details.suiteName);
 2217              		.loc 4 110 0 is_stmt 1
 2218 0d4b E8000000 		call	__cxa_end_catch
 2218      00
 2219 0d50 EB4D     		jmp	.L105
 2220              	.L114:
 2221 0d52 4889C7   		movq	%rax, %rdi
 2222 0d55 E8000000 		call	__cxa_begin_catch
 2222      00
 2223              	.LEHB67:
 2224 0d5a E8000000 		call	_ZN8UnitTest11CurrentTest7DetailsEv
 2224      00
 2225 0d5f 488B08   		movq	(%rax), %rcx
 2226 0d62 488D4590 		leaq	-112(%rbp), %rax
 2227 0d66 BA6E0000 		movl	$110, %edx
 2227      00
 2228 0d6b 4889CE   		movq	%rcx, %rsi
 2229 0d6e 4889C7   		movq	%rax, %rdi
 2230 0d71 E8000000 		call	_ZN8UnitTest11TestDetailsC1ERKS0_i
 2230      00
 110:TestTest.cpp  ****     CHECK_EQUAL("testSuite", test.m_details.suiteName);
 2231              		.loc 4 110 0 is_stmt 0 discriminator 11
 2232 0d76 E8000000 		call	_ZN8UnitTest11CurrentTest7ResultsEv
 2232      00
 2233 0d7b 488B00   		movq	(%rax), %rax
 2234 0d7e 488D4D90 		leaq	-112(%rbp), %rcx
 2235 0d82 BA000000 		movl	$.LC25, %edx
 2235      00
 2236 0d87 4889CE   		movq	%rcx, %rsi
 2237 0d8a 4889C7   		movq	%rax, %rdi
 2238 0d8d E8000000 		call	_ZN8UnitTest11TestResults13OnTestFailureERKNS_11TestDetailsEPKc
 2238      00
 2239              	.LEHE67:
 2240              	.LEHB68:
 110:TestTest.cpp  ****     CHECK_EQUAL("testSuite", test.m_details.suiteName);
 2241              		.loc 4 110 0 discriminator 15
 2242 0d92 E8000000 		call	__cxa_end_catch
 2242      00
 2243              	.LEHE68:
 110:TestTest.cpp  ****     CHECK_EQUAL("testSuite", test.m_details.suiteName);
 2244              		.loc 4 110 0
 2245 0d97 E931FFFF 		jmp	.L109
 2245      FF
 2246              	.L112:
 2247 0d9c 4889C3   		movq	%rax, %rbx
 2248              	.L105:
 110:TestTest.cpp  ****     CHECK_EQUAL("testSuite", test.m_details.suiteName);
 2249              		.loc 4 110 0 discriminator 16
 2250 0d9f 488D45B0 		leaq	-80(%rbp), %rax
 2251 0da3 4889C7   		movq	%rax, %rdi
 2252 0da6 E8000000 		call	_ZN8UnitTest4TestD1Ev
 2252      00
 2253 0dab 4889D8   		movq	%rbx, %rax
 2254 0dae 4889C7   		movq	%rax, %rdi
 2255              	.LEHB69:
 2256 0db1 E8000000 		call	_Unwind_Resume
 2256      00
 2257              	.LEHE69:
 2258              	.L116:
 2259              	.LBE35:
 2260              		.loc 4 111 0 is_stmt 1
 2261 0db6 E8000000 		call	__stack_chk_fail
 2261      00
 2262              	.L110:
 2263 0dbb 4883C478 		addq	$120, %rsp
 2264 0dbf 5B       		popq	%rbx
 2265 0dc0 5D       		popq	%rbp
 2266              		.cfi_def_cfa 7, 8
 2267 0dc1 C3       		ret
 2268              		.cfi_endproc
 2269              	.LFE1113:
 2270              		.section	.gcc_except_table
 2271              		.align 4
 2272              	.LLSDA1113:
 2273 016c FF       		.byte	0xff
 2274 016d 03       		.byte	0x3
 2275 016e 39       		.uleb128 .LLSDATT1113-.LLSDATTD1113
 2276              	.LLSDATTD1113:
 2277 016f 01       		.byte	0x1
 2278 0170 31       		.uleb128 .LLSDACSE1113-.LLSDACSB1113
 2279              	.LLSDACSB1113:
 2280 0171 38       		.uleb128 .LEHB61-.LFB1113
 2281 0172 05       		.uleb128 .LEHE61-.LEHB61
 2282 0173 00       		.uleb128 0
 2283 0174 00       		.uleb128 0
 2284 0175 58       		.uleb128 .LEHB62-.LFB1113
 2285 0176 38       		.uleb128 .LEHE62-.LEHB62
 2286 0177 8002     		.uleb128 .L111-.LFB1113
 2287 0179 01       		.uleb128 0x1
 2288 017a 9001     		.uleb128 .LEHB63-.LFB1113
 2289 017c 3F       		.uleb128 .LEHE63-.LEHB63
 2290 017d D402     		.uleb128 .L114-.LFB1113
 2291 017f 01       		.uleb128 0x1
 2292 0180 D601     		.uleb128 .LEHB64-.LFB1113
 2293 0182 05       		.uleb128 .LEHE64-.LEHB64
 2294 0183 00       		.uleb128 0
 2295 0184 00       		.uleb128 0
 2296 0185 8802     		.uleb128 .LEHB65-.LFB1113
 2297 0187 38       		.uleb128 .LEHE65-.LEHB65
 2298 0188 F301     		.uleb128 .L113-.LFB1113
 2299 018a 00       		.uleb128 0
 2300 018b C002     		.uleb128 .LEHB66-.LFB1113
 2301 018d 05       		.uleb128 .LEHE66-.LEHB66
 2302 018e 9E03     		.uleb128 .L112-.LFB1113
 2303 0190 00       		.uleb128 0
 2304 0191 DC02     		.uleb128 .LEHB67-.LFB1113
 2305 0193 38       		.uleb128 .LEHE67-.LEHB67
 2306 0194 CA02     		.uleb128 .L115-.LFB1113
 2307 0196 00       		.uleb128 0
 2308 0197 9403     		.uleb128 .LEHB68-.LFB1113
 2309 0199 05       		.uleb128 .LEHE68-.LEHB68
 2310 019a 9E03     		.uleb128 .L112-.LFB1113
 2311 019c 00       		.uleb128 0
 2312 019d B303     		.uleb128 .LEHB69-.LFB1113
 2313 019f 05       		.uleb128 .LEHE69-.LEHB69
 2314 01a0 00       		.uleb128 0
 2315 01a1 00       		.uleb128 0
 2316              	.LLSDACSE1113:
 2317 01a2 01       		.byte	0x1
 2318 01a3 00       		.byte	0
 2319              		.align 4
 2320 01a4 00000000 		.long	0
 2321              	
 2322              	.LLSDATT1113:
 2323              		.text
 2326              	_ZN12_GLOBAL__N_14FailEv:
 2327              	.LFB1114:
 112:TestTest.cpp  **** 
 113:TestTest.cpp  **** void Fail()
 114:TestTest.cpp  **** {
 2328              		.loc 4 114 0
 2329              		.cfi_startproc
 2330              		.cfi_personality 0x3,__gxx_personality_v0
 2331              		.cfi_lsda 0x3,.LLSDA1114
 2332 0dc2 55       		pushq	%rbp
 2333              		.cfi_def_cfa_offset 16
 2334              		.cfi_offset 6, -16
 2335 0dc3 4889E5   		movq	%rsp, %rbp
 2336              		.cfi_def_cfa_register 6
 2337 0dc6 53       		pushq	%rbx
 2338 0dc7 4883EC38 		subq	$56, %rsp
 2339              		.cfi_offset 3, -24
 2340              		.loc 4 114 0
 2341 0dcb 64488B04 		movq	%fs:40, %rax
 2341      25280000 
 2341      00
 2342 0dd4 488945E8 		movq	%rax, -24(%rbp)
 2343 0dd8 31C0     		xorl	%eax, %eax
 115:TestTest.cpp  **** 	CHECK(false);
 2344              		.loc 4 115 0
 2345 0dda BF000000 		movl	$0, %edi
 2345      00
 2346 0ddf E8000000 		call	_ZN8UnitTest5CheckIbEEbT_
 2346      00
 2347 0de4 83F001   		xorl	$1, %eax
 2348 0de7 84C0     		testb	%al, %al
 2349 0de9 0F849300 		je	.L117
 2349      0000
 2350              	.LEHB70:
 2351              		.loc 4 115 0 is_stmt 0 discriminator 1
 2352 0def E8000000 		call	_ZN8UnitTest11CurrentTest7DetailsEv
 2352      00
 2353 0df4 488B08   		movq	(%rax), %rcx
 2354 0df7 488D45C0 		leaq	-64(%rbp), %rax
 2355 0dfb BA730000 		movl	$115, %edx
 2355      00
 2356 0e00 4889CE   		movq	%rcx, %rsi
 2357 0e03 4889C7   		movq	%rax, %rdi
 2358 0e06 E8000000 		call	_ZN8UnitTest11TestDetailsC1ERKS0_i
 2358      00
 2359              		.loc 4 115 0 discriminator 3
 2360 0e0b E8000000 		call	_ZN8UnitTest11CurrentTest7ResultsEv
 2360      00
 2361 0e10 488B00   		movq	(%rax), %rax
 2362 0e13 488D4DC0 		leaq	-64(%rbp), %rcx
 2363 0e17 BA000000 		movl	$.LC10, %edx
 2363      00
 2364 0e1c 4889CE   		movq	%rcx, %rsi
 2365 0e1f 4889C7   		movq	%rax, %rdi
 2366 0e22 E8000000 		call	_ZN8UnitTest11TestResults13OnTestFailureERKNS_11TestDetailsEPKc
 2366      00
 2367              	.LEHE70:
 2368 0e27 EB59     		jmp	.L117
 2369              	.L123:
 2370 0e29 4889C3   		movq	%rax, %rbx
 2371              		.loc 4 115 0
 2372 0e2c E8000000 		call	__cxa_end_catch
 2372      00
 2373 0e31 4889D8   		movq	%rbx, %rax
 2374 0e34 4889C7   		movq	%rax, %rdi
 2375              	.LEHB71:
 2376 0e37 E8000000 		call	_Unwind_Resume
 2376      00
 2377              	.LEHE71:
 2378              	.L122:
 2379 0e3c 4889C7   		movq	%rax, %rdi
 2380 0e3f E8000000 		call	__cxa_begin_catch
 2380      00
 2381              	.LEHB72:
 2382 0e44 E8000000 		call	_ZN8UnitTest11CurrentTest7DetailsEv
 2382      00
 2383 0e49 488B08   		movq	(%rax), %rcx
 2384 0e4c 488D45C0 		leaq	-64(%rbp), %rax
 2385 0e50 BA730000 		movl	$115, %edx
 2385      00
 2386 0e55 4889CE   		movq	%rcx, %rsi
 2387 0e58 4889C7   		movq	%rax, %rdi
 2388 0e5b E8000000 		call	_ZN8UnitTest11TestDetailsC1ERKS0_i
 2388      00
 2389              		.loc 4 115 0 discriminator 11
 2390 0e60 E8000000 		call	_ZN8UnitTest11CurrentTest7ResultsEv
 2390      00
 2391 0e65 488B00   		movq	(%rax), %rax
 2392 0e68 488D4DC0 		leaq	-64(%rbp), %rcx
 2393 0e6c BA000000 		movl	$.LC11, %edx
 2393      00
 2394 0e71 4889CE   		movq	%rcx, %rsi
 2395 0e74 4889C7   		movq	%rax, %rdi
 2396 0e77 E8000000 		call	_ZN8UnitTest11TestResults13OnTestFailureERKNS_11TestDetailsEPKc
 2396      00
 2397              	.LEHE72:
 2398              	.LEHB73:
 2399              		.loc 4 115 0 discriminator 15
 2400 0e7c E8000000 		call	__cxa_end_catch
 2400      00
 2401              	.LEHE73:
 116:TestTest.cpp  **** }
 2402              		.loc 4 116 0 is_stmt 1 discriminator 15
 2403 0e81 90       		nop
 2404              	.L117:
 2405              		.loc 4 116 0 is_stmt 0
 2406 0e82 488B45E8 		movq	-24(%rbp), %rax
 2407 0e86 64483304 		xorq	%fs:40, %rax
 2407      25280000 
 2407      00
 2408 0e8f 7405     		je	.L121
 2409 0e91 E8000000 		call	__stack_chk_fail
 2409      00
 2410              	.L121:
 2411 0e96 4883C438 		addq	$56, %rsp
 2412 0e9a 5B       		popq	%rbx
 2413 0e9b 5D       		popq	%rbp
 2414              		.cfi_def_cfa 7, 8
 2415 0e9c C3       		ret
 2416              		.cfi_endproc
 2417              	.LFE1114:
 2418              		.section	.gcc_except_table
 2419              		.align 4
 2420              	.LLSDA1114:
 2421 01a8 FF       		.byte	0xff
 2422 01a9 03       		.byte	0x3
 2423 01aa 1D       		.uleb128 .LLSDATT1114-.LLSDATTD1114
 2424              	.LLSDATTD1114:
 2425 01ab 01       		.byte	0x1
 2426 01ac 12       		.uleb128 .LLSDACSE1114-.LLSDACSB1114
 2427              	.LLSDACSB1114:
 2428 01ad 2D       		.uleb128 .LEHB70-.LFB1114
 2429 01ae 38       		.uleb128 .LEHE70-.LEHB70
 2430 01af 7A       		.uleb128 .L122-.LFB1114
 2431 01b0 01       		.uleb128 0x1
 2432 01b1 75       		.uleb128 .LEHB71-.LFB1114
 2433 01b2 05       		.uleb128 .LEHE71-.LEHB71
 2434 01b3 00       		.uleb128 0
 2435 01b4 00       		.uleb128 0
 2436 01b5 8201     		.uleb128 .LEHB72-.LFB1114
 2437 01b7 38       		.uleb128 .LEHE72-.LEHB72
 2438 01b8 67       		.uleb128 .L123-.LFB1114
 2439 01b9 00       		.uleb128 0
 2440 01ba BA01     		.uleb128 .LEHB73-.LFB1114
 2441 01bc 05       		.uleb128 .LEHE73-.LEHB73
 2442 01bd 00       		.uleb128 0
 2443 01be 00       		.uleb128 0
 2444              	.LLSDACSE1114:
 2445 01bf 01       		.byte	0x1
 2446 01c0 00       		.byte	0
 2447 01c1 000000   		.align 4
 2448 01c4 00000000 		.long	0
 2449              	
 2450              	.LLSDATT1114:
 2451              		.text
 2453              		.section	.rodata
 2454 0312 00000000 		.align 8
 2454      0000
 2455              	.LC26:
 2456 0318 4F75744F 		.string	"OutOfCoreCHECKMacrosCanFailTests"
 2456      66436F72 
 2456      65434845 
 2456      434B4D61 
 2456      63726F73 
 2457              		.text
 2458 0e9d 90       		.align 2
 2460              	_ZN12_GLOBAL__N_136TestOutOfCoreCHECKMacrosCanFailTestsC2Ev:
 2461              	.LFB1116:
 117:TestTest.cpp  **** 
 118:TestTest.cpp  **** TEST(OutOfCoreCHECKMacrosCanFailTests)
 2462              		.loc 4 118 0 is_stmt 1
 2463              		.cfi_startproc
 2464 0e9e 55       		pushq	%rbp
 2465              		.cfi_def_cfa_offset 16
 2466              		.cfi_offset 6, -16
 2467 0e9f 4889E5   		movq	%rsp, %rbp
 2468              		.cfi_def_cfa_register 6
 2469 0ea2 4883EC10 		subq	$16, %rsp
 2470 0ea6 48897DF8 		movq	%rdi, -8(%rbp)
 2471              	.LBB36:
 2472              		.loc 4 118 0
 2473 0eaa E8000000 		call	_ZN13UnitTestSuite12GetSuiteNameEv
 2473      00
 2474 0eaf 4889C2   		movq	%rax, %rdx
 2475 0eb2 488B45F8 		movq	-8(%rbp), %rax
 2476 0eb6 41B87600 		movl	$118, %r8d
 2476      0000
 2477 0ebc B9000000 		movl	$.LC1, %ecx
 2477      00
 2478 0ec1 BE000000 		movl	$.LC26, %esi
 2478      00
 2479 0ec6 4889C7   		movq	%rax, %rdi
 2480 0ec9 E8000000 		call	_ZN8UnitTest4TestC2EPKcS2_S2_i
 2480      00
 2481 0ece 488B45F8 		movq	-8(%rbp), %rax
 2482 0ed2 48C70000 		movq	$_ZTVN12_GLOBAL__N_136TestOutOfCoreCHECKMacrosCanFailTestsE+16, (%rax)
 2482      000000
 2483              	.LBE36:
 2484 0ed9 C9       		leave
 2485              		.cfi_def_cfa 7, 8
 2486 0eda C3       		ret
 2487              		.cfi_endproc
 2488              	.LFE1116:
 2490              		.local	_ZN12_GLOBAL__N_144testOutOfCoreCHECKMacrosCanFailTestsInstanceE
 2491              		.comm	_ZN12_GLOBAL__N_144testOutOfCoreCHECKMacrosCanFailTestsInstanceE,56,32
 2492              		.local	_ZN12_GLOBAL__N_137adderOutOfCoreCHECKMacrosCanFailTestsE
 2493              		.comm	_ZN12_GLOBAL__N_137adderOutOfCoreCHECKMacrosCanFailTestsE,1,1
 2494 0edb 90       		.align 2
 2496              	_ZNK12_GLOBAL__N_136TestOutOfCoreCHECKMacrosCanFailTests7RunImplEv:
 2497              	.LFB1118:
 119:TestTest.cpp  **** {
 2498              		.loc 4 119 0
 2499              		.cfi_startproc
 2500              		.cfi_personality 0x3,__gxx_personality_v0
 2501              		.cfi_lsda 0x3,.LLSDA1118
 2502 0edc 55       		pushq	%rbp
 2503              		.cfi_def_cfa_offset 16
 2504              		.cfi_offset 6, -16
 2505 0edd 4889E5   		movq	%rsp, %rbp
 2506              		.cfi_def_cfa_register 6
 2507 0ee0 53       		pushq	%rbx
 2508 0ee1 4883EC78 		subq	$120, %rsp
 2509              		.cfi_offset 3, -24
 2510 0ee5 48897D88 		movq	%rdi, -120(%rbp)
 2511              		.loc 4 119 0
 2512 0ee9 64488B04 		movq	%fs:40, %rax
 2512      25280000 
 2512      00
 2513 0ef2 488945E8 		movq	%rax, -24(%rbp)
 2514 0ef6 31C0     		xorl	%eax, %eax
 2515              	.LBB37:
 120:TestTest.cpp  **** 	TestResults results;
 2516              		.loc 4 120 0
 2517 0ef8 488D45A0 		leaq	-96(%rbp), %rax
 2518 0efc BE000000 		movl	$0, %esi
 2518      00
 2519 0f01 4889C7   		movq	%rax, %rdi
 2520              	.LEHB74:
 2521 0f04 E8000000 		call	_ZN8UnitTest11TestResultsC1EPNS_12TestReporterE
 2521      00
 2522              	.LBB38:
 121:TestTest.cpp  **** 	{
 122:TestTest.cpp  **** 		ScopedCurrentTest scopedResult(results);
 2523              		.loc 4 122 0
 2524 0f09 488D4DA0 		leaq	-96(%rbp), %rcx
 2525 0f0d 488D45C0 		leaq	-64(%rbp), %rax
 2526 0f11 BA000000 		movl	$0, %edx
 2526      00
 2527 0f16 4889CE   		movq	%rcx, %rsi
 2528 0f19 4889C7   		movq	%rax, %rdi
 2529 0f1c E8000000 		call	_ZN17ScopedCurrentTestC1ERN8UnitTest11TestResultsEPKNS0_11TestDetailsE
 2529      00
 2530              	.LEHE74:
 2531              	.LEHB75:
 123:TestTest.cpp  **** 		Fail();
 2532              		.loc 4 123 0
 2533 0f21 E89CFEFF 		call	_ZN12_GLOBAL__N_14FailEv
 2533      FF
 2534              	.LEHE75:
 2535              		.loc 4 123 0 is_stmt 0 discriminator 2
 2536 0f26 488D45C0 		leaq	-64(%rbp), %rax
 2537 0f2a 4889C7   		movq	%rax, %rdi
 2538              	.LEHB76:
 2539 0f2d E8000000 		call	_ZN17ScopedCurrentTestD1Ev
 2539      00
 2540              	.LEHE76:
 2541              	.LEHB77:
 2542              	.LBE38:
 124:TestTest.cpp  **** 	}
 125:TestTest.cpp  **** 
 126:TestTest.cpp  **** 	CHECK_EQUAL(1, results.GetFailureCount());
 2543              		.loc 4 126 0 is_stmt 1 discriminator 2
 2544 0f32 E8000000 		call	_ZN8UnitTest11CurrentTest7DetailsEv
 2544      00
 2545 0f37 488B08   		movq	(%rax), %rcx
 2546 0f3a 488D45C0 		leaq	-64(%rbp), %rax
 2547 0f3e BA7E0000 		movl	$126, %edx
 2547      00
 2548 0f43 4889CE   		movq	%rcx, %rsi
 2549 0f46 4889C7   		movq	%rax, %rdi
 2550 0f49 E8000000 		call	_ZN8UnitTest11TestDetailsC1ERKS0_i
 2550      00
 2551 0f4e 488D45A0 		leaq	-96(%rbp), %rax
 2552 0f52 4889C7   		movq	%rax, %rdi
 2553 0f55 E8000000 		call	_ZNK8UnitTest11TestResults15GetFailureCountEv
 2553      00
 2554 0f5a 89459C   		movl	%eax, -100(%rbp)
 2555 0f5d C7459801 		movl	$1, -104(%rbp)
 2555      000000
 2556 0f64 E8000000 		call	_ZN8UnitTest11CurrentTest7ResultsEv
 2556      00
 2557              		.loc 4 126 0 is_stmt 0 discriminator 4
 2558 0f69 488B00   		movq	(%rax), %rax
 2559 0f6c 488D4DC0 		leaq	-64(%rbp), %rcx
 2560 0f70 488D559C 		leaq	-100(%rbp), %rdx
 2561 0f74 488D7598 		leaq	-104(%rbp), %rsi
 2562 0f78 4889C7   		movq	%rax, %rdi
 2563 0f7b E8000000 		call	_ZN8UnitTest10CheckEqualIiiEEvRNS_11TestResultsERKT_RKT0_RKNS_11TestDetailsE
 2563      00
 2564              	.LEHE77:
 2565              	.LBE37:
 127:TestTest.cpp  **** }
 2566              		.loc 4 127 0 is_stmt 1
 2567 0f80 EB72     		jmp	.L134
 2568              	.L131:
 2569 0f82 4889C3   		movq	%rax, %rbx
 2570              	.LBB40:
 2571              	.LBB39:
 123:TestTest.cpp  **** 		Fail();
 2572              		.loc 4 123 0
 2573 0f85 488D45C0 		leaq	-64(%rbp), %rax
 2574 0f89 4889C7   		movq	%rax, %rdi
 2575 0f8c E8000000 		call	_ZN17ScopedCurrentTestD1Ev
 2575      00
 2576 0f91 4889D8   		movq	%rbx, %rax
 2577 0f94 4889C7   		movq	%rax, %rdi
 2578              	.LEHB78:
 2579 0f97 E8000000 		call	_Unwind_Resume
 2579      00
 2580              	.LEHE78:
 2581              	.L133:
 2582 0f9c 4889C3   		movq	%rax, %rbx
 2583              	.LBE39:
 126:TestTest.cpp  **** }
 2584              		.loc 4 126 0
 2585 0f9f E8000000 		call	__cxa_end_catch
 2585      00
 2586 0fa4 4889D8   		movq	%rbx, %rax
 2587 0fa7 4889C7   		movq	%rax, %rdi
 2588              	.LEHB79:
 2589 0faa E8000000 		call	_Unwind_Resume
 2589      00
 2590              	.LEHE79:
 2591              	.L132:
 2592 0faf 4889C7   		movq	%rax, %rdi
 2593 0fb2 E8000000 		call	__cxa_begin_catch
 2593      00
 2594              	.LEHB80:
 2595 0fb7 E8000000 		call	_ZN8UnitTest11CurrentTest7DetailsEv
 2595      00
 2596 0fbc 488B08   		movq	(%rax), %rcx
 2597 0fbf 488D45C0 		leaq	-64(%rbp), %rax
 2598 0fc3 BA7E0000 		movl	$126, %edx
 2598      00
 2599 0fc8 4889CE   		movq	%rcx, %rsi
 2600 0fcb 4889C7   		movq	%rax, %rdi
 2601 0fce E8000000 		call	_ZN8UnitTest11TestDetailsC1ERKS0_i
 2601      00
 126:TestTest.cpp  **** }
 2602              		.loc 4 126 0 is_stmt 0 discriminator 12
 2603 0fd3 E8000000 		call	_ZN8UnitTest11CurrentTest7ResultsEv
 2603      00
 2604 0fd8 488B00   		movq	(%rax), %rax
 2605 0fdb 488D4DC0 		leaq	-64(%rbp), %rcx
 2606 0fdf BA000000 		movl	$.LC12, %edx
 2606      00
 2607 0fe4 4889CE   		movq	%rcx, %rsi
 2608 0fe7 4889C7   		movq	%rax, %rdi
 2609 0fea E8000000 		call	_ZN8UnitTest11TestResults13OnTestFailureERKNS_11TestDetailsEPKc
 2609      00
 2610              	.LEHE80:
 2611              	.LEHB81:
 126:TestTest.cpp  **** }
 2612              		.loc 4 126 0 discriminator 16
 2613 0fef E8000000 		call	__cxa_end_catch
 2613      00
 2614              	.LEHE81:
 2615              	.L134:
 2616              	.LBE40:
 2617              		.loc 4 127 0 is_stmt 1
 2618 0ff4 90       		nop
 2619 0ff5 488B45E8 		movq	-24(%rbp), %rax
 2620 0ff9 64483304 		xorq	%fs:40, %rax
 2620      25280000 
 2620      00
 2621 1002 7405     		je	.L130
 2622 1004 E8000000 		call	__stack_chk_fail
 2622      00
 2623              	.L130:
 2624 1009 4883C478 		addq	$120, %rsp
 2625 100d 5B       		popq	%rbx
 2626 100e 5D       		popq	%rbp
 2627              		.cfi_def_cfa 7, 8
 2628 100f C3       		ret
 2629              		.cfi_endproc
 2630              	.LFE1118:
 2631              		.section	.gcc_except_table
 2632              		.align 4
 2633              	.LLSDA1118:
 2634 01c8 FF       		.byte	0xff
 2635 01c9 03       		.byte	0x3
 2636 01ca 31       		.uleb128 .LLSDATT1118-.LLSDATTD1118
 2637              	.LLSDATTD1118:
 2638 01cb 01       		.byte	0x1
 2639 01cc 27       		.uleb128 .LLSDACSE1118-.LLSDACSB1118
 2640              	.LLSDACSB1118:
 2641 01cd 28       		.uleb128 .LEHB74-.LFB1118
 2642 01ce 1D       		.uleb128 .LEHE74-.LEHB74
 2643 01cf 00       		.uleb128 0
 2644 01d0 00       		.uleb128 0
 2645 01d1 45       		.uleb128 .LEHB75-.LFB1118
 2646 01d2 05       		.uleb128 .LEHE75-.LEHB75
 2647 01d3 A601     		.uleb128 .L131-.LFB1118
 2648 01d5 00       		.uleb128 0
 2649 01d6 51       		.uleb128 .LEHB76-.LFB1118
 2650 01d7 05       		.uleb128 .LEHE76-.LEHB76
 2651 01d8 00       		.uleb128 0
 2652 01d9 00       		.uleb128 0
 2653 01da 56       		.uleb128 .LEHB77-.LFB1118
 2654 01db 4E       		.uleb128 .LEHE77-.LEHB77
 2655 01dc D301     		.uleb128 .L132-.LFB1118
 2656 01de 01       		.uleb128 0x1
 2657 01df BB01     		.uleb128 .LEHB78-.LFB1118
 2658 01e1 05       		.uleb128 .LEHE78-.LEHB78
 2659 01e2 00       		.uleb128 0
 2660 01e3 00       		.uleb128 0
 2661 01e4 CE01     		.uleb128 .LEHB79-.LFB1118
 2662 01e6 05       		.uleb128 .LEHE79-.LEHB79
 2663 01e7 00       		.uleb128 0
 2664 01e8 00       		.uleb128 0
 2665 01e9 DB01     		.uleb128 .LEHB80-.LFB1118
 2666 01eb 38       		.uleb128 .LEHE80-.LEHB80
 2667 01ec C001     		.uleb128 .L133-.LFB1118
 2668 01ee 00       		.uleb128 0
 2669 01ef 9302     		.uleb128 .LEHB81-.LFB1118
 2670 01f1 05       		.uleb128 .LEHE81-.LEHB81
 2671 01f2 00       		.uleb128 0
 2672 01f3 00       		.uleb128 0
 2673              	.LLSDACSE1118:
 2674 01f4 01       		.byte	0x1
 2675 01f5 00       		.byte	0
 2676 01f6 0000     		.align 4
 2677 01f8 00000000 		.long	0
 2678              	
 2679              	.LLSDATT1118:
 2680              		.text
 2682              		.section	.text._ZN8UnitTest5CheckIbEEbT_,"axG",@progbits,_ZN8UnitTest5CheckIbEEbT_,comdat
 2683              		.weak	_ZN8UnitTest5CheckIbEEbT_
 2685              	_ZN8UnitTest5CheckIbEEbT_:
 2686              	.LFB1146:
 2687              		.file 5 "../Checks.h"
   1:../Checks.h   **** #ifndef UNITTEST_CHECKS_H
   2:../Checks.h   **** #define UNITTEST_CHECKS_H
   3:../Checks.h   **** 
   4:../Checks.h   **** #include "Config.h"
   5:../Checks.h   **** #include "TestResults.h"
   6:../Checks.h   **** #include "MemoryOutStream.h"
   7:../Checks.h   **** 
   8:../Checks.h   **** namespace UnitTest {
   9:../Checks.h   **** 
  10:../Checks.h   **** 
  11:../Checks.h   **** template< typename Value >
  12:../Checks.h   **** bool Check(Value const value)
 2688              		.loc 5 12 0
 2689              		.cfi_startproc
 2690 0000 55       		pushq	%rbp
 2691              		.cfi_def_cfa_offset 16
 2692              		.cfi_offset 6, -16
 2693 0001 4889E5   		movq	%rsp, %rbp
 2694              		.cfi_def_cfa_register 6
 2695 0004 89F8     		movl	%edi, %eax
 2696 0006 8845FC   		movb	%al, -4(%rbp)
  13:../Checks.h   **** {
  14:../Checks.h   ****     return !!value; // doing double negative to avoid silly VS warnings
 2697              		.loc 5 14 0
 2698 0009 0FB645FC 		movzbl	-4(%rbp), %eax
  15:../Checks.h   **** }
 2699              		.loc 5 15 0
 2700 000d 5D       		popq	%rbp
 2701              		.cfi_def_cfa 7, 8
 2702 000e C3       		ret
 2703              		.cfi_endproc
 2704              	.LFE1146:
 2706              		.section	.text._ZN8UnitTest15MemoryOutStreamD1Ev,"axG",@progbits,_ZN8UnitTest15MemoryOutStreamD1Ev
 2707              		.align 2
 2708              		.weak	_ZN8UnitTest15MemoryOutStreamD1Ev
 2710              	_ZN8UnitTest15MemoryOutStreamD1Ev:
 2711              	.LFB1150:
  13:../MemoryOutStream.h **** {
 2712              		.loc 2 13 0
 2713              		.cfi_startproc
 2714              		.cfi_personality 0x3,__gxx_personality_v0
 2715              		.cfi_lsda 0x3,.LLSDA1150
 2716 0000 55       		pushq	%rbp
 2717              		.cfi_def_cfa_offset 16
 2718              		.cfi_offset 6, -16
 2719 0001 4889E5   		movq	%rsp, %rbp
 2720              		.cfi_def_cfa_register 6
 2721 0004 53       		pushq	%rbx
 2722 0005 4883EC18 		subq	$24, %rsp
 2723              		.cfi_offset 3, -24
 2724 0009 48897DE8 		movq	%rdi, -24(%rbp)
 2725              	.LBB41:
  13:../MemoryOutStream.h **** {
 2726              		.loc 2 13 0
 2727 000d BA000000 		movl	$_ZTVN8UnitTest15MemoryOutStreamE+24, %edx
 2727      00
 2728 0012 488B45E8 		movq	-24(%rbp), %rax
 2729 0016 488910   		movq	%rdx, (%rax)
 2730 0019 BA600000 		movl	$96, %edx
 2730      00
 2731 001e 488B45E8 		movq	-24(%rbp), %rax
 2732 0022 4801D0   		addq	%rdx, %rax
 2733 0025 BA000000 		movl	$_ZTVN8UnitTest15MemoryOutStreamE+64, %edx
 2733      00
 2734 002a 488910   		movq	%rdx, (%rax)
 2735 002d 488B45E8 		movq	-24(%rbp), %rax
 2736 0031 4883C058 		addq	$88, %rax
 2737 0035 4889C7   		movq	%rax, %rdi
 2738              	.LEHB82:
 2739 0038 E8000000 		call	_ZNSsD1Ev
 2739      00
 2740              	.LEHE82:
  13:../MemoryOutStream.h **** {
 2741              		.loc 2 13 0 is_stmt 0 discriminator 14
 2742 003d BA000000 		movl	$_ZTTN8UnitTest15MemoryOutStreamE+8, %edx
 2742      00
 2743 0042 488B45E8 		movq	-24(%rbp), %rax
 2744 0046 4889D6   		movq	%rdx, %rsi
 2745 0049 4889C7   		movq	%rax, %rdi
 2746              	.LEHB83:
 2747 004c E8000000 		call	_ZNSt19basic_ostringstreamIcSt11char_traitsIcESaIcEED2Ev
 2747      00
 2748              	.LEHE83:
  13:../MemoryOutStream.h **** {
 2749              		.loc 2 13 0 discriminator 20
 2750 0051 B8020000 		movl	$2, %eax
 2750      00
 2751 0056 85C0     		testl	%eax, %eax
 2752 0058 7410     		je	.L139
  13:../MemoryOutStream.h **** {
 2753              		.loc 2 13 0 discriminator 21
 2754 005a 488B45E8 		movq	-24(%rbp), %rax
 2755 005e 4883C060 		addq	$96, %rax
 2756 0062 4889C7   		movq	%rax, %rdi
 2757              	.LEHB84:
 2758 0065 E8000000 		call	_ZNSt9basic_iosIcSt11char_traitsIcEED2Ev
 2758      00
 2759              	.LEHE84:
 2760              	.L139:
 2761              	.LBE41:
  13:../MemoryOutStream.h **** {
 2762              		.loc 2 13 0 discriminator 24
 2763 006a B8000000 		movl	$0, %eax
 2763      00
 2764 006f 85C0     		testl	%eax, %eax
 2765 0071 744E     		je	.L146
  13:../MemoryOutStream.h **** {
 2766              		.loc 2 13 0 discriminator 25
 2767 0073 488B45E8 		movq	-24(%rbp), %rax
 2768 0077 4889C7   		movq	%rax, %rdi
 2769 007a E8000000 		call	_ZdlPv
 2769      00
 2770 007f EB40     		jmp	.L146
 2771              	.L144:
 2772 0081 4889C3   		movq	%rax, %rbx
 2773              	.LBB42:
  13:../MemoryOutStream.h **** {
 2774              		.loc 2 13 0
 2775 0084 BA000000 		movl	$_ZTTN8UnitTest15MemoryOutStreamE+8, %edx
 2775      00
 2776 0089 488B45E8 		movq	-24(%rbp), %rax
 2777 008d 4889D6   		movq	%rdx, %rsi
 2778 0090 4889C7   		movq	%rax, %rdi
 2779 0093 E8000000 		call	_ZNSt19basic_ostringstreamIcSt11char_traitsIcESaIcEED2Ev
 2779      00
 2780 0098 EB03     		jmp	.L142
 2781              	.L145:
 2782 009a 4889C3   		movq	%rax, %rbx
 2783              	.L142:
  13:../MemoryOutStream.h **** {
 2784              		.loc 2 13 0 discriminator 19
 2785 009d B8020000 		movl	$2, %eax
 2785      00
 2786 00a2 85C0     		testl	%eax, %eax
 2787 00a4 7410     		je	.L143
  13:../MemoryOutStream.h **** {
 2788              		.loc 2 13 0 discriminator 32
 2789 00a6 488B45E8 		movq	-24(%rbp), %rax
 2790 00aa 4883C060 		addq	$96, %rax
 2791 00ae 4889C7   		movq	%rax, %rdi
 2792 00b1 E8000000 		call	_ZNSt9basic_iosIcSt11char_traitsIcEED2Ev
 2792      00
 2793              	.L143:
 2794 00b6 4889D8   		movq	%rbx, %rax
 2795 00b9 4889C7   		movq	%rax, %rdi
 2796              	.LEHB85:
 2797 00bc E8000000 		call	_Unwind_Resume
 2797      00
 2798              	.LEHE85:
 2799              	.L146:
 2800              	.LBE42:
  13:../MemoryOutStream.h **** {
 2801              		.loc 2 13 0
 2802 00c1 4883C418 		addq	$24, %rsp
 2803 00c5 5B       		popq	%rbx
 2804 00c6 5D       		popq	%rbp
 2805              		.cfi_def_cfa 7, 8
 2806 00c7 C3       		ret
 2807              		.cfi_endproc
 2808              	.LFE1150:
 2809              		.section	.gcc_except_table
 2810              	.LLSDA1150:
 2811 01fc FF       		.byte	0xff
 2812 01fd FF       		.byte	0xff
 2813 01fe 01       		.byte	0x1
 2814 01ff 13       		.uleb128 .LLSDACSE1150-.LLSDACSB1150
 2815              	.LLSDACSB1150:
 2816 0200 38       		.uleb128 .LEHB82-.LFB1150
 2817 0201 05       		.uleb128 .LEHE82-.LEHB82
 2818 0202 8101     		.uleb128 .L144-.LFB1150
 2819 0204 00       		.uleb128 0
 2820 0205 4C       		.uleb128 .LEHB83-.LFB1150
 2821 0206 05       		.uleb128 .LEHE83-.LEHB83
 2822 0207 9A01     		.uleb128 .L145-.LFB1150
 2823 0209 00       		.uleb128 0
 2824 020a 65       		.uleb128 .LEHB84-.LFB1150
 2825 020b 05       		.uleb128 .LEHE84-.LEHB84
 2826 020c 00       		.uleb128 0
 2827 020d 00       		.uleb128 0
 2828 020e BC01     		.uleb128 .LEHB85-.LFB1150
 2829 0210 05       		.uleb128 .LEHE85-.LEHB85
 2830 0211 00       		.uleb128 0
 2831 0212 00       		.uleb128 0
 2832              	.LLSDACSE1150:
 2833              		.section	.text._ZN8UnitTest15MemoryOutStreamD1Ev,"axG",@progbits,_ZN8UnitTest15MemoryOutStreamD1Ev
 2835              		.set	.LTHUNK0,_ZN8UnitTest15MemoryOutStreamD1Ev
 2836              		.weak	_ZTv0_n24_N8UnitTest15MemoryOutStreamD1Ev
 2838              	_ZTv0_n24_N8UnitTest15MemoryOutStreamD1Ev:
 2839              	.LFB1246:
  13:../MemoryOutStream.h **** {
 2840              		.loc 2 13 0 is_stmt 1
 2841              		.cfi_startproc
 2842 00c8 4C8B17   		movq	(%rdi), %r10
 2843 00cb 49037AE8 		addq	-24(%r10), %rdi
 2844 00cf E92CFFFF 		jmp	.LTHUNK0
 2844      FF
 2845              		.cfi_endproc
 2846              	.LFE1246:
 2848              		.section	.text._ZN8UnitTest15MemoryOutStreamD0Ev,"axG",@progbits,_ZN8UnitTest15MemoryOutStreamD0Ev
 2849              		.align 2
 2850              		.weak	_ZN8UnitTest15MemoryOutStreamD0Ev
 2852              	_ZN8UnitTest15MemoryOutStreamD0Ev:
 2853              	.LFB1151:
  13:../MemoryOutStream.h **** {
 2854              		.loc 2 13 0
 2855              		.cfi_startproc
 2856 0000 55       		pushq	%rbp
 2857              		.cfi_def_cfa_offset 16
 2858              		.cfi_offset 6, -16
 2859 0001 4889E5   		movq	%rsp, %rbp
 2860              		.cfi_def_cfa_register 6
 2861 0004 4883EC10 		subq	$16, %rsp
 2862 0008 48897DF8 		movq	%rdi, -8(%rbp)
  13:../MemoryOutStream.h **** {
 2863              		.loc 2 13 0
 2864 000c 488B45F8 		movq	-8(%rbp), %rax
 2865 0010 4889C7   		movq	%rax, %rdi
 2866 0013 E8000000 		call	_ZN8UnitTest15MemoryOutStreamD1Ev
 2866      00
 2867 0018 488B45F8 		movq	-8(%rbp), %rax
 2868 001c 4889C7   		movq	%rax, %rdi
 2869 001f E8000000 		call	_ZdlPv
 2869      00
 2870 0024 C9       		leave
 2871              		.cfi_def_cfa 7, 8
 2872 0025 C3       		ret
 2873              		.cfi_endproc
 2874              	.LFE1151:
 2876              		.set	.LTHUNK1,_ZN8UnitTest15MemoryOutStreamD0Ev
 2877              		.weak	_ZTv0_n24_N8UnitTest15MemoryOutStreamD0Ev
 2879              	_ZTv0_n24_N8UnitTest15MemoryOutStreamD0Ev:
 2880              	.LFB1247:
  13:../MemoryOutStream.h **** {
 2881              		.loc 2 13 0
 2882              		.cfi_startproc
 2883 0026 4C8B17   		movq	(%rdi), %r10
 2884 0029 49037AE8 		addq	-24(%r10), %rdi
 2885 002d EBD1     		jmp	.LTHUNK1
 2886              		.cfi_endproc
 2887              	.LFE1247:
 2889              		.section	.rodata
 2890              	.LC27:
 2891 0339 45787065 		.string	"Expected "
 2891      63746564 
 2891      2000
 2892              	.LC28:
 2893 0343 20627574 		.string	" but was "
 2893      20776173 
 2893      2000
 2894              		.section	.text._ZN8UnitTest10CheckEqualIiiEEvRNS_11TestResultsERKT_RKT0_RKNS_11TestDetailsE,"axG",
 2895              		.weak	_ZN8UnitTest10CheckEqualIiiEEvRNS_11TestResultsERKT_RKT0_RKNS_11TestDetailsE
 2897              	_ZN8UnitTest10CheckEqualIiiEEvRNS_11TestResultsERKT_RKT0_RKNS_11TestDetailsE:
 2898              	.LFB1147:
  16:../Checks.h   **** 
  17:../Checks.h   **** 
  18:../Checks.h   **** template< typename Expected, typename Actual >
  19:../Checks.h   **** void CheckEqual(TestResults& results, Expected const& expected, Actual const& actual, TestDetails c
 2899              		.loc 5 19 0
 2900              		.cfi_startproc
 2901              		.cfi_personality 0x3,__gxx_personality_v0
 2902              		.cfi_lsda 0x3,.LLSDA1147
 2903 0000 55       		pushq	%rbp
 2904              		.cfi_def_cfa_offset 16
 2905              		.cfi_offset 6, -16
 2906 0001 4889E5   		movq	%rsp, %rbp
 2907              		.cfi_def_cfa_register 6
 2908 0004 4154     		pushq	%r12
 2909 0006 53       		pushq	%rbx
 2910 0007 4881EC90 		subq	$400, %rsp
 2910      010000
 2911              		.cfi_offset 12, -24
 2912              		.cfi_offset 3, -32
 2913 000e 4889BD78 		movq	%rdi, -392(%rbp)
 2913      FEFFFF
 2914 0015 4889B570 		movq	%rsi, -400(%rbp)
 2914      FEFFFF
 2915 001c 48899568 		movq	%rdx, -408(%rbp)
 2915      FEFFFF
 2916 0023 48898D60 		movq	%rcx, -416(%rbp)
 2916      FEFFFF
 2917              		.loc 5 19 0
 2918 002a 64488B04 		movq	%fs:40, %rax
 2918      25280000 
 2918      00
 2919 0033 488945E8 		movq	%rax, -24(%rbp)
 2920 0037 31C0     		xorl	%eax, %eax
 2921              	.LBB43:
 2922              	.LBB44:
  20:../Checks.h   **** {
  21:../Checks.h   ****     if (!(expected == actual))
 2923              		.loc 5 21 0
 2924 0039 488B8570 		movq	-400(%rbp), %rax
 2924      FEFFFF
 2925 0040 8B10     		movl	(%rax), %edx
 2926 0042 488B8568 		movq	-408(%rbp), %rax
 2926      FEFFFF
 2927 0049 8B00     		movl	(%rax), %eax
 2928 004b 39C2     		cmpl	%eax, %edx
 2929 004d 0F849200 		je	.L150
 2929      0000
 2930              	.LBB45:
  22:../Checks.h   ****     {
  23:../Checks.h   ****         UnitTest::MemoryOutStream stream;
 2931              		.loc 5 23 0
 2932 0053 488D8580 		leaq	-384(%rbp), %rax
 2932      FEFFFF
 2933 005a 4889C7   		movq	%rax, %rdi
 2934              	.LEHB86:
 2935 005d E8000000 		call	_ZN8UnitTest15MemoryOutStreamC1Ev
 2935      00
 2936              	.LEHE86:
  24:../Checks.h   ****         stream << "Expected " << expected << " but was " << actual;
 2937              		.loc 5 24 0
 2938 0062 488B8568 		movq	-408(%rbp), %rax
 2938      FEFFFF
 2939 0069 8B18     		movl	(%rax), %ebx
 2940 006b 488B8570 		movq	-400(%rbp), %rax
 2940      FEFFFF
 2941 0072 448B20   		movl	(%rax), %r12d
 2942 0075 488D8580 		leaq	-384(%rbp), %rax
 2942      FEFFFF
 2943 007c BE000000 		movl	$.LC27, %esi
 2943      00
 2944 0081 4889C7   		movq	%rax, %rdi
 2945              	.LEHB87:
 2946 0084 E8000000 		call	_ZStlsISt11char_traitsIcEERSt13basic_ostreamIcT_ES5_PKc
 2946      00
 2947 0089 4489E6   		movl	%r12d, %esi
 2948 008c 4889C7   		movq	%rax, %rdi
 2949 008f E8000000 		call	_ZNSolsEi
 2949      00
 2950              		.loc 5 24 0 is_stmt 0 discriminator 1
 2951 0094 BE000000 		movl	$.LC28, %esi
 2951      00
 2952 0099 4889C7   		movq	%rax, %rdi
 2953 009c E8000000 		call	_ZStlsISt11char_traitsIcEERSt13basic_ostreamIcT_ES5_PKc
 2953      00
 2954              		.loc 5 24 0 discriminator 2
 2955 00a1 89DE     		movl	%ebx, %esi
 2956 00a3 4889C7   		movq	%rax, %rdi
 2957 00a6 E8000000 		call	_ZNSolsEi
 2957      00
  25:../Checks.h   **** 
  26:../Checks.h   ****         results.OnTestFailure(details, stream.GetText());
 2958              		.loc 5 26 0 is_stmt 1
 2959 00ab 488D8580 		leaq	-384(%rbp), %rax
 2959      FEFFFF
 2960 00b2 4889C7   		movq	%rax, %rdi
 2961 00b5 E8000000 		call	_ZNK8UnitTest15MemoryOutStream7GetTextEv
 2961      00
 2962 00ba 4889C2   		movq	%rax, %rdx
 2963 00bd 488B8D60 		movq	-416(%rbp), %rcx
 2963      FEFFFF
 2964 00c4 488B8578 		movq	-392(%rbp), %rax
 2964      FEFFFF
 2965 00cb 4889CE   		movq	%rcx, %rsi
 2966 00ce 4889C7   		movq	%rax, %rdi
 2967 00d1 E8000000 		call	_ZN8UnitTest11TestResults13OnTestFailureERKNS_11TestDetailsEPKc
 2967      00
 2968              	.LEHE87:
 2969              		.loc 5 26 0 is_stmt 0 discriminator 4
 2970 00d6 488D8580 		leaq	-384(%rbp), %rax
 2970      FEFFFF
 2971 00dd 4889C7   		movq	%rax, %rdi
 2972              	.LEHB88:
 2973 00e0 E8000000 		call	_ZN8UnitTest15MemoryOutStreamD1Ev
 2973      00
 2974              	.LEHE88:
 2975              	.L150:
 2976              	.LBE45:
 2977              	.LBE44:
 2978              	.LBE43:
  27:../Checks.h   ****     }
  28:../Checks.h   **** }
 2979              		.loc 5 28 0 is_stmt 1
 2980 00e5 488B45E8 		movq	-24(%rbp), %rax
 2981 00e9 64483304 		xorq	%fs:40, %rax
 2981      25280000 
 2981      00
 2982 00f2 7424     		je	.L152
 2983 00f4 EB1D     		jmp	.L154
 2984              	.L153:
 2985 00f6 4889C3   		movq	%rax, %rbx
 2986              	.LBB48:
 2987              	.LBB47:
 2988              	.LBB46:
  26:../Checks.h   ****     }
 2989              		.loc 5 26 0
 2990 00f9 488D8580 		leaq	-384(%rbp), %rax
 2990      FEFFFF
 2991 0100 4889C7   		movq	%rax, %rdi
 2992 0103 E8000000 		call	_ZN8UnitTest15MemoryOutStreamD1Ev
 2992      00
 2993 0108 4889D8   		movq	%rbx, %rax
 2994 010b 4889C7   		movq	%rax, %rdi
 2995              	.LEHB89:
 2996 010e E8000000 		call	_Unwind_Resume
 2996      00
 2997              	.LEHE89:
 2998              	.L154:
 2999              	.LBE46:
 3000              	.LBE47:
 3001              	.LBE48:
 3002              		.loc 5 28 0
 3003 0113 E8000000 		call	__stack_chk_fail
 3003      00
 3004              	.L152:
 3005 0118 4881C490 		addq	$400, %rsp
 3005      010000
 3006 011f 5B       		popq	%rbx
 3007 0120 415C     		popq	%r12
 3008 0122 5D       		popq	%rbp
 3009              		.cfi_def_cfa 7, 8
 3010 0123 C3       		ret
 3011              		.cfi_endproc
 3012              	.LFE1147:
 3013              		.section	.gcc_except_table
 3014              	.LLSDA1147:
 3015 0213 FF       		.byte	0xff
 3016 0214 FF       		.byte	0xff
 3017 0215 01       		.byte	0x1
 3018 0216 14       		.uleb128 .LLSDACSE1147-.LLSDACSB1147
 3019              	.LLSDACSB1147:
 3020 0217 5D       		.uleb128 .LEHB86-.LFB1147
 3021 0218 05       		.uleb128 .LEHE86-.LEHB86
 3022 0219 00       		.uleb128 0
 3023 021a 00       		.uleb128 0
 3024 021b 8401     		.uleb128 .LEHB87-.LFB1147
 3025 021d 52       		.uleb128 .LEHE87-.LEHB87
 3026 021e F601     		.uleb128 .L153-.LFB1147
 3027 0220 00       		.uleb128 0
 3028 0221 E001     		.uleb128 .LEHB88-.LFB1147
 3029 0223 05       		.uleb128 .LEHE88-.LEHB88
 3030 0224 00       		.uleb128 0
 3031 0225 00       		.uleb128 0
 3032 0226 8E02     		.uleb128 .LEHB89-.LFB1147
 3033 0228 05       		.uleb128 .LEHE89-.LEHB89
 3034 0229 00       		.uleb128 0
 3035 022a 00       		.uleb128 0
 3036              	.LLSDACSE1147:
 3037              		.section	.text._ZN8UnitTest10CheckEqualIiiEEvRNS_11TestResultsERKT_RKT0_RKNS_11TestDetailsE,"axG",
 3039              		.section	.rodata
 3040 034d 00000000 		.align 32
 3040      00000000 
 3040      00000000 
 3040      00000000 
 3040      000000
 3043              	_ZTVN12_GLOBAL__N_136TestOutOfCoreCHECKMacrosCanFailTestsE:
 3044 0360 00000000 		.quad	0
 3044      00000000 
 3045 0368 00000000 		.quad	_ZTIN12_GLOBAL__N_136TestOutOfCoreCHECKMacrosCanFailTestsE
 3045      00000000 
 3046 0370 00000000 		.quad	_ZN12_GLOBAL__N_136TestOutOfCoreCHECKMacrosCanFailTestsD1Ev
 3046      00000000 
 3047 0378 00000000 		.quad	_ZN12_GLOBAL__N_136TestOutOfCoreCHECKMacrosCanFailTestsD0Ev
 3047      00000000 
 3048 0380 00000000 		.quad	_ZNK12_GLOBAL__N_136TestOutOfCoreCHECKMacrosCanFailTests7RunImplEv
 3048      00000000 
 3049              		.text
 3050              		.align 2
 3052              	_ZN12_GLOBAL__N_136TestOutOfCoreCHECKMacrosCanFailTestsD2Ev:
 3053              	.LFB1201:
 118:TestTest.cpp  **** {
 3054              		.loc 4 118 0
 3055              		.cfi_startproc
 3056 1010 55       		pushq	%rbp
 3057              		.cfi_def_cfa_offset 16
 3058              		.cfi_offset 6, -16
 3059 1011 4889E5   		movq	%rsp, %rbp
 3060              		.cfi_def_cfa_register 6
 3061 1014 4883EC10 		subq	$16, %rsp
 3062 1018 48897DF8 		movq	%rdi, -8(%rbp)
 3063              	.LBB49:
 118:TestTest.cpp  **** {
 3064              		.loc 4 118 0
 3065 101c 488B45F8 		movq	-8(%rbp), %rax
 3066 1020 48C70000 		movq	$_ZTVN12_GLOBAL__N_136TestOutOfCoreCHECKMacrosCanFailTestsE+16, (%rax)
 3066      000000
 3067 1027 488B45F8 		movq	-8(%rbp), %rax
 3068 102b 4889C7   		movq	%rax, %rdi
 3069 102e E8000000 		call	_ZN8UnitTest4TestD2Ev
 3069      00
 3070              	.LBE49:
 3071 1033 B8000000 		movl	$0, %eax
 3071      00
 3072 1038 85C0     		testl	%eax, %eax
 3073 103a 740C     		je	.L155
 118:TestTest.cpp  **** {
 3074              		.loc 4 118 0 is_stmt 0 discriminator 4
 3075 103c 488B45F8 		movq	-8(%rbp), %rax
 3076 1040 4889C7   		movq	%rax, %rdi
 3077 1043 E8000000 		call	_ZdlPv
 3077      00
 3078              	.L155:
 118:TestTest.cpp  **** {
 3079              		.loc 4 118 0
 3080 1048 C9       		leave
 3081              		.cfi_def_cfa 7, 8
 3082 1049 C3       		ret
 3083              		.cfi_endproc
 3084              	.LFE1201:
 3086              		.set	_ZN12_GLOBAL__N_136TestOutOfCoreCHECKMacrosCanFailTestsD1Ev,_ZN12_GLOBAL__N_136TestOutOfCoreC
 3087              		.align 2
 3089              	_ZN12_GLOBAL__N_136TestOutOfCoreCHECKMacrosCanFailTestsD0Ev:
 3090              	.LFB1203:
 118:TestTest.cpp  **** {
 3091              		.loc 4 118 0 is_stmt 1
 3092              		.cfi_startproc
 3093 104a 55       		pushq	%rbp
 3094              		.cfi_def_cfa_offset 16
 3095              		.cfi_offset 6, -16
 3096 104b 4889E5   		movq	%rsp, %rbp
 3097              		.cfi_def_cfa_register 6
 3098 104e 4883EC10 		subq	$16, %rsp
 3099 1052 48897DF8 		movq	%rdi, -8(%rbp)
 118:TestTest.cpp  **** {
 3100              		.loc 4 118 0
 3101 1056 488B45F8 		movq	-8(%rbp), %rax
 3102 105a 4889C7   		movq	%rax, %rdi
 3103 105d E8AEFFFF 		call	_ZN12_GLOBAL__N_136TestOutOfCoreCHECKMacrosCanFailTestsD2Ev
 3103      FF
 3104 1062 488B45F8 		movq	-8(%rbp), %rax
 3105 1066 4889C7   		movq	%rax, %rdi
 3106 1069 E8000000 		call	_ZdlPv
 3106      00
 3107 106e C9       		leave
 3108              		.cfi_def_cfa 7, 8
 3109 106f C3       		ret
 3110              		.cfi_endproc
 3111              	.LFE1203:
 3113              		.section	.rodata
 3114 0388 00000000 		.align 32
 3114      00000000 
 3114      00000000 
 3114      00000000 
 3114      00000000 
 3117              	_ZTVN12_GLOBAL__N_134TestTestReflectsSpecifiedSuiteNameE:
 3118 03a0 00000000 		.quad	0
 3118      00000000 
 3119 03a8 00000000 		.quad	_ZTIN12_GLOBAL__N_134TestTestReflectsSpecifiedSuiteNameE
 3119      00000000 
 3120 03b0 00000000 		.quad	_ZN12_GLOBAL__N_134TestTestReflectsSpecifiedSuiteNameD1Ev
 3120      00000000 
 3121 03b8 00000000 		.quad	_ZN12_GLOBAL__N_134TestTestReflectsSpecifiedSuiteNameD0Ev
 3121      00000000 
 3122 03c0 00000000 		.quad	_ZNK12_GLOBAL__N_134TestTestReflectsSpecifiedSuiteName7RunImplEv
 3122      00000000 
 3123              		.text
 3124              		.align 2
 3126              	_ZN12_GLOBAL__N_134TestTestReflectsSpecifiedSuiteNameD2Ev:
 3127              	.LFB1205:
 106:TestTest.cpp  **** {
 3128              		.loc 4 106 0
 3129              		.cfi_startproc
 3130 1070 55       		pushq	%rbp
 3131              		.cfi_def_cfa_offset 16
 3132              		.cfi_offset 6, -16
 3133 1071 4889E5   		movq	%rsp, %rbp
 3134              		.cfi_def_cfa_register 6
 3135 1074 4883EC10 		subq	$16, %rsp
 3136 1078 48897DF8 		movq	%rdi, -8(%rbp)
 3137              	.LBB50:
 106:TestTest.cpp  **** {
 3138              		.loc 4 106 0
 3139 107c 488B45F8 		movq	-8(%rbp), %rax
 3140 1080 48C70000 		movq	$_ZTVN12_GLOBAL__N_134TestTestReflectsSpecifiedSuiteNameE+16, (%rax)
 3140      000000
 3141 1087 488B45F8 		movq	-8(%rbp), %rax
 3142 108b 4889C7   		movq	%rax, %rdi
 3143 108e E8000000 		call	_ZN8UnitTest4TestD2Ev
 3143      00
 3144              	.LBE50:
 3145 1093 B8000000 		movl	$0, %eax
 3145      00
 3146 1098 85C0     		testl	%eax, %eax
 3147 109a 740C     		je	.L160
 106:TestTest.cpp  **** {
 3148              		.loc 4 106 0 is_stmt 0 discriminator 4
 3149 109c 488B45F8 		movq	-8(%rbp), %rax
 3150 10a0 4889C7   		movq	%rax, %rdi
 3151 10a3 E8000000 		call	_ZdlPv
 3151      00
 3152              	.L160:
 106:TestTest.cpp  **** {
 3153              		.loc 4 106 0
 3154 10a8 C9       		leave
 3155              		.cfi_def_cfa 7, 8
 3156 10a9 C3       		ret
 3157              		.cfi_endproc
 3158              	.LFE1205:
 3160              		.set	_ZN12_GLOBAL__N_134TestTestReflectsSpecifiedSuiteNameD1Ev,_ZN12_GLOBAL__N_134TestTestReflects
 3161              		.align 2
 3163              	_ZN12_GLOBAL__N_134TestTestReflectsSpecifiedSuiteNameD0Ev:
 3164              	.LFB1207:
 106:TestTest.cpp  **** {
 3165              		.loc 4 106 0 is_stmt 1
 3166              		.cfi_startproc
 3167 10aa 55       		pushq	%rbp
 3168              		.cfi_def_cfa_offset 16
 3169              		.cfi_offset 6, -16
 3170 10ab 4889E5   		movq	%rsp, %rbp
 3171              		.cfi_def_cfa_register 6
 3172 10ae 4883EC10 		subq	$16, %rsp
 3173 10b2 48897DF8 		movq	%rdi, -8(%rbp)
 106:TestTest.cpp  **** {
 3174              		.loc 4 106 0
 3175 10b6 488B45F8 		movq	-8(%rbp), %rax
 3176 10ba 4889C7   		movq	%rax, %rdi
 3177 10bd E8AEFFFF 		call	_ZN12_GLOBAL__N_134TestTestReflectsSpecifiedSuiteNameD2Ev
 3177      FF
 3178 10c2 488B45F8 		movq	-8(%rbp), %rax
 3179 10c6 4889C7   		movq	%rax, %rdi
 3180 10c9 E8000000 		call	_ZdlPv
 3180      00
 3181 10ce C9       		leave
 3182              		.cfi_def_cfa 7, 8
 3183 10cf C3       		ret
 3184              		.cfi_endproc
 3185              	.LFE1207:
 3187              		.section	.rodata
 3188 03c8 00000000 		.align 32
 3188      00000000 
 3188      00000000 
 3188      00000000 
 3188      00000000 
 3191              	_ZTVN12_GLOBAL__N_144TestTestWithUnspecifiedSuiteGetsDefaultSuiteE:
 3192 03e0 00000000 		.quad	0
 3192      00000000 
 3193 03e8 00000000 		.quad	_ZTIN12_GLOBAL__N_144TestTestWithUnspecifiedSuiteGetsDefaultSuiteE
 3193      00000000 
 3194 03f0 00000000 		.quad	_ZN12_GLOBAL__N_144TestTestWithUnspecifiedSuiteGetsDefaultSuiteD1Ev
 3194      00000000 
 3195 03f8 00000000 		.quad	_ZN12_GLOBAL__N_144TestTestWithUnspecifiedSuiteGetsDefaultSuiteD0Ev
 3195      00000000 
 3196 0400 00000000 		.quad	_ZNK12_GLOBAL__N_144TestTestWithUnspecifiedSuiteGetsDefaultSuite7RunImplEv
 3196      00000000 
 3197              		.text
 3198              		.align 2
 3200              	_ZN12_GLOBAL__N_144TestTestWithUnspecifiedSuiteGetsDefaultSuiteD2Ev:
 3201              	.LFB1209:
  99:TestTest.cpp  **** {
 3202              		.loc 4 99 0
 3203              		.cfi_startproc
 3204 10d0 55       		pushq	%rbp
 3205              		.cfi_def_cfa_offset 16
 3206              		.cfi_offset 6, -16
 3207 10d1 4889E5   		movq	%rsp, %rbp
 3208              		.cfi_def_cfa_register 6
 3209 10d4 4883EC10 		subq	$16, %rsp
 3210 10d8 48897DF8 		movq	%rdi, -8(%rbp)
 3211              	.LBB51:
  99:TestTest.cpp  **** {
 3212              		.loc 4 99 0
 3213 10dc 488B45F8 		movq	-8(%rbp), %rax
 3214 10e0 48C70000 		movq	$_ZTVN12_GLOBAL__N_144TestTestWithUnspecifiedSuiteGetsDefaultSuiteE+16, (%rax)
 3214      000000
 3215 10e7 488B45F8 		movq	-8(%rbp), %rax
 3216 10eb 4889C7   		movq	%rax, %rdi
 3217 10ee E8000000 		call	_ZN8UnitTest4TestD2Ev
 3217      00
 3218              	.LBE51:
 3219 10f3 B8000000 		movl	$0, %eax
 3219      00
 3220 10f8 85C0     		testl	%eax, %eax
 3221 10fa 740C     		je	.L165
  99:TestTest.cpp  **** {
 3222              		.loc 4 99 0 is_stmt 0 discriminator 4
 3223 10fc 488B45F8 		movq	-8(%rbp), %rax
 3224 1100 4889C7   		movq	%rax, %rdi
 3225 1103 E8000000 		call	_ZdlPv
 3225      00
 3226              	.L165:
  99:TestTest.cpp  **** {
 3227              		.loc 4 99 0
 3228 1108 C9       		leave
 3229              		.cfi_def_cfa 7, 8
 3230 1109 C3       		ret
 3231              		.cfi_endproc
 3232              	.LFE1209:
 3234              		.set	_ZN12_GLOBAL__N_144TestTestWithUnspecifiedSuiteGetsDefaultSuiteD1Ev,_ZN12_GLOBAL__N_144TestTe
 3235              		.align 2
 3237              	_ZN12_GLOBAL__N_144TestTestWithUnspecifiedSuiteGetsDefaultSuiteD0Ev:
 3238              	.LFB1211:
  99:TestTest.cpp  **** {
 3239              		.loc 4 99 0 is_stmt 1
 3240              		.cfi_startproc
 3241 110a 55       		pushq	%rbp
 3242              		.cfi_def_cfa_offset 16
 3243              		.cfi_offset 6, -16
 3244 110b 4889E5   		movq	%rsp, %rbp
 3245              		.cfi_def_cfa_register 6
 3246 110e 4883EC10 		subq	$16, %rsp
 3247 1112 48897DF8 		movq	%rdi, -8(%rbp)
  99:TestTest.cpp  **** {
 3248              		.loc 4 99 0
 3249 1116 488B45F8 		movq	-8(%rbp), %rax
 3250 111a 4889C7   		movq	%rax, %rdi
 3251 111d E8AEFFFF 		call	_ZN12_GLOBAL__N_144TestTestWithUnspecifiedSuiteGetsDefaultSuiteD2Ev
 3251      FF
 3252 1122 488B45F8 		movq	-8(%rbp), %rax
 3253 1126 4889C7   		movq	%rax, %rdi
 3254 1129 E8000000 		call	_ZdlPv
 3254      00
 3255 112e C9       		leave
 3256              		.cfi_def_cfa 7, 8
 3257 112f C3       		ret
 3258              		.cfi_endproc
 3259              	.LFE1211:
 3261              		.section	.rodata
 3262 0408 00000000 		.align 32
 3262      00000000 
 3262      00000000 
 3262      00000000 
 3262      00000000 
 3265              	_ZTVN12_GLOBAL__N_138TestCrashingTestsAreReportedAsFailuresE:
 3266 0420 00000000 		.quad	0
 3266      00000000 
 3267 0428 00000000 		.quad	_ZTIN12_GLOBAL__N_138TestCrashingTestsAreReportedAsFailuresE
 3267      00000000 
 3268 0430 00000000 		.quad	_ZN12_GLOBAL__N_138TestCrashingTestsAreReportedAsFailuresD1Ev
 3268      00000000 
 3269 0438 00000000 		.quad	_ZN12_GLOBAL__N_138TestCrashingTestsAreReportedAsFailuresD0Ev
 3269      00000000 
 3270 0440 00000000 		.quad	_ZNK12_GLOBAL__N_138TestCrashingTestsAreReportedAsFailures7RunImplEv
 3270      00000000 
 3271              		.text
 3272              		.align 2
 3274              	_ZN12_GLOBAL__N_138TestCrashingTestsAreReportedAsFailuresD2Ev:
 3275              	.LFB1213:
  77:TestTest.cpp  **** {
 3276              		.loc 4 77 0
 3277              		.cfi_startproc
 3278 1130 55       		pushq	%rbp
 3279              		.cfi_def_cfa_offset 16
 3280              		.cfi_offset 6, -16
 3281 1131 4889E5   		movq	%rsp, %rbp
 3282              		.cfi_def_cfa_register 6
 3283 1134 4883EC10 		subq	$16, %rsp
 3284 1138 48897DF8 		movq	%rdi, -8(%rbp)
 3285              	.LBB52:
  77:TestTest.cpp  **** {
 3286              		.loc 4 77 0
 3287 113c 488B45F8 		movq	-8(%rbp), %rax
 3288 1140 48C70000 		movq	$_ZTVN12_GLOBAL__N_138TestCrashingTestsAreReportedAsFailuresE+16, (%rax)
 3288      000000
 3289 1147 488B45F8 		movq	-8(%rbp), %rax
 3290 114b 4889C7   		movq	%rax, %rdi
 3291 114e E8000000 		call	_ZN8UnitTest4TestD2Ev
 3291      00
 3292              	.LBE52:
 3293 1153 B8000000 		movl	$0, %eax
 3293      00
 3294 1158 85C0     		testl	%eax, %eax
 3295 115a 740C     		je	.L170
  77:TestTest.cpp  **** {
 3296              		.loc 4 77 0 is_stmt 0 discriminator 4
 3297 115c 488B45F8 		movq	-8(%rbp), %rax
 3298 1160 4889C7   		movq	%rax, %rdi
 3299 1163 E8000000 		call	_ZdlPv
 3299      00
 3300              	.L170:
  77:TestTest.cpp  **** {
 3301              		.loc 4 77 0
 3302 1168 C9       		leave
 3303              		.cfi_def_cfa 7, 8
 3304 1169 C3       		ret
 3305              		.cfi_endproc
 3306              	.LFE1213:
 3308              		.set	_ZN12_GLOBAL__N_138TestCrashingTestsAreReportedAsFailuresD1Ev,_ZN12_GLOBAL__N_138TestCrashing
 3309              		.align 2
 3311              	_ZN12_GLOBAL__N_138TestCrashingTestsAreReportedAsFailuresD0Ev:
 3312              	.LFB1215:
  77:TestTest.cpp  **** {
 3313              		.loc 4 77 0 is_stmt 1
 3314              		.cfi_startproc
 3315 116a 55       		pushq	%rbp
 3316              		.cfi_def_cfa_offset 16
 3317              		.cfi_offset 6, -16
 3318 116b 4889E5   		movq	%rsp, %rbp
 3319              		.cfi_def_cfa_register 6
 3320 116e 4883EC10 		subq	$16, %rsp
 3321 1172 48897DF8 		movq	%rdi, -8(%rbp)
  77:TestTest.cpp  **** {
 3322              		.loc 4 77 0
 3323 1176 488B45F8 		movq	-8(%rbp), %rax
 3324 117a 4889C7   		movq	%rax, %rdi
 3325 117d E8AEFFFF 		call	_ZN12_GLOBAL__N_138TestCrashingTestsAreReportedAsFailuresD2Ev
 3325      FF
 3326 1182 488B45F8 		movq	-8(%rbp), %rax
 3327 1186 4889C7   		movq	%rax, %rdi
 3328 1189 E8000000 		call	_ZdlPv
 3328      00
 3329 118e C9       		leave
 3330              		.cfi_def_cfa 7, 8
 3331 118f C3       		ret
 3332              		.cfi_endproc
 3333              	.LFE1215:
 3335              		.section	.rodata
 3336 0448 00000000 		.align 32
 3336      00000000 
 3336      00000000 
 3336      00000000 
 3336      00000000 
 3339              	_ZTVZNK12_GLOBAL__N_138TestCrashingTestsAreReportedAsFailures7RunImplEvE12CrashingTest:
 3340 0460 00000000 		.quad	0
 3340      00000000 
 3341 0468 00000000 		.quad	_ZTIZNK12_GLOBAL__N_138TestCrashingTestsAreReportedAsFailures7RunImplEvE12CrashingTest
 3341      00000000 
 3342 0470 00000000 		.quad	_ZZNK12_GLOBAL__N_138TestCrashingTestsAreReportedAsFailures7RunImplEvEN12CrashingTestD1Ev
 3342      00000000 
 3343 0478 00000000 		.quad	_ZZNK12_GLOBAL__N_138TestCrashingTestsAreReportedAsFailures7RunImplEvEN12CrashingTestD0Ev
 3343      00000000 
 3344 0480 00000000 		.quad	_ZZNK12_GLOBAL__N_138TestCrashingTestsAreReportedAsFailures7RunImplEvENK12CrashingTest7RunIm
 3344      00000000 
 3345              		.text
 3346              		.align 2
 3348              	_ZZNK12_GLOBAL__N_138TestCrashingTestsAreReportedAsFailures7RunImplEvEN12CrashingTestD2Ev:
 3349              	.LFB1217:
  79:TestTest.cpp  ****     {
 3350              		.loc 4 79 0
 3351              		.cfi_startproc
 3352 1190 55       		pushq	%rbp
 3353              		.cfi_def_cfa_offset 16
 3354              		.cfi_offset 6, -16
 3355 1191 4889E5   		movq	%rsp, %rbp
 3356              		.cfi_def_cfa_register 6
 3357 1194 4883EC10 		subq	$16, %rsp
 3358 1198 48897DF8 		movq	%rdi, -8(%rbp)
 3359              	.LBB53:
  79:TestTest.cpp  ****     {
 3360              		.loc 4 79 0
 3361 119c 488B45F8 		movq	-8(%rbp), %rax
 3362 11a0 48C70000 		movq	$_ZTVZNK12_GLOBAL__N_138TestCrashingTestsAreReportedAsFailures7RunImplEvE12CrashingTest+16, (
 3362      000000
 3363 11a7 488B45F8 		movq	-8(%rbp), %rax
 3364 11ab 4889C7   		movq	%rax, %rdi
 3365 11ae E8000000 		call	_ZN8UnitTest4TestD2Ev
 3365      00
 3366              	.LBE53:
 3367 11b3 B8000000 		movl	$0, %eax
 3367      00
 3368 11b8 85C0     		testl	%eax, %eax
 3369 11ba 740C     		je	.L175
  79:TestTest.cpp  ****     {
 3370              		.loc 4 79 0 is_stmt 0 discriminator 4
 3371 11bc 488B45F8 		movq	-8(%rbp), %rax
 3372 11c0 4889C7   		movq	%rax, %rdi
 3373 11c3 E8000000 		call	_ZdlPv
 3373      00
 3374              	.L175:
  79:TestTest.cpp  ****     {
 3375              		.loc 4 79 0
 3376 11c8 C9       		leave
 3377              		.cfi_def_cfa 7, 8
 3378 11c9 C3       		ret
 3379              		.cfi_endproc
 3380              	.LFE1217:
 3382              		.set	_ZZNK12_GLOBAL__N_138TestCrashingTestsAreReportedAsFailures7RunImplEvEN12CrashingTestD1Ev,_ZZ
 3383              		.align 2
 3385              	_ZZNK12_GLOBAL__N_138TestCrashingTestsAreReportedAsFailures7RunImplEvEN12CrashingTestD0Ev:
 3386              	.LFB1219:
  79:TestTest.cpp  ****     {
 3387              		.loc 4 79 0 is_stmt 1
 3388              		.cfi_startproc
 3389 11ca 55       		pushq	%rbp
 3390              		.cfi_def_cfa_offset 16
 3391              		.cfi_offset 6, -16
 3392 11cb 4889E5   		movq	%rsp, %rbp
 3393              		.cfi_def_cfa_register 6
 3394 11ce 4883EC10 		subq	$16, %rsp
 3395 11d2 48897DF8 		movq	%rdi, -8(%rbp)
  79:TestTest.cpp  ****     {
 3396              		.loc 4 79 0
 3397 11d6 488B45F8 		movq	-8(%rbp), %rax
 3398 11da 4889C7   		movq	%rax, %rdi
 3399 11dd E8AEFFFF 		call	_ZZNK12_GLOBAL__N_138TestCrashingTestsAreReportedAsFailures7RunImplEvEN12CrashingTestD2Ev
 3399      FF
 3400 11e2 488B45F8 		movq	-8(%rbp), %rax
 3401 11e6 4889C7   		movq	%rax, %rdi
 3402 11e9 E8000000 		call	_ZdlPv
 3402      00
 3403 11ee C9       		leave
 3404              		.cfi_def_cfa 7, 8
 3405 11ef C3       		ret
 3406              		.cfi_endproc
 3407              	.LFE1219:
 3409              		.section	.rodata
 3410 0488 00000000 		.align 32
 3410      00000000 
 3410      00000000 
 3410      00000000 
 3410      00000000 
 3413              	_ZTVN12_GLOBAL__N_138TestThrowingTestsAreReportedAsFailuresE:
 3414 04a0 00000000 		.quad	0
 3414      00000000 
 3415 04a8 00000000 		.quad	_ZTIN12_GLOBAL__N_138TestThrowingTestsAreReportedAsFailuresE
 3415      00000000 
 3416 04b0 00000000 		.quad	_ZN12_GLOBAL__N_138TestThrowingTestsAreReportedAsFailuresD1Ev
 3416      00000000 
 3417 04b8 00000000 		.quad	_ZN12_GLOBAL__N_138TestThrowingTestsAreReportedAsFailuresD0Ev
 3417      00000000 
 3418 04c0 00000000 		.quad	_ZNK12_GLOBAL__N_138TestThrowingTestsAreReportedAsFailures7RunImplEv
 3418      00000000 
 3419              		.text
 3420              		.align 2
 3422              	_ZN12_GLOBAL__N_138TestThrowingTestsAreReportedAsFailuresD2Ev:
 3423              	.LFB1221:
  54:TestTest.cpp  **** {
 3424              		.loc 4 54 0
 3425              		.cfi_startproc
 3426 11f0 55       		pushq	%rbp
 3427              		.cfi_def_cfa_offset 16
 3428              		.cfi_offset 6, -16
 3429 11f1 4889E5   		movq	%rsp, %rbp
 3430              		.cfi_def_cfa_register 6
 3431 11f4 4883EC10 		subq	$16, %rsp
 3432 11f8 48897DF8 		movq	%rdi, -8(%rbp)
 3433              	.LBB54:
  54:TestTest.cpp  **** {
 3434              		.loc 4 54 0
 3435 11fc 488B45F8 		movq	-8(%rbp), %rax
 3436 1200 48C70000 		movq	$_ZTVN12_GLOBAL__N_138TestThrowingTestsAreReportedAsFailuresE+16, (%rax)
 3436      000000
 3437 1207 488B45F8 		movq	-8(%rbp), %rax
 3438 120b 4889C7   		movq	%rax, %rdi
 3439 120e E8000000 		call	_ZN8UnitTest4TestD2Ev
 3439      00
 3440              	.LBE54:
 3441 1213 B8000000 		movl	$0, %eax
 3441      00
 3442 1218 85C0     		testl	%eax, %eax
 3443 121a 740C     		je	.L180
  54:TestTest.cpp  **** {
 3444              		.loc 4 54 0 is_stmt 0 discriminator 4
 3445 121c 488B45F8 		movq	-8(%rbp), %rax
 3446 1220 4889C7   		movq	%rax, %rdi
 3447 1223 E8000000 		call	_ZdlPv
 3447      00
 3448              	.L180:
  54:TestTest.cpp  **** {
 3449              		.loc 4 54 0
 3450 1228 C9       		leave
 3451              		.cfi_def_cfa 7, 8
 3452 1229 C3       		ret
 3453              		.cfi_endproc
 3454              	.LFE1221:
 3456              		.set	_ZN12_GLOBAL__N_138TestThrowingTestsAreReportedAsFailuresD1Ev,_ZN12_GLOBAL__N_138TestThrowing
 3457              		.align 2
 3459              	_ZN12_GLOBAL__N_138TestThrowingTestsAreReportedAsFailuresD0Ev:
 3460              	.LFB1223:
  54:TestTest.cpp  **** {
 3461              		.loc 4 54 0 is_stmt 1
 3462              		.cfi_startproc
 3463 122a 55       		pushq	%rbp
 3464              		.cfi_def_cfa_offset 16
 3465              		.cfi_offset 6, -16
 3466 122b 4889E5   		movq	%rsp, %rbp
 3467              		.cfi_def_cfa_register 6
 3468 122e 4883EC10 		subq	$16, %rsp
 3469 1232 48897DF8 		movq	%rdi, -8(%rbp)
  54:TestTest.cpp  **** {
 3470              		.loc 4 54 0
 3471 1236 488B45F8 		movq	-8(%rbp), %rax
 3472 123a 4889C7   		movq	%rax, %rdi
 3473 123d E8AEFFFF 		call	_ZN12_GLOBAL__N_138TestThrowingTestsAreReportedAsFailuresD2Ev
 3473      FF
 3474 1242 488B45F8 		movq	-8(%rbp), %rax
 3475 1246 4889C7   		movq	%rax, %rdi
 3476 1249 E8000000 		call	_ZdlPv
 3476      00
 3477 124e C9       		leave
 3478              		.cfi_def_cfa 7, 8
 3479 124f C3       		ret
 3480              		.cfi_endproc
 3481              	.LFE1223:
 3483              		.section	.rodata
 3484 04c8 00000000 		.align 32
 3484      00000000 
 3484      00000000 
 3484      00000000 
 3484      00000000 
 3487              	_ZTVZNK12_GLOBAL__N_138TestThrowingTestsAreReportedAsFailures7RunImplEvE12CrashingTest:
 3488 04e0 00000000 		.quad	0
 3488      00000000 
 3489 04e8 00000000 		.quad	_ZTIZNK12_GLOBAL__N_138TestThrowingTestsAreReportedAsFailures7RunImplEvE12CrashingTest
 3489      00000000 
 3490 04f0 00000000 		.quad	_ZZNK12_GLOBAL__N_138TestThrowingTestsAreReportedAsFailures7RunImplEvEN12CrashingTestD1Ev
 3490      00000000 
 3491 04f8 00000000 		.quad	_ZZNK12_GLOBAL__N_138TestThrowingTestsAreReportedAsFailures7RunImplEvEN12CrashingTestD0Ev
 3491      00000000 
 3492 0500 00000000 		.quad	_ZZNK12_GLOBAL__N_138TestThrowingTestsAreReportedAsFailures7RunImplEvENK12CrashingTest7RunIm
 3492      00000000 
 3493              		.text
 3494              		.align 2
 3496              	_ZZNK12_GLOBAL__N_138TestThrowingTestsAreReportedAsFailures7RunImplEvEN12CrashingTestD2Ev:
 3497              	.LFB1225:
  56:TestTest.cpp  ****     {
 3498              		.loc 4 56 0
 3499              		.cfi_startproc
 3500 1250 55       		pushq	%rbp
 3501              		.cfi_def_cfa_offset 16
 3502              		.cfi_offset 6, -16
 3503 1251 4889E5   		movq	%rsp, %rbp
 3504              		.cfi_def_cfa_register 6
 3505 1254 4883EC10 		subq	$16, %rsp
 3506 1258 48897DF8 		movq	%rdi, -8(%rbp)
 3507              	.LBB55:
  56:TestTest.cpp  ****     {
 3508              		.loc 4 56 0
 3509 125c 488B45F8 		movq	-8(%rbp), %rax
 3510 1260 48C70000 		movq	$_ZTVZNK12_GLOBAL__N_138TestThrowingTestsAreReportedAsFailures7RunImplEvE12CrashingTest+16, (
 3510      000000
 3511 1267 488B45F8 		movq	-8(%rbp), %rax
 3512 126b 4889C7   		movq	%rax, %rdi
 3513 126e E8000000 		call	_ZN8UnitTest4TestD2Ev
 3513      00
 3514              	.LBE55:
 3515 1273 B8000000 		movl	$0, %eax
 3515      00
 3516 1278 85C0     		testl	%eax, %eax
 3517 127a 740C     		je	.L185
  56:TestTest.cpp  ****     {
 3518              		.loc 4 56 0 is_stmt 0 discriminator 4
 3519 127c 488B45F8 		movq	-8(%rbp), %rax
 3520 1280 4889C7   		movq	%rax, %rdi
 3521 1283 E8000000 		call	_ZdlPv
 3521      00
 3522              	.L185:
  56:TestTest.cpp  ****     {
 3523              		.loc 4 56 0
 3524 1288 C9       		leave
 3525              		.cfi_def_cfa 7, 8
 3526 1289 C3       		ret
 3527              		.cfi_endproc
 3528              	.LFE1225:
 3530              		.set	_ZZNK12_GLOBAL__N_138TestThrowingTestsAreReportedAsFailures7RunImplEvEN12CrashingTestD1Ev,_ZZ
 3531              		.align 2
 3533              	_ZZNK12_GLOBAL__N_138TestThrowingTestsAreReportedAsFailures7RunImplEvEN12CrashingTestD0Ev:
 3534              	.LFB1227:
  56:TestTest.cpp  ****     {
 3535              		.loc 4 56 0 is_stmt 1
 3536              		.cfi_startproc
 3537 128a 55       		pushq	%rbp
 3538              		.cfi_def_cfa_offset 16
 3539              		.cfi_offset 6, -16
 3540 128b 4889E5   		movq	%rsp, %rbp
 3541              		.cfi_def_cfa_register 6
 3542 128e 4883EC10 		subq	$16, %rsp
 3543 1292 48897DF8 		movq	%rdi, -8(%rbp)
  56:TestTest.cpp  ****     {
 3544              		.loc 4 56 0
 3545 1296 488B45F8 		movq	-8(%rbp), %rax
 3546 129a 4889C7   		movq	%rax, %rdi
 3547 129d E8AEFFFF 		call	_ZZNK12_GLOBAL__N_138TestThrowingTestsAreReportedAsFailures7RunImplEvEN12CrashingTestD2Ev
 3547      FF
 3548 12a2 488B45F8 		movq	-8(%rbp), %rax
 3549 12a6 4889C7   		movq	%rax, %rdi
 3550 12a9 E8000000 		call	_ZdlPv
 3550      00
 3551 12ae C9       		leave
 3552              		.cfi_def_cfa 7, 8
 3553 12af C3       		ret
 3554              		.cfi_endproc
 3555              	.LFE1227:
 3557              		.section	.rodata
 3558 0508 00000000 		.align 32
 3558      00000000 
 3558      00000000 
 3558      00000000 
 3558      00000000 
 3561              	_ZTVN12_GLOBAL__N_126TestFailingTestHasFailuresE:
 3562 0520 00000000 		.quad	0
 3562      00000000 
 3563 0528 00000000 		.quad	_ZTIN12_GLOBAL__N_126TestFailingTestHasFailuresE
 3563      00000000 
 3564 0530 00000000 		.quad	_ZN12_GLOBAL__N_126TestFailingTestHasFailuresD1Ev
 3564      00000000 
 3565 0538 00000000 		.quad	_ZN12_GLOBAL__N_126TestFailingTestHasFailuresD0Ev
 3565      00000000 
 3566 0540 00000000 		.quad	_ZNK12_GLOBAL__N_126TestFailingTestHasFailures7RunImplEv
 3566      00000000 
 3567              		.text
 3568              		.align 2
 3570              	_ZN12_GLOBAL__N_126TestFailingTestHasFailuresD2Ev:
 3571              	.LFB1229:
  32:TestTest.cpp  **** {
 3572              		.loc 4 32 0
 3573              		.cfi_startproc
 3574 12b0 55       		pushq	%rbp
 3575              		.cfi_def_cfa_offset 16
 3576              		.cfi_offset 6, -16
 3577 12b1 4889E5   		movq	%rsp, %rbp
 3578              		.cfi_def_cfa_register 6
 3579 12b4 4883EC10 		subq	$16, %rsp
 3580 12b8 48897DF8 		movq	%rdi, -8(%rbp)
 3581              	.LBB56:
  32:TestTest.cpp  **** {
 3582              		.loc 4 32 0
 3583 12bc 488B45F8 		movq	-8(%rbp), %rax
 3584 12c0 48C70000 		movq	$_ZTVN12_GLOBAL__N_126TestFailingTestHasFailuresE+16, (%rax)
 3584      000000
 3585 12c7 488B45F8 		movq	-8(%rbp), %rax
 3586 12cb 4889C7   		movq	%rax, %rdi
 3587 12ce E8000000 		call	_ZN8UnitTest4TestD2Ev
 3587      00
 3588              	.LBE56:
 3589 12d3 B8000000 		movl	$0, %eax
 3589      00
 3590 12d8 85C0     		testl	%eax, %eax
 3591 12da 740C     		je	.L190
  32:TestTest.cpp  **** {
 3592              		.loc 4 32 0 is_stmt 0 discriminator 4
 3593 12dc 488B45F8 		movq	-8(%rbp), %rax
 3594 12e0 4889C7   		movq	%rax, %rdi
 3595 12e3 E8000000 		call	_ZdlPv
 3595      00
 3596              	.L190:
  32:TestTest.cpp  **** {
 3597              		.loc 4 32 0
 3598 12e8 C9       		leave
 3599              		.cfi_def_cfa 7, 8
 3600 12e9 C3       		ret
 3601              		.cfi_endproc
 3602              	.LFE1229:
 3604              		.set	_ZN12_GLOBAL__N_126TestFailingTestHasFailuresD1Ev,_ZN12_GLOBAL__N_126TestFailingTestHasFailur
 3605              		.align 2
 3607              	_ZN12_GLOBAL__N_126TestFailingTestHasFailuresD0Ev:
 3608              	.LFB1231:
  32:TestTest.cpp  **** {
 3609              		.loc 4 32 0 is_stmt 1
 3610              		.cfi_startproc
 3611 12ea 55       		pushq	%rbp
 3612              		.cfi_def_cfa_offset 16
 3613              		.cfi_offset 6, -16
 3614 12eb 4889E5   		movq	%rsp, %rbp
 3615              		.cfi_def_cfa_register 6
 3616 12ee 4883EC10 		subq	$16, %rsp
 3617 12f2 48897DF8 		movq	%rdi, -8(%rbp)
  32:TestTest.cpp  **** {
 3618              		.loc 4 32 0
 3619 12f6 488B45F8 		movq	-8(%rbp), %rax
 3620 12fa 4889C7   		movq	%rax, %rdi
 3621 12fd E8AEFFFF 		call	_ZN12_GLOBAL__N_126TestFailingTestHasFailuresD2Ev
 3621      FF
 3622 1302 488B45F8 		movq	-8(%rbp), %rax
 3623 1306 4889C7   		movq	%rax, %rdi
 3624 1309 E8000000 		call	_ZdlPv
 3624      00
 3625 130e C9       		leave
 3626              		.cfi_def_cfa 7, 8
 3627 130f C3       		ret
 3628              		.cfi_endproc
 3629              	.LFE1231:
 3631              		.section	.rodata
 3632 0548 00000000 		.align 32
 3632      00000000 
 3632      00000000 
 3632      00000000 
 3632      00000000 
 3635              	_ZTVZNK12_GLOBAL__N_126TestFailingTestHasFailures7RunImplEvE11FailingTest:
 3636 0560 00000000 		.quad	0
 3636      00000000 
 3637 0568 00000000 		.quad	_ZTIZNK12_GLOBAL__N_126TestFailingTestHasFailures7RunImplEvE11FailingTest
 3637      00000000 
 3638 0570 00000000 		.quad	_ZZNK12_GLOBAL__N_126TestFailingTestHasFailures7RunImplEvEN11FailingTestD1Ev
 3638      00000000 
 3639 0578 00000000 		.quad	_ZZNK12_GLOBAL__N_126TestFailingTestHasFailures7RunImplEvEN11FailingTestD0Ev
 3639      00000000 
 3640 0580 00000000 		.quad	_ZZNK12_GLOBAL__N_126TestFailingTestHasFailures7RunImplEvENK11FailingTest7RunImplEv
 3640      00000000 
 3641              		.text
 3642              		.align 2
 3644              	_ZZNK12_GLOBAL__N_126TestFailingTestHasFailures7RunImplEvEN11FailingTestD2Ev:
 3645              	.LFB1233:
  34:TestTest.cpp  ****     {
 3646              		.loc 4 34 0
 3647              		.cfi_startproc
 3648 1310 55       		pushq	%rbp
 3649              		.cfi_def_cfa_offset 16
 3650              		.cfi_offset 6, -16
 3651 1311 4889E5   		movq	%rsp, %rbp
 3652              		.cfi_def_cfa_register 6
 3653 1314 4883EC10 		subq	$16, %rsp
 3654 1318 48897DF8 		movq	%rdi, -8(%rbp)
 3655              	.LBB57:
  34:TestTest.cpp  ****     {
 3656              		.loc 4 34 0
 3657 131c 488B45F8 		movq	-8(%rbp), %rax
 3658 1320 48C70000 		movq	$_ZTVZNK12_GLOBAL__N_126TestFailingTestHasFailures7RunImplEvE11FailingTest+16, (%rax)
 3658      000000
 3659 1327 488B45F8 		movq	-8(%rbp), %rax
 3660 132b 4889C7   		movq	%rax, %rdi
 3661 132e E8000000 		call	_ZN8UnitTest4TestD2Ev
 3661      00
 3662              	.LBE57:
 3663 1333 B8000000 		movl	$0, %eax
 3663      00
 3664 1338 85C0     		testl	%eax, %eax
 3665 133a 740C     		je	.L195
  34:TestTest.cpp  ****     {
 3666              		.loc 4 34 0 is_stmt 0 discriminator 4
 3667 133c 488B45F8 		movq	-8(%rbp), %rax
 3668 1340 4889C7   		movq	%rax, %rdi
 3669 1343 E8000000 		call	_ZdlPv
 3669      00
 3670              	.L195:
  34:TestTest.cpp  ****     {
 3671              		.loc 4 34 0
 3672 1348 C9       		leave
 3673              		.cfi_def_cfa 7, 8
 3674 1349 C3       		ret
 3675              		.cfi_endproc
 3676              	.LFE1233:
 3678              		.set	_ZZNK12_GLOBAL__N_126TestFailingTestHasFailures7RunImplEvEN11FailingTestD1Ev,_ZZNK12_GLOBAL__
 3679              		.align 2
 3681              	_ZZNK12_GLOBAL__N_126TestFailingTestHasFailures7RunImplEvEN11FailingTestD0Ev:
 3682              	.LFB1235:
  34:TestTest.cpp  ****     {
 3683              		.loc 4 34 0 is_stmt 1
 3684              		.cfi_startproc
 3685 134a 55       		pushq	%rbp
 3686              		.cfi_def_cfa_offset 16
 3687              		.cfi_offset 6, -16
 3688 134b 4889E5   		movq	%rsp, %rbp
 3689              		.cfi_def_cfa_register 6
 3690 134e 4883EC10 		subq	$16, %rsp
 3691 1352 48897DF8 		movq	%rdi, -8(%rbp)
  34:TestTest.cpp  ****     {
 3692              		.loc 4 34 0
 3693 1356 488B45F8 		movq	-8(%rbp), %rax
 3694 135a 4889C7   		movq	%rax, %rdi
 3695 135d E8AEFFFF 		call	_ZZNK12_GLOBAL__N_126TestFailingTestHasFailures7RunImplEvEN11FailingTestD2Ev
 3695      FF
 3696 1362 488B45F8 		movq	-8(%rbp), %rax
 3697 1366 4889C7   		movq	%rax, %rdi
 3698 1369 E8000000 		call	_ZdlPv
 3698      00
 3699 136e C9       		leave
 3700              		.cfi_def_cfa 7, 8
 3701 136f C3       		ret
 3702              		.cfi_endproc
 3703              	.LFE1235:
 3705              		.section	.rodata
 3706 0588 00000000 		.align 32
 3706      00000000 
 3706      00000000 
 3706      00000000 
 3706      00000000 
 3709              	_ZTVN12_GLOBAL__N_128TestPassingTestHasNoFailuresE:
 3710 05a0 00000000 		.quad	0
 3710      00000000 
 3711 05a8 00000000 		.quad	_ZTIN12_GLOBAL__N_128TestPassingTestHasNoFailuresE
 3711      00000000 
 3712 05b0 00000000 		.quad	_ZN12_GLOBAL__N_128TestPassingTestHasNoFailuresD1Ev
 3712      00000000 
 3713 05b8 00000000 		.quad	_ZN12_GLOBAL__N_128TestPassingTestHasNoFailuresD0Ev
 3713      00000000 
 3714 05c0 00000000 		.quad	_ZNK12_GLOBAL__N_128TestPassingTestHasNoFailures7RunImplEv
 3714      00000000 
 3715              		.text
 3716              		.align 2
 3718              	_ZN12_GLOBAL__N_128TestPassingTestHasNoFailuresD2Ev:
 3719              	.LFB1237:
  10:TestTest.cpp  **** {
 3720              		.loc 4 10 0
 3721              		.cfi_startproc
 3722 1370 55       		pushq	%rbp
 3723              		.cfi_def_cfa_offset 16
 3724              		.cfi_offset 6, -16
 3725 1371 4889E5   		movq	%rsp, %rbp
 3726              		.cfi_def_cfa_register 6
 3727 1374 4883EC10 		subq	$16, %rsp
 3728 1378 48897DF8 		movq	%rdi, -8(%rbp)
 3729              	.LBB58:
  10:TestTest.cpp  **** {
 3730              		.loc 4 10 0
 3731 137c 488B45F8 		movq	-8(%rbp), %rax
 3732 1380 48C70000 		movq	$_ZTVN12_GLOBAL__N_128TestPassingTestHasNoFailuresE+16, (%rax)
 3732      000000
 3733 1387 488B45F8 		movq	-8(%rbp), %rax
 3734 138b 4889C7   		movq	%rax, %rdi
 3735 138e E8000000 		call	_ZN8UnitTest4TestD2Ev
 3735      00
 3736              	.LBE58:
 3737 1393 B8000000 		movl	$0, %eax
 3737      00
 3738 1398 85C0     		testl	%eax, %eax
 3739 139a 740C     		je	.L200
  10:TestTest.cpp  **** {
 3740              		.loc 4 10 0 is_stmt 0 discriminator 4
 3741 139c 488B45F8 		movq	-8(%rbp), %rax
 3742 13a0 4889C7   		movq	%rax, %rdi
 3743 13a3 E8000000 		call	_ZdlPv
 3743      00
 3744              	.L200:
  10:TestTest.cpp  **** {
 3745              		.loc 4 10 0
 3746 13a8 C9       		leave
 3747              		.cfi_def_cfa 7, 8
 3748 13a9 C3       		ret
 3749              		.cfi_endproc
 3750              	.LFE1237:
 3752              		.set	_ZN12_GLOBAL__N_128TestPassingTestHasNoFailuresD1Ev,_ZN12_GLOBAL__N_128TestPassingTestHasNoFa
 3753              		.align 2
 3755              	_ZN12_GLOBAL__N_128TestPassingTestHasNoFailuresD0Ev:
 3756              	.LFB1239:
  10:TestTest.cpp  **** {
 3757              		.loc 4 10 0 is_stmt 1
 3758              		.cfi_startproc
 3759 13aa 55       		pushq	%rbp
 3760              		.cfi_def_cfa_offset 16
 3761              		.cfi_offset 6, -16
 3762 13ab 4889E5   		movq	%rsp, %rbp
 3763              		.cfi_def_cfa_register 6
 3764 13ae 4883EC10 		subq	$16, %rsp
 3765 13b2 48897DF8 		movq	%rdi, -8(%rbp)
  10:TestTest.cpp  **** {
 3766              		.loc 4 10 0
 3767 13b6 488B45F8 		movq	-8(%rbp), %rax
 3768 13ba 4889C7   		movq	%rax, %rdi
 3769 13bd E8AEFFFF 		call	_ZN12_GLOBAL__N_128TestPassingTestHasNoFailuresD2Ev
 3769      FF
 3770 13c2 488B45F8 		movq	-8(%rbp), %rax
 3771 13c6 4889C7   		movq	%rax, %rdi
 3772 13c9 E8000000 		call	_ZdlPv
 3772      00
 3773 13ce C9       		leave
 3774              		.cfi_def_cfa 7, 8
 3775 13cf C3       		ret
 3776              		.cfi_endproc
 3777              	.LFE1239:
 3779              		.section	.rodata
 3780 05c8 00000000 		.align 32
 3780      00000000 
 3780      00000000 
 3780      00000000 
 3780      00000000 
 3783              	_ZTVZNK12_GLOBAL__N_128TestPassingTestHasNoFailures7RunImplEvE11PassingTest:
 3784 05e0 00000000 		.quad	0
 3784      00000000 
 3785 05e8 00000000 		.quad	_ZTIZNK12_GLOBAL__N_128TestPassingTestHasNoFailures7RunImplEvE11PassingTest
 3785      00000000 
 3786 05f0 00000000 		.quad	_ZZNK12_GLOBAL__N_128TestPassingTestHasNoFailures7RunImplEvEN11PassingTestD1Ev
 3786      00000000 
 3787 05f8 00000000 		.quad	_ZZNK12_GLOBAL__N_128TestPassingTestHasNoFailures7RunImplEvEN11PassingTestD0Ev
 3787      00000000 
 3788 0600 00000000 		.quad	_ZZNK12_GLOBAL__N_128TestPassingTestHasNoFailures7RunImplEvENK11PassingTest7RunImplEv
 3788      00000000 
 3789              		.text
 3790              		.align 2
 3792              	_ZZNK12_GLOBAL__N_128TestPassingTestHasNoFailures7RunImplEvEN11PassingTestD2Ev:
 3793              	.LFB1241:
  12:TestTest.cpp  ****     {
 3794              		.loc 4 12 0
 3795              		.cfi_startproc
 3796 13d0 55       		pushq	%rbp
 3797              		.cfi_def_cfa_offset 16
 3798              		.cfi_offset 6, -16
 3799 13d1 4889E5   		movq	%rsp, %rbp
 3800              		.cfi_def_cfa_register 6
 3801 13d4 4883EC10 		subq	$16, %rsp
 3802 13d8 48897DF8 		movq	%rdi, -8(%rbp)
 3803              	.LBB59:
  12:TestTest.cpp  ****     {
 3804              		.loc 4 12 0
 3805 13dc 488B45F8 		movq	-8(%rbp), %rax
 3806 13e0 48C70000 		movq	$_ZTVZNK12_GLOBAL__N_128TestPassingTestHasNoFailures7RunImplEvE11PassingTest+16, (%rax)
 3806      000000
 3807 13e7 488B45F8 		movq	-8(%rbp), %rax
 3808 13eb 4889C7   		movq	%rax, %rdi
 3809 13ee E8000000 		call	_ZN8UnitTest4TestD2Ev
 3809      00
 3810              	.LBE59:
 3811 13f3 B8000000 		movl	$0, %eax
 3811      00
 3812 13f8 85C0     		testl	%eax, %eax
 3813 13fa 740C     		je	.L205
  12:TestTest.cpp  ****     {
 3814              		.loc 4 12 0 is_stmt 0 discriminator 4
 3815 13fc 488B45F8 		movq	-8(%rbp), %rax
 3816 1400 4889C7   		movq	%rax, %rdi
 3817 1403 E8000000 		call	_ZdlPv
 3817      00
 3818              	.L205:
  12:TestTest.cpp  ****     {
 3819              		.loc 4 12 0
 3820 1408 C9       		leave
 3821              		.cfi_def_cfa 7, 8
 3822 1409 C3       		ret
 3823              		.cfi_endproc
 3824              	.LFE1241:
 3826              		.set	_ZZNK12_GLOBAL__N_128TestPassingTestHasNoFailures7RunImplEvEN11PassingTestD1Ev,_ZZNK12_GLOBAL
 3827              		.align 2
 3829              	_ZZNK12_GLOBAL__N_128TestPassingTestHasNoFailures7RunImplEvEN11PassingTestD0Ev:
 3830              	.LFB1243:
  12:TestTest.cpp  ****     {
 3831              		.loc 4 12 0 is_stmt 1
 3832              		.cfi_startproc
 3833 140a 55       		pushq	%rbp
 3834              		.cfi_def_cfa_offset 16
 3835              		.cfi_offset 6, -16
 3836 140b 4889E5   		movq	%rsp, %rbp
 3837              		.cfi_def_cfa_register 6
 3838 140e 4883EC10 		subq	$16, %rsp
 3839 1412 48897DF8 		movq	%rdi, -8(%rbp)
  12:TestTest.cpp  ****     {
 3840              		.loc 4 12 0
 3841 1416 488B45F8 		movq	-8(%rbp), %rax
 3842 141a 4889C7   		movq	%rax, %rdi
 3843 141d E8AEFFFF 		call	_ZZNK12_GLOBAL__N_128TestPassingTestHasNoFailures7RunImplEvEN11PassingTestD2Ev
 3843      FF
 3844 1422 488B45F8 		movq	-8(%rbp), %rax
 3845 1426 4889C7   		movq	%rax, %rdi
 3846 1429 E8000000 		call	_ZdlPv
 3846      00
 3847 142e C9       		leave
 3848              		.cfi_def_cfa 7, 8
 3849 142f C3       		ret
 3850              		.cfi_endproc
 3851              	.LFE1243:
 3853              		.weak	_ZTVN8UnitTest15MemoryOutStreamE
 3854              		.section	.rodata._ZTVN8UnitTest15MemoryOutStreamE,"aG",@progbits,_ZTVN8UnitTest15MemoryOutStreamE,
 3855              		.align 64
 3858              	_ZTVN8UnitTest15MemoryOutStreamE:
 3859 0000 60000000 		.quad	96
 3859      00000000 
 3860 0008 00000000 		.quad	0
 3860      00000000 
 3861 0010 00000000 		.quad	_ZTIN8UnitTest15MemoryOutStreamE
 3861      00000000 
 3862 0018 00000000 		.quad	_ZN8UnitTest15MemoryOutStreamD1Ev
 3862      00000000 
 3863 0020 00000000 		.quad	_ZN8UnitTest15MemoryOutStreamD0Ev
 3863      00000000 
 3864 0028 A0FFFFFF 		.quad	-96
 3864      FFFFFFFF 
 3865 0030 A0FFFFFF 		.quad	-96
 3865      FFFFFFFF 
 3866 0038 00000000 		.quad	_ZTIN8UnitTest15MemoryOutStreamE
 3866      00000000 
 3867 0040 00000000 		.quad	_ZTv0_n24_N8UnitTest15MemoryOutStreamD1Ev
 3867      00000000 
 3868 0048 00000000 		.quad	_ZTv0_n24_N8UnitTest15MemoryOutStreamD0Ev
 3868      00000000 
 3869              		.weak	_ZTTN8UnitTest15MemoryOutStreamE
 3870              		.section	.rodata._ZTTN8UnitTest15MemoryOutStreamE,"aG",@progbits,_ZTVN8UnitTest15MemoryOutStreamE,
 3871              		.align 32
 3874              	_ZTTN8UnitTest15MemoryOutStreamE:
 3875 0000 00000000 		.quad	_ZTVN8UnitTest15MemoryOutStreamE+24
 3875      00000000 
 3876 0008 00000000 		.quad	_ZTCN8UnitTest15MemoryOutStreamE0_St19basic_ostringstreamIcSt11char_traitsIcESaIcEE+24
 3876      00000000 
 3877 0010 00000000 		.quad	_ZTCN8UnitTest15MemoryOutStreamE0_So+24
 3877      00000000 
 3878 0018 00000000 		.quad	_ZTCN8UnitTest15MemoryOutStreamE0_So+64
 3878      00000000 
 3879 0020 00000000 		.quad	_ZTCN8UnitTest15MemoryOutStreamE0_St19basic_ostringstreamIcSt11char_traitsIcESaIcEE+64
 3879      00000000 
 3880 0028 00000000 		.quad	_ZTVN8UnitTest15MemoryOutStreamE+64
 3880      00000000 
 3881              		.hidden	_ZTCN8UnitTest15MemoryOutStreamE0_St19basic_ostringstreamIcSt11char_traitsIcESaIcEE
 3882              		.weak	_ZTCN8UnitTest15MemoryOutStreamE0_St19basic_ostringstreamIcSt11char_traitsIcESaIcEE
 3883              		.section	.rodata._ZTCN8UnitTest15MemoryOutStreamE0_St19basic_ostringstreamIcSt11char_traitsIcESaIc
 3884              		.align 64
 3887              	_ZTCN8UnitTest15MemoryOutStreamE0_St19basic_ostringstreamIcSt11char_traitsIcESaIcEE:
 3888 0000 60000000 		.quad	96
 3888      00000000 
 3889 0008 00000000 		.quad	0
 3889      00000000 
 3890 0010 00000000 		.quad	_ZTISt19basic_ostringstreamIcSt11char_traitsIcESaIcEE
 3890      00000000 
 3891 0018 00000000 		.quad	0
 3891      00000000 
 3892 0020 00000000 		.quad	0
 3892      00000000 
 3893 0028 A0FFFFFF 		.quad	-96
 3893      FFFFFFFF 
 3894 0030 A0FFFFFF 		.quad	-96
 3894      FFFFFFFF 
 3895 0038 00000000 		.quad	_ZTISt19basic_ostringstreamIcSt11char_traitsIcESaIcEE
 3895      00000000 
 3896 0040 00000000 		.quad	0
 3896      00000000 
 3897 0048 00000000 		.quad	0
 3897      00000000 
 3898              		.hidden	_ZTCN8UnitTest15MemoryOutStreamE0_So
 3899              		.weak	_ZTCN8UnitTest15MemoryOutStreamE0_So
 3900              		.section	.rodata._ZTCN8UnitTest15MemoryOutStreamE0_So,"aG",@progbits,_ZTVN8UnitTest15MemoryOutStre
 3901              		.align 64
 3904              	_ZTCN8UnitTest15MemoryOutStreamE0_So:
 3905 0000 60000000 		.quad	96
 3905      00000000 
 3906 0008 00000000 		.quad	0
 3906      00000000 
 3907 0010 00000000 		.quad	_ZTISo
 3907      00000000 
 3908 0018 00000000 		.quad	0
 3908      00000000 
 3909 0020 00000000 		.quad	0
 3909      00000000 
 3910 0028 A0FFFFFF 		.quad	-96
 3910      FFFFFFFF 
 3911 0030 A0FFFFFF 		.quad	-96
 3911      FFFFFFFF 
 3912 0038 00000000 		.quad	_ZTISo
 3912      00000000 
 3913 0040 00000000 		.quad	0
 3913      00000000 
 3914 0048 00000000 		.quad	0
 3914      00000000 
 3915              		.weak	_ZTSN8UnitTest15MemoryOutStreamE
 3916              		.section	.rodata._ZTSN8UnitTest15MemoryOutStreamE,"aG",@progbits,_ZTSN8UnitTest15MemoryOutStreamE,
 3917              		.align 16
 3920              	_ZTSN8UnitTest15MemoryOutStreamE:
 3921 0000 4E38556E 		.string	"N8UnitTest15MemoryOutStreamE"
 3921      69745465 
 3921      73743135 
 3921      4D656D6F 
 3921      72794F75 
 3922              		.weak	_ZTIN8UnitTest15MemoryOutStreamE
 3923              		.section	.rodata._ZTIN8UnitTest15MemoryOutStreamE,"aG",@progbits,_ZTIN8UnitTest15MemoryOutStreamE,
 3924              		.align 16
 3927              	_ZTIN8UnitTest15MemoryOutStreamE:
 3928 0000 00000000 		.quad	_ZTVN10__cxxabiv120__si_class_type_infoE+16
 3928      00000000 
 3929 0008 00000000 		.quad	_ZTSN8UnitTest15MemoryOutStreamE
 3929      00000000 
 3930 0010 00000000 		.quad	_ZTISt19basic_ostringstreamIcSt11char_traitsIcESaIcEE
 3930      00000000 
 3931              		.text
 3933              	_Z41__static_initialization_and_destruction_0ii:
 3934              	.LFB1244:
 128:TestTest.cpp  **** 
 129:TestTest.cpp  **** }
 3935              		.loc 4 129 0
 3936              		.cfi_startproc
 3937 1430 55       		pushq	%rbp
 3938              		.cfi_def_cfa_offset 16
 3939              		.cfi_offset 6, -16
 3940 1431 4889E5   		movq	%rsp, %rbp
 3941              		.cfi_def_cfa_register 6
 3942 1434 4883EC10 		subq	$16, %rsp
 3943 1438 897DFC   		movl	%edi, -4(%rbp)
 3944 143b 8975F8   		movl	%esi, -8(%rbp)
 3945              		.loc 4 129 0
 3946 143e 837DFC01 		cmpl	$1, -4(%rbp)
 3947 1442 0F858001 		jne	.L210
 3947      0000
 3948              		.loc 4 129 0 is_stmt 0 discriminator 1
 3949 1448 817DF8FF 		cmpl	$65535, -8(%rbp)
 3949      FF0000
 3950 144f 0F857301 		jne	.L210
 3950      0000
  10:TestTest.cpp  **** {
 3951              		.loc 4 10 0 is_stmt 1
 3952 1455 BF000000 		movl	$_ZN12_GLOBAL__N_136testPassingTestHasNoFailuresInstanceE, %edi
 3952      00
 3953 145a E8A1EBFF 		call	_ZN12_GLOBAL__N_128TestPassingTestHasNoFailuresC2Ev
 3953      FF
 3954 145f BA000000 		movl	$__dso_handle, %edx
 3954      00
 3955 1464 BE000000 		movl	$_ZN12_GLOBAL__N_136testPassingTestHasNoFailuresInstanceE, %esi
 3955      00
 3956 1469 BF000000 		movl	$_ZN12_GLOBAL__N_128TestPassingTestHasNoFailuresD1Ev, %edi
 3956      00
 3957 146e E8000000 		call	__cxa_atexit
 3957      00
 3958 1473 E8000000 		call	_ZN8UnitTest4Test11GetTestListEv
 3958      00
 3959 1478 BA000000 		movl	$_ZN12_GLOBAL__N_136testPassingTestHasNoFailuresInstanceE, %edx
 3959      00
 3960 147d 4889C6   		movq	%rax, %rsi
 3961 1480 BF000000 		movl	$_ZN12_GLOBAL__N_129adderPassingTestHasNoFailuresE, %edi
 3961      00
 3962 1485 E8000000 		call	_ZN8UnitTest9ListAdderC1ERNS_8TestListEPNS_4TestE
 3962      00
  32:TestTest.cpp  **** {
 3963              		.loc 4 32 0
 3964 148a BF000000 		movl	$_ZN12_GLOBAL__N_134testFailingTestHasFailuresInstanceE, %edi
 3964      00
 3965 148f E83AEEFF 		call	_ZN12_GLOBAL__N_126TestFailingTestHasFailuresC2Ev
 3965      FF
 3966 1494 BA000000 		movl	$__dso_handle, %edx
 3966      00
 3967 1499 BE000000 		movl	$_ZN12_GLOBAL__N_134testFailingTestHasFailuresInstanceE, %esi
 3967      00
 3968 149e BF000000 		movl	$_ZN12_GLOBAL__N_126TestFailingTestHasFailuresD1Ev, %edi
 3968      00
 3969 14a3 E8000000 		call	__cxa_atexit
 3969      00
 3970 14a8 E8000000 		call	_ZN8UnitTest4Test11GetTestListEv
 3970      00
 3971 14ad BA000000 		movl	$_ZN12_GLOBAL__N_134testFailingTestHasFailuresInstanceE, %edx
 3971      00
 3972 14b2 4889C6   		movq	%rax, %rsi
 3973 14b5 BF000000 		movl	$_ZN12_GLOBAL__N_127adderFailingTestHasFailuresE, %edi
 3973      00
 3974 14ba E8000000 		call	_ZN8UnitTest9ListAdderC1ERNS_8TestListEPNS_4TestE
 3974      00
  54:TestTest.cpp  **** {
 3975              		.loc 4 54 0
 3976 14bf BF000000 		movl	$_ZN12_GLOBAL__N_146testThrowingTestsAreReportedAsFailuresInstanceE, %edi
 3976      00
 3977 14c4 E8D3F0FF 		call	_ZN12_GLOBAL__N_138TestThrowingTestsAreReportedAsFailuresC2Ev
 3977      FF
 3978 14c9 BA000000 		movl	$__dso_handle, %edx
 3978      00
 3979 14ce BE000000 		movl	$_ZN12_GLOBAL__N_146testThrowingTestsAreReportedAsFailuresInstanceE, %esi
 3979      00
 3980 14d3 BF000000 		movl	$_ZN12_GLOBAL__N_138TestThrowingTestsAreReportedAsFailuresD1Ev, %edi
 3980      00
 3981 14d8 E8000000 		call	__cxa_atexit
 3981      00
 3982 14dd E8000000 		call	_ZN8UnitTest4Test11GetTestListEv
 3982      00
 3983 14e2 BA000000 		movl	$_ZN12_GLOBAL__N_146testThrowingTestsAreReportedAsFailuresInstanceE, %edx
 3983      00
 3984 14e7 4889C6   		movq	%rax, %rsi
 3985 14ea BF000000 		movl	$_ZN12_GLOBAL__N_139adderThrowingTestsAreReportedAsFailuresE, %edi
 3985      00
 3986 14ef E8000000 		call	_ZN8UnitTest9ListAdderC1ERNS_8TestListEPNS_4TestE
 3986      00
  77:TestTest.cpp  **** {
 3987              		.loc 4 77 0
 3988 14f4 BF000000 		movl	$_ZN12_GLOBAL__N_146testCrashingTestsAreReportedAsFailuresInstanceE, %edi
 3988      00
 3989 14f9 E8BCF2FF 		call	_ZN12_GLOBAL__N_138TestCrashingTestsAreReportedAsFailuresC2Ev
 3989      FF
 3990 14fe BA000000 		movl	$__dso_handle, %edx
 3990      00
 3991 1503 BE000000 		movl	$_ZN12_GLOBAL__N_146testCrashingTestsAreReportedAsFailuresInstanceE, %esi
 3991      00
 3992 1508 BF000000 		movl	$_ZN12_GLOBAL__N_138TestCrashingTestsAreReportedAsFailuresD1Ev, %edi
 3992      00
 3993 150d E8000000 		call	__cxa_atexit
 3993      00
 3994 1512 E8000000 		call	_ZN8UnitTest4Test11GetTestListEv
 3994      00
 3995 1517 BA000000 		movl	$_ZN12_GLOBAL__N_146testCrashingTestsAreReportedAsFailuresInstanceE, %edx
 3995      00
 3996 151c 4889C6   		movq	%rax, %rsi
 3997 151f BF000000 		movl	$_ZN12_GLOBAL__N_139adderCrashingTestsAreReportedAsFailuresE, %edi
 3997      00
 3998 1524 E8000000 		call	_ZN8UnitTest9ListAdderC1ERNS_8TestListEPNS_4TestE
 3998      00
  99:TestTest.cpp  **** {
 3999              		.loc 4 99 0
 4000 1529 BF000000 		movl	$_ZN12_GLOBAL__N_152testTestWithUnspecifiedSuiteGetsDefaultSuiteInstanceE, %edi
 4000      00
 4001 152e E88BF4FF 		call	_ZN12_GLOBAL__N_144TestTestWithUnspecifiedSuiteGetsDefaultSuiteC2Ev
 4001      FF
 4002 1533 BA000000 		movl	$__dso_handle, %edx
 4002      00
 4003 1538 BE000000 		movl	$_ZN12_GLOBAL__N_152testTestWithUnspecifiedSuiteGetsDefaultSuiteInstanceE, %esi
 4003      00
 4004 153d BF000000 		movl	$_ZN12_GLOBAL__N_144TestTestWithUnspecifiedSuiteGetsDefaultSuiteD1Ev, %edi
 4004      00
 4005 1542 E8000000 		call	__cxa_atexit
 4005      00
 4006 1547 E8000000 		call	_ZN8UnitTest4Test11GetTestListEv
 4006      00
 4007 154c BA000000 		movl	$_ZN12_GLOBAL__N_152testTestWithUnspecifiedSuiteGetsDefaultSuiteInstanceE, %edx
 4007      00
 4008 1551 4889C6   		movq	%rax, %rsi
 4009 1554 BF000000 		movl	$_ZN12_GLOBAL__N_145adderTestWithUnspecifiedSuiteGetsDefaultSuiteE, %edi
 4009      00
 4010 1559 E8000000 		call	_ZN8UnitTest9ListAdderC1ERNS_8TestListEPNS_4TestE
 4010      00
 106:TestTest.cpp  **** {
 4011              		.loc 4 106 0
 4012 155e BF000000 		movl	$_ZN12_GLOBAL__N_142testTestReflectsSpecifiedSuiteNameInstanceE, %edi
 4012      00
 4013 1563 E858F6FF 		call	_ZN12_GLOBAL__N_134TestTestReflectsSpecifiedSuiteNameC2Ev
 4013      FF
 4014 1568 BA000000 		movl	$__dso_handle, %edx
 4014      00
 4015 156d BE000000 		movl	$_ZN12_GLOBAL__N_142testTestReflectsSpecifiedSuiteNameInstanceE, %esi
 4015      00
 4016 1572 BF000000 		movl	$_ZN12_GLOBAL__N_134TestTestReflectsSpecifiedSuiteNameD1Ev, %edi
 4016      00
 4017 1577 E8000000 		call	__cxa_atexit
 4017      00
 4018 157c E8000000 		call	_ZN8UnitTest4Test11GetTestListEv
 4018      00
 4019 1581 BA000000 		movl	$_ZN12_GLOBAL__N_142testTestReflectsSpecifiedSuiteNameInstanceE, %edx
 4019      00
 4020 1586 4889C6   		movq	%rax, %rsi
 4021 1589 BF000000 		movl	$_ZN12_GLOBAL__N_135adderTestReflectsSpecifiedSuiteNameE, %edi
 4021      00
 4022 158e E8000000 		call	_ZN8UnitTest9ListAdderC1ERNS_8TestListEPNS_4TestE
 4022      00
 118:TestTest.cpp  **** {
 4023              		.loc 4 118 0
 4024 1593 BF000000 		movl	$_ZN12_GLOBAL__N_144testOutOfCoreCHECKMacrosCanFailTestsInstanceE, %edi
 4024      00
 4025 1598 E801F9FF 		call	_ZN12_GLOBAL__N_136TestOutOfCoreCHECKMacrosCanFailTestsC2Ev
 4025      FF
 4026 159d BA000000 		movl	$__dso_handle, %edx
 4026      00
 4027 15a2 BE000000 		movl	$_ZN12_GLOBAL__N_144testOutOfCoreCHECKMacrosCanFailTestsInstanceE, %esi
 4027      00
 4028 15a7 BF000000 		movl	$_ZN12_GLOBAL__N_136TestOutOfCoreCHECKMacrosCanFailTestsD1Ev, %edi
 4028      00
 4029 15ac E8000000 		call	__cxa_atexit
 4029      00
 4030 15b1 E8000000 		call	_ZN8UnitTest4Test11GetTestListEv
 4030      00
 4031 15b6 BA000000 		movl	$_ZN12_GLOBAL__N_144testOutOfCoreCHECKMacrosCanFailTestsInstanceE, %edx
 4031      00
 4032 15bb 4889C6   		movq	%rax, %rsi
 4033 15be BF000000 		movl	$_ZN12_GLOBAL__N_137adderOutOfCoreCHECKMacrosCanFailTestsE, %edi
 4033      00
 4034 15c3 E8000000 		call	_ZN8UnitTest9ListAdderC1ERNS_8TestListEPNS_4TestE
 4034      00
 4035              	.L210:
 4036              		.loc 4 129 0
 4037 15c8 C9       		leave
 4038              		.cfi_def_cfa 7, 8
 4039 15c9 C3       		ret
 4040              		.cfi_endproc
 4041              	.LFE1244:
 4043              		.section	.rodata
 4044 0608 00000000 		.align 16
 4044      00000000 
 4047              	_ZTIN12_GLOBAL__N_128TestPassingTestHasNoFailuresE:
 4048 0610 00000000 		.quad	_ZTVN10__cxxabiv120__si_class_type_infoE+16
 4048      00000000 
 4049 0618 00000000 		.quad	_ZTSN12_GLOBAL__N_128TestPassingTestHasNoFailuresE
 4049      00000000 
 4050 0620 00000000 		.quad	_ZTIN8UnitTest4TestE
 4050      00000000 
 4051 0628 00000000 		.align 16
 4051      00000000 
 4054              	_ZTIZNK12_GLOBAL__N_128TestPassingTestHasNoFailures7RunImplEvE11PassingTest:
 4055 0630 00000000 		.quad	_ZTVN10__cxxabiv120__si_class_type_infoE+16
 4055      00000000 
 4056 0638 00000000 		.quad	_ZTSZNK12_GLOBAL__N_128TestPassingTestHasNoFailures7RunImplEvE11PassingTest
 4056      00000000 
 4057 0640 00000000 		.quad	_ZTIN8UnitTest4TestE
 4057      00000000 
 4058 0648 00000000 		.align 16
 4058      00000000 
 4061              	_ZTIN12_GLOBAL__N_126TestFailingTestHasFailuresE:
 4062 0650 00000000 		.quad	_ZTVN10__cxxabiv120__si_class_type_infoE+16
 4062      00000000 
 4063 0658 00000000 		.quad	_ZTSN12_GLOBAL__N_126TestFailingTestHasFailuresE
 4063      00000000 
 4064 0660 00000000 		.quad	_ZTIN8UnitTest4TestE
 4064      00000000 
 4065 0668 00000000 		.align 16
 4065      00000000 
 4068              	_ZTIZNK12_GLOBAL__N_126TestFailingTestHasFailures7RunImplEvE11FailingTest:
 4069 0670 00000000 		.quad	_ZTVN10__cxxabiv120__si_class_type_infoE+16
 4069      00000000 
 4070 0678 00000000 		.quad	_ZTSZNK12_GLOBAL__N_126TestFailingTestHasFailures7RunImplEvE11FailingTest
 4070      00000000 
 4071 0680 00000000 		.quad	_ZTIN8UnitTest4TestE
 4071      00000000 
 4072 0688 00000000 		.align 16
 4072      00000000 
 4075              	_ZTIN12_GLOBAL__N_138TestThrowingTestsAreReportedAsFailuresE:
 4076 0690 00000000 		.quad	_ZTVN10__cxxabiv120__si_class_type_infoE+16
 4076      00000000 
 4077 0698 00000000 		.quad	_ZTSN12_GLOBAL__N_138TestThrowingTestsAreReportedAsFailuresE
 4077      00000000 
 4078 06a0 00000000 		.quad	_ZTIN8UnitTest4TestE
 4078      00000000 
 4079 06a8 00000000 		.align 16
 4079      00000000 
 4082              	_ZTIZNK12_GLOBAL__N_138TestThrowingTestsAreReportedAsFailures7RunImplEvE12CrashingTest:
 4083 06b0 00000000 		.quad	_ZTVN10__cxxabiv120__si_class_type_infoE+16
 4083      00000000 
 4084 06b8 00000000 		.quad	_ZTSZNK12_GLOBAL__N_138TestThrowingTestsAreReportedAsFailures7RunImplEvE12CrashingTest
 4084      00000000 
 4085 06c0 00000000 		.quad	_ZTIN8UnitTest4TestE
 4085      00000000 
 4086 06c8 00000000 		.align 16
 4086      00000000 
 4089              	_ZTIN12_GLOBAL__N_138TestCrashingTestsAreReportedAsFailuresE:
 4090 06d0 00000000 		.quad	_ZTVN10__cxxabiv120__si_class_type_infoE+16
 4090      00000000 
 4091 06d8 00000000 		.quad	_ZTSN12_GLOBAL__N_138TestCrashingTestsAreReportedAsFailuresE
 4091      00000000 
 4092 06e0 00000000 		.quad	_ZTIN8UnitTest4TestE
 4092      00000000 
 4093 06e8 00000000 		.align 16
 4093      00000000 
 4096              	_ZTIZNK12_GLOBAL__N_138TestCrashingTestsAreReportedAsFailures7RunImplEvE12CrashingTest:
 4097 06f0 00000000 		.quad	_ZTVN10__cxxabiv120__si_class_type_infoE+16
 4097      00000000 
 4098 06f8 00000000 		.quad	_ZTSZNK12_GLOBAL__N_138TestCrashingTestsAreReportedAsFailures7RunImplEvE12CrashingTest
 4098      00000000 
 4099 0700 00000000 		.quad	_ZTIN8UnitTest4TestE
 4099      00000000 
 4100 0708 00000000 		.align 16
 4100      00000000 
 4103              	_ZTIN12_GLOBAL__N_144TestTestWithUnspecifiedSuiteGetsDefaultSuiteE:
 4104 0710 00000000 		.quad	_ZTVN10__cxxabiv120__si_class_type_infoE+16
 4104      00000000 
 4105 0718 00000000 		.quad	_ZTSN12_GLOBAL__N_144TestTestWithUnspecifiedSuiteGetsDefaultSuiteE
 4105      00000000 
 4106 0720 00000000 		.quad	_ZTIN8UnitTest4TestE
 4106      00000000 
 4107 0728 00000000 		.align 16
 4107      00000000 
 4110              	_ZTIN12_GLOBAL__N_134TestTestReflectsSpecifiedSuiteNameE:
 4111 0730 00000000 		.quad	_ZTVN10__cxxabiv120__si_class_type_infoE+16
 4111      00000000 
 4112 0738 00000000 		.quad	_ZTSN12_GLOBAL__N_134TestTestReflectsSpecifiedSuiteNameE
 4112      00000000 
 4113 0740 00000000 		.quad	_ZTIN8UnitTest4TestE
 4113      00000000 
 4114 0748 00000000 		.align 16
 4114      00000000 
 4117              	_ZTIN12_GLOBAL__N_136TestOutOfCoreCHECKMacrosCanFailTestsE:
 4118 0750 00000000 		.quad	_ZTVN10__cxxabiv120__si_class_type_infoE+16
 4118      00000000 
 4119 0758 00000000 		.quad	_ZTSN12_GLOBAL__N_136TestOutOfCoreCHECKMacrosCanFailTestsE
 4119      00000000 
 4120 0760 00000000 		.quad	_ZTIN8UnitTest4TestE
 4120      00000000 
 4121 0768 00000000 		.align 32
 4121      00000000 
 4121      00000000 
 4121      00000000 
 4121      00000000 
 4124              	_ZTSN12_GLOBAL__N_136TestOutOfCoreCHECKMacrosCanFailTestsE:
 4125 0780 2A4E3132 		.string	"*N12_GLOBAL__N_136TestOutOfCoreCHECKMacrosCanFailTestsE"
 4125      5F474C4F 
 4125      42414C5F 
 4125      5F4E5F31 
 4125      33365465 
 4126 07b8 00000000 		.align 32
 4126      00000000 
 4129              	_ZTSN12_GLOBAL__N_134TestTestReflectsSpecifiedSuiteNameE:
 4130 07c0 2A4E3132 		.string	"*N12_GLOBAL__N_134TestTestReflectsSpecifiedSuiteNameE"
 4130      5F474C4F 
 4130      42414C5F 
 4130      5F4E5F31 
 4130      33345465 
 4131 07f6 00000000 		.align 64
 4131      00000000 
 4131      0000
 4134              	_ZTSN12_GLOBAL__N_144TestTestWithUnspecifiedSuiteGetsDefaultSuiteE:
 4135 0800 2A4E3132 		.string	"*N12_GLOBAL__N_144TestTestWithUnspecifiedSuiteGetsDefaultSuiteE"
 4135      5F474C4F 
 4135      42414C5F 
 4135      5F4E5F31 
 4135      34345465 
 4136              		.align 64
 4139              	_ZTSZNK12_GLOBAL__N_138TestCrashingTestsAreReportedAsFailures7RunImplEvE12CrashingTest:
 4140 0840 2A5A4E4B 		.string	"*ZNK12_GLOBAL__N_138TestCrashingTestsAreReportedAsFailures7RunImplEvE12CrashingTest"
 4140      31325F47 
 4140      4C4F4241 
 4140      4C5F5F4E 
 4140      5F313338 
 4141 0894 00000000 		.align 32
 4141      00000000 
 4141      00000000 
 4144              	_ZTSN12_GLOBAL__N_138TestCrashingTestsAreReportedAsFailuresE:
 4145 08a0 2A4E3132 		.string	"*N12_GLOBAL__N_138TestCrashingTestsAreReportedAsFailuresE"
 4145      5F474C4F 
 4145      42414C5F 
 4145      5F4E5F31 
 4145      33385465 
 4146 08da 00000000 		.align 64
 4146      00000000 
 4146      00000000 
 4146      00000000 
 4146      00000000 
 4149              	_ZTSZNK12_GLOBAL__N_138TestThrowingTestsAreReportedAsFailures7RunImplEvE12CrashingTest:
 4150 0900 2A5A4E4B 		.string	"*ZNK12_GLOBAL__N_138TestThrowingTestsAreReportedAsFailures7RunImplEvE12CrashingTest"
 4150      31325F47 
 4150      4C4F4241 
 4150      4C5F5F4E 
 4150      5F313338 
 4151 0954 00000000 		.align 32
 4151      00000000 
 4151      00000000 
 4154              	_ZTSN12_GLOBAL__N_138TestThrowingTestsAreReportedAsFailuresE:
 4155 0960 2A4E3132 		.string	"*N12_GLOBAL__N_138TestThrowingTestsAreReportedAsFailuresE"
 4155      5F474C4F 
 4155      42414C5F 
 4155      5F4E5F31 
 4155      33385465 
 4156 099a 00000000 		.align 64
 4156      00000000 
 4156      00000000 
 4156      00000000 
 4156      00000000 
 4159              	_ZTSZNK12_GLOBAL__N_126TestFailingTestHasFailures7RunImplEvE11FailingTest:
 4160 09c0 2A5A4E4B 		.string	"*ZNK12_GLOBAL__N_126TestFailingTestHasFailures7RunImplEvE11FailingTest"
 4160      31325F47 
 4160      4C4F4241 
 4160      4C5F5F4E 
 4160      5F313236 
 4161 0a07 00000000 		.align 32
 4161      00000000 
 4161      00000000 
 4161      00000000 
 4161      00000000 
 4164              	_ZTSN12_GLOBAL__N_126TestFailingTestHasFailuresE:
 4165 0a20 2A4E3132 		.string	"*N12_GLOBAL__N_126TestFailingTestHasFailuresE"
 4165      5F474C4F 
 4165      42414C5F 
 4165      5F4E5F31 
 4165      32365465 
 4166 0a4e 00000000 		.align 64
 4166      00000000 
 4166      00000000 
 4166      00000000 
 4166      00000000 
 4169              	_ZTSZNK12_GLOBAL__N_128TestPassingTestHasNoFailures7RunImplEvE11PassingTest:
 4170 0a80 2A5A4E4B 		.string	"*ZNK12_GLOBAL__N_128TestPassingTestHasNoFailures7RunImplEvE11PassingTest"
 4170      31325F47 
 4170      4C4F4241 
 4170      4C5F5F4E 
 4170      5F313238 
 4171 0ac9 00000000 		.align 32
 4171      00000000 
 4171      00000000 
 4171      00000000 
 4171      00000000 
 4174              	_ZTSN12_GLOBAL__N_128TestPassingTestHasNoFailuresE:
 4175 0ae0 2A4E3132 		.string	"*N12_GLOBAL__N_128TestPassingTestHasNoFailuresE"
 4175      5F474C4F 
 4175      42414C5F 
 4175      5F4E5F31 
 4175      32385465 
 4176              		.text
 4178              	_GLOBAL__sub_I_TestTest.cpp:
 4179              	.LFB1245:
 4180              		.loc 4 129 0
 4181              		.cfi_startproc
 4182 15ca 55       		pushq	%rbp
 4183              		.cfi_def_cfa_offset 16
 4184              		.cfi_offset 6, -16
 4185 15cb 4889E5   		movq	%rsp, %rbp
 4186              		.cfi_def_cfa_register 6
 4187              		.loc 4 129 0
 4188 15ce BEFFFF00 		movl	$65535, %esi
 4188      00
 4189 15d3 BF010000 		movl	$1, %edi
 4189      00
 4190 15d8 E853FEFF 		call	_Z41__static_initialization_and_destruction_0ii
 4190      FF
 4191 15dd 5D       		popq	%rbp
 4192              		.cfi_def_cfa 7, 8
 4193 15de C3       		ret
 4194              		.cfi_endproc
 4195              	.LFE1245:
 4197              		.section	.init_array,"aw"
 4198              		.align 8
 4199 0000 00000000 		.quad	_GLOBAL__sub_I_TestTest.cpp
 4199      00000000 
 4200              		.section	.rodata
 4201              		.align 8
 4204              	_ZZL18__gthread_active_pvE20__gthread_active_ptr:
 4205 0b10 00000000 		.quad	_ZL28__gthrw___pthread_key_createPjPFvPvE
 4205      00000000 
 4206              		.weakref	_ZL28__gthrw___pthread_key_createPjPFvPvE,__pthread_key_create
 4207              		.text
 4208              	.Letext0:
 4209              		.file 6 "../TestDetails.h"
 4210              		.file 7 "../TestList.h"
 4211              		.file 8 "../TestResults.h"
 4212              		.file 9 "<built-in>"
 4213              		.file 10 "/usr/include/stdio.h"
 4214              		.file 11 "/usr/lib/gcc/x86_64-linux-gnu/4.9/include/stddef.h"
 4215              		.file 12 "/usr/include/wchar.h"
 4216              		.file 13 "/usr/include/c++/4.9/cwchar"
 4217              		.file 14 "/usr/include/c++/4.9/bits/char_traits.h"
 4218              		.file 15 "/usr/include/x86_64-linux-gnu/c++/4.9/bits/c++config.h"
 4219              		.file 16 "/usr/include/c++/4.9/clocale"
 4220              		.file 17 "/usr/include/c++/4.9/bits/allocator.h"
 4221              		.file 18 "/usr/include/c++/4.9/bits/basic_string.h"
 4222              		.file 19 "/usr/include/c++/4.9/bits/basic_string.tcc"
 4223              		.file 20 "/usr/include/c++/4.9/bits/stringfwd.h"
 4224              		.file 21 "/usr/include/c++/4.9/cwctype"
 4225              		.file 22 "/usr/include/time.h"
 4226              		.file 23 "/usr/include/c++/4.9/debug/debug.h"
 4227              		.file 24 "/usr/include/c++/4.9/bits/predefined_ops.h"
 4228              		.file 25 "/usr/include/c++/4.9/ext/new_allocator.h"
 4229              		.file 26 "/usr/include/c++/4.9/ext/numeric_traits.h"
 4230              		.file 27 "/usr/include/locale.h"
 4231              		.file 28 "/usr/include/x86_64-linux-gnu/bits/types.h"
 4232              		.file 29 "/usr/include/x86_64-linux-gnu/c++/4.9/bits/atomic_word.h"
 4233              		.file 30 "/usr/include/wctype.h"
DEFINED SYMBOLS
                            *ABS*:0000000000000000 TestTest.cpp
     /tmp/ccRT6cIM.s:10     .text._ZN13UnitTestSuite12GetSuiteNameEv:0000000000000000 _ZN13UnitTestSuite12GetSuiteNameEv
     /tmp/ccRT6cIM.s:33     .text._ZN8UnitTest15MemoryOutStreamC1Ev:0000000000000000 _ZN8UnitTest15MemoryOutStreamC1Ev
     /tmp/ccRT6cIM.s:3874   .rodata._ZTTN8UnitTest15MemoryOutStreamE:0000000000000000 _ZTTN8UnitTest15MemoryOutStreamE
     /tmp/ccRT6cIM.s:3858   .rodata._ZTVN8UnitTest15MemoryOutStreamE:0000000000000000 _ZTVN8UnitTest15MemoryOutStreamE
     /tmp/ccRT6cIM.s:146    .text._ZN17ScopedCurrentTestC2ERN8UnitTest11TestResultsEPKNS0_11TestDetailsE:0000000000000000 _ZN17ScopedCurrentTestC2ERN8UnitTest11TestResultsEPKNS0_11TestDetailsE
     /tmp/ccRT6cIM.s:146    .text._ZN17ScopedCurrentTestC2ERN8UnitTest11TestResultsEPKNS0_11TestDetailsE:0000000000000000 _ZN17ScopedCurrentTestC1ERN8UnitTest11TestResultsEPKNS0_11TestDetailsE
     /tmp/ccRT6cIM.s:199    .text._ZN17ScopedCurrentTestD2Ev:0000000000000000 _ZN17ScopedCurrentTestD2Ev
     /tmp/ccRT6cIM.s:199    .text._ZN17ScopedCurrentTestD2Ev:0000000000000000 _ZN17ScopedCurrentTestD1Ev
     /tmp/ccRT6cIM.s:241    .text:0000000000000000 _ZN12_GLOBAL__N_128TestPassingTestHasNoFailuresC2Ev
     /tmp/ccRT6cIM.s:3709   .rodata:00000000000005a0 _ZTVN12_GLOBAL__N_128TestPassingTestHasNoFailuresE
     /tmp/ccRT6cIM.s:273    .bss:0000000000000000 _ZN12_GLOBAL__N_136testPassingTestHasNoFailuresInstanceE
     /tmp/ccRT6cIM.s:273    .bss:0000000000000038 _ZN12_GLOBAL__N_129adderPassingTestHasNoFailuresE
     /tmp/ccRT6cIM.s:284    .text:000000000000003e _ZZNK12_GLOBAL__N_128TestPassingTestHasNoFailures7RunImplEvEN11PassingTestC2Ev
     /tmp/ccRT6cIM.s:3783   .rodata:00000000000005e0 _ZTVZNK12_GLOBAL__N_128TestPassingTestHasNoFailures7RunImplEvE11PassingTest
     /tmp/ccRT6cIM.s:322    .text:0000000000000078 _ZZNK12_GLOBAL__N_128TestPassingTestHasNoFailures7RunImplEvENK11PassingTest7RunImplEv
     /tmp/ccRT6cIM.s:2685   .text._ZN8UnitTest5CheckIbEEbT_:0000000000000000 _ZN8UnitTest5CheckIbEEbT_
     /tmp/ccRT6cIM.s:457    .text:0000000000000158 _ZNK12_GLOBAL__N_128TestPassingTestHasNoFailures7RunImplEv
     /tmp/ccRT6cIM.s:3792   .text:00000000000013d0 _ZZNK12_GLOBAL__N_128TestPassingTestHasNoFailures7RunImplEvEN11PassingTestD2Ev
     /tmp/ccRT6cIM.s:2897   .text._ZN8UnitTest10CheckEqualIiiEEvRNS_11TestResultsERKT_RKT0_RKNS_11TestDetailsE:0000000000000000 _ZN8UnitTest10CheckEqualIiiEEvRNS_11TestResultsERKT_RKT0_RKNS_11TestDetailsE
     /tmp/ccRT6cIM.s:680    .text:00000000000002ce _ZN12_GLOBAL__N_126TestFailingTestHasFailuresC2Ev
     /tmp/ccRT6cIM.s:3561   .rodata:0000000000000520 _ZTVN12_GLOBAL__N_126TestFailingTestHasFailuresE
     /tmp/ccRT6cIM.s:711    .bss:0000000000000040 _ZN12_GLOBAL__N_134testFailingTestHasFailuresInstanceE
     /tmp/ccRT6cIM.s:711    .bss:0000000000000078 _ZN12_GLOBAL__N_127adderFailingTestHasFailuresE
     /tmp/ccRT6cIM.s:720    .text:000000000000030c _ZZNK12_GLOBAL__N_126TestFailingTestHasFailures7RunImplEvEN11FailingTestC2Ev
     /tmp/ccRT6cIM.s:3635   .rodata:0000000000000560 _ZTVZNK12_GLOBAL__N_126TestFailingTestHasFailures7RunImplEvE11FailingTest
     /tmp/ccRT6cIM.s:758    .text:0000000000000346 _ZZNK12_GLOBAL__N_126TestFailingTestHasFailures7RunImplEvENK11FailingTest7RunImplEv
     /tmp/ccRT6cIM.s:893    .text:0000000000000426 _ZNK12_GLOBAL__N_126TestFailingTestHasFailures7RunImplEv
     /tmp/ccRT6cIM.s:3644   .text:0000000000001310 _ZZNK12_GLOBAL__N_126TestFailingTestHasFailures7RunImplEvEN11FailingTestD2Ev
     /tmp/ccRT6cIM.s:1117   .text:000000000000059c _ZN12_GLOBAL__N_138TestThrowingTestsAreReportedAsFailuresC2Ev
     /tmp/ccRT6cIM.s:3413   .rodata:00000000000004a0 _ZTVN12_GLOBAL__N_138TestThrowingTestsAreReportedAsFailuresE
     /tmp/ccRT6cIM.s:1148   .bss:0000000000000080 _ZN12_GLOBAL__N_146testThrowingTestsAreReportedAsFailuresInstanceE
     /tmp/ccRT6cIM.s:1148   .bss:00000000000000b8 _ZN12_GLOBAL__N_139adderThrowingTestsAreReportedAsFailuresE
     /tmp/ccRT6cIM.s:1157   .text:00000000000005da _ZZNK12_GLOBAL__N_138TestThrowingTestsAreReportedAsFailures7RunImplEvEN12CrashingTestC2Ev
     /tmp/ccRT6cIM.s:3487   .rodata:00000000000004e0 _ZTVZNK12_GLOBAL__N_138TestThrowingTestsAreReportedAsFailures7RunImplEvE12CrashingTest
     /tmp/ccRT6cIM.s:1192   .text:0000000000000614 _ZZNK12_GLOBAL__N_138TestThrowingTestsAreReportedAsFailures7RunImplEvENK12CrashingTest7RunImplEv
     /tmp/ccRT6cIM.s:1216   .text:0000000000000644 _ZNK12_GLOBAL__N_138TestThrowingTestsAreReportedAsFailures7RunImplEv
     /tmp/ccRT6cIM.s:3496   .text:0000000000001250 _ZZNK12_GLOBAL__N_138TestThrowingTestsAreReportedAsFailures7RunImplEvEN12CrashingTestD2Ev
     /tmp/ccRT6cIM.s:1440   .text:00000000000007ba _ZN12_GLOBAL__N_138TestCrashingTestsAreReportedAsFailuresC2Ev
     /tmp/ccRT6cIM.s:3265   .rodata:0000000000000420 _ZTVN12_GLOBAL__N_138TestCrashingTestsAreReportedAsFailuresE
     /tmp/ccRT6cIM.s:1471   .bss:00000000000000c0 _ZN12_GLOBAL__N_146testCrashingTestsAreReportedAsFailuresInstanceE
     /tmp/ccRT6cIM.s:1471   .bss:00000000000000f8 _ZN12_GLOBAL__N_139adderCrashingTestsAreReportedAsFailuresE
     /tmp/ccRT6cIM.s:1480   .text:00000000000007f8 _ZZNK12_GLOBAL__N_138TestCrashingTestsAreReportedAsFailures7RunImplEvEN12CrashingTestC2Ev
     /tmp/ccRT6cIM.s:3339   .rodata:0000000000000460 _ZTVZNK12_GLOBAL__N_138TestCrashingTestsAreReportedAsFailures7RunImplEvE12CrashingTest
     /tmp/ccRT6cIM.s:1511   .text:0000000000000832 _ZZNK12_GLOBAL__N_138TestCrashingTestsAreReportedAsFailures7RunImplEvENK12CrashingTest7RunImplEv
     /tmp/ccRT6cIM.s:1534   .text:0000000000000848 _ZNK12_GLOBAL__N_138TestCrashingTestsAreReportedAsFailures7RunImplEv
     /tmp/ccRT6cIM.s:3348   .text:0000000000001190 _ZZNK12_GLOBAL__N_138TestCrashingTestsAreReportedAsFailures7RunImplEvEN12CrashingTestD2Ev
     /tmp/ccRT6cIM.s:1758   .text:00000000000009be _ZN12_GLOBAL__N_144TestTestWithUnspecifiedSuiteGetsDefaultSuiteC2Ev
     /tmp/ccRT6cIM.s:3191   .rodata:00000000000003e0 _ZTVN12_GLOBAL__N_144TestTestWithUnspecifiedSuiteGetsDefaultSuiteE
     /tmp/ccRT6cIM.s:1789   .bss:0000000000000100 _ZN12_GLOBAL__N_152testTestWithUnspecifiedSuiteGetsDefaultSuiteInstanceE
     /tmp/ccRT6cIM.s:1789   .bss:0000000000000138 _ZN12_GLOBAL__N_145adderTestWithUnspecifiedSuiteGetsDefaultSuiteE
     /tmp/ccRT6cIM.s:1807   .text:00000000000009fc _ZNK12_GLOBAL__N_144TestTestWithUnspecifiedSuiteGetsDefaultSuite7RunImplEv
     /tmp/ccRT6cIM.s:2048   .text:0000000000000bc0 _ZN12_GLOBAL__N_134TestTestReflectsSpecifiedSuiteNameC2Ev
     /tmp/ccRT6cIM.s:3117   .rodata:00000000000003a0 _ZTVN12_GLOBAL__N_134TestTestReflectsSpecifiedSuiteNameE
     /tmp/ccRT6cIM.s:2079   .bss:0000000000000140 _ZN12_GLOBAL__N_142testTestReflectsSpecifiedSuiteNameInstanceE
     /tmp/ccRT6cIM.s:2079   .bss:0000000000000178 _ZN12_GLOBAL__N_135adderTestReflectsSpecifiedSuiteNameE
     /tmp/ccRT6cIM.s:2091   .text:0000000000000bfe _ZNK12_GLOBAL__N_134TestTestReflectsSpecifiedSuiteName7RunImplEv
     /tmp/ccRT6cIM.s:2326   .text:0000000000000dc2 _ZN12_GLOBAL__N_14FailEv
     /tmp/ccRT6cIM.s:2460   .text:0000000000000e9e _ZN12_GLOBAL__N_136TestOutOfCoreCHECKMacrosCanFailTestsC2Ev
     /tmp/ccRT6cIM.s:3043   .rodata:0000000000000360 _ZTVN12_GLOBAL__N_136TestOutOfCoreCHECKMacrosCanFailTestsE
     /tmp/ccRT6cIM.s:2491   .bss:0000000000000180 _ZN12_GLOBAL__N_144testOutOfCoreCHECKMacrosCanFailTestsInstanceE
     /tmp/ccRT6cIM.s:2491   .bss:00000000000001b8 _ZN12_GLOBAL__N_137adderOutOfCoreCHECKMacrosCanFailTestsE
     /tmp/ccRT6cIM.s:2496   .text:0000000000000edc _ZNK12_GLOBAL__N_136TestOutOfCoreCHECKMacrosCanFailTests7RunImplEv
     /tmp/ccRT6cIM.s:2710   .text._ZN8UnitTest15MemoryOutStreamD1Ev:0000000000000000 _ZN8UnitTest15MemoryOutStreamD1Ev
     /tmp/ccRT6cIM.s:2838   .text._ZN8UnitTest15MemoryOutStreamD1Ev:00000000000000c8 _ZTv0_n24_N8UnitTest15MemoryOutStreamD1Ev
     /tmp/ccRT6cIM.s:2852   .text._ZN8UnitTest15MemoryOutStreamD0Ev:0000000000000000 _ZN8UnitTest15MemoryOutStreamD0Ev
     /tmp/ccRT6cIM.s:2879   .text._ZN8UnitTest15MemoryOutStreamD0Ev:0000000000000026 _ZTv0_n24_N8UnitTest15MemoryOutStreamD0Ev
     /tmp/ccRT6cIM.s:4117   .rodata:0000000000000750 _ZTIN12_GLOBAL__N_136TestOutOfCoreCHECKMacrosCanFailTestsE
     /tmp/ccRT6cIM.s:3052   .text:0000000000001010 _ZN12_GLOBAL__N_136TestOutOfCoreCHECKMacrosCanFailTestsD1Ev
     /tmp/ccRT6cIM.s:3089   .text:000000000000104a _ZN12_GLOBAL__N_136TestOutOfCoreCHECKMacrosCanFailTestsD0Ev
     /tmp/ccRT6cIM.s:3052   .text:0000000000001010 _ZN12_GLOBAL__N_136TestOutOfCoreCHECKMacrosCanFailTestsD2Ev
     /tmp/ccRT6cIM.s:4110   .rodata:0000000000000730 _ZTIN12_GLOBAL__N_134TestTestReflectsSpecifiedSuiteNameE
     /tmp/ccRT6cIM.s:3126   .text:0000000000001070 _ZN12_GLOBAL__N_134TestTestReflectsSpecifiedSuiteNameD1Ev
     /tmp/ccRT6cIM.s:3163   .text:00000000000010aa _ZN12_GLOBAL__N_134TestTestReflectsSpecifiedSuiteNameD0Ev
     /tmp/ccRT6cIM.s:3126   .text:0000000000001070 _ZN12_GLOBAL__N_134TestTestReflectsSpecifiedSuiteNameD2Ev
     /tmp/ccRT6cIM.s:4103   .rodata:0000000000000710 _ZTIN12_GLOBAL__N_144TestTestWithUnspecifiedSuiteGetsDefaultSuiteE
     /tmp/ccRT6cIM.s:3200   .text:00000000000010d0 _ZN12_GLOBAL__N_144TestTestWithUnspecifiedSuiteGetsDefaultSuiteD1Ev
     /tmp/ccRT6cIM.s:3237   .text:000000000000110a _ZN12_GLOBAL__N_144TestTestWithUnspecifiedSuiteGetsDefaultSuiteD0Ev
     /tmp/ccRT6cIM.s:3200   .text:00000000000010d0 _ZN12_GLOBAL__N_144TestTestWithUnspecifiedSuiteGetsDefaultSuiteD2Ev
     /tmp/ccRT6cIM.s:4089   .rodata:00000000000006d0 _ZTIN12_GLOBAL__N_138TestCrashingTestsAreReportedAsFailuresE
     /tmp/ccRT6cIM.s:3274   .text:0000000000001130 _ZN12_GLOBAL__N_138TestCrashingTestsAreReportedAsFailuresD1Ev
     /tmp/ccRT6cIM.s:3311   .text:000000000000116a _ZN12_GLOBAL__N_138TestCrashingTestsAreReportedAsFailuresD0Ev
     /tmp/ccRT6cIM.s:3274   .text:0000000000001130 _ZN12_GLOBAL__N_138TestCrashingTestsAreReportedAsFailuresD2Ev
     /tmp/ccRT6cIM.s:4096   .rodata:00000000000006f0 _ZTIZNK12_GLOBAL__N_138TestCrashingTestsAreReportedAsFailures7RunImplEvE12CrashingTest
     /tmp/ccRT6cIM.s:3348   .text:0000000000001190 _ZZNK12_GLOBAL__N_138TestCrashingTestsAreReportedAsFailures7RunImplEvEN12CrashingTestD1Ev
     /tmp/ccRT6cIM.s:3385   .text:00000000000011ca _ZZNK12_GLOBAL__N_138TestCrashingTestsAreReportedAsFailures7RunImplEvEN12CrashingTestD0Ev
     /tmp/ccRT6cIM.s:4075   .rodata:0000000000000690 _ZTIN12_GLOBAL__N_138TestThrowingTestsAreReportedAsFailuresE
     /tmp/ccRT6cIM.s:3422   .text:00000000000011f0 _ZN12_GLOBAL__N_138TestThrowingTestsAreReportedAsFailuresD1Ev
     /tmp/ccRT6cIM.s:3459   .text:000000000000122a _ZN12_GLOBAL__N_138TestThrowingTestsAreReportedAsFailuresD0Ev
     /tmp/ccRT6cIM.s:3422   .text:00000000000011f0 _ZN12_GLOBAL__N_138TestThrowingTestsAreReportedAsFailuresD2Ev
     /tmp/ccRT6cIM.s:4082   .rodata:00000000000006b0 _ZTIZNK12_GLOBAL__N_138TestThrowingTestsAreReportedAsFailures7RunImplEvE12CrashingTest
     /tmp/ccRT6cIM.s:3496   .text:0000000000001250 _ZZNK12_GLOBAL__N_138TestThrowingTestsAreReportedAsFailures7RunImplEvEN12CrashingTestD1Ev
     /tmp/ccRT6cIM.s:3533   .text:000000000000128a _ZZNK12_GLOBAL__N_138TestThrowingTestsAreReportedAsFailures7RunImplEvEN12CrashingTestD0Ev
     /tmp/ccRT6cIM.s:4061   .rodata:0000000000000650 _ZTIN12_GLOBAL__N_126TestFailingTestHasFailuresE
     /tmp/ccRT6cIM.s:3570   .text:00000000000012b0 _ZN12_GLOBAL__N_126TestFailingTestHasFailuresD1Ev
     /tmp/ccRT6cIM.s:3607   .text:00000000000012ea _ZN12_GLOBAL__N_126TestFailingTestHasFailuresD0Ev
     /tmp/ccRT6cIM.s:3570   .text:00000000000012b0 _ZN12_GLOBAL__N_126TestFailingTestHasFailuresD2Ev
     /tmp/ccRT6cIM.s:4068   .rodata:0000000000000670 _ZTIZNK12_GLOBAL__N_126TestFailingTestHasFailures7RunImplEvE11FailingTest
     /tmp/ccRT6cIM.s:3644   .text:0000000000001310 _ZZNK12_GLOBAL__N_126TestFailingTestHasFailures7RunImplEvEN11FailingTestD1Ev
     /tmp/ccRT6cIM.s:3681   .text:000000000000134a _ZZNK12_GLOBAL__N_126TestFailingTestHasFailures7RunImplEvEN11FailingTestD0Ev
     /tmp/ccRT6cIM.s:4047   .rodata:0000000000000610 _ZTIN12_GLOBAL__N_128TestPassingTestHasNoFailuresE
     /tmp/ccRT6cIM.s:3718   .text:0000000000001370 _ZN12_GLOBAL__N_128TestPassingTestHasNoFailuresD1Ev
     /tmp/ccRT6cIM.s:3755   .text:00000000000013aa _ZN12_GLOBAL__N_128TestPassingTestHasNoFailuresD0Ev
     /tmp/ccRT6cIM.s:3718   .text:0000000000001370 _ZN12_GLOBAL__N_128TestPassingTestHasNoFailuresD2Ev
     /tmp/ccRT6cIM.s:4054   .rodata:0000000000000630 _ZTIZNK12_GLOBAL__N_128TestPassingTestHasNoFailures7RunImplEvE11PassingTest
     /tmp/ccRT6cIM.s:3792   .text:00000000000013d0 _ZZNK12_GLOBAL__N_128TestPassingTestHasNoFailures7RunImplEvEN11PassingTestD1Ev
     /tmp/ccRT6cIM.s:3829   .text:000000000000140a _ZZNK12_GLOBAL__N_128TestPassingTestHasNoFailures7RunImplEvEN11PassingTestD0Ev
     /tmp/ccRT6cIM.s:3927   .rodata._ZTIN8UnitTest15MemoryOutStreamE:0000000000000000 _ZTIN8UnitTest15MemoryOutStreamE
     /tmp/ccRT6cIM.s:3887   .rodata._ZTCN8UnitTest15MemoryOutStreamE0_St19basic_ostringstreamIcSt11char_traitsIcESaIcEE:0000000000000000 _ZTCN8UnitTest15MemoryOutStreamE0_St19basic_ostringstreamIcSt11char_traitsIcESaIcEE
     /tmp/ccRT6cIM.s:3904   .rodata._ZTCN8UnitTest15MemoryOutStreamE0_So:0000000000000000 _ZTCN8UnitTest15MemoryOutStreamE0_So
     /tmp/ccRT6cIM.s:3920   .rodata._ZTSN8UnitTest15MemoryOutStreamE:0000000000000000 _ZTSN8UnitTest15MemoryOutStreamE
     /tmp/ccRT6cIM.s:3933   .text:0000000000001430 _Z41__static_initialization_and_destruction_0ii
     /tmp/ccRT6cIM.s:4174   .rodata:0000000000000ae0 _ZTSN12_GLOBAL__N_128TestPassingTestHasNoFailuresE
     /tmp/ccRT6cIM.s:4169   .rodata:0000000000000a80 _ZTSZNK12_GLOBAL__N_128TestPassingTestHasNoFailures7RunImplEvE11PassingTest
     /tmp/ccRT6cIM.s:4164   .rodata:0000000000000a20 _ZTSN12_GLOBAL__N_126TestFailingTestHasFailuresE
     /tmp/ccRT6cIM.s:4159   .rodata:00000000000009c0 _ZTSZNK12_GLOBAL__N_126TestFailingTestHasFailures7RunImplEvE11FailingTest
     /tmp/ccRT6cIM.s:4154   .rodata:0000000000000960 _ZTSN12_GLOBAL__N_138TestThrowingTestsAreReportedAsFailuresE
     /tmp/ccRT6cIM.s:4149   .rodata:0000000000000900 _ZTSZNK12_GLOBAL__N_138TestThrowingTestsAreReportedAsFailures7RunImplEvE12CrashingTest
     /tmp/ccRT6cIM.s:4144   .rodata:00000000000008a0 _ZTSN12_GLOBAL__N_138TestCrashingTestsAreReportedAsFailuresE
     /tmp/ccRT6cIM.s:4139   .rodata:0000000000000840 _ZTSZNK12_GLOBAL__N_138TestCrashingTestsAreReportedAsFailures7RunImplEvE12CrashingTest
     /tmp/ccRT6cIM.s:4134   .rodata:0000000000000800 _ZTSN12_GLOBAL__N_144TestTestWithUnspecifiedSuiteGetsDefaultSuiteE
     /tmp/ccRT6cIM.s:4129   .rodata:00000000000007c0 _ZTSN12_GLOBAL__N_134TestTestReflectsSpecifiedSuiteNameE
     /tmp/ccRT6cIM.s:4124   .rodata:0000000000000780 _ZTSN12_GLOBAL__N_136TestOutOfCoreCHECKMacrosCanFailTestsE
     /tmp/ccRT6cIM.s:4178   .text:00000000000015ca _GLOBAL__sub_I_TestTest.cpp
     /tmp/ccRT6cIM.s:4204   .rodata:0000000000000b10 _ZZL18__gthread_active_pvE20__gthread_active_ptr
                           .group:0000000000000000 _ZN17ScopedCurrentTestC5ERN8UnitTest11TestResultsEPKNS0_11TestDetailsE
                           .group:0000000000000000 _ZN17ScopedCurrentTestD5Ev

UNDEFINED SYMBOLS
__gxx_personality_v0
_ZNSt9basic_iosIcSt11char_traitsIcEEC2Ev
_ZNSt19basic_ostringstreamIcSt11char_traitsIcESaIcEEC2ESt13_Ios_Openmode
_ZNSsC1Ev
_ZNSt19basic_ostringstreamIcSt11char_traitsIcESaIcEED2Ev
_ZNSt9basic_iosIcSt11char_traitsIcEED2Ev
_Unwind_Resume
_ZN8UnitTest11CurrentTest7ResultsEv
_ZN8UnitTest11CurrentTest7DetailsEv
_ZN8UnitTest4TestC2EPKcS2_S2_i
_ZN8UnitTest11TestDetailsC1ERKS0_i
_ZN8UnitTest11TestResults13OnTestFailureERKNS_11TestDetailsEPKc
__cxa_end_catch
__cxa_begin_catch
__stack_chk_fail
_ZN8UnitTest11TestResultsC1EPNS_12TestReporterE
_ZN8UnitTest4Test3RunEv
_ZNK8UnitTest11TestResults15GetFailureCountEv
__cxa_allocate_exception
_ZTIPKc
__cxa_throw
_ZN8UnitTest4TestC1EPKcS2_S2_i
_ZN8UnitTest10CheckEqualERNS_11TestResultsEPKcS3_RKNS_11TestDetailsE
_ZN8UnitTest4TestD1Ev
_ZNSsD1Ev
_ZdlPv
_ZStlsISt11char_traitsIcEERSt13basic_ostreamIcT_ES5_PKc
_ZNSolsEi
_ZNK8UnitTest15MemoryOutStream7GetTextEv
_ZN8UnitTest4TestD2Ev
_ZTISt19basic_ostringstreamIcSt11char_traitsIcESaIcEE
_ZTISo
_ZTVN10__cxxabiv120__si_class_type_infoE
__dso_handle
__cxa_atexit
_ZN8UnitTest4Test11GetTestListEv
_ZN8UnitTest9ListAdderC1ERNS_8TestListEPNS_4TestE
_ZTIN8UnitTest4TestE
__pthread_key_create
