   1              		.file	"TestChecks.cpp"
   2              		.text
   3              	.Ltext0:
   4              		.section	.rodata
   5              	.LC0:
   6 0000 44656661 		.string	"DefaultSuite"
   6      756C7453 
   6      75697465 
   6      00
   7              		.section	.text._ZN13UnitTestSuite12GetSuiteNameEv,"axG",@progbits,_ZN13UnitTestSuite12GetSuiteName
   8              		.weak	_ZN13UnitTestSuite12GetSuiteNameEv
  10              	_ZN13UnitTestSuite12GetSuiteNameEv:
  11              	.LFB0:
  12              		.file 1 "../TestSuite.h"
   1:../TestSuite.h **** #ifndef UNITTEST_TESTSUITE_H
   2:../TestSuite.h **** #define UNITTEST_TESTSUITE_H
   3:../TestSuite.h **** 
   4:../TestSuite.h **** namespace UnitTestSuite {
   5:../TestSuite.h **** 
   6:../TestSuite.h ****     inline char const* GetSuiteName ()
   7:../TestSuite.h ****     {
  13              		.loc 1 7 0
  14              		.cfi_startproc
  15 0000 55       		pushq	%rbp
  16              		.cfi_def_cfa_offset 16
  17              		.cfi_offset 6, -16
  18 0001 4889E5   		movq	%rsp, %rbp
  19              		.cfi_def_cfa_register 6
   8:../TestSuite.h ****         return "DefaultSuite";
  20              		.loc 1 8 0
  21 0004 B8000000 		movl	$.LC0, %eax
  21      00
   9:../TestSuite.h ****     }
  22              		.loc 1 9 0
  23 0009 5D       		popq	%rbp
  24              		.cfi_def_cfa 7, 8
  25 000a C3       		ret
  26              		.cfi_endproc
  27              	.LFE0:
  29              		.section	.text._ZN8UnitTest15MemoryOutStreamC1Ev,"axG",@progbits,_ZN8UnitTest15MemoryOutStreamC1Ev
  30              		.align 2
  31              		.weak	_ZN8UnitTest15MemoryOutStreamC1Ev
  33              	_ZN8UnitTest15MemoryOutStreamC1Ev:
  34              	.LFB1053:
  35              		.file 2 "../MemoryOutStream.h"
   1:../MemoryOutStream.h **** #ifndef UNITTEST_MEMORYOUTSTREAM_H
   2:../MemoryOutStream.h **** #define UNITTEST_MEMORYOUTSTREAM_H
   3:../MemoryOutStream.h **** 
   4:../MemoryOutStream.h **** #include "Config.h"
   5:../MemoryOutStream.h **** 
   6:../MemoryOutStream.h **** #ifndef UNITTEST_USE_CUSTOM_STREAMS
   7:../MemoryOutStream.h **** 
   8:../MemoryOutStream.h **** #include <sstream>
   9:../MemoryOutStream.h **** 
  10:../MemoryOutStream.h **** namespace UnitTest
  11:../MemoryOutStream.h **** {
  12:../MemoryOutStream.h **** 
  13:../MemoryOutStream.h **** class MemoryOutStream : public std::ostringstream
  14:../MemoryOutStream.h **** {
  15:../MemoryOutStream.h **** public:
  16:../MemoryOutStream.h ****     MemoryOutStream() {}
  36              		.loc 2 16 0
  37              		.cfi_startproc
  38              		.cfi_personality 0x3,__gxx_personality_v0
  39              		.cfi_lsda 0x3,.LLSDA1053
  40 0000 55       		pushq	%rbp
  41              		.cfi_def_cfa_offset 16
  42              		.cfi_offset 6, -16
  43 0001 4889E5   		movq	%rsp, %rbp
  44              		.cfi_def_cfa_register 6
  45 0004 53       		pushq	%rbx
  46 0005 4883EC18 		subq	$24, %rsp
  47              		.cfi_offset 3, -24
  48 0009 48897DE8 		movq	%rdi, -24(%rbp)
  49              	.LBB2:
  50              		.loc 2 16 0
  51 000d 488B45E8 		movq	-24(%rbp), %rax
  52 0011 4883C060 		addq	$96, %rax
  53 0015 4889C7   		movq	%rax, %rdi
  54              	.LEHB0:
  55 0018 E8000000 		call	_ZNSt9basic_iosIcSt11char_traitsIcEEC2Ev
  55      00
  56              	.LEHE0:
  57 001d B9000000 		movl	$_ZTTN8UnitTest15MemoryOutStreamE+8, %ecx
  57      00
  58 0022 488B45E8 		movq	-24(%rbp), %rax
  59 0026 BA100000 		movl	$16, %edx
  59      00
  60 002b 4889CE   		movq	%rcx, %rsi
  61 002e 4889C7   		movq	%rax, %rdi
  62              	.LEHB1:
  63 0031 E8000000 		call	_ZNSt19basic_ostringstreamIcSt11char_traitsIcESaIcEEC2ESt13_Ios_Openmode
  63      00
  64              	.LEHE1:
  65              		.loc 2 16 0 is_stmt 0 discriminator 9
  66 0036 BA000000 		movl	$_ZTVN8UnitTest15MemoryOutStreamE+24, %edx
  66      00
  67 003b 488B45E8 		movq	-24(%rbp), %rax
  68 003f 488910   		movq	%rdx, (%rax)
  69 0042 BA600000 		movl	$96, %edx
  69      00
  70 0047 488B45E8 		movq	-24(%rbp), %rax
  71 004b 4801D0   		addq	%rdx, %rax
  72 004e BA000000 		movl	$_ZTVN8UnitTest15MemoryOutStreamE+64, %edx
  72      00
  73 0053 488910   		movq	%rdx, (%rax)
  74 0056 488B45E8 		movq	-24(%rbp), %rax
  75 005a 4883C058 		addq	$88, %rax
  76 005e 4889C7   		movq	%rax, %rdi
  77              	.LEHB2:
  78 0061 E8000000 		call	_ZNSsC1Ev
  78      00
  79              	.LEHE2:
  80              	.LBE2:
  81              		.loc 2 16 0
  82 0066 EB37     		jmp	.L8
  83              	.L6:
  84 0068 4889C3   		movq	%rax, %rbx
  85              	.LBB3:
  86 006b BA000000 		movl	$_ZTTN8UnitTest15MemoryOutStreamE+8, %edx
  86      00
  87 0070 488B45E8 		movq	-24(%rbp), %rax
  88 0074 4889D6   		movq	%rdx, %rsi
  89 0077 4889C7   		movq	%rax, %rdi
  90 007a E8000000 		call	_ZNSt19basic_ostringstreamIcSt11char_traitsIcESaIcEED2Ev
  90      00
  91 007f EB03     		jmp	.L5
  92              	.L7:
  93 0081 4889C3   		movq	%rax, %rbx
  94              	.L5:
  95              		.loc 2 16 0 discriminator 28
  96 0084 488B45E8 		movq	-24(%rbp), %rax
  97 0088 4883C060 		addq	$96, %rax
  98 008c 4889C7   		movq	%rax, %rdi
  99 008f E8000000 		call	_ZNSt9basic_iosIcSt11char_traitsIcEED2Ev
  99      00
 100 0094 4889D8   		movq	%rbx, %rax
 101 0097 4889C7   		movq	%rax, %rdi
 102              	.LEHB3:
 103 009a E8000000 		call	_Unwind_Resume
 103      00
 104              	.LEHE3:
 105              	.L8:
 106              	.LBE3:
 107              		.loc 2 16 0
 108 009f 4883C418 		addq	$24, %rsp
 109 00a3 5B       		popq	%rbx
 110 00a4 5D       		popq	%rbp
 111              		.cfi_def_cfa 7, 8
 112 00a5 C3       		ret
 113              		.cfi_endproc
 114              	.LFE1053:
 115              		.globl	__gxx_personality_v0
 116              		.section	.gcc_except_table._ZN8UnitTest15MemoryOutStreamC1Ev,"aG",@progbits,_ZN8UnitTest15MemoryOu
 117              	.LLSDA1053:
 118 0000 FF       		.byte	0xff
 119 0001 FF       		.byte	0xff
 120 0002 01       		.byte	0x1
 121 0003 12       		.uleb128 .LLSDACSE1053-.LLSDACSB1053
 122              	.LLSDACSB1053:
 123 0004 18       		.uleb128 .LEHB0-.LFB1053
 124 0005 05       		.uleb128 .LEHE0-.LEHB0
 125 0006 00       		.uleb128 0
 126 0007 00       		.uleb128 0
 127 0008 31       		.uleb128 .LEHB1-.LFB1053
 128 0009 05       		.uleb128 .LEHE1-.LEHB1
 129 000a 8101     		.uleb128 .L7-.LFB1053
 130 000c 00       		.uleb128 0
 131 000d 61       		.uleb128 .LEHB2-.LFB1053
 132 000e 05       		.uleb128 .LEHE2-.LEHB2
 133 000f 68       		.uleb128 .L6-.LFB1053
 134 0010 00       		.uleb128 0
 135 0011 9A01     		.uleb128 .LEHB3-.LFB1053
 136 0013 05       		.uleb128 .LEHE3-.LEHB3
 137 0014 00       		.uleb128 0
 138 0015 00       		.uleb128 0
 139              	.LLSDACSE1053:
 140              		.section	.text._ZN8UnitTest15MemoryOutStreamC1Ev,"axG",@progbits,_ZN8UnitTest15MemoryOutStreamC1Ev
 142              		.section	.text._ZN8UnitTest12TestReporterC2Ev,"axG",@progbits,_ZN8UnitTest12TestReporterC5Ev,comda
 143              		.align 2
 144              		.weak	_ZN8UnitTest12TestReporterC2Ev
 146              	_ZN8UnitTest12TestReporterC2Ev:
 147              	.LFB1067:
 148              		.file 3 "../TestReporter.h"
   1:../TestReporter.h **** #ifndef UNITTEST_TESTREPORTER_H
   2:../TestReporter.h **** #define UNITTEST_TESTREPORTER_H
   3:../TestReporter.h **** 
   4:../TestReporter.h **** namespace UnitTest {
   5:../TestReporter.h **** 
   6:../TestReporter.h **** class TestDetails;
   7:../TestReporter.h **** 
   8:../TestReporter.h **** class TestReporter
 149              		.loc 3 8 0 is_stmt 1
 150              		.cfi_startproc
 151 0000 55       		pushq	%rbp
 152              		.cfi_def_cfa_offset 16
 153              		.cfi_offset 6, -16
 154 0001 4889E5   		movq	%rsp, %rbp
 155              		.cfi_def_cfa_register 6
 156 0004 48897DF8 		movq	%rdi, -8(%rbp)
 157              	.LBB4:
 158              		.loc 3 8 0
 159 0008 488B45F8 		movq	-8(%rbp), %rax
 160 000c 48C70000 		movq	$_ZTVN8UnitTest12TestReporterE+16, (%rax)
 160      000000
 161              	.LBE4:
 162 0013 5D       		popq	%rbp
 163              		.cfi_def_cfa 7, 8
 164 0014 C3       		ret
 165              		.cfi_endproc
 166              	.LFE1067:
 168              		.weak	_ZN8UnitTest12TestReporterC1Ev
 169              		.set	_ZN8UnitTest12TestReporterC1Ev,_ZN8UnitTest12TestReporterC2Ev
 170              		.section	.text._ZN17RecordingReporterC2Ev,"axG",@progbits,_ZN17RecordingReporterC5Ev,comdat
 171              		.align 2
 172              		.weak	_ZN17RecordingReporterC2Ev
 174              	_ZN17RecordingReporterC2Ev:
 175              	.LFB1069:
 176              		.file 4 "RecordingReporter.h"
   1:RecordingReporter.h **** #ifndef UNITTEST_RECORDINGREPORTER_H
   2:RecordingReporter.h **** #define UNITTEST_RECORDINGREPORTER_H
   3:RecordingReporter.h **** 
   4:RecordingReporter.h **** #include "../TestReporter.h"
   5:RecordingReporter.h **** #include <cstring>
   6:RecordingReporter.h **** 
   7:RecordingReporter.h **** #include "../TestDetails.h"
   8:RecordingReporter.h **** 
   9:RecordingReporter.h **** struct RecordingReporter : public UnitTest::TestReporter
  10:RecordingReporter.h **** {
  11:RecordingReporter.h **** private:
  12:RecordingReporter.h ****     enum { kMaxStringLength = 256 };
  13:RecordingReporter.h **** 
  14:RecordingReporter.h **** public:
  15:RecordingReporter.h ****     RecordingReporter()
 177              		.loc 4 15 0
 178              		.cfi_startproc
 179 0000 55       		pushq	%rbp
 180              		.cfi_def_cfa_offset 16
 181              		.cfi_offset 6, -16
 182 0001 4889E5   		movq	%rsp, %rbp
 183              		.cfi_def_cfa_register 6
 184 0004 4883EC10 		subq	$16, %rsp
 185 0008 48897DF8 		movq	%rdi, -8(%rbp)
 186              	.LBB5:
  16:RecordingReporter.h ****         : testRunCount(0)
  17:RecordingReporter.h ****         , testFailedCount(0)
  18:RecordingReporter.h ****         , lastFailedLine(0)
  19:RecordingReporter.h ****         , testFinishedCount(0)
  20:RecordingReporter.h ****         , lastFinishedTestTime(0)
  21:RecordingReporter.h ****         , summaryTotalTestCount(0)
  22:RecordingReporter.h ****         , summaryFailedTestCount(0)
  23:RecordingReporter.h ****         , summaryFailureCount(0)
  24:RecordingReporter.h ****         , summarySecondsElapsed(0)
 187              		.loc 4 24 0
 188 000c 488B45F8 		movq	-8(%rbp), %rax
 189 0010 4889C7   		movq	%rax, %rdi
 190 0013 E8000000 		call	_ZN8UnitTest12TestReporterC2Ev
 190      00
 191 0018 488B45F8 		movq	-8(%rbp), %rax
 192 001c 48C70000 		movq	$_ZTV17RecordingReporter+16, (%rax)
 192      000000
 193 0023 488B45F8 		movq	-8(%rbp), %rax
 194 0027 C7400800 		movl	$0, 8(%rax)
 194      000000
 195 002e 488B45F8 		movq	-8(%rbp), %rax
 196 0032 C7800C02 		movl	$0, 524(%rax)
 196      00000000 
 196      0000
 197 003c 488B45F8 		movq	-8(%rbp), %rax
 198 0040 C7801003 		movl	$0, 784(%rax)
 198      00000000 
 198      0000
 199 004a 488B45F8 		movq	-8(%rbp), %rax
 200 004e C7801406 		movl	$0, 1556(%rax)
 200      00000000 
 200      0000
 201 0058 488B55F8 		movq	-8(%rbp), %rdx
 202 005c 8B050000 		movl	.LC1(%rip), %eax
 202      0000
 203 0062 89821808 		movl	%eax, 2072(%rdx)
 203      0000
 204 0068 488B45F8 		movq	-8(%rbp), %rax
 205 006c C7801C08 		movl	$0, 2076(%rax)
 205      00000000 
 205      0000
 206 0076 488B45F8 		movq	-8(%rbp), %rax
 207 007a C7802008 		movl	$0, 2080(%rax)
 207      00000000 
 207      0000
 208 0084 488B45F8 		movq	-8(%rbp), %rax
 209 0088 C7802408 		movl	$0, 2084(%rax)
 209      00000000 
 209      0000
 210 0092 488B55F8 		movq	-8(%rbp), %rdx
 211 0096 8B050000 		movl	.LC1(%rip), %eax
 211      0000
 212 009c 89822808 		movl	%eax, 2088(%rdx)
 212      0000
  25:RecordingReporter.h ****     {
  26:RecordingReporter.h ****         lastStartedSuite[0] = '\0';
 213              		.loc 4 26 0
 214 00a2 488B45F8 		movq	-8(%rbp), %rax
 215 00a6 C6400C00 		movb	$0, 12(%rax)
  27:RecordingReporter.h ****         lastStartedTest[0] = '\0';
 216              		.loc 4 27 0
 217 00aa 488B45F8 		movq	-8(%rbp), %rax
 218 00ae C6800C01 		movb	$0, 268(%rax)
 218      000000
  28:RecordingReporter.h ****         lastFailedFile[0] = '\0';
 219              		.loc 4 28 0
 220 00b5 488B45F8 		movq	-8(%rbp), %rax
 221 00b9 C6801002 		movb	$0, 528(%rax)
 221      000000
  29:RecordingReporter.h ****         lastFailedSuite[0] = '\0';
 222              		.loc 4 29 0
 223 00c0 488B45F8 		movq	-8(%rbp), %rax
 224 00c4 C6801403 		movb	$0, 788(%rax)
 224      000000
  30:RecordingReporter.h ****         lastFailedTest[0] = '\0';
 225              		.loc 4 30 0
 226 00cb 488B45F8 		movq	-8(%rbp), %rax
 227 00cf C6801404 		movb	$0, 1044(%rax)
 227      000000
  31:RecordingReporter.h ****         lastFailedMessage[0] = '\0';
 228              		.loc 4 31 0
 229 00d6 488B45F8 		movq	-8(%rbp), %rax
 230 00da C6801405 		movb	$0, 1300(%rax)
 230      000000
  32:RecordingReporter.h ****         lastFinishedSuite[0] = '\0';
 231              		.loc 4 32 0
 232 00e1 488B45F8 		movq	-8(%rbp), %rax
 233 00e5 C6801806 		movb	$0, 1560(%rax)
 233      000000
  33:RecordingReporter.h ****         lastFinishedTest[0] = '\0';
 234              		.loc 4 33 0
 235 00ec 488B45F8 		movq	-8(%rbp), %rax
 236 00f0 C6801807 		movb	$0, 1816(%rax)
 236      000000
 237              	.LBE5:
  34:RecordingReporter.h ****     }
 238              		.loc 4 34 0
 239 00f7 C9       		leave
 240              		.cfi_def_cfa 7, 8
 241 00f8 C3       		ret
 242              		.cfi_endproc
 243              	.LFE1069:
 245              		.weak	_ZN17RecordingReporterC1Ev
 246              		.set	_ZN17RecordingReporterC1Ev,_ZN17RecordingReporterC2Ev
 247              		.section	.text._ZN17RecordingReporter15ReportTestStartERKN8UnitTest11TestDetailsE,"axG",@progbits,
 248              		.align 2
 249              		.weak	_ZN17RecordingReporter15ReportTestStartERKN8UnitTest11TestDetailsE
 251              	_ZN17RecordingReporter15ReportTestStartERKN8UnitTest11TestDetailsE:
 252              	.LFB1071:
  35:RecordingReporter.h **** 
  36:RecordingReporter.h ****     virtual void ReportTestStart(UnitTest::TestDetails const& test)
 253              		.loc 4 36 0
 254              		.cfi_startproc
 255 0000 55       		pushq	%rbp
 256              		.cfi_def_cfa_offset 16
 257              		.cfi_offset 6, -16
 258 0001 4889E5   		movq	%rsp, %rbp
 259              		.cfi_def_cfa_register 6
 260 0004 4883EC10 		subq	$16, %rsp
 261 0008 48897DF8 		movq	%rdi, -8(%rbp)
 262 000c 488975F0 		movq	%rsi, -16(%rbp)
 263              	.LBB6:
  37:RecordingReporter.h ****     {
  38:RecordingReporter.h **** 		using namespace std;
  39:RecordingReporter.h **** 
  40:RecordingReporter.h ****         ++testRunCount;
 264              		.loc 4 40 0
 265 0010 488B45F8 		movq	-8(%rbp), %rax
 266 0014 8B4008   		movl	8(%rax), %eax
 267 0017 8D5001   		leal	1(%rax), %edx
 268 001a 488B45F8 		movq	-8(%rbp), %rax
 269 001e 895008   		movl	%edx, 8(%rax)
  41:RecordingReporter.h ****         strcpy(lastStartedSuite, test.suiteName);
 270              		.loc 4 41 0
 271 0021 488B45F0 		movq	-16(%rbp), %rax
 272 0025 488B00   		movq	(%rax), %rax
 273 0028 488B55F8 		movq	-8(%rbp), %rdx
 274 002c 4883C20C 		addq	$12, %rdx
 275 0030 4889C6   		movq	%rax, %rsi
 276 0033 4889D7   		movq	%rdx, %rdi
 277 0036 E8000000 		call	strcpy
 277      00
  42:RecordingReporter.h ****         strcpy(lastStartedTest, test.testName);
 278              		.loc 4 42 0
 279 003b 488B45F0 		movq	-16(%rbp), %rax
 280 003f 488B4008 		movq	8(%rax), %rax
 281 0043 488B55F8 		movq	-8(%rbp), %rdx
 282 0047 4881C20C 		addq	$268, %rdx
 282      010000
 283 004e 4889C6   		movq	%rax, %rsi
 284 0051 4889D7   		movq	%rdx, %rdi
 285 0054 E8000000 		call	strcpy
 285      00
 286              	.LBE6:
  43:RecordingReporter.h ****     }
 287              		.loc 4 43 0
 288 0059 C9       		leave
 289              		.cfi_def_cfa 7, 8
 290 005a C3       		ret
 291              		.cfi_endproc
 292              	.LFE1071:
 294              		.section	.text._ZN17RecordingReporter13ReportFailureERKN8UnitTest11TestDetailsEPKc,"axG",@progbits
 295              		.align 2
 296              		.weak	_ZN17RecordingReporter13ReportFailureERKN8UnitTest11TestDetailsEPKc
 298              	_ZN17RecordingReporter13ReportFailureERKN8UnitTest11TestDetailsEPKc:
 299              	.LFB1072:
  44:RecordingReporter.h **** 
  45:RecordingReporter.h ****     virtual void ReportFailure(UnitTest::TestDetails const& test, char const* failure)
 300              		.loc 4 45 0
 301              		.cfi_startproc
 302 0000 55       		pushq	%rbp
 303              		.cfi_def_cfa_offset 16
 304              		.cfi_offset 6, -16
 305 0001 4889E5   		movq	%rsp, %rbp
 306              		.cfi_def_cfa_register 6
 307 0004 4883EC20 		subq	$32, %rsp
 308 0008 48897DF8 		movq	%rdi, -8(%rbp)
 309 000c 488975F0 		movq	%rsi, -16(%rbp)
 310 0010 488955E8 		movq	%rdx, -24(%rbp)
 311              	.LBB7:
  46:RecordingReporter.h ****     {
  47:RecordingReporter.h **** 		using namespace std;
  48:RecordingReporter.h **** 
  49:RecordingReporter.h **** 		++testFailedCount;
 312              		.loc 4 49 0
 313 0014 488B45F8 		movq	-8(%rbp), %rax
 314 0018 8B800C02 		movl	524(%rax), %eax
 314      0000
 315 001e 8D5001   		leal	1(%rax), %edx
 316 0021 488B45F8 		movq	-8(%rbp), %rax
 317 0025 89900C02 		movl	%edx, 524(%rax)
 317      0000
  50:RecordingReporter.h ****         strcpy(lastFailedFile, test.filename);
 318              		.loc 4 50 0
 319 002b 488B45F0 		movq	-16(%rbp), %rax
 320 002f 488B4010 		movq	16(%rax), %rax
 321 0033 488B55F8 		movq	-8(%rbp), %rdx
 322 0037 4881C210 		addq	$528, %rdx
 322      020000
 323 003e 4889C6   		movq	%rax, %rsi
 324 0041 4889D7   		movq	%rdx, %rdi
 325 0044 E8000000 		call	strcpy
 325      00
  51:RecordingReporter.h ****         lastFailedLine = test.lineNumber;
 326              		.loc 4 51 0
 327 0049 488B45F0 		movq	-16(%rbp), %rax
 328 004d 8B5018   		movl	24(%rax), %edx
 329 0050 488B45F8 		movq	-8(%rbp), %rax
 330 0054 89901003 		movl	%edx, 784(%rax)
 330      0000
  52:RecordingReporter.h ****         strcpy(lastFailedSuite, test.suiteName);
 331              		.loc 4 52 0
 332 005a 488B45F0 		movq	-16(%rbp), %rax
 333 005e 488B00   		movq	(%rax), %rax
 334 0061 488B55F8 		movq	-8(%rbp), %rdx
 335 0065 4881C214 		addq	$788, %rdx
 335      030000
 336 006c 4889C6   		movq	%rax, %rsi
 337 006f 4889D7   		movq	%rdx, %rdi
 338 0072 E8000000 		call	strcpy
 338      00
  53:RecordingReporter.h ****         strcpy(lastFailedTest, test.testName);
 339              		.loc 4 53 0
 340 0077 488B45F0 		movq	-16(%rbp), %rax
 341 007b 488B4008 		movq	8(%rax), %rax
 342 007f 488B55F8 		movq	-8(%rbp), %rdx
 343 0083 4881C214 		addq	$1044, %rdx
 343      040000
 344 008a 4889C6   		movq	%rax, %rsi
 345 008d 4889D7   		movq	%rdx, %rdi
 346 0090 E8000000 		call	strcpy
 346      00
  54:RecordingReporter.h ****         strcpy(lastFailedMessage, failure);
 347              		.loc 4 54 0
 348 0095 488B45F8 		movq	-8(%rbp), %rax
 349 0099 488D9014 		leaq	1300(%rax), %rdx
 349      050000
 350 00a0 488B45E8 		movq	-24(%rbp), %rax
 351 00a4 4889C6   		movq	%rax, %rsi
 352 00a7 4889D7   		movq	%rdx, %rdi
 353 00aa E8000000 		call	strcpy
 353      00
 354              	.LBE7:
  55:RecordingReporter.h ****     }
 355              		.loc 4 55 0
 356 00af C9       		leave
 357              		.cfi_def_cfa 7, 8
 358 00b0 C3       		ret
 359              		.cfi_endproc
 360              	.LFE1072:
 362              		.section	.text._ZN17RecordingReporter16ReportTestFinishERKN8UnitTest11TestDetailsEf,"axG",@progbit
 363              		.align 2
 364              		.weak	_ZN17RecordingReporter16ReportTestFinishERKN8UnitTest11TestDetailsEf
 366              	_ZN17RecordingReporter16ReportTestFinishERKN8UnitTest11TestDetailsEf:
 367              	.LFB1073:
  56:RecordingReporter.h **** 
  57:RecordingReporter.h ****     virtual void ReportTestFinish(UnitTest::TestDetails const& test, float testDuration)
 368              		.loc 4 57 0
 369              		.cfi_startproc
 370 0000 55       		pushq	%rbp
 371              		.cfi_def_cfa_offset 16
 372              		.cfi_offset 6, -16
 373 0001 4889E5   		movq	%rsp, %rbp
 374              		.cfi_def_cfa_register 6
 375 0004 4883EC20 		subq	$32, %rsp
 376 0008 48897DF8 		movq	%rdi, -8(%rbp)
 377 000c 488975F0 		movq	%rsi, -16(%rbp)
 378 0010 F30F1145 		movss	%xmm0, -20(%rbp)
 378      EC
 379              	.LBB8:
  58:RecordingReporter.h ****     {
  59:RecordingReporter.h **** 		using namespace std;
  60:RecordingReporter.h **** 
  61:RecordingReporter.h **** 		++testFinishedCount;
 380              		.loc 4 61 0
 381 0015 488B45F8 		movq	-8(%rbp), %rax
 382 0019 8B801406 		movl	1556(%rax), %eax
 382      0000
 383 001f 8D5001   		leal	1(%rax), %edx
 384 0022 488B45F8 		movq	-8(%rbp), %rax
 385 0026 89901406 		movl	%edx, 1556(%rax)
 385      0000
  62:RecordingReporter.h ****         strcpy(lastFinishedSuite, test.suiteName);
 386              		.loc 4 62 0
 387 002c 488B45F0 		movq	-16(%rbp), %rax
 388 0030 488B00   		movq	(%rax), %rax
 389 0033 488B55F8 		movq	-8(%rbp), %rdx
 390 0037 4881C218 		addq	$1560, %rdx
 390      060000
 391 003e 4889C6   		movq	%rax, %rsi
 392 0041 4889D7   		movq	%rdx, %rdi
 393 0044 E8000000 		call	strcpy
 393      00
  63:RecordingReporter.h ****         strcpy(lastFinishedTest, test.testName);
 394              		.loc 4 63 0
 395 0049 488B45F0 		movq	-16(%rbp), %rax
 396 004d 488B4008 		movq	8(%rax), %rax
 397 0051 488B55F8 		movq	-8(%rbp), %rdx
 398 0055 4881C218 		addq	$1816, %rdx
 398      070000
 399 005c 4889C6   		movq	%rax, %rsi
 400 005f 4889D7   		movq	%rdx, %rdi
 401 0062 E8000000 		call	strcpy
 401      00
  64:RecordingReporter.h ****         lastFinishedTestTime = testDuration;
 402              		.loc 4 64 0
 403 0067 488B55F8 		movq	-8(%rbp), %rdx
 404 006b 8B45EC   		movl	-20(%rbp), %eax
 405 006e 89821808 		movl	%eax, 2072(%rdx)
 405      0000
 406              	.LBE8:
  65:RecordingReporter.h ****     }
 407              		.loc 4 65 0
 408 0074 C9       		leave
 409              		.cfi_def_cfa 7, 8
 410 0075 C3       		ret
 411              		.cfi_endproc
 412              	.LFE1073:
 414              		.section	.text._ZN17RecordingReporter13ReportSummaryEiiif,"axG",@progbits,_ZN17RecordingReporter13
 415              		.align 2
 416              		.weak	_ZN17RecordingReporter13ReportSummaryEiiif
 418              	_ZN17RecordingReporter13ReportSummaryEiiif:
 419              	.LFB1074:
  66:RecordingReporter.h **** 
  67:RecordingReporter.h ****     virtual void ReportSummary(int totalTestCount, int failedTestCount, int failureCount, float sec
 420              		.loc 4 67 0
 421              		.cfi_startproc
 422 0000 55       		pushq	%rbp
 423              		.cfi_def_cfa_offset 16
 424              		.cfi_offset 6, -16
 425 0001 4889E5   		movq	%rsp, %rbp
 426              		.cfi_def_cfa_register 6
 427 0004 48897DF8 		movq	%rdi, -8(%rbp)
 428 0008 8975F4   		movl	%esi, -12(%rbp)
 429 000b 8955F0   		movl	%edx, -16(%rbp)
 430 000e 894DEC   		movl	%ecx, -20(%rbp)
 431 0011 F30F1145 		movss	%xmm0, -24(%rbp)
 431      E8
  68:RecordingReporter.h ****     {
  69:RecordingReporter.h ****         summaryTotalTestCount = totalTestCount;
 432              		.loc 4 69 0
 433 0016 488B45F8 		movq	-8(%rbp), %rax
 434 001a 8B55F4   		movl	-12(%rbp), %edx
 435 001d 89901C08 		movl	%edx, 2076(%rax)
 435      0000
  70:RecordingReporter.h ****         summaryFailedTestCount = failedTestCount;
 436              		.loc 4 70 0
 437 0023 488B45F8 		movq	-8(%rbp), %rax
 438 0027 8B55F0   		movl	-16(%rbp), %edx
 439 002a 89902008 		movl	%edx, 2080(%rax)
 439      0000
  71:RecordingReporter.h ****         summaryFailureCount = failureCount;
 440              		.loc 4 71 0
 441 0030 488B45F8 		movq	-8(%rbp), %rax
 442 0034 8B55EC   		movl	-20(%rbp), %edx
 443 0037 89902408 		movl	%edx, 2084(%rax)
 443      0000
  72:RecordingReporter.h ****         summarySecondsElapsed = secondsElapsed;
 444              		.loc 4 72 0
 445 003d 488B55F8 		movq	-8(%rbp), %rdx
 446 0041 8B45E8   		movl	-24(%rbp), %eax
 447 0044 89822808 		movl	%eax, 2088(%rdx)
 447      0000
  73:RecordingReporter.h ****     }
 448              		.loc 4 73 0
 449 004a 5D       		popq	%rbp
 450              		.cfi_def_cfa 7, 8
 451 004b C3       		ret
 452              		.cfi_endproc
 453              	.LFE1074:
 455              		.section	.rodata
 456              	.LC2:
 457 000d 54657374 		.string	"TestChecks.cpp"
 457      43686563 
 457      6B732E63 
 457      707000
 458              	.LC3:
 459 001c 43686563 		.string	"CheckEqualWithUnsignedLong"
 459      6B457175 
 459      616C5769 
 459      7468556E 
 459      7369676E 
 460              		.text
 461              		.align 2
 463              	_ZN12_GLOBAL__N_130TestCheckEqualWithUnsignedLongC2Ev:
 464              	.LFB1076:
 465              		.file 5 "TestChecks.cpp"
   1:TestChecks.cpp **** #include "../UnitTest++.h"
   2:TestChecks.cpp **** #include "RecordingReporter.h"
   3:TestChecks.cpp **** 
   4:TestChecks.cpp **** using namespace UnitTest;
   5:TestChecks.cpp **** 
   6:TestChecks.cpp **** 
   7:TestChecks.cpp **** namespace {
   8:TestChecks.cpp **** 
   9:TestChecks.cpp **** 
  10:TestChecks.cpp **** TEST(CheckEqualWithUnsignedLong)
 466              		.loc 5 10 0
 467              		.cfi_startproc
 468 0000 55       		pushq	%rbp
 469              		.cfi_def_cfa_offset 16
 470              		.cfi_offset 6, -16
 471 0001 4889E5   		movq	%rsp, %rbp
 472              		.cfi_def_cfa_register 6
 473 0004 4883EC10 		subq	$16, %rsp
 474 0008 48897DF8 		movq	%rdi, -8(%rbp)
 475              	.LBB9:
 476              		.loc 5 10 0
 477 000c E8000000 		call	_ZN13UnitTestSuite12GetSuiteNameEv
 477      00
 478 0011 4889C2   		movq	%rax, %rdx
 479 0014 488B45F8 		movq	-8(%rbp), %rax
 480 0018 41B80A00 		movl	$10, %r8d
 480      0000
 481 001e B9000000 		movl	$.LC2, %ecx
 481      00
 482 0023 BE000000 		movl	$.LC3, %esi
 482      00
 483 0028 4889C7   		movq	%rax, %rdi
 484 002b E8000000 		call	_ZN8UnitTest4TestC2EPKcS2_S2_i
 484      00
 485 0030 488B45F8 		movq	-8(%rbp), %rax
 486 0034 48C70000 		movq	$_ZTVN12_GLOBAL__N_130TestCheckEqualWithUnsignedLongE+16, (%rax)
 486      000000
 487              	.LBE9:
 488 003b C9       		leave
 489              		.cfi_def_cfa 7, 8
 490 003c C3       		ret
 491              		.cfi_endproc
 492              	.LFE1076:
 494              		.local	_ZN12_GLOBAL__N_138testCheckEqualWithUnsignedLongInstanceE
 495              		.comm	_ZN12_GLOBAL__N_138testCheckEqualWithUnsignedLongInstanceE,56,32
 496              		.local	_ZN12_GLOBAL__N_131adderCheckEqualWithUnsignedLongE
 497              		.comm	_ZN12_GLOBAL__N_131adderCheckEqualWithUnsignedLongE,1,1
 498              		.section	.rodata
 499 0037 00       		.align 8
 500              	.LC4:
 501 0038 556E6861 		.string	"Unhandled exception in CHECK_EQUAL(something, something)"
 501      6E646C65 
 501      64206578 
 501      63657074 
 501      696F6E20 
 502              		.text
 503 003d 90       		.align 2
 505              	_ZNK12_GLOBAL__N_130TestCheckEqualWithUnsignedLong7RunImplEv:
 506              	.LFB1078:
  11:TestChecks.cpp **** {
 507              		.loc 5 11 0
 508              		.cfi_startproc
 509              		.cfi_personality 0x3,__gxx_personality_v0
 510              		.cfi_lsda 0x3,.LLSDA1078
 511 003e 55       		pushq	%rbp
 512              		.cfi_def_cfa_offset 16
 513              		.cfi_offset 6, -16
 514 003f 4889E5   		movq	%rsp, %rbp
 515              		.cfi_def_cfa_register 6
 516 0042 53       		pushq	%rbx
 517 0043 4883EC78 		subq	$120, %rsp
 518              		.cfi_offset 3, -24
 519 0047 48897D88 		movq	%rdi, -120(%rbp)
 520              		.loc 5 11 0
 521 004b 64488B04 		movq	%fs:40, %rax
 521      25280000 
 521      00
 522 0054 488945E8 		movq	%rax, -24(%rbp)
 523 0058 31C0     		xorl	%eax, %eax
 524              	.LBB10:
  12:TestChecks.cpp ****     TestResults results;
 525              		.loc 5 12 0
 526 005a 488D45A0 		leaq	-96(%rbp), %rax
 527 005e BE000000 		movl	$0, %esi
 527      00
 528 0063 4889C7   		movq	%rax, %rdi
 529              	.LEHB4:
 530 0066 E8000000 		call	_ZN8UnitTest11TestResultsC1EPNS_12TestReporterE
 530      00
 531              	.LEHE4:
  13:TestChecks.cpp ****     unsigned long something = 2;
 532              		.loc 5 13 0
 533 006b 48C74598 		movq	$2, -104(%rbp)
 533      02000000 
 534              	.LEHB5:
  14:TestChecks.cpp ****     CHECK_EQUAL(something, something);
 535              		.loc 5 14 0
 536 0073 E8000000 		call	_ZN8UnitTest11CurrentTest7DetailsEv
 536      00
 537 0078 488B08   		movq	(%rax), %rcx
 538 007b 488D45C0 		leaq	-64(%rbp), %rax
 539 007f BA0E0000 		movl	$14, %edx
 539      00
 540 0084 4889CE   		movq	%rcx, %rsi
 541 0087 4889C7   		movq	%rax, %rdi
 542 008a E8000000 		call	_ZN8UnitTest11TestDetailsC1ERKS0_i
 542      00
 543              		.loc 5 14 0 is_stmt 0 discriminator 2
 544 008f E8000000 		call	_ZN8UnitTest11CurrentTest7ResultsEv
 544      00
 545 0094 488B00   		movq	(%rax), %rax
 546 0097 488D4DC0 		leaq	-64(%rbp), %rcx
 547 009b 488D5598 		leaq	-104(%rbp), %rdx
 548 009f 488D7598 		leaq	-104(%rbp), %rsi
 549 00a3 4889C7   		movq	%rax, %rdi
 550 00a6 E8000000 		call	_ZN8UnitTest10CheckEqualImmEEvRNS_11TestResultsERKT_RKT0_RKNS_11TestDetailsE
 550      00
 551              	.LEHE5:
 552              	.LBE10:
  15:TestChecks.cpp **** }
 553              		.loc 5 15 0 is_stmt 1
 554 00ab EB58     		jmp	.L23
 555              	.L22:
 556 00ad 4889C3   		movq	%rax, %rbx
 557              	.LBB11:
  14:TestChecks.cpp ****     CHECK_EQUAL(something, something);
 558              		.loc 5 14 0
 559 00b0 E8000000 		call	__cxa_end_catch
 559      00
 560 00b5 4889D8   		movq	%rbx, %rax
 561 00b8 4889C7   		movq	%rax, %rdi
 562              	.LEHB6:
 563 00bb E8000000 		call	_Unwind_Resume
 563      00
 564              	.LEHE6:
 565              	.L21:
 566 00c0 4889C7   		movq	%rax, %rdi
 567 00c3 E8000000 		call	__cxa_begin_catch
 567      00
 568              	.LEHB7:
 569 00c8 E8000000 		call	_ZN8UnitTest11CurrentTest7DetailsEv
 569      00
 570 00cd 488B08   		movq	(%rax), %rcx
 571 00d0 488D45C0 		leaq	-64(%rbp), %rax
 572 00d4 BA0E0000 		movl	$14, %edx
 572      00
 573 00d9 4889CE   		movq	%rcx, %rsi
 574 00dc 4889C7   		movq	%rax, %rdi
 575 00df E8000000 		call	_ZN8UnitTest11TestDetailsC1ERKS0_i
 575      00
  14:TestChecks.cpp ****     CHECK_EQUAL(something, something);
 576              		.loc 5 14 0 is_stmt 0 discriminator 10
 577 00e4 E8000000 		call	_ZN8UnitTest11CurrentTest7ResultsEv
 577      00
 578 00e9 488B00   		movq	(%rax), %rax
 579 00ec 488D4DC0 		leaq	-64(%rbp), %rcx
 580 00f0 BA000000 		movl	$.LC4, %edx
 580      00
 581 00f5 4889CE   		movq	%rcx, %rsi
 582 00f8 4889C7   		movq	%rax, %rdi
 583 00fb E8000000 		call	_ZN8UnitTest11TestResults13OnTestFailureERKNS_11TestDetailsEPKc
 583      00
 584              	.LEHE7:
 585              	.LEHB8:
  14:TestChecks.cpp ****     CHECK_EQUAL(something, something);
 586              		.loc 5 14 0 discriminator 14
 587 0100 E8000000 		call	__cxa_end_catch
 587      00
 588              	.LEHE8:
 589              	.L23:
 590              	.LBE11:
 591              		.loc 5 15 0 is_stmt 1
 592 0105 90       		nop
 593 0106 488B45E8 		movq	-24(%rbp), %rax
 594 010a 64483304 		xorq	%fs:40, %rax
 594      25280000 
 594      00
 595 0113 7405     		je	.L20
 596 0115 E8000000 		call	__stack_chk_fail
 596      00
 597              	.L20:
 598 011a 4883C478 		addq	$120, %rsp
 599 011e 5B       		popq	%rbx
 600 011f 5D       		popq	%rbp
 601              		.cfi_def_cfa 7, 8
 602 0120 C3       		ret
 603              		.cfi_endproc
 604              	.LFE1078:
 605              		.section	.gcc_except_table,"a",@progbits
 606              		.align 4
 607              	.LLSDA1078:
 608 0000 FF       		.byte	0xff
 609 0001 03       		.byte	0x3
 610 0002 21       		.uleb128 .LLSDATT1078-.LLSDATTD1078
 611              	.LLSDATTD1078:
 612 0003 01       		.byte	0x1
 613 0004 17       		.uleb128 .LLSDACSE1078-.LLSDACSB1078
 614              	.LLSDACSB1078:
 615 0005 28       		.uleb128 .LEHB4-.LFB1078
 616 0006 05       		.uleb128 .LEHE4-.LEHB4
 617 0007 00       		.uleb128 0
 618 0008 00       		.uleb128 0
 619 0009 35       		.uleb128 .LEHB5-.LFB1078
 620 000a 38       		.uleb128 .LEHE5-.LEHB5
 621 000b 8201     		.uleb128 .L21-.LFB1078
 622 000d 01       		.uleb128 0x1
 623 000e 7D       		.uleb128 .LEHB6-.LFB1078
 624 000f 05       		.uleb128 .LEHE6-.LEHB6
 625 0010 00       		.uleb128 0
 626 0011 00       		.uleb128 0
 627 0012 8A01     		.uleb128 .LEHB7-.LFB1078
 628 0014 38       		.uleb128 .LEHE7-.LEHB7
 629 0015 6F       		.uleb128 .L22-.LFB1078
 630 0016 00       		.uleb128 0
 631 0017 C201     		.uleb128 .LEHB8-.LFB1078
 632 0019 05       		.uleb128 .LEHE8-.LEHB8
 633 001a 00       		.uleb128 0
 634 001b 00       		.uleb128 0
 635              	.LLSDACSE1078:
 636 001c 01       		.byte	0x1
 637 001d 00       		.byte	0
 638 001e 0000     		.align 4
 639 0020 00000000 		.long	0
 640              	
 641              	.LLSDATT1078:
 642              		.text
 644              		.section	.rodata
 645 0071 00000000 		.align 8
 645      000000
 646              	.LC5:
 647 0078 43686563 		.string	"CheckEqualsWithStringsFailsOnDifferentStrings"
 647      6B457175 
 647      616C7357 
 647      69746853 
 647      7472696E 
 648              		.text
 649 0121 90       		.align 2
 651              	_ZN12_GLOBAL__N_149TestCheckEqualsWithStringsFailsOnDifferentStringsC2Ev:
 652              	.LFB1080:
  16:TestChecks.cpp **** 
  17:TestChecks.cpp **** TEST(CheckEqualsWithStringsFailsOnDifferentStrings)
 653              		.loc 5 17 0
 654              		.cfi_startproc
 655 0122 55       		pushq	%rbp
 656              		.cfi_def_cfa_offset 16
 657              		.cfi_offset 6, -16
 658 0123 4889E5   		movq	%rsp, %rbp
 659              		.cfi_def_cfa_register 6
 660 0126 4883EC10 		subq	$16, %rsp
 661 012a 48897DF8 		movq	%rdi, -8(%rbp)
 662              	.LBB12:
 663              		.loc 5 17 0
 664 012e E8000000 		call	_ZN13UnitTestSuite12GetSuiteNameEv
 664      00
 665 0133 4889C2   		movq	%rax, %rdx
 666 0136 488B45F8 		movq	-8(%rbp), %rax
 667 013a 41B81100 		movl	$17, %r8d
 667      0000
 668 0140 B9000000 		movl	$.LC2, %ecx
 668      00
 669 0145 BE000000 		movl	$.LC5, %esi
 669      00
 670 014a 4889C7   		movq	%rax, %rdi
 671 014d E8000000 		call	_ZN8UnitTest4TestC2EPKcS2_S2_i
 671      00
 672 0152 488B45F8 		movq	-8(%rbp), %rax
 673 0156 48C70000 		movq	$_ZTVN12_GLOBAL__N_149TestCheckEqualsWithStringsFailsOnDifferentStringsE+16, (%rax)
 673      000000
 674              	.LBE12:
 675 015d C9       		leave
 676              		.cfi_def_cfa 7, 8
 677 015e C3       		ret
 678              		.cfi_endproc
 679              	.LFE1080:
 681              		.local	_ZN12_GLOBAL__N_157testCheckEqualsWithStringsFailsOnDifferentStringsInstanceE
 682              		.comm	_ZN12_GLOBAL__N_157testCheckEqualsWithStringsFailsOnDifferentStringsInstanceE,56,32
 683              		.local	_ZN12_GLOBAL__N_150adderCheckEqualsWithStringsFailsOnDifferentStringsE
 684              		.comm	_ZN12_GLOBAL__N_150adderCheckEqualsWithStringsFailsOnDifferentStringsE,1,1
 685              		.section	.rodata
 686              	.LC6:
 687 00a6 00       		.string	""
 688 00a7 00       		.align 8
 689              	.LC7:
 690 00a8 556E6861 		.string	"Unhandled exception in CHECK_EQUAL(1, results.GetFailureCount())"
 690      6E646C65 
 690      64206578 
 690      63657074 
 690      696F6E20 
 691              		.text
 692 015f 90       		.align 2
 694              	_ZNK12_GLOBAL__N_149TestCheckEqualsWithStringsFailsOnDifferentStrings7RunImplEv:
 695              	.LFB1082:
  18:TestChecks.cpp **** {
 696              		.loc 5 18 0
 697              		.cfi_startproc
 698              		.cfi_personality 0x3,__gxx_personality_v0
 699              		.cfi_lsda 0x3,.LLSDA1082
 700 0160 55       		pushq	%rbp
 701              		.cfi_def_cfa_offset 16
 702              		.cfi_offset 6, -16
 703 0161 4889E5   		movq	%rsp, %rbp
 704              		.cfi_def_cfa_register 6
 705 0164 53       		pushq	%rbx
 706 0165 4881EC88 		subq	$136, %rsp
 706      000000
 707              		.cfi_offset 3, -24
 708 016c 4889BD78 		movq	%rdi, -136(%rbp)
 708      FFFFFF
 709              		.loc 5 18 0
 710 0173 64488B04 		movq	%fs:40, %rax
 710      25280000 
 710      00
 711 017c 488945E8 		movq	%rax, -24(%rbp)
 712 0180 31C0     		xorl	%eax, %eax
 713              	.LBB13:
  19:TestChecks.cpp ****     char txt1[] = "Hello";
 714              		.loc 5 19 0
 715 0182 C745D048 		movl	$1819043144, -48(%rbp)
 715      656C6C
 716 0189 66C745D4 		movw	$111, -44(%rbp)
 716      6F00
  20:TestChecks.cpp ****     char txt2[] = "Hallo";
 717              		.loc 5 20 0
 718 018f C745E048 		movl	$1819042120, -32(%rbp)
 718      616C6C
 719 0196 66C745E4 		movw	$111, -28(%rbp)
 719      6F00
  21:TestChecks.cpp ****     TestResults results;
 720              		.loc 5 21 0
 721 019c 488D4590 		leaq	-112(%rbp), %rax
 722 01a0 BE000000 		movl	$0, %esi
 722      00
 723 01a5 4889C7   		movq	%rax, %rdi
 724              	.LEHB9:
 725 01a8 E8000000 		call	_ZN8UnitTest11TestResultsC1EPNS_12TestReporterE
 725      00
  22:TestChecks.cpp ****     CheckEqual(results, txt1, txt2, TestDetails("", "", "", 0));
 726              		.loc 5 22 0
 727 01ad 488D45B0 		leaq	-80(%rbp), %rax
 728 01b1 41B80000 		movl	$0, %r8d
 728      0000
 729 01b7 B9000000 		movl	$.LC6, %ecx
 729      00
 730 01bc BA000000 		movl	$.LC6, %edx
 730      00
 731 01c1 BE000000 		movl	$.LC6, %esi
 731      00
 732 01c6 4889C7   		movq	%rax, %rdi
 733 01c9 E8000000 		call	_ZN8UnitTest11TestDetailsC1EPKcS2_S2_i
 733      00
 734 01ce 488D4DB0 		leaq	-80(%rbp), %rcx
 735 01d2 488D55E0 		leaq	-32(%rbp), %rdx
 736 01d6 488D75D0 		leaq	-48(%rbp), %rsi
 737 01da 488D4590 		leaq	-112(%rbp), %rax
 738 01de 4889C7   		movq	%rax, %rdi
 739 01e1 E8000000 		call	_ZN8UnitTest10CheckEqualERNS_11TestResultsEPcS2_RKNS_11TestDetailsE
 739      00
 740              	.LEHE9:
 741              	.LEHB10:
  23:TestChecks.cpp ****     CHECK_EQUAL(1, results.GetFailureCount());
 742              		.loc 5 23 0
 743 01e6 E8000000 		call	_ZN8UnitTest11CurrentTest7DetailsEv
 743      00
 744 01eb 488B08   		movq	(%rax), %rcx
 745 01ee 488D45B0 		leaq	-80(%rbp), %rax
 746 01f2 BA170000 		movl	$23, %edx
 746      00
 747 01f7 4889CE   		movq	%rcx, %rsi
 748 01fa 4889C7   		movq	%rax, %rdi
 749 01fd E8000000 		call	_ZN8UnitTest11TestDetailsC1ERKS0_i
 749      00
 750              		.loc 5 23 0 is_stmt 0 discriminator 2
 751 0202 488D4590 		leaq	-112(%rbp), %rax
 752 0206 4889C7   		movq	%rax, %rdi
 753 0209 E8000000 		call	_ZNK8UnitTest11TestResults15GetFailureCountEv
 753      00
 754 020e 89458C   		movl	%eax, -116(%rbp)
 755 0211 C7458801 		movl	$1, -120(%rbp)
 755      000000
 756 0218 E8000000 		call	_ZN8UnitTest11CurrentTest7ResultsEv
 756      00
 757              		.loc 5 23 0 discriminator 4
 758 021d 488B00   		movq	(%rax), %rax
 759 0220 488D4DB0 		leaq	-80(%rbp), %rcx
 760 0224 488D558C 		leaq	-116(%rbp), %rdx
 761 0228 488D7588 		leaq	-120(%rbp), %rsi
 762 022c 4889C7   		movq	%rax, %rdi
 763 022f E8000000 		call	_ZN8UnitTest10CheckEqualIiiEEvRNS_11TestResultsERKT_RKT0_RKNS_11TestDetailsE
 763      00
 764              	.LEHE10:
 765              	.LBE13:
  24:TestChecks.cpp **** }
 766              		.loc 5 24 0 is_stmt 1
 767 0234 EB58     		jmp	.L32
 768              	.L31:
 769 0236 4889C3   		movq	%rax, %rbx
 770              	.LBB14:
  23:TestChecks.cpp ****     CHECK_EQUAL(1, results.GetFailureCount());
 771              		.loc 5 23 0
 772 0239 E8000000 		call	__cxa_end_catch
 772      00
 773 023e 4889D8   		movq	%rbx, %rax
 774 0241 4889C7   		movq	%rax, %rdi
 775              	.LEHB11:
 776 0244 E8000000 		call	_Unwind_Resume
 776      00
 777              	.LEHE11:
 778              	.L30:
 779 0249 4889C7   		movq	%rax, %rdi
 780 024c E8000000 		call	__cxa_begin_catch
 780      00
 781              	.LEHB12:
 782 0251 E8000000 		call	_ZN8UnitTest11CurrentTest7DetailsEv
 782      00
 783 0256 488B08   		movq	(%rax), %rcx
 784 0259 488D45B0 		leaq	-80(%rbp), %rax
 785 025d BA170000 		movl	$23, %edx
 785      00
 786 0262 4889CE   		movq	%rcx, %rsi
 787 0265 4889C7   		movq	%rax, %rdi
 788 0268 E8000000 		call	_ZN8UnitTest11TestDetailsC1ERKS0_i
 788      00
  23:TestChecks.cpp ****     CHECK_EQUAL(1, results.GetFailureCount());
 789              		.loc 5 23 0 is_stmt 0 discriminator 12
 790 026d E8000000 		call	_ZN8UnitTest11CurrentTest7ResultsEv
 790      00
 791 0272 488B00   		movq	(%rax), %rax
 792 0275 488D4DB0 		leaq	-80(%rbp), %rcx
 793 0279 BA000000 		movl	$.LC7, %edx
 793      00
 794 027e 4889CE   		movq	%rcx, %rsi
 795 0281 4889C7   		movq	%rax, %rdi
 796 0284 E8000000 		call	_ZN8UnitTest11TestResults13OnTestFailureERKNS_11TestDetailsEPKc
 796      00
 797              	.LEHE12:
 798              	.LEHB13:
  23:TestChecks.cpp ****     CHECK_EQUAL(1, results.GetFailureCount());
 799              		.loc 5 23 0 discriminator 16
 800 0289 E8000000 		call	__cxa_end_catch
 800      00
 801              	.LEHE13:
 802              	.L32:
 803              	.LBE14:
 804              		.loc 5 24 0 is_stmt 1
 805 028e 90       		nop
 806 028f 488B45E8 		movq	-24(%rbp), %rax
 807 0293 64483304 		xorq	%fs:40, %rax
 807      25280000 
 807      00
 808 029c 7405     		je	.L29
 809 029e E8000000 		call	__stack_chk_fail
 809      00
 810              	.L29:
 811 02a3 4881C488 		addq	$136, %rsp
 811      000000
 812 02aa 5B       		popq	%rbx
 813 02ab 5D       		popq	%rbp
 814              		.cfi_def_cfa 7, 8
 815 02ac C3       		ret
 816              		.cfi_endproc
 817              	.LFE1082:
 818              		.section	.gcc_except_table
 819              		.align 4
 820              	.LLSDA1082:
 821 0024 FF       		.byte	0xff
 822 0025 03       		.byte	0x3
 823 0026 25       		.uleb128 .LLSDATT1082-.LLSDATTD1082
 824              	.LLSDATTD1082:
 825 0027 01       		.byte	0x1
 826 0028 1A       		.uleb128 .LLSDACSE1082-.LLSDACSB1082
 827              	.LLSDACSB1082:
 828 0029 48       		.uleb128 .LEHB9-.LFB1082
 829 002a 3E       		.uleb128 .LEHE9-.LEHB9
 830 002b 00       		.uleb128 0
 831 002c 00       		.uleb128 0
 832 002d 8601     		.uleb128 .LEHB10-.LFB1082
 833 002f 4E       		.uleb128 .LEHE10-.LEHB10
 834 0030 E901     		.uleb128 .L30-.LFB1082
 835 0032 01       		.uleb128 0x1
 836 0033 E401     		.uleb128 .LEHB11-.LFB1082
 837 0035 05       		.uleb128 .LEHE11-.LEHB11
 838 0036 00       		.uleb128 0
 839 0037 00       		.uleb128 0
 840 0038 F101     		.uleb128 .LEHB12-.LFB1082
 841 003a 38       		.uleb128 .LEHE12-.LEHB12
 842 003b D601     		.uleb128 .L31-.LFB1082
 843 003d 00       		.uleb128 0
 844 003e A902     		.uleb128 .LEHB13-.LFB1082
 845 0040 05       		.uleb128 .LEHE13-.LEHB13
 846 0041 00       		.uleb128 0
 847 0042 00       		.uleb128 0
 848              	.LLSDACSE1082:
 849 0043 01       		.byte	0x1
 850 0044 00       		.byte	0
 851 0045 000000   		.align 4
 852 0048 00000000 		.long	0
 853              	
 854              	.LLSDATT1082:
 855              		.text
 857              		.data
 860              	_ZN12_GLOBAL__N_14txt1E:
 861 0000 48656C6C 		.string	"Hello"
 861      6F00
 864              	_ZN12_GLOBAL__N_14txt2E:
 865 0006 48656C6C 		.string	"Hello"
 865      6F00
 866              		.section	.rodata
 867 00e9 00000000 		.align 8
 867      000000
 868              	.LC8:
 869 00f0 43686563 		.string	"CheckEqualsWithStringsWorksOnContentsNonConstNonConst"
 869      6B457175 
 869      616C7357 
 869      69746853 
 869      7472696E 
 870              		.text
 871 02ad 90       		.align 2
 873              	_ZN12_GLOBAL__N_157TestCheckEqualsWithStringsWorksOnContentsNonConstNonConstC2Ev:
 874              	.LFB1084:
  25:TestChecks.cpp **** 
  26:TestChecks.cpp **** char txt1[] = "Hello"; // non-const on purpose so no folding of duplicate data
  27:TestChecks.cpp **** char txt2[] = "Hello";
  28:TestChecks.cpp **** 
  29:TestChecks.cpp **** TEST(CheckEqualsWithStringsWorksOnContentsNonConstNonConst)
 875              		.loc 5 29 0
 876              		.cfi_startproc
 877 02ae 55       		pushq	%rbp
 878              		.cfi_def_cfa_offset 16
 879              		.cfi_offset 6, -16
 880 02af 4889E5   		movq	%rsp, %rbp
 881              		.cfi_def_cfa_register 6
 882 02b2 4883EC10 		subq	$16, %rsp
 883 02b6 48897DF8 		movq	%rdi, -8(%rbp)
 884              	.LBB15:
 885              		.loc 5 29 0
 886 02ba E8000000 		call	_ZN13UnitTestSuite12GetSuiteNameEv
 886      00
 887 02bf 4889C2   		movq	%rax, %rdx
 888 02c2 488B45F8 		movq	-8(%rbp), %rax
 889 02c6 41B81D00 		movl	$29, %r8d
 889      0000
 890 02cc B9000000 		movl	$.LC2, %ecx
 890      00
 891 02d1 BE000000 		movl	$.LC8, %esi
 891      00
 892 02d6 4889C7   		movq	%rax, %rdi
 893 02d9 E8000000 		call	_ZN8UnitTest4TestC2EPKcS2_S2_i
 893      00
 894 02de 488B45F8 		movq	-8(%rbp), %rax
 895 02e2 48C70000 		movq	$_ZTVN12_GLOBAL__N_157TestCheckEqualsWithStringsWorksOnContentsNonConstNonConstE+16, (%rax)
 895      000000
 896              	.LBE15:
 897 02e9 C9       		leave
 898              		.cfi_def_cfa 7, 8
 899 02ea C3       		ret
 900              		.cfi_endproc
 901              	.LFE1084:
 903              		.local	_ZN12_GLOBAL__N_165testCheckEqualsWithStringsWorksOnContentsNonConstNonConstInstanceE
 904              		.comm	_ZN12_GLOBAL__N_165testCheckEqualsWithStringsWorksOnContentsNonConstNonConstInstanceE,56,32
 905              		.local	_ZN12_GLOBAL__N_158adderCheckEqualsWithStringsWorksOnContentsNonConstNonConstE
 906              		.comm	_ZN12_GLOBAL__N_158adderCheckEqualsWithStringsWorksOnContentsNonConstNonConstE,1,1
 907              		.section	.rodata
 908 0126 0000     		.align 8
 909              	.LC9:
 910 0128 556E6861 		.string	"Unhandled exception in CHECK_EQUAL(0, results.GetFailureCount())"
 910      6E646C65 
 910      64206578 
 910      63657074 
 910      696F6E20 
 911              		.text
 912 02eb 90       		.align 2
 914              	_ZNK12_GLOBAL__N_157TestCheckEqualsWithStringsWorksOnContentsNonConstNonConst7RunImplEv:
 915              	.LFB1086:
  30:TestChecks.cpp **** {
 916              		.loc 5 30 0
 917              		.cfi_startproc
 918              		.cfi_personality 0x3,__gxx_personality_v0
 919              		.cfi_lsda 0x3,.LLSDA1086
 920 02ec 55       		pushq	%rbp
 921              		.cfi_def_cfa_offset 16
 922              		.cfi_offset 6, -16
 923 02ed 4889E5   		movq	%rsp, %rbp
 924              		.cfi_def_cfa_register 6
 925 02f0 53       		pushq	%rbx
 926 02f1 4881EC88 		subq	$136, %rsp
 926      000000
 927              		.cfi_offset 3, -24
 928 02f8 4889BD78 		movq	%rdi, -136(%rbp)
 928      FFFFFF
 929              		.loc 5 30 0
 930 02ff 64488B04 		movq	%fs:40, %rax
 930      25280000 
 930      00
 931 0308 488945E8 		movq	%rax, -24(%rbp)
 932 030c 31C0     		xorl	%eax, %eax
 933              	.LBB16:
  31:TestChecks.cpp ****     char const* const p1 = txt1;
 934              		.loc 5 31 0
 935 030e 48C74590 		movq	$_ZN12_GLOBAL__N_14txt1E, -112(%rbp)
 935      00000000 
  32:TestChecks.cpp ****     char const* const p2 = txt2;
 936              		.loc 5 32 0
 937 0316 48C74598 		movq	$_ZN12_GLOBAL__N_14txt2E, -104(%rbp)
 937      00000000 
  33:TestChecks.cpp ****     TestResults results;
 938              		.loc 5 33 0
 939 031e 488D45A0 		leaq	-96(%rbp), %rax
 940 0322 BE000000 		movl	$0, %esi
 940      00
 941 0327 4889C7   		movq	%rax, %rdi
 942              	.LEHB14:
 943 032a E8000000 		call	_ZN8UnitTest11TestResultsC1EPNS_12TestReporterE
 943      00
  34:TestChecks.cpp ****     CheckEqual(results, p1, p2, TestDetails("", "", "", 0));
 944              		.loc 5 34 0
 945 032f 488D45C0 		leaq	-64(%rbp), %rax
 946 0333 41B80000 		movl	$0, %r8d
 946      0000
 947 0339 B9000000 		movl	$.LC6, %ecx
 947      00
 948 033e BA000000 		movl	$.LC6, %edx
 948      00
 949 0343 BE000000 		movl	$.LC6, %esi
 949      00
 950 0348 4889C7   		movq	%rax, %rdi
 951 034b E8000000 		call	_ZN8UnitTest11TestDetailsC1EPKcS2_S2_i
 951      00
 952 0350 488D55C0 		leaq	-64(%rbp), %rdx
 953 0354 488D45A0 		leaq	-96(%rbp), %rax
 954 0358 4889D1   		movq	%rdx, %rcx
 955 035b BA000000 		movl	$_ZN12_GLOBAL__N_14txt2E, %edx
 955      00
 956 0360 BE000000 		movl	$_ZN12_GLOBAL__N_14txt1E, %esi
 956      00
 957 0365 4889C7   		movq	%rax, %rdi
 958 0368 E8000000 		call	_ZN8UnitTest10CheckEqualERNS_11TestResultsEPKcS3_RKNS_11TestDetailsE
 958      00
 959              	.LEHE14:
 960              	.LEHB15:
  35:TestChecks.cpp ****     CHECK_EQUAL(0, results.GetFailureCount());
 961              		.loc 5 35 0
 962 036d E8000000 		call	_ZN8UnitTest11CurrentTest7DetailsEv
 962      00
 963 0372 488B08   		movq	(%rax), %rcx
 964 0375 488D45C0 		leaq	-64(%rbp), %rax
 965 0379 BA230000 		movl	$35, %edx
 965      00
 966 037e 4889CE   		movq	%rcx, %rsi
 967 0381 4889C7   		movq	%rax, %rdi
 968 0384 E8000000 		call	_ZN8UnitTest11TestDetailsC1ERKS0_i
 968      00
 969              		.loc 5 35 0 is_stmt 0 discriminator 2
 970 0389 488D45A0 		leaq	-96(%rbp), %rax
 971 038d 4889C7   		movq	%rax, %rdi
 972 0390 E8000000 		call	_ZNK8UnitTest11TestResults15GetFailureCountEv
 972      00
 973 0395 89458C   		movl	%eax, -116(%rbp)
 974 0398 C7458800 		movl	$0, -120(%rbp)
 974      000000
 975 039f E8000000 		call	_ZN8UnitTest11CurrentTest7ResultsEv
 975      00
 976              		.loc 5 35 0 discriminator 4
 977 03a4 488B00   		movq	(%rax), %rax
 978 03a7 488D4DC0 		leaq	-64(%rbp), %rcx
 979 03ab 488D558C 		leaq	-116(%rbp), %rdx
 980 03af 488D7588 		leaq	-120(%rbp), %rsi
 981 03b3 4889C7   		movq	%rax, %rdi
 982 03b6 E8000000 		call	_ZN8UnitTest10CheckEqualIiiEEvRNS_11TestResultsERKT_RKT0_RKNS_11TestDetailsE
 982      00
 983              	.LEHE15:
 984              	.LBE16:
  36:TestChecks.cpp **** }
 985              		.loc 5 36 0 is_stmt 1
 986 03bb EB58     		jmp	.L41
 987              	.L40:
 988 03bd 4889C3   		movq	%rax, %rbx
 989              	.LBB17:
  35:TestChecks.cpp ****     CHECK_EQUAL(0, results.GetFailureCount());
 990              		.loc 5 35 0
 991 03c0 E8000000 		call	__cxa_end_catch
 991      00
 992 03c5 4889D8   		movq	%rbx, %rax
 993 03c8 4889C7   		movq	%rax, %rdi
 994              	.LEHB16:
 995 03cb E8000000 		call	_Unwind_Resume
 995      00
 996              	.LEHE16:
 997              	.L39:
 998 03d0 4889C7   		movq	%rax, %rdi
 999 03d3 E8000000 		call	__cxa_begin_catch
 999      00
 1000              	.LEHB17:
 1001 03d8 E8000000 		call	_ZN8UnitTest11CurrentTest7DetailsEv
 1001      00
 1002 03dd 488B08   		movq	(%rax), %rcx
 1003 03e0 488D45C0 		leaq	-64(%rbp), %rax
 1004 03e4 BA230000 		movl	$35, %edx
 1004      00
 1005 03e9 4889CE   		movq	%rcx, %rsi
 1006 03ec 4889C7   		movq	%rax, %rdi
 1007 03ef E8000000 		call	_ZN8UnitTest11TestDetailsC1ERKS0_i
 1007      00
  35:TestChecks.cpp ****     CHECK_EQUAL(0, results.GetFailureCount());
 1008              		.loc 5 35 0 is_stmt 0 discriminator 12
 1009 03f4 E8000000 		call	_ZN8UnitTest11CurrentTest7ResultsEv
 1009      00
 1010 03f9 488B00   		movq	(%rax), %rax
 1011 03fc 488D4DC0 		leaq	-64(%rbp), %rcx
 1012 0400 BA000000 		movl	$.LC9, %edx
 1012      00
 1013 0405 4889CE   		movq	%rcx, %rsi
 1014 0408 4889C7   		movq	%rax, %rdi
 1015 040b E8000000 		call	_ZN8UnitTest11TestResults13OnTestFailureERKNS_11TestDetailsEPKc
 1015      00
 1016              	.LEHE17:
 1017              	.LEHB18:
  35:TestChecks.cpp ****     CHECK_EQUAL(0, results.GetFailureCount());
 1018              		.loc 5 35 0 discriminator 16
 1019 0410 E8000000 		call	__cxa_end_catch
 1019      00
 1020              	.LEHE18:
 1021              	.L41:
 1022              	.LBE17:
 1023              		.loc 5 36 0 is_stmt 1
 1024 0415 90       		nop
 1025 0416 488B45E8 		movq	-24(%rbp), %rax
 1026 041a 64483304 		xorq	%fs:40, %rax
 1026      25280000 
 1026      00
 1027 0423 7405     		je	.L38
 1028 0425 E8000000 		call	__stack_chk_fail
 1028      00
 1029              	.L38:
 1030 042a 4881C488 		addq	$136, %rsp
 1030      000000
 1031 0431 5B       		popq	%rbx
 1032 0432 5D       		popq	%rbp
 1033              		.cfi_def_cfa 7, 8
 1034 0433 C3       		ret
 1035              		.cfi_endproc
 1036              	.LFE1086:
 1037              		.section	.gcc_except_table
 1038              		.align 4
 1039              	.LLSDA1086:
 1040 004c FF       		.byte	0xff
 1041 004d 03       		.byte	0x3
 1042 004e 25       		.uleb128 .LLSDATT1086-.LLSDATTD1086
 1043              	.LLSDATTD1086:
 1044 004f 01       		.byte	0x1
 1045 0050 1A       		.uleb128 .LLSDACSE1086-.LLSDACSB1086
 1046              	.LLSDACSB1086:
 1047 0051 3E       		.uleb128 .LEHB14-.LFB1086
 1048 0052 43       		.uleb128 .LEHE14-.LEHB14
 1049 0053 00       		.uleb128 0
 1050 0054 00       		.uleb128 0
 1051 0055 8101     		.uleb128 .LEHB15-.LFB1086
 1052 0057 4E       		.uleb128 .LEHE15-.LEHB15
 1053 0058 E401     		.uleb128 .L39-.LFB1086
 1054 005a 01       		.uleb128 0x1
 1055 005b DF01     		.uleb128 .LEHB16-.LFB1086
 1056 005d 05       		.uleb128 .LEHE16-.LEHB16
 1057 005e 00       		.uleb128 0
 1058 005f 00       		.uleb128 0
 1059 0060 EC01     		.uleb128 .LEHB17-.LFB1086
 1060 0062 38       		.uleb128 .LEHE17-.LEHB17
 1061 0063 D101     		.uleb128 .L40-.LFB1086
 1062 0065 00       		.uleb128 0
 1063 0066 A402     		.uleb128 .LEHB18-.LFB1086
 1064 0068 05       		.uleb128 .LEHE18-.LEHB18
 1065 0069 00       		.uleb128 0
 1066 006a 00       		.uleb128 0
 1067              	.LLSDACSE1086:
 1068 006b 01       		.byte	0x1
 1069 006c 00       		.byte	0
 1070 006d 000000   		.align 4
 1071 0070 00000000 		.long	0
 1072              	
 1073              	.LLSDATT1086:
 1074              		.text
 1076              		.section	.rodata
 1077 0169 00000000 		.align 8
 1077      000000
 1078              	.LC10:
 1079 0170 43686563 		.string	"CheckEqualsWithStringsWorksOnContentsConstConst"
 1079      6B457175 
 1079      616C7357 
 1079      69746853 
 1079      7472696E 
 1080              		.text
 1081              		.align 2
 1083              	_ZN12_GLOBAL__N_151TestCheckEqualsWithStringsWorksOnContentsConstConstC2Ev:
 1084              	.LFB1088:
  37:TestChecks.cpp **** 
  38:TestChecks.cpp **** TEST(CheckEqualsWithStringsWorksOnContentsConstConst)
 1085              		.loc 5 38 0
 1086              		.cfi_startproc
 1087 0434 55       		pushq	%rbp
 1088              		.cfi_def_cfa_offset 16
 1089              		.cfi_offset 6, -16
 1090 0435 4889E5   		movq	%rsp, %rbp
 1091              		.cfi_def_cfa_register 6
 1092 0438 4883EC10 		subq	$16, %rsp
 1093 043c 48897DF8 		movq	%rdi, -8(%rbp)
 1094              	.LBB18:
 1095              		.loc 5 38 0
 1096 0440 E8000000 		call	_ZN13UnitTestSuite12GetSuiteNameEv
 1096      00
 1097 0445 4889C2   		movq	%rax, %rdx
 1098 0448 488B45F8 		movq	-8(%rbp), %rax
 1099 044c 41B82600 		movl	$38, %r8d
 1099      0000
 1100 0452 B9000000 		movl	$.LC2, %ecx
 1100      00
 1101 0457 BE000000 		movl	$.LC10, %esi
 1101      00
 1102 045c 4889C7   		movq	%rax, %rdi
 1103 045f E8000000 		call	_ZN8UnitTest4TestC2EPKcS2_S2_i
 1103      00
 1104 0464 488B45F8 		movq	-8(%rbp), %rax
 1105 0468 48C70000 		movq	$_ZTVN12_GLOBAL__N_151TestCheckEqualsWithStringsWorksOnContentsConstConstE+16, (%rax)
 1105      000000
 1106              	.LBE18:
 1107 046f C9       		leave
 1108              		.cfi_def_cfa 7, 8
 1109 0470 C3       		ret
 1110              		.cfi_endproc
 1111              	.LFE1088:
 1113              		.local	_ZN12_GLOBAL__N_159testCheckEqualsWithStringsWorksOnContentsConstConstInstanceE
 1114              		.comm	_ZN12_GLOBAL__N_159testCheckEqualsWithStringsWorksOnContentsConstConstInstanceE,56,32
 1115              		.local	_ZN12_GLOBAL__N_152adderCheckEqualsWithStringsWorksOnContentsConstConstE
 1116              		.comm	_ZN12_GLOBAL__N_152adderCheckEqualsWithStringsWorksOnContentsConstConstE,1,1
 1117 0471 90       		.align 2
 1119              	_ZNK12_GLOBAL__N_151TestCheckEqualsWithStringsWorksOnContentsConstConst7RunImplEv:
 1120              	.LFB1090:
  39:TestChecks.cpp **** {
 1121              		.loc 5 39 0
 1122              		.cfi_startproc
 1123              		.cfi_personality 0x3,__gxx_personality_v0
 1124              		.cfi_lsda 0x3,.LLSDA1090
 1125 0472 55       		pushq	%rbp
 1126              		.cfi_def_cfa_offset 16
 1127              		.cfi_offset 6, -16
 1128 0473 4889E5   		movq	%rsp, %rbp
 1129              		.cfi_def_cfa_register 6
 1130 0476 53       		pushq	%rbx
 1131 0477 4881EC88 		subq	$136, %rsp
 1131      000000
 1132              		.cfi_offset 3, -24
 1133 047e 4889BD78 		movq	%rdi, -136(%rbp)
 1133      FFFFFF
 1134              		.loc 5 39 0
 1135 0485 64488B04 		movq	%fs:40, %rax
 1135      25280000 
 1135      00
 1136 048e 488945E8 		movq	%rax, -24(%rbp)
 1137 0492 31C0     		xorl	%eax, %eax
 1138              	.LBB19:
  40:TestChecks.cpp ****     char* const p1 = txt1;
 1139              		.loc 5 40 0
 1140 0494 48C74590 		movq	$_ZN12_GLOBAL__N_14txt1E, -112(%rbp)
 1140      00000000 
  41:TestChecks.cpp ****     char* const p2 = txt2;
 1141              		.loc 5 41 0
 1142 049c 48C74598 		movq	$_ZN12_GLOBAL__N_14txt2E, -104(%rbp)
 1142      00000000 
  42:TestChecks.cpp ****     TestResults results;
 1143              		.loc 5 42 0
 1144 04a4 488D45A0 		leaq	-96(%rbp), %rax
 1145 04a8 BE000000 		movl	$0, %esi
 1145      00
 1146 04ad 4889C7   		movq	%rax, %rdi
 1147              	.LEHB19:
 1148 04b0 E8000000 		call	_ZN8UnitTest11TestResultsC1EPNS_12TestReporterE
 1148      00
  43:TestChecks.cpp ****     CheckEqual(results, p1, p2, TestDetails("", "", "", 0));
 1149              		.loc 5 43 0
 1150 04b5 488D45C0 		leaq	-64(%rbp), %rax
 1151 04b9 41B80000 		movl	$0, %r8d
 1151      0000
 1152 04bf B9000000 		movl	$.LC6, %ecx
 1152      00
 1153 04c4 BA000000 		movl	$.LC6, %edx
 1153      00
 1154 04c9 BE000000 		movl	$.LC6, %esi
 1154      00
 1155 04ce 4889C7   		movq	%rax, %rdi
 1156 04d1 E8000000 		call	_ZN8UnitTest11TestDetailsC1EPKcS2_S2_i
 1156      00
 1157 04d6 488D55C0 		leaq	-64(%rbp), %rdx
 1158 04da 488D45A0 		leaq	-96(%rbp), %rax
 1159 04de 4889D1   		movq	%rdx, %rcx
 1160 04e1 BA000000 		movl	$_ZN12_GLOBAL__N_14txt2E, %edx
 1160      00
 1161 04e6 BE000000 		movl	$_ZN12_GLOBAL__N_14txt1E, %esi
 1161      00
 1162 04eb 4889C7   		movq	%rax, %rdi
 1163 04ee E8000000 		call	_ZN8UnitTest10CheckEqualERNS_11TestResultsEPcS2_RKNS_11TestDetailsE
 1163      00
 1164              	.LEHE19:
 1165              	.LEHB20:
  44:TestChecks.cpp ****     CHECK_EQUAL(0, results.GetFailureCount());
 1166              		.loc 5 44 0
 1167 04f3 E8000000 		call	_ZN8UnitTest11CurrentTest7DetailsEv
 1167      00
 1168 04f8 488B08   		movq	(%rax), %rcx
 1169 04fb 488D45C0 		leaq	-64(%rbp), %rax
 1170 04ff BA2C0000 		movl	$44, %edx
 1170      00
 1171 0504 4889CE   		movq	%rcx, %rsi
 1172 0507 4889C7   		movq	%rax, %rdi
 1173 050a E8000000 		call	_ZN8UnitTest11TestDetailsC1ERKS0_i
 1173      00
 1174              		.loc 5 44 0 is_stmt 0 discriminator 2
 1175 050f 488D45A0 		leaq	-96(%rbp), %rax
 1176 0513 4889C7   		movq	%rax, %rdi
 1177 0516 E8000000 		call	_ZNK8UnitTest11TestResults15GetFailureCountEv
 1177      00
 1178 051b 89458C   		movl	%eax, -116(%rbp)
 1179 051e C7458800 		movl	$0, -120(%rbp)
 1179      000000
 1180 0525 E8000000 		call	_ZN8UnitTest11CurrentTest7ResultsEv
 1180      00
 1181              		.loc 5 44 0 discriminator 4
 1182 052a 488B00   		movq	(%rax), %rax
 1183 052d 488D4DC0 		leaq	-64(%rbp), %rcx
 1184 0531 488D558C 		leaq	-116(%rbp), %rdx
 1185 0535 488D7588 		leaq	-120(%rbp), %rsi
 1186 0539 4889C7   		movq	%rax, %rdi
 1187 053c E8000000 		call	_ZN8UnitTest10CheckEqualIiiEEvRNS_11TestResultsERKT_RKT0_RKNS_11TestDetailsE
 1187      00
 1188              	.LEHE20:
 1189              	.LBE19:
  45:TestChecks.cpp **** }
 1190              		.loc 5 45 0 is_stmt 1
 1191 0541 EB58     		jmp	.L50
 1192              	.L49:
 1193 0543 4889C3   		movq	%rax, %rbx
 1194              	.LBB20:
  44:TestChecks.cpp ****     CHECK_EQUAL(0, results.GetFailureCount());
 1195              		.loc 5 44 0
 1196 0546 E8000000 		call	__cxa_end_catch
 1196      00
 1197 054b 4889D8   		movq	%rbx, %rax
 1198 054e 4889C7   		movq	%rax, %rdi
 1199              	.LEHB21:
 1200 0551 E8000000 		call	_Unwind_Resume
 1200      00
 1201              	.LEHE21:
 1202              	.L48:
 1203 0556 4889C7   		movq	%rax, %rdi
 1204 0559 E8000000 		call	__cxa_begin_catch
 1204      00
 1205              	.LEHB22:
 1206 055e E8000000 		call	_ZN8UnitTest11CurrentTest7DetailsEv
 1206      00
 1207 0563 488B08   		movq	(%rax), %rcx
 1208 0566 488D45C0 		leaq	-64(%rbp), %rax
 1209 056a BA2C0000 		movl	$44, %edx
 1209      00
 1210 056f 4889CE   		movq	%rcx, %rsi
 1211 0572 4889C7   		movq	%rax, %rdi
 1212 0575 E8000000 		call	_ZN8UnitTest11TestDetailsC1ERKS0_i
 1212      00
  44:TestChecks.cpp ****     CHECK_EQUAL(0, results.GetFailureCount());
 1213              		.loc 5 44 0 is_stmt 0 discriminator 12
 1214 057a E8000000 		call	_ZN8UnitTest11CurrentTest7ResultsEv
 1214      00
 1215 057f 488B00   		movq	(%rax), %rax
 1216 0582 488D4DC0 		leaq	-64(%rbp), %rcx
 1217 0586 BA000000 		movl	$.LC9, %edx
 1217      00
 1218 058b 4889CE   		movq	%rcx, %rsi
 1219 058e 4889C7   		movq	%rax, %rdi
 1220 0591 E8000000 		call	_ZN8UnitTest11TestResults13OnTestFailureERKNS_11TestDetailsEPKc
 1220      00
 1221              	.LEHE22:
 1222              	.LEHB23:
  44:TestChecks.cpp ****     CHECK_EQUAL(0, results.GetFailureCount());
 1223              		.loc 5 44 0 discriminator 16
 1224 0596 E8000000 		call	__cxa_end_catch
 1224      00
 1225              	.LEHE23:
 1226              	.L50:
 1227              	.LBE20:
 1228              		.loc 5 45 0 is_stmt 1
 1229 059b 90       		nop
 1230 059c 488B45E8 		movq	-24(%rbp), %rax
 1231 05a0 64483304 		xorq	%fs:40, %rax
 1231      25280000 
 1231      00
 1232 05a9 7405     		je	.L47
 1233 05ab E8000000 		call	__stack_chk_fail
 1233      00
 1234              	.L47:
 1235 05b0 4881C488 		addq	$136, %rsp
 1235      000000
 1236 05b7 5B       		popq	%rbx
 1237 05b8 5D       		popq	%rbp
 1238              		.cfi_def_cfa 7, 8
 1239 05b9 C3       		ret
 1240              		.cfi_endproc
 1241              	.LFE1090:
 1242              		.section	.gcc_except_table
 1243              		.align 4
 1244              	.LLSDA1090:
 1245 0074 FF       		.byte	0xff
 1246 0075 03       		.byte	0x3
 1247 0076 25       		.uleb128 .LLSDATT1090-.LLSDATTD1090
 1248              	.LLSDATTD1090:
 1249 0077 01       		.byte	0x1
 1250 0078 1A       		.uleb128 .LLSDACSE1090-.LLSDACSB1090
 1251              	.LLSDACSB1090:
 1252 0079 3E       		.uleb128 .LEHB19-.LFB1090
 1253 007a 43       		.uleb128 .LEHE19-.LEHB19
 1254 007b 00       		.uleb128 0
 1255 007c 00       		.uleb128 0
 1256 007d 8101     		.uleb128 .LEHB20-.LFB1090
 1257 007f 4E       		.uleb128 .LEHE20-.LEHB20
 1258 0080 E401     		.uleb128 .L48-.LFB1090
 1259 0082 01       		.uleb128 0x1
 1260 0083 DF01     		.uleb128 .LEHB21-.LFB1090
 1261 0085 05       		.uleb128 .LEHE21-.LEHB21
 1262 0086 00       		.uleb128 0
 1263 0087 00       		.uleb128 0
 1264 0088 EC01     		.uleb128 .LEHB22-.LFB1090
 1265 008a 38       		.uleb128 .LEHE22-.LEHB22
 1266 008b D101     		.uleb128 .L49-.LFB1090
 1267 008d 00       		.uleb128 0
 1268 008e A402     		.uleb128 .LEHB23-.LFB1090
 1269 0090 05       		.uleb128 .LEHE23-.LEHB23
 1270 0091 00       		.uleb128 0
 1271 0092 00       		.uleb128 0
 1272              	.LLSDACSE1090:
 1273 0093 01       		.byte	0x1
 1274 0094 00       		.byte	0
 1275 0095 000000   		.align 4
 1276 0098 00000000 		.long	0
 1277              	
 1278              	.LLSDATT1090:
 1279              		.text
 1281              		.section	.rodata
 1282              		.align 8
 1283              	.LC11:
 1284 01a0 43686563 		.string	"CheckEqualsWithStringsWorksOnContentsNonConstConst"
 1284      6B457175 
 1284      616C7357 
 1284      69746853 
 1284      7472696E 
 1285              		.text
 1286              		.align 2
 1288              	_ZN12_GLOBAL__N_154TestCheckEqualsWithStringsWorksOnContentsNonConstConstC2Ev:
 1289              	.LFB1092:
  46:TestChecks.cpp **** 
  47:TestChecks.cpp **** TEST(CheckEqualsWithStringsWorksOnContentsNonConstConst)
 1290              		.loc 5 47 0
 1291              		.cfi_startproc
 1292 05ba 55       		pushq	%rbp
 1293              		.cfi_def_cfa_offset 16
 1294              		.cfi_offset 6, -16
 1295 05bb 4889E5   		movq	%rsp, %rbp
 1296              		.cfi_def_cfa_register 6
 1297 05be 4883EC10 		subq	$16, %rsp
 1298 05c2 48897DF8 		movq	%rdi, -8(%rbp)
 1299              	.LBB21:
 1300              		.loc 5 47 0
 1301 05c6 E8000000 		call	_ZN13UnitTestSuite12GetSuiteNameEv
 1301      00
 1302 05cb 4889C2   		movq	%rax, %rdx
 1303 05ce 488B45F8 		movq	-8(%rbp), %rax
 1304 05d2 41B82F00 		movl	$47, %r8d
 1304      0000
 1305 05d8 B9000000 		movl	$.LC2, %ecx
 1305      00
 1306 05dd BE000000 		movl	$.LC11, %esi
 1306      00
 1307 05e2 4889C7   		movq	%rax, %rdi
 1308 05e5 E8000000 		call	_ZN8UnitTest4TestC2EPKcS2_S2_i
 1308      00
 1309 05ea 488B45F8 		movq	-8(%rbp), %rax
 1310 05ee 48C70000 		movq	$_ZTVN12_GLOBAL__N_154TestCheckEqualsWithStringsWorksOnContentsNonConstConstE+16, (%rax)
 1310      000000
 1311              	.LBE21:
 1312 05f5 C9       		leave
 1313              		.cfi_def_cfa 7, 8
 1314 05f6 C3       		ret
 1315              		.cfi_endproc
 1316              	.LFE1092:
 1318              		.local	_ZN12_GLOBAL__N_162testCheckEqualsWithStringsWorksOnContentsNonConstConstInstanceE
 1319              		.comm	_ZN12_GLOBAL__N_162testCheckEqualsWithStringsWorksOnContentsNonConstConstInstanceE,56,32
 1320              		.local	_ZN12_GLOBAL__N_155adderCheckEqualsWithStringsWorksOnContentsNonConstConstE
 1321              		.comm	_ZN12_GLOBAL__N_155adderCheckEqualsWithStringsWorksOnContentsNonConstConstE,1,1
 1322 05f7 90       		.align 2
 1324              	_ZNK12_GLOBAL__N_154TestCheckEqualsWithStringsWorksOnContentsNonConstConst7RunImplEv:
 1325              	.LFB1094:
  48:TestChecks.cpp **** {
 1326              		.loc 5 48 0
 1327              		.cfi_startproc
 1328              		.cfi_personality 0x3,__gxx_personality_v0
 1329              		.cfi_lsda 0x3,.LLSDA1094
 1330 05f8 55       		pushq	%rbp
 1331              		.cfi_def_cfa_offset 16
 1332              		.cfi_offset 6, -16
 1333 05f9 4889E5   		movq	%rsp, %rbp
 1334              		.cfi_def_cfa_register 6
 1335 05fc 53       		pushq	%rbx
 1336 05fd 4881EC88 		subq	$136, %rsp
 1336      000000
 1337              		.cfi_offset 3, -24
 1338 0604 4889BD78 		movq	%rdi, -136(%rbp)
 1338      FFFFFF
 1339              		.loc 5 48 0
 1340 060b 64488B04 		movq	%fs:40, %rax
 1340      25280000 
 1340      00
 1341 0614 488945E8 		movq	%rax, -24(%rbp)
 1342 0618 31C0     		xorl	%eax, %eax
 1343              	.LBB22:
  49:TestChecks.cpp ****     char* const p1 = txt1;
 1344              		.loc 5 49 0
 1345 061a 48C74590 		movq	$_ZN12_GLOBAL__N_14txt1E, -112(%rbp)
 1345      00000000 
  50:TestChecks.cpp ****     char const* const p2 = txt2;
 1346              		.loc 5 50 0
 1347 0622 48C74598 		movq	$_ZN12_GLOBAL__N_14txt2E, -104(%rbp)
 1347      00000000 
  51:TestChecks.cpp ****     TestResults results;
 1348              		.loc 5 51 0
 1349 062a 488D45A0 		leaq	-96(%rbp), %rax
 1350 062e BE000000 		movl	$0, %esi
 1350      00
 1351 0633 4889C7   		movq	%rax, %rdi
 1352              	.LEHB24:
 1353 0636 E8000000 		call	_ZN8UnitTest11TestResultsC1EPNS_12TestReporterE
 1353      00
  52:TestChecks.cpp ****     CheckEqual(results, p1, p2, TestDetails("", "", "", 0));
 1354              		.loc 5 52 0
 1355 063b 488D45C0 		leaq	-64(%rbp), %rax
 1356 063f 41B80000 		movl	$0, %r8d
 1356      0000
 1357 0645 B9000000 		movl	$.LC6, %ecx
 1357      00
 1358 064a BA000000 		movl	$.LC6, %edx
 1358      00
 1359 064f BE000000 		movl	$.LC6, %esi
 1359      00
 1360 0654 4889C7   		movq	%rax, %rdi
 1361 0657 E8000000 		call	_ZN8UnitTest11TestDetailsC1EPKcS2_S2_i
 1361      00
 1362 065c 488D55C0 		leaq	-64(%rbp), %rdx
 1363 0660 488D45A0 		leaq	-96(%rbp), %rax
 1364 0664 4889D1   		movq	%rdx, %rcx
 1365 0667 BA000000 		movl	$_ZN12_GLOBAL__N_14txt2E, %edx
 1365      00
 1366 066c BE000000 		movl	$_ZN12_GLOBAL__N_14txt1E, %esi
 1366      00
 1367 0671 4889C7   		movq	%rax, %rdi
 1368 0674 E8000000 		call	_ZN8UnitTest10CheckEqualERNS_11TestResultsEPcPKcRKNS_11TestDetailsE
 1368      00
 1369              	.LEHE24:
 1370              	.LEHB25:
  53:TestChecks.cpp ****     CHECK_EQUAL(0, results.GetFailureCount());
 1371              		.loc 5 53 0
 1372 0679 E8000000 		call	_ZN8UnitTest11CurrentTest7DetailsEv
 1372      00
 1373 067e 488B08   		movq	(%rax), %rcx
 1374 0681 488D45C0 		leaq	-64(%rbp), %rax
 1375 0685 BA350000 		movl	$53, %edx
 1375      00
 1376 068a 4889CE   		movq	%rcx, %rsi
 1377 068d 4889C7   		movq	%rax, %rdi
 1378 0690 E8000000 		call	_ZN8UnitTest11TestDetailsC1ERKS0_i
 1378      00
 1379              		.loc 5 53 0 is_stmt 0 discriminator 2
 1380 0695 488D45A0 		leaq	-96(%rbp), %rax
 1381 0699 4889C7   		movq	%rax, %rdi
 1382 069c E8000000 		call	_ZNK8UnitTest11TestResults15GetFailureCountEv
 1382      00
 1383 06a1 89458C   		movl	%eax, -116(%rbp)
 1384 06a4 C7458800 		movl	$0, -120(%rbp)
 1384      000000
 1385 06ab E8000000 		call	_ZN8UnitTest11CurrentTest7ResultsEv
 1385      00
 1386              		.loc 5 53 0 discriminator 4
 1387 06b0 488B00   		movq	(%rax), %rax
 1388 06b3 488D4DC0 		leaq	-64(%rbp), %rcx
 1389 06b7 488D558C 		leaq	-116(%rbp), %rdx
 1390 06bb 488D7588 		leaq	-120(%rbp), %rsi
 1391 06bf 4889C7   		movq	%rax, %rdi
 1392 06c2 E8000000 		call	_ZN8UnitTest10CheckEqualIiiEEvRNS_11TestResultsERKT_RKT0_RKNS_11TestDetailsE
 1392      00
 1393              	.LEHE25:
 1394              	.LBE22:
  54:TestChecks.cpp **** }
 1395              		.loc 5 54 0 is_stmt 1
 1396 06c7 EB58     		jmp	.L59
 1397              	.L58:
 1398 06c9 4889C3   		movq	%rax, %rbx
 1399              	.LBB23:
  53:TestChecks.cpp ****     CHECK_EQUAL(0, results.GetFailureCount());
 1400              		.loc 5 53 0
 1401 06cc E8000000 		call	__cxa_end_catch
 1401      00
 1402 06d1 4889D8   		movq	%rbx, %rax
 1403 06d4 4889C7   		movq	%rax, %rdi
 1404              	.LEHB26:
 1405 06d7 E8000000 		call	_Unwind_Resume
 1405      00
 1406              	.LEHE26:
 1407              	.L57:
 1408 06dc 4889C7   		movq	%rax, %rdi
 1409 06df E8000000 		call	__cxa_begin_catch
 1409      00
 1410              	.LEHB27:
 1411 06e4 E8000000 		call	_ZN8UnitTest11CurrentTest7DetailsEv
 1411      00
 1412 06e9 488B08   		movq	(%rax), %rcx
 1413 06ec 488D45C0 		leaq	-64(%rbp), %rax
 1414 06f0 BA350000 		movl	$53, %edx
 1414      00
 1415 06f5 4889CE   		movq	%rcx, %rsi
 1416 06f8 4889C7   		movq	%rax, %rdi
 1417 06fb E8000000 		call	_ZN8UnitTest11TestDetailsC1ERKS0_i
 1417      00
  53:TestChecks.cpp ****     CHECK_EQUAL(0, results.GetFailureCount());
 1418              		.loc 5 53 0 is_stmt 0 discriminator 12
 1419 0700 E8000000 		call	_ZN8UnitTest11CurrentTest7ResultsEv
 1419      00
 1420 0705 488B00   		movq	(%rax), %rax
 1421 0708 488D4DC0 		leaq	-64(%rbp), %rcx
 1422 070c BA000000 		movl	$.LC9, %edx
 1422      00
 1423 0711 4889CE   		movq	%rcx, %rsi
 1424 0714 4889C7   		movq	%rax, %rdi
 1425 0717 E8000000 		call	_ZN8UnitTest11TestResults13OnTestFailureERKNS_11TestDetailsEPKc
 1425      00
 1426              	.LEHE27:
 1427              	.LEHB28:
  53:TestChecks.cpp ****     CHECK_EQUAL(0, results.GetFailureCount());
 1428              		.loc 5 53 0 discriminator 16
 1429 071c E8000000 		call	__cxa_end_catch
 1429      00
 1430              	.LEHE28:
 1431              	.L59:
 1432              	.LBE23:
 1433              		.loc 5 54 0 is_stmt 1
 1434 0721 90       		nop
 1435 0722 488B45E8 		movq	-24(%rbp), %rax
 1436 0726 64483304 		xorq	%fs:40, %rax
 1436      25280000 
 1436      00
 1437 072f 7405     		je	.L56
 1438 0731 E8000000 		call	__stack_chk_fail
 1438      00
 1439              	.L56:
 1440 0736 4881C488 		addq	$136, %rsp
 1440      000000
 1441 073d 5B       		popq	%rbx
 1442 073e 5D       		popq	%rbp
 1443              		.cfi_def_cfa 7, 8
 1444 073f C3       		ret
 1445              		.cfi_endproc
 1446              	.LFE1094:
 1447              		.section	.gcc_except_table
 1448              		.align 4
 1449              	.LLSDA1094:
 1450 009c FF       		.byte	0xff
 1451 009d 03       		.byte	0x3
 1452 009e 25       		.uleb128 .LLSDATT1094-.LLSDATTD1094
 1453              	.LLSDATTD1094:
 1454 009f 01       		.byte	0x1
 1455 00a0 1A       		.uleb128 .LLSDACSE1094-.LLSDACSB1094
 1456              	.LLSDACSB1094:
 1457 00a1 3E       		.uleb128 .LEHB24-.LFB1094
 1458 00a2 43       		.uleb128 .LEHE24-.LEHB24
 1459 00a3 00       		.uleb128 0
 1460 00a4 00       		.uleb128 0
 1461 00a5 8101     		.uleb128 .LEHB25-.LFB1094
 1462 00a7 4E       		.uleb128 .LEHE25-.LEHB25
 1463 00a8 E401     		.uleb128 .L57-.LFB1094
 1464 00aa 01       		.uleb128 0x1
 1465 00ab DF01     		.uleb128 .LEHB26-.LFB1094
 1466 00ad 05       		.uleb128 .LEHE26-.LEHB26
 1467 00ae 00       		.uleb128 0
 1468 00af 00       		.uleb128 0
 1469 00b0 EC01     		.uleb128 .LEHB27-.LFB1094
 1470 00b2 38       		.uleb128 .LEHE27-.LEHB27
 1471 00b3 D101     		.uleb128 .L58-.LFB1094
 1472 00b5 00       		.uleb128 0
 1473 00b6 A402     		.uleb128 .LEHB28-.LFB1094
 1474 00b8 05       		.uleb128 .LEHE28-.LEHB28
 1475 00b9 00       		.uleb128 0
 1476 00ba 00       		.uleb128 0
 1477              	.LLSDACSE1094:
 1478 00bb 01       		.byte	0x1
 1479 00bc 00       		.byte	0
 1480 00bd 000000   		.align 4
 1481 00c0 00000000 		.long	0
 1482              	
 1483              	.LLSDATT1094:
 1484              		.text
 1486              		.section	.rodata
 1487 01d3 00000000 		.align 8
 1487      00
 1488              	.LC12:
 1489 01d8 43686563 		.string	"CheckEqualsWithStringsWorksOnContentsConstNonConst"
 1489      6B457175 
 1489      616C7357 
 1489      69746853 
 1489      7472696E 
 1490              		.text
 1491              		.align 2
 1493              	_ZN12_GLOBAL__N_154TestCheckEqualsWithStringsWorksOnContentsConstNonConstC2Ev:
 1494              	.LFB1096:
  55:TestChecks.cpp **** 
  56:TestChecks.cpp **** TEST(CheckEqualsWithStringsWorksOnContentsConstNonConst)
 1495              		.loc 5 56 0
 1496              		.cfi_startproc
 1497 0740 55       		pushq	%rbp
 1498              		.cfi_def_cfa_offset 16
 1499              		.cfi_offset 6, -16
 1500 0741 4889E5   		movq	%rsp, %rbp
 1501              		.cfi_def_cfa_register 6
 1502 0744 4883EC10 		subq	$16, %rsp
 1503 0748 48897DF8 		movq	%rdi, -8(%rbp)
 1504              	.LBB24:
 1505              		.loc 5 56 0
 1506 074c E8000000 		call	_ZN13UnitTestSuite12GetSuiteNameEv
 1506      00
 1507 0751 4889C2   		movq	%rax, %rdx
 1508 0754 488B45F8 		movq	-8(%rbp), %rax
 1509 0758 41B83800 		movl	$56, %r8d
 1509      0000
 1510 075e B9000000 		movl	$.LC2, %ecx
 1510      00
 1511 0763 BE000000 		movl	$.LC12, %esi
 1511      00
 1512 0768 4889C7   		movq	%rax, %rdi
 1513 076b E8000000 		call	_ZN8UnitTest4TestC2EPKcS2_S2_i
 1513      00
 1514 0770 488B45F8 		movq	-8(%rbp), %rax
 1515 0774 48C70000 		movq	$_ZTVN12_GLOBAL__N_154TestCheckEqualsWithStringsWorksOnContentsConstNonConstE+16, (%rax)
 1515      000000
 1516              	.LBE24:
 1517 077b C9       		leave
 1518              		.cfi_def_cfa 7, 8
 1519 077c C3       		ret
 1520              		.cfi_endproc
 1521              	.LFE1096:
 1523              		.local	_ZN12_GLOBAL__N_162testCheckEqualsWithStringsWorksOnContentsConstNonConstInstanceE
 1524              		.comm	_ZN12_GLOBAL__N_162testCheckEqualsWithStringsWorksOnContentsConstNonConstInstanceE,56,32
 1525              		.local	_ZN12_GLOBAL__N_155adderCheckEqualsWithStringsWorksOnContentsConstNonConstE
 1526              		.comm	_ZN12_GLOBAL__N_155adderCheckEqualsWithStringsWorksOnContentsConstNonConstE,1,1
 1527 077d 90       		.align 2
 1529              	_ZNK12_GLOBAL__N_154TestCheckEqualsWithStringsWorksOnContentsConstNonConst7RunImplEv:
 1530              	.LFB1098:
  57:TestChecks.cpp **** {
 1531              		.loc 5 57 0
 1532              		.cfi_startproc
 1533              		.cfi_personality 0x3,__gxx_personality_v0
 1534              		.cfi_lsda 0x3,.LLSDA1098
 1535 077e 55       		pushq	%rbp
 1536              		.cfi_def_cfa_offset 16
 1537              		.cfi_offset 6, -16
 1538 077f 4889E5   		movq	%rsp, %rbp
 1539              		.cfi_def_cfa_register 6
 1540 0782 53       		pushq	%rbx
 1541 0783 4881EC88 		subq	$136, %rsp
 1541      000000
 1542              		.cfi_offset 3, -24
 1543 078a 4889BD78 		movq	%rdi, -136(%rbp)
 1543      FFFFFF
 1544              		.loc 5 57 0
 1545 0791 64488B04 		movq	%fs:40, %rax
 1545      25280000 
 1545      00
 1546 079a 488945E8 		movq	%rax, -24(%rbp)
 1547 079e 31C0     		xorl	%eax, %eax
 1548              	.LBB25:
  58:TestChecks.cpp ****     char const* const p1 = txt1;
 1549              		.loc 5 58 0
 1550 07a0 48C74590 		movq	$_ZN12_GLOBAL__N_14txt1E, -112(%rbp)
 1550      00000000 
  59:TestChecks.cpp ****     char* const p2 = txt2;
 1551              		.loc 5 59 0
 1552 07a8 48C74598 		movq	$_ZN12_GLOBAL__N_14txt2E, -104(%rbp)
 1552      00000000 
  60:TestChecks.cpp ****     TestResults results;
 1553              		.loc 5 60 0
 1554 07b0 488D45A0 		leaq	-96(%rbp), %rax
 1555 07b4 BE000000 		movl	$0, %esi
 1555      00
 1556 07b9 4889C7   		movq	%rax, %rdi
 1557              	.LEHB29:
 1558 07bc E8000000 		call	_ZN8UnitTest11TestResultsC1EPNS_12TestReporterE
 1558      00
  61:TestChecks.cpp ****     CheckEqual(results, p1, p2, TestDetails("", "", "", 0));
 1559              		.loc 5 61 0
 1560 07c1 488D45C0 		leaq	-64(%rbp), %rax
 1561 07c5 41B80000 		movl	$0, %r8d
 1561      0000
 1562 07cb B9000000 		movl	$.LC6, %ecx
 1562      00
 1563 07d0 BA000000 		movl	$.LC6, %edx
 1563      00
 1564 07d5 BE000000 		movl	$.LC6, %esi
 1564      00
 1565 07da 4889C7   		movq	%rax, %rdi
 1566 07dd E8000000 		call	_ZN8UnitTest11TestDetailsC1EPKcS2_S2_i
 1566      00
 1567 07e2 488D55C0 		leaq	-64(%rbp), %rdx
 1568 07e6 488D45A0 		leaq	-96(%rbp), %rax
 1569 07ea 4889D1   		movq	%rdx, %rcx
 1570 07ed BA000000 		movl	$_ZN12_GLOBAL__N_14txt2E, %edx
 1570      00
 1571 07f2 BE000000 		movl	$_ZN12_GLOBAL__N_14txt1E, %esi
 1571      00
 1572 07f7 4889C7   		movq	%rax, %rdi
 1573 07fa E8000000 		call	_ZN8UnitTest10CheckEqualERNS_11TestResultsEPKcPcRKNS_11TestDetailsE
 1573      00
 1574              	.LEHE29:
 1575              	.LEHB30:
  62:TestChecks.cpp ****     CHECK_EQUAL(0, results.GetFailureCount());
 1576              		.loc 5 62 0
 1577 07ff E8000000 		call	_ZN8UnitTest11CurrentTest7DetailsEv
 1577      00
 1578 0804 488B08   		movq	(%rax), %rcx
 1579 0807 488D45C0 		leaq	-64(%rbp), %rax
 1580 080b BA3E0000 		movl	$62, %edx
 1580      00
 1581 0810 4889CE   		movq	%rcx, %rsi
 1582 0813 4889C7   		movq	%rax, %rdi
 1583 0816 E8000000 		call	_ZN8UnitTest11TestDetailsC1ERKS0_i
 1583      00
 1584              		.loc 5 62 0 is_stmt 0 discriminator 2
 1585 081b 488D45A0 		leaq	-96(%rbp), %rax
 1586 081f 4889C7   		movq	%rax, %rdi
 1587 0822 E8000000 		call	_ZNK8UnitTest11TestResults15GetFailureCountEv
 1587      00
 1588 0827 89458C   		movl	%eax, -116(%rbp)
 1589 082a C7458800 		movl	$0, -120(%rbp)
 1589      000000
 1590 0831 E8000000 		call	_ZN8UnitTest11CurrentTest7ResultsEv
 1590      00
 1591              		.loc 5 62 0 discriminator 4
 1592 0836 488B00   		movq	(%rax), %rax
 1593 0839 488D4DC0 		leaq	-64(%rbp), %rcx
 1594 083d 488D558C 		leaq	-116(%rbp), %rdx
 1595 0841 488D7588 		leaq	-120(%rbp), %rsi
 1596 0845 4889C7   		movq	%rax, %rdi
 1597 0848 E8000000 		call	_ZN8UnitTest10CheckEqualIiiEEvRNS_11TestResultsERKT_RKT0_RKNS_11TestDetailsE
 1597      00
 1598              	.LEHE30:
 1599              	.LBE25:
  63:TestChecks.cpp **** }
 1600              		.loc 5 63 0 is_stmt 1
 1601 084d EB58     		jmp	.L68
 1602              	.L67:
 1603 084f 4889C3   		movq	%rax, %rbx
 1604              	.LBB26:
  62:TestChecks.cpp ****     CHECK_EQUAL(0, results.GetFailureCount());
 1605              		.loc 5 62 0
 1606 0852 E8000000 		call	__cxa_end_catch
 1606      00
 1607 0857 4889D8   		movq	%rbx, %rax
 1608 085a 4889C7   		movq	%rax, %rdi
 1609              	.LEHB31:
 1610 085d E8000000 		call	_Unwind_Resume
 1610      00
 1611              	.LEHE31:
 1612              	.L66:
 1613 0862 4889C7   		movq	%rax, %rdi
 1614 0865 E8000000 		call	__cxa_begin_catch
 1614      00
 1615              	.LEHB32:
 1616 086a E8000000 		call	_ZN8UnitTest11CurrentTest7DetailsEv
 1616      00
 1617 086f 488B08   		movq	(%rax), %rcx
 1618 0872 488D45C0 		leaq	-64(%rbp), %rax
 1619 0876 BA3E0000 		movl	$62, %edx
 1619      00
 1620 087b 4889CE   		movq	%rcx, %rsi
 1621 087e 4889C7   		movq	%rax, %rdi
 1622 0881 E8000000 		call	_ZN8UnitTest11TestDetailsC1ERKS0_i
 1622      00
  62:TestChecks.cpp ****     CHECK_EQUAL(0, results.GetFailureCount());
 1623              		.loc 5 62 0 is_stmt 0 discriminator 12
 1624 0886 E8000000 		call	_ZN8UnitTest11CurrentTest7ResultsEv
 1624      00
 1625 088b 488B00   		movq	(%rax), %rax
 1626 088e 488D4DC0 		leaq	-64(%rbp), %rcx
 1627 0892 BA000000 		movl	$.LC9, %edx
 1627      00
 1628 0897 4889CE   		movq	%rcx, %rsi
 1629 089a 4889C7   		movq	%rax, %rdi
 1630 089d E8000000 		call	_ZN8UnitTest11TestResults13OnTestFailureERKNS_11TestDetailsEPKc
 1630      00
 1631              	.LEHE32:
 1632              	.LEHB33:
  62:TestChecks.cpp ****     CHECK_EQUAL(0, results.GetFailureCount());
 1633              		.loc 5 62 0 discriminator 16
 1634 08a2 E8000000 		call	__cxa_end_catch
 1634      00
 1635              	.LEHE33:
 1636              	.L68:
 1637              	.LBE26:
 1638              		.loc 5 63 0 is_stmt 1
 1639 08a7 90       		nop
 1640 08a8 488B45E8 		movq	-24(%rbp), %rax
 1641 08ac 64483304 		xorq	%fs:40, %rax
 1641      25280000 
 1641      00
 1642 08b5 7405     		je	.L65
 1643 08b7 E8000000 		call	__stack_chk_fail
 1643      00
 1644              	.L65:
 1645 08bc 4881C488 		addq	$136, %rsp
 1645      000000
 1646 08c3 5B       		popq	%rbx
 1647 08c4 5D       		popq	%rbp
 1648              		.cfi_def_cfa 7, 8
 1649 08c5 C3       		ret
 1650              		.cfi_endproc
 1651              	.LFE1098:
 1652              		.section	.gcc_except_table
 1653              		.align 4
 1654              	.LLSDA1098:
 1655 00c4 FF       		.byte	0xff
 1656 00c5 03       		.byte	0x3
 1657 00c6 25       		.uleb128 .LLSDATT1098-.LLSDATTD1098
 1658              	.LLSDATTD1098:
 1659 00c7 01       		.byte	0x1
 1660 00c8 1A       		.uleb128 .LLSDACSE1098-.LLSDACSB1098
 1661              	.LLSDACSB1098:
 1662 00c9 3E       		.uleb128 .LEHB29-.LFB1098
 1663 00ca 43       		.uleb128 .LEHE29-.LEHB29
 1664 00cb 00       		.uleb128 0
 1665 00cc 00       		.uleb128 0
 1666 00cd 8101     		.uleb128 .LEHB30-.LFB1098
 1667 00cf 4E       		.uleb128 .LEHE30-.LEHB30
 1668 00d0 E401     		.uleb128 .L66-.LFB1098
 1669 00d2 01       		.uleb128 0x1
 1670 00d3 DF01     		.uleb128 .LEHB31-.LFB1098
 1671 00d5 05       		.uleb128 .LEHE31-.LEHB31
 1672 00d6 00       		.uleb128 0
 1673 00d7 00       		.uleb128 0
 1674 00d8 EC01     		.uleb128 .LEHB32-.LFB1098
 1675 00da 38       		.uleb128 .LEHE32-.LEHB32
 1676 00db D101     		.uleb128 .L67-.LFB1098
 1677 00dd 00       		.uleb128 0
 1678 00de A402     		.uleb128 .LEHB33-.LFB1098
 1679 00e0 05       		.uleb128 .LEHE33-.LEHB33
 1680 00e1 00       		.uleb128 0
 1681 00e2 00       		.uleb128 0
 1682              	.LLSDACSE1098:
 1683 00e3 01       		.byte	0x1
 1684 00e4 00       		.byte	0
 1685 00e5 000000   		.align 4
 1686 00e8 00000000 		.long	0
 1687              	
 1688              	.LLSDATT1098:
 1689              		.text
 1691              		.section	.rodata
 1692 020b 00000000 		.align 8
 1692      00
 1693              	.LC13:
 1694 0210 43686563 		.string	"CheckEqualsWithStringsWorksOnContentsWithALiteral"
 1694      6B457175 
 1694      616C7357 
 1694      69746853 
 1694      7472696E 
 1695              		.text
 1696              		.align 2
 1698              	_ZN12_GLOBAL__N_153TestCheckEqualsWithStringsWorksOnContentsWithALiteralC2Ev:
 1699              	.LFB1100:
  64:TestChecks.cpp **** 
  65:TestChecks.cpp **** TEST(CheckEqualsWithStringsWorksOnContentsWithALiteral)
 1700              		.loc 5 65 0
 1701              		.cfi_startproc
 1702 08c6 55       		pushq	%rbp
 1703              		.cfi_def_cfa_offset 16
 1704              		.cfi_offset 6, -16
 1705 08c7 4889E5   		movq	%rsp, %rbp
 1706              		.cfi_def_cfa_register 6
 1707 08ca 4883EC10 		subq	$16, %rsp
 1708 08ce 48897DF8 		movq	%rdi, -8(%rbp)
 1709              	.LBB27:
 1710              		.loc 5 65 0
 1711 08d2 E8000000 		call	_ZN13UnitTestSuite12GetSuiteNameEv
 1711      00
 1712 08d7 4889C2   		movq	%rax, %rdx
 1713 08da 488B45F8 		movq	-8(%rbp), %rax
 1714 08de 41B84100 		movl	$65, %r8d
 1714      0000
 1715 08e4 B9000000 		movl	$.LC2, %ecx
 1715      00
 1716 08e9 BE000000 		movl	$.LC13, %esi
 1716      00
 1717 08ee 4889C7   		movq	%rax, %rdi
 1718 08f1 E8000000 		call	_ZN8UnitTest4TestC2EPKcS2_S2_i
 1718      00
 1719 08f6 488B45F8 		movq	-8(%rbp), %rax
 1720 08fa 48C70000 		movq	$_ZTVN12_GLOBAL__N_153TestCheckEqualsWithStringsWorksOnContentsWithALiteralE+16, (%rax)
 1720      000000
 1721              	.LBE27:
 1722 0901 C9       		leave
 1723              		.cfi_def_cfa 7, 8
 1724 0902 C3       		ret
 1725              		.cfi_endproc
 1726              	.LFE1100:
 1728              		.local	_ZN12_GLOBAL__N_161testCheckEqualsWithStringsWorksOnContentsWithALiteralInstanceE
 1729              		.comm	_ZN12_GLOBAL__N_161testCheckEqualsWithStringsWorksOnContentsWithALiteralInstanceE,56,32
 1730              		.local	_ZN12_GLOBAL__N_154adderCheckEqualsWithStringsWorksOnContentsWithALiteralE
 1731              		.comm	_ZN12_GLOBAL__N_154adderCheckEqualsWithStringsWorksOnContentsWithALiteralE,1,1
 1732              		.section	.rodata
 1733              	.LC14:
 1734 0242 48656C6C 		.string	"Hello"
 1734      6F00
 1735              		.text
 1736 0903 90       		.align 2
 1738              	_ZNK12_GLOBAL__N_153TestCheckEqualsWithStringsWorksOnContentsWithALiteral7RunImplEv:
 1739              	.LFB1102:
  66:TestChecks.cpp **** {
 1740              		.loc 5 66 0
 1741              		.cfi_startproc
 1742              		.cfi_personality 0x3,__gxx_personality_v0
 1743              		.cfi_lsda 0x3,.LLSDA1102
 1744 0904 55       		pushq	%rbp
 1745              		.cfi_def_cfa_offset 16
 1746              		.cfi_offset 6, -16
 1747 0905 4889E5   		movq	%rsp, %rbp
 1748              		.cfi_def_cfa_register 6
 1749 0908 53       		pushq	%rbx
 1750 0909 4883EC78 		subq	$120, %rsp
 1751              		.cfi_offset 3, -24
 1752 090d 48897D88 		movq	%rdi, -120(%rbp)
 1753              		.loc 5 66 0
 1754 0911 64488B04 		movq	%fs:40, %rax
 1754      25280000 
 1754      00
 1755 091a 488945E8 		movq	%rax, -24(%rbp)
 1756 091e 31C0     		xorl	%eax, %eax
 1757              	.LBB28:
  67:TestChecks.cpp ****     char const* const p1 = txt1;
 1758              		.loc 5 67 0
 1759 0920 48C74598 		movq	$_ZN12_GLOBAL__N_14txt1E, -104(%rbp)
 1759      00000000 
  68:TestChecks.cpp ****     TestResults results;
 1760              		.loc 5 68 0
 1761 0928 488D45A0 		leaq	-96(%rbp), %rax
 1762 092c BE000000 		movl	$0, %esi
 1762      00
 1763 0931 4889C7   		movq	%rax, %rdi
 1764              	.LEHB34:
 1765 0934 E8000000 		call	_ZN8UnitTest11TestResultsC1EPNS_12TestReporterE
 1765      00
  69:TestChecks.cpp ****     CheckEqual(results, "Hello", p1, TestDetails("", "", "", 0));
 1766              		.loc 5 69 0
 1767 0939 488D45C0 		leaq	-64(%rbp), %rax
 1768 093d 41B80000 		movl	$0, %r8d
 1768      0000
 1769 0943 B9000000 		movl	$.LC6, %ecx
 1769      00
 1770 0948 BA000000 		movl	$.LC6, %edx
 1770      00
 1771 094d BE000000 		movl	$.LC6, %esi
 1771      00
 1772 0952 4889C7   		movq	%rax, %rdi
 1773 0955 E8000000 		call	_ZN8UnitTest11TestDetailsC1EPKcS2_S2_i
 1773      00
 1774 095a 488D55C0 		leaq	-64(%rbp), %rdx
 1775 095e 488D45A0 		leaq	-96(%rbp), %rax
 1776 0962 4889D1   		movq	%rdx, %rcx
 1777 0965 BA000000 		movl	$_ZN12_GLOBAL__N_14txt1E, %edx
 1777      00
 1778 096a BE000000 		movl	$.LC14, %esi
 1778      00
 1779 096f 4889C7   		movq	%rax, %rdi
 1780 0972 E8000000 		call	_ZN8UnitTest10CheckEqualERNS_11TestResultsEPKcS3_RKNS_11TestDetailsE
 1780      00
 1781              	.LEHE34:
 1782              	.LEHB35:
  70:TestChecks.cpp ****     CHECK_EQUAL(0, results.GetFailureCount());
 1783              		.loc 5 70 0
 1784 0977 E8000000 		call	_ZN8UnitTest11CurrentTest7DetailsEv
 1784      00
 1785 097c 488B08   		movq	(%rax), %rcx
 1786 097f 488D45C0 		leaq	-64(%rbp), %rax
 1787 0983 BA460000 		movl	$70, %edx
 1787      00
 1788 0988 4889CE   		movq	%rcx, %rsi
 1789 098b 4889C7   		movq	%rax, %rdi
 1790 098e E8000000 		call	_ZN8UnitTest11TestDetailsC1ERKS0_i
 1790      00
 1791              		.loc 5 70 0 is_stmt 0 discriminator 2
 1792 0993 488D45A0 		leaq	-96(%rbp), %rax
 1793 0997 4889C7   		movq	%rax, %rdi
 1794 099a E8000000 		call	_ZNK8UnitTest11TestResults15GetFailureCountEv
 1794      00
 1795 099f 894594   		movl	%eax, -108(%rbp)
 1796 09a2 C7459000 		movl	$0, -112(%rbp)
 1796      000000
 1797 09a9 E8000000 		call	_ZN8UnitTest11CurrentTest7ResultsEv
 1797      00
 1798              		.loc 5 70 0 discriminator 4
 1799 09ae 488B00   		movq	(%rax), %rax
 1800 09b1 488D4DC0 		leaq	-64(%rbp), %rcx
 1801 09b5 488D5594 		leaq	-108(%rbp), %rdx
 1802 09b9 488D7590 		leaq	-112(%rbp), %rsi
 1803 09bd 4889C7   		movq	%rax, %rdi
 1804 09c0 E8000000 		call	_ZN8UnitTest10CheckEqualIiiEEvRNS_11TestResultsERKT_RKT0_RKNS_11TestDetailsE
 1804      00
 1805              	.LEHE35:
 1806              	.LBE28:
  71:TestChecks.cpp **** }
 1807              		.loc 5 71 0 is_stmt 1
 1808 09c5 EB58     		jmp	.L77
 1809              	.L76:
 1810 09c7 4889C3   		movq	%rax, %rbx
 1811              	.LBB29:
  70:TestChecks.cpp ****     CHECK_EQUAL(0, results.GetFailureCount());
 1812              		.loc 5 70 0
 1813 09ca E8000000 		call	__cxa_end_catch
 1813      00
 1814 09cf 4889D8   		movq	%rbx, %rax
 1815 09d2 4889C7   		movq	%rax, %rdi
 1816              	.LEHB36:
 1817 09d5 E8000000 		call	_Unwind_Resume
 1817      00
 1818              	.LEHE36:
 1819              	.L75:
 1820 09da 4889C7   		movq	%rax, %rdi
 1821 09dd E8000000 		call	__cxa_begin_catch
 1821      00
 1822              	.LEHB37:
 1823 09e2 E8000000 		call	_ZN8UnitTest11CurrentTest7DetailsEv
 1823      00
 1824 09e7 488B08   		movq	(%rax), %rcx
 1825 09ea 488D45C0 		leaq	-64(%rbp), %rax
 1826 09ee BA460000 		movl	$70, %edx
 1826      00
 1827 09f3 4889CE   		movq	%rcx, %rsi
 1828 09f6 4889C7   		movq	%rax, %rdi
 1829 09f9 E8000000 		call	_ZN8UnitTest11TestDetailsC1ERKS0_i
 1829      00
  70:TestChecks.cpp ****     CHECK_EQUAL(0, results.GetFailureCount());
 1830              		.loc 5 70 0 is_stmt 0 discriminator 12
 1831 09fe E8000000 		call	_ZN8UnitTest11CurrentTest7ResultsEv
 1831      00
 1832 0a03 488B00   		movq	(%rax), %rax
 1833 0a06 488D4DC0 		leaq	-64(%rbp), %rcx
 1834 0a0a BA000000 		movl	$.LC9, %edx
 1834      00
 1835 0a0f 4889CE   		movq	%rcx, %rsi
 1836 0a12 4889C7   		movq	%rax, %rdi
 1837 0a15 E8000000 		call	_ZN8UnitTest11TestResults13OnTestFailureERKNS_11TestDetailsEPKc
 1837      00
 1838              	.LEHE37:
 1839              	.LEHB38:
  70:TestChecks.cpp ****     CHECK_EQUAL(0, results.GetFailureCount());
 1840              		.loc 5 70 0 discriminator 16
 1841 0a1a E8000000 		call	__cxa_end_catch
 1841      00
 1842              	.LEHE38:
 1843              	.L77:
 1844              	.LBE29:
 1845              		.loc 5 71 0 is_stmt 1
 1846 0a1f 90       		nop
 1847 0a20 488B45E8 		movq	-24(%rbp), %rax
 1848 0a24 64483304 		xorq	%fs:40, %rax
 1848      25280000 
 1848      00
 1849 0a2d 7405     		je	.L74
 1850 0a2f E8000000 		call	__stack_chk_fail
 1850      00
 1851              	.L74:
 1852 0a34 4883C478 		addq	$120, %rsp
 1853 0a38 5B       		popq	%rbx
 1854 0a39 5D       		popq	%rbp
 1855              		.cfi_def_cfa 7, 8
 1856 0a3a C3       		ret
 1857              		.cfi_endproc
 1858              	.LFE1102:
 1859              		.section	.gcc_except_table
 1860              		.align 4
 1861              	.LLSDA1102:
 1862 00ec FF       		.byte	0xff
 1863 00ed 03       		.byte	0x3
 1864 00ee 21       		.uleb128 .LLSDATT1102-.LLSDATTD1102
 1865              	.LLSDATTD1102:
 1866 00ef 01       		.byte	0x1
 1867 00f0 19       		.uleb128 .LLSDACSE1102-.LLSDACSB1102
 1868              	.LLSDACSB1102:
 1869 00f1 30       		.uleb128 .LEHB34-.LFB1102
 1870 00f2 43       		.uleb128 .LEHE34-.LEHB34
 1871 00f3 00       		.uleb128 0
 1872 00f4 00       		.uleb128 0
 1873 00f5 73       		.uleb128 .LEHB35-.LFB1102
 1874 00f6 4E       		.uleb128 .LEHE35-.LEHB35
 1875 00f7 D601     		.uleb128 .L75-.LFB1102
 1876 00f9 01       		.uleb128 0x1
 1877 00fa D101     		.uleb128 .LEHB36-.LFB1102
 1878 00fc 05       		.uleb128 .LEHE36-.LEHB36
 1879 00fd 00       		.uleb128 0
 1880 00fe 00       		.uleb128 0
 1881 00ff DE01     		.uleb128 .LEHB37-.LFB1102
 1882 0101 38       		.uleb128 .LEHE37-.LEHB37
 1883 0102 C301     		.uleb128 .L76-.LFB1102
 1884 0104 00       		.uleb128 0
 1885 0105 9602     		.uleb128 .LEHB38-.LFB1102
 1886 0107 05       		.uleb128 .LEHE38-.LEHB38
 1887 0108 00       		.uleb128 0
 1888 0109 00       		.uleb128 0
 1889              	.LLSDACSE1102:
 1890 010a 01       		.byte	0x1
 1891 010b 00       		.byte	0
 1892              		.align 4
 1893 010c 00000000 		.long	0
 1894              	
 1895              	.LLSDATT1102:
 1896              		.text
 1898              		.section	.rodata
 1899              		.align 8
 1900              	.LC15:
 1901 0248 43686563 		.string	"CheckEqualFailureIncludesCheckExpectedAndActual"
 1901      6B457175 
 1901      616C4661 
 1901      696C7572 
 1901      65496E63 
 1902              		.text
 1903 0a3b 90       		.align 2
 1905              	_ZN12_GLOBAL__N_151TestCheckEqualFailureIncludesCheckExpectedAndActualC2Ev:
 1906              	.LFB1104:
  72:TestChecks.cpp **** 
  73:TestChecks.cpp **** TEST(CheckEqualFailureIncludesCheckExpectedAndActual)
 1907              		.loc 5 73 0
 1908              		.cfi_startproc
 1909 0a3c 55       		pushq	%rbp
 1910              		.cfi_def_cfa_offset 16
 1911              		.cfi_offset 6, -16
 1912 0a3d 4889E5   		movq	%rsp, %rbp
 1913              		.cfi_def_cfa_register 6
 1914 0a40 4883EC10 		subq	$16, %rsp
 1915 0a44 48897DF8 		movq	%rdi, -8(%rbp)
 1916              	.LBB30:
 1917              		.loc 5 73 0
 1918 0a48 E8000000 		call	_ZN13UnitTestSuite12GetSuiteNameEv
 1918      00
 1919 0a4d 4889C2   		movq	%rax, %rdx
 1920 0a50 488B45F8 		movq	-8(%rbp), %rax
 1921 0a54 41B84900 		movl	$73, %r8d
 1921      0000
 1922 0a5a B9000000 		movl	$.LC2, %ecx
 1922      00
 1923 0a5f BE000000 		movl	$.LC15, %esi
 1923      00
 1924 0a64 4889C7   		movq	%rax, %rdi
 1925 0a67 E8000000 		call	_ZN8UnitTest4TestC2EPKcS2_S2_i
 1925      00
 1926 0a6c 488B45F8 		movq	-8(%rbp), %rax
 1927 0a70 48C70000 		movq	$_ZTVN12_GLOBAL__N_151TestCheckEqualFailureIncludesCheckExpectedAndActualE+16, (%rax)
 1927      000000
 1928              	.LBE30:
 1929 0a77 C9       		leave
 1930              		.cfi_def_cfa 7, 8
 1931 0a78 C3       		ret
 1932              		.cfi_endproc
 1933              	.LFE1104:
 1935              		.local	_ZN12_GLOBAL__N_159testCheckEqualFailureIncludesCheckExpectedAndActualInstanceE
 1936              		.comm	_ZN12_GLOBAL__N_159testCheckEqualFailureIncludesCheckExpectedAndActualInstanceE,56,32
 1937              		.local	_ZN12_GLOBAL__N_152adderCheckEqualFailureIncludesCheckExpectedAndActualE
 1938              		.comm	_ZN12_GLOBAL__N_152adderCheckEqualFailureIncludesCheckExpectedAndActualE,1,1
 1939              		.section	.rodata
 1940              	.LC16:
 1941 0278 78706563 		.string	"xpected 1"
 1941      74656420 
 1941      3100
 1942 0282 00000000 		.align 8
 1942      0000
 1943              	.LC17:
 1944 0288 73747273 		.string	"strstr(reporter.lastFailedMessage, \"xpected 1\")"
 1944      74722872 
 1944      65706F72 
 1944      7465722E 
 1944      6C617374 
 1945              	.LC18:
 1946 02b8 77617320 		.string	"was 2"
 1946      3200
 1947 02be 0000     		.align 8
 1948              	.LC19:
 1949 02c0 73747273 		.string	"strstr(reporter.lastFailedMessage, \"was 2\")"
 1949      74722872 
 1949      65706F72 
 1949      7465722E 
 1949      6C617374 
 1950 02ec 00000000 		.align 8
 1951              	.LC20:
 1952 02f0 556E6861 		.string	"Unhandled exception in CHECK(strstr(reporter.lastFailedMessage, \"xpected 1\"))"
 1952      6E646C65 
 1952      64206578 
 1952      63657074 
 1952      696F6E20 
 1953 033e 0000     		.align 8
 1954              	.LC21:
 1955 0340 556E6861 		.string	"Unhandled exception in CHECK(strstr(reporter.lastFailedMessage, \"was 2\"))"
 1955      6E646C65 
 1955      64206578 
 1955      63657074 
 1955      696F6E20 
 1956              		.text
 1957 0a79 90       		.align 2
 1959              	_ZNK12_GLOBAL__N_151TestCheckEqualFailureIncludesCheckExpectedAndActual7RunImplEv:
 1960              	.LFB1106:
  74:TestChecks.cpp **** {
 1961              		.loc 5 74 0
 1962              		.cfi_startproc
 1963              		.cfi_personality 0x3,__gxx_personality_v0
 1964              		.cfi_lsda 0x3,.LLSDA1106
 1965 0a7a 55       		pushq	%rbp
 1966              		.cfi_def_cfa_offset 16
 1967              		.cfi_offset 6, -16
 1968 0a7b 4889E5   		movq	%rsp, %rbp
 1969              		.cfi_def_cfa_register 6
 1970 0a7e 53       		pushq	%rbx
 1971 0a7f 4881ECA8 		subq	$2216, %rsp
 1971      080000
 1972              		.cfi_offset 3, -24
 1973 0a86 4889BD58 		movq	%rdi, -2216(%rbp)
 1973      F7FFFF
 1974              		.loc 5 74 0
 1975 0a8d 64488B04 		movq	%fs:40, %rax
 1975      25280000 
 1975      00
 1976 0a96 488945E8 		movq	%rax, -24(%rbp)
 1977 0a9a 31C0     		xorl	%eax, %eax
 1978              	.LBB31:
  75:TestChecks.cpp ****     RecordingReporter reporter;
 1979              		.loc 5 75 0
 1980 0a9c 488D85B0 		leaq	-2128(%rbp), %rax
 1980      F7FFFF
 1981 0aa3 4889C7   		movq	%rax, %rdi
 1982 0aa6 E8000000 		call	_ZN17RecordingReporterC1Ev
 1982      00
  76:TestChecks.cpp ****     TestResults results(&reporter);
 1983              		.loc 5 76 0
 1984 0aab 488D95B0 		leaq	-2128(%rbp), %rdx
 1984      F7FFFF
 1985 0ab2 488D8570 		leaq	-2192(%rbp), %rax
 1985      F7FFFF
 1986 0ab9 4889D6   		movq	%rdx, %rsi
 1987 0abc 4889C7   		movq	%rax, %rdi
 1988              	.LEHB39:
 1989 0abf E8000000 		call	_ZN8UnitTest11TestResultsC1EPNS_12TestReporterE
 1989      00
  77:TestChecks.cpp ****     const int something = 2;
 1990              		.loc 5 77 0
 1991 0ac4 C78568F7 		movl	$2, -2200(%rbp)
 1991      FFFF0200 
 1991      0000
  78:TestChecks.cpp ****     CheckEqual(results, 1, something, TestDetails("", "", "", 0));
 1992              		.loc 5 78 0
 1993 0ace 488D8590 		leaq	-2160(%rbp), %rax
 1993      F7FFFF
 1994 0ad5 41B80000 		movl	$0, %r8d
 1994      0000
 1995 0adb B9000000 		movl	$.LC6, %ecx
 1995      00
 1996 0ae0 BA000000 		movl	$.LC6, %edx
 1996      00
 1997 0ae5 BE000000 		movl	$.LC6, %esi
 1997      00
 1998 0aea 4889C7   		movq	%rax, %rdi
 1999 0aed E8000000 		call	_ZN8UnitTest11TestDetailsC1EPKcS2_S2_i
 1999      00
 2000              		.loc 5 78 0 is_stmt 0 discriminator 1
 2001 0af2 C7856CF7 		movl	$1, -2196(%rbp)
 2001      FFFF0100 
 2001      0000
 2002 0afc 488D8D90 		leaq	-2160(%rbp), %rcx
 2002      F7FFFF
 2003 0b03 488D9568 		leaq	-2200(%rbp), %rdx
 2003      F7FFFF
 2004 0b0a 488DB56C 		leaq	-2196(%rbp), %rsi
 2004      F7FFFF
 2005 0b11 488D8570 		leaq	-2192(%rbp), %rax
 2005      F7FFFF
 2006 0b18 4889C7   		movq	%rax, %rdi
 2007 0b1b E8000000 		call	_ZN8UnitTest10CheckEqualIiiEEvRNS_11TestResultsERKT_RKT0_RKNS_11TestDetailsE
 2007      00
 2008              	.LEHE39:
  79:TestChecks.cpp **** 
  80:TestChecks.cpp **** 	using namespace std;
  81:TestChecks.cpp ****     CHECK(strstr(reporter.lastFailedMessage, "xpected 1"));
 2009              		.loc 5 81 0 is_stmt 1 discriminator 3
 2010 0b20 488D85B0 		leaq	-2128(%rbp), %rax
 2010      F7FFFF
 2011 0b27 48051405 		addq	$1300, %rax
 2011      0000
 2012 0b2d BE000000 		movl	$.LC16, %esi
 2012      00
 2013 0b32 4889C7   		movq	%rax, %rdi
 2014 0b35 E8000000 		call	strstr
 2014      00
 2015 0b3a 4889C7   		movq	%rax, %rdi
 2016 0b3d E8000000 		call	_ZN8UnitTest5CheckIPcEEbT_
 2016      00
 2017 0b42 83F001   		xorl	$1, %eax
 2018 0b45 84C0     		testb	%al, %al
 2019 0b47 743E     		je	.L80
 2020              	.LEHB40:
 2021              		.loc 5 81 0 is_stmt 0 discriminator 1
 2022 0b49 E8000000 		call	_ZN8UnitTest11CurrentTest7DetailsEv
 2022      00
 2023 0b4e 488B08   		movq	(%rax), %rcx
 2024 0b51 488D8590 		leaq	-2160(%rbp), %rax
 2024      F7FFFF
 2025 0b58 BA510000 		movl	$81, %edx
 2025      00
 2026 0b5d 4889CE   		movq	%rcx, %rsi
 2027 0b60 4889C7   		movq	%rax, %rdi
 2028 0b63 E8000000 		call	_ZN8UnitTest11TestDetailsC1ERKS0_i
 2028      00
 2029              		.loc 5 81 0 discriminator 3
 2030 0b68 E8000000 		call	_ZN8UnitTest11CurrentTest7ResultsEv
 2030      00
 2031 0b6d 488B00   		movq	(%rax), %rax
 2032 0b70 488D8D90 		leaq	-2160(%rbp), %rcx
 2032      F7FFFF
 2033 0b77 BA000000 		movl	$.LC17, %edx
 2033      00
 2034 0b7c 4889CE   		movq	%rcx, %rsi
 2035 0b7f 4889C7   		movq	%rax, %rdi
 2036 0b82 E8000000 		call	_ZN8UnitTest11TestResults13OnTestFailureERKNS_11TestDetailsEPKc
 2036      00
 2037              	.LEHE40:
 2038              	.L80:
  82:TestChecks.cpp ****     CHECK(strstr(reporter.lastFailedMessage, "was 2"));
 2039              		.loc 5 82 0 is_stmt 1
 2040 0b87 488D85B0 		leaq	-2128(%rbp), %rax
 2040      F7FFFF
 2041 0b8e 48051405 		addq	$1300, %rax
 2041      0000
 2042 0b94 BE000000 		movl	$.LC18, %esi
 2042      00
 2043 0b99 4889C7   		movq	%rax, %rdi
 2044 0b9c E8000000 		call	strstr
 2044      00
 2045 0ba1 4889C7   		movq	%rax, %rdi
 2046 0ba4 E8000000 		call	_ZN8UnitTest5CheckIPcEEbT_
 2046      00
 2047 0ba9 83F001   		xorl	$1, %eax
 2048 0bac 84C0     		testb	%al, %al
 2049 0bae 743E     		je	.L81
 2050              	.LEHB41:
 2051              		.loc 5 82 0 is_stmt 0 discriminator 1
 2052 0bb0 E8000000 		call	_ZN8UnitTest11CurrentTest7DetailsEv
 2052      00
 2053 0bb5 488B08   		movq	(%rax), %rcx
 2054 0bb8 488D8590 		leaq	-2160(%rbp), %rax
 2054      F7FFFF
 2055 0bbf BA520000 		movl	$82, %edx
 2055      00
 2056 0bc4 4889CE   		movq	%rcx, %rsi
 2057 0bc7 4889C7   		movq	%rax, %rdi
 2058 0bca E8000000 		call	_ZN8UnitTest11TestDetailsC1ERKS0_i
 2058      00
 2059              		.loc 5 82 0 discriminator 4
 2060 0bcf E8000000 		call	_ZN8UnitTest11CurrentTest7ResultsEv
 2060      00
 2061 0bd4 488B00   		movq	(%rax), %rax
 2062 0bd7 488D8D90 		leaq	-2160(%rbp), %rcx
 2062      F7FFFF
 2063 0bde BA000000 		movl	$.LC19, %edx
 2063      00
 2064 0be3 4889CE   		movq	%rcx, %rsi
 2065 0be6 4889C7   		movq	%rax, %rdi
 2066 0be9 E8000000 		call	_ZN8UnitTest11TestResults13OnTestFailureERKNS_11TestDetailsEPKc
 2066      00
 2067              	.LEHE41:
 2068              	.L81:
 2069              		.loc 5 82 0 discriminator 9
 2070 0bee 488D85B0 		leaq	-2128(%rbp), %rax
 2070      F7FFFF
 2071 0bf5 4889C7   		movq	%rax, %rdi
 2072              	.LEHB42:
 2073 0bf8 E8000000 		call	_ZN17RecordingReporterD1Ev
 2073      00
 2074              	.LEHE42:
 2075              	.LBE31:
  83:TestChecks.cpp **** }
 2076              		.loc 5 83 0 is_stmt 1 discriminator 9
 2077 0bfd 488B45E8 		movq	-24(%rbp), %rax
 2078 0c01 64483304 		xorq	%fs:40, %rax
 2078      25280000 
 2078      00
 2079 0c0a 0F84DE00 		je	.L87
 2079      0000
 2080 0c10 E9D40000 		jmp	.L93
 2080      00
 2081              	.L90:
 2082 0c15 4889C3   		movq	%rax, %rbx
 2083              	.LBB32:
  81:TestChecks.cpp ****     CHECK(strstr(reporter.lastFailedMessage, "was 2"));
 2084              		.loc 5 81 0
 2085 0c18 E8000000 		call	__cxa_end_catch
 2085      00
 2086 0c1d E9AD0000 		jmp	.L83
 2086      00
 2087              	.L89:
 2088 0c22 4889C7   		movq	%rax, %rdi
 2089 0c25 E8000000 		call	__cxa_begin_catch
 2089      00
 2090              	.LEHB43:
 2091 0c2a E8000000 		call	_ZN8UnitTest11CurrentTest7DetailsEv
 2091      00
 2092 0c2f 488B08   		movq	(%rax), %rcx
 2093 0c32 488D8590 		leaq	-2160(%rbp), %rax
 2093      F7FFFF
 2094 0c39 BA510000 		movl	$81, %edx
 2094      00
 2095 0c3e 4889CE   		movq	%rcx, %rsi
 2096 0c41 4889C7   		movq	%rax, %rdi
 2097 0c44 E8000000 		call	_ZN8UnitTest11TestDetailsC1ERKS0_i
 2097      00
  81:TestChecks.cpp ****     CHECK(strstr(reporter.lastFailedMessage, "was 2"));
 2098              		.loc 5 81 0 is_stmt 0 discriminator 11
 2099 0c49 E8000000 		call	_ZN8UnitTest11CurrentTest7ResultsEv
 2099      00
 2100 0c4e 488B00   		movq	(%rax), %rax
 2101 0c51 488D8D90 		leaq	-2160(%rbp), %rcx
 2101      F7FFFF
 2102 0c58 BA000000 		movl	$.LC20, %edx
 2102      00
 2103 0c5d 4889CE   		movq	%rcx, %rsi
 2104 0c60 4889C7   		movq	%rax, %rdi
 2105 0c63 E8000000 		call	_ZN8UnitTest11TestResults13OnTestFailureERKNS_11TestDetailsEPKc
 2105      00
 2106              	.LEHE43:
 2107              	.LEHB44:
  81:TestChecks.cpp ****     CHECK(strstr(reporter.lastFailedMessage, "was 2"));
 2108              		.loc 5 81 0 discriminator 15
 2109 0c68 E8000000 		call	__cxa_end_catch
 2109      00
 2110              	.LEHE44:
  81:TestChecks.cpp ****     CHECK(strstr(reporter.lastFailedMessage, "was 2"));
 2111              		.loc 5 81 0
 2112 0c6d E915FFFF 		jmp	.L80
 2112      FF
 2113              	.L92:
 2114 0c72 4889C3   		movq	%rax, %rbx
  82:TestChecks.cpp ****     CHECK(strstr(reporter.lastFailedMessage, "was 2"));
 2115              		.loc 5 82 0 is_stmt 1
 2116 0c75 E8000000 		call	__cxa_end_catch
 2116      00
 2117 0c7a EB53     		jmp	.L83
 2118              	.L91:
 2119 0c7c 4889C7   		movq	%rax, %rdi
 2120 0c7f E8000000 		call	__cxa_begin_catch
 2120      00
 2121              	.LEHB45:
 2122 0c84 E8000000 		call	_ZN8UnitTest11CurrentTest7DetailsEv
 2122      00
 2123 0c89 488B08   		movq	(%rax), %rcx
 2124 0c8c 488D8590 		leaq	-2160(%rbp), %rax
 2124      F7FFFF
 2125 0c93 BA520000 		movl	$82, %edx
 2125      00
 2126 0c98 4889CE   		movq	%rcx, %rsi
 2127 0c9b 4889C7   		movq	%rax, %rdi
 2128 0c9e E8000000 		call	_ZN8UnitTest11TestDetailsC1ERKS0_i
 2128      00
  82:TestChecks.cpp ****     CHECK(strstr(reporter.lastFailedMessage, "was 2"));
 2129              		.loc 5 82 0 is_stmt 0 discriminator 13
 2130 0ca3 E8000000 		call	_ZN8UnitTest11CurrentTest7ResultsEv
 2130      00
 2131 0ca8 488B00   		movq	(%rax), %rax
 2132 0cab 488D8D90 		leaq	-2160(%rbp), %rcx
 2132      F7FFFF
 2133 0cb2 BA000000 		movl	$.LC21, %edx
 2133      00
 2134 0cb7 4889CE   		movq	%rcx, %rsi
 2135 0cba 4889C7   		movq	%rax, %rdi
 2136 0cbd E8000000 		call	_ZN8UnitTest11TestResults13OnTestFailureERKNS_11TestDetailsEPKc
 2136      00
 2137              	.LEHE45:
 2138              	.LEHB46:
  82:TestChecks.cpp ****     CHECK(strstr(reporter.lastFailedMessage, "was 2"));
 2139              		.loc 5 82 0 discriminator 17
 2140 0cc2 E8000000 		call	__cxa_end_catch
 2140      00
 2141              	.LEHE46:
  82:TestChecks.cpp ****     CHECK(strstr(reporter.lastFailedMessage, "was 2"));
 2142              		.loc 5 82 0
 2143 0cc7 E922FFFF 		jmp	.L81
 2143      FF
 2144              	.L88:
 2145 0ccc 4889C3   		movq	%rax, %rbx
 2146              	.L83:
  82:TestChecks.cpp ****     CHECK(strstr(reporter.lastFailedMessage, "was 2"));
 2147              		.loc 5 82 0 discriminator 18
 2148 0ccf 488D85B0 		leaq	-2128(%rbp), %rax
 2148      F7FFFF
 2149 0cd6 4889C7   		movq	%rax, %rdi
 2150 0cd9 E8000000 		call	_ZN17RecordingReporterD1Ev
 2150      00
 2151 0cde 4889D8   		movq	%rbx, %rax
 2152 0ce1 4889C7   		movq	%rax, %rdi
 2153              	.LEHB47:
 2154 0ce4 E8000000 		call	_Unwind_Resume
 2154      00
 2155              	.LEHE47:
 2156              	.L93:
 2157              	.LBE32:
 2158              		.loc 5 83 0 is_stmt 1
 2159 0ce9 E8000000 		call	__stack_chk_fail
 2159      00
 2160              	.L87:
 2161 0cee 4881C4A8 		addq	$2216, %rsp
 2161      080000
 2162 0cf5 5B       		popq	%rbx
 2163 0cf6 5D       		popq	%rbp
 2164              		.cfi_def_cfa 7, 8
 2165 0cf7 C3       		ret
 2166              		.cfi_endproc
 2167              	.LFE1106:
 2168              		.section	.gcc_except_table
 2169              		.align 4
 2170              	.LLSDA1106:
 2171 0110 FF       		.byte	0xff
 2172 0111 03       		.byte	0x3
 2173 0112 3D       		.uleb128 .LLSDATT1106-.LLSDATTD1106
 2174              	.LLSDATTD1106:
 2175 0113 01       		.byte	0x1
 2176 0114 33       		.uleb128 .LLSDACSE1106-.LLSDACSB1106
 2177              	.LLSDACSB1106:
 2178 0115 45       		.uleb128 .LEHB39-.LFB1106
 2179 0116 61       		.uleb128 .LEHE39-.LEHB39
 2180 0117 D204     		.uleb128 .L88-.LFB1106
 2181 0119 00       		.uleb128 0
 2182 011a CF01     		.uleb128 .LEHB40-.LFB1106
 2183 011c 3E       		.uleb128 .LEHE40-.LEHB40
 2184 011d A803     		.uleb128 .L89-.LFB1106
 2185 011f 01       		.uleb128 0x1
 2186 0120 B602     		.uleb128 .LEHB41-.LFB1106
 2187 0122 3E       		.uleb128 .LEHE41-.LEHB41
 2188 0123 8204     		.uleb128 .L91-.LFB1106
 2189 0125 01       		.uleb128 0x1
 2190 0126 FE02     		.uleb128 .LEHB42-.LFB1106
 2191 0128 05       		.uleb128 .LEHE42-.LEHB42
 2192 0129 00       		.uleb128 0
 2193 012a 00       		.uleb128 0
 2194 012b B003     		.uleb128 .LEHB43-.LFB1106
 2195 012d 3E       		.uleb128 .LEHE43-.LEHB43
 2196 012e 9B03     		.uleb128 .L90-.LFB1106
 2197 0130 00       		.uleb128 0
 2198 0131 EE03     		.uleb128 .LEHB44-.LFB1106
 2199 0133 05       		.uleb128 .LEHE44-.LEHB44
 2200 0134 D204     		.uleb128 .L88-.LFB1106
 2201 0136 00       		.uleb128 0
 2202 0137 8A04     		.uleb128 .LEHB45-.LFB1106
 2203 0139 3E       		.uleb128 .LEHE45-.LEHB45
 2204 013a F803     		.uleb128 .L92-.LFB1106
 2205 013c 00       		.uleb128 0
 2206 013d C804     		.uleb128 .LEHB46-.LFB1106
 2207 013f 05       		.uleb128 .LEHE46-.LEHB46
 2208 0140 D204     		.uleb128 .L88-.LFB1106
 2209 0142 00       		.uleb128 0
 2210 0143 EA04     		.uleb128 .LEHB47-.LFB1106
 2211 0145 05       		.uleb128 .LEHE47-.LEHB47
 2212 0146 00       		.uleb128 0
 2213 0147 00       		.uleb128 0
 2214              	.LLSDACSE1106:
 2215 0148 01       		.byte	0x1
 2216 0149 00       		.byte	0
 2217 014a 0000     		.align 4
 2218 014c 00000000 		.long	0
 2219              	
 2220              	.LLSDATT1106:
 2221              		.text
 2223              		.section	.rodata
 2224 038a 00000000 		.align 8
 2224      0000
 2225              	.LC22:
 2226 0390 43686563 		.string	"CheckEqualFailureIncludesDetails"
 2226      6B457175 
 2226      616C4661 
 2226      696C7572 
 2226      65496E63 
 2227              		.text
 2228              		.align 2
 2230              	_ZN12_GLOBAL__N_136TestCheckEqualFailureIncludesDetailsC2Ev:
 2231              	.LFB1108:
  84:TestChecks.cpp **** 
  85:TestChecks.cpp **** TEST(CheckEqualFailureIncludesDetails)
 2232              		.loc 5 85 0
 2233              		.cfi_startproc
 2234 0cf8 55       		pushq	%rbp
 2235              		.cfi_def_cfa_offset 16
 2236              		.cfi_offset 6, -16
 2237 0cf9 4889E5   		movq	%rsp, %rbp
 2238              		.cfi_def_cfa_register 6
 2239 0cfc 4883EC10 		subq	$16, %rsp
 2240 0d00 48897DF8 		movq	%rdi, -8(%rbp)
 2241              	.LBB33:
 2242              		.loc 5 85 0
 2243 0d04 E8000000 		call	_ZN13UnitTestSuite12GetSuiteNameEv
 2243      00
 2244 0d09 4889C2   		movq	%rax, %rdx
 2245 0d0c 488B45F8 		movq	-8(%rbp), %rax
 2246 0d10 41B85500 		movl	$85, %r8d
 2246      0000
 2247 0d16 B9000000 		movl	$.LC2, %ecx
 2247      00
 2248 0d1b BE000000 		movl	$.LC22, %esi
 2248      00
 2249 0d20 4889C7   		movq	%rax, %rdi
 2250 0d23 E8000000 		call	_ZN8UnitTest4TestC2EPKcS2_S2_i
 2250      00
 2251 0d28 488B45F8 		movq	-8(%rbp), %rax
 2252 0d2c 48C70000 		movq	$_ZTVN12_GLOBAL__N_136TestCheckEqualFailureIncludesDetailsE+16, (%rax)
 2252      000000
 2253              	.LBE33:
 2254 0d33 C9       		leave
 2255              		.cfi_def_cfa 7, 8
 2256 0d34 C3       		ret
 2257              		.cfi_endproc
 2258              	.LFE1108:
 2260              		.local	_ZN12_GLOBAL__N_144testCheckEqualFailureIncludesDetailsInstanceE
 2261              		.comm	_ZN12_GLOBAL__N_144testCheckEqualFailureIncludesDetailsInstanceE,56,32
 2262              		.local	_ZN12_GLOBAL__N_137adderCheckEqualFailureIncludesDetailsE
 2263              		.comm	_ZN12_GLOBAL__N_137adderCheckEqualFailureIncludesDetailsE,1,1
 2264              		.section	.rodata
 2265              	.LC23:
 2266 03b1 66696C65 		.string	"file.h"
 2266      2E6800
 2267              	.LC24:
 2268 03b8 6D797375 		.string	"mysuite"
 2268      69746500 
 2269              	.LC25:
 2270 03c0 6D797465 		.string	"mytest"
 2270      737400
 2271 03c7 00       		.align 8
 2272              	.LC26:
 2273 03c8 556E6861 		.string	"Unhandled exception in CHECK_EQUAL(\"mytest\", reporter.lastFailedTest)"
 2273      6E646C65 
 2273      64206578 
 2273      63657074 
 2273      696F6E20 
 2274 040e 0000     		.align 8
 2275              	.LC27:
 2276 0410 556E6861 		.string	"Unhandled exception in CHECK_EQUAL(\"mysuite\", reporter.lastFailedSuite)"
 2276      6E646C65 
 2276      64206578 
 2276      63657074 
 2276      696F6E20 
 2277              		.align 8
 2278              	.LC28:
 2279 0458 556E6861 		.string	"Unhandled exception in CHECK_EQUAL(\"file.h\", reporter.lastFailedFile)"
 2279      6E646C65 
 2279      64206578 
 2279      63657074 
 2279      696F6E20 
 2280 049e 0000     		.align 8
 2281              	.LC29:
 2282 04a0 556E6861 		.string	"Unhandled exception in CHECK_EQUAL(101, reporter.lastFailedLine)"
 2282      6E646C65 
 2282      64206578 
 2282      63657074 
 2282      696F6E20 
 2283              		.text
 2284 0d35 90       		.align 2
 2286              	_ZNK12_GLOBAL__N_136TestCheckEqualFailureIncludesDetails7RunImplEv:
 2287              	.LFB1110:
  86:TestChecks.cpp **** {
 2288              		.loc 5 86 0
 2289              		.cfi_startproc
 2290              		.cfi_personality 0x3,__gxx_personality_v0
 2291              		.cfi_lsda 0x3,.LLSDA1110
 2292 0d36 55       		pushq	%rbp
 2293              		.cfi_def_cfa_offset 16
 2294              		.cfi_offset 6, -16
 2295 0d37 4889E5   		movq	%rsp, %rbp
 2296              		.cfi_def_cfa_register 6
 2297 0d3a 53       		pushq	%rbx
 2298 0d3b 4881ECC8 		subq	$2248, %rsp
 2298      080000
 2299              		.cfi_offset 3, -24
 2300 0d42 4889BD38 		movq	%rdi, -2248(%rbp)
 2300      F7FFFF
 2301              		.loc 5 86 0
 2302 0d49 64488B04 		movq	%fs:40, %rax
 2302      25280000 
 2302      00
 2303 0d52 488945E8 		movq	%rax, -24(%rbp)
 2304 0d56 31C0     		xorl	%eax, %eax
 2305              	.LBB34:
  87:TestChecks.cpp ****     RecordingReporter reporter;
 2306              		.loc 5 87 0
 2307 0d58 488D85B0 		leaq	-2128(%rbp), %rax
 2307      F7FFFF
 2308 0d5f 4889C7   		movq	%rax, %rdi
 2309 0d62 E8000000 		call	_ZN17RecordingReporterC1Ev
 2309      00
  88:TestChecks.cpp ****     TestResults results(&reporter);
 2310              		.loc 5 88 0
 2311 0d67 488D95B0 		leaq	-2128(%rbp), %rdx
 2311      F7FFFF
 2312 0d6e 488D8550 		leaq	-2224(%rbp), %rax
 2312      F7FFFF
 2313 0d75 4889D6   		movq	%rdx, %rsi
 2314 0d78 4889C7   		movq	%rax, %rdi
 2315              	.LEHB48:
 2316 0d7b E8000000 		call	_ZN8UnitTest11TestResultsC1EPNS_12TestReporterE
 2316      00
  89:TestChecks.cpp ****     TestDetails const details("mytest", "mysuite", "file.h", 101);
 2317              		.loc 5 89 0
 2318 0d80 488D8570 		leaq	-2192(%rbp), %rax
 2318      F7FFFF
 2319 0d87 41B86500 		movl	$101, %r8d
 2319      0000
 2320 0d8d B9000000 		movl	$.LC23, %ecx
 2320      00
 2321 0d92 BA000000 		movl	$.LC24, %edx
 2321      00
 2322 0d97 BE000000 		movl	$.LC25, %esi
 2322      00
 2323 0d9c 4889C7   		movq	%rax, %rdi
 2324 0d9f E8000000 		call	_ZN8UnitTest11TestDetailsC1EPKcS2_S2_i
 2324      00
  90:TestChecks.cpp **** 
  91:TestChecks.cpp ****     CheckEqual(results, 1, 2, details);
 2325              		.loc 5 91 0
 2326 0da4 C78590F7 		movl	$2, -2160(%rbp)
 2326      FFFF0200 
 2326      0000
 2327 0dae C7854CF7 		movl	$1, -2228(%rbp)
 2327      FFFF0100 
 2327      0000
 2328 0db8 488D8D70 		leaq	-2192(%rbp), %rcx
 2328      F7FFFF
 2329 0dbf 488D9590 		leaq	-2160(%rbp), %rdx
 2329      F7FFFF
 2330 0dc6 488DB54C 		leaq	-2228(%rbp), %rsi
 2330      F7FFFF
 2331 0dcd 488D8550 		leaq	-2224(%rbp), %rax
 2331      F7FFFF
 2332 0dd4 4889C7   		movq	%rax, %rdi
 2333 0dd7 E8000000 		call	_ZN8UnitTest10CheckEqualIiiEEvRNS_11TestResultsERKT_RKT0_RKNS_11TestDetailsE
 2333      00
 2334              	.LEHE48:
 2335              	.LEHB49:
  92:TestChecks.cpp **** 
  93:TestChecks.cpp ****     CHECK_EQUAL("mytest", reporter.lastFailedTest);
 2336              		.loc 5 93 0 discriminator 2
 2337 0ddc E8000000 		call	_ZN8UnitTest11CurrentTest7DetailsEv
 2337      00
 2338 0de1 488B08   		movq	(%rax), %rcx
 2339 0de4 488D8590 		leaq	-2160(%rbp), %rax
 2339      F7FFFF
 2340 0deb BA5D0000 		movl	$93, %edx
 2340      00
 2341 0df0 4889CE   		movq	%rcx, %rsi
 2342 0df3 4889C7   		movq	%rax, %rdi
 2343 0df6 E8000000 		call	_ZN8UnitTest11TestDetailsC1ERKS0_i
 2343      00
 2344 0dfb E8000000 		call	_ZN8UnitTest11CurrentTest7ResultsEv
 2344      00
 2345 0e00 488B00   		movq	(%rax), %rax
 2346 0e03 488D9590 		leaq	-2160(%rbp), %rdx
 2346      F7FFFF
 2347 0e0a 488D8DB0 		leaq	-2128(%rbp), %rcx
 2347      F7FFFF
 2348 0e11 488DB114 		leaq	1044(%rcx), %rsi
 2348      040000
 2349 0e18 4889D1   		movq	%rdx, %rcx
 2350 0e1b 4889F2   		movq	%rsi, %rdx
 2351 0e1e BE000000 		movl	$.LC25, %esi
 2351      00
 2352 0e23 4889C7   		movq	%rax, %rdi
 2353 0e26 E8000000 		call	_ZN8UnitTest10CheckEqualERNS_11TestResultsEPKcPcRKNS_11TestDetailsE
 2353      00
 2354              	.LEHE49:
 2355              	.L99:
 2356              	.LEHB50:
  94:TestChecks.cpp ****     CHECK_EQUAL("mysuite", reporter.lastFailedSuite);
 2357              		.loc 5 94 0
 2358 0e2b E8000000 		call	_ZN8UnitTest11CurrentTest7DetailsEv
 2358      00
 2359 0e30 488B08   		movq	(%rax), %rcx
 2360 0e33 488D8590 		leaq	-2160(%rbp), %rax
 2360      F7FFFF
 2361 0e3a BA5E0000 		movl	$94, %edx
 2361      00
 2362 0e3f 4889CE   		movq	%rcx, %rsi
 2363 0e42 4889C7   		movq	%rax, %rdi
 2364 0e45 E8000000 		call	_ZN8UnitTest11TestDetailsC1ERKS0_i
 2364      00
 2365              		.loc 5 94 0 is_stmt 0 discriminator 2
 2366 0e4a E8000000 		call	_ZN8UnitTest11CurrentTest7ResultsEv
 2366      00
 2367 0e4f 488B00   		movq	(%rax), %rax
 2368 0e52 488D9590 		leaq	-2160(%rbp), %rdx
 2368      F7FFFF
 2369 0e59 488D8DB0 		leaq	-2128(%rbp), %rcx
 2369      F7FFFF
 2370 0e60 488DB114 		leaq	788(%rcx), %rsi
 2370      030000
 2371 0e67 4889D1   		movq	%rdx, %rcx
 2372 0e6a 4889F2   		movq	%rsi, %rdx
 2373 0e6d BE000000 		movl	$.LC24, %esi
 2373      00
 2374 0e72 4889C7   		movq	%rax, %rdi
 2375 0e75 E8000000 		call	_ZN8UnitTest10CheckEqualERNS_11TestResultsEPKcPcRKNS_11TestDetailsE
 2375      00
 2376              	.LEHE50:
 2377              	.L102:
 2378              	.LEHB51:
  95:TestChecks.cpp ****     CHECK_EQUAL("file.h", reporter.lastFailedFile);
 2379              		.loc 5 95 0 is_stmt 1
 2380 0e7a E8000000 		call	_ZN8UnitTest11CurrentTest7DetailsEv
 2380      00
 2381 0e7f 488B08   		movq	(%rax), %rcx
 2382 0e82 488D8590 		leaq	-2160(%rbp), %rax
 2382      F7FFFF
 2383 0e89 BA5F0000 		movl	$95, %edx
 2383      00
 2384 0e8e 4889CE   		movq	%rcx, %rsi
 2385 0e91 4889C7   		movq	%rax, %rdi
 2386 0e94 E8000000 		call	_ZN8UnitTest11TestDetailsC1ERKS0_i
 2386      00
 2387              		.loc 5 95 0 is_stmt 0 discriminator 2
 2388 0e99 E8000000 		call	_ZN8UnitTest11CurrentTest7ResultsEv
 2388      00
 2389 0e9e 488B00   		movq	(%rax), %rax
 2390 0ea1 488D9590 		leaq	-2160(%rbp), %rdx
 2390      F7FFFF
 2391 0ea8 488D8DB0 		leaq	-2128(%rbp), %rcx
 2391      F7FFFF
 2392 0eaf 488DB110 		leaq	528(%rcx), %rsi
 2392      020000
 2393 0eb6 4889D1   		movq	%rdx, %rcx
 2394 0eb9 4889F2   		movq	%rsi, %rdx
 2395 0ebc BE000000 		movl	$.LC23, %esi
 2395      00
 2396 0ec1 4889C7   		movq	%rax, %rdi
 2397 0ec4 E8000000 		call	_ZN8UnitTest10CheckEqualERNS_11TestResultsEPKcPcRKNS_11TestDetailsE
 2397      00
 2398              	.LEHE51:
 2399              	.L105:
 2400              	.LEHB52:
  96:TestChecks.cpp ****     CHECK_EQUAL(101, reporter.lastFailedLine);
 2401              		.loc 5 96 0 is_stmt 1
 2402 0ec9 E8000000 		call	_ZN8UnitTest11CurrentTest7DetailsEv
 2402      00
 2403 0ece 488B08   		movq	(%rax), %rcx
 2404 0ed1 488D8590 		leaq	-2160(%rbp), %rax
 2404      F7FFFF
 2405 0ed8 BA600000 		movl	$96, %edx
 2405      00
 2406 0edd 4889CE   		movq	%rcx, %rsi
 2407 0ee0 4889C7   		movq	%rax, %rdi
 2408 0ee3 E8000000 		call	_ZN8UnitTest11TestDetailsC1ERKS0_i
 2408      00
 2409              		.loc 5 96 0 is_stmt 0 discriminator 2
 2410 0ee8 C7854CF7 		movl	$101, -2228(%rbp)
 2410      FFFF6500 
 2410      0000
 2411 0ef2 E8000000 		call	_ZN8UnitTest11CurrentTest7ResultsEv
 2411      00
 2412 0ef7 488B00   		movq	(%rax), %rax
 2413 0efa 488D9590 		leaq	-2160(%rbp), %rdx
 2413      F7FFFF
 2414 0f01 488D8DB0 		leaq	-2128(%rbp), %rcx
 2414      F7FFFF
 2415 0f08 488DB910 		leaq	784(%rcx), %rdi
 2415      030000
 2416 0f0f 488DB54C 		leaq	-2228(%rbp), %rsi
 2416      F7FFFF
 2417 0f16 4889D1   		movq	%rdx, %rcx
 2418 0f19 4889FA   		movq	%rdi, %rdx
 2419 0f1c 4889C7   		movq	%rax, %rdi
 2420 0f1f E8000000 		call	_ZN8UnitTest10CheckEqualIiiEEvRNS_11TestResultsERKT_RKT0_RKNS_11TestDetailsE
 2420      00
 2421              	.LEHE52:
 2422              	.L108:
 2423              		.loc 5 96 0 discriminator 7
 2424 0f24 488D85B0 		leaq	-2128(%rbp), %rax
 2424      F7FFFF
 2425 0f2b 4889C7   		movq	%rax, %rdi
 2426              	.LEHB53:
 2427 0f2e E8000000 		call	_ZN17RecordingReporterD1Ev
 2427      00
 2428              	.LEHE53:
 2429              	.LBE34:
  97:TestChecks.cpp **** }
 2430              		.loc 5 97 0 is_stmt 1 discriminator 7
 2431 0f33 488B45E8 		movq	-24(%rbp), %rax
 2432 0f37 64483304 		xorq	%fs:40, %rax
 2432      25280000 
 2432      00
 2433 0f40 0F849801 		je	.L109
 2433      0000
 2434 0f46 E98E0100 		jmp	.L119
 2434      00
 2435              	.L112:
 2436 0f4b 4889C3   		movq	%rax, %rbx
 2437              	.LBB35:
  93:TestChecks.cpp ****     CHECK_EQUAL("mysuite", reporter.lastFailedSuite);
 2438              		.loc 5 93 0
 2439 0f4e E8000000 		call	__cxa_end_catch
 2439      00
 2440 0f53 E9670100 		jmp	.L97
 2440      00
 2441              	.L111:
 2442 0f58 4889C7   		movq	%rax, %rdi
 2443 0f5b E8000000 		call	__cxa_begin_catch
 2443      00
 2444              	.LEHB54:
 2445 0f60 E8000000 		call	_ZN8UnitTest11CurrentTest7DetailsEv
 2445      00
 2446 0f65 488B08   		movq	(%rax), %rcx
 2447 0f68 488D8590 		leaq	-2160(%rbp), %rax
 2447      F7FFFF
 2448 0f6f BA5D0000 		movl	$93, %edx
 2448      00
 2449 0f74 4889CE   		movq	%rcx, %rsi
 2450 0f77 4889C7   		movq	%rax, %rdi
 2451 0f7a E8000000 		call	_ZN8UnitTest11TestDetailsC1ERKS0_i
 2451      00
  93:TestChecks.cpp ****     CHECK_EQUAL("mysuite", reporter.lastFailedSuite);
 2452              		.loc 5 93 0 is_stmt 0 discriminator 10
 2453 0f7f E8000000 		call	_ZN8UnitTest11CurrentTest7ResultsEv
 2453      00
 2454 0f84 488B00   		movq	(%rax), %rax
 2455 0f87 488D8D90 		leaq	-2160(%rbp), %rcx
 2455      F7FFFF
 2456 0f8e BA000000 		movl	$.LC26, %edx
 2456      00
 2457 0f93 4889CE   		movq	%rcx, %rsi
 2458 0f96 4889C7   		movq	%rax, %rdi
 2459 0f99 E8000000 		call	_ZN8UnitTest11TestResults13OnTestFailureERKNS_11TestDetailsEPKc
 2459      00
 2460              	.LEHE54:
 2461              	.LEHB55:
  93:TestChecks.cpp ****     CHECK_EQUAL("mysuite", reporter.lastFailedSuite);
 2462              		.loc 5 93 0 discriminator 14
 2463 0f9e E8000000 		call	__cxa_end_catch
 2463      00
 2464              	.LEHE55:
  93:TestChecks.cpp ****     CHECK_EQUAL("mysuite", reporter.lastFailedSuite);
 2465              		.loc 5 93 0
 2466 0fa3 E983FEFF 		jmp	.L99
 2466      FF
 2467              	.L114:
 2468 0fa8 4889C3   		movq	%rax, %rbx
  94:TestChecks.cpp ****     CHECK_EQUAL("file.h", reporter.lastFailedFile);
 2469              		.loc 5 94 0 is_stmt 1
 2470 0fab E8000000 		call	__cxa_end_catch
 2470      00
 2471 0fb0 E90A0100 		jmp	.L97
 2471      00
 2472              	.L113:
 2473 0fb5 4889C7   		movq	%rax, %rdi
 2474 0fb8 E8000000 		call	__cxa_begin_catch
 2474      00
 2475              	.LEHB56:
 2476 0fbd E8000000 		call	_ZN8UnitTest11CurrentTest7DetailsEv
 2476      00
 2477 0fc2 488B08   		movq	(%rax), %rcx
 2478 0fc5 488D8590 		leaq	-2160(%rbp), %rax
 2478      F7FFFF
 2479 0fcc BA5E0000 		movl	$94, %edx
 2479      00
 2480 0fd1 4889CE   		movq	%rcx, %rsi
 2481 0fd4 4889C7   		movq	%rax, %rdi
 2482 0fd7 E8000000 		call	_ZN8UnitTest11TestDetailsC1ERKS0_i
 2482      00
  94:TestChecks.cpp ****     CHECK_EQUAL("file.h", reporter.lastFailedFile);
 2483              		.loc 5 94 0 is_stmt 0 discriminator 10
 2484 0fdc E8000000 		call	_ZN8UnitTest11CurrentTest7ResultsEv
 2484      00
 2485 0fe1 488B00   		movq	(%rax), %rax
 2486 0fe4 488D8D90 		leaq	-2160(%rbp), %rcx
 2486      F7FFFF
 2487 0feb BA000000 		movl	$.LC27, %edx
 2487      00
 2488 0ff0 4889CE   		movq	%rcx, %rsi
 2489 0ff3 4889C7   		movq	%rax, %rdi
 2490 0ff6 E8000000 		call	_ZN8UnitTest11TestResults13OnTestFailureERKNS_11TestDetailsEPKc
 2490      00
 2491              	.LEHE56:
 2492              	.LEHB57:
  94:TestChecks.cpp ****     CHECK_EQUAL("file.h", reporter.lastFailedFile);
 2493              		.loc 5 94 0 discriminator 14
 2494 0ffb E8000000 		call	__cxa_end_catch
 2494      00
 2495              	.LEHE57:
  94:TestChecks.cpp ****     CHECK_EQUAL("file.h", reporter.lastFailedFile);
 2496              		.loc 5 94 0
 2497 1000 E975FEFF 		jmp	.L102
 2497      FF
 2498              	.L116:
 2499 1005 4889C3   		movq	%rax, %rbx
  95:TestChecks.cpp ****     CHECK_EQUAL(101, reporter.lastFailedLine);
 2500              		.loc 5 95 0 is_stmt 1
 2501 1008 E8000000 		call	__cxa_end_catch
 2501      00
 2502 100d E9AD0000 		jmp	.L97
 2502      00
 2503              	.L115:
 2504 1012 4889C7   		movq	%rax, %rdi
 2505 1015 E8000000 		call	__cxa_begin_catch
 2505      00
 2506              	.LEHB58:
 2507 101a E8000000 		call	_ZN8UnitTest11CurrentTest7DetailsEv
 2507      00
 2508 101f 488B08   		movq	(%rax), %rcx
 2509 1022 488D8590 		leaq	-2160(%rbp), %rax
 2509      F7FFFF
 2510 1029 BA5F0000 		movl	$95, %edx
 2510      00
 2511 102e 4889CE   		movq	%rcx, %rsi
 2512 1031 4889C7   		movq	%rax, %rdi
 2513 1034 E8000000 		call	_ZN8UnitTest11TestDetailsC1ERKS0_i
 2513      00
  95:TestChecks.cpp ****     CHECK_EQUAL(101, reporter.lastFailedLine);
 2514              		.loc 5 95 0 is_stmt 0 discriminator 10
 2515 1039 E8000000 		call	_ZN8UnitTest11CurrentTest7ResultsEv
 2515      00
 2516 103e 488B00   		movq	(%rax), %rax
 2517 1041 488D8D90 		leaq	-2160(%rbp), %rcx
 2517      F7FFFF
 2518 1048 BA000000 		movl	$.LC28, %edx
 2518      00
 2519 104d 4889CE   		movq	%rcx, %rsi
 2520 1050 4889C7   		movq	%rax, %rdi
 2521 1053 E8000000 		call	_ZN8UnitTest11TestResults13OnTestFailureERKNS_11TestDetailsEPKc
 2521      00
 2522              	.LEHE58:
 2523              	.LEHB59:
  95:TestChecks.cpp ****     CHECK_EQUAL(101, reporter.lastFailedLine);
 2524              		.loc 5 95 0 discriminator 14
 2525 1058 E8000000 		call	__cxa_end_catch
 2525      00
 2526              	.LEHE59:
  95:TestChecks.cpp ****     CHECK_EQUAL(101, reporter.lastFailedLine);
 2527              		.loc 5 95 0
 2528 105d E967FEFF 		jmp	.L105
 2528      FF
 2529              	.L118:
 2530 1062 4889C3   		movq	%rax, %rbx
  96:TestChecks.cpp **** }
 2531              		.loc 5 96 0 is_stmt 1
 2532 1065 E8000000 		call	__cxa_end_catch
 2532      00
 2533 106a EB53     		jmp	.L97
 2534              	.L117:
 2535 106c 4889C7   		movq	%rax, %rdi
 2536 106f E8000000 		call	__cxa_begin_catch
 2536      00
 2537              	.LEHB60:
 2538 1074 E8000000 		call	_ZN8UnitTest11CurrentTest7DetailsEv
 2538      00
 2539 1079 488B08   		movq	(%rax), %rcx
 2540 107c 488D8590 		leaq	-2160(%rbp), %rax
 2540      F7FFFF
 2541 1083 BA600000 		movl	$96, %edx
 2541      00
 2542 1088 4889CE   		movq	%rcx, %rsi
 2543 108b 4889C7   		movq	%rax, %rdi
 2544 108e E8000000 		call	_ZN8UnitTest11TestDetailsC1ERKS0_i
 2544      00
  96:TestChecks.cpp **** }
 2545              		.loc 5 96 0 is_stmt 0 discriminator 11
 2546 1093 E8000000 		call	_ZN8UnitTest11CurrentTest7ResultsEv
 2546      00
 2547 1098 488B00   		movq	(%rax), %rax
 2548 109b 488D8D90 		leaq	-2160(%rbp), %rcx
 2548      F7FFFF
 2549 10a2 BA000000 		movl	$.LC29, %edx
 2549      00
 2550 10a7 4889CE   		movq	%rcx, %rsi
 2551 10aa 4889C7   		movq	%rax, %rdi
 2552 10ad E8000000 		call	_ZN8UnitTest11TestResults13OnTestFailureERKNS_11TestDetailsEPKc
 2552      00
 2553              	.LEHE60:
 2554              	.LEHB61:
  96:TestChecks.cpp **** }
 2555              		.loc 5 96 0 discriminator 15
 2556 10b2 E8000000 		call	__cxa_end_catch
 2556      00
 2557              	.LEHE61:
  96:TestChecks.cpp **** }
 2558              		.loc 5 96 0
 2559 10b7 E968FEFF 		jmp	.L108
 2559      FF
 2560              	.L110:
 2561 10bc 4889C3   		movq	%rax, %rbx
 2562              	.L97:
  96:TestChecks.cpp **** }
 2563              		.loc 5 96 0 discriminator 16
 2564 10bf 488D85B0 		leaq	-2128(%rbp), %rax
 2564      F7FFFF
 2565 10c6 4889C7   		movq	%rax, %rdi
 2566 10c9 E8000000 		call	_ZN17RecordingReporterD1Ev
 2566      00
 2567 10ce 4889D8   		movq	%rbx, %rax
 2568 10d1 4889C7   		movq	%rax, %rdi
 2569              	.LEHB62:
 2570 10d4 E8000000 		call	_Unwind_Resume
 2570      00
 2571              	.LEHE62:
 2572              	.L119:
 2573              	.LBE35:
 2574              		.loc 5 97 0 is_stmt 1
 2575 10d9 E8000000 		call	__stack_chk_fail
 2575      00
 2576              	.L109:
 2577 10de 4881C4C8 		addq	$2248, %rsp
 2577      080000
 2578 10e5 5B       		popq	%rbx
 2579 10e6 5D       		popq	%rbp
 2580              		.cfi_def_cfa 7, 8
 2581 10e7 C3       		ret
 2582              		.cfi_endproc
 2583              	.LFE1110:
 2584              		.section	.gcc_except_table
 2585              		.align 4
 2586              	.LLSDA1110:
 2587 0150 FF       		.byte	0xff
 2588 0151 03       		.byte	0x3
 2589 0152 61       		.uleb128 .LLSDATT1110-.LLSDATTD1110
 2590              	.LLSDATTD1110:
 2591 0153 01       		.byte	0x1
 2592 0154 57       		.uleb128 .LLSDACSE1110-.LLSDACSB1110
 2593              	.LLSDACSB1110:
 2594 0155 45       		.uleb128 .LEHB48-.LFB1110
 2595 0156 61       		.uleb128 .LEHE48-.LEHB48
 2596 0157 8607     		.uleb128 .L110-.LFB1110
 2597 0159 00       		.uleb128 0
 2598 015a A601     		.uleb128 .LEHB49-.LFB1110
 2599 015c 4F       		.uleb128 .LEHE49-.LEHB49
 2600 015d A204     		.uleb128 .L111-.LFB1110
 2601 015f 01       		.uleb128 0x1
 2602 0160 F501     		.uleb128 .LEHB50-.LFB1110
 2603 0162 4F       		.uleb128 .LEHE50-.LEHB50
 2604 0163 FF04     		.uleb128 .L113-.LFB1110
 2605 0165 01       		.uleb128 0x1
 2606 0166 C402     		.uleb128 .LEHB51-.LFB1110
 2607 0168 4F       		.uleb128 .LEHE51-.LEHB51
 2608 0169 DC05     		.uleb128 .L115-.LFB1110
 2609 016b 01       		.uleb128 0x1
 2610 016c 9303     		.uleb128 .LEHB52-.LFB1110
 2611 016e 5B       		.uleb128 .LEHE52-.LEHB52
 2612 016f B606     		.uleb128 .L117-.LFB1110
 2613 0171 01       		.uleb128 0x1
 2614 0172 F803     		.uleb128 .LEHB53-.LFB1110
 2615 0174 05       		.uleb128 .LEHE53-.LEHB53
 2616 0175 00       		.uleb128 0
 2617 0176 00       		.uleb128 0
 2618 0177 AA04     		.uleb128 .LEHB54-.LFB1110
 2619 0179 3E       		.uleb128 .LEHE54-.LEHB54
 2620 017a 9504     		.uleb128 .L112-.LFB1110
 2621 017c 00       		.uleb128 0
 2622 017d E804     		.uleb128 .LEHB55-.LFB1110
 2623 017f 05       		.uleb128 .LEHE55-.LEHB55
 2624 0180 8607     		.uleb128 .L110-.LFB1110
 2625 0182 00       		.uleb128 0
 2626 0183 8705     		.uleb128 .LEHB56-.LFB1110
 2627 0185 3E       		.uleb128 .LEHE56-.LEHB56
 2628 0186 F204     		.uleb128 .L114-.LFB1110
 2629 0188 00       		.uleb128 0
 2630 0189 C505     		.uleb128 .LEHB57-.LFB1110
 2631 018b 05       		.uleb128 .LEHE57-.LEHB57
 2632 018c 8607     		.uleb128 .L110-.LFB1110
 2633 018e 00       		.uleb128 0
 2634 018f E405     		.uleb128 .LEHB58-.LFB1110
 2635 0191 3E       		.uleb128 .LEHE58-.LEHB58
 2636 0192 CF05     		.uleb128 .L116-.LFB1110
 2637 0194 00       		.uleb128 0
 2638 0195 A206     		.uleb128 .LEHB59-.LFB1110
 2639 0197 05       		.uleb128 .LEHE59-.LEHB59
 2640 0198 8607     		.uleb128 .L110-.LFB1110
 2641 019a 00       		.uleb128 0
 2642 019b BE06     		.uleb128 .LEHB60-.LFB1110
 2643 019d 3E       		.uleb128 .LEHE60-.LEHB60
 2644 019e AC06     		.uleb128 .L118-.LFB1110
 2645 01a0 00       		.uleb128 0
 2646 01a1 FC06     		.uleb128 .LEHB61-.LFB1110
 2647 01a3 05       		.uleb128 .LEHE61-.LEHB61
 2648 01a4 8607     		.uleb128 .L110-.LFB1110
 2649 01a6 00       		.uleb128 0
 2650 01a7 9E07     		.uleb128 .LEHB62-.LFB1110
 2651 01a9 05       		.uleb128 .LEHE62-.LEHB62
 2652 01aa 00       		.uleb128 0
 2653 01ab 00       		.uleb128 0
 2654              	.LLSDACSE1110:
 2655 01ac 01       		.byte	0x1
 2656 01ad 00       		.byte	0
 2657 01ae 0000     		.align 4
 2658 01b0 00000000 		.long	0
 2659              	
 2660              	.LLSDATT1110:
 2661              		.text
 2663              		.section	.rodata
 2664              	.LC30:
 2665 04e1 43686563 		.string	"CheckCloseTrue"
 2665      6B436C6F 
 2665      73655472 
 2665      756500
 2666              		.text
 2667              		.align 2
 2669              	_ZN12_GLOBAL__N_118TestCheckCloseTrueC2Ev:
 2670              	.LFB1112:
  98:TestChecks.cpp **** 
  99:TestChecks.cpp **** TEST(CheckCloseTrue)
 2671              		.loc 5 99 0
 2672              		.cfi_startproc
 2673 10e8 55       		pushq	%rbp
 2674              		.cfi_def_cfa_offset 16
 2675              		.cfi_offset 6, -16
 2676 10e9 4889E5   		movq	%rsp, %rbp
 2677              		.cfi_def_cfa_register 6
 2678 10ec 4883EC10 		subq	$16, %rsp
 2679 10f0 48897DF8 		movq	%rdi, -8(%rbp)
 2680              	.LBB36:
 2681              		.loc 5 99 0
 2682 10f4 E8000000 		call	_ZN13UnitTestSuite12GetSuiteNameEv
 2682      00
 2683 10f9 4889C2   		movq	%rax, %rdx
 2684 10fc 488B45F8 		movq	-8(%rbp), %rax
 2685 1100 41B86300 		movl	$99, %r8d
 2685      0000
 2686 1106 B9000000 		movl	$.LC2, %ecx
 2686      00
 2687 110b BE000000 		movl	$.LC30, %esi
 2687      00
 2688 1110 4889C7   		movq	%rax, %rdi
 2689 1113 E8000000 		call	_ZN8UnitTest4TestC2EPKcS2_S2_i
 2689      00
 2690 1118 488B45F8 		movq	-8(%rbp), %rax
 2691 111c 48C70000 		movq	$_ZTVN12_GLOBAL__N_118TestCheckCloseTrueE+16, (%rax)
 2691      000000
 2692              	.LBE36:
 2693 1123 C9       		leave
 2694              		.cfi_def_cfa 7, 8
 2695 1124 C3       		ret
 2696              		.cfi_endproc
 2697              	.LFE1112:
 2699              		.local	_ZN12_GLOBAL__N_126testCheckCloseTrueInstanceE
 2700              		.comm	_ZN12_GLOBAL__N_126testCheckCloseTrueInstanceE,56,32
 2701              		.local	_ZN12_GLOBAL__N_119adderCheckCloseTrueE
 2702              		.comm	_ZN12_GLOBAL__N_119adderCheckCloseTrueE,1,1
 2703 1125 90       		.align 2
 2705              	_ZNK12_GLOBAL__N_118TestCheckCloseTrue7RunImplEv:
 2706              	.LFB1114:
 100:TestChecks.cpp **** {
 2707              		.loc 5 100 0
 2708              		.cfi_startproc
 2709              		.cfi_personality 0x3,__gxx_personality_v0
 2710              		.cfi_lsda 0x3,.LLSDA1114
 2711 1126 55       		pushq	%rbp
 2712              		.cfi_def_cfa_offset 16
 2713              		.cfi_offset 6, -16
 2714 1127 4889E5   		movq	%rsp, %rbp
 2715              		.cfi_def_cfa_register 6
 2716 112a 53       		pushq	%rbx
 2717 112b 4883EC78 		subq	$120, %rsp
 2718              		.cfi_offset 3, -24
 2719 112f 48897D88 		movq	%rdi, -120(%rbp)
 2720              		.loc 5 100 0
 2721 1133 64488B04 		movq	%fs:40, %rax
 2721      25280000 
 2721      00
 2722 113c 488945E8 		movq	%rax, -24(%rbp)
 2723 1140 31C0     		xorl	%eax, %eax
 2724              	.LBB37:
 101:TestChecks.cpp ****     TestResults results;
 2725              		.loc 5 101 0
 2726 1142 488D45A0 		leaq	-96(%rbp), %rax
 2727 1146 BE000000 		movl	$0, %esi
 2727      00
 2728 114b 4889C7   		movq	%rax, %rdi
 2729              	.LEHB63:
 2730 114e E8000000 		call	_ZN8UnitTest11TestResultsC1EPNS_12TestReporterE
 2730      00
 102:TestChecks.cpp ****     CheckClose(results, 3.001f, 3.0f, 0.1f, TestDetails("", "", "", 0));
 2731              		.loc 5 102 0
 2732 1153 488D45C0 		leaq	-64(%rbp), %rax
 2733 1157 41B80000 		movl	$0, %r8d
 2733      0000
 2734 115d B9000000 		movl	$.LC6, %ecx
 2734      00
 2735 1162 BA000000 		movl	$.LC6, %edx
 2735      00
 2736 1167 BE000000 		movl	$.LC6, %esi
 2736      00
 2737 116c 4889C7   		movq	%rax, %rdi
 2738 116f E8000000 		call	_ZN8UnitTest11TestDetailsC1EPKcS2_S2_i
 2738      00
 2739 1174 8B050000 		movl	.LC31(%rip), %eax
 2739      0000
 2740 117a 89459C   		movl	%eax, -100(%rbp)
 2741 117d 8B050000 		movl	.LC32(%rip), %eax
 2741      0000
 2742 1183 894598   		movl	%eax, -104(%rbp)
 2743 1186 8B050000 		movl	.LC33(%rip), %eax
 2743      0000
 2744 118c 894594   		movl	%eax, -108(%rbp)
 2745 118f 488D7DC0 		leaq	-64(%rbp), %rdi
 2746 1193 488D4D9C 		leaq	-100(%rbp), %rcx
 2747 1197 488D5598 		leaq	-104(%rbp), %rdx
 2748 119b 488D7594 		leaq	-108(%rbp), %rsi
 2749 119f 488D45A0 		leaq	-96(%rbp), %rax
 2750 11a3 4989F8   		movq	%rdi, %r8
 2751 11a6 4889C7   		movq	%rax, %rdi
 2752 11a9 E8000000 		call	_ZN8UnitTest10CheckCloseIfffEEvRNS_11TestResultsERKT_RKT0_RKT1_RKNS_11TestDetailsE
 2752      00
 2753              	.LEHE63:
 2754              	.LEHB64:
 103:TestChecks.cpp ****     CHECK_EQUAL(0, results.GetFailureCount());
 2755              		.loc 5 103 0
 2756 11ae E8000000 		call	_ZN8UnitTest11CurrentTest7DetailsEv
 2756      00
 2757 11b3 488B08   		movq	(%rax), %rcx
 2758 11b6 488D45C0 		leaq	-64(%rbp), %rax
 2759 11ba BA670000 		movl	$103, %edx
 2759      00
 2760 11bf 4889CE   		movq	%rcx, %rsi
 2761 11c2 4889C7   		movq	%rax, %rdi
 2762 11c5 E8000000 		call	_ZN8UnitTest11TestDetailsC1ERKS0_i
 2762      00
 2763              		.loc 5 103 0 is_stmt 0 discriminator 2
 2764 11ca 488D45A0 		leaq	-96(%rbp), %rax
 2765 11ce 4889C7   		movq	%rax, %rdi
 2766 11d1 E8000000 		call	_ZNK8UnitTest11TestResults15GetFailureCountEv
 2766      00
 2767 11d6 89459C   		movl	%eax, -100(%rbp)
 2768 11d9 C7459800 		movl	$0, -104(%rbp)
 2768      000000
 2769 11e0 E8000000 		call	_ZN8UnitTest11CurrentTest7ResultsEv
 2769      00
 2770              		.loc 5 103 0 discriminator 4
 2771 11e5 488B00   		movq	(%rax), %rax
 2772 11e8 488D4DC0 		leaq	-64(%rbp), %rcx
 2773 11ec 488D559C 		leaq	-100(%rbp), %rdx
 2774 11f0 488D7598 		leaq	-104(%rbp), %rsi
 2775 11f4 4889C7   		movq	%rax, %rdi
 2776 11f7 E8000000 		call	_ZN8UnitTest10CheckEqualIiiEEvRNS_11TestResultsERKT_RKT0_RKNS_11TestDetailsE
 2776      00
 2777              	.LEHE64:
 2778              	.LBE37:
 104:TestChecks.cpp **** }
 2779              		.loc 5 104 0 is_stmt 1
 2780 11fc EB58     		jmp	.L128
 2781              	.L127:
 2782 11fe 4889C3   		movq	%rax, %rbx
 2783              	.LBB38:
 103:TestChecks.cpp ****     CHECK_EQUAL(0, results.GetFailureCount());
 2784              		.loc 5 103 0
 2785 1201 E8000000 		call	__cxa_end_catch
 2785      00
 2786 1206 4889D8   		movq	%rbx, %rax
 2787 1209 4889C7   		movq	%rax, %rdi
 2788              	.LEHB65:
 2789 120c E8000000 		call	_Unwind_Resume
 2789      00
 2790              	.LEHE65:
 2791              	.L126:
 2792 1211 4889C7   		movq	%rax, %rdi
 2793 1214 E8000000 		call	__cxa_begin_catch
 2793      00
 2794              	.LEHB66:
 2795 1219 E8000000 		call	_ZN8UnitTest11CurrentTest7DetailsEv
 2795      00
 2796 121e 488B08   		movq	(%rax), %rcx
 2797 1221 488D45C0 		leaq	-64(%rbp), %rax
 2798 1225 BA670000 		movl	$103, %edx
 2798      00
 2799 122a 4889CE   		movq	%rcx, %rsi
 2800 122d 4889C7   		movq	%rax, %rdi
 2801 1230 E8000000 		call	_ZN8UnitTest11TestDetailsC1ERKS0_i
 2801      00
 103:TestChecks.cpp ****     CHECK_EQUAL(0, results.GetFailureCount());
 2802              		.loc 5 103 0 is_stmt 0 discriminator 12
 2803 1235 E8000000 		call	_ZN8UnitTest11CurrentTest7ResultsEv
 2803      00
 2804 123a 488B00   		movq	(%rax), %rax
 2805 123d 488D4DC0 		leaq	-64(%rbp), %rcx
 2806 1241 BA000000 		movl	$.LC9, %edx
 2806      00
 2807 1246 4889CE   		movq	%rcx, %rsi
 2808 1249 4889C7   		movq	%rax, %rdi
 2809 124c E8000000 		call	_ZN8UnitTest11TestResults13OnTestFailureERKNS_11TestDetailsEPKc
 2809      00
 2810              	.LEHE66:
 2811              	.LEHB67:
 103:TestChecks.cpp ****     CHECK_EQUAL(0, results.GetFailureCount());
 2812              		.loc 5 103 0 discriminator 16
 2813 1251 E8000000 		call	__cxa_end_catch
 2813      00
 2814              	.LEHE67:
 2815              	.L128:
 2816              	.LBE38:
 2817              		.loc 5 104 0 is_stmt 1
 2818 1256 90       		nop
 2819 1257 488B45E8 		movq	-24(%rbp), %rax
 2820 125b 64483304 		xorq	%fs:40, %rax
 2820      25280000 
 2820      00
 2821 1264 7405     		je	.L125
 2822 1266 E8000000 		call	__stack_chk_fail
 2822      00
 2823              	.L125:
 2824 126b 4883C478 		addq	$120, %rsp
 2825 126f 5B       		popq	%rbx
 2826 1270 5D       		popq	%rbp
 2827              		.cfi_def_cfa 7, 8
 2828 1271 C3       		ret
 2829              		.cfi_endproc
 2830              	.LFE1114:
 2831              		.section	.gcc_except_table
 2832              		.align 4
 2833              	.LLSDA1114:
 2834 01b4 FF       		.byte	0xff
 2835 01b5 03       		.byte	0x3
 2836 01b6 25       		.uleb128 .LLSDATT1114-.LLSDATTD1114
 2837              	.LLSDATTD1114:
 2838 01b7 01       		.byte	0x1
 2839 01b8 1A       		.uleb128 .LLSDACSE1114-.LLSDACSB1114
 2840              	.LLSDACSB1114:
 2841 01b9 28       		.uleb128 .LEHB63-.LFB1114
 2842 01ba 60       		.uleb128 .LEHE63-.LEHB63
 2843 01bb 00       		.uleb128 0
 2844 01bc 00       		.uleb128 0
 2845 01bd 8801     		.uleb128 .LEHB64-.LFB1114
 2846 01bf 4E       		.uleb128 .LEHE64-.LEHB64
 2847 01c0 EB01     		.uleb128 .L126-.LFB1114
 2848 01c2 01       		.uleb128 0x1
 2849 01c3 E601     		.uleb128 .LEHB65-.LFB1114
 2850 01c5 05       		.uleb128 .LEHE65-.LEHB65
 2851 01c6 00       		.uleb128 0
 2852 01c7 00       		.uleb128 0
 2853 01c8 F301     		.uleb128 .LEHB66-.LFB1114
 2854 01ca 38       		.uleb128 .LEHE66-.LEHB66
 2855 01cb D801     		.uleb128 .L127-.LFB1114
 2856 01cd 00       		.uleb128 0
 2857 01ce AB02     		.uleb128 .LEHB67-.LFB1114
 2858 01d0 05       		.uleb128 .LEHE67-.LEHB67
 2859 01d1 00       		.uleb128 0
 2860 01d2 00       		.uleb128 0
 2861              	.LLSDACSE1114:
 2862 01d3 01       		.byte	0x1
 2863 01d4 00       		.byte	0
 2864 01d5 000000   		.align 4
 2865 01d8 00000000 		.long	0
 2866              	
 2867              	.LLSDATT1114:
 2868              		.text
 2870              		.section	.rodata
 2871              	.LC34:
 2872 04f0 43686563 		.string	"CheckCloseFalse"
 2872      6B436C6F 
 2872      73654661 
 2872      6C736500 
 2873              		.text
 2874              		.align 2
 2876              	_ZN12_GLOBAL__N_119TestCheckCloseFalseC2Ev:
 2877              	.LFB1116:
 105:TestChecks.cpp **** 
 106:TestChecks.cpp **** TEST(CheckCloseFalse)
 2878              		.loc 5 106 0
 2879              		.cfi_startproc
 2880 1272 55       		pushq	%rbp
 2881              		.cfi_def_cfa_offset 16
 2882              		.cfi_offset 6, -16
 2883 1273 4889E5   		movq	%rsp, %rbp
 2884              		.cfi_def_cfa_register 6
 2885 1276 4883EC10 		subq	$16, %rsp
 2886 127a 48897DF8 		movq	%rdi, -8(%rbp)
 2887              	.LBB39:
 2888              		.loc 5 106 0
 2889 127e E8000000 		call	_ZN13UnitTestSuite12GetSuiteNameEv
 2889      00
 2890 1283 4889C2   		movq	%rax, %rdx
 2891 1286 488B45F8 		movq	-8(%rbp), %rax
 2892 128a 41B86A00 		movl	$106, %r8d
 2892      0000
 2893 1290 B9000000 		movl	$.LC2, %ecx
 2893      00
 2894 1295 BE000000 		movl	$.LC34, %esi
 2894      00
 2895 129a 4889C7   		movq	%rax, %rdi
 2896 129d E8000000 		call	_ZN8UnitTest4TestC2EPKcS2_S2_i
 2896      00
 2897 12a2 488B45F8 		movq	-8(%rbp), %rax
 2898 12a6 48C70000 		movq	$_ZTVN12_GLOBAL__N_119TestCheckCloseFalseE+16, (%rax)
 2898      000000
 2899              	.LBE39:
 2900 12ad C9       		leave
 2901              		.cfi_def_cfa 7, 8
 2902 12ae C3       		ret
 2903              		.cfi_endproc
 2904              	.LFE1116:
 2906              		.local	_ZN12_GLOBAL__N_127testCheckCloseFalseInstanceE
 2907              		.comm	_ZN12_GLOBAL__N_127testCheckCloseFalseInstanceE,56,32
 2908              		.local	_ZN12_GLOBAL__N_120adderCheckCloseFalseE
 2909              		.comm	_ZN12_GLOBAL__N_120adderCheckCloseFalseE,1,1
 2910 12af 90       		.align 2
 2912              	_ZNK12_GLOBAL__N_119TestCheckCloseFalse7RunImplEv:
 2913              	.LFB1118:
 107:TestChecks.cpp **** {
 2914              		.loc 5 107 0
 2915              		.cfi_startproc
 2916              		.cfi_personality 0x3,__gxx_personality_v0
 2917              		.cfi_lsda 0x3,.LLSDA1118
 2918 12b0 55       		pushq	%rbp
 2919              		.cfi_def_cfa_offset 16
 2920              		.cfi_offset 6, -16
 2921 12b1 4889E5   		movq	%rsp, %rbp
 2922              		.cfi_def_cfa_register 6
 2923 12b4 53       		pushq	%rbx
 2924 12b5 4883EC78 		subq	$120, %rsp
 2925              		.cfi_offset 3, -24
 2926 12b9 48897D88 		movq	%rdi, -120(%rbp)
 2927              		.loc 5 107 0
 2928 12bd 64488B04 		movq	%fs:40, %rax
 2928      25280000 
 2928      00
 2929 12c6 488945E8 		movq	%rax, -24(%rbp)
 2930 12ca 31C0     		xorl	%eax, %eax
 2931              	.LBB40:
 108:TestChecks.cpp ****     TestResults results;
 2932              		.loc 5 108 0
 2933 12cc 488D45A0 		leaq	-96(%rbp), %rax
 2934 12d0 BE000000 		movl	$0, %esi
 2934      00
 2935 12d5 4889C7   		movq	%rax, %rdi
 2936              	.LEHB68:
 2937 12d8 E8000000 		call	_ZN8UnitTest11TestResultsC1EPNS_12TestReporterE
 2937      00
 109:TestChecks.cpp ****     CheckClose(results, 3.12f, 3.0f, 0.1f, TestDetails("", "", "", 0));
 2938              		.loc 5 109 0
 2939 12dd 488D45C0 		leaq	-64(%rbp), %rax
 2940 12e1 41B80000 		movl	$0, %r8d
 2940      0000
 2941 12e7 B9000000 		movl	$.LC6, %ecx
 2941      00
 2942 12ec BA000000 		movl	$.LC6, %edx
 2942      00
 2943 12f1 BE000000 		movl	$.LC6, %esi
 2943      00
 2944 12f6 4889C7   		movq	%rax, %rdi
 2945 12f9 E8000000 		call	_ZN8UnitTest11TestDetailsC1EPKcS2_S2_i
 2945      00
 2946 12fe 8B050000 		movl	.LC31(%rip), %eax
 2946      0000
 2947 1304 89459C   		movl	%eax, -100(%rbp)
 2948 1307 8B050000 		movl	.LC32(%rip), %eax
 2948      0000
 2949 130d 894598   		movl	%eax, -104(%rbp)
 2950 1310 8B050000 		movl	.LC35(%rip), %eax
 2950      0000
 2951 1316 894594   		movl	%eax, -108(%rbp)
 2952 1319 488D7DC0 		leaq	-64(%rbp), %rdi
 2953 131d 488D4D9C 		leaq	-100(%rbp), %rcx
 2954 1321 488D5598 		leaq	-104(%rbp), %rdx
 2955 1325 488D7594 		leaq	-108(%rbp), %rsi
 2956 1329 488D45A0 		leaq	-96(%rbp), %rax
 2957 132d 4989F8   		movq	%rdi, %r8
 2958 1330 4889C7   		movq	%rax, %rdi
 2959 1333 E8000000 		call	_ZN8UnitTest10CheckCloseIfffEEvRNS_11TestResultsERKT_RKT0_RKT1_RKNS_11TestDetailsE
 2959      00
 2960              	.LEHE68:
 2961              	.LEHB69:
 110:TestChecks.cpp ****     CHECK_EQUAL(1, results.GetFailureCount());
 2962              		.loc 5 110 0
 2963 1338 E8000000 		call	_ZN8UnitTest11CurrentTest7DetailsEv
 2963      00
 2964 133d 488B08   		movq	(%rax), %rcx
 2965 1340 488D45C0 		leaq	-64(%rbp), %rax
 2966 1344 BA6E0000 		movl	$110, %edx
 2966      00
 2967 1349 4889CE   		movq	%rcx, %rsi
 2968 134c 4889C7   		movq	%rax, %rdi
 2969 134f E8000000 		call	_ZN8UnitTest11TestDetailsC1ERKS0_i
 2969      00
 2970              		.loc 5 110 0 is_stmt 0 discriminator 2
 2971 1354 488D45A0 		leaq	-96(%rbp), %rax
 2972 1358 4889C7   		movq	%rax, %rdi
 2973 135b E8000000 		call	_ZNK8UnitTest11TestResults15GetFailureCountEv
 2973      00
 2974 1360 89459C   		movl	%eax, -100(%rbp)
 2975 1363 C7459801 		movl	$1, -104(%rbp)
 2975      000000
 2976 136a E8000000 		call	_ZN8UnitTest11CurrentTest7ResultsEv
 2976      00
 2977              		.loc 5 110 0 discriminator 4
 2978 136f 488B00   		movq	(%rax), %rax
 2979 1372 488D4DC0 		leaq	-64(%rbp), %rcx
 2980 1376 488D559C 		leaq	-100(%rbp), %rdx
 2981 137a 488D7598 		leaq	-104(%rbp), %rsi
 2982 137e 4889C7   		movq	%rax, %rdi
 2983 1381 E8000000 		call	_ZN8UnitTest10CheckEqualIiiEEvRNS_11TestResultsERKT_RKT0_RKNS_11TestDetailsE
 2983      00
 2984              	.LEHE69:
 2985              	.LBE40:
 111:TestChecks.cpp **** }
 2986              		.loc 5 111 0 is_stmt 1
 2987 1386 EB58     		jmp	.L137
 2988              	.L136:
 2989 1388 4889C3   		movq	%rax, %rbx
 2990              	.LBB41:
 110:TestChecks.cpp ****     CHECK_EQUAL(1, results.GetFailureCount());
 2991              		.loc 5 110 0
 2992 138b E8000000 		call	__cxa_end_catch
 2992      00
 2993 1390 4889D8   		movq	%rbx, %rax
 2994 1393 4889C7   		movq	%rax, %rdi
 2995              	.LEHB70:
 2996 1396 E8000000 		call	_Unwind_Resume
 2996      00
 2997              	.LEHE70:
 2998              	.L135:
 2999 139b 4889C7   		movq	%rax, %rdi
 3000 139e E8000000 		call	__cxa_begin_catch
 3000      00
 3001              	.LEHB71:
 3002 13a3 E8000000 		call	_ZN8UnitTest11CurrentTest7DetailsEv
 3002      00
 3003 13a8 488B08   		movq	(%rax), %rcx
 3004 13ab 488D45C0 		leaq	-64(%rbp), %rax
 3005 13af BA6E0000 		movl	$110, %edx
 3005      00
 3006 13b4 4889CE   		movq	%rcx, %rsi
 3007 13b7 4889C7   		movq	%rax, %rdi
 3008 13ba E8000000 		call	_ZN8UnitTest11TestDetailsC1ERKS0_i
 3008      00
 110:TestChecks.cpp ****     CHECK_EQUAL(1, results.GetFailureCount());
 3009              		.loc 5 110 0 is_stmt 0 discriminator 12
 3010 13bf E8000000 		call	_ZN8UnitTest11CurrentTest7ResultsEv
 3010      00
 3011 13c4 488B00   		movq	(%rax), %rax
 3012 13c7 488D4DC0 		leaq	-64(%rbp), %rcx
 3013 13cb BA000000 		movl	$.LC7, %edx
 3013      00
 3014 13d0 4889CE   		movq	%rcx, %rsi
 3015 13d3 4889C7   		movq	%rax, %rdi
 3016 13d6 E8000000 		call	_ZN8UnitTest11TestResults13OnTestFailureERKNS_11TestDetailsEPKc
 3016      00
 3017              	.LEHE71:
 3018              	.LEHB72:
 110:TestChecks.cpp ****     CHECK_EQUAL(1, results.GetFailureCount());
 3019              		.loc 5 110 0 discriminator 16
 3020 13db E8000000 		call	__cxa_end_catch
 3020      00
 3021              	.LEHE72:
 3022              	.L137:
 3023              	.LBE41:
 3024              		.loc 5 111 0 is_stmt 1
 3025 13e0 90       		nop
 3026 13e1 488B45E8 		movq	-24(%rbp), %rax
 3027 13e5 64483304 		xorq	%fs:40, %rax
 3027      25280000 
 3027      00
 3028 13ee 7405     		je	.L134
 3029 13f0 E8000000 		call	__stack_chk_fail
 3029      00
 3030              	.L134:
 3031 13f5 4883C478 		addq	$120, %rsp
 3032 13f9 5B       		popq	%rbx
 3033 13fa 5D       		popq	%rbp
 3034              		.cfi_def_cfa 7, 8
 3035 13fb C3       		ret
 3036              		.cfi_endproc
 3037              	.LFE1118:
 3038              		.section	.gcc_except_table
 3039              		.align 4
 3040              	.LLSDA1118:
 3041 01dc FF       		.byte	0xff
 3042 01dd 03       		.byte	0x3
 3043 01de 25       		.uleb128 .LLSDATT1118-.LLSDATTD1118
 3044              	.LLSDATTD1118:
 3045 01df 01       		.byte	0x1
 3046 01e0 1A       		.uleb128 .LLSDACSE1118-.LLSDACSB1118
 3047              	.LLSDACSB1118:
 3048 01e1 28       		.uleb128 .LEHB68-.LFB1118
 3049 01e2 60       		.uleb128 .LEHE68-.LEHB68
 3050 01e3 00       		.uleb128 0
 3051 01e4 00       		.uleb128 0
 3052 01e5 8801     		.uleb128 .LEHB69-.LFB1118
 3053 01e7 4E       		.uleb128 .LEHE69-.LEHB69
 3054 01e8 EB01     		.uleb128 .L135-.LFB1118
 3055 01ea 01       		.uleb128 0x1
 3056 01eb E601     		.uleb128 .LEHB70-.LFB1118
 3057 01ed 05       		.uleb128 .LEHE70-.LEHB70
 3058 01ee 00       		.uleb128 0
 3059 01ef 00       		.uleb128 0
 3060 01f0 F301     		.uleb128 .LEHB71-.LFB1118
 3061 01f2 38       		.uleb128 .LEHE71-.LEHB71
 3062 01f3 D801     		.uleb128 .L136-.LFB1118
 3063 01f5 00       		.uleb128 0
 3064 01f6 AB02     		.uleb128 .LEHB72-.LFB1118
 3065 01f8 05       		.uleb128 .LEHE72-.LEHB72
 3066 01f9 00       		.uleb128 0
 3067 01fa 00       		.uleb128 0
 3068              	.LLSDACSE1118:
 3069 01fb 01       		.byte	0x1
 3070 01fc 00       		.byte	0
 3071 01fd 000000   		.align 4
 3072 0200 00000000 		.long	0
 3073              	
 3074              	.LLSDATT1118:
 3075              		.text
 3077              		.section	.rodata
 3078              		.align 8
 3079              	.LC36:
 3080 0500 43686563 		.string	"CheckCloseWithZeroEpsilonWorksForSameNumber"
 3080      6B436C6F 
 3080      73655769 
 3080      74685A65 
 3080      726F4570 
 3081              		.text
 3082              		.align 2
 3084              	_ZN12_GLOBAL__N_147TestCheckCloseWithZeroEpsilonWorksForSameNumberC2Ev:
 3085              	.LFB1120:
 112:TestChecks.cpp **** 
 113:TestChecks.cpp **** TEST(CheckCloseWithZeroEpsilonWorksForSameNumber)
 3086              		.loc 5 113 0
 3087              		.cfi_startproc
 3088 13fc 55       		pushq	%rbp
 3089              		.cfi_def_cfa_offset 16
 3090              		.cfi_offset 6, -16
 3091 13fd 4889E5   		movq	%rsp, %rbp
 3092              		.cfi_def_cfa_register 6
 3093 1400 4883EC10 		subq	$16, %rsp
 3094 1404 48897DF8 		movq	%rdi, -8(%rbp)
 3095              	.LBB42:
 3096              		.loc 5 113 0
 3097 1408 E8000000 		call	_ZN13UnitTestSuite12GetSuiteNameEv
 3097      00
 3098 140d 4889C2   		movq	%rax, %rdx
 3099 1410 488B45F8 		movq	-8(%rbp), %rax
 3100 1414 41B87100 		movl	$113, %r8d
 3100      0000
 3101 141a B9000000 		movl	$.LC2, %ecx
 3101      00
 3102 141f BE000000 		movl	$.LC36, %esi
 3102      00
 3103 1424 4889C7   		movq	%rax, %rdi
 3104 1427 E8000000 		call	_ZN8UnitTest4TestC2EPKcS2_S2_i
 3104      00
 3105 142c 488B45F8 		movq	-8(%rbp), %rax
 3106 1430 48C70000 		movq	$_ZTVN12_GLOBAL__N_147TestCheckCloseWithZeroEpsilonWorksForSameNumberE+16, (%rax)
 3106      000000
 3107              	.LBE42:
 3108 1437 C9       		leave
 3109              		.cfi_def_cfa 7, 8
 3110 1438 C3       		ret
 3111              		.cfi_endproc
 3112              	.LFE1120:
 3114              		.local	_ZN12_GLOBAL__N_155testCheckCloseWithZeroEpsilonWorksForSameNumberInstanceE
 3115              		.comm	_ZN12_GLOBAL__N_155testCheckCloseWithZeroEpsilonWorksForSameNumberInstanceE,56,32
 3116              		.local	_ZN12_GLOBAL__N_148adderCheckCloseWithZeroEpsilonWorksForSameNumberE
 3117              		.comm	_ZN12_GLOBAL__N_148adderCheckCloseWithZeroEpsilonWorksForSameNumberE,1,1
 3118 1439 90       		.align 2
 3120              	_ZNK12_GLOBAL__N_147TestCheckCloseWithZeroEpsilonWorksForSameNumber7RunImplEv:
 3121              	.LFB1122:
 114:TestChecks.cpp **** {
 3122              		.loc 5 114 0
 3123              		.cfi_startproc
 3124              		.cfi_personality 0x3,__gxx_personality_v0
 3125              		.cfi_lsda 0x3,.LLSDA1122
 3126 143a 55       		pushq	%rbp
 3127              		.cfi_def_cfa_offset 16
 3128              		.cfi_offset 6, -16
 3129 143b 4889E5   		movq	%rsp, %rbp
 3130              		.cfi_def_cfa_register 6
 3131 143e 53       		pushq	%rbx
 3132 143f 4883EC78 		subq	$120, %rsp
 3133              		.cfi_offset 3, -24
 3134 1443 48897D88 		movq	%rdi, -120(%rbp)
 3135              		.loc 5 114 0
 3136 1447 64488B04 		movq	%fs:40, %rax
 3136      25280000 
 3136      00
 3137 1450 488945E8 		movq	%rax, -24(%rbp)
 3138 1454 31C0     		xorl	%eax, %eax
 3139              	.LBB43:
 115:TestChecks.cpp ****     TestResults results;
 3140              		.loc 5 115 0
 3141 1456 488D45A0 		leaq	-96(%rbp), %rax
 3142 145a BE000000 		movl	$0, %esi
 3142      00
 3143 145f 4889C7   		movq	%rax, %rdi
 3144              	.LEHB73:
 3145 1462 E8000000 		call	_ZN8UnitTest11TestResultsC1EPNS_12TestReporterE
 3145      00
 116:TestChecks.cpp ****     CheckClose(results, 0.1f, 0.1f, 0, TestDetails("", "", "", 0));
 3146              		.loc 5 116 0
 3147 1467 488D45C0 		leaq	-64(%rbp), %rax
 3148 146b 41B80000 		movl	$0, %r8d
 3148      0000
 3149 1471 B9000000 		movl	$.LC6, %ecx
 3149      00
 3150 1476 BA000000 		movl	$.LC6, %edx
 3150      00
 3151 147b BE000000 		movl	$.LC6, %esi
 3151      00
 3152 1480 4889C7   		movq	%rax, %rdi
 3153 1483 E8000000 		call	_ZN8UnitTest11TestDetailsC1EPKcS2_S2_i
 3153      00
 3154 1488 C7459C00 		movl	$0, -100(%rbp)
 3154      000000
 3155 148f 8B050000 		movl	.LC31(%rip), %eax
 3155      0000
 3156 1495 894598   		movl	%eax, -104(%rbp)
 3157 1498 8B050000 		movl	.LC31(%rip), %eax
 3157      0000
 3158 149e 894594   		movl	%eax, -108(%rbp)
 3159 14a1 488D7DC0 		leaq	-64(%rbp), %rdi
 3160 14a5 488D4D9C 		leaq	-100(%rbp), %rcx
 3161 14a9 488D5598 		leaq	-104(%rbp), %rdx
 3162 14ad 488D7594 		leaq	-108(%rbp), %rsi
 3163 14b1 488D45A0 		leaq	-96(%rbp), %rax
 3164 14b5 4989F8   		movq	%rdi, %r8
 3165 14b8 4889C7   		movq	%rax, %rdi
 3166 14bb E8000000 		call	_ZN8UnitTest10CheckCloseIffiEEvRNS_11TestResultsERKT_RKT0_RKT1_RKNS_11TestDetailsE
 3166      00
 3167              	.LEHE73:
 3168              	.LEHB74:
 117:TestChecks.cpp ****     CHECK_EQUAL(0, results.GetFailureCount());
 3169              		.loc 5 117 0
 3170 14c0 E8000000 		call	_ZN8UnitTest11CurrentTest7DetailsEv
 3170      00
 3171 14c5 488B08   		movq	(%rax), %rcx
 3172 14c8 488D45C0 		leaq	-64(%rbp), %rax
 3173 14cc BA750000 		movl	$117, %edx
 3173      00
 3174 14d1 4889CE   		movq	%rcx, %rsi
 3175 14d4 4889C7   		movq	%rax, %rdi
 3176 14d7 E8000000 		call	_ZN8UnitTest11TestDetailsC1ERKS0_i
 3176      00
 3177              		.loc 5 117 0 is_stmt 0 discriminator 2
 3178 14dc 488D45A0 		leaq	-96(%rbp), %rax
 3179 14e0 4889C7   		movq	%rax, %rdi
 3180 14e3 E8000000 		call	_ZNK8UnitTest11TestResults15GetFailureCountEv
 3180      00
 3181 14e8 89459C   		movl	%eax, -100(%rbp)
 3182 14eb C7459800 		movl	$0, -104(%rbp)
 3182      000000
 3183 14f2 E8000000 		call	_ZN8UnitTest11CurrentTest7ResultsEv
 3183      00
 3184              		.loc 5 117 0 discriminator 4
 3185 14f7 488B00   		movq	(%rax), %rax
 3186 14fa 488D4DC0 		leaq	-64(%rbp), %rcx
 3187 14fe 488D559C 		leaq	-100(%rbp), %rdx
 3188 1502 488D7598 		leaq	-104(%rbp), %rsi
 3189 1506 4889C7   		movq	%rax, %rdi
 3190 1509 E8000000 		call	_ZN8UnitTest10CheckEqualIiiEEvRNS_11TestResultsERKT_RKT0_RKNS_11TestDetailsE
 3190      00
 3191              	.LEHE74:
 3192              	.LBE43:
 118:TestChecks.cpp **** }
 3193              		.loc 5 118 0 is_stmt 1
 3194 150e EB58     		jmp	.L146
 3195              	.L145:
 3196 1510 4889C3   		movq	%rax, %rbx
 3197              	.LBB44:
 117:TestChecks.cpp ****     CHECK_EQUAL(0, results.GetFailureCount());
 3198              		.loc 5 117 0
 3199 1513 E8000000 		call	__cxa_end_catch
 3199      00
 3200 1518 4889D8   		movq	%rbx, %rax
 3201 151b 4889C7   		movq	%rax, %rdi
 3202              	.LEHB75:
 3203 151e E8000000 		call	_Unwind_Resume
 3203      00
 3204              	.LEHE75:
 3205              	.L144:
 3206 1523 4889C7   		movq	%rax, %rdi
 3207 1526 E8000000 		call	__cxa_begin_catch
 3207      00
 3208              	.LEHB76:
 3209 152b E8000000 		call	_ZN8UnitTest11CurrentTest7DetailsEv
 3209      00
 3210 1530 488B08   		movq	(%rax), %rcx
 3211 1533 488D45C0 		leaq	-64(%rbp), %rax
 3212 1537 BA750000 		movl	$117, %edx
 3212      00
 3213 153c 4889CE   		movq	%rcx, %rsi
 3214 153f 4889C7   		movq	%rax, %rdi
 3215 1542 E8000000 		call	_ZN8UnitTest11TestDetailsC1ERKS0_i
 3215      00
 117:TestChecks.cpp ****     CHECK_EQUAL(0, results.GetFailureCount());
 3216              		.loc 5 117 0 is_stmt 0 discriminator 12
 3217 1547 E8000000 		call	_ZN8UnitTest11CurrentTest7ResultsEv
 3217      00
 3218 154c 488B00   		movq	(%rax), %rax
 3219 154f 488D4DC0 		leaq	-64(%rbp), %rcx
 3220 1553 BA000000 		movl	$.LC9, %edx
 3220      00
 3221 1558 4889CE   		movq	%rcx, %rsi
 3222 155b 4889C7   		movq	%rax, %rdi
 3223 155e E8000000 		call	_ZN8UnitTest11TestResults13OnTestFailureERKNS_11TestDetailsEPKc
 3223      00
 3224              	.LEHE76:
 3225              	.LEHB77:
 117:TestChecks.cpp ****     CHECK_EQUAL(0, results.GetFailureCount());
 3226              		.loc 5 117 0 discriminator 16
 3227 1563 E8000000 		call	__cxa_end_catch
 3227      00
 3228              	.LEHE77:
 3229              	.L146:
 3230              	.LBE44:
 3231              		.loc 5 118 0 is_stmt 1
 3232 1568 90       		nop
 3233 1569 488B45E8 		movq	-24(%rbp), %rax
 3234 156d 64483304 		xorq	%fs:40, %rax
 3234      25280000 
 3234      00
 3235 1576 7405     		je	.L143
 3236 1578 E8000000 		call	__stack_chk_fail
 3236      00
 3237              	.L143:
 3238 157d 4883C478 		addq	$120, %rsp
 3239 1581 5B       		popq	%rbx
 3240 1582 5D       		popq	%rbp
 3241              		.cfi_def_cfa 7, 8
 3242 1583 C3       		ret
 3243              		.cfi_endproc
 3244              	.LFE1122:
 3245              		.section	.gcc_except_table
 3246              		.align 4
 3247              	.LLSDA1122:
 3248 0204 FF       		.byte	0xff
 3249 0205 03       		.byte	0x3
 3250 0206 25       		.uleb128 .LLSDATT1122-.LLSDATTD1122
 3251              	.LLSDATTD1122:
 3252 0207 01       		.byte	0x1
 3253 0208 1A       		.uleb128 .LLSDACSE1122-.LLSDACSB1122
 3254              	.LLSDACSB1122:
 3255 0209 28       		.uleb128 .LEHB73-.LFB1122
 3256 020a 5E       		.uleb128 .LEHE73-.LEHB73
 3257 020b 00       		.uleb128 0
 3258 020c 00       		.uleb128 0
 3259 020d 8601     		.uleb128 .LEHB74-.LFB1122
 3260 020f 4E       		.uleb128 .LEHE74-.LEHB74
 3261 0210 E901     		.uleb128 .L144-.LFB1122
 3262 0212 01       		.uleb128 0x1
 3263 0213 E401     		.uleb128 .LEHB75-.LFB1122
 3264 0215 05       		.uleb128 .LEHE75-.LEHB75
 3265 0216 00       		.uleb128 0
 3266 0217 00       		.uleb128 0
 3267 0218 F101     		.uleb128 .LEHB76-.LFB1122
 3268 021a 38       		.uleb128 .LEHE76-.LEHB76
 3269 021b D601     		.uleb128 .L145-.LFB1122
 3270 021d 00       		.uleb128 0
 3271 021e A902     		.uleb128 .LEHB77-.LFB1122
 3272 0220 05       		.uleb128 .LEHE77-.LEHB77
 3273 0221 00       		.uleb128 0
 3274 0222 00       		.uleb128 0
 3275              	.LLSDACSE1122:
 3276 0223 01       		.byte	0x1
 3277 0224 00       		.byte	0
 3278 0225 000000   		.align 4
 3279 0228 00000000 		.long	0
 3280              	
 3281              	.LLSDATT1122:
 3282              		.text
 3284              		.section	.rodata
 3285              	.LC37:
 3286 052c 43686563 		.string	"CheckCloseWithNaNFails"
 3286      6B436C6F 
 3286      73655769 
 3286      74684E61 
 3286      4E466169 
 3287              		.text
 3288              		.align 2
 3290              	_ZN12_GLOBAL__N_126TestCheckCloseWithNaNFailsC2Ev:
 3291              	.LFB1124:
 119:TestChecks.cpp **** 
 120:TestChecks.cpp **** TEST(CheckCloseWithNaNFails)
 3292              		.loc 5 120 0
 3293              		.cfi_startproc
 3294 1584 55       		pushq	%rbp
 3295              		.cfi_def_cfa_offset 16
 3296              		.cfi_offset 6, -16
 3297 1585 4889E5   		movq	%rsp, %rbp
 3298              		.cfi_def_cfa_register 6
 3299 1588 4883EC10 		subq	$16, %rsp
 3300 158c 48897DF8 		movq	%rdi, -8(%rbp)
 3301              	.LBB45:
 3302              		.loc 5 120 0
 3303 1590 E8000000 		call	_ZN13UnitTestSuite12GetSuiteNameEv
 3303      00
 3304 1595 4889C2   		movq	%rax, %rdx
 3305 1598 488B45F8 		movq	-8(%rbp), %rax
 3306 159c 41B87800 		movl	$120, %r8d
 3306      0000
 3307 15a2 B9000000 		movl	$.LC2, %ecx
 3307      00
 3308 15a7 BE000000 		movl	$.LC37, %esi
 3308      00
 3309 15ac 4889C7   		movq	%rax, %rdi
 3310 15af E8000000 		call	_ZN8UnitTest4TestC2EPKcS2_S2_i
 3310      00
 3311 15b4 488B45F8 		movq	-8(%rbp), %rax
 3312 15b8 48C70000 		movq	$_ZTVN12_GLOBAL__N_126TestCheckCloseWithNaNFailsE+16, (%rax)
 3312      000000
 3313              	.LBE45:
 3314 15bf C9       		leave
 3315              		.cfi_def_cfa 7, 8
 3316 15c0 C3       		ret
 3317              		.cfi_endproc
 3318              	.LFE1124:
 3320              		.local	_ZN12_GLOBAL__N_134testCheckCloseWithNaNFailsInstanceE
 3321              		.comm	_ZN12_GLOBAL__N_134testCheckCloseWithNaNFailsInstanceE,56,32
 3322              		.local	_ZN12_GLOBAL__N_127adderCheckCloseWithNaNFailsE
 3323              		.comm	_ZN12_GLOBAL__N_127adderCheckCloseWithNaNFailsE,1,1
 3324 15c1 90       		.align 2
 3326              	_ZNK12_GLOBAL__N_126TestCheckCloseWithNaNFails7RunImplEv:
 3327              	.LFB1126:
 121:TestChecks.cpp **** {
 3328              		.loc 5 121 0
 3329              		.cfi_startproc
 3330              		.cfi_personality 0x3,__gxx_personality_v0
 3331              		.cfi_lsda 0x3,.LLSDA1126
 3332 15c2 55       		pushq	%rbp
 3333              		.cfi_def_cfa_offset 16
 3334              		.cfi_offset 6, -16
 3335 15c3 4889E5   		movq	%rsp, %rbp
 3336              		.cfi_def_cfa_register 6
 3337 15c6 53       		pushq	%rbx
 3338 15c7 4883EC78 		subq	$120, %rsp
 3339              		.cfi_offset 3, -24
 3340 15cb 48897D88 		movq	%rdi, -120(%rbp)
 3341              		.loc 5 121 0
 3342 15cf 64488B04 		movq	%fs:40, %rax
 3342      25280000 
 3342      00
 3343 15d8 488945E8 		movq	%rax, -24(%rbp)
 3344 15dc 31C0     		xorl	%eax, %eax
 3345              	.LBB46:
 122:TestChecks.cpp ****     union
 123:TestChecks.cpp ****     {
 124:TestChecks.cpp ****         unsigned int bitpattern;
 125:TestChecks.cpp ****         float nan;
 126:TestChecks.cpp ****     };
 127:TestChecks.cpp ****     bitpattern = 0xFFFFFFFF;
 3346              		.loc 5 127 0
 3347 15de C74590FF 		movl	$-1, -112(%rbp)
 3347      FFFFFF
 128:TestChecks.cpp ****     TestResults results;
 3348              		.loc 5 128 0
 3349 15e5 488D45A0 		leaq	-96(%rbp), %rax
 3350 15e9 BE000000 		movl	$0, %esi
 3350      00
 3351 15ee 4889C7   		movq	%rax, %rdi
 3352              	.LEHB78:
 3353 15f1 E8000000 		call	_ZN8UnitTest11TestResultsC1EPNS_12TestReporterE
 3353      00
 129:TestChecks.cpp ****     CheckClose(results, 3.0f, nan, 0.1f, TestDetails("", "", "", 0));
 3354              		.loc 5 129 0
 3355 15f6 488D45C0 		leaq	-64(%rbp), %rax
 3356 15fa 41B80000 		movl	$0, %r8d
 3356      0000
 3357 1600 B9000000 		movl	$.LC6, %ecx
 3357      00
 3358 1605 BA000000 		movl	$.LC6, %edx
 3358      00
 3359 160a BE000000 		movl	$.LC6, %esi
 3359      00
 3360 160f 4889C7   		movq	%rax, %rdi
 3361 1612 E8000000 		call	_ZN8UnitTest11TestDetailsC1EPKcS2_S2_i
 3361      00
 3362 1617 8B050000 		movl	.LC31(%rip), %eax
 3362      0000
 3363 161d 89459C   		movl	%eax, -100(%rbp)
 3364 1620 8B050000 		movl	.LC32(%rip), %eax
 3364      0000
 3365 1626 894598   		movl	%eax, -104(%rbp)
 3366 1629 488D7DC0 		leaq	-64(%rbp), %rdi
 3367 162d 488D4D9C 		leaq	-100(%rbp), %rcx
 3368 1631 488D5590 		leaq	-112(%rbp), %rdx
 3369 1635 488D7598 		leaq	-104(%rbp), %rsi
 3370 1639 488D45A0 		leaq	-96(%rbp), %rax
 3371 163d 4989F8   		movq	%rdi, %r8
 3372 1640 4889C7   		movq	%rax, %rdi
 3373 1643 E8000000 		call	_ZN8UnitTest10CheckCloseIfffEEvRNS_11TestResultsERKT_RKT0_RKT1_RKNS_11TestDetailsE
 3373      00
 3374              	.LEHE78:
 3375              	.LEHB79:
 130:TestChecks.cpp ****     CHECK_EQUAL(1, results.GetFailureCount());
 3376              		.loc 5 130 0
 3377 1648 E8000000 		call	_ZN8UnitTest11CurrentTest7DetailsEv
 3377      00
 3378 164d 488B08   		movq	(%rax), %rcx
 3379 1650 488D45C0 		leaq	-64(%rbp), %rax
 3380 1654 BA820000 		movl	$130, %edx
 3380      00
 3381 1659 4889CE   		movq	%rcx, %rsi
 3382 165c 4889C7   		movq	%rax, %rdi
 3383 165f E8000000 		call	_ZN8UnitTest11TestDetailsC1ERKS0_i
 3383      00
 3384              		.loc 5 130 0 is_stmt 0 discriminator 2
 3385 1664 488D45A0 		leaq	-96(%rbp), %rax
 3386 1668 4889C7   		movq	%rax, %rdi
 3387 166b E8000000 		call	_ZNK8UnitTest11TestResults15GetFailureCountEv
 3387      00
 3388 1670 89459C   		movl	%eax, -100(%rbp)
 3389 1673 C7459801 		movl	$1, -104(%rbp)
 3389      000000
 3390 167a E8000000 		call	_ZN8UnitTest11CurrentTest7ResultsEv
 3390      00
 3391              		.loc 5 130 0 discriminator 4
 3392 167f 488B00   		movq	(%rax), %rax
 3393 1682 488D4DC0 		leaq	-64(%rbp), %rcx
 3394 1686 488D559C 		leaq	-100(%rbp), %rdx
 3395 168a 488D7598 		leaq	-104(%rbp), %rsi
 3396 168e 4889C7   		movq	%rax, %rdi
 3397 1691 E8000000 		call	_ZN8UnitTest10CheckEqualIiiEEvRNS_11TestResultsERKT_RKT0_RKNS_11TestDetailsE
 3397      00
 3398              	.LEHE79:
 3399              	.LBE46:
 131:TestChecks.cpp **** }
 3400              		.loc 5 131 0 is_stmt 1
 3401 1696 EB58     		jmp	.L155
 3402              	.L154:
 3403 1698 4889C3   		movq	%rax, %rbx
 3404              	.LBB47:
 130:TestChecks.cpp ****     CHECK_EQUAL(1, results.GetFailureCount());
 3405              		.loc 5 130 0
 3406 169b E8000000 		call	__cxa_end_catch
 3406      00
 3407 16a0 4889D8   		movq	%rbx, %rax
 3408 16a3 4889C7   		movq	%rax, %rdi
 3409              	.LEHB80:
 3410 16a6 E8000000 		call	_Unwind_Resume
 3410      00
 3411              	.LEHE80:
 3412              	.L153:
 3413 16ab 4889C7   		movq	%rax, %rdi
 3414 16ae E8000000 		call	__cxa_begin_catch
 3414      00
 3415              	.LEHB81:
 3416 16b3 E8000000 		call	_ZN8UnitTest11CurrentTest7DetailsEv
 3416      00
 3417 16b8 488B08   		movq	(%rax), %rcx
 3418 16bb 488D45C0 		leaq	-64(%rbp), %rax
 3419 16bf BA820000 		movl	$130, %edx
 3419      00
 3420 16c4 4889CE   		movq	%rcx, %rsi
 3421 16c7 4889C7   		movq	%rax, %rdi
 3422 16ca E8000000 		call	_ZN8UnitTest11TestDetailsC1ERKS0_i
 3422      00
 130:TestChecks.cpp ****     CHECK_EQUAL(1, results.GetFailureCount());
 3423              		.loc 5 130 0 is_stmt 0 discriminator 12
 3424 16cf E8000000 		call	_ZN8UnitTest11CurrentTest7ResultsEv
 3424      00
 3425 16d4 488B00   		movq	(%rax), %rax
 3426 16d7 488D4DC0 		leaq	-64(%rbp), %rcx
 3427 16db BA000000 		movl	$.LC7, %edx
 3427      00
 3428 16e0 4889CE   		movq	%rcx, %rsi
 3429 16e3 4889C7   		movq	%rax, %rdi
 3430 16e6 E8000000 		call	_ZN8UnitTest11TestResults13OnTestFailureERKNS_11TestDetailsEPKc
 3430      00
 3431              	.LEHE81:
 3432              	.LEHB82:
 130:TestChecks.cpp ****     CHECK_EQUAL(1, results.GetFailureCount());
 3433              		.loc 5 130 0 discriminator 16
 3434 16eb E8000000 		call	__cxa_end_catch
 3434      00
 3435              	.LEHE82:
 3436              	.L155:
 3437              	.LBE47:
 3438              		.loc 5 131 0 is_stmt 1
 3439 16f0 90       		nop
 3440 16f1 488B45E8 		movq	-24(%rbp), %rax
 3441 16f5 64483304 		xorq	%fs:40, %rax
 3441      25280000 
 3441      00
 3442 16fe 7405     		je	.L152
 3443 1700 E8000000 		call	__stack_chk_fail
 3443      00
 3444              	.L152:
 3445 1705 4883C478 		addq	$120, %rsp
 3446 1709 5B       		popq	%rbx
 3447 170a 5D       		popq	%rbp
 3448              		.cfi_def_cfa 7, 8
 3449 170b C3       		ret
 3450              		.cfi_endproc
 3451              	.LFE1126:
 3452              		.section	.gcc_except_table
 3453              		.align 4
 3454              	.LLSDA1126:
 3455 022c FF       		.byte	0xff
 3456 022d 03       		.byte	0x3
 3457 022e 25       		.uleb128 .LLSDATT1126-.LLSDATTD1126
 3458              	.LLSDATTD1126:
 3459 022f 01       		.byte	0x1
 3460 0230 1A       		.uleb128 .LLSDACSE1126-.LLSDACSB1126
 3461              	.LLSDACSB1126:
 3462 0231 2F       		.uleb128 .LEHB78-.LFB1126
 3463 0232 57       		.uleb128 .LEHE78-.LEHB78
 3464 0233 00       		.uleb128 0
 3465 0234 00       		.uleb128 0
 3466 0235 8601     		.uleb128 .LEHB79-.LFB1126
 3467 0237 4E       		.uleb128 .LEHE79-.LEHB79
 3468 0238 E901     		.uleb128 .L153-.LFB1126
 3469 023a 01       		.uleb128 0x1
 3470 023b E401     		.uleb128 .LEHB80-.LFB1126
 3471 023d 05       		.uleb128 .LEHE80-.LEHB80
 3472 023e 00       		.uleb128 0
 3473 023f 00       		.uleb128 0
 3474 0240 F101     		.uleb128 .LEHB81-.LFB1126
 3475 0242 38       		.uleb128 .LEHE81-.LEHB81
 3476 0243 D601     		.uleb128 .L154-.LFB1126
 3477 0245 00       		.uleb128 0
 3478 0246 A902     		.uleb128 .LEHB82-.LFB1126
 3479 0248 05       		.uleb128 .LEHE82-.LEHB82
 3480 0249 00       		.uleb128 0
 3481 024a 00       		.uleb128 0
 3482              	.LLSDACSE1126:
 3483 024b 01       		.byte	0x1
 3484 024c 00       		.byte	0
 3485 024d 000000   		.align 4
 3486 0250 00000000 		.long	0
 3487              	
 3488              	.LLSDATT1126:
 3489              		.text
 3491              		.section	.rodata
 3492 0543 00000000 		.align 8
 3492      00
 3493              	.LC38:
 3494 0548 43686563 		.string	"CheckCloseWithNaNAgainstItselfFails"
 3494      6B436C6F 
 3494      73655769 
 3494      74684E61 
 3494      4E416761 
 3495              		.text
 3496              		.align 2
 3498              	_ZN12_GLOBAL__N_139TestCheckCloseWithNaNAgainstItselfFailsC2Ev:
 3499              	.LFB1128:
 132:TestChecks.cpp **** 
 133:TestChecks.cpp **** TEST(CheckCloseWithNaNAgainstItselfFails)
 3500              		.loc 5 133 0
 3501              		.cfi_startproc
 3502 170c 55       		pushq	%rbp
 3503              		.cfi_def_cfa_offset 16
 3504              		.cfi_offset 6, -16
 3505 170d 4889E5   		movq	%rsp, %rbp
 3506              		.cfi_def_cfa_register 6
 3507 1710 4883EC10 		subq	$16, %rsp
 3508 1714 48897DF8 		movq	%rdi, -8(%rbp)
 3509              	.LBB48:
 3510              		.loc 5 133 0
 3511 1718 E8000000 		call	_ZN13UnitTestSuite12GetSuiteNameEv
 3511      00
 3512 171d 4889C2   		movq	%rax, %rdx
 3513 1720 488B45F8 		movq	-8(%rbp), %rax
 3514 1724 41B88500 		movl	$133, %r8d
 3514      0000
 3515 172a B9000000 		movl	$.LC2, %ecx
 3515      00
 3516 172f BE000000 		movl	$.LC38, %esi
 3516      00
 3517 1734 4889C7   		movq	%rax, %rdi
 3518 1737 E8000000 		call	_ZN8UnitTest4TestC2EPKcS2_S2_i
 3518      00
 3519 173c 488B45F8 		movq	-8(%rbp), %rax
 3520 1740 48C70000 		movq	$_ZTVN12_GLOBAL__N_139TestCheckCloseWithNaNAgainstItselfFailsE+16, (%rax)
 3520      000000
 3521              	.LBE48:
 3522 1747 C9       		leave
 3523              		.cfi_def_cfa 7, 8
 3524 1748 C3       		ret
 3525              		.cfi_endproc
 3526              	.LFE1128:
 3528              		.local	_ZN12_GLOBAL__N_147testCheckCloseWithNaNAgainstItselfFailsInstanceE
 3529              		.comm	_ZN12_GLOBAL__N_147testCheckCloseWithNaNAgainstItselfFailsInstanceE,56,32
 3530              		.local	_ZN12_GLOBAL__N_140adderCheckCloseWithNaNAgainstItselfFailsE
 3531              		.comm	_ZN12_GLOBAL__N_140adderCheckCloseWithNaNAgainstItselfFailsE,1,1
 3532 1749 90       		.align 2
 3534              	_ZNK12_GLOBAL__N_139TestCheckCloseWithNaNAgainstItselfFails7RunImplEv:
 3535              	.LFB1130:
 134:TestChecks.cpp **** {
 3536              		.loc 5 134 0
 3537              		.cfi_startproc
 3538              		.cfi_personality 0x3,__gxx_personality_v0
 3539              		.cfi_lsda 0x3,.LLSDA1130
 3540 174a 55       		pushq	%rbp
 3541              		.cfi_def_cfa_offset 16
 3542              		.cfi_offset 6, -16
 3543 174b 4889E5   		movq	%rsp, %rbp
 3544              		.cfi_def_cfa_register 6
 3545 174e 53       		pushq	%rbx
 3546 174f 4883EC78 		subq	$120, %rsp
 3547              		.cfi_offset 3, -24
 3548 1753 48897D88 		movq	%rdi, -120(%rbp)
 3549              		.loc 5 134 0
 3550 1757 64488B04 		movq	%fs:40, %rax
 3550      25280000 
 3550      00
 3551 1760 488945E8 		movq	%rax, -24(%rbp)
 3552 1764 31C0     		xorl	%eax, %eax
 3553              	.LBB49:
 135:TestChecks.cpp ****     union
 136:TestChecks.cpp ****     {
 137:TestChecks.cpp ****         unsigned int bitpattern;
 138:TestChecks.cpp ****         float nan;
 139:TestChecks.cpp ****     };
 140:TestChecks.cpp ****     bitpattern = 0xFFFFFFFF;
 3554              		.loc 5 140 0
 3555 1766 C74590FF 		movl	$-1, -112(%rbp)
 3555      FFFFFF
 141:TestChecks.cpp ****     TestResults results;
 3556              		.loc 5 141 0
 3557 176d 488D45A0 		leaq	-96(%rbp), %rax
 3558 1771 BE000000 		movl	$0, %esi
 3558      00
 3559 1776 4889C7   		movq	%rax, %rdi
 3560              	.LEHB83:
 3561 1779 E8000000 		call	_ZN8UnitTest11TestResultsC1EPNS_12TestReporterE
 3561      00
 142:TestChecks.cpp ****     CheckClose(results, nan, nan, 0.1f, TestDetails("", "", "", 0));
 3562              		.loc 5 142 0
 3563 177e 488D45C0 		leaq	-64(%rbp), %rax
 3564 1782 41B80000 		movl	$0, %r8d
 3564      0000
 3565 1788 B9000000 		movl	$.LC6, %ecx
 3565      00
 3566 178d BA000000 		movl	$.LC6, %edx
 3566      00
 3567 1792 BE000000 		movl	$.LC6, %esi
 3567      00
 3568 1797 4889C7   		movq	%rax, %rdi
 3569 179a E8000000 		call	_ZN8UnitTest11TestDetailsC1EPKcS2_S2_i
 3569      00
 3570 179f 8B050000 		movl	.LC31(%rip), %eax
 3570      0000
 3571 17a5 89459C   		movl	%eax, -100(%rbp)
 3572 17a8 488D7DC0 		leaq	-64(%rbp), %rdi
 3573 17ac 488D4D9C 		leaq	-100(%rbp), %rcx
 3574 17b0 488D5590 		leaq	-112(%rbp), %rdx
 3575 17b4 488D7590 		leaq	-112(%rbp), %rsi
 3576 17b8 488D45A0 		leaq	-96(%rbp), %rax
 3577 17bc 4989F8   		movq	%rdi, %r8
 3578 17bf 4889C7   		movq	%rax, %rdi
 3579 17c2 E8000000 		call	_ZN8UnitTest10CheckCloseIfffEEvRNS_11TestResultsERKT_RKT0_RKT1_RKNS_11TestDetailsE
 3579      00
 3580              	.LEHE83:
 3581              	.LEHB84:
 143:TestChecks.cpp ****     CHECK_EQUAL(1, results.GetFailureCount());
 3582              		.loc 5 143 0
 3583 17c7 E8000000 		call	_ZN8UnitTest11CurrentTest7DetailsEv
 3583      00
 3584 17cc 488B08   		movq	(%rax), %rcx
 3585 17cf 488D45C0 		leaq	-64(%rbp), %rax
 3586 17d3 BA8F0000 		movl	$143, %edx
 3586      00
 3587 17d8 4889CE   		movq	%rcx, %rsi
 3588 17db 4889C7   		movq	%rax, %rdi
 3589 17de E8000000 		call	_ZN8UnitTest11TestDetailsC1ERKS0_i
 3589      00
 3590              		.loc 5 143 0 is_stmt 0 discriminator 2
 3591 17e3 488D45A0 		leaq	-96(%rbp), %rax
 3592 17e7 4889C7   		movq	%rax, %rdi
 3593 17ea E8000000 		call	_ZNK8UnitTest11TestResults15GetFailureCountEv
 3593      00
 3594 17ef 89459C   		movl	%eax, -100(%rbp)
 3595 17f2 C7459801 		movl	$1, -104(%rbp)
 3595      000000
 3596 17f9 E8000000 		call	_ZN8UnitTest11CurrentTest7ResultsEv
 3596      00
 3597              		.loc 5 143 0 discriminator 4
 3598 17fe 488B00   		movq	(%rax), %rax
 3599 1801 488D4DC0 		leaq	-64(%rbp), %rcx
 3600 1805 488D559C 		leaq	-100(%rbp), %rdx
 3601 1809 488D7598 		leaq	-104(%rbp), %rsi
 3602 180d 4889C7   		movq	%rax, %rdi
 3603 1810 E8000000 		call	_ZN8UnitTest10CheckEqualIiiEEvRNS_11TestResultsERKT_RKT0_RKNS_11TestDetailsE
 3603      00
 3604              	.LEHE84:
 3605              	.LBE49:
 144:TestChecks.cpp **** }
 3606              		.loc 5 144 0 is_stmt 1
 3607 1815 EB58     		jmp	.L164
 3608              	.L163:
 3609 1817 4889C3   		movq	%rax, %rbx
 3610              	.LBB50:
 143:TestChecks.cpp ****     CHECK_EQUAL(1, results.GetFailureCount());
 3611              		.loc 5 143 0
 3612 181a E8000000 		call	__cxa_end_catch
 3612      00
 3613 181f 4889D8   		movq	%rbx, %rax
 3614 1822 4889C7   		movq	%rax, %rdi
 3615              	.LEHB85:
 3616 1825 E8000000 		call	_Unwind_Resume
 3616      00
 3617              	.LEHE85:
 3618              	.L162:
 3619 182a 4889C7   		movq	%rax, %rdi
 3620 182d E8000000 		call	__cxa_begin_catch
 3620      00
 3621              	.LEHB86:
 3622 1832 E8000000 		call	_ZN8UnitTest11CurrentTest7DetailsEv
 3622      00
 3623 1837 488B08   		movq	(%rax), %rcx
 3624 183a 488D45C0 		leaq	-64(%rbp), %rax
 3625 183e BA8F0000 		movl	$143, %edx
 3625      00
 3626 1843 4889CE   		movq	%rcx, %rsi
 3627 1846 4889C7   		movq	%rax, %rdi
 3628 1849 E8000000 		call	_ZN8UnitTest11TestDetailsC1ERKS0_i
 3628      00
 143:TestChecks.cpp ****     CHECK_EQUAL(1, results.GetFailureCount());
 3629              		.loc 5 143 0 is_stmt 0 discriminator 12
 3630 184e E8000000 		call	_ZN8UnitTest11CurrentTest7ResultsEv
 3630      00
 3631 1853 488B00   		movq	(%rax), %rax
 3632 1856 488D4DC0 		leaq	-64(%rbp), %rcx
 3633 185a BA000000 		movl	$.LC7, %edx
 3633      00
 3634 185f 4889CE   		movq	%rcx, %rsi
 3635 1862 4889C7   		movq	%rax, %rdi
 3636 1865 E8000000 		call	_ZN8UnitTest11TestResults13OnTestFailureERKNS_11TestDetailsEPKc
 3636      00
 3637              	.LEHE86:
 3638              	.LEHB87:
 143:TestChecks.cpp ****     CHECK_EQUAL(1, results.GetFailureCount());
 3639              		.loc 5 143 0 discriminator 16
 3640 186a E8000000 		call	__cxa_end_catch
 3640      00
 3641              	.LEHE87:
 3642              	.L164:
 3643              	.LBE50:
 3644              		.loc 5 144 0 is_stmt 1
 3645 186f 90       		nop
 3646 1870 488B45E8 		movq	-24(%rbp), %rax
 3647 1874 64483304 		xorq	%fs:40, %rax
 3647      25280000 
 3647      00
 3648 187d 7405     		je	.L161
 3649 187f E8000000 		call	__stack_chk_fail
 3649      00
 3650              	.L161:
 3651 1884 4883C478 		addq	$120, %rsp
 3652 1888 5B       		popq	%rbx
 3653 1889 5D       		popq	%rbp
 3654              		.cfi_def_cfa 7, 8
 3655 188a C3       		ret
 3656              		.cfi_endproc
 3657              	.LFE1130:
 3658              		.section	.gcc_except_table
 3659              		.align 4
 3660              	.LLSDA1130:
 3661 0254 FF       		.byte	0xff
 3662 0255 03       		.byte	0x3
 3663 0256 21       		.uleb128 .LLSDATT1130-.LLSDATTD1130
 3664              	.LLSDATTD1130:
 3665 0257 01       		.byte	0x1
 3666 0258 19       		.uleb128 .LLSDACSE1130-.LLSDACSB1130
 3667              	.LLSDACSB1130:
 3668 0259 2F       		.uleb128 .LEHB83-.LFB1130
 3669 025a 4E       		.uleb128 .LEHE83-.LEHB83
 3670 025b 00       		.uleb128 0
 3671 025c 00       		.uleb128 0
 3672 025d 7D       		.uleb128 .LEHB84-.LFB1130
 3673 025e 4E       		.uleb128 .LEHE84-.LEHB84
 3674 025f E001     		.uleb128 .L162-.LFB1130
 3675 0261 01       		.uleb128 0x1
 3676 0262 DB01     		.uleb128 .LEHB85-.LFB1130
 3677 0264 05       		.uleb128 .LEHE85-.LEHB85
 3678 0265 00       		.uleb128 0
 3679 0266 00       		.uleb128 0
 3680 0267 E801     		.uleb128 .LEHB86-.LFB1130
 3681 0269 38       		.uleb128 .LEHE86-.LEHB86
 3682 026a CD01     		.uleb128 .L163-.LFB1130
 3683 026c 00       		.uleb128 0
 3684 026d A002     		.uleb128 .LEHB87-.LFB1130
 3685 026f 05       		.uleb128 .LEHE87-.LEHB87
 3686 0270 00       		.uleb128 0
 3687 0271 00       		.uleb128 0
 3688              	.LLSDACSE1130:
 3689 0272 01       		.byte	0x1
 3690 0273 00       		.byte	0
 3691              		.align 4
 3692 0274 00000000 		.long	0
 3693              	
 3694              	.LLSDATT1130:
 3695              		.text
 3697              		.section	.rodata
 3698 056c 00000000 		.align 8
 3699              	.LC39:
 3700 0570 43686563 		.string	"CheckCloseFailureIncludesCheckExpectedAndActual"
 3700      6B436C6F 
 3700      73654661 
 3700      696C7572 
 3700      65496E63 
 3701              		.text
 3702 188b 90       		.align 2
 3704              	_ZN12_GLOBAL__N_151TestCheckCloseFailureIncludesCheckExpectedAndActualC2Ev:
 3705              	.LFB1132:
 145:TestChecks.cpp **** 
 146:TestChecks.cpp **** TEST(CheckCloseFailureIncludesCheckExpectedAndActual)
 3706              		.loc 5 146 0
 3707              		.cfi_startproc
 3708 188c 55       		pushq	%rbp
 3709              		.cfi_def_cfa_offset 16
 3710              		.cfi_offset 6, -16
 3711 188d 4889E5   		movq	%rsp, %rbp
 3712              		.cfi_def_cfa_register 6
 3713 1890 4883EC10 		subq	$16, %rsp
 3714 1894 48897DF8 		movq	%rdi, -8(%rbp)
 3715              	.LBB51:
 3716              		.loc 5 146 0
 3717 1898 E8000000 		call	_ZN13UnitTestSuite12GetSuiteNameEv
 3717      00
 3718 189d 4889C2   		movq	%rax, %rdx
 3719 18a0 488B45F8 		movq	-8(%rbp), %rax
 3720 18a4 41B89200 		movl	$146, %r8d
 3720      0000
 3721 18aa B9000000 		movl	$.LC2, %ecx
 3721      00
 3722 18af BE000000 		movl	$.LC39, %esi
 3722      00
 3723 18b4 4889C7   		movq	%rax, %rdi
 3724 18b7 E8000000 		call	_ZN8UnitTest4TestC2EPKcS2_S2_i
 3724      00
 3725 18bc 488B45F8 		movq	-8(%rbp), %rax
 3726 18c0 48C70000 		movq	$_ZTVN12_GLOBAL__N_151TestCheckCloseFailureIncludesCheckExpectedAndActualE+16, (%rax)
 3726      000000
 3727              	.LBE51:
 3728 18c7 C9       		leave
 3729              		.cfi_def_cfa 7, 8
 3730 18c8 C3       		ret
 3731              		.cfi_endproc
 3732              	.LFE1132:
 3734              		.local	_ZN12_GLOBAL__N_159testCheckCloseFailureIncludesCheckExpectedAndActualInstanceE
 3735              		.comm	_ZN12_GLOBAL__N_159testCheckCloseFailureIncludesCheckExpectedAndActualInstanceE,56,32
 3736              		.local	_ZN12_GLOBAL__N_152adderCheckCloseFailureIncludesCheckExpectedAndActualE
 3737              		.comm	_ZN12_GLOBAL__N_152adderCheckCloseFailureIncludesCheckExpectedAndActualE,1,1
 3738              		.section	.rodata
 3739              	.LC43:
 3740 05a0 78706563 		.string	"xpected 0.9"
 3740      74656420 
 3740      302E3900 
 3741 05ac 00000000 		.align 8
 3742              	.LC44:
 3743 05b0 73747273 		.string	"strstr(reporter.lastFailedMessage, \"xpected 0.9\")"
 3743      74722872 
 3743      65706F72 
 3743      7465722E 
 3743      6C617374 
 3744              	.LC45:
 3745 05e2 77617320 		.string	"was 1.1"
 3745      312E3100 
 3746 05ea 00000000 		.align 8
 3746      0000
 3747              	.LC46:
 3748 05f0 73747273 		.string	"strstr(reporter.lastFailedMessage, \"was 1.1\")"
 3748      74722872 
 3748      65706F72 
 3748      7465722E 
 3748      6C617374 
 3749 061e 0000     		.align 8
 3750              	.LC47:
 3751 0620 556E6861 		.string	"Unhandled exception in CHECK(strstr(reporter.lastFailedMessage, \"xpected 0.9\"))"
 3751      6E646C65 
 3751      64206578 
 3751      63657074 
 3751      696F6E20 
 3752              		.align 8
 3753              	.LC48:
 3754 0670 556E6861 		.string	"Unhandled exception in CHECK(strstr(reporter.lastFailedMessage, \"was 1.1\"))"
 3754      6E646C65 
 3754      64206578 
 3754      63657074 
 3754      696F6E20 
 3755              		.text
 3756 18c9 90       		.align 2
 3758              	_ZNK12_GLOBAL__N_151TestCheckCloseFailureIncludesCheckExpectedAndActual7RunImplEv:
 3759              	.LFB1134:
 147:TestChecks.cpp **** {
 3760              		.loc 5 147 0
 3761              		.cfi_startproc
 3762              		.cfi_personality 0x3,__gxx_personality_v0
 3763              		.cfi_lsda 0x3,.LLSDA1134
 3764 18ca 55       		pushq	%rbp
 3765              		.cfi_def_cfa_offset 16
 3766              		.cfi_offset 6, -16
 3767 18cb 4889E5   		movq	%rsp, %rbp
 3768              		.cfi_def_cfa_register 6
 3769 18ce 53       		pushq	%rbx
 3770 18cf 4881ECA8 		subq	$2216, %rsp
 3770      080000
 3771              		.cfi_offset 3, -24
 3772 18d6 4889BD58 		movq	%rdi, -2216(%rbp)
 3772      F7FFFF
 3773              		.loc 5 147 0
 3774 18dd 64488B04 		movq	%fs:40, %rax
 3774      25280000 
 3774      00
 3775 18e6 488945E8 		movq	%rax, -24(%rbp)
 3776 18ea 31C0     		xorl	%eax, %eax
 3777              	.LBB52:
 148:TestChecks.cpp ****     RecordingReporter reporter;
 3778              		.loc 5 148 0
 3779 18ec 488D85B0 		leaq	-2128(%rbp), %rax
 3779      F7FFFF
 3780 18f3 4889C7   		movq	%rax, %rdi
 3781 18f6 E8000000 		call	_ZN17RecordingReporterC1Ev
 3781      00
 149:TestChecks.cpp ****     TestResults results(&reporter);
 3782              		.loc 5 149 0
 3783 18fb 488D95B0 		leaq	-2128(%rbp), %rdx
 3783      F7FFFF
 3784 1902 488D8570 		leaq	-2192(%rbp), %rax
 3784      F7FFFF
 3785 1909 4889D6   		movq	%rdx, %rsi
 3786 190c 4889C7   		movq	%rax, %rdi
 3787              	.LEHB88:
 3788 190f E8000000 		call	_ZN8UnitTest11TestResultsC1EPNS_12TestReporterE
 3788      00
 150:TestChecks.cpp ****     const float expected = 0.9f;
 3789              		.loc 5 150 0
 3790 1914 8B050000 		movl	.LC40(%rip), %eax
 3790      0000
 3791 191a 898564F7 		movl	%eax, -2204(%rbp)
 3791      FFFF
 151:TestChecks.cpp ****     const float actual = 1.1f;
 3792              		.loc 5 151 0
 3793 1920 8B050000 		movl	.LC41(%rip), %eax
 3793      0000
 3794 1926 898568F7 		movl	%eax, -2200(%rbp)
 3794      FFFF
 152:TestChecks.cpp ****     CheckClose(results, expected, actual, 0.01f, TestDetails("", "", "", 0));
 3795              		.loc 5 152 0
 3796 192c 488D8590 		leaq	-2160(%rbp), %rax
 3796      F7FFFF
 3797 1933 41B80000 		movl	$0, %r8d
 3797      0000
 3798 1939 B9000000 		movl	$.LC6, %ecx
 3798      00
 3799 193e BA000000 		movl	$.LC6, %edx
 3799      00
 3800 1943 BE000000 		movl	$.LC6, %esi
 3800      00
 3801 1948 4889C7   		movq	%rax, %rdi
 3802 194b E8000000 		call	_ZN8UnitTest11TestDetailsC1EPKcS2_S2_i
 3802      00
 3803              		.loc 5 152 0 is_stmt 0 discriminator 1
 3804 1950 8B050000 		movl	.LC42(%rip), %eax
 3804      0000
 3805 1956 89856CF7 		movl	%eax, -2196(%rbp)
 3805      FFFF
 3806 195c 488DBD90 		leaq	-2160(%rbp), %rdi
 3806      F7FFFF
 3807 1963 488D8D6C 		leaq	-2196(%rbp), %rcx
 3807      F7FFFF
 3808 196a 488D9568 		leaq	-2200(%rbp), %rdx
 3808      F7FFFF
 3809 1971 488DB564 		leaq	-2204(%rbp), %rsi
 3809      F7FFFF
 3810 1978 488D8570 		leaq	-2192(%rbp), %rax
 3810      F7FFFF
 3811 197f 4989F8   		movq	%rdi, %r8
 3812 1982 4889C7   		movq	%rax, %rdi
 3813 1985 E8000000 		call	_ZN8UnitTest10CheckCloseIfffEEvRNS_11TestResultsERKT_RKT0_RKT1_RKNS_11TestDetailsE
 3813      00
 3814              	.LEHE88:
 153:TestChecks.cpp **** 
 154:TestChecks.cpp **** 	using namespace std;
 155:TestChecks.cpp ****     CHECK(strstr(reporter.lastFailedMessage, "xpected 0.9"));
 3815              		.loc 5 155 0 is_stmt 1 discriminator 3
 3816 198a 488D85B0 		leaq	-2128(%rbp), %rax
 3816      F7FFFF
 3817 1991 48051405 		addq	$1300, %rax
 3817      0000
 3818 1997 BE000000 		movl	$.LC43, %esi
 3818      00
 3819 199c 4889C7   		movq	%rax, %rdi
 3820 199f E8000000 		call	strstr
 3820      00
 3821 19a4 4889C7   		movq	%rax, %rdi
 3822 19a7 E8000000 		call	_ZN8UnitTest5CheckIPcEEbT_
 3822      00
 3823 19ac 83F001   		xorl	$1, %eax
 3824 19af 84C0     		testb	%al, %al
 3825 19b1 743E     		je	.L167
 3826              	.LEHB89:
 3827              		.loc 5 155 0 is_stmt 0 discriminator 1
 3828 19b3 E8000000 		call	_ZN8UnitTest11CurrentTest7DetailsEv
 3828      00
 3829 19b8 488B08   		movq	(%rax), %rcx
 3830 19bb 488D8590 		leaq	-2160(%rbp), %rax
 3830      F7FFFF
 3831 19c2 BA9B0000 		movl	$155, %edx
 3831      00
 3832 19c7 4889CE   		movq	%rcx, %rsi
 3833 19ca 4889C7   		movq	%rax, %rdi
 3834 19cd E8000000 		call	_ZN8UnitTest11TestDetailsC1ERKS0_i
 3834      00
 3835              		.loc 5 155 0 discriminator 3
 3836 19d2 E8000000 		call	_ZN8UnitTest11CurrentTest7ResultsEv
 3836      00
 3837 19d7 488B00   		movq	(%rax), %rax
 3838 19da 488D8D90 		leaq	-2160(%rbp), %rcx
 3838      F7FFFF
 3839 19e1 BA000000 		movl	$.LC44, %edx
 3839      00
 3840 19e6 4889CE   		movq	%rcx, %rsi
 3841 19e9 4889C7   		movq	%rax, %rdi
 3842 19ec E8000000 		call	_ZN8UnitTest11TestResults13OnTestFailureERKNS_11TestDetailsEPKc
 3842      00
 3843              	.LEHE89:
 3844              	.L167:
 156:TestChecks.cpp ****     CHECK(strstr(reporter.lastFailedMessage, "was 1.1"));
 3845              		.loc 5 156 0 is_stmt 1
 3846 19f1 488D85B0 		leaq	-2128(%rbp), %rax
 3846      F7FFFF
 3847 19f8 48051405 		addq	$1300, %rax
 3847      0000
 3848 19fe BE000000 		movl	$.LC45, %esi
 3848      00
 3849 1a03 4889C7   		movq	%rax, %rdi
 3850 1a06 E8000000 		call	strstr
 3850      00
 3851 1a0b 4889C7   		movq	%rax, %rdi
 3852 1a0e E8000000 		call	_ZN8UnitTest5CheckIPcEEbT_
 3852      00
 3853 1a13 83F001   		xorl	$1, %eax
 3854 1a16 84C0     		testb	%al, %al
 3855 1a18 743E     		je	.L168
 3856              	.LEHB90:
 3857              		.loc 5 156 0 is_stmt 0 discriminator 1
 3858 1a1a E8000000 		call	_ZN8UnitTest11CurrentTest7DetailsEv
 3858      00
 3859 1a1f 488B08   		movq	(%rax), %rcx
 3860 1a22 488D8590 		leaq	-2160(%rbp), %rax
 3860      F7FFFF
 3861 1a29 BA9C0000 		movl	$156, %edx
 3861      00
 3862 1a2e 4889CE   		movq	%rcx, %rsi
 3863 1a31 4889C7   		movq	%rax, %rdi
 3864 1a34 E8000000 		call	_ZN8UnitTest11TestDetailsC1ERKS0_i
 3864      00
 3865              		.loc 5 156 0 discriminator 4
 3866 1a39 E8000000 		call	_ZN8UnitTest11CurrentTest7ResultsEv
 3866      00
 3867 1a3e 488B00   		movq	(%rax), %rax
 3868 1a41 488D8D90 		leaq	-2160(%rbp), %rcx
 3868      F7FFFF
 3869 1a48 BA000000 		movl	$.LC46, %edx
 3869      00
 3870 1a4d 4889CE   		movq	%rcx, %rsi
 3871 1a50 4889C7   		movq	%rax, %rdi
 3872 1a53 E8000000 		call	_ZN8UnitTest11TestResults13OnTestFailureERKNS_11TestDetailsEPKc
 3872      00
 3873              	.LEHE90:
 3874              	.L168:
 3875              		.loc 5 156 0 discriminator 9
 3876 1a58 488D85B0 		leaq	-2128(%rbp), %rax
 3876      F7FFFF
 3877 1a5f 4889C7   		movq	%rax, %rdi
 3878              	.LEHB91:
 3879 1a62 E8000000 		call	_ZN17RecordingReporterD1Ev
 3879      00
 3880              	.LEHE91:
 3881              	.LBE52:
 157:TestChecks.cpp **** }
 3882              		.loc 5 157 0 is_stmt 1 discriminator 9
 3883 1a67 488B45E8 		movq	-24(%rbp), %rax
 3884 1a6b 64483304 		xorq	%fs:40, %rax
 3884      25280000 
 3884      00
 3885 1a74 0F84DE00 		je	.L174
 3885      0000
 3886 1a7a E9D40000 		jmp	.L180
 3886      00
 3887              	.L177:
 3888 1a7f 4889C3   		movq	%rax, %rbx
 3889              	.LBB53:
 155:TestChecks.cpp ****     CHECK(strstr(reporter.lastFailedMessage, "was 1.1"));
 3890              		.loc 5 155 0
 3891 1a82 E8000000 		call	__cxa_end_catch
 3891      00
 3892 1a87 E9AD0000 		jmp	.L170
 3892      00
 3893              	.L176:
 3894 1a8c 4889C7   		movq	%rax, %rdi
 3895 1a8f E8000000 		call	__cxa_begin_catch
 3895      00
 3896              	.LEHB92:
 3897 1a94 E8000000 		call	_ZN8UnitTest11CurrentTest7DetailsEv
 3897      00
 3898 1a99 488B08   		movq	(%rax), %rcx
 3899 1a9c 488D8590 		leaq	-2160(%rbp), %rax
 3899      F7FFFF
 3900 1aa3 BA9B0000 		movl	$155, %edx
 3900      00
 3901 1aa8 4889CE   		movq	%rcx, %rsi
 3902 1aab 4889C7   		movq	%rax, %rdi
 3903 1aae E8000000 		call	_ZN8UnitTest11TestDetailsC1ERKS0_i
 3903      00
 155:TestChecks.cpp ****     CHECK(strstr(reporter.lastFailedMessage, "was 1.1"));
 3904              		.loc 5 155 0 is_stmt 0 discriminator 11
 3905 1ab3 E8000000 		call	_ZN8UnitTest11CurrentTest7ResultsEv
 3905      00
 3906 1ab8 488B00   		movq	(%rax), %rax
 3907 1abb 488D8D90 		leaq	-2160(%rbp), %rcx
 3907      F7FFFF
 3908 1ac2 BA000000 		movl	$.LC47, %edx
 3908      00
 3909 1ac7 4889CE   		movq	%rcx, %rsi
 3910 1aca 4889C7   		movq	%rax, %rdi
 3911 1acd E8000000 		call	_ZN8UnitTest11TestResults13OnTestFailureERKNS_11TestDetailsEPKc
 3911      00
 3912              	.LEHE92:
 3913              	.LEHB93:
 155:TestChecks.cpp ****     CHECK(strstr(reporter.lastFailedMessage, "was 1.1"));
 3914              		.loc 5 155 0 discriminator 15
 3915 1ad2 E8000000 		call	__cxa_end_catch
 3915      00
 3916              	.LEHE93:
 155:TestChecks.cpp ****     CHECK(strstr(reporter.lastFailedMessage, "was 1.1"));
 3917              		.loc 5 155 0
 3918 1ad7 E915FFFF 		jmp	.L167
 3918      FF
 3919              	.L179:
 3920 1adc 4889C3   		movq	%rax, %rbx
 156:TestChecks.cpp ****     CHECK(strstr(reporter.lastFailedMessage, "was 1.1"));
 3921              		.loc 5 156 0 is_stmt 1
 3922 1adf E8000000 		call	__cxa_end_catch
 3922      00
 3923 1ae4 EB53     		jmp	.L170
 3924              	.L178:
 3925 1ae6 4889C7   		movq	%rax, %rdi
 3926 1ae9 E8000000 		call	__cxa_begin_catch
 3926      00
 3927              	.LEHB94:
 3928 1aee E8000000 		call	_ZN8UnitTest11CurrentTest7DetailsEv
 3928      00
 3929 1af3 488B08   		movq	(%rax), %rcx
 3930 1af6 488D8590 		leaq	-2160(%rbp), %rax
 3930      F7FFFF
 3931 1afd BA9C0000 		movl	$156, %edx
 3931      00
 3932 1b02 4889CE   		movq	%rcx, %rsi
 3933 1b05 4889C7   		movq	%rax, %rdi
 3934 1b08 E8000000 		call	_ZN8UnitTest11TestDetailsC1ERKS0_i
 3934      00
 156:TestChecks.cpp ****     CHECK(strstr(reporter.lastFailedMessage, "was 1.1"));
 3935              		.loc 5 156 0 is_stmt 0 discriminator 13
 3936 1b0d E8000000 		call	_ZN8UnitTest11CurrentTest7ResultsEv
 3936      00
 3937 1b12 488B00   		movq	(%rax), %rax
 3938 1b15 488D8D90 		leaq	-2160(%rbp), %rcx
 3938      F7FFFF
 3939 1b1c BA000000 		movl	$.LC48, %edx
 3939      00
 3940 1b21 4889CE   		movq	%rcx, %rsi
 3941 1b24 4889C7   		movq	%rax, %rdi
 3942 1b27 E8000000 		call	_ZN8UnitTest11TestResults13OnTestFailureERKNS_11TestDetailsEPKc
 3942      00
 3943              	.LEHE94:
 3944              	.LEHB95:
 156:TestChecks.cpp ****     CHECK(strstr(reporter.lastFailedMessage, "was 1.1"));
 3945              		.loc 5 156 0 discriminator 17
 3946 1b2c E8000000 		call	__cxa_end_catch
 3946      00
 3947              	.LEHE95:
 156:TestChecks.cpp ****     CHECK(strstr(reporter.lastFailedMessage, "was 1.1"));
 3948              		.loc 5 156 0
 3949 1b31 E922FFFF 		jmp	.L168
 3949      FF
 3950              	.L175:
 3951 1b36 4889C3   		movq	%rax, %rbx
 3952              	.L170:
 156:TestChecks.cpp ****     CHECK(strstr(reporter.lastFailedMessage, "was 1.1"));
 3953              		.loc 5 156 0 discriminator 18
 3954 1b39 488D85B0 		leaq	-2128(%rbp), %rax
 3954      F7FFFF
 3955 1b40 4889C7   		movq	%rax, %rdi
 3956 1b43 E8000000 		call	_ZN17RecordingReporterD1Ev
 3956      00
 3957 1b48 4889D8   		movq	%rbx, %rax
 3958 1b4b 4889C7   		movq	%rax, %rdi
 3959              	.LEHB96:
 3960 1b4e E8000000 		call	_Unwind_Resume
 3960      00
 3961              	.LEHE96:
 3962              	.L180:
 3963              	.LBE53:
 3964              		.loc 5 157 0 is_stmt 1
 3965 1b53 E8000000 		call	__stack_chk_fail
 3965      00
 3966              	.L174:
 3967 1b58 4881C4A8 		addq	$2216, %rsp
 3967      080000
 3968 1b5f 5B       		popq	%rbx
 3969 1b60 5D       		popq	%rbp
 3970              		.cfi_def_cfa 7, 8
 3971 1b61 C3       		ret
 3972              		.cfi_endproc
 3973              	.LFE1134:
 3974              		.section	.gcc_except_table
 3975              		.align 4
 3976              	.LLSDA1134:
 3977 0278 FF       		.byte	0xff
 3978 0279 03       		.byte	0x3
 3979 027a 3D       		.uleb128 .LLSDATT1134-.LLSDATTD1134
 3980              	.LLSDATTD1134:
 3981 027b 01       		.byte	0x1
 3982 027c 33       		.uleb128 .LLSDACSE1134-.LLSDACSB1134
 3983              	.LLSDACSB1134:
 3984 027d 45       		.uleb128 .LEHB88-.LFB1134
 3985 027e 7B       		.uleb128 .LEHE88-.LEHB88
 3986 027f EC04     		.uleb128 .L175-.LFB1134
 3987 0281 00       		.uleb128 0
 3988 0282 E901     		.uleb128 .LEHB89-.LFB1134
 3989 0284 3E       		.uleb128 .LEHE89-.LEHB89
 3990 0285 C203     		.uleb128 .L176-.LFB1134
 3991 0287 01       		.uleb128 0x1
 3992 0288 D002     		.uleb128 .LEHB90-.LFB1134
 3993 028a 3E       		.uleb128 .LEHE90-.LEHB90
 3994 028b 9C04     		.uleb128 .L178-.LFB1134
 3995 028d 01       		.uleb128 0x1
 3996 028e 9803     		.uleb128 .LEHB91-.LFB1134
 3997 0290 05       		.uleb128 .LEHE91-.LEHB91
 3998 0291 00       		.uleb128 0
 3999 0292 00       		.uleb128 0
 4000 0293 CA03     		.uleb128 .LEHB92-.LFB1134
 4001 0295 3E       		.uleb128 .LEHE92-.LEHB92
 4002 0296 B503     		.uleb128 .L177-.LFB1134
 4003 0298 00       		.uleb128 0
 4004 0299 8804     		.uleb128 .LEHB93-.LFB1134
 4005 029b 05       		.uleb128 .LEHE93-.LEHB93
 4006 029c EC04     		.uleb128 .L175-.LFB1134
 4007 029e 00       		.uleb128 0
 4008 029f A404     		.uleb128 .LEHB94-.LFB1134
 4009 02a1 3E       		.uleb128 .LEHE94-.LEHB94
 4010 02a2 9204     		.uleb128 .L179-.LFB1134
 4011 02a4 00       		.uleb128 0
 4012 02a5 E204     		.uleb128 .LEHB95-.LFB1134
 4013 02a7 05       		.uleb128 .LEHE95-.LEHB95
 4014 02a8 EC04     		.uleb128 .L175-.LFB1134
 4015 02aa 00       		.uleb128 0
 4016 02ab 8405     		.uleb128 .LEHB96-.LFB1134
 4017 02ad 05       		.uleb128 .LEHE96-.LEHB96
 4018 02ae 00       		.uleb128 0
 4019 02af 00       		.uleb128 0
 4020              	.LLSDACSE1134:
 4021 02b0 01       		.byte	0x1
 4022 02b1 00       		.byte	0
 4023 02b2 0000     		.align 4
 4024 02b4 00000000 		.long	0
 4025              	
 4026              	.LLSDATT1134:
 4027              		.text
 4029              		.section	.rodata
 4030 06bc 00000000 		.align 8
 4031              	.LC49:
 4032 06c0 43686563 		.string	"CheckCloseFailureIncludesTolerance"
 4032      6B436C6F 
 4032      73654661 
 4032      696C7572 
 4032      65496E63 
 4033              		.text
 4034              		.align 2
 4036              	_ZN12_GLOBAL__N_138TestCheckCloseFailureIncludesToleranceC2Ev:
 4037              	.LFB1136:
 158:TestChecks.cpp **** 
 159:TestChecks.cpp **** TEST(CheckCloseFailureIncludesTolerance)
 4038              		.loc 5 159 0
 4039              		.cfi_startproc
 4040 1b62 55       		pushq	%rbp
 4041              		.cfi_def_cfa_offset 16
 4042              		.cfi_offset 6, -16
 4043 1b63 4889E5   		movq	%rsp, %rbp
 4044              		.cfi_def_cfa_register 6
 4045 1b66 4883EC10 		subq	$16, %rsp
 4046 1b6a 48897DF8 		movq	%rdi, -8(%rbp)
 4047              	.LBB54:
 4048              		.loc 5 159 0
 4049 1b6e E8000000 		call	_ZN13UnitTestSuite12GetSuiteNameEv
 4049      00
 4050 1b73 4889C2   		movq	%rax, %rdx
 4051 1b76 488B45F8 		movq	-8(%rbp), %rax
 4052 1b7a 41B89F00 		movl	$159, %r8d
 4052      0000
 4053 1b80 B9000000 		movl	$.LC2, %ecx
 4053      00
 4054 1b85 BE000000 		movl	$.LC49, %esi
 4054      00
 4055 1b8a 4889C7   		movq	%rax, %rdi
 4056 1b8d E8000000 		call	_ZN8UnitTest4TestC2EPKcS2_S2_i
 4056      00
 4057 1b92 488B45F8 		movq	-8(%rbp), %rax
 4058 1b96 48C70000 		movq	$_ZTVN12_GLOBAL__N_138TestCheckCloseFailureIncludesToleranceE+16, (%rax)
 4058      000000
 4059              	.LBE54:
 4060 1b9d C9       		leave
 4061              		.cfi_def_cfa 7, 8
 4062 1b9e C3       		ret
 4063              		.cfi_endproc
 4064              	.LFE1136:
 4066              		.local	_ZN12_GLOBAL__N_146testCheckCloseFailureIncludesToleranceInstanceE
 4067              		.comm	_ZN12_GLOBAL__N_146testCheckCloseFailureIncludesToleranceInstanceE,56,32
 4068              		.local	_ZN12_GLOBAL__N_139adderCheckCloseFailureIncludesToleranceE
 4069              		.comm	_ZN12_GLOBAL__N_139adderCheckCloseFailureIncludesToleranceE,1,1
 4070              		.section	.rodata
 4071              	.LC50:
 4072 06e3 302E3031 		.string	"0.01"
 4072      00
 4073              		.align 8
 4074              	.LC51:
 4075 06e8 73747273 		.string	"strstr(reporter.lastFailedMessage, \"0.01\")"
 4075      74722872 
 4075      65706F72 
 4075      7465722E 
 4075      6C617374 
 4076 0713 00000000 		.align 8
 4076      00
 4077              	.LC52:
 4078 0718 556E6861 		.string	"Unhandled exception in CHECK(strstr(reporter.lastFailedMessage, \"0.01\"))"
 4078      6E646C65 
 4078      64206578 
 4078      63657074 
 4078      696F6E20 
 4079              		.text
 4080 1b9f 90       		.align 2
 4082              	_ZNK12_GLOBAL__N_138TestCheckCloseFailureIncludesTolerance7RunImplEv:
 4083              	.LFB1138:
 160:TestChecks.cpp **** {
 4084              		.loc 5 160 0
 4085              		.cfi_startproc
 4086              		.cfi_personality 0x3,__gxx_personality_v0
 4087              		.cfi_lsda 0x3,.LLSDA1138
 4088 1ba0 55       		pushq	%rbp
 4089              		.cfi_def_cfa_offset 16
 4090              		.cfi_offset 6, -16
 4091 1ba1 4889E5   		movq	%rsp, %rbp
 4092              		.cfi_def_cfa_register 6
 4093 1ba4 53       		pushq	%rbx
 4094 1ba5 4881ECA8 		subq	$2216, %rsp
 4094      080000
 4095              		.cfi_offset 3, -24
 4096 1bac 4889BD58 		movq	%rdi, -2216(%rbp)
 4096      F7FFFF
 4097              		.loc 5 160 0
 4098 1bb3 64488B04 		movq	%fs:40, %rax
 4098      25280000 
 4098      00
 4099 1bbc 488945E8 		movq	%rax, -24(%rbp)
 4100 1bc0 31C0     		xorl	%eax, %eax
 4101              	.LBB55:
 161:TestChecks.cpp ****     RecordingReporter reporter;
 4102              		.loc 5 161 0
 4103 1bc2 488D85B0 		leaq	-2128(%rbp), %rax
 4103      F7FFFF
 4104 1bc9 4889C7   		movq	%rax, %rdi
 4105 1bcc E8000000 		call	_ZN17RecordingReporterC1Ev
 4105      00
 162:TestChecks.cpp ****     TestResults results(&reporter);
 4106              		.loc 5 162 0
 4107 1bd1 488D95B0 		leaq	-2128(%rbp), %rdx
 4107      F7FFFF
 4108 1bd8 488D8570 		leaq	-2192(%rbp), %rax
 4108      F7FFFF
 4109 1bdf 4889D6   		movq	%rdx, %rsi
 4110 1be2 4889C7   		movq	%rax, %rdi
 4111              	.LEHB97:
 4112 1be5 E8000000 		call	_ZN8UnitTest11TestResultsC1EPNS_12TestReporterE
 4112      00
 163:TestChecks.cpp ****     CheckClose(results, 2, 3, 0.01f, TestDetails("", "", "", 0));
 4113              		.loc 5 163 0
 4114 1bea 488D8590 		leaq	-2160(%rbp), %rax
 4114      F7FFFF
 4115 1bf1 41B80000 		movl	$0, %r8d
 4115      0000
 4116 1bf7 B9000000 		movl	$.LC6, %ecx
 4116      00
 4117 1bfc BA000000 		movl	$.LC6, %edx
 4117      00
 4118 1c01 BE000000 		movl	$.LC6, %esi
 4118      00
 4119 1c06 4889C7   		movq	%rax, %rdi
 4120 1c09 E8000000 		call	_ZN8UnitTest11TestDetailsC1EPKcS2_S2_i
 4120      00
 4121              		.loc 5 163 0 is_stmt 0 discriminator 1
 4122 1c0e 8B050000 		movl	.LC42(%rip), %eax
 4122      0000
 4123 1c14 89856CF7 		movl	%eax, -2196(%rbp)
 4123      FFFF
 4124 1c1a C78568F7 		movl	$3, -2200(%rbp)
 4124      FFFF0300 
 4124      0000
 4125 1c24 C78564F7 		movl	$2, -2204(%rbp)
 4125      FFFF0200 
 4125      0000
 4126 1c2e 488DBD90 		leaq	-2160(%rbp), %rdi
 4126      F7FFFF
 4127 1c35 488D8D6C 		leaq	-2196(%rbp), %rcx
 4127      F7FFFF
 4128 1c3c 488D9568 		leaq	-2200(%rbp), %rdx
 4128      F7FFFF
 4129 1c43 488DB564 		leaq	-2204(%rbp), %rsi
 4129      F7FFFF
 4130 1c4a 488D8570 		leaq	-2192(%rbp), %rax
 4130      F7FFFF
 4131 1c51 4989F8   		movq	%rdi, %r8
 4132 1c54 4889C7   		movq	%rax, %rdi
 4133 1c57 E8000000 		call	_ZN8UnitTest10CheckCloseIiifEEvRNS_11TestResultsERKT_RKT0_RKT1_RKNS_11TestDetailsE
 4133      00
 4134              	.LEHE97:
 164:TestChecks.cpp **** 
 165:TestChecks.cpp **** 	using namespace std;
 166:TestChecks.cpp ****     CHECK(strstr(reporter.lastFailedMessage, "0.01"));
 4135              		.loc 5 166 0 is_stmt 1 discriminator 3
 4136 1c5c 488D85B0 		leaq	-2128(%rbp), %rax
 4136      F7FFFF
 4137 1c63 48051405 		addq	$1300, %rax
 4137      0000
 4138 1c69 BE000000 		movl	$.LC50, %esi
 4138      00
 4139 1c6e 4889C7   		movq	%rax, %rdi
 4140 1c71 E8000000 		call	strstr
 4140      00
 4141 1c76 4889C7   		movq	%rax, %rdi
 4142 1c79 E8000000 		call	_ZN8UnitTest5CheckIPcEEbT_
 4142      00
 4143 1c7e 83F001   		xorl	$1, %eax
 4144 1c81 84C0     		testb	%al, %al
 4145 1c83 743E     		je	.L183
 4146              	.LEHB98:
 4147              		.loc 5 166 0 is_stmt 0 discriminator 1
 4148 1c85 E8000000 		call	_ZN8UnitTest11CurrentTest7DetailsEv
 4148      00
 4149 1c8a 488B08   		movq	(%rax), %rcx
 4150 1c8d 488D8590 		leaq	-2160(%rbp), %rax
 4150      F7FFFF
 4151 1c94 BAA60000 		movl	$166, %edx
 4151      00
 4152 1c99 4889CE   		movq	%rcx, %rsi
 4153 1c9c 4889C7   		movq	%rax, %rdi
 4154 1c9f E8000000 		call	_ZN8UnitTest11TestDetailsC1ERKS0_i
 4154      00
 4155              		.loc 5 166 0 discriminator 4
 4156 1ca4 E8000000 		call	_ZN8UnitTest11CurrentTest7ResultsEv
 4156      00
 4157 1ca9 488B00   		movq	(%rax), %rax
 4158 1cac 488D8D90 		leaq	-2160(%rbp), %rcx
 4158      F7FFFF
 4159 1cb3 BA000000 		movl	$.LC51, %edx
 4159      00
 4160 1cb8 4889CE   		movq	%rcx, %rsi
 4161 1cbb 4889C7   		movq	%rax, %rdi
 4162 1cbe E8000000 		call	_ZN8UnitTest11TestResults13OnTestFailureERKNS_11TestDetailsEPKc
 4162      00
 4163              	.LEHE98:
 4164              	.L183:
 4165              		.loc 5 166 0 discriminator 9
 4166 1cc3 488D85B0 		leaq	-2128(%rbp), %rax
 4166      F7FFFF
 4167 1cca 4889C7   		movq	%rax, %rdi
 4168              	.LEHB99:
 4169 1ccd E8000000 		call	_ZN17RecordingReporterD1Ev
 4169      00
 4170              	.LEHE99:
 4171              	.LBE55:
 167:TestChecks.cpp **** }
 4172              		.loc 5 167 0 is_stmt 1 discriminator 9
 4173 1cd2 488B45E8 		movq	-24(%rbp), %rax
 4174 1cd6 64483304 		xorq	%fs:40, %rax
 4174      25280000 
 4174      00
 4175 1cdf 747B     		je	.L187
 4176 1ce1 EB74     		jmp	.L191
 4177              	.L190:
 4178 1ce3 4889C3   		movq	%rax, %rbx
 4179              	.LBB56:
 166:TestChecks.cpp **** }
 4180              		.loc 5 166 0
 4181 1ce6 E8000000 		call	__cxa_end_catch
 4181      00
 4182 1ceb EB50     		jmp	.L185
 4183              	.L189:
 4184 1ced 4889C7   		movq	%rax, %rdi
 4185 1cf0 E8000000 		call	__cxa_begin_catch
 4185      00
 4186              	.LEHB100:
 4187 1cf5 E8000000 		call	_ZN8UnitTest11CurrentTest7DetailsEv
 4187      00
 4188 1cfa 488B08   		movq	(%rax), %rcx
 4189 1cfd 488D8590 		leaq	-2160(%rbp), %rax
 4189      F7FFFF
 4190 1d04 BAA60000 		movl	$166, %edx
 4190      00
 4191 1d09 4889CE   		movq	%rcx, %rsi
 4192 1d0c 4889C7   		movq	%rax, %rdi
 4193 1d0f E8000000 		call	_ZN8UnitTest11TestDetailsC1ERKS0_i
 4193      00
 166:TestChecks.cpp **** }
 4194              		.loc 5 166 0 is_stmt 0 discriminator 13
 4195 1d14 E8000000 		call	_ZN8UnitTest11CurrentTest7ResultsEv
 4195      00
 4196 1d19 488B00   		movq	(%rax), %rax
 4197 1d1c 488D8D90 		leaq	-2160(%rbp), %rcx
 4197      F7FFFF
 4198 1d23 BA000000 		movl	$.LC52, %edx
 4198      00
 4199 1d28 4889CE   		movq	%rcx, %rsi
 4200 1d2b 4889C7   		movq	%rax, %rdi
 4201 1d2e E8000000 		call	_ZN8UnitTest11TestResults13OnTestFailureERKNS_11TestDetailsEPKc
 4201      00
 4202              	.LEHE100:
 4203              	.LEHB101:
 166:TestChecks.cpp **** }
 4204              		.loc 5 166 0 discriminator 17
 4205 1d33 E8000000 		call	__cxa_end_catch
 4205      00
 4206              	.LEHE101:
 166:TestChecks.cpp **** }
 4207              		.loc 5 166 0
 4208 1d38 EB89     		jmp	.L183
 4209              	.L188:
 4210 1d3a 4889C3   		movq	%rax, %rbx
 4211              	.L185:
 166:TestChecks.cpp **** }
 4212              		.loc 5 166 0 discriminator 18
 4213 1d3d 488D85B0 		leaq	-2128(%rbp), %rax
 4213      F7FFFF
 4214 1d44 4889C7   		movq	%rax, %rdi
 4215 1d47 E8000000 		call	_ZN17RecordingReporterD1Ev
 4215      00
 4216 1d4c 4889D8   		movq	%rbx, %rax
 4217 1d4f 4889C7   		movq	%rax, %rdi
 4218              	.LEHB102:
 4219 1d52 E8000000 		call	_Unwind_Resume
 4219      00
 4220              	.LEHE102:
 4221              	.L191:
 4222              	.LBE56:
 4223              		.loc 5 167 0 is_stmt 1
 4224 1d57 E8000000 		call	__stack_chk_fail
 4224      00
 4225              	.L187:
 4226 1d5c 4881C4A8 		addq	$2216, %rsp
 4226      080000
 4227 1d63 5B       		popq	%rbx
 4228 1d64 5D       		popq	%rbp
 4229              		.cfi_def_cfa 7, 8
 4230 1d65 C3       		ret
 4231              		.cfi_endproc
 4232              	.LFE1138:
 4233              		.section	.gcc_except_table
 4234              		.align 4
 4235              	.LLSDA1138:
 4236 02b8 FF       		.byte	0xff
 4237 02b9 03       		.byte	0x3
 4238 02ba 29       		.uleb128 .LLSDATT1138-.LLSDATTD1138
 4239              	.LLSDATTD1138:
 4240 02bb 01       		.byte	0x1
 4241 02bc 21       		.uleb128 .LLSDACSE1138-.LLSDACSB1138
 4242              	.LLSDACSB1138:
 4243 02bd 45       		.uleb128 .LEHB97-.LFB1138
 4244 02be 77       		.uleb128 .LEHE97-.LEHB97
 4245 02bf 9A03     		.uleb128 .L188-.LFB1138
 4246 02c1 00       		.uleb128 0
 4247 02c2 E501     		.uleb128 .LEHB98-.LFB1138
 4248 02c4 3E       		.uleb128 .LEHE98-.LEHB98
 4249 02c5 CD02     		.uleb128 .L189-.LFB1138
 4250 02c7 01       		.uleb128 0x1
 4251 02c8 AD02     		.uleb128 .LEHB99-.LFB1138
 4252 02ca 05       		.uleb128 .LEHE99-.LEHB99
 4253 02cb 00       		.uleb128 0
 4254 02cc 00       		.uleb128 0
 4255 02cd D502     		.uleb128 .LEHB100-.LFB1138
 4256 02cf 3E       		.uleb128 .LEHE100-.LEHB100
 4257 02d0 C302     		.uleb128 .L190-.LFB1138
 4258 02d2 00       		.uleb128 0
 4259 02d3 9303     		.uleb128 .LEHB101-.LFB1138
 4260 02d5 05       		.uleb128 .LEHE101-.LEHB101
 4261 02d6 9A03     		.uleb128 .L188-.LFB1138
 4262 02d8 00       		.uleb128 0
 4263 02d9 B203     		.uleb128 .LEHB102-.LFB1138
 4264 02db 05       		.uleb128 .LEHE102-.LEHB102
 4265 02dc 00       		.uleb128 0
 4266 02dd 00       		.uleb128 0
 4267              	.LLSDACSE1138:
 4268 02de 01       		.byte	0x1
 4269 02df 00       		.byte	0
 4270              		.align 4
 4271 02e0 00000000 		.long	0
 4272              	
 4273              	.LLSDATT1138:
 4274              		.text
 4276              		.section	.rodata
 4277 0761 00000000 		.align 8
 4277      000000
 4278              	.LC53:
 4279 0768 43686563 		.string	"CheckCloseFailureIncludesDetails"
 4279      6B436C6F 
 4279      73654661 
 4279      696C7572 
 4279      65496E63 
 4280              		.text
 4281              		.align 2
 4283              	_ZN12_GLOBAL__N_136TestCheckCloseFailureIncludesDetailsC2Ev:
 4284              	.LFB1140:
 168:TestChecks.cpp **** 
 169:TestChecks.cpp **** TEST(CheckCloseFailureIncludesDetails)
 4285              		.loc 5 169 0
 4286              		.cfi_startproc
 4287 1d66 55       		pushq	%rbp
 4288              		.cfi_def_cfa_offset 16
 4289              		.cfi_offset 6, -16
 4290 1d67 4889E5   		movq	%rsp, %rbp
 4291              		.cfi_def_cfa_register 6
 4292 1d6a 4883EC10 		subq	$16, %rsp
 4293 1d6e 48897DF8 		movq	%rdi, -8(%rbp)
 4294              	.LBB57:
 4295              		.loc 5 169 0
 4296 1d72 E8000000 		call	_ZN13UnitTestSuite12GetSuiteNameEv
 4296      00
 4297 1d77 4889C2   		movq	%rax, %rdx
 4298 1d7a 488B45F8 		movq	-8(%rbp), %rax
 4299 1d7e 41B8A900 		movl	$169, %r8d
 4299      0000
 4300 1d84 B9000000 		movl	$.LC2, %ecx
 4300      00
 4301 1d89 BE000000 		movl	$.LC53, %esi
 4301      00
 4302 1d8e 4889C7   		movq	%rax, %rdi
 4303 1d91 E8000000 		call	_ZN8UnitTest4TestC2EPKcS2_S2_i
 4303      00
 4304 1d96 488B45F8 		movq	-8(%rbp), %rax
 4305 1d9a 48C70000 		movq	$_ZTVN12_GLOBAL__N_136TestCheckCloseFailureIncludesDetailsE+16, (%rax)
 4305      000000
 4306              	.LBE57:
 4307 1da1 C9       		leave
 4308              		.cfi_def_cfa 7, 8
 4309 1da2 C3       		ret
 4310              		.cfi_endproc
 4311              	.LFE1140:
 4313              		.local	_ZN12_GLOBAL__N_144testCheckCloseFailureIncludesDetailsInstanceE
 4314              		.comm	_ZN12_GLOBAL__N_144testCheckCloseFailureIncludesDetailsInstanceE,56,32
 4315              		.local	_ZN12_GLOBAL__N_137adderCheckCloseFailureIncludesDetailsE
 4316              		.comm	_ZN12_GLOBAL__N_137adderCheckCloseFailureIncludesDetailsE,1,1
 4317              		.section	.rodata
 4318              	.LC54:
 4319 0789 68656164 		.string	"header.h"
 4319      65722E68 
 4319      00
 4320 0792 00000000 		.align 8
 4320      0000
 4321              	.LC55:
 4322 0798 556E6861 		.string	"Unhandled exception in CHECK_EQUAL(\"header.h\", reporter.lastFailedFile)"
 4322      6E646C65 
 4322      64206578 
 4322      63657074 
 4322      696F6E20 
 4323              		.align 8
 4324              	.LC56:
 4325 07e0 556E6861 		.string	"Unhandled exception in CHECK_EQUAL(10, reporter.lastFailedLine)"
 4325      6E646C65 
 4325      64206578 
 4325      63657074 
 4325      696F6E20 
 4326              		.text
 4327 1da3 90       		.align 2
 4329              	_ZNK12_GLOBAL__N_136TestCheckCloseFailureIncludesDetails7RunImplEv:
 4330              	.LFB1142:
 170:TestChecks.cpp **** {
 4331              		.loc 5 170 0
 4332              		.cfi_startproc
 4333              		.cfi_personality 0x3,__gxx_personality_v0
 4334              		.cfi_lsda 0x3,.LLSDA1142
 4335 1da4 55       		pushq	%rbp
 4336              		.cfi_def_cfa_offset 16
 4337              		.cfi_offset 6, -16
 4338 1da5 4889E5   		movq	%rsp, %rbp
 4339              		.cfi_def_cfa_register 6
 4340 1da8 53       		pushq	%rbx
 4341 1da9 4881ECC8 		subq	$2248, %rsp
 4341      080000
 4342              		.cfi_offset 3, -24
 4343 1db0 4889BD38 		movq	%rdi, -2248(%rbp)
 4343      F7FFFF
 4344              		.loc 5 170 0
 4345 1db7 64488B04 		movq	%fs:40, %rax
 4345      25280000 
 4345      00
 4346 1dc0 488945E8 		movq	%rax, -24(%rbp)
 4347 1dc4 31C0     		xorl	%eax, %eax
 4348              	.LBB58:
 171:TestChecks.cpp ****     RecordingReporter reporter;
 4349              		.loc 5 171 0
 4350 1dc6 488D85B0 		leaq	-2128(%rbp), %rax
 4350      F7FFFF
 4351 1dcd 4889C7   		movq	%rax, %rdi
 4352 1dd0 E8000000 		call	_ZN17RecordingReporterC1Ev
 4352      00
 172:TestChecks.cpp ****     TestResults results(&reporter);
 4353              		.loc 5 172 0
 4354 1dd5 488D95B0 		leaq	-2128(%rbp), %rdx
 4354      F7FFFF
 4355 1ddc 488D8550 		leaq	-2224(%rbp), %rax
 4355      F7FFFF
 4356 1de3 4889D6   		movq	%rdx, %rsi
 4357 1de6 4889C7   		movq	%rax, %rdi
 4358              	.LEHB103:
 4359 1de9 E8000000 		call	_ZN8UnitTest11TestResultsC1EPNS_12TestReporterE
 4359      00
 173:TestChecks.cpp ****     TestDetails const details("mytest", "mysuite", "header.h", 10);
 4360              		.loc 5 173 0
 4361 1dee 488D8570 		leaq	-2192(%rbp), %rax
 4361      F7FFFF
 4362 1df5 41B80A00 		movl	$10, %r8d
 4362      0000
 4363 1dfb B9000000 		movl	$.LC54, %ecx
 4363      00
 4364 1e00 BA000000 		movl	$.LC24, %edx
 4364      00
 4365 1e05 BE000000 		movl	$.LC25, %esi
 4365      00
 4366 1e0a 4889C7   		movq	%rax, %rdi
 4367 1e0d E8000000 		call	_ZN8UnitTest11TestDetailsC1EPKcS2_S2_i
 4367      00
 174:TestChecks.cpp **** 
 175:TestChecks.cpp ****     CheckClose(results, 2, 3, 0.01f, details);
 4368              		.loc 5 175 0
 4369 1e12 8B050000 		movl	.LC42(%rip), %eax
 4369      0000
 4370 1e18 898590F7 		movl	%eax, -2160(%rbp)
 4370      FFFF
 4371 1e1e C7854CF7 		movl	$3, -2228(%rbp)
 4371      FFFF0300 
 4371      0000
 4372 1e28 C78548F7 		movl	$2, -2232(%rbp)
 4372      FFFF0200 
 4372      0000
 4373 1e32 488DBD70 		leaq	-2192(%rbp), %rdi
 4373      F7FFFF
 4374 1e39 488D8D90 		leaq	-2160(%rbp), %rcx
 4374      F7FFFF
 4375 1e40 488D954C 		leaq	-2228(%rbp), %rdx
 4375      F7FFFF
 4376 1e47 488DB548 		leaq	-2232(%rbp), %rsi
 4376      F7FFFF
 4377 1e4e 488D8550 		leaq	-2224(%rbp), %rax
 4377      F7FFFF
 4378 1e55 4989F8   		movq	%rdi, %r8
 4379 1e58 4889C7   		movq	%rax, %rdi
 4380 1e5b E8000000 		call	_ZN8UnitTest10CheckCloseIiifEEvRNS_11TestResultsERKT_RKT0_RKT1_RKNS_11TestDetailsE
 4380      00
 4381              	.LEHE103:
 4382              	.LEHB104:
 176:TestChecks.cpp **** 
 177:TestChecks.cpp ****     CHECK_EQUAL("mytest", reporter.lastFailedTest);
 4383              		.loc 5 177 0 discriminator 2
 4384 1e60 E8000000 		call	_ZN8UnitTest11CurrentTest7DetailsEv
 4384      00
 4385 1e65 488B08   		movq	(%rax), %rcx
 4386 1e68 488D8590 		leaq	-2160(%rbp), %rax
 4386      F7FFFF
 4387 1e6f BAB10000 		movl	$177, %edx
 4387      00
 4388 1e74 4889CE   		movq	%rcx, %rsi
 4389 1e77 4889C7   		movq	%rax, %rdi
 4390 1e7a E8000000 		call	_ZN8UnitTest11TestDetailsC1ERKS0_i
 4390      00
 4391 1e7f E8000000 		call	_ZN8UnitTest11CurrentTest7ResultsEv
 4391      00
 4392 1e84 488B00   		movq	(%rax), %rax
 4393 1e87 488D9590 		leaq	-2160(%rbp), %rdx
 4393      F7FFFF
 4394 1e8e 488D8DB0 		leaq	-2128(%rbp), %rcx
 4394      F7FFFF
 4395 1e95 488DB114 		leaq	1044(%rcx), %rsi
 4395      040000
 4396 1e9c 4889D1   		movq	%rdx, %rcx
 4397 1e9f 4889F2   		movq	%rsi, %rdx
 4398 1ea2 BE000000 		movl	$.LC25, %esi
 4398      00
 4399 1ea7 4889C7   		movq	%rax, %rdi
 4400 1eaa E8000000 		call	_ZN8UnitTest10CheckEqualERNS_11TestResultsEPKcPcRKNS_11TestDetailsE
 4400      00
 4401              	.LEHE104:
 4402              	.L197:
 4403              	.LEHB105:
 178:TestChecks.cpp ****     CHECK_EQUAL("mysuite", reporter.lastFailedSuite);
 4404              		.loc 5 178 0
 4405 1eaf E8000000 		call	_ZN8UnitTest11CurrentTest7DetailsEv
 4405      00
 4406 1eb4 488B08   		movq	(%rax), %rcx
 4407 1eb7 488D8590 		leaq	-2160(%rbp), %rax
 4407      F7FFFF
 4408 1ebe BAB20000 		movl	$178, %edx
 4408      00
 4409 1ec3 4889CE   		movq	%rcx, %rsi
 4410 1ec6 4889C7   		movq	%rax, %rdi
 4411 1ec9 E8000000 		call	_ZN8UnitTest11TestDetailsC1ERKS0_i
 4411      00
 4412              		.loc 5 178 0 is_stmt 0 discriminator 2
 4413 1ece E8000000 		call	_ZN8UnitTest11CurrentTest7ResultsEv
 4413      00
 4414 1ed3 488B00   		movq	(%rax), %rax
 4415 1ed6 488D9590 		leaq	-2160(%rbp), %rdx
 4415      F7FFFF
 4416 1edd 488D8DB0 		leaq	-2128(%rbp), %rcx
 4416      F7FFFF
 4417 1ee4 488DB114 		leaq	788(%rcx), %rsi
 4417      030000
 4418 1eeb 4889D1   		movq	%rdx, %rcx
 4419 1eee 4889F2   		movq	%rsi, %rdx
 4420 1ef1 BE000000 		movl	$.LC24, %esi
 4420      00
 4421 1ef6 4889C7   		movq	%rax, %rdi
 4422 1ef9 E8000000 		call	_ZN8UnitTest10CheckEqualERNS_11TestResultsEPKcPcRKNS_11TestDetailsE
 4422      00
 4423              	.LEHE105:
 4424              	.L200:
 4425              	.LEHB106:
 179:TestChecks.cpp ****     CHECK_EQUAL("header.h", reporter.lastFailedFile);
 4426              		.loc 5 179 0 is_stmt 1
 4427 1efe E8000000 		call	_ZN8UnitTest11CurrentTest7DetailsEv
 4427      00
 4428 1f03 488B08   		movq	(%rax), %rcx
 4429 1f06 488D8590 		leaq	-2160(%rbp), %rax
 4429      F7FFFF
 4430 1f0d BAB30000 		movl	$179, %edx
 4430      00
 4431 1f12 4889CE   		movq	%rcx, %rsi
 4432 1f15 4889C7   		movq	%rax, %rdi
 4433 1f18 E8000000 		call	_ZN8UnitTest11TestDetailsC1ERKS0_i
 4433      00
 4434              		.loc 5 179 0 is_stmt 0 discriminator 2
 4435 1f1d E8000000 		call	_ZN8UnitTest11CurrentTest7ResultsEv
 4435      00
 4436 1f22 488B00   		movq	(%rax), %rax
 4437 1f25 488D9590 		leaq	-2160(%rbp), %rdx
 4437      F7FFFF
 4438 1f2c 488D8DB0 		leaq	-2128(%rbp), %rcx
 4438      F7FFFF
 4439 1f33 488DB110 		leaq	528(%rcx), %rsi
 4439      020000
 4440 1f3a 4889D1   		movq	%rdx, %rcx
 4441 1f3d 4889F2   		movq	%rsi, %rdx
 4442 1f40 BE000000 		movl	$.LC54, %esi
 4442      00
 4443 1f45 4889C7   		movq	%rax, %rdi
 4444 1f48 E8000000 		call	_ZN8UnitTest10CheckEqualERNS_11TestResultsEPKcPcRKNS_11TestDetailsE
 4444      00
 4445              	.LEHE106:
 4446              	.L203:
 4447              	.LEHB107:
 180:TestChecks.cpp ****     CHECK_EQUAL(10, reporter.lastFailedLine);
 4448              		.loc 5 180 0 is_stmt 1
 4449 1f4d E8000000 		call	_ZN8UnitTest11CurrentTest7DetailsEv
 4449      00
 4450 1f52 488B08   		movq	(%rax), %rcx
 4451 1f55 488D8590 		leaq	-2160(%rbp), %rax
 4451      F7FFFF
 4452 1f5c BAB40000 		movl	$180, %edx
 4452      00
 4453 1f61 4889CE   		movq	%rcx, %rsi
 4454 1f64 4889C7   		movq	%rax, %rdi
 4455 1f67 E8000000 		call	_ZN8UnitTest11TestDetailsC1ERKS0_i
 4455      00
 4456              		.loc 5 180 0 is_stmt 0 discriminator 2
 4457 1f6c C7854CF7 		movl	$10, -2228(%rbp)
 4457      FFFF0A00 
 4457      0000
 4458 1f76 E8000000 		call	_ZN8UnitTest11CurrentTest7ResultsEv
 4458      00
 4459 1f7b 488B00   		movq	(%rax), %rax
 4460 1f7e 488D9590 		leaq	-2160(%rbp), %rdx
 4460      F7FFFF
 4461 1f85 488D8DB0 		leaq	-2128(%rbp), %rcx
 4461      F7FFFF
 4462 1f8c 488DB910 		leaq	784(%rcx), %rdi
 4462      030000
 4463 1f93 488DB54C 		leaq	-2228(%rbp), %rsi
 4463      F7FFFF
 4464 1f9a 4889D1   		movq	%rdx, %rcx
 4465 1f9d 4889FA   		movq	%rdi, %rdx
 4466 1fa0 4889C7   		movq	%rax, %rdi
 4467 1fa3 E8000000 		call	_ZN8UnitTest10CheckEqualIiiEEvRNS_11TestResultsERKT_RKT0_RKNS_11TestDetailsE
 4467      00
 4468              	.LEHE107:
 4469              	.L206:
 4470              		.loc 5 180 0 discriminator 7
 4471 1fa8 488D85B0 		leaq	-2128(%rbp), %rax
 4471      F7FFFF
 4472 1faf 4889C7   		movq	%rax, %rdi
 4473              	.LEHB108:
 4474 1fb2 E8000000 		call	_ZN17RecordingReporterD1Ev
 4474      00
 4475              	.LEHE108:
 4476              	.LBE58:
 181:TestChecks.cpp **** }
 4477              		.loc 5 181 0 is_stmt 1 discriminator 7
 4478 1fb7 488B45E8 		movq	-24(%rbp), %rax
 4479 1fbb 64483304 		xorq	%fs:40, %rax
 4479      25280000 
 4479      00
 4480 1fc4 0F849801 		je	.L207
 4480      0000
 4481 1fca E98E0100 		jmp	.L217
 4481      00
 4482              	.L210:
 4483 1fcf 4889C3   		movq	%rax, %rbx
 4484              	.LBB59:
 177:TestChecks.cpp ****     CHECK_EQUAL("mysuite", reporter.lastFailedSuite);
 4485              		.loc 5 177 0
 4486 1fd2 E8000000 		call	__cxa_end_catch
 4486      00
 4487 1fd7 E9670100 		jmp	.L195
 4487      00
 4488              	.L209:
 4489 1fdc 4889C7   		movq	%rax, %rdi
 4490 1fdf E8000000 		call	__cxa_begin_catch
 4490      00
 4491              	.LEHB109:
 4492 1fe4 E8000000 		call	_ZN8UnitTest11CurrentTest7DetailsEv
 4492      00
 4493 1fe9 488B08   		movq	(%rax), %rcx
 4494 1fec 488D8590 		leaq	-2160(%rbp), %rax
 4494      F7FFFF
 4495 1ff3 BAB10000 		movl	$177, %edx
 4495      00
 4496 1ff8 4889CE   		movq	%rcx, %rsi
 4497 1ffb 4889C7   		movq	%rax, %rdi
 4498 1ffe E8000000 		call	_ZN8UnitTest11TestDetailsC1ERKS0_i
 4498      00
 177:TestChecks.cpp ****     CHECK_EQUAL("mysuite", reporter.lastFailedSuite);
 4499              		.loc 5 177 0 is_stmt 0 discriminator 10
 4500 2003 E8000000 		call	_ZN8UnitTest11CurrentTest7ResultsEv
 4500      00
 4501 2008 488B00   		movq	(%rax), %rax
 4502 200b 488D8D90 		leaq	-2160(%rbp), %rcx
 4502      F7FFFF
 4503 2012 BA000000 		movl	$.LC26, %edx
 4503      00
 4504 2017 4889CE   		movq	%rcx, %rsi
 4505 201a 4889C7   		movq	%rax, %rdi
 4506 201d E8000000 		call	_ZN8UnitTest11TestResults13OnTestFailureERKNS_11TestDetailsEPKc
 4506      00
 4507              	.LEHE109:
 4508              	.LEHB110:
 177:TestChecks.cpp ****     CHECK_EQUAL("mysuite", reporter.lastFailedSuite);
 4509              		.loc 5 177 0 discriminator 14
 4510 2022 E8000000 		call	__cxa_end_catch
 4510      00
 4511              	.LEHE110:
 177:TestChecks.cpp ****     CHECK_EQUAL("mysuite", reporter.lastFailedSuite);
 4512              		.loc 5 177 0
 4513 2027 E983FEFF 		jmp	.L197
 4513      FF
 4514              	.L212:
 4515 202c 4889C3   		movq	%rax, %rbx
 178:TestChecks.cpp ****     CHECK_EQUAL("header.h", reporter.lastFailedFile);
 4516              		.loc 5 178 0 is_stmt 1
 4517 202f E8000000 		call	__cxa_end_catch
 4517      00
 4518 2034 E90A0100 		jmp	.L195
 4518      00
 4519              	.L211:
 4520 2039 4889C7   		movq	%rax, %rdi
 4521 203c E8000000 		call	__cxa_begin_catch
 4521      00
 4522              	.LEHB111:
 4523 2041 E8000000 		call	_ZN8UnitTest11CurrentTest7DetailsEv
 4523      00
 4524 2046 488B08   		movq	(%rax), %rcx
 4525 2049 488D8590 		leaq	-2160(%rbp), %rax
 4525      F7FFFF
 4526 2050 BAB20000 		movl	$178, %edx
 4526      00
 4527 2055 4889CE   		movq	%rcx, %rsi
 4528 2058 4889C7   		movq	%rax, %rdi
 4529 205b E8000000 		call	_ZN8UnitTest11TestDetailsC1ERKS0_i
 4529      00
 178:TestChecks.cpp ****     CHECK_EQUAL("header.h", reporter.lastFailedFile);
 4530              		.loc 5 178 0 is_stmt 0 discriminator 10
 4531 2060 E8000000 		call	_ZN8UnitTest11CurrentTest7ResultsEv
 4531      00
 4532 2065 488B00   		movq	(%rax), %rax
 4533 2068 488D8D90 		leaq	-2160(%rbp), %rcx
 4533      F7FFFF
 4534 206f BA000000 		movl	$.LC27, %edx
 4534      00
 4535 2074 4889CE   		movq	%rcx, %rsi
 4536 2077 4889C7   		movq	%rax, %rdi
 4537 207a E8000000 		call	_ZN8UnitTest11TestResults13OnTestFailureERKNS_11TestDetailsEPKc
 4537      00
 4538              	.LEHE111:
 4539              	.LEHB112:
 178:TestChecks.cpp ****     CHECK_EQUAL("header.h", reporter.lastFailedFile);
 4540              		.loc 5 178 0 discriminator 14
 4541 207f E8000000 		call	__cxa_end_catch
 4541      00
 4542              	.LEHE112:
 178:TestChecks.cpp ****     CHECK_EQUAL("header.h", reporter.lastFailedFile);
 4543              		.loc 5 178 0
 4544 2084 E975FEFF 		jmp	.L200
 4544      FF
 4545              	.L214:
 4546 2089 4889C3   		movq	%rax, %rbx
 179:TestChecks.cpp ****     CHECK_EQUAL(10, reporter.lastFailedLine);
 4547              		.loc 5 179 0 is_stmt 1
 4548 208c E8000000 		call	__cxa_end_catch
 4548      00
 4549 2091 E9AD0000 		jmp	.L195
 4549      00
 4550              	.L213:
 4551 2096 4889C7   		movq	%rax, %rdi
 4552 2099 E8000000 		call	__cxa_begin_catch
 4552      00
 4553              	.LEHB113:
 4554 209e E8000000 		call	_ZN8UnitTest11CurrentTest7DetailsEv
 4554      00
 4555 20a3 488B08   		movq	(%rax), %rcx
 4556 20a6 488D8590 		leaq	-2160(%rbp), %rax
 4556      F7FFFF
 4557 20ad BAB30000 		movl	$179, %edx
 4557      00
 4558 20b2 4889CE   		movq	%rcx, %rsi
 4559 20b5 4889C7   		movq	%rax, %rdi
 4560 20b8 E8000000 		call	_ZN8UnitTest11TestDetailsC1ERKS0_i
 4560      00
 179:TestChecks.cpp ****     CHECK_EQUAL(10, reporter.lastFailedLine);
 4561              		.loc 5 179 0 is_stmt 0 discriminator 10
 4562 20bd E8000000 		call	_ZN8UnitTest11CurrentTest7ResultsEv
 4562      00
 4563 20c2 488B00   		movq	(%rax), %rax
 4564 20c5 488D8D90 		leaq	-2160(%rbp), %rcx
 4564      F7FFFF
 4565 20cc BA000000 		movl	$.LC55, %edx
 4565      00
 4566 20d1 4889CE   		movq	%rcx, %rsi
 4567 20d4 4889C7   		movq	%rax, %rdi
 4568 20d7 E8000000 		call	_ZN8UnitTest11TestResults13OnTestFailureERKNS_11TestDetailsEPKc
 4568      00
 4569              	.LEHE113:
 4570              	.LEHB114:
 179:TestChecks.cpp ****     CHECK_EQUAL(10, reporter.lastFailedLine);
 4571              		.loc 5 179 0 discriminator 14
 4572 20dc E8000000 		call	__cxa_end_catch
 4572      00
 4573              	.LEHE114:
 179:TestChecks.cpp ****     CHECK_EQUAL(10, reporter.lastFailedLine);
 4574              		.loc 5 179 0
 4575 20e1 E967FEFF 		jmp	.L203
 4575      FF
 4576              	.L216:
 4577 20e6 4889C3   		movq	%rax, %rbx
 180:TestChecks.cpp **** }
 4578              		.loc 5 180 0 is_stmt 1
 4579 20e9 E8000000 		call	__cxa_end_catch
 4579      00
 4580 20ee EB53     		jmp	.L195
 4581              	.L215:
 4582 20f0 4889C7   		movq	%rax, %rdi
 4583 20f3 E8000000 		call	__cxa_begin_catch
 4583      00
 4584              	.LEHB115:
 4585 20f8 E8000000 		call	_ZN8UnitTest11CurrentTest7DetailsEv
 4585      00
 4586 20fd 488B08   		movq	(%rax), %rcx
 4587 2100 488D8590 		leaq	-2160(%rbp), %rax
 4587      F7FFFF
 4588 2107 BAB40000 		movl	$180, %edx
 4588      00
 4589 210c 4889CE   		movq	%rcx, %rsi
 4590 210f 4889C7   		movq	%rax, %rdi
 4591 2112 E8000000 		call	_ZN8UnitTest11TestDetailsC1ERKS0_i
 4591      00
 180:TestChecks.cpp **** }
 4592              		.loc 5 180 0 is_stmt 0 discriminator 11
 4593 2117 E8000000 		call	_ZN8UnitTest11CurrentTest7ResultsEv
 4593      00
 4594 211c 488B00   		movq	(%rax), %rax
 4595 211f 488D8D90 		leaq	-2160(%rbp), %rcx
 4595      F7FFFF
 4596 2126 BA000000 		movl	$.LC56, %edx
 4596      00
 4597 212b 4889CE   		movq	%rcx, %rsi
 4598 212e 4889C7   		movq	%rax, %rdi
 4599 2131 E8000000 		call	_ZN8UnitTest11TestResults13OnTestFailureERKNS_11TestDetailsEPKc
 4599      00
 4600              	.LEHE115:
 4601              	.LEHB116:
 180:TestChecks.cpp **** }
 4602              		.loc 5 180 0 discriminator 15
 4603 2136 E8000000 		call	__cxa_end_catch
 4603      00
 4604              	.LEHE116:
 180:TestChecks.cpp **** }
 4605              		.loc 5 180 0
 4606 213b E968FEFF 		jmp	.L206
 4606      FF
 4607              	.L208:
 4608 2140 4889C3   		movq	%rax, %rbx
 4609              	.L195:
 180:TestChecks.cpp **** }
 4610              		.loc 5 180 0 discriminator 16
 4611 2143 488D85B0 		leaq	-2128(%rbp), %rax
 4611      F7FFFF
 4612 214a 4889C7   		movq	%rax, %rdi
 4613 214d E8000000 		call	_ZN17RecordingReporterD1Ev
 4613      00
 4614 2152 4889D8   		movq	%rbx, %rax
 4615 2155 4889C7   		movq	%rax, %rdi
 4616              	.LEHB117:
 4617 2158 E8000000 		call	_Unwind_Resume
 4617      00
 4618              	.LEHE117:
 4619              	.L217:
 4620              	.LBE59:
 4621              		.loc 5 181 0 is_stmt 1
 4622 215d E8000000 		call	__stack_chk_fail
 4622      00
 4623              	.L207:
 4624 2162 4881C4C8 		addq	$2248, %rsp
 4624      080000
 4625 2169 5B       		popq	%rbx
 4626 216a 5D       		popq	%rbp
 4627              		.cfi_def_cfa 7, 8
 4628 216b C3       		ret
 4629              		.cfi_endproc
 4630              	.LFE1142:
 4631              		.section	.gcc_except_table
 4632              		.align 4
 4633              	.LLSDA1142:
 4634 02e4 FF       		.byte	0xff
 4635 02e5 03       		.byte	0x3
 4636 02e6 61       		.uleb128 .LLSDATT1142-.LLSDATTD1142
 4637              	.LLSDATTD1142:
 4638 02e7 01       		.byte	0x1
 4639 02e8 57       		.uleb128 .LLSDACSE1142-.LLSDACSB1142
 4640              	.LLSDACSB1142:
 4641 02e9 45       		.uleb128 .LEHB103-.LFB1142
 4642 02ea 77       		.uleb128 .LEHE103-.LEHB103
 4643 02eb 9C07     		.uleb128 .L208-.LFB1142
 4644 02ed 00       		.uleb128 0
 4645 02ee BC01     		.uleb128 .LEHB104-.LFB1142
 4646 02f0 4F       		.uleb128 .LEHE104-.LEHB104
 4647 02f1 B804     		.uleb128 .L209-.LFB1142
 4648 02f3 01       		.uleb128 0x1
 4649 02f4 8B02     		.uleb128 .LEHB105-.LFB1142
 4650 02f6 4F       		.uleb128 .LEHE105-.LEHB105
 4651 02f7 9505     		.uleb128 .L211-.LFB1142
 4652 02f9 01       		.uleb128 0x1
 4653 02fa DA02     		.uleb128 .LEHB106-.LFB1142
 4654 02fc 4F       		.uleb128 .LEHE106-.LEHB106
 4655 02fd F205     		.uleb128 .L213-.LFB1142
 4656 02ff 01       		.uleb128 0x1
 4657 0300 A903     		.uleb128 .LEHB107-.LFB1142
 4658 0302 5B       		.uleb128 .LEHE107-.LEHB107
 4659 0303 CC06     		.uleb128 .L215-.LFB1142
 4660 0305 01       		.uleb128 0x1
 4661 0306 8E04     		.uleb128 .LEHB108-.LFB1142
 4662 0308 05       		.uleb128 .LEHE108-.LEHB108
 4663 0309 00       		.uleb128 0
 4664 030a 00       		.uleb128 0
 4665 030b C004     		.uleb128 .LEHB109-.LFB1142
 4666 030d 3E       		.uleb128 .LEHE109-.LEHB109
 4667 030e AB04     		.uleb128 .L210-.LFB1142
 4668 0310 00       		.uleb128 0
 4669 0311 FE04     		.uleb128 .LEHB110-.LFB1142
 4670 0313 05       		.uleb128 .LEHE110-.LEHB110
 4671 0314 9C07     		.uleb128 .L208-.LFB1142
 4672 0316 00       		.uleb128 0
 4673 0317 9D05     		.uleb128 .LEHB111-.LFB1142
 4674 0319 3E       		.uleb128 .LEHE111-.LEHB111
 4675 031a 8805     		.uleb128 .L212-.LFB1142
 4676 031c 00       		.uleb128 0
 4677 031d DB05     		.uleb128 .LEHB112-.LFB1142
 4678 031f 05       		.uleb128 .LEHE112-.LEHB112
 4679 0320 9C07     		.uleb128 .L208-.LFB1142
 4680 0322 00       		.uleb128 0
 4681 0323 FA05     		.uleb128 .LEHB113-.LFB1142
 4682 0325 3E       		.uleb128 .LEHE113-.LEHB113
 4683 0326 E505     		.uleb128 .L214-.LFB1142
 4684 0328 00       		.uleb128 0
 4685 0329 B806     		.uleb128 .LEHB114-.LFB1142
 4686 032b 05       		.uleb128 .LEHE114-.LEHB114
 4687 032c 9C07     		.uleb128 .L208-.LFB1142
 4688 032e 00       		.uleb128 0
 4689 032f D406     		.uleb128 .LEHB115-.LFB1142
 4690 0331 3E       		.uleb128 .LEHE115-.LEHB115
 4691 0332 C206     		.uleb128 .L216-.LFB1142
 4692 0334 00       		.uleb128 0
 4693 0335 9207     		.uleb128 .LEHB116-.LFB1142
 4694 0337 05       		.uleb128 .LEHE116-.LEHB116
 4695 0338 9C07     		.uleb128 .L208-.LFB1142
 4696 033a 00       		.uleb128 0
 4697 033b B407     		.uleb128 .LEHB117-.LFB1142
 4698 033d 05       		.uleb128 .LEHE117-.LEHB117
 4699 033e 00       		.uleb128 0
 4700 033f 00       		.uleb128 0
 4701              	.LLSDACSE1142:
 4702 0340 01       		.byte	0x1
 4703 0341 00       		.byte	0
 4704 0342 0000     		.align 4
 4705 0344 00000000 		.long	0
 4706              	
 4707              	.LLSDATT1142:
 4708              		.text
 4710              		.section	.rodata
 4711              	.LC57:
 4712 0820 43686563 		.string	"CheckArrayEqualTrue"
 4712      6B417272 
 4712      61794571 
 4712      75616C54 
 4712      72756500 
 4713              		.text
 4714              		.align 2
 4716              	_ZN12_GLOBAL__N_123TestCheckArrayEqualTrueC2Ev:
 4717              	.LFB1144:
 182:TestChecks.cpp **** 
 183:TestChecks.cpp **** 
 184:TestChecks.cpp **** TEST(CheckArrayEqualTrue)
 4718              		.loc 5 184 0
 4719              		.cfi_startproc
 4720 216c 55       		pushq	%rbp
 4721              		.cfi_def_cfa_offset 16
 4722              		.cfi_offset 6, -16
 4723 216d 4889E5   		movq	%rsp, %rbp
 4724              		.cfi_def_cfa_register 6
 4725 2170 4883EC10 		subq	$16, %rsp
 4726 2174 48897DF8 		movq	%rdi, -8(%rbp)
 4727              	.LBB60:
 4728              		.loc 5 184 0
 4729 2178 E8000000 		call	_ZN13UnitTestSuite12GetSuiteNameEv
 4729      00
 4730 217d 4889C2   		movq	%rax, %rdx
 4731 2180 488B45F8 		movq	-8(%rbp), %rax
 4732 2184 41B8B800 		movl	$184, %r8d
 4732      0000
 4733 218a B9000000 		movl	$.LC2, %ecx
 4733      00
 4734 218f BE000000 		movl	$.LC57, %esi
 4734      00
 4735 2194 4889C7   		movq	%rax, %rdi
 4736 2197 E8000000 		call	_ZN8UnitTest4TestC2EPKcS2_S2_i
 4736      00
 4737 219c 488B45F8 		movq	-8(%rbp), %rax
 4738 21a0 48C70000 		movq	$_ZTVN12_GLOBAL__N_123TestCheckArrayEqualTrueE+16, (%rax)
 4738      000000
 4739              	.LBE60:
 4740 21a7 C9       		leave
 4741              		.cfi_def_cfa 7, 8
 4742 21a8 C3       		ret
 4743              		.cfi_endproc
 4744              	.LFE1144:
 4746              		.local	_ZN12_GLOBAL__N_131testCheckArrayEqualTrueInstanceE
 4747              		.comm	_ZN12_GLOBAL__N_131testCheckArrayEqualTrueInstanceE,56,32
 4748              		.local	_ZN12_GLOBAL__N_124adderCheckArrayEqualTrueE
 4749              		.comm	_ZN12_GLOBAL__N_124adderCheckArrayEqualTrueE,1,1
 4750 21a9 90       		.align 2
 4752              	_ZNK12_GLOBAL__N_123TestCheckArrayEqualTrue7RunImplEv:
 4753              	.LFB1146:
 185:TestChecks.cpp **** {
 4754              		.loc 5 185 0
 4755              		.cfi_startproc
 4756              		.cfi_personality 0x3,__gxx_personality_v0
 4757              		.cfi_lsda 0x3,.LLSDA1146
 4758 21aa 55       		pushq	%rbp
 4759              		.cfi_def_cfa_offset 16
 4760              		.cfi_offset 6, -16
 4761 21ab 4889E5   		movq	%rsp, %rbp
 4762              		.cfi_def_cfa_register 6
 4763 21ae 53       		pushq	%rbx
 4764 21af 4881EC88 		subq	$136, %rsp
 4764      000000
 4765              		.cfi_offset 3, -24
 4766 21b6 4889BD78 		movq	%rdi, -136(%rbp)
 4766      FFFFFF
 4767              		.loc 5 185 0
 4768 21bd 64488B04 		movq	%fs:40, %rax
 4768      25280000 
 4768      00
 4769 21c6 488945E8 		movq	%rax, -24(%rbp)
 4770 21ca 31C0     		xorl	%eax, %eax
 4771              	.LBB61:
 186:TestChecks.cpp ****     TestResults results;
 4772              		.loc 5 186 0
 4773 21cc 488D45A0 		leaq	-96(%rbp), %rax
 4774 21d0 BE000000 		movl	$0, %esi
 4774      00
 4775 21d5 4889C7   		movq	%rax, %rdi
 4776              	.LEHB118:
 4777 21d8 E8000000 		call	_ZN8UnitTest11TestResultsC1EPNS_12TestReporterE
 4777      00
 187:TestChecks.cpp **** 
 188:TestChecks.cpp ****     int const array[3] = { 1, 2, 3 };
 4778              		.loc 5 188 0
 4779 21dd C7459001 		movl	$1, -112(%rbp)
 4779      000000
 4780 21e4 C7459402 		movl	$2, -108(%rbp)
 4780      000000
 4781 21eb C7459803 		movl	$3, -104(%rbp)
 4781      000000
 189:TestChecks.cpp ****     CheckArrayEqual(results, array, array, 3, TestDetails("", "", "", 0));
 4782              		.loc 5 189 0
 4783 21f2 488D45C0 		leaq	-64(%rbp), %rax
 4784 21f6 41B80000 		movl	$0, %r8d
 4784      0000
 4785 21fc B9000000 		movl	$.LC6, %ecx
 4785      00
 4786 2201 BA000000 		movl	$.LC6, %edx
 4786      00
 4787 2206 BE000000 		movl	$.LC6, %esi
 4787      00
 4788 220b 4889C7   		movq	%rax, %rdi
 4789 220e E8000000 		call	_ZN8UnitTest11TestDetailsC1EPKcS2_S2_i
 4789      00
 4790 2213 488D4DC0 		leaq	-64(%rbp), %rcx
 4791 2217 488D5590 		leaq	-112(%rbp), %rdx
 4792 221b 488D7590 		leaq	-112(%rbp), %rsi
 4793 221f 488D45A0 		leaq	-96(%rbp), %rax
 4794 2223 4989C8   		movq	%rcx, %r8
 4795 2226 B9030000 		movl	$3, %ecx
 4795      00
 4796 222b 4889C7   		movq	%rax, %rdi
 4797 222e E8000000 		call	_ZN8UnitTest15CheckArrayEqualIA3_iS1_EEvRNS_11TestResultsERKT_RKT0_iRKNS_11TestDetailsE
 4797      00
 4798              	.LEHE118:
 4799              	.LEHB119:
 190:TestChecks.cpp ****     CHECK_EQUAL(0, results.GetFailureCount());
 4800              		.loc 5 190 0
 4801 2233 E8000000 		call	_ZN8UnitTest11CurrentTest7DetailsEv
 4801      00
 4802 2238 488B08   		movq	(%rax), %rcx
 4803 223b 488D45C0 		leaq	-64(%rbp), %rax
 4804 223f BABE0000 		movl	$190, %edx
 4804      00
 4805 2244 4889CE   		movq	%rcx, %rsi
 4806 2247 4889C7   		movq	%rax, %rdi
 4807 224a E8000000 		call	_ZN8UnitTest11TestDetailsC1ERKS0_i
 4807      00
 4808              		.loc 5 190 0 is_stmt 0 discriminator 2
 4809 224f 488D45A0 		leaq	-96(%rbp), %rax
 4810 2253 4889C7   		movq	%rax, %rdi
 4811 2256 E8000000 		call	_ZNK8UnitTest11TestResults15GetFailureCountEv
 4811      00
 4812 225b 89458C   		movl	%eax, -116(%rbp)
 4813 225e C7458800 		movl	$0, -120(%rbp)
 4813      000000
 4814 2265 E8000000 		call	_ZN8UnitTest11CurrentTest7ResultsEv
 4814      00
 4815              		.loc 5 190 0 discriminator 4
 4816 226a 488B00   		movq	(%rax), %rax
 4817 226d 488D4DC0 		leaq	-64(%rbp), %rcx
 4818 2271 488D558C 		leaq	-116(%rbp), %rdx
 4819 2275 488D7588 		leaq	-120(%rbp), %rsi
 4820 2279 4889C7   		movq	%rax, %rdi
 4821 227c E8000000 		call	_ZN8UnitTest10CheckEqualIiiEEvRNS_11TestResultsERKT_RKT0_RKNS_11TestDetailsE
 4821      00
 4822              	.LEHE119:
 4823              	.LBE61:
 191:TestChecks.cpp **** }
 4824              		.loc 5 191 0 is_stmt 1
 4825 2281 EB58     		jmp	.L226
 4826              	.L225:
 4827 2283 4889C3   		movq	%rax, %rbx
 4828              	.LBB62:
 190:TestChecks.cpp ****     CHECK_EQUAL(0, results.GetFailureCount());
 4829              		.loc 5 190 0
 4830 2286 E8000000 		call	__cxa_end_catch
 4830      00
 4831 228b 4889D8   		movq	%rbx, %rax
 4832 228e 4889C7   		movq	%rax, %rdi
 4833              	.LEHB120:
 4834 2291 E8000000 		call	_Unwind_Resume
 4834      00
 4835              	.LEHE120:
 4836              	.L224:
 4837 2296 4889C7   		movq	%rax, %rdi
 4838 2299 E8000000 		call	__cxa_begin_catch
 4838      00
 4839              	.LEHB121:
 4840 229e E8000000 		call	_ZN8UnitTest11CurrentTest7DetailsEv
 4840      00
 4841 22a3 488B08   		movq	(%rax), %rcx
 4842 22a6 488D45C0 		leaq	-64(%rbp), %rax
 4843 22aa BABE0000 		movl	$190, %edx
 4843      00
 4844 22af 4889CE   		movq	%rcx, %rsi
 4845 22b2 4889C7   		movq	%rax, %rdi
 4846 22b5 E8000000 		call	_ZN8UnitTest11TestDetailsC1ERKS0_i
 4846      00
 190:TestChecks.cpp ****     CHECK_EQUAL(0, results.GetFailureCount());
 4847              		.loc 5 190 0 is_stmt 0 discriminator 12
 4848 22ba E8000000 		call	_ZN8UnitTest11CurrentTest7ResultsEv
 4848      00
 4849 22bf 488B00   		movq	(%rax), %rax
 4850 22c2 488D4DC0 		leaq	-64(%rbp), %rcx
 4851 22c6 BA000000 		movl	$.LC9, %edx
 4851      00
 4852 22cb 4889CE   		movq	%rcx, %rsi
 4853 22ce 4889C7   		movq	%rax, %rdi
 4854 22d1 E8000000 		call	_ZN8UnitTest11TestResults13OnTestFailureERKNS_11TestDetailsEPKc
 4854      00
 4855              	.LEHE121:
 4856              	.LEHB122:
 190:TestChecks.cpp ****     CHECK_EQUAL(0, results.GetFailureCount());
 4857              		.loc 5 190 0 discriminator 16
 4858 22d6 E8000000 		call	__cxa_end_catch
 4858      00
 4859              	.LEHE122:
 4860              	.L226:
 4861              	.LBE62:
 4862              		.loc 5 191 0 is_stmt 1
 4863 22db 90       		nop
 4864 22dc 488B45E8 		movq	-24(%rbp), %rax
 4865 22e0 64483304 		xorq	%fs:40, %rax
 4865      25280000 
 4865      00
 4866 22e9 7405     		je	.L223
 4867 22eb E8000000 		call	__stack_chk_fail
 4867      00
 4868              	.L223:
 4869 22f0 4881C488 		addq	$136, %rsp
 4869      000000
 4870 22f7 5B       		popq	%rbx
 4871 22f8 5D       		popq	%rbp
 4872              		.cfi_def_cfa 7, 8
 4873 22f9 C3       		ret
 4874              		.cfi_endproc
 4875              	.LFE1146:
 4876              		.section	.gcc_except_table
 4877              		.align 4
 4878              	.LLSDA1146:
 4879 0348 FF       		.byte	0xff
 4880 0349 03       		.byte	0x3
 4881 034a 25       		.uleb128 .LLSDATT1146-.LLSDATTD1146
 4882              	.LLSDATTD1146:
 4883 034b 01       		.byte	0x1
 4884 034c 1A       		.uleb128 .LLSDACSE1146-.LLSDACSB1146
 4885              	.LLSDACSB1146:
 4886 034d 2E       		.uleb128 .LEHB118-.LFB1146
 4887 034e 5B       		.uleb128 .LEHE118-.LEHB118
 4888 034f 00       		.uleb128 0
 4889 0350 00       		.uleb128 0
 4890 0351 8901     		.uleb128 .LEHB119-.LFB1146
 4891 0353 4E       		.uleb128 .LEHE119-.LEHB119
 4892 0354 EC01     		.uleb128 .L224-.LFB1146
 4893 0356 01       		.uleb128 0x1
 4894 0357 E701     		.uleb128 .LEHB120-.LFB1146
 4895 0359 05       		.uleb128 .LEHE120-.LEHB120
 4896 035a 00       		.uleb128 0
 4897 035b 00       		.uleb128 0
 4898 035c F401     		.uleb128 .LEHB121-.LFB1146
 4899 035e 38       		.uleb128 .LEHE121-.LEHB121
 4900 035f D901     		.uleb128 .L225-.LFB1146
 4901 0361 00       		.uleb128 0
 4902 0362 AC02     		.uleb128 .LEHB122-.LFB1146
 4903 0364 05       		.uleb128 .LEHE122-.LEHB122
 4904 0365 00       		.uleb128 0
 4905 0366 00       		.uleb128 0
 4906              	.LLSDACSE1146:
 4907 0367 01       		.byte	0x1
 4908 0368 00       		.byte	0
 4909 0369 000000   		.align 4
 4910 036c 00000000 		.long	0
 4911              	
 4912              	.LLSDATT1146:
 4913              		.text
 4915              		.section	.rodata
 4916              	.LC58:
 4917 0834 43686563 		.string	"CheckArrayEqualFalse"
 4917      6B417272 
 4917      61794571 
 4917      75616C46 
 4917      616C7365 
 4918              		.text
 4919              		.align 2
 4921              	_ZN12_GLOBAL__N_124TestCheckArrayEqualFalseC2Ev:
 4922              	.LFB1148:
 192:TestChecks.cpp **** 
 193:TestChecks.cpp **** TEST(CheckArrayEqualFalse)
 4923              		.loc 5 193 0
 4924              		.cfi_startproc
 4925 22fa 55       		pushq	%rbp
 4926              		.cfi_def_cfa_offset 16
 4927              		.cfi_offset 6, -16
 4928 22fb 4889E5   		movq	%rsp, %rbp
 4929              		.cfi_def_cfa_register 6
 4930 22fe 4883EC10 		subq	$16, %rsp
 4931 2302 48897DF8 		movq	%rdi, -8(%rbp)
 4932              	.LBB63:
 4933              		.loc 5 193 0
 4934 2306 E8000000 		call	_ZN13UnitTestSuite12GetSuiteNameEv
 4934      00
 4935 230b 4889C2   		movq	%rax, %rdx
 4936 230e 488B45F8 		movq	-8(%rbp), %rax
 4937 2312 41B8C100 		movl	$193, %r8d
 4937      0000
 4938 2318 B9000000 		movl	$.LC2, %ecx
 4938      00
 4939 231d BE000000 		movl	$.LC58, %esi
 4939      00
 4940 2322 4889C7   		movq	%rax, %rdi
 4941 2325 E8000000 		call	_ZN8UnitTest4TestC2EPKcS2_S2_i
 4941      00
 4942 232a 488B45F8 		movq	-8(%rbp), %rax
 4943 232e 48C70000 		movq	$_ZTVN12_GLOBAL__N_124TestCheckArrayEqualFalseE+16, (%rax)
 4943      000000
 4944              	.LBE63:
 4945 2335 C9       		leave
 4946              		.cfi_def_cfa 7, 8
 4947 2336 C3       		ret
 4948              		.cfi_endproc
 4949              	.LFE1148:
 4951              		.local	_ZN12_GLOBAL__N_132testCheckArrayEqualFalseInstanceE
 4952              		.comm	_ZN12_GLOBAL__N_132testCheckArrayEqualFalseInstanceE,56,32
 4953              		.local	_ZN12_GLOBAL__N_125adderCheckArrayEqualFalseE
 4954              		.comm	_ZN12_GLOBAL__N_125adderCheckArrayEqualFalseE,1,1
 4955 2337 90       		.align 2
 4957              	_ZNK12_GLOBAL__N_124TestCheckArrayEqualFalse7RunImplEv:
 4958              	.LFB1150:
 194:TestChecks.cpp **** {
 4959              		.loc 5 194 0
 4960              		.cfi_startproc
 4961              		.cfi_personality 0x3,__gxx_personality_v0
 4962              		.cfi_lsda 0x3,.LLSDA1150
 4963 2338 55       		pushq	%rbp
 4964              		.cfi_def_cfa_offset 16
 4965              		.cfi_offset 6, -16
 4966 2339 4889E5   		movq	%rsp, %rbp
 4967              		.cfi_def_cfa_register 6
 4968 233c 53       		pushq	%rbx
 4969 233d 4881EC98 		subq	$152, %rsp
 4969      000000
 4970              		.cfi_offset 3, -24
 4971 2344 4889BD68 		movq	%rdi, -152(%rbp)
 4971      FFFFFF
 4972              		.loc 5 194 0
 4973 234b 64488B04 		movq	%fs:40, %rax
 4973      25280000 
 4973      00
 4974 2354 488945E8 		movq	%rax, -24(%rbp)
 4975 2358 31C0     		xorl	%eax, %eax
 4976              	.LBB64:
 195:TestChecks.cpp ****     TestResults results;
 4977              		.loc 5 195 0
 4978 235a 488D45A0 		leaq	-96(%rbp), %rax
 4979 235e BE000000 		movl	$0, %esi
 4979      00
 4980 2363 4889C7   		movq	%rax, %rdi
 4981              	.LEHB123:
 4982 2366 E8000000 		call	_ZN8UnitTest11TestResultsC1EPNS_12TestReporterE
 4982      00
 196:TestChecks.cpp **** 
 197:TestChecks.cpp ****     int const array1[3] = { 1, 2, 3 };
 4983              		.loc 5 197 0
 4984 236b C7458001 		movl	$1, -128(%rbp)
 4984      000000
 4985 2372 C7458402 		movl	$2, -124(%rbp)
 4985      000000
 4986 2379 C7458803 		movl	$3, -120(%rbp)
 4986      000000
 198:TestChecks.cpp ****     int const array2[3] = { 1, 2, 2 };
 4987              		.loc 5 198 0
 4988 2380 C7459001 		movl	$1, -112(%rbp)
 4988      000000
 4989 2387 C7459402 		movl	$2, -108(%rbp)
 4989      000000
 4990 238e C7459802 		movl	$2, -104(%rbp)
 4990      000000
 199:TestChecks.cpp ****     CheckArrayEqual(results, array1, array2, 3, TestDetails("", "", "", 0));
 4991              		.loc 5 199 0
 4992 2395 488D45C0 		leaq	-64(%rbp), %rax
 4993 2399 41B80000 		movl	$0, %r8d
 4993      0000
 4994 239f B9000000 		movl	$.LC6, %ecx
 4994      00
 4995 23a4 BA000000 		movl	$.LC6, %edx
 4995      00
 4996 23a9 BE000000 		movl	$.LC6, %esi
 4996      00
 4997 23ae 4889C7   		movq	%rax, %rdi
 4998 23b1 E8000000 		call	_ZN8UnitTest11TestDetailsC1EPKcS2_S2_i
 4998      00
 4999 23b6 488D4DC0 		leaq	-64(%rbp), %rcx
 5000 23ba 488D5590 		leaq	-112(%rbp), %rdx
