   1              		.file	"TestXmlTestReporter.cpp"
   2              		.text
   3              	.Ltext0:
   4              		.section	.rodata
   5              	.LC0:
   6 0000 44656661 		.string	"DefaultSuite"
   6      756C7453 
   6      75697465 
   6      00
   7              		.section	.text._ZN13UnitTestSuite12GetSuiteNameEv,"axG",@progbits,_ZN13UnitTestSuite12GetSuiteName
   8              		.weak	_ZN13UnitTestSuite12GetSuiteNameEv
  10              	_ZN13UnitTestSuite12GetSuiteNameEv:
  11              	.LFB0:
  12              		.file 1 "../TestSuite.h"
   1:../TestSuite.h **** #ifndef UNITTEST_TESTSUITE_H
   2:../TestSuite.h **** #define UNITTEST_TESTSUITE_H
   3:../TestSuite.h **** 
   4:../TestSuite.h **** namespace UnitTestSuite {
   5:../TestSuite.h **** 
   6:../TestSuite.h ****     inline char const* GetSuiteName ()
   7:../TestSuite.h ****     {
  13              		.loc 1 7 0
  14              		.cfi_startproc
  15 0000 55       		pushq	%rbp
  16              		.cfi_def_cfa_offset 16
  17              		.cfi_offset 6, -16
  18 0001 4889E5   		movq	%rsp, %rbp
  19              		.cfi_def_cfa_register 6
   8:../TestSuite.h ****         return "DefaultSuite";
  20              		.loc 1 8 0
  21 0004 B8000000 		movl	$.LC0, %eax
  21      00
   9:../TestSuite.h ****     }
  22              		.loc 1 9 0
  23 0009 5D       		popq	%rbp
  24              		.cfi_def_cfa 7, 8
  25 000a C3       		ret
  26              		.cfi_endproc
  27              	.LFE0:
  29              		.section	.text._ZN8UnitTest15MemoryOutStreamC1Ev,"axG",@progbits,_ZN8UnitTest15MemoryOutStreamC1Ev
  30              		.align 2
  31              		.weak	_ZN8UnitTest15MemoryOutStreamC1Ev
  33              	_ZN8UnitTest15MemoryOutStreamC1Ev:
  34              	.LFB1053:
  35              		.file 2 "../MemoryOutStream.h"
   1:../MemoryOutStream.h **** #ifndef UNITTEST_MEMORYOUTSTREAM_H
   2:../MemoryOutStream.h **** #define UNITTEST_MEMORYOUTSTREAM_H
   3:../MemoryOutStream.h **** 
   4:../MemoryOutStream.h **** #include "Config.h"
   5:../MemoryOutStream.h **** 
   6:../MemoryOutStream.h **** #ifndef UNITTEST_USE_CUSTOM_STREAMS
   7:../MemoryOutStream.h **** 
   8:../MemoryOutStream.h **** #include <sstream>
   9:../MemoryOutStream.h **** 
  10:../MemoryOutStream.h **** namespace UnitTest
  11:../MemoryOutStream.h **** {
  12:../MemoryOutStream.h **** 
  13:../MemoryOutStream.h **** class MemoryOutStream : public std::ostringstream
  14:../MemoryOutStream.h **** {
  15:../MemoryOutStream.h **** public:
  16:../MemoryOutStream.h ****     MemoryOutStream() {}
  36              		.loc 2 16 0
  37              		.cfi_startproc
  38              		.cfi_personality 0x3,__gxx_personality_v0
  39              		.cfi_lsda 0x3,.LLSDA1053
  40 0000 55       		pushq	%rbp
  41              		.cfi_def_cfa_offset 16
  42              		.cfi_offset 6, -16
  43 0001 4889E5   		movq	%rsp, %rbp
  44              		.cfi_def_cfa_register 6
  45 0004 53       		pushq	%rbx
  46 0005 4883EC18 		subq	$24, %rsp
  47              		.cfi_offset 3, -24
  48 0009 48897DE8 		movq	%rdi, -24(%rbp)
  49              	.LBB2:
  50              		.loc 2 16 0
  51 000d 488B45E8 		movq	-24(%rbp), %rax
  52 0011 4883C060 		addq	$96, %rax
  53 0015 4889C7   		movq	%rax, %rdi
  54              	.LEHB0:
  55 0018 E8000000 		call	_ZNSt9basic_iosIcSt11char_traitsIcEEC2Ev
  55      00
  56              	.LEHE0:
  57 001d B9000000 		movl	$_ZTTN8UnitTest15MemoryOutStreamE+8, %ecx
  57      00
  58 0022 488B45E8 		movq	-24(%rbp), %rax
  59 0026 BA100000 		movl	$16, %edx
  59      00
  60 002b 4889CE   		movq	%rcx, %rsi
  61 002e 4889C7   		movq	%rax, %rdi
  62              	.LEHB1:
  63 0031 E8000000 		call	_ZNSt19basic_ostringstreamIcSt11char_traitsIcESaIcEEC2ESt13_Ios_Openmode
  63      00
  64              	.LEHE1:
  65              		.loc 2 16 0 is_stmt 0 discriminator 9
  66 0036 BA000000 		movl	$_ZTVN8UnitTest15MemoryOutStreamE+24, %edx
  66      00
  67 003b 488B45E8 		movq	-24(%rbp), %rax
  68 003f 488910   		movq	%rdx, (%rax)
  69 0042 BA600000 		movl	$96, %edx
  69      00
  70 0047 488B45E8 		movq	-24(%rbp), %rax
  71 004b 4801D0   		addq	%rdx, %rax
  72 004e BA000000 		movl	$_ZTVN8UnitTest15MemoryOutStreamE+64, %edx
  72      00
  73 0053 488910   		movq	%rdx, (%rax)
  74 0056 488B45E8 		movq	-24(%rbp), %rax
  75 005a 4883C058 		addq	$88, %rax
  76 005e 4889C7   		movq	%rax, %rdi
  77              	.LEHB2:
  78 0061 E8000000 		call	_ZNSsC1Ev
  78      00
  79              	.LEHE2:
  80              	.LBE2:
  81              		.loc 2 16 0
  82 0066 EB37     		jmp	.L8
  83              	.L6:
  84 0068 4889C3   		movq	%rax, %rbx
  85              	.LBB3:
  86 006b BA000000 		movl	$_ZTTN8UnitTest15MemoryOutStreamE+8, %edx
  86      00
  87 0070 488B45E8 		movq	-24(%rbp), %rax
  88 0074 4889D6   		movq	%rdx, %rsi
  89 0077 4889C7   		movq	%rax, %rdi
  90 007a E8000000 		call	_ZNSt19basic_ostringstreamIcSt11char_traitsIcESaIcEED2Ev
  90      00
  91 007f EB03     		jmp	.L5
  92              	.L7:
  93 0081 4889C3   		movq	%rax, %rbx
  94              	.L5:
  95              		.loc 2 16 0 discriminator 28
  96 0084 488B45E8 		movq	-24(%rbp), %rax
  97 0088 4883C060 		addq	$96, %rax
  98 008c 4889C7   		movq	%rax, %rdi
  99 008f E8000000 		call	_ZNSt9basic_iosIcSt11char_traitsIcEED2Ev
  99      00
 100 0094 4889D8   		movq	%rbx, %rax
 101 0097 4889C7   		movq	%rax, %rdi
 102              	.LEHB3:
 103 009a E8000000 		call	_Unwind_Resume
 103      00
 104              	.LEHE3:
 105              	.L8:
 106              	.LBE3:
 107              		.loc 2 16 0
 108 009f 4883C418 		addq	$24, %rsp
 109 00a3 5B       		popq	%rbx
 110 00a4 5D       		popq	%rbp
 111              		.cfi_def_cfa 7, 8
 112 00a5 C3       		ret
 113              		.cfi_endproc
 114              	.LFE1053:
 115              		.globl	__gxx_personality_v0
 116              		.section	.gcc_except_table._ZN8UnitTest15MemoryOutStreamC1Ev,"aG",@progbits,_ZN8UnitTest15MemoryOu
 117              	.LLSDA1053:
 118 0000 FF       		.byte	0xff
 119 0001 FF       		.byte	0xff
 120 0002 01       		.byte	0x1
 121 0003 12       		.uleb128 .LLSDACSE1053-.LLSDACSB1053
 122              	.LLSDACSB1053:
 123 0004 18       		.uleb128 .LEHB0-.LFB1053
 124 0005 05       		.uleb128 .LEHE0-.LEHB0
 125 0006 00       		.uleb128 0
 126 0007 00       		.uleb128 0
 127 0008 31       		.uleb128 .LEHB1-.LFB1053
 128 0009 05       		.uleb128 .LEHE1-.LEHB1
 129 000a 8101     		.uleb128 .L7-.LFB1053
 130 000c 00       		.uleb128 0
 131 000d 61       		.uleb128 .LEHB2-.LFB1053
 132 000e 05       		.uleb128 .LEHE2-.LEHB2
 133 000f 68       		.uleb128 .L6-.LFB1053
 134 0010 00       		.uleb128 0
 135 0011 9A01     		.uleb128 .LEHB3-.LFB1053
 136 0013 05       		.uleb128 .LEHE3-.LEHB3
 137 0014 00       		.uleb128 0
 138 0015 00       		.uleb128 0
 139              	.LLSDACSE1053:
 140              		.section	.text._ZN8UnitTest15MemoryOutStreamC1Ev,"axG",@progbits,_ZN8UnitTest15MemoryOutStreamC1Ev
 142              		.text
 143              		.align 2
 145              	_ZN12_GLOBAL__N_122XmlTestReporterFixtureC2Ev:
 146              	.LFB1334:
 147              		.file 3 "TestXmlTestReporter.cpp"
   1:TestXmlTestReporter.cpp **** #include "../UnitTest++.h"
   2:TestXmlTestReporter.cpp **** #include "../XmlTestReporter.h"
   3:TestXmlTestReporter.cpp **** 
   4:TestXmlTestReporter.cpp **** #include <sstream>
   5:TestXmlTestReporter.cpp **** 
   6:TestXmlTestReporter.cpp **** using namespace UnitTest;
   7:TestXmlTestReporter.cpp **** using std::ostringstream;
   8:TestXmlTestReporter.cpp **** 
   9:TestXmlTestReporter.cpp **** namespace
  10:TestXmlTestReporter.cpp **** {
  11:TestXmlTestReporter.cpp **** 
  12:TestXmlTestReporter.cpp **** #ifdef UNITTEST_USE_CUSTOM_STREAMS
  13:TestXmlTestReporter.cpp **** 
  14:TestXmlTestReporter.cpp **** // Overload to let MemoryOutStream accept std::string
  15:TestXmlTestReporter.cpp **** MemoryOutStream& operator<<(MemoryOutStream& s, const std::string& value)
  16:TestXmlTestReporter.cpp **** {
  17:TestXmlTestReporter.cpp ****     s << value.c_str();
  18:TestXmlTestReporter.cpp ****     return s;
  19:TestXmlTestReporter.cpp **** }
  20:TestXmlTestReporter.cpp **** 
  21:TestXmlTestReporter.cpp **** #endif
  22:TestXmlTestReporter.cpp **** 
  23:TestXmlTestReporter.cpp **** struct XmlTestReporterFixture
  24:TestXmlTestReporter.cpp **** {
  25:TestXmlTestReporter.cpp ****     XmlTestReporterFixture()
 148              		.loc 3 25 0 is_stmt 1
 149              		.cfi_startproc
 150              		.cfi_personality 0x3,__gxx_personality_v0
 151              		.cfi_lsda 0x3,.LLSDA1334
 152 0000 55       		pushq	%rbp
 153              		.cfi_def_cfa_offset 16
 154              		.cfi_offset 6, -16
 155 0001 4889E5   		movq	%rsp, %rbp
 156              		.cfi_def_cfa_register 6
 157 0004 53       		pushq	%rbx
 158 0005 4883EC18 		subq	$24, %rsp
 159              		.cfi_offset 3, -24
 160 0009 48897DE8 		movq	%rdi, -24(%rbp)
 161              	.LBB4:
  26:TestXmlTestReporter.cpp ****         : reporter(output)
 162              		.loc 3 26 0
 163 000d 488B45E8 		movq	-24(%rbp), %rax
 164 0011 BE100000 		movl	$16, %esi
 164      00
 165 0016 4889C7   		movq	%rax, %rdi
 166              	.LEHB4:
 167 0019 E8000000 		call	_ZNSt19basic_ostringstreamIcSt11char_traitsIcESaIcEEC1ESt13_Ios_Openmode
 167      00
 168              	.LEHE4:
 169 001e 488B45E8 		movq	-24(%rbp), %rax
 170 0022 488B55E8 		movq	-24(%rbp), %rdx
 171 0026 4881C260 		addq	$352, %rdx
 171      010000
 172 002d 4889C6   		movq	%rax, %rsi
 173 0030 4889D7   		movq	%rdx, %rdi
 174              	.LEHB5:
 175 0033 E8000000 		call	_ZN8UnitTest15XmlTestReporterC1ERSo
 175      00
 176              	.LEHE5:
 177              	.LBE4:
  27:TestXmlTestReporter.cpp ****     {
  28:TestXmlTestReporter.cpp ****     }
 178              		.loc 3 28 0
 179 0038 EB1A     		jmp	.L12
 180              	.L11:
 181 003a 4889C3   		movq	%rax, %rbx
 182              	.LBB5:
  26:TestXmlTestReporter.cpp ****         : reporter(output)
 183              		.loc 3 26 0
 184 003d 488B45E8 		movq	-24(%rbp), %rax
 185 0041 4889C7   		movq	%rax, %rdi
 186 0044 E8000000 		call	_ZNSt19basic_ostringstreamIcSt11char_traitsIcESaIcEED1Ev
 186      00
 187 0049 4889D8   		movq	%rbx, %rax
 188 004c 4889C7   		movq	%rax, %rdi
 189              	.LEHB6:
 190 004f E8000000 		call	_Unwind_Resume
 190      00
 191              	.LEHE6:
 192              	.L12:
 193              	.LBE5:
 194              		.loc 3 28 0
 195 0054 4883C418 		addq	$24, %rsp
 196 0058 5B       		popq	%rbx
 197 0059 5D       		popq	%rbp
 198              		.cfi_def_cfa 7, 8
 199 005a C3       		ret
 200              		.cfi_endproc
 201              	.LFE1334:
 202              		.section	.gcc_except_table,"a",@progbits
 203              	.LLSDA1334:
 204 0000 FF       		.byte	0xff
 205 0001 FF       		.byte	0xff
 206 0002 01       		.byte	0x1
 207 0003 0C       		.uleb128 .LLSDACSE1334-.LLSDACSB1334
 208              	.LLSDACSB1334:
 209 0004 19       		.uleb128 .LEHB4-.LFB1334
 210 0005 05       		.uleb128 .LEHE4-.LEHB4
 211 0006 00       		.uleb128 0
 212 0007 00       		.uleb128 0
 213 0008 33       		.uleb128 .LEHB5-.LFB1334
 214 0009 05       		.uleb128 .LEHE5-.LEHB5
 215 000a 3A       		.uleb128 .L11-.LFB1334
 216 000b 00       		.uleb128 0
 217 000c 4F       		.uleb128 .LEHB6-.LFB1334
 218 000d 05       		.uleb128 .LEHE6-.LEHB6
 219 000e 00       		.uleb128 0
 220 000f 00       		.uleb128 0
 221              	.LLSDACSE1334:
 222              		.text
 224 005b 90       		.align 2
 226              	_ZN12_GLOBAL__N_122XmlTestReporterFixtureD2Ev:
 227              	.LFB1338:
  23:TestXmlTestReporter.cpp **** {
 228              		.loc 3 23 0
 229              		.cfi_startproc
 230              		.cfi_personality 0x3,__gxx_personality_v0
 231              		.cfi_lsda 0x3,.LLSDA1338
 232 005c 55       		pushq	%rbp
 233              		.cfi_def_cfa_offset 16
 234              		.cfi_offset 6, -16
 235 005d 4889E5   		movq	%rsp, %rbp
 236              		.cfi_def_cfa_register 6
 237 0060 53       		pushq	%rbx
 238 0061 4883EC18 		subq	$24, %rsp
 239              		.cfi_offset 3, -24
 240 0065 48897DE8 		movq	%rdi, -24(%rbp)
 241              	.LBB6:
  23:TestXmlTestReporter.cpp **** {
 242              		.loc 3 23 0
 243 0069 488B45E8 		movq	-24(%rbp), %rax
 244 006d 48056001 		addq	$352, %rax
 244      0000
 245 0073 4889C7   		movq	%rax, %rdi
 246              	.LEHB7:
 247 0076 E8000000 		call	_ZN8UnitTest15XmlTestReporterD1Ev
 247      00
 248              	.LEHE7:
  23:TestXmlTestReporter.cpp **** {
 249              		.loc 3 23 0 is_stmt 0 discriminator 2
 250 007b 488B45E8 		movq	-24(%rbp), %rax
 251 007f 4889C7   		movq	%rax, %rdi
 252              	.LEHB8:
 253 0082 E8000000 		call	_ZNSt19basic_ostringstreamIcSt11char_traitsIcESaIcEED1Ev
 253      00
 254              	.LEHE8:
 255 0087 EB1A     		jmp	.L17
 256              	.L16:
 257 0089 4889C3   		movq	%rax, %rbx
  23:TestXmlTestReporter.cpp **** {
 258              		.loc 3 23 0
 259 008c 488B45E8 		movq	-24(%rbp), %rax
 260 0090 4889C7   		movq	%rax, %rdi
 261 0093 E8000000 		call	_ZNSt19basic_ostringstreamIcSt11char_traitsIcESaIcEED1Ev
 261      00
 262 0098 4889D8   		movq	%rbx, %rax
 263 009b 4889C7   		movq	%rax, %rdi
 264              	.LEHB9:
 265 009e E8000000 		call	_Unwind_Resume
 265      00
 266              	.LEHE9:
 267              	.L17:
 268              	.LBE6:
 269 00a3 4883C418 		addq	$24, %rsp
 270 00a7 5B       		popq	%rbx
 271 00a8 5D       		popq	%rbp
 272              		.cfi_def_cfa 7, 8
 273 00a9 C3       		ret
 274              		.cfi_endproc
 275              	.LFE1338:
 276              		.section	.gcc_except_table
 277              	.LLSDA1338:
 278 0010 FF       		.byte	0xff
 279 0011 FF       		.byte	0xff
 280 0012 01       		.byte	0x1
 281 0013 0C       		.uleb128 .LLSDACSE1338-.LLSDACSB1338
 282              	.LLSDACSB1338:
 283 0014 1A       		.uleb128 .LEHB7-.LFB1338
 284 0015 05       		.uleb128 .LEHE7-.LEHB7
 285 0016 2D       		.uleb128 .L16-.LFB1338
 286 0017 00       		.uleb128 0
 287 0018 26       		.uleb128 .LEHB8-.LFB1338
 288 0019 05       		.uleb128 .LEHE8-.LEHB8
 289 001a 00       		.uleb128 0
 290 001b 00       		.uleb128 0
 291 001c 42       		.uleb128 .LEHB9-.LFB1338
 292 001d 05       		.uleb128 .LEHE9-.LEHB9
 293 001e 00       		.uleb128 0
 294 001f 00       		.uleb128 0
 295              	.LLSDACSE1338:
 296              		.text
 298              		.align 2
 300              	_ZN12_GLOBAL__N_156XmlTestReporterFixtureMultipleCharactersAreEscapedHelperC2ERKN8UnitTest11TestDet
 301              	.LFB1340:
  29:TestXmlTestReporter.cpp **** 
  30:TestXmlTestReporter.cpp ****     ostringstream output;
  31:TestXmlTestReporter.cpp ****     XmlTestReporter reporter;
  32:TestXmlTestReporter.cpp **** };
  33:TestXmlTestReporter.cpp **** 
  34:TestXmlTestReporter.cpp **** TEST_FIXTURE(XmlTestReporterFixture, MultipleCharactersAreEscaped)
 302              		.loc 3 34 0 is_stmt 1
 303              		.cfi_startproc
 304 00aa 55       		pushq	%rbp
 305              		.cfi_def_cfa_offset 16
 306              		.cfi_offset 6, -16
 307 00ab 4889E5   		movq	%rsp, %rbp
 308              		.cfi_def_cfa_register 6
 309 00ae 4883EC10 		subq	$16, %rsp
 310 00b2 48897DF8 		movq	%rdi, -8(%rbp)
 311 00b6 488975F0 		movq	%rsi, -16(%rbp)
 312              	.LBB7:
 313              		.loc 3 34 0
 314 00ba 488B45F8 		movq	-8(%rbp), %rax
 315 00be 4889C7   		movq	%rax, %rdi
 316 00c1 E83AFFFF 		call	_ZN12_GLOBAL__N_122XmlTestReporterFixtureC2Ev
 316      FF
 317 00c6 488B45F8 		movq	-8(%rbp), %rax
 318 00ca 488B55F0 		movq	-16(%rbp), %rdx
 319 00ce 48899088 		movq	%rdx, 392(%rax)
 319      010000
 320              	.LBE7:
 321 00d5 C9       		leave
 322              		.cfi_def_cfa 7, 8
 323 00d6 C3       		ret
 324              		.cfi_endproc
 325              	.LFE1340:
 327              		.section	.rodata
 328              	.LC1:
 329 000d 54657374 		.string	"TestXmlTestReporter.cpp"
 329      586D6C54 
 329      65737452 
 329      65706F72 
 329      7465722E 
 330              	.LC2:
 331 0025 4D756C74 		.string	"MultipleCharactersAreEscaped"
 331      69706C65 
 331      43686172 
 331      61637465 
 331      72734172 
 332              		.text
 333 00d7 90       		.align 2
 335              	_ZN12_GLOBAL__N_154TestXmlTestReporterFixtureMultipleCharactersAreEscapedC2Ev:
 336              	.LFB1343:
 337              		.loc 3 34 0
 338              		.cfi_startproc
 339 00d8 55       		pushq	%rbp
 340              		.cfi_def_cfa_offset 16
 341              		.cfi_offset 6, -16
 342 00d9 4889E5   		movq	%rsp, %rbp
 343              		.cfi_def_cfa_register 6
 344 00dc 4883EC10 		subq	$16, %rsp
 345 00e0 48897DF8 		movq	%rdi, -8(%rbp)
 346              	.LBB8:
 347              		.loc 3 34 0
 348 00e4 E8000000 		call	_ZN13UnitTestSuite12GetSuiteNameEv
 348      00
 349 00e9 4889C2   		movq	%rax, %rdx
 350 00ec 488B45F8 		movq	-8(%rbp), %rax
 351 00f0 41B82200 		movl	$34, %r8d
 351      0000
 352 00f6 B9000000 		movl	$.LC1, %ecx
 352      00
 353 00fb BE000000 		movl	$.LC2, %esi
 353      00
 354 0100 4889C7   		movq	%rax, %rdi
 355 0103 E8000000 		call	_ZN8UnitTest4TestC2EPKcS2_S2_i
 355      00
 356 0108 488B45F8 		movq	-8(%rbp), %rax
 357 010c 48C70000 		movq	$_ZTVN12_GLOBAL__N_154TestXmlTestReporterFixtureMultipleCharactersAreEscapedE+16, (%rax)
 357      000000
 358              	.LBE8:
 359 0113 C9       		leave
 360              		.cfi_def_cfa 7, 8
 361 0114 C3       		ret
 362              		.cfi_endproc
 363              	.LFE1343:
 365              		.local	_ZN12_GLOBAL__N_162testXmlTestReporterFixtureMultipleCharactersAreEscapedInstanceE
 366              		.comm	_ZN12_GLOBAL__N_162testXmlTestReporterFixtureMultipleCharactersAreEscapedInstanceE,56,32
 367              		.local	_ZN12_GLOBAL__N_155adderXmlTestReporterFixtureMultipleCharactersAreEscapedE
 368              		.comm	_ZN12_GLOBAL__N_155adderXmlTestReporterFixtureMultipleCharactersAreEscapedE,1,1
 369 0115 90       		.align 2
 371              	_ZN12_GLOBAL__N_156XmlTestReporterFixtureMultipleCharactersAreEscapedHelperD2Ev:
 372              	.LFB1347:
 373              		.loc 3 34 0
 374              		.cfi_startproc
 375 0116 55       		pushq	%rbp
 376              		.cfi_def_cfa_offset 16
 377              		.cfi_offset 6, -16
 378 0117 4889E5   		movq	%rsp, %rbp
 379              		.cfi_def_cfa_register 6
 380 011a 4883EC10 		subq	$16, %rsp
 381 011e 48897DF8 		movq	%rdi, -8(%rbp)
 382              	.LBB9:
 383              		.loc 3 34 0
 384 0122 488B45F8 		movq	-8(%rbp), %rax
 385 0126 4889C7   		movq	%rax, %rdi
 386 0129 E82EFFFF 		call	_ZN12_GLOBAL__N_122XmlTestReporterFixtureD2Ev
 386      FF
 387              	.LBE9:
 388 012e C9       		leave
 389              		.cfi_def_cfa 7, 8
 390 012f C3       		ret
 391              		.cfi_endproc
 392              	.LFE1347:
 394              		.section	.rodata
 395              	.LC3:
 396 0042 556E6861 		.string	"Unhandled exception: "
 396      6E646C65 
 396      64206578 
 396      63657074 
 396      696F6E3A 
 397              		.align 8
 398              	.LC4:
 399 0058 556E6861 		.string	"Unhandled exception while destroying fixture XmlTestReporterFixture"
 399      6E646C65 
 399      64206578 
 399      63657074 
 399      696F6E20 
 400 009c 00000000 		.align 8
 401              	.LC5:
 402 00a0 556E6861 		.string	"Unhandled exception while constructing fixture XmlTestReporterFixture"
 402      6E646C65 
 402      64206578 
 402      63657074 
 402      696F6E20 
 403              		.text
 404              		.align 2
 406              	_ZNK12_GLOBAL__N_154TestXmlTestReporterFixtureMultipleCharactersAreEscaped7RunImplEv:
 407              	.LFB1345:
 408              		.loc 3 34 0
 409              		.cfi_startproc
 410              		.cfi_personality 0x3,__gxx_personality_v0
 411              		.cfi_lsda 0x3,.LLSDA1345
 412 0130 55       		pushq	%rbp
 413              		.cfi_def_cfa_offset 16
 414              		.cfi_offset 6, -16
 415 0131 4889E5   		movq	%rsp, %rbp
 416              		.cfi_def_cfa_register 6
 417 0134 4154     		pushq	%r12
 418 0136 53       		pushq	%rbx
 419 0137 4881ECF0 		subq	$496, %rsp
 419      010000
 420              		.cfi_offset 12, -24
 421              		.cfi_offset 3, -32
 422 013e 4889BD08 		movq	%rdi, -504(%rbp)
 422      FEFFFF
 423              		.loc 3 34 0
 424 0145 64488B04 		movq	%fs:40, %rax
 424      25280000 
 424      00
 425 014e 488945E8 		movq	%rax, -24(%rbp)
 426 0152 31C0     		xorl	%eax, %eax
 427              	.LBB10:
 428 0154 C6851FFE 		movb	$0, -481(%rbp)
 428      FFFF00
 429              	.LBB11:
 430 015b 488B8508 		movq	-504(%rbp), %rax
 430      FEFFFF
 431 0162 488D5008 		leaq	8(%rax), %rdx
 432 0166 488D8550 		leaq	-432(%rbp), %rax
 432      FEFFFF
 433 016d 4889D6   		movq	%rdx, %rsi
 434 0170 4889C7   		movq	%rax, %rdi
 435              	.LEHB10:
 436 0173 E832FFFF 		call	_ZN12_GLOBAL__N_156XmlTestReporterFixtureMultipleCharactersAreEscapedHelperC2ERKN8UnitTest11T
 436      FF
 437              	.LEHE10:
 438              		.loc 3 34 0 is_stmt 0 discriminator 1
 439 0178 C6851FFE 		movb	$1, -481(%rbp)
 439      FFFF01
 440 017f 488B8508 		movq	-504(%rbp), %rax
 440      FEFFFF
 441 0186 488D5008 		leaq	8(%rax), %rdx
 442 018a 488D8550 		leaq	-432(%rbp), %rax
 442      FEFFFF
 443 0191 4889D6   		movq	%rdx, %rsi
 444 0194 4889C7   		movq	%rax, %rdi
 445              	.LEHB11:
 446 0197 E8FF2900 		call	_ZN8UnitTest11ExecuteTestIN12_GLOBAL__N_156XmlTestReporterFixtureMultipleCharactersAreEscaped
 446      00
 447              	.LEHE11:
 448              		.loc 3 34 0 discriminator 3
 449 019c 488D8550 		leaq	-432(%rbp), %rax
 449      FEFFFF
 450 01a3 4889C7   		movq	%rax, %rdi
 451              	.LEHB12:
 452 01a6 E86BFFFF 		call	_ZN12_GLOBAL__N_156XmlTestReporterFixtureMultipleCharactersAreEscapedHelperD2Ev
 452      FF
 453              	.LEHE12:
 454              	.LBE11:
 455              	.LBE10:
 456              		.loc 3 34 0
 457 01ab E9640200 		jmp	.L43
 457      00
 458              	.L37:
 459 01b0 4989C4   		movq	%rax, %r12
 460 01b3 4889D3   		movq	%rdx, %rbx
 461              	.LBB19:
 462              	.LBB12:
 463 01b6 488D8550 		leaq	-432(%rbp), %rax
 463      FEFFFF
 464 01bd 4889C7   		movq	%rax, %rdi
 465 01c0 E851FFFF 		call	_ZN12_GLOBAL__N_156XmlTestReporterFixtureMultipleCharactersAreEscapedHelperD2Ev
 465      FF
 466 01c5 4C89E0   		movq	%r12, %rax
 467 01c8 4889DA   		movq	%rbx, %rdx
 468 01cb EB00     		jmp	.L24
 469              	.L36:
 470              	.L24:
 471 01cd 4883FA01 		cmpq	$1, %rdx
 472 01d1 745C     		je	.L26
 473 01d3 4883FA02 		cmpq	$2, %rdx
 474 01d7 0F84F400 		je	.L27
 474      0000
 475 01dd E9980100 		jmp	.L42
 475      00
 476              	.L38:
 477 01e2 4889C3   		movq	%rax, %rbx
 478              	.LBE12:
 479              	.LBB13:
 480 01e5 E8000000 		call	__cxa_end_catch
 480      00
 481 01ea 4889D8   		movq	%rbx, %rax
 482 01ed 4889C7   		movq	%rax, %rdi
 483              	.LEHB13:
 484 01f0 E8000000 		call	_Unwind_Resume
 484      00
 485              	.LEHE13:
 486              	.L39:
 487 01f5 4889C3   		movq	%rax, %rbx
 488              	.LBE13:
 489              	.LBB14:
 490              	.LBB15:
 491 01f8 488D8550 		leaq	-432(%rbp), %rax
 491      FEFFFF
 492 01ff 4889C7   		movq	%rax, %rdi
 493 0202 E8000000 		call	_ZN8UnitTest15MemoryOutStreamD1Ev
 493      00
 494 0207 EB03     		jmp	.L30
 495              	.L40:
 496 0209 4889C3   		movq	%rax, %rbx
 497              	.L30:
 498              	.LBE15:
 499 020c E8000000 		call	__cxa_end_catch
 499      00
 500 0211 4889D8   		movq	%rbx, %rax
 501 0214 4889C7   		movq	%rax, %rdi
 502              	.LEHB14:
 503 0217 E8000000 		call	_Unwind_Resume
 503      00
 504              	.LEHE14:
 505              	.L41:
 506 021c 4889C3   		movq	%rax, %rbx
 507              	.LBE14:
 508 021f E8000000 		call	__cxa_end_catch
 508      00
 509 0224 4889D8   		movq	%rbx, %rax
 510 0227 4889C7   		movq	%rax, %rdi
 511              	.LEHB15:
 512 022a E8000000 		call	_Unwind_Resume
 512      00
 513              	.LEHE15:
 514              	.L26:
 515              	.LBB17:
 516 022f 4889C7   		movq	%rax, %rdi
 517 0232 E8000000 		call	__cxa_begin_catch
 517      00
 518 0237 48898520 		movq	%rax, -480(%rbp)
 518      FEFFFF
 519 023e 488B8520 		movq	-480(%rbp), %rax
 519      FEFFFF
 520 0245 488B00   		movq	(%rax), %rax
 521 0248 4883C010 		addq	$16, %rax
 522 024c 488B00   		movq	(%rax), %rax
 523 024f 488B9520 		movq	-480(%rbp), %rdx
 523      FEFFFF
 524 0256 4889D7   		movq	%rdx, %rdi
 525 0259 FFD0     		call	*%rax
 526 025b 4889C3   		movq	%rax, %rbx
 527 025e 488B8520 		movq	-480(%rbp), %rax
 527      FEFFFF
 528 0265 4889C7   		movq	%rax, %rdi
 529              	.LEHB16:
 530 0268 E8000000 		call	_ZNK8UnitTest15AssertException10LineNumberEv
 530      00
 531 026d 4189C4   		movl	%eax, %r12d
 532 0270 488B8520 		movq	-480(%rbp), %rax
 532      FEFFFF
 533 0277 4889C7   		movq	%rax, %rdi
 534 027a E8000000 		call	_ZNK8UnitTest15AssertException8FilenameEv
 534      00
 535              		.loc 3 34 0 discriminator 5
 536 027f 4889C1   		movq	%rax, %rcx
 537 0282 488B8508 		movq	-504(%rbp), %rax
 537      FEFFFF
 538 0289 488B5008 		movq	8(%rax), %rdx
 539 028d 488B8508 		movq	-504(%rbp), %rax
 539      FEFFFF
 540 0294 488B7010 		movq	16(%rax), %rsi
 541 0298 488D8530 		leaq	-464(%rbp), %rax
 541      FEFFFF
 542 029f 4589E0   		movl	%r12d, %r8d
 543 02a2 4889C7   		movq	%rax, %rdi
 544 02a5 E8000000 		call	_ZN8UnitTest11TestDetailsC1EPKcS2_S2_i
 544      00
 545              		.loc 3 34 0 discriminator 9
 546 02aa E8000000 		call	_ZN8UnitTest11CurrentTest7ResultsEv
 546      00
 547 02af 488B00   		movq	(%rax), %rax
 548 02b2 488D8D30 		leaq	-464(%rbp), %rcx
 548      FEFFFF
 549 02b9 4889DA   		movq	%rbx, %rdx
 550 02bc 4889CE   		movq	%rcx, %rsi
 551 02bf 4889C7   		movq	%rax, %rdi
 552 02c2 E8000000 		call	_ZN8UnitTest11TestResults13OnTestFailureERKNS_11TestDetailsEPKc
 552      00
 553              	.LEHE16:
 554              		.loc 3 34 0 discriminator 13
 555 02c7 E8000000 		call	__cxa_end_catch
 555      00
 556              	.LBE17:
 557              	.LBE19:
 558 02cc E9430100 		jmp	.L43
 558      00
 559              	.L27:
 560              	.LBB20:
 561              	.LBB18:
 562              		.loc 3 34 0
 563 02d1 4889C7   		movq	%rax, %rdi
 564 02d4 E8000000 		call	__cxa_begin_catch
 564      00
 565 02d9 48898528 		movq	%rax, -472(%rbp)
 565      FEFFFF
 566              	.LBB16:
 567 02e0 488D8550 		leaq	-432(%rbp), %rax
 567      FEFFFF
 568 02e7 4889C7   		movq	%rax, %rdi
 569              	.LEHB17:
 570 02ea E8000000 		call	_ZN8UnitTest15MemoryOutStreamC1Ev
 570      00
 571              	.LEHE17:
 572              		.loc 3 34 0 discriminator 15
 573 02ef 488B8528 		movq	-472(%rbp), %rax
 573      FEFFFF
 574 02f6 488B00   		movq	(%rax), %rax
 575 02f9 4883C010 		addq	$16, %rax
 576 02fd 488B00   		movq	(%rax), %rax
 577 0300 488B9528 		movq	-472(%rbp), %rdx
 577      FEFFFF
 578 0307 4889D7   		movq	%rdx, %rdi
 579 030a FFD0     		call	*%rax
 580 030c 4889C3   		movq	%rax, %rbx
 581 030f 488D8550 		leaq	-432(%rbp), %rax
 581      FEFFFF
 582 0316 BE000000 		movl	$.LC3, %esi
 582      00
 583 031b 4889C7   		movq	%rax, %rdi
 584              	.LEHB18:
 585 031e E8000000 		call	_ZStlsISt11char_traitsIcEERSt13basic_ostreamIcT_ES5_PKc
 585      00
 586 0323 4889DE   		movq	%rbx, %rsi
 587 0326 4889C7   		movq	%rax, %rdi
 588 0329 E8000000 		call	_ZStlsISt11char_traitsIcEERSt13basic_ostreamIcT_ES5_PKc
 588      00
 589              		.loc 3 34 0 discriminator 19
 590 032e 488D8550 		leaq	-432(%rbp), %rax
 590      FEFFFF
 591 0335 4889C7   		movq	%rax, %rdi
 592 0338 E8000000 		call	_ZNK8UnitTest15MemoryOutStream7GetTextEv
 592      00
 593 033d 4989C4   		movq	%rax, %r12
 594 0340 488B8508 		movq	-504(%rbp), %rax
 594      FEFFFF
 595 0347 488D5808 		leaq	8(%rax), %rbx
 596 034b E8000000 		call	_ZN8UnitTest11CurrentTest7ResultsEv
 596      00
 597              		.loc 3 34 0 discriminator 21
 598 0350 488B00   		movq	(%rax), %rax
 599 0353 4C89E2   		movq	%r12, %rdx
 600 0356 4889DE   		movq	%rbx, %rsi
 601 0359 4889C7   		movq	%rax, %rdi
 602 035c E8000000 		call	_ZN8UnitTest11TestResults13OnTestFailureERKNS_11TestDetailsEPKc
 602      00
 603              	.LEHE18:
 604              		.loc 3 34 0 discriminator 25
 605 0361 488D8550 		leaq	-432(%rbp), %rax
 605      FEFFFF
 606 0368 4889C7   		movq	%rax, %rdi
 607              	.LEHB19:
 608 036b E8000000 		call	_ZN8UnitTest15MemoryOutStreamD1Ev
 608      00
 609              	.LEHE19:
 610              	.LBE16:
 611              		.loc 3 34 0 discriminator 26
 612 0370 E8000000 		call	__cxa_end_catch
 612      00
 613              	.LBE18:
 614              	.LBE20:
 615 0375 E99A0000 		jmp	.L43
 615      00
 616              	.L42:
 617              	.LBB21:
 618              		.loc 3 34 0
 619 037a 4889C7   		movq	%rax, %rdi
 620 037d E8000000 		call	__cxa_begin_catch
 620      00
 621 0382 80BD1FFE 		cmpb	$0, -481(%rbp)
 621      FFFF00
 622 0389 7443     		je	.L33
 623              		.loc 3 34 0 discriminator 28
 624 038b 488B8508 		movq	-504(%rbp), %rax
 624      FEFFFF
 625 0392 488D4808 		leaq	8(%rax), %rcx
 626 0396 488D8530 		leaq	-464(%rbp), %rax
 626      FEFFFF
 627 039d BA220000 		movl	$34, %edx
 627      00
 628 03a2 4889CE   		movq	%rcx, %rsi
 629 03a5 4889C7   		movq	%rax, %rdi
 630              	.LEHB20:
 631 03a8 E8000000 		call	_ZN8UnitTest11TestDetailsC1ERKS0_i
 631      00
 632              		.loc 3 34 0 discriminator 31
 633 03ad E8000000 		call	_ZN8UnitTest11CurrentTest7ResultsEv
 633      00
 634 03b2 488B00   		movq	(%rax), %rax
 635 03b5 488D8D30 		leaq	-464(%rbp), %rcx
 635      FEFFFF
 636 03bc BA000000 		movl	$.LC4, %edx
 636      00
 637 03c1 4889CE   		movq	%rcx, %rsi
 638 03c4 4889C7   		movq	%rax, %rdi
 639 03c7 E8000000 		call	_ZN8UnitTest11TestResults13OnTestFailureERKNS_11TestDetailsEPKc
 639      00
 640 03cc EB41     		jmp	.L34
 641              	.L33:
 642              		.loc 3 34 0 discriminator 29
 643 03ce 488B8508 		movq	-504(%rbp), %rax
 643      FEFFFF
 644 03d5 488D4808 		leaq	8(%rax), %rcx
 645 03d9 488D8530 		leaq	-464(%rbp), %rax
 645      FEFFFF
 646 03e0 BA220000 		movl	$34, %edx
 646      00
 647 03e5 4889CE   		movq	%rcx, %rsi
 648 03e8 4889C7   		movq	%rax, %rdi
 649 03eb E8000000 		call	_ZN8UnitTest11TestDetailsC1ERKS0_i
 649      00
 650              		.loc 3 34 0 discriminator 38
 651 03f0 E8000000 		call	_ZN8UnitTest11CurrentTest7ResultsEv
 651      00
 652 03f5 488B00   		movq	(%rax), %rax
 653 03f8 488D8D30 		leaq	-464(%rbp), %rcx
 653      FEFFFF
 654 03ff BA000000 		movl	$.LC5, %edx
 654      00
 655 0404 4889CE   		movq	%rcx, %rsi
 656 0407 4889C7   		movq	%rax, %rdi
 657 040a E8000000 		call	_ZN8UnitTest11TestResults13OnTestFailureERKNS_11TestDetailsEPKc
 657      00
 658              	.LEHE20:
 659              	.L34:
 660              	.LEHB21:
 661              		.loc 3 34 0 discriminator 43
 662 040f E8000000 		call	__cxa_end_catch
 662      00
 663              	.LEHE21:
 664              	.L43:
 665              	.LBE21:
 666              		.loc 3 34 0
 667 0414 90       		nop
 668 0415 488B45E8 		movq	-24(%rbp), %rax
 669 0419 64483304 		xorq	%fs:40, %rax
 669      25280000 
 669      00
 670 0422 7405     		je	.L35
 671 0424 E8000000 		call	__stack_chk_fail
 671      00
 672              	.L35:
 673 0429 4881C4F0 		addq	$496, %rsp
 673      010000
 674 0430 5B       		popq	%rbx
 675 0431 415C     		popq	%r12
 676 0433 5D       		popq	%rbp
 677              		.cfi_def_cfa 7, 8
 678 0434 C3       		ret
 679              		.cfi_endproc
 680              	.LFE1345:
 681              		.section	.gcc_except_table
 682              		.align 4
 683              	.LLSDA1345:
 684 0020 FF       		.byte	0xff
 685 0021 03       		.byte	0x3
 686 0022 59       		.uleb128 .LLSDATT1345-.LLSDATTD1345
 687              	.LLSDATTD1345:
 688 0023 01       		.byte	0x1
 689 0024 41       		.uleb128 .LLSDACSE1345-.LLSDACSB1345
 690              	.LLSDACSB1345:
 691 0025 43       		.uleb128 .LEHB10-.LFB1345
 692 0026 05       		.uleb128 .LEHE10-.LEHB10
 693 0027 9D01     		.uleb128 .L36-.LFB1345
 694 0029 05       		.uleb128 0x5
 695 002a 67       		.uleb128 .LEHB11-.LFB1345
 696 002b 05       		.uleb128 .LEHE11-.LEHB11
 697 002c 8001     		.uleb128 .L37-.LFB1345
 698 002e 07       		.uleb128 0x7
 699 002f 76       		.uleb128 .LEHB12-.LFB1345
 700 0030 05       		.uleb128 .LEHE12-.LEHB12
 701 0031 9D01     		.uleb128 .L36-.LFB1345
 702 0033 05       		.uleb128 0x5
 703 0034 C001     		.uleb128 .LEHB13-.LFB1345
 704 0036 05       		.uleb128 .LEHE13-.LEHB13
 705 0037 00       		.uleb128 0
 706 0038 00       		.uleb128 0
 707 0039 E701     		.uleb128 .LEHB14-.LFB1345
 708 003b 05       		.uleb128 .LEHE14-.LEHB14
 709 003c 00       		.uleb128 0
 710 003d 00       		.uleb128 0
 711 003e FA01     		.uleb128 .LEHB15-.LFB1345
 712 0040 05       		.uleb128 .LEHE15-.LEHB15
 713 0041 00       		.uleb128 0
 714 0042 00       		.uleb128 0
 715 0043 B802     		.uleb128 .LEHB16-.LFB1345
 716 0045 5F       		.uleb128 .LEHE16-.LEHB16
 717 0046 B201     		.uleb128 .L38-.LFB1345
 718 0048 00       		.uleb128 0
 719 0049 BA03     		.uleb128 .LEHB17-.LFB1345
 720 004b 05       		.uleb128 .LEHE17-.LEHB17
 721 004c D901     		.uleb128 .L40-.LFB1345
 722 004e 00       		.uleb128 0
 723 004f EE03     		.uleb128 .LEHB18-.LFB1345
 724 0051 43       		.uleb128 .LEHE18-.LEHB18
 725 0052 C501     		.uleb128 .L39-.LFB1345
 726 0054 00       		.uleb128 0
 727 0055 BB04     		.uleb128 .LEHB19-.LFB1345
 728 0057 05       		.uleb128 .LEHE19-.LEHB19
 729 0058 D901     		.uleb128 .L40-.LFB1345
 730 005a 00       		.uleb128 0
 731 005b F804     		.uleb128 .LEHB20-.LFB1345
 732 005d 67       		.uleb128 .LEHE20-.LEHB20
 733 005e EC01     		.uleb128 .L41-.LFB1345
 734 0060 00       		.uleb128 0
 735 0061 DF05     		.uleb128 .LEHB21-.LFB1345
 736 0063 05       		.uleb128 .LEHE21-.LEHB21
 737 0064 00       		.uleb128 0
 738 0065 00       		.uleb128 0
 739              	.LLSDACSE1345:
 740 0066 03       		.byte	0x3
 741 0067 00       		.byte	0
 742 0068 02       		.byte	0x2
 743 0069 7D       		.byte	0x7d
 744 006a 01       		.byte	0x1
 745 006b 7D       		.byte	0x7d
 746 006c 00       		.byte	0
 747 006d 7D       		.byte	0x7d
 748 006e 0000     		.align 4
 749 0070 00000000 		.long	0
 750              	
 751 0074 00000000 		.long	_ZTISt9exception
 752 0078 00000000 		.long	_ZTIN8UnitTest15AssertExceptionE
 753              	.LLSDATT1345:
 754              		.text
 756              		.section	.rodata
 757              	.LC6:
 758 00e6 66696C65 		.string	"filename.h"
 758      6E616D65 
 758      2E6800
 759              	.LC7:
 760 00f1 73756974 		.string	"suite"
 760      6500
 761              	.LC8:
 762 00f7 54657374 		.string	"TestName"
 762      4E616D65 
 762      00
 763              	.LC9:
 764 0100 22222727 		.string	"\"\"''&&<<>>"
 764      26263C3C 
 764      3E3E00
 765 010b 00000000 		.align 8
 765      00
 766              	.LC11:
 767 0110 3C3F786D 		.string	"<?xml version=\"1.0\"?><unittest-results tests=\"1\" failedtests=\"2\" failures=\"3\" tim
 767      6C207665 
 767      7273696F 
 767      6E3D2231 
 767      2E30223F 
 768 020d 000000   		.align 8
 769              	.LC12:
 770 0210 556E6861 		.string	"Unhandled exception in CHECK_EQUAL(expected, output.str())"
 770      6E646C65 
 770      64206578 
 770      63657074 
 770      696F6E20 
 771              		.text
 772 0435 90       		.align 2
 774              	_ZN12_GLOBAL__N_156XmlTestReporterFixtureMultipleCharactersAreEscapedHelper7RunImplEv:
 775              	.LFB1349:
  35:TestXmlTestReporter.cpp **** {
 776              		.loc 3 35 0 is_stmt 1
 777              		.cfi_startproc
 778              		.cfi_personality 0x3,__gxx_personality_v0
 779              		.cfi_lsda 0x3,.LLSDA1349
 780 0436 55       		pushq	%rbp
 781              		.cfi_def_cfa_offset 16
 782              		.cfi_offset 6, -16
 783 0437 4889E5   		movq	%rsp, %rbp
 784              		.cfi_def_cfa_register 6
 785 043a 53       		pushq	%rbx
 786 043b 4883EC78 		subq	$120, %rsp
 787              		.cfi_offset 3, -24
 788 043f 48897D88 		movq	%rdi, -120(%rbp)
 789              		.loc 3 35 0
 790 0443 64488B04 		movq	%fs:40, %rax
 790      25280000 
 790      00
 791 044c 488945E8 		movq	%rax, -24(%rbp)
 792 0450 31C0     		xorl	%eax, %eax
 793              	.LBB22:
  36:TestXmlTestReporter.cpp ****     TestDetails const details("TestName", "suite", "filename.h", 4321);
 794              		.loc 3 36 0
 795 0452 488D45A0 		leaq	-96(%rbp), %rax
 796 0456 41B8E110 		movl	$4321, %r8d
 796      0000
 797 045c B9000000 		movl	$.LC6, %ecx
 797      00
 798 0461 BA000000 		movl	$.LC7, %edx
 798      00
 799 0466 BE000000 		movl	$.LC8, %esi
 799      00
 800 046b 4889C7   		movq	%rax, %rdi
 801              	.LEHB22:
 802 046e E8000000 		call	_ZN8UnitTest11TestDetailsC1EPKcS2_S2_i
 802      00
  37:TestXmlTestReporter.cpp **** 
  38:TestXmlTestReporter.cpp ****     reporter.ReportTestStart(details);
 803              		.loc 3 38 0
 804 0473 488B4588 		movq	-120(%rbp), %rax
 805 0477 488D9060 		leaq	352(%rax), %rdx
 805      010000
 806 047e 488D45A0 		leaq	-96(%rbp), %rax
 807 0482 4889C6   		movq	%rax, %rsi
 808 0485 4889D7   		movq	%rdx, %rdi
 809 0488 E8000000 		call	_ZN8UnitTest20DeferredTestReporter15ReportTestStartERKNS_11TestDetailsE
 809      00
  39:TestXmlTestReporter.cpp ****     reporter.ReportFailure(details, "\"\"\'\'&&<<>>");
 810              		.loc 3 39 0
 811 048d 488B4588 		movq	-120(%rbp), %rax
 812 0491 488D8860 		leaq	352(%rax), %rcx
 812      010000
 813 0498 488D45A0 		leaq	-96(%rbp), %rax
 814 049c BA000000 		movl	$.LC9, %edx
 814      00
 815 04a1 4889C6   		movq	%rax, %rsi
 816 04a4 4889CF   		movq	%rcx, %rdi
 817 04a7 E8000000 		call	_ZN8UnitTest20DeferredTestReporter13ReportFailureERKNS_11TestDetailsEPKc
 817      00
  40:TestXmlTestReporter.cpp ****     reporter.ReportTestFinish(details, 0.1f);
 818              		.loc 3 40 0
 819 04ac 488B4588 		movq	-120(%rbp), %rax
 820 04b0 488D9060 		leaq	352(%rax), %rdx
 820      010000
 821 04b7 488D45A0 		leaq	-96(%rbp), %rax
 822 04bb F30F1005 		movss	.LC10(%rip), %xmm0
 822      00000000 
 823 04c3 4889C6   		movq	%rax, %rsi
 824 04c6 4889D7   		movq	%rdx, %rdi
 825 04c9 E8000000 		call	_ZN8UnitTest20DeferredTestReporter16ReportTestFinishERKNS_11TestDetailsEf
 825      00
  41:TestXmlTestReporter.cpp ****     reporter.ReportSummary(1, 2, 3, 0.1f);
 826              		.loc 3 41 0
 827 04ce 488B4588 		movq	-120(%rbp), %rax
 828 04d2 48056001 		addq	$352, %rax
 828      0000
 829 04d8 F30F1005 		movss	.LC10(%rip), %xmm0
 829      00000000 
 830 04e0 B9030000 		movl	$3, %ecx
 830      00
 831 04e5 BA020000 		movl	$2, %edx
 831      00
 832 04ea BE010000 		movl	$1, %esi
 832      00
 833 04ef 4889C7   		movq	%rax, %rdi
 834 04f2 E8000000 		call	_ZN8UnitTest15XmlTestReporter13ReportSummaryEiiif
 834      00
 835              	.LEHE22:
  42:TestXmlTestReporter.cpp **** 
  43:TestXmlTestReporter.cpp ****     char const* expected =
  44:TestXmlTestReporter.cpp ****         "<?xml version=\"1.0\"?>"
  45:TestXmlTestReporter.cpp ****         "<unittest-results tests=\"1\" failedtests=\"2\" failures=\"3\" time=\"0.1\">"
  46:TestXmlTestReporter.cpp ****         "<test suite=\"suite\" name=\"TestName\" time=\"0.1\">"
  47:TestXmlTestReporter.cpp ****         "<failure message=\"filename.h(4321) : "
  48:TestXmlTestReporter.cpp ****         "&quot;&quot;&apos;&apos;&amp;&amp;&lt;&lt;&gt;&gt;\"/>"
  49:TestXmlTestReporter.cpp ****         "</test>"
  50:TestXmlTestReporter.cpp ****         "</unittest-results>";
 836              		.loc 3 50 0
 837 04f7 48C74598 		movq	$.LC11, -104(%rbp)
 837      00000000 
 838              	.LEHB23:
  51:TestXmlTestReporter.cpp **** 
  52:TestXmlTestReporter.cpp ****     CHECK_EQUAL(expected, output.str());
 839              		.loc 3 52 0
 840 04ff E8000000 		call	_ZN8UnitTest11CurrentTest7DetailsEv
 840      00
 841 0504 488B08   		movq	(%rax), %rcx
 842 0507 488D45C0 		leaq	-64(%rbp), %rax
 843 050b BA340000 		movl	$52, %edx
 843      00
 844 0510 4889CE   		movq	%rcx, %rsi
 845 0513 4889C7   		movq	%rax, %rdi
 846 0516 E8000000 		call	_ZN8UnitTest11TestDetailsC1ERKS0_i
 846      00
 847              		.loc 3 52 0 is_stmt 0 discriminator 2
 848 051b 488B5588 		movq	-120(%rbp), %rdx
 849 051f 488D4590 		leaq	-112(%rbp), %rax
 850 0523 4889D6   		movq	%rdx, %rsi
 851 0526 4889C7   		movq	%rax, %rdi
 852 0529 E8000000 		call	_ZNKSt19basic_ostringstreamIcSt11char_traitsIcESaIcEE3strEv
 852      00
 853              	.LEHE23:
 854              	.LEHB24:
 855              		.loc 3 52 0 discriminator 4
 856 052e E8000000 		call	_ZN8UnitTest11CurrentTest7ResultsEv
 856      00
 857 0533 488B00   		movq	(%rax), %rax
 858 0536 488D4DC0 		leaq	-64(%rbp), %rcx
 859 053a 488D5590 		leaq	-112(%rbp), %rdx
 860 053e 488D7598 		leaq	-104(%rbp), %rsi
 861 0542 4889C7   		movq	%rax, %rdi
 862 0545 E8000000 		call	_ZN8UnitTest10CheckEqualIPKcSsEEvRNS_11TestResultsERKT_RKT0_RKNS_11TestDetailsE
 862      00
 863              	.LEHE24:
 864              		.loc 3 52 0 discriminator 8
 865 054a 488D4590 		leaq	-112(%rbp), %rax
 866 054e 4889C7   		movq	%rax, %rdi
 867              	.LEHB25:
 868 0551 E8000000 		call	_ZNSsD1Ev
 868      00
 869              	.LEHE25:
 870              	.LBE22:
  53:TestXmlTestReporter.cpp **** }
 871              		.loc 3 53 0 is_stmt 1
 872 0556 EB6C     		jmp	.L53
 873              	.L51:
 874 0558 4889C3   		movq	%rax, %rbx
 875              	.LBB23:
  52:TestXmlTestReporter.cpp **** }
 876              		.loc 3 52 0
 877 055b 488D4590 		leaq	-112(%rbp), %rax
 878 055f 4889C7   		movq	%rax, %rdi
 879 0562 E8000000 		call	_ZNSsD1Ev
 879      00
 880 0567 4889D8   		movq	%rbx, %rax
 881 056a EB13     		jmp	.L46
 882              	.L52:
 883 056c 4889C3   		movq	%rax, %rbx
 884 056f E8000000 		call	__cxa_end_catch
 884      00
 885 0574 4889D8   		movq	%rbx, %rax
 886 0577 4889C7   		movq	%rax, %rdi
 887              	.LEHB26:
 888 057a E8000000 		call	_Unwind_Resume
 888      00
 889              	.LEHE26:
 890              	.L50:
 891              	.L46:
 892 057f 4889C7   		movq	%rax, %rdi
 893 0582 E8000000 		call	__cxa_begin_catch
 893      00
 894              	.LEHB27:
 895 0587 E8000000 		call	_ZN8UnitTest11CurrentTest7DetailsEv
 895      00
 896 058c 488B08   		movq	(%rax), %rcx
 897 058f 488D45C0 		leaq	-64(%rbp), %rax
 898 0593 BA340000 		movl	$52, %edx
 898      00
 899 0598 4889CE   		movq	%rcx, %rsi
 900 059b 4889C7   		movq	%rax, %rdi
 901 059e E8000000 		call	_ZN8UnitTest11TestDetailsC1ERKS0_i
 901      00
  52:TestXmlTestReporter.cpp **** }
 902              		.loc 3 52 0 is_stmt 0 discriminator 14
 903 05a3 E8000000 		call	_ZN8UnitTest11CurrentTest7ResultsEv
 903      00
 904 05a8 488B00   		movq	(%rax), %rax
 905 05ab 488D4DC0 		leaq	-64(%rbp), %rcx
 906 05af BA000000 		movl	$.LC12, %edx
 906      00
 907 05b4 4889CE   		movq	%rcx, %rsi
 908 05b7 4889C7   		movq	%rax, %rdi
 909 05ba E8000000 		call	_ZN8UnitTest11TestResults13OnTestFailureERKNS_11TestDetailsEPKc
 909      00
 910              	.LEHE27:
 911              	.LEHB28:
  52:TestXmlTestReporter.cpp **** }
 912              		.loc 3 52 0 discriminator 18
 913 05bf E8000000 		call	__cxa_end_catch
 913      00
 914              	.LEHE28:
 915              	.L53:
 916              	.LBE23:
 917              		.loc 3 53 0 is_stmt 1
 918 05c4 90       		nop
 919 05c5 488B45E8 		movq	-24(%rbp), %rax
 920 05c9 64483304 		xorq	%fs:40, %rax
 920      25280000 
 920      00
 921 05d2 7405     		je	.L49
 922 05d4 E8000000 		call	__stack_chk_fail
 922      00
 923              	.L49:
 924 05d9 4883C478 		addq	$120, %rsp
 925 05dd 5B       		popq	%rbx
 926 05de 5D       		popq	%rbp
 927              		.cfi_def_cfa 7, 8
 928 05df C3       		ret
 929              		.cfi_endproc
 930              	.LFE1349:
 931              		.section	.gcc_except_table
 932              		.align 4
 933              	.LLSDA1349:
 934 007c FF       		.byte	0xff
 935 007d 03       		.byte	0x3
 936 007e 31       		.uleb128 .LLSDATT1349-.LLSDATTD1349
 937              	.LLSDATTD1349:
 938 007f 01       		.byte	0x1
 939 0080 27       		.uleb128 .LLSDACSE1349-.LLSDACSB1349
 940              	.LLSDACSB1349:
 941 0081 38       		.uleb128 .LEHB22-.LFB1349
 942 0082 8901     		.uleb128 .LEHE22-.LEHB22
 943 0084 00       		.uleb128 0
 944 0085 00       		.uleb128 0
 945 0086 C901     		.uleb128 .LEHB23-.LFB1349
 946 0088 2F       		.uleb128 .LEHE23-.LEHB23
 947 0089 C902     		.uleb128 .L50-.LFB1349
 948 008b 01       		.uleb128 0x1
 949 008c F801     		.uleb128 .LEHB24-.LFB1349
 950 008e 1C       		.uleb128 .LEHE24-.LEHB24
 951 008f A202     		.uleb128 .L51-.LFB1349
 952 0091 03       		.uleb128 0x3
 953 0092 9B02     		.uleb128 .LEHB25-.LFB1349
 954 0094 05       		.uleb128 .LEHE25-.LEHB25
 955 0095 C902     		.uleb128 .L50-.LFB1349
 956 0097 01       		.uleb128 0x1
 957 0098 C402     		.uleb128 .LEHB26-.LFB1349
 958 009a 05       		.uleb128 .LEHE26-.LEHB26
 959 009b 00       		.uleb128 0
 960 009c 00       		.uleb128 0
 961 009d D102     		.uleb128 .LEHB27-.LFB1349
 962 009f 38       		.uleb128 .LEHE27-.LEHB27
 963 00a0 B602     		.uleb128 .L52-.LFB1349
 964 00a2 00       		.uleb128 0
 965 00a3 8903     		.uleb128 .LEHB28-.LFB1349
 966 00a5 05       		.uleb128 .LEHE28-.LEHB28
 967 00a6 00       		.uleb128 0
 968 00a7 00       		.uleb128 0
 969              	.LLSDACSE1349:
 970 00a8 01       		.byte	0x1
 971 00a9 00       		.byte	0
 972 00aa 00       		.byte	0
 973 00ab 7D       		.byte	0x7d
 974              		.align 4
 975 00ac 00000000 		.long	0
 976              	
 977              	.LLSDATT1349:
 978              		.text
 980              		.align 2
 982              	_ZN12_GLOBAL__N_168XmlTestReporterFixtureOutputIsCachedUntilReportSummaryIsCalledHelperC2ERKN8UnitT
 983              	.LFB1351:
  54:TestXmlTestReporter.cpp **** 
  55:TestXmlTestReporter.cpp **** TEST_FIXTURE(XmlTestReporterFixture, OutputIsCachedUntilReportSummaryIsCalled)
 984              		.loc 3 55 0
 985              		.cfi_startproc
 986 05e0 55       		pushq	%rbp
 987              		.cfi_def_cfa_offset 16
 988              		.cfi_offset 6, -16
 989 05e1 4889E5   		movq	%rsp, %rbp
 990              		.cfi_def_cfa_register 6
 991 05e4 4883EC10 		subq	$16, %rsp
 992 05e8 48897DF8 		movq	%rdi, -8(%rbp)
 993 05ec 488975F0 		movq	%rsi, -16(%rbp)
 994              	.LBB24:
 995              		.loc 3 55 0
 996 05f0 488B45F8 		movq	-8(%rbp), %rax
 997 05f4 4889C7   		movq	%rax, %rdi
 998 05f7 E804FAFF 		call	_ZN12_GLOBAL__N_122XmlTestReporterFixtureC2Ev
 998      FF
 999 05fc 488B45F8 		movq	-8(%rbp), %rax
 1000 0600 488B55F0 		movq	-16(%rbp), %rdx
 1001 0604 48899088 		movq	%rdx, 392(%rax)
 1001      010000
 1002              	.LBE24:
 1003 060b C9       		leave
 1004              		.cfi_def_cfa 7, 8
 1005 060c C3       		ret
 1006              		.cfi_endproc
 1007              	.LFE1351:
 1009              		.section	.rodata
 1010 024b 00000000 		.align 8
 1010      00
 1011              	.LC13:
 1012 0250 4F757470 		.string	"OutputIsCachedUntilReportSummaryIsCalled"
 1012      75744973 
 1012      43616368 
 1012      6564556E 
 1012      74696C52 
 1013              		.text
 1014 060d 90       		.align 2
 1016              	_ZN12_GLOBAL__N_166TestXmlTestReporterFixtureOutputIsCachedUntilReportSummaryIsCalledC2Ev:
 1017              	.LFB1354:
 1018              		.loc 3 55 0
 1019              		.cfi_startproc
 1020 060e 55       		pushq	%rbp
 1021              		.cfi_def_cfa_offset 16
 1022              		.cfi_offset 6, -16
 1023 060f 4889E5   		movq	%rsp, %rbp
 1024              		.cfi_def_cfa_register 6
 1025 0612 4883EC10 		subq	$16, %rsp
 1026 0616 48897DF8 		movq	%rdi, -8(%rbp)
 1027              	.LBB25:
 1028              		.loc 3 55 0
 1029 061a E8000000 		call	_ZN13UnitTestSuite12GetSuiteNameEv
 1029      00
 1030 061f 4889C2   		movq	%rax, %rdx
 1031 0622 488B45F8 		movq	-8(%rbp), %rax
 1032 0626 41B83700 		movl	$55, %r8d
 1032      0000
 1033 062c B9000000 		movl	$.LC1, %ecx
 1033      00
 1034 0631 BE000000 		movl	$.LC13, %esi
 1034      00
 1035 0636 4889C7   		movq	%rax, %rdi
 1036 0639 E8000000 		call	_ZN8UnitTest4TestC2EPKcS2_S2_i
 1036      00
 1037 063e 488B45F8 		movq	-8(%rbp), %rax
 1038 0642 48C70000 		movq	$_ZTVN12_GLOBAL__N_166TestXmlTestReporterFixtureOutputIsCachedUntilReportSummaryIsCalledE+16,
 1038      000000
 1039              	.LBE25:
 1040 0649 C9       		leave
 1041              		.cfi_def_cfa 7, 8
 1042 064a C3       		ret
 1043              		.cfi_endproc
 1044              	.LFE1354:
 1046              		.local	_ZN12_GLOBAL__N_174testXmlTestReporterFixtureOutputIsCachedUntilReportSummaryIsCalledInstan
 1047              		.comm	_ZN12_GLOBAL__N_174testXmlTestReporterFixtureOutputIsCachedUntilReportSummaryIsCalledInstanc
 1048              		.local	_ZN12_GLOBAL__N_167adderXmlTestReporterFixtureOutputIsCachedUntilReportSummaryIsCalledE
 1049              		.comm	_ZN12_GLOBAL__N_167adderXmlTestReporterFixtureOutputIsCachedUntilReportSummaryIsCalledE,1,1
 1050 064b 90       		.align 2
 1052              	_ZN12_GLOBAL__N_168XmlTestReporterFixtureOutputIsCachedUntilReportSummaryIsCalledHelperD2Ev:
 1053              	.LFB1358:
 1054              		.loc 3 55 0
 1055              		.cfi_startproc
 1056 064c 55       		pushq	%rbp
 1057              		.cfi_def_cfa_offset 16
 1058              		.cfi_offset 6, -16
 1059 064d 4889E5   		movq	%rsp, %rbp
 1060              		.cfi_def_cfa_register 6
 1061 0650 4883EC10 		subq	$16, %rsp
 1062 0654 48897DF8 		movq	%rdi, -8(%rbp)
 1063              	.LBB26:
 1064              		.loc 3 55 0
 1065 0658 488B45F8 		movq	-8(%rbp), %rax
 1066 065c 4889C7   		movq	%rax, %rdi
 1067 065f E8F8F9FF 		call	_ZN12_GLOBAL__N_122XmlTestReporterFixtureD2Ev
 1067      FF
 1068              	.LBE26:
 1069 0664 C9       		leave
 1070              		.cfi_def_cfa 7, 8
 1071 0665 C3       		ret
 1072              		.cfi_endproc
 1073              	.LFE1358:
 1075              		.align 2
 1077              	_ZNK12_GLOBAL__N_166TestXmlTestReporterFixtureOutputIsCachedUntilReportSummaryIsCalled7RunImplEv:
 1078              	.LFB1356:
 1079              		.loc 3 55 0
 1080              		.cfi_startproc
 1081              		.cfi_personality 0x3,__gxx_personality_v0
 1082              		.cfi_lsda 0x3,.LLSDA1356
 1083 0666 55       		pushq	%rbp
 1084              		.cfi_def_cfa_offset 16
 1085              		.cfi_offset 6, -16
 1086 0667 4889E5   		movq	%rsp, %rbp
 1087              		.cfi_def_cfa_register 6
 1088 066a 4154     		pushq	%r12
 1089 066c 53       		pushq	%rbx
 1090 066d 4881ECF0 		subq	$496, %rsp
 1090      010000
 1091              		.cfi_offset 12, -24
 1092              		.cfi_offset 3, -32
 1093 0674 4889BD08 		movq	%rdi, -504(%rbp)
 1093      FEFFFF
 1094              		.loc 3 55 0
 1095 067b 64488B04 		movq	%fs:40, %rax
 1095      25280000 
 1095      00
 1096 0684 488945E8 		movq	%rax, -24(%rbp)
 1097 0688 31C0     		xorl	%eax, %eax
 1098              	.LBB27:
 1099 068a C6851FFE 		movb	$0, -481(%rbp)
 1099      FFFF00
 1100              	.LBB28:
 1101 0691 488B8508 		movq	-504(%rbp), %rax
 1101      FEFFFF
 1102 0698 488D5008 		leaq	8(%rax), %rdx
 1103 069c 488D8550 		leaq	-432(%rbp), %rax
 1103      FEFFFF
 1104 06a3 4889D6   		movq	%rdx, %rsi
 1105 06a6 4889C7   		movq	%rax, %rdi
 1106              	.LEHB29:
 1107 06a9 E832FFFF 		call	_ZN12_GLOBAL__N_168XmlTestReporterFixtureOutputIsCachedUntilReportSummaryIsCalledHelperC2ERKN
 1107      FF
 1108              	.LEHE29:
 1109              		.loc 3 55 0 is_stmt 0 discriminator 1
 1110 06ae C6851FFE 		movb	$1, -481(%rbp)
 1110      FFFF01
 1111 06b5 488B8508 		movq	-504(%rbp), %rax
 1111      FEFFFF
 1112 06bc 488D5008 		leaq	8(%rax), %rdx
 1113 06c0 488D8550 		leaq	-432(%rbp), %rax
 1113      FEFFFF
 1114 06c7 4889D6   		movq	%rdx, %rsi
 1115 06ca 4889C7   		movq	%rax, %rdi
 1116              	.LEHB30:
 1117 06cd E8872700 		call	_ZN8UnitTest11ExecuteTestIN12_GLOBAL__N_168XmlTestReporterFixtureOutputIsCachedUntilReportSum
 1117      00
 1118              	.LEHE30:
 1119              		.loc 3 55 0 discriminator 3
 1120 06d2 488D8550 		leaq	-432(%rbp), %rax
 1120      FEFFFF
 1121 06d9 4889C7   		movq	%rax, %rdi
 1122              	.LEHB31:
 1123 06dc E86BFFFF 		call	_ZN12_GLOBAL__N_168XmlTestReporterFixtureOutputIsCachedUntilReportSummaryIsCalledHelperD2Ev
 1123      FF
 1124              	.LEHE31:
 1125              	.LBE28:
 1126              	.LBE27:
 1127              		.loc 3 55 0
 1128 06e1 E9640200 		jmp	.L79
 1128      00
 1129              	.L73:
 1130 06e6 4989C4   		movq	%rax, %r12
 1131 06e9 4889D3   		movq	%rdx, %rbx
 1132              	.LBB36:
 1133              	.LBB29:
 1134 06ec 488D8550 		leaq	-432(%rbp), %rax
 1134      FEFFFF
 1135 06f3 4889C7   		movq	%rax, %rdi
 1136 06f6 E851FFFF 		call	_ZN12_GLOBAL__N_168XmlTestReporterFixtureOutputIsCachedUntilReportSummaryIsCalledHelperD2Ev
 1136      FF
 1137 06fb 4C89E0   		movq	%r12, %rax
 1138 06fe 4889DA   		movq	%rbx, %rdx
 1139 0701 EB00     		jmp	.L60
 1140              	.L72:
 1141              	.L60:
 1142 0703 4883FA01 		cmpq	$1, %rdx
 1143 0707 745C     		je	.L62
 1144 0709 4883FA02 		cmpq	$2, %rdx
 1145 070d 0F84F400 		je	.L63
 1145      0000
 1146 0713 E9980100 		jmp	.L78
 1146      00
 1147              	.L74:
 1148 0718 4889C3   		movq	%rax, %rbx
 1149              	.LBE29:
 1150              	.LBB30:
 1151 071b E8000000 		call	__cxa_end_catch
 1151      00
 1152 0720 4889D8   		movq	%rbx, %rax
 1153 0723 4889C7   		movq	%rax, %rdi
 1154              	.LEHB32:
 1155 0726 E8000000 		call	_Unwind_Resume
 1155      00
 1156              	.LEHE32:
 1157              	.L75:
 1158 072b 4889C3   		movq	%rax, %rbx
 1159              	.LBE30:
 1160              	.LBB31:
 1161              	.LBB32:
 1162 072e 488D8550 		leaq	-432(%rbp), %rax
 1162      FEFFFF
 1163 0735 4889C7   		movq	%rax, %rdi
 1164 0738 E8000000 		call	_ZN8UnitTest15MemoryOutStreamD1Ev
 1164      00
 1165 073d EB03     		jmp	.L66
 1166              	.L76:
 1167 073f 4889C3   		movq	%rax, %rbx
 1168              	.L66:
 1169              	.LBE32:
 1170 0742 E8000000 		call	__cxa_end_catch
 1170      00
 1171 0747 4889D8   		movq	%rbx, %rax
 1172 074a 4889C7   		movq	%rax, %rdi
 1173              	.LEHB33:
 1174 074d E8000000 		call	_Unwind_Resume
 1174      00
 1175              	.LEHE33:
 1176              	.L77:
 1177 0752 4889C3   		movq	%rax, %rbx
 1178              	.LBE31:
 1179 0755 E8000000 		call	__cxa_end_catch
 1179      00
 1180 075a 4889D8   		movq	%rbx, %rax
 1181 075d 4889C7   		movq	%rax, %rdi
 1182              	.LEHB34:
 1183 0760 E8000000 		call	_Unwind_Resume
 1183      00
 1184              	.LEHE34:
 1185              	.L62:
 1186              	.LBB34:
 1187 0765 4889C7   		movq	%rax, %rdi
 1188 0768 E8000000 		call	__cxa_begin_catch
 1188      00
 1189 076d 48898520 		movq	%rax, -480(%rbp)
 1189      FEFFFF
 1190 0774 488B8520 		movq	-480(%rbp), %rax
 1190      FEFFFF
 1191 077b 488B00   		movq	(%rax), %rax
 1192 077e 4883C010 		addq	$16, %rax
 1193 0782 488B00   		movq	(%rax), %rax
 1194 0785 488B9520 		movq	-480(%rbp), %rdx
 1194      FEFFFF
 1195 078c 4889D7   		movq	%rdx, %rdi
 1196 078f FFD0     		call	*%rax
 1197 0791 4889C3   		movq	%rax, %rbx
 1198 0794 488B8520 		movq	-480(%rbp), %rax
 1198      FEFFFF
 1199 079b 4889C7   		movq	%rax, %rdi
 1200              	.LEHB35:
 1201 079e E8000000 		call	_ZNK8UnitTest15AssertException10LineNumberEv
 1201      00
 1202 07a3 4189C4   		movl	%eax, %r12d
 1203 07a6 488B8520 		movq	-480(%rbp), %rax
 1203      FEFFFF
 1204 07ad 4889C7   		movq	%rax, %rdi
 1205 07b0 E8000000 		call	_ZNK8UnitTest15AssertException8FilenameEv
 1205      00
 1206              		.loc 3 55 0 discriminator 5
 1207 07b5 4889C1   		movq	%rax, %rcx
 1208 07b8 488B8508 		movq	-504(%rbp), %rax
 1208      FEFFFF
 1209 07bf 488B5008 		movq	8(%rax), %rdx
 1210 07c3 488B8508 		movq	-504(%rbp), %rax
 1210      FEFFFF
 1211 07ca 488B7010 		movq	16(%rax), %rsi
 1212 07ce 488D8530 		leaq	-464(%rbp), %rax
 1212      FEFFFF
 1213 07d5 4589E0   		movl	%r12d, %r8d
 1214 07d8 4889C7   		movq	%rax, %rdi
 1215 07db E8000000 		call	_ZN8UnitTest11TestDetailsC1EPKcS2_S2_i
 1215      00
 1216              		.loc 3 55 0 discriminator 9
 1217 07e0 E8000000 		call	_ZN8UnitTest11CurrentTest7ResultsEv
 1217      00
 1218 07e5 488B00   		movq	(%rax), %rax
 1219 07e8 488D8D30 		leaq	-464(%rbp), %rcx
 1219      FEFFFF
 1220 07ef 4889DA   		movq	%rbx, %rdx
 1221 07f2 4889CE   		movq	%rcx, %rsi
 1222 07f5 4889C7   		movq	%rax, %rdi
 1223 07f8 E8000000 		call	_ZN8UnitTest11TestResults13OnTestFailureERKNS_11TestDetailsEPKc
 1223      00
 1224              	.LEHE35:
 1225              		.loc 3 55 0 discriminator 13
 1226 07fd E8000000 		call	__cxa_end_catch
 1226      00
 1227              	.LBE34:
 1228              	.LBE36:
 1229 0802 E9430100 		jmp	.L79
 1229      00
 1230              	.L63:
 1231              	.LBB37:
 1232              	.LBB35:
 1233              		.loc 3 55 0
 1234 0807 4889C7   		movq	%rax, %rdi
 1235 080a E8000000 		call	__cxa_begin_catch
 1235      00
 1236 080f 48898528 		movq	%rax, -472(%rbp)
 1236      FEFFFF
 1237              	.LBB33:
 1238 0816 488D8550 		leaq	-432(%rbp), %rax
 1238      FEFFFF
 1239 081d 4889C7   		movq	%rax, %rdi
 1240              	.LEHB36:
 1241 0820 E8000000 		call	_ZN8UnitTest15MemoryOutStreamC1Ev
 1241      00
 1242              	.LEHE36:
 1243              		.loc 3 55 0 discriminator 15
 1244 0825 488B8528 		movq	-472(%rbp), %rax
 1244      FEFFFF
 1245 082c 488B00   		movq	(%rax), %rax
 1246 082f 4883C010 		addq	$16, %rax
 1247 0833 488B00   		movq	(%rax), %rax
 1248 0836 488B9528 		movq	-472(%rbp), %rdx
 1248      FEFFFF
 1249 083d 4889D7   		movq	%rdx, %rdi
 1250 0840 FFD0     		call	*%rax
 1251 0842 4889C3   		movq	%rax, %rbx
 1252 0845 488D8550 		leaq	-432(%rbp), %rax
 1252      FEFFFF
 1253 084c BE000000 		movl	$.LC3, %esi
 1253      00
 1254 0851 4889C7   		movq	%rax, %rdi
 1255              	.LEHB37:
 1256 0854 E8000000 		call	_ZStlsISt11char_traitsIcEERSt13basic_ostreamIcT_ES5_PKc
 1256      00
 1257 0859 4889DE   		movq	%rbx, %rsi
 1258 085c 4889C7   		movq	%rax, %rdi
 1259 085f E8000000 		call	_ZStlsISt11char_traitsIcEERSt13basic_ostreamIcT_ES5_PKc
 1259      00
 1260              		.loc 3 55 0 discriminator 19
 1261 0864 488D8550 		leaq	-432(%rbp), %rax
 1261      FEFFFF
 1262 086b 4889C7   		movq	%rax, %rdi
 1263 086e E8000000 		call	_ZNK8UnitTest15MemoryOutStream7GetTextEv
 1263      00
 1264 0873 4989C4   		movq	%rax, %r12
 1265 0876 488B8508 		movq	-504(%rbp), %rax
 1265      FEFFFF
 1266 087d 488D5808 		leaq	8(%rax), %rbx
 1267 0881 E8000000 		call	_ZN8UnitTest11CurrentTest7ResultsEv
 1267      00
 1268              		.loc 3 55 0 discriminator 21
 1269 0886 488B00   		movq	(%rax), %rax
 1270 0889 4C89E2   		movq	%r12, %rdx
 1271 088c 4889DE   		movq	%rbx, %rsi
 1272 088f 4889C7   		movq	%rax, %rdi
 1273 0892 E8000000 		call	_ZN8UnitTest11TestResults13OnTestFailureERKNS_11TestDetailsEPKc
 1273      00
 1274              	.LEHE37:
 1275              		.loc 3 55 0 discriminator 25
 1276 0897 488D8550 		leaq	-432(%rbp), %rax
 1276      FEFFFF
 1277 089e 4889C7   		movq	%rax, %rdi
 1278              	.LEHB38:
 1279 08a1 E8000000 		call	_ZN8UnitTest15MemoryOutStreamD1Ev
 1279      00
 1280              	.LEHE38:
 1281              	.LBE33:
 1282              		.loc 3 55 0 discriminator 26
 1283 08a6 E8000000 		call	__cxa_end_catch
 1283      00
 1284              	.LBE35:
 1285              	.LBE37:
 1286 08ab E99A0000 		jmp	.L79
 1286      00
 1287              	.L78:
 1288              	.LBB38:
 1289              		.loc 3 55 0
 1290 08b0 4889C7   		movq	%rax, %rdi
 1291 08b3 E8000000 		call	__cxa_begin_catch
 1291      00
 1292 08b8 80BD1FFE 		cmpb	$0, -481(%rbp)
 1292      FFFF00
 1293 08bf 7443     		je	.L69
 1294              		.loc 3 55 0 discriminator 28
 1295 08c1 488B8508 		movq	-504(%rbp), %rax
 1295      FEFFFF
 1296 08c8 488D4808 		leaq	8(%rax), %rcx
 1297 08cc 488D8530 		leaq	-464(%rbp), %rax
 1297      FEFFFF
 1298 08d3 BA370000 		movl	$55, %edx
 1298      00
 1299 08d8 4889CE   		movq	%rcx, %rsi
 1300 08db 4889C7   		movq	%rax, %rdi
 1301              	.LEHB39:
 1302 08de E8000000 		call	_ZN8UnitTest11TestDetailsC1ERKS0_i
 1302      00
 1303              		.loc 3 55 0 discriminator 31
 1304 08e3 E8000000 		call	_ZN8UnitTest11CurrentTest7ResultsEv
 1304      00
 1305 08e8 488B00   		movq	(%rax), %rax
 1306 08eb 488D8D30 		leaq	-464(%rbp), %rcx
 1306      FEFFFF
 1307 08f2 BA000000 		movl	$.LC4, %edx
 1307      00
 1308 08f7 4889CE   		movq	%rcx, %rsi
 1309 08fa 4889C7   		movq	%rax, %rdi
 1310 08fd E8000000 		call	_ZN8UnitTest11TestResults13OnTestFailureERKNS_11TestDetailsEPKc
 1310      00
 1311 0902 EB41     		jmp	.L70
 1312              	.L69:
 1313              		.loc 3 55 0 discriminator 29
 1314 0904 488B8508 		movq	-504(%rbp), %rax
 1314      FEFFFF
 1315 090b 488D4808 		leaq	8(%rax), %rcx
 1316 090f 488D8530 		leaq	-464(%rbp), %rax
 1316      FEFFFF
 1317 0916 BA370000 		movl	$55, %edx
 1317      00
 1318 091b 4889CE   		movq	%rcx, %rsi
 1319 091e 4889C7   		movq	%rax, %rdi
 1320 0921 E8000000 		call	_ZN8UnitTest11TestDetailsC1ERKS0_i
 1320      00
 1321              		.loc 3 55 0 discriminator 38
 1322 0926 E8000000 		call	_ZN8UnitTest11CurrentTest7ResultsEv
 1322      00
 1323 092b 488B00   		movq	(%rax), %rax
 1324 092e 488D8D30 		leaq	-464(%rbp), %rcx
 1324      FEFFFF
 1325 0935 BA000000 		movl	$.LC5, %edx
 1325      00
 1326 093a 4889CE   		movq	%rcx, %rsi
 1327 093d 4889C7   		movq	%rax, %rdi
 1328 0940 E8000000 		call	_ZN8UnitTest11TestResults13OnTestFailureERKNS_11TestDetailsEPKc
 1328      00
 1329              	.LEHE39:
 1330              	.L70:
 1331              	.LEHB40:
 1332              		.loc 3 55 0 discriminator 43
 1333 0945 E8000000 		call	__cxa_end_catch
 1333      00
 1334              	.LEHE40:
 1335              	.L79:
 1336              	.LBE38:
 1337              		.loc 3 55 0
 1338 094a 90       		nop
 1339 094b 488B45E8 		movq	-24(%rbp), %rax
 1340 094f 64483304 		xorq	%fs:40, %rax
 1340      25280000 
 1340      00
 1341 0958 7405     		je	.L71
 1342 095a E8000000 		call	__stack_chk_fail
 1342      00
 1343              	.L71:
 1344 095f 4881C4F0 		addq	$496, %rsp
 1344      010000
 1345 0966 5B       		popq	%rbx
 1346 0967 415C     		popq	%r12
 1347 0969 5D       		popq	%rbp
 1348              		.cfi_def_cfa 7, 8
 1349 096a C3       		ret
 1350              		.cfi_endproc
 1351              	.LFE1356:
 1352              		.section	.gcc_except_table
 1353              		.align 4
 1354              	.LLSDA1356:
 1355 00b0 FF       		.byte	0xff
 1356 00b1 03       		.byte	0x3
 1357 00b2 59       		.uleb128 .LLSDATT1356-.LLSDATTD1356
 1358              	.LLSDATTD1356:
 1359 00b3 01       		.byte	0x1
 1360 00b4 41       		.uleb128 .LLSDACSE1356-.LLSDACSB1356
 1361              	.LLSDACSB1356:
 1362 00b5 43       		.uleb128 .LEHB29-.LFB1356
 1363 00b6 05       		.uleb128 .LEHE29-.LEHB29
 1364 00b7 9D01     		.uleb128 .L72-.LFB1356
 1365 00b9 05       		.uleb128 0x5
 1366 00ba 67       		.uleb128 .LEHB30-.LFB1356
 1367 00bb 05       		.uleb128 .LEHE30-.LEHB30
 1368 00bc 8001     		.uleb128 .L73-.LFB1356
 1369 00be 07       		.uleb128 0x7
 1370 00bf 76       		.uleb128 .LEHB31-.LFB1356
 1371 00c0 05       		.uleb128 .LEHE31-.LEHB31
 1372 00c1 9D01     		.uleb128 .L72-.LFB1356
 1373 00c3 05       		.uleb128 0x5
 1374 00c4 C001     		.uleb128 .LEHB32-.LFB1356
 1375 00c6 05       		.uleb128 .LEHE32-.LEHB32
 1376 00c7 00       		.uleb128 0
 1377 00c8 00       		.uleb128 0
 1378 00c9 E701     		.uleb128 .LEHB33-.LFB1356
 1379 00cb 05       		.uleb128 .LEHE33-.LEHB33
 1380 00cc 00       		.uleb128 0
 1381 00cd 00       		.uleb128 0
 1382 00ce FA01     		.uleb128 .LEHB34-.LFB1356
 1383 00d0 05       		.uleb128 .LEHE34-.LEHB34
 1384 00d1 00       		.uleb128 0
 1385 00d2 00       		.uleb128 0
 1386 00d3 B802     		.uleb128 .LEHB35-.LFB1356
 1387 00d5 5F       		.uleb128 .LEHE35-.LEHB35
 1388 00d6 B201     		.uleb128 .L74-.LFB1356
 1389 00d8 00       		.uleb128 0
 1390 00d9 BA03     		.uleb128 .LEHB36-.LFB1356
 1391 00db 05       		.uleb128 .LEHE36-.LEHB36
 1392 00dc D901     		.uleb128 .L76-.LFB1356
 1393 00de 00       		.uleb128 0
 1394 00df EE03     		.uleb128 .LEHB37-.LFB1356
 1395 00e1 43       		.uleb128 .LEHE37-.LEHB37
 1396 00e2 C501     		.uleb128 .L75-.LFB1356
 1397 00e4 00       		.uleb128 0
 1398 00e5 BB04     		.uleb128 .LEHB38-.LFB1356
 1399 00e7 05       		.uleb128 .LEHE38-.LEHB38
 1400 00e8 D901     		.uleb128 .L76-.LFB1356
 1401 00ea 00       		.uleb128 0
 1402 00eb F804     		.uleb128 .LEHB39-.LFB1356
 1403 00ed 67       		.uleb128 .LEHE39-.LEHB39
 1404 00ee EC01     		.uleb128 .L77-.LFB1356
 1405 00f0 00       		.uleb128 0
 1406 00f1 DF05     		.uleb128 .LEHB40-.LFB1356
 1407 00f3 05       		.uleb128 .LEHE40-.LEHB40
 1408 00f4 00       		.uleb128 0
 1409 00f5 00       		.uleb128 0
 1410              	.LLSDACSE1356:
 1411 00f6 03       		.byte	0x3
 1412 00f7 00       		.byte	0
 1413 00f8 02       		.byte	0x2
 1414 00f9 7D       		.byte	0x7d
 1415 00fa 01       		.byte	0x1
 1416 00fb 7D       		.byte	0x7d
 1417 00fc 00       		.byte	0
 1418 00fd 7D       		.byte	0x7d
 1419 00fe 0000     		.align 4
 1420 0100 00000000 		.long	0
 1421              	
 1422 0104 00000000 		.long	_ZTISt9exception
 1423 0108 00000000 		.long	_ZTIN8UnitTest15AssertExceptionE
 1424              	.LLSDATT1356:
 1425              		.text
 1427              		.section	.rodata
 1428              	.LC14:
 1429 0279 00       		.string	""
 1430              	.LC15:
 1431 027a 6D657373 		.string	"message"
 1431      61676500 
 1432              	.LC17:
 1433 0282 6F757470 		.string	"output.str().empty()"
 1433      75742E73 
 1433      74722829 
 1433      2E656D70 
 1433      74792829 
 1434              	.LC18:
 1435 0297 216F7574 		.string	"!output.str().empty()"
 1435      7075742E 
 1435      73747228 
 1435      292E656D 
 1435      70747928 
 1436 02ad 000000   		.align 8
 1437              	.LC19:
 1438 02b0 556E6861 		.string	"Unhandled exception in CHECK(output.str().empty())"
 1438      6E646C65 
 1438      64206578 
 1438      63657074 
 1438      696F6E20 
 1439 02e3 00000000 		.align 8
 1439      00
 1440              	.LC20:
 1441 02e8 556E6861 		.string	"Unhandled exception in CHECK(!output.str().empty())"
 1441      6E646C65 
 1441      64206578 
 1441      63657074 
 1441      696F6E20 
 1442              		.text
 1443 096b 90       		.align 2
 1445              	_ZN12_GLOBAL__N_168XmlTestReporterFixtureOutputIsCachedUntilReportSummaryIsCalledHelper7RunImplEv:
 1446              	.LFB1360:
  56:TestXmlTestReporter.cpp **** {
 1447              		.loc 3 56 0 is_stmt 1
 1448              		.cfi_startproc
 1449              		.cfi_personality 0x3,__gxx_personality_v0
 1450              		.cfi_lsda 0x3,.LLSDA1360
 1451 096c 55       		pushq	%rbp
 1452              		.cfi_def_cfa_offset 16
 1453              		.cfi_offset 6, -16
 1454 096d 4889E5   		movq	%rsp, %rbp
 1455              		.cfi_def_cfa_register 6
 1456 0970 53       		pushq	%rbx
 1457 0971 4881EC88 		subq	$136, %rsp
 1457      000000
 1458              		.cfi_offset 3, -24
 1459 0978 4889BD78 		movq	%rdi, -136(%rbp)
 1459      FFFFFF
 1460              		.loc 3 56 0
 1461 097f 64488B04 		movq	%fs:40, %rax
 1461      25280000 
 1461      00
 1462 0988 488945E8 		movq	%rax, -24(%rbp)
 1463 098c 31C0     		xorl	%eax, %eax
 1464              	.LBB39:
  57:TestXmlTestReporter.cpp ****     TestDetails const details("", "", "", 0);
 1465              		.loc 3 57 0
 1466 098e 488D45A0 		leaq	-96(%rbp), %rax
 1467 0992 41B80000 		movl	$0, %r8d
 1467      0000
 1468 0998 B9000000 		movl	$.LC14, %ecx
 1468      00
 1469 099d BA000000 		movl	$.LC14, %edx
 1469      00
 1470 09a2 BE000000 		movl	$.LC14, %esi
 1470      00
 1471 09a7 4889C7   		movq	%rax, %rdi
 1472              	.LEHB41:
 1473 09aa E8000000 		call	_ZN8UnitTest11TestDetailsC1EPKcS2_S2_i
 1473      00
  58:TestXmlTestReporter.cpp **** 
  59:TestXmlTestReporter.cpp ****     reporter.ReportTestStart(details);
 1474              		.loc 3 59 0
 1475 09af 488B8578 		movq	-136(%rbp), %rax
 1475      FFFFFF
 1476 09b6 488D9060 		leaq	352(%rax), %rdx
 1476      010000
 1477 09bd 488D45A0 		leaq	-96(%rbp), %rax
 1478 09c1 4889C6   		movq	%rax, %rsi
 1479 09c4 4889D7   		movq	%rdx, %rdi
 1480 09c7 E8000000 		call	_ZN8UnitTest20DeferredTestReporter15ReportTestStartERKNS_11TestDetailsE
 1480      00
  60:TestXmlTestReporter.cpp ****     reporter.ReportFailure(details, "message");
 1481              		.loc 3 60 0
 1482 09cc 488B8578 		movq	-136(%rbp), %rax
 1482      FFFFFF
 1483 09d3 488D8860 		leaq	352(%rax), %rcx
 1483      010000
 1484 09da 488D45A0 		leaq	-96(%rbp), %rax
 1485 09de BA000000 		movl	$.LC15, %edx
 1485      00
 1486 09e3 4889C6   		movq	%rax, %rsi
 1487 09e6 4889CF   		movq	%rcx, %rdi
 1488 09e9 E8000000 		call	_ZN8UnitTest20DeferredTestReporter13ReportFailureERKNS_11TestDetailsEPKc
 1488      00
  61:TestXmlTestReporter.cpp ****     reporter.ReportTestFinish(details, 1.0F);
 1489              		.loc 3 61 0
 1490 09ee 488B8578 		movq	-136(%rbp), %rax
 1490      FFFFFF
 1491 09f5 488D9060 		leaq	352(%rax), %rdx
 1491      010000
 1492 09fc 488D45A0 		leaq	-96(%rbp), %rax
 1493 0a00 F30F1005 		movss	.LC16(%rip), %xmm0
 1493      00000000 
 1494 0a08 4889C6   		movq	%rax, %rsi
 1495 0a0b 4889D7   		movq	%rdx, %rdi
 1496 0a0e E8000000 		call	_ZN8UnitTest20DeferredTestReporter16ReportTestFinishERKNS_11TestDetailsEf
 1496      00
 1497              	.LEHE41:
  62:TestXmlTestReporter.cpp ****     CHECK(output.str().empty());
 1498              		.loc 3 62 0
 1499 0a13 488B9578 		movq	-136(%rbp), %rdx
 1499      FFFFFF
 1500 0a1a 488D4580 		leaq	-128(%rbp), %rax
 1501 0a1e 4889D6   		movq	%rdx, %rsi
 1502 0a21 4889C7   		movq	%rax, %rdi
 1503              	.LEHB42:
 1504 0a24 E8000000 		call	_ZNKSt19basic_ostringstreamIcSt11char_traitsIcESaIcEE3strEv
 1504      00
 1505              	.LEHE42:
 1506              		.loc 3 62 0 is_stmt 0 discriminator 1
 1507 0a29 488D4580 		leaq	-128(%rbp), %rax
 1508 0a2d 4889C7   		movq	%rax, %rdi
 1509              	.LEHB43:
 1510 0a30 E8000000 		call	_ZNKSs5emptyEv
 1510      00
 1511              	.LEHE43:
 1512 0a35 0FB6C0   		movzbl	%al, %eax
 1513 0a38 89C7     		movl	%eax, %edi
 1514 0a3a E8000000 		call	_ZN8UnitTest5CheckIbEEbT_
 1514      00
 1515 0a3f 83F001   		xorl	$1, %eax
 1516 0a42 89C3     		movl	%eax, %ebx
 1517 0a44 488D4580 		leaq	-128(%rbp), %rax
 1518 0a48 4889C7   		movq	%rax, %rdi
 1519              	.LEHB44:
 1520 0a4b E8000000 		call	_ZNSsD1Ev
 1520      00
 1521              		.loc 3 62 0 discriminator 4
 1522 0a50 84DB     		testb	%bl, %bl
 1523 0a52 7438     		je	.L81
 1524              		.loc 3 62 0 discriminator 5
 1525 0a54 E8000000 		call	_ZN8UnitTest11CurrentTest7DetailsEv
 1525      00
 1526 0a59 488B08   		movq	(%rax), %rcx
 1527 0a5c 488D45C0 		leaq	-64(%rbp), %rax
 1528 0a60 BA3E0000 		movl	$62, %edx
 1528      00
 1529 0a65 4889CE   		movq	%rcx, %rsi
 1530 0a68 4889C7   		movq	%rax, %rdi
 1531 0a6b E8000000 		call	_ZN8UnitTest11TestDetailsC1ERKS0_i
 1531      00
 1532              		.loc 3 62 0 discriminator 7
 1533 0a70 E8000000 		call	_ZN8UnitTest11CurrentTest7ResultsEv
 1533      00
 1534 0a75 488B00   		movq	(%rax), %rax
 1535 0a78 488D4DC0 		leaq	-64(%rbp), %rcx
 1536 0a7c BA000000 		movl	$.LC17, %edx
 1536      00
 1537 0a81 4889CE   		movq	%rcx, %rsi
 1538 0a84 4889C7   		movq	%rax, %rdi
 1539 0a87 E8000000 		call	_ZN8UnitTest11TestResults13OnTestFailureERKNS_11TestDetailsEPKc
 1539      00
 1540              	.LEHE44:
 1541              	.L81:
  63:TestXmlTestReporter.cpp **** 
  64:TestXmlTestReporter.cpp ****     reporter.ReportSummary(1, 1, 1, 1.0f);
 1542              		.loc 3 64 0 is_stmt 1
 1543 0a8c 488B8578 		movq	-136(%rbp), %rax
 1543      FFFFFF
 1544 0a93 48056001 		addq	$352, %rax
 1544      0000
 1545 0a99 F30F1005 		movss	.LC16(%rip), %xmm0
 1545      00000000 
 1546 0aa1 B9010000 		movl	$1, %ecx
 1546      00
 1547 0aa6 BA010000 		movl	$1, %edx
 1547      00
 1548 0aab BE010000 		movl	$1, %esi
 1548      00
 1549 0ab0 4889C7   		movq	%rax, %rdi
 1550              	.LEHB45:
 1551 0ab3 E8000000 		call	_ZN8UnitTest15XmlTestReporter13ReportSummaryEiiif
 1551      00
 1552              	.LEHE45:
  65:TestXmlTestReporter.cpp ****     CHECK(!output.str().empty());
 1553              		.loc 3 65 0
 1554 0ab8 488B9578 		movq	-136(%rbp), %rdx
 1554      FFFFFF
 1555 0abf 488D4590 		leaq	-112(%rbp), %rax
 1556 0ac3 4889D6   		movq	%rdx, %rsi
 1557 0ac6 4889C7   		movq	%rax, %rdi
 1558              	.LEHB46:
 1559 0ac9 E8000000 		call	_ZNKSt19basic_ostringstreamIcSt11char_traitsIcESaIcEE3strEv
 1559      00
 1560              	.LEHE46:
 1561              		.loc 3 65 0 is_stmt 0 discriminator 1
 1562 0ace 488D4590 		leaq	-112(%rbp), %rax
 1563 0ad2 4889C7   		movq	%rax, %rdi
 1564              	.LEHB47:
 1565 0ad5 E8000000 		call	_ZNKSs5emptyEv
 1565      00
 1566              	.LEHE47:
 1567 0ada 83F001   		xorl	$1, %eax
 1568 0add 0FB6C0   		movzbl	%al, %eax
 1569 0ae0 89C7     		movl	%eax, %edi
 1570 0ae2 E8000000 		call	_ZN8UnitTest5CheckIbEEbT_
 1570      00
 1571 0ae7 83F001   		xorl	$1, %eax
 1572 0aea 89C3     		movl	%eax, %ebx
 1573 0aec 488D4590 		leaq	-112(%rbp), %rax
 1574 0af0 4889C7   		movq	%rax, %rdi
 1575              	.LEHB48:
 1576 0af3 E8000000 		call	_ZNSsD1Ev
 1576      00
 1577              		.loc 3 65 0 discriminator 4
 1578 0af8 84DB     		testb	%bl, %bl
 1579 0afa 0F841B01 		je	.L80
 1579      0000
 1580              		.loc 3 65 0 discriminator 5
 1581 0b00 E8000000 		call	_ZN8UnitTest11CurrentTest7DetailsEv
 1581      00
 1582 0b05 488B08   		movq	(%rax), %rcx
 1583 0b08 488D45C0 		leaq	-64(%rbp), %rax
 1584 0b0c BA410000 		movl	$65, %edx
 1584      00
 1585 0b11 4889CE   		movq	%rcx, %rsi
 1586 0b14 4889C7   		movq	%rax, %rdi
 1587 0b17 E8000000 		call	_ZN8UnitTest11TestDetailsC1ERKS0_i
 1587      00
 1588              		.loc 3 65 0 discriminator 7
 1589 0b1c E8000000 		call	_ZN8UnitTest11CurrentTest7ResultsEv
 1589      00
 1590 0b21 488B00   		movq	(%rax), %rax
 1591 0b24 488D4DC0 		leaq	-64(%rbp), %rcx
 1592 0b28 BA000000 		movl	$.LC18, %edx
 1592      00
 1593 0b2d 4889CE   		movq	%rcx, %rsi
 1594 0b30 4889C7   		movq	%rax, %rdi
 1595 0b33 E8000000 		call	_ZN8UnitTest11TestResults13OnTestFailureERKNS_11TestDetailsEPKc
 1595      00
 1596              	.LEHE48:
 1597 0b38 E9DE0000 		jmp	.L80
 1597      00
 1598              	.L91:
 1599 0b3d 4889C3   		movq	%rax, %rbx
  62:TestXmlTestReporter.cpp ****     CHECK(output.str().empty());
 1600              		.loc 3 62 0 is_stmt 1
 1601 0b40 488D4580 		leaq	-128(%rbp), %rax
 1602 0b44 4889C7   		movq	%rax, %rdi
 1603 0b47 E8000000 		call	_ZNSsD1Ev
 1603      00
 1604 0b4c 4889D8   		movq	%rbx, %rax
 1605 0b4f EB13     		jmp	.L84
 1606              	.L92:
 1607 0b51 4889C3   		movq	%rax, %rbx
 1608 0b54 E8000000 		call	__cxa_end_catch
 1608      00
 1609 0b59 4889D8   		movq	%rbx, %rax
 1610 0b5c 4889C7   		movq	%rax, %rdi
 1611              	.LEHB49:
 1612 0b5f E8000000 		call	_Unwind_Resume
 1612      00
 1613              	.LEHE49:
 1614              	.L90:
 1615              	.L84:
 1616 0b64 4889C7   		movq	%rax, %rdi
 1617 0b67 E8000000 		call	__cxa_begin_catch
 1617      00
 1618              	.LEHB50:
 1619 0b6c E8000000 		call	_ZN8UnitTest11CurrentTest7DetailsEv
 1619      00
 1620 0b71 488B08   		movq	(%rax), %rcx
 1621 0b74 488D45C0 		leaq	-64(%rbp), %rax
 1622 0b78 BA3E0000 		movl	$62, %edx
 1622      00
 1623 0b7d 4889CE   		movq	%rcx, %rsi
 1624 0b80 4889C7   		movq	%rax, %rdi
 1625 0b83 E8000000 		call	_ZN8UnitTest11TestDetailsC1ERKS0_i
 1625      00
  62:TestXmlTestReporter.cpp ****     CHECK(output.str().empty());
 1626              		.loc 3 62 0 is_stmt 0 discriminator 15
 1627 0b88 E8000000 		call	_ZN8UnitTest11CurrentTest7ResultsEv
 1627      00
 1628 0b8d 488B00   		movq	(%rax), %rax
 1629 0b90 488D4DC0 		leaq	-64(%rbp), %rcx
 1630 0b94 BA000000 		movl	$.LC19, %edx
 1630      00
 1631 0b99 4889CE   		movq	%rcx, %rsi
 1632 0b9c 4889C7   		movq	%rax, %rdi
 1633 0b9f E8000000 		call	_ZN8UnitTest11TestResults13OnTestFailureERKNS_11TestDetailsEPKc
 1633      00
 1634              	.LEHE50:
 1635              	.LEHB51:
  62:TestXmlTestReporter.cpp ****     CHECK(output.str().empty());
 1636              		.loc 3 62 0 discriminator 19
 1637 0ba4 E8000000 		call	__cxa_end_catch
 1637      00
 1638              	.LEHE51:
 1639 0ba9 E9DEFEFF 		jmp	.L81
 1639      FF
 1640              	.L94:
 1641 0bae 4889C3   		movq	%rax, %rbx
 1642              		.loc 3 65 0 is_stmt 1
 1643 0bb1 488D4590 		leaq	-112(%rbp), %rax
 1644 0bb5 4889C7   		movq	%rax, %rdi
 1645 0bb8 E8000000 		call	_ZNSsD1Ev
 1645      00
 1646 0bbd 4889D8   		movq	%rbx, %rax
 1647 0bc0 EB13     		jmp	.L87
 1648              	.L95:
 1649 0bc2 4889C3   		movq	%rax, %rbx
 1650 0bc5 E8000000 		call	__cxa_end_catch
 1650      00
 1651 0bca 4889D8   		movq	%rbx, %rax
 1652 0bcd 4889C7   		movq	%rax, %rdi
 1653              	.LEHB52:
 1654 0bd0 E8000000 		call	_Unwind_Resume
 1654      00
 1655              	.LEHE52:
 1656              	.L93:
 1657              	.L87:
 1658 0bd5 4889C7   		movq	%rax, %rdi
 1659 0bd8 E8000000 		call	__cxa_begin_catch
 1659      00
 1660              	.LEHB53:
 1661 0bdd E8000000 		call	_ZN8UnitTest11CurrentTest7DetailsEv
 1661      00
 1662 0be2 488B08   		movq	(%rax), %rcx
 1663 0be5 488D45C0 		leaq	-64(%rbp), %rax
 1664 0be9 BA410000 		movl	$65, %edx
 1664      00
 1665 0bee 4889CE   		movq	%rcx, %rsi
 1666 0bf1 4889C7   		movq	%rax, %rdi
 1667 0bf4 E8000000 		call	_ZN8UnitTest11TestDetailsC1ERKS0_i
 1667      00
 1668              		.loc 3 65 0 is_stmt 0 discriminator 15
 1669 0bf9 E8000000 		call	_ZN8UnitTest11CurrentTest7ResultsEv
 1669      00
 1670 0bfe 488B00   		movq	(%rax), %rax
 1671 0c01 488D4DC0 		leaq	-64(%rbp), %rcx
 1672 0c05 BA000000 		movl	$.LC20, %edx
 1672      00
 1673 0c0a 4889CE   		movq	%rcx, %rsi
 1674 0c0d 4889C7   		movq	%rax, %rdi
 1675 0c10 E8000000 		call	_ZN8UnitTest11TestResults13OnTestFailureERKNS_11TestDetailsEPKc
 1675      00
 1676              	.LEHE53:
 1677              	.LEHB54:
 1678              		.loc 3 65 0 discriminator 19
 1679 0c15 E8000000 		call	__cxa_end_catch
 1679      00
 1680              	.LEHE54:
 1681              	.LBE39:
  66:TestXmlTestReporter.cpp **** }
 1682              		.loc 3 66 0 is_stmt 1 discriminator 19
 1683 0c1a 90       		nop
 1684              	.L80:
 1685              		.loc 3 66 0 is_stmt 0
 1686 0c1b 488B45E8 		movq	-24(%rbp), %rax
 1687 0c1f 64483304 		xorq	%fs:40, %rax
 1687      25280000 
 1687      00
 1688 0c28 7405     		je	.L89
 1689 0c2a E8000000 		call	__stack_chk_fail
 1689      00
 1690              	.L89:
 1691 0c2f 4881C488 		addq	$136, %rsp
 1691      000000
 1692 0c36 5B       		popq	%rbx
 1693 0c37 5D       		popq	%rbp
 1694              		.cfi_def_cfa 7, 8
 1695 0c38 C3       		ret
 1696              		.cfi_endproc
 1697              	.LFE1360:
 1698              		.section	.gcc_except_table
 1699              		.align 4
 1700              	.LLSDA1360:
 1701 010c FF       		.byte	0xff
 1702 010d 03       		.byte	0x3
 1703 010e 59       		.uleb128 .LLSDATT1360-.LLSDATTD1360
 1704              	.LLSDATTD1360:
 1705 010f 01       		.byte	0x1
 1706 0110 4D       		.uleb128 .LLSDACSE1360-.LLSDACSB1360
 1707              	.LLSDACSB1360:
 1708 0111 3E       		.uleb128 .LEHB41-.LFB1360
 1709 0112 69       		.uleb128 .LEHE41-.LEHB41
 1710 0113 00       		.uleb128 0
 1711 0114 00       		.uleb128 0
 1712 0115 B801     		.uleb128 .LEHB42-.LFB1360
 1713 0117 05       		.uleb128 .LEHE42-.LEHB42
 1714 0118 F803     		.uleb128 .L90-.LFB1360
 1715 011a 01       		.uleb128 0x1
 1716 011b C401     		.uleb128 .LEHB43-.LFB1360
 1717 011d 05       		.uleb128 .LEHE43-.LEHB43
 1718 011e D103     		.uleb128 .L91-.LFB1360
 1719 0120 03       		.uleb128 0x3
 1720 0121 DF01     		.uleb128 .LEHB44-.LFB1360
 1721 0123 41       		.uleb128 .LEHE44-.LEHB44
 1722 0124 F803     		.uleb128 .L90-.LFB1360
 1723 0126 01       		.uleb128 0x1
 1724 0127 C702     		.uleb128 .LEHB45-.LFB1360
 1725 0129 05       		.uleb128 .LEHE45-.LEHB45
 1726 012a 00       		.uleb128 0
 1727 012b 00       		.uleb128 0
 1728 012c DD02     		.uleb128 .LEHB46-.LFB1360
 1729 012e 05       		.uleb128 .LEHE46-.LEHB46
 1730 012f E904     		.uleb128 .L93-.LFB1360
 1731 0131 01       		.uleb128 0x1
 1732 0132 E902     		.uleb128 .LEHB47-.LFB1360
 1733 0134 05       		.uleb128 .LEHE47-.LEHB47
 1734 0135 C204     		.uleb128 .L94-.LFB1360
 1735 0137 03       		.uleb128 0x3
 1736 0138 8703     		.uleb128 .LEHB48-.LFB1360
 1737 013a 45       		.uleb128 .LEHE48-.LEHB48
 1738 013b E904     		.uleb128 .L93-.LFB1360
 1739 013d 01       		.uleb128 0x1
 1740 013e F303     		.uleb128 .LEHB49-.LFB1360
 1741 0140 05       		.uleb128 .LEHE49-.LEHB49
 1742 0141 00       		.uleb128 0
 1743 0142 00       		.uleb128 0
 1744 0143 8004     		.uleb128 .LEHB50-.LFB1360
 1745 0145 38       		.uleb128 .LEHE50-.LEHB50
 1746 0146 E503     		.uleb128 .L92-.LFB1360
 1747 0148 00       		.uleb128 0
 1748 0149 B804     		.uleb128 .LEHB51-.LFB1360
 1749 014b 05       		.uleb128 .LEHE51-.LEHB51
 1750 014c 00       		.uleb128 0
 1751 014d 00       		.uleb128 0
 1752 014e E404     		.uleb128 .LEHB52-.LFB1360
 1753 0150 05       		.uleb128 .LEHE52-.LEHB52
 1754 0151 00       		.uleb128 0
 1755 0152 00       		.uleb128 0
 1756 0153 F104     		.uleb128 .LEHB53-.LFB1360
 1757 0155 38       		.uleb128 .LEHE53-.LEHB53
 1758 0156 D604     		.uleb128 .L95-.LFB1360
 1759 0158 00       		.uleb128 0
 1760 0159 A905     		.uleb128 .LEHB54-.LFB1360
 1761 015b 05       		.uleb128 .LEHE54-.LEHB54
 1762 015c 00       		.uleb128 0
 1763 015d 00       		.uleb128 0
 1764              	.LLSDACSE1360:
 1765 015e 01       		.byte	0x1
 1766 015f 00       		.byte	0
 1767 0160 00       		.byte	0
 1768 0161 7D       		.byte	0x7d
 1769 0162 0000     		.align 4
 1770 0164 00000000 		.long	0
 1771              	
 1772              	.LLSDATT1360:
 1773              		.text
 1775 0c39 90       		.align 2
 1777              	_ZN12_GLOBAL__N_152XmlTestReporterFixtureEmptyReportSummaryFormatHelperC2ERKN8UnitTest11TestDetails
 1778              	.LFB1362:
  67:TestXmlTestReporter.cpp **** 
  68:TestXmlTestReporter.cpp **** TEST_FIXTURE(XmlTestReporterFixture, EmptyReportSummaryFormat)
 1779              		.loc 3 68 0 is_stmt 1
 1780              		.cfi_startproc
 1781 0c3a 55       		pushq	%rbp
 1782              		.cfi_def_cfa_offset 16
 1783              		.cfi_offset 6, -16
 1784 0c3b 4889E5   		movq	%rsp, %rbp
 1785              		.cfi_def_cfa_register 6
 1786 0c3e 4883EC10 		subq	$16, %rsp
 1787 0c42 48897DF8 		movq	%rdi, -8(%rbp)
 1788 0c46 488975F0 		movq	%rsi, -16(%rbp)
 1789              	.LBB40:
 1790              		.loc 3 68 0
 1791 0c4a 488B45F8 		movq	-8(%rbp), %rax
 1792 0c4e 4889C7   		movq	%rax, %rdi
 1793 0c51 E8AAF3FF 		call	_ZN12_GLOBAL__N_122XmlTestReporterFixtureC2Ev
 1793      FF
 1794 0c56 488B45F8 		movq	-8(%rbp), %rax
 1795 0c5a 488B55F0 		movq	-16(%rbp), %rdx
 1796 0c5e 48899088 		movq	%rdx, 392(%rax)
 1796      010000
 1797              	.LBE40:
 1798 0c65 C9       		leave
 1799              		.cfi_def_cfa 7, 8
 1800 0c66 C3       		ret
 1801              		.cfi_endproc
 1802              	.LFE1362:
 1804              		.section	.rodata
 1805              	.LC21:
 1806 031c 456D7074 		.string	"EmptyReportSummaryFormat"
 1806      79526570 
 1806      6F727453 
 1806      756D6D61 
 1806      7279466F 
 1807              		.text
 1808 0c67 90       		.align 2
 1810              	_ZN12_GLOBAL__N_150TestXmlTestReporterFixtureEmptyReportSummaryFormatC2Ev:
 1811              	.LFB1365:
 1812              		.loc 3 68 0
 1813              		.cfi_startproc
 1814 0c68 55       		pushq	%rbp
 1815              		.cfi_def_cfa_offset 16
 1816              		.cfi_offset 6, -16
 1817 0c69 4889E5   		movq	%rsp, %rbp
 1818              		.cfi_def_cfa_register 6
 1819 0c6c 4883EC10 		subq	$16, %rsp
 1820 0c70 48897DF8 		movq	%rdi, -8(%rbp)
 1821              	.LBB41:
 1822              		.loc 3 68 0
 1823 0c74 E8000000 		call	_ZN13UnitTestSuite12GetSuiteNameEv
 1823      00
 1824 0c79 4889C2   		movq	%rax, %rdx
 1825 0c7c 488B45F8 		movq	-8(%rbp), %rax
 1826 0c80 41B84400 		movl	$68, %r8d
 1826      0000
 1827 0c86 B9000000 		movl	$.LC1, %ecx
 1827      00
 1828 0c8b BE000000 		movl	$.LC21, %esi
 1828      00
 1829 0c90 4889C7   		movq	%rax, %rdi
 1830 0c93 E8000000 		call	_ZN8UnitTest4TestC2EPKcS2_S2_i
 1830      00
 1831 0c98 488B45F8 		movq	-8(%rbp), %rax
 1832 0c9c 48C70000 		movq	$_ZTVN12_GLOBAL__N_150TestXmlTestReporterFixtureEmptyReportSummaryFormatE+16, (%rax)
 1832      000000
 1833              	.LBE41:
 1834 0ca3 C9       		leave
 1835              		.cfi_def_cfa 7, 8
 1836 0ca4 C3       		ret
 1837              		.cfi_endproc
 1838              	.LFE1365:
 1840              		.local	_ZN12_GLOBAL__N_158testXmlTestReporterFixtureEmptyReportSummaryFormatInstanceE
 1841              		.comm	_ZN12_GLOBAL__N_158testXmlTestReporterFixtureEmptyReportSummaryFormatInstanceE,56,32
 1842              		.local	_ZN12_GLOBAL__N_151adderXmlTestReporterFixtureEmptyReportSummaryFormatE
 1843              		.comm	_ZN12_GLOBAL__N_151adderXmlTestReporterFixtureEmptyReportSummaryFormatE,1,1
 1844 0ca5 90       		.align 2
 1846              	_ZN12_GLOBAL__N_152XmlTestReporterFixtureEmptyReportSummaryFormatHelperD2Ev:
 1847              	.LFB1369:
 1848              		.loc 3 68 0
 1849              		.cfi_startproc
 1850 0ca6 55       		pushq	%rbp
 1851              		.cfi_def_cfa_offset 16
 1852              		.cfi_offset 6, -16
 1853 0ca7 4889E5   		movq	%rsp, %rbp
 1854              		.cfi_def_cfa_register 6
 1855 0caa 4883EC10 		subq	$16, %rsp
 1856 0cae 48897DF8 		movq	%rdi, -8(%rbp)
 1857              	.LBB42:
 1858              		.loc 3 68 0
 1859 0cb2 488B45F8 		movq	-8(%rbp), %rax
 1860 0cb6 4889C7   		movq	%rax, %rdi
 1861 0cb9 E89EF3FF 		call	_ZN12_GLOBAL__N_122XmlTestReporterFixtureD2Ev
 1861      FF
 1862              	.LBE42:
 1863 0cbe C9       		leave
 1864              		.cfi_def_cfa 7, 8
 1865 0cbf C3       		ret
 1866              		.cfi_endproc
 1867              	.LFE1369:
 1869              		.align 2
 1871              	_ZNK12_GLOBAL__N_150TestXmlTestReporterFixtureEmptyReportSummaryFormat7RunImplEv:
 1872              	.LFB1367:
 1873              		.loc 3 68 0
 1874              		.cfi_startproc
 1875              		.cfi_personality 0x3,__gxx_personality_v0
 1876              		.cfi_lsda 0x3,.LLSDA1367
 1877 0cc0 55       		pushq	%rbp
 1878              		.cfi_def_cfa_offset 16
 1879              		.cfi_offset 6, -16
 1880 0cc1 4889E5   		movq	%rsp, %rbp
 1881              		.cfi_def_cfa_register 6
 1882 0cc4 4154     		pushq	%r12
 1883 0cc6 53       		pushq	%rbx
 1884 0cc7 4881ECF0 		subq	$496, %rsp
 1884      010000
 1885              		.cfi_offset 12, -24
 1886              		.cfi_offset 3, -32
 1887 0cce 4889BD08 		movq	%rdi, -504(%rbp)
 1887      FEFFFF
 1888              		.loc 3 68 0
 1889 0cd5 64488B04 		movq	%fs:40, %rax
 1889      25280000 
 1889      00
 1890 0cde 488945E8 		movq	%rax, -24(%rbp)
 1891 0ce2 31C0     		xorl	%eax, %eax
 1892              	.LBB43:
 1893 0ce4 C6851FFE 		movb	$0, -481(%rbp)
 1893      FFFF00
 1894              	.LBB44:
 1895 0ceb 488B8508 		movq	-504(%rbp), %rax
 1895      FEFFFF
 1896 0cf2 488D5008 		leaq	8(%rax), %rdx
 1897 0cf6 488D8550 		leaq	-432(%rbp), %rax
 1897      FEFFFF
 1898 0cfd 4889D6   		movq	%rdx, %rsi
 1899 0d00 4889C7   		movq	%rax, %rdi
 1900              	.LEHB55:
 1901 0d03 E832FFFF 		call	_ZN12_GLOBAL__N_152XmlTestReporterFixtureEmptyReportSummaryFormatHelperC2ERKN8UnitTest11TestD
 1901      FF
 1902              	.LEHE55:
 1903              		.loc 3 68 0 is_stmt 0 discriminator 1
 1904 0d08 C6851FFE 		movb	$1, -481(%rbp)
 1904      FFFF01
 1905 0d0f 488B8508 		movq	-504(%rbp), %rax
 1905      FEFFFF
 1906 0d16 488D5008 		leaq	8(%rax), %rdx
 1907 0d1a 488D8550 		leaq	-432(%rbp), %rax
 1907      FEFFFF
 1908 0d21 4889D6   		movq	%rdx, %rsi
 1909 0d24 4889C7   		movq	%rax, %rdi
 1910              	.LEHB56:
 1911 0d27 E8EB2300 		call	_ZN8UnitTest11ExecuteTestIN12_GLOBAL__N_152XmlTestReporterFixtureEmptyReportSummaryFormatHelp
 1911      00
 1912              	.LEHE56:
 1913              		.loc 3 68 0 discriminator 3
 1914 0d2c 488D8550 		leaq	-432(%rbp), %rax
 1914      FEFFFF
 1915 0d33 4889C7   		movq	%rax, %rdi
 1916              	.LEHB57:
 1917 0d36 E86BFFFF 		call	_ZN12_GLOBAL__N_152XmlTestReporterFixtureEmptyReportSummaryFormatHelperD2Ev
 1917      FF
 1918              	.LEHE57:
 1919              	.LBE44:
 1920              	.LBE43:
 1921              		.loc 3 68 0
 1922 0d3b E9640200 		jmp	.L121
 1922      00
 1923              	.L115:
 1924 0d40 4989C4   		movq	%rax, %r12
 1925 0d43 4889D3   		movq	%rdx, %rbx
 1926              	.LBB52:
 1927              	.LBB45:
 1928 0d46 488D8550 		leaq	-432(%rbp), %rax
 1928      FEFFFF
 1929 0d4d 4889C7   		movq	%rax, %rdi
 1930 0d50 E851FFFF 		call	_ZN12_GLOBAL__N_152XmlTestReporterFixtureEmptyReportSummaryFormatHelperD2Ev
 1930      FF
 1931 0d55 4C89E0   		movq	%r12, %rax
 1932 0d58 4889DA   		movq	%rbx, %rdx
 1933 0d5b EB00     		jmp	.L102
 1934              	.L114:
 1935              	.L102:
 1936 0d5d 4883FA01 		cmpq	$1, %rdx
 1937 0d61 745C     		je	.L104
 1938 0d63 4883FA02 		cmpq	$2, %rdx
 1939 0d67 0F84F400 		je	.L105
 1939      0000
 1940 0d6d E9980100 		jmp	.L120
 1940      00
 1941              	.L116:
 1942 0d72 4889C3   		movq	%rax, %rbx
 1943              	.LBE45:
 1944              	.LBB46:
 1945 0d75 E8000000 		call	__cxa_end_catch
 1945      00
 1946 0d7a 4889D8   		movq	%rbx, %rax
 1947 0d7d 4889C7   		movq	%rax, %rdi
 1948              	.LEHB58:
 1949 0d80 E8000000 		call	_Unwind_Resume
 1949      00
 1950              	.LEHE58:
 1951              	.L117:
 1952 0d85 4889C3   		movq	%rax, %rbx
 1953              	.LBE46:
 1954              	.LBB47:
 1955              	.LBB48:
 1956 0d88 488D8550 		leaq	-432(%rbp), %rax
 1956      FEFFFF
 1957 0d8f 4889C7   		movq	%rax, %rdi
 1958 0d92 E8000000 		call	_ZN8UnitTest15MemoryOutStreamD1Ev
 1958      00
 1959 0d97 EB03     		jmp	.L108
 1960              	.L118:
 1961 0d99 4889C3   		movq	%rax, %rbx
 1962              	.L108:
 1963              	.LBE48:
 1964 0d9c E8000000 		call	__cxa_end_catch
 1964      00
 1965 0da1 4889D8   		movq	%rbx, %rax
 1966 0da4 4889C7   		movq	%rax, %rdi
 1967              	.LEHB59:
 1968 0da7 E8000000 		call	_Unwind_Resume
 1968      00
 1969              	.LEHE59:
 1970              	.L119:
 1971 0dac 4889C3   		movq	%rax, %rbx
 1972              	.LBE47:
 1973 0daf E8000000 		call	__cxa_end_catch
 1973      00
 1974 0db4 4889D8   		movq	%rbx, %rax
 1975 0db7 4889C7   		movq	%rax, %rdi
 1976              	.LEHB60:
 1977 0dba E8000000 		call	_Unwind_Resume
 1977      00
 1978              	.LEHE60:
 1979              	.L104:
 1980              	.LBB50:
 1981 0dbf 4889C7   		movq	%rax, %rdi
 1982 0dc2 E8000000 		call	__cxa_begin_catch
 1982      00
 1983 0dc7 48898520 		movq	%rax, -480(%rbp)
 1983      FEFFFF
 1984 0dce 488B8520 		movq	-480(%rbp), %rax
 1984      FEFFFF
 1985 0dd5 488B00   		movq	(%rax), %rax
 1986 0dd8 4883C010 		addq	$16, %rax
 1987 0ddc 488B00   		movq	(%rax), %rax
 1988 0ddf 488B9520 		movq	-480(%rbp), %rdx
 1988      FEFFFF
 1989 0de6 4889D7   		movq	%rdx, %rdi
 1990 0de9 FFD0     		call	*%rax
 1991 0deb 4889C3   		movq	%rax, %rbx
 1992 0dee 488B8520 		movq	-480(%rbp), %rax
 1992      FEFFFF
 1993 0df5 4889C7   		movq	%rax, %rdi
 1994              	.LEHB61:
 1995 0df8 E8000000 		call	_ZNK8UnitTest15AssertException10LineNumberEv
 1995      00
 1996 0dfd 4189C4   		movl	%eax, %r12d
 1997 0e00 488B8520 		movq	-480(%rbp), %rax
 1997      FEFFFF
 1998 0e07 4889C7   		movq	%rax, %rdi
 1999 0e0a E8000000 		call	_ZNK8UnitTest15AssertException8FilenameEv
 1999      00
 2000              		.loc 3 68 0 discriminator 5
 2001 0e0f 4889C1   		movq	%rax, %rcx
 2002 0e12 488B8508 		movq	-504(%rbp), %rax
 2002      FEFFFF
 2003 0e19 488B5008 		movq	8(%rax), %rdx
 2004 0e1d 488B8508 		movq	-504(%rbp), %rax
 2004      FEFFFF
 2005 0e24 488B7010 		movq	16(%rax), %rsi
 2006 0e28 488D8530 		leaq	-464(%rbp), %rax
 2006      FEFFFF
 2007 0e2f 4589E0   		movl	%r12d, %r8d
 2008 0e32 4889C7   		movq	%rax, %rdi
 2009 0e35 E8000000 		call	_ZN8UnitTest11TestDetailsC1EPKcS2_S2_i
 2009      00
 2010              		.loc 3 68 0 discriminator 9
 2011 0e3a E8000000 		call	_ZN8UnitTest11CurrentTest7ResultsEv
 2011      00
 2012 0e3f 488B00   		movq	(%rax), %rax
 2013 0e42 488D8D30 		leaq	-464(%rbp), %rcx
 2013      FEFFFF
 2014 0e49 4889DA   		movq	%rbx, %rdx
 2015 0e4c 4889CE   		movq	%rcx, %rsi
 2016 0e4f 4889C7   		movq	%rax, %rdi
 2017 0e52 E8000000 		call	_ZN8UnitTest11TestResults13OnTestFailureERKNS_11TestDetailsEPKc
 2017      00
 2018              	.LEHE61:
 2019              		.loc 3 68 0 discriminator 13
 2020 0e57 E8000000 		call	__cxa_end_catch
 2020      00
 2021              	.LBE50:
 2022              	.LBE52:
 2023 0e5c E9430100 		jmp	.L121
 2023      00
 2024              	.L105:
 2025              	.LBB53:
 2026              	.LBB51:
 2027              		.loc 3 68 0
 2028 0e61 4889C7   		movq	%rax, %rdi
 2029 0e64 E8000000 		call	__cxa_begin_catch
 2029      00
 2030 0e69 48898528 		movq	%rax, -472(%rbp)
 2030      FEFFFF
 2031              	.LBB49:
 2032 0e70 488D8550 		leaq	-432(%rbp), %rax
 2032      FEFFFF
 2033 0e77 4889C7   		movq	%rax, %rdi
 2034              	.LEHB62:
 2035 0e7a E8000000 		call	_ZN8UnitTest15MemoryOutStreamC1Ev
 2035      00
 2036              	.LEHE62:
 2037              		.loc 3 68 0 discriminator 15
 2038 0e7f 488B8528 		movq	-472(%rbp), %rax
 2038      FEFFFF
 2039 0e86 488B00   		movq	(%rax), %rax
 2040 0e89 4883C010 		addq	$16, %rax
 2041 0e8d 488B00   		movq	(%rax), %rax
 2042 0e90 488B9528 		movq	-472(%rbp), %rdx
 2042      FEFFFF
 2043 0e97 4889D7   		movq	%rdx, %rdi
 2044 0e9a FFD0     		call	*%rax
 2045 0e9c 4889C3   		movq	%rax, %rbx
 2046 0e9f 488D8550 		leaq	-432(%rbp), %rax
 2046      FEFFFF
 2047 0ea6 BE000000 		movl	$.LC3, %esi
 2047      00
 2048 0eab 4889C7   		movq	%rax, %rdi
 2049              	.LEHB63:
 2050 0eae E8000000 		call	_ZStlsISt11char_traitsIcEERSt13basic_ostreamIcT_ES5_PKc
 2050      00
 2051 0eb3 4889DE   		movq	%rbx, %rsi
 2052 0eb6 4889C7   		movq	%rax, %rdi
 2053 0eb9 E8000000 		call	_ZStlsISt11char_traitsIcEERSt13basic_ostreamIcT_ES5_PKc
 2053      00
 2054              		.loc 3 68 0 discriminator 19
 2055 0ebe 488D8550 		leaq	-432(%rbp), %rax
 2055      FEFFFF
 2056 0ec5 4889C7   		movq	%rax, %rdi
 2057 0ec8 E8000000 		call	_ZNK8UnitTest15MemoryOutStream7GetTextEv
 2057      00
 2058 0ecd 4989C4   		movq	%rax, %r12
 2059 0ed0 488B8508 		movq	-504(%rbp), %rax
 2059      FEFFFF
 2060 0ed7 488D5808 		leaq	8(%rax), %rbx
 2061 0edb E8000000 		call	_ZN8UnitTest11CurrentTest7ResultsEv
 2061      00
 2062              		.loc 3 68 0 discriminator 21
 2063 0ee0 488B00   		movq	(%rax), %rax
 2064 0ee3 4C89E2   		movq	%r12, %rdx
 2065 0ee6 4889DE   		movq	%rbx, %rsi
 2066 0ee9 4889C7   		movq	%rax, %rdi
 2067 0eec E8000000 		call	_ZN8UnitTest11TestResults13OnTestFailureERKNS_11TestDetailsEPKc
 2067      00
 2068              	.LEHE63:
 2069              		.loc 3 68 0 discriminator 25
 2070 0ef1 488D8550 		leaq	-432(%rbp), %rax
 2070      FEFFFF
 2071 0ef8 4889C7   		movq	%rax, %rdi
 2072              	.LEHB64:
 2073 0efb E8000000 		call	_ZN8UnitTest15MemoryOutStreamD1Ev
 2073      00
 2074              	.LEHE64:
 2075              	.LBE49:
 2076              		.loc 3 68 0 discriminator 26
 2077 0f00 E8000000 		call	__cxa_end_catch
 2077      00
 2078              	.LBE51:
 2079              	.LBE53:
 2080 0f05 E99A0000 		jmp	.L121
 2080      00
 2081              	.L120:
 2082              	.LBB54:
 2083              		.loc 3 68 0
 2084 0f0a 4889C7   		movq	%rax, %rdi
 2085 0f0d E8000000 		call	__cxa_begin_catch
 2085      00
 2086 0f12 80BD1FFE 		cmpb	$0, -481(%rbp)
 2086      FFFF00
 2087 0f19 7443     		je	.L111
 2088              		.loc 3 68 0 discriminator 28
 2089 0f1b 488B8508 		movq	-504(%rbp), %rax
 2089      FEFFFF
 2090 0f22 488D4808 		leaq	8(%rax), %rcx
 2091 0f26 488D8530 		leaq	-464(%rbp), %rax
 2091      FEFFFF
 2092 0f2d BA440000 		movl	$68, %edx
 2092      00
 2093 0f32 4889CE   		movq	%rcx, %rsi
 2094 0f35 4889C7   		movq	%rax, %rdi
 2095              	.LEHB65:
 2096 0f38 E8000000 		call	_ZN8UnitTest11TestDetailsC1ERKS0_i
 2096      00
 2097              		.loc 3 68 0 discriminator 31
 2098 0f3d E8000000 		call	_ZN8UnitTest11CurrentTest7ResultsEv
 2098      00
 2099 0f42 488B00   		movq	(%rax), %rax
 2100 0f45 488D8D30 		leaq	-464(%rbp), %rcx
 2100      FEFFFF
 2101 0f4c BA000000 		movl	$.LC4, %edx
 2101      00
 2102 0f51 4889CE   		movq	%rcx, %rsi
 2103 0f54 4889C7   		movq	%rax, %rdi
 2104 0f57 E8000000 		call	_ZN8UnitTest11TestResults13OnTestFailureERKNS_11TestDetailsEPKc
 2104      00
 2105 0f5c EB41     		jmp	.L112
 2106              	.L111:
 2107              		.loc 3 68 0 discriminator 29
 2108 0f5e 488B8508 		movq	-504(%rbp), %rax
 2108      FEFFFF
 2109 0f65 488D4808 		leaq	8(%rax), %rcx
 2110 0f69 488D8530 		leaq	-464(%rbp), %rax
 2110      FEFFFF
 2111 0f70 BA440000 		movl	$68, %edx
 2111      00
 2112 0f75 4889CE   		movq	%rcx, %rsi
 2113 0f78 4889C7   		movq	%rax, %rdi
 2114 0f7b E8000000 		call	_ZN8UnitTest11TestDetailsC1ERKS0_i
 2114      00
 2115              		.loc 3 68 0 discriminator 38
 2116 0f80 E8000000 		call	_ZN8UnitTest11CurrentTest7ResultsEv
 2116      00
 2117 0f85 488B00   		movq	(%rax), %rax
 2118 0f88 488D8D30 		leaq	-464(%rbp), %rcx
 2118      FEFFFF
 2119 0f8f BA000000 		movl	$.LC5, %edx
 2119      00
 2120 0f94 4889CE   		movq	%rcx, %rsi
 2121 0f97 4889C7   		movq	%rax, %rdi
 2122 0f9a E8000000 		call	_ZN8UnitTest11TestResults13OnTestFailureERKNS_11TestDetailsEPKc
 2122      00
 2123              	.LEHE65:
 2124              	.L112:
 2125              	.LEHB66:
 2126              		.loc 3 68 0 discriminator 43
 2127 0f9f E8000000 		call	__cxa_end_catch
 2127      00
 2128              	.LEHE66:
 2129              	.L121:
 2130              	.LBE54:
 2131              		.loc 3 68 0
 2132 0fa4 90       		nop
 2133 0fa5 488B45E8 		movq	-24(%rbp), %rax
 2134 0fa9 64483304 		xorq	%fs:40, %rax
 2134      25280000 
 2134      00
 2135 0fb2 7405     		je	.L113
 2136 0fb4 E8000000 		call	__stack_chk_fail
 2136      00
 2137              	.L113:
 2138 0fb9 4881C4F0 		addq	$496, %rsp
 2138      010000
 2139 0fc0 5B       		popq	%rbx
 2140 0fc1 415C     		popq	%r12
 2141 0fc3 5D       		popq	%rbp
 2142              		.cfi_def_cfa 7, 8
 2143 0fc4 C3       		ret
 2144              		.cfi_endproc
 2145              	.LFE1367:
 2146              		.section	.gcc_except_table
 2147              		.align 4
 2148              	.LLSDA1367:
 2149 0168 FF       		.byte	0xff
 2150 0169 03       		.byte	0x3
 2151 016a 59       		.uleb128 .LLSDATT1367-.LLSDATTD1367
 2152              	.LLSDATTD1367:
 2153 016b 01       		.byte	0x1
 2154 016c 41       		.uleb128 .LLSDACSE1367-.LLSDACSB1367
 2155              	.LLSDACSB1367:
 2156 016d 43       		.uleb128 .LEHB55-.LFB1367
 2157 016e 05       		.uleb128 .LEHE55-.LEHB55
 2158 016f 9D01     		.uleb128 .L114-.LFB1367
 2159 0171 05       		.uleb128 0x5
 2160 0172 67       		.uleb128 .LEHB56-.LFB1367
 2161 0173 05       		.uleb128 .LEHE56-.LEHB56
 2162 0174 8001     		.uleb128 .L115-.LFB1367
 2163 0176 07       		.uleb128 0x7
 2164 0177 76       		.uleb128 .LEHB57-.LFB1367
 2165 0178 05       		.uleb128 .LEHE57-.LEHB57
 2166 0179 9D01     		.uleb128 .L114-.LFB1367
 2167 017b 05       		.uleb128 0x5
 2168 017c C001     		.uleb128 .LEHB58-.LFB1367
 2169 017e 05       		.uleb128 .LEHE58-.LEHB58
 2170 017f 00       		.uleb128 0
 2171 0180 00       		.uleb128 0
 2172 0181 E701     		.uleb128 .LEHB59-.LFB1367
 2173 0183 05       		.uleb128 .LEHE59-.LEHB59
 2174 0184 00       		.uleb128 0
 2175 0185 00       		.uleb128 0
 2176 0186 FA01     		.uleb128 .LEHB60-.LFB1367
 2177 0188 05       		.uleb128 .LEHE60-.LEHB60
 2178 0189 00       		.uleb128 0
 2179 018a 00       		.uleb128 0
 2180 018b B802     		.uleb128 .LEHB61-.LFB1367
 2181 018d 5F       		.uleb128 .LEHE61-.LEHB61
 2182 018e B201     		.uleb128 .L116-.LFB1367
 2183 0190 00       		.uleb128 0
 2184 0191 BA03     		.uleb128 .LEHB62-.LFB1367
 2185 0193 05       		.uleb128 .LEHE62-.LEHB62
 2186 0194 D901     		.uleb128 .L118-.LFB1367
 2187 0196 00       		.uleb128 0
 2188 0197 EE03     		.uleb128 .LEHB63-.LFB1367
 2189 0199 43       		.uleb128 .LEHE63-.LEHB63
 2190 019a C501     		.uleb128 .L117-.LFB1367
 2191 019c 00       		.uleb128 0
 2192 019d BB04     		.uleb128 .LEHB64-.LFB1367
 2193 019f 05       		.uleb128 .LEHE64-.LEHB64
 2194 01a0 D901     		.uleb128 .L118-.LFB1367
 2195 01a2 00       		.uleb128 0
 2196 01a3 F804     		.uleb128 .LEHB65-.LFB1367
 2197 01a5 67       		.uleb128 .LEHE65-.LEHB65
 2198 01a6 EC01     		.uleb128 .L119-.LFB1367
 2199 01a8 00       		.uleb128 0
 2200 01a9 DF05     		.uleb128 .LEHB66-.LFB1367
 2201 01ab 05       		.uleb128 .LEHE66-.LEHB66
 2202 01ac 00       		.uleb128 0
 2203 01ad 00       		.uleb128 0
 2204              	.LLSDACSE1367:
 2205 01ae 03       		.byte	0x3
 2206 01af 00       		.byte	0
 2207 01b0 02       		.byte	0x2
 2208 01b1 7D       		.byte	0x7d
 2209 01b2 01       		.byte	0x1
 2210 01b3 7D       		.byte	0x7d
 2211 01b4 00       		.byte	0
 2212 01b5 7D       		.byte	0x7d
 2213 01b6 0000     		.align 4
 2214 01b8 00000000 		.long	0
 2215              	
 2216 01bc 00000000 		.long	_ZTISt9exception
 2217 01c0 00000000 		.long	_ZTIN8UnitTest15AssertExceptionE
 2218              	.LLSDATT1367:
 2219              		.text
 2221              		.section	.rodata
 2222 0335 000000   		.align 8
 2223              	.LC22:
 2224 0338 3C3F786D 		.string	"<?xml version=\"1.0\"?><unittest-results tests=\"0\" failedtests=\"0\" failures=\"0\" tim
 2224      6C207665 
 2224      7273696F 
 2224      6E3D2231 
 2224      2E30223F 
 2225              		.text
 2226 0fc5 90       		.align 2
 2228              	_ZN12_GLOBAL__N_152XmlTestReporterFixtureEmptyReportSummaryFormatHelper7RunImplEv:
 2229              	.LFB1371:
  69:TestXmlTestReporter.cpp **** {
 2230              		.loc 3 69 0 is_stmt 1
 2231              		.cfi_startproc
 2232              		.cfi_personality 0x3,__gxx_personality_v0
 2233              		.cfi_lsda 0x3,.LLSDA1371
 2234 0fc6 55       		pushq	%rbp
 2235              		.cfi_def_cfa_offset 16
 2236              		.cfi_offset 6, -16
 2237 0fc7 4889E5   		movq	%rsp, %rbp
 2238              		.cfi_def_cfa_register 6
 2239 0fca 53       		pushq	%rbx
 2240 0fcb 4883EC58 		subq	$88, %rsp
 2241              		.cfi_offset 3, -24
 2242 0fcf 48897DA8 		movq	%rdi, -88(%rbp)
 2243              		.loc 3 69 0
 2244 0fd3 64488B04 		movq	%fs:40, %rax
 2244      25280000 
 2244      00
 2245 0fdc 488945E8 		movq	%rax, -24(%rbp)
 2246 0fe0 31C0     		xorl	%eax, %eax
 2247              	.LBB55:
  70:TestXmlTestReporter.cpp ****     reporter.ReportSummary(0, 0, 0, 0.1f);
 2248              		.loc 3 70 0
 2249 0fe2 488B45A8 		movq	-88(%rbp), %rax
 2250 0fe6 48056001 		addq	$352, %rax
 2250      0000
 2251 0fec F30F1005 		movss	.LC10(%rip), %xmm0
 2251      00000000 
 2252 0ff4 B9000000 		movl	$0, %ecx
 2252      00
 2253 0ff9 BA000000 		movl	$0, %edx
 2253      00
 2254 0ffe BE000000 		movl	$0, %esi
 2254      00
 2255 1003 4889C7   		movq	%rax, %rdi
 2256              	.LEHB67:
 2257 1006 E8000000 		call	_ZN8UnitTest15XmlTestReporter13ReportSummaryEiiif
 2257      00
 2258              	.LEHE67:
  71:TestXmlTestReporter.cpp **** 
  72:TestXmlTestReporter.cpp ****     const char *expected =
  73:TestXmlTestReporter.cpp **** "<?xml version=\"1.0\"?>"
  74:TestXmlTestReporter.cpp **** "<unittest-results tests=\"0\" failedtests=\"0\" failures=\"0\" time=\"0.1\">"
  75:TestXmlTestReporter.cpp **** "</unittest-results>";
 2259              		.loc 3 75 0
 2260 100b 48C745B8 		movq	$.LC22, -72(%rbp)
 2260      00000000 
 2261              	.LEHB68:
  76:TestXmlTestReporter.cpp **** 
  77:TestXmlTestReporter.cpp ****     CHECK_EQUAL(expected, output.str());
 2262              		.loc 3 77 0
 2263 1013 E8000000 		call	_ZN8UnitTest11CurrentTest7DetailsEv
 2263      00
 2264 1018 488B08   		movq	(%rax), %rcx
 2265 101b 488D45C0 		leaq	-64(%rbp), %rax
 2266 101f BA4D0000 		movl	$77, %edx
 2266      00
 2267 1024 4889CE   		movq	%rcx, %rsi
 2268 1027 4889C7   		movq	%rax, %rdi
 2269 102a E8000000 		call	_ZN8UnitTest11TestDetailsC1ERKS0_i
 2269      00
 2270              		.loc 3 77 0 is_stmt 0 discriminator 2
 2271 102f 488B55A8 		movq	-88(%rbp), %rdx
 2272 1033 488D45B0 		leaq	-80(%rbp), %rax
 2273 1037 4889D6   		movq	%rdx, %rsi
 2274 103a 4889C7   		movq	%rax, %rdi
 2275 103d E8000000 		call	_ZNKSt19basic_ostringstreamIcSt11char_traitsIcESaIcEE3strEv
 2275      00
 2276              	.LEHE68:
 2277              	.LEHB69:
 2278              		.loc 3 77 0 discriminator 4
 2279 1042 E8000000 		call	_ZN8UnitTest11CurrentTest7ResultsEv
 2279      00
 2280 1047 488B00   		movq	(%rax), %rax
 2281 104a 488D4DC0 		leaq	-64(%rbp), %rcx
 2282 104e 488D55B0 		leaq	-80(%rbp), %rdx
 2283 1052 488D75B8 		leaq	-72(%rbp), %rsi
 2284 1056 4889C7   		movq	%rax, %rdi
 2285 1059 E8000000 		call	_ZN8UnitTest10CheckEqualIPKcSsEEvRNS_11TestResultsERKT_RKT0_RKNS_11TestDetailsE
 2285      00
 2286              	.LEHE69:
 2287              		.loc 3 77 0 discriminator 8
 2288 105e 488D45B0 		leaq	-80(%rbp), %rax
 2289 1062 4889C7   		movq	%rax, %rdi
 2290              	.LEHB70:
 2291 1065 E8000000 		call	_ZNSsD1Ev
 2291      00
 2292              	.LEHE70:
 2293              	.LBE55:
  78:TestXmlTestReporter.cpp **** }
 2294              		.loc 3 78 0 is_stmt 1
 2295 106a EB6C     		jmp	.L131
 2296              	.L129:
 2297 106c 4889C3   		movq	%rax, %rbx
 2298              	.LBB56:
  77:TestXmlTestReporter.cpp **** }
 2299              		.loc 3 77 0
 2300 106f 488D45B0 		leaq	-80(%rbp), %rax
 2301 1073 4889C7   		movq	%rax, %rdi
 2302 1076 E8000000 		call	_ZNSsD1Ev
 2302      00
 2303 107b 4889D8   		movq	%rbx, %rax
 2304 107e EB13     		jmp	.L124
 2305              	.L130:
 2306 1080 4889C3   		movq	%rax, %rbx
 2307 1083 E8000000 		call	__cxa_end_catch
 2307      00
 2308 1088 4889D8   		movq	%rbx, %rax
 2309 108b 4889C7   		movq	%rax, %rdi
 2310              	.LEHB71:
 2311 108e E8000000 		call	_Unwind_Resume
 2311      00
 2312              	.LEHE71:
 2313              	.L128:
 2314              	.L124:
 2315 1093 4889C7   		movq	%rax, %rdi
 2316 1096 E8000000 		call	__cxa_begin_catch
 2316      00
 2317              	.LEHB72:
 2318 109b E8000000 		call	_ZN8UnitTest11CurrentTest7DetailsEv
 2318      00
 2319 10a0 488B08   		movq	(%rax), %rcx
 2320 10a3 488D45C0 		leaq	-64(%rbp), %rax
 2321 10a7 BA4D0000 		movl	$77, %edx
 2321      00
 2322 10ac 4889CE   		movq	%rcx, %rsi
 2323 10af 4889C7   		movq	%rax, %rdi
 2324 10b2 E8000000 		call	_ZN8UnitTest11TestDetailsC1ERKS0_i
 2324      00
  77:TestXmlTestReporter.cpp **** }
 2325              		.loc 3 77 0 is_stmt 0 discriminator 14
 2326 10b7 E8000000 		call	_ZN8UnitTest11CurrentTest7ResultsEv
 2326      00
 2327 10bc 488B00   		movq	(%rax), %rax
 2328 10bf 488D4DC0 		leaq	-64(%rbp), %rcx
 2329 10c3 BA000000 		movl	$.LC12, %edx
 2329      00
 2330 10c8 4889CE   		movq	%rcx, %rsi
 2331 10cb 4889C7   		movq	%rax, %rdi
 2332 10ce E8000000 		call	_ZN8UnitTest11TestResults13OnTestFailureERKNS_11TestDetailsEPKc
 2332      00
 2333              	.LEHE72:
 2334              	.LEHB73:
  77:TestXmlTestReporter.cpp **** }
 2335              		.loc 3 77 0 discriminator 18
 2336 10d3 E8000000 		call	__cxa_end_catch
 2336      00
 2337              	.LEHE73:
 2338              	.L131:
 2339              	.LBE56:
 2340              		.loc 3 78 0 is_stmt 1
 2341 10d8 90       		nop
 2342 10d9 488B45E8 		movq	-24(%rbp), %rax
 2343 10dd 64483304 		xorq	%fs:40, %rax
 2343      25280000 
 2343      00
 2344 10e6 7405     		je	.L127
 2345 10e8 E8000000 		call	__stack_chk_fail
 2345      00
 2346              	.L127:
 2347 10ed 4883C458 		addq	$88, %rsp
 2348 10f1 5B       		popq	%rbx
 2349 10f2 5D       		popq	%rbp
 2350              		.cfi_def_cfa 7, 8
 2351 10f3 C3       		ret
 2352              		.cfi_endproc
 2353              	.LFE1371:
 2354              		.section	.gcc_except_table
 2355              		.align 4
 2356              	.LLSDA1371:
 2357 01c4 FF       		.byte	0xff
 2358 01c5 03       		.byte	0x3
 2359 01c6 31       		.uleb128 .LLSDATT1371-.LLSDATTD1371
 2360              	.LLSDATTD1371:
 2361 01c7 01       		.byte	0x1
 2362 01c8 24       		.uleb128 .LLSDACSE1371-.LLSDACSB1371
 2363              	.LLSDACSB1371:
 2364 01c9 40       		.uleb128 .LEHB67-.LFB1371
 2365 01ca 05       		.uleb128 .LEHE67-.LEHB67
 2366 01cb 00       		.uleb128 0
 2367 01cc 00       		.uleb128 0
 2368 01cd 4D       		.uleb128 .LEHB68-.LFB1371
 2369 01ce 2F       		.uleb128 .LEHE68-.LEHB68
 2370 01cf CD01     		.uleb128 .L128-.LFB1371
 2371 01d1 01       		.uleb128 0x1
 2372 01d2 7C       		.uleb128 .LEHB69-.LFB1371
 2373 01d3 1C       		.uleb128 .LEHE69-.LEHB69
 2374 01d4 A601     		.uleb128 .L129-.LFB1371
 2375 01d6 03       		.uleb128 0x3
 2376 01d7 9F01     		.uleb128 .LEHB70-.LFB1371
 2377 01d9 05       		.uleb128 .LEHE70-.LEHB70
 2378 01da CD01     		.uleb128 .L128-.LFB1371
 2379 01dc 01       		.uleb128 0x1
 2380 01dd C801     		.uleb128 .LEHB71-.LFB1371
 2381 01df 05       		.uleb128 .LEHE71-.LEHB71
 2382 01e0 00       		.uleb128 0
 2383 01e1 00       		.uleb128 0
 2384 01e2 D501     		.uleb128 .LEHB72-.LFB1371
 2385 01e4 38       		.uleb128 .LEHE72-.LEHB72
 2386 01e5 BA01     		.uleb128 .L130-.LFB1371
 2387 01e7 00       		.uleb128 0
 2388 01e8 8D02     		.uleb128 .LEHB73-.LFB1371
 2389 01ea 05       		.uleb128 .LEHE73-.LEHB73
 2390 01eb 00       		.uleb128 0
 2391 01ec 00       		.uleb128 0
 2392              	.LLSDACSE1371:
 2393 01ed 01       		.byte	0x1
 2394 01ee 00       		.byte	0
 2395 01ef 00       		.byte	0
 2396 01f0 7D       		.byte	0x7d
 2397 01f1 000000   		.align 4
 2398 01f4 00000000 		.long	0
 2399              	
 2400              	.LLSDATT1371:
 2401              		.text
 2403              		.align 2
 2405              	_ZN12_GLOBAL__N_167XmlTestReporterFixtureSingleSuccessfulTestReportSummaryFormatHelperC2ERKN8UnitTe
 2406              	.LFB1373:
  79:TestXmlTestReporter.cpp **** 
  80:TestXmlTestReporter.cpp **** TEST_FIXTURE(XmlTestReporterFixture, SingleSuccessfulTestReportSummaryFormat)
 2407              		.loc 3 80 0
 2408              		.cfi_startproc
 2409 10f4 55       		pushq	%rbp
 2410              		.cfi_def_cfa_offset 16
 2411              		.cfi_offset 6, -16
 2412 10f5 4889E5   		movq	%rsp, %rbp
 2413              		.cfi_def_cfa_register 6
 2414 10f8 4883EC10 		subq	$16, %rsp
 2415 10fc 48897DF8 		movq	%rdi, -8(%rbp)
 2416 1100 488975F0 		movq	%rsi, -16(%rbp)
 2417              	.LBB57:
 2418              		.loc 3 80 0
 2419 1104 488B45F8 		movq	-8(%rbp), %rax
 2420 1108 4889C7   		movq	%rax, %rdi
 2421 110b E8F0EEFF 		call	_ZN12_GLOBAL__N_122XmlTestReporterFixtureC2Ev
 2421      FF
 2422 1110 488B45F8 		movq	-8(%rbp), %rax
 2423 1114 488B55F0 		movq	-16(%rbp), %rdx
 2424 1118 48899088 		movq	%rdx, 392(%rax)
 2424      010000
 2425              	.LBE57:
 2426 111f C9       		leave
 2427              		.cfi_def_cfa 7, 8
 2428 1120 C3       		ret
 2429              		.cfi_endproc
 2430              	.LFE1373:
 2432              		.section	.rodata
 2433 03a5 000000   		.align 8
 2434              	.LC23:
 2435 03a8 53696E67 		.string	"SingleSuccessfulTestReportSummaryFormat"
 2435      6C655375 
 2435      63636573 
 2435      7366756C 
 2435      54657374 
 2436              		.text
 2437 1121 90       		.align 2
 2439              	_ZN12_GLOBAL__N_165TestXmlTestReporterFixtureSingleSuccessfulTestReportSummaryFormatC2Ev:
 2440              	.LFB1376:
 2441              		.loc 3 80 0
 2442              		.cfi_startproc
 2443 1122 55       		pushq	%rbp
 2444              		.cfi_def_cfa_offset 16
 2445              		.cfi_offset 6, -16
 2446 1123 4889E5   		movq	%rsp, %rbp
 2447              		.cfi_def_cfa_register 6
 2448 1126 4883EC10 		subq	$16, %rsp
 2449 112a 48897DF8 		movq	%rdi, -8(%rbp)
 2450              	.LBB58:
 2451              		.loc 3 80 0
 2452 112e E8000000 		call	_ZN13UnitTestSuite12GetSuiteNameEv
 2452      00
 2453 1133 4889C2   		movq	%rax, %rdx
 2454 1136 488B45F8 		movq	-8(%rbp), %rax
 2455 113a 41B85000 		movl	$80, %r8d
 2455      0000
 2456 1140 B9000000 		movl	$.LC1, %ecx
 2456      00
 2457 1145 BE000000 		movl	$.LC23, %esi
 2457      00
 2458 114a 4889C7   		movq	%rax, %rdi
 2459 114d E8000000 		call	_ZN8UnitTest4TestC2EPKcS2_S2_i
 2459      00
 2460 1152 488B45F8 		movq	-8(%rbp), %rax
 2461 1156 48C70000 		movq	$_ZTVN12_GLOBAL__N_165TestXmlTestReporterFixtureSingleSuccessfulTestReportSummaryFormatE+16, 
 2461      000000
 2462              	.LBE58:
 2463 115d C9       		leave
 2464              		.cfi_def_cfa 7, 8
 2465 115e C3       		ret
 2466              		.cfi_endproc
 2467              	.LFE1376:
 2469              		.local	_ZN12_GLOBAL__N_173testXmlTestReporterFixtureSingleSuccessfulTestReportSummaryFormatInstanc
 2470              		.comm	_ZN12_GLOBAL__N_173testXmlTestReporterFixtureSingleSuccessfulTestReportSummaryFormatInstance
 2471              		.local	_ZN12_GLOBAL__N_166adderXmlTestReporterFixtureSingleSuccessfulTestReportSummaryFormatE
 2472              		.comm	_ZN12_GLOBAL__N_166adderXmlTestReporterFixtureSingleSuccessfulTestReportSummaryFormatE,1,1
 2473 115f 90       		.align 2
 2475              	_ZN12_GLOBAL__N_167XmlTestReporterFixtureSingleSuccessfulTestReportSummaryFormatHelperD2Ev:
 2476              	.LFB1380:
 2477              		.loc 3 80 0
 2478              		.cfi_startproc
 2479 1160 55       		pushq	%rbp
 2480              		.cfi_def_cfa_offset 16
 2481              		.cfi_offset 6, -16
 2482 1161 4889E5   		movq	%rsp, %rbp
 2483              		.cfi_def_cfa_register 6
 2484 1164 4883EC10 		subq	$16, %rsp
 2485 1168 48897DF8 		movq	%rdi, -8(%rbp)
 2486              	.LBB59:
 2487              		.loc 3 80 0
 2488 116c 488B45F8 		movq	-8(%rbp), %rax
 2489 1170 4889C7   		movq	%rax, %rdi
 2490 1173 E8E4EEFF 		call	_ZN12_GLOBAL__N_122XmlTestReporterFixtureD2Ev
 2490      FF
 2491              	.LBE59:
 2492 1178 C9       		leave
 2493              		.cfi_def_cfa 7, 8
 2494 1179 C3       		ret
 2495              		.cfi_endproc
 2496              	.LFE1380:
 2498              		.align 2
 2500              	_ZNK12_GLOBAL__N_165TestXmlTestReporterFixtureSingleSuccessfulTestReportSummaryFormat7RunImplEv:
 2501              	.LFB1378:
 2502              		.loc 3 80 0
 2503              		.cfi_startproc
 2504              		.cfi_personality 0x3,__gxx_personality_v0
 2505              		.cfi_lsda 0x3,.LLSDA1378
 2506 117a 55       		pushq	%rbp
 2507              		.cfi_def_cfa_offset 16
 2508              		.cfi_offset 6, -16
 2509 117b 4889E5   		movq	%rsp, %rbp
 2510              		.cfi_def_cfa_register 6
 2511 117e 4154     		pushq	%r12
 2512 1180 53       		pushq	%rbx
 2513 1181 4881ECF0 		subq	$496, %rsp
 2513      010000
 2514              		.cfi_offset 12, -24
 2515              		.cfi_offset 3, -32
 2516 1188 4889BD08 		movq	%rdi, -504(%rbp)
 2516      FEFFFF
 2517              		.loc 3 80 0
 2518 118f 64488B04 		movq	%fs:40, %rax
 2518      25280000 
 2518      00
 2519 1198 488945E8 		movq	%rax, -24(%rbp)
 2520 119c 31C0     		xorl	%eax, %eax
 2521              	.LBB60:
 2522 119e C6851FFE 		movb	$0, -481(%rbp)
 2522      FFFF00
 2523              	.LBB61:
 2524 11a5 488B8508 		movq	-504(%rbp), %rax
 2524      FEFFFF
 2525 11ac 488D5008 		leaq	8(%rax), %rdx
 2526 11b0 488D8550 		leaq	-432(%rbp), %rax
 2526      FEFFFF
 2527 11b7 4889D6   		movq	%rdx, %rsi
 2528 11ba 4889C7   		movq	%rax, %rdi
 2529              	.LEHB74:
 2530 11bd E832FFFF 		call	_ZN12_GLOBAL__N_167XmlTestReporterFixtureSingleSuccessfulTestReportSummaryFormatHelperC2ERKN8
 2530      FF
 2531              	.LEHE74:
 2532              		.loc 3 80 0 is_stmt 0 discriminator 1
 2533 11c2 C6851FFE 		movb	$1, -481(%rbp)
 2533      FFFF01
 2534 11c9 488B8508 		movq	-504(%rbp), %rax
 2534      FEFFFF
 2535 11d0 488D5008 		leaq	8(%rax), %rdx
 2536 11d4 488D8550 		leaq	-432(%rbp), %rax
 2536      FEFFFF
 2537 11db 4889D6   		movq	%rdx, %rsi
 2538 11de 4889C7   		movq	%rax, %rdi
 2539              	.LEHB75:
 2540 11e1 E8EF2100 		call	_ZN8UnitTest11ExecuteTestIN12_GLOBAL__N_167XmlTestReporterFixtureSingleSuccessfulTestReportSu
 2540      00
 2541              	.LEHE75:
 2542              		.loc 3 80 0 discriminator 3
 2543 11e6 488D8550 		leaq	-432(%rbp), %rax
 2543      FEFFFF
 2544 11ed 4889C7   		movq	%rax, %rdi
 2545              	.LEHB76:
 2546 11f0 E86BFFFF 		call	_ZN12_GLOBAL__N_167XmlTestReporterFixtureSingleSuccessfulTestReportSummaryFormatHelperD2Ev
 2546      FF
 2547              	.LEHE76:
 2548              	.LBE61:
 2549              	.LBE60:
 2550              		.loc 3 80 0
 2551 11f5 E9640200 		jmp	.L157
 2551      00
 2552              	.L151:
 2553 11fa 4989C4   		movq	%rax, %r12
 2554 11fd 4889D3   		movq	%rdx, %rbx
 2555              	.LBB69:
 2556              	.LBB62:
 2557 1200 488D8550 		leaq	-432(%rbp), %rax
 2557      FEFFFF
 2558 1207 4889C7   		movq	%rax, %rdi
 2559 120a E851FFFF 		call	_ZN12_GLOBAL__N_167XmlTestReporterFixtureSingleSuccessfulTestReportSummaryFormatHelperD2Ev
 2559      FF
 2560 120f 4C89E0   		movq	%r12, %rax
 2561 1212 4889DA   		movq	%rbx, %rdx
 2562 1215 EB00     		jmp	.L138
 2563              	.L150:
 2564              	.L138:
 2565 1217 4883FA01 		cmpq	$1, %rdx
 2566 121b 745C     		je	.L140
 2567 121d 4883FA02 		cmpq	$2, %rdx
 2568 1221 0F84F400 		je	.L141
 2568      0000
 2569 1227 E9980100 		jmp	.L156
 2569      00
 2570              	.L152:
 2571 122c 4889C3   		movq	%rax, %rbx
 2572              	.LBE62:
 2573              	.LBB63:
 2574 122f E8000000 		call	__cxa_end_catch
 2574      00
 2575 1234 4889D8   		movq	%rbx, %rax
 2576 1237 4889C7   		movq	%rax, %rdi
 2577              	.LEHB77:
 2578 123a E8000000 		call	_Unwind_Resume
 2578      00
 2579              	.LEHE77:
 2580              	.L153:
 2581 123f 4889C3   		movq	%rax, %rbx
 2582              	.LBE63:
 2583              	.LBB64:
 2584              	.LBB65:
 2585 1242 488D8550 		leaq	-432(%rbp), %rax
 2585      FEFFFF
 2586 1249 4889C7   		movq	%rax, %rdi
 2587 124c E8000000 		call	_ZN8UnitTest15MemoryOutStreamD1Ev
 2587      00
 2588 1251 EB03     		jmp	.L144
 2589              	.L154:
 2590 1253 4889C3   		movq	%rax, %rbx
 2591              	.L144:
 2592              	.LBE65:
 2593 1256 E8000000 		call	__cxa_end_catch
 2593      00
 2594 125b 4889D8   		movq	%rbx, %rax
 2595 125e 4889C7   		movq	%rax, %rdi
 2596              	.LEHB78:
 2597 1261 E8000000 		call	_Unwind_Resume
 2597      00
 2598              	.LEHE78:
 2599              	.L155:
 2600 1266 4889C3   		movq	%rax, %rbx
 2601              	.LBE64:
 2602 1269 E8000000 		call	__cxa_end_catch
 2602      00
 2603 126e 4889D8   		movq	%rbx, %rax
 2604 1271 4889C7   		movq	%rax, %rdi
 2605              	.LEHB79:
 2606 1274 E8000000 		call	_Unwind_Resume
 2606      00
 2607              	.LEHE79:
 2608              	.L140:
 2609              	.LBB67:
 2610 1279 4889C7   		movq	%rax, %rdi
 2611 127c E8000000 		call	__cxa_begin_catch
 2611      00
 2612 1281 48898520 		movq	%rax, -480(%rbp)
 2612      FEFFFF
 2613 1288 488B8520 		movq	-480(%rbp), %rax
 2613      FEFFFF
 2614 128f 488B00   		movq	(%rax), %rax
 2615 1292 4883C010 		addq	$16, %rax
 2616 1296 488B00   		movq	(%rax), %rax
 2617 1299 488B9520 		movq	-480(%rbp), %rdx
 2617      FEFFFF
 2618 12a0 4889D7   		movq	%rdx, %rdi
 2619 12a3 FFD0     		call	*%rax
 2620 12a5 4889C3   		movq	%rax, %rbx
 2621 12a8 488B8520 		movq	-480(%rbp), %rax
 2621      FEFFFF
 2622 12af 4889C7   		movq	%rax, %rdi
 2623              	.LEHB80:
 2624 12b2 E8000000 		call	_ZNK8UnitTest15AssertException10LineNumberEv
 2624      00
 2625 12b7 4189C4   		movl	%eax, %r12d
 2626 12ba 488B8520 		movq	-480(%rbp), %rax
 2626      FEFFFF
 2627 12c1 4889C7   		movq	%rax, %rdi
 2628 12c4 E8000000 		call	_ZNK8UnitTest15AssertException8FilenameEv
 2628      00
 2629              		.loc 3 80 0 discriminator 5
 2630 12c9 4889C1   		movq	%rax, %rcx
 2631 12cc 488B8508 		movq	-504(%rbp), %rax
 2631      FEFFFF
 2632 12d3 488B5008 		movq	8(%rax), %rdx
 2633 12d7 488B8508 		movq	-504(%rbp), %rax
 2633      FEFFFF
 2634 12de 488B7010 		movq	16(%rax), %rsi
 2635 12e2 488D8530 		leaq	-464(%rbp), %rax
 2635      FEFFFF
 2636 12e9 4589E0   		movl	%r12d, %r8d
 2637 12ec 4889C7   		movq	%rax, %rdi
 2638 12ef E8000000 		call	_ZN8UnitTest11TestDetailsC1EPKcS2_S2_i
 2638      00
 2639              		.loc 3 80 0 discriminator 9
 2640 12f4 E8000000 		call	_ZN8UnitTest11CurrentTest7ResultsEv
 2640      00
 2641 12f9 488B00   		movq	(%rax), %rax
 2642 12fc 488D8D30 		leaq	-464(%rbp), %rcx
 2642      FEFFFF
 2643 1303 4889DA   		movq	%rbx, %rdx
 2644 1306 4889CE   		movq	%rcx, %rsi
 2645 1309 4889C7   		movq	%rax, %rdi
 2646 130c E8000000 		call	_ZN8UnitTest11TestResults13OnTestFailureERKNS_11TestDetailsEPKc
 2646      00
 2647              	.LEHE80:
 2648              		.loc 3 80 0 discriminator 13
 2649 1311 E8000000 		call	__cxa_end_catch
 2649      00
 2650              	.LBE67:
 2651              	.LBE69:
 2652 1316 E9430100 		jmp	.L157
 2652      00
 2653              	.L141:
 2654              	.LBB70:
 2655              	.LBB68:
 2656              		.loc 3 80 0
 2657 131b 4889C7   		movq	%rax, %rdi
 2658 131e E8000000 		call	__cxa_begin_catch
 2658      00
 2659 1323 48898528 		movq	%rax, -472(%rbp)
 2659      FEFFFF
 2660              	.LBB66:
 2661 132a 488D8550 		leaq	-432(%rbp), %rax
 2661      FEFFFF
 2662 1331 4889C7   		movq	%rax, %rdi
 2663              	.LEHB81:
 2664 1334 E8000000 		call	_ZN8UnitTest15MemoryOutStreamC1Ev
 2664      00
 2665              	.LEHE81:
 2666              		.loc 3 80 0 discriminator 15
 2667 1339 488B8528 		movq	-472(%rbp), %rax
 2667      FEFFFF
 2668 1340 488B00   		movq	(%rax), %rax
 2669 1343 4883C010 		addq	$16, %rax
 2670 1347 488B00   		movq	(%rax), %rax
 2671 134a 488B9528 		movq	-472(%rbp), %rdx
 2671      FEFFFF
 2672 1351 4889D7   		movq	%rdx, %rdi
 2673 1354 FFD0     		call	*%rax
 2674 1356 4889C3   		movq	%rax, %rbx
 2675 1359 488D8550 		leaq	-432(%rbp), %rax
 2675      FEFFFF
 2676 1360 BE000000 		movl	$.LC3, %esi
 2676      00
 2677 1365 4889C7   		movq	%rax, %rdi
 2678              	.LEHB82:
 2679 1368 E8000000 		call	_ZStlsISt11char_traitsIcEERSt13basic_ostreamIcT_ES5_PKc
 2679      00
 2680 136d 4889DE   		movq	%rbx, %rsi
 2681 1370 4889C7   		movq	%rax, %rdi
 2682 1373 E8000000 		call	_ZStlsISt11char_traitsIcEERSt13basic_ostreamIcT_ES5_PKc
 2682      00
 2683              		.loc 3 80 0 discriminator 19
 2684 1378 488D8550 		leaq	-432(%rbp), %rax
 2684      FEFFFF
 2685 137f 4889C7   		movq	%rax, %rdi
 2686 1382 E8000000 		call	_ZNK8UnitTest15MemoryOutStream7GetTextEv
 2686      00
 2687 1387 4989C4   		movq	%rax, %r12
 2688 138a 488B8508 		movq	-504(%rbp), %rax
 2688      FEFFFF
 2689 1391 488D5808 		leaq	8(%rax), %rbx
 2690 1395 E8000000 		call	_ZN8UnitTest11CurrentTest7ResultsEv
 2690      00
 2691              		.loc 3 80 0 discriminator 21
 2692 139a 488B00   		movq	(%rax), %rax
 2693 139d 4C89E2   		movq	%r12, %rdx
 2694 13a0 4889DE   		movq	%rbx, %rsi
 2695 13a3 4889C7   		movq	%rax, %rdi
 2696 13a6 E8000000 		call	_ZN8UnitTest11TestResults13OnTestFailureERKNS_11TestDetailsEPKc
 2696      00
 2697              	.LEHE82:
 2698              		.loc 3 80 0 discriminator 25
 2699 13ab 488D8550 		leaq	-432(%rbp), %rax
 2699      FEFFFF
 2700 13b2 4889C7   		movq	%rax, %rdi
 2701              	.LEHB83:
 2702 13b5 E8000000 		call	_ZN8UnitTest15MemoryOutStreamD1Ev
 2702      00
 2703              	.LEHE83:
 2704              	.LBE66:
 2705              		.loc 3 80 0 discriminator 26
 2706 13ba E8000000 		call	__cxa_end_catch
 2706      00
 2707              	.LBE68:
 2708              	.LBE70:
 2709 13bf E99A0000 		jmp	.L157
 2709      00
 2710              	.L156:
 2711              	.LBB71:
 2712              		.loc 3 80 0
 2713 13c4 4889C7   		movq	%rax, %rdi
 2714 13c7 E8000000 		call	__cxa_begin_catch
 2714      00
 2715 13cc 80BD1FFE 		cmpb	$0, -481(%rbp)
 2715      FFFF00
 2716 13d3 7443     		je	.L147
 2717              		.loc 3 80 0 discriminator 28
 2718 13d5 488B8508 		movq	-504(%rbp), %rax
 2718      FEFFFF
 2719 13dc 488D4808 		leaq	8(%rax), %rcx
 2720 13e0 488D8530 		leaq	-464(%rbp), %rax
 2720      FEFFFF
 2721 13e7 BA500000 		movl	$80, %edx
 2721      00
 2722 13ec 4889CE   		movq	%rcx, %rsi
 2723 13ef 4889C7   		movq	%rax, %rdi
 2724              	.LEHB84:
 2725 13f2 E8000000 		call	_ZN8UnitTest11TestDetailsC1ERKS0_i
 2725      00
 2726              		.loc 3 80 0 discriminator 31
 2727 13f7 E8000000 		call	_ZN8UnitTest11CurrentTest7ResultsEv
 2727      00
 2728 13fc 488B00   		movq	(%rax), %rax
 2729 13ff 488D8D30 		leaq	-464(%rbp), %rcx
 2729      FEFFFF
 2730 1406 BA000000 		movl	$.LC4, %edx
 2730      00
 2731 140b 4889CE   		movq	%rcx, %rsi
 2732 140e 4889C7   		movq	%rax, %rdi
 2733 1411 E8000000 		call	_ZN8UnitTest11TestResults13OnTestFailureERKNS_11TestDetailsEPKc
 2733      00
 2734 1416 EB41     		jmp	.L148
 2735              	.L147:
 2736              		.loc 3 80 0 discriminator 29
 2737 1418 488B8508 		movq	-504(%rbp), %rax
 2737      FEFFFF
 2738 141f 488D4808 		leaq	8(%rax), %rcx
 2739 1423 488D8530 		leaq	-464(%rbp), %rax
 2739      FEFFFF
 2740 142a BA500000 		movl	$80, %edx
 2740      00
 2741 142f 4889CE   		movq	%rcx, %rsi
 2742 1432 4889C7   		movq	%rax, %rdi
 2743 1435 E8000000 		call	_ZN8UnitTest11TestDetailsC1ERKS0_i
 2743      00
 2744              		.loc 3 80 0 discriminator 38
 2745 143a E8000000 		call	_ZN8UnitTest11CurrentTest7ResultsEv
 2745      00
 2746 143f 488B00   		movq	(%rax), %rax
 2747 1442 488D8D30 		leaq	-464(%rbp), %rcx
 2747      FEFFFF
 2748 1449 BA000000 		movl	$.LC5, %edx
 2748      00
 2749 144e 4889CE   		movq	%rcx, %rsi
 2750 1451 4889C7   		movq	%rax, %rdi
 2751 1454 E8000000 		call	_ZN8UnitTest11TestResults13OnTestFailureERKNS_11TestDetailsEPKc
 2751      00
 2752              	.LEHE84:
 2753              	.L148:
 2754              	.LEHB85:
 2755              		.loc 3 80 0 discriminator 43
 2756 1459 E8000000 		call	__cxa_end_catch
 2756      00
 2757              	.LEHE85:
 2758              	.L157:
 2759              	.LBE71:
 2760              		.loc 3 80 0
 2761 145e 90       		nop
 2762 145f 488B45E8 		movq	-24(%rbp), %rax
 2763 1463 64483304 		xorq	%fs:40, %rax
 2763      25280000 
 2763      00
 2764 146c 7405     		je	.L149
 2765 146e E8000000 		call	__stack_chk_fail
 2765      00
 2766              	.L149:
 2767 1473 4881C4F0 		addq	$496, %rsp
 2767      010000
 2768 147a 5B       		popq	%rbx
 2769 147b 415C     		popq	%r12
 2770 147d 5D       		popq	%rbp
 2771              		.cfi_def_cfa 7, 8
 2772 147e C3       		ret
 2773              		.cfi_endproc
 2774              	.LFE1378:
 2775              		.section	.gcc_except_table
 2776              		.align 4
 2777              	.LLSDA1378:
 2778 01f8 FF       		.byte	0xff
 2779 01f9 03       		.byte	0x3
 2780 01fa 59       		.uleb128 .LLSDATT1378-.LLSDATTD1378
 2781              	.LLSDATTD1378:
 2782 01fb 01       		.byte	0x1
 2783 01fc 41       		.uleb128 .LLSDACSE1378-.LLSDACSB1378
 2784              	.LLSDACSB1378:
 2785 01fd 43       		.uleb128 .LEHB74-.LFB1378
 2786 01fe 05       		.uleb128 .LEHE74-.LEHB74
 2787 01ff 9D01     		.uleb128 .L150-.LFB1378
 2788 0201 05       		.uleb128 0x5
 2789 0202 67       		.uleb128 .LEHB75-.LFB1378
 2790 0203 05       		.uleb128 .LEHE75-.LEHB75
 2791 0204 8001     		.uleb128 .L151-.LFB1378
 2792 0206 07       		.uleb128 0x7
 2793 0207 76       		.uleb128 .LEHB76-.LFB1378
 2794 0208 05       		.uleb128 .LEHE76-.LEHB76
 2795 0209 9D01     		.uleb128 .L150-.LFB1378
 2796 020b 05       		.uleb128 0x5
 2797 020c C001     		.uleb128 .LEHB77-.LFB1378
 2798 020e 05       		.uleb128 .LEHE77-.LEHB77
 2799 020f 00       		.uleb128 0
 2800 0210 00       		.uleb128 0
 2801 0211 E701     		.uleb128 .LEHB78-.LFB1378
 2802 0213 05       		.uleb128 .LEHE78-.LEHB78
 2803 0214 00       		.uleb128 0
 2804 0215 00       		.uleb128 0
 2805 0216 FA01     		.uleb128 .LEHB79-.LFB1378
 2806 0218 05       		.uleb128 .LEHE79-.LEHB79
 2807 0219 00       		.uleb128 0
 2808 021a 00       		.uleb128 0
 2809 021b B802     		.uleb128 .LEHB80-.LFB1378
 2810 021d 5F       		.uleb128 .LEHE80-.LEHB80
 2811 021e B201     		.uleb128 .L152-.LFB1378
 2812 0220 00       		.uleb128 0
 2813 0221 BA03     		.uleb128 .LEHB81-.LFB1378
 2814 0223 05       		.uleb128 .LEHE81-.LEHB81
 2815 0224 D901     		.uleb128 .L154-.LFB1378
 2816 0226 00       		.uleb128 0
 2817 0227 EE03     		.uleb128 .LEHB82-.LFB1378
 2818 0229 43       		.uleb128 .LEHE82-.LEHB82
 2819 022a C501     		.uleb128 .L153-.LFB1378
 2820 022c 00       		.uleb128 0
 2821 022d BB04     		.uleb128 .LEHB83-.LFB1378
 2822 022f 05       		.uleb128 .LEHE83-.LEHB83
 2823 0230 D901     		.uleb128 .L154-.LFB1378
 2824 0232 00       		.uleb128 0
 2825 0233 F804     		.uleb128 .LEHB84-.LFB1378
 2826 0235 67       		.uleb128 .LEHE84-.LEHB84
 2827 0236 EC01     		.uleb128 .L155-.LFB1378
 2828 0238 00       		.uleb128 0
 2829 0239 DF05     		.uleb128 .LEHB85-.LFB1378
 2830 023b 05       		.uleb128 .LEHE85-.LEHB85
 2831 023c 00       		.uleb128 0
 2832 023d 00       		.uleb128 0
 2833              	.LLSDACSE1378:
 2834 023e 03       		.byte	0x3
 2835 023f 00       		.byte	0
 2836 0240 02       		.byte	0x2
 2837 0241 7D       		.byte	0x7d
 2838 0242 01       		.byte	0x1
 2839 0243 7D       		.byte	0x7d
 2840 0244 00       		.byte	0
 2841 0245 7D       		.byte	0x7d
 2842 0246 0000     		.align 4
 2843 0248 00000000 		.long	0
 2844              	
 2845 024c 00000000 		.long	_ZTISt9exception
 2846 0250 00000000 		.long	_ZTIN8UnitTest15AssertExceptionE
 2847              	.LLSDATT1378:
 2848              		.text
 2850              		.section	.rodata
 2851              		.align 8
 2852              	.LC24:
 2853 03d0 3C3F786D 		.string	"<?xml version=\"1.0\"?><unittest-results tests=\"1\" failedtests=\"0\" failures=\"0\" tim
 2853      6C207665 
 2853      7273696F 
 2853      6E3D2231 
 2853      2E30223F 
 2854              		.text
 2855 147f 90       		.align 2
 2857              	_ZN12_GLOBAL__N_167XmlTestReporterFixtureSingleSuccessfulTestReportSummaryFormatHelper7RunImplEv:
 2858              	.LFB1382:
  81:TestXmlTestReporter.cpp **** {
 2859              		.loc 3 81 0 is_stmt 1
 2860              		.cfi_startproc
 2861              		.cfi_personality 0x3,__gxx_personality_v0
 2862              		.cfi_lsda 0x3,.LLSDA1382
 2863 1480 55       		pushq	%rbp
 2864              		.cfi_def_cfa_offset 16
 2865              		.cfi_offset 6, -16
 2866 1481 4889E5   		movq	%rsp, %rbp
 2867              		.cfi_def_cfa_register 6
 2868 1484 53       		pushq	%rbx
 2869 1485 4883EC78 		subq	$120, %rsp
 2870              		.cfi_offset 3, -24
 2871 1489 48897D88 		movq	%rdi, -120(%rbp)
 2872              		.loc 3 81 0
 2873 148d 64488B04 		movq	%fs:40, %rax
 2873      25280000 
 2873      00
 2874 1496 488945E8 		movq	%rax, -24(%rbp)
 2875 149a 31C0     		xorl	%eax, %eax
 2876              	.LBB72:
  82:TestXmlTestReporter.cpp ****     TestDetails const details("TestName", "DefaultSuite", "", 0);
 2877              		.loc 3 82 0
 2878 149c 488D45A0 		leaq	-96(%rbp), %rax
 2879 14a0 41B80000 		movl	$0, %r8d
 2879      0000
 2880 14a6 B9000000 		movl	$.LC14, %ecx
 2880      00
 2881 14ab BA000000 		movl	$.LC0, %edx
 2881      00
 2882 14b0 BE000000 		movl	$.LC8, %esi
 2882      00
 2883 14b5 4889C7   		movq	%rax, %rdi
 2884              	.LEHB86:
 2885 14b8 E8000000 		call	_ZN8UnitTest11TestDetailsC1EPKcS2_S2_i
 2885      00
  83:TestXmlTestReporter.cpp **** 
  84:TestXmlTestReporter.cpp ****     reporter.ReportTestStart(details);
 2886              		.loc 3 84 0
 2887 14bd 488B4588 		movq	-120(%rbp), %rax
 2888 14c1 488D9060 		leaq	352(%rax), %rdx
 2888      010000
 2889 14c8 488D45A0 		leaq	-96(%rbp), %rax
 2890 14cc 4889C6   		movq	%rax, %rsi
 2891 14cf 4889D7   		movq	%rdx, %rdi
 2892 14d2 E8000000 		call	_ZN8UnitTest20DeferredTestReporter15ReportTestStartERKNS_11TestDetailsE
 2892      00
  85:TestXmlTestReporter.cpp ****     reporter.ReportSummary(1, 0, 0, 0.1f);
 2893              		.loc 3 85 0
 2894 14d7 488B4588 		movq	-120(%rbp), %rax
 2895 14db 48056001 		addq	$352, %rax
 2895      0000
 2896 14e1 F30F1005 		movss	.LC10(%rip), %xmm0
 2896      00000000 
 2897 14e9 B9000000 		movl	$0, %ecx
 2897      00
 2898 14ee BA000000 		movl	$0, %edx
 2898      00
 2899 14f3 BE010000 		movl	$1, %esi
 2899      00
 2900 14f8 4889C7   		movq	%rax, %rdi
 2901 14fb E8000000 		call	_ZN8UnitTest15XmlTestReporter13ReportSummaryEiiif
 2901      00
 2902              	.LEHE86:
  86:TestXmlTestReporter.cpp **** 
  87:TestXmlTestReporter.cpp ****     const char *expected =
  88:TestXmlTestReporter.cpp **** "<?xml version=\"1.0\"?>"
  89:TestXmlTestReporter.cpp **** "<unittest-results tests=\"1\" failedtests=\"0\" failures=\"0\" time=\"0.1\">"
  90:TestXmlTestReporter.cpp **** "<test suite=\"DefaultSuite\" name=\"TestName\" time=\"0\"/>"
  91:TestXmlTestReporter.cpp **** "</unittest-results>";
 2903              		.loc 3 91 0
 2904 1500 48C74598 		movq	$.LC24, -104(%rbp)
 2904      00000000 
 2905              	.LEHB87:
  92:TestXmlTestReporter.cpp **** 
  93:TestXmlTestReporter.cpp ****     CHECK_EQUAL(expected, output.str());
 2906              		.loc 3 93 0
 2907 1508 E8000000 		call	_ZN8UnitTest11CurrentTest7DetailsEv
 2907      00
 2908 150d 488B08   		movq	(%rax), %rcx
 2909 1510 488D45C0 		leaq	-64(%rbp), %rax
 2910 1514 BA5D0000 		movl	$93, %edx
 2910      00
 2911 1519 4889CE   		movq	%rcx, %rsi
 2912 151c 4889C7   		movq	%rax, %rdi
 2913 151f E8000000 		call	_ZN8UnitTest11TestDetailsC1ERKS0_i
 2913      00
 2914              		.loc 3 93 0 is_stmt 0 discriminator 2
 2915 1524 488B5588 		movq	-120(%rbp), %rdx
 2916 1528 488D4590 		leaq	-112(%rbp), %rax
 2917 152c 4889D6   		movq	%rdx, %rsi
 2918 152f 4889C7   		movq	%rax, %rdi
 2919 1532 E8000000 		call	_ZNKSt19basic_ostringstreamIcSt11char_traitsIcESaIcEE3strEv
 2919      00
 2920              	.LEHE87:
 2921              	.LEHB88:
 2922              		.loc 3 93 0 discriminator 4
 2923 1537 E8000000 		call	_ZN8UnitTest11CurrentTest7ResultsEv
 2923      00
 2924 153c 488B00   		movq	(%rax), %rax
 2925 153f 488D4DC0 		leaq	-64(%rbp), %rcx
 2926 1543 488D5590 		leaq	-112(%rbp), %rdx
 2927 1547 488D7598 		leaq	-104(%rbp), %rsi
 2928 154b 4889C7   		movq	%rax, %rdi
 2929 154e E8000000 		call	_ZN8UnitTest10CheckEqualIPKcSsEEvRNS_11TestResultsERKT_RKT0_RKNS_11TestDetailsE
 2929      00
 2930              	.LEHE88:
 2931              		.loc 3 93 0 discriminator 8
 2932 1553 488D4590 		leaq	-112(%rbp), %rax
 2933 1557 4889C7   		movq	%rax, %rdi
 2934              	.LEHB89:
 2935 155a E8000000 		call	_ZNSsD1Ev
 2935      00
 2936              	.LEHE89:
 2937              	.LBE72:
  94:TestXmlTestReporter.cpp **** }
 2938              		.loc 3 94 0 is_stmt 1
 2939 155f EB6C     		jmp	.L167
 2940              	.L165:
 2941 1561 4889C3   		movq	%rax, %rbx
 2942              	.LBB73:
  93:TestXmlTestReporter.cpp **** }
 2943              		.loc 3 93 0
 2944 1564 488D4590 		leaq	-112(%rbp), %rax
 2945 1568 4889C7   		movq	%rax, %rdi
 2946 156b E8000000 		call	_ZNSsD1Ev
 2946      00
 2947 1570 4889D8   		movq	%rbx, %rax
 2948 1573 EB13     		jmp	.L160
 2949              	.L166:
 2950 1575 4889C3   		movq	%rax, %rbx
 2951 1578 E8000000 		call	__cxa_end_catch
 2951      00
 2952 157d 4889D8   		movq	%rbx, %rax
 2953 1580 4889C7   		movq	%rax, %rdi
 2954              	.LEHB90:
 2955 1583 E8000000 		call	_Unwind_Resume
 2955      00
 2956              	.LEHE90:
 2957              	.L164:
 2958              	.L160:
 2959 1588 4889C7   		movq	%rax, %rdi
 2960 158b E8000000 		call	__cxa_begin_catch
 2960      00
 2961              	.LEHB91:
 2962 1590 E8000000 		call	_ZN8UnitTest11CurrentTest7DetailsEv
 2962      00
 2963 1595 488B08   		movq	(%rax), %rcx
 2964 1598 488D45C0 		leaq	-64(%rbp), %rax
 2965 159c BA5D0000 		movl	$93, %edx
 2965      00
 2966 15a1 4889CE   		movq	%rcx, %rsi
 2967 15a4 4889C7   		movq	%rax, %rdi
 2968 15a7 E8000000 		call	_ZN8UnitTest11TestDetailsC1ERKS0_i
 2968      00
  93:TestXmlTestReporter.cpp **** }
 2969              		.loc 3 93 0 is_stmt 0 discriminator 14
 2970 15ac E8000000 		call	_ZN8UnitTest11CurrentTest7ResultsEv
 2970      00
 2971 15b1 488B00   		movq	(%rax), %rax
 2972 15b4 488D4DC0 		leaq	-64(%rbp), %rcx
 2973 15b8 BA000000 		movl	$.LC12, %edx
 2973      00
 2974 15bd 4889CE   		movq	%rcx, %rsi
 2975 15c0 4889C7   		movq	%rax, %rdi
 2976 15c3 E8000000 		call	_ZN8UnitTest11TestResults13OnTestFailureERKNS_11TestDetailsEPKc
 2976      00
 2977              	.LEHE91:
 2978              	.LEHB92:
  93:TestXmlTestReporter.cpp **** }
 2979              		.loc 3 93 0 discriminator 18
 2980 15c8 E8000000 		call	__cxa_end_catch
 2980      00
 2981              	.LEHE92:
 2982              	.L167:
 2983              	.LBE73:
 2984              		.loc 3 94 0 is_stmt 1
 2985 15cd 90       		nop
 2986 15ce 488B45E8 		movq	-24(%rbp), %rax
 2987 15d2 64483304 		xorq	%fs:40, %rax
 2987      25280000 
 2987      00
 2988 15db 7405     		je	.L163
 2989 15dd E8000000 		call	__stack_chk_fail
 2989      00
 2990              	.L163:
 2991 15e2 4883C478 		addq	$120, %rsp
 2992 15e6 5B       		popq	%rbx
 2993 15e7 5D       		popq	%rbp
 2994              		.cfi_def_cfa 7, 8
 2995 15e8 C3       		ret
 2996              		.cfi_endproc
 2997              	.LFE1382:
 2998              		.section	.gcc_except_table
 2999              		.align 4
 3000              	.LLSDA1382:
 3001 0254 FF       		.byte	0xff
 3002 0255 03       		.byte	0x3
 3003 0256 31       		.uleb128 .LLSDATT1382-.LLSDATTD1382
 3004              	.LLSDATTD1382:
 3005 0257 01       		.byte	0x1
 3006 0258 26       		.uleb128 .LLSDACSE1382-.LLSDACSB1382
 3007              	.LLSDACSB1382:
 3008 0259 38       		.uleb128 .LEHB86-.LFB1382
 3009 025a 48       		.uleb128 .LEHE86-.LEHB86
 3010 025b 00       		.uleb128 0
 3011 025c 00       		.uleb128 0
 3012 025d 8801     		.uleb128 .LEHB87-.LFB1382
 3013 025f 2F       		.uleb128 .LEHE87-.LEHB87
 3014 0260 8802     		.uleb128 .L164-.LFB1382
 3015 0262 01       		.uleb128 0x1
 3016 0263 B701     		.uleb128 .LEHB88-.LFB1382
 3017 0265 1C       		.uleb128 .LEHE88-.LEHB88
 3018 0266 E101     		.uleb128 .L165-.LFB1382
 3019 0268 03       		.uleb128 0x3
 3020 0269 DA01     		.uleb128 .LEHB89-.LFB1382
 3021 026b 05       		.uleb128 .LEHE89-.LEHB89
 3022 026c 8802     		.uleb128 .L164-.LFB1382
 3023 026e 01       		.uleb128 0x1
 3024 026f 8302     		.uleb128 .LEHB90-.LFB1382
 3025 0271 05       		.uleb128 .LEHE90-.LEHB90
 3026 0272 00       		.uleb128 0
 3027 0273 00       		.uleb128 0
 3028 0274 9002     		.uleb128 .LEHB91-.LFB1382
 3029 0276 38       		.uleb128 .LEHE91-.LEHB91
 3030 0277 F501     		.uleb128 .L166-.LFB1382
 3031 0279 00       		.uleb128 0
 3032 027a C802     		.uleb128 .LEHB92-.LFB1382
 3033 027c 05       		.uleb128 .LEHE92-.LEHB92
 3034 027d 00       		.uleb128 0
 3035 027e 00       		.uleb128 0
 3036              	.LLSDACSE1382:
 3037 027f 01       		.byte	0x1
 3038 0280 00       		.byte	0
 3039 0281 00       		.byte	0
 3040 0282 7D       		.byte	0x7d
 3041 0283 00       		.align 4
 3042 0284 00000000 		.long	0
 3043              	
 3044              	.LLSDATT1382:
 3045              		.text
 3047 15e9 90       		.align 2
 3049              	_ZN12_GLOBAL__N_163XmlTestReporterFixtureSingleFailedTestReportSummaryFormatHelperC2ERKN8UnitTest11
 3050              	.LFB1384:
  95:TestXmlTestReporter.cpp **** 
  96:TestXmlTestReporter.cpp **** TEST_FIXTURE(XmlTestReporterFixture, SingleFailedTestReportSummaryFormat)
 3051              		.loc 3 96 0
 3052              		.cfi_startproc
 3053 15ea 55       		pushq	%rbp
 3054              		.cfi_def_cfa_offset 16
 3055              		.cfi_offset 6, -16
 3056 15eb 4889E5   		movq	%rsp, %rbp
 3057              		.cfi_def_cfa_register 6
 3058 15ee 4883EC10 		subq	$16, %rsp
 3059 15f2 48897DF8 		movq	%rdi, -8(%rbp)
 3060 15f6 488975F0 		movq	%rsi, -16(%rbp)
 3061              	.LBB74:
 3062              		.loc 3 96 0
 3063 15fa 488B45F8 		movq	-8(%rbp), %rax
 3064 15fe 4889C7   		movq	%rax, %rdi
 3065 1601 E8FAE9FF 		call	_ZN12_GLOBAL__N_122XmlTestReporterFixtureC2Ev
 3065      FF
 3066 1606 488B45F8 		movq	-8(%rbp), %rax
 3067 160a 488B55F0 		movq	-16(%rbp), %rdx
 3068 160e 48899088 		movq	%rdx, 392(%rax)
 3068      010000
 3069              	.LBE74:
 3070 1615 C9       		leave
 3071              		.cfi_def_cfa 7, 8
 3072 1616 C3       		ret
 3073              		.cfi_endproc
 3074              	.LFE1384:
 3076              		.section	.rodata
 3077 0472 00000000 		.align 8
 3077      0000
 3078              	.LC25:
 3079 0478 53696E67 		.string	"SingleFailedTestReportSummaryFormat"
 3079      6C654661 
 3079      696C6564 
 3079      54657374 
 3079      5265706F 
 3080              		.text
 3081 1617 90       		.align 2
 3083              	_ZN12_GLOBAL__N_161TestXmlTestReporterFixtureSingleFailedTestReportSummaryFormatC2Ev:
 3084              	.LFB1387:
 3085              		.loc 3 96 0
 3086              		.cfi_startproc
 3087 1618 55       		pushq	%rbp
 3088              		.cfi_def_cfa_offset 16
 3089              		.cfi_offset 6, -16
 3090 1619 4889E5   		movq	%rsp, %rbp
 3091              		.cfi_def_cfa_register 6
 3092 161c 4883EC10 		subq	$16, %rsp
 3093 1620 48897DF8 		movq	%rdi, -8(%rbp)
 3094              	.LBB75:
 3095              		.loc 3 96 0
 3096 1624 E8000000 		call	_ZN13UnitTestSuite12GetSuiteNameEv
 3096      00
 3097 1629 4889C2   		movq	%rax, %rdx
 3098 162c 488B45F8 		movq	-8(%rbp), %rax
 3099 1630 41B86000 		movl	$96, %r8d
 3099      0000
 3100 1636 B9000000 		movl	$.LC1, %ecx
 3100      00
 3101 163b BE000000 		movl	$.LC25, %esi
 3101      00
 3102 1640 4889C7   		movq	%rax, %rdi
 3103 1643 E8000000 		call	_ZN8UnitTest4TestC2EPKcS2_S2_i
 3103      00
 3104 1648 488B45F8 		movq	-8(%rbp), %rax
 3105 164c 48C70000 		movq	$_ZTVN12_GLOBAL__N_161TestXmlTestReporterFixtureSingleFailedTestReportSummaryFormatE+16, (%ra
 3105      000000
 3106              	.LBE75:
 3107 1653 C9       		leave
 3108              		.cfi_def_cfa 7, 8
 3109 1654 C3       		ret
 3110              		.cfi_endproc
 3111              	.LFE1387:
 3113              		.local	_ZN12_GLOBAL__N_169testXmlTestReporterFixtureSingleFailedTestReportSummaryFormatInstanceE
 3114              		.comm	_ZN12_GLOBAL__N_169testXmlTestReporterFixtureSingleFailedTestReportSummaryFormatInstanceE,56
 3115              		.local	_ZN12_GLOBAL__N_162adderXmlTestReporterFixtureSingleFailedTestReportSummaryFormatE
 3116              		.comm	_ZN12_GLOBAL__N_162adderXmlTestReporterFixtureSingleFailedTestReportSummaryFormatE,1,1
 3117 1655 90       		.align 2
 3119              	_ZN12_GLOBAL__N_163XmlTestReporterFixtureSingleFailedTestReportSummaryFormatHelperD2Ev:
 3120              	.LFB1391:
 3121              		.loc 3 96 0
 3122              		.cfi_startproc
 3123 1656 55       		pushq	%rbp
 3124              		.cfi_def_cfa_offset 16
 3125              		.cfi_offset 6, -16
 3126 1657 4889E5   		movq	%rsp, %rbp
 3127              		.cfi_def_cfa_register 6
 3128 165a 4883EC10 		subq	$16, %rsp
 3129 165e 48897DF8 		movq	%rdi, -8(%rbp)
 3130              	.LBB76:
 3131              		.loc 3 96 0
 3132 1662 488B45F8 		movq	-8(%rbp), %rax
 3133 1666 4889C7   		movq	%rax, %rdi
 3134 1669 E8EEE9FF 		call	_ZN12_GLOBAL__N_122XmlTestReporterFixtureD2Ev
 3134      FF
 3135              	.LBE76:
 3136 166e C9       		leave
 3137              		.cfi_def_cfa 7, 8
 3138 166f C3       		ret
 3139              		.cfi_endproc
 3140              	.LFE1391:
 3142              		.align 2
 3144              	_ZNK12_GLOBAL__N_161TestXmlTestReporterFixtureSingleFailedTestReportSummaryFormat7RunImplEv:
 3145              	.LFB1389:
 3146              		.loc 3 96 0
 3147              		.cfi_startproc
 3148              		.cfi_personality 0x3,__gxx_personality_v0
 3149              		.cfi_lsda 0x3,.LLSDA1389
 3150 1670 55       		pushq	%rbp
 3151              		.cfi_def_cfa_offset 16
 3152              		.cfi_offset 6, -16
 3153 1671 4889E5   		movq	%rsp, %rbp
 3154              		.cfi_def_cfa_register 6
 3155 1674 4154     		pushq	%r12
 3156 1676 53       		pushq	%rbx
 3157 1677 4881ECF0 		subq	$496, %rsp
 3157      010000
 3158              		.cfi_offset 12, -24
 3159              		.cfi_offset 3, -32
 3160 167e 4889BD08 		movq	%rdi, -504(%rbp)
 3160      FEFFFF
 3161              		.loc 3 96 0
 3162 1685 64488B04 		movq	%fs:40, %rax
 3162      25280000 
 3162      00
 3163 168e 488945E8 		movq	%rax, -24(%rbp)
 3164 1692 31C0     		xorl	%eax, %eax
 3165              	.LBB77:
 3166 1694 C6851FFE 		movb	$0, -481(%rbp)
 3166      FFFF00
 3167              	.LBB78:
 3168 169b 488B8508 		movq	-504(%rbp), %rax
 3168      FEFFFF
 3169 16a2 488D5008 		leaq	8(%rax), %rdx
 3170 16a6 488D8550 		leaq	-432(%rbp), %rax
 3170      FEFFFF
 3171 16ad 4889D6   		movq	%rdx, %rsi
 3172 16b0 4889C7   		movq	%rax, %rdi
 3173              	.LEHB93:
 3174 16b3 E832FFFF 		call	_ZN12_GLOBAL__N_163XmlTestReporterFixtureSingleFailedTestReportSummaryFormatHelperC2ERKN8Unit
 3174      FF
 3175              	.LEHE93:
 3176              		.loc 3 96 0 is_stmt 0 discriminator 1
 3177 16b8 C6851FFE 		movb	$1, -481(%rbp)
 3177      FFFF01
 3178 16bf 488B8508 		movq	-504(%rbp), %rax
 3178      FEFFFF
 3179 16c6 488D5008 		leaq	8(%rax), %rdx
 3180 16ca 488D8550 		leaq	-432(%rbp), %rax
 3180      FEFFFF
 3181 16d1 4889D6   		movq	%rdx, %rsi
 3182 16d4 4889C7   		movq	%rax, %rdi
 3183              	.LEHB94:
 3184 16d7 E8B71F00 		call	_ZN8UnitTest11ExecuteTestIN12_GLOBAL__N_163XmlTestReporterFixtureSingleFailedTestReportSummar
 3184      00
 3185              	.LEHE94:
 3186              		.loc 3 96 0 discriminator 3
 3187 16dc 488D8550 		leaq	-432(%rbp), %rax
 3187      FEFFFF
 3188 16e3 4889C7   		movq	%rax, %rdi
 3189              	.LEHB95:
 3190 16e6 E86BFFFF 		call	_ZN12_GLOBAL__N_163XmlTestReporterFixtureSingleFailedTestReportSummaryFormatHelperD2Ev
 3190      FF
 3191              	.LEHE95:
 3192              	.LBE78:
 3193              	.LBE77:
 3194              		.loc 3 96 0
 3195 16eb E9640200 		jmp	.L193
 3195      00
 3196              	.L187:
 3197 16f0 4989C4   		movq	%rax, %r12
 3198 16f3 4889D3   		movq	%rdx, %rbx
 3199              	.LBB86:
 3200              	.LBB79:
 3201 16f6 488D8550 		leaq	-432(%rbp), %rax
 3201      FEFFFF
 3202 16fd 4889C7   		movq	%rax, %rdi
 3203 1700 E851FFFF 		call	_ZN12_GLOBAL__N_163XmlTestReporterFixtureSingleFailedTestReportSummaryFormatHelperD2Ev
 3203      FF
 3204 1705 4C89E0   		movq	%r12, %rax
 3205 1708 4889DA   		movq	%rbx, %rdx
 3206 170b EB00     		jmp	.L174
 3207              	.L186:
 3208              	.L174:
 3209 170d 4883FA01 		cmpq	$1, %rdx
 3210 1711 745C     		je	.L176
 3211 1713 4883FA02 		cmpq	$2, %rdx
 3212 1717 0F84F400 		je	.L177
 3212      0000
 3213 171d E9980100 		jmp	.L192
 3213      00
 3214              	.L188:
 3215 1722 4889C3   		movq	%rax, %rbx
 3216              	.LBE79:
 3217              	.LBB80:
 3218 1725 E8000000 		call	__cxa_end_catch
 3218      00
 3219 172a 4889D8   		movq	%rbx, %rax
 3220 172d 4889C7   		movq	%rax, %rdi
 3221              	.LEHB96:
 3222 1730 E8000000 		call	_Unwind_Resume
 3222      00
 3223              	.LEHE96:
 3224              	.L189:
 3225 1735 4889C3   		movq	%rax, %rbx
 3226              	.LBE80:
 3227              	.LBB81:
 3228              	.LBB82:
 3229 1738 488D8550 		leaq	-432(%rbp), %rax
 3229      FEFFFF
 3230 173f 4889C7   		movq	%rax, %rdi
 3231 1742 E8000000 		call	_ZN8UnitTest15MemoryOutStreamD1Ev
 3231      00
 3232 1747 EB03     		jmp	.L180
 3233              	.L190:
 3234 1749 4889C3   		movq	%rax, %rbx
 3235              	.L180:
 3236              	.LBE82:
 3237 174c E8000000 		call	__cxa_end_catch
 3237      00
 3238 1751 4889D8   		movq	%rbx, %rax
 3239 1754 4889C7   		movq	%rax, %rdi
 3240              	.LEHB97:
 3241 1757 E8000000 		call	_Unwind_Resume
 3241      00
 3242              	.LEHE97:
 3243              	.L191:
 3244 175c 4889C3   		movq	%rax, %rbx
 3245              	.LBE81:
 3246 175f E8000000 		call	__cxa_end_catch
 3246      00
 3247 1764 4889D8   		movq	%rbx, %rax
 3248 1767 4889C7   		movq	%rax, %rdi
 3249              	.LEHB98:
 3250 176a E8000000 		call	_Unwind_Resume
 3250      00
 3251              	.LEHE98:
 3252              	.L176:
 3253              	.LBB84:
 3254 176f 4889C7   		movq	%rax, %rdi
 3255 1772 E8000000 		call	__cxa_begin_catch
 3255      00
 3256 1777 48898520 		movq	%rax, -480(%rbp)
 3256      FEFFFF
 3257 177e 488B8520 		movq	-480(%rbp), %rax
 3257      FEFFFF
 3258 1785 488B00   		movq	(%rax), %rax
 3259 1788 4883C010 		addq	$16, %rax
 3260 178c 488B00   		movq	(%rax), %rax
 3261 178f 488B9520 		movq	-480(%rbp), %rdx
 3261      FEFFFF
 3262 1796 4889D7   		movq	%rdx, %rdi
 3263 1799 FFD0     		call	*%rax
 3264 179b 4889C3   		movq	%rax, %rbx
 3265 179e 488B8520 		movq	-480(%rbp), %rax
 3265      FEFFFF
 3266 17a5 4889C7   		movq	%rax, %rdi
 3267              	.LEHB99:
 3268 17a8 E8000000 		call	_ZNK8UnitTest15AssertException10LineNumberEv
 3268      00
 3269 17ad 4189C4   		movl	%eax, %r12d
 3270 17b0 488B8520 		movq	-480(%rbp), %rax
 3270      FEFFFF
 3271 17b7 4889C7   		movq	%rax, %rdi
 3272 17ba E8000000 		call	_ZNK8UnitTest15AssertException8FilenameEv
 3272      00
 3273              		.loc 3 96 0 discriminator 5
 3274 17bf 4889C1   		movq	%rax, %rcx
 3275 17c2 488B8508 		movq	-504(%rbp), %rax
 3275      FEFFFF
 3276 17c9 488B5008 		movq	8(%rax), %rdx
 3277 17cd 488B8508 		movq	-504(%rbp), %rax
 3277      FEFFFF
 3278 17d4 488B7010 		movq	16(%rax), %rsi
 3279 17d8 488D8530 		leaq	-464(%rbp), %rax
 3279      FEFFFF
 3280 17df 4589E0   		movl	%r12d, %r8d
 3281 17e2 4889C7   		movq	%rax, %rdi
 3282 17e5 E8000000 		call	_ZN8UnitTest11TestDetailsC1EPKcS2_S2_i
 3282      00
 3283              		.loc 3 96 0 discriminator 9
 3284 17ea E8000000 		call	_ZN8UnitTest11CurrentTest7ResultsEv
 3284      00
 3285 17ef 488B00   		movq	(%rax), %rax
 3286 17f2 488D8D30 		leaq	-464(%rbp), %rcx
 3286      FEFFFF
 3287 17f9 4889DA   		movq	%rbx, %rdx
 3288 17fc 4889CE   		movq	%rcx, %rsi
 3289 17ff 4889C7   		movq	%rax, %rdi
 3290 1802 E8000000 		call	_ZN8UnitTest11TestResults13OnTestFailureERKNS_11TestDetailsEPKc
 3290      00
 3291              	.LEHE99:
 3292              		.loc 3 96 0 discriminator 13
 3293 1807 E8000000 		call	__cxa_end_catch
 3293      00
 3294              	.LBE84:
 3295              	.LBE86:
 3296 180c E9430100 		jmp	.L193
 3296      00
 3297              	.L177:
 3298              	.LBB87:
 3299              	.LBB85:
 3300              		.loc 3 96 0
 3301 1811 4889C7   		movq	%rax, %rdi
 3302 1814 E8000000 		call	__cxa_begin_catch
 3302      00
 3303 1819 48898528 		movq	%rax, -472(%rbp)
 3303      FEFFFF
 3304              	.LBB83:
 3305 1820 488D8550 		leaq	-432(%rbp), %rax
 3305      FEFFFF
 3306 1827 4889C7   		movq	%rax, %rdi
 3307              	.LEHB100:
 3308 182a E8000000 		call	_ZN8UnitTest15MemoryOutStreamC1Ev
 3308      00
 3309              	.LEHE100:
 3310              		.loc 3 96 0 discriminator 15
 3311 182f 488B8528 		movq	-472(%rbp), %rax
 3311      FEFFFF
 3312 1836 488B00   		movq	(%rax), %rax
 3313 1839 4883C010 		addq	$16, %rax
 3314 183d 488B00   		movq	(%rax), %rax
 3315 1840 488B9528 		movq	-472(%rbp), %rdx
 3315      FEFFFF
 3316 1847 4889D7   		movq	%rdx, %rdi
 3317 184a FFD0     		call	*%rax
 3318 184c 4889C3   		movq	%rax, %rbx
 3319 184f 488D8550 		leaq	-432(%rbp), %rax
 3319      FEFFFF
 3320 1856 BE000000 		movl	$.LC3, %esi
 3320      00
 3321 185b 4889C7   		movq	%rax, %rdi
 3322              	.LEHB101:
 3323 185e E8000000 		call	_ZStlsISt11char_traitsIcEERSt13basic_ostreamIcT_ES5_PKc
 3323      00
 3324 1863 4889DE   		movq	%rbx, %rsi
 3325 1866 4889C7   		movq	%rax, %rdi
 3326 1869 E8000000 		call	_ZStlsISt11char_traitsIcEERSt13basic_ostreamIcT_ES5_PKc
 3326      00
 3327              		.loc 3 96 0 discriminator 19
 3328 186e 488D8550 		leaq	-432(%rbp), %rax
 3328      FEFFFF
 3329 1875 4889C7   		movq	%rax, %rdi
 3330 1878 E8000000 		call	_ZNK8UnitTest15MemoryOutStream7GetTextEv
 3330      00
 3331 187d 4989C4   		movq	%rax, %r12
 3332 1880 488B8508 		movq	-504(%rbp), %rax
 3332      FEFFFF
 3333 1887 488D5808 		leaq	8(%rax), %rbx
 3334 188b E8000000 		call	_ZN8UnitTest11CurrentTest7ResultsEv
 3334      00
 3335              		.loc 3 96 0 discriminator 21
 3336 1890 488B00   		movq	(%rax), %rax
 3337 1893 4C89E2   		movq	%r12, %rdx
 3338 1896 4889DE   		movq	%rbx, %rsi
 3339 1899 4889C7   		movq	%rax, %rdi
 3340 189c E8000000 		call	_ZN8UnitTest11TestResults13OnTestFailureERKNS_11TestDetailsEPKc
 3340      00
 3341              	.LEHE101:
 3342              		.loc 3 96 0 discriminator 25
 3343 18a1 488D8550 		leaq	-432(%rbp), %rax
 3343      FEFFFF
 3344 18a8 4889C7   		movq	%rax, %rdi
 3345              	.LEHB102:
 3346 18ab E8000000 		call	_ZN8UnitTest15MemoryOutStreamD1Ev
 3346      00
 3347              	.LEHE102:
 3348              	.LBE83:
 3349              		.loc 3 96 0 discriminator 26
 3350 18b0 E8000000 		call	__cxa_end_catch
 3350      00
 3351              	.LBE85:
 3352              	.LBE87:
 3353 18b5 E99A0000 		jmp	.L193
 3353      00
 3354              	.L192:
 3355              	.LBB88:
 3356              		.loc 3 96 0
 3357 18ba 4889C7   		movq	%rax, %rdi
 3358 18bd E8000000 		call	__cxa_begin_catch
 3358      00
 3359 18c2 80BD1FFE 		cmpb	$0, -481(%rbp)
 3359      FFFF00
 3360 18c9 7443     		je	.L183
 3361              		.loc 3 96 0 discriminator 28
 3362 18cb 488B8508 		movq	-504(%rbp), %rax
 3362      FEFFFF
 3363 18d2 488D4808 		leaq	8(%rax), %rcx
 3364 18d6 488D8530 		leaq	-464(%rbp), %rax
 3364      FEFFFF
 3365 18dd BA600000 		movl	$96, %edx
 3365      00
 3366 18e2 4889CE   		movq	%rcx, %rsi
 3367 18e5 4889C7   		movq	%rax, %rdi
 3368              	.LEHB103:
 3369 18e8 E8000000 		call	_ZN8UnitTest11TestDetailsC1ERKS0_i
 3369      00
 3370              		.loc 3 96 0 discriminator 31
 3371 18ed E8000000 		call	_ZN8UnitTest11CurrentTest7ResultsEv
 3371      00
 3372 18f2 488B00   		movq	(%rax), %rax
 3373 18f5 488D8D30 		leaq	-464(%rbp), %rcx
 3373      FEFFFF
 3374 18fc BA000000 		movl	$.LC4, %edx
 3374      00
 3375 1901 4889CE   		movq	%rcx, %rsi
 3376 1904 4889C7   		movq	%rax, %rdi
 3377 1907 E8000000 		call	_ZN8UnitTest11TestResults13OnTestFailureERKNS_11TestDetailsEPKc
 3377      00
 3378 190c EB41     		jmp	.L184
 3379              	.L183:
 3380              		.loc 3 96 0 discriminator 29
 3381 190e 488B8508 		movq	-504(%rbp), %rax
 3381      FEFFFF
 3382 1915 488D4808 		leaq	8(%rax), %rcx
 3383 1919 488D8530 		leaq	-464(%rbp), %rax
 3383      FEFFFF
 3384 1920 BA600000 		movl	$96, %edx
 3384      00
 3385 1925 4889CE   		movq	%rcx, %rsi
 3386 1928 4889C7   		movq	%rax, %rdi
 3387 192b E8000000 		call	_ZN8UnitTest11TestDetailsC1ERKS0_i
 3387      00
 3388              		.loc 3 96 0 discriminator 38
 3389 1930 E8000000 		call	_ZN8UnitTest11CurrentTest7ResultsEv
 3389      00
 3390 1935 488B00   		movq	(%rax), %rax
 3391 1938 488D8D30 		leaq	-464(%rbp), %rcx
 3391      FEFFFF
 3392 193f BA000000 		movl	$.LC5, %edx
 3392      00
 3393 1944 4889CE   		movq	%rcx, %rsi
 3394 1947 4889C7   		movq	%rax, %rdi
 3395 194a E8000000 		call	_ZN8UnitTest11TestResults13OnTestFailureERKNS_11TestDetailsEPKc
 3395      00
 3396              	.LEHE103:
 3397              	.L184:
 3398              	.LEHB104:
 3399              		.loc 3 96 0 discriminator 43
 3400 194f E8000000 		call	__cxa_end_catch
 3400      00
 3401              	.LEHE104:
 3402              	.L193:
 3403              	.LBE88:
 3404              		.loc 3 96 0
 3405 1954 90       		nop
 3406 1955 488B45E8 		movq	-24(%rbp), %rax
 3407 1959 64483304 		xorq	%fs:40, %rax
 3407      25280000 
 3407      00
 3408 1962 7405     		je	.L185
 3409 1964 E8000000 		call	__stack_chk_fail
 3409      00
 3410              	.L185:
 3411 1969 4881C4F0 		addq	$496, %rsp
 3411      010000
 3412 1970 5B       		popq	%rbx
 3413 1971 415C     		popq	%r12
 3414 1973 5D       		popq	%rbp
 3415              		.cfi_def_cfa 7, 8
 3416 1974 C3       		ret
 3417              		.cfi_endproc
 3418              	.LFE1389:
 3419              		.section	.gcc_except_table
 3420              		.align 4
 3421              	.LLSDA1389:
 3422 0288 FF       		.byte	0xff
 3423 0289 03       		.byte	0x3
 3424 028a 59       		.uleb128 .LLSDATT1389-.LLSDATTD1389
 3425              	.LLSDATTD1389:
 3426 028b 01       		.byte	0x1
 3427 028c 41       		.uleb128 .LLSDACSE1389-.LLSDACSB1389
 3428              	.LLSDACSB1389:
 3429 028d 43       		.uleb128 .LEHB93-.LFB1389
 3430 028e 05       		.uleb128 .LEHE93-.LEHB93
 3431 028f 9D01     		.uleb128 .L186-.LFB1389
 3432 0291 05       		.uleb128 0x5
 3433 0292 67       		.uleb128 .LEHB94-.LFB1389
 3434 0293 05       		.uleb128 .LEHE94-.LEHB94
 3435 0294 8001     		.uleb128 .L187-.LFB1389
 3436 0296 07       		.uleb128 0x7
 3437 0297 76       		.uleb128 .LEHB95-.LFB1389
 3438 0298 05       		.uleb128 .LEHE95-.LEHB95
 3439 0299 9D01     		.uleb128 .L186-.LFB1389
 3440 029b 05       		.uleb128 0x5
 3441 029c C001     		.uleb128 .LEHB96-.LFB1389
 3442 029e 05       		.uleb128 .LEHE96-.LEHB96
 3443 029f 00       		.uleb128 0
 3444 02a0 00       		.uleb128 0
 3445 02a1 E701     		.uleb128 .LEHB97-.LFB1389
 3446 02a3 05       		.uleb128 .LEHE97-.LEHB97
 3447 02a4 00       		.uleb128 0
 3448 02a5 00       		.uleb128 0
 3449 02a6 FA01     		.uleb128 .LEHB98-.LFB1389
 3450 02a8 05       		.uleb128 .LEHE98-.LEHB98
 3451 02a9 00       		.uleb128 0
 3452 02aa 00       		.uleb128 0
 3453 02ab B802     		.uleb128 .LEHB99-.LFB1389
 3454 02ad 5F       		.uleb128 .LEHE99-.LEHB99
 3455 02ae B201     		.uleb128 .L188-.LFB1389
 3456 02b0 00       		.uleb128 0
 3457 02b1 BA03     		.uleb128 .LEHB100-.LFB1389
 3458 02b3 05       		.uleb128 .LEHE100-.LEHB100
 3459 02b4 D901     		.uleb128 .L190-.LFB1389
 3460 02b6 00       		.uleb128 0
 3461 02b7 EE03     		.uleb128 .LEHB101-.LFB1389
 3462 02b9 43       		.uleb128 .LEHE101-.LEHB101
 3463 02ba C501     		.uleb128 .L189-.LFB1389
 3464 02bc 00       		.uleb128 0
 3465 02bd BB04     		.uleb128 .LEHB102-.LFB1389
 3466 02bf 05       		.uleb128 .LEHE102-.LEHB102
 3467 02c0 D901     		.uleb128 .L190-.LFB1389
 3468 02c2 00       		.uleb128 0
 3469 02c3 F804     		.uleb128 .LEHB103-.LFB1389
 3470 02c5 67       		.uleb128 .LEHE103-.LEHB103
 3471 02c6 EC01     		.uleb128 .L191-.LFB1389
 3472 02c8 00       		.uleb128 0
 3473 02c9 DF05     		.uleb128 .LEHB104-.LFB1389
 3474 02cb 05       		.uleb128 .LEHE104-.LEHB104
 3475 02cc 00       		.uleb128 0
 3476 02cd 00       		.uleb128 0
 3477              	.LLSDACSE1389:
 3478 02ce 03       		.byte	0x3
 3479 02cf 00       		.byte	0
 3480 02d0 02       		.byte	0x2
 3481 02d1 7D       		.byte	0x7d
 3482 02d2 01       		.byte	0x1
 3483 02d3 7D       		.byte	0x7d
 3484 02d4 00       		.byte	0
 3485 02d5 7D       		.byte	0x7d
 3486 02d6 0000     		.align 4
 3487 02d8 00000000 		.long	0
 3488              	
 3489 02dc 00000000 		.long	_ZTISt9exception
 3490 02e0 00000000 		.long	_ZTIN8UnitTest15AssertExceptionE
 3491              	.LLSDATT1389:
 3492              		.text
 3494              		.section	.rodata
 3495              	.LC26:
 3496 049c 41204669 		.string	"A File"
 3496      6C6500
 3497              	.LC27:
 3498 04a3 41205465 		.string	"A Test"
 3498      737400
 3499              	.LC28:
 3500 04aa 41204661 		.string	"A Failure"
 3500      696C7572 
 3500      6500
 3501 04b4 00000000 		.align 8
 3502              	.LC29:
 3503 04b8 3C3F786D 		.string	"<?xml version=\"1.0\"?><unittest-results tests=\"1\" failedtests=\"1\" failures=\"1\" tim
 3503      6C207665 
 3503      7273696F 
 3503      6E3D2231 
 3503      2E30223F 
 3504              		.text
 3505 1975 90       		.align 2
 3507              	_ZN12_GLOBAL__N_163XmlTestReporterFixtureSingleFailedTestReportSummaryFormatHelper7RunImplEv:
 3508              	.LFB1393:
  97:TestXmlTestReporter.cpp **** {
 3509              		.loc 3 97 0 is_stmt 1
 3510              		.cfi_startproc
 3511              		.cfi_personality 0x3,__gxx_personality_v0
 3512              		.cfi_lsda 0x3,.LLSDA1393
 3513 1976 55       		pushq	%rbp
 3514              		.cfi_def_cfa_offset 16
 3515              		.cfi_offset 6, -16
 3516 1977 4889E5   		movq	%rsp, %rbp
 3517              		.cfi_def_cfa_register 6
 3518 197a 53       		pushq	%rbx
 3519 197b 4883EC78 		subq	$120, %rsp
 3520              		.cfi_offset 3, -24
 3521 197f 48897D88 		movq	%rdi, -120(%rbp)
 3522              		.loc 3 97 0
 3523 1983 64488B04 		movq	%fs:40, %rax
 3523      25280000 
 3523      00
 3524 198c 488945E8 		movq	%rax, -24(%rbp)
 3525 1990 31C0     		xorl	%eax, %eax
 3526              	.LBB89:
  98:TestXmlTestReporter.cpp ****     TestDetails const details("A Test", "suite", "A File", 4321);
 3527              		.loc 3 98 0
 3528 1992 488D45A0 		leaq	-96(%rbp), %rax
 3529 1996 41B8E110 		movl	$4321, %r8d
 3529      0000
 3530 199c B9000000 		movl	$.LC26, %ecx
 3530      00
 3531 19a1 BA000000 		movl	$.LC7, %edx
 3531      00
 3532 19a6 BE000000 		movl	$.LC27, %esi
 3532      00
 3533 19ab 4889C7   		movq	%rax, %rdi
 3534              	.LEHB105:
 3535 19ae E8000000 		call	_ZN8UnitTest11TestDetailsC1EPKcS2_S2_i
 3535      00
  99:TestXmlTestReporter.cpp **** 
 100:TestXmlTestReporter.cpp ****     reporter.ReportTestStart(details);
 3536              		.loc 3 100 0
 3537 19b3 488B4588 		movq	-120(%rbp), %rax
 3538 19b7 488D9060 		leaq	352(%rax), %rdx
 3538      010000
 3539 19be 488D45A0 		leaq	-96(%rbp), %rax
 3540 19c2 4889C6   		movq	%rax, %rsi
 3541 19c5 4889D7   		movq	%rdx, %rdi
 3542 19c8 E8000000 		call	_ZN8UnitTest20DeferredTestReporter15ReportTestStartERKNS_11TestDetailsE
 3542      00
 101:TestXmlTestReporter.cpp ****     reporter.ReportFailure(details, "A Failure");
 3543              		.loc 3 101 0
 3544 19cd 488B4588 		movq	-120(%rbp), %rax
 3545 19d1 488D8860 		leaq	352(%rax), %rcx
 3545      010000
 3546 19d8 488D45A0 		leaq	-96(%rbp), %rax
 3547 19dc BA000000 		movl	$.LC28, %edx
 3547      00
 3548 19e1 4889C6   		movq	%rax, %rsi
 3549 19e4 4889CF   		movq	%rcx, %rdi
 3550 19e7 E8000000 		call	_ZN8UnitTest20DeferredTestReporter13ReportFailureERKNS_11TestDetailsEPKc
 3550      00
 102:TestXmlTestReporter.cpp ****     reporter.ReportSummary(1, 1, 1, 0.1f);
 3551              		.loc 3 102 0
 3552 19ec 488B4588 		movq	-120(%rbp), %rax
 3553 19f0 48056001 		addq	$352, %rax
 3553      0000
 3554 19f6 F30F1005 		movss	.LC10(%rip), %xmm0
 3554      00000000 
 3555 19fe B9010000 		movl	$1, %ecx
 3555      00
 3556 1a03 BA010000 		movl	$1, %edx
 3556      00
 3557 1a08 BE010000 		movl	$1, %esi
 3557      00
 3558 1a0d 4889C7   		movq	%rax, %rdi
 3559 1a10 E8000000 		call	_ZN8UnitTest15XmlTestReporter13ReportSummaryEiiif
 3559      00
 3560              	.LEHE105:
 103:TestXmlTestReporter.cpp **** 
 104:TestXmlTestReporter.cpp ****     const char *expected =
 105:TestXmlTestReporter.cpp ****         "<?xml version=\"1.0\"?>"
 106:TestXmlTestReporter.cpp ****         "<unittest-results tests=\"1\" failedtests=\"1\" failures=\"1\" time=\"0.1\">"
 107:TestXmlTestReporter.cpp ****         "<test suite=\"suite\" name=\"A Test\" time=\"0\">"
 108:TestXmlTestReporter.cpp ****         "<failure message=\"A File(4321) : A Failure\"/>"
 109:TestXmlTestReporter.cpp ****         "</test>"
 110:TestXmlTestReporter.cpp ****         "</unittest-results>";
 3561              		.loc 3 110 0
 3562 1a15 48C74598 		movq	$.LC29, -104(%rbp)
 3562      00000000 
 3563              	.LEHB106:
 111:TestXmlTestReporter.cpp **** 
 112:TestXmlTestReporter.cpp ****     CHECK_EQUAL(expected, output.str());
 3564              		.loc 3 112 0
 3565 1a1d E8000000 		call	_ZN8UnitTest11CurrentTest7DetailsEv
 3565      00
 3566 1a22 488B08   		movq	(%rax), %rcx
 3567 1a25 488D45C0 		leaq	-64(%rbp), %rax
 3568 1a29 BA700000 		movl	$112, %edx
 3568      00
 3569 1a2e 4889CE   		movq	%rcx, %rsi
 3570 1a31 4889C7   		movq	%rax, %rdi
 3571 1a34 E8000000 		call	_ZN8UnitTest11TestDetailsC1ERKS0_i
 3571      00
 3572              		.loc 3 112 0 is_stmt 0 discriminator 2
 3573 1a39 488B5588 		movq	-120(%rbp), %rdx
 3574 1a3d 488D4590 		leaq	-112(%rbp), %rax
 3575 1a41 4889D6   		movq	%rdx, %rsi
 3576 1a44 4889C7   		movq	%rax, %rdi
 3577 1a47 E8000000 		call	_ZNKSt19basic_ostringstreamIcSt11char_traitsIcESaIcEE3strEv
 3577      00
 3578              	.LEHE106:
 3579              	.LEHB107:
 3580              		.loc 3 112 0 discriminator 4
 3581 1a4c E8000000 		call	_ZN8UnitTest11CurrentTest7ResultsEv
 3581      00
 3582 1a51 488B00   		movq	(%rax), %rax
 3583 1a54 488D4DC0 		leaq	-64(%rbp), %rcx
 3584 1a58 488D5590 		leaq	-112(%rbp), %rdx
 3585 1a5c 488D7598 		leaq	-104(%rbp), %rsi
 3586 1a60 4889C7   		movq	%rax, %rdi
 3587 1a63 E8000000 		call	_ZN8UnitTest10CheckEqualIPKcSsEEvRNS_11TestResultsERKT_RKT0_RKNS_11TestDetailsE
 3587      00
 3588              	.LEHE107:
 3589              		.loc 3 112 0 discriminator 8
 3590 1a68 488D4590 		leaq	-112(%rbp), %rax
 3591 1a6c 4889C7   		movq	%rax, %rdi
 3592              	.LEHB108:
 3593 1a6f E8000000 		call	_ZNSsD1Ev
 3593      00
 3594              	.LEHE108:
 3595              	.LBE89:
 113:TestXmlTestReporter.cpp **** }
 3596              		.loc 3 113 0 is_stmt 1
 3597 1a74 EB6C     		jmp	.L203
 3598              	.L201:
 3599 1a76 4889C3   		movq	%rax, %rbx
 3600              	.LBB90:
 112:TestXmlTestReporter.cpp **** }
 3601              		.loc 3 112 0
 3602 1a79 488D4590 		leaq	-112(%rbp), %rax
 3603 1a7d 4889C7   		movq	%rax, %rdi
 3604 1a80 E8000000 		call	_ZNSsD1Ev
 3604      00
 3605 1a85 4889D8   		movq	%rbx, %rax
 3606 1a88 EB13     		jmp	.L196
 3607              	.L202:
 3608 1a8a 4889C3   		movq	%rax, %rbx
 3609 1a8d E8000000 		call	__cxa_end_catch
 3609      00
 3610 1a92 4889D8   		movq	%rbx, %rax
 3611 1a95 4889C7   		movq	%rax, %rdi
 3612              	.LEHB109:
 3613 1a98 E8000000 		call	_Unwind_Resume
 3613      00
 3614              	.LEHE109:
 3615              	.L200:
 3616              	.L196:
 3617 1a9d 4889C7   		movq	%rax, %rdi
 3618 1aa0 E8000000 		call	__cxa_begin_catch
 3618      00
 3619              	.LEHB110:
 3620 1aa5 E8000000 		call	_ZN8UnitTest11CurrentTest7DetailsEv
 3620      00
 3621 1aaa 488B08   		movq	(%rax), %rcx
 3622 1aad 488D45C0 		leaq	-64(%rbp), %rax
 3623 1ab1 BA700000 		movl	$112, %edx
 3623      00
 3624 1ab6 4889CE   		movq	%rcx, %rsi
 3625 1ab9 4889C7   		movq	%rax, %rdi
 3626 1abc E8000000 		call	_ZN8UnitTest11TestDetailsC1ERKS0_i
 3626      00
 112:TestXmlTestReporter.cpp **** }
 3627              		.loc 3 112 0 is_stmt 0 discriminator 14
 3628 1ac1 E8000000 		call	_ZN8UnitTest11CurrentTest7ResultsEv
 3628      00
 3629 1ac6 488B00   		movq	(%rax), %rax
 3630 1ac9 488D4DC0 		leaq	-64(%rbp), %rcx
 3631 1acd BA000000 		movl	$.LC12, %edx
 3631      00
 3632 1ad2 4889CE   		movq	%rcx, %rsi
 3633 1ad5 4889C7   		movq	%rax, %rdi
 3634 1ad8 E8000000 		call	_ZN8UnitTest11TestResults13OnTestFailureERKNS_11TestDetailsEPKc
 3634      00
 3635              	.LEHE110:
 3636              	.LEHB111:
 112:TestXmlTestReporter.cpp **** }
 3637              		.loc 3 112 0 discriminator 18
 3638 1add E8000000 		call	__cxa_end_catch
 3638      00
 3639              	.LEHE111:
 3640              	.L203:
 3641              	.LBE90:
 3642              		.loc 3 113 0 is_stmt 1
 3643 1ae2 90       		nop
 3644 1ae3 488B45E8 		movq	-24(%rbp), %rax
 3645 1ae7 64483304 		xorq	%fs:40, %rax
 3645      25280000 
 3645      00
 3646 1af0 7405     		je	.L199
 3647 1af2 E8000000 		call	__stack_chk_fail
 3647      00
 3648              	.L199:
 3649 1af7 4883C478 		addq	$120, %rsp
 3650 1afb 5B       		popq	%rbx
 3651 1afc 5D       		popq	%rbp
 3652              		.cfi_def_cfa 7, 8
 3653 1afd C3       		ret
 3654              		.cfi_endproc
 3655              	.LFE1393:
 3656              		.section	.gcc_except_table
 3657              		.align 4
 3658              	.LLSDA1393:
 3659 02e4 FF       		.byte	0xff
 3660 02e5 03       		.byte	0x3
 3661 02e6 31       		.uleb128 .LLSDATT1393-.LLSDATTD1393
 3662              	.LLSDATTD1393:
 3663 02e7 01       		.byte	0x1
 3664 02e8 26       		.uleb128 .LLSDACSE1393-.LLSDACSB1393
 3665              	.LLSDACSB1393:
 3666 02e9 38       		.uleb128 .LEHB105-.LFB1393
 3667 02ea 67       		.uleb128 .LEHE105-.LEHB105
 3668 02eb 00       		.uleb128 0
 3669 02ec 00       		.uleb128 0
 3670 02ed A701     		.uleb128 .LEHB106-.LFB1393
 3671 02ef 2F       		.uleb128 .LEHE106-.LEHB106
 3672 02f0 A702     		.uleb128 .L200-.LFB1393
 3673 02f2 01       		.uleb128 0x1
 3674 02f3 D601     		.uleb128 .LEHB107-.LFB1393
 3675 02f5 1C       		.uleb128 .LEHE107-.LEHB107
 3676 02f6 8002     		.uleb128 .L201-.LFB1393
 3677 02f8 03       		.uleb128 0x3
 3678 02f9 F901     		.uleb128 .LEHB108-.LFB1393
 3679 02fb 05       		.uleb128 .LEHE108-.LEHB108
 3680 02fc A702     		.uleb128 .L200-.LFB1393
 3681 02fe 01       		.uleb128 0x1
 3682 02ff A202     		.uleb128 .LEHB109-.LFB1393
 3683 0301 05       		.uleb128 .LEHE109-.LEHB109
 3684 0302 00       		.uleb128 0
 3685 0303 00       		.uleb128 0
 3686 0304 AF02     		.uleb128 .LEHB110-.LFB1393
 3687 0306 38       		.uleb128 .LEHE110-.LEHB110
 3688 0307 9402     		.uleb128 .L202-.LFB1393
 3689 0309 00       		.uleb128 0
 3690 030a E702     		.uleb128 .LEHB111-.LFB1393
 3691 030c 05       		.uleb128 .LEHE111-.LEHB111
 3692 030d 00       		.uleb128 0
 3693 030e 00       		.uleb128 0
 3694              	.LLSDACSE1393:
 3695 030f 01       		.byte	0x1
 3696 0310 00       		.byte	0
 3697 0311 00       		.byte	0
 3698 0312 7D       		.byte	0x7d
 3699 0313 00       		.align 4
 3700 0314 00000000 		.long	0
 3701              	
 3702              	.LLSDATT1393:
 3703              		.text
 3705              		.align 2
 3707              	_ZN12_GLOBAL__N_154XmlTestReporterFixtureFailureMessageIsXMLEscapedHelperC2ERKN8UnitTest11TestDetai
 3708              	.LFB1395:
 114:TestXmlTestReporter.cpp **** 
 115:TestXmlTestReporter.cpp **** TEST_FIXTURE(XmlTestReporterFixture, FailureMessageIsXMLEscaped)
 3709              		.loc 3 115 0
 3710              		.cfi_startproc
 3711 1afe 55       		pushq	%rbp
 3712              		.cfi_def_cfa_offset 16
 3713              		.cfi_offset 6, -16
 3714 1aff 4889E5   		movq	%rsp, %rbp
 3715              		.cfi_def_cfa_register 6
 3716 1b02 4883EC10 		subq	$16, %rsp
 3717 1b06 48897DF8 		movq	%rdi, -8(%rbp)
 3718 1b0a 488975F0 		movq	%rsi, -16(%rbp)
 3719              	.LBB91:
 3720              		.loc 3 115 0
 3721 1b0e 488B45F8 		movq	-8(%rbp), %rax
 3722 1b12 4889C7   		movq	%rax, %rdi
 3723 1b15 E8E6E4FF 		call	_ZN12_GLOBAL__N_122XmlTestReporterFixtureC2Ev
 3723      FF
 3724 1b1a 488B45F8 		movq	-8(%rbp), %rax
 3725 1b1e 488B55F0 		movq	-16(%rbp), %rdx
 3726 1b22 48899088 		movq	%rdx, 392(%rax)
 3726      010000
 3727              	.LBE91:
 3728 1b29 C9       		leave
 3729              		.cfi_def_cfa 7, 8
 3730 1b2a C3       		ret
 3731              		.cfi_endproc
 3732              	.LFE1395:
 3734              		.section	.rodata
 3735              	.LC30:
 3736 0584 4661696C 		.string	"FailureMessageIsXMLEscaped"
 3736      7572654D 
 3736      65737361 
 3736      67654973 
 3736      584D4C45 
 3737              		.text
 3738 1b2b 90       		.align 2
 3740              	_ZN12_GLOBAL__N_152TestXmlTestReporterFixtureFailureMessageIsXMLEscapedC2Ev:
 3741              	.LFB1398:
 3742              		.loc 3 115 0
 3743              		.cfi_startproc
 3744 1b2c 55       		pushq	%rbp
 3745              		.cfi_def_cfa_offset 16
 3746              		.cfi_offset 6, -16
 3747 1b2d 4889E5   		movq	%rsp, %rbp
 3748              		.cfi_def_cfa_register 6
 3749 1b30 4883EC10 		subq	$16, %rsp
 3750 1b34 48897DF8 		movq	%rdi, -8(%rbp)
 3751              	.LBB92:
 3752              		.loc 3 115 0
 3753 1b38 E8000000 		call	_ZN13UnitTestSuite12GetSuiteNameEv
 3753      00
 3754 1b3d 4889C2   		movq	%rax, %rdx
 3755 1b40 488B45F8 		movq	-8(%rbp), %rax
 3756 1b44 41B87300 		movl	$115, %r8d
 3756      0000
 3757 1b4a B9000000 		movl	$.LC1, %ecx
 3757      00
 3758 1b4f BE000000 		movl	$.LC30, %esi
 3758      00
 3759 1b54 4889C7   		movq	%rax, %rdi
 3760 1b57 E8000000 		call	_ZN8UnitTest4TestC2EPKcS2_S2_i
 3760      00
 3761 1b5c 488B45F8 		movq	-8(%rbp), %rax
 3762 1b60 48C70000 		movq	$_ZTVN12_GLOBAL__N_152TestXmlTestReporterFixtureFailureMessageIsXMLEscapedE+16, (%rax)
 3762      000000
 3763              	.LBE92:
 3764 1b67 C9       		leave
 3765              		.cfi_def_cfa 7, 8
 3766 1b68 C3       		ret
 3767              		.cfi_endproc
 3768              	.LFE1398:
 3770              		.local	_ZN12_GLOBAL__N_160testXmlTestReporterFixtureFailureMessageIsXMLEscapedInstanceE
 3771              		.comm	_ZN12_GLOBAL__N_160testXmlTestReporterFixtureFailureMessageIsXMLEscapedInstanceE,56,32
 3772              		.local	_ZN12_GLOBAL__N_153adderXmlTestReporterFixtureFailureMessageIsXMLEscapedE
 3773              		.comm	_ZN12_GLOBAL__N_153adderXmlTestReporterFixtureFailureMessageIsXMLEscapedE,1,1
 3774 1b69 90       		.align 2
 3776              	_ZN12_GLOBAL__N_154XmlTestReporterFixtureFailureMessageIsXMLEscapedHelperD2Ev:
 3777              	.LFB1402:
 3778              		.loc 3 115 0
 3779              		.cfi_startproc
 3780 1b6a 55       		pushq	%rbp
 3781              		.cfi_def_cfa_offset 16
 3782              		.cfi_offset 6, -16
 3783 1b6b 4889E5   		movq	%rsp, %rbp
 3784              		.cfi_def_cfa_register 6
 3785 1b6e 4883EC10 		subq	$16, %rsp
 3786 1b72 48897DF8 		movq	%rdi, -8(%rbp)
 3787              	.LBB93:
 3788              		.loc 3 115 0
 3789 1b76 488B45F8 		movq	-8(%rbp), %rax
 3790 1b7a 4889C7   		movq	%rax, %rdi
 3791 1b7d E8DAE4FF 		call	_ZN12_GLOBAL__N_122XmlTestReporterFixtureD2Ev
 3791      FF
 3792              	.LBE93:
 3793 1b82 C9       		leave
 3794              		.cfi_def_cfa 7, 8
 3795 1b83 C3       		ret
 3796              		.cfi_endproc
 3797              	.LFE1402:
 3799              		.align 2
 3801              	_ZNK12_GLOBAL__N_152TestXmlTestReporterFixtureFailureMessageIsXMLEscaped7RunImplEv:
 3802              	.LFB1400:
 3803              		.loc 3 115 0
 3804              		.cfi_startproc
 3805              		.cfi_personality 0x3,__gxx_personality_v0
 3806              		.cfi_lsda 0x3,.LLSDA1400
 3807 1b84 55       		pushq	%rbp
 3808              		.cfi_def_cfa_offset 16
 3809              		.cfi_offset 6, -16
 3810 1b85 4889E5   		movq	%rsp, %rbp
 3811              		.cfi_def_cfa_register 6
 3812 1b88 4154     		pushq	%r12
 3813 1b8a 53       		pushq	%rbx
 3814 1b8b 4881ECF0 		subq	$496, %rsp
 3814      010000
 3815              		.cfi_offset 12, -24
 3816              		.cfi_offset 3, -32
 3817 1b92 4889BD08 		movq	%rdi, -504(%rbp)
 3817      FEFFFF
 3818              		.loc 3 115 0
 3819 1b99 64488B04 		movq	%fs:40, %rax
 3819      25280000 
 3819      00
 3820 1ba2 488945E8 		movq	%rax, -24(%rbp)
 3821 1ba6 31C0     		xorl	%eax, %eax
 3822              	.LBB94:
 3823 1ba8 C6851FFE 		movb	$0, -481(%rbp)
 3823      FFFF00
 3824              	.LBB95:
 3825 1baf 488B8508 		movq	-504(%rbp), %rax
 3825      FEFFFF
 3826 1bb6 488D5008 		leaq	8(%rax), %rdx
 3827 1bba 488D8550 		leaq	-432(%rbp), %rax
 3827      FEFFFF
 3828 1bc1 4889D6   		movq	%rdx, %rsi
 3829 1bc4 4889C7   		movq	%rax, %rdi
 3830              	.LEHB112:
 3831 1bc7 E832FFFF 		call	_ZN12_GLOBAL__N_154XmlTestReporterFixtureFailureMessageIsXMLEscapedHelperC2ERKN8UnitTest11Tes
 3831      FF
 3832              	.LEHE112:
 3833              		.loc 3 115 0 is_stmt 0 discriminator 1
 3834 1bcc C6851FFE 		movb	$1, -481(%rbp)
 3834      FFFF01
 3835 1bd3 488B8508 		movq	-504(%rbp), %rax
 3835      FEFFFF
 3836 1bda 488D5008 		leaq	8(%rax), %rdx
 3837 1bde 488D8550 		leaq	-432(%rbp), %rax
 3837      FEFFFF
 3838 1be5 4889D6   		movq	%rdx, %rsi
 3839 1be8 4889C7   		movq	%rax, %rdi
 3840              	.LEHB113:
 3841 1beb E8611D00 		call	_ZN8UnitTest11ExecuteTestIN12_GLOBAL__N_154XmlTestReporterFixtureFailureMessageIsXMLEscapedHe
 3841      00
 3842              	.LEHE113:
 3843              		.loc 3 115 0 discriminator 3
 3844 1bf0 488D8550 		leaq	-432(%rbp), %rax
 3844      FEFFFF
 3845 1bf7 4889C7   		movq	%rax, %rdi
 3846              	.LEHB114:
 3847 1bfa E86BFFFF 		call	_ZN12_GLOBAL__N_154XmlTestReporterFixtureFailureMessageIsXMLEscapedHelperD2Ev
 3847      FF
 3848              	.LEHE114:
 3849              	.LBE95:
 3850              	.LBE94:
 3851              		.loc 3 115 0
 3852 1bff E9640200 		jmp	.L229
 3852      00
 3853              	.L223:
 3854 1c04 4989C4   		movq	%rax, %r12
 3855 1c07 4889D3   		movq	%rdx, %rbx
 3856              	.LBB103:
 3857              	.LBB96:
 3858 1c0a 488D8550 		leaq	-432(%rbp), %rax
 3858      FEFFFF
 3859 1c11 4889C7   		movq	%rax, %rdi
 3860 1c14 E851FFFF 		call	_ZN12_GLOBAL__N_154XmlTestReporterFixtureFailureMessageIsXMLEscapedHelperD2Ev
 3860      FF
 3861 1c19 4C89E0   		movq	%r12, %rax
 3862 1c1c 4889DA   		movq	%rbx, %rdx
 3863 1c1f EB00     		jmp	.L210
 3864              	.L222:
 3865              	.L210:
 3866 1c21 4883FA01 		cmpq	$1, %rdx
 3867 1c25 745C     		je	.L212
 3868 1c27 4883FA02 		cmpq	$2, %rdx
 3869 1c2b 0F84F400 		je	.L213
 3869      0000
 3870 1c31 E9980100 		jmp	.L228
 3870      00
 3871              	.L224:
 3872 1c36 4889C3   		movq	%rax, %rbx
 3873              	.LBE96:
 3874              	.LBB97:
 3875 1c39 E8000000 		call	__cxa_end_catch
 3875      00
 3876 1c3e 4889D8   		movq	%rbx, %rax
 3877 1c41 4889C7   		movq	%rax, %rdi
 3878              	.LEHB115:
 3879 1c44 E8000000 		call	_Unwind_Resume
 3879      00
 3880              	.LEHE115:
 3881              	.L225:
 3882 1c49 4889C3   		movq	%rax, %rbx
 3883              	.LBE97:
 3884              	.LBB98:
 3885              	.LBB99:
 3886 1c4c 488D8550 		leaq	-432(%rbp), %rax
 3886      FEFFFF
 3887 1c53 4889C7   		movq	%rax, %rdi
 3888 1c56 E8000000 		call	_ZN8UnitTest15MemoryOutStreamD1Ev
 3888      00
 3889 1c5b EB03     		jmp	.L216
 3890              	.L226:
 3891 1c5d 4889C3   		movq	%rax, %rbx
 3892              	.L216:
 3893              	.LBE99:
 3894 1c60 E8000000 		call	__cxa_end_catch
 3894      00
 3895 1c65 4889D8   		movq	%rbx, %rax
 3896 1c68 4889C7   		movq	%rax, %rdi
 3897              	.LEHB116:
 3898 1c6b E8000000 		call	_Unwind_Resume
 3898      00
 3899              	.LEHE116:
 3900              	.L227:
 3901 1c70 4889C3   		movq	%rax, %rbx
 3902              	.LBE98:
 3903 1c73 E8000000 		call	__cxa_end_catch
 3903      00
 3904 1c78 4889D8   		movq	%rbx, %rax
 3905 1c7b 4889C7   		movq	%rax, %rdi
 3906              	.LEHB117:
 3907 1c7e E8000000 		call	_Unwind_Resume
 3907      00
 3908              	.LEHE117:
 3909              	.L212:
 3910              	.LBB101:
 3911 1c83 4889C7   		movq	%rax, %rdi
 3912 1c86 E8000000 		call	__cxa_begin_catch
 3912      00
 3913 1c8b 48898520 		movq	%rax, -480(%rbp)
 3913      FEFFFF
 3914 1c92 488B8520 		movq	-480(%rbp), %rax
 3914      FEFFFF
 3915 1c99 488B00   		movq	(%rax), %rax
 3916 1c9c 4883C010 		addq	$16, %rax
 3917 1ca0 488B00   		movq	(%rax), %rax
 3918 1ca3 488B9520 		movq	-480(%rbp), %rdx
 3918      FEFFFF
 3919 1caa 4889D7   		movq	%rdx, %rdi
 3920 1cad FFD0     		call	*%rax
 3921 1caf 4889C3   		movq	%rax, %rbx
 3922 1cb2 488B8520 		movq	-480(%rbp), %rax
 3922      FEFFFF
 3923 1cb9 4889C7   		movq	%rax, %rdi
 3924              	.LEHB118:
 3925 1cbc E8000000 		call	_ZNK8UnitTest15AssertException10LineNumberEv
 3925      00
 3926 1cc1 4189C4   		movl	%eax, %r12d
 3927 1cc4 488B8520 		movq	-480(%rbp), %rax
 3927      FEFFFF
 3928 1ccb 4889C7   		movq	%rax, %rdi
 3929 1cce E8000000 		call	_ZNK8UnitTest15AssertException8FilenameEv
 3929      00
 3930              		.loc 3 115 0 discriminator 5
 3931 1cd3 4889C1   		movq	%rax, %rcx
 3932 1cd6 488B8508 		movq	-504(%rbp), %rax
 3932      FEFFFF
 3933 1cdd 488B5008 		movq	8(%rax), %rdx
 3934 1ce1 488B8508 		movq	-504(%rbp), %rax
 3934      FEFFFF
 3935 1ce8 488B7010 		movq	16(%rax), %rsi
 3936 1cec 488D8530 		leaq	-464(%rbp), %rax
 3936      FEFFFF
 3937 1cf3 4589E0   		movl	%r12d, %r8d
 3938 1cf6 4889C7   		movq	%rax, %rdi
 3939 1cf9 E8000000 		call	_ZN8UnitTest11TestDetailsC1EPKcS2_S2_i
 3939      00
 3940              		.loc 3 115 0 discriminator 9
 3941 1cfe E8000000 		call	_ZN8UnitTest11CurrentTest7ResultsEv
 3941      00
 3942 1d03 488B00   		movq	(%rax), %rax
 3943 1d06 488D8D30 		leaq	-464(%rbp), %rcx
 3943      FEFFFF
 3944 1d0d 4889DA   		movq	%rbx, %rdx
 3945 1d10 4889CE   		movq	%rcx, %rsi
 3946 1d13 4889C7   		movq	%rax, %rdi
 3947 1d16 E8000000 		call	_ZN8UnitTest11TestResults13OnTestFailureERKNS_11TestDetailsEPKc
 3947      00
 3948              	.LEHE118:
 3949              		.loc 3 115 0 discriminator 13
 3950 1d1b E8000000 		call	__cxa_end_catch
 3950      00
 3951              	.LBE101:
 3952              	.LBE103:
 3953 1d20 E9430100 		jmp	.L229
 3953      00
 3954              	.L213:
 3955              	.LBB104:
 3956              	.LBB102:
 3957              		.loc 3 115 0
 3958 1d25 4889C7   		movq	%rax, %rdi
 3959 1d28 E8000000 		call	__cxa_begin_catch
 3959      00
 3960 1d2d 48898528 		movq	%rax, -472(%rbp)
 3960      FEFFFF
 3961              	.LBB100:
 3962 1d34 488D8550 		leaq	-432(%rbp), %rax
 3962      FEFFFF
 3963 1d3b 4889C7   		movq	%rax, %rdi
 3964              	.LEHB119:
 3965 1d3e E8000000 		call	_ZN8UnitTest15MemoryOutStreamC1Ev
 3965      00
 3966              	.LEHE119:
 3967              		.loc 3 115 0 discriminator 15
 3968 1d43 488B8528 		movq	-472(%rbp), %rax
 3968      FEFFFF
 3969 1d4a 488B00   		movq	(%rax), %rax
 3970 1d4d 4883C010 		addq	$16, %rax
 3971 1d51 488B00   		movq	(%rax), %rax
 3972 1d54 488B9528 		movq	-472(%rbp), %rdx
 3972      FEFFFF
 3973 1d5b 4889D7   		movq	%rdx, %rdi
 3974 1d5e FFD0     		call	*%rax
 3975 1d60 4889C3   		movq	%rax, %rbx
 3976 1d63 488D8550 		leaq	-432(%rbp), %rax
 3976      FEFFFF
 3977 1d6a BE000000 		movl	$.LC3, %esi
 3977      00
 3978 1d6f 4889C7   		movq	%rax, %rdi
 3979              	.LEHB120:
 3980 1d72 E8000000 		call	_ZStlsISt11char_traitsIcEERSt13basic_ostreamIcT_ES5_PKc
 3980      00
 3981 1d77 4889DE   		movq	%rbx, %rsi
 3982 1d7a 4889C7   		movq	%rax, %rdi
 3983 1d7d E8000000 		call	_ZStlsISt11char_traitsIcEERSt13basic_ostreamIcT_ES5_PKc
 3983      00
 3984              		.loc 3 115 0 discriminator 19
 3985 1d82 488D8550 		leaq	-432(%rbp), %rax
 3985      FEFFFF
 3986 1d89 4889C7   		movq	%rax, %rdi
 3987 1d8c E8000000 		call	_ZNK8UnitTest15MemoryOutStream7GetTextEv
 3987      00
 3988 1d91 4989C4   		movq	%rax, %r12
 3989 1d94 488B8508 		movq	-504(%rbp), %rax
 3989      FEFFFF
 3990 1d9b 488D5808 		leaq	8(%rax), %rbx
 3991 1d9f E8000000 		call	_ZN8UnitTest11CurrentTest7ResultsEv
 3991      00
 3992              		.loc 3 115 0 discriminator 21
 3993 1da4 488B00   		movq	(%rax), %rax
 3994 1da7 4C89E2   		movq	%r12, %rdx
 3995 1daa 4889DE   		movq	%rbx, %rsi
 3996 1dad 4889C7   		movq	%rax, %rdi
 3997 1db0 E8000000 		call	_ZN8UnitTest11TestResults13OnTestFailureERKNS_11TestDetailsEPKc
 3997      00
 3998              	.LEHE120:
 3999              		.loc 3 115 0 discriminator 25
 4000 1db5 488D8550 		leaq	-432(%rbp), %rax
 4000      FEFFFF
 4001 1dbc 4889C7   		movq	%rax, %rdi
 4002              	.LEHB121:
 4003 1dbf E8000000 		call	_ZN8UnitTest15MemoryOutStreamD1Ev
 4003      00
 4004              	.LEHE121:
 4005              	.LBE100:
 4006              		.loc 3 115 0 discriminator 26
 4007 1dc4 E8000000 		call	__cxa_end_catch
 4007      00
 4008              	.LBE102:
 4009              	.LBE104:
 4010 1dc9 E99A0000 		jmp	.L229
 4010      00
 4011              	.L228:
 4012              	.LBB105:
 4013              		.loc 3 115 0
 4014 1dce 4889C7   		movq	%rax, %rdi
 4015 1dd1 E8000000 		call	__cxa_begin_catch
 4015      00
 4016 1dd6 80BD1FFE 		cmpb	$0, -481(%rbp)
 4016      FFFF00
 4017 1ddd 7443     		je	.L219
 4018              		.loc 3 115 0 discriminator 28
 4019 1ddf 488B8508 		movq	-504(%rbp), %rax
 4019      FEFFFF
 4020 1de6 488D4808 		leaq	8(%rax), %rcx
 4021 1dea 488D8530 		leaq	-464(%rbp), %rax
 4021      FEFFFF
 4022 1df1 BA730000 		movl	$115, %edx
 4022      00
 4023 1df6 4889CE   		movq	%rcx, %rsi
 4024 1df9 4889C7   		movq	%rax, %rdi
 4025              	.LEHB122:
 4026 1dfc E8000000 		call	_ZN8UnitTest11TestDetailsC1ERKS0_i
 4026      00
 4027              		.loc 3 115 0 discriminator 31
 4028 1e01 E8000000 		call	_ZN8UnitTest11CurrentTest7ResultsEv
 4028      00
 4029 1e06 488B00   		movq	(%rax), %rax
 4030 1e09 488D8D30 		leaq	-464(%rbp), %rcx
 4030      FEFFFF
 4031 1e10 BA000000 		movl	$.LC4, %edx
 4031      00
 4032 1e15 4889CE   		movq	%rcx, %rsi
 4033 1e18 4889C7   		movq	%rax, %rdi
 4034 1e1b E8000000 		call	_ZN8UnitTest11TestResults13OnTestFailureERKNS_11TestDetailsEPKc
 4034      00
 4035 1e20 EB41     		jmp	.L220
 4036              	.L219:
 4037              		.loc 3 115 0 discriminator 29
 4038 1e22 488B8508 		movq	-504(%rbp), %rax
 4038      FEFFFF
 4039 1e29 488D4808 		leaq	8(%rax), %rcx
 4040 1e2d 488D8530 		leaq	-464(%rbp), %rax
 4040      FEFFFF
 4041 1e34 BA730000 		movl	$115, %edx
 4041      00
 4042 1e39 4889CE   		movq	%rcx, %rsi
 4043 1e3c 4889C7   		movq	%rax, %rdi
 4044 1e3f E8000000 		call	_ZN8UnitTest11TestDetailsC1ERKS0_i
 4044      00
 4045              		.loc 3 115 0 discriminator 38
 4046 1e44 E8000000 		call	_ZN8UnitTest11CurrentTest7ResultsEv
 4046      00
 4047 1e49 488B00   		movq	(%rax), %rax
 4048 1e4c 488D8D30 		leaq	-464(%rbp), %rcx
 4048      FEFFFF
 4049 1e53 BA000000 		movl	$.LC5, %edx
 4049      00
 4050 1e58 4889CE   		movq	%rcx, %rsi
 4051 1e5b 4889C7   		movq	%rax, %rdi
 4052 1e5e E8000000 		call	_ZN8UnitTest11TestResults13OnTestFailureERKNS_11TestDetailsEPKc
 4052      00
 4053              	.LEHE122:
 4054              	.L220:
 4055              	.LEHB123:
 4056              		.loc 3 115 0 discriminator 43
 4057 1e63 E8000000 		call	__cxa_end_catch
 4057      00
 4058              	.LEHE123:
 4059              	.L229:
 4060              	.LBE105:
 4061              		.loc 3 115 0
 4062 1e68 90       		nop
 4063 1e69 488B45E8 		movq	-24(%rbp), %rax
 4064 1e6d 64483304 		xorq	%fs:40, %rax
 4064      25280000 
 4064      00
 4065 1e76 7405     		je	.L221
 4066 1e78 E8000000 		call	__stack_chk_fail
 4066      00
 4067              	.L221:
 4068 1e7d 4881C4F0 		addq	$496, %rsp
 4068      010000
 4069 1e84 5B       		popq	%rbx
 4070 1e85 415C     		popq	%r12
 4071 1e87 5D       		popq	%rbp
 4072              		.cfi_def_cfa 7, 8
 4073 1e88 C3       		ret
 4074              		.cfi_endproc
 4075              	.LFE1400:
 4076              		.section	.gcc_except_table
 4077              		.align 4
 4078              	.LLSDA1400:
 4079 0318 FF       		.byte	0xff
 4080 0319 03       		.byte	0x3
 4081 031a 59       		.uleb128 .LLSDATT1400-.LLSDATTD1400
 4082              	.LLSDATTD1400:
 4083 031b 01       		.byte	0x1
 4084 031c 41       		.uleb128 .LLSDACSE1400-.LLSDACSB1400
 4085              	.LLSDACSB1400:
 4086 031d 43       		.uleb128 .LEHB112-.LFB1400
 4087 031e 05       		.uleb128 .LEHE112-.LEHB112
 4088 031f 9D01     		.uleb128 .L222-.LFB1400
 4089 0321 05       		.uleb128 0x5
 4090 0322 67       		.uleb128 .LEHB113-.LFB1400
 4091 0323 05       		.uleb128 .LEHE113-.LEHB113
 4092 0324 8001     		.uleb128 .L223-.LFB1400
 4093 0326 07       		.uleb128 0x7
 4094 0327 76       		.uleb128 .LEHB114-.LFB1400
 4095 0328 05       		.uleb128 .LEHE114-.LEHB114
 4096 0329 9D01     		.uleb128 .L222-.LFB1400
 4097 032b 05       		.uleb128 0x5
 4098 032c C001     		.uleb128 .LEHB115-.LFB1400
 4099 032e 05       		.uleb128 .LEHE115-.LEHB115
 4100 032f 00       		.uleb128 0
 4101 0330 00       		.uleb128 0
 4102 0331 E701     		.uleb128 .LEHB116-.LFB1400
 4103 0333 05       		.uleb128 .LEHE116-.LEHB116
 4104 0334 00       		.uleb128 0
 4105 0335 00       		.uleb128 0
 4106 0336 FA01     		.uleb128 .LEHB117-.LFB1400
 4107 0338 05       		.uleb128 .LEHE117-.LEHB117
 4108 0339 00       		.uleb128 0
 4109 033a 00       		.uleb128 0
 4110 033b B802     		.uleb128 .LEHB118-.LFB1400
 4111 033d 5F       		.uleb128 .LEHE118-.LEHB118
 4112 033e B201     		.uleb128 .L224-.LFB1400
 4113 0340 00       		.uleb128 0
 4114 0341 BA03     		.uleb128 .LEHB119-.LFB1400
 4115 0343 05       		.uleb128 .LEHE119-.LEHB119
 4116 0344 D901     		.uleb128 .L226-.LFB1400
 4117 0346 00       		.uleb128 0
 4118 0347 EE03     		.uleb128 .LEHB120-.LFB1400
 4119 0349 43       		.uleb128 .LEHE120-.LEHB120
 4120 034a C501     		.uleb128 .L225-.LFB1400
 4121 034c 00       		.uleb128 0
 4122 034d BB04     		.uleb128 .LEHB121-.LFB1400
 4123 034f 05       		.uleb128 .LEHE121-.LEHB121
 4124 0350 D901     		.uleb128 .L226-.LFB1400
 4125 0352 00       		.uleb128 0
 4126 0353 F804     		.uleb128 .LEHB122-.LFB1400
 4127 0355 67       		.uleb128 .LEHE122-.LEHB122
 4128 0356 EC01     		.uleb128 .L227-.LFB1400
 4129 0358 00       		.uleb128 0
 4130 0359 DF05     		.uleb128 .LEHB123-.LFB1400
 4131 035b 05       		.uleb128 .LEHE123-.LEHB123
 4132 035c 00       		.uleb128 0
 4133 035d 00       		.uleb128 0
 4134              	.LLSDACSE1400:
 4135 035e 03       		.byte	0x3
 4136 035f 00       		.byte	0
 4137 0360 02       		.byte	0x2
 4138 0361 7D       		.byte	0x7d
 4139 0362 01       		.byte	0x1
 4140 0363 7D       		.byte	0x7d
 4141 0364 00       		.byte	0
 4142 0365 7D       		.byte	0x7d
 4143 0366 0000     		.align 4
 4144 0368 00000000 		.long	0
 4145              	
 4146 036c 00000000 		.long	_ZTISt9exception
 4147 0370 00000000 		.long	_ZTIN8UnitTest15AssertExceptionE
 4148              	.LLSDATT1400:
 4149              		.text
 4151              		.section	.rodata
 4152              	.LC31:
 4153 059f 2227263C 		.string	"\"'&<>"
 4153      3E00
 4154 05a5 000000   		.align 8
 4155              	.LC32:
 4156 05a8 3C3F786D 		.string	"<?xml version=\"1.0\"?><unittest-results tests=\"1\" failedtests=\"1\" failures=\"1\" tim
 4156      6C207665 
 4156      7273696F 
 4156      6E3D2231 
 4156      2E30223F 
 4157              		.text
 4158 1e89 90       		.align 2
 4160              	_ZN12_GLOBAL__N_154XmlTestReporterFixtureFailureMessageIsXMLEscapedHelper7RunImplEv:
 4161              	.LFB1404:
 116:TestXmlTestReporter.cpp **** {
 4162              		.loc 3 116 0 is_stmt 1
 4163              		.cfi_startproc
 4164              		.cfi_personality 0x3,__gxx_personality_v0
 4165              		.cfi_lsda 0x3,.LLSDA1404
 4166 1e8a 55       		pushq	%rbp
 4167              		.cfi_def_cfa_offset 16
 4168              		.cfi_offset 6, -16
 4169 1e8b 4889E5   		movq	%rsp, %rbp
 4170              		.cfi_def_cfa_register 6
 4171 1e8e 53       		pushq	%rbx
 4172 1e8f 4883EC78 		subq	$120, %rsp
 4173              		.cfi_offset 3, -24
 4174 1e93 48897D88 		movq	%rdi, -120(%rbp)
 4175              		.loc 3 116 0
 4176 1e97 64488B04 		movq	%fs:40, %rax
 4176      25280000 
 4176      00
 4177 1ea0 488945E8 		movq	%rax, -24(%rbp)
 4178 1ea4 31C0     		xorl	%eax, %eax
 4179              	.LBB106:
 117:TestXmlTestReporter.cpp ****     TestDetails const details("TestName", "suite", "filename.h", 4321);
 4180              		.loc 3 117 0
 4181 1ea6 488D45A0 		leaq	-96(%rbp), %rax
 4182 1eaa 41B8E110 		movl	$4321, %r8d
 4182      0000
 4183 1eb0 B9000000 		movl	$.LC6, %ecx
 4183      00
 4184 1eb5 BA000000 		movl	$.LC7, %edx
 4184      00
 4185 1eba BE000000 		movl	$.LC8, %esi
 4185      00
 4186 1ebf 4889C7   		movq	%rax, %rdi
 4187              	.LEHB124:
 4188 1ec2 E8000000 		call	_ZN8UnitTest11TestDetailsC1EPKcS2_S2_i
 4188      00
 118:TestXmlTestReporter.cpp **** 
 119:TestXmlTestReporter.cpp ****     reporter.ReportTestStart(details);
 4189              		.loc 3 119 0
 4190 1ec7 488B4588 		movq	-120(%rbp), %rax
 4191 1ecb 488D9060 		leaq	352(%rax), %rdx
 4191      010000
 4192 1ed2 488D45A0 		leaq	-96(%rbp), %rax
 4193 1ed6 4889C6   		movq	%rax, %rsi
 4194 1ed9 4889D7   		movq	%rdx, %rdi
 4195 1edc E8000000 		call	_ZN8UnitTest20DeferredTestReporter15ReportTestStartERKNS_11TestDetailsE
 4195      00
 120:TestXmlTestReporter.cpp ****     reporter.ReportFailure(details, "\"\'&<>");
 4196              		.loc 3 120 0
 4197 1ee1 488B4588 		movq	-120(%rbp), %rax
 4198 1ee5 488D8860 		leaq	352(%rax), %rcx
 4198      010000
 4199 1eec 488D45A0 		leaq	-96(%rbp), %rax
 4200 1ef0 BA000000 		movl	$.LC31, %edx
 4200      00
 4201 1ef5 4889C6   		movq	%rax, %rsi
 4202 1ef8 4889CF   		movq	%rcx, %rdi
 4203 1efb E8000000 		call	_ZN8UnitTest20DeferredTestReporter13ReportFailureERKNS_11TestDetailsEPKc
 4203      00
 121:TestXmlTestReporter.cpp ****     reporter.ReportTestFinish(details, 0.1f);
 4204              		.loc 3 121 0
 4205 1f00 488B4588 		movq	-120(%rbp), %rax
 4206 1f04 488D9060 		leaq	352(%rax), %rdx
 4206      010000
 4207 1f0b 488D45A0 		leaq	-96(%rbp), %rax
 4208 1f0f F30F1005 		movss	.LC10(%rip), %xmm0
 4208      00000000 
 4209 1f17 4889C6   		movq	%rax, %rsi
 4210 1f1a 4889D7   		movq	%rdx, %rdi
 4211 1f1d E8000000 		call	_ZN8UnitTest20DeferredTestReporter16ReportTestFinishERKNS_11TestDetailsEf
 4211      00
 122:TestXmlTestReporter.cpp ****     reporter.ReportSummary(1, 1, 1, 0.1f);
 4212              		.loc 3 122 0
 4213 1f22 488B4588 		movq	-120(%rbp), %rax
 4214 1f26 48056001 		addq	$352, %rax
 4214      0000
 4215 1f2c F30F1005 		movss	.LC10(%rip), %xmm0
 4215      00000000 
 4216 1f34 B9010000 		movl	$1, %ecx
 4216      00
 4217 1f39 BA010000 		movl	$1, %edx
 4217      00
 4218 1f3e BE010000 		movl	$1, %esi
 4218      00
 4219 1f43 4889C7   		movq	%rax, %rdi
 4220 1f46 E8000000 		call	_ZN8UnitTest15XmlTestReporter13ReportSummaryEiiif
 4220      00
 4221              	.LEHE124:
 123:TestXmlTestReporter.cpp **** 
 124:TestXmlTestReporter.cpp ****     char const* expected =
 125:TestXmlTestReporter.cpp ****         "<?xml version=\"1.0\"?>"
 126:TestXmlTestReporter.cpp ****         "<unittest-results tests=\"1\" failedtests=\"1\" failures=\"1\" time=\"0.1\">"
 127:TestXmlTestReporter.cpp ****         "<test suite=\"suite\" name=\"TestName\" time=\"0.1\">"
 128:TestXmlTestReporter.cpp ****         "<failure message=\"filename.h(4321) : &quot;&apos;&amp;&lt;&gt;\"/>"
 129:TestXmlTestReporter.cpp ****         "</test>"
 130:TestXmlTestReporter.cpp ****         "</unittest-results>";
 4222              		.loc 3 130 0
 4223 1f4b 48C74598 		movq	$.LC32, -104(%rbp)
 4223      00000000 
 4224              	.LEHB125:
 131:TestXmlTestReporter.cpp **** 
 132:TestXmlTestReporter.cpp ****     CHECK_EQUAL(expected, output.str());
 4225              		.loc 3 132 0
 4226 1f53 E8000000 		call	_ZN8UnitTest11CurrentTest7DetailsEv
 4226      00
 4227 1f58 488B08   		movq	(%rax), %rcx
 4228 1f5b 488D45C0 		leaq	-64(%rbp), %rax
 4229 1f5f BA840000 		movl	$132, %edx
 4229      00
 4230 1f64 4889CE   		movq	%rcx, %rsi
 4231 1f67 4889C7   		movq	%rax, %rdi
 4232 1f6a E8000000 		call	_ZN8UnitTest11TestDetailsC1ERKS0_i
 4232      00
 4233              		.loc 3 132 0 is_stmt 0 discriminator 2
 4234 1f6f 488B5588 		movq	-120(%rbp), %rdx
 4235 1f73 488D4590 		leaq	-112(%rbp), %rax
 4236 1f77 4889D6   		movq	%rdx, %rsi
 4237 1f7a 4889C7   		movq	%rax, %rdi
 4238 1f7d E8000000 		call	_ZNKSt19basic_ostringstreamIcSt11char_traitsIcESaIcEE3strEv
 4238      00
 4239              	.LEHE125:
 4240              	.LEHB126:
 4241              		.loc 3 132 0 discriminator 4
 4242 1f82 E8000000 		call	_ZN8UnitTest11CurrentTest7ResultsEv
 4242      00
 4243 1f87 488B00   		movq	(%rax), %rax
 4244 1f8a 488D4DC0 		leaq	-64(%rbp), %rcx
 4245 1f8e 488D5590 		leaq	-112(%rbp), %rdx
 4246 1f92 488D7598 		leaq	-104(%rbp), %rsi
 4247 1f96 4889C7   		movq	%rax, %rdi
 4248 1f99 E8000000 		call	_ZN8UnitTest10CheckEqualIPKcSsEEvRNS_11TestResultsERKT_RKT0_RKNS_11TestDetailsE
 4248      00
 4249              	.LEHE126:
 4250              		.loc 3 132 0 discriminator 8
 4251 1f9e 488D4590 		leaq	-112(%rbp), %rax
 4252 1fa2 4889C7   		movq	%rax, %rdi
 4253              	.LEHB127:
 4254 1fa5 E8000000 		call	_ZNSsD1Ev
 4254      00
 4255              	.LEHE127:
 4256              	.LBE106:
 133:TestXmlTestReporter.cpp **** }
 4257              		.loc 3 133 0 is_stmt 1
 4258 1faa EB6C     		jmp	.L239
 4259              	.L237:
 4260 1fac 4889C3   		movq	%rax, %rbx
 4261              	.LBB107:
 132:TestXmlTestReporter.cpp **** }
 4262              		.loc 3 132 0
 4263 1faf 488D4590 		leaq	-112(%rbp), %rax
 4264 1fb3 4889C7   		movq	%rax, %rdi
 4265 1fb6 E8000000 		call	_ZNSsD1Ev
 4265      00
 4266 1fbb 4889D8   		movq	%rbx, %rax
 4267 1fbe EB13     		jmp	.L232
 4268              	.L238:
 4269 1fc0 4889C3   		movq	%rax, %rbx
 4270 1fc3 E8000000 		call	__cxa_end_catch
 4270      00
 4271 1fc8 4889D8   		movq	%rbx, %rax
 4272 1fcb 4889C7   		movq	%rax, %rdi
 4273              	.LEHB128:
 4274 1fce E8000000 		call	_Unwind_Resume
 4274      00
 4275              	.LEHE128:
 4276              	.L236:
 4277              	.L232:
 4278 1fd3 4889C7   		movq	%rax, %rdi
 4279 1fd6 E8000000 		call	__cxa_begin_catch
 4279      00
 4280              	.LEHB129:
 4281 1fdb E8000000 		call	_ZN8UnitTest11CurrentTest7DetailsEv
 4281      00
 4282 1fe0 488B08   		movq	(%rax), %rcx
 4283 1fe3 488D45C0 		leaq	-64(%rbp), %rax
 4284 1fe7 BA840000 		movl	$132, %edx
 4284      00
 4285 1fec 4889CE   		movq	%rcx, %rsi
 4286 1fef 4889C7   		movq	%rax, %rdi
 4287 1ff2 E8000000 		call	_ZN8UnitTest11TestDetailsC1ERKS0_i
 4287      00
 132:TestXmlTestReporter.cpp **** }
 4288              		.loc 3 132 0 is_stmt 0 discriminator 14
 4289 1ff7 E8000000 		call	_ZN8UnitTest11CurrentTest7ResultsEv
 4289      00
 4290 1ffc 488B00   		movq	(%rax), %rax
 4291 1fff 488D4DC0 		leaq	-64(%rbp), %rcx
 4292 2003 BA000000 		movl	$.LC12, %edx
 4292      00
 4293 2008 4889CE   		movq	%rcx, %rsi
 4294 200b 4889C7   		movq	%rax, %rdi
 4295 200e E8000000 		call	_ZN8UnitTest11TestResults13OnTestFailureERKNS_11TestDetailsEPKc
 4295      00
 4296              	.LEHE129:
 4297              	.LEHB130:
 132:TestXmlTestReporter.cpp **** }
 4298              		.loc 3 132 0 discriminator 18
 4299 2013 E8000000 		call	__cxa_end_catch
 4299      00
 4300              	.LEHE130:
 4301              	.L239:
 4302              	.LBE107:
 4303              		.loc 3 133 0 is_stmt 1
 4304 2018 90       		nop
 4305 2019 488B45E8 		movq	-24(%rbp), %rax
 4306 201d 64483304 		xorq	%fs:40, %rax
 4306      25280000 
 4306      00
 4307 2026 7405     		je	.L235
 4308 2028 E8000000 		call	__stack_chk_fail
 4308      00
 4309              	.L235:
 4310 202d 4883C478 		addq	$120, %rsp
 4311 2031 5B       		popq	%rbx
 4312 2032 5D       		popq	%rbp
 4313              		.cfi_def_cfa 7, 8
 4314 2033 C3       		ret
 4315              		.cfi_endproc
 4316              	.LFE1404:
 4317              		.section	.gcc_except_table
 4318              		.align 4
 4319              	.LLSDA1404:
 4320 0374 FF       		.byte	0xff
 4321 0375 03       		.byte	0x3
 4322 0376 31       		.uleb128 .LLSDATT1404-.LLSDATTD1404
 4323              	.LLSDATTD1404:
 4324 0377 01       		.byte	0x1
 4325 0378 27       		.uleb128 .LLSDACSE1404-.LLSDACSB1404
 4326              	.LLSDACSB1404:
 4327 0379 38       		.uleb128 .LEHB124-.LFB1404
 4328 037a 8901     		.uleb128 .LEHE124-.LEHB124
 4329 037c 00       		.uleb128 0
 4330 037d 00       		.uleb128 0
 4331 037e C901     		.uleb128 .LEHB125-.LFB1404
 4332 0380 2F       		.uleb128 .LEHE125-.LEHB125
 4333 0381 C902     		.uleb128 .L236-.LFB1404
 4334 0383 01       		.uleb128 0x1
 4335 0384 F801     		.uleb128 .LEHB126-.LFB1404
 4336 0386 1C       		.uleb128 .LEHE126-.LEHB126
 4337 0387 A202     		.uleb128 .L237-.LFB1404
 4338 0389 03       		.uleb128 0x3
 4339 038a 9B02     		.uleb128 .LEHB127-.LFB1404
 4340 038c 05       		.uleb128 .LEHE127-.LEHB127
 4341 038d C902     		.uleb128 .L236-.LFB1404
 4342 038f 01       		.uleb128 0x1
 4343 0390 C402     		.uleb128 .LEHB128-.LFB1404
 4344 0392 05       		.uleb128 .LEHE128-.LEHB128
 4345 0393 00       		.uleb128 0
 4346 0394 00       		.uleb128 0
 4347 0395 D102     		.uleb128 .LEHB129-.LFB1404
 4348 0397 38       		.uleb128 .LEHE129-.LEHB129
 4349 0398 B602     		.uleb128 .L238-.LFB1404
 4350 039a 00       		.uleb128 0
 4351 039b 8903     		.uleb128 .LEHB130-.LFB1404
 4352 039d 05       		.uleb128 .LEHE130-.LEHB130
 4353 039e 00       		.uleb128 0
 4354 039f 00       		.uleb128 0
 4355              	.LLSDACSE1404:
 4356 03a0 01       		.byte	0x1
 4357 03a1 00       		.byte	0
 4358 03a2 00       		.byte	0
 4359 03a3 7D       		.byte	0x7d
 4360              		.align 4
 4361 03a4 00000000 		.long	0
 4362              	
 4363              	.LLSDATT1404:
 4364              		.text
 4366              		.align 2
 4368              	_ZN12_GLOBAL__N_151XmlTestReporterFixtureOneFailureAndOneSuccessHelperC2ERKN8UnitTest11TestDetailsE
 4369              	.LFB1406:
 134:TestXmlTestReporter.cpp **** 
 135:TestXmlTestReporter.cpp **** TEST_FIXTURE(XmlTestReporterFixture, OneFailureAndOneSuccess)
 4370              		.loc 3 135 0
 4371              		.cfi_startproc
 4372 2034 55       		pushq	%rbp
 4373              		.cfi_def_cfa_offset 16
 4374              		.cfi_offset 6, -16
 4375 2035 4889E5   		movq	%rsp, %rbp
 4376              		.cfi_def_cfa_register 6
 4377 2038 4883EC10 		subq	$16, %rsp
 4378 203c 48897DF8 		movq	%rdi, -8(%rbp)
 4379 2040 488975F0 		movq	%rsi, -16(%rbp)
 4380              	.LBB108:
 4381              		.loc 3 135 0
 4382 2044 488B45F8 		movq	-8(%rbp), %rax
 4383 2048 4889C7   		movq	%rax, %rdi
 4384 204b E8B0DFFF 		call	_ZN12_GLOBAL__N_122XmlTestReporterFixtureC2Ev
 4384      FF
 4385 2050 488B45F8 		movq	-8(%rbp), %rax
 4386 2054 488B55F0 		movq	-16(%rbp), %rdx
 4387 2058 48899088 		movq	%rdx, 392(%rax)
 4387      010000
 4388              	.LBE108:
 4389 205f C9       		leave
 4390              		.cfi_def_cfa 7, 8
 4391 2060 C3       		ret
 4392              		.cfi_endproc
 4393              	.LFE1406:
 4395              		.section	.rodata
 4396              	.LC33:
 4397 068c 4F6E6546 		.string	"OneFailureAndOneSuccess"
 4397      61696C75 
 4397      7265416E 
 4397      644F6E65 
 4397      53756363 
 4398              		.text
 4399 2061 90       		.align 2
 4401              	_ZN12_GLOBAL__N_149TestXmlTestReporterFixtureOneFailureAndOneSuccessC2Ev:
 4402              	.LFB1409:
 4403              		.loc 3 135 0
 4404              		.cfi_startproc
 4405 2062 55       		pushq	%rbp
 4406              		.cfi_def_cfa_offset 16
 4407              		.cfi_offset 6, -16
 4408 2063 4889E5   		movq	%rsp, %rbp
 4409              		.cfi_def_cfa_register 6
 4410 2066 4883EC10 		subq	$16, %rsp
 4411 206a 48897DF8 		movq	%rdi, -8(%rbp)
 4412              	.LBB109:
 4413              		.loc 3 135 0
 4414 206e E8000000 		call	_ZN13UnitTestSuite12GetSuiteNameEv
 4414      00
 4415 2073 4889C2   		movq	%rax, %rdx
 4416 2076 488B45F8 		movq	-8(%rbp), %rax
 4417 207a 41B88700 		movl	$135, %r8d
 4417      0000
 4418 2080 B9000000 		movl	$.LC1, %ecx
 4418      00
 4419 2085 BE000000 		movl	$.LC33, %esi
 4419      00
 4420 208a 4889C7   		movq	%rax, %rdi
 4421 208d E8000000 		call	_ZN8UnitTest4TestC2EPKcS2_S2_i
 4421      00
 4422 2092 488B45F8 		movq	-8(%rbp), %rax
 4423 2096 48C70000 		movq	$_ZTVN12_GLOBAL__N_149TestXmlTestReporterFixtureOneFailureAndOneSuccessE+16, (%rax)
 4423      000000
 4424              	.LBE109:
 4425 209d C9       		leave
 4426              		.cfi_def_cfa 7, 8
 4427 209e C3       		ret
 4428              		.cfi_endproc
 4429              	.LFE1409:
 4431              		.local	_ZN12_GLOBAL__N_157testXmlTestReporterFixtureOneFailureAndOneSuccessInstanceE
 4432              		.comm	_ZN12_GLOBAL__N_157testXmlTestReporterFixtureOneFailureAndOneSuccessInstanceE,56,32
 4433              		.local	_ZN12_GLOBAL__N_150adderXmlTestReporterFixtureOneFailureAndOneSuccessE
 4434              		.comm	_ZN12_GLOBAL__N_150adderXmlTestReporterFixtureOneFailureAndOneSuccessE,1,1
 4435 209f 90       		.align 2
 4437              	_ZN12_GLOBAL__N_151XmlTestReporterFixtureOneFailureAndOneSuccessHelperD2Ev:
 4438              	.LFB1413:
 4439              		.loc 3 135 0
 4440              		.cfi_startproc
 4441 20a0 55       		pushq	%rbp
 4442              		.cfi_def_cfa_offset 16
 4443              		.cfi_offset 6, -16
 4444 20a1 4889E5   		movq	%rsp, %rbp
 4445              		.cfi_def_cfa_register 6
 4446 20a4 4883EC10 		subq	$16, %rsp
 4447 20a8 48897DF8 		movq	%rdi, -8(%rbp)
 4448              	.LBB110:
 4449              		.loc 3 135 0
 4450 20ac 488B45F8 		movq	-8(%rbp), %rax
 4451 20b0 4889C7   		movq	%rax, %rdi
 4452 20b3 E8A4DFFF 		call	_ZN12_GLOBAL__N_122XmlTestReporterFixtureD2Ev
 4452      FF
 4453              	.LBE110:
 4454 20b8 C9       		leave
 4455              		.cfi_def_cfa 7, 8
 4456 20b9 C3       		ret
 4457              		.cfi_endproc
 4458              	.LFE1413:
 4460              		.align 2
 4462              	_ZNK12_GLOBAL__N_149TestXmlTestReporterFixtureOneFailureAndOneSuccess7RunImplEv:
 4463              	.LFB1411:
 4464              		.loc 3 135 0
 4465              		.cfi_startproc
 4466              		.cfi_personality 0x3,__gxx_personality_v0
 4467              		.cfi_lsda 0x3,.LLSDA1411
 4468 20ba 55       		pushq	%rbp
 4469              		.cfi_def_cfa_offset 16
 4470              		.cfi_offset 6, -16
 4471 20bb 4889E5   		movq	%rsp, %rbp
 4472              		.cfi_def_cfa_register 6
 4473 20be 4154     		pushq	%r12
 4474 20c0 53       		pushq	%rbx
 4475 20c1 4881ECF0 		subq	$496, %rsp
 4475      010000
 4476              		.cfi_offset 12, -24
 4477              		.cfi_offset 3, -32
 4478 20c8 4889BD08 		movq	%rdi, -504(%rbp)
 4478      FEFFFF
 4479              		.loc 3 135 0
 4480 20cf 64488B04 		movq	%fs:40, %rax
 4480      25280000 
 4480      00
 4481 20d8 488945E8 		movq	%rax, -24(%rbp)
 4482 20dc 31C0     		xorl	%eax, %eax
 4483              	.LBB111:
 4484 20de C6851FFE 		movb	$0, -481(%rbp)
 4484      FFFF00
 4485              	.LBB112:
 4486 20e5 488B8508 		movq	-504(%rbp), %rax
 4486      FEFFFF
 4487 20ec 488D5008 		leaq	8(%rax), %rdx
 4488 20f0 488D8550 		leaq	-432(%rbp), %rax
 4488      FEFFFF
 4489 20f7 4889D6   		movq	%rdx, %rsi
 4490 20fa 4889C7   		movq	%rax, %rdi
 4491              	.LEHB131:
 4492 20fd E832FFFF 		call	_ZN12_GLOBAL__N_151XmlTestReporterFixtureOneFailureAndOneSuccessHelperC2ERKN8UnitTest11TestDe
 4492      FF
 4493              	.LEHE131:
 4494              		.loc 3 135 0 is_stmt 0 discriminator 1
 4495 2102 C6851FFE 		movb	$1, -481(%rbp)
 4495      FFFF01
 4496 2109 488B8508 		movq	-504(%rbp), %rax
 4496      FEFFFF
 4497 2110 488D5008 		leaq	8(%rax), %rdx
 4498 2114 488D8550 		leaq	-432(%rbp), %rax
 4498      FEFFFF
 4499 211b 4889D6   		movq	%rdx, %rsi
 4500 211e 4889C7   		movq	%rax, %rdi
 4501              	.LEHB132:
 4502 2121 E8E91A00 		call	_ZN8UnitTest11ExecuteTestIN12_GLOBAL__N_151XmlTestReporterFixtureOneFailureAndOneSuccessHelpe
 4502      00
 4503              	.LEHE132:
 4504              		.loc 3 135 0 discriminator 3
 4505 2126 488D8550 		leaq	-432(%rbp), %rax
 4505      FEFFFF
 4506 212d 4889C7   		movq	%rax, %rdi
 4507              	.LEHB133:
 4508 2130 E86BFFFF 		call	_ZN12_GLOBAL__N_151XmlTestReporterFixtureOneFailureAndOneSuccessHelperD2Ev
 4508      FF
 4509              	.LEHE133:
 4510              	.LBE112:
 4511              	.LBE111:
 4512              		.loc 3 135 0
 4513 2135 E9640200 		jmp	.L265
 4513      00
 4514              	.L259:
 4515 213a 4989C4   		movq	%rax, %r12
 4516 213d 4889D3   		movq	%rdx, %rbx
 4517              	.LBB120:
 4518              	.LBB113:
 4519 2140 488D8550 		leaq	-432(%rbp), %rax
 4519      FEFFFF
 4520 2147 4889C7   		movq	%rax, %rdi
 4521 214a E851FFFF 		call	_ZN12_GLOBAL__N_151XmlTestReporterFixtureOneFailureAndOneSuccessHelperD2Ev
 4521      FF
 4522 214f 4C89E0   		movq	%r12, %rax
 4523 2152 4889DA   		movq	%rbx, %rdx
 4524 2155 EB00     		jmp	.L246
 4525              	.L258:
 4526              	.L246:
 4527 2157 4883FA01 		cmpq	$1, %rdx
 4528 215b 745C     		je	.L248
 4529 215d 4883FA02 		cmpq	$2, %rdx
 4530 2161 0F84F400 		je	.L249
 4530      0000
 4531 2167 E9980100 		jmp	.L264
 4531      00
 4532              	.L260:
 4533 216c 4889C3   		movq	%rax, %rbx
 4534              	.LBE113:
 4535              	.LBB114:
 4536 216f E8000000 		call	__cxa_end_catch
 4536      00
 4537 2174 4889D8   		movq	%rbx, %rax
 4538 2177 4889C7   		movq	%rax, %rdi
 4539              	.LEHB134:
 4540 217a E8000000 		call	_Unwind_Resume
 4540      00
 4541              	.LEHE134:
 4542              	.L261:
 4543 217f 4889C3   		movq	%rax, %rbx
 4544              	.LBE114:
 4545              	.LBB115:
 4546              	.LBB116:
 4547 2182 488D8550 		leaq	-432(%rbp), %rax
 4547      FEFFFF
 4548 2189 4889C7   		movq	%rax, %rdi
 4549 218c E8000000 		call	_ZN8UnitTest15MemoryOutStreamD1Ev
 4549      00
 4550 2191 EB03     		jmp	.L252
 4551              	.L262:
 4552 2193 4889C3   		movq	%rax, %rbx
 4553              	.L252:
 4554              	.LBE116:
 4555 2196 E8000000 		call	__cxa_end_catch
 4555      00
 4556 219b 4889D8   		movq	%rbx, %rax
 4557 219e 4889C7   		movq	%rax, %rdi
 4558              	.LEHB135:
 4559 21a1 E8000000 		call	_Unwind_Resume
 4559      00
 4560              	.LEHE135:
 4561              	.L263:
 4562 21a6 4889C3   		movq	%rax, %rbx
 4563              	.LBE115:
 4564 21a9 E8000000 		call	__cxa_end_catch
 4564      00
 4565 21ae 4889D8   		movq	%rbx, %rax
 4566 21b1 4889C7   		movq	%rax, %rdi
 4567              	.LEHB136:
 4568 21b4 E8000000 		call	_Unwind_Resume
 4568      00
 4569              	.LEHE136:
 4570              	.L248:
 4571              	.LBB118:
 4572 21b9 4889C7   		movq	%rax, %rdi
 4573 21bc E8000000 		call	__cxa_begin_catch
 4573      00
 4574 21c1 48898520 		movq	%rax, -480(%rbp)
 4574      FEFFFF
 4575 21c8 488B8520 		movq	-480(%rbp), %rax
 4575      FEFFFF
 4576 21cf 488B00   		movq	(%rax), %rax
 4577 21d2 4883C010 		addq	$16, %rax
 4578 21d6 488B00   		movq	(%rax), %rax
 4579 21d9 488B9520 		movq	-480(%rbp), %rdx
 4579      FEFFFF
 4580 21e0 4889D7   		movq	%rdx, %rdi
 4581 21e3 FFD0     		call	*%rax
 4582 21e5 4889C3   		movq	%rax, %rbx
 4583 21e8 488B8520 		movq	-480(%rbp), %rax
 4583      FEFFFF
 4584 21ef 4889C7   		movq	%rax, %rdi
 4585              	.LEHB137:
 4586 21f2 E8000000 		call	_ZNK8UnitTest15AssertException10LineNumberEv
 4586      00
 4587 21f7 4189C4   		movl	%eax, %r12d
 4588 21fa 488B8520 		movq	-480(%rbp), %rax
 4588      FEFFFF
 4589 2201 4889C7   		movq	%rax, %rdi
 4590 2204 E8000000 		call	_ZNK8UnitTest15AssertException8FilenameEv
 4590      00
 4591              		.loc 3 135 0 discriminator 5
 4592 2209 4889C1   		movq	%rax, %rcx
 4593 220c 488B8508 		movq	-504(%rbp), %rax
 4593      FEFFFF
 4594 2213 488B5008 		movq	8(%rax), %rdx
 4595 2217 488B8508 		movq	-504(%rbp), %rax
 4595      FEFFFF
 4596 221e 488B7010 		movq	16(%rax), %rsi
 4597 2222 488D8530 		leaq	-464(%rbp), %rax
 4597      FEFFFF
 4598 2229 4589E0   		movl	%r12d, %r8d
 4599 222c 4889C7   		movq	%rax, %rdi
 4600 222f E8000000 		call	_ZN8UnitTest11TestDetailsC1EPKcS2_S2_i
 4600      00
 4601              		.loc 3 135 0 discriminator 9
 4602 2234 E8000000 		call	_ZN8UnitTest11CurrentTest7ResultsEv
 4602      00
 4603 2239 488B00   		movq	(%rax), %rax
 4604 223c 488D8D30 		leaq	-464(%rbp), %rcx
 4604      FEFFFF
 4605 2243 4889DA   		movq	%rbx, %rdx
 4606 2246 4889CE   		movq	%rcx, %rsi
 4607 2249 4889C7   		movq	%rax, %rdi
 4608 224c E8000000 		call	_ZN8UnitTest11TestResults13OnTestFailureERKNS_11TestDetailsEPKc
 4608      00
 4609              	.LEHE137:
 4610              		.loc 3 135 0 discriminator 13
 4611 2251 E8000000 		call	__cxa_end_catch
 4611      00
 4612              	.LBE118:
 4613              	.LBE120:
 4614 2256 E9430100 		jmp	.L265
 4614      00
 4615              	.L249:
 4616              	.LBB121:
 4617              	.LBB119:
 4618              		.loc 3 135 0
 4619 225b 4889C7   		movq	%rax, %rdi
 4620 225e E8000000 		call	__cxa_begin_catch
 4620      00
 4621 2263 48898528 		movq	%rax, -472(%rbp)
 4621      FEFFFF
 4622              	.LBB117:
 4623 226a 488D8550 		leaq	-432(%rbp), %rax
 4623      FEFFFF
 4624 2271 4889C7   		movq	%rax, %rdi
 4625              	.LEHB138:
 4626 2274 E8000000 		call	_ZN8UnitTest15MemoryOutStreamC1Ev
 4626      00
 4627              	.LEHE138:
 4628              		.loc 3 135 0 discriminator 15
 4629 2279 488B8528 		movq	-472(%rbp), %rax
 4629      FEFFFF
 4630 2280 488B00   		movq	(%rax), %rax
 4631 2283 4883C010 		addq	$16, %rax
 4632 2287 488B00   		movq	(%rax), %rax
 4633 228a 488B9528 		movq	-472(%rbp), %rdx
 4633      FEFFFF
 4634 2291 4889D7   		movq	%rdx, %rdi
 4635 2294 FFD0     		call	*%rax
 4636 2296 4889C3   		movq	%rax, %rbx
 4637 2299 488D8550 		leaq	-432(%rbp), %rax
 4637      FEFFFF
 4638 22a0 BE000000 		movl	$.LC3, %esi
 4638      00
 4639 22a5 4889C7   		movq	%rax, %rdi
 4640              	.LEHB139:
 4641 22a8 E8000000 		call	_ZStlsISt11char_traitsIcEERSt13basic_ostreamIcT_ES5_PKc
 4641      00
 4642 22ad 4889DE   		movq	%rbx, %rsi
 4643 22b0 4889C7   		movq	%rax, %rdi
 4644 22b3 E8000000 		call	_ZStlsISt11char_traitsIcEERSt13basic_ostreamIcT_ES5_PKc
 4644      00
 4645              		.loc 3 135 0 discriminator 19
 4646 22b8 488D8550 		leaq	-432(%rbp), %rax
 4646      FEFFFF
 4647 22bf 4889C7   		movq	%rax, %rdi
 4648 22c2 E8000000 		call	_ZNK8UnitTest15MemoryOutStream7GetTextEv
 4648      00
 4649 22c7 4989C4   		movq	%rax, %r12
 4650 22ca 488B8508 		movq	-504(%rbp), %rax
 4650      FEFFFF
 4651 22d1 488D5808 		leaq	8(%rax), %rbx
 4652 22d5 E8000000 		call	_ZN8UnitTest11CurrentTest7ResultsEv
 4652      00
 4653              		.loc 3 135 0 discriminator 21
 4654 22da 488B00   		movq	(%rax), %rax
 4655 22dd 4C89E2   		movq	%r12, %rdx
 4656 22e0 4889DE   		movq	%rbx, %rsi
 4657 22e3 4889C7   		movq	%rax, %rdi
 4658 22e6 E8000000 		call	_ZN8UnitTest11TestResults13OnTestFailureERKNS_11TestDetailsEPKc
 4658      00
 4659              	.LEHE139:
 4660              		.loc 3 135 0 discriminator 25
 4661 22eb 488D8550 		leaq	-432(%rbp), %rax
 4661      FEFFFF
 4662 22f2 4889C7   		movq	%rax, %rdi
 4663              	.LEHB140:
 4664 22f5 E8000000 		call	_ZN8UnitTest15MemoryOutStreamD1Ev
 4664      00
 4665              	.LEHE140:
 4666              	.LBE117:
 4667              		.loc 3 135 0 discriminator 26
 4668 22fa E8000000 		call	__cxa_end_catch
 4668      00
 4669              	.LBE119:
 4670              	.LBE121:
 4671 22ff E99A0000 		jmp	.L265
 4671      00
 4672              	.L264:
 4673              	.LBB122:
 4674              		.loc 3 135 0
 4675 2304 4889C7   		movq	%rax, %rdi
 4676 2307 E8000000 		call	__cxa_begin_catch
 4676      00
 4677 230c 80BD1FFE 		cmpb	$0, -481(%rbp)
 4677      FFFF00
 4678 2313 7443     		je	.L255
 4679              		.loc 3 135 0 discriminator 28
 4680 2315 488B8508 		movq	-504(%rbp), %rax
 4680      FEFFFF
 4681 231c 488D4808 		leaq	8(%rax), %rcx
 4682 2320 488D8530 		leaq	-464(%rbp), %rax
 4682      FEFFFF
 4683 2327 BA870000 		movl	$135, %edx
 4683      00
 4684 232c 4889CE   		movq	%rcx, %rsi
 4685 232f 4889C7   		movq	%rax, %rdi
 4686              	.LEHB141:
 4687 2332 E8000000 		call	_ZN8UnitTest11TestDetailsC1ERKS0_i
 4687      00
 4688              		.loc 3 135 0 discriminator 31
 4689 2337 E8000000 		call	_ZN8UnitTest11CurrentTest7ResultsEv
 4689      00
 4690 233c 488B00   		movq	(%rax), %rax
 4691 233f 488D8D30 		leaq	-464(%rbp), %rcx
 4691      FEFFFF
 4692 2346 BA000000 		movl	$.LC4, %edx
 4692      00
 4693 234b 4889CE   		movq	%rcx, %rsi
 4694 234e 4889C7   		movq	%rax, %rdi
 4695 2351 E8000000 		call	_ZN8UnitTest11TestResults13OnTestFailureERKNS_11TestDetailsEPKc
 4695      00
 4696 2356 EB41     		jmp	.L256
 4697              	.L255:
 4698              		.loc 3 135 0 discriminator 29
 4699 2358 488B8508 		movq	-504(%rbp), %rax
 4699      FEFFFF
 4700 235f 488D4808 		leaq	8(%rax), %rcx
 4701 2363 488D8530 		leaq	-464(%rbp), %rax
 4701      FEFFFF
 4702 236a BA870000 		movl	$135, %edx
 4702      00
 4703 236f 4889CE   		movq	%rcx, %rsi
 4704 2372 4889C7   		movq	%rax, %rdi
 4705 2375 E8000000 		call	_ZN8UnitTest11TestDetailsC1ERKS0_i
 4705      00
 4706              		.loc 3 135 0 discriminator 38
 4707 237a E8000000 		call	_ZN8UnitTest11CurrentTest7ResultsEv
 4707      00
 4708 237f 488B00   		movq	(%rax), %rax
 4709 2382 488D8D30 		leaq	-464(%rbp), %rcx
 4709      FEFFFF
 4710 2389 BA000000 		movl	$.LC5, %edx
 4710      00
 4711 238e 4889CE   		movq	%rcx, %rsi
 4712 2391 4889C7   		movq	%rax, %rdi
 4713 2394 E8000000 		call	_ZN8UnitTest11TestResults13OnTestFailureERKNS_11TestDetailsEPKc
 4713      00
 4714              	.LEHE141:
 4715              	.L256:
 4716              	.LEHB142:
 4717              		.loc 3 135 0 discriminator 43
 4718 2399 E8000000 		call	__cxa_end_catch
 4718      00
 4719              	.LEHE142:
 4720              	.L265:
 4721              	.LBE122:
 4722              		.loc 3 135 0
 4723 239e 90       		nop
 4724 239f 488B45E8 		movq	-24(%rbp), %rax
 4725 23a3 64483304 		xorq	%fs:40, %rax
 4725      25280000 
 4725      00
 4726 23ac 7405     		je	.L257
 4727 23ae E8000000 		call	__stack_chk_fail
 4727      00
 4728              	.L257:
 4729 23b3 4881C4F0 		addq	$496, %rsp
 4729      010000
 4730 23ba 5B       		popq	%rbx
 4731 23bb 415C     		popq	%r12
 4732 23bd 5D       		popq	%rbp
 4733              		.cfi_def_cfa 7, 8
 4734 23be C3       		ret
 4735              		.cfi_endproc
 4736              	.LFE1411:
 4737              		.section	.gcc_except_table
 4738              		.align 4
 4739              	.LLSDA1411:
 4740 03a8 FF       		.byte	0xff
 4741 03a9 03       		.byte	0x3
 4742 03aa 59       		.uleb128 .LLSDATT1411-.LLSDATTD1411
 4743              	.LLSDATTD1411:
 4744 03ab 01       		.byte	0x1
 4745 03ac 41       		.uleb128 .LLSDACSE1411-.LLSDACSB1411
 4746              	.LLSDACSB1411:
 4747 03ad 43       		.uleb128 .LEHB131-.LFB1411
 4748 03ae 05       		.uleb128 .LEHE131-.LEHB131
 4749 03af 9D01     		.uleb128 .L258-.LFB1411
 4750 03b1 05       		.uleb128 0x5
 4751 03b2 67       		.uleb128 .LEHB132-.LFB1411
 4752 03b3 05       		.uleb128 .LEHE132-.LEHB132
 4753 03b4 8001     		.uleb128 .L259-.LFB1411
 4754 03b6 07       		.uleb128 0x7
 4755 03b7 76       		.uleb128 .LEHB133-.LFB1411
 4756 03b8 05       		.uleb128 .LEHE133-.LEHB133
 4757 03b9 9D01     		.uleb128 .L258-.LFB1411
 4758 03bb 05       		.uleb128 0x5
 4759 03bc C001     		.uleb128 .LEHB134-.LFB1411
 4760 03be 05       		.uleb128 .LEHE134-.LEHB134
 4761 03bf 00       		.uleb128 0
 4762 03c0 00       		.uleb128 0
 4763 03c1 E701     		.uleb128 .LEHB135-.LFB1411
 4764 03c3 05       		.uleb128 .LEHE135-.LEHB135
 4765 03c4 00       		.uleb128 0
 4766 03c5 00       		.uleb128 0
 4767 03c6 FA01     		.uleb128 .LEHB136-.LFB1411
 4768 03c8 05       		.uleb128 .LEHE136-.LEHB136
 4769 03c9 00       		.uleb128 0
 4770 03ca 00       		.uleb128 0
 4771 03cb B802     		.uleb128 .LEHB137-.LFB1411
 4772 03cd 5F       		.uleb128 .LEHE137-.LEHB137
 4773 03ce B201     		.uleb128 .L260-.LFB1411
 4774 03d0 00       		.uleb128 0
 4775 03d1 BA03     		.uleb128 .LEHB138-.LFB1411
 4776 03d3 05       		.uleb128 .LEHE138-.LEHB138
 4777 03d4 D901     		.uleb128 .L262-.LFB1411
 4778 03d6 00       		.uleb128 0
 4779 03d7 EE03     		.uleb128 .LEHB139-.LFB1411
 4780 03d9 43       		.uleb128 .LEHE139-.LEHB139
 4781 03da C501     		.uleb128 .L261-.LFB1411
 4782 03dc 00       		.uleb128 0
 4783 03dd BB04     		.uleb128 .LEHB140-.LFB1411
 4784 03df 05       		.uleb128 .LEHE140-.LEHB140
 4785 03e0 D901     		.uleb128 .L262-.LFB1411
 4786 03e2 00       		.uleb128 0
 4787 03e3 F804     		.uleb128 .LEHB141-.LFB1411
 4788 03e5 67       		.uleb128 .LEHE141-.LEHB141
 4789 03e6 EC01     		.uleb128 .L263-.LFB1411
 4790 03e8 00       		.uleb128 0
 4791 03e9 DF05     		.uleb128 .LEHB142-.LFB1411
 4792 03eb 05       		.uleb128 .LEHE142-.LEHB142
 4793 03ec 00       		.uleb128 0
 4794 03ed 00       		.uleb128 0
 4795              	.LLSDACSE1411:
 4796 03ee 03       		.byte	0x3
 4797 03ef 00       		.byte	0
 4798 03f0 02       		.byte	0x2
 4799 03f1 7D       		.byte	0x7d
 4800 03f2 01       		.byte	0x1
 4801 03f3 7D       		.byte	0x7d
 4802 03f4 00       		.byte	0
 4803 03f5 7D       		.byte	0x7d
 4804 03f6 0000     		.align 4
 4805 03f8 00000000 		.long	0
 4806              	
 4807 03fc 00000000 		.long	_ZTISt9exception
 4808 0400 00000000 		.long	_ZTIN8UnitTest15AssertExceptionE
 4809              	.LLSDATT1411:
 4810              		.text
 4812              		.section	.rodata
 4813              	.LC34:
 4814 06a4 6661696C 		.string	"fail.h"
 4814      2E6800
 4815              	.LC35:
 4816 06ab 4661696C 		.string	"FailedTest"
 4816      65645465 
 4816      737400
 4817              	.LC36:
 4818 06b6 65787065 		.string	"expected 1 but was 2"
 4818      63746564 
 4818      20312062 
 4818      75742077 
 4818      61732032 
 4819              	.LC37:
 4820 06cb 53756363 		.string	"SucceededTest"
 4820      65656465 
 4820      64546573 
 4820      7400
 4821 06d9 00000000 		.align 8
 4821      000000
 4822              	.LC39:
 4823 06e0 3C3F786D 		.ascii	"<?xml versio"
 4823      6C207665 
 4823      7273696F 
 4824 06ec 6E3D2231 		.string	"n=\"1.0\"?><unittest-results tests=\"2\" failedtests=\"1\" failures=\"1\" time=\"1.1\"><t
 4824      2E30223F 
 4824      3E3C756E 
 4824      69747465 
 4824      73742D72 
 4825              		.text
 4826 23bf 90       		.align 2
 4828              	_ZN12_GLOBAL__N_151XmlTestReporterFixtureOneFailureAndOneSuccessHelper7RunImplEv:
 4829              	.LFB1415:
 136:TestXmlTestReporter.cpp **** {
 4830              		.loc 3 136 0 is_stmt 1
 4831              		.cfi_startproc
 4832              		.cfi_personality 0x3,__gxx_personality_v0
 4833              		.cfi_lsda 0x3,.LLSDA1415
 4834 23c0 55       		pushq	%rbp
 4835              		.cfi_def_cfa_offset 16
 4836              		.cfi_offset 6, -16
 4837 23c1 4889E5   		movq	%rsp, %rbp
 4838              		.cfi_def_cfa_register 6
 4839 23c4 53       		pushq	%rbx
 4840 23c5 4881EC98 		subq	$152, %rsp
 4840      000000
 4841              		.cfi_offset 3, -24
 4842 23cc 4889BD68 		movq	%rdi, -152(%rbp)
 4842      FFFFFF
 4843              		.loc 3 136 0
 4844 23d3 64488B04 		movq	%fs:40, %rax
 4844      25280000 
 4844      00
 4845 23dc 488945E8 		movq	%rax, -24(%rbp)
 4846 23e0 31C0     		xorl	%eax, %eax
 4847              	.LBB123:
 137:TestXmlTestReporter.cpp ****     TestDetails const failedDetails("FailedTest", "suite", "fail.h", 1);
 4848              		.loc 3 137 0
 4849 23e2 488D4580 		leaq	-128(%rbp), %rax
 4850 23e6 41B80100 		movl	$1, %r8d
 4850      0000
 4851 23ec B9000000 		movl	$.LC34, %ecx
 4851      00
 4852 23f1 BA000000 		movl	$.LC7, %edx
 4852      00
 4853 23f6 BE000000 		movl	$.LC35, %esi
 4853      00
 4854 23fb 4889C7   		movq	%rax, %rdi
 4855              	.LEHB143:
 4856 23fe E8000000 		call	_ZN8UnitTest11TestDetailsC1EPKcS2_S2_i
 4856      00
 138:TestXmlTestReporter.cpp ****     reporter.ReportTestStart(failedDetails);
 4857              		.loc 3 138 0
 4858 2403 488B8568 		movq	-152(%rbp), %rax
 4858      FFFFFF
 4859 240a 488D9060 		leaq	352(%rax), %rdx
 4859      010000
 4860 2411 488D4580 		leaq	-128(%rbp), %rax
 4861 2415 4889C6   		movq	%rax, %rsi
 4862 2418 4889D7   		movq	%rdx, %rdi
 4863 241b E8000000 		call	_ZN8UnitTest20DeferredTestReporter15ReportTestStartERKNS_11TestDetailsE
 4863      00
 139:TestXmlTestReporter.cpp ****     reporter.ReportFailure(failedDetails, "expected 1 but was 2");
 4864              		.loc 3 139 0
 4865 2420 488B8568 		movq	-152(%rbp), %rax
 4865      FFFFFF
 4866 2427 488D8860 		leaq	352(%rax), %rcx
 4866      010000
 4867 242e 488D4580 		leaq	-128(%rbp), %rax
 4868 2432 BA000000 		movl	$.LC36, %edx
 4868      00
 4869 2437 4889C6   		movq	%rax, %rsi
 4870 243a 4889CF   		movq	%rcx, %rdi
 4871 243d E8000000 		call	_ZN8UnitTest20DeferredTestReporter13ReportFailureERKNS_11TestDetailsEPKc
 4871      00
 140:TestXmlTestReporter.cpp ****     reporter.ReportTestFinish(failedDetails, 0.1f);
 4872              		.loc 3 140 0
 4873 2442 488B8568 		movq	-152(%rbp), %rax
 4873      FFFFFF
 4874 2449 488D9060 		leaq	352(%rax), %rdx
 4874      010000
 4875 2450 488D4580 		leaq	-128(%rbp), %rax
 4876 2454 F30F1005 		movss	.LC10(%rip), %xmm0
 4876      00000000 
 4877 245c 4889C6   		movq	%rax, %rsi
 4878 245f 4889D7   		movq	%rdx, %rdi
 4879 2462 E8000000 		call	_ZN8UnitTest20DeferredTestReporter16ReportTestFinishERKNS_11TestDetailsEf
 4879      00
 141:TestXmlTestReporter.cpp **** 
 142:TestXmlTestReporter.cpp ****     TestDetails const succeededDetails("SucceededTest", "suite", "", 0);
 4880              		.loc 3 142 0
 4881 2467 488D45A0 		leaq	-96(%rbp), %rax
 4882 246b 41B80000 		movl	$0, %r8d
 4882      0000
 4883 2471 B9000000 		movl	$.LC14, %ecx
 4883      00
 4884 2476 BA000000 		movl	$.LC7, %edx
 4884      00
 4885 247b BE000000 		movl	$.LC37, %esi
 4885      00
 4886 2480 4889C7   		movq	%rax, %rdi
 4887 2483 E8000000 		call	_ZN8UnitTest11TestDetailsC1EPKcS2_S2_i
 4887      00
 143:TestXmlTestReporter.cpp ****     reporter.ReportTestStart(succeededDetails);
 4888              		.loc 3 143 0
 4889 2488 488B8568 		movq	-152(%rbp), %rax
 4889      FFFFFF
 4890 248f 488D9060 		leaq	352(%rax), %rdx
 4890      010000
 4891 2496 488D45A0 		leaq	-96(%rbp), %rax
 4892 249a 4889C6   		movq	%rax, %rsi
 4893 249d 4889D7   		movq	%rdx, %rdi
 4894 24a0 E8000000 		call	_ZN8UnitTest20DeferredTestReporter15ReportTestStartERKNS_11TestDetailsE
 4894      00
 144:TestXmlTestReporter.cpp ****     reporter.ReportTestFinish(succeededDetails, 1.0f);
 4895              		.loc 3 144 0
 4896 24a5 488B8568 		movq	-152(%rbp), %rax
 4896      FFFFFF
 4897 24ac 488D9060 		leaq	352(%rax), %rdx
 4897      010000
 4898 24b3 488D45A0 		leaq	-96(%rbp), %rax
 4899 24b7 F30F1005 		movss	.LC16(%rip), %xmm0
 4899      00000000 
 4900 24bf 4889C6   		movq	%rax, %rsi
 4901 24c2 4889D7   		movq	%rdx, %rdi
 4902 24c5 E8000000 		call	_ZN8UnitTest20DeferredTestReporter16ReportTestFinishERKNS_11TestDetailsEf
 4902      00
 145:TestXmlTestReporter.cpp ****     reporter.ReportSummary(2, 1, 1, 1.1f);
 4903              		.loc 3 145 0
 4904 24ca 488B8568 		movq	-152(%rbp), %rax
 4904      FFFFFF
 4905 24d1 48056001 		addq	$352, %rax
 4905      0000
 4906 24d7 F30F1005 		movss	.LC38(%rip), %xmm0
 4906      00000000 
 4907 24df B9010000 		movl	$1, %ecx
 4907      00
 4908 24e4 BA010000 		movl	$1, %edx
 4908      00
 4909 24e9 BE020000 		movl	$2, %esi
 4909      00
 4910 24ee 4889C7   		movq	%rax, %rdi
 4911 24f1 E8000000 		call	_ZN8UnitTest15XmlTestReporter13ReportSummaryEiiif
 4911      00
 4912              	.LEHE143:
 146:TestXmlTestReporter.cpp **** 
 147:TestXmlTestReporter.cpp ****     char const* expected =
 148:TestXmlTestReporter.cpp ****         "<?xml version=\"1.0\"?>"
 149:TestXmlTestReporter.cpp ****         "<unittest-results tests=\"2\" failedtests=\"1\" failures=\"1\" time=\"1.1\">"
 150:TestXmlTestReporter.cpp ****         "<test suite=\"suite\" name=\"FailedTest\" time=\"0.1\">"
 151:TestXmlTestReporter.cpp ****         "<failure message=\"fail.h(1) : expected 1 but was 2\"/>"
 152:TestXmlTestReporter.cpp ****         "</test>"
 153:TestXmlTestReporter.cpp ****         "<test suite=\"suite\" name=\"SucceededTest\" time=\"1\"/>"
 154:TestXmlTestReporter.cpp ****         "</unittest-results>";
 4913              		.loc 3 154 0
 4914 24f6 48C78578 		movq	$.LC39, -136(%rbp)
 4914      FFFFFF00 
 4914      000000
 4915              	.LEHB144:
 155:TestXmlTestReporter.cpp **** 
 156:TestXmlTestReporter.cpp ****     CHECK_EQUAL(expected, output.str());
 4916              		.loc 3 156 0
 4917 2501 E8000000 		call	_ZN8UnitTest11CurrentTest7DetailsEv
 4917      00
 4918 2506 488B08   		movq	(%rax), %rcx
 4919 2509 488D45C0 		leaq	-64(%rbp), %rax
 4920 250d BA9C0000 		movl	$156, %edx
 4920      00
 4921 2512 4889CE   		movq	%rcx, %rsi
 4922 2515 4889C7   		movq	%rax, %rdi
 4923 2518 E8000000 		call	_ZN8UnitTest11TestDetailsC1ERKS0_i
 4923      00
 4924              		.loc 3 156 0 is_stmt 0 discriminator 2
 4925 251d 488B9568 		movq	-152(%rbp), %rdx
 4925      FFFFFF
 4926 2524 488D8570 		leaq	-144(%rbp), %rax
 4926      FFFFFF
 4927 252b 4889D6   		movq	%rdx, %rsi
 4928 252e 4889C7   		movq	%rax, %rdi
 4929 2531 E8000000 		call	_ZNKSt19basic_ostringstreamIcSt11char_traitsIcESaIcEE3strEv
 4929      00
 4930              	.LEHE144:
 4931              	.LEHB145:
 4932              		.loc 3 156 0 discriminator 4
 4933 2536 E8000000 		call	_ZN8UnitTest11CurrentTest7ResultsEv
 4933      00
 4934 253b 488B00   		movq	(%rax), %rax
 4935 253e 488D4DC0 		leaq	-64(%rbp), %rcx
 4936 2542 488D9570 		leaq	-144(%rbp), %rdx
 4936      FFFFFF
 4937 2549 488DB578 		leaq	-136(%rbp), %rsi
 4937      FFFFFF
 4938 2550 4889C7   		movq	%rax, %rdi
 4939 2553 E8000000 		call	_ZN8UnitTest10CheckEqualIPKcSsEEvRNS_11TestResultsERKT_RKT0_RKNS_11TestDetailsE
 4939      00
 4940              	.LEHE145:
 4941              		.loc 3 156 0 discriminator 8
 4942 2558 488D8570 		leaq	-144(%rbp), %rax
 4942      FFFFFF
 4943 255f 4889C7   		movq	%rax, %rdi
 4944              	.LEHB146:
 4945 2562 E8000000 		call	_ZNSsD1Ev
 4945      00
 4946              	.LEHE146:
 4947              	.LBE123:
 157:TestXmlTestReporter.cpp **** }
 4948              		.loc 3 157 0 is_stmt 1
 4949 2567 EB6F     		jmp	.L275
 4950              	.L273:
 4951 2569 4889C3   		movq	%rax, %rbx
 4952              	.LBB124:
 156:TestXmlTestReporter.cpp **** }
 4953              		.loc 3 156 0
 4954 256c 488D8570 		leaq	-144(%rbp), %rax
 4954      FFFFFF
 4955 2573 4889C7   		movq	%rax, %rdi
 4956 2576 E8000000 		call	_ZNSsD1Ev
 4956      00
 4957 257b 4889D8   		movq	%rbx, %rax
 4958 257e EB13     		jmp	.L268
 4959              	.L274:
 4960 2580 4889C3   		movq	%rax, %rbx
 4961 2583 E8000000 		call	__cxa_end_catch
 4961      00
 4962 2588 4889D8   		movq	%rbx, %rax
 4963 258b 4889C7   		movq	%rax, %rdi
 4964              	.LEHB147:
 4965 258e E8000000 		call	_Unwind_Resume
 4965      00
 4966              	.LEHE147:
 4967              	.L272:
 4968              	.L268:
 4969 2593 4889C7   		movq	%rax, %rdi
 4970 2596 E8000000 		call	__cxa_begin_catch
 4970      00
 4971              	.LEHB148:
 4972 259b E8000000 		call	_ZN8UnitTest11CurrentTest7DetailsEv
 4972      00
 4973 25a0 488B08   		movq	(%rax), %rcx
 4974 25a3 488D45C0 		leaq	-64(%rbp), %rax
 4975 25a7 BA9C0000 		movl	$156, %edx
 4975      00
 4976 25ac 4889CE   		movq	%rcx, %rsi
 4977 25af 4889C7   		movq	%rax, %rdi
 4978 25b2 E8000000 		call	_ZN8UnitTest11TestDetailsC1ERKS0_i
 4978      00
 156:TestXmlTestReporter.cpp **** }
 4979              		.loc 3 156 0 is_stmt 0 discriminator 14
 4980 25b7 E8000000 		call	_ZN8UnitTest11CurrentTest7ResultsEv
 4980      00
 4981 25bc 488B00   		movq	(%rax), %rax
 4982 25bf 488D4DC0 		leaq	-64(%rbp), %rcx
 4983 25c3 BA000000 		movl	$.LC12, %edx
 4983      00
 4984 25c8 4889CE   		movq	%rcx, %rsi
 4985 25cb 4889C7   		movq	%rax, %rdi
 4986 25ce E8000000 		call	_ZN8UnitTest11TestResults13OnTestFailureERKNS_11TestDetailsEPKc
 4986      00
 4987              	.LEHE148:
 4988              	.LEHB149:
 156:TestXmlTestReporter.cpp **** }
 4989              		.loc 3 156 0 discriminator 18
 4990 25d3 E8000000 		call	__cxa_end_catch
 4990      00
 4991              	.LEHE149:
 4992              	.L275:
 4993              	.LBE124:
 4994              		.loc 3 157 0 is_stmt 1
 4995 25d8 90       		nop
 4996 25d9 488B45E8 		movq	-24(%rbp), %rax
 4997 25dd 64483304 		xorq	%fs:40, %rax
 4997      25280000 
 4997      00
 4998 25e6 7405     		je	.L271
 4999 25e8 E8000000 		call	__stack_chk_fail
 4999      00
 5000              	.L271:
 5001 25ed 4881C498 		addq	$152, %rsp
 5001      000000
 5002 25f4 5B       		popq	%rbx
 5003 25f5 5D       		popq	%rbp
 5004              		.cfi_def_cfa 7, 8
 5005 25f6 C3       		ret
 5006              		.cfi_endproc
 5007              	.LFE1415:
 5008              		.section	.gcc_except_table
 5009              		.align 4
 5010              	.LLSDA1415:
 5011 0404 FF       		.byte	0xff
 5012 0405 03       		.byte	0x3
 5013 0406 31       		.uleb128 .LLSDATT1415-.LLSDATTD1415
 5014              	.LLSDATTD1415:
 5015 0407 01       		.byte	0x1
 5016 0408 27       		.uleb128 .LLSDACSE1415-.LLSDACSB1415
 5017              	.LLSDACSB1415:
 5018 0409 3E       		.uleb128 .LEHB143-.LFB1415
 5019 040a F801     		.uleb128 .LEHE143-.LEHB143
 5020 040c 00       		.uleb128 0
 5021 040d 00       		.uleb128 0
 5022 040e C102     		.uleb128 .LEHB144-.LFB1415
 5023 0410 35       		.uleb128 .LEHE144-.LEHB144
 5024 0411 D303     		.uleb128 .L272-.LFB1415
 5025 0413 01       		.uleb128 0x1
 5026 0414 F602     		.uleb128 .LEHB145-.LFB1415
 5027 0416 22       		.uleb128 .LEHE145-.LEHB145
 5028 0417 A903     		.uleb128 .L273-.LFB1415
 5029 0419 03       		.uleb128 0x3
 5030 041a A203     		.uleb128 .LEHB146-.LFB1415
 5031 041c 05       		.uleb128 .LEHE146-.LEHB146
 5032 041d D303     		.uleb128 .L272-.LFB1415
 5033 041f 01       		.uleb128 0x1
 5034 0420 CE03     		.uleb128 .LEHB147-.LFB1415
 5035 0422 05       		.uleb128 .LEHE147-.LEHB147
 5036 0423 00       		.uleb128 0
 5037 0424 00       		.uleb128 0
 5038 0425 DB03     		.uleb128 .LEHB148-.LFB1415
 5039 0427 38       		.uleb128 .LEHE148-.LEHB148
 5040 0428 C003     		.uleb128 .L274-.LFB1415
 5041 042a 00       		.uleb128 0
 5042 042b 9304     		.uleb128 .LEHB149-.LFB1415
 5043 042d 05       		.uleb128 .LEHE149-.LEHB149
 5044 042e 00       		.uleb128 0
 5045 042f 00       		.uleb128 0
 5046              	.LLSDACSE1415:
 5047 0430 01       		.byte	0x1
 5048 0431 00       		.byte	0
 5049 0432 00       		.byte	0
 5050 0433 7D       		.byte	0x7d
 5051              		.align 4
 5052 0434 00000000 		.long	0
 5053              	
 5054              	.LLSDATT1415:
 5055              		.text
 5057 25f7 90       		.align 2
 5059              	_ZN12_GLOBAL__N_144XmlTestReporterFixtureMultipleFailuresHelperC2ERKN8UnitTest11TestDetailsE:
 5060              	.LFB1417:
 158:TestXmlTestReporter.cpp **** 
 159:TestXmlTestReporter.cpp **** TEST_FIXTURE(XmlTestReporterFixture, MultipleFailures)
 5061              		.loc 3 159 0
 5062              		.cfi_startproc
 5063 25f8 55       		pushq	%rbp
 5064              		.cfi_def_cfa_offset 16
 5065              		.cfi_offset 6, -16
 5066 25f9 4889E5   		movq	%rsp, %rbp
 5067              		.cfi_def_cfa_register 6
 5068 25fc 4883EC10 		subq	$16, %rsp
 5069 2600 48897DF8 		movq	%rdi, -8(%rbp)
 5070 2604 488975F0 		movq	%rsi, -16(%rbp)
 5071              	.LBB125:
 5072              		.loc 3 159 0
 5073 2608 488B45F8 		movq	-8(%rbp), %rax
 5074 260c 4889C7   		movq	%rax, %rdi
 5075 260f E8ECD9FF 		call	_ZN12_GLOBAL__N_122XmlTestReporterFixtureC2Ev
 5075      FF
 5076 2614 488B45F8 		movq	-8(%rbp), %rax
 5077 2618 488B55F0 		movq	-16(%rbp), %rdx
 5078 261c 48899088 		movq	%rdx, 392(%rax)
 5078      010000
 5079              	.LBE125:
 5080 2623 C9       		leave
 5081              		.cfi_def_cfa 7, 8
 5082 2624 C3       		ret
 5083              		.cfi_endproc
 5084              	.LFE1417:
 5086              		.section	.rodata
 5087              	.LC40:
 5088 07ed 4D756C74 		.string	"MultipleFailures"
 5088      69706C65 
 5088      4661696C 
 5088      75726573 
 5088      00
 5089              		.text
 5090 2625 90       		.align 2
 5092              	_ZN12_GLOBAL__N_142TestXmlTestReporterFixtureMultipleFailuresC2Ev:
 5093              	.LFB1420:
 5094              		.loc 3 159 0
 5095              		.cfi_startproc
 5096 2626 55       		pushq	%rbp
 5097              		.cfi_def_cfa_offset 16
 5098              		.cfi_offset 6, -16
 5099 2627 4889E5   		movq	%rsp, %rbp
 5100              		.cfi_def_cfa_register 6
 5101 262a 4883EC10 		subq	$16, %rsp
 5102 262e 48897DF8 		movq	%rdi, -8(%rbp)
 5103              	.LBB126:
 5104              		.loc 3 159 0
 5105 2632 E8000000 		call	_ZN13UnitTestSuite12GetSuiteNameEv
 5105      00
 5106 2637 4889C2   		movq	%rax, %rdx
 5107 263a 488B45F8 		movq	-8(%rbp), %rax
 5108 263e 41B89F00 		movl	$159, %r8d
 5108      0000
 5109 2644 B9000000 		movl	$.LC1, %ecx
 5109      00
 5110 2649 BE000000 		movl	$.LC40, %esi
 5110      00
 5111 264e 4889C7   		movq	%rax, %rdi
 5112 2651 E8000000 		call	_ZN8UnitTest4TestC2EPKcS2_S2_i
 5112      00
 5113 2656 488B45F8 		movq	-8(%rbp), %rax
 5114 265a 48C70000 		movq	$_ZTVN12_GLOBAL__N_142TestXmlTestReporterFixtureMultipleFailuresE+16, (%rax)
 5114      000000
 5115              	.LBE126:
 5116 2661 C9       		leave
 5117              		.cfi_def_cfa 7, 8
 5118 2662 C3       		ret
 5119              		.cfi_endproc
 5120              	.LFE1420:
 5122              		.local	_ZN12_GLOBAL__N_150testXmlTestReporterFixtureMultipleFailuresInstanceE
 5123              		.comm	_ZN12_GLOBAL__N_150testXmlTestReporterFixtureMultipleFailuresInstanceE,56,32
 5124              		.local	_ZN12_GLOBAL__N_143adderXmlTestReporterFixtureMultipleFailuresE
 5125              		.comm	_ZN12_GLOBAL__N_143adderXmlTestReporterFixtureMultipleFailuresE,1,1
 5126 2663 90       		.align 2
 5128              	_ZN12_GLOBAL__N_144XmlTestReporterFixtureMultipleFailuresHelperD2Ev:
 5129              	.LFB1424:
 5130              		.loc 3 159 0
 5131              		.cfi_startproc
 5132 2664 55       		pushq	%rbp
 5133              		.cfi_def_cfa_offset 16
 5134              		.cfi_offset 6, -16
 5135 2665 4889E5   		movq	%rsp, %rbp
 5136              		.cfi_def_cfa_register 6
 5137 2668 4883EC10 		subq	$16, %rsp
 5138 266c 48897DF8 		movq	%rdi, -8(%rbp)
 5139              	.LBB127:
 5140              		.loc 3 159 0
 5141 2670 488B45F8 		movq	-8(%rbp), %rax
 5142 2674 4889C7   		movq	%rax, %rdi
 5143 2677 E8E0D9FF 		call	_ZN12_GLOBAL__N_122XmlTestReporterFixtureD2Ev
 5143      FF
 5144              	.LBE127:
 5145 267c C9       		leave
 5146              		.cfi_def_cfa 7, 8
 5147 267d C3       		ret
 5148              		.cfi_endproc
 5149              	.LFE1424:
 5151              		.align 2
 5153              	_ZNK12_GLOBAL__N_142TestXmlTestReporterFixtureMultipleFailures7RunImplEv:
 5154              	.LFB1422:
 5155              		.loc 3 159 0
 5156              		.cfi_startproc
 5157              		.cfi_personality 0x3,__gxx_personality_v0
 5158              		.cfi_lsda 0x3,.LLSDA1422
 5159 267e 55       		pushq	%rbp
 5160              		.cfi_def_cfa_offset 16
 5161              		.cfi_offset 6, -16
 5162 267f 4889E5   		movq	%rsp, %rbp
 5163              		.cfi_def_cfa_register 6
 5164 2682 4154     		pushq	%r12
 5165 2684 53       		pushq	%rbx
 5166 2685 4881ECF0 		subq	$496, %rsp
 5166      010000
 5167              		.cfi_offset 12, -24
 5168              		.cfi_offset 3, -32
 5169 268c 4889BD08 		movq	%rdi, -504(%rbp)
 5169      FEFFFF
 5170              		.loc 3 159 0
 5171 2693 64488B04 		movq	%fs:40, %rax
 5171      25280000 
 5171      00
 5172 269c 488945E8 		movq	%rax, -24(%rbp)
 5173 26a0 31C0     		xorl	%eax, %eax
 5174              	.LBB128:
 5175 26a2 C6851FFE 		movb	$0, -481(%rbp)
 5175      FFFF00
 5176              	.LBB129:
 5177 26a9 488B8508 		movq	-504(%rbp), %rax
 5177      FEFFFF
 5178 26b0 488D5008 		leaq	8(%rax), %rdx
 5179 26b4 488D8550 		leaq	-432(%rbp), %rax
 5179      FEFFFF
 5180 26bb 4889D6   		movq	%rdx, %rsi
 5181 26be 4889C7   		movq	%rax, %rdi
 5182              	.LEHB150:
 5183 26c1 E832FFFF 		call	_ZN12_GLOBAL__N_144XmlTestReporterFixtureMultipleFailuresHelperC2ERKN8UnitTest11TestDetailsE
 5183      FF
 5184              	.LEHE150:
 5185              		.loc 3 159 0 is_stmt 0 discriminator 1
 5186 26c6 C6851FFE 		movb	$1, -481(%rbp)
 5186      FFFF01
 5187 26cd 488B8508 		movq	-504(%rbp), %rax
 5187      FEFFFF
 5188 26d4 488D5008 		leaq	8(%rax), %rdx
 5189 26d8 488D8550 		leaq	-432(%rbp), %rax
 5189      FEFFFF
 5190 26df 4889D6   		movq	%rdx, %rsi
 5191 26e2 4889C7   		movq	%rax, %rdi
 5192              	.LEHB151:
 5193 26e5 E8E31700 		call	_ZN8UnitTest11ExecuteTestIN12_GLOBAL__N_144XmlTestReporterFixtureMultipleFailuresHelperEEEvRT
 5193      00
 5194              	.LEHE151:
 5195              		.loc 3 159 0 discriminator 3
 5196 26ea 488D8550 		leaq	-432(%rbp), %rax
 5196      FEFFFF
 5197 26f1 4889C7   		movq	%rax, %rdi
 5198              	.LEHB152:
 5199 26f4 E86BFFFF 		call	_ZN12_GLOBAL__N_144XmlTestReporterFixtureMultipleFailuresHelperD2Ev
 5199      FF
 5200              	.LEHE152:
 5201              	.LBE129:
 5202              	.LBE128:
 5203              		.loc 3 159 0
 5204 26f9 E9640200 		jmp	.L301
 5204      00
 5205              	.L295:
 5206 26fe 4989C4   		movq	%rax, %r12
 5207 2701 4889D3   		movq	%rdx, %rbx
 5208              	.LBB137:
 5209              	.LBB130:
 5210 2704 488D8550 		leaq	-432(%rbp), %rax
 5210      FEFFFF
 5211 270b 4889C7   		movq	%rax, %rdi
 5212 270e E851FFFF 		call	_ZN12_GLOBAL__N_144XmlTestReporterFixtureMultipleFailuresHelperD2Ev
 5212      FF
 5213 2713 4C89E0   		movq	%r12, %rax
 5214 2716 4889DA   		movq	%rbx, %rdx
 5215 2719 EB00     		jmp	.L282
 5216              	.L294:
 5217              	.L282:
 5218 271b 4883FA01 		cmpq	$1, %rdx
 5219 271f 745C     		je	.L284
 5220 2721 4883FA02 		cmpq	$2, %rdx
 5221 2725 0F84F400 		je	.L285
 5221      0000
 5222 272b E9980100 		jmp	.L300
 5222      00
 5223              	.L296:
 5224 2730 4889C3   		movq	%rax, %rbx
 5225              	.LBE130:
 5226              	.LBB131:
 5227 2733 E8000000 		call	__cxa_end_catch
 5227      00
 5228 2738 4889D8   		movq	%rbx, %rax
 5229 273b 4889C7   		movq	%rax, %rdi
 5230              	.LEHB153:
 5231 273e E8000000 		call	_Unwind_Resume
 5231      00
 5232              	.LEHE153:
 5233              	.L297:
 5234 2743 4889C3   		movq	%rax, %rbx
 5235              	.LBE131:
 5236              	.LBB132:
 5237              	.LBB133:
 5238 2746 488D8550 		leaq	-432(%rbp), %rax
 5238      FEFFFF
 5239 274d 4889C7   		movq	%rax, %rdi
 5240 2750 E8000000 		call	_ZN8UnitTest15MemoryOutStreamD1Ev
 5240      00
 5241 2755 EB03     		jmp	.L288
 5242              	.L298:
 5243 2757 4889C3   		movq	%rax, %rbx
 5244              	.L288:
 5245              	.LBE133:
 5246 275a E8000000 		call	__cxa_end_catch
 5246      00
 5247 275f 4889D8   		movq	%rbx, %rax
 5248 2762 4889C7   		movq	%rax, %rdi
 5249              	.LEHB154:
 5250 2765 E8000000 		call	_Unwind_Resume
 5250      00
 5251              	.LEHE154:
 5252              	.L299:
 5253 276a 4889C3   		movq	%rax, %rbx
 5254              	.LBE132:
 5255 276d E8000000 		call	__cxa_end_catch
 5255      00
 5256 2772 4889D8   		movq	%rbx, %rax
 5257 2775 4889C7   		movq	%rax, %rdi
 5258              	.LEHB155:
 5259 2778 E8000000 		call	_Unwind_Resume
 5259      00
 5260              	.LEHE155:
 5261              	.L284:
 5262              	.LBB135:
 5263 277d 4889C7   		movq	%rax, %rdi
 5264 2780 E8000000 		call	__cxa_begin_catch
 5264      00
 5265 2785 48898520 		movq	%rax, -480(%rbp)
 5265      FEFFFF
 5266 278c 488B8520 		movq	-480(%rbp), %rax
 5266      FEFFFF
 5267 2793 488B00   		movq	(%rax), %rax
 5268 2796 4883C010 		addq	$16, %rax
 5269 279a 488B00   		movq	(%rax), %rax
 5270 279d 488B9520 		movq	-480(%rbp), %rdx
 5270      FEFFFF
 5271 27a4 4889D7   		movq	%rdx, %rdi
 5272 27a7 FFD0     		call	*%rax
 5273 27a9 4889C3   		movq	%rax, %rbx
 5274 27ac 488B8520 		movq	-480(%rbp), %rax
 5274      FEFFFF
 5275 27b3 4889C7   		movq	%rax, %rdi
 5276              	.LEHB156:
 5277 27b6 E8000000 		call	_ZNK8UnitTest15AssertException10LineNumberEv
 5277      00
 5278 27bb 4189C4   		movl	%eax, %r12d
 5279 27be 488B8520 		movq	-480(%rbp), %rax
 5279      FEFFFF
 5280 27c5 4889C7   		movq	%rax, %rdi
 5281 27c8 E8000000 		call	_ZNK8UnitTest15AssertException8FilenameEv
 5281      00
 5282              		.loc 3 159 0 discriminator 5
 5283 27cd 4889C1   		movq	%rax, %rcx
 5284 27d0 488B8508 		movq	-504(%rbp), %rax
 5284      FEFFFF
 5285 27d7 488B5008 		movq	8(%rax), %rdx
 5286 27db 488B8508 		movq	-504(%rbp), %rax
 5286      FEFFFF
 5287 27e2 488B7010 		movq	16(%rax), %rsi
 5288 27e6 488D8530 		leaq	-464(%rbp), %rax
 5288      FEFFFF
 5289 27ed 4589E0   		movl	%r12d, %r8d
 5290 27f0 4889C7   		movq	%rax, %rdi
 5291 27f3 E8000000 		call	_ZN8UnitTest11TestDetailsC1EPKcS2_S2_i
 5291      00
 5292              		.loc 3 159 0 discriminator 9
 5293 27f8 E8000000 		call	_ZN8UnitTest11CurrentTest7ResultsEv
 5293      00
 5294 27fd 488B00   		movq	(%rax), %rax
 5295 2800 488D8D30 		leaq	-464(%rbp), %rcx
 5295      FEFFFF
 5296 2807 4889DA   		movq	%rbx, %rdx
 5297 280a 4889CE   		movq	%rcx, %rsi
 5298 280d 4889C7   		movq	%rax, %rdi
 5299 2810 E8000000 		call	_ZN8UnitTest11TestResults13OnTestFailureERKNS_11TestDetailsEPKc
 5299      00
 5300              	.LEHE156:
 5301              		.loc 3 159 0 discriminator 13
 5302 2815 E8000000 		call	__cxa_end_catch
 5302      00
 5303              	.LBE135:
 5304              	.LBE137:
 5305 281a E9430100 		jmp	.L301
 5305      00
 5306              	.L285:
 5307              	.LBB138:
 5308              	.LBB136:
 5309              		.loc 3 159 0
 5310 281f 4889C7   		movq	%rax, %rdi
 5311 2822 E8000000 		call	__cxa_begin_catch
 5311      00
 5312 2827 48898528 		movq	%rax, -472(%rbp)
 5312      FEFFFF
 5313              	.LBB134:
 5314 282e 488D8550 		leaq	-432(%rbp), %rax
 5314      FEFFFF
 5315 2835 4889C7   		movq	%rax, %rdi
 5316              	.LEHB157:
 5317 2838 E8000000 		call	_ZN8UnitTest15MemoryOutStreamC1Ev
 5317      00
 5318              	.LEHE157:
 5319              		.loc 3 159 0 discriminator 15
 5320 283d 488B8528 		movq	-472(%rbp), %rax
 5320      FEFFFF
 5321 2844 488B00   		movq	(%rax), %rax
 5322 2847 4883C010 		addq	$16, %rax
 5323 284b 488B00   		movq	(%rax), %rax
 5324 284e 488B9528 		movq	-472(%rbp), %rdx
 5324      FEFFFF
 5325 2855 4889D7   		movq	%rdx, %rdi
 5326 2858 FFD0     		call	*%rax
 5327 285a 4889C3   		movq	%rax, %rbx
 5328 285d 488D8550 		leaq	-432(%rbp), %rax
 5328      FEFFFF
 5329 2864 BE000000 		movl	$.LC3, %esi
 5329      00
 5330 2869 4889C7   		movq	%rax, %rdi
 5331              	.LEHB158:
 5332 286c E8000000 		call	_ZStlsISt11char_traitsIcEERSt13basic_ostreamIcT_ES5_PKc
 5332      00
 5333 2871 4889DE   		movq	%rbx, %rsi
 5334 2874 4889C7   		movq	%rax, %rdi
 5335 2877 E8000000 		call	_ZStlsISt11char_traitsIcEERSt13basic_ostreamIcT_ES5_PKc
 5335      00
 5336              		.loc 3 159 0 discriminator 19
 5337 287c 488D8550 		leaq	-432(%rbp), %rax
 5337      FEFFFF
 5338 2883 4889C7   		movq	%rax, %rdi
 5339 2886 E8000000 		call	_ZNK8UnitTest15MemoryOutStream7GetTextEv
 5339      00
 5340 288b 4989C4   		movq	%rax, %r12
 5341 288e 488B8508 		movq	-504(%rbp), %rax
 5341      FEFFFF
 5342 2895 488D5808 		leaq	8(%rax), %rbx
 5343 2899 E8000000 		call	_ZN8UnitTest11CurrentTest7ResultsEv
 5343      00
 5344              		.loc 3 159 0 discriminator 21
 5345 289e 488B00   		movq	(%rax), %rax
 5346 28a1 4C89E2   		movq	%r12, %rdx
 5347 28a4 4889DE   		movq	%rbx, %rsi
 5348 28a7 4889C7   		movq	%rax, %rdi
 5349 28aa E8000000 		call	_ZN8UnitTest11TestResults13OnTestFailureERKNS_11TestDetailsEPKc
 5349      00
 5350              	.LEHE158:
 5351              		.loc 3 159 0 discriminator 25
 5352 28af 488D8550 		leaq	-432(%rbp), %rax
 5352      FEFFFF
 5353 28b6 4889C7   		movq	%rax, %rdi
 5354              	.LEHB159:
 5355 28b9 E8000000 		call	_ZN8UnitTest15MemoryOutStreamD1Ev
 5355      00
 5356              	.LEHE159:
 5357              	.LBE134:
 5358              		.loc 3 159 0 discriminator 26
 5359 28be E8000000 		call	__cxa_end_catch
 5359      00
 5360              	.LBE136:
 5361              	.LBE138:
 5362 28c3 E99A0000 		jmp	.L301
 5362      00
 5363              	.L300:
 5364              	.LBB139:
 5365              		.loc 3 159 0
 5366 28c8 4889C7   		movq	%rax, %rdi
 5367 28cb E8000000 		call	__cxa_begin_catch
 5367      00
 5368 28d0 80BD1FFE 		cmpb	$0, -481(%rbp)
 5368      FFFF00
 5369 28d7 7443     		je	.L291
 5370              		.loc 3 159 0 discriminator 28
 5371 28d9 488B8508 		movq	-504(%rbp), %rax
 5371      FEFFFF
 5372 28e0 488D4808 		leaq	8(%rax), %rcx
 5373 28e4 488D8530 		leaq	-464(%rbp), %rax
 5373      FEFFFF
 5374 28eb BA9F0000 		movl	$159, %edx
 5374      00
 5375 28f0 4889CE   		movq	%rcx, %rsi
 5376 28f3 4889C7   		movq	%rax, %rdi
 5377              	.LEHB160:
 5378 28f6 E8000000 		call	_ZN8UnitTest11TestDetailsC1ERKS0_i
 5378      00
 5379              		.loc 3 159 0 discriminator 31
 5380 28fb E8000000 		call	_ZN8UnitTest11CurrentTest7ResultsEv
 5380      00
 5381 2900 488B00   		movq	(%rax), %rax
 5382 2903 488D8D30 		leaq	-464(%rbp), %rcx
 5382      FEFFFF
 5383 290a BA000000 		movl	$.LC4, %edx
 5383      00
 5384 290f 4889CE   		movq	%rcx, %rsi
