   1              		.file	"TestCurrentTest.cpp"
   2              		.text
   3              	.Ltext0:
   4              		.section	.rodata
   5              	.LC0:
   6 0000 44656661 		.string	"DefaultSuite"
   6      756C7453 
   6      75697465 
   6      00
   7              		.section	.text._ZN13UnitTestSuite12GetSuiteNameEv,"axG",@progbits,_ZN13UnitTestSuite12GetSuiteName
   8              		.weak	_ZN13UnitTestSuite12GetSuiteNameEv
  10              	_ZN13UnitTestSuite12GetSuiteNameEv:
  11              	.LFB0:
  12              		.file 1 "../TestSuite.h"
   1:../TestSuite.h **** #ifndef UNITTEST_TESTSUITE_H
   2:../TestSuite.h **** #define UNITTEST_TESTSUITE_H
   3:../TestSuite.h **** 
   4:../TestSuite.h **** namespace UnitTestSuite {
   5:../TestSuite.h **** 
   6:../TestSuite.h ****     inline char const* GetSuiteName ()
   7:../TestSuite.h ****     {
  13              		.loc 1 7 0
  14              		.cfi_startproc
  15 0000 55       		pushq	%rbp
  16              		.cfi_def_cfa_offset 16
  17              		.cfi_offset 6, -16
  18 0001 4889E5   		movq	%rsp, %rbp
  19              		.cfi_def_cfa_register 6
   8:../TestSuite.h ****         return "DefaultSuite";
  20              		.loc 1 8 0
  21 0004 B8000000 		movl	$.LC0, %eax
  21      00
   9:../TestSuite.h ****     }
  22              		.loc 1 9 0
  23 0009 5D       		popq	%rbp
  24              		.cfi_def_cfa 7, 8
  25 000a C3       		ret
  26              		.cfi_endproc
  27              	.LFE0:
  29              		.section	.text._ZN17ScopedCurrentTestC2Ev,"axG",@progbits,_ZN17ScopedCurrentTestC5Ev,comdat
  30              		.align 2
  31              		.weak	_ZN17ScopedCurrentTestC2Ev
  33              	_ZN17ScopedCurrentTestC2Ev:
  34              	.LFB1066:
  35              		.file 2 "ScopedCurrentTest.h"
   1:ScopedCurrentTest.h **** #ifndef UNITTEST_SCOPEDCURRENTTEST_H
   2:ScopedCurrentTest.h **** #define UNITTEST_SCOPEDCURRENTTEST_H
   3:ScopedCurrentTest.h **** 
   4:ScopedCurrentTest.h **** #include "../CurrentTest.h"
   5:ScopedCurrentTest.h **** #include <cstddef>
   6:ScopedCurrentTest.h **** 
   7:ScopedCurrentTest.h **** class ScopedCurrentTest
   8:ScopedCurrentTest.h **** {
   9:ScopedCurrentTest.h **** public:
  10:ScopedCurrentTest.h **** 	ScopedCurrentTest()
  36              		.loc 2 10 0
  37              		.cfi_startproc
  38 0000 55       		pushq	%rbp
  39              		.cfi_def_cfa_offset 16
  40              		.cfi_offset 6, -16
  41 0001 4889E5   		movq	%rsp, %rbp
  42              		.cfi_def_cfa_register 6
  43 0004 4883EC10 		subq	$16, %rsp
  44 0008 48897DF8 		movq	%rdi, -8(%rbp)
  45              	.LBB2:
  11:ScopedCurrentTest.h **** 		: m_oldTestResults(UnitTest::CurrentTest::Results())
  46              		.loc 2 11 0
  47 000c E8000000 		call	_ZN8UnitTest11CurrentTest7ResultsEv
  47      00
  12:ScopedCurrentTest.h **** 		, m_oldTestDetails(UnitTest::CurrentTest::Details())
  48              		.loc 2 12 0
  49 0011 488B10   		movq	(%rax), %rdx
  50 0014 488B45F8 		movq	-8(%rbp), %rax
  51 0018 488910   		movq	%rdx, (%rax)
  52 001b E8000000 		call	_ZN8UnitTest11CurrentTest7DetailsEv
  52      00
  53 0020 488B10   		movq	(%rax), %rdx
  54 0023 488B45F8 		movq	-8(%rbp), %rax
  55 0027 48895008 		movq	%rdx, 8(%rax)
  56              	.LBE2:
  13:ScopedCurrentTest.h **** 	{
  14:ScopedCurrentTest.h **** 	}
  57              		.loc 2 14 0
  58 002b C9       		leave
  59              		.cfi_def_cfa 7, 8
  60 002c C3       		ret
  61              		.cfi_endproc
  62              	.LFE1066:
  64              		.weak	_ZN17ScopedCurrentTestC1Ev
  65              		.set	_ZN17ScopedCurrentTestC1Ev,_ZN17ScopedCurrentTestC2Ev
  66              		.section	.text._ZN17ScopedCurrentTestD2Ev,"axG",@progbits,_ZN17ScopedCurrentTestD5Ev,comdat
  67              		.align 2
  68              		.weak	_ZN17ScopedCurrentTestD2Ev
  70              	_ZN17ScopedCurrentTestD2Ev:
  71              	.LFB1072:
  15:ScopedCurrentTest.h **** 
  16:ScopedCurrentTest.h **** 	explicit ScopedCurrentTest(UnitTest::TestResults& newResults, const UnitTest::TestDetails* newDeta
  17:ScopedCurrentTest.h **** 		: m_oldTestResults(UnitTest::CurrentTest::Results())
  18:ScopedCurrentTest.h **** 		, m_oldTestDetails(UnitTest::CurrentTest::Details())
  19:ScopedCurrentTest.h **** 	{
  20:ScopedCurrentTest.h **** 		UnitTest::CurrentTest::Results() = &newResults;
  21:ScopedCurrentTest.h **** 
  22:ScopedCurrentTest.h **** 		if (newDetails != NULL)
  23:ScopedCurrentTest.h **** 			UnitTest::CurrentTest::Details() = newDetails;
  24:ScopedCurrentTest.h **** 	}
  25:ScopedCurrentTest.h **** 
  26:ScopedCurrentTest.h **** 	~ScopedCurrentTest()
  72              		.loc 2 26 0
  73              		.cfi_startproc
  74 0000 55       		pushq	%rbp
  75              		.cfi_def_cfa_offset 16
  76              		.cfi_offset 6, -16
  77 0001 4889E5   		movq	%rsp, %rbp
  78              		.cfi_def_cfa_register 6
  79 0004 4883EC10 		subq	$16, %rsp
  80 0008 48897DF8 		movq	%rdi, -8(%rbp)
  81              	.LBB3:
  27:ScopedCurrentTest.h **** 	{
  28:ScopedCurrentTest.h **** 		UnitTest::CurrentTest::Results() = m_oldTestResults;
  82              		.loc 2 28 0
  83 000c E8000000 		call	_ZN8UnitTest11CurrentTest7ResultsEv
  83      00
  84 0011 4889C2   		movq	%rax, %rdx
  85 0014 488B45F8 		movq	-8(%rbp), %rax
  86 0018 488B00   		movq	(%rax), %rax
  87 001b 488902   		movq	%rax, (%rdx)
  29:ScopedCurrentTest.h **** 		UnitTest::CurrentTest::Details() = m_oldTestDetails;
  88              		.loc 2 29 0
  89 001e E8000000 		call	_ZN8UnitTest11CurrentTest7DetailsEv
  89      00
  90 0023 4889C2   		movq	%rax, %rdx
  91 0026 488B45F8 		movq	-8(%rbp), %rax
  92 002a 488B4008 		movq	8(%rax), %rax
  93 002e 488902   		movq	%rax, (%rdx)
  94              	.LBE3:
  30:ScopedCurrentTest.h **** 	}
  95              		.loc 2 30 0
  96 0031 C9       		leave
  97              		.cfi_def_cfa 7, 8
  98 0032 C3       		ret
  99              		.cfi_endproc
 100              	.LFE1072:
 102              		.weak	_ZN17ScopedCurrentTestD1Ev
 103              		.set	_ZN17ScopedCurrentTestD1Ev,_ZN17ScopedCurrentTestD2Ev
 104              		.section	.rodata
 105              	.LC1:
 106 000d 54657374 		.string	"TestCurrentTest.cpp"
 106      43757272 
 106      656E7454 
 106      6573742E 
 106      63707000 
 107              	.LC2:
 108 0021 43616E53 		.string	"CanSetandGetDetails"
 108      6574616E 
 108      64476574 
 108      44657461 
 108      696C7300 
 109              		.text
 110              		.align 2
 112              	_ZN12_GLOBAL__N_123TestCanSetandGetDetailsC2Ev:
 113              	.LFB1075:
 114              		.file 3 "TestCurrentTest.cpp"
   1:TestCurrentTest.cpp **** #include "../UnitTest++.h"
   2:TestCurrentTest.cpp **** #include "../CurrentTest.h"
   3:TestCurrentTest.cpp **** #include "ScopedCurrentTest.h"
   4:TestCurrentTest.cpp **** 
   5:TestCurrentTest.cpp **** namespace 
   6:TestCurrentTest.cpp **** {
   7:TestCurrentTest.cpp **** 
   8:TestCurrentTest.cpp **** TEST(CanSetandGetDetails)
 115              		.loc 3 8 0
 116              		.cfi_startproc
 117 0000 55       		pushq	%rbp
 118              		.cfi_def_cfa_offset 16
 119              		.cfi_offset 6, -16
 120 0001 4889E5   		movq	%rsp, %rbp
 121              		.cfi_def_cfa_register 6
 122 0004 4883EC10 		subq	$16, %rsp
 123 0008 48897DF8 		movq	%rdi, -8(%rbp)
 124              	.LBB4:
 125              		.loc 3 8 0
 126 000c E8000000 		call	_ZN13UnitTestSuite12GetSuiteNameEv
 126      00
 127 0011 4889C2   		movq	%rax, %rdx
 128 0014 488B45F8 		movq	-8(%rbp), %rax
 129 0018 41B80800 		movl	$8, %r8d
 129      0000
 130 001e B9000000 		movl	$.LC1, %ecx
 130      00
 131 0023 BE000000 		movl	$.LC2, %esi
 131      00
 132 0028 4889C7   		movq	%rax, %rdi
 133 002b E8000000 		call	_ZN8UnitTest4TestC2EPKcS2_S2_i
 133      00
 134 0030 488B45F8 		movq	-8(%rbp), %rax
 135 0034 48C70000 		movq	$_ZTVN12_GLOBAL__N_123TestCanSetandGetDetailsE+16, (%rax)
 135      000000
 136              	.LBE4:
 137 003b C9       		leave
 138              		.cfi_def_cfa 7, 8
 139 003c C3       		ret
 140              		.cfi_endproc
 141              	.LFE1075:
 143              		.local	_ZN12_GLOBAL__N_131testCanSetandGetDetailsInstanceE
 144              		.comm	_ZN12_GLOBAL__N_131testCanSetandGetDetailsInstanceE,56,32
 145              		.local	_ZN12_GLOBAL__N_124adderCanSetandGetDetailsE
 146              		.comm	_ZN12_GLOBAL__N_124adderCanSetandGetDetailsE,1,1
 147              		.section	.rodata
 148              	.LC3:
 149 0035 6F6B00   		.string	"ok"
 150              		.align 8
 151              	.LC4:
 152 0038 556E6861 		.string	"Unhandled exception in CHECK(ok)"
 152      6E646C65 
 152      64206578 
 152      63657074 
 152      696F6E20 
 153              		.text
 154 003d 90       		.align 2
 156              	_ZNK12_GLOBAL__N_123TestCanSetandGetDetails7RunImplEv:
 157              	.LFB1077:
   9:TestCurrentTest.cpp **** {
 158              		.loc 3 9 0
 159              		.cfi_startproc
 160              		.cfi_personality 0x3,__gxx_personality_v0
 161              		.cfi_lsda 0x3,.LLSDA1077
 162 003e 55       		pushq	%rbp
 163              		.cfi_def_cfa_offset 16
 164              		.cfi_offset 6, -16
 165 003f 4889E5   		movq	%rsp, %rbp
 166              		.cfi_def_cfa_register 6
 167 0042 53       		pushq	%rbx
 168 0043 4883EC58 		subq	$88, %rsp
 169              		.cfi_offset 3, -24
 170 0047 48897DA8 		movq	%rdi, -88(%rbp)
 171              		.loc 3 9 0
 172 004b 64488B04 		movq	%fs:40, %rax
 172      25280000 
 172      00
 173 0054 488945E8 		movq	%rax, -24(%rbp)
 174 0058 31C0     		xorl	%eax, %eax
 175              	.LBB5:
  10:TestCurrentTest.cpp **** 	bool ok = false;
 176              		.loc 3 10 0
 177 005a C645B700 		movb	$0, -73(%rbp)
 178              	.LBB6:
  11:TestCurrentTest.cpp **** 	{
  12:TestCurrentTest.cpp **** 		ScopedCurrentTest scopedTest;
 179              		.loc 3 12 0
 180 005e 488D45C0 		leaq	-64(%rbp), %rax
 181 0062 4889C7   		movq	%rax, %rdi
 182              	.LEHB0:
 183 0065 E8000000 		call	_ZN17ScopedCurrentTestC1Ev
 183      00
 184              	.LEHE0:
  13:TestCurrentTest.cpp **** 
  14:TestCurrentTest.cpp **** 		const UnitTest::TestDetails* details = reinterpret_cast< const UnitTest::TestDetails* >(12345);
 185              		.loc 3 14 0
 186 006a 48C745B8 		movq	$12345, -72(%rbp)
 186      39300000 
 187              	.LEHB1:
  15:TestCurrentTest.cpp **** 		UnitTest::CurrentTest::Details() = details;
 188              		.loc 3 15 0
 189 0072 E8000000 		call	_ZN8UnitTest11CurrentTest7DetailsEv
 189      00
 190 0077 4889C2   		movq	%rax, %rdx
 191 007a 488B45B8 		movq	-72(%rbp), %rax
 192 007e 488902   		movq	%rax, (%rdx)
  16:TestCurrentTest.cpp **** 
  17:TestCurrentTest.cpp **** 		ok = (UnitTest::CurrentTest::Details() == details);
 193              		.loc 3 17 0
 194 0081 E8000000 		call	_ZN8UnitTest11CurrentTest7DetailsEv
 194      00
 195              	.LEHE1:
 196              		.loc 3 17 0 is_stmt 0 discriminator 1
 197 0086 488B00   		movq	(%rax), %rax
 198 0089 483B45B8 		cmpq	-72(%rbp), %rax
 199 008d 0F94C0   		sete	%al
 200 0090 8845B7   		movb	%al, -73(%rbp)
 201 0093 488D45C0 		leaq	-64(%rbp), %rax
 202 0097 4889C7   		movq	%rax, %rdi
 203              	.LEHB2:
 204 009a E8000000 		call	_ZN17ScopedCurrentTestD1Ev
 204      00
 205              	.LEHE2:
 206              	.LBE6:
  18:TestCurrentTest.cpp **** 	}
  19:TestCurrentTest.cpp **** 
  20:TestCurrentTest.cpp **** 	CHECK(ok);
 207              		.loc 3 20 0 is_stmt 1 discriminator 1
 208 009f 0FB645B7 		movzbl	-73(%rbp), %eax
 209 00a3 89C7     		movl	%eax, %edi
 210 00a5 E8000000 		call	_ZN8UnitTest5CheckIbEEbT_
 210      00
 211 00aa 83F001   		xorl	$1, %eax
 212 00ad 84C0     		testb	%al, %al
 213 00af 0F84AD00 		je	.L7
 213      0000
 214              	.LEHB3:
 215 00b5 E8000000 		call	_ZN8UnitTest11CurrentTest7DetailsEv
 215      00
 216 00ba 488B08   		movq	(%rax), %rcx
 217 00bd 488D45C0 		leaq	-64(%rbp), %rax
 218 00c1 BA140000 		movl	$20, %edx
 218      00
 219 00c6 4889CE   		movq	%rcx, %rsi
 220 00c9 4889C7   		movq	%rax, %rdi
 221 00cc E8000000 		call	_ZN8UnitTest11TestDetailsC1ERKS0_i
 221      00
 222              		.loc 3 20 0 is_stmt 0 discriminator 3
 223 00d1 E8000000 		call	_ZN8UnitTest11CurrentTest7ResultsEv
 223      00
 224 00d6 488B00   		movq	(%rax), %rax
 225 00d9 488D4DC0 		leaq	-64(%rbp), %rcx
 226 00dd BA000000 		movl	$.LC3, %edx
 226      00
 227 00e2 4889CE   		movq	%rcx, %rsi
 228 00e5 4889C7   		movq	%rax, %rdi
 229 00e8 E8000000 		call	_ZN8UnitTest11TestResults13OnTestFailureERKNS_11TestDetailsEPKc
 229      00
 230              	.LEHE3:
 231 00ed EB73     		jmp	.L7
 232              	.L13:
 233 00ef 4889C3   		movq	%rax, %rbx
 234              	.LBB7:
  17:TestCurrentTest.cpp **** 	}
 235              		.loc 3 17 0 is_stmt 1
 236 00f2 488D45C0 		leaq	-64(%rbp), %rax
 237 00f6 4889C7   		movq	%rax, %rdi
 238 00f9 E8000000 		call	_ZN17ScopedCurrentTestD1Ev
 238      00
 239 00fe 4889D8   		movq	%rbx, %rax
 240 0101 4889C7   		movq	%rax, %rdi
 241              	.LEHB4:
 242 0104 E8000000 		call	_Unwind_Resume
 242      00
 243              	.LEHE4:
 244              	.L15:
 245 0109 4889C3   		movq	%rax, %rbx
 246              	.LBE7:
 247              		.loc 3 20 0
 248 010c E8000000 		call	__cxa_end_catch
 248      00
 249 0111 4889D8   		movq	%rbx, %rax
 250 0114 4889C7   		movq	%rax, %rdi
 251              	.LEHB5:
 252 0117 E8000000 		call	_Unwind_Resume
 252      00
 253              	.LEHE5:
 254              	.L14:
 255 011c 4889C7   		movq	%rax, %rdi
 256 011f E8000000 		call	__cxa_begin_catch
 256      00
 257              	.LEHB6:
 258 0124 E8000000 		call	_ZN8UnitTest11CurrentTest7DetailsEv
 258      00
 259 0129 488B08   		movq	(%rax), %rcx
 260 012c 488D45C0 		leaq	-64(%rbp), %rax
 261 0130 BA140000 		movl	$20, %edx
 261      00
 262 0135 4889CE   		movq	%rcx, %rsi
 263 0138 4889C7   		movq	%rax, %rdi
 264 013b E8000000 		call	_ZN8UnitTest11TestDetailsC1ERKS0_i
 264      00
 265              		.loc 3 20 0 is_stmt 0 discriminator 11
 266 0140 E8000000 		call	_ZN8UnitTest11CurrentTest7ResultsEv
 266      00
 267 0145 488B00   		movq	(%rax), %rax
 268 0148 488D4DC0 		leaq	-64(%rbp), %rcx
 269 014c BA000000 		movl	$.LC4, %edx
 269      00
 270 0151 4889CE   		movq	%rcx, %rsi
 271 0154 4889C7   		movq	%rax, %rdi
 272 0157 E8000000 		call	_ZN8UnitTest11TestResults13OnTestFailureERKNS_11TestDetailsEPKc
 272      00
 273              	.LEHE6:
 274              	.LEHB7:
 275              		.loc 3 20 0 discriminator 15
 276 015c E8000000 		call	__cxa_end_catch
 276      00
 277              	.LEHE7:
 278              	.LBE5:
  21:TestCurrentTest.cpp **** }
 279              		.loc 3 21 0 is_stmt 1 discriminator 15
 280 0161 90       		nop
 281              	.L7:
 282              		.loc 3 21 0 is_stmt 0
 283 0162 488B45E8 		movq	-24(%rbp), %rax
 284 0166 64483304 		xorq	%fs:40, %rax
 284      25280000 
 284      00
 285 016f 7405     		je	.L12
 286 0171 E8000000 		call	__stack_chk_fail
 286      00
 287              	.L12:
 288 0176 4883C458 		addq	$88, %rsp
 289 017a 5B       		popq	%rbx
 290 017b 5D       		popq	%rbp
 291              		.cfi_def_cfa 7, 8
 292 017c C3       		ret
 293              		.cfi_endproc
 294              	.LFE1077:
 295              		.globl	__gxx_personality_v0
 296              		.section	.gcc_except_table,"a",@progbits
 297              		.align 4
 298              	.LLSDA1077:
 299 0000 FF       		.byte	0xff
 300 0001 03       		.byte	0x3
 301 0002 31       		.uleb128 .LLSDATT1077-.LLSDATTD1077
 302              	.LLSDATTD1077:
 303 0003 01       		.byte	0x1
 304 0004 27       		.uleb128 .LLSDACSE1077-.LLSDACSB1077
 305              	.LLSDACSB1077:
 306 0005 27       		.uleb128 .LEHB0-.LFB1077
 307 0006 05       		.uleb128 .LEHE0-.LEHB0
 308 0007 00       		.uleb128 0
 309 0008 00       		.uleb128 0
 310 0009 34       		.uleb128 .LEHB1-.LFB1077
 311 000a 14       		.uleb128 .LEHE1-.LEHB1
 312 000b B101     		.uleb128 .L13-.LFB1077
 313 000d 00       		.uleb128 0
 314 000e 5C       		.uleb128 .LEHB2-.LFB1077
 315 000f 05       		.uleb128 .LEHE2-.LEHB2
 316 0010 00       		.uleb128 0
 317 0011 00       		.uleb128 0
 318 0012 77       		.uleb128 .LEHB3-.LFB1077
 319 0013 38       		.uleb128 .LEHE3-.LEHB3
 320 0014 DE01     		.uleb128 .L14-.LFB1077
 321 0016 01       		.uleb128 0x1
 322 0017 C601     		.uleb128 .LEHB4-.LFB1077
 323 0019 05       		.uleb128 .LEHE4-.LEHB4
 324 001a 00       		.uleb128 0
 325 001b 00       		.uleb128 0
 326 001c D901     		.uleb128 .LEHB5-.LFB1077
 327 001e 05       		.uleb128 .LEHE5-.LEHB5
 328 001f 00       		.uleb128 0
 329 0020 00       		.uleb128 0
 330 0021 E601     		.uleb128 .LEHB6-.LFB1077
 331 0023 38       		.uleb128 .LEHE6-.LEHB6
 332 0024 CB01     		.uleb128 .L15-.LFB1077
 333 0026 00       		.uleb128 0
 334 0027 9E02     		.uleb128 .LEHB7-.LFB1077
 335 0029 05       		.uleb128 .LEHE7-.LEHB7
 336 002a 00       		.uleb128 0
 337 002b 00       		.uleb128 0
 338              	.LLSDACSE1077:
 339 002c 01       		.byte	0x1
 340 002d 00       		.byte	0
 341 002e 0000     		.align 4
 342 0030 00000000 		.long	0
 343              	
 344              	.LLSDATT1077:
 345              		.text
 347              		.section	.rodata
 348              	.LC5:
 349 0059 43616E53 		.string	"CanSetAndGetResults"
 349      6574416E 
 349      64476574 
 349      52657375 
 349      6C747300 
 350              		.text
 351 017d 90       		.align 2
 353              	_ZN12_GLOBAL__N_123TestCanSetAndGetResultsC2Ev:
 354              	.LFB1079:
  22:TestCurrentTest.cpp **** 
  23:TestCurrentTest.cpp **** TEST(CanSetAndGetResults)
 355              		.loc 3 23 0 is_stmt 1
 356              		.cfi_startproc
 357 017e 55       		pushq	%rbp
 358              		.cfi_def_cfa_offset 16
 359              		.cfi_offset 6, -16
 360 017f 4889E5   		movq	%rsp, %rbp
 361              		.cfi_def_cfa_register 6
 362 0182 4883EC10 		subq	$16, %rsp
 363 0186 48897DF8 		movq	%rdi, -8(%rbp)
 364              	.LBB8:
 365              		.loc 3 23 0
 366 018a E8000000 		call	_ZN13UnitTestSuite12GetSuiteNameEv
 366      00
 367 018f 4889C2   		movq	%rax, %rdx
 368 0192 488B45F8 		movq	-8(%rbp), %rax
 369 0196 41B81700 		movl	$23, %r8d
 369      0000
 370 019c B9000000 		movl	$.LC1, %ecx
 370      00
 371 01a1 BE000000 		movl	$.LC5, %esi
 371      00
 372 01a6 4889C7   		movq	%rax, %rdi
 373 01a9 E8000000 		call	_ZN8UnitTest4TestC2EPKcS2_S2_i
 373      00
 374 01ae 488B45F8 		movq	-8(%rbp), %rax
 375 01b2 48C70000 		movq	$_ZTVN12_GLOBAL__N_123TestCanSetAndGetResultsE+16, (%rax)
 375      000000
 376              	.LBE8:
 377 01b9 C9       		leave
 378              		.cfi_def_cfa 7, 8
 379 01ba C3       		ret
 380              		.cfi_endproc
 381              	.LFE1079:
 383              		.local	_ZN12_GLOBAL__N_131testCanSetAndGetResultsInstanceE
 384              		.comm	_ZN12_GLOBAL__N_131testCanSetAndGetResultsInstanceE,56,32
 385              		.local	_ZN12_GLOBAL__N_124adderCanSetAndGetResultsE
 386              		.comm	_ZN12_GLOBAL__N_124adderCanSetAndGetResultsE,1,1
 387 01bb 90       		.align 2
 389              	_ZNK12_GLOBAL__N_123TestCanSetAndGetResults7RunImplEv:
 390              	.LFB1081:
  24:TestCurrentTest.cpp **** {
 391              		.loc 3 24 0
 392              		.cfi_startproc
 393              		.cfi_personality 0x3,__gxx_personality_v0
 394              		.cfi_lsda 0x3,.LLSDA1081
 395 01bc 55       		pushq	%rbp
 396              		.cfi_def_cfa_offset 16
 397              		.cfi_offset 6, -16
 398 01bd 4889E5   		movq	%rsp, %rbp
 399              		.cfi_def_cfa_register 6
 400 01c0 53       		pushq	%rbx
 401 01c1 4883EC68 		subq	$104, %rsp
 402              		.cfi_offset 3, -24
 403 01c5 48897D98 		movq	%rdi, -104(%rbp)
 404              		.loc 3 24 0
 405 01c9 64488B04 		movq	%fs:40, %rax
 405      25280000 
 405      00
 406 01d2 488945E8 		movq	%rax, -24(%rbp)
 407 01d6 31C0     		xorl	%eax, %eax
 408              	.LBB9:
  25:TestCurrentTest.cpp **** 	bool ok = false;
 409              		.loc 3 25 0
 410 01d8 C645AF00 		movb	$0, -81(%rbp)
 411              	.LBB10:
  26:TestCurrentTest.cpp **** 	{
  27:TestCurrentTest.cpp **** 		ScopedCurrentTest scopedTest;
 412              		.loc 3 27 0
 413 01dc 488D45B0 		leaq	-80(%rbp), %rax
 414 01e0 4889C7   		movq	%rax, %rdi
 415              	.LEHB8:
 416 01e3 E8000000 		call	_ZN17ScopedCurrentTestC1Ev
 416      00
 417              	.LEHE8:
  28:TestCurrentTest.cpp **** 
  29:TestCurrentTest.cpp **** 		UnitTest::TestResults results;
 418              		.loc 3 29 0
 419 01e8 488D45C0 		leaq	-64(%rbp), %rax
 420 01ec BE000000 		movl	$0, %esi
 420      00
 421 01f1 4889C7   		movq	%rax, %rdi
 422              	.LEHB9:
 423 01f4 E8000000 		call	_ZN8UnitTest11TestResultsC1EPNS_12TestReporterE
 423      00
  30:TestCurrentTest.cpp **** 		UnitTest::CurrentTest::Results() = &results;
 424              		.loc 3 30 0
 425 01f9 E8000000 		call	_ZN8UnitTest11CurrentTest7ResultsEv
 425      00
 426 01fe 4889C2   		movq	%rax, %rdx
 427 0201 488D45C0 		leaq	-64(%rbp), %rax
 428 0205 488902   		movq	%rax, (%rdx)
  31:TestCurrentTest.cpp **** 
  32:TestCurrentTest.cpp **** 		ok = (UnitTest::CurrentTest::Results() == &results);
 429              		.loc 3 32 0
 430 0208 E8000000 		call	_ZN8UnitTest11CurrentTest7ResultsEv
 430      00
 431              	.LEHE9:
 432              		.loc 3 32 0 is_stmt 0 discriminator 1
 433 020d 488B10   		movq	(%rax), %rdx
 434 0210 488D45C0 		leaq	-64(%rbp), %rax
 435 0214 4839C2   		cmpq	%rax, %rdx
 436 0217 0F94C0   		sete	%al
 437 021a 8845AF   		movb	%al, -81(%rbp)
 438 021d 488D45B0 		leaq	-80(%rbp), %rax
 439 0221 4889C7   		movq	%rax, %rdi
 440              	.LEHB10:
 441 0224 E8000000 		call	_ZN17ScopedCurrentTestD1Ev
 441      00
 442              	.LEHE10:
 443              	.LBE10:
  33:TestCurrentTest.cpp **** 	}
  34:TestCurrentTest.cpp **** 
  35:TestCurrentTest.cpp **** 	CHECK(ok);
 444              		.loc 3 35 0 is_stmt 1 discriminator 1
 445 0229 0FB645AF 		movzbl	-81(%rbp), %eax
 446 022d 89C7     		movl	%eax, %edi
 447 022f E8000000 		call	_ZN8UnitTest5CheckIbEEbT_
 447      00
 448 0234 83F001   		xorl	$1, %eax
 449 0237 84C0     		testb	%al, %al
 450 0239 0F84AD00 		je	.L17
 450      0000
 451              	.LEHB11:
 452 023f E8000000 		call	_ZN8UnitTest11CurrentTest7DetailsEv
 452      00
 453 0244 488B08   		movq	(%rax), %rcx
 454 0247 488D45C0 		leaq	-64(%rbp), %rax
 455 024b BA230000 		movl	$35, %edx
 455      00
 456 0250 4889CE   		movq	%rcx, %rsi
 457 0253 4889C7   		movq	%rax, %rdi
 458 0256 E8000000 		call	_ZN8UnitTest11TestDetailsC1ERKS0_i
 458      00
 459              		.loc 3 35 0 is_stmt 0 discriminator 3
 460 025b E8000000 		call	_ZN8UnitTest11CurrentTest7ResultsEv
 460      00
 461 0260 488B00   		movq	(%rax), %rax
 462 0263 488D4DC0 		leaq	-64(%rbp), %rcx
 463 0267 BA000000 		movl	$.LC3, %edx
 463      00
 464 026c 4889CE   		movq	%rcx, %rsi
 465 026f 4889C7   		movq	%rax, %rdi
 466 0272 E8000000 		call	_ZN8UnitTest11TestResults13OnTestFailureERKNS_11TestDetailsEPKc
 466      00
 467              	.LEHE11:
 468 0277 EB73     		jmp	.L17
 469              	.L23:
 470 0279 4889C3   		movq	%rax, %rbx
 471              	.LBB11:
  32:TestCurrentTest.cpp **** 	}
 472              		.loc 3 32 0 is_stmt 1
 473 027c 488D45B0 		leaq	-80(%rbp), %rax
 474 0280 4889C7   		movq	%rax, %rdi
 475 0283 E8000000 		call	_ZN17ScopedCurrentTestD1Ev
 475      00
 476 0288 4889D8   		movq	%rbx, %rax
 477 028b 4889C7   		movq	%rax, %rdi
 478              	.LEHB12:
 479 028e E8000000 		call	_Unwind_Resume
 479      00
 480              	.LEHE12:
 481              	.L25:
 482 0293 4889C3   		movq	%rax, %rbx
 483              	.LBE11:
 484              		.loc 3 35 0
 485 0296 E8000000 		call	__cxa_end_catch
 485      00
 486 029b 4889D8   		movq	%rbx, %rax
 487 029e 4889C7   		movq	%rax, %rdi
 488              	.LEHB13:
 489 02a1 E8000000 		call	_Unwind_Resume
 489      00
 490              	.LEHE13:
 491              	.L24:
 492 02a6 4889C7   		movq	%rax, %rdi
 493 02a9 E8000000 		call	__cxa_begin_catch
 493      00
 494              	.LEHB14:
 495 02ae E8000000 		call	_ZN8UnitTest11CurrentTest7DetailsEv
 495      00
 496 02b3 488B08   		movq	(%rax), %rcx
 497 02b6 488D45C0 		leaq	-64(%rbp), %rax
 498 02ba BA230000 		movl	$35, %edx
 498      00
 499 02bf 4889CE   		movq	%rcx, %rsi
 500 02c2 4889C7   		movq	%rax, %rdi
 501 02c5 E8000000 		call	_ZN8UnitTest11TestDetailsC1ERKS0_i
 501      00
 502              		.loc 3 35 0 is_stmt 0 discriminator 11
 503 02ca E8000000 		call	_ZN8UnitTest11CurrentTest7ResultsEv
 503      00
 504 02cf 488B00   		movq	(%rax), %rax
 505 02d2 488D4DC0 		leaq	-64(%rbp), %rcx
 506 02d6 BA000000 		movl	$.LC4, %edx
 506      00
 507 02db 4889CE   		movq	%rcx, %rsi
 508 02de 4889C7   		movq	%rax, %rdi
 509 02e1 E8000000 		call	_ZN8UnitTest11TestResults13OnTestFailureERKNS_11TestDetailsEPKc
 509      00
 510              	.LEHE14:
 511              	.LEHB15:
 512              		.loc 3 35 0 discriminator 15
 513 02e6 E8000000 		call	__cxa_end_catch
 513      00
 514              	.LEHE15:
 515              	.LBE9:
  36:TestCurrentTest.cpp **** }
 516              		.loc 3 36 0 is_stmt 1 discriminator 15
 517 02eb 90       		nop
 518              	.L17:
 519              		.loc 3 36 0 is_stmt 0
 520 02ec 488B45E8 		movq	-24(%rbp), %rax
 521 02f0 64483304 		xorq	%fs:40, %rax
 521      25280000 
 521      00
 522 02f9 7405     		je	.L22
 523 02fb E8000000 		call	__stack_chk_fail
 523      00
 524              	.L22:
 525 0300 4883C468 		addq	$104, %rsp
 526 0304 5B       		popq	%rbx
 527 0305 5D       		popq	%rbp
 528              		.cfi_def_cfa 7, 8
 529 0306 C3       		ret
 530              		.cfi_endproc
 531              	.LFE1081:
 532              		.section	.gcc_except_table
 533              		.align 4
 534              	.LLSDA1081:
 535 0034 FF       		.byte	0xff
 536 0035 03       		.byte	0x3
 537 0036 31       		.uleb128 .LLSDATT1081-.LLSDATTD1081
 538              	.LLSDATTD1081:
 539 0037 01       		.byte	0x1
 540 0038 28       		.uleb128 .LLSDACSE1081-.LLSDACSB1081
 541              	.LLSDACSB1081:
 542 0039 27       		.uleb128 .LEHB8-.LFB1081
 543 003a 05       		.uleb128 .LEHE8-.LEHB8
 544 003b 00       		.uleb128 0
 545 003c 00       		.uleb128 0
 546 003d 38       		.uleb128 .LEHB9-.LFB1081
 547 003e 19       		.uleb128 .LEHE9-.LEHB9
 548 003f BD01     		.uleb128 .L23-.LFB1081
 549 0041 00       		.uleb128 0
 550 0042 68       		.uleb128 .LEHB10-.LFB1081
 551 0043 05       		.uleb128 .LEHE10-.LEHB10
 552 0044 00       		.uleb128 0
 553 0045 00       		.uleb128 0
 554 0046 8301     		.uleb128 .LEHB11-.LFB1081
 555 0048 38       		.uleb128 .LEHE11-.LEHB11
 556 0049 EA01     		.uleb128 .L24-.LFB1081
 557 004b 01       		.uleb128 0x1
 558 004c D201     		.uleb128 .LEHB12-.LFB1081
 559 004e 05       		.uleb128 .LEHE12-.LEHB12
 560 004f 00       		.uleb128 0
 561 0050 00       		.uleb128 0
 562 0051 E501     		.uleb128 .LEHB13-.LFB1081
 563 0053 05       		.uleb128 .LEHE13-.LEHB13
 564 0054 00       		.uleb128 0
 565 0055 00       		.uleb128 0
 566 0056 F201     		.uleb128 .LEHB14-.LFB1081
 567 0058 38       		.uleb128 .LEHE14-.LEHB14
 568 0059 D701     		.uleb128 .L25-.LFB1081
 569 005b 00       		.uleb128 0
 570 005c AA02     		.uleb128 .LEHB15-.LFB1081
 571 005e 05       		.uleb128 .LEHE15-.LEHB15
 572 005f 00       		.uleb128 0
 573 0060 00       		.uleb128 0
 574              	.LLSDACSE1081:
 575 0061 01       		.byte	0x1
 576 0062 00       		.byte	0
 577 0063 00       		.align 4
 578 0064 00000000 		.long	0
 579              	
 580              	.LLSDATT1081:
 581              		.text
 583              		.section	.text._ZN8UnitTest5CheckIbEEbT_,"axG",@progbits,_ZN8UnitTest5CheckIbEEbT_,comdat
 584              		.weak	_ZN8UnitTest5CheckIbEEbT_
 586              	_ZN8UnitTest5CheckIbEEbT_:
 587              	.LFB1109:
 588              		.file 4 "../Checks.h"
   1:../Checks.h   **** #ifndef UNITTEST_CHECKS_H
   2:../Checks.h   **** #define UNITTEST_CHECKS_H
   3:../Checks.h   **** 
   4:../Checks.h   **** #include "Config.h"
   5:../Checks.h   **** #include "TestResults.h"
   6:../Checks.h   **** #include "MemoryOutStream.h"
   7:../Checks.h   **** 
   8:../Checks.h   **** namespace UnitTest {
   9:../Checks.h   **** 
  10:../Checks.h   **** 
  11:../Checks.h   **** template< typename Value >
  12:../Checks.h   **** bool Check(Value const value)
 589              		.loc 4 12 0 is_stmt 1
 590              		.cfi_startproc
 591 0000 55       		pushq	%rbp
 592              		.cfi_def_cfa_offset 16
 593              		.cfi_offset 6, -16
 594 0001 4889E5   		movq	%rsp, %rbp
 595              		.cfi_def_cfa_register 6
 596 0004 89F8     		movl	%edi, %eax
 597 0006 8845FC   		movb	%al, -4(%rbp)
  13:../Checks.h   **** {
  14:../Checks.h   ****     return !!value; // doing double negative to avoid silly VS warnings
 598              		.loc 4 14 0
 599 0009 0FB645FC 		movzbl	-4(%rbp), %eax
  15:../Checks.h   **** }
 600              		.loc 4 15 0
 601 000d 5D       		popq	%rbp
 602              		.cfi_def_cfa 7, 8
 603 000e C3       		ret
 604              		.cfi_endproc
 605              	.LFE1109:
 607              		.section	.rodata
 608 006d 00000000 		.align 32
 608      00000000 
 608      00000000 
 608      00000000 
 608      000000
 611              	_ZTVN12_GLOBAL__N_123TestCanSetAndGetResultsE:
 612 0080 00000000 		.quad	0
 612      00000000 
 613 0088 00000000 		.quad	_ZTIN12_GLOBAL__N_123TestCanSetAndGetResultsE
 613      00000000 
 614 0090 00000000 		.quad	_ZN12_GLOBAL__N_123TestCanSetAndGetResultsD1Ev
 614      00000000 
 615 0098 00000000 		.quad	_ZN12_GLOBAL__N_123TestCanSetAndGetResultsD0Ev
 615      00000000 
 616 00a0 00000000 		.quad	_ZNK12_GLOBAL__N_123TestCanSetAndGetResults7RunImplEv
 616      00000000 
 617              		.text
 618 0307 90       		.align 2
 620              	_ZN12_GLOBAL__N_123TestCanSetAndGetResultsD2Ev:
 621              	.LFB1156:
  23:TestCurrentTest.cpp **** {
 622              		.loc 3 23 0
 623              		.cfi_startproc
 624 0308 55       		pushq	%rbp
 625              		.cfi_def_cfa_offset 16
 626              		.cfi_offset 6, -16
 627 0309 4889E5   		movq	%rsp, %rbp
 628              		.cfi_def_cfa_register 6
 629 030c 4883EC10 		subq	$16, %rsp
 630 0310 48897DF8 		movq	%rdi, -8(%rbp)
 631              	.LBB12:
  23:TestCurrentTest.cpp **** {
 632              		.loc 3 23 0
 633 0314 488B45F8 		movq	-8(%rbp), %rax
 634 0318 48C70000 		movq	$_ZTVN12_GLOBAL__N_123TestCanSetAndGetResultsE+16, (%rax)
 634      000000
 635 031f 488B45F8 		movq	-8(%rbp), %rax
 636 0323 4889C7   		movq	%rax, %rdi
 637 0326 E8000000 		call	_ZN8UnitTest4TestD2Ev
 637      00
 638              	.LBE12:
 639 032b B8000000 		movl	$0, %eax
 639      00
 640 0330 85C0     		testl	%eax, %eax
 641 0332 740C     		je	.L28
  23:TestCurrentTest.cpp **** {
 642              		.loc 3 23 0 is_stmt 0 discriminator 4
 643 0334 488B45F8 		movq	-8(%rbp), %rax
 644 0338 4889C7   		movq	%rax, %rdi
 645 033b E8000000 		call	_ZdlPv
 645      00
 646              	.L28:
  23:TestCurrentTest.cpp **** {
 647              		.loc 3 23 0
 648 0340 C9       		leave
 649              		.cfi_def_cfa 7, 8
 650 0341 C3       		ret
 651              		.cfi_endproc
 652              	.LFE1156:
 654              		.set	_ZN12_GLOBAL__N_123TestCanSetAndGetResultsD1Ev,_ZN12_GLOBAL__N_123TestCanSetAndGetResultsD2Ev
 655              		.align 2
 657              	_ZN12_GLOBAL__N_123TestCanSetAndGetResultsD0Ev:
 658              	.LFB1158:
  23:TestCurrentTest.cpp **** {
 659              		.loc 3 23 0 is_stmt 1
 660              		.cfi_startproc
 661 0342 55       		pushq	%rbp
 662              		.cfi_def_cfa_offset 16
 663              		.cfi_offset 6, -16
 664 0343 4889E5   		movq	%rsp, %rbp
 665              		.cfi_def_cfa_register 6
 666 0346 4883EC10 		subq	$16, %rsp
 667 034a 48897DF8 		movq	%rdi, -8(%rbp)
  23:TestCurrentTest.cpp **** {
 668              		.loc 3 23 0
 669 034e 488B45F8 		movq	-8(%rbp), %rax
 670 0352 4889C7   		movq	%rax, %rdi
 671 0355 E8AEFFFF 		call	_ZN12_GLOBAL__N_123TestCanSetAndGetResultsD2Ev
 671      FF
 672 035a 488B45F8 		movq	-8(%rbp), %rax
 673 035e 4889C7   		movq	%rax, %rdi
 674 0361 E8000000 		call	_ZdlPv
 674      00
 675 0366 C9       		leave
 676              		.cfi_def_cfa 7, 8
 677 0367 C3       		ret
 678              		.cfi_endproc
 679              	.LFE1158:
 681              		.section	.rodata
 682 00a8 00000000 		.align 32
 682      00000000 
 682      00000000 
 682      00000000 
 682      00000000 
 685              	_ZTVN12_GLOBAL__N_123TestCanSetandGetDetailsE:
 686 00c0 00000000 		.quad	0
 686      00000000 
 687 00c8 00000000 		.quad	_ZTIN12_GLOBAL__N_123TestCanSetandGetDetailsE
 687      00000000 
 688 00d0 00000000 		.quad	_ZN12_GLOBAL__N_123TestCanSetandGetDetailsD1Ev
 688      00000000 
 689 00d8 00000000 		.quad	_ZN12_GLOBAL__N_123TestCanSetandGetDetailsD0Ev
 689      00000000 
 690 00e0 00000000 		.quad	_ZNK12_GLOBAL__N_123TestCanSetandGetDetails7RunImplEv
 690      00000000 
 691              		.text
 692              		.align 2
 694              	_ZN12_GLOBAL__N_123TestCanSetandGetDetailsD2Ev:
 695              	.LFB1160:
   8:TestCurrentTest.cpp **** {
 696              		.loc 3 8 0
 697              		.cfi_startproc
 698 0368 55       		pushq	%rbp
 699              		.cfi_def_cfa_offset 16
 700              		.cfi_offset 6, -16
 701 0369 4889E5   		movq	%rsp, %rbp
 702              		.cfi_def_cfa_register 6
 703 036c 4883EC10 		subq	$16, %rsp
 704 0370 48897DF8 		movq	%rdi, -8(%rbp)
 705              	.LBB13:
   8:TestCurrentTest.cpp **** {
 706              		.loc 3 8 0
 707 0374 488B45F8 		movq	-8(%rbp), %rax
 708 0378 48C70000 		movq	$_ZTVN12_GLOBAL__N_123TestCanSetandGetDetailsE+16, (%rax)
 708      000000
 709 037f 488B45F8 		movq	-8(%rbp), %rax
 710 0383 4889C7   		movq	%rax, %rdi
 711 0386 E8000000 		call	_ZN8UnitTest4TestD2Ev
 711      00
 712              	.LBE13:
 713 038b B8000000 		movl	$0, %eax
 713      00
 714 0390 85C0     		testl	%eax, %eax
 715 0392 740C     		je	.L33
   8:TestCurrentTest.cpp **** {
 716              		.loc 3 8 0 is_stmt 0 discriminator 4
 717 0394 488B45F8 		movq	-8(%rbp), %rax
 718 0398 4889C7   		movq	%rax, %rdi
 719 039b E8000000 		call	_ZdlPv
 719      00
 720              	.L33:
   8:TestCurrentTest.cpp **** {
 721              		.loc 3 8 0
 722 03a0 C9       		leave
 723              		.cfi_def_cfa 7, 8
 724 03a1 C3       		ret
 725              		.cfi_endproc
 726              	.LFE1160:
 728              		.set	_ZN12_GLOBAL__N_123TestCanSetandGetDetailsD1Ev,_ZN12_GLOBAL__N_123TestCanSetandGetDetailsD2Ev
 729              		.align 2
 731              	_ZN12_GLOBAL__N_123TestCanSetandGetDetailsD0Ev:
 732              	.LFB1162:
   8:TestCurrentTest.cpp **** {
 733              		.loc 3 8 0 is_stmt 1
 734              		.cfi_startproc
 735 03a2 55       		pushq	%rbp
 736              		.cfi_def_cfa_offset 16
 737              		.cfi_offset 6, -16
 738 03a3 4889E5   		movq	%rsp, %rbp
 739              		.cfi_def_cfa_register 6
 740 03a6 4883EC10 		subq	$16, %rsp
 741 03aa 48897DF8 		movq	%rdi, -8(%rbp)
   8:TestCurrentTest.cpp **** {
 742              		.loc 3 8 0
 743 03ae 488B45F8 		movq	-8(%rbp), %rax
 744 03b2 4889C7   		movq	%rax, %rdi
 745 03b5 E8AEFFFF 		call	_ZN12_GLOBAL__N_123TestCanSetandGetDetailsD2Ev
 745      FF
 746 03ba 488B45F8 		movq	-8(%rbp), %rax
 747 03be 4889C7   		movq	%rax, %rdi
 748 03c1 E8000000 		call	_ZdlPv
 748      00
 749 03c6 C9       		leave
 750              		.cfi_def_cfa 7, 8
 751 03c7 C3       		ret
 752              		.cfi_endproc
 753              	.LFE1162:
 756              	_Z41__static_initialization_and_destruction_0ii:
 757              	.LFB1167:
  37:TestCurrentTest.cpp **** 
  38:TestCurrentTest.cpp **** }
 758              		.loc 3 38 0
 759              		.cfi_startproc
 760 03c8 55       		pushq	%rbp
 761              		.cfi_def_cfa_offset 16
 762              		.cfi_offset 6, -16
 763 03c9 4889E5   		movq	%rsp, %rbp
 764              		.cfi_def_cfa_register 6
 765 03cc 4883EC10 		subq	$16, %rsp
 766 03d0 897DFC   		movl	%edi, -4(%rbp)
 767 03d3 8975F8   		movl	%esi, -8(%rbp)
 768              		.loc 3 38 0
 769 03d6 837DFC01 		cmpl	$1, -4(%rbp)
 770 03da 7573     		jne	.L38
 771              		.loc 3 38 0 is_stmt 0 discriminator 1
 772 03dc 817DF8FF 		cmpl	$65535, -8(%rbp)
 772      FF0000
 773 03e3 756A     		jne	.L38
   8:TestCurrentTest.cpp **** {
 774              		.loc 3 8 0 is_stmt 1
 775 03e5 BF000000 		movl	$_ZN12_GLOBAL__N_131testCanSetandGetDetailsInstanceE, %edi
 775      00
 776 03ea E811FCFF 		call	_ZN12_GLOBAL__N_123TestCanSetandGetDetailsC2Ev
 776      FF
 777 03ef BA000000 		movl	$__dso_handle, %edx
 777      00
 778 03f4 BE000000 		movl	$_ZN12_GLOBAL__N_131testCanSetandGetDetailsInstanceE, %esi
 778      00
 779 03f9 BF000000 		movl	$_ZN12_GLOBAL__N_123TestCanSetandGetDetailsD1Ev, %edi
 779      00
 780 03fe E8000000 		call	__cxa_atexit
 780      00
 781 0403 E8000000 		call	_ZN8UnitTest4Test11GetTestListEv
 781      00
 782 0408 BA000000 		movl	$_ZN12_GLOBAL__N_131testCanSetandGetDetailsInstanceE, %edx
 782      00
 783 040d 4889C6   		movq	%rax, %rsi
 784 0410 BF000000 		movl	$_ZN12_GLOBAL__N_124adderCanSetandGetDetailsE, %edi
 784      00
 785 0415 E8000000 		call	_ZN8UnitTest9ListAdderC1ERNS_8TestListEPNS_4TestE
 785      00
  23:TestCurrentTest.cpp **** {
 786              		.loc 3 23 0
 787 041a BF000000 		movl	$_ZN12_GLOBAL__N_131testCanSetAndGetResultsInstanceE, %edi
 787      00
 788 041f E85AFDFF 		call	_ZN12_GLOBAL__N_123TestCanSetAndGetResultsC2Ev
 788      FF
 789 0424 BA000000 		movl	$__dso_handle, %edx
 789      00
 790 0429 BE000000 		movl	$_ZN12_GLOBAL__N_131testCanSetAndGetResultsInstanceE, %esi
 790      00
 791 042e BF000000 		movl	$_ZN12_GLOBAL__N_123TestCanSetAndGetResultsD1Ev, %edi
 791      00
 792 0433 E8000000 		call	__cxa_atexit
 792      00
 793 0438 E8000000 		call	_ZN8UnitTest4Test11GetTestListEv
 793      00
 794 043d BA000000 		movl	$_ZN12_GLOBAL__N_131testCanSetAndGetResultsInstanceE, %edx
 794      00
 795 0442 4889C6   		movq	%rax, %rsi
 796 0445 BF000000 		movl	$_ZN12_GLOBAL__N_124adderCanSetAndGetResultsE, %edi
 796      00
 797 044a E8000000 		call	_ZN8UnitTest9ListAdderC1ERNS_8TestListEPNS_4TestE
 797      00
 798              	.L38:
 799              		.loc 3 38 0
 800 044f C9       		leave
 801              		.cfi_def_cfa 7, 8
 802 0450 C3       		ret
 803              		.cfi_endproc
 804              	.LFE1167:
 806              		.section	.rodata
 807 00e8 00000000 		.align 16
 807      00000000 
 810              	_ZTIN12_GLOBAL__N_123TestCanSetandGetDetailsE:
 811 00f0 00000000 		.quad	_ZTVN10__cxxabiv120__si_class_type_infoE+16
 811      00000000 
 812 00f8 00000000 		.quad	_ZTSN12_GLOBAL__N_123TestCanSetandGetDetailsE
 812      00000000 
 813 0100 00000000 		.quad	_ZTIN8UnitTest4TestE
 813      00000000 
 814 0108 00000000 		.align 16
 814      00000000 
 817              	_ZTIN12_GLOBAL__N_123TestCanSetAndGetResultsE:
 818 0110 00000000 		.quad	_ZTVN10__cxxabiv120__si_class_type_infoE+16
 818      00000000 
 819 0118 00000000 		.quad	_ZTSN12_GLOBAL__N_123TestCanSetAndGetResultsE
 819      00000000 
 820 0120 00000000 		.quad	_ZTIN8UnitTest4TestE
 820      00000000 
 821 0128 00000000 		.align 32
 821      00000000 
 821      00000000 
 821      00000000 
 821      00000000 
 824              	_ZTSN12_GLOBAL__N_123TestCanSetAndGetResultsE:
 825 0140 2A4E3132 		.string	"*N12_GLOBAL__N_123TestCanSetAndGetResultsE"
 825      5F474C4F 
 825      42414C5F 
 825      5F4E5F31 
 825      32335465 
 826 016b 00000000 		.align 32
 826      00000000 
 826      00000000 
 826      00000000 
 826      00000000 
 829              	_ZTSN12_GLOBAL__N_123TestCanSetandGetDetailsE:
 830 0180 2A4E3132 		.string	"*N12_GLOBAL__N_123TestCanSetandGetDetailsE"
 830      5F474C4F 
 830      42414C5F 
 830      5F4E5F31 
 830      32335465 
 831              		.text
 833              	_GLOBAL__sub_I_TestCurrentTest.cpp:
 834              	.LFB1168:
 835              		.loc 3 38 0
 836              		.cfi_startproc
 837 0451 55       		pushq	%rbp
 838              		.cfi_def_cfa_offset 16
 839              		.cfi_offset 6, -16
 840 0452 4889E5   		movq	%rsp, %rbp
 841              		.cfi_def_cfa_register 6
 842              		.loc 3 38 0
 843 0455 BEFFFF00 		movl	$65535, %esi
 843      00
 844 045a BF010000 		movl	$1, %edi
 844      00
 845 045f E864FFFF 		call	_Z41__static_initialization_and_destruction_0ii
 845      FF
 846 0464 5D       		popq	%rbp
 847              		.cfi_def_cfa 7, 8
 848 0465 C3       		ret
 849              		.cfi_endproc
 850              	.LFE1168:
 852              		.section	.init_array,"aw"
 853              		.align 8
 854 0000 00000000 		.quad	_GLOBAL__sub_I_TestCurrentTest.cpp
 854      00000000 
 855              		.text
 856              	.Letext0:
 857              		.file 5 "../TestDetails.h"
 858              		.file 6 "../TestList.h"
 859              		.file 7 "../TestResults.h"
 860              		.file 8 "<built-in>"
 861              		.file 9 "/usr/include/stdio.h"
 862              		.file 10 "/usr/lib/gcc/x86_64-linux-gnu/4.9/include/stddef.h"
 863              		.file 11 "/usr/include/wchar.h"
 864              		.file 12 "/usr/include/c++/4.9/cwchar"
 865              		.file 13 "/usr/include/x86_64-linux-gnu/c++/4.9/bits/c++config.h"
 866              		.file 14 "/usr/include/c++/4.9/clocale"
 867              		.file 15 "/usr/include/c++/4.9/cwctype"
 868              		.file 16 "/usr/include/time.h"
 869              		.file 17 "/usr/include/c++/4.9/debug/debug.h"
 870              		.file 18 "/usr/include/c++/4.9/bits/predefined_ops.h"
 871              		.file 19 "/usr/include/c++/4.9/ext/new_allocator.h"
 872              		.file 20 "/usr/include/c++/4.9/ext/numeric_traits.h"
 873              		.file 21 "/usr/include/locale.h"
 874              		.file 22 "/usr/include/x86_64-linux-gnu/bits/types.h"
 875              		.file 23 "/usr/include/wctype.h"