   1              		.file	"TestTestMacros.cpp"
   2              		.text
   3              	.Ltext0:
   4              		.section	.rodata
   5              	.LC0:
   6 0000 44656661 		.string	"DefaultSuite"
   6      756C7453 
   6      75697465 
   6      00
   7              		.section	.text._ZN13UnitTestSuite12GetSuiteNameEv,"axG",@progbits,_ZN13UnitTestSuite12GetSuiteName
   8              		.weak	_ZN13UnitTestSuite12GetSuiteNameEv
  10              	_ZN13UnitTestSuite12GetSuiteNameEv:
  11              	.LFB0:
  12              		.file 1 "../TestSuite.h"
   1:../TestSuite.h **** #ifndef UNITTEST_TESTSUITE_H
   2:../TestSuite.h **** #define UNITTEST_TESTSUITE_H
   3:../TestSuite.h **** 
   4:../TestSuite.h **** namespace UnitTestSuite {
   5:../TestSuite.h **** 
   6:../TestSuite.h ****     inline char const* GetSuiteName ()
   7:../TestSuite.h ****     {
  13              		.loc 1 7 0
  14              		.cfi_startproc
  15 0000 55       		pushq	%rbp
  16              		.cfi_def_cfa_offset 16
  17              		.cfi_offset 6, -16
  18 0001 4889E5   		movq	%rsp, %rbp
  19              		.cfi_def_cfa_register 6
   8:../TestSuite.h ****         return "DefaultSuite";
  20              		.loc 1 8 0
  21 0004 B8000000 		movl	$.LC0, %eax
  21      00
   9:../TestSuite.h ****     }
  22              		.loc 1 9 0
  23 0009 5D       		popq	%rbp
  24              		.cfi_def_cfa 7, 8
  25 000a C3       		ret
  26              		.cfi_endproc
  27              	.LFE0:
  29              		.section	.text._ZN8UnitTest15MemoryOutStreamC1Ev,"axG",@progbits,_ZN8UnitTest15MemoryOutStreamC1Ev
  30              		.align 2
  31              		.weak	_ZN8UnitTest15MemoryOutStreamC1Ev
  33              	_ZN8UnitTest15MemoryOutStreamC1Ev:
  34              	.LFB1053:
  35              		.file 2 "../MemoryOutStream.h"
   1:../MemoryOutStream.h **** #ifndef UNITTEST_MEMORYOUTSTREAM_H
   2:../MemoryOutStream.h **** #define UNITTEST_MEMORYOUTSTREAM_H
   3:../MemoryOutStream.h **** 
   4:../MemoryOutStream.h **** #include "Config.h"
   5:../MemoryOutStream.h **** 
   6:../MemoryOutStream.h **** #ifndef UNITTEST_USE_CUSTOM_STREAMS
   7:../MemoryOutStream.h **** 
   8:../MemoryOutStream.h **** #include <sstream>
   9:../MemoryOutStream.h **** 
  10:../MemoryOutStream.h **** namespace UnitTest
  11:../MemoryOutStream.h **** {
  12:../MemoryOutStream.h **** 
  13:../MemoryOutStream.h **** class MemoryOutStream : public std::ostringstream
  14:../MemoryOutStream.h **** {
  15:../MemoryOutStream.h **** public:
  16:../MemoryOutStream.h ****     MemoryOutStream() {}
  36              		.loc 2 16 0
  37              		.cfi_startproc
  38              		.cfi_personality 0x3,__gxx_personality_v0
  39              		.cfi_lsda 0x3,.LLSDA1053
  40 0000 55       		pushq	%rbp
  41              		.cfi_def_cfa_offset 16
  42              		.cfi_offset 6, -16
  43 0001 4889E5   		movq	%rsp, %rbp
  44              		.cfi_def_cfa_register 6
  45 0004 53       		pushq	%rbx
  46 0005 4883EC18 		subq	$24, %rsp
  47              		.cfi_offset 3, -24
  48 0009 48897DE8 		movq	%rdi, -24(%rbp)
  49              	.LBB2:
  50              		.loc 2 16 0
  51 000d 488B45E8 		movq	-24(%rbp), %rax
  52 0011 4883C060 		addq	$96, %rax
  53 0015 4889C7   		movq	%rax, %rdi
  54              	.LEHB0:
  55 0018 E8000000 		call	_ZNSt9basic_iosIcSt11char_traitsIcEEC2Ev
  55      00
  56              	.LEHE0:
  57 001d B9000000 		movl	$_ZTTN8UnitTest15MemoryOutStreamE+8, %ecx
  57      00
  58 0022 488B45E8 		movq	-24(%rbp), %rax
  59 0026 BA100000 		movl	$16, %edx
  59      00
  60 002b 4889CE   		movq	%rcx, %rsi
  61 002e 4889C7   		movq	%rax, %rdi
  62              	.LEHB1:
  63 0031 E8000000 		call	_ZNSt19basic_ostringstreamIcSt11char_traitsIcESaIcEEC2ESt13_Ios_Openmode
  63      00
  64              	.LEHE1:
  65              		.loc 2 16 0 is_stmt 0 discriminator 9
  66 0036 BA000000 		movl	$_ZTVN8UnitTest15MemoryOutStreamE+24, %edx
  66      00
  67 003b 488B45E8 		movq	-24(%rbp), %rax
  68 003f 488910   		movq	%rdx, (%rax)
  69 0042 BA600000 		movl	$96, %edx
  69      00
  70 0047 488B45E8 		movq	-24(%rbp), %rax
  71 004b 4801D0   		addq	%rdx, %rax
  72 004e BA000000 		movl	$_ZTVN8UnitTest15MemoryOutStreamE+64, %edx
  72      00
  73 0053 488910   		movq	%rdx, (%rax)
  74 0056 488B45E8 		movq	-24(%rbp), %rax
  75 005a 4883C058 		addq	$88, %rax
  76 005e 4889C7   		movq	%rax, %rdi
  77              	.LEHB2:
  78 0061 E8000000 		call	_ZNSsC1Ev
  78      00
  79              	.LEHE2:
  80              	.LBE2:
  81              		.loc 2 16 0
  82 0066 EB37     		jmp	.L8
  83              	.L6:
  84 0068 4889C3   		movq	%rax, %rbx
  85              	.LBB3:
  86 006b BA000000 		movl	$_ZTTN8UnitTest15MemoryOutStreamE+8, %edx
  86      00
  87 0070 488B45E8 		movq	-24(%rbp), %rax
  88 0074 4889D6   		movq	%rdx, %rsi
  89 0077 4889C7   		movq	%rax, %rdi
  90 007a E8000000 		call	_ZNSt19basic_ostringstreamIcSt11char_traitsIcESaIcEED2Ev
  90      00
  91 007f EB03     		jmp	.L5
  92              	.L7:
  93 0081 4889C3   		movq	%rax, %rbx
  94              	.L5:
  95              		.loc 2 16 0 discriminator 28
  96 0084 488B45E8 		movq	-24(%rbp), %rax
  97 0088 4883C060 		addq	$96, %rax
  98 008c 4889C7   		movq	%rax, %rdi
  99 008f E8000000 		call	_ZNSt9basic_iosIcSt11char_traitsIcEED2Ev
  99      00
 100 0094 4889D8   		movq	%rbx, %rax
 101 0097 4889C7   		movq	%rax, %rdi
 102              	.LEHB3:
 103 009a E8000000 		call	_Unwind_Resume
 103      00
 104              	.LEHE3:
 105              	.L8:
 106              	.LBE3:
 107              		.loc 2 16 0
 108 009f 4883C418 		addq	$24, %rsp
 109 00a3 5B       		popq	%rbx
 110 00a4 5D       		popq	%rbp
 111              		.cfi_def_cfa 7, 8
 112 00a5 C3       		ret
 113              		.cfi_endproc
 114              	.LFE1053:
 115              		.globl	__gxx_personality_v0
 116              		.section	.gcc_except_table._ZN8UnitTest15MemoryOutStreamC1Ev,"aG",@progbits,_ZN8UnitTest15MemoryOu
 117              	.LLSDA1053:
 118 0000 FF       		.byte	0xff
 119 0001 FF       		.byte	0xff
 120 0002 01       		.byte	0x1
 121 0003 12       		.uleb128 .LLSDACSE1053-.LLSDACSB1053
 122              	.LLSDACSB1053:
 123 0004 18       		.uleb128 .LEHB0-.LFB1053
 124 0005 05       		.uleb128 .LEHE0-.LEHB0
 125 0006 00       		.uleb128 0
 126 0007 00       		.uleb128 0
 127 0008 31       		.uleb128 .LEHB1-.LFB1053
 128 0009 05       		.uleb128 .LEHE1-.LEHB1
 129 000a 8101     		.uleb128 .L7-.LFB1053
 130 000c 00       		.uleb128 0
 131 000d 61       		.uleb128 .LEHB2-.LFB1053
 132 000e 05       		.uleb128 .LEHE2-.LEHB2
 133 000f 68       		.uleb128 .L6-.LFB1053
 134 0010 00       		.uleb128 0
 135 0011 9A01     		.uleb128 .LEHB3-.LFB1053
 136 0013 05       		.uleb128 .LEHE3-.LEHB3
 137 0014 00       		.uleb128 0
 138 0015 00       		.uleb128 0
 139              	.LLSDACSE1053:
 140              		.section	.text._ZN8UnitTest15MemoryOutStreamC1Ev,"axG",@progbits,_ZN8UnitTest15MemoryOutStreamC1Ev
 142              		.section	.text._ZN8UnitTest12TestReporterC2Ev,"axG",@progbits,_ZN8UnitTest12TestReporterC5Ev,comda
 143              		.align 2
 144              		.weak	_ZN8UnitTest12TestReporterC2Ev
 146              	_ZN8UnitTest12TestReporterC2Ev:
 147              	.LFB1067:
 148              		.file 3 "../TestReporter.h"
   1:../TestReporter.h **** #ifndef UNITTEST_TESTREPORTER_H
   2:../TestReporter.h **** #define UNITTEST_TESTREPORTER_H
   3:../TestReporter.h **** 
   4:../TestReporter.h **** namespace UnitTest {
   5:../TestReporter.h **** 
   6:../TestReporter.h **** class TestDetails;
   7:../TestReporter.h **** 
   8:../TestReporter.h **** class TestReporter
 149              		.loc 3 8 0 is_stmt 1
 150              		.cfi_startproc
 151 0000 55       		pushq	%rbp
 152              		.cfi_def_cfa_offset 16
 153              		.cfi_offset 6, -16
 154 0001 4889E5   		movq	%rsp, %rbp
 155              		.cfi_def_cfa_register 6
 156 0004 48897DF8 		movq	%rdi, -8(%rbp)
 157              	.LBB4:
 158              		.loc 3 8 0
 159 0008 488B45F8 		movq	-8(%rbp), %rax
 160 000c 48C70000 		movq	$_ZTVN8UnitTest12TestReporterE+16, (%rax)
 160      000000
 161              	.LBE4:
 162 0013 5D       		popq	%rbp
 163              		.cfi_def_cfa 7, 8
 164 0014 C3       		ret
 165              		.cfi_endproc
 166              	.LFE1067:
 168              		.weak	_ZN8UnitTest12TestReporterC1Ev
 169              		.set	_ZN8UnitTest12TestReporterC1Ev,_ZN8UnitTest12TestReporterC2Ev
 170              		.section	.text._ZN17RecordingReporterC2Ev,"axG",@progbits,_ZN17RecordingReporterC5Ev,comdat
 171              		.align 2
 172              		.weak	_ZN17RecordingReporterC2Ev
 174              	_ZN17RecordingReporterC2Ev:
 175              	.LFB1069:
 176              		.file 4 "RecordingReporter.h"
   1:RecordingReporter.h **** #ifndef UNITTEST_RECORDINGREPORTER_H
   2:RecordingReporter.h **** #define UNITTEST_RECORDINGREPORTER_H
   3:RecordingReporter.h **** 
   4:RecordingReporter.h **** #include "../TestReporter.h"
   5:RecordingReporter.h **** #include <cstring>
   6:RecordingReporter.h **** 
   7:RecordingReporter.h **** #include "../TestDetails.h"
   8:RecordingReporter.h **** 
   9:RecordingReporter.h **** struct RecordingReporter : public UnitTest::TestReporter
  10:RecordingReporter.h **** {
  11:RecordingReporter.h **** private:
  12:RecordingReporter.h ****     enum { kMaxStringLength = 256 };
  13:RecordingReporter.h **** 
  14:RecordingReporter.h **** public:
  15:RecordingReporter.h ****     RecordingReporter()
 177              		.loc 4 15 0
 178              		.cfi_startproc
 179 0000 55       		pushq	%rbp
 180              		.cfi_def_cfa_offset 16
 181              		.cfi_offset 6, -16
 182 0001 4889E5   		movq	%rsp, %rbp
 183              		.cfi_def_cfa_register 6
 184 0004 4883EC10 		subq	$16, %rsp
 185 0008 48897DF8 		movq	%rdi, -8(%rbp)
 186              	.LBB5:
  16:RecordingReporter.h ****         : testRunCount(0)
  17:RecordingReporter.h ****         , testFailedCount(0)
  18:RecordingReporter.h ****         , lastFailedLine(0)
  19:RecordingReporter.h ****         , testFinishedCount(0)
  20:RecordingReporter.h ****         , lastFinishedTestTime(0)
  21:RecordingReporter.h ****         , summaryTotalTestCount(0)
  22:RecordingReporter.h ****         , summaryFailedTestCount(0)
  23:RecordingReporter.h ****         , summaryFailureCount(0)
  24:RecordingReporter.h ****         , summarySecondsElapsed(0)
 187              		.loc 4 24 0
 188 000c 488B45F8 		movq	-8(%rbp), %rax
 189 0010 4889C7   		movq	%rax, %rdi
 190 0013 E8000000 		call	_ZN8UnitTest12TestReporterC2Ev
 190      00
 191 0018 488B45F8 		movq	-8(%rbp), %rax
 192 001c 48C70000 		movq	$_ZTV17RecordingReporter+16, (%rax)
 192      000000
 193 0023 488B45F8 		movq	-8(%rbp), %rax
 194 0027 C7400800 		movl	$0, 8(%rax)
 194      000000
 195 002e 488B45F8 		movq	-8(%rbp), %rax
 196 0032 C7800C02 		movl	$0, 524(%rax)
 196      00000000 
 196      0000
 197 003c 488B45F8 		movq	-8(%rbp), %rax
 198 0040 C7801003 		movl	$0, 784(%rax)
 198      00000000 
 198      0000
 199 004a 488B45F8 		movq	-8(%rbp), %rax
 200 004e C7801406 		movl	$0, 1556(%rax)
 200      00000000 
 200      0000
 201 0058 488B55F8 		movq	-8(%rbp), %rdx
 202 005c 8B050000 		movl	.LC1(%rip), %eax
 202      0000
 203 0062 89821808 		movl	%eax, 2072(%rdx)
 203      0000
 204 0068 488B45F8 		movq	-8(%rbp), %rax
 205 006c C7801C08 		movl	$0, 2076(%rax)
 205      00000000 
 205      0000
 206 0076 488B45F8 		movq	-8(%rbp), %rax
 207 007a C7802008 		movl	$0, 2080(%rax)
 207      00000000 
 207      0000
 208 0084 488B45F8 		movq	-8(%rbp), %rax
 209 0088 C7802408 		movl	$0, 2084(%rax)
 209      00000000 
 209      0000
 210 0092 488B55F8 		movq	-8(%rbp), %rdx
 211 0096 8B050000 		movl	.LC1(%rip), %eax
 211      0000
 212 009c 89822808 		movl	%eax, 2088(%rdx)
 212      0000
  25:RecordingReporter.h ****     {
  26:RecordingReporter.h ****         lastStartedSuite[0] = '\0';
 213              		.loc 4 26 0
 214 00a2 488B45F8 		movq	-8(%rbp), %rax
 215 00a6 C6400C00 		movb	$0, 12(%rax)
  27:RecordingReporter.h ****         lastStartedTest[0] = '\0';
 216              		.loc 4 27 0
 217 00aa 488B45F8 		movq	-8(%rbp), %rax
 218 00ae C6800C01 		movb	$0, 268(%rax)
 218      000000
  28:RecordingReporter.h ****         lastFailedFile[0] = '\0';
 219              		.loc 4 28 0
 220 00b5 488B45F8 		movq	-8(%rbp), %rax
 221 00b9 C6801002 		movb	$0, 528(%rax)
 221      000000
  29:RecordingReporter.h ****         lastFailedSuite[0] = '\0';
 222              		.loc 4 29 0
 223 00c0 488B45F8 		movq	-8(%rbp), %rax
 224 00c4 C6801403 		movb	$0, 788(%rax)
 224      000000
  30:RecordingReporter.h ****         lastFailedTest[0] = '\0';
 225              		.loc 4 30 0
 226 00cb 488B45F8 		movq	-8(%rbp), %rax
 227 00cf C6801404 		movb	$0, 1044(%rax)
 227      000000
  31:RecordingReporter.h ****         lastFailedMessage[0] = '\0';
 228              		.loc 4 31 0
 229 00d6 488B45F8 		movq	-8(%rbp), %rax
 230 00da C6801405 		movb	$0, 1300(%rax)
 230      000000
  32:RecordingReporter.h ****         lastFinishedSuite[0] = '\0';
 231              		.loc 4 32 0
 232 00e1 488B45F8 		movq	-8(%rbp), %rax
 233 00e5 C6801806 		movb	$0, 1560(%rax)
 233      000000
  33:RecordingReporter.h ****         lastFinishedTest[0] = '\0';
 234              		.loc 4 33 0
 235 00ec 488B45F8 		movq	-8(%rbp), %rax
 236 00f0 C6801807 		movb	$0, 1816(%rax)
 236      000000
 237              	.LBE5:
  34:RecordingReporter.h ****     }
 238              		.loc 4 34 0
 239 00f7 C9       		leave
 240              		.cfi_def_cfa 7, 8
 241 00f8 C3       		ret
 242              		.cfi_endproc
 243              	.LFE1069:
 245              		.weak	_ZN17RecordingReporterC1Ev
 246              		.set	_ZN17RecordingReporterC1Ev,_ZN17RecordingReporterC2Ev
 247              		.section	.text._ZN17RecordingReporter15ReportTestStartERKN8UnitTest11TestDetailsE,"axG",@progbits,
 248              		.align 2
 249              		.weak	_ZN17RecordingReporter15ReportTestStartERKN8UnitTest11TestDetailsE
 251              	_ZN17RecordingReporter15ReportTestStartERKN8UnitTest11TestDetailsE:
 252              	.LFB1071:
  35:RecordingReporter.h **** 
  36:RecordingReporter.h ****     virtual void ReportTestStart(UnitTest::TestDetails const& test)
 253              		.loc 4 36 0
 254              		.cfi_startproc
 255 0000 55       		pushq	%rbp
 256              		.cfi_def_cfa_offset 16
 257              		.cfi_offset 6, -16
 258 0001 4889E5   		movq	%rsp, %rbp
 259              		.cfi_def_cfa_register 6
 260 0004 4883EC10 		subq	$16, %rsp
 261 0008 48897DF8 		movq	%rdi, -8(%rbp)
 262 000c 488975F0 		movq	%rsi, -16(%rbp)
 263              	.LBB6:
  37:RecordingReporter.h ****     {
  38:RecordingReporter.h **** 		using namespace std;
  39:RecordingReporter.h **** 
  40:RecordingReporter.h ****         ++testRunCount;
 264              		.loc 4 40 0
 265 0010 488B45F8 		movq	-8(%rbp), %rax
 266 0014 8B4008   		movl	8(%rax), %eax
 267 0017 8D5001   		leal	1(%rax), %edx
 268 001a 488B45F8 		movq	-8(%rbp), %rax
 269 001e 895008   		movl	%edx, 8(%rax)
  41:RecordingReporter.h ****         strcpy(lastStartedSuite, test.suiteName);
 270              		.loc 4 41 0
 271 0021 488B45F0 		movq	-16(%rbp), %rax
 272 0025 488B00   		movq	(%rax), %rax
 273 0028 488B55F8 		movq	-8(%rbp), %rdx
 274 002c 4883C20C 		addq	$12, %rdx
 275 0030 4889C6   		movq	%rax, %rsi
 276 0033 4889D7   		movq	%rdx, %rdi
 277 0036 E8000000 		call	strcpy
 277      00
  42:RecordingReporter.h ****         strcpy(lastStartedTest, test.testName);
 278              		.loc 4 42 0
 279 003b 488B45F0 		movq	-16(%rbp), %rax
 280 003f 488B4008 		movq	8(%rax), %rax
 281 0043 488B55F8 		movq	-8(%rbp), %rdx
 282 0047 4881C20C 		addq	$268, %rdx
 282      010000
 283 004e 4889C6   		movq	%rax, %rsi
 284 0051 4889D7   		movq	%rdx, %rdi
 285 0054 E8000000 		call	strcpy
 285      00
 286              	.LBE6:
  43:RecordingReporter.h ****     }
 287              		.loc 4 43 0
 288 0059 C9       		leave
 289              		.cfi_def_cfa 7, 8
 290 005a C3       		ret
 291              		.cfi_endproc
 292              	.LFE1071:
 294              		.section	.text._ZN17RecordingReporter13ReportFailureERKN8UnitTest11TestDetailsEPKc,"axG",@progbits
 295              		.align 2
 296              		.weak	_ZN17RecordingReporter13ReportFailureERKN8UnitTest11TestDetailsEPKc
 298              	_ZN17RecordingReporter13ReportFailureERKN8UnitTest11TestDetailsEPKc:
 299              	.LFB1072:
  44:RecordingReporter.h **** 
  45:RecordingReporter.h ****     virtual void ReportFailure(UnitTest::TestDetails const& test, char const* failure)
 300              		.loc 4 45 0
 301              		.cfi_startproc
 302 0000 55       		pushq	%rbp
 303              		.cfi_def_cfa_offset 16
 304              		.cfi_offset 6, -16
 305 0001 4889E5   		movq	%rsp, %rbp
 306              		.cfi_def_cfa_register 6
 307 0004 4883EC20 		subq	$32, %rsp
 308 0008 48897DF8 		movq	%rdi, -8(%rbp)
 309 000c 488975F0 		movq	%rsi, -16(%rbp)
 310 0010 488955E8 		movq	%rdx, -24(%rbp)
 311              	.LBB7:
  46:RecordingReporter.h ****     {
  47:RecordingReporter.h **** 		using namespace std;
  48:RecordingReporter.h **** 
  49:RecordingReporter.h **** 		++testFailedCount;
 312              		.loc 4 49 0
 313 0014 488B45F8 		movq	-8(%rbp), %rax
 314 0018 8B800C02 		movl	524(%rax), %eax
 314      0000
 315 001e 8D5001   		leal	1(%rax), %edx
 316 0021 488B45F8 		movq	-8(%rbp), %rax
 317 0025 89900C02 		movl	%edx, 524(%rax)
 317      0000
  50:RecordingReporter.h ****         strcpy(lastFailedFile, test.filename);
 318              		.loc 4 50 0
 319 002b 488B45F0 		movq	-16(%rbp), %rax
 320 002f 488B4010 		movq	16(%rax), %rax
 321 0033 488B55F8 		movq	-8(%rbp), %rdx
 322 0037 4881C210 		addq	$528, %rdx
 322      020000
 323 003e 4889C6   		movq	%rax, %rsi
 324 0041 4889D7   		movq	%rdx, %rdi
 325 0044 E8000000 		call	strcpy
 325      00
  51:RecordingReporter.h ****         lastFailedLine = test.lineNumber;
 326              		.loc 4 51 0
 327 0049 488B45F0 		movq	-16(%rbp), %rax
 328 004d 8B5018   		movl	24(%rax), %edx
 329 0050 488B45F8 		movq	-8(%rbp), %rax
 330 0054 89901003 		movl	%edx, 784(%rax)
 330      0000
  52:RecordingReporter.h ****         strcpy(lastFailedSuite, test.suiteName);
 331              		.loc 4 52 0
 332 005a 488B45F0 		movq	-16(%rbp), %rax
 333 005e 488B00   		movq	(%rax), %rax
 334 0061 488B55F8 		movq	-8(%rbp), %rdx
 335 0065 4881C214 		addq	$788, %rdx
 335      030000
 336 006c 4889C6   		movq	%rax, %rsi
 337 006f 4889D7   		movq	%rdx, %rdi
 338 0072 E8000000 		call	strcpy
 338      00
  53:RecordingReporter.h ****         strcpy(lastFailedTest, test.testName);
 339              		.loc 4 53 0
 340 0077 488B45F0 		movq	-16(%rbp), %rax
 341 007b 488B4008 		movq	8(%rax), %rax
 342 007f 488B55F8 		movq	-8(%rbp), %rdx
 343 0083 4881C214 		addq	$1044, %rdx
 343      040000
 344 008a 4889C6   		movq	%rax, %rsi
 345 008d 4889D7   		movq	%rdx, %rdi
 346 0090 E8000000 		call	strcpy
 346      00
  54:RecordingReporter.h ****         strcpy(lastFailedMessage, failure);
 347              		.loc 4 54 0
 348 0095 488B45F8 		movq	-8(%rbp), %rax
 349 0099 488D9014 		leaq	1300(%rax), %rdx
 349      050000
 350 00a0 488B45E8 		movq	-24(%rbp), %rax
 351 00a4 4889C6   		movq	%rax, %rsi
 352 00a7 4889D7   		movq	%rdx, %rdi
 353 00aa E8000000 		call	strcpy
 353      00
 354              	.LBE7:
  55:RecordingReporter.h ****     }
 355              		.loc 4 55 0
 356 00af C9       		leave
 357              		.cfi_def_cfa 7, 8
 358 00b0 C3       		ret
 359              		.cfi_endproc
 360              	.LFE1072:
 362              		.section	.text._ZN17RecordingReporter16ReportTestFinishERKN8UnitTest11TestDetailsEf,"axG",@progbit
 363              		.align 2
 364              		.weak	_ZN17RecordingReporter16ReportTestFinishERKN8UnitTest11TestDetailsEf
 366              	_ZN17RecordingReporter16ReportTestFinishERKN8UnitTest11TestDetailsEf:
 367              	.LFB1073:
  56:RecordingReporter.h **** 
  57:RecordingReporter.h ****     virtual void ReportTestFinish(UnitTest::TestDetails const& test, float testDuration)
 368              		.loc 4 57 0
 369              		.cfi_startproc
 370 0000 55       		pushq	%rbp
 371              		.cfi_def_cfa_offset 16
 372              		.cfi_offset 6, -16
 373 0001 4889E5   		movq	%rsp, %rbp
 374              		.cfi_def_cfa_register 6
 375 0004 4883EC20 		subq	$32, %rsp
 376 0008 48897DF8 		movq	%rdi, -8(%rbp)
 377 000c 488975F0 		movq	%rsi, -16(%rbp)
 378 0010 F30F1145 		movss	%xmm0, -20(%rbp)
 378      EC
 379              	.LBB8:
  58:RecordingReporter.h ****     {
  59:RecordingReporter.h **** 		using namespace std;
  60:RecordingReporter.h **** 
  61:RecordingReporter.h **** 		++testFinishedCount;
 380              		.loc 4 61 0
 381 0015 488B45F8 		movq	-8(%rbp), %rax
 382 0019 8B801406 		movl	1556(%rax), %eax
 382      0000
 383 001f 8D5001   		leal	1(%rax), %edx
 384 0022 488B45F8 		movq	-8(%rbp), %rax
 385 0026 89901406 		movl	%edx, 1556(%rax)
 385      0000
  62:RecordingReporter.h ****         strcpy(lastFinishedSuite, test.suiteName);
 386              		.loc 4 62 0
 387 002c 488B45F0 		movq	-16(%rbp), %rax
 388 0030 488B00   		movq	(%rax), %rax
 389 0033 488B55F8 		movq	-8(%rbp), %rdx
 390 0037 4881C218 		addq	$1560, %rdx
 390      060000
 391 003e 4889C6   		movq	%rax, %rsi
 392 0041 4889D7   		movq	%rdx, %rdi
 393 0044 E8000000 		call	strcpy
 393      00
  63:RecordingReporter.h ****         strcpy(lastFinishedTest, test.testName);
 394              		.loc 4 63 0
 395 0049 488B45F0 		movq	-16(%rbp), %rax
 396 004d 488B4008 		movq	8(%rax), %rax
 397 0051 488B55F8 		movq	-8(%rbp), %rdx
 398 0055 4881C218 		addq	$1816, %rdx
 398      070000
 399 005c 4889C6   		movq	%rax, %rsi
 400 005f 4889D7   		movq	%rdx, %rdi
 401 0062 E8000000 		call	strcpy
 401      00
  64:RecordingReporter.h ****         lastFinishedTestTime = testDuration;
 402              		.loc 4 64 0
 403 0067 488B55F8 		movq	-8(%rbp), %rdx
 404 006b 8B45EC   		movl	-20(%rbp), %eax
 405 006e 89821808 		movl	%eax, 2072(%rdx)
 405      0000
 406              	.LBE8:
  65:RecordingReporter.h ****     }
 407              		.loc 4 65 0
 408 0074 C9       		leave
 409              		.cfi_def_cfa 7, 8
 410 0075 C3       		ret
 411              		.cfi_endproc
 412              	.LFE1073:
 414              		.section	.text._ZN17RecordingReporter13ReportSummaryEiiif,"axG",@progbits,_ZN17RecordingReporter13
 415              		.align 2
 416              		.weak	_ZN17RecordingReporter13ReportSummaryEiiif
 418              	_ZN17RecordingReporter13ReportSummaryEiiif:
 419              	.LFB1074:
  66:RecordingReporter.h **** 
  67:RecordingReporter.h ****     virtual void ReportSummary(int totalTestCount, int failedTestCount, int failureCount, float sec
 420              		.loc 4 67 0
 421              		.cfi_startproc
 422 0000 55       		pushq	%rbp
 423              		.cfi_def_cfa_offset 16
 424              		.cfi_offset 6, -16
 425 0001 4889E5   		movq	%rsp, %rbp
 426              		.cfi_def_cfa_register 6
 427 0004 48897DF8 		movq	%rdi, -8(%rbp)
 428 0008 8975F4   		movl	%esi, -12(%rbp)
 429 000b 8955F0   		movl	%edx, -16(%rbp)
 430 000e 894DEC   		movl	%ecx, -20(%rbp)
 431 0011 F30F1145 		movss	%xmm0, -24(%rbp)
 431      E8
  68:RecordingReporter.h ****     {
  69:RecordingReporter.h ****         summaryTotalTestCount = totalTestCount;
 432              		.loc 4 69 0
 433 0016 488B45F8 		movq	-8(%rbp), %rax
 434 001a 8B55F4   		movl	-12(%rbp), %edx
 435 001d 89901C08 		movl	%edx, 2076(%rax)
 435      0000
  70:RecordingReporter.h ****         summaryFailedTestCount = failedTestCount;
 436              		.loc 4 70 0
 437 0023 488B45F8 		movq	-8(%rbp), %rax
 438 0027 8B55F0   		movl	-16(%rbp), %edx
 439 002a 89902008 		movl	%edx, 2080(%rax)
 439      0000
  71:RecordingReporter.h ****         summaryFailureCount = failureCount;
 440              		.loc 4 71 0
 441 0030 488B45F8 		movq	-8(%rbp), %rax
 442 0034 8B55EC   		movl	-20(%rbp), %edx
 443 0037 89902408 		movl	%edx, 2084(%rax)
 443      0000
  72:RecordingReporter.h ****         summarySecondsElapsed = secondsElapsed;
 444              		.loc 4 72 0
 445 003d 488B55F8 		movq	-8(%rbp), %rdx
 446 0041 8B45E8   		movl	-24(%rbp), %eax
 447 0044 89822808 		movl	%eax, 2088(%rdx)
 447      0000
  73:RecordingReporter.h ****     }
 448              		.loc 4 73 0
 449 004a 5D       		popq	%rbp
 450              		.cfi_def_cfa 7, 8
 451 004b C3       		ret
 452              		.cfi_endproc
 453              	.LFE1074:
 455              		.section	.text._ZN17ScopedCurrentTestC2ERN8UnitTest11TestResultsEPKNS0_11TestDetailsE,"axG",@progb
 456              		.align 2
 457              		.weak	_ZN17ScopedCurrentTestC2ERN8UnitTest11TestResultsEPKNS0_11TestDetailsE
 459              	_ZN17ScopedCurrentTestC2ERN8UnitTest11TestResultsEPKNS0_11TestDetailsE:
 460              	.LFB1079:
 461              		.file 5 "ScopedCurrentTest.h"
   1:ScopedCurrentTest.h **** #ifndef UNITTEST_SCOPEDCURRENTTEST_H
   2:ScopedCurrentTest.h **** #define UNITTEST_SCOPEDCURRENTTEST_H
   3:ScopedCurrentTest.h **** 
   4:ScopedCurrentTest.h **** #include "../CurrentTest.h"
   5:ScopedCurrentTest.h **** #include <cstddef>
   6:ScopedCurrentTest.h **** 
   7:ScopedCurrentTest.h **** class ScopedCurrentTest
   8:ScopedCurrentTest.h **** {
   9:ScopedCurrentTest.h **** public:
  10:ScopedCurrentTest.h **** 	ScopedCurrentTest()
  11:ScopedCurrentTest.h **** 		: m_oldTestResults(UnitTest::CurrentTest::Results())
  12:ScopedCurrentTest.h **** 		, m_oldTestDetails(UnitTest::CurrentTest::Details())
  13:ScopedCurrentTest.h **** 	{
  14:ScopedCurrentTest.h **** 	}
  15:ScopedCurrentTest.h **** 
  16:ScopedCurrentTest.h **** 	explicit ScopedCurrentTest(UnitTest::TestResults& newResults, const UnitTest::TestDetails* newDeta
 462              		.loc 5 16 0
 463              		.cfi_startproc
 464 0000 55       		pushq	%rbp
 465              		.cfi_def_cfa_offset 16
 466              		.cfi_offset 6, -16
 467 0001 4889E5   		movq	%rsp, %rbp
 468              		.cfi_def_cfa_register 6
 469 0004 4883EC20 		subq	$32, %rsp
 470 0008 48897DF8 		movq	%rdi, -8(%rbp)
 471 000c 488975F0 		movq	%rsi, -16(%rbp)
 472 0010 488955E8 		movq	%rdx, -24(%rbp)
 473              	.LBB9:
  17:ScopedCurrentTest.h **** 		: m_oldTestResults(UnitTest::CurrentTest::Results())
 474              		.loc 5 17 0
 475 0014 E8000000 		call	_ZN8UnitTest11CurrentTest7ResultsEv
 475      00
  18:ScopedCurrentTest.h **** 		, m_oldTestDetails(UnitTest::CurrentTest::Details())
 476              		.loc 5 18 0
 477 0019 488B10   		movq	(%rax), %rdx
 478 001c 488B45F8 		movq	-8(%rbp), %rax
 479 0020 488910   		movq	%rdx, (%rax)
 480 0023 E8000000 		call	_ZN8UnitTest11CurrentTest7DetailsEv
 480      00
 481 0028 488B10   		movq	(%rax), %rdx
 482 002b 488B45F8 		movq	-8(%rbp), %rax
 483 002f 48895008 		movq	%rdx, 8(%rax)
  19:ScopedCurrentTest.h **** 	{
  20:ScopedCurrentTest.h **** 		UnitTest::CurrentTest::Results() = &newResults;
 484              		.loc 5 20 0
 485 0033 E8000000 		call	_ZN8UnitTest11CurrentTest7ResultsEv
 485      00
 486 0038 4889C2   		movq	%rax, %rdx
 487 003b 488B45F0 		movq	-16(%rbp), %rax
 488 003f 488902   		movq	%rax, (%rdx)
  21:ScopedCurrentTest.h **** 
  22:ScopedCurrentTest.h **** 		if (newDetails != NULL)
 489              		.loc 5 22 0
 490 0042 48837DE8 		cmpq	$0, -24(%rbp)
 490      00
 491 0047 740F     		je	.L15
  23:ScopedCurrentTest.h **** 			UnitTest::CurrentTest::Details() = newDetails;
 492              		.loc 5 23 0
 493 0049 E8000000 		call	_ZN8UnitTest11CurrentTest7DetailsEv
 493      00
 494 004e 4889C2   		movq	%rax, %rdx
 495 0051 488B45E8 		movq	-24(%rbp), %rax
 496 0055 488902   		movq	%rax, (%rdx)
 497              	.L15:
 498              	.LBE9:
  24:ScopedCurrentTest.h **** 	}
 499              		.loc 5 24 0
 500 0058 C9       		leave
 501              		.cfi_def_cfa 7, 8
 502 0059 C3       		ret
 503              		.cfi_endproc
 504              	.LFE1079:
 506              		.weak	_ZN17ScopedCurrentTestC1ERN8UnitTest11TestResultsEPKNS0_11TestDetailsE
 507              		.set	_ZN17ScopedCurrentTestC1ERN8UnitTest11TestResultsEPKNS0_11TestDetailsE,_ZN17ScopedCurrentTest
 508              		.section	.text._ZN17ScopedCurrentTestD2Ev,"axG",@progbits,_ZN17ScopedCurrentTestD5Ev,comdat
 509              		.align 2
 510              		.weak	_ZN17ScopedCurrentTestD2Ev
 512              	_ZN17ScopedCurrentTestD2Ev:
 513              	.LFB1082:
  25:ScopedCurrentTest.h **** 
  26:ScopedCurrentTest.h **** 	~ScopedCurrentTest()
 514              		.loc 5 26 0
 515              		.cfi_startproc
 516 0000 55       		pushq	%rbp
 517              		.cfi_def_cfa_offset 16
 518              		.cfi_offset 6, -16
 519 0001 4889E5   		movq	%rsp, %rbp
 520              		.cfi_def_cfa_register 6
 521 0004 4883EC10 		subq	$16, %rsp
 522 0008 48897DF8 		movq	%rdi, -8(%rbp)
 523              	.LBB10:
  27:ScopedCurrentTest.h **** 	{
  28:ScopedCurrentTest.h **** 		UnitTest::CurrentTest::Results() = m_oldTestResults;
 524              		.loc 5 28 0
 525 000c E8000000 		call	_ZN8UnitTest11CurrentTest7ResultsEv
 525      00
 526 0011 4889C2   		movq	%rax, %rdx
 527 0014 488B45F8 		movq	-8(%rbp), %rax
 528 0018 488B00   		movq	(%rax), %rax
 529 001b 488902   		movq	%rax, (%rdx)
  29:ScopedCurrentTest.h **** 		UnitTest::CurrentTest::Details() = m_oldTestDetails;
 530              		.loc 5 29 0
 531 001e E8000000 		call	_ZN8UnitTest11CurrentTest7DetailsEv
 531      00
 532 0023 4889C2   		movq	%rax, %rdx
 533 0026 488B45F8 		movq	-8(%rbp), %rax
 534 002a 488B4008 		movq	8(%rax), %rax
 535 002e 488902   		movq	%rax, (%rdx)
 536              	.LBE10:
  30:ScopedCurrentTest.h **** 	}
 537              		.loc 5 30 0
 538 0031 C9       		leave
 539              		.cfi_def_cfa 7, 8
 540 0032 C3       		ret
 541              		.cfi_endproc
 542              	.LFE1082:
 544              		.weak	_ZN17ScopedCurrentTestD1Ev
 545              		.set	_ZN17ScopedCurrentTestD1Ev,_ZN17ScopedCurrentTestD2Ev
 546              		.local	_ZN12_GLOBAL__N_15list1E
 547              		.comm	_ZN12_GLOBAL__N_15list1E,16,16
 548              		.section	.rodata
 549              	.LC2:
 550 000d 54657374 		.string	"TestTestMacros.cpp"
 550      54657374 
 550      4D616372 
 550      6F732E63 
 550      707000
 551              	.LC3:
 552 0020 44756D6D 		.string	"DummyTest"
 552      79546573 
 552      7400
 553              		.text
 554              		.align 2
 556              	_ZN12_GLOBAL__N_113TestDummyTestC2Ev:
 557              	.LFB1085:
 558              		.file 6 "TestTestMacros.cpp"
   1:TestTestMacros.cpp **** #include "../UnitTest++.h"
   2:TestTestMacros.cpp **** #include "../TestMacros.h"
   3:TestTestMacros.cpp **** #include "../TestList.h"
   4:TestTestMacros.cpp **** #include "../TestResults.h"
   5:TestTestMacros.cpp **** #include "../TestReporter.h"
   6:TestTestMacros.cpp **** #include "../ReportAssert.h"
   7:TestTestMacros.cpp **** #include "RecordingReporter.h"
   8:TestTestMacros.cpp **** #include "ScopedCurrentTest.h"
   9:TestTestMacros.cpp **** 
  10:TestTestMacros.cpp **** using namespace UnitTest;
  11:TestTestMacros.cpp **** 
  12:TestTestMacros.cpp **** namespace {
  13:TestTestMacros.cpp **** 
  14:TestTestMacros.cpp **** TestList list1;
  15:TestTestMacros.cpp **** TEST_EX(DummyTest, list1)
 559              		.loc 6 15 0
 560              		.cfi_startproc
 561 0000 55       		pushq	%rbp
 562              		.cfi_def_cfa_offset 16
 563              		.cfi_offset 6, -16
 564 0001 4889E5   		movq	%rsp, %rbp
 565              		.cfi_def_cfa_register 6
 566 0004 4883EC10 		subq	$16, %rsp
 567 0008 48897DF8 		movq	%rdi, -8(%rbp)
 568              	.LBB11:
 569              		.loc 6 15 0
 570 000c E8000000 		call	_ZN13UnitTestSuite12GetSuiteNameEv
 570      00
 571 0011 4889C2   		movq	%rax, %rdx
 572 0014 488B45F8 		movq	-8(%rbp), %rax
 573 0018 41B80F00 		movl	$15, %r8d
 573      0000
 574 001e B9000000 		movl	$.LC2, %ecx
 574      00
 575 0023 BE000000 		movl	$.LC3, %esi
 575      00
 576 0028 4889C7   		movq	%rax, %rdi
 577 002b E8000000 		call	_ZN8UnitTest4TestC2EPKcS2_S2_i
 577      00
 578 0030 488B45F8 		movq	-8(%rbp), %rax
 579 0034 48C70000 		movq	$_ZTVN12_GLOBAL__N_113TestDummyTestE+16, (%rax)
 579      000000
 580              	.LBE11:
 581 003b C9       		leave
 582              		.cfi_def_cfa 7, 8
 583 003c C3       		ret
 584              		.cfi_endproc
 585              	.LFE1085:
 587              		.local	_ZN12_GLOBAL__N_121testDummyTestInstanceE
 588              		.comm	_ZN12_GLOBAL__N_121testDummyTestInstanceE,56,32
 589              		.local	_ZN12_GLOBAL__N_114adderDummyTestE
 590              		.comm	_ZN12_GLOBAL__N_114adderDummyTestE,1,1
 591 003d 90       		.align 2
 593              	_ZNK12_GLOBAL__N_113TestDummyTest7RunImplEv:
 594              	.LFB1087:
  16:TestTestMacros.cpp **** {
 595              		.loc 6 16 0
 596              		.cfi_startproc
 597 003e 55       		pushq	%rbp
 598              		.cfi_def_cfa_offset 16
 599              		.cfi_offset 6, -16
 600 003f 4889E5   		movq	%rsp, %rbp
 601              		.cfi_def_cfa_register 6
 602 0042 48897DF8 		movq	%rdi, -8(%rbp)
  17:TestTestMacros.cpp **** }
 603              		.loc 6 17 0
 604 0046 5D       		popq	%rbp
 605              		.cfi_def_cfa 7, 8
 606 0047 C3       		ret
 607              		.cfi_endproc
 608              	.LFE1087:
 610              		.section	.rodata
 611 002a 00000000 		.align 8
 611      0000
 612              	.LC4:
 613 0030 54657374 		.string	"TestsAreAddedToTheListThroughMacro"
 613      73417265 
 613      41646465 
 613      64546F54 
 613      68654C69 
 614              		.text
 615              		.align 2
 617              	_ZN12_GLOBAL__N_138TestTestsAreAddedToTheListThroughMacroC2Ev:
 618              	.LFB1089:
  18:TestTestMacros.cpp **** 
  19:TestTestMacros.cpp **** TEST (TestsAreAddedToTheListThroughMacro)
 619              		.loc 6 19 0
 620              		.cfi_startproc
 621 0048 55       		pushq	%rbp
 622              		.cfi_def_cfa_offset 16
 623              		.cfi_offset 6, -16
 624 0049 4889E5   		movq	%rsp, %rbp
 625              		.cfi_def_cfa_register 6
 626 004c 4883EC10 		subq	$16, %rsp
 627 0050 48897DF8 		movq	%rdi, -8(%rbp)
 628              	.LBB12:
 629              		.loc 6 19 0
 630 0054 E8000000 		call	_ZN13UnitTestSuite12GetSuiteNameEv
 630      00
 631 0059 4889C2   		movq	%rax, %rdx
 632 005c 488B45F8 		movq	-8(%rbp), %rax
 633 0060 41B81300 		movl	$19, %r8d
 633      0000
 634 0066 B9000000 		movl	$.LC2, %ecx
 634      00
 635 006b BE000000 		movl	$.LC4, %esi
 635      00
 636 0070 4889C7   		movq	%rax, %rdi
 637 0073 E8000000 		call	_ZN8UnitTest4TestC2EPKcS2_S2_i
 637      00
 638 0078 488B45F8 		movq	-8(%rbp), %rax
 639 007c 48C70000 		movq	$_ZTVN12_GLOBAL__N_138TestTestsAreAddedToTheListThroughMacroE+16, (%rax)
 639      000000
 640              	.LBE12:
 641 0083 C9       		leave
 642              		.cfi_def_cfa 7, 8
 643 0084 C3       		ret
 644              		.cfi_endproc
 645              	.LFE1089:
 647              		.local	_ZN12_GLOBAL__N_146testTestsAreAddedToTheListThroughMacroInstanceE
 648              		.comm	_ZN12_GLOBAL__N_146testTestsAreAddedToTheListThroughMacroInstanceE,56,32
 649              		.local	_ZN12_GLOBAL__N_139adderTestsAreAddedToTheListThroughMacroE
 650              		.comm	_ZN12_GLOBAL__N_139adderTestsAreAddedToTheListThroughMacroE,1,1
 651              		.section	.rodata
 652              	.LC5:
 653 0053 6C697374 		.string	"list1.GetHead() != 0"
 653      312E4765 
 653      74486561 
 653      64282920 
 653      213D2030 
 654              	.LC6:
 655 0068 6C697374 		.string	"list1.GetHead()->next == 0"
 655      312E4765 
 655      74486561 
 655      6428292D 
 655      3E6E6578 
 656 0083 00000000 		.align 8
 656      00
 657              	.LC7:
 658 0088 556E6861 		.string	"Unhandled exception in CHECK(list1.GetHead() != 0)"
 658      6E646C65 
 658      64206578 
 658      63657074 
 658      696F6E20 
 659 00bb 00000000 		.align 8
 659      00
 660              	.LC8:
 661 00c0 556E6861 		.string	"Unhandled exception in CHECK(list1.GetHead()->next == 0)"
 661      6E646C65 
 661      64206578 
 661      63657074 
 661      696F6E20 
 662              		.text
 663 0085 90       		.align 2
 665              	_ZNK12_GLOBAL__N_138TestTestsAreAddedToTheListThroughMacro7RunImplEv:
 666              	.LFB1091:
  20:TestTestMacros.cpp **** {
 667              		.loc 6 20 0
 668              		.cfi_startproc
 669              		.cfi_personality 0x3,__gxx_personality_v0
 670              		.cfi_lsda 0x3,.LLSDA1091
 671 0086 55       		pushq	%rbp
 672              		.cfi_def_cfa_offset 16
 673              		.cfi_offset 6, -16
 674 0087 4889E5   		movq	%rsp, %rbp
 675              		.cfi_def_cfa_register 6
 676 008a 53       		pushq	%rbx
 677 008b 4883EC48 		subq	$72, %rsp
 678              		.cfi_offset 3, -24
 679 008f 48897DB8 		movq	%rdi, -72(%rbp)
 680              		.loc 6 20 0
 681 0093 64488B04 		movq	%fs:40, %rax
 681      25280000 
 681      00
 682 009c 488945E8 		movq	%rax, -24(%rbp)
 683 00a0 31C0     		xorl	%eax, %eax
  21:TestTestMacros.cpp ****     CHECK(list1.GetHead() != 0);
 684              		.loc 6 21 0
 685 00a2 BF000000 		movl	$_ZN12_GLOBAL__N_15list1E, %edi
 685      00
 686              	.LEHB4:
 687 00a7 E8000000 		call	_ZNK8UnitTest8TestList7GetHeadEv
 687      00
 688 00ac 4885C0   		testq	%rax, %rax
 689 00af 0F95C0   		setne	%al
 690 00b2 0FB6C0   		movzbl	%al, %eax
 691 00b5 89C7     		movl	%eax, %edi
 692 00b7 E8000000 		call	_ZN8UnitTest5CheckIbEEbT_
 692      00
 693 00bc 83F001   		xorl	$1, %eax
 694 00bf 84C0     		testb	%al, %al
 695 00c1 7438     		je	.L23
 696              		.loc 6 21 0 is_stmt 0 discriminator 2
 697 00c3 E8000000 		call	_ZN8UnitTest11CurrentTest7DetailsEv
 697      00
 698 00c8 488B08   		movq	(%rax), %rcx
 699 00cb 488D45C0 		leaq	-64(%rbp), %rax
 700 00cf BA150000 		movl	$21, %edx
 700      00
 701 00d4 4889CE   		movq	%rcx, %rsi
 702 00d7 4889C7   		movq	%rax, %rdi
 703 00da E8000000 		call	_ZN8UnitTest11TestDetailsC1ERKS0_i
 703      00
 704              		.loc 6 21 0 discriminator 4
 705 00df E8000000 		call	_ZN8UnitTest11CurrentTest7ResultsEv
 705      00
 706 00e4 488B00   		movq	(%rax), %rax
 707 00e7 488D4DC0 		leaq	-64(%rbp), %rcx
 708 00eb BA000000 		movl	$.LC5, %edx
 708      00
 709 00f0 4889CE   		movq	%rcx, %rsi
 710 00f3 4889C7   		movq	%rax, %rdi
 711 00f6 E8000000 		call	_ZN8UnitTest11TestResults13OnTestFailureERKNS_11TestDetailsEPKc
 711      00
 712              	.LEHE4:
 713              	.L23:
  22:TestTestMacros.cpp ****     CHECK(list1.GetHead()->next == 0);
 714              		.loc 6 22 0 is_stmt 1
 715 00fb BF000000 		movl	$_ZN12_GLOBAL__N_15list1E, %edi
 715      00
 716              	.LEHB5:
 717 0100 E8000000 		call	_ZNK8UnitTest8TestList7GetHeadEv
 717      00
 718 0105 488B4028 		movq	40(%rax), %rax
 719 0109 4885C0   		testq	%rax, %rax
 720 010c 0F94C0   		sete	%al
 721 010f 0FB6C0   		movzbl	%al, %eax
 722 0112 89C7     		movl	%eax, %edi
 723 0114 E8000000 		call	_ZN8UnitTest5CheckIbEEbT_
 723      00
 724 0119 83F001   		xorl	$1, %eax
 725 011c 84C0     		testb	%al, %al
 726 011e 0F84F300 		je	.L22
 726      0000
 727              		.loc 6 22 0 is_stmt 0 discriminator 2
 728 0124 E8000000 		call	_ZN8UnitTest11CurrentTest7DetailsEv
 728      00
 729 0129 488B08   		movq	(%rax), %rcx
 730 012c 488D45C0 		leaq	-64(%rbp), %rax
 731 0130 BA160000 		movl	$22, %edx
 731      00
 732 0135 4889CE   		movq	%rcx, %rsi
 733 0138 4889C7   		movq	%rax, %rdi
 734 013b E8000000 		call	_ZN8UnitTest11TestDetailsC1ERKS0_i
 734      00
 735              		.loc 6 22 0 discriminator 4
 736 0140 E8000000 		call	_ZN8UnitTest11CurrentTest7ResultsEv
 736      00
 737 0145 488B00   		movq	(%rax), %rax
 738 0148 488D4DC0 		leaq	-64(%rbp), %rcx
 739 014c BA000000 		movl	$.LC6, %edx
 739      00
 740 0151 4889CE   		movq	%rcx, %rsi
 741 0154 4889C7   		movq	%rax, %rdi
 742 0157 E8000000 		call	_ZN8UnitTest11TestResults13OnTestFailureERKNS_11TestDetailsEPKc
 742      00
 743              	.LEHE5:
 744 015c E9B60000 		jmp	.L22
 744      00
 745              	.L31:
 746 0161 4889C3   		movq	%rax, %rbx
  21:TestTestMacros.cpp ****     CHECK(list1.GetHead() != 0);
 747              		.loc 6 21 0 is_stmt 1
 748 0164 E8000000 		call	__cxa_end_catch
 748      00
 749 0169 4889D8   		movq	%rbx, %rax
 750 016c 4889C7   		movq	%rax, %rdi
 751              	.LEHB6:
 752 016f E8000000 		call	_Unwind_Resume
 752      00
 753              	.LEHE6:
 754              	.L30:
 755 0174 4889C7   		movq	%rax, %rdi
 756 0177 E8000000 		call	__cxa_begin_catch
 756      00
 757              	.LEHB7:
 758 017c E8000000 		call	_ZN8UnitTest11CurrentTest7DetailsEv
 758      00
 759 0181 488B08   		movq	(%rax), %rcx
 760 0184 488D45C0 		leaq	-64(%rbp), %rax
 761 0188 BA150000 		movl	$21, %edx
 761      00
 762 018d 4889CE   		movq	%rcx, %rsi
 763 0190 4889C7   		movq	%rax, %rdi
 764 0193 E8000000 		call	_ZN8UnitTest11TestDetailsC1ERKS0_i
 764      00
  21:TestTestMacros.cpp ****     CHECK(list1.GetHead() != 0);
 765              		.loc 6 21 0 is_stmt 0 discriminator 12
 766 0198 E8000000 		call	_ZN8UnitTest11CurrentTest7ResultsEv
 766      00
 767 019d 488B00   		movq	(%rax), %rax
 768 01a0 488D4DC0 		leaq	-64(%rbp), %rcx
 769 01a4 BA000000 		movl	$.LC7, %edx
 769      00
 770 01a9 4889CE   		movq	%rcx, %rsi
 771 01ac 4889C7   		movq	%rax, %rdi
 772 01af E8000000 		call	_ZN8UnitTest11TestResults13OnTestFailureERKNS_11TestDetailsEPKc
 772      00
 773              	.LEHE7:
 774              	.LEHB8:
  21:TestTestMacros.cpp ****     CHECK(list1.GetHead() != 0);
 775              		.loc 6 21 0 discriminator 16
 776 01b4 E8000000 		call	__cxa_end_catch
 776      00
 777              	.LEHE8:
 778 01b9 E93DFFFF 		jmp	.L23
 778      FF
 779              	.L33:
 780 01be 4889C3   		movq	%rax, %rbx
 781              		.loc 6 22 0 is_stmt 1
 782 01c1 E8000000 		call	__cxa_end_catch
 782      00
 783 01c6 4889D8   		movq	%rbx, %rax
 784 01c9 4889C7   		movq	%rax, %rdi
 785              	.LEHB9:
 786 01cc E8000000 		call	_Unwind_Resume
 786      00
 787              	.LEHE9:
 788              	.L32:
 789 01d1 4889C7   		movq	%rax, %rdi
 790 01d4 E8000000 		call	__cxa_begin_catch
 790      00
 791              	.LEHB10:
 792 01d9 E8000000 		call	_ZN8UnitTest11CurrentTest7DetailsEv
 792      00
 793 01de 488B08   		movq	(%rax), %rcx
 794 01e1 488D45C0 		leaq	-64(%rbp), %rax
 795 01e5 BA160000 		movl	$22, %edx
 795      00
 796 01ea 4889CE   		movq	%rcx, %rsi
 797 01ed 4889C7   		movq	%rax, %rdi
 798 01f0 E8000000 		call	_ZN8UnitTest11TestDetailsC1ERKS0_i
 798      00
 799              		.loc 6 22 0 is_stmt 0 discriminator 12
 800 01f5 E8000000 		call	_ZN8UnitTest11CurrentTest7ResultsEv
 800      00
 801 01fa 488B00   		movq	(%rax), %rax
 802 01fd 488D4DC0 		leaq	-64(%rbp), %rcx
 803 0201 BA000000 		movl	$.LC8, %edx
 803      00
 804 0206 4889CE   		movq	%rcx, %rsi
 805 0209 4889C7   		movq	%rax, %rdi
 806 020c E8000000 		call	_ZN8UnitTest11TestResults13OnTestFailureERKNS_11TestDetailsEPKc
 806      00
 807              	.LEHE10:
 808              	.LEHB11:
 809              		.loc 6 22 0 discriminator 16
 810 0211 E8000000 		call	__cxa_end_catch
 810      00
 811              	.LEHE11:
  23:TestTestMacros.cpp **** }
 812              		.loc 6 23 0 is_stmt 1 discriminator 16
 813 0216 90       		nop
 814              	.L22:
 815              		.loc 6 23 0 is_stmt 0
 816 0217 488B45E8 		movq	-24(%rbp), %rax
 817 021b 64483304 		xorq	%fs:40, %rax
 817      25280000 
 817      00
 818 0224 7405     		je	.L29
 819 0226 E8000000 		call	__stack_chk_fail
 819      00
 820              	.L29:
 821 022b 4883C448 		addq	$72, %rsp
 822 022f 5B       		popq	%rbx
 823 0230 5D       		popq	%rbp
 824              		.cfi_def_cfa 7, 8
 825 0231 C3       		ret
 826              		.cfi_endproc
 827              	.LFE1091:
 828              		.section	.gcc_except_table,"a",@progbits
 829              		.align 4
 830              	.LLSDA1091:
 831 0000 FF       		.byte	0xff
 832 0001 03       		.byte	0x3
 833 0002 35       		.uleb128 .LLSDATT1091-.LLSDATTD1091
 834              	.LLSDATTD1091:
 835 0003 01       		.byte	0x1
 836 0004 2A       		.uleb128 .LLSDACSE1091-.LLSDACSB1091
 837              	.LLSDACSB1091:
 838 0005 21       		.uleb128 .LEHB4-.LFB1091
 839 0006 54       		.uleb128 .LEHE4-.LEHB4
 840 0007 EE01     		.uleb128 .L30-.LFB1091
 841 0009 01       		.uleb128 0x1
 842 000a 7A       		.uleb128 .LEHB5-.LFB1091
 843 000b 5C       		.uleb128 .LEHE5-.LEHB5
 844 000c CB02     		.uleb128 .L32-.LFB1091
 845 000e 01       		.uleb128 0x1
 846 000f E901     		.uleb128 .LEHB6-.LFB1091
 847 0011 05       		.uleb128 .LEHE6-.LEHB6
 848 0012 00       		.uleb128 0
 849 0013 00       		.uleb128 0
 850 0014 F601     		.uleb128 .LEHB7-.LFB1091
 851 0016 38       		.uleb128 .LEHE7-.LEHB7
 852 0017 DB01     		.uleb128 .L31-.LFB1091
 853 0019 00       		.uleb128 0
 854 001a AE02     		.uleb128 .LEHB8-.LFB1091
 855 001c 05       		.uleb128 .LEHE8-.LEHB8
 856 001d 00       		.uleb128 0
 857 001e 00       		.uleb128 0
 858 001f C602     		.uleb128 .LEHB9-.LFB1091
 859 0021 05       		.uleb128 .LEHE9-.LEHB9
 860 0022 00       		.uleb128 0
 861 0023 00       		.uleb128 0
 862 0024 D302     		.uleb128 .LEHB10-.LFB1091
 863 0026 38       		.uleb128 .LEHE10-.LEHB10
 864 0027 B802     		.uleb128 .L33-.LFB1091
 865 0029 00       		.uleb128 0
 866 002a 8B03     		.uleb128 .LEHB11-.LFB1091
 867 002c 05       		.uleb128 .LEHE11-.LEHB11
 868 002d 00       		.uleb128 0
 869 002e 00       		.uleb128 0
 870              	.LLSDACSE1091:
 871 002f 01       		.byte	0x1
 872 0030 00       		.byte	0
 873 0031 000000   		.align 4
 874 0034 00000000 		.long	0
 875              	
 876              	.LLSDATT1091:
 877              		.text
 879              		.section	.rodata
 880              	.LC9:
 881 00f9 4F6F7073 		.string	"Oops"
 881      00
 882              		.text
 883              		.align 2
 885              	_ZN12_GLOBAL__N_115ThrowingThingieC2Ev:
 886              	.LFB1093:
  24:TestTestMacros.cpp **** 
  25:TestTestMacros.cpp **** struct ThrowingThingie
  26:TestTestMacros.cpp **** {
  27:TestTestMacros.cpp ****     ThrowingThingie() : dummy(false)
 887              		.loc 6 27 0 is_stmt 1
 888              		.cfi_startproc
 889 0232 55       		pushq	%rbp
 890              		.cfi_def_cfa_offset 16
 891              		.cfi_offset 6, -16
 892 0233 4889E5   		movq	%rsp, %rbp
 893              		.cfi_def_cfa_register 6
 894 0236 4883EC10 		subq	$16, %rsp
 895 023a 48897DF8 		movq	%rdi, -8(%rbp)
 896              	.LBB13:
 897              		.loc 6 27 0
 898 023e 488B45F8 		movq	-8(%rbp), %rax
 899 0242 C60000   		movb	$0, (%rax)
  28:TestTestMacros.cpp ****     {
  29:TestTestMacros.cpp ****         if (!dummy)
 900              		.loc 6 29 0
 901 0245 488B45F8 		movq	-8(%rbp), %rax
 902 0249 0FB600   		movzbl	(%rax), %eax
 903 024c 83F001   		xorl	$1, %eax
 904 024f 84C0     		testb	%al, %al
 905 0251 7423     		je	.L34
  30:TestTestMacros.cpp ****             throw "Oops";
 906              		.loc 6 30 0
 907 0253 BF080000 		movl	$8, %edi
 907      00
 908 0258 E8000000 		call	__cxa_allocate_exception
 908      00
 909 025d 48C70000 		movq	$.LC9, (%rax)
 909      000000
 910 0264 BA000000 		movl	$0, %edx
 910      00
 911 0269 BE000000 		movl	$_ZTIPKc, %esi
 911      00
 912 026e 4889C7   		movq	%rax, %rdi
 913 0271 E8000000 		call	__cxa_throw
 913      00
 914              	.L34:
 915              	.LBE13:
  31:TestTestMacros.cpp ****     }
 916              		.loc 6 31 0
 917 0276 C9       		leave
 918              		.cfi_def_cfa 7, 8
 919 0277 C3       		ret
 920              		.cfi_endproc
 921              	.LFE1093:
 923              		.local	_ZN12_GLOBAL__N_15list2E
 924              		.comm	_ZN12_GLOBAL__N_15list2E,16,16
 925              		.align 2
 927              	_ZN12_GLOBAL__N_134ThrowingThingieDummyTestNameHelperC2ERKN8UnitTest11TestDetailsE:
 928              	.LFB1096:
  32:TestTestMacros.cpp **** 
  33:TestTestMacros.cpp ****     bool dummy;
  34:TestTestMacros.cpp **** };
  35:TestTestMacros.cpp **** 
  36:TestTestMacros.cpp **** TestList list2;
  37:TestTestMacros.cpp **** TEST_FIXTURE_EX(ThrowingThingie, DummyTestName, list2)
 929              		.loc 6 37 0
 930              		.cfi_startproc
 931 0278 55       		pushq	%rbp
 932              		.cfi_def_cfa_offset 16
 933              		.cfi_offset 6, -16
 934 0279 4889E5   		movq	%rsp, %rbp
 935              		.cfi_def_cfa_register 6
 936 027c 4883EC10 		subq	$16, %rsp
 937 0280 48897DF8 		movq	%rdi, -8(%rbp)
 938 0284 488975F0 		movq	%rsi, -16(%rbp)
 939              	.LBB14:
 940              		.loc 6 37 0
 941 0288 488B45F8 		movq	-8(%rbp), %rax
 942 028c 4889C7   		movq	%rax, %rdi
 943 028f E89EFFFF 		call	_ZN12_GLOBAL__N_115ThrowingThingieC2Ev
 943      FF
 944 0294 488B45F8 		movq	-8(%rbp), %rax
 945 0298 488B55F0 		movq	-16(%rbp), %rdx
 946 029c 48895008 		movq	%rdx, 8(%rax)
 947              	.LBE14:
 948 02a0 C9       		leave
 949              		.cfi_def_cfa 7, 8
 950 02a1 C3       		ret
 951              		.cfi_endproc
 952              	.LFE1096:
 954              		.section	.rodata
 955              	.LC10:
 956 00fe 44756D6D 		.string	"DummyTestName"
 956      79546573 
 956      744E616D 
 956      6500
 957              		.text
 958              		.align 2
 960              	_ZN12_GLOBAL__N_132TestThrowingThingieDummyTestNameC2Ev:
 961              	.LFB1099:
 962              		.loc 6 37 0
 963              		.cfi_startproc
 964 02a2 55       		pushq	%rbp
 965              		.cfi_def_cfa_offset 16
 966              		.cfi_offset 6, -16
 967 02a3 4889E5   		movq	%rsp, %rbp
 968              		.cfi_def_cfa_register 6
 969 02a6 4883EC10 		subq	$16, %rsp
 970 02aa 48897DF8 		movq	%rdi, -8(%rbp)
 971              	.LBB15:
 972              		.loc 6 37 0
 973 02ae E8000000 		call	_ZN13UnitTestSuite12GetSuiteNameEv
 973      00
 974 02b3 4889C2   		movq	%rax, %rdx
 975 02b6 488B45F8 		movq	-8(%rbp), %rax
 976 02ba 41B82500 		movl	$37, %r8d
 976      0000
 977 02c0 B9000000 		movl	$.LC2, %ecx
 977      00
 978 02c5 BE000000 		movl	$.LC10, %esi
 978      00
 979 02ca 4889C7   		movq	%rax, %rdi
 980 02cd E8000000 		call	_ZN8UnitTest4TestC2EPKcS2_S2_i
 980      00
 981 02d2 488B45F8 		movq	-8(%rbp), %rax
 982 02d6 48C70000 		movq	$_ZTVN12_GLOBAL__N_132TestThrowingThingieDummyTestNameE+16, (%rax)
 982      000000
 983              	.LBE15:
 984 02dd C9       		leave
 985              		.cfi_def_cfa 7, 8
 986 02de C3       		ret
 987              		.cfi_endproc
 988              	.LFE1099:
 990              		.local	_ZN12_GLOBAL__N_140testThrowingThingieDummyTestNameInstanceE
 991              		.comm	_ZN12_GLOBAL__N_140testThrowingThingieDummyTestNameInstanceE,56,32
 992              		.local	_ZN12_GLOBAL__N_133adderThrowingThingieDummyTestNameE
 993              		.comm	_ZN12_GLOBAL__N_133adderThrowingThingieDummyTestNameE,1,1
 994              		.section	.rodata
 995              	.LC11:
 996 010c 556E6861 		.string	"Unhandled exception: "
 996      6E646C65 
 996      64206578 
 996      63657074 
 996      696F6E3A 
 997 0122 00000000 		.align 8
 997      0000
 998              	.LC12:
 999 0128 556E6861 		.string	"Unhandled exception while destroying fixture ThrowingThingie"
 999      6E646C65 
 999      64206578 
 999      63657074 
 999      696F6E20 
 1000 0165 000000   		.align 8
 1001              	.LC13:
 1002 0168 556E6861 		.string	"Unhandled exception while constructing fixture ThrowingThingie"
 1002      6E646C65 
 1002      64206578 
 1002      63657074 
 1002      696F6E20 
 1003              		.text
 1004 02df 90       		.align 2
 1006              	_ZNK12_GLOBAL__N_132TestThrowingThingieDummyTestName7RunImplEv:
 1007              	.LFB1101:
 1008              		.loc 6 37 0
 1009              		.cfi_startproc
 1010              		.cfi_personality 0x3,__gxx_personality_v0
 1011              		.cfi_lsda 0x3,.LLSDA1101
 1012 02e0 55       		pushq	%rbp
 1013              		.cfi_def_cfa_offset 16
 1014              		.cfi_offset 6, -16
 1015 02e1 4889E5   		movq	%rsp, %rbp
 1016              		.cfi_def_cfa_register 6
 1017 02e4 4154     		pushq	%r12
 1018 02e6 53       		pushq	%rbx
 1019 02e7 4881ECC0 		subq	$448, %rsp
 1019      010000
 1020              		.cfi_offset 12, -24
 1021              		.cfi_offset 3, -32
 1022 02ee 4889BD38 		movq	%rdi, -456(%rbp)
 1022      FEFFFF
 1023              		.loc 6 37 0
 1024 02f5 64488B04 		movq	%fs:40, %rax
 1024      25280000 
 1024      00
 1025 02fe 488945E8 		movq	%rax, -24(%rbp)
 1026 0302 31C0     		xorl	%eax, %eax
 1027              	.LBB16:
 1028 0304 C6854FFE 		movb	$0, -433(%rbp)
 1028      FFFF00
 1029              	.LBB17:
 1030 030b 488B8538 		movq	-456(%rbp), %rax
 1030      FEFFFF
 1031 0312 488D5008 		leaq	8(%rax), %rdx
 1032 0316 488D8560 		leaq	-416(%rbp), %rax
 1032      FEFFFF
 1033 031d 4889D6   		movq	%rdx, %rsi
 1034 0320 4889C7   		movq	%rax, %rdi
 1035              	.LEHB12:
 1036 0323 E850FFFF 		call	_ZN12_GLOBAL__N_134ThrowingThingieDummyTestNameHelperC2ERKN8UnitTest11TestDetailsE
 1036      FF
 1037              		.loc 6 37 0 is_stmt 0 discriminator 1
 1038 0328 C6854FFE 		movb	$1, -433(%rbp)
 1038      FFFF01
 1039 032f 488B8538 		movq	-456(%rbp), %rax
 1039      FEFFFF
 1040 0336 488D5008 		leaq	8(%rax), %rdx
 1041 033a 488D8560 		leaq	-416(%rbp), %rax
 1041      FEFFFF
 1042 0341 4889D6   		movq	%rdx, %rsi
 1043 0344 4889C7   		movq	%rax, %rdi
 1044 0347 E8A72B00 		call	_ZN8UnitTest11ExecuteTestIN12_GLOBAL__N_134ThrowingThingieDummyTestNameHelperEEEvRT_RKNS_11Te
 1044      00
 1045              	.LEHE12:
 1046              	.LBE17:
 1047              	.LBE16:
 1048              		.loc 6 37 0
 1049 034c E9470200 		jmp	.L57
 1049      00
 1050              	.L51:
 1051 0351 4883FA01 		cmpq	$1, %rdx
 1052 0355 745C     		je	.L41
 1053 0357 4883FA02 		cmpq	$2, %rdx
 1054 035b 0F84F400 		je	.L42
 1054      0000
 1055 0361 E9980100 		jmp	.L56
 1055      00
 1056              	.L52:
 1057 0366 4889C3   		movq	%rax, %rbx
 1058              	.LBB24:
 1059              	.LBB18:
 1060 0369 E8000000 		call	__cxa_end_catch
 1060      00
 1061 036e 4889D8   		movq	%rbx, %rax
 1062 0371 4889C7   		movq	%rax, %rdi
 1063              	.LEHB13:
 1064 0374 E8000000 		call	_Unwind_Resume
 1064      00
 1065              	.LEHE13:
 1066              	.L53:
 1067 0379 4889C3   		movq	%rax, %rbx
 1068              	.LBE18:
 1069              	.LBB19:
 1070              	.LBB20:
 1071 037c 488D8580 		leaq	-384(%rbp), %rax
 1071      FEFFFF
 1072 0383 4889C7   		movq	%rax, %rdi
 1073 0386 E8000000 		call	_ZN8UnitTest15MemoryOutStreamD1Ev
 1073      00
 1074 038b EB03     		jmp	.L45
 1075              	.L54:
 1076 038d 4889C3   		movq	%rax, %rbx
 1077              	.L45:
 1078              	.LBE20:
 1079 0390 E8000000 		call	__cxa_end_catch
 1079      00
 1080 0395 4889D8   		movq	%rbx, %rax
 1081 0398 4889C7   		movq	%rax, %rdi
 1082              	.LEHB14:
 1083 039b E8000000 		call	_Unwind_Resume
 1083      00
 1084              	.LEHE14:
 1085              	.L55:
 1086 03a0 4889C3   		movq	%rax, %rbx
 1087              	.LBE19:
 1088 03a3 E8000000 		call	__cxa_end_catch
 1088      00
 1089 03a8 4889D8   		movq	%rbx, %rax
 1090 03ab 4889C7   		movq	%rax, %rdi
 1091              	.LEHB15:
 1092 03ae E8000000 		call	_Unwind_Resume
 1092      00
 1093              	.LEHE15:
 1094              	.L41:
 1095              	.LBB22:
 1096 03b3 4889C7   		movq	%rax, %rdi
 1097 03b6 E8000000 		call	__cxa_begin_catch
 1097      00
 1098 03bb 48898550 		movq	%rax, -432(%rbp)
 1098      FEFFFF
 1099 03c2 488B8550 		movq	-432(%rbp), %rax
 1099      FEFFFF
 1100 03c9 488B00   		movq	(%rax), %rax
 1101 03cc 4883C010 		addq	$16, %rax
 1102 03d0 488B00   		movq	(%rax), %rax
 1103 03d3 488B9550 		movq	-432(%rbp), %rdx
 1103      FEFFFF
 1104 03da 4889D7   		movq	%rdx, %rdi
 1105 03dd FFD0     		call	*%rax
 1106 03df 4889C3   		movq	%rax, %rbx
 1107 03e2 488B8550 		movq	-432(%rbp), %rax
 1107      FEFFFF
 1108 03e9 4889C7   		movq	%rax, %rdi
 1109              	.LEHB16:
 1110 03ec E8000000 		call	_ZNK8UnitTest15AssertException10LineNumberEv
 1110      00
 1111 03f1 4189C4   		movl	%eax, %r12d
 1112 03f4 488B8550 		movq	-432(%rbp), %rax
 1112      FEFFFF
 1113 03fb 4889C7   		movq	%rax, %rdi
 1114 03fe E8000000 		call	_ZNK8UnitTest15AssertException8FilenameEv
 1114      00
 1115              		.loc 6 37 0 discriminator 3
 1116 0403 4889C1   		movq	%rax, %rcx
 1117 0406 488B8538 		movq	-456(%rbp), %rax
 1117      FEFFFF
 1118 040d 488B5008 		movq	8(%rax), %rdx
 1119 0411 488B8538 		movq	-456(%rbp), %rax
 1119      FEFFFF
 1120 0418 488B7010 		movq	16(%rax), %rsi
 1121 041c 488D8560 		leaq	-416(%rbp), %rax
 1121      FEFFFF
 1122 0423 4589E0   		movl	%r12d, %r8d
 1123 0426 4889C7   		movq	%rax, %rdi
 1124 0429 E8000000 		call	_ZN8UnitTest11TestDetailsC1EPKcS2_S2_i
 1124      00
 1125              		.loc 6 37 0 discriminator 7
 1126 042e E8000000 		call	_ZN8UnitTest11CurrentTest7ResultsEv
 1126      00
 1127 0433 488B00   		movq	(%rax), %rax
 1128 0436 488D8D60 		leaq	-416(%rbp), %rcx
 1128      FEFFFF
 1129 043d 4889DA   		movq	%rbx, %rdx
 1130 0440 4889CE   		movq	%rcx, %rsi
 1131 0443 4889C7   		movq	%rax, %rdi
 1132 0446 E8000000 		call	_ZN8UnitTest11TestResults13OnTestFailureERKNS_11TestDetailsEPKc
 1132      00
 1133              	.LEHE16:
 1134              		.loc 6 37 0 discriminator 11
 1135 044b E8000000 		call	__cxa_end_catch
 1135      00
 1136              	.LBE22:
 1137              	.LBE24:
 1138 0450 E9430100 		jmp	.L57
 1138      00
 1139              	.L42:
 1140              	.LBB25:
 1141              	.LBB23:
 1142              		.loc 6 37 0
 1143 0455 4889C7   		movq	%rax, %rdi
 1144 0458 E8000000 		call	__cxa_begin_catch
 1144      00
 1145 045d 48898558 		movq	%rax, -424(%rbp)
 1145      FEFFFF
 1146              	.LBB21:
 1147 0464 488D8580 		leaq	-384(%rbp), %rax
 1147      FEFFFF
 1148 046b 4889C7   		movq	%rax, %rdi
 1149              	.LEHB17:
 1150 046e E8000000 		call	_ZN8UnitTest15MemoryOutStreamC1Ev
 1150      00
 1151              	.LEHE17:
 1152              		.loc 6 37 0 discriminator 13
 1153 0473 488B8558 		movq	-424(%rbp), %rax
 1153      FEFFFF
 1154 047a 488B00   		movq	(%rax), %rax
 1155 047d 4883C010 		addq	$16, %rax
 1156 0481 488B00   		movq	(%rax), %rax
 1157 0484 488B9558 		movq	-424(%rbp), %rdx
 1157      FEFFFF
 1158 048b 4889D7   		movq	%rdx, %rdi
 1159 048e FFD0     		call	*%rax
 1160 0490 4889C3   		movq	%rax, %rbx
 1161 0493 488D8580 		leaq	-384(%rbp), %rax
 1161      FEFFFF
 1162 049a BE000000 		movl	$.LC11, %esi
 1162      00
 1163 049f 4889C7   		movq	%rax, %rdi
 1164              	.LEHB18:
 1165 04a2 E8000000 		call	_ZStlsISt11char_traitsIcEERSt13basic_ostreamIcT_ES5_PKc
 1165      00
 1166 04a7 4889DE   		movq	%rbx, %rsi
 1167 04aa 4889C7   		movq	%rax, %rdi
 1168 04ad E8000000 		call	_ZStlsISt11char_traitsIcEERSt13basic_ostreamIcT_ES5_PKc
 1168      00
 1169              		.loc 6 37 0 discriminator 17
 1170 04b2 488D8580 		leaq	-384(%rbp), %rax
 1170      FEFFFF
 1171 04b9 4889C7   		movq	%rax, %rdi
 1172 04bc E8000000 		call	_ZNK8UnitTest15MemoryOutStream7GetTextEv
 1172      00
 1173 04c1 4989C4   		movq	%rax, %r12
 1174 04c4 488B8538 		movq	-456(%rbp), %rax
 1174      FEFFFF
 1175 04cb 488D5808 		leaq	8(%rax), %rbx
 1176 04cf E8000000 		call	_ZN8UnitTest11CurrentTest7ResultsEv
 1176      00
 1177              		.loc 6 37 0 discriminator 19
 1178 04d4 488B00   		movq	(%rax), %rax
 1179 04d7 4C89E2   		movq	%r12, %rdx
 1180 04da 4889DE   		movq	%rbx, %rsi
 1181 04dd 4889C7   		movq	%rax, %rdi
 1182 04e0 E8000000 		call	_ZN8UnitTest11TestResults13OnTestFailureERKNS_11TestDetailsEPKc
 1182      00
 1183              	.LEHE18:
 1184              		.loc 6 37 0 discriminator 23
 1185 04e5 488D8580 		leaq	-384(%rbp), %rax
 1185      FEFFFF
 1186 04ec 4889C7   		movq	%rax, %rdi
 1187              	.LEHB19:
 1188 04ef E8000000 		call	_ZN8UnitTest15MemoryOutStreamD1Ev
 1188      00
 1189              	.LEHE19:
 1190              	.LBE21:
 1191              		.loc 6 37 0 discriminator 24
 1192 04f4 E8000000 		call	__cxa_end_catch
 1192      00
 1193              	.LBE23:
 1194              	.LBE25:
 1195 04f9 E99A0000 		jmp	.L57
 1195      00
 1196              	.L56:
 1197              	.LBB26:
 1198              		.loc 6 37 0
 1199 04fe 4889C7   		movq	%rax, %rdi
 1200 0501 E8000000 		call	__cxa_begin_catch
 1200      00
 1201 0506 80BD4FFE 		cmpb	$0, -433(%rbp)
 1201      FFFF00
 1202 050d 7443     		je	.L48
 1203              		.loc 6 37 0 discriminator 26
 1204 050f 488B8538 		movq	-456(%rbp), %rax
 1204      FEFFFF
 1205 0516 488D4808 		leaq	8(%rax), %rcx
 1206 051a 488D8560 		leaq	-416(%rbp), %rax
 1206      FEFFFF
 1207 0521 BA250000 		movl	$37, %edx
 1207      00
 1208 0526 4889CE   		movq	%rcx, %rsi
 1209 0529 4889C7   		movq	%rax, %rdi
 1210              	.LEHB20:
 1211 052c E8000000 		call	_ZN8UnitTest11TestDetailsC1ERKS0_i
 1211      00
 1212              		.loc 6 37 0 discriminator 29
 1213 0531 E8000000 		call	_ZN8UnitTest11CurrentTest7ResultsEv
 1213      00
 1214 0536 488B00   		movq	(%rax), %rax
 1215 0539 488D8D60 		leaq	-416(%rbp), %rcx
 1215      FEFFFF
 1216 0540 BA000000 		movl	$.LC12, %edx
 1216      00
 1217 0545 4889CE   		movq	%rcx, %rsi
 1218 0548 4889C7   		movq	%rax, %rdi
 1219 054b E8000000 		call	_ZN8UnitTest11TestResults13OnTestFailureERKNS_11TestDetailsEPKc
 1219      00
 1220 0550 EB41     		jmp	.L49
 1221              	.L48:
 1222              		.loc 6 37 0 discriminator 27
 1223 0552 488B8538 		movq	-456(%rbp), %rax
 1223      FEFFFF
 1224 0559 488D4808 		leaq	8(%rax), %rcx
 1225 055d 488D8560 		leaq	-416(%rbp), %rax
 1225      FEFFFF
 1226 0564 BA250000 		movl	$37, %edx
 1226      00
 1227 0569 4889CE   		movq	%rcx, %rsi
 1228 056c 4889C7   		movq	%rax, %rdi
 1229 056f E8000000 		call	_ZN8UnitTest11TestDetailsC1ERKS0_i
 1229      00
 1230              		.loc 6 37 0 discriminator 36
 1231 0574 E8000000 		call	_ZN8UnitTest11CurrentTest7ResultsEv
 1231      00
 1232 0579 488B00   		movq	(%rax), %rax
 1233 057c 488D8D60 		leaq	-416(%rbp), %rcx
 1233      FEFFFF
 1234 0583 BA000000 		movl	$.LC13, %edx
 1234      00
 1235 0588 4889CE   		movq	%rcx, %rsi
 1236 058b 4889C7   		movq	%rax, %rdi
 1237 058e E8000000 		call	_ZN8UnitTest11TestResults13OnTestFailureERKNS_11TestDetailsEPKc
 1237      00
 1238              	.LEHE20:
 1239              	.L49:
 1240              	.LEHB21:
 1241              		.loc 6 37 0 discriminator 41
 1242 0593 E8000000 		call	__cxa_end_catch
 1242      00
 1243              	.LEHE21:
 1244              	.L57:
 1245              	.LBE26:
 1246              		.loc 6 37 0
 1247 0598 90       		nop
 1248 0599 488B45E8 		movq	-24(%rbp), %rax
 1249 059d 64483304 		xorq	%fs:40, %rax
 1249      25280000 
 1249      00
 1250 05a6 7405     		je	.L50
 1251 05a8 E8000000 		call	__stack_chk_fail
 1251      00
 1252              	.L50:
 1253 05ad 4881C4C0 		addq	$448, %rsp
 1253      010000
 1254 05b4 5B       		popq	%rbx
 1255 05b5 415C     		popq	%r12
 1256 05b7 5D       		popq	%rbp
 1257              		.cfi_def_cfa 7, 8
 1258 05b8 C3       		ret
 1259              		.cfi_endproc
 1260              	.LFE1101:
 1261              		.section	.gcc_except_table
 1262              		.align 4
 1263              	.LLSDA1101:
 1264 0038 FF       		.byte	0xff
 1265 0039 03       		.byte	0x3
 1266 003a 4D       		.uleb128 .LLSDATT1101-.LLSDATTD1101
 1267              	.LLSDATTD1101:
 1268 003b 01       		.byte	0x1
 1269 003c 36       		.uleb128 .LLSDACSE1101-.LLSDACSB1101
 1270              	.LLSDACSB1101:
 1271 003d 43       		.uleb128 .LEHB12-.LFB1101
 1272 003e 29       		.uleb128 .LEHE12-.LEHB12
 1273 003f 71       		.uleb128 .L51-.LFB1101
 1274 0040 05       		.uleb128 0x5
 1275 0041 9401     		.uleb128 .LEHB13-.LFB1101
 1276 0043 05       		.uleb128 .LEHE13-.LEHB13
 1277 0044 00       		.uleb128 0
 1278 0045 00       		.uleb128 0
 1279 0046 BB01     		.uleb128 .LEHB14-.LFB1101
 1280 0048 05       		.uleb128 .LEHE14-.LEHB14
 1281 0049 00       		.uleb128 0
 1282 004a 00       		.uleb128 0
 1283 004b CE01     		.uleb128 .LEHB15-.LFB1101
 1284 004d 05       		.uleb128 .LEHE15-.LEHB15
 1285 004e 00       		.uleb128 0
 1286 004f 00       		.uleb128 0
 1287 0050 8C02     		.uleb128 .LEHB16-.LFB1101
 1288 0052 5F       		.uleb128 .LEHE16-.LEHB16
 1289 0053 8601     		.uleb128 .L52-.LFB1101
 1290 0055 00       		.uleb128 0
 1291 0056 8E03     		.uleb128 .LEHB17-.LFB1101
 1292 0058 05       		.uleb128 .LEHE17-.LEHB17
 1293 0059 AD01     		.uleb128 .L54-.LFB1101
 1294 005b 00       		.uleb128 0
 1295 005c C203     		.uleb128 .LEHB18-.LFB1101
 1296 005e 43       		.uleb128 .LEHE18-.LEHB18
 1297 005f 9901     		.uleb128 .L53-.LFB1101
 1298 0061 00       		.uleb128 0
 1299 0062 8F04     		.uleb128 .LEHB19-.LFB1101
 1300 0064 05       		.uleb128 .LEHE19-.LEHB19
 1301 0065 AD01     		.uleb128 .L54-.LFB1101
 1302 0067 00       		.uleb128 0
 1303 0068 CC04     		.uleb128 .LEHB20-.LFB1101
 1304 006a 67       		.uleb128 .LEHE20-.LEHB20
 1305 006b C001     		.uleb128 .L55-.LFB1101
 1306 006d 00       		.uleb128 0
 1307 006e B305     		.uleb128 .LEHB21-.LFB1101
 1308 0070 05       		.uleb128 .LEHE21-.LEHB21
 1309 0071 00       		.uleb128 0
 1310 0072 00       		.uleb128 0
 1311              	.LLSDACSE1101:
 1312 0073 03       		.byte	0x3
 1313 0074 00       		.byte	0
 1314 0075 02       		.byte	0x2
 1315 0076 7D       		.byte	0x7d
 1316 0077 01       		.byte	0x1
 1317 0078 7D       		.byte	0x7d
 1318 0079 000000   		.align 4
 1319 007c 00000000 		.long	0
 1320              	
 1321 0080 00000000 		.long	_ZTISt9exception
 1322 0084 00000000 		.long	_ZTIN8UnitTest15AssertExceptionE
 1323              	.LLSDATT1101:
 1324              		.text
 1326 05b9 90       		.align 2
 1328              	_ZN12_GLOBAL__N_134ThrowingThingieDummyTestNameHelper7RunImplEv:
 1329              	.LFB1102:
  38:TestTestMacros.cpp **** {
 1330              		.loc 6 38 0 is_stmt 1
 1331              		.cfi_startproc
 1332 05ba 55       		pushq	%rbp
 1333              		.cfi_def_cfa_offset 16
 1334              		.cfi_offset 6, -16
 1335 05bb 4889E5   		movq	%rsp, %rbp
 1336              		.cfi_def_cfa_register 6
 1337 05be 48897DF8 		movq	%rdi, -8(%rbp)
  39:TestTestMacros.cpp **** }
 1338              		.loc 6 39 0
 1339 05c2 5D       		popq	%rbp
 1340              		.cfi_def_cfa 7, 8
 1341 05c3 C3       		ret
 1342              		.cfi_endproc
 1343              	.LFE1102:
 1345              		.section	.rodata
 1346 01a7 00       		.align 8
 1347              	.LC14:
 1348 01a8 45786365 		.string	"ExceptionsInFixtureAreReportedAsHappeningInTheFixture"
 1348      7074696F 
 1348      6E73496E 
 1348      46697874 
 1348      75726541 
 1349              		.text
 1350              		.align 2
 1352              	_ZN12_GLOBAL__N_157TestExceptionsInFixtureAreReportedAsHappeningInTheFixtureC2Ev:
 1353              	.LFB1104:
  40:TestTestMacros.cpp **** 
  41:TestTestMacros.cpp **** TEST (ExceptionsInFixtureAreReportedAsHappeningInTheFixture)
 1354              		.loc 6 41 0
 1355              		.cfi_startproc
 1356 05c4 55       		pushq	%rbp
 1357              		.cfi_def_cfa_offset 16
 1358              		.cfi_offset 6, -16
 1359 05c5 4889E5   		movq	%rsp, %rbp
 1360              		.cfi_def_cfa_register 6
 1361 05c8 4883EC10 		subq	$16, %rsp
 1362 05cc 48897DF8 		movq	%rdi, -8(%rbp)
 1363              	.LBB27:
 1364              		.loc 6 41 0
 1365 05d0 E8000000 		call	_ZN13UnitTestSuite12GetSuiteNameEv
 1365      00
 1366 05d5 4889C2   		movq	%rax, %rdx
 1367 05d8 488B45F8 		movq	-8(%rbp), %rax
 1368 05dc 41B82900 		movl	$41, %r8d
 1368      0000
 1369 05e2 B9000000 		movl	$.LC2, %ecx
 1369      00
 1370 05e7 BE000000 		movl	$.LC14, %esi
 1370      00
 1371 05ec 4889C7   		movq	%rax, %rdi
 1372 05ef E8000000 		call	_ZN8UnitTest4TestC2EPKcS2_S2_i
 1372      00
 1373 05f4 488B45F8 		movq	-8(%rbp), %rax
 1374 05f8 48C70000 		movq	$_ZTVN12_GLOBAL__N_157TestExceptionsInFixtureAreReportedAsHappeningInTheFixtureE+16, (%rax)
 1374      000000
 1375              	.LBE27:
 1376 05ff C9       		leave
 1377              		.cfi_def_cfa 7, 8
 1378 0600 C3       		ret
 1379              		.cfi_endproc
 1380              	.LFE1104:
 1382              		.local	_ZN12_GLOBAL__N_165testExceptionsInFixtureAreReportedAsHappeningInTheFixtureInstanceE
 1383              		.comm	_ZN12_GLOBAL__N_165testExceptionsInFixtureAreReportedAsHappeningInTheFixtureInstanceE,56,32
 1384              		.local	_ZN12_GLOBAL__N_158adderExceptionsInFixtureAreReportedAsHappeningInTheFixtureE
 1385              		.comm	_ZN12_GLOBAL__N_158adderExceptionsInFixtureAreReportedAsHappeningInTheFixtureE,1,1
 1386              		.section	.rodata
 1387              	.LC15:
 1388 01de 78636570 		.string	"xception"
 1388      74696F6E 
 1388      00
 1389 01e7 00       		.align 8
 1390              	.LC16:
 1391 01e8 73747273 		.string	"strstr(reporter.lastFailedMessage, \"xception\")"
 1391      74722872 
 1391      65706F72 
 1391      7465722E 
 1391      6C617374 
 1392              	.LC17:
 1393 0217 66697874 		.string	"fixture"
 1393      75726500 
 1394 021f 00       		.align 8
 1395              	.LC18:
 1396 0220 73747273 		.string	"strstr(reporter.lastFailedMessage, \"fixture\")"
 1396      74722872 
 1396      65706F72 
 1396      7465722E 
 1396      6C617374 
 1397              	.LC19:
 1398 024e 5468726F 		.string	"ThrowingThingie"
 1398      77696E67 
 1398      5468696E 
 1398      67696500 
 1399 025e 0000     		.align 8
 1400              	.LC20:
 1401 0260 73747273 		.string	"strstr(reporter.lastFailedMessage, \"ThrowingThingie\")"
 1401      74722872 
 1401      65706F72 
 1401      7465722E 
 1401      6C617374 
 1402 0296 0000     		.align 8
 1403              	.LC21:
 1404 0298 556E6861 		.string	"Unhandled exception in CHECK(strstr(reporter.lastFailedMessage, \"xception\"))"
 1404      6E646C65 
 1404      64206578 
 1404      63657074 
 1404      696F6E20 
 1405 02e5 000000   		.align 8
 1406              	.LC22:
 1407 02e8 556E6861 		.string	"Unhandled exception in CHECK(strstr(reporter.lastFailedMessage, \"fixture\"))"
 1407      6E646C65 
 1407      64206578 
 1407      63657074 
 1407      696F6E20 
 1408 0334 00000000 		.align 8
 1409              	.LC23:
 1410 0338 556E6861 		.string	"Unhandled exception in CHECK(strstr(reporter.lastFailedMessage, \"ThrowingThingie\"))"
 1410      6E646C65 
 1410      64206578 
 1410      63657074 
 1410      696F6E20 
 1411              		.text
 1412 0601 90       		.align 2
 1414              	_ZNK12_GLOBAL__N_157TestExceptionsInFixtureAreReportedAsHappeningInTheFixture7RunImplEv:
 1415              	.LFB1106:
  42:TestTestMacros.cpp **** {
 1416              		.loc 6 42 0
 1417              		.cfi_startproc
 1418              		.cfi_personality 0x3,__gxx_personality_v0
 1419              		.cfi_lsda 0x3,.LLSDA1106
 1420 0602 55       		pushq	%rbp
 1421              		.cfi_def_cfa_offset 16
 1422              		.cfi_offset 6, -16
 1423 0603 4889E5   		movq	%rsp, %rbp
 1424              		.cfi_def_cfa_register 6
 1425 0606 53       		pushq	%rbx
 1426 0607 4881EC98 		subq	$2200, %rsp
 1426      080000
 1427              		.cfi_offset 3, -24
 1428 060e 4889BD68 		movq	%rdi, -2200(%rbp)
 1428      F7FFFF
 1429              		.loc 6 42 0
 1430 0615 64488B04 		movq	%fs:40, %rax
 1430      25280000 
 1430      00
 1431 061e 488945E8 		movq	%rax, -24(%rbp)
 1432 0622 31C0     		xorl	%eax, %eax
 1433              	.LBB28:
  43:TestTestMacros.cpp ****     RecordingReporter reporter;
 1434              		.loc 6 43 0
 1435 0624 488D85B0 		leaq	-2128(%rbp), %rax
 1435      F7FFFF
 1436 062b 4889C7   		movq	%rax, %rdi
 1437 062e E8000000 		call	_ZN17RecordingReporterC1Ev
 1437      00
  44:TestTestMacros.cpp ****     TestResults result(&reporter);
 1438              		.loc 6 44 0
 1439 0633 488D95B0 		leaq	-2128(%rbp), %rdx
 1439      F7FFFF
 1440 063a 488D8570 		leaq	-2192(%rbp), %rax
 1440      F7FFFF
 1441 0641 4889D6   		movq	%rdx, %rsi
 1442 0644 4889C7   		movq	%rax, %rdi
 1443              	.LEHB22:
 1444 0647 E8000000 		call	_ZN8UnitTest11TestResultsC1EPNS_12TestReporterE
 1444      00
 1445              	.LBB29:
  45:TestTestMacros.cpp **** 	{
  46:TestTestMacros.cpp **** 		ScopedCurrentTest scopedResults(result);
 1446              		.loc 6 46 0
 1447 064c 488D8D70 		leaq	-2192(%rbp), %rcx
 1447      F7FFFF
 1448 0653 488D8590 		leaq	-2160(%rbp), %rax
 1448      F7FFFF
 1449 065a BA000000 		movl	$0, %edx
 1449      00
 1450 065f 4889CE   		movq	%rcx, %rsi
 1451 0662 4889C7   		movq	%rax, %rdi
 1452 0665 E8000000 		call	_ZN17ScopedCurrentTestC1ERN8UnitTest11TestResultsEPKNS0_11TestDetailsE
 1452      00
 1453              	.LEHE22:
  47:TestTestMacros.cpp **** 		list2.GetHead()->Run();
 1454              		.loc 6 47 0
 1455 066a BF000000 		movl	$_ZN12_GLOBAL__N_15list2E, %edi
 1455      00
 1456              	.LEHB23:
 1457 066f E8000000 		call	_ZNK8UnitTest8TestList7GetHeadEv
 1457      00
 1458 0674 4889C7   		movq	%rax, %rdi
 1459 0677 E8000000 		call	_ZN8UnitTest4Test3RunEv
 1459      00
 1460              	.LEHE23:
 1461              		.loc 6 47 0 is_stmt 0 discriminator 4
 1462 067c 488D8590 		leaq	-2160(%rbp), %rax
 1462      F7FFFF
 1463 0683 4889C7   		movq	%rax, %rdi
 1464              	.LEHB24:
 1465 0686 E8000000 		call	_ZN17ScopedCurrentTestD1Ev
 1465      00
 1466              	.LEHE24:
 1467              	.LBE29:
  48:TestTestMacros.cpp **** 	}
  49:TestTestMacros.cpp **** 
  50:TestTestMacros.cpp ****     CHECK(strstr(reporter.lastFailedMessage, "xception"));
 1468              		.loc 6 50 0 is_stmt 1
 1469 068b 488D85B0 		leaq	-2128(%rbp), %rax
 1469      F7FFFF
 1470 0692 48051405 		addq	$1300, %rax
 1470      0000
 1471 0698 BE000000 		movl	$.LC15, %esi
 1471      00
 1472 069d 4889C7   		movq	%rax, %rdi
 1473 06a0 E8000000 		call	strstr
 1473      00
 1474 06a5 4889C7   		movq	%rax, %rdi
 1475 06a8 E8000000 		call	_ZN8UnitTest5CheckIPcEEbT_
 1475      00
 1476 06ad 83F001   		xorl	$1, %eax
 1477 06b0 84C0     		testb	%al, %al
 1478 06b2 743E     		je	.L61
 1479              	.LEHB25:
 1480              		.loc 6 50 0 is_stmt 0 discriminator 1
 1481 06b4 E8000000 		call	_ZN8UnitTest11CurrentTest7DetailsEv
 1481      00
 1482 06b9 488B08   		movq	(%rax), %rcx
 1483 06bc 488D8590 		leaq	-2160(%rbp), %rax
 1483      F7FFFF
 1484 06c3 BA320000 		movl	$50, %edx
 1484      00
 1485 06c8 4889CE   		movq	%rcx, %rsi
 1486 06cb 4889C7   		movq	%rax, %rdi
 1487 06ce E8000000 		call	_ZN8UnitTest11TestDetailsC1ERKS0_i
 1487      00
 1488              		.loc 6 50 0 discriminator 3
 1489 06d3 E8000000 		call	_ZN8UnitTest11CurrentTest7ResultsEv
 1489      00
 1490 06d8 488B00   		movq	(%rax), %rax
 1491 06db 488D8D90 		leaq	-2160(%rbp), %rcx
 1491      F7FFFF
 1492 06e2 BA000000 		movl	$.LC16, %edx
 1492      00
 1493 06e7 4889CE   		movq	%rcx, %rsi
 1494 06ea 4889C7   		movq	%rax, %rdi
 1495 06ed E8000000 		call	_ZN8UnitTest11TestResults13OnTestFailureERKNS_11TestDetailsEPKc
 1495      00
 1496              	.LEHE25:
 1497              	.L61:
  51:TestTestMacros.cpp ****     CHECK(strstr(reporter.lastFailedMessage, "fixture"));
 1498              		.loc 6 51 0 is_stmt 1
 1499 06f2 488D85B0 		leaq	-2128(%rbp), %rax
 1499      F7FFFF
 1500 06f9 48051405 		addq	$1300, %rax
 1500      0000
 1501 06ff BE000000 		movl	$.LC17, %esi
 1501      00
 1502 0704 4889C7   		movq	%rax, %rdi
 1503 0707 E8000000 		call	strstr
 1503      00
 1504 070c 4889C7   		movq	%rax, %rdi
 1505 070f E8000000 		call	_ZN8UnitTest5CheckIPcEEbT_
 1505      00
 1506 0714 83F001   		xorl	$1, %eax
 1507 0717 84C0     		testb	%al, %al
 1508 0719 743E     		je	.L62
 1509              	.LEHB26:
 1510              		.loc 6 51 0 is_stmt 0 discriminator 1
 1511 071b E8000000 		call	_ZN8UnitTest11CurrentTest7DetailsEv
 1511      00
 1512 0720 488B08   		movq	(%rax), %rcx
 1513 0723 488D8590 		leaq	-2160(%rbp), %rax
 1513      F7FFFF
 1514 072a BA330000 		movl	$51, %edx
 1514      00
 1515 072f 4889CE   		movq	%rcx, %rsi
 1516 0732 4889C7   		movq	%rax, %rdi
 1517 0735 E8000000 		call	_ZN8UnitTest11TestDetailsC1ERKS0_i
 1517      00
 1518              		.loc 6 51 0 discriminator 3
 1519 073a E8000000 		call	_ZN8UnitTest11CurrentTest7ResultsEv
 1519      00
 1520 073f 488B00   		movq	(%rax), %rax
 1521 0742 488D8D90 		leaq	-2160(%rbp), %rcx
 1521      F7FFFF
 1522 0749 BA000000 		movl	$.LC18, %edx
 1522      00
 1523 074e 4889CE   		movq	%rcx, %rsi
 1524 0751 4889C7   		movq	%rax, %rdi
 1525 0754 E8000000 		call	_ZN8UnitTest11TestResults13OnTestFailureERKNS_11TestDetailsEPKc
 1525      00
 1526              	.LEHE26:
 1527              	.L62:
  52:TestTestMacros.cpp ****     CHECK(strstr(reporter.lastFailedMessage, "ThrowingThingie"));
 1528              		.loc 6 52 0 is_stmt 1
 1529 0759 488D85B0 		leaq	-2128(%rbp), %rax
 1529      F7FFFF
 1530 0760 48051405 		addq	$1300, %rax
 1530      0000
 1531 0766 BE000000 		movl	$.LC19, %esi
 1531      00
 1532 076b 4889C7   		movq	%rax, %rdi
 1533 076e E8000000 		call	strstr
 1533      00
 1534 0773 4889C7   		movq	%rax, %rdi
 1535 0776 E8000000 		call	_ZN8UnitTest5CheckIPcEEbT_
 1535      00
 1536 077b 83F001   		xorl	$1, %eax
 1537 077e 84C0     		testb	%al, %al
 1538 0780 743E     		je	.L63
 1539              	.LEHB27:
 1540              		.loc 6 52 0 is_stmt 0 discriminator 1
 1541 0782 E8000000 		call	_ZN8UnitTest11CurrentTest7DetailsEv
 1541      00
 1542 0787 488B08   		movq	(%rax), %rcx
 1543 078a 488D8590 		leaq	-2160(%rbp), %rax
 1543      F7FFFF
 1544 0791 BA340000 		movl	$52, %edx
 1544      00
 1545 0796 4889CE   		movq	%rcx, %rsi
 1546 0799 4889C7   		movq	%rax, %rdi
 1547 079c E8000000 		call	_ZN8UnitTest11TestDetailsC1ERKS0_i
 1547      00
 1548              		.loc 6 52 0 discriminator 4
 1549 07a1 E8000000 		call	_ZN8UnitTest11CurrentTest7ResultsEv
 1549      00
 1550 07a6 488B00   		movq	(%rax), %rax
 1551 07a9 488D8D90 		leaq	-2160(%rbp), %rcx
 1551      F7FFFF
 1552 07b0 BA000000 		movl	$.LC20, %edx
 1552      00
 1553 07b5 4889CE   		movq	%rcx, %rsi
 1554 07b8 4889C7   		movq	%rax, %rdi
 1555 07bb E8000000 		call	_ZN8UnitTest11TestResults13OnTestFailureERKNS_11TestDetailsEPKc
 1555      00
 1556              	.LEHE27:
 1557              	.L63:
 1558              		.loc 6 52 0 discriminator 9
 1559 07c0 488D85B0 		leaq	-2128(%rbp), %rax
 1559      F7FFFF
 1560 07c7 4889C7   		movq	%rax, %rdi
 1561              	.LEHB28:
 1562 07ca E8000000 		call	_ZN17RecordingReporterD1Ev
 1562      00
 1563              	.LEHE28:
 1564              	.LBE28:
  53:TestTestMacros.cpp **** }
 1565              		.loc 6 53 0 is_stmt 1 discriminator 9
 1566 07cf 488B45E8 		movq	-24(%rbp), %rax
 1567 07d3 64483304 		xorq	%fs:40, %rax
 1567      25280000 
 1567      00
 1568 07dc 0F845201 		je	.L72
 1568      0000
 1569 07e2 E9480100 		jmp	.L81
 1569      00
 1570              	.L74:
 1571 07e7 4889C3   		movq	%rax, %rbx
 1572              	.LBB31:
 1573              	.LBB30:
  47:TestTestMacros.cpp **** 	}
 1574              		.loc 6 47 0
 1575 07ea 488D8590 		leaq	-2160(%rbp), %rax
 1575      F7FFFF
 1576 07f1 4889C7   		movq	%rax, %rdi
 1577 07f4 E8000000 		call	_ZN17ScopedCurrentTestD1Ev
 1577      00
 1578 07f9 E9170100 		jmp	.L65
 1578      00
 1579              	.L76:
 1580 07fe 4889C3   		movq	%rax, %rbx
 1581              	.LBE30:
  50:TestTestMacros.cpp ****     CHECK(strstr(reporter.lastFailedMessage, "fixture"));
 1582              		.loc 6 50 0
 1583 0801 E8000000 		call	__cxa_end_catch
 1583      00
 1584 0806 E90A0100 		jmp	.L65
 1584      00
 1585              	.L75:
 1586 080b 4889C7   		movq	%rax, %rdi
 1587 080e E8000000 		call	__cxa_begin_catch
 1587      00
 1588              	.LEHB29:
 1589 0813 E8000000 		call	_ZN8UnitTest11CurrentTest7DetailsEv
 1589      00
 1590 0818 488B08   		movq	(%rax), %rcx
 1591 081b 488D8590 		leaq	-2160(%rbp), %rax
 1591      F7FFFF
 1592 0822 BA320000 		movl	$50, %edx
 1592      00
 1593 0827 4889CE   		movq	%rcx, %rsi
 1594 082a 4889C7   		movq	%rax, %rdi
 1595 082d E8000000 		call	_ZN8UnitTest11TestDetailsC1ERKS0_i
 1595      00
  50:TestTestMacros.cpp ****     CHECK(strstr(reporter.lastFailedMessage, "fixture"));
 1596              		.loc 6 50 0 is_stmt 0 discriminator 11
 1597 0832 E8000000 		call	_ZN8UnitTest11CurrentTest7ResultsEv
 1597      00
 1598 0837 488B00   		movq	(%rax), %rax
 1599 083a 488D8D90 		leaq	-2160(%rbp), %rcx
 1599      F7FFFF
 1600 0841 BA000000 		movl	$.LC21, %edx
 1600      00
 1601 0846 4889CE   		movq	%rcx, %rsi
 1602 0849 4889C7   		movq	%rax, %rdi
 1603 084c E8000000 		call	_ZN8UnitTest11TestResults13OnTestFailureERKNS_11TestDetailsEPKc
 1603      00
 1604              	.LEHE29:
 1605              	.LEHB30:
  50:TestTestMacros.cpp ****     CHECK(strstr(reporter.lastFailedMessage, "fixture"));
 1606              		.loc 6 50 0 discriminator 15
 1607 0851 E8000000 		call	__cxa_end_catch
 1607      00
 1608              	.LEHE30:
  50:TestTestMacros.cpp ****     CHECK(strstr(reporter.lastFailedMessage, "fixture"));
 1609              		.loc 6 50 0
 1610 0856 E997FEFF 		jmp	.L61
 1610      FF
 1611              	.L78:
 1612 085b 4889C3   		movq	%rax, %rbx
  51:TestTestMacros.cpp ****     CHECK(strstr(reporter.lastFailedMessage, "ThrowingThingie"));
 1613              		.loc 6 51 0 is_stmt 1
 1614 085e E8000000 		call	__cxa_end_catch
 1614      00
 1615 0863 E9AD0000 		jmp	.L65
 1615      00
 1616              	.L77:
 1617 0868 4889C7   		movq	%rax, %rdi
 1618 086b E8000000 		call	__cxa_begin_catch
 1618      00
 1619              	.LEHB31:
 1620 0870 E8000000 		call	_ZN8UnitTest11CurrentTest7DetailsEv
 1620      00
 1621 0875 488B08   		movq	(%rax), %rcx
 1622 0878 488D8590 		leaq	-2160(%rbp), %rax
 1622      F7FFFF
 1623 087f BA330000 		movl	$51, %edx
 1623      00
 1624 0884 4889CE   		movq	%rcx, %rsi
 1625 0887 4889C7   		movq	%rax, %rdi
 1626 088a E8000000 		call	_ZN8UnitTest11TestDetailsC1ERKS0_i
 1626      00
  51:TestTestMacros.cpp ****     CHECK(strstr(reporter.lastFailedMessage, "ThrowingThingie"));
 1627              		.loc 6 51 0 is_stmt 0 discriminator 11
 1628 088f E8000000 		call	_ZN8UnitTest11CurrentTest7ResultsEv
 1628      00
 1629 0894 488B00   		movq	(%rax), %rax
 1630 0897 488D8D90 		leaq	-2160(%rbp), %rcx
 1630      F7FFFF
 1631 089e BA000000 		movl	$.LC22, %edx
 1631      00
 1632 08a3 4889CE   		movq	%rcx, %rsi
 1633 08a6 4889C7   		movq	%rax, %rdi
 1634 08a9 E8000000 		call	_ZN8UnitTest11TestResults13OnTestFailureERKNS_11TestDetailsEPKc
 1634      00
 1635              	.LEHE31:
 1636              	.LEHB32:
  51:TestTestMacros.cpp ****     CHECK(strstr(reporter.lastFailedMessage, "ThrowingThingie"));
 1637              		.loc 6 51 0 discriminator 15
 1638 08ae E8000000 		call	__cxa_end_catch
 1638      00
 1639              	.LEHE32:
  51:TestTestMacros.cpp ****     CHECK(strstr(reporter.lastFailedMessage, "ThrowingThingie"));
 1640              		.loc 6 51 0
 1641 08b3 E9A1FEFF 		jmp	.L62
 1641      FF
 1642              	.L80:
 1643 08b8 4889C3   		movq	%rax, %rbx
  52:TestTestMacros.cpp **** }
 1644              		.loc 6 52 0 is_stmt 1
 1645 08bb E8000000 		call	__cxa_end_catch
 1645      00
 1646 08c0 EB53     		jmp	.L65
 1647              	.L79:
 1648 08c2 4889C7   		movq	%rax, %rdi
 1649 08c5 E8000000 		call	__cxa_begin_catch
 1649      00
 1650              	.LEHB33:
 1651 08ca E8000000 		call	_ZN8UnitTest11CurrentTest7DetailsEv
 1651      00
 1652 08cf 488B08   		movq	(%rax), %rcx
 1653 08d2 488D8590 		leaq	-2160(%rbp), %rax
 1653      F7FFFF
 1654 08d9 BA340000 		movl	$52, %edx
 1654      00
 1655 08de 4889CE   		movq	%rcx, %rsi
 1656 08e1 4889C7   		movq	%rax, %rdi
 1657 08e4 E8000000 		call	_ZN8UnitTest11TestDetailsC1ERKS0_i
 1657      00
  52:TestTestMacros.cpp **** }
 1658              		.loc 6 52 0 is_stmt 0 discriminator 13
 1659 08e9 E8000000 		call	_ZN8UnitTest11CurrentTest7ResultsEv
 1659      00
 1660 08ee 488B00   		movq	(%rax), %rax
 1661 08f1 488D8D90 		leaq	-2160(%rbp), %rcx
 1661      F7FFFF
 1662 08f8 BA000000 		movl	$.LC23, %edx
 1662      00
 1663 08fd 4889CE   		movq	%rcx, %rsi
 1664 0900 4889C7   		movq	%rax, %rdi
 1665 0903 E8000000 		call	_ZN8UnitTest11TestResults13OnTestFailureERKNS_11TestDetailsEPKc
 1665      00
 1666              	.LEHE33:
 1667              	.LEHB34:
  52:TestTestMacros.cpp **** }
 1668              		.loc 6 52 0 discriminator 17
 1669 0908 E8000000 		call	__cxa_end_catch
 1669      00
 1670              	.LEHE34:
  52:TestTestMacros.cpp **** }
 1671              		.loc 6 52 0
 1672 090d E9AEFEFF 		jmp	.L63
 1672      FF
 1673              	.L73:
 1674 0912 4889C3   		movq	%rax, %rbx
 1675              	.L65:
  52:TestTestMacros.cpp **** }
 1676              		.loc 6 52 0 discriminator 18
 1677 0915 488D85B0 		leaq	-2128(%rbp), %rax
 1677      F7FFFF
 1678 091c 4889C7   		movq	%rax, %rdi
 1679 091f E8000000 		call	_ZN17RecordingReporterD1Ev
 1679      00
 1680 0924 4889D8   		movq	%rbx, %rax
 1681 0927 4889C7   		movq	%rax, %rdi
 1682              	.LEHB35:
 1683 092a E8000000 		call	_Unwind_Resume
 1683      00
 1684              	.LEHE35:
 1685              	.L81:
 1686              	.LBE31:
 1687              		.loc 6 53 0 is_stmt 1
 1688 092f E8000000 		call	__stack_chk_fail
 1688      00
 1689              	.L72:
 1690 0934 4881C498 		addq	$2200, %rsp
 1690      080000
 1691 093b 5B       		popq	%rbx
 1692 093c 5D       		popq	%rbp
 1693              		.cfi_def_cfa 7, 8
 1694 093d C3       		ret
 1695              		.cfi_endproc
 1696              	.LFE1106:
 1697              		.section	.gcc_except_table
 1698              		.align 4
 1699              	.LLSDA1106:
 1700 0088 FF       		.byte	0xff
 1701 0089 03       		.byte	0x3
 1702 008a 59       		.uleb128 .LLSDATT1106-.LLSDATTD1106
 1703              	.LLSDATTD1106:
 1704 008b 01       		.byte	0x1
 1705 008c 50       		.uleb128 .LLSDACSE1106-.LLSDACSB1106
 1706              	.LLSDACSB1106:
 1707 008d 45       		.uleb128 .LEHB22-.LFB1106
 1708 008e 23       		.uleb128 .LEHE22-.LEHB22
 1709 008f 9006     		.uleb128 .L73-.LFB1106
 1710 0091 00       		.uleb128 0
 1711 0092 6D       		.uleb128 .LEHB23-.LFB1106
 1712 0093 0D       		.uleb128 .LEHE23-.LEHB23
 1713 0094 E503     		.uleb128 .L74-.LFB1106
 1714 0096 00       		.uleb128 0
 1715 0097 8401     		.uleb128 .LEHB24-.LFB1106
 1716 0099 05       		.uleb128 .LEHE24-.LEHB24
 1717 009a 9006     		.uleb128 .L73-.LFB1106
 1718 009c 00       		.uleb128 0
 1719 009d B201     		.uleb128 .LEHB25-.LFB1106
 1720 009f 3E       		.uleb128 .LEHE25-.LEHB25
 1721 00a0 8904     		.uleb128 .L75-.LFB1106
 1722 00a2 01       		.uleb128 0x1
 1723 00a3 9902     		.uleb128 .LEHB26-.LFB1106
 1724 00a5 3E       		.uleb128 .LEHE26-.LEHB26
 1725 00a6 E604     		.uleb128 .L77-.LFB1106
 1726 00a8 01       		.uleb128 0x1
 1727 00a9 8003     		.uleb128 .LEHB27-.LFB1106
 1728 00ab 3E       		.uleb128 .LEHE27-.LEHB27
 1729 00ac C005     		.uleb128 .L79-.LFB1106
 1730 00ae 01       		.uleb128 0x1
 1731 00af C803     		.uleb128 .LEHB28-.LFB1106
 1732 00b1 05       		.uleb128 .LEHE28-.LEHB28
 1733 00b2 00       		.uleb128 0
 1734 00b3 00       		.uleb128 0
 1735 00b4 9104     		.uleb128 .LEHB29-.LFB1106
 1736 00b6 3E       		.uleb128 .LEHE29-.LEHB29
 1737 00b7 FC03     		.uleb128 .L76-.LFB1106
 1738 00b9 00       		.uleb128 0
 1739 00ba CF04     		.uleb128 .LEHB30-.LFB1106
 1740 00bc 05       		.uleb128 .LEHE30-.LEHB30
 1741 00bd 9006     		.uleb128 .L73-.LFB1106
 1742 00bf 00       		.uleb128 0
 1743 00c0 EE04     		.uleb128 .LEHB31-.LFB1106
 1744 00c2 3E       		.uleb128 .LEHE31-.LEHB31
 1745 00c3 D904     		.uleb128 .L78-.LFB1106
 1746 00c5 00       		.uleb128 0
 1747 00c6 AC05     		.uleb128 .LEHB32-.LFB1106
 1748 00c8 05       		.uleb128 .LEHE32-.LEHB32
 1749 00c9 9006     		.uleb128 .L73-.LFB1106
 1750 00cb 00       		.uleb128 0
 1751 00cc C805     		.uleb128 .LEHB33-.LFB1106
 1752 00ce 3E       		.uleb128 .LEHE33-.LEHB33
 1753 00cf B605     		.uleb128 .L80-.LFB1106
 1754 00d1 00       		.uleb128 0
 1755 00d2 8606     		.uleb128 .LEHB34-.LFB1106
 1756 00d4 05       		.uleb128 .LEHE34-.LEHB34
 1757 00d5 9006     		.uleb128 .L73-.LFB1106
 1758 00d7 00       		.uleb128 0
 1759 00d8 A806     		.uleb128 .LEHB35-.LFB1106
 1760 00da 05       		.uleb128 .LEHE35-.LEHB35
 1761 00db 00       		.uleb128 0
 1762 00dc 00       		.uleb128 0
 1763              	.LLSDACSE1106:
 1764 00dd 01       		.byte	0x1
 1765 00de 00       		.byte	0
 1766 00df 00       		.align 4
 1767 00e0 00000000 		.long	0
 1768              	
 1769              	.LLSDATT1106:
 1770              		.text
 1772              		.section	.rodata
 1773              	.LC24:
 1774 038c 54657374 		.string	"TestSuite1"
 1774      53756974 
 1774      653100
 1775              		.text
 1777              	_ZN12_GLOBAL__N_115SuiteTestSuite113UnitTestSuite12GetSuiteNameEv:
 1778              	.LFB1107:
  54:TestTestMacros.cpp **** 
  55:TestTestMacros.cpp **** struct DummyFixture
  56:TestTestMacros.cpp **** {
  57:TestTestMacros.cpp ****     int x;
  58:TestTestMacros.cpp **** };
  59:TestTestMacros.cpp **** 
  60:TestTestMacros.cpp **** // We're really testing the macros so we just want them to compile and link
  61:TestTestMacros.cpp **** SUITE(TestSuite1)
 1779              		.loc 6 61 0
 1780              		.cfi_startproc
 1781 093e 55       		pushq	%rbp
 1782              		.cfi_def_cfa_offset 16
 1783              		.cfi_offset 6, -16
 1784 093f 4889E5   		movq	%rsp, %rbp
 1785              		.cfi_def_cfa_register 6
 1786              		.loc 6 61 0
 1787 0942 B8000000 		movl	$.LC24, %eax
 1787      00
 1788 0947 5D       		popq	%rbp
 1789              		.cfi_def_cfa 7, 8
 1790 0948 C3       		ret
 1791              		.cfi_endproc
 1792              	.LFE1107:
 1794              		.section	.rodata
 1795 0397 00       		.align 8
 1796              	.LC25:
 1797 0398 53696D69 		.string	"SimilarlyNamedTestsInDifferentSuitesWork"
 1797      6C61726C 
 1797      794E616D 
 1797      65645465 
 1797      73747349 
 1798              		.text
 1799 0949 90       		.align 2
 1801              	_ZN12_GLOBAL__N_115SuiteTestSuite144TestSimilarlyNamedTestsInDifferentSuitesWorkC2Ev:
 1802              	.LFB1109:
  62:TestTestMacros.cpp **** {
  63:TestTestMacros.cpp **** 	TEST(SimilarlyNamedTestsInDifferentSuitesWork)
 1803              		.loc 6 63 0
 1804              		.cfi_startproc
 1805 094a 55       		pushq	%rbp
 1806              		.cfi_def_cfa_offset 16
 1807              		.cfi_offset 6, -16
 1808 094b 4889E5   		movq	%rsp, %rbp
 1809              		.cfi_def_cfa_register 6
 1810 094e 4883EC10 		subq	$16, %rsp
 1811 0952 48897DF8 		movq	%rdi, -8(%rbp)
 1812              	.LBB32:
 1813              		.loc 6 63 0
 1814 0956 E8E3FFFF 		call	_ZN12_GLOBAL__N_115SuiteTestSuite113UnitTestSuite12GetSuiteNameEv
 1814      FF
 1815 095b 4889C2   		movq	%rax, %rdx
 1816 095e 488B45F8 		movq	-8(%rbp), %rax
 1817 0962 41B83F00 		movl	$63, %r8d
 1817      0000
 1818 0968 B9000000 		movl	$.LC2, %ecx
 1818      00
 1819 096d BE000000 		movl	$.LC25, %esi
 1819      00
 1820 0972 4889C7   		movq	%rax, %rdi
 1821 0975 E8000000 		call	_ZN8UnitTest4TestC2EPKcS2_S2_i
 1821      00
 1822 097a 488B45F8 		movq	-8(%rbp), %rax
 1823 097e 48C70000 		movq	$_ZTVN12_GLOBAL__N_115SuiteTestSuite144TestSimilarlyNamedTestsInDifferentSuitesWorkE+16, (%ra
 1823      000000
 1824              	.LBE32:
 1825 0985 C9       		leave
 1826              		.cfi_def_cfa 7, 8
 1827 0986 C3       		ret
 1828              		.cfi_endproc
 1829              	.LFE1109:
 1831              		.local	_ZN12_GLOBAL__N_115SuiteTestSuite152testSimilarlyNamedTestsInDifferentSuitesWorkInstanceE
 1832              		.comm	_ZN12_GLOBAL__N_115SuiteTestSuite152testSimilarlyNamedTestsInDifferentSuitesWorkInstanceE,56
 1833              		.local	_ZN12_GLOBAL__N_115SuiteTestSuite145adderSimilarlyNamedTestsInDifferentSuitesWorkE
 1834              		.comm	_ZN12_GLOBAL__N_115SuiteTestSuite145adderSimilarlyNamedTestsInDifferentSuitesWorkE,1,1
 1835 0987 90       		.align 2
 1837              	_ZNK12_GLOBAL__N_115SuiteTestSuite144TestSimilarlyNamedTestsInDifferentSuitesWork7RunImplEv:
 1838              	.LFB1111:
  64:TestTestMacros.cpp **** 	{
 1839              		.loc 6 64 0
 1840              		.cfi_startproc
 1841 0988 55       		pushq	%rbp
 1842              		.cfi_def_cfa_offset 16
 1843              		.cfi_offset 6, -16
 1844 0989 4889E5   		movq	%rsp, %rbp
 1845              		.cfi_def_cfa_register 6
 1846 098c 48897DF8 		movq	%rdi, -8(%rbp)
  65:TestTestMacros.cpp **** 	}
 1847              		.loc 6 65 0
 1848 0990 5D       		popq	%rbp
 1849              		.cfi_def_cfa 7, 8
 1850 0991 C3       		ret
 1851              		.cfi_endproc
 1852              	.LFE1111:
 1854              		.align 2
 1856              	_ZN12_GLOBAL__N_112DummyFixtureC2Ev:
 1857              	.LFB1114:
  55:TestTestMacros.cpp **** {
 1858              		.loc 6 55 0
 1859              		.cfi_startproc
 1860 0992 55       		pushq	%rbp
 1861              		.cfi_def_cfa_offset 16
 1862              		.cfi_offset 6, -16
 1863 0993 4889E5   		movq	%rsp, %rbp
 1864              		.cfi_def_cfa_register 6
 1865 0996 48897DF8 		movq	%rdi, -8(%rbp)
  55:TestTestMacros.cpp **** {
 1866              		.loc 6 55 0
 1867 099a 5D       		popq	%rbp
 1868              		.cfi_def_cfa 7, 8
 1869 099b C3       		ret
 1870              		.cfi_endproc
 1871              	.LFE1114:
 1873              		.align 2
 1875              	_ZN12_GLOBAL__N_115SuiteTestSuite165DummyFixtureSimilarlyNamedFixtureTestsInDifferentSuitesWorkHelp
 1876              	.LFB1116:
  66:TestTestMacros.cpp **** 
  67:TestTestMacros.cpp **** 	TEST_FIXTURE(DummyFixture, SimilarlyNamedFixtureTestsInDifferentSuitesWork)
 1877              		.loc 6 67 0
 1878              		.cfi_startproc
 1879 099c 55       		pushq	%rbp
 1880              		.cfi_def_cfa_offset 16
 1881              		.cfi_offset 6, -16
 1882 099d 4889E5   		movq	%rsp, %rbp
 1883              		.cfi_def_cfa_register 6
 1884 09a0 4883EC10 		subq	$16, %rsp
 1885 09a4 48897DF8 		movq	%rdi, -8(%rbp)
 1886 09a8 488975F0 		movq	%rsi, -16(%rbp)
 1887              	.LBB33:
 1888              		.loc 6 67 0
 1889 09ac 488B45F8 		movq	-8(%rbp), %rax
 1890 09b0 4889C7   		movq	%rax, %rdi
 1891 09b3 E8DAFFFF 		call	_ZN12_GLOBAL__N_112DummyFixtureC2Ev
 1891      FF
 1892 09b8 488B45F8 		movq	-8(%rbp), %rax
 1893 09bc 488B55F0 		movq	-16(%rbp), %rdx
 1894 09c0 48895008 		movq	%rdx, 8(%rax)
 1895              	.LBE33:
 1896 09c4 C9       		leave
 1897              		.cfi_def_cfa 7, 8
 1898 09c5 C3       		ret
 1899              		.cfi_endproc
 1900              	.LFE1116:
 1902              		.section	.rodata
 1903 03c1 00000000 		.align 8
 1903      000000
 1904              	.LC26:
 1905 03c8 53696D69 		.string	"SimilarlyNamedFixtureTestsInDifferentSuitesWork"
 1905      6C61726C 
 1905      794E616D 
 1905      65644669 
 1905      78747572 
 1906              		.text
 1907              		.align 2
 1909              	_ZN12_GLOBAL__N_115SuiteTestSuite163TestDummyFixtureSimilarlyNamedFixtureTestsInDifferentSuitesWork
 1910              	.LFB1119:
 1911              		.loc 6 67 0
 1912              		.cfi_startproc
 1913 09c6 55       		pushq	%rbp
 1914              		.cfi_def_cfa_offset 16
 1915              		.cfi_offset 6, -16
 1916 09c7 4889E5   		movq	%rsp, %rbp
 1917              		.cfi_def_cfa_register 6
 1918 09ca 4883EC10 		subq	$16, %rsp
 1919 09ce 48897DF8 		movq	%rdi, -8(%rbp)
 1920              	.LBB34:
 1921              		.loc 6 67 0
 1922 09d2 E867FFFF 		call	_ZN12_GLOBAL__N_115SuiteTestSuite113UnitTestSuite12GetSuiteNameEv
 1922      FF
 1923 09d7 4889C2   		movq	%rax, %rdx
 1924 09da 488B45F8 		movq	-8(%rbp), %rax
 1925 09de 41B84300 		movl	$67, %r8d
 1925      0000
 1926 09e4 B9000000 		movl	$.LC2, %ecx
 1926      00
 1927 09e9 BE000000 		movl	$.LC26, %esi
 1927      00
 1928 09ee 4889C7   		movq	%rax, %rdi
 1929 09f1 E8000000 		call	_ZN8UnitTest4TestC2EPKcS2_S2_i
 1929      00
 1930 09f6 488B45F8 		movq	-8(%rbp), %rax
 1931 09fa 48C70000 		movq	$_ZTVN12_GLOBAL__N_115SuiteTestSuite163TestDummyFixtureSimilarlyNamedFixtureTestsInDifferentS
 1931      000000
 1932              	.LBE34:
 1933 0a01 C9       		leave
 1934              		.cfi_def_cfa 7, 8
 1935 0a02 C3       		ret
 1936              		.cfi_endproc
 1937              	.LFE1119:
 1939              		.local	_ZN12_GLOBAL__N_115SuiteTestSuite171testDummyFixtureSimilarlyNamedFixtureTestsInDifferentSu
 1940              		.comm	_ZN12_GLOBAL__N_115SuiteTestSuite171testDummyFixtureSimilarlyNamedFixtureTestsInDifferentSui
 1941              		.local	_ZN12_GLOBAL__N_115SuiteTestSuite164adderDummyFixtureSimilarlyNamedFixtureTestsInDifferentS
 1942              		.comm	_ZN12_GLOBAL__N_115SuiteTestSuite164adderDummyFixtureSimilarlyNamedFixtureTestsInDifferentSu
 1943              		.section	.rodata
 1944              		.align 8
 1945              	.LC27:
 1946 03f8 556E6861 		.string	"Unhandled exception while destroying fixture DummyFixture"
 1946      6E646C65 
 1946      64206578 
 1946      63657074 
 1946      696F6E20 
 1947 0432 00000000 		.align 8
 1947      0000
 1948              	.LC28:
 1949 0438 556E6861 		.string	"Unhandled exception while constructing fixture DummyFixture"
 1949      6E646C65 
 1949      64206578 
 1949      63657074 
 1949      696F6E20 
 1950              		.text
 1951 0a03 90       		.align 2
 1953              	_ZNK12_GLOBAL__N_115SuiteTestSuite163TestDummyFixtureSimilarlyNamedFixtureTestsInDifferentSuitesWor
 1954              	.LFB1121:
 1955              		.loc 6 67 0
 1956              		.cfi_startproc
 1957              		.cfi_personality 0x3,__gxx_personality_v0
 1958              		.cfi_lsda 0x3,.LLSDA1121
 1959 0a04 55       		pushq	%rbp
 1960              		.cfi_def_cfa_offset 16
 1961              		.cfi_offset 6, -16
 1962 0a05 4889E5   		movq	%rsp, %rbp
 1963              		.cfi_def_cfa_register 6
 1964 0a08 4154     		pushq	%r12
 1965 0a0a 53       		pushq	%rbx
 1966 0a0b 4881ECC0 		subq	$448, %rsp
 1966      010000
 1967              		.cfi_offset 12, -24
 1968              		.cfi_offset 3, -32
 1969 0a12 4889BD38 		movq	%rdi, -456(%rbp)
 1969      FEFFFF
 1970              		.loc 6 67 0
 1971 0a19 64488B04 		movq	%fs:40, %rax
 1971      25280000 
 1971      00
 1972 0a22 488945E8 		movq	%rax, -24(%rbp)
 1973 0a26 31C0     		xorl	%eax, %eax
 1974              	.LBB35:
 1975 0a28 C6854FFE 		movb	$0, -433(%rbp)
 1975      FFFF00
 1976              	.LBB36:
 1977 0a2f 488B8538 		movq	-456(%rbp), %rax
 1977      FEFFFF
 1978 0a36 488D5008 		leaq	8(%rax), %rdx
 1979 0a3a 488D8560 		leaq	-416(%rbp), %rax
 1979      FEFFFF
 1980 0a41 4889D6   		movq	%rdx, %rsi
 1981 0a44 4889C7   		movq	%rax, %rdi
 1982 0a47 E850FFFF 		call	_ZN12_GLOBAL__N_115SuiteTestSuite165DummyFixtureSimilarlyNamedFixtureTestsInDifferentSuitesWo
 1982      FF
 1983 0a4c C6854FFE 		movb	$1, -433(%rbp)
 1983      FFFF01
 1984 0a53 488B8538 		movq	-456(%rbp), %rax
 1984      FEFFFF
 1985 0a5a 488D5008 		leaq	8(%rax), %rdx
 1986 0a5e 488D8560 		leaq	-416(%rbp), %rax
 1986      FEFFFF
 1987 0a65 4889D6   		movq	%rdx, %rsi
 1988 0a68 4889C7   		movq	%rax, %rdi
 1989              	.LEHB36:
 1990 0a6b E8412700 		call	_ZN8UnitTest11ExecuteTestIN12_GLOBAL__N_115SuiteTestSuite165DummyFixtureSimilarlyNamedFixture
 1990      00
 1991              	.LEHE36:
 1992              	.LBE36:
 1993              	.LBE35:
 1994 0a70 E9470200 		jmp	.L108
 1994      00
 1995              	.L103:
 1996 0a75 4889C3   		movq	%rax, %rbx
 1997              	.LBB43:
 1998              	.LBB37:
 1999 0a78 E8000000 		call	__cxa_end_catch
 1999      00
 2000 0a7d 4889D8   		movq	%rbx, %rax
 2001 0a80 4889C7   		movq	%rax, %rdi
 2002              	.LEHB37:
 2003 0a83 E8000000 		call	_Unwind_Resume
 2003      00
 2004              	.LEHE37:
 2005              	.L104:
 2006 0a88 4889C3   		movq	%rax, %rbx
 2007              	.LBE37:
 2008              	.LBB38:
 2009              	.LBB39:
 2010 0a8b 488D8580 		leaq	-384(%rbp), %rax
 2010      FEFFFF
 2011 0a92 4889C7   		movq	%rax, %rdi
 2012 0a95 E8000000 		call	_ZN8UnitTest15MemoryOutStreamD1Ev
 2012      00
 2013 0a9a EB03     		jmp	.L92
 2014              	.L105:
 2015 0a9c 4889C3   		movq	%rax, %rbx
 2016              	.L92:
 2017              	.LBE39:
 2018 0a9f E8000000 		call	__cxa_end_catch
 2018      00
 2019 0aa4 4889D8   		movq	%rbx, %rax
 2020 0aa7 4889C7   		movq	%rax, %rdi
 2021              	.LEHB38:
 2022 0aaa E8000000 		call	_Unwind_Resume
 2022      00
 2023              	.LEHE38:
 2024              	.L106:
 2025 0aaf 4889C3   		movq	%rax, %rbx
 2026              	.LBE38:
 2027 0ab2 E8000000 		call	__cxa_end_catch
 2027      00
 2028 0ab7 4889D8   		movq	%rbx, %rax
 2029 0aba 4889C7   		movq	%rax, %rdi
 2030              	.LEHB39:
 2031 0abd E8000000 		call	_Unwind_Resume
 2031      00
 2032              	.LEHE39:
 2033              	.L102:
 2034 0ac2 4883FA01 		cmpq	$1, %rdx
 2035 0ac6 740F     		je	.L96
 2036 0ac8 4883FA02 		cmpq	$2, %rdx
 2037 0acc 0F84A700 		je	.L97
 2037      0000
 2038 0ad2 E94B0100 		jmp	.L107
 2038      00
 2039              	.L96:
 2040              	.LBB41:
 2041 0ad7 4889C7   		movq	%rax, %rdi
 2042 0ada E8000000 		call	__cxa_begin_catch
 2042      00
 2043 0adf 48898550 		movq	%rax, -432(%rbp)
 2043      FEFFFF
 2044 0ae6 488B8550 		movq	-432(%rbp), %rax
 2044      FEFFFF
 2045 0aed 488B00   		movq	(%rax), %rax
 2046 0af0 4883C010 		addq	$16, %rax
 2047 0af4 488B00   		movq	(%rax), %rax
 2048 0af7 488B9550 		movq	-432(%rbp), %rdx
 2048      FEFFFF
 2049 0afe 4889D7   		movq	%rdx, %rdi
 2050 0b01 FFD0     		call	*%rax
 2051 0b03 4889C3   		movq	%rax, %rbx
 2052 0b06 488B8550 		movq	-432(%rbp), %rax
 2052      FEFFFF
 2053 0b0d 4889C7   		movq	%rax, %rdi
 2054              	.LEHB40:
 2055 0b10 E8000000 		call	_ZNK8UnitTest15AssertException10LineNumberEv
 2055      00
 2056 0b15 4189C4   		movl	%eax, %r12d
 2057 0b18 488B8550 		movq	-432(%rbp), %rax
 2057      FEFFFF
 2058 0b1f 4889C7   		movq	%rax, %rdi
 2059 0b22 E8000000 		call	_ZNK8UnitTest15AssertException8FilenameEv
 2059      00
 2060              		.loc 6 67 0 is_stmt 0 discriminator 2
 2061 0b27 4889C1   		movq	%rax, %rcx
 2062 0b2a 488B8538 		movq	-456(%rbp), %rax
 2062      FEFFFF
 2063 0b31 488B5008 		movq	8(%rax), %rdx
 2064 0b35 488B8538 		movq	-456(%rbp), %rax
 2064      FEFFFF
 2065 0b3c 488B7010 		movq	16(%rax), %rsi
 2066 0b40 488D8560 		leaq	-416(%rbp), %rax
 2066      FEFFFF
 2067 0b47 4589E0   		movl	%r12d, %r8d
 2068 0b4a 4889C7   		movq	%rax, %rdi
 2069 0b4d E8000000 		call	_ZN8UnitTest11TestDetailsC1EPKcS2_S2_i
 2069      00
 2070              		.loc 6 67 0 discriminator 6
 2071 0b52 E8000000 		call	_ZN8UnitTest11CurrentTest7ResultsEv
 2071      00
 2072 0b57 488B00   		movq	(%rax), %rax
 2073 0b5a 488D8D60 		leaq	-416(%rbp), %rcx
 2073      FEFFFF
 2074 0b61 4889DA   		movq	%rbx, %rdx
 2075 0b64 4889CE   		movq	%rcx, %rsi
 2076 0b67 4889C7   		movq	%rax, %rdi
 2077 0b6a E8000000 		call	_ZN8UnitTest11TestResults13OnTestFailureERKNS_11TestDetailsEPKc
 2077      00
 2078              	.LEHE40:
 2079              		.loc 6 67 0 discriminator 10
 2080 0b6f E8000000 		call	__cxa_end_catch
 2080      00
 2081              	.LBE41:
 2082              	.LBE43:
 2083 0b74 E9430100 		jmp	.L108
 2083      00
 2084              	.L97:
 2085              	.LBB44:
 2086              	.LBB42:
 2087              		.loc 6 67 0
 2088 0b79 4889C7   		movq	%rax, %rdi
 2089 0b7c E8000000 		call	__cxa_begin_catch
 2089      00
 2090 0b81 48898558 		movq	%rax, -424(%rbp)
 2090      FEFFFF
 2091              	.LBB40:
 2092 0b88 488D8580 		leaq	-384(%rbp), %rax
 2092      FEFFFF
 2093 0b8f 4889C7   		movq	%rax, %rdi
 2094              	.LEHB41:
 2095 0b92 E8000000 		call	_ZN8UnitTest15MemoryOutStreamC1Ev
 2095      00
 2096              	.LEHE41:
 2097              		.loc 6 67 0 discriminator 12
 2098 0b97 488B8558 		movq	-424(%rbp), %rax
 2098      FEFFFF
 2099 0b9e 488B00   		movq	(%rax), %rax
 2100 0ba1 4883C010 		addq	$16, %rax
 2101 0ba5 488B00   		movq	(%rax), %rax
 2102 0ba8 488B9558 		movq	-424(%rbp), %rdx
 2102      FEFFFF
 2103 0baf 4889D7   		movq	%rdx, %rdi
 2104 0bb2 FFD0     		call	*%rax
 2105 0bb4 4889C3   		movq	%rax, %rbx
 2106 0bb7 488D8580 		leaq	-384(%rbp), %rax
 2106      FEFFFF
 2107 0bbe BE000000 		movl	$.LC11, %esi
 2107      00
 2108 0bc3 4889C7   		movq	%rax, %rdi
 2109              	.LEHB42:
 2110 0bc6 E8000000 		call	_ZStlsISt11char_traitsIcEERSt13basic_ostreamIcT_ES5_PKc
 2110      00
 2111 0bcb 4889DE   		movq	%rbx, %rsi
 2112 0bce 4889C7   		movq	%rax, %rdi
 2113 0bd1 E8000000 		call	_ZStlsISt11char_traitsIcEERSt13basic_ostreamIcT_ES5_PKc
 2113      00
 2114              		.loc 6 67 0 discriminator 16
 2115 0bd6 488D8580 		leaq	-384(%rbp), %rax
 2115      FEFFFF
 2116 0bdd 4889C7   		movq	%rax, %rdi
 2117 0be0 E8000000 		call	_ZNK8UnitTest15MemoryOutStream7GetTextEv
 2117      00
 2118 0be5 4989C4   		movq	%rax, %r12
 2119 0be8 488B8538 		movq	-456(%rbp), %rax
 2119      FEFFFF
 2120 0bef 488D5808 		leaq	8(%rax), %rbx
 2121 0bf3 E8000000 		call	_ZN8UnitTest11CurrentTest7ResultsEv
 2121      00
 2122              		.loc 6 67 0 discriminator 18
 2123 0bf8 488B00   		movq	(%rax), %rax
 2124 0bfb 4C89E2   		movq	%r12, %rdx
 2125 0bfe 4889DE   		movq	%rbx, %rsi
 2126 0c01 4889C7   		movq	%rax, %rdi
 2127 0c04 E8000000 		call	_ZN8UnitTest11TestResults13OnTestFailureERKNS_11TestDetailsEPKc
 2127      00
 2128              	.LEHE42:
 2129              		.loc 6 67 0 discriminator 22
 2130 0c09 488D8580 		leaq	-384(%rbp), %rax
 2130      FEFFFF
 2131 0c10 4889C7   		movq	%rax, %rdi
 2132              	.LEHB43:
 2133 0c13 E8000000 		call	_ZN8UnitTest15MemoryOutStreamD1Ev
 2133      00
 2134              	.LEHE43:
 2135              	.LBE40:
 2136              		.loc 6 67 0 discriminator 23
 2137 0c18 E8000000 		call	__cxa_end_catch
 2137      00
 2138              	.LBE42:
 2139              	.LBE44:
 2140 0c1d E99A0000 		jmp	.L108
 2140      00
 2141              	.L107:
 2142              	.LBB45:
 2143              		.loc 6 67 0
 2144 0c22 4889C7   		movq	%rax, %rdi
 2145 0c25 E8000000 		call	__cxa_begin_catch
 2145      00
 2146 0c2a 80BD4FFE 		cmpb	$0, -433(%rbp)
 2146      FFFF00
 2147 0c31 7443     		je	.L99
 2148              		.loc 6 67 0 discriminator 25
 2149 0c33 488B8538 		movq	-456(%rbp), %rax
 2149      FEFFFF
 2150 0c3a 488D4808 		leaq	8(%rax), %rcx
 2151 0c3e 488D8560 		leaq	-416(%rbp), %rax
 2151      FEFFFF
 2152 0c45 BA430000 		movl	$67, %edx
 2152      00
 2153 0c4a 4889CE   		movq	%rcx, %rsi
 2154 0c4d 4889C7   		movq	%rax, %rdi
 2155              	.LEHB44:
 2156 0c50 E8000000 		call	_ZN8UnitTest11TestDetailsC1ERKS0_i
 2156      00
 2157              		.loc 6 67 0 discriminator 28
 2158 0c55 E8000000 		call	_ZN8UnitTest11CurrentTest7ResultsEv
 2158      00
 2159 0c5a 488B00   		movq	(%rax), %rax
 2160 0c5d 488D8D60 		leaq	-416(%rbp), %rcx
 2160      FEFFFF
 2161 0c64 BA000000 		movl	$.LC27, %edx
 2161      00
 2162 0c69 4889CE   		movq	%rcx, %rsi
 2163 0c6c 4889C7   		movq	%rax, %rdi
 2164 0c6f E8000000 		call	_ZN8UnitTest11TestResults13OnTestFailureERKNS_11TestDetailsEPKc
 2164      00
 2165 0c74 EB41     		jmp	.L100
 2166              	.L99:
 2167              		.loc 6 67 0 discriminator 26
 2168 0c76 488B8538 		movq	-456(%rbp), %rax
 2168      FEFFFF
 2169 0c7d 488D4808 		leaq	8(%rax), %rcx
 2170 0c81 488D8560 		leaq	-416(%rbp), %rax
 2170      FEFFFF
 2171 0c88 BA430000 		movl	$67, %edx
 2171      00
 2172 0c8d 4889CE   		movq	%rcx, %rsi
 2173 0c90 4889C7   		movq	%rax, %rdi
 2174 0c93 E8000000 		call	_ZN8UnitTest11TestDetailsC1ERKS0_i
 2174      00
 2175              		.loc 6 67 0 discriminator 35
 2176 0c98 E8000000 		call	_ZN8UnitTest11CurrentTest7ResultsEv
 2176      00
 2177 0c9d 488B00   		movq	(%rax), %rax
 2178 0ca0 488D8D60 		leaq	-416(%rbp), %rcx
 2178      FEFFFF
 2179 0ca7 BA000000 		movl	$.LC28, %edx
 2179      00
 2180 0cac 4889CE   		movq	%rcx, %rsi
 2181 0caf 4889C7   		movq	%rax, %rdi
 2182 0cb2 E8000000 		call	_ZN8UnitTest11TestResults13OnTestFailureERKNS_11TestDetailsEPKc
 2182      00
 2183              	.LEHE44:
 2184              	.L100:
 2185              	.LEHB45:
 2186              		.loc 6 67 0 discriminator 40
 2187 0cb7 E8000000 		call	__cxa_end_catch
 2187      00
 2188              	.LEHE45:
 2189              	.L108:
 2190              	.LBE45:
 2191              		.loc 6 67 0
 2192 0cbc 90       		nop
 2193 0cbd 488B45E8 		movq	-24(%rbp), %rax
 2194 0cc1 64483304 		xorq	%fs:40, %rax
 2194      25280000 
 2194      00
 2195 0cca 7405     		je	.L101
 2196 0ccc E8000000 		call	__stack_chk_fail
 2196      00
 2197              	.L101:
 2198 0cd1 4881C4C0 		addq	$448, %rsp
 2198      010000
 2199 0cd8 5B       		popq	%rbx
 2200 0cd9 415C     		popq	%r12
 2201 0cdb 5D       		popq	%rbp
 2202              		.cfi_def_cfa 7, 8
 2203 0cdc C3       		ret
 2204              		.cfi_endproc
 2205              	.LFE1121:
 2206              		.section	.gcc_except_table
 2207              		.align 4
 2208              	.LLSDA1121:
 2209 00e4 FF       		.byte	0xff
 2210 00e5 03       		.byte	0x3
 2211 00e6 49       		.uleb128 .LLSDATT1121-.LLSDATTD1121
 2212              	.LLSDATTD1121:
 2213 00e7 01       		.byte	0x1
 2214 00e8 35       		.uleb128 .LLSDACSE1121-.LLSDACSB1121
 2215              	.LLSDACSB1121:
 2216 00e9 67       		.uleb128 .LEHB36-.LFB1121
 2217 00ea 05       		.uleb128 .LEHE36-.LEHB36
 2218 00eb BE01     		.uleb128 .L102-.LFB1121
 2219 00ed 05       		.uleb128 0x5
 2220 00ee 7F       		.uleb128 .LEHB37-.LFB1121
 2221 00ef 05       		.uleb128 .LEHE37-.LEHB37
 2222 00f0 00       		.uleb128 0
 2223 00f1 00       		.uleb128 0
 2224 00f2 A601     		.uleb128 .LEHB38-.LFB1121
 2225 00f4 05       		.uleb128 .LEHE38-.LEHB38
 2226 00f5 00       		.uleb128 0
 2227 00f6 00       		.uleb128 0
 2228 00f7 B901     		.uleb128 .LEHB39-.LFB1121
 2229 00f9 05       		.uleb128 .LEHE39-.LEHB39
 2230 00fa 00       		.uleb128 0
 2231 00fb 00       		.uleb128 0
 2232 00fc 8C02     		.uleb128 .LEHB40-.LFB1121
 2233 00fe 5F       		.uleb128 .LEHE40-.LEHB40
 2234 00ff 71       		.uleb128 .L103-.LFB1121
 2235 0100 00       		.uleb128 0
 2236 0101 8E03     		.uleb128 .LEHB41-.LFB1121
 2237 0103 05       		.uleb128 .LEHE41-.LEHB41
 2238 0104 9801     		.uleb128 .L105-.LFB1121
 2239 0106 00       		.uleb128 0
 2240 0107 C203     		.uleb128 .LEHB42-.LFB1121
 2241 0109 43       		.uleb128 .LEHE42-.LEHB42
 2242 010a 8401     		.uleb128 .L104-.LFB1121
 2243 010c 00       		.uleb128 0
 2244 010d 8F04     		.uleb128 .LEHB43-.LFB1121
 2245 010f 05       		.uleb128 .LEHE43-.LEHB43
 2246 0110 9801     		.uleb128 .L105-.LFB1121
 2247 0112 00       		.uleb128 0
 2248 0113 CC04     		.uleb128 .LEHB44-.LFB1121
 2249 0115 67       		.uleb128 .LEHE44-.LEHB44
 2250 0116 AB01     		.uleb128 .L106-.LFB1121
 2251 0118 00       		.uleb128 0
 2252 0119 B305     		.uleb128 .LEHB45-.LFB1121
 2253 011b 05       		.uleb128 .LEHE45-.LEHB45
 2254 011c 00       		.uleb128 0
 2255 011d 00       		.uleb128 0
 2256              	.LLSDACSE1121:
 2257 011e 03       		.byte	0x3
 2258 011f 00       		.byte	0
 2259 0120 02       		.byte	0x2
 2260 0121 7D       		.byte	0x7d
 2261 0122 01       		.byte	0x1
 2262 0123 7D       		.byte	0x7d
 2263              		.align 4
 2264 0124 00000000 		.long	0
 2265              	
 2266 0128 00000000 		.long	_ZTISt9exception
 2267 012c 00000000 		.long	_ZTIN8UnitTest15AssertExceptionE
 2268              	.LLSDATT1121:
 2269              		.text
 2271 0cdd 90       		.align 2
 2273              	_ZN12_GLOBAL__N_115SuiteTestSuite165DummyFixtureSimilarlyNamedFixtureTestsInDifferentSuitesWorkHelp
 2274              	.LFB1122:
  68:TestTestMacros.cpp **** 	{
 2275              		.loc 6 68 0 is_stmt 1
 2276              		.cfi_startproc
 2277 0cde 55       		pushq	%rbp
 2278              		.cfi_def_cfa_offset 16
 2279              		.cfi_offset 6, -16
 2280 0cdf 4889E5   		movq	%rsp, %rbp
 2281              		.cfi_def_cfa_register 6
 2282 0ce2 48897DF8 		movq	%rdi, -8(%rbp)
  69:TestTestMacros.cpp **** 	}
 2283              		.loc 6 69 0
 2284 0ce6 5D       		popq	%rbp
 2285              		.cfi_def_cfa 7, 8
 2286 0ce7 C3       		ret
 2287              		.cfi_endproc
 2288              	.LFE1122:
 2290              		.section	.rodata
 2291              	.LC29:
 2292 0474 54657374 		.string	"TestSuite2"
 2292      53756974 
 2292      653200
 2293              		.text
 2295              	_ZN12_GLOBAL__N_115SuiteTestSuite213UnitTestSuite12GetSuiteNameEv:
 2296              	.LFB1123:
  70:TestTestMacros.cpp **** }
  71:TestTestMacros.cpp **** 
  72:TestTestMacros.cpp **** SUITE(TestSuite2)
 2297              		.loc 6 72 0
 2298              		.cfi_startproc
 2299 0ce8 55       		pushq	%rbp
 2300              		.cfi_def_cfa_offset 16
 2301              		.cfi_offset 6, -16
 2302 0ce9 4889E5   		movq	%rsp, %rbp
 2303              		.cfi_def_cfa_register 6
 2304              		.loc 6 72 0
 2305 0cec B8000000 		movl	$.LC29, %eax
 2305      00
 2306 0cf1 5D       		popq	%rbp
 2307              		.cfi_def_cfa 7, 8
 2308 0cf2 C3       		ret
 2309              		.cfi_endproc
 2310              	.LFE1123:
 2312 0cf3 90       		.align 2
 2314              	_ZN12_GLOBAL__N_115SuiteTestSuite244TestSimilarlyNamedTestsInDifferentSuitesWorkC2Ev:
 2315              	.LFB1125:
  73:TestTestMacros.cpp **** {
  74:TestTestMacros.cpp **** 	TEST(SimilarlyNamedTestsInDifferentSuitesWork)
 2316              		.loc 6 74 0
 2317              		.cfi_startproc
 2318 0cf4 55       		pushq	%rbp
 2319              		.cfi_def_cfa_offset 16
 2320              		.cfi_offset 6, -16
 2321 0cf5 4889E5   		movq	%rsp, %rbp
 2322              		.cfi_def_cfa_register 6
 2323 0cf8 4883EC10 		subq	$16, %rsp
 2324 0cfc 48897DF8 		movq	%rdi, -8(%rbp)
 2325              	.LBB46:
 2326              		.loc 6 74 0
 2327 0d00 E8E3FFFF 		call	_ZN12_GLOBAL__N_115SuiteTestSuite213UnitTestSuite12GetSuiteNameEv
 2327      FF
 2328 0d05 4889C2   		movq	%rax, %rdx
 2329 0d08 488B45F8 		movq	-8(%rbp), %rax
 2330 0d0c 41B84A00 		movl	$74, %r8d
 2330      0000
 2331 0d12 B9000000 		movl	$.LC2, %ecx
 2331      00
 2332 0d17 BE000000 		movl	$.LC25, %esi
 2332      00
 2333 0d1c 4889C7   		movq	%rax, %rdi
 2334 0d1f E8000000 		call	_ZN8UnitTest4TestC2EPKcS2_S2_i
 2334      00
 2335 0d24 488B45F8 		movq	-8(%rbp), %rax
 2336 0d28 48C70000 		movq	$_ZTVN12_GLOBAL__N_115SuiteTestSuite244TestSimilarlyNamedTestsInDifferentSuitesWorkE+16, (%ra
 2336      000000
 2337              	.LBE46:
 2338 0d2f C9       		leave
 2339              		.cfi_def_cfa 7, 8
 2340 0d30 C3       		ret
 2341              		.cfi_endproc
 2342              	.LFE1125:
 2344              		.local	_ZN12_GLOBAL__N_115SuiteTestSuite252testSimilarlyNamedTestsInDifferentSuitesWorkInstanceE
 2345              		.comm	_ZN12_GLOBAL__N_115SuiteTestSuite252testSimilarlyNamedTestsInDifferentSuitesWorkInstanceE,56
 2346              		.local	_ZN12_GLOBAL__N_115SuiteTestSuite245adderSimilarlyNamedTestsInDifferentSuitesWorkE
 2347              		.comm	_ZN12_GLOBAL__N_115SuiteTestSuite245adderSimilarlyNamedTestsInDifferentSuitesWorkE,1,1
 2348 0d31 90       		.align 2
 2350              	_ZNK12_GLOBAL__N_115SuiteTestSuite244TestSimilarlyNamedTestsInDifferentSuitesWork7RunImplEv:
 2351              	.LFB1127:
  75:TestTestMacros.cpp **** 	{
 2352              		.loc 6 75 0
 2353              		.cfi_startproc
 2354 0d32 55       		pushq	%rbp
 2355              		.cfi_def_cfa_offset 16
 2356              		.cfi_offset 6, -16
 2357 0d33 4889E5   		movq	%rsp, %rbp
 2358              		.cfi_def_cfa_register 6
 2359 0d36 48897DF8 		movq	%rdi, -8(%rbp)
  76:TestTestMacros.cpp **** 	}
 2360              		.loc 6 76 0
 2361 0d3a 5D       		popq	%rbp
 2362              		.cfi_def_cfa 7, 8
 2363 0d3b C3       		ret
 2364              		.cfi_endproc
 2365              	.LFE1127:
 2367              		.align 2
 2369              	_ZN12_GLOBAL__N_115SuiteTestSuite265DummyFixtureSimilarlyNamedFixtureTestsInDifferentSuitesWorkHelp
 2370              	.LFB1129:
  77:TestTestMacros.cpp **** 
  78:TestTestMacros.cpp **** 	TEST_FIXTURE(DummyFixture,SimilarlyNamedFixtureTestsInDifferentSuitesWork)
 2371              		.loc 6 78 0
 2372              		.cfi_startproc
 2373 0d3c 55       		pushq	%rbp
 2374              		.cfi_def_cfa_offset 16
 2375              		.cfi_offset 6, -16
 2376 0d3d 4889E5   		movq	%rsp, %rbp
 2377              		.cfi_def_cfa_register 6
 2378 0d40 4883EC10 		subq	$16, %rsp
 2379 0d44 48897DF8 		movq	%rdi, -8(%rbp)
 2380 0d48 488975F0 		movq	%rsi, -16(%rbp)
 2381              	.LBB47:
 2382              		.loc 6 78 0
 2383 0d4c 488B45F8 		movq	-8(%rbp), %rax
 2384 0d50 4889C7   		movq	%rax, %rdi
 2385 0d53 E83AFCFF 		call	_ZN12_GLOBAL__N_112DummyFixtureC2Ev
 2385      FF
 2386 0d58 488B45F8 		movq	-8(%rbp), %rax
 2387 0d5c 488B55F0 		movq	-16(%rbp), %rdx
 2388 0d60 48895008 		movq	%rdx, 8(%rax)
 2389              	.LBE47:
 2390 0d64 C9       		leave
 2391              		.cfi_def_cfa 7, 8
 2392 0d65 C3       		ret
 2393              		.cfi_endproc
 2394              	.LFE1129:
 2396              		.align 2
 2398              	_ZN12_GLOBAL__N_115SuiteTestSuite263TestDummyFixtureSimilarlyNamedFixtureTestsInDifferentSuitesWork
 2399              	.LFB1132:
 2400              		.loc 6 78 0
 2401              		.cfi_startproc
 2402 0d66 55       		pushq	%rbp
 2403              		.cfi_def_cfa_offset 16
 2404              		.cfi_offset 6, -16
 2405 0d67 4889E5   		movq	%rsp, %rbp
 2406              		.cfi_def_cfa_register 6
 2407 0d6a 4883EC10 		subq	$16, %rsp
 2408 0d6e 48897DF8 		movq	%rdi, -8(%rbp)
 2409              	.LBB48:
 2410              		.loc 6 78 0
 2411 0d72 E871FFFF 		call	_ZN12_GLOBAL__N_115SuiteTestSuite213UnitTestSuite12GetSuiteNameEv
 2411      FF
 2412 0d77 4889C2   		movq	%rax, %rdx
 2413 0d7a 488B45F8 		movq	-8(%rbp), %rax
 2414 0d7e 41B84E00 		movl	$78, %r8d
 2414      0000
 2415 0d84 B9000000 		movl	$.LC2, %ecx
 2415      00
 2416 0d89 BE000000 		movl	$.LC26, %esi
 2416      00
 2417 0d8e 4889C7   		movq	%rax, %rdi
 2418 0d91 E8000000 		call	_ZN8UnitTest4TestC2EPKcS2_S2_i
 2418      00
 2419 0d96 488B45F8 		movq	-8(%rbp), %rax
 2420 0d9a 48C70000 		movq	$_ZTVN12_GLOBAL__N_115SuiteTestSuite263TestDummyFixtureSimilarlyNamedFixtureTestsInDifferentS
 2420      000000
 2421              	.LBE48:
 2422 0da1 C9       		leave
 2423              		.cfi_def_cfa 7, 8
 2424 0da2 C3       		ret
 2425              		.cfi_endproc
 2426              	.LFE1132:
 2428              		.local	_ZN12_GLOBAL__N_115SuiteTestSuite271testDummyFixtureSimilarlyNamedFixtureTestsInDifferentSu
 2429              		.comm	_ZN12_GLOBAL__N_115SuiteTestSuite271testDummyFixtureSimilarlyNamedFixtureTestsInDifferentSui
 2430              		.local	_ZN12_GLOBAL__N_115SuiteTestSuite264adderDummyFixtureSimilarlyNamedFixtureTestsInDifferentS
 2431              		.comm	_ZN12_GLOBAL__N_115SuiteTestSuite264adderDummyFixtureSimilarlyNamedFixtureTestsInDifferentSu
 2432 0da3 90       		.align 2
 2434              	_ZNK12_GLOBAL__N_115SuiteTestSuite263TestDummyFixtureSimilarlyNamedFixtureTestsInDifferentSuitesWor
 2435              	.LFB1134:
 2436              		.loc 6 78 0
 2437              		.cfi_startproc
 2438              		.cfi_personality 0x3,__gxx_personality_v0
 2439              		.cfi_lsda 0x3,.LLSDA1134
 2440 0da4 55       		pushq	%rbp
 2441              		.cfi_def_cfa_offset 16
 2442              		.cfi_offset 6, -16
 2443 0da5 4889E5   		movq	%rsp, %rbp
 2444              		.cfi_def_cfa_register 6
 2445 0da8 4154     		pushq	%r12
 2446 0daa 53       		pushq	%rbx
 2447 0dab 4881ECC0 		subq	$448, %rsp
 2447      010000
 2448              		.cfi_offset 12, -24
 2449              		.cfi_offset 3, -32
 2450 0db2 4889BD38 		movq	%rdi, -456(%rbp)
 2450      FEFFFF
 2451              		.loc 6 78 0
 2452 0db9 64488B04 		movq	%fs:40, %rax
 2452      25280000 
 2452      00
 2453 0dc2 488945E8 		movq	%rax, -24(%rbp)
 2454 0dc6 31C0     		xorl	%eax, %eax
 2455              	.LBB49:
 2456 0dc8 C6854FFE 		movb	$0, -433(%rbp)
 2456      FFFF00
 2457              	.LBB50:
 2458 0dcf 488B8538 		movq	-456(%rbp), %rax
 2458      FEFFFF
 2459 0dd6 488D5008 		leaq	8(%rax), %rdx
 2460 0dda 488D8560 		leaq	-416(%rbp), %rax
 2460      FEFFFF
 2461 0de1 4889D6   		movq	%rdx, %rsi
 2462 0de4 4889C7   		movq	%rax, %rdi
 2463 0de7 E850FFFF 		call	_ZN12_GLOBAL__N_115SuiteTestSuite265DummyFixtureSimilarlyNamedFixtureTestsInDifferentSuitesWo
 2463      FF
 2464 0dec C6854FFE 		movb	$1, -433(%rbp)
 2464      FFFF01
 2465 0df3 488B8538 		movq	-456(%rbp), %rax
 2465      FEFFFF
 2466 0dfa 488D5008 		leaq	8(%rax), %rdx
 2467 0dfe 488D8560 		leaq	-416(%rbp), %rax
 2467      FEFFFF
 2468 0e05 4889D6   		movq	%rdx, %rsi
 2469 0e08 4889C7   		movq	%rax, %rdi
 2470              	.LEHB46:
 2471 0e0b E85F2600 		call	_ZN8UnitTest11ExecuteTestIN12_GLOBAL__N_115SuiteTestSuite265DummyFixtureSimilarlyNamedFixture
 2471      00
 2472              	.LEHE46:
 2473              	.LBE50:
 2474              	.LBE49:
 2475 0e10 E9470200 		jmp	.L135
 2475      00
 2476              	.L130:
 2477 0e15 4889C3   		movq	%rax, %rbx
 2478              	.LBB57:
 2479              	.LBB51:
 2480 0e18 E8000000 		call	__cxa_end_catch
 2480      00
 2481 0e1d 4889D8   		movq	%rbx, %rax
 2482 0e20 4889C7   		movq	%rax, %rdi
 2483              	.LEHB47:
 2484 0e23 E8000000 		call	_Unwind_Resume
 2484      00
 2485              	.LEHE47:
 2486              	.L131:
 2487 0e28 4889C3   		movq	%rax, %rbx
 2488              	.LBE51:
 2489              	.LBB52:
 2490              	.LBB53:
 2491 0e2b 488D8580 		leaq	-384(%rbp), %rax
 2491      FEFFFF
 2492 0e32 4889C7   		movq	%rax, %rdi
 2493 0e35 E8000000 		call	_ZN8UnitTest15MemoryOutStreamD1Ev
 2493      00
 2494 0e3a EB03     		jmp	.L119
 2495              	.L132:
 2496 0e3c 4889C3   		movq	%rax, %rbx
 2497              	.L119:
 2498              	.LBE53:
 2499 0e3f E8000000 		call	__cxa_end_catch
 2499      00
 2500 0e44 4889D8   		movq	%rbx, %rax
 2501 0e47 4889C7   		movq	%rax, %rdi
 2502              	.LEHB48:
 2503 0e4a E8000000 		call	_Unwind_Resume
 2503      00
 2504              	.LEHE48:
 2505              	.L133:
 2506 0e4f 4889C3   		movq	%rax, %rbx
 2507              	.LBE52:
 2508 0e52 E8000000 		call	__cxa_end_catch
 2508      00
 2509 0e57 4889D8   		movq	%rbx, %rax
 2510 0e5a 4889C7   		movq	%rax, %rdi
 2511              	.LEHB49:
 2512 0e5d E8000000 		call	_Unwind_Resume
 2512      00
 2513              	.LEHE49:
 2514              	.L129:
 2515 0e62 4883FA01 		cmpq	$1, %rdx
 2516 0e66 740F     		je	.L123
 2517 0e68 4883FA02 		cmpq	$2, %rdx
 2518 0e6c 0F84A700 		je	.L124
 2518      0000
 2519 0e72 E94B0100 		jmp	.L134
 2519      00
 2520              	.L123:
 2521              	.LBB55:
 2522 0e77 4889C7   		movq	%rax, %rdi
 2523 0e7a E8000000 		call	__cxa_begin_catch
 2523      00
 2524 0e7f 48898550 		movq	%rax, -432(%rbp)
 2524      FEFFFF
 2525 0e86 488B8550 		movq	-432(%rbp), %rax
 2525      FEFFFF
 2526 0e8d 488B00   		movq	(%rax), %rax
 2527 0e90 4883C010 		addq	$16, %rax
 2528 0e94 488B00   		movq	(%rax), %rax
 2529 0e97 488B9550 		movq	-432(%rbp), %rdx
 2529      FEFFFF
 2530 0e9e 4889D7   		movq	%rdx, %rdi
 2531 0ea1 FFD0     		call	*%rax
 2532 0ea3 4889C3   		movq	%rax, %rbx
 2533 0ea6 488B8550 		movq	-432(%rbp), %rax
 2533      FEFFFF
 2534 0ead 4889C7   		movq	%rax, %rdi
 2535              	.LEHB50:
 2536 0eb0 E8000000 		call	_ZNK8UnitTest15AssertException10LineNumberEv
 2536      00
 2537 0eb5 4189C4   		movl	%eax, %r12d
 2538 0eb8 488B8550 		movq	-432(%rbp), %rax
 2538      FEFFFF
 2539 0ebf 4889C7   		movq	%rax, %rdi
 2540 0ec2 E8000000 		call	_ZNK8UnitTest15AssertException8FilenameEv
 2540      00
 2541              		.loc 6 78 0 is_stmt 0 discriminator 2
 2542 0ec7 4889C1   		movq	%rax, %rcx
 2543 0eca 488B8538 		movq	-456(%rbp), %rax
 2543      FEFFFF
 2544 0ed1 488B5008 		movq	8(%rax), %rdx
 2545 0ed5 488B8538 		movq	-456(%rbp), %rax
 2545      FEFFFF
 2546 0edc 488B7010 		movq	16(%rax), %rsi
 2547 0ee0 488D8560 		leaq	-416(%rbp), %rax
 2547      FEFFFF
 2548 0ee7 4589E0   		movl	%r12d, %r8d
 2549 0eea 4889C7   		movq	%rax, %rdi
 2550 0eed E8000000 		call	_ZN8UnitTest11TestDetailsC1EPKcS2_S2_i
 2550      00
 2551              		.loc 6 78 0 discriminator 6
 2552 0ef2 E8000000 		call	_ZN8UnitTest11CurrentTest7ResultsEv
 2552      00
 2553 0ef7 488B00   		movq	(%rax), %rax
 2554 0efa 488D8D60 		leaq	-416(%rbp), %rcx
 2554      FEFFFF
 2555 0f01 4889DA   		movq	%rbx, %rdx
 2556 0f04 4889CE   		movq	%rcx, %rsi
 2557 0f07 4889C7   		movq	%rax, %rdi
 2558 0f0a E8000000 		call	_ZN8UnitTest11TestResults13OnTestFailureERKNS_11TestDetailsEPKc
 2558      00
 2559              	.LEHE50:
 2560              		.loc 6 78 0 discriminator 10
 2561 0f0f E8000000 		call	__cxa_end_catch
 2561      00
 2562              	.LBE55:
 2563              	.LBE57:
 2564 0f14 E9430100 		jmp	.L135
 2564      00
 2565              	.L124:
 2566              	.LBB58:
 2567              	.LBB56:
 2568              		.loc 6 78 0
 2569 0f19 4889C7   		movq	%rax, %rdi
 2570 0f1c E8000000 		call	__cxa_begin_catch
 2570      00
 2571 0f21 48898558 		movq	%rax, -424(%rbp)
 2571      FEFFFF
 2572              	.LBB54:
 2573 0f28 488D8580 		leaq	-384(%rbp), %rax
 2573      FEFFFF
 2574 0f2f 4889C7   		movq	%rax, %rdi
 2575              	.LEHB51:
 2576 0f32 E8000000 		call	_ZN8UnitTest15MemoryOutStreamC1Ev
 2576      00
 2577              	.LEHE51:
 2578              		.loc 6 78 0 discriminator 12
 2579 0f37 488B8558 		movq	-424(%rbp), %rax
 2579      FEFFFF
 2580 0f3e 488B00   		movq	(%rax), %rax
 2581 0f41 4883C010 		addq	$16, %rax
 2582 0f45 488B00   		movq	(%rax), %rax
 2583 0f48 488B9558 		movq	-424(%rbp), %rdx
 2583      FEFFFF
 2584 0f4f 4889D7   		movq	%rdx, %rdi
 2585 0f52 FFD0     		call	*%rax
 2586 0f54 4889C3   		movq	%rax, %rbx
 2587 0f57 488D8580 		leaq	-384(%rbp), %rax
 2587      FEFFFF
 2588 0f5e BE000000 		movl	$.LC11, %esi
 2588      00
 2589 0f63 4889C7   		movq	%rax, %rdi
 2590              	.LEHB52:
 2591 0f66 E8000000 		call	_ZStlsISt11char_traitsIcEERSt13basic_ostreamIcT_ES5_PKc
 2591      00
 2592 0f6b 4889DE   		movq	%rbx, %rsi
 2593 0f6e 4889C7   		movq	%rax, %rdi
 2594 0f71 E8000000 		call	_ZStlsISt11char_traitsIcEERSt13basic_ostreamIcT_ES5_PKc
 2594      00
 2595              		.loc 6 78 0 discriminator 16
 2596 0f76 488D8580 		leaq	-384(%rbp), %rax
 2596      FEFFFF
 2597 0f7d 4889C7   		movq	%rax, %rdi
 2598 0f80 E8000000 		call	_ZNK8UnitTest15MemoryOutStream7GetTextEv
 2598      00
 2599 0f85 4989C4   		movq	%rax, %r12
 2600 0f88 488B8538 		movq	-456(%rbp), %rax
 2600      FEFFFF
 2601 0f8f 488D5808 		leaq	8(%rax), %rbx
 2602 0f93 E8000000 		call	_ZN8UnitTest11CurrentTest7ResultsEv
 2602      00
 2603              		.loc 6 78 0 discriminator 18
 2604 0f98 488B00   		movq	(%rax), %rax
 2605 0f9b 4C89E2   		movq	%r12, %rdx
 2606 0f9e 4889DE   		movq	%rbx, %rsi
 2607 0fa1 4889C7   		movq	%rax, %rdi
 2608 0fa4 E8000000 		call	_ZN8UnitTest11TestResults13OnTestFailureERKNS_11TestDetailsEPKc
 2608      00
 2609              	.LEHE52:
 2610              		.loc 6 78 0 discriminator 22
 2611 0fa9 488D8580 		leaq	-384(%rbp), %rax
 2611      FEFFFF
 2612 0fb0 4889C7   		movq	%rax, %rdi
 2613              	.LEHB53:
 2614 0fb3 E8000000 		call	_ZN8UnitTest15MemoryOutStreamD1Ev
 2614      00
 2615              	.LEHE53:
 2616              	.LBE54:
 2617              		.loc 6 78 0 discriminator 23
 2618 0fb8 E8000000 		call	__cxa_end_catch
 2618      00
 2619              	.LBE56:
 2620              	.LBE58:
 2621 0fbd E99A0000 		jmp	.L135
 2621      00
 2622              	.L134:
 2623              	.LBB59:
 2624              		.loc 6 78 0
 2625 0fc2 4889C7   		movq	%rax, %rdi
 2626 0fc5 E8000000 		call	__cxa_begin_catch
 2626      00
 2627 0fca 80BD4FFE 		cmpb	$0, -433(%rbp)
 2627      FFFF00
 2628 0fd1 7443     		je	.L126
 2629              		.loc 6 78 0 discriminator 25
 2630 0fd3 488B8538 		movq	-456(%rbp), %rax
 2630      FEFFFF
 2631 0fda 488D4808 		leaq	8(%rax), %rcx
 2632 0fde 488D8560 		leaq	-416(%rbp), %rax
 2632      FEFFFF
 2633 0fe5 BA4E0000 		movl	$78, %edx
 2633      00
 2634 0fea 4889CE   		movq	%rcx, %rsi
 2635 0fed 4889C7   		movq	%rax, %rdi
 2636              	.LEHB54:
 2637 0ff0 E8000000 		call	_ZN8UnitTest11TestDetailsC1ERKS0_i
 2637      00
 2638              		.loc 6 78 0 discriminator 28
 2639 0ff5 E8000000 		call	_ZN8UnitTest11CurrentTest7ResultsEv
 2639      00
 2640 0ffa 488B00   		movq	(%rax), %rax
 2641 0ffd 488D8D60 		leaq	-416(%rbp), %rcx
 2641      FEFFFF
 2642 1004 BA000000 		movl	$.LC27, %edx
 2642      00
 2643 1009 4889CE   		movq	%rcx, %rsi
 2644 100c 4889C7   		movq	%rax, %rdi
 2645 100f E8000000 		call	_ZN8UnitTest11TestResults13OnTestFailureERKNS_11TestDetailsEPKc
 2645      00
 2646 1014 EB41     		jmp	.L127
 2647              	.L126:
 2648              		.loc 6 78 0 discriminator 26
 2649 1016 488B8538 		movq	-456(%rbp), %rax
 2649      FEFFFF
 2650 101d 488D4808 		leaq	8(%rax), %rcx
 2651 1021 488D8560 		leaq	-416(%rbp), %rax
 2651      FEFFFF
 2652 1028 BA4E0000 		movl	$78, %edx
 2652      00
 2653 102d 4889CE   		movq	%rcx, %rsi
 2654 1030 4889C7   		movq	%rax, %rdi
 2655 1033 E8000000 		call	_ZN8UnitTest11TestDetailsC1ERKS0_i
 2655      00
 2656              		.loc 6 78 0 discriminator 35
 2657 1038 E8000000 		call	_ZN8UnitTest11CurrentTest7ResultsEv
 2657      00
 2658 103d 488B00   		movq	(%rax), %rax
 2659 1040 488D8D60 		leaq	-416(%rbp), %rcx
 2659      FEFFFF
 2660 1047 BA000000 		movl	$.LC28, %edx
 2660      00
 2661 104c 4889CE   		movq	%rcx, %rsi
 2662 104f 4889C7   		movq	%rax, %rdi
 2663 1052 E8000000 		call	_ZN8UnitTest11TestResults13OnTestFailureERKNS_11TestDetailsEPKc
 2663      00
 2664              	.LEHE54:
 2665              	.L127:
 2666              	.LEHB55:
 2667              		.loc 6 78 0 discriminator 40
 2668 1057 E8000000 		call	__cxa_end_catch
 2668      00
 2669              	.LEHE55:
 2670              	.L135:
 2671              	.LBE59:
 2672              		.loc 6 78 0
 2673 105c 90       		nop
 2674 105d 488B45E8 		movq	-24(%rbp), %rax
 2675 1061 64483304 		xorq	%fs:40, %rax
 2675      25280000 
 2675      00
 2676 106a 7405     		je	.L128
 2677 106c E8000000 		call	__stack_chk_fail
 2677      00
 2678              	.L128:
 2679 1071 4881C4C0 		addq	$448, %rsp
 2679      010000
 2680 1078 5B       		popq	%rbx
 2681 1079 415C     		popq	%r12
 2682 107b 5D       		popq	%rbp
 2683              		.cfi_def_cfa 7, 8
 2684 107c C3       		ret
 2685              		.cfi_endproc
 2686              	.LFE1134:
 2687              		.section	.gcc_except_table
 2688              		.align 4
 2689              	.LLSDA1134:
 2690 0130 FF       		.byte	0xff
 2691 0131 03       		.byte	0x3
 2692 0132 49       		.uleb128 .LLSDATT1134-.LLSDATTD1134
 2693              	.LLSDATTD1134:
 2694 0133 01       		.byte	0x1
 2695 0134 35       		.uleb128 .LLSDACSE1134-.LLSDACSB1134
 2696              	.LLSDACSB1134:
 2697 0135 67       		.uleb128 .LEHB46-.LFB1134
 2698 0136 05       		.uleb128 .LEHE46-.LEHB46
 2699 0137 BE01     		.uleb128 .L129-.LFB1134
 2700 0139 05       		.uleb128 0x5
 2701 013a 7F       		.uleb128 .LEHB47-.LFB1134
 2702 013b 05       		.uleb128 .LEHE47-.LEHB47
 2703 013c 00       		.uleb128 0
 2704 013d 00       		.uleb128 0
 2705 013e A601     		.uleb128 .LEHB48-.LFB1134
 2706 0140 05       		.uleb128 .LEHE48-.LEHB48
 2707 0141 00       		.uleb128 0
 2708 0142 00       		.uleb128 0
 2709 0143 B901     		.uleb128 .LEHB49-.LFB1134
 2710 0145 05       		.uleb128 .LEHE49-.LEHB49
 2711 0146 00       		.uleb128 0
 2712 0147 00       		.uleb128 0
 2713 0148 8C02     		.uleb128 .LEHB50-.LFB1134
 2714 014a 5F       		.uleb128 .LEHE50-.LEHB50
 2715 014b 71       		.uleb128 .L130-.LFB1134
 2716 014c 00       		.uleb128 0
 2717 014d 8E03     		.uleb128 .LEHB51-.LFB1134
 2718 014f 05       		.uleb128 .LEHE51-.LEHB51
 2719 0150 9801     		.uleb128 .L132-.LFB1134
 2720 0152 00       		.uleb128 0
 2721 0153 C203     		.uleb128 .LEHB52-.LFB1134
 2722 0155 43       		.uleb128 .LEHE52-.LEHB52
 2723 0156 8401     		.uleb128 .L131-.LFB1134
 2724 0158 00       		.uleb128 0
 2725 0159 8F04     		.uleb128 .LEHB53-.LFB1134
 2726 015b 05       		.uleb128 .LEHE53-.LEHB53
 2727 015c 9801     		.uleb128 .L132-.LFB1134
 2728 015e 00       		.uleb128 0
 2729 015f CC04     		.uleb128 .LEHB54-.LFB1134
 2730 0161 67       		.uleb128 .LEHE54-.LEHB54
 2731 0162 AB01     		.uleb128 .L133-.LFB1134
 2732 0164 00       		.uleb128 0
 2733 0165 B305     		.uleb128 .LEHB55-.LFB1134
 2734 0167 05       		.uleb128 .LEHE55-.LEHB55
 2735 0168 00       		.uleb128 0
 2736 0169 00       		.uleb128 0
 2737              	.LLSDACSE1134:
 2738 016a 03       		.byte	0x3
 2739 016b 00       		.byte	0
 2740 016c 02       		.byte	0x2
 2741 016d 7D       		.byte	0x7d
 2742 016e 01       		.byte	0x1
 2743 016f 7D       		.byte	0x7d
 2744              		.align 4
 2745 0170 00000000 		.long	0
 2746              	
 2747 0174 00000000 		.long	_ZTISt9exception
 2748 0178 00000000 		.long	_ZTIN8UnitTest15AssertExceptionE
 2749              	.LLSDATT1134:
 2750              		.text
 2752 107d 90       		.align 2
 2754              	_ZN12_GLOBAL__N_115SuiteTestSuite265DummyFixtureSimilarlyNamedFixtureTestsInDifferentSuitesWorkHelp
 2755              	.LFB1135:
  79:TestTestMacros.cpp **** 	{
 2756              		.loc 6 79 0 is_stmt 1
 2757              		.cfi_startproc
 2758 107e 55       		pushq	%rbp
 2759              		.cfi_def_cfa_offset 16
 2760              		.cfi_offset 6, -16
 2761 107f 4889E5   		movq	%rsp, %rbp
 2762              		.cfi_def_cfa_register 6
 2763 1082 48897DF8 		movq	%rdi, -8(%rbp)
  80:TestTestMacros.cpp **** 	}
 2764              		.loc 6 80 0
 2765 1086 5D       		popq	%rbp
 2766              		.cfi_def_cfa 7, 8
 2767 1087 C3       		ret
 2768              		.cfi_endproc
 2769              	.LFE1135:
 2771              		.local	_ZN12_GLOBAL__N_114macroTestList1E
 2772              		.comm	_ZN12_GLOBAL__N_114macroTestList1E,16,16
 2773              		.section	.rodata
 2774              	.LC30:
 2775 047f 4D616372 		.string	"MacroTestHelper1"
 2775      6F546573 
 2775      7448656C 
 2775      70657231 
 2775      00
 2776              		.text
 2777              		.align 2
 2779              	_ZN12_GLOBAL__N_120TestMacroTestHelper1C2Ev:
 2780              	.LFB1137:
  81:TestTestMacros.cpp **** }
  82:TestTestMacros.cpp **** 
  83:TestTestMacros.cpp **** TestList macroTestList1;
  84:TestTestMacros.cpp **** TEST_EX(MacroTestHelper1, macroTestList1)
 2781              		.loc 6 84 0
 2782              		.cfi_startproc
 2783 1088 55       		pushq	%rbp
 2784              		.cfi_def_cfa_offset 16
 2785              		.cfi_offset 6, -16
 2786 1089 4889E5   		movq	%rsp, %rbp
 2787              		.cfi_def_cfa_register 6
 2788 108c 4883EC10 		subq	$16, %rsp
 2789 1090 48897DF8 		movq	%rdi, -8(%rbp)
 2790              	.LBB60:
 2791              		.loc 6 84 0
 2792 1094 E8000000 		call	_ZN13UnitTestSuite12GetSuiteNameEv
 2792      00
 2793 1099 4889C2   		movq	%rax, %rdx
 2794 109c 488B45F8 		movq	-8(%rbp), %rax
 2795 10a0 41B85400 		movl	$84, %r8d
 2795      0000
 2796 10a6 B9000000 		movl	$.LC2, %ecx
 2796      00
 2797 10ab BE000000 		movl	$.LC30, %esi
 2797      00
 2798 10b0 4889C7   		movq	%rax, %rdi
 2799 10b3 E8000000 		call	_ZN8UnitTest4TestC2EPKcS2_S2_i
 2799      00
 2800 10b8 488B45F8 		movq	-8(%rbp), %rax
 2801 10bc 48C70000 		movq	$_ZTVN12_GLOBAL__N_120TestMacroTestHelper1E+16, (%rax)
 2801      000000
 2802              	.LBE60:
 2803 10c3 C9       		leave
 2804              		.cfi_def_cfa 7, 8
 2805 10c4 C3       		ret
 2806              		.cfi_endproc
 2807              	.LFE1137:
 2809              		.local	_ZN12_GLOBAL__N_128testMacroTestHelper1InstanceE
 2810              		.comm	_ZN12_GLOBAL__N_128testMacroTestHelper1InstanceE,56,32
 2811              		.local	_ZN12_GLOBAL__N_121adderMacroTestHelper1E
 2812              		.comm	_ZN12_GLOBAL__N_121adderMacroTestHelper1E,1,1
 2813 10c5 90       		.align 2
 2815              	_ZNK12_GLOBAL__N_120TestMacroTestHelper17RunImplEv:
 2816              	.LFB1139:
  85:TestTestMacros.cpp **** {
 2817              		.loc 6 85 0
 2818              		.cfi_startproc
 2819 10c6 55       		pushq	%rbp
 2820              		.cfi_def_cfa_offset 16
 2821              		.cfi_offset 6, -16
 2822 10c7 4889E5   		movq	%rsp, %rbp
 2823              		.cfi_def_cfa_register 6
 2824 10ca 48897DF8 		movq	%rdi, -8(%rbp)
  86:TestTestMacros.cpp **** }
 2825              		.loc 6 86 0
 2826 10ce 5D       		popq	%rbp
 2827              		.cfi_def_cfa 7, 8
 2828 10cf C3       		ret
 2829              		.cfi_endproc
 2830              	.LFE1139:
 2832              		.section	.rodata
 2833              		.align 8
 2834              	.LC31:
 2835 0490 54657374 		.string	"TestAddedWithTEST_EXMacroGetsDefaultSuite"
 2835      41646465 
 2835      64576974 
 2835      68544553 
 2835      545F4558 
 2836              		.text
 2837              		.align 2
 2839              	_ZN12_GLOBAL__N_145TestTestAddedWithTEST_EXMacroGetsDefaultSuiteC2Ev:
 2840              	.LFB1141:
  87:TestTestMacros.cpp **** 
  88:TestTestMacros.cpp **** TEST(TestAddedWithTEST_EXMacroGetsDefaultSuite)
 2841              		.loc 6 88 0
 2842              		.cfi_startproc
 2843 10d0 55       		pushq	%rbp
 2844              		.cfi_def_cfa_offset 16
 2845              		.cfi_offset 6, -16
 2846 10d1 4889E5   		movq	%rsp, %rbp
 2847              		.cfi_def_cfa_register 6
 2848 10d4 4883EC10 		subq	$16, %rsp
 2849 10d8 48897DF8 		movq	%rdi, -8(%rbp)
 2850              	.LBB61:
 2851              		.loc 6 88 0
 2852 10dc E8000000 		call	_ZN13UnitTestSuite12GetSuiteNameEv
 2852      00
 2853 10e1 4889C2   		movq	%rax, %rdx
 2854 10e4 488B45F8 		movq	-8(%rbp), %rax
 2855 10e8 41B85800 		movl	$88, %r8d
 2855      0000
 2856 10ee B9000000 		movl	$.LC2, %ecx
 2856      00
 2857 10f3 BE000000 		movl	$.LC31, %esi
 2857      00
 2858 10f8 4889C7   		movq	%rax, %rdi
 2859 10fb E8000000 		call	_ZN8UnitTest4TestC2EPKcS2_S2_i
 2859      00
 2860 1100 488B45F8 		movq	-8(%rbp), %rax
 2861 1104 48C70000 		movq	$_ZTVN12_GLOBAL__N_145TestTestAddedWithTEST_EXMacroGetsDefaultSuiteE+16, (%rax)
 2861      000000
 2862              	.LBE61:
 2863 110b C9       		leave
 2864              		.cfi_def_cfa 7, 8
 2865 110c C3       		ret
 2866              		.cfi_endproc
 2867              	.LFE1141:
 2869              		.local	_ZN12_GLOBAL__N_153testTestAddedWithTEST_EXMacroGetsDefaultSuiteInstanceE
 2870              		.comm	_ZN12_GLOBAL__N_153testTestAddedWithTEST_EXMacroGetsDefaultSuiteInstanceE,56,32
 2871              		.local	_ZN12_GLOBAL__N_146adderTestAddedWithTEST_EXMacroGetsDefaultSuiteE
 2872              		.comm	_ZN12_GLOBAL__N_146adderTestAddedWithTEST_EXMacroGetsDefaultSuiteE,1,1
 2873              		.section	.rodata
 2874 04ba 00000000 		.align 8
 2874      0000
 2875              	.LC32:
 2876 04c0 6D616372 		.string	"macroTestList1.GetHead() != NULL"
 2876      6F546573 
 2876      744C6973 
 2876      74312E47 
 2876      65744865 
 2877 04e1 00000000 		.align 8
 2877      000000
 2878              	.LC33:
 2879 04e8 556E6861 		.string	"Unhandled exception in CHECK(macroTestList1.GetHead() != NULL)"
 2879      6E646C65 
 2879      64206578 
 2879      63657074 
 2879      696F6E20 
 2880 0527 00       		.align 8
 2881              	.LC34:
 2882 0528 556E6861 		.string	"Unhandled exception in CHECK_EQUAL(\"MacroTestHelper1\", macroTestList1.GetHead()->m_deta
 2882      6E646C65 
 2882      64206578 
 2882      63657074 
 2882      696F6E20 
 2883 058d 000000   		.align 8
 2884              	.LC35:
 2885 0590 556E6861 		.string	"Unhandled exception in CHECK_EQUAL(\"DefaultSuite\", macroTestList1.GetHead()->m_details.
 2885      6E646C65 
 2885      64206578 
 2885      63657074 
 2885      696F6E20 
 2886              		.text
 2887 110d 90       		.align 2
 2889              	_ZNK12_GLOBAL__N_145TestTestAddedWithTEST_EXMacroGetsDefaultSuite7RunImplEv:
 2890              	.LFB1143:
  89:TestTestMacros.cpp **** {
 2891              		.loc 6 89 0
 2892              		.cfi_startproc
 2893              		.cfi_personality 0x3,__gxx_personality_v0
 2894              		.cfi_lsda 0x3,.LLSDA1143
 2895 110e 55       		pushq	%rbp
 2896              		.cfi_def_cfa_offset 16
 2897              		.cfi_offset 6, -16
 2898 110f 4889E5   		movq	%rsp, %rbp
 2899              		.cfi_def_cfa_register 6
 2900 1112 53       		pushq	%rbx
 2901 1113 4883EC48 		subq	$72, %rsp
 2902              		.cfi_offset 3, -24
 2903 1117 48897DB8 		movq	%rdi, -72(%rbp)
 2904              		.loc 6 89 0
 2905 111b 64488B04 		movq	%fs:40, %rax
 2905      25280000 
 2905      00
 2906 1124 488945E8 		movq	%rax, -24(%rbp)
 2907 1128 31C0     		xorl	%eax, %eax
  90:TestTestMacros.cpp ****     CHECK(macroTestList1.GetHead() != NULL);
 2908              		.loc 6 90 0
 2909 112a BF000000 		movl	$_ZN12_GLOBAL__N_114macroTestList1E, %edi
 2909      00
 2910              	.LEHB56:
 2911 112f E8000000 		call	_ZNK8UnitTest8TestList7GetHeadEv
 2911      00
 2912 1134 4885C0   		testq	%rax, %rax
 2913 1137 0F95C0   		setne	%al
 2914 113a 0FB6C0   		movzbl	%al, %eax
 2915 113d 89C7     		movl	%eax, %edi
 2916 113f E8000000 		call	_ZN8UnitTest5CheckIbEEbT_
 2916      00
 2917 1144 83F001   		xorl	$1, %eax
 2918 1147 84C0     		testb	%al, %al
 2919 1149 7438     		je	.L141
 2920              		.loc 6 90 0 is_stmt 0 discriminator 2
 2921 114b E8000000 		call	_ZN8UnitTest11CurrentTest7DetailsEv
 2921      00
 2922 1150 488B08   		movq	(%rax), %rcx
 2923 1153 488D45C0 		leaq	-64(%rbp), %rax
 2924 1157 BA5A0000 		movl	$90, %edx
 2924      00
 2925 115c 4889CE   		movq	%rcx, %rsi
 2926 115f 4889C7   		movq	%rax, %rdi
 2927 1162 E8000000 		call	_ZN8UnitTest11TestDetailsC1ERKS0_i
 2927      00
 2928              		.loc 6 90 0 discriminator 4
 2929 1167 E8000000 		call	_ZN8UnitTest11CurrentTest7ResultsEv
 2929      00
 2930 116c 488B00   		movq	(%rax), %rax
 2931 116f 488D4DC0 		leaq	-64(%rbp), %rcx
 2932 1173 BA000000 		movl	$.LC32, %edx
 2932      00
 2933 1178 4889CE   		movq	%rcx, %rsi
 2934 117b 4889C7   		movq	%rax, %rdi
 2935 117e E8000000 		call	_ZN8UnitTest11TestResults13OnTestFailureERKNS_11TestDetailsEPKc
 2935      00
 2936              	.LEHE56:
 2937              	.L141:
 2938              	.LEHB57:
  91:TestTestMacros.cpp ****     CHECK_EQUAL ("MacroTestHelper1", macroTestList1.GetHead()->m_details.testName);
 2939              		.loc 6 91 0 is_stmt 1
 2940 1183 E8000000 		call	_ZN8UnitTest11CurrentTest7DetailsEv
 2940      00
 2941 1188 488B08   		movq	(%rax), %rcx
 2942 118b 488D45C0 		leaq	-64(%rbp), %rax
 2943 118f BA5B0000 		movl	$91, %edx
 2943      00
 2944 1194 4889CE   		movq	%rcx, %rsi
 2945 1197 4889C7   		movq	%rax, %rdi
 2946 119a E8000000 		call	_ZN8UnitTest11TestDetailsC1ERKS0_i
 2946      00
 2947              		.loc 6 91 0 is_stmt 0 discriminator 2
 2948 119f BF000000 		movl	$_ZN12_GLOBAL__N_114macroTestList1E, %edi
 2948      00
 2949 11a4 E8000000 		call	_ZNK8UnitTest8TestList7GetHeadEv
 2949      00
 2950 11a9 488B5810 		movq	16(%rax), %rbx
 2951 11ad E8000000 		call	_ZN8UnitTest11CurrentTest7ResultsEv
 2951      00
 2952              		.loc 6 91 0 discriminator 4
 2953 11b2 488B00   		movq	(%rax), %rax
 2954 11b5 488D55C0 		leaq	-64(%rbp), %rdx
 2955 11b9 4889D1   		movq	%rdx, %rcx
 2956 11bc 4889DA   		movq	%rbx, %rdx
 2957 11bf BE000000 		movl	$.LC30, %esi
 2957      00
 2958 11c4 4889C7   		movq	%rax, %rdi
 2959 11c7 E8000000 		call	_ZN8UnitTest10CheckEqualERNS_11TestResultsEPKcS3_RKNS_11TestDetailsE
 2959      00
 2960              	.LEHE57:
 2961              	.L146:
 2962              	.LEHB58:
  92:TestTestMacros.cpp ****     CHECK_EQUAL ("DefaultSuite", macroTestList1.GetHead()->m_details.suiteName);
 2963              		.loc 6 92 0 is_stmt 1
 2964 11cc E8000000 		call	_ZN8UnitTest11CurrentTest7DetailsEv
 2964      00
 2965 11d1 488B08   		movq	(%rax), %rcx
 2966 11d4 488D45C0 		leaq	-64(%rbp), %rax
 2967 11d8 BA5C0000 		movl	$92, %edx
 2967      00
 2968 11dd 4889CE   		movq	%rcx, %rsi
 2969 11e0 4889C7   		movq	%rax, %rdi
 2970 11e3 E8000000 		call	_ZN8UnitTest11TestDetailsC1ERKS0_i
 2970      00
 2971              		.loc 6 92 0 is_stmt 0 discriminator 2
 2972 11e8 BF000000 		movl	$_ZN12_GLOBAL__N_114macroTestList1E, %edi
 2972      00
 2973 11ed E8000000 		call	_ZNK8UnitTest8TestList7GetHeadEv
 2973      00
 2974 11f2 488B5808 		movq	8(%rax), %rbx
 2975 11f6 E8000000 		call	_ZN8UnitTest11CurrentTest7ResultsEv
 2975      00
 2976              		.loc 6 92 0 discriminator 4
 2977 11fb 488B00   		movq	(%rax), %rax
 2978 11fe 488D55C0 		leaq	-64(%rbp), %rdx
 2979 1202 4889D1   		movq	%rdx, %rcx
 2980 1205 4889DA   		movq	%rbx, %rdx
 2981 1208 BE000000 		movl	$.LC0, %esi
 2981      00
 2982 120d 4889C7   		movq	%rax, %rdi
 2983 1210 E8000000 		call	_ZN8UnitTest10CheckEqualERNS_11TestResultsEPKcS3_RKNS_11TestDetailsE
 2983      00
 2984              	.LEHE58:
  93:TestTestMacros.cpp **** }
 2985              		.loc 6 93 0 is_stmt 1
 2986 1215 E9120100 		jmp	.L157
 2986      00
 2987              	.L152:
 2988 121a 4889C3   		movq	%rax, %rbx
  90:TestTestMacros.cpp ****     CHECK_EQUAL ("MacroTestHelper1", macroTestList1.GetHead()->m_details.testName);
 2989              		.loc 6 90 0
 2990 121d E8000000 		call	__cxa_end_catch
 2990      00
 2991 1222 4889D8   		movq	%rbx, %rax
 2992 1225 4889C7   		movq	%rax, %rdi
 2993              	.LEHB59:
 2994 1228 E8000000 		call	_Unwind_Resume
 2994      00
 2995              	.LEHE59:
 2996              	.L151:
 2997 122d 4889C7   		movq	%rax, %rdi
 2998 1230 E8000000 		call	__cxa_begin_catch
 2998      00
 2999              	.LEHB60:
 3000 1235 E8000000 		call	_ZN8UnitTest11CurrentTest7DetailsEv
 3000      00
 3001 123a 488B08   		movq	(%rax), %rcx
 3002 123d 488D45C0 		leaq	-64(%rbp), %rax
 3003 1241 BA5A0000 		movl	$90, %edx
 3003      00
 3004 1246 4889CE   		movq	%rcx, %rsi
 3005 1249 4889C7   		movq	%rax, %rdi
 3006 124c E8000000 		call	_ZN8UnitTest11TestDetailsC1ERKS0_i
 3006      00
  90:TestTestMacros.cpp ****     CHECK_EQUAL ("MacroTestHelper1", macroTestList1.GetHead()->m_details.testName);
 3007              		.loc 6 90 0 is_stmt 0 discriminator 12
 3008 1251 E8000000 		call	_ZN8UnitTest11CurrentTest7ResultsEv
 3008      00
 3009 1256 488B00   		movq	(%rax), %rax
 3010 1259 488D4DC0 		leaq	-64(%rbp), %rcx
 3011 125d BA000000 		movl	$.LC33, %edx
 3011      00
 3012 1262 4889CE   		movq	%rcx, %rsi
 3013 1265 4889C7   		movq	%rax, %rdi
 3014 1268 E8000000 		call	_ZN8UnitTest11TestResults13OnTestFailureERKNS_11TestDetailsEPKc
 3014      00
 3015              	.LEHE60:
 3016              	.LEHB61:
  90:TestTestMacros.cpp ****     CHECK_EQUAL ("MacroTestHelper1", macroTestList1.GetHead()->m_details.testName);
 3017              		.loc 6 90 0 discriminator 16
 3018 126d E8000000 		call	__cxa_end_catch
 3018      00
 3019              	.LEHE61:
 3020 1272 E90CFFFF 		jmp	.L141
 3020      FF
 3021              	.L154:
 3022 1277 4889C3   		movq	%rax, %rbx
  91:TestTestMacros.cpp ****     CHECK_EQUAL ("DefaultSuite", macroTestList1.GetHead()->m_details.suiteName);
 3023              		.loc 6 91 0 is_stmt 1
 3024 127a E8000000 		call	__cxa_end_catch
 3024      00
 3025 127f 4889D8   		movq	%rbx, %rax
 3026 1282 4889C7   		movq	%rax, %rdi
 3027              	.LEHB62:
 3028 1285 E8000000 		call	_Unwind_Resume
 3028      00
 3029              	.LEHE62:
 3030              	.L153:
 3031 128a 4889C7   		movq	%rax, %rdi
 3032 128d E8000000 		call	__cxa_begin_catch
 3032      00
 3033              	.LEHB63:
 3034 1292 E8000000 		call	_ZN8UnitTest11CurrentTest7DetailsEv
 3034      00
 3035 1297 488B08   		movq	(%rax), %rcx
 3036 129a 488D45C0 		leaq	-64(%rbp), %rax
 3037 129e BA5B0000 		movl	$91, %edx
 3037      00
 3038 12a3 4889CE   		movq	%rcx, %rsi
 3039 12a6 4889C7   		movq	%rax, %rdi
 3040 12a9 E8000000 		call	_ZN8UnitTest11TestDetailsC1ERKS0_i
 3040      00
  91:TestTestMacros.cpp ****     CHECK_EQUAL ("DefaultSuite", macroTestList1.GetHead()->m_details.suiteName);
 3041              		.loc 6 91 0 is_stmt 0 discriminator 12
 3042 12ae E8000000 		call	_ZN8UnitTest11CurrentTest7ResultsEv
 3042      00
 3043 12b3 488B00   		movq	(%rax), %rax
 3044 12b6 488D4DC0 		leaq	-64(%rbp), %rcx
 3045 12ba BA000000 		movl	$.LC34, %edx
 3045      00
 3046 12bf 4889CE   		movq	%rcx, %rsi
 3047 12c2 4889C7   		movq	%rax, %rdi
 3048 12c5 E8000000 		call	_ZN8UnitTest11TestResults13OnTestFailureERKNS_11TestDetailsEPKc
 3048      00
 3049              	.LEHE63:
 3050              	.LEHB64:
  91:TestTestMacros.cpp ****     CHECK_EQUAL ("DefaultSuite", macroTestList1.GetHead()->m_details.suiteName);
 3051              		.loc 6 91 0 discriminator 16
 3052 12ca E8000000 		call	__cxa_end_catch
 3052      00
 3053              	.LEHE64:
 3054 12cf E9F8FEFF 		jmp	.L146
 3054      FF
 3055              	.L156:
 3056 12d4 4889C3   		movq	%rax, %rbx
  92:TestTestMacros.cpp **** }
 3057              		.loc 6 92 0 is_stmt 1
 3058 12d7 E8000000 		call	__cxa_end_catch
 3058      00
 3059 12dc 4889D8   		movq	%rbx, %rax
 3060 12df 4889C7   		movq	%rax, %rdi
 3061              	.LEHB65:
 3062 12e2 E8000000 		call	_Unwind_Resume
 3062      00
 3063              	.LEHE65:
 3064              	.L155:
 3065 12e7 4889C7   		movq	%rax, %rdi
 3066 12ea E8000000 		call	__cxa_begin_catch
 3066      00
 3067              	.LEHB66:
 3068 12ef E8000000 		call	_ZN8UnitTest11CurrentTest7DetailsEv
 3068      00
 3069 12f4 488B08   		movq	(%rax), %rcx
 3070 12f7 488D45C0 		leaq	-64(%rbp), %rax
 3071 12fb BA5C0000 		movl	$92, %edx
 3071      00
 3072 1300 4889CE   		movq	%rcx, %rsi
 3073 1303 4889C7   		movq	%rax, %rdi
 3074 1306 E8000000 		call	_ZN8UnitTest11TestDetailsC1ERKS0_i
 3074      00
  92:TestTestMacros.cpp **** }
 3075              		.loc 6 92 0 is_stmt 0 discriminator 12
 3076 130b E8000000 		call	_ZN8UnitTest11CurrentTest7ResultsEv
 3076      00
 3077 1310 488B00   		movq	(%rax), %rax
 3078 1313 488D4DC0 		leaq	-64(%rbp), %rcx
 3079 1317 BA000000 		movl	$.LC35, %edx
 3079      00
 3080 131c 4889CE   		movq	%rcx, %rsi
 3081 131f 4889C7   		movq	%rax, %rdi
 3082 1322 E8000000 		call	_ZN8UnitTest11TestResults13OnTestFailureERKNS_11TestDetailsEPKc
 3082      00
 3083              	.LEHE66:
 3084              	.LEHB67:
  92:TestTestMacros.cpp **** }
 3085              		.loc 6 92 0 discriminator 16
 3086 1327 E8000000 		call	__cxa_end_catch
 3086      00
 3087              	.LEHE67:
 3088              	.L157:
 3089              		.loc 6 93 0 is_stmt 1
 3090 132c 90       		nop
 3091 132d 488B45E8 		movq	-24(%rbp), %rax
 3092 1331 64483304 		xorq	%fs:40, %rax
 3092      25280000 
 3092      00
 3093 133a 7405     		je	.L150
 3094 133c E8000000 		call	__stack_chk_fail
 3094      00
 3095              	.L150:
 3096 1341 4883C448 		addq	$72, %rsp
 3097 1345 5B       		popq	%rbx
 3098 1346 5D       		popq	%rbp
 3099              		.cfi_def_cfa 7, 8
 3100 1347 C3       		ret
 3101              		.cfi_endproc
 3102              	.LFE1143:
 3103              		.section	.gcc_except_table
 3104              		.align 4
 3105              	.LLSDA1143:
 3106 017c FF       		.byte	0xff
 3107 017d 03       		.byte	0x3
 3108 017e 49       		.uleb128 .LLSDATT1143-.LLSDATTD1143
 3109              	.LLSDATTD1143:
 3110 017f 01       		.byte	0x1
 3111 0180 40       		.uleb128 .LLSDACSE1143-.LLSDACSB1143
 3112              	.LLSDACSB1143:
 3113 0181 21       		.uleb128 .LEHB56-.LFB1143
 3114 0182 54       		.uleb128 .LEHE56-.LEHB56
 3115 0183 9F02     		.uleb128 .L151-.LFB1143
 3116 0185 01       		.uleb128 0x1
 3117 0186 75       		.uleb128 .LEHB57-.LFB1143
 3118 0187 49       		.uleb128 .LEHE57-.LEHB57
 3119 0188 FC02     		.uleb128 .L153-.LFB1143
 3120 018a 01       		.uleb128 0x1
 3121 018b BE01     		.uleb128 .LEHB58-.LFB1143
 3122 018d 49       		.uleb128 .LEHE58-.LEHB58
 3123 018e D903     		.uleb128 .L155-.LFB1143
 3124 0190 01       		.uleb128 0x1
 3125 0191 9A02     		.uleb128 .LEHB59-.LFB1143
 3126 0193 05       		.uleb128 .LEHE59-.LEHB59
 3127 0194 00       		.uleb128 0
 3128 0195 00       		.uleb128 0
 3129 0196 A702     		.uleb128 .LEHB60-.LFB1143
 3130 0198 38       		.uleb128 .LEHE60-.LEHB60
 3131 0199 8C02     		.uleb128 .L152-.LFB1143
 3132 019b 00       		.uleb128 0
 3133 019c DF02     		.uleb128 .LEHB61-.LFB1143
 3134 019e 05       		.uleb128 .LEHE61-.LEHB61
 3135 019f 00       		.uleb128 0
 3136 01a0 00       		.uleb128 0
 3137 01a1 F702     		.uleb128 .LEHB62-.LFB1143
 3138 01a3 05       		.uleb128 .LEHE62-.LEHB62
 3139 01a4 00       		.uleb128 0
 3140 01a5 00       		.uleb128 0
 3141 01a6 8403     		.uleb128 .LEHB63-.LFB1143
 3142 01a8 38       		.uleb128 .LEHE63-.LEHB63
 3143 01a9 E902     		.uleb128 .L154-.LFB1143
 3144 01ab 00       		.uleb128 0
 3145 01ac BC03     		.uleb128 .LEHB64-.LFB1143
 3146 01ae 05       		.uleb128 .LEHE64-.LEHB64
 3147 01af 00       		.uleb128 0
 3148 01b0 00       		.uleb128 0
 3149 01b1 D403     		.uleb128 .LEHB65-.LFB1143
 3150 01b3 05       		.uleb128 .LEHE65-.LEHB65
 3151 01b4 00       		.uleb128 0
 3152 01b5 00       		.uleb128 0
 3153 01b6 E103     		.uleb128 .LEHB66-.LFB1143
 3154 01b8 38       		.uleb128 .LEHE66-.LEHB66
 3155 01b9 C603     		.uleb128 .L156-.LFB1143
 3156 01bb 00       		.uleb128 0
 3157 01bc 9904     		.uleb128 .LEHB67-.LFB1143
 3158 01be 05       		.uleb128 .LEHE67-.LEHB67
 3159 01bf 00       		.uleb128 0
 3160 01c0 00       		.uleb128 0
 3161              	.LLSDACSE1143:
 3162 01c1 01       		.byte	0x1
 3163 01c2 00       		.byte	0
 3164 01c3 00       		.align 4
 3165 01c4 00000000 		.long	0
 3166              	
 3167              	.LLSDATT1143:
 3168              		.text
 3170              		.local	_ZN12_GLOBAL__N_114macroTestList2E
 3171              		.comm	_ZN12_GLOBAL__N_114macroTestList2E,16,16
 3172              		.align 2
 3174              	_ZN12_GLOBAL__N_134DummyFixtureMacroTestHelper2HelperC2ERKN8UnitTest11TestDetailsE:
 3175              	.LFB1145:
  94:TestTestMacros.cpp **** 
  95:TestTestMacros.cpp **** TestList macroTestList2;
  96:TestTestMacros.cpp **** TEST_FIXTURE_EX(DummyFixture, MacroTestHelper2, macroTestList2)
 3176              		.loc 6 96 0
 3177              		.cfi_startproc
 3178 1348 55       		pushq	%rbp
 3179              		.cfi_def_cfa_offset 16
 3180              		.cfi_offset 6, -16
 3181 1349 4889E5   		movq	%rsp, %rbp
 3182              		.cfi_def_cfa_register 6
 3183 134c 4883EC10 		subq	$16, %rsp
 3184 1350 48897DF8 		movq	%rdi, -8(%rbp)
 3185 1354 488975F0 		movq	%rsi, -16(%rbp)
 3186              	.LBB62:
 3187              		.loc 6 96 0
 3188 1358 488B45F8 		movq	-8(%rbp), %rax
 3189 135c 4889C7   		movq	%rax, %rdi
 3190 135f E82EF6FF 		call	_ZN12_GLOBAL__N_112DummyFixtureC2Ev
 3190      FF
 3191 1364 488B45F8 		movq	-8(%rbp), %rax
 3192 1368 488B55F0 		movq	-16(%rbp), %rdx
 3193 136c 48895008 		movq	%rdx, 8(%rax)
 3194              	.LBE62:
 3195 1370 C9       		leave
 3196              		.cfi_def_cfa 7, 8
 3197 1371 C3       		ret
 3198              		.cfi_endproc
 3199              	.LFE1145:
 3201              		.section	.rodata
 3202              	.LC36:
 3203 05f2 4D616372 		.string	"MacroTestHelper2"
 3203      6F546573 
 3203      7448656C 
 3203      70657232 
 3203      00
 3204              		.text
 3205              		.align 2
 3207              	_ZN12_GLOBAL__N_132TestDummyFixtureMacroTestHelper2C2Ev:
 3208              	.LFB1148:
 3209              		.loc 6 96 0
 3210              		.cfi_startproc
 3211 1372 55       		pushq	%rbp
 3212              		.cfi_def_cfa_offset 16
 3213              		.cfi_offset 6, -16
 3214 1373 4889E5   		movq	%rsp, %rbp
 3215              		.cfi_def_cfa_register 6
 3216 1376 4883EC10 		subq	$16, %rsp
 3217 137a 48897DF8 		movq	%rdi, -8(%rbp)
 3218              	.LBB63:
 3219              		.loc 6 96 0
 3220 137e E8000000 		call	_ZN13UnitTestSuite12GetSuiteNameEv
 3220      00
 3221 1383 4889C2   		movq	%rax, %rdx
 3222 1386 488B45F8 		movq	-8(%rbp), %rax
 3223 138a 41B86000 		movl	$96, %r8d
 3223      0000
 3224 1390 B9000000 		movl	$.LC2, %ecx
 3224      00
 3225 1395 BE000000 		movl	$.LC36, %esi
 3225      00
 3226 139a 4889C7   		movq	%rax, %rdi
 3227 139d E8000000 		call	_ZN8UnitTest4TestC2EPKcS2_S2_i
 3227      00
 3228 13a2 488B45F8 		movq	-8(%rbp), %rax
 3229 13a6 48C70000 		movq	$_ZTVN12_GLOBAL__N_132TestDummyFixtureMacroTestHelper2E+16, (%rax)
 3229      000000
 3230              	.LBE63:
 3231 13ad C9       		leave
 3232              		.cfi_def_cfa 7, 8
 3233 13ae C3       		ret
 3234              		.cfi_endproc
 3235              	.LFE1148:
 3237              		.local	_ZN12_GLOBAL__N_140testDummyFixtureMacroTestHelper2InstanceE
 3238              		.comm	_ZN12_GLOBAL__N_140testDummyFixtureMacroTestHelper2InstanceE,56,32
 3239              		.local	_ZN12_GLOBAL__N_133adderDummyFixtureMacroTestHelper2E
 3240              		.comm	_ZN12_GLOBAL__N_133adderDummyFixtureMacroTestHelper2E,1,1
 3241 13af 90       		.align 2
 3243              	_ZNK12_GLOBAL__N_132TestDummyFixtureMacroTestHelper27RunImplEv:
 3244              	.LFB1150:
 3245              		.loc 6 96 0
 3246              		.cfi_startproc
 3247              		.cfi_personality 0x3,__gxx_personality_v0
 3248              		.cfi_lsda 0x3,.LLSDA1150
 3249 13b0 55       		pushq	%rbp
 3250              		.cfi_def_cfa_offset 16
 3251              		.cfi_offset 6, -16
 3252 13b1 4889E5   		movq	%rsp, %rbp
 3253              		.cfi_def_cfa_register 6
 3254 13b4 4154     		pushq	%r12
 3255 13b6 53       		pushq	%rbx
 3256 13b7 4881ECC0 		subq	$448, %rsp
 3256      010000
 3257              		.cfi_offset 12, -24
 3258              		.cfi_offset 3, -32
 3259 13be 4889BD38 		movq	%rdi, -456(%rbp)
 3259      FEFFFF
 3260              		.loc 6 96 0
 3261 13c5 64488B04 		movq	%fs:40, %rax
 3261      25280000 
 3261      00
 3262 13ce 488945E8 		movq	%rax, -24(%rbp)
 3263 13d2 31C0     		xorl	%eax, %eax
 3264              	.LBB64:
 3265 13d4 C6854FFE 		movb	$0, -433(%rbp)
 3265      FFFF00
 3266              	.LBB65:
 3267 13db 488B8538 		movq	-456(%rbp), %rax
 3267      FEFFFF
 3268 13e2 488D5008 		leaq	8(%rax), %rdx
 3269 13e6 488D8560 		leaq	-416(%rbp), %rax
 3269      FEFFFF
 3270 13ed 4889D6   		movq	%rdx, %rsi
 3271 13f0 4889C7   		movq	%rax, %rdi
 3272 13f3 E850FFFF 		call	_ZN12_GLOBAL__N_134DummyFixtureMacroTestHelper2HelperC2ERKN8UnitTest11TestDetailsE
 3272      FF
 3273 13f8 C6854FFE 		movb	$1, -433(%rbp)
 3273      FFFF01
 3274 13ff 488B8538 		movq	-456(%rbp), %rax
 3274      FEFFFF
 3275 1406 488D5008 		leaq	8(%rax), %rdx
 3276 140a 488D8560 		leaq	-416(%rbp), %rax
 3276      FEFFFF
 3277 1411 4889D6   		movq	%rdx, %rsi
 3278 1414 4889C7   		movq	%rax, %rdi
 3279              	.LEHB68:
 3280 1417 E8112300 		call	_ZN8UnitTest11ExecuteTestIN12_GLOBAL__N_134DummyFixtureMacroTestHelper2HelperEEEvRT_RKNS_11Te
 3280      00
 3281              	.LEHE68:
 3282              	.LBE65:
 3283              	.LBE64:
 3284 141c E9470200 		jmp	.L179
 3284      00
 3285              	.L174:
 3286 1421 4889C3   		movq	%rax, %rbx
 3287              	.LBB72:
 3288              	.LBB66:
 3289 1424 E8000000 		call	__cxa_end_catch
 3289      00
 3290 1429 4889D8   		movq	%rbx, %rax
 3291 142c 4889C7   		movq	%rax, %rdi
 3292              	.LEHB69:
 3293 142f E8000000 		call	_Unwind_Resume
 3293      00
 3294              	.LEHE69:
 3295              	.L175:
 3296 1434 4889C3   		movq	%rax, %rbx
 3297              	.LBE66:
 3298              	.LBB67:
 3299              	.LBB68:
 3300 1437 488D8580 		leaq	-384(%rbp), %rax
 3300      FEFFFF
 3301 143e 4889C7   		movq	%rax, %rdi
 3302 1441 E8000000 		call	_ZN8UnitTest15MemoryOutStreamD1Ev
 3302      00
 3303 1446 EB03     		jmp	.L163
 3304              	.L176:
 3305 1448 4889C3   		movq	%rax, %rbx
 3306              	.L163:
 3307              	.LBE68:
 3308 144b E8000000 		call	__cxa_end_catch
 3308      00
 3309 1450 4889D8   		movq	%rbx, %rax
 3310 1453 4889C7   		movq	%rax, %rdi
 3311              	.LEHB70:
 3312 1456 E8000000 		call	_Unwind_Resume
 3312      00
 3313              	.LEHE70:
 3314              	.L177:
 3315 145b 4889C3   		movq	%rax, %rbx
 3316              	.LBE67:
 3317 145e E8000000 		call	__cxa_end_catch
 3317      00
 3318 1463 4889D8   		movq	%rbx, %rax
 3319 1466 4889C7   		movq	%rax, %rdi
 3320              	.LEHB71:
 3321 1469 E8000000 		call	_Unwind_Resume
 3321      00
 3322              	.LEHE71:
 3323              	.L173:
 3324 146e 4883FA01 		cmpq	$1, %rdx
 3325 1472 740F     		je	.L167
 3326 1474 4883FA02 		cmpq	$2, %rdx
 3327 1478 0F84A700 		je	.L168
 3327      0000
 3328 147e E94B0100 		jmp	.L178
 3328      00
 3329              	.L167:
 3330              	.LBB70:
 3331 1483 4889C7   		movq	%rax, %rdi
 3332 1486 E8000000 		call	__cxa_begin_catch
 3332      00
 3333 148b 48898550 		movq	%rax, -432(%rbp)
 3333      FEFFFF
 3334 1492 488B8550 		movq	-432(%rbp), %rax
 3334      FEFFFF
 3335 1499 488B00   		movq	(%rax), %rax
 3336 149c 4883C010 		addq	$16, %rax
 3337 14a0 488B00   		movq	(%rax), %rax
 3338 14a3 488B9550 		movq	-432(%rbp), %rdx
 3338      FEFFFF
 3339 14aa 4889D7   		movq	%rdx, %rdi
 3340 14ad FFD0     		call	*%rax
 3341 14af 4889C3   		movq	%rax, %rbx
 3342 14b2 488B8550 		movq	-432(%rbp), %rax
 3342      FEFFFF
 3343 14b9 4889C7   		movq	%rax, %rdi
 3344              	.LEHB72:
 3345 14bc E8000000 		call	_ZNK8UnitTest15AssertException10LineNumberEv
 3345      00
 3346 14c1 4189C4   		movl	%eax, %r12d
 3347 14c4 488B8550 		movq	-432(%rbp), %rax
 3347      FEFFFF
 3348 14cb 4889C7   		movq	%rax, %rdi
 3349 14ce E8000000 		call	_ZNK8UnitTest15AssertException8FilenameEv
 3349      00
 3350              		.loc 6 96 0 is_stmt 0 discriminator 2
 3351 14d3 4889C1   		movq	%rax, %rcx
 3352 14d6 488B8538 		movq	-456(%rbp), %rax
 3352      FEFFFF
 3353 14dd 488B5008 		movq	8(%rax), %rdx
 3354 14e1 488B8538 		movq	-456(%rbp), %rax
 3354      FEFFFF
 3355 14e8 488B7010 		movq	16(%rax), %rsi
 3356 14ec 488D8560 		leaq	-416(%rbp), %rax
 3356      FEFFFF
 3357 14f3 4589E0   		movl	%r12d, %r8d
 3358 14f6 4889C7   		movq	%rax, %rdi
 3359 14f9 E8000000 		call	_ZN8UnitTest11TestDetailsC1EPKcS2_S2_i
 3359      00
 3360              		.loc 6 96 0 discriminator 6
 3361 14fe E8000000 		call	_ZN8UnitTest11CurrentTest7ResultsEv
 3361      00
 3362 1503 488B00   		movq	(%rax), %rax
 3363 1506 488D8D60 		leaq	-416(%rbp), %rcx
 3363      FEFFFF
 3364 150d 4889DA   		movq	%rbx, %rdx
 3365 1510 4889CE   		movq	%rcx, %rsi
 3366 1513 4889C7   		movq	%rax, %rdi
 3367 1516 E8000000 		call	_ZN8UnitTest11TestResults13OnTestFailureERKNS_11TestDetailsEPKc
 3367      00
 3368              	.LEHE72:
 3369              		.loc 6 96 0 discriminator 10
 3370 151b E8000000 		call	__cxa_end_catch
 3370      00
 3371              	.LBE70:
 3372              	.LBE72:
 3373 1520 E9430100 		jmp	.L179
 3373      00
 3374              	.L168:
 3375              	.LBB73:
 3376              	.LBB71:
 3377              		.loc 6 96 0
 3378 1525 4889C7   		movq	%rax, %rdi
 3379 1528 E8000000 		call	__cxa_begin_catch
 3379      00
 3380 152d 48898558 		movq	%rax, -424(%rbp)
 3380      FEFFFF
 3381              	.LBB69:
 3382 1534 488D8580 		leaq	-384(%rbp), %rax
 3382      FEFFFF
 3383 153b 4889C7   		movq	%rax, %rdi
 3384              	.LEHB73:
 3385 153e E8000000 		call	_ZN8UnitTest15MemoryOutStreamC1Ev
 3385      00
 3386              	.LEHE73:
 3387              		.loc 6 96 0 discriminator 12
 3388 1543 488B8558 		movq	-424(%rbp), %rax
 3388      FEFFFF
 3389 154a 488B00   		movq	(%rax), %rax
 3390 154d 4883C010 		addq	$16, %rax
 3391 1551 488B00   		movq	(%rax), %rax
 3392 1554 488B9558 		movq	-424(%rbp), %rdx
 3392      FEFFFF
 3393 155b 4889D7   		movq	%rdx, %rdi
 3394 155e FFD0     		call	*%rax
 3395 1560 4889C3   		movq	%rax, %rbx
 3396 1563 488D8580 		leaq	-384(%rbp), %rax
 3396      FEFFFF
 3397 156a BE000000 		movl	$.LC11, %esi
 3397      00
 3398 156f 4889C7   		movq	%rax, %rdi
 3399              	.LEHB74:
 3400 1572 E8000000 		call	_ZStlsISt11char_traitsIcEERSt13basic_ostreamIcT_ES5_PKc
 3400      00
 3401 1577 4889DE   		movq	%rbx, %rsi
 3402 157a 4889C7   		movq	%rax, %rdi
 3403 157d E8000000 		call	_ZStlsISt11char_traitsIcEERSt13basic_ostreamIcT_ES5_PKc
 3403      00
 3404              		.loc 6 96 0 discriminator 16
 3405 1582 488D8580 		leaq	-384(%rbp), %rax
 3405      FEFFFF
 3406 1589 4889C7   		movq	%rax, %rdi
 3407 158c E8000000 		call	_ZNK8UnitTest15MemoryOutStream7GetTextEv
 3407      00
 3408 1591 4989C4   		movq	%rax, %r12
 3409 1594 488B8538 		movq	-456(%rbp), %rax
 3409      FEFFFF
 3410 159b 488D5808 		leaq	8(%rax), %rbx
 3411 159f E8000000 		call	_ZN8UnitTest11CurrentTest7ResultsEv
 3411      00
 3412              		.loc 6 96 0 discriminator 18
 3413 15a4 488B00   		movq	(%rax), %rax
 3414 15a7 4C89E2   		movq	%r12, %rdx
 3415 15aa 4889DE   		movq	%rbx, %rsi
 3416 15ad 4889C7   		movq	%rax, %rdi
 3417 15b0 E8000000 		call	_ZN8UnitTest11TestResults13OnTestFailureERKNS_11TestDetailsEPKc
 3417      00
 3418              	.LEHE74:
 3419              		.loc 6 96 0 discriminator 22
 3420 15b5 488D8580 		leaq	-384(%rbp), %rax
 3420      FEFFFF
 3421 15bc 4889C7   		movq	%rax, %rdi
 3422              	.LEHB75:
 3423 15bf E8000000 		call	_ZN8UnitTest15MemoryOutStreamD1Ev
 3423      00
 3424              	.LEHE75:
 3425              	.LBE69:
 3426              		.loc 6 96 0 discriminator 23
 3427 15c4 E8000000 		call	__cxa_end_catch
 3427      00
 3428              	.LBE71:
 3429              	.LBE73:
 3430 15c9 E99A0000 		jmp	.L179
 3430      00
 3431              	.L178:
 3432              	.LBB74:
 3433              		.loc 6 96 0
 3434 15ce 4889C7   		movq	%rax, %rdi
 3435 15d1 E8000000 		call	__cxa_begin_catch
 3435      00
 3436 15d6 80BD4FFE 		cmpb	$0, -433(%rbp)
 3436      FFFF00
 3437 15dd 7443     		je	.L170
 3438              		.loc 6 96 0 discriminator 25
 3439 15df 488B8538 		movq	-456(%rbp), %rax
 3439      FEFFFF
 3440 15e6 488D4808 		leaq	8(%rax), %rcx
 3441 15ea 488D8560 		leaq	-416(%rbp), %rax
 3441      FEFFFF
 3442 15f1 BA600000 		movl	$96, %edx
 3442      00
 3443 15f6 4889CE   		movq	%rcx, %rsi
 3444 15f9 4889C7   		movq	%rax, %rdi
 3445              	.LEHB76:
 3446 15fc E8000000 		call	_ZN8UnitTest11TestDetailsC1ERKS0_i
 3446      00
 3447              		.loc 6 96 0 discriminator 28
 3448 1601 E8000000 		call	_ZN8UnitTest11CurrentTest7ResultsEv
 3448      00
 3449 1606 488B00   		movq	(%rax), %rax
 3450 1609 488D8D60 		leaq	-416(%rbp), %rcx
 3450      FEFFFF
 3451 1610 BA000000 		movl	$.LC27, %edx
 3451      00
 3452 1615 4889CE   		movq	%rcx, %rsi
 3453 1618 4889C7   		movq	%rax, %rdi
 3454 161b E8000000 		call	_ZN8UnitTest11TestResults13OnTestFailureERKNS_11TestDetailsEPKc
 3454      00
 3455 1620 EB41     		jmp	.L171
 3456              	.L170:
 3457              		.loc 6 96 0 discriminator 26
 3458 1622 488B8538 		movq	-456(%rbp), %rax
 3458      FEFFFF
 3459 1629 488D4808 		leaq	8(%rax), %rcx
 3460 162d 488D8560 		leaq	-416(%rbp), %rax
 3460      FEFFFF
 3461 1634 BA600000 		movl	$96, %edx
 3461      00
 3462 1639 4889CE   		movq	%rcx, %rsi
 3463 163c 4889C7   		movq	%rax, %rdi
 3464 163f E8000000 		call	_ZN8UnitTest11TestDetailsC1ERKS0_i
 3464      00
 3465              		.loc 6 96 0 discriminator 35
 3466 1644 E8000000 		call	_ZN8UnitTest11CurrentTest7ResultsEv
 3466      00
 3467 1649 488B00   		movq	(%rax), %rax
 3468 164c 488D8D60 		leaq	-416(%rbp), %rcx
 3468      FEFFFF
 3469 1653 BA000000 		movl	$.LC28, %edx
 3469      00
 3470 1658 4889CE   		movq	%rcx, %rsi
 3471 165b 4889C7   		movq	%rax, %rdi
 3472 165e E8000000 		call	_ZN8UnitTest11TestResults13OnTestFailureERKNS_11TestDetailsEPKc
 3472      00
 3473              	.LEHE76:
 3474              	.L171:
 3475              	.LEHB77:
 3476              		.loc 6 96 0 discriminator 40
 3477 1663 E8000000 		call	__cxa_end_catch
 3477      00
 3478              	.LEHE77:
 3479              	.L179:
 3480              	.LBE74:
 3481              		.loc 6 96 0
 3482 1668 90       		nop
 3483 1669 488B45E8 		movq	-24(%rbp), %rax
 3484 166d 64483304 		xorq	%fs:40, %rax
 3484      25280000 
 3484      00
 3485 1676 7405     		je	.L172
 3486 1678 E8000000 		call	__stack_chk_fail
 3486      00
 3487              	.L172:
 3488 167d 4881C4C0 		addq	$448, %rsp
 3488      010000
 3489 1684 5B       		popq	%rbx
 3490 1685 415C     		popq	%r12
 3491 1687 5D       		popq	%rbp
 3492              		.cfi_def_cfa 7, 8
 3493 1688 C3       		ret
 3494              		.cfi_endproc
 3495              	.LFE1150:
 3496              		.section	.gcc_except_table
 3497              		.align 4
 3498              	.LLSDA1150:
 3499 01c8 FF       		.byte	0xff
 3500 01c9 03       		.byte	0x3
 3501 01ca 49       		.uleb128 .LLSDATT1150-.LLSDATTD1150
 3502              	.LLSDATTD1150:
 3503 01cb 01       		.byte	0x1
 3504 01cc 35       		.uleb128 .LLSDACSE1150-.LLSDACSB1150
 3505              	.LLSDACSB1150:
 3506 01cd 67       		.uleb128 .LEHB68-.LFB1150
 3507 01ce 05       		.uleb128 .LEHE68-.LEHB68
 3508 01cf BE01     		.uleb128 .L173-.LFB1150
 3509 01d1 05       		.uleb128 0x5
 3510 01d2 7F       		.uleb128 .LEHB69-.LFB1150
 3511 01d3 05       		.uleb128 .LEHE69-.LEHB69
 3512 01d4 00       		.uleb128 0
 3513 01d5 00       		.uleb128 0
 3514 01d6 A601     		.uleb128 .LEHB70-.LFB1150
 3515 01d8 05       		.uleb128 .LEHE70-.LEHB70
 3516 01d9 00       		.uleb128 0
 3517 01da 00       		.uleb128 0
 3518 01db B901     		.uleb128 .LEHB71-.LFB1150
 3519 01dd 05       		.uleb128 .LEHE71-.LEHB71
 3520 01de 00       		.uleb128 0
 3521 01df 00       		.uleb128 0
 3522 01e0 8C02     		.uleb128 .LEHB72-.LFB1150
 3523 01e2 5F       		.uleb128 .LEHE72-.LEHB72
 3524 01e3 71       		.uleb128 .L174-.LFB1150
 3525 01e4 00       		.uleb128 0
 3526 01e5 8E03     		.uleb128 .LEHB73-.LFB1150
 3527 01e7 05       		.uleb128 .LEHE73-.LEHB73
 3528 01e8 9801     		.uleb128 .L176-.LFB1150
 3529 01ea 00       		.uleb128 0
 3530 01eb C203     		.uleb128 .LEHB74-.LFB1150
 3531 01ed 43       		.uleb128 .LEHE74-.LEHB74
 3532 01ee 8401     		.uleb128 .L175-.LFB1150
 3533 01f0 00       		.uleb128 0
 3534 01f1 8F04     		.uleb128 .LEHB75-.LFB1150
 3535 01f3 05       		.uleb128 .LEHE75-.LEHB75
 3536 01f4 9801     		.uleb128 .L176-.LFB1150
 3537 01f6 00       		.uleb128 0
 3538 01f7 CC04     		.uleb128 .LEHB76-.LFB1150
 3539 01f9 67       		.uleb128 .LEHE76-.LEHB76
 3540 01fa AB01     		.uleb128 .L177-.LFB1150
 3541 01fc 00       		.uleb128 0
 3542 01fd B305     		.uleb128 .LEHB77-.LFB1150
 3543 01ff 05       		.uleb128 .LEHE77-.LEHB77
 3544 0200 00       		.uleb128 0
 3545 0201 00       		.uleb128 0
 3546              	.LLSDACSE1150:
 3547 0202 03       		.byte	0x3
 3548 0203 00       		.byte	0
 3549 0204 02       		.byte	0x2
 3550 0205 7D       		.byte	0x7d
 3551 0206 01       		.byte	0x1
 3552 0207 7D       		.byte	0x7d
 3553              		.align 4
 3554 0208 00000000 		.long	0
 3555              	
 3556 020c 00000000 		.long	_ZTISt9exception
 3557 0210 00000000 		.long	_ZTIN8UnitTest15AssertExceptionE
 3558              	.LLSDATT1150:
 3559              		.text
 3561 1689 90       		.align 2
 3563              	_ZN12_GLOBAL__N_134DummyFixtureMacroTestHelper2Helper7RunImplEv:
 3564              	.LFB1151:
  97:TestTestMacros.cpp **** {
 3565              		.loc 6 97 0 is_stmt 1
 3566              		.cfi_startproc
 3567 168a 55       		pushq	%rbp
 3568              		.cfi_def_cfa_offset 16
 3569              		.cfi_offset 6, -16
 3570 168b 4889E5   		movq	%rsp, %rbp
 3571              		.cfi_def_cfa_register 6
 3572 168e 48897DF8 		movq	%rdi, -8(%rbp)
  98:TestTestMacros.cpp **** }
 3573              		.loc 6 98 0
 3574 1692 5D       		popq	%rbp
 3575              		.cfi_def_cfa 7, 8
 3576 1693 C3       		ret
 3577              		.cfi_endproc
 3578              	.LFE1151:
 3580              		.section	.rodata
 3581 0603 00000000 		.align 8
 3581      00
 3582              	.LC37:
 3583 0608 54657374 		.string	"TestAddedWithTEST_FIXTURE_EXMacroGetsDefaultSuite"
 3583      41646465 
 3583      64576974 
 3583      68544553 
 3583      545F4649 
 3584              		.text
 3585              		.align 2
 3587              	_ZN12_GLOBAL__N_153TestTestAddedWithTEST_FIXTURE_EXMacroGetsDefaultSuiteC2Ev:
 3588              	.LFB1153:
  99:TestTestMacros.cpp **** 
 100:TestTestMacros.cpp **** TEST(TestAddedWithTEST_FIXTURE_EXMacroGetsDefaultSuite)
 3589              		.loc 6 100 0
 3590              		.cfi_startproc
 3591 1694 55       		pushq	%rbp
 3592              		.cfi_def_cfa_offset 16
 3593              		.cfi_offset 6, -16
 3594 1695 4889E5   		movq	%rsp, %rbp
 3595              		.cfi_def_cfa_register 6
 3596 1698 4883EC10 		subq	$16, %rsp
 3597 169c 48897DF8 		movq	%rdi, -8(%rbp)
 3598              	.LBB75:
 3599              		.loc 6 100 0
 3600 16a0 E8000000 		call	_ZN13UnitTestSuite12GetSuiteNameEv
 3600      00
 3601 16a5 4889C2   		movq	%rax, %rdx
 3602 16a8 488B45F8 		movq	-8(%rbp), %rax
 3603 16ac 41B86400 		movl	$100, %r8d
 3603      0000
 3604 16b2 B9000000 		movl	$.LC2, %ecx
 3604      00
 3605 16b7 BE000000 		movl	$.LC37, %esi
 3605      00
 3606 16bc 4889C7   		movq	%rax, %rdi
 3607 16bf E8000000 		call	_ZN8UnitTest4TestC2EPKcS2_S2_i
 3607      00
 3608 16c4 488B45F8 		movq	-8(%rbp), %rax
 3609 16c8 48C70000 		movq	$_ZTVN12_GLOBAL__N_153TestTestAddedWithTEST_FIXTURE_EXMacroGetsDefaultSuiteE+16, (%rax)
 3609      000000
 3610              	.LBE75:
 3611 16cf C9       		leave
 3612              		.cfi_def_cfa 7, 8
 3613 16d0 C3       		ret
 3614              		.cfi_endproc
 3615              	.LFE1153:
 3617              		.local	_ZN12_GLOBAL__N_161testTestAddedWithTEST_FIXTURE_EXMacroGetsDefaultSuiteInstanceE
 3618              		.comm	_ZN12_GLOBAL__N_161testTestAddedWithTEST_FIXTURE_EXMacroGetsDefaultSuiteInstanceE,56,32
 3619              		.local	_ZN12_GLOBAL__N_154adderTestAddedWithTEST_FIXTURE_EXMacroGetsDefaultSuiteE
 3620              		.comm	_ZN12_GLOBAL__N_154adderTestAddedWithTEST_FIXTURE_EXMacroGetsDefaultSuiteE,1,1
 3621              		.section	.rodata
 3622 063a 00000000 		.align 8
 3622      0000
 3623              	.LC38:
 3624 0640 6D616372 		.string	"macroTestList2.GetHead() != NULL"
 3624      6F546573 
 3624      744C6973 
 3624      74322E47 
 3624      65744865 
 3625 0661 00000000 		.align 8
 3625      000000
 3626              	.LC39:
 3627 0668 556E6861 		.string	"Unhandled exception in CHECK(macroTestList2.GetHead() != NULL)"
 3627      6E646C65 
 3627      64206578 
 3627      63657074 
 3627      696F6E20 
 3628 06a7 00       		.align 8
 3629              	.LC40:
 3630 06a8 556E6861 		.string	"Unhandled exception in CHECK_EQUAL(\"MacroTestHelper2\", macroTestList2.GetHead()->m_deta
 3630      6E646C65 
 3630      64206578 
 3630      63657074 
 3630      696F6E20 
 3631 070d 000000   		.align 8
 3632              	.LC41:
 3633 0710 556E6861 		.string	"Unhandled exception in CHECK_EQUAL(\"DefaultSuite\", macroTestList2.GetHead()->m_details.
 3633      6E646C65 
 3633      64206578 
 3633      63657074 
 3633      696F6E20 
 3634              		.text
 3635 16d1 90       		.align 2
 3637              	_ZNK12_GLOBAL__N_153TestTestAddedWithTEST_FIXTURE_EXMacroGetsDefaultSuite7RunImplEv:
 3638              	.LFB1155:
 101:TestTestMacros.cpp **** {
 3639              		.loc 6 101 0
 3640              		.cfi_startproc
 3641              		.cfi_personality 0x3,__gxx_personality_v0
 3642              		.cfi_lsda 0x3,.LLSDA1155
 3643 16d2 55       		pushq	%rbp
 3644              		.cfi_def_cfa_offset 16
 3645              		.cfi_offset 6, -16
 3646 16d3 4889E5   		movq	%rsp, %rbp
 3647              		.cfi_def_cfa_register 6
 3648 16d6 53       		pushq	%rbx
 3649 16d7 4883EC48 		subq	$72, %rsp
 3650              		.cfi_offset 3, -24
 3651 16db 48897DB8 		movq	%rdi, -72(%rbp)
 3652              		.loc 6 101 0
 3653 16df 64488B04 		movq	%fs:40, %rax
 3653      25280000 
 3653      00
 3654 16e8 488945E8 		movq	%rax, -24(%rbp)
 3655 16ec 31C0     		xorl	%eax, %eax
 102:TestTestMacros.cpp ****     CHECK(macroTestList2.GetHead() != NULL);
 3656              		.loc 6 102 0
 3657 16ee BF000000 		movl	$_ZN12_GLOBAL__N_114macroTestList2E, %edi
 3657      00
 3658              	.LEHB78:
 3659 16f3 E8000000 		call	_ZNK8UnitTest8TestList7GetHeadEv
 3659      00
 3660 16f8 4885C0   		testq	%rax, %rax
 3661 16fb 0F95C0   		setne	%al
 3662 16fe 0FB6C0   		movzbl	%al, %eax
 3663 1701 89C7     		movl	%eax, %edi
 3664 1703 E8000000 		call	_ZN8UnitTest5CheckIbEEbT_
 3664      00
 3665 1708 83F001   		xorl	$1, %eax
 3666 170b 84C0     		testb	%al, %al
 3667 170d 7438     		je	.L183
 3668              		.loc 6 102 0 is_stmt 0 discriminator 2
 3669 170f E8000000 		call	_ZN8UnitTest11CurrentTest7DetailsEv
 3669      00
 3670 1714 488B08   		movq	(%rax), %rcx
 3671 1717 488D45C0 		leaq	-64(%rbp), %rax
 3672 171b BA660000 		movl	$102, %edx
 3672      00
 3673 1720 4889CE   		movq	%rcx, %rsi
 3674 1723 4889C7   		movq	%rax, %rdi
 3675 1726 E8000000 		call	_ZN8UnitTest11TestDetailsC1ERKS0_i
 3675      00
 3676              		.loc 6 102 0 discriminator 4
 3677 172b E8000000 		call	_ZN8UnitTest11CurrentTest7ResultsEv
 3677      00
 3678 1730 488B00   		movq	(%rax), %rax
 3679 1733 488D4DC0 		leaq	-64(%rbp), %rcx
 3680 1737 BA000000 		movl	$.LC38, %edx
 3680      00
 3681 173c 4889CE   		movq	%rcx, %rsi
 3682 173f 4889C7   		movq	%rax, %rdi
 3683 1742 E8000000 		call	_ZN8UnitTest11TestResults13OnTestFailureERKNS_11TestDetailsEPKc
 3683      00
 3684              	.LEHE78:
 3685              	.L183:
 3686              	.LEHB79:
 103:TestTestMacros.cpp ****     CHECK_EQUAL ("MacroTestHelper2", macroTestList2.GetHead()->m_details.testName);
 3687              		.loc 6 103 0 is_stmt 1
 3688 1747 E8000000 		call	_ZN8UnitTest11CurrentTest7DetailsEv
 3688      00
 3689 174c 488B08   		movq	(%rax), %rcx
 3690 174f 488D45C0 		leaq	-64(%rbp), %rax
 3691 1753 BA670000 		movl	$103, %edx
 3691      00
 3692 1758 4889CE   		movq	%rcx, %rsi
 3693 175b 4889C7   		movq	%rax, %rdi
 3694 175e E8000000 		call	_ZN8UnitTest11TestDetailsC1ERKS0_i
 3694      00
 3695              		.loc 6 103 0 is_stmt 0 discriminator 2
 3696 1763 BF000000 		movl	$_ZN12_GLOBAL__N_114macroTestList2E, %edi
 3696      00
 3697 1768 E8000000 		call	_ZNK8UnitTest8TestList7GetHeadEv
 3697      00
 3698 176d 488B5810 		movq	16(%rax), %rbx
 3699 1771 E8000000 		call	_ZN8UnitTest11CurrentTest7ResultsEv
 3699      00
 3700              		.loc 6 103 0 discriminator 4
 3701 1776 488B00   		movq	(%rax), %rax
 3702 1779 488D55C0 		leaq	-64(%rbp), %rdx
 3703 177d 4889D1   		movq	%rdx, %rcx
 3704 1780 4889DA   		movq	%rbx, %rdx
 3705 1783 BE000000 		movl	$.LC36, %esi
 3705      00
 3706 1788 4889C7   		movq	%rax, %rdi
 3707 178b E8000000 		call	_ZN8UnitTest10CheckEqualERNS_11TestResultsEPKcS3_RKNS_11TestDetailsE
 3707      00
 3708              	.LEHE79:
 3709              	.L188:
 3710              	.LEHB80:
 104:TestTestMacros.cpp ****     CHECK_EQUAL ("DefaultSuite", macroTestList2.GetHead()->m_details.suiteName);
 3711              		.loc 6 104 0 is_stmt 1
 3712 1790 E8000000 		call	_ZN8UnitTest11CurrentTest7DetailsEv
 3712      00
 3713 1795 488B08   		movq	(%rax), %rcx
 3714 1798 488D45C0 		leaq	-64(%rbp), %rax
 3715 179c BA680000 		movl	$104, %edx
 3715      00
 3716 17a1 4889CE   		movq	%rcx, %rsi
 3717 17a4 4889C7   		movq	%rax, %rdi
 3718 17a7 E8000000 		call	_ZN8UnitTest11TestDetailsC1ERKS0_i
 3718      00
 3719              		.loc 6 104 0 is_stmt 0 discriminator 2
 3720 17ac BF000000 		movl	$_ZN12_GLOBAL__N_114macroTestList2E, %edi
 3720      00
 3721 17b1 E8000000 		call	_ZNK8UnitTest8TestList7GetHeadEv
 3721      00
 3722 17b6 488B5808 		movq	8(%rax), %rbx
 3723 17ba E8000000 		call	_ZN8UnitTest11CurrentTest7ResultsEv
 3723      00
 3724              		.loc 6 104 0 discriminator 4
 3725 17bf 488B00   		movq	(%rax), %rax
 3726 17c2 488D55C0 		leaq	-64(%rbp), %rdx
 3727 17c6 4889D1   		movq	%rdx, %rcx
 3728 17c9 4889DA   		movq	%rbx, %rdx
 3729 17cc BE000000 		movl	$.LC0, %esi
 3729      00
 3730 17d1 4889C7   		movq	%rax, %rdi
 3731 17d4 E8000000 		call	_ZN8UnitTest10CheckEqualERNS_11TestResultsEPKcS3_RKNS_11TestDetailsE
 3731      00
 3732              	.LEHE80:
 105:TestTestMacros.cpp **** }
 3733              		.loc 6 105 0 is_stmt 1
 3734 17d9 E9120100 		jmp	.L199
 3734      00
 3735              	.L194:
 3736 17de 4889C3   		movq	%rax, %rbx
 102:TestTestMacros.cpp ****     CHECK_EQUAL ("MacroTestHelper2", macroTestList2.GetHead()->m_details.testName);
 3737              		.loc 6 102 0
 3738 17e1 E8000000 		call	__cxa_end_catch
 3738      00
 3739 17e6 4889D8   		movq	%rbx, %rax
 3740 17e9 4889C7   		movq	%rax, %rdi
 3741              	.LEHB81:
 3742 17ec E8000000 		call	_Unwind_Resume
 3742      00
 3743              	.LEHE81:
 3744              	.L193:
 3745 17f1 4889C7   		movq	%rax, %rdi
 3746 17f4 E8000000 		call	__cxa_begin_catch
 3746      00
 3747              	.LEHB82:
 3748 17f9 E8000000 		call	_ZN8UnitTest11CurrentTest7DetailsEv
 3748      00
 3749 17fe 488B08   		movq	(%rax), %rcx
 3750 1801 488D45C0 		leaq	-64(%rbp), %rax
 3751 1805 BA660000 		movl	$102, %edx
 3751      00
 3752 180a 4889CE   		movq	%rcx, %rsi
 3753 180d 4889C7   		movq	%rax, %rdi
 3754 1810 E8000000 		call	_ZN8UnitTest11TestDetailsC1ERKS0_i
 3754      00
 102:TestTestMacros.cpp ****     CHECK_EQUAL ("MacroTestHelper2", macroTestList2.GetHead()->m_details.testName);
 3755              		.loc 6 102 0 is_stmt 0 discriminator 12
 3756 1815 E8000000 		call	_ZN8UnitTest11CurrentTest7ResultsEv
 3756      00
 3757 181a 488B00   		movq	(%rax), %rax
 3758 181d 488D4DC0 		leaq	-64(%rbp), %rcx
 3759 1821 BA000000 		movl	$.LC39, %edx
 3759      00
 3760 1826 4889CE   		movq	%rcx, %rsi
 3761 1829 4889C7   		movq	%rax, %rdi
 3762 182c E8000000 		call	_ZN8UnitTest11TestResults13OnTestFailureERKNS_11TestDetailsEPKc
 3762      00
 3763              	.LEHE82:
 3764              	.LEHB83:
 102:TestTestMacros.cpp ****     CHECK_EQUAL ("MacroTestHelper2", macroTestList2.GetHead()->m_details.testName);
 3765              		.loc 6 102 0 discriminator 16
 3766 1831 E8000000 		call	__cxa_end_catch
 3766      00
 3767              	.LEHE83:
 3768 1836 E90CFFFF 		jmp	.L183
 3768      FF
 3769              	.L196:
 3770 183b 4889C3   		movq	%rax, %rbx
 103:TestTestMacros.cpp ****     CHECK_EQUAL ("DefaultSuite", macroTestList2.GetHead()->m_details.suiteName);
 3771              		.loc 6 103 0 is_stmt 1
 3772 183e E8000000 		call	__cxa_end_catch
 3772      00
 3773 1843 4889D8   		movq	%rbx, %rax
 3774 1846 4889C7   		movq	%rax, %rdi
 3775              	.LEHB84:
 3776 1849 E8000000 		call	_Unwind_Resume
 3776      00
 3777              	.LEHE84:
 3778              	.L195:
 3779 184e 4889C7   		movq	%rax, %rdi
 3780 1851 E8000000 		call	__cxa_begin_catch
 3780      00
 3781              	.LEHB85:
 3782 1856 E8000000 		call	_ZN8UnitTest11CurrentTest7DetailsEv
 3782      00
 3783 185b 488B08   		movq	(%rax), %rcx
 3784 185e 488D45C0 		leaq	-64(%rbp), %rax
 3785 1862 BA670000 		movl	$103, %edx
 3785      00
 3786 1867 4889CE   		movq	%rcx, %rsi
 3787 186a 4889C7   		movq	%rax, %rdi
 3788 186d E8000000 		call	_ZN8UnitTest11TestDetailsC1ERKS0_i
 3788      00
 103:TestTestMacros.cpp ****     CHECK_EQUAL ("DefaultSuite", macroTestList2.GetHead()->m_details.suiteName);
 3789              		.loc 6 103 0 is_stmt 0 discriminator 12
 3790 1872 E8000000 		call	_ZN8UnitTest11CurrentTest7ResultsEv
 3790      00
 3791 1877 488B00   		movq	(%rax), %rax
 3792 187a 488D4DC0 		leaq	-64(%rbp), %rcx
 3793 187e BA000000 		movl	$.LC40, %edx
 3793      00
 3794 1883 4889CE   		movq	%rcx, %rsi
 3795 1886 4889C7   		movq	%rax, %rdi
 3796 1889 E8000000 		call	_ZN8UnitTest11TestResults13OnTestFailureERKNS_11TestDetailsEPKc
 3796      00
 3797              	.LEHE85:
 3798              	.LEHB86:
 103:TestTestMacros.cpp ****     CHECK_EQUAL ("DefaultSuite", macroTestList2.GetHead()->m_details.suiteName);
 3799              		.loc 6 103 0 discriminator 16
 3800 188e E8000000 		call	__cxa_end_catch
 3800      00
 3801              	.LEHE86:
 3802 1893 E9F8FEFF 		jmp	.L188
 3802      FF
 3803              	.L198:
 3804 1898 4889C3   		movq	%rax, %rbx
 104:TestTestMacros.cpp **** }
 3805              		.loc 6 104 0 is_stmt 1
 3806 189b E8000000 		call	__cxa_end_catch
 3806      00
 3807 18a0 4889D8   		movq	%rbx, %rax
 3808 18a3 4889C7   		movq	%rax, %rdi
 3809              	.LEHB87:
 3810 18a6 E8000000 		call	_Unwind_Resume
 3810      00
 3811              	.LEHE87:
 3812              	.L197:
 3813 18ab 4889C7   		movq	%rax, %rdi
 3814 18ae E8000000 		call	__cxa_begin_catch
 3814      00
 3815              	.LEHB88:
 3816 18b3 E8000000 		call	_ZN8UnitTest11CurrentTest7DetailsEv
 3816      00
 3817 18b8 488B08   		movq	(%rax), %rcx
 3818 18bb 488D45C0 		leaq	-64(%rbp), %rax
 3819 18bf BA680000 		movl	$104, %edx
 3819      00
 3820 18c4 4889CE   		movq	%rcx, %rsi
 3821 18c7 4889C7   		movq	%rax, %rdi
 3822 18ca E8000000 		call	_ZN8UnitTest11TestDetailsC1ERKS0_i
 3822      00
 104:TestTestMacros.cpp **** }
 3823              		.loc 6 104 0 is_stmt 0 discriminator 12
 3824 18cf E8000000 		call	_ZN8UnitTest11CurrentTest7ResultsEv
 3824      00
 3825 18d4 488B00   		movq	(%rax), %rax
 3826 18d7 488D4DC0 		leaq	-64(%rbp), %rcx
 3827 18db BA000000 		movl	$.LC41, %edx
 3827      00
 3828 18e0 4889CE   		movq	%rcx, %rsi
 3829 18e3 4889C7   		movq	%rax, %rdi
 3830 18e6 E8000000 		call	_ZN8UnitTest11TestResults13OnTestFailureERKNS_11TestDetailsEPKc
 3830      00
 3831              	.LEHE88:
 3832              	.LEHB89:
 104:TestTestMacros.cpp **** }
 3833              		.loc 6 104 0 discriminator 16
 3834 18eb E8000000 		call	__cxa_end_catch
 3834      00
 3835              	.LEHE89:
 3836              	.L199:
 3837              		.loc 6 105 0 is_stmt 1
 3838 18f0 90       		nop
 3839 18f1 488B45E8 		movq	-24(%rbp), %rax
 3840 18f5 64483304 		xorq	%fs:40, %rax
 3840      25280000 
 3840      00
 3841 18fe 7405     		je	.L192
 3842 1900 E8000000 		call	__stack_chk_fail
 3842      00
 3843              	.L192:
 3844 1905 4883C448 		addq	$72, %rsp
 3845 1909 5B       		popq	%rbx
 3846 190a 5D       		popq	%rbp
 3847              		.cfi_def_cfa 7, 8
 3848 190b C3       		ret
 3849              		.cfi_endproc
 3850              	.LFE1155:
 3851              		.section	.gcc_except_table
 3852              		.align 4
 3853              	.LLSDA1155:
 3854 0214 FF       		.byte	0xff
 3855 0215 03       		.byte	0x3
 3856 0216 49       		.uleb128 .LLSDATT1155-.LLSDATTD1155
 3857              	.LLSDATTD1155:
 3858 0217 01       		.byte	0x1
 3859 0218 40       		.uleb128 .LLSDACSE1155-.LLSDACSB1155
 3860              	.LLSDACSB1155:
 3861 0219 21       		.uleb128 .LEHB78-.LFB1155
 3862 021a 54       		.uleb128 .LEHE78-.LEHB78
 3863 021b 9F02     		.uleb128 .L193-.LFB1155
 3864 021d 01       		.uleb128 0x1
 3865 021e 75       		.uleb128 .LEHB79-.LFB1155
 3866 021f 49       		.uleb128 .LEHE79-.LEHB79
 3867 0220 FC02     		.uleb128 .L195-.LFB1155
 3868 0222 01       		.uleb128 0x1
 3869 0223 BE01     		.uleb128 .LEHB80-.LFB1155
 3870 0225 49       		.uleb128 .LEHE80-.LEHB80
 3871 0226 D903     		.uleb128 .L197-.LFB1155
 3872 0228 01       		.uleb128 0x1
 3873 0229 9A02     		.uleb128 .LEHB81-.LFB1155
 3874 022b 05       		.uleb128 .LEHE81-.LEHB81
 3875 022c 00       		.uleb128 0
 3876 022d 00       		.uleb128 0
 3877 022e A702     		.uleb128 .LEHB82-.LFB1155
 3878 0230 38       		.uleb128 .LEHE82-.LEHB82
 3879 0231 8C02     		.uleb128 .L194-.LFB1155
 3880 0233 00       		.uleb128 0
 3881 0234 DF02     		.uleb128 .LEHB83-.LFB1155
 3882 0236 05       		.uleb128 .LEHE83-.LEHB83
 3883 0237 00       		.uleb128 0
 3884 0238 00       		.uleb128 0
 3885 0239 F702     		.uleb128 .LEHB84-.LFB1155
 3886 023b 05       		.uleb128 .LEHE84-.LEHB84
 3887 023c 00       		.uleb128 0
 3888 023d 00       		.uleb128 0
 3889 023e 8403     		.uleb128 .LEHB85-.LFB1155
 3890 0240 38       		.uleb128 .LEHE85-.LEHB85
 3891 0241 E902     		.uleb128 .L196-.LFB1155
 3892 0243 00       		.uleb128 0
 3893 0244 BC03     		.uleb128 .LEHB86-.LFB1155
 3894 0246 05       		.uleb128 .LEHE86-.LEHB86
 3895 0247 00       		.uleb128 0
 3896 0248 00       		.uleb128 0
 3897 0249 D403     		.uleb128 .LEHB87-.LFB1155
 3898 024b 05       		.uleb128 .LEHE87-.LEHB87
 3899 024c 00       		.uleb128 0
 3900 024d 00       		.uleb128 0
 3901 024e E103     		.uleb128 .LEHB88-.LFB1155
 3902 0250 38       		.uleb128 .LEHE88-.LEHB88
 3903 0251 C603     		.uleb128 .L198-.LFB1155
 3904 0253 00       		.uleb128 0
 3905 0254 9904     		.uleb128 .LEHB89-.LFB1155
 3906 0256 05       		.uleb128 .LEHE89-.LEHB89
 3907 0257 00       		.uleb128 0
 3908 0258 00       		.uleb128 0
 3909              	.LLSDACSE1155:
 3910 0259 01       		.byte	0x1
 3911 025a 00       		.byte	0
 3912 025b 00       		.align 4
 3913 025c 00000000 		.long	0
 3914              	
 3915              	.LLSDATT1155:
 3916              		.text
 3918              		.section	.rodata
 3919              	.LC42:
 3920 0772 65786365 		.string	"exception"
 3920      7074696F 
 3920      6E00
 3921              		.text
 3922              		.align 2
 3924              	_ZN12_GLOBAL__N_117FixtureCtorThrowsC2Ev:
 3925              	.LFB1157:
 106:TestTestMacros.cpp **** 
 107:TestTestMacros.cpp **** struct FixtureCtorThrows
 108:TestTestMacros.cpp **** {
 109:TestTestMacros.cpp **** 	FixtureCtorThrows()	{ throw "exception"; }
 3926              		.loc 6 109 0
 3927              		.cfi_startproc
 3928 190c 55       		pushq	%rbp
 3929              		.cfi_def_cfa_offset 16
 3930              		.cfi_offset 6, -16
 3931 190d 4889E5   		movq	%rsp, %rbp
 3932              		.cfi_def_cfa_register 6
 3933 1910 4883EC10 		subq	$16, %rsp
 3934 1914 48897DF8 		movq	%rdi, -8(%rbp)
 3935              	.LBB76:
 3936              		.loc 6 109 0
 3937 1918 BF080000 		movl	$8, %edi
 3937      00
 3938 191d E8000000 		call	__cxa_allocate_exception
 3938      00
 3939 1922 48C70000 		movq	$.LC42, (%rax)
 3939      000000
 3940 1929 BA000000 		movl	$0, %edx
 3940      00
 3941 192e BE000000 		movl	$_ZTIPKc, %esi
 3941      00
 3942 1933 4889C7   		movq	%rax, %rdi
 3943 1936 E8000000 		call	__cxa_throw
 3943      00
 3944              	.LBE76:
 3945              		.cfi_endproc
 3946              	.LFE1157:
 3948              		.local	_ZN12_GLOBAL__N_124throwingFixtureTestList1E
 3949              		.comm	_ZN12_GLOBAL__N_124throwingFixtureTestList1E,16,16
 3950 193b 90       		.align 2
 3952              	_ZN12_GLOBAL__N_148FixtureCtorThrowsFixtureCtorThrowsTestNameHelperC2ERKN8UnitTest11TestDetailsE:
 3953              	.LFB1160:
 110:TestTestMacros.cpp **** };
 111:TestTestMacros.cpp **** 
 112:TestTestMacros.cpp **** TestList throwingFixtureTestList1;
 113:TestTestMacros.cpp **** TEST_FIXTURE_EX(FixtureCtorThrows, FixtureCtorThrowsTestName, throwingFixtureTestList1)
 3954              		.loc 6 113 0
 3955              		.cfi_startproc
 3956 193c 55       		pushq	%rbp
 3957              		.cfi_def_cfa_offset 16
 3958              		.cfi_offset 6, -16
 3959 193d 4889E5   		movq	%rsp, %rbp
 3960              		.cfi_def_cfa_register 6
 3961 1940 4883EC10 		subq	$16, %rsp
 3962 1944 48897DF8 		movq	%rdi, -8(%rbp)
 3963 1948 488975F0 		movq	%rsi, -16(%rbp)
 3964              	.LBB77:
 3965              		.loc 6 113 0
 3966 194c 488B45F8 		movq	-8(%rbp), %rax
 3967 1950 4889C7   		movq	%rax, %rdi
 3968 1953 E8B4FFFF 		call	_ZN12_GLOBAL__N_117FixtureCtorThrowsC2Ev
 3968      FF
 3969 1958 488B45F8 		movq	-8(%rbp), %rax
 3970 195c 488B55F0 		movq	-16(%rbp), %rdx
 3971 1960 488910   		movq	%rdx, (%rax)
 3972              	.LBE77:
 3973 1963 C9       		leave
 3974              		.cfi_def_cfa 7, 8
 3975 1964 C3       		ret
 3976              		.cfi_endproc
 3977              	.LFE1160:
 3979              		.section	.rodata
 3980              	.LC43:
 3981 077c 46697874 		.string	"FixtureCtorThrowsTestName"
 3981      75726543 
 3981      746F7254 
 3981      68726F77 
 3981      73546573 
 3982              		.text
 3983 1965 90       		.align 2
 3985              	_ZN12_GLOBAL__N_146TestFixtureCtorThrowsFixtureCtorThrowsTestNameC2Ev:
 3986              	.LFB1163:
 3987              		.loc 6 113 0
 3988              		.cfi_startproc
 3989 1966 55       		pushq	%rbp
 3990              		.cfi_def_cfa_offset 16
 3991              		.cfi_offset 6, -16
 3992 1967 4889E5   		movq	%rsp, %rbp
 3993              		.cfi_def_cfa_register 6
 3994 196a 4883EC10 		subq	$16, %rsp
 3995 196e 48897DF8 		movq	%rdi, -8(%rbp)
 3996              	.LBB78:
 3997              		.loc 6 113 0
 3998 1972 E8000000 		call	_ZN13UnitTestSuite12GetSuiteNameEv
 3998      00
 3999 1977 4889C2   		movq	%rax, %rdx
 4000 197a 488B45F8 		movq	-8(%rbp), %rax
 4001 197e 41B87100 		movl	$113, %r8d
 4001      0000
 4002 1984 B9000000 		movl	$.LC2, %ecx
 4002      00
 4003 1989 BE000000 		movl	$.LC43, %esi
 4003      00
 4004 198e 4889C7   		movq	%rax, %rdi
 4005 1991 E8000000 		call	_ZN8UnitTest4TestC2EPKcS2_S2_i
 4005      00
 4006 1996 488B45F8 		movq	-8(%rbp), %rax
 4007 199a 48C70000 		movq	$_ZTVN12_GLOBAL__N_146TestFixtureCtorThrowsFixtureCtorThrowsTestNameE+16, (%rax)
 4007      000000
 4008              	.LBE78:
 4009 19a1 C9       		leave
 4010              		.cfi_def_cfa 7, 8
 4011 19a2 C3       		ret
 4012              		.cfi_endproc
 4013              	.LFE1163:
 4015              		.local	_ZN12_GLOBAL__N_154testFixtureCtorThrowsFixtureCtorThrowsTestNameInstanceE
 4016              		.comm	_ZN12_GLOBAL__N_154testFixtureCtorThrowsFixtureCtorThrowsTestNameInstanceE,56,32
 4017              		.local	_ZN12_GLOBAL__N_147adderFixtureCtorThrowsFixtureCtorThrowsTestNameE
 4018              		.comm	_ZN12_GLOBAL__N_147adderFixtureCtorThrowsFixtureCtorThrowsTestNameE,1,1
 4019              		.section	.rodata
 4020 0796 0000     		.align 8
 4021              	.LC44:
 4022 0798 556E6861 		.string	"Unhandled exception while destroying fixture FixtureCtorThrows"
 4022      6E646C65 
 4022      64206578 
 4022      63657074 
 4022      696F6E20 
 4023 07d7 00       		.align 8
 4024              	.LC45:
 4025 07d8 556E6861 		.string	"Unhandled exception while constructing fixture FixtureCtorThrows"
 4025      6E646C65 
 4025      64206578 
 4025      63657074 
 4025      696F6E20 
 4026              		.text
 4027 19a3 90       		.align 2
 4029              	_ZNK12_GLOBAL__N_146TestFixtureCtorThrowsFixtureCtorThrowsTestName7RunImplEv:
 4030              	.LFB1165:
 4031              		.loc 6 113 0
 4032              		.cfi_startproc
 4033              		.cfi_personality 0x3,__gxx_personality_v0
 4034              		.cfi_lsda 0x3,.LLSDA1165
 4035 19a4 55       		pushq	%rbp
 4036              		.cfi_def_cfa_offset 16
 4037              		.cfi_offset 6, -16
 4038 19a5 4889E5   		movq	%rsp, %rbp
 4039              		.cfi_def_cfa_register 6
 4040 19a8 4154     		pushq	%r12
 4041 19aa 53       		pushq	%rbx
 4042 19ab 4881ECC0 		subq	$448, %rsp
 4042      010000
 4043              		.cfi_offset 12, -24
 4044              		.cfi_offset 3, -32
 4045 19b2 4889BD38 		movq	%rdi, -456(%rbp)
 4045      FEFFFF
 4046              		.loc 6 113 0
 4047 19b9 64488B04 		movq	%fs:40, %rax
 4047      25280000 
 4047      00
 4048 19c2 488945E8 		movq	%rax, -24(%rbp)
 4049 19c6 31C0     		xorl	%eax, %eax
 4050              	.LBB79:
 4051 19c8 C6854FFE 		movb	$0, -433(%rbp)
 4051      FFFF00
 4052              	.LBB80:
 4053 19cf 488B8538 		movq	-456(%rbp), %rax
 4053      FEFFFF
 4054 19d6 488D5008 		leaq	8(%rax), %rdx
 4055 19da 488D8560 		leaq	-416(%rbp), %rax
 4055      FEFFFF
 4056 19e1 4889D6   		movq	%rdx, %rsi
 4057 19e4 4889C7   		movq	%rax, %rdi
 4058              	.LEHB90:
 4059 19e7 E850FFFF 		call	_ZN12_GLOBAL__N_148FixtureCtorThrowsFixtureCtorThrowsTestNameHelperC2ERKN8UnitTest11TestDetai
 4059      FF
 4060              		.loc 6 113 0 is_stmt 0 discriminator 1
 4061 19ec C6854FFE 		movb	$1, -433(%rbp)
 4061      FFFF01
 4062 19f3 488B8538 		movq	-456(%rbp), %rax
 4062      FEFFFF
 4063 19fa 488D5008 		leaq	8(%rax), %rdx
 4064 19fe 488D8560 		leaq	-416(%rbp), %rax
 4064      FEFFFF
 4065 1a05 4889D6   		movq	%rdx, %rsi
 4066 1a08 4889C7   		movq	%rax, %rdi
 4067 1a0b E8DB1F00 		call	_ZN8UnitTest11ExecuteTestIN12_GLOBAL__N_148FixtureCtorThrowsFixtureCtorThrowsTestNameHelperEE
 4067      00
 4068              	.LEHE90:
 4069              	.LBE80:
 4070              	.LBE79:
 4071              		.loc 6 113 0
 4072 1a10 E9470200 		jmp	.L222
 4072      00
 4073              	.L216:
 4074 1a15 4883FA01 		cmpq	$1, %rdx
 4075 1a19 745C     		je	.L206
 4076 1a1b 4883FA02 		cmpq	$2, %rdx
 4077 1a1f 0F84F400 		je	.L207
 4077      0000
 4078 1a25 E9980100 		jmp	.L221
 4078      00
 4079              	.L217:
 4080 1a2a 4889C3   		movq	%rax, %rbx
 4081              	.LBB87:
 4082              	.LBB81:
 4083 1a2d E8000000 		call	__cxa_end_catch
 4083      00
 4084 1a32 4889D8   		movq	%rbx, %rax
 4085 1a35 4889C7   		movq	%rax, %rdi
 4086              	.LEHB91:
 4087 1a38 E8000000 		call	_Unwind_Resume
 4087      00
 4088              	.LEHE91:
 4089              	.L218:
 4090 1a3d 4889C3   		movq	%rax, %rbx
 4091              	.LBE81:
 4092              	.LBB82:
 4093              	.LBB83:
 4094 1a40 488D8580 		leaq	-384(%rbp), %rax
 4094      FEFFFF
 4095 1a47 4889C7   		movq	%rax, %rdi
 4096 1a4a E8000000 		call	_ZN8UnitTest15MemoryOutStreamD1Ev
 4096      00
 4097 1a4f EB03     		jmp	.L210
 4098              	.L219:
 4099 1a51 4889C3   		movq	%rax, %rbx
 4100              	.L210:
 4101              	.LBE83:
 4102 1a54 E8000000 		call	__cxa_end_catch
 4102      00
 4103 1a59 4889D8   		movq	%rbx, %rax
 4104 1a5c 4889C7   		movq	%rax, %rdi
 4105              	.LEHB92:
 4106 1a5f E8000000 		call	_Unwind_Resume
 4106      00
 4107              	.LEHE92:
 4108              	.L220:
 4109 1a64 4889C3   		movq	%rax, %rbx
 4110              	.LBE82:
 4111 1a67 E8000000 		call	__cxa_end_catch
 4111      00
 4112 1a6c 4889D8   		movq	%rbx, %rax
 4113 1a6f 4889C7   		movq	%rax, %rdi
 4114              	.LEHB93:
 4115 1a72 E8000000 		call	_Unwind_Resume
 4115      00
 4116              	.LEHE93:
 4117              	.L206:
 4118              	.LBB85:
 4119 1a77 4889C7   		movq	%rax, %rdi
 4120 1a7a E8000000 		call	__cxa_begin_catch
 4120      00
 4121 1a7f 48898550 		movq	%rax, -432(%rbp)
 4121      FEFFFF
 4122 1a86 488B8550 		movq	-432(%rbp), %rax
 4122      FEFFFF
 4123 1a8d 488B00   		movq	(%rax), %rax
 4124 1a90 4883C010 		addq	$16, %rax
 4125 1a94 488B00   		movq	(%rax), %rax
 4126 1a97 488B9550 		movq	-432(%rbp), %rdx
 4126      FEFFFF
 4127 1a9e 4889D7   		movq	%rdx, %rdi
 4128 1aa1 FFD0     		call	*%rax
 4129 1aa3 4889C3   		movq	%rax, %rbx
 4130 1aa6 488B8550 		movq	-432(%rbp), %rax
 4130      FEFFFF
 4131 1aad 4889C7   		movq	%rax, %rdi
 4132              	.LEHB94:
 4133 1ab0 E8000000 		call	_ZNK8UnitTest15AssertException10LineNumberEv
 4133      00
 4134 1ab5 4189C4   		movl	%eax, %r12d
 4135 1ab8 488B8550 		movq	-432(%rbp), %rax
 4135      FEFFFF
 4136 1abf 4889C7   		movq	%rax, %rdi
 4137 1ac2 E8000000 		call	_ZNK8UnitTest15AssertException8FilenameEv
 4137      00
 4138              		.loc 6 113 0 discriminator 3
 4139 1ac7 4889C1   		movq	%rax, %rcx
 4140 1aca 488B8538 		movq	-456(%rbp), %rax
 4140      FEFFFF
 4141 1ad1 488B5008 		movq	8(%rax), %rdx
 4142 1ad5 488B8538 		movq	-456(%rbp), %rax
 4142      FEFFFF
 4143 1adc 488B7010 		movq	16(%rax), %rsi
 4144 1ae0 488D8560 		leaq	-416(%rbp), %rax
 4144      FEFFFF
 4145 1ae7 4589E0   		movl	%r12d, %r8d
 4146 1aea 4889C7   		movq	%rax, %rdi
 4147 1aed E8000000 		call	_ZN8UnitTest11TestDetailsC1EPKcS2_S2_i
 4147      00
 4148              		.loc 6 113 0 discriminator 7
 4149 1af2 E8000000 		call	_ZN8UnitTest11CurrentTest7ResultsEv
 4149      00
 4150 1af7 488B00   		movq	(%rax), %rax
 4151 1afa 488D8D60 		leaq	-416(%rbp), %rcx
 4151      FEFFFF
 4152 1b01 4889DA   		movq	%rbx, %rdx
 4153 1b04 4889CE   		movq	%rcx, %rsi
 4154 1b07 4889C7   		movq	%rax, %rdi
 4155 1b0a E8000000 		call	_ZN8UnitTest11TestResults13OnTestFailureERKNS_11TestDetailsEPKc
 4155      00
 4156              	.LEHE94:
 4157              		.loc 6 113 0 discriminator 11
 4158 1b0f E8000000 		call	__cxa_end_catch
 4158      00
 4159              	.LBE85:
 4160              	.LBE87:
 4161 1b14 E9430100 		jmp	.L222
 4161      00
 4162              	.L207:
 4163              	.LBB88:
 4164              	.LBB86:
 4165              		.loc 6 113 0
 4166 1b19 4889C7   		movq	%rax, %rdi
 4167 1b1c E8000000 		call	__cxa_begin_catch
 4167      00
 4168 1b21 48898558 		movq	%rax, -424(%rbp)
 4168      FEFFFF
 4169              	.LBB84:
 4170 1b28 488D8580 		leaq	-384(%rbp), %rax
 4170      FEFFFF
 4171 1b2f 4889C7   		movq	%rax, %rdi
 4172              	.LEHB95:
 4173 1b32 E8000000 		call	_ZN8UnitTest15MemoryOutStreamC1Ev
 4173      00
 4174              	.LEHE95:
 4175              		.loc 6 113 0 discriminator 13
 4176 1b37 488B8558 		movq	-424(%rbp), %rax
 4176      FEFFFF
 4177 1b3e 488B00   		movq	(%rax), %rax
 4178 1b41 4883C010 		addq	$16, %rax
 4179 1b45 488B00   		movq	(%rax), %rax
 4180 1b48 488B9558 		movq	-424(%rbp), %rdx
 4180      FEFFFF
 4181 1b4f 4889D7   		movq	%rdx, %rdi
 4182 1b52 FFD0     		call	*%rax
 4183 1b54 4889C3   		movq	%rax, %rbx
 4184 1b57 488D8580 		leaq	-384(%rbp), %rax
 4184      FEFFFF
 4185 1b5e BE000000 		movl	$.LC11, %esi
 4185      00
 4186 1b63 4889C7   		movq	%rax, %rdi
 4187              	.LEHB96:
 4188 1b66 E8000000 		call	_ZStlsISt11char_traitsIcEERSt13basic_ostreamIcT_ES5_PKc
 4188      00
 4189 1b6b 4889DE   		movq	%rbx, %rsi
 4190 1b6e 4889C7   		movq	%rax, %rdi
 4191 1b71 E8000000 		call	_ZStlsISt11char_traitsIcEERSt13basic_ostreamIcT_ES5_PKc
 4191      00
 4192              		.loc 6 113 0 discriminator 17
 4193 1b76 488D8580 		leaq	-384(%rbp), %rax
 4193      FEFFFF
 4194 1b7d 4889C7   		movq	%rax, %rdi
 4195 1b80 E8000000 		call	_ZNK8UnitTest15MemoryOutStream7GetTextEv
 4195      00
 4196 1b85 4989C4   		movq	%rax, %r12
 4197 1b88 488B8538 		movq	-456(%rbp), %rax
 4197      FEFFFF
 4198 1b8f 488D5808 		leaq	8(%rax), %rbx
 4199 1b93 E8000000 		call	_ZN8UnitTest11CurrentTest7ResultsEv
 4199      00
 4200              		.loc 6 113 0 discriminator 19
 4201 1b98 488B00   		movq	(%rax), %rax
 4202 1b9b 4C89E2   		movq	%r12, %rdx
 4203 1b9e 4889DE   		movq	%rbx, %rsi
 4204 1ba1 4889C7   		movq	%rax, %rdi
 4205 1ba4 E8000000 		call	_ZN8UnitTest11TestResults13OnTestFailureERKNS_11TestDetailsEPKc
 4205      00
 4206              	.LEHE96:
 4207              		.loc 6 113 0 discriminator 23
 4208 1ba9 488D8580 		leaq	-384(%rbp), %rax
 4208      FEFFFF
 4209 1bb0 4889C7   		movq	%rax, %rdi
 4210              	.LEHB97:
 4211 1bb3 E8000000 		call	_ZN8UnitTest15MemoryOutStreamD1Ev
 4211      00
 4212              	.LEHE97:
 4213              	.LBE84:
 4214              		.loc 6 113 0 discriminator 24
 4215 1bb8 E8000000 		call	__cxa_end_catch
 4215      00
 4216              	.LBE86:
 4217              	.LBE88:
 4218 1bbd E99A0000 		jmp	.L222
 4218      00
 4219              	.L221:
 4220              	.LBB89:
 4221              		.loc 6 113 0
 4222 1bc2 4889C7   		movq	%rax, %rdi
 4223 1bc5 E8000000 		call	__cxa_begin_catch
 4223      00
 4224 1bca 80BD4FFE 		cmpb	$0, -433(%rbp)
 4224      FFFF00
 4225 1bd1 7443     		je	.L213
 4226              		.loc 6 113 0 discriminator 26
 4227 1bd3 488B8538 		movq	-456(%rbp), %rax
 4227      FEFFFF
 4228 1bda 488D4808 		leaq	8(%rax), %rcx
 4229 1bde 488D8560 		leaq	-416(%rbp), %rax
 4229      FEFFFF
 4230 1be5 BA710000 		movl	$113, %edx
 4230      00
 4231 1bea 4889CE   		movq	%rcx, %rsi
 4232 1bed 4889C7   		movq	%rax, %rdi
 4233              	.LEHB98:
 4234 1bf0 E8000000 		call	_ZN8UnitTest11TestDetailsC1ERKS0_i
 4234      00
 4235              		.loc 6 113 0 discriminator 29
 4236 1bf5 E8000000 		call	_ZN8UnitTest11CurrentTest7ResultsEv
 4236      00
 4237 1bfa 488B00   		movq	(%rax), %rax
 4238 1bfd 488D8D60 		leaq	-416(%rbp), %rcx
 4238      FEFFFF
 4239 1c04 BA000000 		movl	$.LC44, %edx
 4239      00
 4240 1c09 4889CE   		movq	%rcx, %rsi
 4241 1c0c 4889C7   		movq	%rax, %rdi
 4242 1c0f E8000000 		call	_ZN8UnitTest11TestResults13OnTestFailureERKNS_11TestDetailsEPKc
 4242      00
 4243 1c14 EB41     		jmp	.L214
 4244              	.L213:
 4245              		.loc 6 113 0 discriminator 27
 4246 1c16 488B8538 		movq	-456(%rbp), %rax
 4246      FEFFFF
 4247 1c1d 488D4808 		leaq	8(%rax), %rcx
 4248 1c21 488D8560 		leaq	-416(%rbp), %rax
 4248      FEFFFF
 4249 1c28 BA710000 		movl	$113, %edx
 4249      00
 4250 1c2d 4889CE   		movq	%rcx, %rsi
 4251 1c30 4889C7   		movq	%rax, %rdi
 4252 1c33 E8000000 		call	_ZN8UnitTest11TestDetailsC1ERKS0_i
 4252      00
 4253              		.loc 6 113 0 discriminator 36
 4254 1c38 E8000000 		call	_ZN8UnitTest11CurrentTest7ResultsEv
 4254      00
 4255 1c3d 488B00   		movq	(%rax), %rax
 4256 1c40 488D8D60 		leaq	-416(%rbp), %rcx
 4256      FEFFFF
 4257 1c47 BA000000 		movl	$.LC45, %edx
 4257      00
 4258 1c4c 4889CE   		movq	%rcx, %rsi
 4259 1c4f 4889C7   		movq	%rax, %rdi
 4260 1c52 E8000000 		call	_ZN8UnitTest11TestResults13OnTestFailureERKNS_11TestDetailsEPKc
 4260      00
 4261              	.LEHE98:
 4262              	.L214:
 4263              	.LEHB99:
 4264              		.loc 6 113 0 discriminator 41
 4265 1c57 E8000000 		call	__cxa_end_catch
 4265      00
 4266              	.LEHE99:
 4267              	.L222:
 4268              	.LBE89:
 4269              		.loc 6 113 0
 4270 1c5c 90       		nop
 4271 1c5d 488B45E8 		movq	-24(%rbp), %rax
 4272 1c61 64483304 		xorq	%fs:40, %rax
 4272      25280000 
 4272      00
 4273 1c6a 7405     		je	.L215
 4274 1c6c E8000000 		call	__stack_chk_fail
 4274      00
 4275              	.L215:
 4276 1c71 4881C4C0 		addq	$448, %rsp
 4276      010000
 4277 1c78 5B       		popq	%rbx
 4278 1c79 415C     		popq	%r12
 4279 1c7b 5D       		popq	%rbp
 4280              		.cfi_def_cfa 7, 8
 4281 1c7c C3       		ret
 4282              		.cfi_endproc
 4283              	.LFE1165:
 4284              		.section	.gcc_except_table
 4285              		.align 4
 4286              	.LLSDA1165:
 4287 0260 FF       		.byte	0xff
 4288 0261 03       		.byte	0x3
 4289 0262 4D       		.uleb128 .LLSDATT1165-.LLSDATTD1165
 4290              	.LLSDATTD1165:
 4291 0263 01       		.byte	0x1
 4292 0264 36       		.uleb128 .LLSDACSE1165-.LLSDACSB1165
 4293              	.LLSDACSB1165:
 4294 0265 43       		.uleb128 .LEHB90-.LFB1165
 4295 0266 29       		.uleb128 .LEHE90-.LEHB90
 4296 0267 71       		.uleb128 .L216-.LFB1165
 4297 0268 05       		.uleb128 0x5
 4298 0269 9401     		.uleb128 .LEHB91-.LFB1165
 4299 026b 05       		.uleb128 .LEHE91-.LEHB91
 4300 026c 00       		.uleb128 0
 4301 026d 00       		.uleb128 0
 4302 026e BB01     		.uleb128 .LEHB92-.LFB1165
 4303 0270 05       		.uleb128 .LEHE92-.LEHB92
 4304 0271 00       		.uleb128 0
 4305 0272 00       		.uleb128 0
 4306 0273 CE01     		.uleb128 .LEHB93-.LFB1165
 4307 0275 05       		.uleb128 .LEHE93-.LEHB93
 4308 0276 00       		.uleb128 0
 4309 0277 00       		.uleb128 0
 4310 0278 8C02     		.uleb128 .LEHB94-.LFB1165
 4311 027a 5F       		.uleb128 .LEHE94-.LEHB94
 4312 027b 8601     		.uleb128 .L217-.LFB1165
 4313 027d 00       		.uleb128 0
 4314 027e 8E03     		.uleb128 .LEHB95-.LFB1165
 4315 0280 05       		.uleb128 .LEHE95-.LEHB95
 4316 0281 AD01     		.uleb128 .L219-.LFB1165
 4317 0283 00       		.uleb128 0
 4318 0284 C203     		.uleb128 .LEHB96-.LFB1165
 4319 0286 43       		.uleb128 .LEHE96-.LEHB96
 4320 0287 9901     		.uleb128 .L218-.LFB1165
 4321 0289 00       		.uleb128 0
 4322 028a 8F04     		.uleb128 .LEHB97-.LFB1165
 4323 028c 05       		.uleb128 .LEHE97-.LEHB97
 4324 028d AD01     		.uleb128 .L219-.LFB1165
 4325 028f 00       		.uleb128 0
 4326 0290 CC04     		.uleb128 .LEHB98-.LFB1165
 4327 0292 67       		.uleb128 .LEHE98-.LEHB98
 4328 0293 C001     		.uleb128 .L220-.LFB1165
 4329 0295 00       		.uleb128 0
 4330 0296 B305     		.uleb128 .LEHB99-.LFB1165
 4331 0298 05       		.uleb128 .LEHE99-.LEHB99
 4332 0299 00       		.uleb128 0
 4333 029a 00       		.uleb128 0
 4334              	.LLSDACSE1165:
 4335 029b 03       		.byte	0x3
 4336 029c 00       		.byte	0
 4337 029d 02       		.byte	0x2
 4338 029e 7D       		.byte	0x7d
 4339 029f 01       		.byte	0x1
 4340 02a0 7D       		.byte	0x7d
 4341 02a1 000000   		.align 4
 4342 02a4 00000000 		.long	0
 4343              	
 4344 02a8 00000000 		.long	_ZTISt9exception
 4345 02ac 00000000 		.long	_ZTIN8UnitTest15AssertExceptionE
 4346              	.LLSDATT1165:
 4347              		.text
 4349 1c7d 90       		.align 2
 4351              	_ZN12_GLOBAL__N_148FixtureCtorThrowsFixtureCtorThrowsTestNameHelper7RunImplEv:
 4352              	.LFB1166:
 114:TestTestMacros.cpp **** {
 4353              		.loc 6 114 0 is_stmt 1
 4354              		.cfi_startproc
 4355 1c7e 55       		pushq	%rbp
 4356              		.cfi_def_cfa_offset 16
 4357              		.cfi_offset 6, -16
 4358 1c7f 4889E5   		movq	%rsp, %rbp
 4359              		.cfi_def_cfa_register 6
 4360 1c82 48897DF8 		movq	%rdi, -8(%rbp)
 115:TestTestMacros.cpp **** }
 4361              		.loc 6 115 0
 4362 1c86 5D       		popq	%rbp
 4363              		.cfi_def_cfa 7, 8
 4364 1c87 C3       		ret
 4365              		.cfi_endproc
 4366              	.LFE1166:
 4368              		.section	.rodata
 4369 0819 00000000 		.align 8
 4369      000000
 4370              	.LC46:
 4371 0820 46697874 		.string	"FixturesWithThrowingCtorsAreFailures"
 4371      75726573 
 4371      57697468 
 4371      5468726F 
 4371      77696E67 
 4372              		.text
 4373              		.align 2
 4375              	_ZN12_GLOBAL__N_140TestFixturesWithThrowingCtorsAreFailuresC2Ev:
 4376              	.LFB1168:
 116:TestTestMacros.cpp **** 
 117:TestTestMacros.cpp **** TEST(FixturesWithThrowingCtorsAreFailures)
 4377              		.loc 6 117 0
 4378              		.cfi_startproc
 4379 1c88 55       		pushq	%rbp
 4380              		.cfi_def_cfa_offset 16
 4381              		.cfi_offset 6, -16
 4382 1c89 4889E5   		movq	%rsp, %rbp
 4383              		.cfi_def_cfa_register 6
 4384 1c8c 4883EC10 		subq	$16, %rsp
 4385 1c90 48897DF8 		movq	%rdi, -8(%rbp)
 4386              	.LBB90:
 4387              		.loc 6 117 0
 4388 1c94 E8000000 		call	_ZN13UnitTestSuite12GetSuiteNameEv
 4388      00
 4389 1c99 4889C2   		movq	%rax, %rdx
 4390 1c9c 488B45F8 		movq	-8(%rbp), %rax
 4391 1ca0 41B87500 		movl	$117, %r8d
 4391      0000
 4392 1ca6 B9000000 		movl	$.LC2, %ecx
 4392      00
 4393 1cab BE000000 		movl	$.LC46, %esi
 4393      00
 4394 1cb0 4889C7   		movq	%rax, %rdi
 4395 1cb3 E8000000 		call	_ZN8UnitTest4TestC2EPKcS2_S2_i
 4395      00
 4396 1cb8 488B45F8 		movq	-8(%rbp), %rax
 4397 1cbc 48C70000 		movq	$_ZTVN12_GLOBAL__N_140TestFixturesWithThrowingCtorsAreFailuresE+16, (%rax)
 4397      000000
 4398              	.LBE90:
 4399 1cc3 C9       		leave
 4400              		.cfi_def_cfa 7, 8
 4401 1cc4 C3       		ret
 4402              		.cfi_endproc
 4403              	.LFE1168:
 4405              		.local	_ZN12_GLOBAL__N_148testFixturesWithThrowingCtorsAreFailuresInstanceE
 4406              		.comm	_ZN12_GLOBAL__N_148testFixturesWithThrowingCtorsAreFailuresInstanceE,56,32
 4407              		.local	_ZN12_GLOBAL__N_141adderFixturesWithThrowingCtorsAreFailuresE
 4408              		.comm	_ZN12_GLOBAL__N_141adderFixturesWithThrowingCtorsAreFailuresE,1,1
 4409              		.section	.rodata
 4410 0845 000000   		.align 8
 4411              	.LC47:
 4412 0848 7468726F 		.string	"throwingFixtureTestList1.GetHead() != NULL"
 4412      77696E67 
 4412      46697874 
 4412      75726554 
 4412      6573744C 
 4413              	.LC48:
 4414 0873 7768696C 		.string	"while constructing fixture"
 4414      6520636F 
 4414      6E737472 
 4414      75637469 
 4414      6E672066 
 4415 088e 0000     		.align 8
 4416              	.LC49:
 4417 0890 73747273 		.string	"strstr(reporter.lastFailedMessage, \"while constructing fixture\")"
 4417      74722872 
 4417      65706F72 
 4417      7465722E 
 4417      6C617374 
 4418 08d1 00000000 		.align 8
 4418      000000
 4419              	.LC50:
 4420 08d8 556E6861 		.string	"Unhandled exception in CHECK(throwingFixtureTestList1.GetHead() != NULL)"
 4420      6E646C65 
 4420      64206578 
 4420      63657074 
 4420      696F6E20 
 4421 0921 00000000 		.align 8
 4421      000000
 4422              	.LC51:
 4423 0928 556E6861 		.string	"Unhandled exception in CHECK_EQUAL(1, failureCount)"
 4423      6E646C65 
 4423      64206578 
 4423      63657074 
 4423      696F6E20 
 4424 095c 00000000 		.align 8
 4425              	.LC52:
 4426 0960 556E6861 		.string	"Unhandled exception in CHECK(strstr(reporter.lastFailedMessage, \"while constructing fixt
 4426      6E646C65 
 4426      64206578 
 4426      63657074 
 4426      696F6E20 
 4427              		.text
 4428 1cc5 90       		.align 2
 4430              	_ZNK12_GLOBAL__N_140TestFixturesWithThrowingCtorsAreFailures7RunImplEv:
 4431              	.LFB1170:
 118:TestTestMacros.cpp **** {
 4432              		.loc 6 118 0
 4433              		.cfi_startproc
 4434              		.cfi_personality 0x3,__gxx_personality_v0
 4435              		.cfi_lsda 0x3,.LLSDA1170
 4436 1cc6 55       		pushq	%rbp
 4437              		.cfi_def_cfa_offset 16
 4438              		.cfi_offset 6, -16
 4439 1cc7 4889E5   		movq	%rsp, %rbp
 4440              		.cfi_def_cfa_register 6
 4441 1cca 53       		pushq	%rbx
 4442 1ccb 4881ECA8 		subq	$2216, %rsp
 4442      080000
 4443              		.cfi_offset 3, -24
 4444 1cd2 4889BD58 		movq	%rdi, -2216(%rbp)
 4444      F7FFFF
 4445              		.loc 6 118 0
 4446 1cd9 64488B04 		movq	%fs:40, %rax
 4446      25280000 
 4446      00
 4447 1ce2 488945E8 		movq	%rax, -24(%rbp)
 4448 1ce6 31C0     		xorl	%eax, %eax
 4449              	.LBB91:
 119:TestTestMacros.cpp **** 	CHECK(throwingFixtureTestList1.GetHead() != NULL);
 4450              		.loc 6 119 0
 4451 1ce8 BF000000 		movl	$_ZN12_GLOBAL__N_124throwingFixtureTestList1E, %edi
 4451      00
 4452              	.LEHB100:
 4453 1ced E8000000 		call	_ZNK8UnitTest8TestList7GetHeadEv
 4453      00
 4454 1cf2 4885C0   		testq	%rax, %rax
 4455 1cf5 0F95C0   		setne	%al
 4456 1cf8 0FB6C0   		movzbl	%al, %eax
 4457 1cfb 89C7     		movl	%eax, %edi
 4458 1cfd E8000000 		call	_ZN8UnitTest5CheckIbEEbT_
 4458      00
 4459 1d02 83F001   		xorl	$1, %eax
 4460 1d05 84C0     		testb	%al, %al
 4461 1d07 743E     		je	.L226
 4462              		.loc 6 119 0 is_stmt 0 discriminator 2
 4463 1d09 E8000000 		call	_ZN8UnitTest11CurrentTest7DetailsEv
 4463      00
 4464 1d0e 488B08   		movq	(%rax), %rcx
 4465 1d11 488D8590 		leaq	-2160(%rbp), %rax
 4465      F7FFFF
 4466 1d18 BA770000 		movl	$119, %edx
 4466      00
 4467 1d1d 4889CE   		movq	%rcx, %rsi
 4468 1d20 4889C7   		movq	%rax, %rdi
 4469 1d23 E8000000 		call	_ZN8UnitTest11TestDetailsC1ERKS0_i
 4469      00
 4470              		.loc 6 119 0 discriminator 4
 4471 1d28 E8000000 		call	_ZN8UnitTest11CurrentTest7ResultsEv
 4471      00
 4472 1d2d 488B00   		movq	(%rax), %rax
 4473 1d30 488D8D90 		leaq	-2160(%rbp), %rcx
 4473      F7FFFF
 4474 1d37 BA000000 		movl	$.LC47, %edx
 4474      00
 4475 1d3c 4889CE   		movq	%rcx, %rsi
 4476 1d3f 4889C7   		movq	%rax, %rdi
 4477 1d42 E8000000 		call	_ZN8UnitTest11TestResults13OnTestFailureERKNS_11TestDetailsEPKc
 4477      00
 4478              	.LEHE100:
 4479              	.L226:
 120:TestTestMacros.cpp **** 	RecordingReporter reporter;
 4480              		.loc 6 120 0 is_stmt 1
 4481 1d47 488D85B0 		leaq	-2128(%rbp), %rax
 4481      F7FFFF
 4482 1d4e 4889C7   		movq	%rax, %rdi
 4483 1d51 E8000000 		call	_ZN17RecordingReporterC1Ev
 4483      00
 121:TestTestMacros.cpp **** 	TestResults result(&reporter);
 4484              		.loc 6 121 0
 4485 1d56 488D95B0 		leaq	-2128(%rbp), %rdx
 4485      F7FFFF
 4486 1d5d 488D8570 		leaq	-2192(%rbp), %rax
 4486      F7FFFF
 4487 1d64 4889D6   		movq	%rdx, %rsi
 4488 1d67 4889C7   		movq	%rax, %rdi
 4489              	.LEHB101:
 4490 1d6a E8000000 		call	_ZN8UnitTest11TestResultsC1EPNS_12TestReporterE
 4490      00
 4491              	.LBB92:
 122:TestTestMacros.cpp **** 	{
 123:TestTestMacros.cpp **** 		ScopedCurrentTest scopedResult(result);
 4492              		.loc 6 123 0
 4493 1d6f 488D8D70 		leaq	-2192(%rbp), %rcx
 4493      F7FFFF
 4494 1d76 488D8590 		leaq	-2160(%rbp), %rax
 4494      F7FFFF
 4495 1d7d BA000000 		movl	$0, %edx
 4495      00
 4496 1d82 4889CE   		movq	%rcx, %rsi
 4497 1d85 4889C7   		movq	%rax, %rdi
 4498 1d88 E8000000 		call	_ZN17ScopedCurrentTestC1ERN8UnitTest11TestResultsEPKNS0_11TestDetailsE
 4498      00
 4499              	.LEHE101:
 124:TestTestMacros.cpp **** 		throwingFixtureTestList1.GetHead()->Run();
 4500              		.loc 6 124 0
 4501 1d8d BF000000 		movl	$_ZN12_GLOBAL__N_124throwingFixtureTestList1E, %edi
 4501      00
 4502              	.LEHB102:
 4503 1d92 E8000000 		call	_ZNK8UnitTest8TestList7GetHeadEv
 4503      00
 4504 1d97 4889C7   		movq	%rax, %rdi
 4505 1d9a E8000000 		call	_ZN8UnitTest4Test3RunEv
 4505      00
 4506              	.LEHE102:
 4507              		.loc 6 124 0 is_stmt 0 discriminator 4
 4508 1d9f 488D8590 		leaq	-2160(%rbp), %rax
 4508      F7FFFF
 4509 1da6 4889C7   		movq	%rax, %rdi
 4510              	.LEHB103:
 4511 1da9 E8000000 		call	_ZN17ScopedCurrentTestD1Ev
 4511      00
 4512              	.LBE92:
 125:TestTestMacros.cpp **** 	}
 126:TestTestMacros.cpp **** 
 127:TestTestMacros.cpp **** 	int const failureCount = result.GetFailedTestCount();
 4513              		.loc 6 127 0 is_stmt 1
 4514 1dae 488D8570 		leaq	-2192(%rbp), %rax
 4514      F7FFFF
 4515 1db5 4889C7   		movq	%rax, %rdi
 4516 1db8 E8000000 		call	_ZNK8UnitTest11TestResults18GetFailedTestCountEv
 4516      00
 4517              	.LEHE103:
 4518 1dbd 898568F7 		movl	%eax, -2200(%rbp)
 4518      FFFF
 4519              	.LEHB104:
 128:TestTestMacros.cpp **** 	CHECK_EQUAL(1, failureCount);
 4520              		.loc 6 128 0
 4521 1dc3 E8000000 		call	_ZN8UnitTest11CurrentTest7DetailsEv
 4521      00
 4522              		.loc 6 128 0 is_stmt 0 discriminator 1
 4523 1dc8 488B08   		movq	(%rax), %rcx
 4524 1dcb 488D8590 		leaq	-2160(%rbp), %rax
 4524      F7FFFF
 4525 1dd2 BA800000 		movl	$128, %edx
 4525      00
 4526 1dd7 4889CE   		movq	%rcx, %rsi
 4527 1dda 4889C7   		movq	%rax, %rdi
 4528 1ddd E8000000 		call	_ZN8UnitTest11TestDetailsC1ERKS0_i
 4528      00
 4529              		.loc 6 128 0 discriminator 2
 4530 1de2 C7856CF7 		movl	$1, -2196(%rbp)
 4530      FFFF0100 
 4530      0000
 4531 1dec E8000000 		call	_ZN8UnitTest11CurrentTest7ResultsEv
 4531      00
 4532 1df1 488B00   		movq	(%rax), %rax
 4533 1df4 488D8D90 		leaq	-2160(%rbp), %rcx
 4533      F7FFFF
 4534 1dfb 488D9568 		leaq	-2200(%rbp), %rdx
 4534      F7FFFF
 4535 1e02 488DB56C 		leaq	-2196(%rbp), %rsi
 4535      F7FFFF
 4536 1e09 4889C7   		movq	%rax, %rdi
 4537 1e0c E8000000 		call	_ZN8UnitTest10CheckEqualIiiEEvRNS_11TestResultsERKT_RKT0_RKNS_11TestDetailsE
 4537      00
 4538              	.LEHE104:
 4539              	.L234:
 129:TestTestMacros.cpp **** 	CHECK(strstr(reporter.lastFailedMessage, "while constructing fixture"));
 4540              		.loc 6 129 0 is_stmt 1
 4541 1e11 488D85B0 		leaq	-2128(%rbp), %rax
 4541      F7FFFF
 4542 1e18 48051405 		addq	$1300, %rax
 4542      0000
 4543 1e1e BE000000 		movl	$.LC48, %esi
 4543      00
 4544 1e23 4889C7   		movq	%rax, %rdi
 4545 1e26 E8000000 		call	strstr
 4545      00
 4546 1e2b 4889C7   		movq	%rax, %rdi
 4547 1e2e E8000000 		call	_ZN8UnitTest5CheckIPcEEbT_
 4547      00
 4548 1e33 83F001   		xorl	$1, %eax
 4549 1e36 84C0     		testb	%al, %al
 4550 1e38 743E     		je	.L227
 4551              	.LEHB105:
 4552              		.loc 6 129 0 is_stmt 0 discriminator 1
 4553 1e3a E8000000 		call	_ZN8UnitTest11CurrentTest7DetailsEv
 4553      00
 4554 1e3f 488B08   		movq	(%rax), %rcx
 4555 1e42 488D8590 		leaq	-2160(%rbp), %rax
 4555      F7FFFF
 4556 1e49 BA810000 		movl	$129, %edx
 4556      00
 4557 1e4e 4889CE   		movq	%rcx, %rsi
 4558 1e51 4889C7   		movq	%rax, %rdi
 4559 1e54 E8000000 		call	_ZN8UnitTest11TestDetailsC1ERKS0_i
 4559      00
 4560              		.loc 6 129 0 discriminator 4
 4561 1e59 E8000000 		call	_ZN8UnitTest11CurrentTest7ResultsEv
 4561      00
 4562 1e5e 488B00   		movq	(%rax), %rax
 4563 1e61 488D8D90 		leaq	-2160(%rbp), %rcx
 4563      F7FFFF
 4564 1e68 BA000000 		movl	$.LC49, %edx
 4564      00
 4565 1e6d 4889CE   		movq	%rcx, %rsi
 4566 1e70 4889C7   		movq	%rax, %rdi
 4567 1e73 E8000000 		call	_ZN8UnitTest11TestResults13OnTestFailureERKNS_11TestDetailsEPKc
 4567      00
 4568              	.LEHE105:
 4569              	.L227:
 4570              		.loc 6 129 0 discriminator 9
 4571 1e78 488D85B0 		leaq	-2128(%rbp), %rax
 4571      F7FFFF
 4572 1e7f 4889C7   		movq	%rax, %rdi
 4573              	.LEHB106:
 4574 1e82 E8000000 		call	_ZN17RecordingReporterD1Ev
 4574      00
 4575              	.LEHE106:
 4576              	.LBE91:
 130:TestTestMacros.cpp **** }
 4577              		.loc 6 130 0 is_stmt 1 discriminator 9
 4578 1e87 488B45E8 		movq	-24(%rbp), %rax
 4579 1e8b 64483304 		xorq	%fs:40, %rax
 4579      25280000 
 4579      00
 4580 1e94 0F845801 		je	.L237
 4580      0000
 4581 1e9a E94E0100 		jmp	.L246
 4581      00
 4582              	.L239:
 4583 1e9f 4889C3   		movq	%rax, %rbx
 4584              	.LBB94:
 119:TestTestMacros.cpp **** 	RecordingReporter reporter;
 4585              		.loc 6 119 0
 4586 1ea2 E8000000 		call	__cxa_end_catch
 4586      00
 4587 1ea7 4889D8   		movq	%rbx, %rax
 4588 1eaa 4889C7   		movq	%rax, %rdi
 4589              	.LEHB107:
 4590 1ead E8000000 		call	_Unwind_Resume
 4590      00
 4591              	.LEHE107:
 4592              	.L238:
 4593 1eb2 4889C7   		movq	%rax, %rdi
 4594 1eb5 E8000000 		call	__cxa_begin_catch
 4594      00
 4595              	.LEHB108:
 4596 1eba E8000000 		call	_ZN8UnitTest11CurrentTest7DetailsEv
 4596      00
 4597 1ebf 488B08   		movq	(%rax), %rcx
 4598 1ec2 488D8590 		leaq	-2160(%rbp), %rax
 4598      F7FFFF
 4599 1ec9 BA770000 		movl	$119, %edx
 4599      00
 4600 1ece 4889CE   		movq	%rcx, %rsi
 4601 1ed1 4889C7   		movq	%rax, %rdi
 4602 1ed4 E8000000 		call	_ZN8UnitTest11TestDetailsC1ERKS0_i
 4602      00
 119:TestTestMacros.cpp **** 	RecordingReporter reporter;
 4603              		.loc 6 119 0 is_stmt 0 discriminator 12
 4604 1ed9 E8000000 		call	_ZN8UnitTest11CurrentTest7ResultsEv
 4604      00
 4605 1ede 488B00   		movq	(%rax), %rax
 4606 1ee1 488D8D90 		leaq	-2160(%rbp), %rcx
 4606      F7FFFF
 4607 1ee8 BA000000 		movl	$.LC50, %edx
 4607      00
 4608 1eed 4889CE   		movq	%rcx, %rsi
 4609 1ef0 4889C7   		movq	%rax, %rdi
 4610 1ef3 E8000000 		call	_ZN8UnitTest11TestResults13OnTestFailureERKNS_11TestDetailsEPKc
 4610      00
 4611              	.LEHE108:
 4612              	.LEHB109:
 119:TestTestMacros.cpp **** 	RecordingReporter reporter;
 4613              		.loc 6 119 0 discriminator 16
 4614 1ef8 E8000000 		call	__cxa_end_catch
 4614      00
 4615              	.LEHE109:
 4616 1efd E945FEFF 		jmp	.L226
 4616      FF
 4617              	.L241:
 4618 1f02 4889C3   		movq	%rax, %rbx
 4619              	.LBB93:
 124:TestTestMacros.cpp **** 	}
 4620              		.loc 6 124 0 is_stmt 1
 4621 1f05 488D8590 		leaq	-2160(%rbp), %rax
 4621      F7FFFF
 4622 1f0c 4889C7   		movq	%rax, %rdi
 4623 1f0f E8000000 		call	_ZN17ScopedCurrentTestD1Ev
 4623      00
 4624 1f14 E9BA0000 		jmp	.L231
 4624      00
 4625              	.L243:
 4626 1f19 4889C3   		movq	%rax, %rbx
 4627              	.LBE93:
 128:TestTestMacros.cpp **** 	CHECK(strstr(reporter.lastFailedMessage, "while constructing fixture"));
 4628              		.loc 6 128 0
 4629 1f1c E8000000 		call	__cxa_end_catch
 4629      00
 4630 1f21 E9AD0000 		jmp	.L231
 4630      00
 4631              	.L242:
 4632 1f26 4889C7   		movq	%rax, %rdi
 4633 1f29 E8000000 		call	__cxa_begin_catch
 4633      00
 4634              	.LEHB110:
 4635 1f2e E8000000 		call	_ZN8UnitTest11CurrentTest7DetailsEv
 4635      00
 4636 1f33 488B08   		movq	(%rax), %rcx
 4637 1f36 488D8590 		leaq	-2160(%rbp), %rax
 4637      F7FFFF
 4638 1f3d BA800000 		movl	$128, %edx
 4638      00
 4639 1f42 4889CE   		movq	%rcx, %rsi
 4640 1f45 4889C7   		movq	%rax, %rdi
 4641 1f48 E8000000 		call	_ZN8UnitTest11TestDetailsC1ERKS0_i
 4641      00
 128:TestTestMacros.cpp **** 	CHECK(strstr(reporter.lastFailedMessage, "while constructing fixture"));
 4642              		.loc 6 128 0 is_stmt 0 discriminator 10
 4643 1f4d E8000000 		call	_ZN8UnitTest11CurrentTest7ResultsEv
 4643      00
 4644 1f52 488B00   		movq	(%rax), %rax
 4645 1f55 488D8D90 		leaq	-2160(%rbp), %rcx
 4645      F7FFFF
 4646 1f5c BA000000 		movl	$.LC51, %edx
 4646      00
 4647 1f61 4889CE   		movq	%rcx, %rsi
 4648 1f64 4889C7   		movq	%rax, %rdi
 4649 1f67 E8000000 		call	_ZN8UnitTest11TestResults13OnTestFailureERKNS_11TestDetailsEPKc
 4649      00
 4650              	.LEHE110:
 4651              	.LEHB111:
 128:TestTestMacros.cpp **** 	CHECK(strstr(reporter.lastFailedMessage, "while constructing fixture"));
 4652              		.loc 6 128 0 discriminator 14
 4653 1f6c E8000000 		call	__cxa_end_catch
 4653      00
 4654              	.LEHE111:
 128:TestTestMacros.cpp **** 	CHECK(strstr(reporter.lastFailedMessage, "while constructing fixture"));
 4655              		.loc 6 128 0
 4656 1f71 E99BFEFF 		jmp	.L234
 4656      FF
 4657              	.L245:
 4658 1f76 4889C3   		movq	%rax, %rbx
 129:TestTestMacros.cpp **** }
 4659              		.loc 6 129 0 is_stmt 1
 4660 1f79 E8000000 		call	__cxa_end_catch
 4660      00
 4661 1f7e EB53     		jmp	.L231
 4662              	.L244:
 4663 1f80 4889C7   		movq	%rax, %rdi
 4664 1f83 E8000000 		call	__cxa_begin_catch
 4664      00
 4665              	.LEHB112:
 4666 1f88 E8000000 		call	_ZN8UnitTest11CurrentTest7DetailsEv
 4666      00
 4667 1f8d 488B08   		movq	(%rax), %rcx
 4668 1f90 488D8590 		leaq	-2160(%rbp), %rax
 4668      F7FFFF
 4669 1f97 BA810000 		movl	$129, %edx
 4669      00
 4670 1f9c 4889CE   		movq	%rcx, %rsi
 4671 1f9f 4889C7   		movq	%rax, %rdi
 4672 1fa2 E8000000 		call	_ZN8UnitTest11TestDetailsC1ERKS0_i
 4672      00
 129:TestTestMacros.cpp **** }
 4673              		.loc 6 129 0 is_stmt 0 discriminator 13
 4674 1fa7 E8000000 		call	_ZN8UnitTest11CurrentTest7ResultsEv
 4674      00
 4675 1fac 488B00   		movq	(%rax), %rax
 4676 1faf 488D8D90 		leaq	-2160(%rbp), %rcx
 4676      F7FFFF
 4677 1fb6 BA000000 		movl	$.LC52, %edx
 4677      00
 4678 1fbb 4889CE   		movq	%rcx, %rsi
 4679 1fbe 4889C7   		movq	%rax, %rdi
 4680 1fc1 E8000000 		call	_ZN8UnitTest11TestResults13OnTestFailureERKNS_11TestDetailsEPKc
 4680      00
 4681              	.LEHE112:
 4682              	.LEHB113:
 129:TestTestMacros.cpp **** }
 4683              		.loc 6 129 0 discriminator 17
 4684 1fc6 E8000000 		call	__cxa_end_catch
 4684      00
 4685              	.LEHE113:
 129:TestTestMacros.cpp **** }
 4686              		.loc 6 129 0
 4687 1fcb E9A8FEFF 		jmp	.L227
 4687      FF
 4688              	.L240:
 4689 1fd0 4889C3   		movq	%rax, %rbx
 4690              	.L231:
 129:TestTestMacros.cpp **** }
 4691              		.loc 6 129 0 discriminator 18
 4692 1fd3 488D85B0 		leaq	-2128(%rbp), %rax
 4692      F7FFFF
 4693 1fda 4889C7   		movq	%rax, %rdi
 4694 1fdd E8000000 		call	_ZN17RecordingReporterD1Ev
 4694      00
 4695 1fe2 4889D8   		movq	%rbx, %rax
 4696 1fe5 4889C7   		movq	%rax, %rdi
 4697              	.LEHB114:
 4698 1fe8 E8000000 		call	_Unwind_Resume
 4698      00
 4699              	.LEHE114:
 4700              	.L246:
 4701              	.LBE94:
 4702              		.loc 6 130 0 is_stmt 1
 4703 1fed E8000000 		call	__stack_chk_fail
 4703      00
 4704              	.L237:
 4705 1ff2 4881C4A8 		addq	$2216, %rsp
 4705      080000
 4706 1ff9 5B       		popq	%rbx
 4707 1ffa 5D       		popq	%rbp
 4708              		.cfi_def_cfa 7, 8
 4709 1ffb C3       		ret
 4710              		.cfi_endproc
 4711              	.LFE1170:
 4712              		.section	.gcc_except_table
 4713              		.align 4
 4714              	.LLSDA1170:
 4715 02b0 FF       		.byte	0xff
 4716 02b1 03       		.byte	0x3
 4717 02b2 5D       		.uleb128 .LLSDATT1170-.LLSDATTD1170
 4718              	.LLSDATTD1170:
 4719 02b3 01       		.byte	0x1
 4720 02b4 55       		.uleb128 .LLSDACSE1170-.LLSDACSB1170
 4721              	.LLSDACSB1170:
 4722 02b5 27       		.uleb128 .LEHB100-.LFB1170
 4723 02b6 5A       		.uleb128 .LEHE100-.LEHB100
 4724 02b7 EC03     		.uleb128 .L238-.LFB1170
 4725 02b9 01       		.uleb128 0x1
 4726 02ba A401     		.uleb128 .LEHB101-.LFB1170
 4727 02bc 23       		.uleb128 .LEHE101-.LEHB101
 4728 02bd 8A06     		.uleb128 .L240-.LFB1170
 4729 02bf 00       		.uleb128 0
 4730 02c0 CC01     		.uleb128 .LEHB102-.LFB1170
 4731 02c2 0D       		.uleb128 .LEHE102-.LEHB102
 4732 02c3 BC04     		.uleb128 .L241-.LFB1170
 4733 02c5 00       		.uleb128 0
 4734 02c6 E301     		.uleb128 .LEHB103-.LFB1170
 4735 02c8 14       		.uleb128 .LEHE103-.LEHB103
 4736 02c9 8A06     		.uleb128 .L240-.LFB1170
 4737 02cb 00       		.uleb128 0
 4738 02cc FD01     		.uleb128 .LEHB104-.LFB1170
 4739 02ce 4E       		.uleb128 .LEHE104-.LEHB104
 4740 02cf E004     		.uleb128 .L242-.LFB1170
 4741 02d1 01       		.uleb128 0x1
 4742 02d2 F402     		.uleb128 .LEHB105-.LFB1170
 4743 02d4 3E       		.uleb128 .LEHE105-.LEHB105
 4744 02d5 BA05     		.uleb128 .L244-.LFB1170
 4745 02d7 01       		.uleb128 0x1
 4746 02d8 BC03     		.uleb128 .LEHB106-.LFB1170
 4747 02da 05       		.uleb128 .LEHE106-.LEHB106
 4748 02db 00       		.uleb128 0
 4749 02dc 00       		.uleb128 0
 4750 02dd E703     		.uleb128 .LEHB107-.LFB1170
 4751 02df 05       		.uleb128 .LEHE107-.LEHB107
 4752 02e0 00       		.uleb128 0
 4753 02e1 00       		.uleb128 0
 4754 02e2 F403     		.uleb128 .LEHB108-.LFB1170
 4755 02e4 3E       		.uleb128 .LEHE108-.LEHB108
 4756 02e5 D903     		.uleb128 .L239-.LFB1170
 4757 02e7 00       		.uleb128 0
 4758 02e8 B204     		.uleb128 .LEHB109-.LFB1170
 4759 02ea 05       		.uleb128 .LEHE109-.LEHB109
 4760 02eb 00       		.uleb128 0
 4761 02ec 00       		.uleb128 0
 4762 02ed E804     		.uleb128 .LEHB110-.LFB1170
 4763 02ef 3E       		.uleb128 .LEHE110-.LEHB110
 4764 02f0 D304     		.uleb128 .L243-.LFB1170
 4765 02f2 00       		.uleb128 0
 4766 02f3 A605     		.uleb128 .LEHB111-.LFB1170
 4767 02f5 05       		.uleb128 .LEHE111-.LEHB111
 4768 02f6 8A06     		.uleb128 .L240-.LFB1170
 4769 02f8 00       		.uleb128 0
 4770 02f9 C205     		.uleb128 .LEHB112-.LFB1170
 4771 02fb 3E       		.uleb128 .LEHE112-.LEHB112
 4772 02fc B005     		.uleb128 .L245-.LFB1170
 4773 02fe 00       		.uleb128 0
 4774 02ff 8006     		.uleb128 .LEHB113-.LFB1170
 4775 0301 05       		.uleb128 .LEHE113-.LEHB113
 4776 0302 8A06     		.uleb128 .L240-.LFB1170
 4777 0304 00       		.uleb128 0
 4778 0305 A206     		.uleb128 .LEHB114-.LFB1170
 4779 0307 05       		.uleb128 .LEHE114-.LEHB114
 4780 0308 00       		.uleb128 0
 4781 0309 00       		.uleb128 0
 4782              	.LLSDACSE1170:
 4783 030a 01       		.byte	0x1
 4784 030b 00       		.byte	0
 4785              		.align 4
 4786 030c 00000000 		.long	0
 4787              	
 4788              	.LLSDATT1170:
 4789              		.text
 4791              		.align 2
 4793              	_ZN12_GLOBAL__N_117FixtureDtorThrowsD2Ev:
 4794              	.LFB1172:
 131:TestTestMacros.cpp **** 
 132:TestTestMacros.cpp **** struct FixtureDtorThrows
 133:TestTestMacros.cpp **** {
 134:TestTestMacros.cpp **** 	~FixtureDtorThrows() { throw "exception"; }
 4795              		.loc 6 134 0
 4796              		.cfi_startproc
 4797 1ffc 55       		pushq	%rbp
 4798              		.cfi_def_cfa_offset 16
 4799              		.cfi_offset 6, -16
 4800 1ffd 4889E5   		movq	%rsp, %rbp
 4801              		.cfi_def_cfa_register 6
 4802 2000 4883EC10 		subq	$16, %rsp
 4803 2004 48897DF8 		movq	%rdi, -8(%rbp)
 4804              	.LBB95:
 4805              		.loc 6 134 0
 4806 2008 BF080000 		movl	$8, %edi
 4806      00
 4807 200d E8000000 		call	__cxa_allocate_exception
 4807      00
 4808 2012 48C70000 		movq	$.LC42, (%rax)
 4808      000000
 4809 2019 BA000000 		movl	$0, %edx
 4809      00
 4810 201e BE000000 		movl	$_ZTIPKc, %esi
 4810      00
 4811 2023 4889C7   		movq	%rax, %rdi
 4812 2026 E8000000 		call	__cxa_throw
 4812      00
 4813              	.LBE95:
 4814              		.cfi_endproc
 4815              	.LFE1172:
 4817              		.local	_ZN12_GLOBAL__N_124throwingFixtureTestList2E
 4818              		.comm	_ZN12_GLOBAL__N_124throwingFixtureTestList2E,16,16
 4819 202b 90       		.align 2
 4821              	_ZN12_GLOBAL__N_117FixtureDtorThrowsC2Ev:
 4822              	.LFB1176:
 132:TestTestMacros.cpp **** {
 4823              		.loc 6 132 0
 4824              		.cfi_startproc
 4825 202c 55       		pushq	%rbp
 4826              		.cfi_def_cfa_offset 16
 4827              		.cfi_offset 6, -16
 4828 202d 4889E5   		movq	%rsp, %rbp
 4829              		.cfi_def_cfa_register 6
 4830 2030 48897DF8 		movq	%rdi, -8(%rbp)
 132:TestTestMacros.cpp **** {
 4831              		.loc 6 132 0
 4832 2034 5D       		popq	%rbp
 4833              		.cfi_def_cfa 7, 8
 4834 2035 C3       		ret
 4835              		.cfi_endproc
 4836              	.LFE1176:
 4838              		.align 2
 4840              	_ZN12_GLOBAL__N_148FixtureDtorThrowsFixtureDtorThrowsTestNameHelperC2ERKN8UnitTest11TestDetailsE:
 4841              	.LFB1178:
 135:TestTestMacros.cpp **** };
 136:TestTestMacros.cpp **** 
 137:TestTestMacros.cpp **** TestList throwingFixtureTestList2;
 138:TestTestMacros.cpp **** TEST_FIXTURE_EX(FixtureDtorThrows, FixtureDtorThrowsTestName, throwingFixtureTestList2)
 4842              		.loc 6 138 0
 4843              		.cfi_startproc
 4844 2036 55       		pushq	%rbp
 4845              		.cfi_def_cfa_offset 16
 4846              		.cfi_offset 6, -16
 4847 2037 4889E5   		movq	%rsp, %rbp
 4848              		.cfi_def_cfa_register 6
 4849 203a 4883EC10 		subq	$16, %rsp
 4850 203e 48897DF8 		movq	%rdi, -8(%rbp)
 4851 2042 488975F0 		movq	%rsi, -16(%rbp)
 4852              	.LBB96:
 4853              		.loc 6 138 0
 4854 2046 488B45F8 		movq	-8(%rbp), %rax
 4855 204a 4889C7   		movq	%rax, %rdi
 4856 204d E8DAFFFF 		call	_ZN12_GLOBAL__N_117FixtureDtorThrowsC2Ev
 4856      FF
 4857 2052 488B45F8 		movq	-8(%rbp), %rax
 4858 2056 488B55F0 		movq	-16(%rbp), %rdx
 4859 205a 488910   		movq	%rdx, (%rax)
 4860              	.LBE96:
 4861 205d C9       		leave
 4862              		.cfi_def_cfa 7, 8
 4863 205e C3       		ret
 4864              		.cfi_endproc
 4865              	.LFE1178:
 4867              		.section	.rodata
 4868              	.LC53:
 4869 09bf 46697874 		.string	"FixtureDtorThrowsTestName"
 4869      75726544 
 4869      746F7254 
 4869      68726F77 
 4869      73546573 
 4870              		.text
 4871 205f 90       		.align 2
 4873              	_ZN12_GLOBAL__N_146TestFixtureDtorThrowsFixtureDtorThrowsTestNameC2Ev:
 4874              	.LFB1181:
 4875              		.loc 6 138 0
 4876              		.cfi_startproc
 4877 2060 55       		pushq	%rbp
 4878              		.cfi_def_cfa_offset 16
 4879              		.cfi_offset 6, -16
 4880 2061 4889E5   		movq	%rsp, %rbp
 4881              		.cfi_def_cfa_register 6
 4882 2064 4883EC10 		subq	$16, %rsp
 4883 2068 48897DF8 		movq	%rdi, -8(%rbp)
 4884              	.LBB97:
 4885              		.loc 6 138 0
 4886 206c E8000000 		call	_ZN13UnitTestSuite12GetSuiteNameEv
 4886      00
 4887 2071 4889C2   		movq	%rax, %rdx
 4888 2074 488B45F8 		movq	-8(%rbp), %rax
 4889 2078 41B88A00 		movl	$138, %r8d
 4889      0000
 4890 207e B9000000 		movl	$.LC2, %ecx
 4890      00
 4891 2083 BE000000 		movl	$.LC53, %esi
 4891      00
 4892 2088 4889C7   		movq	%rax, %rdi
 4893 208b E8000000 		call	_ZN8UnitTest4TestC2EPKcS2_S2_i
 4893      00
 4894 2090 488B45F8 		movq	-8(%rbp), %rax
 4895 2094 48C70000 		movq	$_ZTVN12_GLOBAL__N_146TestFixtureDtorThrowsFixtureDtorThrowsTestNameE+16, (%rax)
 4895      000000
 4896              	.LBE97:
 4897 209b C9       		leave
 4898              		.cfi_def_cfa 7, 8
 4899 209c C3       		ret
 4900              		.cfi_endproc
 4901              	.LFE1181:
 4903              		.local	_ZN12_GLOBAL__N_154testFixtureDtorThrowsFixtureDtorThrowsTestNameInstanceE
 4904              		.comm	_ZN12_GLOBAL__N_154testFixtureDtorThrowsFixtureDtorThrowsTestNameInstanceE,56,32
 4905              		.local	_ZN12_GLOBAL__N_147adderFixtureDtorThrowsFixtureDtorThrowsTestNameE
 4906              		.comm	_ZN12_GLOBAL__N_147adderFixtureDtorThrowsFixtureDtorThrowsTestNameE,1,1
 4907 209d 90       		.align 2
 4909              	_ZN12_GLOBAL__N_148FixtureDtorThrowsFixtureDtorThrowsTestNameHelperD2Ev:
 4910              	.LFB1185:
 4911              		.loc 6 138 0
 4912              		.cfi_startproc
 4913 209e 55       		pushq	%rbp
 4914              		.cfi_def_cfa_offset 16
 4915              		.cfi_offset 6, -16
 4916 209f 4889E5   		movq	%rsp, %rbp
 4917              		.cfi_def_cfa_register 6
 4918 20a2 4883EC10 		subq	$16, %rsp
 4919 20a6 48897DF8 		movq	%rdi, -8(%rbp)
 4920              	.LBB98:
 4921              		.loc 6 138 0
 4922 20aa 488B45F8 		movq	-8(%rbp), %rax
 4923 20ae 4889C7   		movq	%rax, %rdi
 4924 20b1 E846FFFF 		call	_ZN12_GLOBAL__N_117FixtureDtorThrowsD2Ev
 4924      FF
 4925              	.LBE98:
 4926 20b6 C9       		leave
 4927              		.cfi_def_cfa 7, 8
 4928 20b7 C3       		ret
 4929              		.cfi_endproc
 4930              	.LFE1185:
 4932              		.section	.rodata
 4933 09d9 00000000 		.align 8
 4933      000000
 4934              	.LC54:
 4935 09e0 556E6861 		.string	"Unhandled exception while destroying fixture FixtureDtorThrows"
 4935      6E646C65 
 4935      64206578 
 4935      63657074 
 4935      696F6E20 
 4936 0a1f 00       		.align 8
 4937              	.LC55:
 4938 0a20 556E6861 		.string	"Unhandled exception while constructing fixture FixtureDtorThrows"
 4938      6E646C65 
 4938      64206578 
 4938      63657074 
 4938      696F6E20 
 4939              		.text
 4940              		.align 2
 4942              	_ZNK12_GLOBAL__N_146TestFixtureDtorThrowsFixtureDtorThrowsTestName7RunImplEv:
 4943              	.LFB1183:
 4944              		.loc 6 138 0
 4945              		.cfi_startproc
 4946              		.cfi_personality 0x3,__gxx_personality_v0
 4947              		.cfi_lsda 0x3,.LLSDA1183
 4948 20b8 55       		pushq	%rbp
 4949              		.cfi_def_cfa_offset 16
 4950              		.cfi_offset 6, -16
 4951 20b9 4889E5   		movq	%rsp, %rbp
 4952              		.cfi_def_cfa_register 6
 4953 20bc 4154     		pushq	%r12
 4954 20be 53       		pushq	%rbx
 4955 20bf 4881ECC0 		subq	$448, %rsp
 4955      010000
 4956              		.cfi_offset 12, -24
 4957              		.cfi_offset 3, -32
 4958 20c6 4889BD38 		movq	%rdi, -456(%rbp)
 4958      FEFFFF
 4959              		.loc 6 138 0
 4960 20cd 64488B04 		movq	%fs:40, %rax
 4960      25280000 
 4960      00
 4961 20d6 488945E8 		movq	%rax, -24(%rbp)
 4962 20da 31C0     		xorl	%eax, %eax
 4963              	.LBB99:
 4964 20dc C6854FFE 		movb	$0, -433(%rbp)
 4964      FFFF00
 4965              	.LBB100:
 4966 20e3 488B8538 		movq	-456(%rbp), %rax
 4966      FEFFFF
 4967 20ea 488D5008 		leaq	8(%rax), %rdx
 4968 20ee 488D8560 		leaq	-416(%rbp), %rax
 4968      FEFFFF
 4969 20f5 4889D6   		movq	%rdx, %rsi
 4970 20f8 4889C7   		movq	%rax, %rdi
 4971 20fb E836FFFF 		call	_ZN12_GLOBAL__N_148FixtureDtorThrowsFixtureDtorThrowsTestNameHelperC2ERKN8UnitTest11TestDetai
 4971      FF
 4972 2100 C6854FFE 		movb	$1, -433(%rbp)
 4972      FFFF01
 4973 2107 488B8538 		movq	-456(%rbp), %rax
 4973      FEFFFF
 4974 210e 488D5008 		leaq	8(%rax), %rdx
 4975 2112 488D8560 		leaq	-416(%rbp), %rax
 4975      FEFFFF
 4976 2119 4889D6   		movq	%rdx, %rsi
 4977 211c 4889C7   		movq	%rax, %rdi
 4978              	.LEHB115:
 4979 211f E8851B00 		call	_ZN8UnitTest11ExecuteTestIN12_GLOBAL__N_148FixtureDtorThrowsFixtureDtorThrowsTestNameHelperEE
 4979      00
 4980              	.LEHE115:
 4981              		.loc 6 138 0 is_stmt 0 discriminator 3
 4982 2124 488D8560 		leaq	-416(%rbp), %rax
 4982      FEFFFF
 4983 212b 4889C7   		movq	%rax, %rdi
 4984              	.LEHB116:
 4985 212e E86BFFFF 		call	_ZN12_GLOBAL__N_148FixtureDtorThrowsFixtureDtorThrowsTestNameHelperD2Ev
 4985      FF
 4986              	.LEHE116:
 4987              	.LBE100:
 4988              	.LBE99:
 4989              		.loc 6 138 0
 4990 2133 E9640200 		jmp	.L274
 4990      00
 4991              	.L268:
 4992 2138 4989C4   		movq	%rax, %r12
 4993 213b 4889D3   		movq	%rdx, %rbx
 4994              	.LBB108:
 4995              	.LBB101:
 4996 213e 488D8560 		leaq	-416(%rbp), %rax
 4996      FEFFFF
 4997 2145 4889C7   		movq	%rax, %rdi
 4998 2148 E851FFFF 		call	_ZN12_GLOBAL__N_148FixtureDtorThrowsFixtureDtorThrowsTestNameHelperD2Ev
 4998      FF
 4999 214d 4C89E0   		movq	%r12, %rax
 5000 2150 4889DA   		movq	%rbx, %rdx
 5001 2153 EB00     		jmp	.L255
 5002              	.L267:
 5003              	.L255:
 5004 2155 4883FA01 		cmpq	$1, %rdx
 5005 2159 745C     		je	.L257
 5006 215b 4883FA02 		cmpq	$2, %rdx
 5007 215f 0F84F400 		je	.L258
 5007      0000
 5008 2165 E9980100 		jmp	.L273
 5008      00
 5009              	.L269:
 5010 216a 4889C3   		movq	%rax, %rbx
 5011              	.LBE101:
 5012              	.LBB102:
 5013 216d E8000000 		call	__cxa_end_catch
 5013      00
 5014 2172 4889D8   		movq	%rbx, %rax
 5015 2175 4889C7   		movq	%rax, %rdi
 5016              	.LEHB117:
 5017 2178 E8000000 		call	_Unwind_Resume
 5017      00
 5018              	.LEHE117:
 5019              	.L270:
 5020 217d 4889C3   		movq	%rax, %rbx
 5021              	.LBE102:
 5022              	.LBB103:
 5023              	.LBB104:
 5024 2180 488D8580 		leaq	-384(%rbp), %rax
 5024      FEFFFF
 5025 2187 4889C7   		movq	%rax, %rdi
 5026 218a E8000000 		call	_ZN8UnitTest15MemoryOutStreamD1Ev
 5026      00
 5027 218f EB03     		jmp	.L261
 5028              	.L271:
 5029 2191 4889C3   		movq	%rax, %rbx
 5030              	.L261:
 5031              	.LBE104:
 5032 2194 E8000000 		call	__cxa_end_catch
 5032      00
 5033 2199 4889D8   		movq	%rbx, %rax
 5034 219c 4889C7   		movq	%rax, %rdi
 5035              	.LEHB118:
 5036 219f E8000000 		call	_Unwind_Resume
 5036      00
 5037              	.LEHE118:
 5038              	.L272:
 5039 21a4 4889C3   		movq	%rax, %rbx
 5040              	.LBE103:
 5041 21a7 E8000000 		call	__cxa_end_catch
 5041      00
 5042 21ac 4889D8   		movq	%rbx, %rax
 5043 21af 4889C7   		movq	%rax, %rdi
 5044              	.LEHB119:
 5045 21b2 E8000000 		call	_Unwind_Resume
 5045      00
 5046              	.LEHE119:
 5047              	.L257:
 5048              	.LBB106:
 5049 21b7 4889C7   		movq	%rax, %rdi
 5050 21ba E8000000 		call	__cxa_begin_catch
 5050      00
 5051 21bf 48898550 		movq	%rax, -432(%rbp)
 5051      FEFFFF
 5052 21c6 488B8550 		movq	-432(%rbp), %rax
 5052      FEFFFF
 5053 21cd 488B00   		movq	(%rax), %rax
 5054 21d0 4883C010 		addq	$16, %rax
 5055 21d4 488B00   		movq	(%rax), %rax
 5056 21d7 488B9550 		movq	-432(%rbp), %rdx
 5056      FEFFFF
 5057 21de 4889D7   		movq	%rdx, %rdi
 5058 21e1 FFD0     		call	*%rax
 5059 21e3 4889C3   		movq	%rax, %rbx
 5060 21e6 488B8550 		movq	-432(%rbp), %rax
 5060      FEFFFF
 5061 21ed 4889C7   		movq	%rax, %rdi
 5062              	.LEHB120:
 5063 21f0 E8000000 		call	_ZNK8UnitTest15AssertException10LineNumberEv
 5063      00
 5064 21f5 4189C4   		movl	%eax, %r12d
 5065 21f8 488B8550 		movq	-432(%rbp), %rax
 5065      FEFFFF
 5066 21ff 4889C7   		movq	%rax, %rdi
 5067 2202 E8000000 		call	_ZNK8UnitTest15AssertException8FilenameEv
 5067      00
 5068              		.loc 6 138 0 discriminator 5
 5069 2207 4889C1   		movq	%rax, %rcx
 5070 220a 488B8538 		movq	-456(%rbp), %rax
 5070      FEFFFF
 5071 2211 488B5008 		movq	8(%rax), %rdx
 5072 2215 488B8538 		movq	-456(%rbp), %rax
 5072      FEFFFF
 5073 221c 488B7010 		movq	16(%rax), %rsi
 5074 2220 488D8560 		leaq	-416(%rbp), %rax
 5074      FEFFFF
 5075 2227 4589E0   		movl	%r12d, %r8d
 5076 222a 4889C7   		movq	%rax, %rdi
 5077 222d E8000000 		call	_ZN8UnitTest11TestDetailsC1EPKcS2_S2_i
 5077      00
 5078              		.loc 6 138 0 discriminator 9
 5079 2232 E8000000 		call	_ZN8UnitTest11CurrentTest7ResultsEv
 5079      00
 5080 2237 488B00   		movq	(%rax), %rax
 5081 223a 488D8D60 		leaq	-416(%rbp), %rcx
 5081      FEFFFF
 5082 2241 4889DA   		movq	%rbx, %rdx
 5083 2244 4889CE   		movq	%rcx, %rsi
 5084 2247 4889C7   		movq	%rax, %rdi
 5085 224a E8000000 		call	_ZN8UnitTest11TestResults13OnTestFailureERKNS_11TestDetailsEPKc
 5085      00
 5086              	.LEHE120:
 5087              		.loc 6 138 0 discriminator 13
 5088 224f E8000000 		call	__cxa_end_catch
 5088      00
 5089              	.LBE106:
 5090              	.LBE108:
 5091 2254 E9430100 		jmp	.L274
 5091      00
 5092              	.L258:
 5093              	.LBB109:
 5094              	.LBB107:
 5095              		.loc 6 138 0
 5096 2259 4889C7   		movq	%rax, %rdi
 5097 225c E8000000 		call	__cxa_begin_catch
 5097      00
 5098 2261 48898558 		movq	%rax, -424(%rbp)
 5098      FEFFFF
 5099              	.LBB105:
 5100 2268 488D8580 		leaq	-384(%rbp), %rax
 5100      FEFFFF
 5101 226f 4889C7   		movq	%rax, %rdi
 5102              	.LEHB121:
 5103 2272 E8000000 		call	_ZN8UnitTest15MemoryOutStreamC1Ev
 5103      00
 5104              	.LEHE121:
 5105              		.loc 6 138 0 discriminator 15
 5106 2277 488B8558 		movq	-424(%rbp), %rax
 5106      FEFFFF
 5107 227e 488B00   		movq	(%rax), %rax
 5108 2281 4883C010 		addq	$16, %rax
 5109 2285 488B00   		movq	(%rax), %rax
 5110 2288 488B9558 		movq	-424(%rbp), %rdx
 5110      FEFFFF
 5111 228f 4889D7   		movq	%rdx, %rdi
 5112 2292 FFD0     		call	*%rax
 5113 2294 4889C3   		movq	%rax, %rbx
 5114 2297 488D8580 		leaq	-384(%rbp), %rax
 5114      FEFFFF
 5115 229e BE000000 		movl	$.LC11, %esi
 5115      00
 5116 22a3 4889C7   		movq	%rax, %rdi
 5117              	.LEHB122:
 5118 22a6 E8000000 		call	_ZStlsISt11char_traitsIcEERSt13basic_ostreamIcT_ES5_PKc
 5118      00
 5119 22ab 4889DE   		movq	%rbx, %rsi
 5120 22ae 4889C7   		movq	%rax, %rdi
 5121 22b1 E8000000 		call	_ZStlsISt11char_traitsIcEERSt13basic_ostreamIcT_ES5_PKc
 5121      00
 5122              		.loc 6 138 0 discriminator 19
 5123 22b6 488D8580 		leaq	-384(%rbp), %rax
 5123      FEFFFF
 5124 22bd 4889C7   		movq	%rax, %rdi
 5125 22c0 E8000000 		call	_ZNK8UnitTest15MemoryOutStream7GetTextEv
 5125      00
 5126 22c5 4989C4   		movq	%rax, %r12
 5127 22c8 488B8538 		movq	-456(%rbp), %rax
 5127      FEFFFF
 5128 22cf 488D5808 		leaq	8(%rax), %rbx
 5129 22d3 E8000000 		call	_ZN8UnitTest11CurrentTest7ResultsEv
 5129      00
 5130              		.loc 6 138 0 discriminator 21
 5131 22d8 488B00   		movq	(%rax), %rax
 5132 22db 4C89E2   		movq	%r12, %rdx
 5133 22de 4889DE   		movq	%rbx, %rsi
 5134 22e1 4889C7   		movq	%rax, %rdi
 5135 22e4 E8000000 		call	_ZN8UnitTest11TestResults13OnTestFailureERKNS_11TestDetailsEPKc
 5135      00
 5136              	.LEHE122:
 5137              		.loc 6 138 0 discriminator 25
 5138 22e9 488D8580 		leaq	-384(%rbp), %rax
 5138      FEFFFF
 5139 22f0 4889C7   		movq	%rax, %rdi
 5140              	.LEHB123:
 5141 22f3 E8000000 		call	_ZN8UnitTest15MemoryOutStreamD1Ev
 5141      00
 5142              	.LEHE123:
 5143              	.LBE105:
 5144              		.loc 6 138 0 discriminator 26
 5145 22f8 E8000000 		call	__cxa_end_catch
 5145      00
 5146              	.LBE107:
 5147              	.LBE109:
 5148 22fd E99A0000 		jmp	.L274
 5148      00
 5149              	.L273:
 5150              	.LBB110:
 5151              		.loc 6 138 0
 5152 2302 4889C7   		movq	%rax, %rdi
 5153 2305 E8000000 		call	__cxa_begin_catch
 5153      00
 5154 230a 80BD4FFE 		cmpb	$0, -433(%rbp)
 5154      FFFF00
 5155 2311 7443     		je	.L264
 5156              		.loc 6 138 0 discriminator 28
 5157 2313 488B8538 		movq	-456(%rbp), %rax
 5157      FEFFFF
 5158 231a 488D4808 		leaq	8(%rax), %rcx
 5159 231e 488D8560 		leaq	-416(%rbp), %rax
 5159      FEFFFF
 5160 2325 BA8A0000 		movl	$138, %edx
 5160      00
 5161 232a 4889CE   		movq	%rcx, %rsi
 5162 232d 4889C7   		movq	%rax, %rdi
 5163              	.LEHB124:
 5164 2330 E8000000 		call	_ZN8UnitTest11TestDetailsC1ERKS0_i
 5164      00
 5165              		.loc 6 138 0 discriminator 31
 5166 2335 E8000000 		call	_ZN8UnitTest11CurrentTest7ResultsEv
 5166      00
 5167 233a 488B00   		movq	(%rax), %rax
 5168 233d 488D8D60 		leaq	-416(%rbp), %rcx
 5168      FEFFFF
 5169 2344 BA000000 		movl	$.LC54, %edx
 5169      00
 5170 2349 4889CE   		movq	%rcx, %rsi
 5171 234c 4889C7   		movq	%rax, %rdi
 5172 234f E8000000 		call	_ZN8UnitTest11TestResults13OnTestFailureERKNS_11TestDetailsEPKc
 5172      00
 5173 2354 EB41     		jmp	.L265
 5174              	.L264:
 5175              		.loc 6 138 0 discriminator 29
 5176 2356 488B8538 		movq	-456(%rbp), %rax
 5176      FEFFFF
 5177 235d 488D4808 		leaq	8(%rax), %rcx
 5178 2361 488D8560 		leaq	-416(%rbp), %rax
 5178      FEFFFF
 5179 2368 BA8A0000 		movl	$138, %edx
 5179      00
