   1              		.file	"TestAssertHandler.cpp"
   2              		.text
   3              	.Ltext0:
   4              		.section	.rodata
   5              	.LC0:
   6 0000 44656661 		.string	"DefaultSuite"
   6      756C7453 
   6      75697465 
   6      00
   7              		.section	.text._ZN13UnitTestSuite12GetSuiteNameEv,"axG",@progbits,_ZN13UnitTestSuite12GetSuiteName
   8              		.weak	_ZN13UnitTestSuite12GetSuiteNameEv
  10              	_ZN13UnitTestSuite12GetSuiteNameEv:
  11              	.LFB0:
  12              		.file 1 "../TestSuite.h"
   1:../TestSuite.h **** #ifndef UNITTEST_TESTSUITE_H
   2:../TestSuite.h **** #define UNITTEST_TESTSUITE_H
   3:../TestSuite.h **** 
   4:../TestSuite.h **** namespace UnitTestSuite {
   5:../TestSuite.h **** 
   6:../TestSuite.h ****     inline char const* GetSuiteName ()
   7:../TestSuite.h ****     {
  13              		.loc 1 7 0
  14              		.cfi_startproc
  15 0000 55       		pushq	%rbp
  16              		.cfi_def_cfa_offset 16
  17              		.cfi_offset 6, -16
  18 0001 4889E5   		movq	%rsp, %rbp
  19              		.cfi_def_cfa_register 6
   8:../TestSuite.h ****         return "DefaultSuite";
  20              		.loc 1 8 0
  21 0004 B8000000 		movl	$.LC0, %eax
  21      00
   9:../TestSuite.h ****     }
  22              		.loc 1 9 0
  23 0009 5D       		popq	%rbp
  24              		.cfi_def_cfa 7, 8
  25 000a C3       		ret
  26              		.cfi_endproc
  27              	.LFE0:
  29              		.section	.text._ZN8UnitTest15MemoryOutStreamC1Ev,"axG",@progbits,_ZN8UnitTest15MemoryOutStreamC1Ev
  30              		.align 2
  31              		.weak	_ZN8UnitTest15MemoryOutStreamC1Ev
  33              	_ZN8UnitTest15MemoryOutStreamC1Ev:
  34              	.LFB1053:
  35              		.file 2 "../MemoryOutStream.h"
   1:../MemoryOutStream.h **** #ifndef UNITTEST_MEMORYOUTSTREAM_H
   2:../MemoryOutStream.h **** #define UNITTEST_MEMORYOUTSTREAM_H
   3:../MemoryOutStream.h **** 
   4:../MemoryOutStream.h **** #include "Config.h"
   5:../MemoryOutStream.h **** 
   6:../MemoryOutStream.h **** #ifndef UNITTEST_USE_CUSTOM_STREAMS
   7:../MemoryOutStream.h **** 
   8:../MemoryOutStream.h **** #include <sstream>
   9:../MemoryOutStream.h **** 
  10:../MemoryOutStream.h **** namespace UnitTest
  11:../MemoryOutStream.h **** {
  12:../MemoryOutStream.h **** 
  13:../MemoryOutStream.h **** class MemoryOutStream : public std::ostringstream
  14:../MemoryOutStream.h **** {
  15:../MemoryOutStream.h **** public:
  16:../MemoryOutStream.h ****     MemoryOutStream() {}
  36              		.loc 2 16 0
  37              		.cfi_startproc
  38              		.cfi_personality 0x3,__gxx_personality_v0
  39              		.cfi_lsda 0x3,.LLSDA1053
  40 0000 55       		pushq	%rbp
  41              		.cfi_def_cfa_offset 16
  42              		.cfi_offset 6, -16
  43 0001 4889E5   		movq	%rsp, %rbp
  44              		.cfi_def_cfa_register 6
  45 0004 53       		pushq	%rbx
  46 0005 4883EC18 		subq	$24, %rsp
  47              		.cfi_offset 3, -24
  48 0009 48897DE8 		movq	%rdi, -24(%rbp)
  49              	.LBB2:
  50              		.loc 2 16 0
  51 000d 488B45E8 		movq	-24(%rbp), %rax
  52 0011 4883C060 		addq	$96, %rax
  53 0015 4889C7   		movq	%rax, %rdi
  54              	.LEHB0:
  55 0018 E8000000 		call	_ZNSt9basic_iosIcSt11char_traitsIcEEC2Ev
  55      00
  56              	.LEHE0:
  57 001d B9000000 		movl	$_ZTTN8UnitTest15MemoryOutStreamE+8, %ecx
  57      00
  58 0022 488B45E8 		movq	-24(%rbp), %rax
  59 0026 BA100000 		movl	$16, %edx
  59      00
  60 002b 4889CE   		movq	%rcx, %rsi
  61 002e 4889C7   		movq	%rax, %rdi
  62              	.LEHB1:
  63 0031 E8000000 		call	_ZNSt19basic_ostringstreamIcSt11char_traitsIcESaIcEEC2ESt13_Ios_Openmode
  63      00
  64              	.LEHE1:
  65              		.loc 2 16 0 is_stmt 0 discriminator 9
  66 0036 BA000000 		movl	$_ZTVN8UnitTest15MemoryOutStreamE+24, %edx
  66      00
  67 003b 488B45E8 		movq	-24(%rbp), %rax
  68 003f 488910   		movq	%rdx, (%rax)
  69 0042 BA600000 		movl	$96, %edx
  69      00
  70 0047 488B45E8 		movq	-24(%rbp), %rax
  71 004b 4801D0   		addq	%rdx, %rax
  72 004e BA000000 		movl	$_ZTVN8UnitTest15MemoryOutStreamE+64, %edx
  72      00
  73 0053 488910   		movq	%rdx, (%rax)
  74 0056 488B45E8 		movq	-24(%rbp), %rax
  75 005a 4883C058 		addq	$88, %rax
  76 005e 4889C7   		movq	%rax, %rdi
  77              	.LEHB2:
  78 0061 E8000000 		call	_ZNSsC1Ev
  78      00
  79              	.LEHE2:
  80              	.LBE2:
  81              		.loc 2 16 0
  82 0066 EB37     		jmp	.L8
  83              	.L6:
  84 0068 4889C3   		movq	%rax, %rbx
  85              	.LBB3:
  86 006b BA000000 		movl	$_ZTTN8UnitTest15MemoryOutStreamE+8, %edx
  86      00
  87 0070 488B45E8 		movq	-24(%rbp), %rax
  88 0074 4889D6   		movq	%rdx, %rsi
  89 0077 4889C7   		movq	%rax, %rdi
  90 007a E8000000 		call	_ZNSt19basic_ostringstreamIcSt11char_traitsIcESaIcEED2Ev
  90      00
  91 007f EB03     		jmp	.L5
  92              	.L7:
  93 0081 4889C3   		movq	%rax, %rbx
  94              	.L5:
  95              		.loc 2 16 0 discriminator 28
  96 0084 488B45E8 		movq	-24(%rbp), %rax
  97 0088 4883C060 		addq	$96, %rax
  98 008c 4889C7   		movq	%rax, %rdi
  99 008f E8000000 		call	_ZNSt9basic_iosIcSt11char_traitsIcEED2Ev
  99      00
 100 0094 4889D8   		movq	%rbx, %rax
 101 0097 4889C7   		movq	%rax, %rdi
 102              	.LEHB3:
 103 009a E8000000 		call	_Unwind_Resume
 103      00
 104              	.LEHE3:
 105              	.L8:
 106              	.LBE3:
 107              		.loc 2 16 0
 108 009f 4883C418 		addq	$24, %rsp
 109 00a3 5B       		popq	%rbx
 110 00a4 5D       		popq	%rbp
 111              		.cfi_def_cfa 7, 8
 112 00a5 C3       		ret
 113              		.cfi_endproc
 114              	.LFE1053:
 115              		.globl	__gxx_personality_v0
 116              		.section	.gcc_except_table._ZN8UnitTest15MemoryOutStreamC1Ev,"aG",@progbits,_ZN8UnitTest15MemoryOu
 117              	.LLSDA1053:
 118 0000 FF       		.byte	0xff
 119 0001 FF       		.byte	0xff
 120 0002 01       		.byte	0x1
 121 0003 12       		.uleb128 .LLSDACSE1053-.LLSDACSB1053
 122              	.LLSDACSB1053:
 123 0004 18       		.uleb128 .LEHB0-.LFB1053
 124 0005 05       		.uleb128 .LEHE0-.LEHB0
 125 0006 00       		.uleb128 0
 126 0007 00       		.uleb128 0
 127 0008 31       		.uleb128 .LEHB1-.LFB1053
 128 0009 05       		.uleb128 .LEHE1-.LEHB1
 129 000a 8101     		.uleb128 .L7-.LFB1053
 130 000c 00       		.uleb128 0
 131 000d 61       		.uleb128 .LEHB2-.LFB1053
 132 000e 05       		.uleb128 .LEHE2-.LEHB2
 133 000f 68       		.uleb128 .L6-.LFB1053
 134 0010 00       		.uleb128 0
 135 0011 9A01     		.uleb128 .LEHB3-.LFB1053
 136 0013 05       		.uleb128 .LEHE3-.LEHB3
 137 0014 00       		.uleb128 0
 138 0015 00       		.uleb128 0
 139              	.LLSDACSE1053:
 140              		.section	.text._ZN8UnitTest15MemoryOutStreamC1Ev,"axG",@progbits,_ZN8UnitTest15MemoryOutStreamC1Ev
 142              		.section	.rodata
 143              	.LC1:
 144 000d 54657374 		.string	"TestAssertHandler.cpp"
 144      41737365 
 144      72744861 
 144      6E646C65 
 144      722E6370 
 145 0023 00000000 		.align 8
 145      00
 146              	.LC2:
 147 0028 5265706F 		.string	"ReportAssertThrowsAssertException"
 147      72744173 
 147      73657274 
 147      5468726F 
 147      77734173 
 148              		.text
 149              		.align 2
 151              	_ZN12_GLOBAL__N_137TestReportAssertThrowsAssertExceptionC2Ev:
 152              	.LFB1066:
 153              		.file 3 "TestAssertHandler.cpp"
   1:TestAssertHandler.cpp **** #include "../UnitTest++.h"
   2:TestAssertHandler.cpp **** #include "../AssertException.h"
   3:TestAssertHandler.cpp **** #include "../ReportAssert.h"
   4:TestAssertHandler.cpp **** 
   5:TestAssertHandler.cpp **** using namespace UnitTest;
   6:TestAssertHandler.cpp **** 
   7:TestAssertHandler.cpp **** namespace {
   8:TestAssertHandler.cpp **** 
   9:TestAssertHandler.cpp **** TEST(ReportAssertThrowsAssertException)
 154              		.loc 3 9 0 is_stmt 1
 155              		.cfi_startproc
 156 0000 55       		pushq	%rbp
 157              		.cfi_def_cfa_offset 16
 158              		.cfi_offset 6, -16
 159 0001 4889E5   		movq	%rsp, %rbp
 160              		.cfi_def_cfa_register 6
 161 0004 4883EC10 		subq	$16, %rsp
 162 0008 48897DF8 		movq	%rdi, -8(%rbp)
 163              	.LBB4:
 164              		.loc 3 9 0
 165 000c E8000000 		call	_ZN13UnitTestSuite12GetSuiteNameEv
 165      00
 166 0011 4889C2   		movq	%rax, %rdx
 167 0014 488B45F8 		movq	-8(%rbp), %rax
 168 0018 41B80900 		movl	$9, %r8d
 168      0000
 169 001e B9000000 		movl	$.LC1, %ecx
 169      00
 170 0023 BE000000 		movl	$.LC2, %esi
 170      00
 171 0028 4889C7   		movq	%rax, %rdi
 172 002b E8000000 		call	_ZN8UnitTest4TestC2EPKcS2_S2_i
 172      00
 173 0030 488B45F8 		movq	-8(%rbp), %rax
 174 0034 48C70000 		movq	$_ZTVN12_GLOBAL__N_137TestReportAssertThrowsAssertExceptionE+16, (%rax)
 174      000000
 175              	.LBE4:
 176 003b C9       		leave
 177              		.cfi_def_cfa 7, 8
 178 003c C3       		ret
 179              		.cfi_endproc
 180              	.LFE1066:
 182              		.local	_ZN12_GLOBAL__N_145testReportAssertThrowsAssertExceptionInstanceE
 183              		.comm	_ZN12_GLOBAL__N_145testReportAssertThrowsAssertExceptionInstanceE,56,32
 184              		.local	_ZN12_GLOBAL__N_138adderReportAssertThrowsAssertExceptionE
 185              		.comm	_ZN12_GLOBAL__N_138adderReportAssertThrowsAssertExceptionE,1,1
 186              		.section	.rodata
 187              	.LC3:
 188 004a 00       		.string	""
 189              	.LC4:
 190 004b 74727565 		.string	"true == caught"
 190      203D3D20 
 190      63617567 
 190      687400
 191 005a 00000000 		.align 8
 191      0000
 192              	.LC5:
 193 0060 556E6861 		.string	"Unhandled exception in CHECK(true == caught)"
 193      6E646C65 
 193      64206578 
 193      63657074 
 193      696F6E20 
 194              		.text
 195 003d 90       		.align 2
 197              	_ZNK12_GLOBAL__N_137TestReportAssertThrowsAssertException7RunImplEv:
 198              	.LFB1068:
  10:TestAssertHandler.cpp **** {
 199              		.loc 3 10 0
 200              		.cfi_startproc
 201              		.cfi_personality 0x3,__gxx_personality_v0
 202              		.cfi_lsda 0x3,.LLSDA1068
 203 003e 55       		pushq	%rbp
 204              		.cfi_def_cfa_offset 16
 205              		.cfi_offset 6, -16
 206 003f 4889E5   		movq	%rsp, %rbp
 207              		.cfi_def_cfa_register 6
 208 0042 53       		pushq	%rbx
 209 0043 4883EC58 		subq	$88, %rsp
 210              		.cfi_offset 3, -24
 211 0047 48897DA8 		movq	%rdi, -88(%rbp)
 212              		.loc 3 10 0
 213 004b 64488B04 		movq	%fs:40, %rax
 213      25280000 
 213      00
 214 0054 488945E8 		movq	%rax, -24(%rbp)
 215 0058 31C0     		xorl	%eax, %eax
 216              	.LBB5:
  11:TestAssertHandler.cpp ****     bool caught = false;
 217              		.loc 3 11 0
 218 005a C645B700 		movb	$0, -73(%rbp)
  12:TestAssertHandler.cpp **** 
  13:TestAssertHandler.cpp ****     try
  14:TestAssertHandler.cpp ****     {
  15:TestAssertHandler.cpp ****         ReportAssert("", "", 0);
 219              		.loc 3 15 0
 220 005e BA000000 		movl	$0, %edx
 220      00
 221 0063 BE000000 		movl	$.LC3, %esi
 221      00
 222 0068 BF000000 		movl	$.LC3, %edi
 222      00
 223              	.LEHB4:
 224 006d E8000000 		call	_ZN8UnitTest12ReportAssertEPKcS1_i
 224      00
 225              	.LEHE4:
 226              	.L15:
  16:TestAssertHandler.cpp ****     }
  17:TestAssertHandler.cpp ****     catch(AssertException const&)
  18:TestAssertHandler.cpp ****     {
  19:TestAssertHandler.cpp ****         caught = true;
  20:TestAssertHandler.cpp ****     }
  21:TestAssertHandler.cpp **** 
  22:TestAssertHandler.cpp ****     CHECK (true == caught);
 227              		.loc 3 22 0
 228 0072 0FB645B7 		movzbl	-73(%rbp), %eax
 229 0076 89C7     		movl	%eax, %edi
 230 0078 E8000000 		call	_ZN8UnitTest5CheckIbEEbT_
 230      00
 231 007d 83F001   		xorl	$1, %eax
 232 0080 84C0     		testb	%al, %al
 233 0082 0F84B800 		je	.L10
 233      0000
 234              	.LEHB5:
 235              		.loc 3 22 0 is_stmt 0 discriminator 1
 236 0088 E8000000 		call	_ZN8UnitTest11CurrentTest7DetailsEv
 236      00
 237 008d 488B08   		movq	(%rax), %rcx
 238 0090 488D45C0 		leaq	-64(%rbp), %rax
 239 0094 BA160000 		movl	$22, %edx
 239      00
 240 0099 4889CE   		movq	%rcx, %rsi
 241 009c 4889C7   		movq	%rax, %rdi
 242 009f E8000000 		call	_ZN8UnitTest11TestDetailsC1ERKS0_i
 242      00
 243              		.loc 3 22 0 discriminator 3
 244 00a4 E8000000 		call	_ZN8UnitTest11CurrentTest7ResultsEv
 244      00
 245 00a9 488B00   		movq	(%rax), %rax
 246 00ac 488D4DC0 		leaq	-64(%rbp), %rcx
 247 00b0 BA000000 		movl	$.LC4, %edx
 247      00
 248 00b5 4889CE   		movq	%rcx, %rsi
 249 00b8 4889C7   		movq	%rax, %rdi
 250 00bb E8000000 		call	_ZN8UnitTest11TestResults13OnTestFailureERKNS_11TestDetailsEPKc
 250      00
 251              	.LEHE5:
 252 00c0 EB7E     		jmp	.L10
 253              	.L19:
 254 00c2 4883FA01 		cmpq	$1, %rdx
 255 00c6 7408     		je	.L14
 256 00c8 4889C7   		movq	%rax, %rdi
 257              	.LEHB6:
 258 00cb E8000000 		call	_Unwind_Resume
 258      00
 259              	.LEHE6:
 260              	.L14:
 261              	.LBB6:
  17:TestAssertHandler.cpp ****     {
 262              		.loc 3 17 0 is_stmt 1
 263 00d0 4889C7   		movq	%rax, %rdi
 264 00d3 E8000000 		call	__cxa_begin_catch
 264      00
 265 00d8 488945B8 		movq	%rax, -72(%rbp)
  19:TestAssertHandler.cpp ****     }
 266              		.loc 3 19 0
 267 00dc C645B701 		movb	$1, -73(%rbp)
  17:TestAssertHandler.cpp ****     {
 268              		.loc 3 17 0
 269 00e0 E8000000 		call	__cxa_end_catch
 269      00
 270 00e5 EB8B     		jmp	.L15
 271              	.L21:
 272 00e7 4889C3   		movq	%rax, %rbx
 273              	.LBE6:
 274              		.loc 3 22 0
 275 00ea E8000000 		call	__cxa_end_catch
 275      00
 276 00ef 4889D8   		movq	%rbx, %rax
 277 00f2 4889C7   		movq	%rax, %rdi
 278              	.LEHB7:
 279 00f5 E8000000 		call	_Unwind_Resume
 279      00
 280              	.LEHE7:
 281              	.L20:
 282 00fa 4889C7   		movq	%rax, %rdi
 283 00fd E8000000 		call	__cxa_begin_catch
 283      00
 284              	.LEHB8:
 285 0102 E8000000 		call	_ZN8UnitTest11CurrentTest7DetailsEv
 285      00
 286 0107 488B08   		movq	(%rax), %rcx
 287 010a 488D45C0 		leaq	-64(%rbp), %rax
 288 010e BA160000 		movl	$22, %edx
 288      00
 289 0113 4889CE   		movq	%rcx, %rsi
 290 0116 4889C7   		movq	%rax, %rdi
 291 0119 E8000000 		call	_ZN8UnitTest11TestDetailsC1ERKS0_i
 291      00
 292              		.loc 3 22 0 is_stmt 0 discriminator 11
 293 011e E8000000 		call	_ZN8UnitTest11CurrentTest7ResultsEv
 293      00
 294 0123 488B00   		movq	(%rax), %rax
 295 0126 488D4DC0 		leaq	-64(%rbp), %rcx
 296 012a BA000000 		movl	$.LC5, %edx
 296      00
 297 012f 4889CE   		movq	%rcx, %rsi
 298 0132 4889C7   		movq	%rax, %rdi
 299 0135 E8000000 		call	_ZN8UnitTest11TestResults13OnTestFailureERKNS_11TestDetailsEPKc
 299      00
 300              	.LEHE8:
 301              	.LEHB9:
 302              		.loc 3 22 0 discriminator 15
 303 013a E8000000 		call	__cxa_end_catch
 303      00
 304              	.LEHE9:
 305              	.LBE5:
  23:TestAssertHandler.cpp **** }
 306              		.loc 3 23 0 is_stmt 1 discriminator 15
 307 013f 90       		nop
 308              	.L10:
 309              		.loc 3 23 0 is_stmt 0
 310 0140 488B45E8 		movq	-24(%rbp), %rax
 311 0144 64483304 		xorq	%fs:40, %rax
 311      25280000 
 311      00
 312 014d 7405     		je	.L18
 313 014f E8000000 		call	__stack_chk_fail
 313      00
 314              	.L18:
 315 0154 4883C458 		addq	$88, %rsp
 316 0158 5B       		popq	%rbx
 317 0159 5D       		popq	%rbp
 318              		.cfi_def_cfa 7, 8
 319 015a C3       		ret
 320              		.cfi_endproc
 321              	.LFE1068:
 322              		.section	.gcc_except_table,"a",@progbits
 323              		.align 4
 324              	.LLSDA1068:
 325 0000 FF       		.byte	0xff
 326 0001 03       		.byte	0x3
 327 0002 2D       		.uleb128 .LLSDATT1068-.LLSDATTD1068
 328              	.LLSDATTD1068:
 329 0003 01       		.byte	0x1
 330 0004 1F       		.uleb128 .LLSDACSE1068-.LLSDACSB1068
 331              	.LLSDACSB1068:
 332 0005 2F       		.uleb128 .LEHB4-.LFB1068
 333 0006 05       		.uleb128 .LEHE4-.LEHB4
 334 0007 8401     		.uleb128 .L19-.LFB1068
 335 0009 01       		.uleb128 0x1
 336 000a 4A       		.uleb128 .LEHB5-.LFB1068
 337 000b 38       		.uleb128 .LEHE5-.LEHB5
 338 000c BC01     		.uleb128 .L20-.LFB1068
 339 000e 03       		.uleb128 0x3
 340 000f 8D01     		.uleb128 .LEHB6-.LFB1068
 341 0011 05       		.uleb128 .LEHE6-.LEHB6
 342 0012 00       		.uleb128 0
 343 0013 00       		.uleb128 0
 344 0014 B701     		.uleb128 .LEHB7-.LFB1068
 345 0016 05       		.uleb128 .LEHE7-.LEHB7
 346 0017 00       		.uleb128 0
 347 0018 00       		.uleb128 0
 348 0019 C401     		.uleb128 .LEHB8-.LFB1068
 349 001b 38       		.uleb128 .LEHE8-.LEHB8
 350 001c A901     		.uleb128 .L21-.LFB1068
 351 001e 00       		.uleb128 0
 352 001f FC01     		.uleb128 .LEHB9-.LFB1068
 353 0021 05       		.uleb128 .LEHE9-.LEHB9
 354 0022 00       		.uleb128 0
 355 0023 00       		.uleb128 0
 356              	.LLSDACSE1068:
 357 0024 01       		.byte	0x1
 358 0025 00       		.byte	0
 359 0026 02       		.byte	0x2
 360 0027 00       		.byte	0
 361              		.align 4
 362 0028 00000000 		.long	0
 363              	
 364 002c 00000000 		.long	_ZTIN8UnitTest15AssertExceptionE
 365              	.LLSDATT1068:
 366              		.text
 368              		.section	.rodata
 369 008d 000000   		.align 8
 370              	.LC6:
 371 0090 5265706F 		.string	"ReportAssertSetsCorrectInfoInException"
 371      72744173 
 371      73657274 
 371      53657473 
 371      436F7272 
 372              		.text
 373 015b 90       		.align 2
 375              	_ZN12_GLOBAL__N_142TestReportAssertSetsCorrectInfoInExceptionC2Ev:
 376              	.LFB1070:
  24:TestAssertHandler.cpp **** 
  25:TestAssertHandler.cpp **** TEST(ReportAssertSetsCorrectInfoInException)
 377              		.loc 3 25 0 is_stmt 1
 378              		.cfi_startproc
 379 015c 55       		pushq	%rbp
 380              		.cfi_def_cfa_offset 16
 381              		.cfi_offset 6, -16
 382 015d 4889E5   		movq	%rsp, %rbp
 383              		.cfi_def_cfa_register 6
 384 0160 4883EC10 		subq	$16, %rsp
 385 0164 48897DF8 		movq	%rdi, -8(%rbp)
 386              	.LBB7:
 387              		.loc 3 25 0
 388 0168 E8000000 		call	_ZN13UnitTestSuite12GetSuiteNameEv
 388      00
 389 016d 4889C2   		movq	%rax, %rdx
 390 0170 488B45F8 		movq	-8(%rbp), %rax
 391 0174 41B81900 		movl	$25, %r8d
 391      0000
 392 017a B9000000 		movl	$.LC1, %ecx
 392      00
 393 017f BE000000 		movl	$.LC6, %esi
 393      00
 394 0184 4889C7   		movq	%rax, %rdi
 395 0187 E8000000 		call	_ZN8UnitTest4TestC2EPKcS2_S2_i
 395      00
 396 018c 488B45F8 		movq	-8(%rbp), %rax
 397 0190 48C70000 		movq	$_ZTVN12_GLOBAL__N_142TestReportAssertSetsCorrectInfoInExceptionE+16, (%rax)
 397      000000
 398              	.LBE7:
 399 0197 C9       		leave
 400              		.cfi_def_cfa 7, 8
 401 0198 C3       		ret
 402              		.cfi_endproc
 403              	.LFE1070:
 405              		.local	_ZN12_GLOBAL__N_150testReportAssertSetsCorrectInfoInExceptionInstanceE
 406              		.comm	_ZN12_GLOBAL__N_150testReportAssertSetsCorrectInfoInExceptionInstanceE,56,32
 407              		.local	_ZN12_GLOBAL__N_143adderReportAssertSetsCorrectInfoInExceptionE
 408              		.comm	_ZN12_GLOBAL__N_143adderReportAssertSetsCorrectInfoInExceptionE,1,1
 409              		.section	.rodata
 410              	.LC7:
 411 00b7 64657363 		.string	"description"
 411      72697074 
 411      696F6E00 
 412              	.LC8:
 413 00c3 66696C65 		.string	"filename"
 413      6E616D65 
 413      00
 414 00cc 00000000 		.align 8
 415              	.LC9:
 416 00d0 556E6861 		.string	"Unhandled exception in CHECK_EQUAL(description, e.what())"
 416      6E646C65 
 416      64206578 
 416      63657074 
 416      696F6E20 
 417 010a 00000000 		.align 8
 417      0000
 418              	.LC10:
 419 0110 556E6861 		.string	"Unhandled exception in CHECK_EQUAL(filename, e.Filename())"
 419      6E646C65 
 419      64206578 
 419      63657074 
 419      696F6E20 
 420 014b 00000000 		.align 8
 420      00
 421              	.LC11:
 422 0150 556E6861 		.string	"Unhandled exception in CHECK_EQUAL(lineNumber, e.LineNumber())"
 422      6E646C65 
 422      64206578 
 422      63657074 
 422      696F6E20 
 423              		.text
 424 0199 90       		.align 2
 426              	_ZNK12_GLOBAL__N_142TestReportAssertSetsCorrectInfoInException7RunImplEv:
 427              	.LFB1072:
  26:TestAssertHandler.cpp **** {
 428              		.loc 3 26 0
 429              		.cfi_startproc
 430              		.cfi_personality 0x3,__gxx_personality_v0
 431              		.cfi_lsda 0x3,.LLSDA1072
 432 019a 55       		pushq	%rbp
 433              		.cfi_def_cfa_offset 16
 434              		.cfi_offset 6, -16
 435 019b 4889E5   		movq	%rsp, %rbp
 436              		.cfi_def_cfa_register 6
 437 019e 53       		pushq	%rbx
 438 019f 4883EC68 		subq	$104, %rsp
 439              		.cfi_offset 3, -24
 440 01a3 48897D98 		movq	%rdi, -104(%rbp)
 441              		.loc 3 26 0
 442 01a7 64488B04 		movq	%fs:40, %rax
 442      25280000 
 442      00
 443 01b0 488945E8 		movq	%rax, -24(%rbp)
 444 01b4 31C0     		xorl	%eax, %eax
 445              	.LBB8:
  27:TestAssertHandler.cpp ****     const int lineNumber = 12345;
 446              		.loc 3 27 0
 447 01b6 C745A039 		movl	$12345, -96(%rbp)
 447      300000
  28:TestAssertHandler.cpp ****     const char* description = "description";
 448              		.loc 3 28 0
 449 01bd 48C745A8 		movq	$.LC7, -88(%rbp)
 449      00000000 
  29:TestAssertHandler.cpp ****     const char* filename = "filename";
 450              		.loc 3 29 0
 451 01c5 48C745B0 		movq	$.LC8, -80(%rbp)
 451      00000000 
  30:TestAssertHandler.cpp **** 
  31:TestAssertHandler.cpp ****     try
  32:TestAssertHandler.cpp ****     {
  33:TestAssertHandler.cpp ****         ReportAssert(description, filename, lineNumber);
 452              		.loc 3 33 0
 453 01cd 488B4DB0 		movq	-80(%rbp), %rcx
 454 01d1 488B45A8 		movq	-88(%rbp), %rax
 455 01d5 BA393000 		movl	$12345, %edx
 455      00
 456 01da 4889CE   		movq	%rcx, %rsi
 457 01dd 4889C7   		movq	%rax, %rdi
 458              	.LEHB10:
 459 01e0 E8000000 		call	_ZN8UnitTest12ReportAssertEPKcS1_i
 459      00
 460              	.LEHE10:
 461              	.LBE8:
  34:TestAssertHandler.cpp ****     }
  35:TestAssertHandler.cpp ****     catch(AssertException const& e)
  36:TestAssertHandler.cpp ****     {
  37:TestAssertHandler.cpp ****         CHECK_EQUAL(description, e.what());
  38:TestAssertHandler.cpp ****         CHECK_EQUAL(filename, e.Filename());
  39:TestAssertHandler.cpp ****         CHECK_EQUAL(lineNumber, e.LineNumber());
  40:TestAssertHandler.cpp ****     }
  41:TestAssertHandler.cpp **** }
 462              		.loc 3 41 0
 463 01e5 E9180200 		jmp	.L47
 463      00
 464              	.L42:
 465 01ea 4889C3   		movq	%rax, %rbx
 466              	.LBB10:
 467              	.LBB9:
  37:TestAssertHandler.cpp ****         CHECK_EQUAL(filename, e.Filename());
 468              		.loc 3 37 0
 469 01ed E8000000 		call	__cxa_end_catch
 469      00
 470 01f2 E9F80000 		jmp	.L25
 470      00
 471              	.L40:
 472 01f7 4889C7   		movq	%rax, %rdi
 473 01fa E8000000 		call	__cxa_begin_catch
 473      00
 474              	.LEHB11:
 475 01ff E8000000 		call	_ZN8UnitTest11CurrentTest7DetailsEv
 475      00
 476 0204 488B08   		movq	(%rax), %rcx
 477 0207 488D45C0 		leaq	-64(%rbp), %rax
 478 020b BA250000 		movl	$37, %edx
 478      00
 479 0210 4889CE   		movq	%rcx, %rsi
 480 0213 4889C7   		movq	%rax, %rdi
 481 0216 E8000000 		call	_ZN8UnitTest11TestDetailsC1ERKS0_i
 481      00
  37:TestAssertHandler.cpp ****         CHECK_EQUAL(filename, e.Filename());
 482              		.loc 3 37 0 is_stmt 0 discriminator 4
 483 021b E8000000 		call	_ZN8UnitTest11CurrentTest7ResultsEv
 483      00
 484 0220 488B00   		movq	(%rax), %rax
 485 0223 488D4DC0 		leaq	-64(%rbp), %rcx
 486 0227 BA000000 		movl	$.LC9, %edx
 486      00
 487 022c 4889CE   		movq	%rcx, %rsi
 488 022f 4889C7   		movq	%rax, %rdi
 489 0232 E8000000 		call	_ZN8UnitTest11TestResults13OnTestFailureERKNS_11TestDetailsEPKc
 489      00
 490              	.LEHE11:
 491              	.LEHB12:
  37:TestAssertHandler.cpp ****         CHECK_EQUAL(filename, e.Filename());
 492              		.loc 3 37 0 discriminator 8
 493 0237 E8000000 		call	__cxa_end_catch
 493      00
 494              	.LEHE12:
  37:TestAssertHandler.cpp ****         CHECK_EQUAL(filename, e.Filename());
 495              		.loc 3 37 0
 496 023c E92C0100 		jmp	.L27
 496      00
 497              	.L44:
 498 0241 4889C3   		movq	%rax, %rbx
  38:TestAssertHandler.cpp ****         CHECK_EQUAL(lineNumber, e.LineNumber());
 499              		.loc 3 38 0 is_stmt 1
 500 0244 E8000000 		call	__cxa_end_catch
 500      00
 501 0249 E9A10000 		jmp	.L25
 501      00
 502              	.L43:
 503 024e 4889C7   		movq	%rax, %rdi
 504 0251 E8000000 		call	__cxa_begin_catch
 504      00
 505              	.LEHB13:
 506 0256 E8000000 		call	_ZN8UnitTest11CurrentTest7DetailsEv
 506      00
 507 025b 488B08   		movq	(%rax), %rcx
 508 025e 488D45C0 		leaq	-64(%rbp), %rax
 509 0262 BA260000 		movl	$38, %edx
 509      00
 510 0267 4889CE   		movq	%rcx, %rsi
 511 026a 4889C7   		movq	%rax, %rdi
 512 026d E8000000 		call	_ZN8UnitTest11TestDetailsC1ERKS0_i
 512      00
  38:TestAssertHandler.cpp ****         CHECK_EQUAL(lineNumber, e.LineNumber());
 513              		.loc 3 38 0 is_stmt 0 discriminator 4
 514 0272 E8000000 		call	_ZN8UnitTest11CurrentTest7ResultsEv
 514      00
 515 0277 488B00   		movq	(%rax), %rax
 516 027a 488D4DC0 		leaq	-64(%rbp), %rcx
 517 027e BA000000 		movl	$.LC10, %edx
 517      00
 518 0283 4889CE   		movq	%rcx, %rsi
 519 0286 4889C7   		movq	%rax, %rdi
 520 0289 E8000000 		call	_ZN8UnitTest11TestResults13OnTestFailureERKNS_11TestDetailsEPKc
 520      00
 521              	.LEHE13:
 522              	.LEHB14:
  38:TestAssertHandler.cpp ****         CHECK_EQUAL(lineNumber, e.LineNumber());
 523              		.loc 3 38 0 discriminator 8
 524 028e E8000000 		call	__cxa_end_catch
 524      00
 525              	.LEHE14:
  38:TestAssertHandler.cpp ****         CHECK_EQUAL(lineNumber, e.LineNumber());
 526              		.loc 3 38 0
 527 0293 E91E0100 		jmp	.L30
 527      00
 528              	.L46:
 529 0298 4889C3   		movq	%rax, %rbx
  39:TestAssertHandler.cpp ****     }
 530              		.loc 3 39 0 is_stmt 1
 531 029b E8000000 		call	__cxa_end_catch
 531      00
 532 02a0 EB4D     		jmp	.L25
 533              	.L45:
 534 02a2 4889C7   		movq	%rax, %rdi
 535 02a5 E8000000 		call	__cxa_begin_catch
 535      00
 536              	.LEHB15:
 537 02aa E8000000 		call	_ZN8UnitTest11CurrentTest7DetailsEv
 537      00
 538 02af 488B08   		movq	(%rax), %rcx
 539 02b2 488D45C0 		leaq	-64(%rbp), %rax
 540 02b6 BA270000 		movl	$39, %edx
 540      00
 541 02bb 4889CE   		movq	%rcx, %rsi
 542 02be 4889C7   		movq	%rax, %rdi
 543 02c1 E8000000 		call	_ZN8UnitTest11TestDetailsC1ERKS0_i
 543      00
  39:TestAssertHandler.cpp ****     }
 544              		.loc 3 39 0 is_stmt 0 discriminator 4
 545 02c6 E8000000 		call	_ZN8UnitTest11CurrentTest7ResultsEv
 545      00
 546 02cb 488B00   		movq	(%rax), %rax
 547 02ce 488D4DC0 		leaq	-64(%rbp), %rcx
 548 02d2 BA000000 		movl	$.LC11, %edx
 548      00
 549 02d7 4889CE   		movq	%rcx, %rsi
 550 02da 4889C7   		movq	%rax, %rdi
 551 02dd E8000000 		call	_ZN8UnitTest11TestResults13OnTestFailureERKNS_11TestDetailsEPKc
 551      00
 552              	.LEHE15:
 553              	.LEHB16:
  39:TestAssertHandler.cpp ****     }
 554              		.loc 3 39 0 discriminator 8
 555 02e2 E8000000 		call	__cxa_end_catch
 555      00
 556              	.LEHE16:
  39:TestAssertHandler.cpp ****     }
 557              		.loc 3 39 0
 558 02e7 E9110100 		jmp	.L33
 558      00
 559              	.L41:
 560 02ec 4889C3   		movq	%rax, %rbx
 561              	.L25:
  35:TestAssertHandler.cpp ****     {
 562              		.loc 3 35 0 is_stmt 1
 563 02ef E8000000 		call	__cxa_end_catch
 563      00
 564 02f4 4889D8   		movq	%rbx, %rax
 565 02f7 4889C7   		movq	%rax, %rdi
 566              	.LEHB17:
 567 02fa E8000000 		call	_Unwind_Resume
 567      00
 568              	.L39:
 569 02ff 4883FA01 		cmpq	$1, %rdx
 570 0303 7408     		je	.L36
 571 0305 4889C7   		movq	%rax, %rdi
 572 0308 E8000000 		call	_Unwind_Resume
 572      00
 573              	.LEHE17:
 574              	.L36:
 575 030d 4889C7   		movq	%rax, %rdi
 576 0310 E8000000 		call	__cxa_begin_catch
 576      00
 577 0315 488945B8 		movq	%rax, -72(%rbp)
 578              	.LEHB18:
  37:TestAssertHandler.cpp ****         CHECK_EQUAL(filename, e.Filename());
 579              		.loc 3 37 0
 580 0319 E8000000 		call	_ZN8UnitTest11CurrentTest7DetailsEv
 580      00
 581 031e 488B08   		movq	(%rax), %rcx
 582 0321 488D45C0 		leaq	-64(%rbp), %rax
 583 0325 BA250000 		movl	$37, %edx
 583      00
 584 032a 4889CE   		movq	%rcx, %rsi
 585 032d 4889C7   		movq	%rax, %rdi
 586 0330 E8000000 		call	_ZN8UnitTest11TestDetailsC1ERKS0_i
 586      00
  37:TestAssertHandler.cpp ****         CHECK_EQUAL(filename, e.Filename());
 587              		.loc 3 37 0 is_stmt 0 discriminator 10
 588 0335 488B45B8 		movq	-72(%rbp), %rax
 589 0339 488B00   		movq	(%rax), %rax
 590 033c 4883C010 		addq	$16, %rax
 591 0340 488B00   		movq	(%rax), %rax
 592 0343 488B55B8 		movq	-72(%rbp), %rdx
 593 0347 4889D7   		movq	%rdx, %rdi
 594 034a FFD0     		call	*%rax
 595 034c 4889C3   		movq	%rax, %rbx
 596 034f E8000000 		call	_ZN8UnitTest11CurrentTest7ResultsEv
 596      00
 597 0354 488B00   		movq	(%rax), %rax
 598 0357 488D55C0 		leaq	-64(%rbp), %rdx
 599 035b 488B75A8 		movq	-88(%rbp), %rsi
 600 035f 4889D1   		movq	%rdx, %rcx
 601 0362 4889DA   		movq	%rbx, %rdx
 602 0365 4889C7   		movq	%rax, %rdi
 603 0368 E8000000 		call	_ZN8UnitTest10CheckEqualERNS_11TestResultsEPKcS3_RKNS_11TestDetailsE
 603      00
 604              	.LEHE18:
 605              	.L27:
 606              	.LEHB19:
  38:TestAssertHandler.cpp ****         CHECK_EQUAL(lineNumber, e.LineNumber());
 607              		.loc 3 38 0 is_stmt 1
 608 036d E8000000 		call	_ZN8UnitTest11CurrentTest7DetailsEv
 608      00
 609 0372 488B08   		movq	(%rax), %rcx
 610 0375 488D45C0 		leaq	-64(%rbp), %rax
 611 0379 BA260000 		movl	$38, %edx
 611      00
 612 037e 4889CE   		movq	%rcx, %rsi
 613 0381 4889C7   		movq	%rax, %rdi
 614 0384 E8000000 		call	_ZN8UnitTest11TestDetailsC1ERKS0_i
 614      00
  38:TestAssertHandler.cpp ****         CHECK_EQUAL(lineNumber, e.LineNumber());
 615              		.loc 3 38 0 is_stmt 0 discriminator 10
 616 0389 488B45B8 		movq	-72(%rbp), %rax
 617 038d 4889C7   		movq	%rax, %rdi
 618 0390 E8000000 		call	_ZNK8UnitTest15AssertException8FilenameEv
 618      00
 619 0395 4889C3   		movq	%rax, %rbx
 620 0398 E8000000 		call	_ZN8UnitTest11CurrentTest7ResultsEv
 620      00
  38:TestAssertHandler.cpp ****         CHECK_EQUAL(lineNumber, e.LineNumber());
 621              		.loc 3 38 0 discriminator 12
 622 039d 488B00   		movq	(%rax), %rax
 623 03a0 488D55C0 		leaq	-64(%rbp), %rdx
 624 03a4 488B75B0 		movq	-80(%rbp), %rsi
 625 03a8 4889D1   		movq	%rdx, %rcx
 626 03ab 4889DA   		movq	%rbx, %rdx
 627 03ae 4889C7   		movq	%rax, %rdi
 628 03b1 E8000000 		call	_ZN8UnitTest10CheckEqualERNS_11TestResultsEPKcS3_RKNS_11TestDetailsE
 628      00
 629              	.LEHE19:
 630              	.L30:
 631              	.LEHB20:
  39:TestAssertHandler.cpp ****     }
 632              		.loc 3 39 0 is_stmt 1
 633 03b6 E8000000 		call	_ZN8UnitTest11CurrentTest7DetailsEv
 633      00
 634 03bb 488B08   		movq	(%rax), %rcx
 635 03be 488D45C0 		leaq	-64(%rbp), %rax
 636 03c2 BA270000 		movl	$39, %edx
 636      00
 637 03c7 4889CE   		movq	%rcx, %rsi
 638 03ca 4889C7   		movq	%rax, %rdi
 639 03cd E8000000 		call	_ZN8UnitTest11TestDetailsC1ERKS0_i
 639      00
  39:TestAssertHandler.cpp ****     }
 640              		.loc 3 39 0 is_stmt 0 discriminator 10
 641 03d2 488B45B8 		movq	-72(%rbp), %rax
 642 03d6 4889C7   		movq	%rax, %rdi
 643 03d9 E8000000 		call	_ZNK8UnitTest15AssertException10LineNumberEv
 643      00
 644 03de 8945A4   		movl	%eax, -92(%rbp)
 645 03e1 E8000000 		call	_ZN8UnitTest11CurrentTest7ResultsEv
 645      00
  39:TestAssertHandler.cpp ****     }
 646              		.loc 3 39 0 discriminator 12
 647 03e6 488B00   		movq	(%rax), %rax
 648 03e9 488D4DC0 		leaq	-64(%rbp), %rcx
 649 03ed 488D55A4 		leaq	-92(%rbp), %rdx
 650 03f1 488D75A0 		leaq	-96(%rbp), %rsi
 651 03f5 4889C7   		movq	%rax, %rdi
 652 03f8 E8000000 		call	_ZN8UnitTest10CheckEqualIiiEEvRNS_11TestResultsERKT_RKT0_RKNS_11TestDetailsE
 652      00
 653              	.LEHE20:
 654              	.L33:
  35:TestAssertHandler.cpp ****     {
 655              		.loc 3 35 0 is_stmt 1
 656 03fd E8000000 		call	__cxa_end_catch
 656      00
 657              	.L47:
 658              	.LBE9:
 659              	.LBE10:
 660              		.loc 3 41 0
 661 0402 90       		nop
 662 0403 488B45E8 		movq	-24(%rbp), %rax
 663 0407 64483304 		xorq	%fs:40, %rax
 663      25280000 
 663      00
 664 0410 7405     		je	.L38
 665 0412 E8000000 		call	__stack_chk_fail
 665      00
 666              	.L38:
 667 0417 4883C468 		addq	$104, %rsp
 668 041b 5B       		popq	%rbx
 669 041c 5D       		popq	%rbp
 670              		.cfi_def_cfa 7, 8
 671 041d C3       		ret
 672              		.cfi_endproc
 673              	.LFE1072:
 674              		.section	.gcc_except_table
 675              		.align 4
 676              	.LLSDA1072:
 677 0030 FF       		.byte	0xff
 678 0031 03       		.byte	0x3
 679 0032 4D       		.uleb128 .LLSDATT1072-.LLSDATTD1072
 680              	.LLSDATTD1072:
 681 0033 01       		.byte	0x1
 682 0034 3D       		.uleb128 .LLSDACSE1072-.LLSDACSB1072
 683              	.LLSDACSB1072:
 684 0035 46       		.uleb128 .LEHB10-.LFB1072
 685 0036 05       		.uleb128 .LEHE10-.LEHB10
 686 0037 E502     		.uleb128 .L39-.LFB1072
 687 0039 01       		.uleb128 0x1
 688 003a 65       		.uleb128 .LEHB11-.LFB1072
 689 003b 38       		.uleb128 .LEHE11-.LEHB11
 690 003c 50       		.uleb128 .L42-.LFB1072
 691 003d 00       		.uleb128 0
 692 003e 9D01     		.uleb128 .LEHB12-.LFB1072
 693 0040 05       		.uleb128 .LEHE12-.LEHB12
 694 0041 D202     		.uleb128 .L41-.LFB1072
 695 0043 00       		.uleb128 0
 696 0044 BC01     		.uleb128 .LEHB13-.LFB1072
 697 0046 38       		.uleb128 .LEHE13-.LEHB13
 698 0047 A701     		.uleb128 .L44-.LFB1072
 699 0049 00       		.uleb128 0
 700 004a F401     		.uleb128 .LEHB14-.LFB1072
 701 004c 05       		.uleb128 .LEHE14-.LEHB14
 702 004d D202     		.uleb128 .L41-.LFB1072
 703 004f 00       		.uleb128 0
 704 0050 9002     		.uleb128 .LEHB15-.LFB1072
 705 0052 38       		.uleb128 .LEHE15-.LEHB15
 706 0053 FE01     		.uleb128 .L46-.LFB1072
 707 0055 00       		.uleb128 0
 708 0056 C802     		.uleb128 .LEHB16-.LFB1072
 709 0058 05       		.uleb128 .LEHE16-.LEHB16
 710 0059 D202     		.uleb128 .L41-.LFB1072
 711 005b 00       		.uleb128 0
 712 005c E002     		.uleb128 .LEHB17-.LFB1072
 713 005e 13       		.uleb128 .LEHE17-.LEHB17
 714 005f 00       		.uleb128 0
 715 0060 00       		.uleb128 0
 716 0061 FF02     		.uleb128 .LEHB18-.LFB1072
 717 0063 54       		.uleb128 .LEHE18-.LEHB18
 718 0064 5D       		.uleb128 .L40-.LFB1072
 719 0065 03       		.uleb128 0x3
 720 0066 D303     		.uleb128 .LEHB19-.LFB1072
 721 0068 49       		.uleb128 .LEHE19-.LEHB19
 722 0069 B401     		.uleb128 .L43-.LFB1072
 723 006b 03       		.uleb128 0x3
 724 006c 9C04     		.uleb128 .LEHB20-.LFB1072
 725 006e 47       		.uleb128 .LEHE20-.LEHB20
 726 006f 8802     		.uleb128 .L45-.LFB1072
 727 0071 03       		.uleb128 0x3
 728              	.LLSDACSE1072:
 729 0072 01       		.byte	0x1
 730 0073 00       		.byte	0
 731 0074 02       		.byte	0x2
 732 0075 00       		.byte	0
 733 0076 0000     		.align 4
 734 0078 00000000 		.long	0
 735              	
 736 007c 00000000 		.long	_ZTIN8UnitTest15AssertExceptionE
 737              	.LLSDATT1072:
 738              		.text
 740              		.section	.text._ZN8UnitTest5CheckIbEEbT_,"axG",@progbits,_ZN8UnitTest5CheckIbEEbT_,comdat
 741              		.weak	_ZN8UnitTest5CheckIbEEbT_
 743              	_ZN8UnitTest5CheckIbEEbT_:
 744              	.LFB1100:
 745              		.file 4 "../Checks.h"
   1:../Checks.h   **** #ifndef UNITTEST_CHECKS_H
   2:../Checks.h   **** #define UNITTEST_CHECKS_H
   3:../Checks.h   **** 
   4:../Checks.h   **** #include "Config.h"
   5:../Checks.h   **** #include "TestResults.h"
   6:../Checks.h   **** #include "MemoryOutStream.h"
   7:../Checks.h   **** 
   8:../Checks.h   **** namespace UnitTest {
   9:../Checks.h   **** 
  10:../Checks.h   **** 
  11:../Checks.h   **** template< typename Value >
  12:../Checks.h   **** bool Check(Value const value)
 746              		.loc 4 12 0
 747              		.cfi_startproc
 748 0000 55       		pushq	%rbp
 749              		.cfi_def_cfa_offset 16
 750              		.cfi_offset 6, -16
 751 0001 4889E5   		movq	%rsp, %rbp
 752              		.cfi_def_cfa_register 6
 753 0004 89F8     		movl	%edi, %eax
 754 0006 8845FC   		movb	%al, -4(%rbp)
  13:../Checks.h   **** {
  14:../Checks.h   ****     return !!value; // doing double negative to avoid silly VS warnings
 755              		.loc 4 14 0
 756 0009 0FB645FC 		movzbl	-4(%rbp), %eax
  15:../Checks.h   **** }
 757              		.loc 4 15 0
 758 000d 5D       		popq	%rbp
 759              		.cfi_def_cfa 7, 8
 760 000e C3       		ret
 761              		.cfi_endproc
 762              	.LFE1100:
 764              		.section	.text._ZN8UnitTest15MemoryOutStreamD1Ev,"axG",@progbits,_ZN8UnitTest15MemoryOutStreamD1Ev
 765              		.align 2
 766              		.weak	_ZN8UnitTest15MemoryOutStreamD1Ev
 768              	_ZN8UnitTest15MemoryOutStreamD1Ev:
 769              	.LFB1104:
  13:../MemoryOutStream.h **** {
 770              		.loc 2 13 0
 771              		.cfi_startproc
 772              		.cfi_personality 0x3,__gxx_personality_v0
 773              		.cfi_lsda 0x3,.LLSDA1104
 774 0000 55       		pushq	%rbp
 775              		.cfi_def_cfa_offset 16
 776              		.cfi_offset 6, -16
 777 0001 4889E5   		movq	%rsp, %rbp
 778              		.cfi_def_cfa_register 6
 779 0004 53       		pushq	%rbx
 780 0005 4883EC18 		subq	$24, %rsp
 781              		.cfi_offset 3, -24
 782 0009 48897DE8 		movq	%rdi, -24(%rbp)
 783              	.LBB11:
  13:../MemoryOutStream.h **** {
 784              		.loc 2 13 0
 785 000d BA000000 		movl	$_ZTVN8UnitTest15MemoryOutStreamE+24, %edx
 785      00
 786 0012 488B45E8 		movq	-24(%rbp), %rax
 787 0016 488910   		movq	%rdx, (%rax)
 788 0019 BA600000 		movl	$96, %edx
 788      00
 789 001e 488B45E8 		movq	-24(%rbp), %rax
 790 0022 4801D0   		addq	%rdx, %rax
 791 0025 BA000000 		movl	$_ZTVN8UnitTest15MemoryOutStreamE+64, %edx
 791      00
 792 002a 488910   		movq	%rdx, (%rax)
 793 002d 488B45E8 		movq	-24(%rbp), %rax
 794 0031 4883C058 		addq	$88, %rax
 795 0035 4889C7   		movq	%rax, %rdi
 796              	.LEHB21:
 797 0038 E8000000 		call	_ZNSsD1Ev
 797      00
 798              	.LEHE21:
  13:../MemoryOutStream.h **** {
 799              		.loc 2 13 0 is_stmt 0 discriminator 14
 800 003d BA000000 		movl	$_ZTTN8UnitTest15MemoryOutStreamE+8, %edx
 800      00
 801 0042 488B45E8 		movq	-24(%rbp), %rax
 802 0046 4889D6   		movq	%rdx, %rsi
 803 0049 4889C7   		movq	%rax, %rdi
 804              	.LEHB22:
 805 004c E8000000 		call	_ZNSt19basic_ostringstreamIcSt11char_traitsIcESaIcEED2Ev
 805      00
 806              	.LEHE22:
  13:../MemoryOutStream.h **** {
 807              		.loc 2 13 0 discriminator 20
 808 0051 B8020000 		movl	$2, %eax
 808      00
 809 0056 85C0     		testl	%eax, %eax
 810 0058 7410     		je	.L52
  13:../MemoryOutStream.h **** {
 811              		.loc 2 13 0 discriminator 21
 812 005a 488B45E8 		movq	-24(%rbp), %rax
 813 005e 4883C060 		addq	$96, %rax
 814 0062 4889C7   		movq	%rax, %rdi
 815              	.LEHB23:
 816 0065 E8000000 		call	_ZNSt9basic_iosIcSt11char_traitsIcEED2Ev
 816      00
 817              	.LEHE23:
 818              	.L52:
 819              	.LBE11:
  13:../MemoryOutStream.h **** {
 820              		.loc 2 13 0 discriminator 24
 821 006a B8000000 		movl	$0, %eax
 821      00
 822 006f 85C0     		testl	%eax, %eax
 823 0071 744E     		je	.L59
  13:../MemoryOutStream.h **** {
 824              		.loc 2 13 0 discriminator 25
 825 0073 488B45E8 		movq	-24(%rbp), %rax
 826 0077 4889C7   		movq	%rax, %rdi
 827 007a E8000000 		call	_ZdlPv
 827      00
 828 007f EB40     		jmp	.L59
 829              	.L57:
 830 0081 4889C3   		movq	%rax, %rbx
 831              	.LBB12:
  13:../MemoryOutStream.h **** {
 832              		.loc 2 13 0
 833 0084 BA000000 		movl	$_ZTTN8UnitTest15MemoryOutStreamE+8, %edx
 833      00
 834 0089 488B45E8 		movq	-24(%rbp), %rax
 835 008d 4889D6   		movq	%rdx, %rsi
 836 0090 4889C7   		movq	%rax, %rdi
 837 0093 E8000000 		call	_ZNSt19basic_ostringstreamIcSt11char_traitsIcESaIcEED2Ev
 837      00
 838 0098 EB03     		jmp	.L55
 839              	.L58:
 840 009a 4889C3   		movq	%rax, %rbx
 841              	.L55:
  13:../MemoryOutStream.h **** {
 842              		.loc 2 13 0 discriminator 19
 843 009d B8020000 		movl	$2, %eax
 843      00
 844 00a2 85C0     		testl	%eax, %eax
 845 00a4 7410     		je	.L56
  13:../MemoryOutStream.h **** {
 846              		.loc 2 13 0 discriminator 32
 847 00a6 488B45E8 		movq	-24(%rbp), %rax
 848 00aa 4883C060 		addq	$96, %rax
 849 00ae 4889C7   		movq	%rax, %rdi
 850 00b1 E8000000 		call	_ZNSt9basic_iosIcSt11char_traitsIcEED2Ev
 850      00
 851              	.L56:
 852 00b6 4889D8   		movq	%rbx, %rax
 853 00b9 4889C7   		movq	%rax, %rdi
 854              	.LEHB24:
 855 00bc E8000000 		call	_Unwind_Resume
 855      00
 856              	.LEHE24:
 857              	.L59:
 858              	.LBE12:
  13:../MemoryOutStream.h **** {
 859              		.loc 2 13 0
 860 00c1 4883C418 		addq	$24, %rsp
 861 00c5 5B       		popq	%rbx
 862 00c6 5D       		popq	%rbp
 863              		.cfi_def_cfa 7, 8
 864 00c7 C3       		ret
 865              		.cfi_endproc
 866              	.LFE1104:
 867              		.section	.gcc_except_table
 868              	.LLSDA1104:
 869 0080 FF       		.byte	0xff
 870 0081 FF       		.byte	0xff
 871 0082 01       		.byte	0x1
 872 0083 13       		.uleb128 .LLSDACSE1104-.LLSDACSB1104
 873              	.LLSDACSB1104:
 874 0084 38       		.uleb128 .LEHB21-.LFB1104
 875 0085 05       		.uleb128 .LEHE21-.LEHB21
 876 0086 8101     		.uleb128 .L57-.LFB1104
 877 0088 00       		.uleb128 0
 878 0089 4C       		.uleb128 .LEHB22-.LFB1104
 879 008a 05       		.uleb128 .LEHE22-.LEHB22
 880 008b 9A01     		.uleb128 .L58-.LFB1104
 881 008d 00       		.uleb128 0
 882 008e 65       		.uleb128 .LEHB23-.LFB1104
 883 008f 05       		.uleb128 .LEHE23-.LEHB23
 884 0090 00       		.uleb128 0
 885 0091 00       		.uleb128 0
 886 0092 BC01     		.uleb128 .LEHB24-.LFB1104
 887 0094 05       		.uleb128 .LEHE24-.LEHB24
 888 0095 00       		.uleb128 0
 889 0096 00       		.uleb128 0
 890              	.LLSDACSE1104:
 891              		.section	.text._ZN8UnitTest15MemoryOutStreamD1Ev,"axG",@progbits,_ZN8UnitTest15MemoryOutStreamD1Ev
 893              		.set	.LTHUNK0,_ZN8UnitTest15MemoryOutStreamD1Ev
 894              		.weak	_ZTv0_n24_N8UnitTest15MemoryOutStreamD1Ev
 896              	_ZTv0_n24_N8UnitTest15MemoryOutStreamD1Ev:
 897              	.LFB1164:
  13:../MemoryOutStream.h **** {
 898              		.loc 2 13 0 is_stmt 1
 899              		.cfi_startproc
 900 00c8 4C8B17   		movq	(%rdi), %r10
 901 00cb 49037AE8 		addq	-24(%r10), %rdi
 902 00cf E92CFFFF 		jmp	.LTHUNK0
 902      FF
 903              		.cfi_endproc
 904              	.LFE1164:
 906              		.section	.text._ZN8UnitTest15MemoryOutStreamD0Ev,"axG",@progbits,_ZN8UnitTest15MemoryOutStreamD0Ev
 907              		.align 2
 908              		.weak	_ZN8UnitTest15MemoryOutStreamD0Ev
 910              	_ZN8UnitTest15MemoryOutStreamD0Ev:
 911              	.LFB1105:
  13:../MemoryOutStream.h **** {
 912              		.loc 2 13 0
 913              		.cfi_startproc
 914 0000 55       		pushq	%rbp
 915              		.cfi_def_cfa_offset 16
 916              		.cfi_offset 6, -16
 917 0001 4889E5   		movq	%rsp, %rbp
 918              		.cfi_def_cfa_register 6
 919 0004 4883EC10 		subq	$16, %rsp
 920 0008 48897DF8 		movq	%rdi, -8(%rbp)
  13:../MemoryOutStream.h **** {
 921              		.loc 2 13 0
 922 000c 488B45F8 		movq	-8(%rbp), %rax
 923 0010 4889C7   		movq	%rax, %rdi
 924 0013 E8000000 		call	_ZN8UnitTest15MemoryOutStreamD1Ev
 924      00
 925 0018 488B45F8 		movq	-8(%rbp), %rax
 926 001c 4889C7   		movq	%rax, %rdi
 927 001f E8000000 		call	_ZdlPv
 927      00
 928 0024 C9       		leave
 929              		.cfi_def_cfa 7, 8
 930 0025 C3       		ret
 931              		.cfi_endproc
 932              	.LFE1105:
 934              		.set	.LTHUNK1,_ZN8UnitTest15MemoryOutStreamD0Ev
 935              		.weak	_ZTv0_n24_N8UnitTest15MemoryOutStreamD0Ev
 937              	_ZTv0_n24_N8UnitTest15MemoryOutStreamD0Ev:
 938              	.LFB1165:
  13:../MemoryOutStream.h **** {
 939              		.loc 2 13 0
 940              		.cfi_startproc
 941 0026 4C8B17   		movq	(%rdi), %r10
 942 0029 49037AE8 		addq	-24(%r10), %rdi
 943 002d EBD1     		jmp	.LTHUNK1
 944              		.cfi_endproc
 945              	.LFE1165:
 947              		.section	.rodata
 948              	.LC12:
 949 018f 45787065 		.string	"Expected "
 949      63746564 
 949      2000
 950              	.LC13:
 951 0199 20627574 		.string	" but was "
 951      20776173 
 951      2000
 952              		.section	.text._ZN8UnitTest10CheckEqualIiiEEvRNS_11TestResultsERKT_RKT0_RKNS_11TestDetailsE,"axG",
 953              		.weak	_ZN8UnitTest10CheckEqualIiiEEvRNS_11TestResultsERKT_RKT0_RKNS_11TestDetailsE
 955              	_ZN8UnitTest10CheckEqualIiiEEvRNS_11TestResultsERKT_RKT0_RKNS_11TestDetailsE:
 956              	.LFB1101:
  16:../Checks.h   **** 
  17:../Checks.h   **** 
  18:../Checks.h   **** template< typename Expected, typename Actual >
  19:../Checks.h   **** void CheckEqual(TestResults& results, Expected const& expected, Actual const& actual, TestDetails c
 957              		.loc 4 19 0
 958              		.cfi_startproc
 959              		.cfi_personality 0x3,__gxx_personality_v0
 960              		.cfi_lsda 0x3,.LLSDA1101
 961 0000 55       		pushq	%rbp
 962              		.cfi_def_cfa_offset 16
 963              		.cfi_offset 6, -16
 964 0001 4889E5   		movq	%rsp, %rbp
 965              		.cfi_def_cfa_register 6
 966 0004 4154     		pushq	%r12
 967 0006 53       		pushq	%rbx
 968 0007 4881EC90 		subq	$400, %rsp
 968      010000
 969              		.cfi_offset 12, -24
 970              		.cfi_offset 3, -32
 971 000e 4889BD78 		movq	%rdi, -392(%rbp)
 971      FEFFFF
 972 0015 4889B570 		movq	%rsi, -400(%rbp)
 972      FEFFFF
 973 001c 48899568 		movq	%rdx, -408(%rbp)
 973      FEFFFF
 974 0023 48898D60 		movq	%rcx, -416(%rbp)
 974      FEFFFF
 975              		.loc 4 19 0
 976 002a 64488B04 		movq	%fs:40, %rax
 976      25280000 
 976      00
 977 0033 488945E8 		movq	%rax, -24(%rbp)
 978 0037 31C0     		xorl	%eax, %eax
 979              	.LBB13:
 980              	.LBB14:
  20:../Checks.h   **** {
  21:../Checks.h   ****     if (!(expected == actual))
 981              		.loc 4 21 0
 982 0039 488B8570 		movq	-400(%rbp), %rax
 982      FEFFFF
 983 0040 8B10     		movl	(%rax), %edx
 984 0042 488B8568 		movq	-408(%rbp), %rax
 984      FEFFFF
 985 0049 8B00     		movl	(%rax), %eax
 986 004b 39C2     		cmpl	%eax, %edx
 987 004d 0F849200 		je	.L63
 987      0000
 988              	.LBB15:
  22:../Checks.h   ****     {
  23:../Checks.h   ****         UnitTest::MemoryOutStream stream;
 989              		.loc 4 23 0
 990 0053 488D8580 		leaq	-384(%rbp), %rax
 990      FEFFFF
 991 005a 4889C7   		movq	%rax, %rdi
 992              	.LEHB25:
 993 005d E8000000 		call	_ZN8UnitTest15MemoryOutStreamC1Ev
 993      00
 994              	.LEHE25:
  24:../Checks.h   ****         stream << "Expected " << expected << " but was " << actual;
 995              		.loc 4 24 0
 996 0062 488B8568 		movq	-408(%rbp), %rax
 996      FEFFFF
 997 0069 8B18     		movl	(%rax), %ebx
 998 006b 488B8570 		movq	-400(%rbp), %rax
 998      FEFFFF
 999 0072 448B20   		movl	(%rax), %r12d
 1000 0075 488D8580 		leaq	-384(%rbp), %rax
 1000      FEFFFF
 1001 007c BE000000 		movl	$.LC12, %esi
 1001      00
 1002 0081 4889C7   		movq	%rax, %rdi
 1003              	.LEHB26:
 1004 0084 E8000000 		call	_ZStlsISt11char_traitsIcEERSt13basic_ostreamIcT_ES5_PKc
 1004      00
 1005 0089 4489E6   		movl	%r12d, %esi
 1006 008c 4889C7   		movq	%rax, %rdi
 1007 008f E8000000 		call	_ZNSolsEi
 1007      00
 1008              		.loc 4 24 0 is_stmt 0 discriminator 1
 1009 0094 BE000000 		movl	$.LC13, %esi
 1009      00
 1010 0099 4889C7   		movq	%rax, %rdi
 1011 009c E8000000 		call	_ZStlsISt11char_traitsIcEERSt13basic_ostreamIcT_ES5_PKc
 1011      00
 1012              		.loc 4 24 0 discriminator 2
 1013 00a1 89DE     		movl	%ebx, %esi
 1014 00a3 4889C7   		movq	%rax, %rdi
 1015 00a6 E8000000 		call	_ZNSolsEi
 1015      00
  25:../Checks.h   **** 
  26:../Checks.h   ****         results.OnTestFailure(details, stream.GetText());
 1016              		.loc 4 26 0 is_stmt 1
 1017 00ab 488D8580 		leaq	-384(%rbp), %rax
 1017      FEFFFF
 1018 00b2 4889C7   		movq	%rax, %rdi
 1019 00b5 E8000000 		call	_ZNK8UnitTest15MemoryOutStream7GetTextEv
 1019      00
 1020 00ba 4889C2   		movq	%rax, %rdx
 1021 00bd 488B8D60 		movq	-416(%rbp), %rcx
 1021      FEFFFF
 1022 00c4 488B8578 		movq	-392(%rbp), %rax
 1022      FEFFFF
 1023 00cb 4889CE   		movq	%rcx, %rsi
 1024 00ce 4889C7   		movq	%rax, %rdi
 1025 00d1 E8000000 		call	_ZN8UnitTest11TestResults13OnTestFailureERKNS_11TestDetailsEPKc
 1025      00
 1026              	.LEHE26:
 1027              		.loc 4 26 0 is_stmt 0 discriminator 4
 1028 00d6 488D8580 		leaq	-384(%rbp), %rax
 1028      FEFFFF
 1029 00dd 4889C7   		movq	%rax, %rdi
 1030              	.LEHB27:
 1031 00e0 E8000000 		call	_ZN8UnitTest15MemoryOutStreamD1Ev
 1031      00
 1032              	.LEHE27:
 1033              	.L63:
 1034              	.LBE15:
 1035              	.LBE14:
 1036              	.LBE13:
  27:../Checks.h   ****     }
  28:../Checks.h   **** }
 1037              		.loc 4 28 0 is_stmt 1
 1038 00e5 488B45E8 		movq	-24(%rbp), %rax
 1039 00e9 64483304 		xorq	%fs:40, %rax
 1039      25280000 
 1039      00
 1040 00f2 7424     		je	.L65
 1041 00f4 EB1D     		jmp	.L67
 1042              	.L66:
 1043 00f6 4889C3   		movq	%rax, %rbx
 1044              	.LBB18:
 1045              	.LBB17:
 1046              	.LBB16:
  26:../Checks.h   ****     }
 1047              		.loc 4 26 0
 1048 00f9 488D8580 		leaq	-384(%rbp), %rax
 1048      FEFFFF
 1049 0100 4889C7   		movq	%rax, %rdi
 1050 0103 E8000000 		call	_ZN8UnitTest15MemoryOutStreamD1Ev
 1050      00
 1051 0108 4889D8   		movq	%rbx, %rax
 1052 010b 4889C7   		movq	%rax, %rdi
 1053              	.LEHB28:
 1054 010e E8000000 		call	_Unwind_Resume
 1054      00
 1055              	.LEHE28:
 1056              	.L67:
 1057              	.LBE16:
 1058              	.LBE17:
 1059              	.LBE18:
 1060              		.loc 4 28 0
 1061 0113 E8000000 		call	__stack_chk_fail
 1061      00
 1062              	.L65:
 1063 0118 4881C490 		addq	$400, %rsp
 1063      010000
 1064 011f 5B       		popq	%rbx
 1065 0120 415C     		popq	%r12
 1066 0122 5D       		popq	%rbp
 1067              		.cfi_def_cfa 7, 8
 1068 0123 C3       		ret
 1069              		.cfi_endproc
 1070              	.LFE1101:
 1071              		.section	.gcc_except_table
 1072              	.LLSDA1101:
 1073 0097 FF       		.byte	0xff
 1074 0098 FF       		.byte	0xff
 1075 0099 01       		.byte	0x1
 1076 009a 14       		.uleb128 .LLSDACSE1101-.LLSDACSB1101
 1077              	.LLSDACSB1101:
 1078 009b 5D       		.uleb128 .LEHB25-.LFB1101
 1079 009c 05       		.uleb128 .LEHE25-.LEHB25
 1080 009d 00       		.uleb128 0
 1081 009e 00       		.uleb128 0
 1082 009f 8401     		.uleb128 .LEHB26-.LFB1101
 1083 00a1 52       		.uleb128 .LEHE26-.LEHB26
 1084 00a2 F601     		.uleb128 .L66-.LFB1101
 1085 00a4 00       		.uleb128 0
 1086 00a5 E001     		.uleb128 .LEHB27-.LFB1101
 1087 00a7 05       		.uleb128 .LEHE27-.LEHB27
 1088 00a8 00       		.uleb128 0
 1089 00a9 00       		.uleb128 0
 1090 00aa 8E02     		.uleb128 .LEHB28-.LFB1101
 1091 00ac 05       		.uleb128 .LEHE28-.LEHB28
 1092 00ad 00       		.uleb128 0
 1093 00ae 00       		.uleb128 0
 1094              	.LLSDACSE1101:
 1095              		.section	.text._ZN8UnitTest10CheckEqualIiiEEvRNS_11TestResultsERKT_RKT0_RKNS_11TestDetailsE,"axG",
 1097              		.section	.rodata
 1098 01a3 00000000 		.align 32
 1098      00000000 
 1098      00000000 
 1098      00000000 
 1098      00000000 
 1101              	_ZTVN12_GLOBAL__N_142TestReportAssertSetsCorrectInfoInExceptionE:
 1102 01c0 00000000 		.quad	0
 1102      00000000 
 1103 01c8 00000000 		.quad	_ZTIN12_GLOBAL__N_142TestReportAssertSetsCorrectInfoInExceptionE
 1103      00000000 
 1104 01d0 00000000 		.quad	_ZN12_GLOBAL__N_142TestReportAssertSetsCorrectInfoInExceptionD1Ev
 1104      00000000 
 1105 01d8 00000000 		.quad	_ZN12_GLOBAL__N_142TestReportAssertSetsCorrectInfoInExceptionD0Ev
 1105      00000000 
 1106 01e0 00000000 		.quad	_ZNK12_GLOBAL__N_142TestReportAssertSetsCorrectInfoInException7RunImplEv
 1106      00000000 
 1107              		.text
 1108              		.align 2
 1110              	_ZN12_GLOBAL__N_142TestReportAssertSetsCorrectInfoInExceptionD2Ev:
 1111              	.LFB1155:
  25:TestAssertHandler.cpp **** {
 1112              		.loc 3 25 0
 1113              		.cfi_startproc
 1114 041e 55       		pushq	%rbp
 1115              		.cfi_def_cfa_offset 16
 1116              		.cfi_offset 6, -16
 1117 041f 4889E5   		movq	%rsp, %rbp
 1118              		.cfi_def_cfa_register 6
 1119 0422 4883EC10 		subq	$16, %rsp
 1120 0426 48897DF8 		movq	%rdi, -8(%rbp)
 1121              	.LBB19:
  25:TestAssertHandler.cpp **** {
 1122              		.loc 3 25 0
 1123 042a 488B45F8 		movq	-8(%rbp), %rax
 1124 042e 48C70000 		movq	$_ZTVN12_GLOBAL__N_142TestReportAssertSetsCorrectInfoInExceptionE+16, (%rax)
 1124      000000
 1125 0435 488B45F8 		movq	-8(%rbp), %rax
 1126 0439 4889C7   		movq	%rax, %rdi
 1127 043c E8000000 		call	_ZN8UnitTest4TestD2Ev
 1127      00
 1128              	.LBE19:
 1129 0441 B8000000 		movl	$0, %eax
 1129      00
 1130 0446 85C0     		testl	%eax, %eax
 1131 0448 740C     		je	.L68
  25:TestAssertHandler.cpp **** {
 1132              		.loc 3 25 0 is_stmt 0 discriminator 4
 1133 044a 488B45F8 		movq	-8(%rbp), %rax
 1134 044e 4889C7   		movq	%rax, %rdi
 1135 0451 E8000000 		call	_ZdlPv
 1135      00
 1136              	.L68:
  25:TestAssertHandler.cpp **** {
 1137              		.loc 3 25 0
 1138 0456 C9       		leave
 1139              		.cfi_def_cfa 7, 8
 1140 0457 C3       		ret
 1141              		.cfi_endproc
 1142              	.LFE1155:
 1144              		.set	_ZN12_GLOBAL__N_142TestReportAssertSetsCorrectInfoInExceptionD1Ev,_ZN12_GLOBAL__N_142TestRepo
 1145              		.align 2
 1147              	_ZN12_GLOBAL__N_142TestReportAssertSetsCorrectInfoInExceptionD0Ev:
 1148              	.LFB1157:
  25:TestAssertHandler.cpp **** {
 1149              		.loc 3 25 0 is_stmt 1
 1150              		.cfi_startproc
 1151 0458 55       		pushq	%rbp
 1152              		.cfi_def_cfa_offset 16
 1153              		.cfi_offset 6, -16
 1154 0459 4889E5   		movq	%rsp, %rbp
 1155              		.cfi_def_cfa_register 6
 1156 045c 4883EC10 		subq	$16, %rsp
 1157 0460 48897DF8 		movq	%rdi, -8(%rbp)
  25:TestAssertHandler.cpp **** {
 1158              		.loc 3 25 0
 1159 0464 488B45F8 		movq	-8(%rbp), %rax
 1160 0468 4889C7   		movq	%rax, %rdi
 1161 046b E8AEFFFF 		call	_ZN12_GLOBAL__N_142TestReportAssertSetsCorrectInfoInExceptionD2Ev
 1161      FF
 1162 0470 488B45F8 		movq	-8(%rbp), %rax
 1163 0474 4889C7   		movq	%rax, %rdi
 1164 0477 E8000000 		call	_ZdlPv
 1164      00
 1165 047c C9       		leave
 1166              		.cfi_def_cfa 7, 8
 1167 047d C3       		ret
 1168              		.cfi_endproc
 1169              	.LFE1157:
 1171              		.section	.rodata
 1172 01e8 00000000 		.align 32
 1172      00000000 
 1172      00000000 
 1172      00000000 
 1172      00000000 
 1175              	_ZTVN12_GLOBAL__N_137TestReportAssertThrowsAssertExceptionE:
 1176 0200 00000000 		.quad	0
 1176      00000000 
 1177 0208 00000000 		.quad	_ZTIN12_GLOBAL__N_137TestReportAssertThrowsAssertExceptionE
 1177      00000000 
 1178 0210 00000000 		.quad	_ZN12_GLOBAL__N_137TestReportAssertThrowsAssertExceptionD1Ev
 1178      00000000 
 1179 0218 00000000 		.quad	_ZN12_GLOBAL__N_137TestReportAssertThrowsAssertExceptionD0Ev
 1179      00000000 
 1180 0220 00000000 		.quad	_ZNK12_GLOBAL__N_137TestReportAssertThrowsAssertException7RunImplEv
 1180      00000000 
 1181              		.text
 1182              		.align 2
 1184              	_ZN12_GLOBAL__N_137TestReportAssertThrowsAssertExceptionD2Ev:
 1185              	.LFB1159:
   9:TestAssertHandler.cpp **** {
 1186              		.loc 3 9 0
 1187              		.cfi_startproc
 1188 047e 55       		pushq	%rbp
 1189              		.cfi_def_cfa_offset 16
 1190              		.cfi_offset 6, -16
 1191 047f 4889E5   		movq	%rsp, %rbp
 1192              		.cfi_def_cfa_register 6
 1193 0482 4883EC10 		subq	$16, %rsp
 1194 0486 48897DF8 		movq	%rdi, -8(%rbp)
 1195              	.LBB20:
   9:TestAssertHandler.cpp **** {
 1196              		.loc 3 9 0
 1197 048a 488B45F8 		movq	-8(%rbp), %rax
 1198 048e 48C70000 		movq	$_ZTVN12_GLOBAL__N_137TestReportAssertThrowsAssertExceptionE+16, (%rax)
 1198      000000
 1199 0495 488B45F8 		movq	-8(%rbp), %rax
 1200 0499 4889C7   		movq	%rax, %rdi
 1201 049c E8000000 		call	_ZN8UnitTest4TestD2Ev
 1201      00
 1202              	.LBE20:
 1203 04a1 B8000000 		movl	$0, %eax
 1203      00
 1204 04a6 85C0     		testl	%eax, %eax
 1205 04a8 740C     		je	.L73
   9:TestAssertHandler.cpp **** {
 1206              		.loc 3 9 0 is_stmt 0 discriminator 4
 1207 04aa 488B45F8 		movq	-8(%rbp), %rax
 1208 04ae 4889C7   		movq	%rax, %rdi
 1209 04b1 E8000000 		call	_ZdlPv
 1209      00
 1210              	.L73:
   9:TestAssertHandler.cpp **** {
 1211              		.loc 3 9 0
 1212 04b6 C9       		leave
 1213              		.cfi_def_cfa 7, 8
 1214 04b7 C3       		ret
 1215              		.cfi_endproc
 1216              	.LFE1159:
 1218              		.set	_ZN12_GLOBAL__N_137TestReportAssertThrowsAssertExceptionD1Ev,_ZN12_GLOBAL__N_137TestReportAss
 1219              		.align 2
 1221              	_ZN12_GLOBAL__N_137TestReportAssertThrowsAssertExceptionD0Ev:
 1222              	.LFB1161:
   9:TestAssertHandler.cpp **** {
 1223              		.loc 3 9 0 is_stmt 1
 1224              		.cfi_startproc
 1225 04b8 55       		pushq	%rbp
 1226              		.cfi_def_cfa_offset 16
 1227              		.cfi_offset 6, -16
 1228 04b9 4889E5   		movq	%rsp, %rbp
 1229              		.cfi_def_cfa_register 6
 1230 04bc 4883EC10 		subq	$16, %rsp
 1231 04c0 48897DF8 		movq	%rdi, -8(%rbp)
   9:TestAssertHandler.cpp **** {
 1232              		.loc 3 9 0
 1233 04c4 488B45F8 		movq	-8(%rbp), %rax
 1234 04c8 4889C7   		movq	%rax, %rdi
 1235 04cb E8AEFFFF 		call	_ZN12_GLOBAL__N_137TestReportAssertThrowsAssertExceptionD2Ev
 1235      FF
 1236 04d0 488B45F8 		movq	-8(%rbp), %rax
 1237 04d4 4889C7   		movq	%rax, %rdi
 1238 04d7 E8000000 		call	_ZdlPv
 1238      00
 1239 04dc C9       		leave
 1240              		.cfi_def_cfa 7, 8
 1241 04dd C3       		ret
 1242              		.cfi_endproc
 1243              	.LFE1161:
 1245              		.weak	_ZTVN8UnitTest15MemoryOutStreamE
 1246              		.section	.rodata._ZTVN8UnitTest15MemoryOutStreamE,"aG",@progbits,_ZTVN8UnitTest15MemoryOutStreamE,
 1247              		.align 64
 1250              	_ZTVN8UnitTest15MemoryOutStreamE:
 1251 0000 60000000 		.quad	96
 1251      00000000 
 1252 0008 00000000 		.quad	0
 1252      00000000 
 1253 0010 00000000 		.quad	_ZTIN8UnitTest15MemoryOutStreamE
 1253      00000000 
 1254 0018 00000000 		.quad	_ZN8UnitTest15MemoryOutStreamD1Ev
 1254      00000000 
 1255 0020 00000000 		.quad	_ZN8UnitTest15MemoryOutStreamD0Ev
 1255      00000000 
 1256 0028 A0FFFFFF 		.quad	-96
 1256      FFFFFFFF 
 1257 0030 A0FFFFFF 		.quad	-96
 1257      FFFFFFFF 
 1258 0038 00000000 		.quad	_ZTIN8UnitTest15MemoryOutStreamE
 1258      00000000 
 1259 0040 00000000 		.quad	_ZTv0_n24_N8UnitTest15MemoryOutStreamD1Ev
 1259      00000000 
 1260 0048 00000000 		.quad	_ZTv0_n24_N8UnitTest15MemoryOutStreamD0Ev
 1260      00000000 
 1261              		.weak	_ZTTN8UnitTest15MemoryOutStreamE
 1262              		.section	.rodata._ZTTN8UnitTest15MemoryOutStreamE,"aG",@progbits,_ZTVN8UnitTest15MemoryOutStreamE,
 1263              		.align 32
 1266              	_ZTTN8UnitTest15MemoryOutStreamE:
 1267 0000 00000000 		.quad	_ZTVN8UnitTest15MemoryOutStreamE+24
 1267      00000000 
 1268 0008 00000000 		.quad	_ZTCN8UnitTest15MemoryOutStreamE0_St19basic_ostringstreamIcSt11char_traitsIcESaIcEE+24
 1268      00000000 
 1269 0010 00000000 		.quad	_ZTCN8UnitTest15MemoryOutStreamE0_So+24
 1269      00000000 
 1270 0018 00000000 		.quad	_ZTCN8UnitTest15MemoryOutStreamE0_So+64
 1270      00000000 
 1271 0020 00000000 		.quad	_ZTCN8UnitTest15MemoryOutStreamE0_St19basic_ostringstreamIcSt11char_traitsIcESaIcEE+64
 1271      00000000 
 1272 0028 00000000 		.quad	_ZTVN8UnitTest15MemoryOutStreamE+64
 1272      00000000 
 1273              		.hidden	_ZTCN8UnitTest15MemoryOutStreamE0_St19basic_ostringstreamIcSt11char_traitsIcESaIcEE
 1274              		.weak	_ZTCN8UnitTest15MemoryOutStreamE0_St19basic_ostringstreamIcSt11char_traitsIcESaIcEE
 1275              		.section	.rodata._ZTCN8UnitTest15MemoryOutStreamE0_St19basic_ostringstreamIcSt11char_traitsIcESaIc
 1276              		.align 64
 1279              	_ZTCN8UnitTest15MemoryOutStreamE0_St19basic_ostringstreamIcSt11char_traitsIcESaIcEE:
 1280 0000 60000000 		.quad	96
 1280      00000000 
 1281 0008 00000000 		.quad	0
 1281      00000000 
 1282 0010 00000000 		.quad	_ZTISt19basic_ostringstreamIcSt11char_traitsIcESaIcEE
 1282      00000000 
 1283 0018 00000000 		.quad	0
 1283      00000000 
 1284 0020 00000000 		.quad	0
 1284      00000000 
 1285 0028 A0FFFFFF 		.quad	-96
 1285      FFFFFFFF 
 1286 0030 A0FFFFFF 		.quad	-96
 1286      FFFFFFFF 
 1287 0038 00000000 		.quad	_ZTISt19basic_ostringstreamIcSt11char_traitsIcESaIcEE
 1287      00000000 
 1288 0040 00000000 		.quad	0
 1288      00000000 
 1289 0048 00000000 		.quad	0
 1289      00000000 
 1290              		.hidden	_ZTCN8UnitTest15MemoryOutStreamE0_So
 1291              		.weak	_ZTCN8UnitTest15MemoryOutStreamE0_So
 1292              		.section	.rodata._ZTCN8UnitTest15MemoryOutStreamE0_So,"aG",@progbits,_ZTVN8UnitTest15MemoryOutStre
 1293              		.align 64
 1296              	_ZTCN8UnitTest15MemoryOutStreamE0_So:
 1297 0000 60000000 		.quad	96
 1297      00000000 
 1298 0008 00000000 		.quad	0
 1298      00000000 
 1299 0010 00000000 		.quad	_ZTISo
 1299      00000000 
 1300 0018 00000000 		.quad	0
 1300      00000000 
 1301 0020 00000000 		.quad	0
 1301      00000000 
 1302 0028 A0FFFFFF 		.quad	-96
 1302      FFFFFFFF 
 1303 0030 A0FFFFFF 		.quad	-96
 1303      FFFFFFFF 
 1304 0038 00000000 		.quad	_ZTISo
 1304      00000000 
 1305 0040 00000000 		.quad	0
 1305      00000000 
 1306 0048 00000000 		.quad	0
 1306      00000000 
 1307              		.weak	_ZTSN8UnitTest15MemoryOutStreamE
 1308              		.section	.rodata._ZTSN8UnitTest15MemoryOutStreamE,"aG",@progbits,_ZTSN8UnitTest15MemoryOutStreamE,
 1309              		.align 16
 1312              	_ZTSN8UnitTest15MemoryOutStreamE:
 1313 0000 4E38556E 		.string	"N8UnitTest15MemoryOutStreamE"
 1313      69745465 
 1313      73743135 
 1313      4D656D6F 
 1313      72794F75 
 1314              		.weak	_ZTIN8UnitTest15MemoryOutStreamE
 1315              		.section	.rodata._ZTIN8UnitTest15MemoryOutStreamE,"aG",@progbits,_ZTIN8UnitTest15MemoryOutStreamE,
 1316              		.align 16
 1319              	_ZTIN8UnitTest15MemoryOutStreamE:
 1320 0000 00000000 		.quad	_ZTVN10__cxxabiv120__si_class_type_infoE+16
 1320      00000000 
 1321 0008 00000000 		.quad	_ZTSN8UnitTest15MemoryOutStreamE
 1321      00000000 
 1322 0010 00000000 		.quad	_ZTISt19basic_ostringstreamIcSt11char_traitsIcESaIcEE
 1322      00000000 
 1323              		.text
 1325              	_Z41__static_initialization_and_destruction_0ii:
 1326              	.LFB1162:
  42:TestAssertHandler.cpp **** 
  43:TestAssertHandler.cpp **** 
  44:TestAssertHandler.cpp **** }
 1327              		.loc 3 44 0
 1328              		.cfi_startproc
 1329 04de 55       		pushq	%rbp
 1330              		.cfi_def_cfa_offset 16
 1331              		.cfi_offset 6, -16
 1332 04df 4889E5   		movq	%rsp, %rbp
 1333              		.cfi_def_cfa_register 6
 1334 04e2 4883EC10 		subq	$16, %rsp
 1335 04e6 897DFC   		movl	%edi, -4(%rbp)
 1336 04e9 8975F8   		movl	%esi, -8(%rbp)
 1337              		.loc 3 44 0
 1338 04ec 837DFC01 		cmpl	$1, -4(%rbp)
 1339 04f0 7573     		jne	.L78
 1340              		.loc 3 44 0 is_stmt 0 discriminator 1
 1341 04f2 817DF8FF 		cmpl	$65535, -8(%rbp)
 1341      FF0000
 1342 04f9 756A     		jne	.L78
   9:TestAssertHandler.cpp **** {
 1343              		.loc 3 9 0 is_stmt 1
 1344 04fb BF000000 		movl	$_ZN12_GLOBAL__N_145testReportAssertThrowsAssertExceptionInstanceE, %edi
 1344      00
 1345 0500 E8FBFAFF 		call	_ZN12_GLOBAL__N_137TestReportAssertThrowsAssertExceptionC2Ev
 1345      FF
 1346 0505 BA000000 		movl	$__dso_handle, %edx
 1346      00
 1347 050a BE000000 		movl	$_ZN12_GLOBAL__N_145testReportAssertThrowsAssertExceptionInstanceE, %esi
 1347      00
 1348 050f BF000000 		movl	$_ZN12_GLOBAL__N_137TestReportAssertThrowsAssertExceptionD1Ev, %edi
 1348      00
 1349 0514 E8000000 		call	__cxa_atexit
 1349      00
 1350 0519 E8000000 		call	_ZN8UnitTest4Test11GetTestListEv
 1350      00
 1351 051e BA000000 		movl	$_ZN12_GLOBAL__N_145testReportAssertThrowsAssertExceptionInstanceE, %edx
 1351      00
 1352 0523 4889C6   		movq	%rax, %rsi
 1353 0526 BF000000 		movl	$_ZN12_GLOBAL__N_138adderReportAssertThrowsAssertExceptionE, %edi
 1353      00
 1354 052b E8000000 		call	_ZN8UnitTest9ListAdderC1ERNS_8TestListEPNS_4TestE
 1354      00
  25:TestAssertHandler.cpp **** {
 1355              		.loc 3 25 0
 1356 0530 BF000000 		movl	$_ZN12_GLOBAL__N_150testReportAssertSetsCorrectInfoInExceptionInstanceE, %edi
 1356      00
 1357 0535 E822FCFF 		call	_ZN12_GLOBAL__N_142TestReportAssertSetsCorrectInfoInExceptionC2Ev
 1357      FF
 1358 053a BA000000 		movl	$__dso_handle, %edx
 1358      00
 1359 053f BE000000 		movl	$_ZN12_GLOBAL__N_150testReportAssertSetsCorrectInfoInExceptionInstanceE, %esi
 1359      00
 1360 0544 BF000000 		movl	$_ZN12_GLOBAL__N_142TestReportAssertSetsCorrectInfoInExceptionD1Ev, %edi
 1360      00
 1361 0549 E8000000 		call	__cxa_atexit
 1361      00
 1362 054e E8000000 		call	_ZN8UnitTest4Test11GetTestListEv
 1362      00
 1363 0553 BA000000 		movl	$_ZN12_GLOBAL__N_150testReportAssertSetsCorrectInfoInExceptionInstanceE, %edx
 1363      00
 1364 0558 4889C6   		movq	%rax, %rsi
 1365 055b BF000000 		movl	$_ZN12_GLOBAL__N_143adderReportAssertSetsCorrectInfoInExceptionE, %edi
 1365      00
 1366 0560 E8000000 		call	_ZN8UnitTest9ListAdderC1ERNS_8TestListEPNS_4TestE
 1366      00
 1367              	.L78:
 1368              		.loc 3 44 0
 1369 0565 C9       		leave
 1370              		.cfi_def_cfa 7, 8
 1371 0566 C3       		ret
 1372              		.cfi_endproc
 1373              	.LFE1162:
 1375              		.section	.rodata
 1376 0228 00000000 		.align 16
 1376      00000000 
 1379              	_ZTIN12_GLOBAL__N_137TestReportAssertThrowsAssertExceptionE:
 1380 0230 00000000 		.quad	_ZTVN10__cxxabiv120__si_class_type_infoE+16
 1380      00000000 
 1381 0238 00000000 		.quad	_ZTSN12_GLOBAL__N_137TestReportAssertThrowsAssertExceptionE
 1381      00000000 
 1382 0240 00000000 		.quad	_ZTIN8UnitTest4TestE
 1382      00000000 
 1383 0248 00000000 		.align 16
 1383      00000000 
 1386              	_ZTIN12_GLOBAL__N_142TestReportAssertSetsCorrectInfoInExceptionE:
 1387 0250 00000000 		.quad	_ZTVN10__cxxabiv120__si_class_type_infoE+16
 1387      00000000 
 1388 0258 00000000 		.quad	_ZTSN12_GLOBAL__N_142TestReportAssertSetsCorrectInfoInExceptionE
 1388      00000000 
 1389 0260 00000000 		.quad	_ZTIN8UnitTest4TestE
 1389      00000000 
 1390 0268 00000000 		.align 32
 1390      00000000 
 1390      00000000 
 1390      00000000 
 1390      00000000 
 1393              	_ZTSN12_GLOBAL__N_142TestReportAssertSetsCorrectInfoInExceptionE:
 1394 0280 2A4E3132 		.string	"*N12_GLOBAL__N_142TestReportAssertSetsCorrectInfoInExceptionE"
 1394      5F474C4F 
 1394      42414C5F 
 1394      5F4E5F31 
 1394      34325465 
 1395 02be 0000     		.align 32
 1398              	_ZTSN12_GLOBAL__N_137TestReportAssertThrowsAssertExceptionE:
 1399 02c0 2A4E3132 		.string	"*N12_GLOBAL__N_137TestReportAssertThrowsAssertExceptionE"
 1399      5F474C4F 
 1399      42414C5F 
 1399      5F4E5F31 
 1399      33375465 
 1400              		.text
 1402              	_GLOBAL__sub_I_TestAssertHandler.cpp:
 1403              	.LFB1163:
 1404              		.loc 3 44 0
 1405              		.cfi_startproc
 1406 0567 55       		pushq	%rbp
 1407              		.cfi_def_cfa_offset 16
 1408              		.cfi_offset 6, -16
 1409 0568 4889E5   		movq	%rsp, %rbp
 1410              		.cfi_def_cfa_register 6
 1411              		.loc 3 44 0
 1412 056b BEFFFF00 		movl	$65535, %esi
 1412      00
 1413 0570 BF010000 		movl	$1, %edi
 1413      00
 1414 0575 E864FFFF 		call	_Z41__static_initialization_and_destruction_0ii
 1414      FF
 1415 057a 5D       		popq	%rbp
 1416              		.cfi_def_cfa 7, 8
 1417 057b C3       		ret
 1418              		.cfi_endproc
 1419              	.LFE1163:
 1421              		.section	.init_array,"aw"
 1422              		.align 8
 1423 0000 00000000 		.quad	_GLOBAL__sub_I_TestAssertHandler.cpp
 1423      00000000 
 1424              		.section	.rodata
 1425 02f9 00000000 		.align 8
 1425      000000
 1428              	_ZZL18__gthread_active_pvE20__gthread_active_ptr:
 1429 0300 00000000 		.quad	_ZL28__gthrw___pthread_key_createPjPFvPvE
 1429      00000000 
 1430              		.weakref	_ZL28__gthrw___pthread_key_createPjPFvPvE,__pthread_key_create
 1431              		.text
 1432              	.Letext0:
 1433              		.file 5 "../TestDetails.h"
 1434              		.file 6 "../TestList.h"
 1435              		.file 7 "../TestResults.h"
 1436              		.file 8 "<built-in>"
 1437              		.file 9 "/usr/include/stdio.h"
 1438              		.file 10 "/usr/lib/gcc/x86_64-linux-gnu/4.9/include/stddef.h"
 1439              		.file 11 "/usr/include/wchar.h"
 1440              		.file 12 "/usr/include/c++/4.9/cwchar"
 1441              		.file 13 "/usr/include/c++/4.9/bits/char_traits.h"
 1442              		.file 14 "/usr/include/x86_64-linux-gnu/c++/4.9/bits/c++config.h"
 1443              		.file 15 "/usr/include/c++/4.9/clocale"
 1444              		.file 16 "/usr/include/c++/4.9/bits/allocator.h"
 1445              		.file 17 "/usr/include/c++/4.9/bits/basic_string.h"
 1446              		.file 18 "/usr/include/c++/4.9/bits/basic_string.tcc"
 1447              		.file 19 "/usr/include/c++/4.9/bits/stringfwd.h"
 1448              		.file 20 "/usr/include/c++/4.9/cwctype"
 1449              		.file 21 "/usr/include/time.h"
 1450              		.file 22 "/usr/include/c++/4.9/debug/debug.h"
 1451              		.file 23 "/usr/include/c++/4.9/bits/predefined_ops.h"
 1452              		.file 24 "/usr/include/c++/4.9/ext/new_allocator.h"
 1453              		.file 25 "/usr/include/c++/4.9/ext/numeric_traits.h"
 1454              		.file 26 "/usr/include/locale.h"
 1455              		.file 27 "/usr/include/x86_64-linux-gnu/bits/types.h"
 1456              		.file 28 "/usr/include/x86_64-linux-gnu/c++/4.9/bits/atomic_word.h"
 1457              		.file 29 "/usr/include/wctype.h"
DEFINED SYMBOLS
                            *ABS*:0000000000000000 TestAssertHandler.cpp
     /tmp/cclARMHy.s:10     .text._ZN13UnitTestSuite12GetSuiteNameEv:0000000000000000 _ZN13UnitTestSuite12GetSuiteNameEv
     /tmp/cclARMHy.s:33     .text._ZN8UnitTest15MemoryOutStreamC1Ev:0000000000000000 _ZN8UnitTest15MemoryOutStreamC1Ev
     /tmp/cclARMHy.s:1266   .rodata._ZTTN8UnitTest15MemoryOutStreamE:0000000000000000 _ZTTN8UnitTest15MemoryOutStreamE
     /tmp/cclARMHy.s:1250   .rodata._ZTVN8UnitTest15MemoryOutStreamE:0000000000000000 _ZTVN8UnitTest15MemoryOutStreamE
     /tmp/cclARMHy.s:151    .text:0000000000000000 _ZN12_GLOBAL__N_137TestReportAssertThrowsAssertExceptionC2Ev
     /tmp/cclARMHy.s:1175   .rodata:0000000000000200 _ZTVN12_GLOBAL__N_137TestReportAssertThrowsAssertExceptionE
     /tmp/cclARMHy.s:183    .bss:0000000000000000 _ZN12_GLOBAL__N_145testReportAssertThrowsAssertExceptionInstanceE
     /tmp/cclARMHy.s:183    .bss:0000000000000038 _ZN12_GLOBAL__N_138adderReportAssertThrowsAssertExceptionE
     /tmp/cclARMHy.s:197    .text:000000000000003e _ZNK12_GLOBAL__N_137TestReportAssertThrowsAssertException7RunImplEv
     /tmp/cclARMHy.s:743    .text._ZN8UnitTest5CheckIbEEbT_:0000000000000000 _ZN8UnitTest5CheckIbEEbT_
     /tmp/cclARMHy.s:375    .text:000000000000015c _ZN12_GLOBAL__N_142TestReportAssertSetsCorrectInfoInExceptionC2Ev
     /tmp/cclARMHy.s:1101   .rodata:00000000000001c0 _ZTVN12_GLOBAL__N_142TestReportAssertSetsCorrectInfoInExceptionE
     /tmp/cclARMHy.s:406    .bss:0000000000000040 _ZN12_GLOBAL__N_150testReportAssertSetsCorrectInfoInExceptionInstanceE
     /tmp/cclARMHy.s:406    .bss:0000000000000078 _ZN12_GLOBAL__N_143adderReportAssertSetsCorrectInfoInExceptionE
     /tmp/cclARMHy.s:426    .text:000000000000019a _ZNK12_GLOBAL__N_142TestReportAssertSetsCorrectInfoInException7RunImplEv
     /tmp/cclARMHy.s:955    .text._ZN8UnitTest10CheckEqualIiiEEvRNS_11TestResultsERKT_RKT0_RKNS_11TestDetailsE:0000000000000000 _ZN8UnitTest10CheckEqualIiiEEvRNS_11TestResultsERKT_RKT0_RKNS_11TestDetailsE
     /tmp/cclARMHy.s:768    .text._ZN8UnitTest15MemoryOutStreamD1Ev:0000000000000000 _ZN8UnitTest15MemoryOutStreamD1Ev
     /tmp/cclARMHy.s:896    .text._ZN8UnitTest15MemoryOutStreamD1Ev:00000000000000c8 _ZTv0_n24_N8UnitTest15MemoryOutStreamD1Ev
     /tmp/cclARMHy.s:910    .text._ZN8UnitTest15MemoryOutStreamD0Ev:0000000000000000 _ZN8UnitTest15MemoryOutStreamD0Ev
     /tmp/cclARMHy.s:937    .text._ZN8UnitTest15MemoryOutStreamD0Ev:0000000000000026 _ZTv0_n24_N8UnitTest15MemoryOutStreamD0Ev
     /tmp/cclARMHy.s:1386   .rodata:0000000000000250 _ZTIN12_GLOBAL__N_142TestReportAssertSetsCorrectInfoInExceptionE
     /tmp/cclARMHy.s:1110   .text:000000000000041e _ZN12_GLOBAL__N_142TestReportAssertSetsCorrectInfoInExceptionD1Ev
     /tmp/cclARMHy.s:1147   .text:0000000000000458 _ZN12_GLOBAL__N_142TestReportAssertSetsCorrectInfoInExceptionD0Ev
     /tmp/cclARMHy.s:1110   .text:000000000000041e _ZN12_GLOBAL__N_142TestReportAssertSetsCorrectInfoInExceptionD2Ev
     /tmp/cclARMHy.s:1379   .rodata:0000000000000230 _ZTIN12_GLOBAL__N_137TestReportAssertThrowsAssertExceptionE
     /tmp/cclARMHy.s:1184   .text:000000000000047e _ZN12_GLOBAL__N_137TestReportAssertThrowsAssertExceptionD1Ev
     /tmp/cclARMHy.s:1221   .text:00000000000004b8 _ZN12_GLOBAL__N_137TestReportAssertThrowsAssertExceptionD0Ev
     /tmp/cclARMHy.s:1184   .text:000000000000047e _ZN12_GLOBAL__N_137TestReportAssertThrowsAssertExceptionD2Ev
     /tmp/cclARMHy.s:1319   .rodata._ZTIN8UnitTest15MemoryOutStreamE:0000000000000000 _ZTIN8UnitTest15MemoryOutStreamE
     /tmp/cclARMHy.s:1279   .rodata._ZTCN8UnitTest15MemoryOutStreamE0_St19basic_ostringstreamIcSt11char_traitsIcESaIcEE:0000000000000000 _ZTCN8UnitTest15MemoryOutStreamE0_St19basic_ostringstreamIcSt11char_traitsIcESaIcEE
     /tmp/cclARMHy.s:1296   .rodata._ZTCN8UnitTest15MemoryOutStreamE0_So:0000000000000000 _ZTCN8UnitTest15MemoryOutStreamE0_So
     /tmp/cclARMHy.s:1312   .rodata._ZTSN8UnitTest15MemoryOutStreamE:0000000000000000 _ZTSN8UnitTest15MemoryOutStreamE
     /tmp/cclARMHy.s:1325   .text:00000000000004de _Z41__static_initialization_and_destruction_0ii
     /tmp/cclARMHy.s:1398   .rodata:00000000000002c0 _ZTSN12_GLOBAL__N_137TestReportAssertThrowsAssertExceptionE
     /tmp/cclARMHy.s:1393   .rodata:0000000000000280 _ZTSN12_GLOBAL__N_142TestReportAssertSetsCorrectInfoInExceptionE
     /tmp/cclARMHy.s:1402   .text:0000000000000567 _GLOBAL__sub_I_TestAssertHandler.cpp
     /tmp/cclARMHy.s:1428   .rodata:0000000000000300 _ZZL18__gthread_active_pvE20__gthread_active_ptr

UNDEFINED SYMBOLS
__gxx_personality_v0
_ZNSt9basic_iosIcSt11char_traitsIcEEC2Ev
_ZNSt19basic_ostringstreamIcSt11char_traitsIcESaIcEEC2ESt13_Ios_Openmode
_ZNSsC1Ev
_ZNSt19basic_ostringstreamIcSt11char_traitsIcESaIcEED2Ev
_ZNSt9basic_iosIcSt11char_traitsIcEED2Ev
_Unwind_Resume
_ZN8UnitTest4TestC2EPKcS2_S2_i
_ZN8UnitTest12ReportAssertEPKcS1_i
_ZN8UnitTest11CurrentTest7DetailsEv
_ZN8UnitTest11TestDetailsC1ERKS0_i
_ZN8UnitTest11CurrentTest7ResultsEv
_ZN8UnitTest11TestResults13OnTestFailureERKNS_11TestDetailsEPKc
__cxa_begin_catch
__cxa_end_catch
__stack_chk_fail
_ZTIN8UnitTest15AssertExceptionE
_ZN8UnitTest10CheckEqualERNS_11TestResultsEPKcS3_RKNS_11TestDetailsE
_ZNK8UnitTest15AssertException8FilenameEv
_ZNK8UnitTest15AssertException10LineNumberEv
_ZNSsD1Ev
_ZdlPv
_ZStlsISt11char_traitsIcEERSt13basic_ostreamIcT_ES5_PKc
_ZNSolsEi
_ZNK8UnitTest15MemoryOutStream7GetTextEv
_ZN8UnitTest4TestD2Ev
_ZTISt19basic_ostringstreamIcSt11char_traitsIcESaIcEE
_ZTISo
_ZTVN10__cxxabiv120__si_class_type_infoE
__dso_handle
__cxa_atexit
_ZN8UnitTest4Test11GetTestListEv
_ZN8UnitTest9ListAdderC1ERNS_8TestListEPNS_4TestE
_ZTIN8UnitTest4TestE
__pthread_key_create
