   1              		.file	"testI2C.cpp"
   2              		.text
   3              	.Ltext0:
   4              		.section	.rodata
   5              	.LC0:
   6 0000 44656661 		.string	"DefaultSuite"
   6      756C7453 
   6      75697465 
   6      00
   7              		.section	.text._ZN13UnitTestSuite12GetSuiteNameEv,"axG",@progbits,_ZN13UnitTestSuite12GetSuiteName
   8              		.weak	_ZN13UnitTestSuite12GetSuiteNameEv
  10              	_ZN13UnitTestSuite12GetSuiteNameEv:
  11              	.LFB0:
  12              		.file 1 "/home/asoreyh/Dropbox/projects/lago/lago-software/acqua/brc/lago/makestuff/libs/libutpp/T
   1:/home/asoreyh/Dropbox/projects/lago/lago-software/acqua/brc/lago/makestuff/libs/libutpp/TestSuite.h **** #ifndef UNITTEST_TESTSUITE_H
   2:/home/asoreyh/Dropbox/projects/lago/lago-software/acqua/brc/lago/makestuff/libs/libutpp/TestSuite.h **** #define UNITTEST_TESTSUITE_H
   3:/home/asoreyh/Dropbox/projects/lago/lago-software/acqua/brc/lago/makestuff/libs/libutpp/TestSuite.h **** 
   4:/home/asoreyh/Dropbox/projects/lago/lago-software/acqua/brc/lago/makestuff/libs/libutpp/TestSuite.h **** namespace UnitTestSuite {
   5:/home/asoreyh/Dropbox/projects/lago/lago-software/acqua/brc/lago/makestuff/libs/libutpp/TestSuite.h **** 
   6:/home/asoreyh/Dropbox/projects/lago/lago-software/acqua/brc/lago/makestuff/libs/libutpp/TestSuite.h ****     inline char const* GetSuiteName ()
   7:/home/asoreyh/Dropbox/projects/lago/lago-software/acqua/brc/lago/makestuff/libs/libutpp/TestSuite.h ****     {
  13              		.loc 1 7 0
  14              		.cfi_startproc
  15 0000 55       		pushq	%rbp
  16              		.cfi_def_cfa_offset 16
  17              		.cfi_offset 6, -16
  18 0001 4889E5   		movq	%rsp, %rbp
  19              		.cfi_def_cfa_register 6
   8:/home/asoreyh/Dropbox/projects/lago/lago-software/acqua/brc/lago/makestuff/libs/libutpp/TestSuite.h ****         return "DefaultSuite";
  20              		.loc 1 8 0
  21 0004 B8000000 		movl	$.LC0, %eax
  21      00
   9:/home/asoreyh/Dropbox/projects/lago/lago-software/acqua/brc/lago/makestuff/libs/libutpp/TestSuite.h ****     }
  22              		.loc 1 9 0
  23 0009 5D       		popq	%rbp
  24              		.cfi_def_cfa 7, 8
  25 000a C3       		ret
  26              		.cfi_endproc
  27              	.LFE0:
  29              		.section	.text._ZN8UnitTest15MemoryOutStreamC1Ev,"axG",@progbits,_ZN8UnitTest15MemoryOutStreamC1Ev
  30              		.align 2
  31              		.weak	_ZN8UnitTest15MemoryOutStreamC1Ev
  33              	_ZN8UnitTest15MemoryOutStreamC1Ev:
  34              	.LFB1053:
  35              		.file 2 "/home/asoreyh/Dropbox/projects/lago/lago-software/acqua/brc/lago/makestuff/libs/libutpp/M
   1:/home/asoreyh/Dropbox/projects/lago/lago-software/acqua/brc/lago/makestuff/libs/libutpp/MemoryOutStream.h **** #ifndef UNITTEST_MEMORYOUTSTREAM_H
   2:/home/asoreyh/Dropbox/projects/lago/lago-software/acqua/brc/lago/makestuff/libs/libutpp/MemoryOutStream.h **** #define UNITTEST_MEMORYOUTSTREAM_H
   3:/home/asoreyh/Dropbox/projects/lago/lago-software/acqua/brc/lago/makestuff/libs/libutpp/MemoryOutStream.h **** 
   4:/home/asoreyh/Dropbox/projects/lago/lago-software/acqua/brc/lago/makestuff/libs/libutpp/MemoryOutStream.h **** #include "Config.h"
   5:/home/asoreyh/Dropbox/projects/lago/lago-software/acqua/brc/lago/makestuff/libs/libutpp/MemoryOutStream.h **** 
   6:/home/asoreyh/Dropbox/projects/lago/lago-software/acqua/brc/lago/makestuff/libs/libutpp/MemoryOutStream.h **** #ifndef UNITTEST_USE_CUSTOM_STREAMS
   7:/home/asoreyh/Dropbox/projects/lago/lago-software/acqua/brc/lago/makestuff/libs/libutpp/MemoryOutStream.h **** 
   8:/home/asoreyh/Dropbox/projects/lago/lago-software/acqua/brc/lago/makestuff/libs/libutpp/MemoryOutStream.h **** #include <sstream>
   9:/home/asoreyh/Dropbox/projects/lago/lago-software/acqua/brc/lago/makestuff/libs/libutpp/MemoryOutStream.h **** 
  10:/home/asoreyh/Dropbox/projects/lago/lago-software/acqua/brc/lago/makestuff/libs/libutpp/MemoryOutStream.h **** namespace UnitTest
  11:/home/asoreyh/Dropbox/projects/lago/lago-software/acqua/brc/lago/makestuff/libs/libutpp/MemoryOutStream.h **** {
  12:/home/asoreyh/Dropbox/projects/lago/lago-software/acqua/brc/lago/makestuff/libs/libutpp/MemoryOutStream.h **** 
  13:/home/asoreyh/Dropbox/projects/lago/lago-software/acqua/brc/lago/makestuff/libs/libutpp/MemoryOutStream.h **** class MemoryOutStream : public std::ostringstream
  14:/home/asoreyh/Dropbox/projects/lago/lago-software/acqua/brc/lago/makestuff/libs/libutpp/MemoryOutStream.h **** {
  15:/home/asoreyh/Dropbox/projects/lago/lago-software/acqua/brc/lago/makestuff/libs/libutpp/MemoryOutStream.h **** public:
  16:/home/asoreyh/Dropbox/projects/lago/lago-software/acqua/brc/lago/makestuff/libs/libutpp/MemoryOutStream.h ****     MemoryOutStream() {}
  36              		.loc 2 16 0
  37              		.cfi_startproc
  38              		.cfi_personality 0x3,__gxx_personality_v0
  39              		.cfi_lsda 0x3,.LLSDA1053
  40 0000 55       		pushq	%rbp
  41              		.cfi_def_cfa_offset 16
  42              		.cfi_offset 6, -16
  43 0001 4889E5   		movq	%rsp, %rbp
  44              		.cfi_def_cfa_register 6
  45 0004 53       		pushq	%rbx
  46 0005 4883EC18 		subq	$24, %rsp
  47              		.cfi_offset 3, -24
  48 0009 48897DE8 		movq	%rdi, -24(%rbp)
  49              	.LBB2:
  50              		.loc 2 16 0
  51 000d 488B45E8 		movq	-24(%rbp), %rax
  52 0011 4883C060 		addq	$96, %rax
  53 0015 4889C7   		movq	%rax, %rdi
  54              	.LEHB0:
  55 0018 E8000000 		call	_ZNSt9basic_iosIcSt11char_traitsIcEEC2Ev
  55      00
  56              	.LEHE0:
  57 001d B9000000 		movl	$_ZTTN8UnitTest15MemoryOutStreamE+8, %ecx
  57      00
  58 0022 488B45E8 		movq	-24(%rbp), %rax
  59 0026 BA100000 		movl	$16, %edx
  59      00
  60 002b 4889CE   		movq	%rcx, %rsi
  61 002e 4889C7   		movq	%rax, %rdi
  62              	.LEHB1:
  63 0031 E8000000 		call	_ZNSt19basic_ostringstreamIcSt11char_traitsIcESaIcEEC2ESt13_Ios_Openmode
  63      00
  64              	.LEHE1:
  65              		.loc 2 16 0 is_stmt 0 discriminator 9
  66 0036 BA000000 		movl	$_ZTVN8UnitTest15MemoryOutStreamE+24, %edx
  66      00
  67 003b 488B45E8 		movq	-24(%rbp), %rax
  68 003f 488910   		movq	%rdx, (%rax)
  69 0042 BA600000 		movl	$96, %edx
  69      00
  70 0047 488B45E8 		movq	-24(%rbp), %rax
  71 004b 4801D0   		addq	%rdx, %rax
  72 004e BA000000 		movl	$_ZTVN8UnitTest15MemoryOutStreamE+64, %edx
  72      00
  73 0053 488910   		movq	%rdx, (%rax)
  74 0056 488B45E8 		movq	-24(%rbp), %rax
  75 005a 4883C058 		addq	$88, %rax
  76 005e 4889C7   		movq	%rax, %rdi
  77              	.LEHB2:
  78 0061 E8000000 		call	_ZNSsC1Ev
  78      00
  79              	.LEHE2:
  80              	.LBE2:
  81              		.loc 2 16 0
  82 0066 EB37     		jmp	.L8
  83              	.L6:
  84 0068 4889C3   		movq	%rax, %rbx
  85              	.LBB3:
  86 006b BA000000 		movl	$_ZTTN8UnitTest15MemoryOutStreamE+8, %edx
  86      00
  87 0070 488B45E8 		movq	-24(%rbp), %rax
  88 0074 4889D6   		movq	%rdx, %rsi
  89 0077 4889C7   		movq	%rax, %rdi
  90 007a E8000000 		call	_ZNSt19basic_ostringstreamIcSt11char_traitsIcESaIcEED2Ev
  90      00
  91 007f EB03     		jmp	.L5
  92              	.L7:
  93 0081 4889C3   		movq	%rax, %rbx
  94              	.L5:
  95              		.loc 2 16 0 discriminator 28
  96 0084 488B45E8 		movq	-24(%rbp), %rax
  97 0088 4883C060 		addq	$96, %rax
  98 008c 4889C7   		movq	%rax, %rdi
  99 008f E8000000 		call	_ZNSt9basic_iosIcSt11char_traitsIcEED2Ev
  99      00
 100 0094 4889D8   		movq	%rbx, %rax
 101 0097 4889C7   		movq	%rax, %rdi
 102              	.LEHB3:
 103 009a E8000000 		call	_Unwind_Resume
 103      00
 104              	.LEHE3:
 105              	.L8:
 106              	.LBE3:
 107              		.loc 2 16 0
 108 009f 4883C418 		addq	$24, %rsp
 109 00a3 5B       		popq	%rbx
 110 00a4 5D       		popq	%rbp
 111              		.cfi_def_cfa 7, 8
 112 00a5 C3       		ret
 113              		.cfi_endproc
 114              	.LFE1053:
 115              		.globl	__gxx_personality_v0
 116              		.section	.gcc_except_table._ZN8UnitTest15MemoryOutStreamC1Ev,"aG",@progbits,_ZN8UnitTest15MemoryOu
 117              	.LLSDA1053:
 118 0000 FF       		.byte	0xff
 119 0001 FF       		.byte	0xff
 120 0002 01       		.byte	0x1
 121 0003 12       		.uleb128 .LLSDACSE1053-.LLSDACSB1053
 122              	.LLSDACSB1053:
 123 0004 18       		.uleb128 .LEHB0-.LFB1053
 124 0005 05       		.uleb128 .LEHE0-.LEHB0
 125 0006 00       		.uleb128 0
 126 0007 00       		.uleb128 0
 127 0008 31       		.uleb128 .LEHB1-.LFB1053
 128 0009 05       		.uleb128 .LEHE1-.LEHB1
 129 000a 8101     		.uleb128 .L7-.LFB1053
 130 000c 00       		.uleb128 0
 131 000d 61       		.uleb128 .LEHB2-.LFB1053
 132 000e 05       		.uleb128 .LEHE2-.LEHB2
 133 000f 68       		.uleb128 .L6-.LFB1053
 134 0010 00       		.uleb128 0
 135 0011 9A01     		.uleb128 .LEHB3-.LFB1053
 136 0013 05       		.uleb128 .LEHE3-.LEHB3
 137 0014 00       		.uleb128 0
 138 0015 00       		.uleb128 0
 139              	.LLSDACSE1053:
 140              		.section	.text._ZN8UnitTest15MemoryOutStreamC1Ev,"axG",@progbits,_ZN8UnitTest15MemoryOutStreamC1Ev
 142              		.section	.rodata
 143              	.LC1:
 144 000d 74657374 		.string	"testI2C.cpp"
 144      4932432E 
 144      63707000 
 145              	.LC2:
 146 0019 4932435F 		.string	"I2C_testInitialise"
 146      74657374 
 146      496E6974 
 146      69616C69 
 146      736500
 147              		.section	.text._ZN22TestI2C_testInitialiseC2Ev,"axG",@progbits,_ZN22TestI2C_testInitialiseC5Ev,com
 148              		.align 2
 149              		.weak	_ZN22TestI2C_testInitialiseC2Ev
 151              	_ZN22TestI2C_testInitialiseC2Ev:
 152              	.LFB1070:
 153              		.file 3 "testI2C.cpp"
   1:testI2C.cpp   **** /*
   2:testI2C.cpp   ****  * Copyright (C) 2009-2012 Chris McClelland
   3:testI2C.cpp   ****  *
   4:testI2C.cpp   ****  * This program is free software: you can redistribute it and/or modify
   5:testI2C.cpp   ****  * it under the terms of the GNU Lesser General Public License as published by
   6:testI2C.cpp   ****  * the Free Software Foundation, either version 3 of the License, or
   7:testI2C.cpp   ****  * (at your option) any later version.
   8:testI2C.cpp   ****  *
   9:testI2C.cpp   ****  * This program is distributed in the hope that it will be useful,
  10:testI2C.cpp   ****  * but WITHOUT ANY WARRANTY; without even the implied warranty of
  11:testI2C.cpp   ****  * MERCHANTABILITY or FITNESS FOR A PARTICULAR PURPOSE.  See the
  12:testI2C.cpp   ****  * GNU Lesser General Public License for more details.
  13:testI2C.cpp   ****  *
  14:testI2C.cpp   ****  * You should have received a copy of the GNU Lesser General Public License
  15:testI2C.cpp   ****  * along with this program.  If not, see <http://www.gnu.org/licenses/>.
  16:testI2C.cpp   ****  */
  17:testI2C.cpp   **** #include <string.h>
  18:testI2C.cpp   **** #include <UnitTest++.h>
  19:testI2C.cpp   **** #include <makestuff.h>
  20:testI2C.cpp   **** #include <libbuffer.h>
  21:testI2C.cpp   **** #include "../libfx2loader.h"
  22:testI2C.cpp   **** #include "../libfx2loader.h"
  23:testI2C.cpp   **** 
  24:testI2C.cpp   **** #define VID 0x04b4
  25:testI2C.cpp   **** #define PID 0x8613
  26:testI2C.cpp   **** #define DID 0x0000
  27:testI2C.cpp   **** 
  28:testI2C.cpp   **** #define LSB(x) (x & 0xFF)
  29:testI2C.cpp   **** #define MSB(x) (x >> 8)
  30:testI2C.cpp   **** 
  31:testI2C.cpp   **** TEST(I2C_testInitialise) {
 154              		.loc 3 31 0 is_stmt 1
 155              		.cfi_startproc
 156 0000 55       		pushq	%rbp
 157              		.cfi_def_cfa_offset 16
 158              		.cfi_offset 6, -16
 159 0001 4889E5   		movq	%rsp, %rbp
 160              		.cfi_def_cfa_register 6
 161 0004 4883EC10 		subq	$16, %rsp
 162 0008 48897DF8 		movq	%rdi, -8(%rbp)
 163              	.LBB4:
 164              		.loc 3 31 0
 165 000c E8000000 		call	_ZN13UnitTestSuite12GetSuiteNameEv
 165      00
 166 0011 4889C2   		movq	%rax, %rdx
 167 0014 488B45F8 		movq	-8(%rbp), %rax
 168 0018 41B81F00 		movl	$31, %r8d
 168      0000
 169 001e B9000000 		movl	$.LC1, %ecx
 169      00
 170 0023 BE000000 		movl	$.LC2, %esi
 170      00
 171 0028 4889C7   		movq	%rax, %rdi
 172 002b E8000000 		call	_ZN8UnitTest4TestC2EPKcS2_S2_i
 172      00
 173 0030 488B45F8 		movq	-8(%rbp), %rax
 174 0034 48C70000 		movq	$_ZTV22TestI2C_testInitialise+16, (%rax)
 174      000000
 175              	.LBE4:
 176 003b C9       		leave
 177              		.cfi_def_cfa 7, 8
 178 003c C3       		ret
 179              		.cfi_endproc
 180              	.LFE1070:
 182              		.weak	_ZN22TestI2C_testInitialiseC1Ev
 183              		.set	_ZN22TestI2C_testInitialiseC1Ev,_ZN22TestI2C_testInitialiseC2Ev
 184              		.globl	testI2C_testInitialiseInstance
 185              		.bss
 186              		.align 32
 189              	testI2C_testInitialiseInstance:
 190 0000 00000000 		.zero	56
 190      00000000 
 190      00000000 
 190      00000000 
 190      00000000 
 191              		.globl	adderI2C_testInitialise
 194              	adderI2C_testInitialise:
 195 0038 00       		.zero	1
 196              		.section	.rodata
 197 002c 00000000 		.align 8
 198              	.LC3:
 199 0030 556E6861 		.string	"Unhandled exception in CHECK_EQUAL(BUF_SUCCESS, bStatus)"
 199      6E646C65 
 199      64206578 
 199      63657074 
 199      696F6E20 
 200 0069 00000000 		.align 8
 200      000000
 201              	.LC4:
 202 0070 556E6861 		.string	"Unhandled exception in CHECK_EQUAL(I2C_SUCCESS, iStatus)"
 202      6E646C65 
 202      64206578 
 202      63657074 
 202      696F6E20 
 203 00a9 00000000 		.align 8
 203      000000
 204              	.LC5:
 205 00b0 556E6861 		.string	"Unhandled exception in CHECK_EQUAL(8UL+5UL, i2cBuffer.length)"
 205      6E646C65 
 205      64206578 
 205      63657074 
 205      696F6E20 
 206 00ee 0000     		.align 8
 207              	.LC6:
 208 00f0 556E6861 		.string	"Unhandled exception in CHECK_EQUAL(1024UL, i2cBuffer.capacity)"
 208      6E646C65 
 208      64206578 
 208      63657074 
 208      696F6E20 
 209 012f 00       		.align 8
 210              	.LC7:
 211 0130 556E6861 		.string	"Unhandled exception in CHECK_ARRAY_EQUAL(expected, i2cBuffer.data)"
 211      6E646C65 
 211      64206578 
 211      63657074 
 211      696F6E20 
 212              		.text
 213              		.align 2
 214              		.globl	_ZNK22TestI2C_testInitialise7RunImplEv
 216              	_ZNK22TestI2C_testInitialise7RunImplEv:
 217              	.LFB1072:
 218              		.loc 3 31 0
 219              		.cfi_startproc
 220              		.cfi_personality 0x3,__gxx_personality_v0
 221              		.cfi_lsda 0x3,.LLSDA1072
 222 0000 55       		pushq	%rbp
 223              		.cfi_def_cfa_offset 16
 224              		.cfi_offset 6, -16
 225 0001 4889E5   		movq	%rsp, %rbp
 226              		.cfi_def_cfa_register 6
 227 0004 53       		pushq	%rbx
 228 0005 4881EC88 		subq	$136, %rsp
 228      000000
 229              		.cfi_offset 3, -24
 230 000c 4889BD78 		movq	%rdi, -136(%rbp)
 230      FFFFFF
 231              		.loc 3 31 0
 232 0013 64488B04 		movq	%fs:40, %rax
 232      25280000 
 232      00
 233 001c 488945E8 		movq	%rax, -24(%rbp)
 234 0020 31C0     		xorl	%eax, %eax
 235              	.LBB5:
  32:testI2C.cpp   **** 	Buffer i2cBuffer;
  33:testI2C.cpp   **** 	I2CStatus iStatus;
  34:testI2C.cpp   **** 	BufferStatus bStatus;
  35:testI2C.cpp   **** 	const uint8 expected[] = {0xC2, LSB(VID), MSB(VID), LSB(PID), MSB(PID), LSB(DID), MSB(DID), CONFIG
 236              		.loc 3 35 0
 237 0022 C645D0C2 		movb	$-62, -48(%rbp)
 238 0026 C645D1B4 		movb	$-76, -47(%rbp)
 239 002a C645D204 		movb	$4, -46(%rbp)
 240 002e C645D313 		movb	$19, -45(%rbp)
 241 0032 C645D486 		movb	$-122, -44(%rbp)
 242 0036 C645D500 		movb	$0, -43(%rbp)
 243 003a C645D600 		movb	$0, -42(%rbp)
 244 003e C645D701 		movb	$1, -41(%rbp)
 245 0042 C645D880 		movb	$-128, -40(%rbp)
 246 0046 C645D901 		movb	$1, -39(%rbp)
 247 004a C645DAE6 		movb	$-26, -38(%rbp)
 248 004e C645DB00 		movb	$0, -37(%rbp)
 249 0052 C645DC00 		movb	$0, -36(%rbp)
  36:testI2C.cpp   **** 	bStatus = bufInitialise(&i2cBuffer, 1024, 0x00, NULL);
 250              		.loc 3 36 0
 251 0056 488D4590 		leaq	-112(%rbp), %rax
 252 005a B9000000 		movl	$0, %ecx
 252      00
 253 005f BA000000 		movl	$0, %edx
 253      00
 254 0064 BE000400 		movl	$1024, %esi
 254      00
 255 0069 4889C7   		movq	%rax, %rdi
 256              	.LEHB4:
 257 006c E8000000 		call	bufInitialise
 257      00
 258              	.LEHE4:
 259 0071 894584   		movl	%eax, -124(%rbp)
 260              	.LEHB5:
  37:testI2C.cpp   **** 	CHECK_EQUAL(BUF_SUCCESS, bStatus);
 261              		.loc 3 37 0
 262 0074 E8000000 		call	_ZN8UnitTest11CurrentTest7DetailsEv
 262      00
 263 0079 488B08   		movq	(%rax), %rcx
 264 007c 488D45B0 		leaq	-80(%rbp), %rax
 265 0080 BA250000 		movl	$37, %edx
 265      00
 266 0085 4889CE   		movq	%rcx, %rsi
 267 0088 4889C7   		movq	%rax, %rdi
 268 008b E8000000 		call	_ZN8UnitTest11TestDetailsC1ERKS0_i
 268      00
 269              		.loc 3 37 0 is_stmt 0 discriminator 2
 270 0090 C7458800 		movl	$0, -120(%rbp)
 270      000000
 271 0097 E8000000 		call	_ZN8UnitTest11CurrentTest7ResultsEv
 271      00
 272 009c 488B00   		movq	(%rax), %rax
 273 009f 488D4DB0 		leaq	-80(%rbp), %rcx
 274 00a3 488D5584 		leaq	-124(%rbp), %rdx
 275 00a7 488D7588 		leaq	-120(%rbp), %rsi
 276 00ab 4889C7   		movq	%rax, %rdi
 277 00ae E8000000 		call	_ZN8UnitTest10CheckEqualI12BufferStatusS1_EEvRNS_11TestResultsERKT_RKT0_RKNS_11TestDetailsE
 277      00
 278              	.LEHE5:
 279              	.L13:
  38:testI2C.cpp   **** 	i2cInitialise(&i2cBuffer, VID, PID, DID, CONFIG_BYTE_400KHZ);
 280              		.loc 3 38 0 is_stmt 1
 281 00b3 488D4590 		leaq	-112(%rbp), %rax
 282 00b7 41B80100 		movl	$1, %r8d
 282      0000
 283 00bd B9000000 		movl	$0, %ecx
 283      00
 284 00c2 BA138600 		movl	$34323, %edx
 284      00
 285 00c7 BEB40400 		movl	$1204, %esi
 285      00
 286 00cc 4889C7   		movq	%rax, %rdi
 287              	.LEHB6:
 288 00cf E8000000 		call	i2cInitialise
 288      00
  39:testI2C.cpp   **** 	iStatus = i2cFinalise(&i2cBuffer, NULL);
 289              		.loc 3 39 0
 290 00d4 488D4590 		leaq	-112(%rbp), %rax
 291 00d8 BE000000 		movl	$0, %esi
 291      00
 292 00dd 4889C7   		movq	%rax, %rdi
 293 00e0 E8000000 		call	i2cFinalise
 293      00
 294              	.LEHE6:
 295 00e5 894580   		movl	%eax, -128(%rbp)
 296              	.LEHB7:
  40:testI2C.cpp   **** 	CHECK_EQUAL(I2C_SUCCESS, iStatus);
 297              		.loc 3 40 0
 298 00e8 E8000000 		call	_ZN8UnitTest11CurrentTest7DetailsEv
 298      00
 299 00ed 488B08   		movq	(%rax), %rcx
 300 00f0 488D45B0 		leaq	-80(%rbp), %rax
 301 00f4 BA280000 		movl	$40, %edx
 301      00
 302 00f9 4889CE   		movq	%rcx, %rsi
 303 00fc 4889C7   		movq	%rax, %rdi
 304 00ff E8000000 		call	_ZN8UnitTest11TestDetailsC1ERKS0_i
 304      00
 305              		.loc 3 40 0 is_stmt 0 discriminator 2
 306 0104 C7458800 		movl	$0, -120(%rbp)
 306      000000
 307 010b E8000000 		call	_ZN8UnitTest11CurrentTest7ResultsEv
 307      00
 308 0110 488B00   		movq	(%rax), %rax
 309 0113 488D4DB0 		leaq	-80(%rbp), %rcx
 310 0117 488D5580 		leaq	-128(%rbp), %rdx
 311 011b 488D7588 		leaq	-120(%rbp), %rsi
 312 011f 4889C7   		movq	%rax, %rdi
 313 0122 E8000000 		call	_ZN8UnitTest10CheckEqualI9I2CStatusS1_EEvRNS_11TestResultsERKT_RKT0_RKNS_11TestDetailsE
 313      00
 314              	.LEHE7:
 315              	.L16:
 316              	.LEHB8:
  41:testI2C.cpp   **** 	CHECK_EQUAL(8UL+5UL, i2cBuffer.length);
 317              		.loc 3 41 0 is_stmt 1
 318 0127 E8000000 		call	_ZN8UnitTest11CurrentTest7DetailsEv
 318      00
 319 012c 488B08   		movq	(%rax), %rcx
 320 012f 488D45B0 		leaq	-80(%rbp), %rax
 321 0133 BA290000 		movl	$41, %edx
 321      00
 322 0138 4889CE   		movq	%rcx, %rsi
 323 013b 4889C7   		movq	%rax, %rdi
 324 013e E8000000 		call	_ZN8UnitTest11TestDetailsC1ERKS0_i
 324      00
 325              		.loc 3 41 0 is_stmt 0 discriminator 2
 326 0143 48C74588 		movq	$13, -120(%rbp)
 326      0D000000 
 327 014b E8000000 		call	_ZN8UnitTest11CurrentTest7ResultsEv
 327      00
 328 0150 488B00   		movq	(%rax), %rax
 329 0153 488D55B0 		leaq	-80(%rbp), %rdx
 330 0157 488D4D90 		leaq	-112(%rbp), %rcx
 331 015b 488D7908 		leaq	8(%rcx), %rdi
 332 015f 488D7588 		leaq	-120(%rbp), %rsi
 333 0163 4889D1   		movq	%rdx, %rcx
 334 0166 4889FA   		movq	%rdi, %rdx
 335 0169 4889C7   		movq	%rax, %rdi
 336 016c E8000000 		call	_ZN8UnitTest10CheckEqualImjEEvRNS_11TestResultsERKT_RKT0_RKNS_11TestDetailsE
 336      00
 337              	.LEHE8:
 338              	.L19:
 339              	.LEHB9:
  42:testI2C.cpp   **** 	CHECK_EQUAL(1024UL, i2cBuffer.capacity);
 340              		.loc 3 42 0 is_stmt 1
 341 0171 E8000000 		call	_ZN8UnitTest11CurrentTest7DetailsEv
 341      00
 342 0176 488B08   		movq	(%rax), %rcx
 343 0179 488D45B0 		leaq	-80(%rbp), %rax
 344 017d BA2A0000 		movl	$42, %edx
 344      00
 345 0182 4889CE   		movq	%rcx, %rsi
 346 0185 4889C7   		movq	%rax, %rdi
 347 0188 E8000000 		call	_ZN8UnitTest11TestDetailsC1ERKS0_i
 347      00
 348              		.loc 3 42 0 is_stmt 0 discriminator 2
 349 018d 48C74588 		movq	$1024, -120(%rbp)
 349      00040000 
 350 0195 E8000000 		call	_ZN8UnitTest11CurrentTest7ResultsEv
 350      00
 351 019a 488B00   		movq	(%rax), %rax
 352 019d 488D55B0 		leaq	-80(%rbp), %rdx
 353 01a1 488D4D90 		leaq	-112(%rbp), %rcx
 354 01a5 488D790C 		leaq	12(%rcx), %rdi
 355 01a9 488D7588 		leaq	-120(%rbp), %rsi
 356 01ad 4889D1   		movq	%rdx, %rcx
 357 01b0 4889FA   		movq	%rdi, %rdx
 358 01b3 4889C7   		movq	%rax, %rdi
 359 01b6 E8000000 		call	_ZN8UnitTest10CheckEqualImjEEvRNS_11TestResultsERKT_RKT0_RKNS_11TestDetailsE
 359      00
 360              	.LEHE9:
 361              	.L22:
 362              	.LEHB10:
  43:testI2C.cpp   **** 	CHECK_ARRAY_EQUAL(expected, i2cBuffer.data, 8+5);
 363              		.loc 3 43 0 is_stmt 1
 364 01bb E8000000 		call	_ZN8UnitTest11CurrentTest7DetailsEv
 364      00
 365 01c0 488B08   		movq	(%rax), %rcx
 366 01c3 488D45B0 		leaq	-80(%rbp), %rax
 367 01c7 BA2B0000 		movl	$43, %edx
 367      00
 368 01cc 4889CE   		movq	%rcx, %rsi
 369 01cf 4889C7   		movq	%rax, %rdi
 370 01d2 E8000000 		call	_ZN8UnitTest11TestDetailsC1ERKS0_i
 370      00
 371              		.loc 3 43 0 is_stmt 0 discriminator 2
 372 01d7 E8000000 		call	_ZN8UnitTest11CurrentTest7ResultsEv
 372      00
 373 01dc 488B00   		movq	(%rax), %rax
 374 01df 488D4DB0 		leaq	-80(%rbp), %rcx
 375 01e3 488D5590 		leaq	-112(%rbp), %rdx
 376 01e7 488D75D0 		leaq	-48(%rbp), %rsi
 377 01eb 4989C8   		movq	%rcx, %r8
 378 01ee B90D0000 		movl	$13, %ecx
 378      00
 379 01f3 4889C7   		movq	%rax, %rdi
 380 01f6 E8000000 		call	_ZN8UnitTest15CheckArrayEqualIA13_hPhEEvRNS_11TestResultsERKT_RKT0_iRKNS_11TestDetailsE
 380      00
 381              	.LEHE10:
 382              	.L25:
  44:testI2C.cpp   **** 	bufDestroy(&i2cBuffer);
 383              		.loc 3 44 0 is_stmt 1
 384 01fb 488D4590 		leaq	-112(%rbp), %rax
 385 01ff 4889C7   		movq	%rax, %rdi
 386              	.LEHB11:
 387 0202 E8000000 		call	bufDestroy
 387      00
 388              	.LEHE11:
 389              	.LBE5:
  45:testI2C.cpp   **** }
 390              		.loc 3 45 0
 391 0207 488B45E8 		movq	-24(%rbp), %rax
 392 020b 64483304 		xorq	%fs:40, %rax
 392      25280000 
 392      00
 393 0214 0F84DB01 		je	.L26
 393      0000
 394 021a E9D10100 		jmp	.L37
 394      00
 395              	.L28:
 396 021f 4889C3   		movq	%rax, %rbx
 397              	.LBB6:
  37:testI2C.cpp   **** 	i2cInitialise(&i2cBuffer, VID, PID, DID, CONFIG_BYTE_400KHZ);
 398              		.loc 3 37 0
 399 0222 E8000000 		call	__cxa_end_catch
 399      00
 400 0227 4889D8   		movq	%rbx, %rax
 401 022a 4889C7   		movq	%rax, %rdi
 402              	.LEHB12:
 403 022d E8000000 		call	_Unwind_Resume
 403      00
 404              	.LEHE12:
 405              	.L27:
 406 0232 4889C7   		movq	%rax, %rdi
 407 0235 E8000000 		call	__cxa_begin_catch
 407      00
 408              	.LEHB13:
 409 023a E8000000 		call	_ZN8UnitTest11CurrentTest7DetailsEv
 409      00
 410 023f 488B08   		movq	(%rax), %rcx
 411 0242 488D45B0 		leaq	-80(%rbp), %rax
 412 0246 BA250000 		movl	$37, %edx
 412      00
 413 024b 4889CE   		movq	%rcx, %rsi
 414 024e 4889C7   		movq	%rax, %rdi
 415 0251 E8000000 		call	_ZN8UnitTest11TestDetailsC1ERKS0_i
 415      00
  37:testI2C.cpp   **** 	i2cInitialise(&i2cBuffer, VID, PID, DID, CONFIG_BYTE_400KHZ);
 416              		.loc 3 37 0 is_stmt 0 discriminator 10
 417 0256 E8000000 		call	_ZN8UnitTest11CurrentTest7ResultsEv
 417      00
 418 025b 488B00   		movq	(%rax), %rax
 419 025e 488D4DB0 		leaq	-80(%rbp), %rcx
 420 0262 BA000000 		movl	$.LC3, %edx
 420      00
 421 0267 4889CE   		movq	%rcx, %rsi
 422 026a 4889C7   		movq	%rax, %rdi
 423 026d E8000000 		call	_ZN8UnitTest11TestResults13OnTestFailureERKNS_11TestDetailsEPKc
 423      00
 424              	.LEHE13:
 425              	.LEHB14:
  37:testI2C.cpp   **** 	i2cInitialise(&i2cBuffer, VID, PID, DID, CONFIG_BYTE_400KHZ);
 426              		.loc 3 37 0 discriminator 14
 427 0272 E8000000 		call	__cxa_end_catch
 427      00
 428              	.LEHE14:
 429 0277 E937FEFF 		jmp	.L13
 429      FF
 430              	.L30:
 431 027c 4889C3   		movq	%rax, %rbx
  40:testI2C.cpp   **** 	CHECK_EQUAL(8UL+5UL, i2cBuffer.length);
 432              		.loc 3 40 0 is_stmt 1
 433 027f E8000000 		call	__cxa_end_catch
 433      00
 434 0284 4889D8   		movq	%rbx, %rax
 435 0287 4889C7   		movq	%rax, %rdi
 436              	.LEHB15:
 437 028a E8000000 		call	_Unwind_Resume
 437      00
 438              	.LEHE15:
 439              	.L29:
 440 028f 4889C7   		movq	%rax, %rdi
 441 0292 E8000000 		call	__cxa_begin_catch
 441      00
 442              	.LEHB16:
 443 0297 E8000000 		call	_ZN8UnitTest11CurrentTest7DetailsEv
 443      00
 444 029c 488B08   		movq	(%rax), %rcx
 445 029f 488D45B0 		leaq	-80(%rbp), %rax
 446 02a3 BA280000 		movl	$40, %edx
 446      00
 447 02a8 4889CE   		movq	%rcx, %rsi
 448 02ab 4889C7   		movq	%rax, %rdi
 449 02ae E8000000 		call	_ZN8UnitTest11TestDetailsC1ERKS0_i
 449      00
  40:testI2C.cpp   **** 	CHECK_EQUAL(8UL+5UL, i2cBuffer.length);
 450              		.loc 3 40 0 is_stmt 0 discriminator 10
 451 02b3 E8000000 		call	_ZN8UnitTest11CurrentTest7ResultsEv
 451      00
 452 02b8 488B00   		movq	(%rax), %rax
 453 02bb 488D4DB0 		leaq	-80(%rbp), %rcx
 454 02bf BA000000 		movl	$.LC4, %edx
 454      00
 455 02c4 4889CE   		movq	%rcx, %rsi
 456 02c7 4889C7   		movq	%rax, %rdi
 457 02ca E8000000 		call	_ZN8UnitTest11TestResults13OnTestFailureERKNS_11TestDetailsEPKc
 457      00
 458              	.LEHE16:
 459              	.LEHB17:
  40:testI2C.cpp   **** 	CHECK_EQUAL(8UL+5UL, i2cBuffer.length);
 460              		.loc 3 40 0 discriminator 14
 461 02cf E8000000 		call	__cxa_end_catch
 461      00
 462              	.LEHE17:
 463 02d4 E94EFEFF 		jmp	.L16
 463      FF
 464              	.L32:
 465 02d9 4889C3   		movq	%rax, %rbx
  41:testI2C.cpp   **** 	CHECK_EQUAL(1024UL, i2cBuffer.capacity);
 466              		.loc 3 41 0 is_stmt 1
 467 02dc E8000000 		call	__cxa_end_catch
 467      00
 468 02e1 4889D8   		movq	%rbx, %rax
 469 02e4 4889C7   		movq	%rax, %rdi
 470              	.LEHB18:
 471 02e7 E8000000 		call	_Unwind_Resume
 471      00
 472              	.LEHE18:
 473              	.L31:
 474 02ec 4889C7   		movq	%rax, %rdi
 475 02ef E8000000 		call	__cxa_begin_catch
 475      00
 476              	.LEHB19:
 477 02f4 E8000000 		call	_ZN8UnitTest11CurrentTest7DetailsEv
 477      00
 478 02f9 488B08   		movq	(%rax), %rcx
 479 02fc 488D45B0 		leaq	-80(%rbp), %rax
 480 0300 BA290000 		movl	$41, %edx
 480      00
 481 0305 4889CE   		movq	%rcx, %rsi
 482 0308 4889C7   		movq	%rax, %rdi
 483 030b E8000000 		call	_ZN8UnitTest11TestDetailsC1ERKS0_i
 483      00
  41:testI2C.cpp   **** 	CHECK_EQUAL(1024UL, i2cBuffer.capacity);
 484              		.loc 3 41 0 is_stmt 0 discriminator 10
 485 0310 E8000000 		call	_ZN8UnitTest11CurrentTest7ResultsEv
 485      00
 486 0315 488B00   		movq	(%rax), %rax
 487 0318 488D4DB0 		leaq	-80(%rbp), %rcx
 488 031c BA000000 		movl	$.LC5, %edx
 488      00
 489 0321 4889CE   		movq	%rcx, %rsi
 490 0324 4889C7   		movq	%rax, %rdi
 491 0327 E8000000 		call	_ZN8UnitTest11TestResults13OnTestFailureERKNS_11TestDetailsEPKc
 491      00
 492              	.LEHE19:
 493              	.LEHB20:
  41:testI2C.cpp   **** 	CHECK_EQUAL(1024UL, i2cBuffer.capacity);
 494              		.loc 3 41 0 discriminator 14
 495 032c E8000000 		call	__cxa_end_catch
 495      00
 496              	.LEHE20:
 497 0331 E93BFEFF 		jmp	.L19
 497      FF
 498              	.L34:
 499 0336 4889C3   		movq	%rax, %rbx
  42:testI2C.cpp   **** 	CHECK_ARRAY_EQUAL(expected, i2cBuffer.data, 8+5);
 500              		.loc 3 42 0 is_stmt 1
 501 0339 E8000000 		call	__cxa_end_catch
 501      00
 502 033e 4889D8   		movq	%rbx, %rax
 503 0341 4889C7   		movq	%rax, %rdi
 504              	.LEHB21:
 505 0344 E8000000 		call	_Unwind_Resume
 505      00
 506              	.LEHE21:
 507              	.L33:
 508 0349 4889C7   		movq	%rax, %rdi
 509 034c E8000000 		call	__cxa_begin_catch
 509      00
 510              	.LEHB22:
 511 0351 E8000000 		call	_ZN8UnitTest11CurrentTest7DetailsEv
 511      00
 512 0356 488B08   		movq	(%rax), %rcx
 513 0359 488D45B0 		leaq	-80(%rbp), %rax
 514 035d BA2A0000 		movl	$42, %edx
 514      00
 515 0362 4889CE   		movq	%rcx, %rsi
 516 0365 4889C7   		movq	%rax, %rdi
 517 0368 E8000000 		call	_ZN8UnitTest11TestDetailsC1ERKS0_i
 517      00
  42:testI2C.cpp   **** 	CHECK_ARRAY_EQUAL(expected, i2cBuffer.data, 8+5);
 518              		.loc 3 42 0 is_stmt 0 discriminator 10
 519 036d E8000000 		call	_ZN8UnitTest11CurrentTest7ResultsEv
 519      00
 520 0372 488B00   		movq	(%rax), %rax
 521 0375 488D4DB0 		leaq	-80(%rbp), %rcx
 522 0379 BA000000 		movl	$.LC6, %edx
 522      00
 523 037e 4889CE   		movq	%rcx, %rsi
 524 0381 4889C7   		movq	%rax, %rdi
 525 0384 E8000000 		call	_ZN8UnitTest11TestResults13OnTestFailureERKNS_11TestDetailsEPKc
 525      00
 526              	.LEHE22:
 527              	.LEHB23:
  42:testI2C.cpp   **** 	CHECK_ARRAY_EQUAL(expected, i2cBuffer.data, 8+5);
 528              		.loc 3 42 0 discriminator 14
 529 0389 E8000000 		call	__cxa_end_catch
 529      00
 530              	.LEHE23:
 531 038e E928FEFF 		jmp	.L22
 531      FF
 532              	.L36:
 533 0393 4889C3   		movq	%rax, %rbx
  43:testI2C.cpp   **** 	bufDestroy(&i2cBuffer);
 534              		.loc 3 43 0 is_stmt 1
 535 0396 E8000000 		call	__cxa_end_catch
 535      00
 536 039b 4889D8   		movq	%rbx, %rax
 537 039e 4889C7   		movq	%rax, %rdi
 538              	.LEHB24:
 539 03a1 E8000000 		call	_Unwind_Resume
 539      00
 540              	.LEHE24:
 541              	.L35:
 542 03a6 4889C7   		movq	%rax, %rdi
 543 03a9 E8000000 		call	__cxa_begin_catch
 543      00
 544              	.LEHB25:
 545 03ae E8000000 		call	_ZN8UnitTest11CurrentTest7DetailsEv
 545      00
 546 03b3 488B08   		movq	(%rax), %rcx
 547 03b6 488D45B0 		leaq	-80(%rbp), %rax
 548 03ba BA2B0000 		movl	$43, %edx
 548      00
 549 03bf 4889CE   		movq	%rcx, %rsi
 550 03c2 4889C7   		movq	%rax, %rdi
 551 03c5 E8000000 		call	_ZN8UnitTest11TestDetailsC1ERKS0_i
 551      00
  43:testI2C.cpp   **** 	bufDestroy(&i2cBuffer);
 552              		.loc 3 43 0 is_stmt 0 discriminator 10
 553 03ca E8000000 		call	_ZN8UnitTest11CurrentTest7ResultsEv
 553      00
 554 03cf 488B00   		movq	(%rax), %rax
 555 03d2 488D4DB0 		leaq	-80(%rbp), %rcx
 556 03d6 BA000000 		movl	$.LC7, %edx
 556      00
 557 03db 4889CE   		movq	%rcx, %rsi
 558 03de 4889C7   		movq	%rax, %rdi
 559 03e1 E8000000 		call	_ZN8UnitTest11TestResults13OnTestFailureERKNS_11TestDetailsEPKc
 559      00
 560              	.LEHE25:
 561              	.LEHB26:
  43:testI2C.cpp   **** 	bufDestroy(&i2cBuffer);
 562              		.loc 3 43 0 discriminator 14
 563 03e6 E8000000 		call	__cxa_end_catch
 563      00
 564              	.LEHE26:
 565 03eb E90BFEFF 		jmp	.L25
 565      FF
 566              	.L37:
 567              	.LBE6:
 568              		.loc 3 45 0 is_stmt 1
 569 03f0 E8000000 		call	__stack_chk_fail
 569      00
 570              	.L26:
 571 03f5 4881C488 		addq	$136, %rsp
 571      000000
 572 03fc 5B       		popq	%rbx
 573 03fd 5D       		popq	%rbp
 574              		.cfi_def_cfa 7, 8
 575 03fe C3       		ret
 576              		.cfi_endproc
 577              	.LFE1072:
 578              		.section	.gcc_except_table,"a",@progbits
 579              		.align 4
 580              	.LLSDA1072:
 581 0000 FF       		.byte	0xff
 582 0001 03       		.byte	0x3
 583 0002 8401     		.uleb128 .LLSDATT1072-.LLSDATTD1072
 584              	.LLSDATTD1072:
 585 0004 01       		.byte	0x1
 586 0005 7B       		.uleb128 .LLSDACSE1072-.LLSDACSB1072
 587              	.LLSDACSB1072:
 588 0006 6C       		.uleb128 .LEHB4-.LFB1072
 589 0007 05       		.uleb128 .LEHE4-.LEHB4
 590 0008 00       		.uleb128 0
 591 0009 00       		.uleb128 0
 592 000a 74       		.uleb128 .LEHB5-.LFB1072
 593 000b 3F       		.uleb128 .LEHE5-.LEHB5
 594 000c B204     		.uleb128 .L27-.LFB1072
 595 000e 01       		.uleb128 0x1
 596 000f CF01     		.uleb128 .LEHB6-.LFB1072
 597 0011 16       		.uleb128 .LEHE6-.LEHB6
 598 0012 00       		.uleb128 0
 599 0013 00       		.uleb128 0
 600 0014 E801     		.uleb128 .LEHB7-.LFB1072
 601 0016 3F       		.uleb128 .LEHE7-.LEHB7
 602 0017 8F05     		.uleb128 .L29-.LFB1072
 603 0019 01       		.uleb128 0x1
 604 001a A702     		.uleb128 .LEHB8-.LFB1072
 605 001c 4A       		.uleb128 .LEHE8-.LEHB8
 606 001d EC05     		.uleb128 .L31-.LFB1072
 607 001f 01       		.uleb128 0x1
 608 0020 F102     		.uleb128 .LEHB9-.LFB1072
 609 0022 4A       		.uleb128 .LEHE9-.LEHB9
 610 0023 C906     		.uleb128 .L33-.LFB1072
 611 0025 01       		.uleb128 0x1
 612 0026 BB03     		.uleb128 .LEHB10-.LFB1072
 613 0028 40       		.uleb128 .LEHE10-.LEHB10
 614 0029 A607     		.uleb128 .L35-.LFB1072
 615 002b 01       		.uleb128 0x1
 616 002c 8204     		.uleb128 .LEHB11-.LFB1072
 617 002e 05       		.uleb128 .LEHE11-.LEHB11
 618 002f 00       		.uleb128 0
 619 0030 00       		.uleb128 0
 620 0031 AD04     		.uleb128 .LEHB12-.LFB1072
 621 0033 05       		.uleb128 .LEHE12-.LEHB12
 622 0034 00       		.uleb128 0
 623 0035 00       		.uleb128 0
 624 0036 BA04     		.uleb128 .LEHB13-.LFB1072
 625 0038 38       		.uleb128 .LEHE13-.LEHB13
 626 0039 9F04     		.uleb128 .L28-.LFB1072
 627 003b 00       		.uleb128 0
 628 003c F204     		.uleb128 .LEHB14-.LFB1072
 629 003e 05       		.uleb128 .LEHE14-.LEHB14
 630 003f 00       		.uleb128 0
 631 0040 00       		.uleb128 0
 632 0041 8A05     		.uleb128 .LEHB15-.LFB1072
 633 0043 05       		.uleb128 .LEHE15-.LEHB15
 634 0044 00       		.uleb128 0
 635 0045 00       		.uleb128 0
 636 0046 9705     		.uleb128 .LEHB16-.LFB1072
 637 0048 38       		.uleb128 .LEHE16-.LEHB16
 638 0049 FC04     		.uleb128 .L30-.LFB1072
 639 004b 00       		.uleb128 0
 640 004c CF05     		.uleb128 .LEHB17-.LFB1072
 641 004e 05       		.uleb128 .LEHE17-.LEHB17
 642 004f 00       		.uleb128 0
 643 0050 00       		.uleb128 0
 644 0051 E705     		.uleb128 .LEHB18-.LFB1072
 645 0053 05       		.uleb128 .LEHE18-.LEHB18
 646 0054 00       		.uleb128 0
 647 0055 00       		.uleb128 0
 648 0056 F405     		.uleb128 .LEHB19-.LFB1072
 649 0058 38       		.uleb128 .LEHE19-.LEHB19
 650 0059 D905     		.uleb128 .L32-.LFB1072
 651 005b 00       		.uleb128 0
 652 005c AC06     		.uleb128 .LEHB20-.LFB1072
 653 005e 05       		.uleb128 .LEHE20-.LEHB20
 654 005f 00       		.uleb128 0
 655 0060 00       		.uleb128 0
 656 0061 C406     		.uleb128 .LEHB21-.LFB1072
 657 0063 05       		.uleb128 .LEHE21-.LEHB21
 658 0064 00       		.uleb128 0
 659 0065 00       		.uleb128 0
 660 0066 D106     		.uleb128 .LEHB22-.LFB1072
 661 0068 38       		.uleb128 .LEHE22-.LEHB22
 662 0069 B606     		.uleb128 .L34-.LFB1072
 663 006b 00       		.uleb128 0
 664 006c 8907     		.uleb128 .LEHB23-.LFB1072
 665 006e 05       		.uleb128 .LEHE23-.LEHB23
 666 006f 00       		.uleb128 0
 667 0070 00       		.uleb128 0
 668 0071 A107     		.uleb128 .LEHB24-.LFB1072
 669 0073 05       		.uleb128 .LEHE24-.LEHB24
 670 0074 00       		.uleb128 0
 671 0075 00       		.uleb128 0
 672 0076 AE07     		.uleb128 .LEHB25-.LFB1072
 673 0078 38       		.uleb128 .LEHE25-.LEHB25
 674 0079 9307     		.uleb128 .L36-.LFB1072
 675 007b 00       		.uleb128 0
 676 007c E607     		.uleb128 .LEHB26-.LFB1072
 677 007e 05       		.uleb128 .LEHE26-.LEHB26
 678 007f 00       		.uleb128 0
 679 0080 00       		.uleb128 0
 680              	.LLSDACSE1072:
 681 0081 01       		.byte	0x1
 682 0082 00       		.byte	0
 683 0083 00       		.align 4
 684 0084 00000000 		.long	0
 685              	
 686              	.LLSDATT1072:
 687              		.text
 689              		.section	.rodata
 690              	.LC8:
 691 0173 4932435F 		.string	"I2C_testRoundTrip"
 691      74657374 
 691      526F756E 
 691      64547269 
 691      7000
 692              		.section	.text._ZN21TestI2C_testRoundTripC2Ev,"axG",@progbits,_ZN21TestI2C_testRoundTripC5Ev,comda
 693              		.align 2
 694              		.weak	_ZN21TestI2C_testRoundTripC2Ev
 696              	_ZN21TestI2C_testRoundTripC2Ev:
 697              	.LFB1074:
  46:testI2C.cpp   **** 
  47:testI2C.cpp   **** TEST(I2C_testRoundTrip) {
 698              		.loc 3 47 0
 699              		.cfi_startproc
 700 0000 55       		pushq	%rbp
 701              		.cfi_def_cfa_offset 16
 702              		.cfi_offset 6, -16
 703 0001 4889E5   		movq	%rsp, %rbp
 704              		.cfi_def_cfa_register 6
 705 0004 4883EC10 		subq	$16, %rsp
 706 0008 48897DF8 		movq	%rdi, -8(%rbp)
 707              	.LBB7:
 708              		.loc 3 47 0
 709 000c E8000000 		call	_ZN13UnitTestSuite12GetSuiteNameEv
 709      00
 710 0011 4889C2   		movq	%rax, %rdx
 711 0014 488B45F8 		movq	-8(%rbp), %rax
 712 0018 41B82F00 		movl	$47, %r8d
 712      0000
 713 001e B9000000 		movl	$.LC1, %ecx
 713      00
 714 0023 BE000000 		movl	$.LC8, %esi
 714      00
 715 0028 4889C7   		movq	%rax, %rdi
 716 002b E8000000 		call	_ZN8UnitTest4TestC2EPKcS2_S2_i
 716      00
 717 0030 488B45F8 		movq	-8(%rbp), %rax
 718 0034 48C70000 		movq	$_ZTV21TestI2C_testRoundTrip+16, (%rax)
 718      000000
 719              	.LBE7:
 720 003b C9       		leave
 721              		.cfi_def_cfa 7, 8
 722 003c C3       		ret
 723              		.cfi_endproc
 724              	.LFE1074:
 726              		.weak	_ZN21TestI2C_testRoundTripC1Ev
 727              		.set	_ZN21TestI2C_testRoundTripC1Ev,_ZN21TestI2C_testRoundTripC2Ev
 728              		.globl	testI2C_testRoundTripInstance
 729              		.bss
 730 0039 00000000 		.align 32
 730      000000
 733              	testI2C_testRoundTripInstance:
 734 0040 00000000 		.zero	56
 734      00000000 
 734      00000000 
 734      00000000 
 734      00000000 
 735              		.globl	adderI2C_testRoundTrip
 738              	adderI2C_testRoundTrip:
 739 0078 00       		.zero	1
 740              		.section	.rodata
 741 0185 000000   		.align 8
 742              	.LC9:
 743 0188 556E6861 		.string	"Unhandled exception in CHECK_ARRAY_EQUAL(expected, dstData.data)"
 743      6E646C65 
 743      64206578 
 743      63657074 
 743      696F6E20 
 744              		.text
 745 03ff 90       		.align 2
 746              		.globl	_ZNK21TestI2C_testRoundTrip7RunImplEv
 748              	_ZNK21TestI2C_testRoundTrip7RunImplEv:
 749              	.LFB1076:
 750              		.loc 3 47 0
 751              		.cfi_startproc
 752              		.cfi_personality 0x3,__gxx_personality_v0
 753              		.cfi_lsda 0x3,.LLSDA1076
 754 0400 55       		pushq	%rbp
 755              		.cfi_def_cfa_offset 16
 756              		.cfi_offset 6, -16
 757 0401 4889E5   		movq	%rsp, %rbp
 758              		.cfi_def_cfa_register 6
 759 0404 53       		pushq	%rbx
 760 0405 4881EC38 		subq	$312, %rsp
 760      010000
 761              		.cfi_offset 3, -24
 762 040c 4889BDC8 		movq	%rdi, -312(%rbp)
 762      FEFFFF
 763              		.loc 3 47 0
 764 0413 64488B04 		movq	%fs:40, %rax
 764      25280000 
 764      00
 765 041c 488945E8 		movq	%rax, -24(%rbp)
 766 0420 31C0     		xorl	%eax, %eax
 767              	.LBB8:
  48:testI2C.cpp   **** 	uint32 i, j;
  49:testI2C.cpp   **** 	Buffer i2cBuffer, srcData, srcMask, dstData, dstMask;
  50:testI2C.cpp   **** 	BufferStatus bStatus;
  51:testI2C.cpp   **** 	I2CStatus iStatus;
  52:testI2C.cpp   **** 	const uint8 data[] = {0xE1, 0xE2, 0xE3, 0xE4, 0xE5, 0xE6, 0xE7, 0xE8, 0xE9, 0xEA, 0xEB, 0xEC, 0xED
 768              		.loc 3 52 0
 769 0422 C645B0E1 		movb	$-31, -80(%rbp)
 770 0426 C645B1E2 		movb	$-30, -79(%rbp)
 771 042a C645B2E3 		movb	$-29, -78(%rbp)
 772 042e C645B3E4 		movb	$-28, -77(%rbp)
 773 0432 C645B4E5 		movb	$-27, -76(%rbp)
 774 0436 C645B5E6 		movb	$-26, -75(%rbp)
 775 043a C645B6E7 		movb	$-25, -74(%rbp)
 776 043e C645B7E8 		movb	$-24, -73(%rbp)
 777 0442 C645B8E9 		movb	$-23, -72(%rbp)
 778 0446 C645B9EA 		movb	$-22, -71(%rbp)
 779 044a C645BAEB 		movb	$-21, -70(%rbp)
 780 044e C645BBEC 		movb	$-20, -69(%rbp)
 781 0452 C645BCED 		movb	$-19, -68(%rbp)
 782 0456 C645BDEE 		movb	$-18, -67(%rbp)
 783 045a C645BEEF 		movb	$-17, -66(%rbp)
 784 045e C645BFF0 		movb	$-16, -65(%rbp)
  53:testI2C.cpp   **** 	uint8 mask[16];
  54:testI2C.cpp   **** 	uint8 expected[16];
  55:testI2C.cpp   **** 	for ( i = 0; i < 65536; i++ ) {   // all possible 16-bit mask patterns
 785              		.loc 3 55 0
 786 0462 C785E8FE 		movl	$0, -280(%rbp)
 786      FFFF0000 
 786      0000
 787 046c E9680500 		jmp	.L40
 787      00
 788              	.L45:
  56:testI2C.cpp   **** 		for ( j = 0; j < 16; j++ ) {
 789              		.loc 3 56 0
 790 0471 C785ECFE 		movl	$0, -276(%rbp)
 790      FFFF0000 
 790      0000
 791 047b EB5A     		jmp	.L41
 792              	.L44:
  57:testI2C.cpp   **** 			if ( i & (1<<j) ) {
 793              		.loc 3 57 0
 794 047d 8B85ECFE 		movl	-276(%rbp), %eax
 794      FFFF
 795 0483 BA010000 		movl	$1, %edx
 795      00
 796 0488 89C1     		movl	%eax, %ecx
 797 048a D3E2     		sall	%cl, %edx
 798 048c 89D0     		movl	%edx, %eax
 799 048e 2385E8FE 		andl	-280(%rbp), %eax
 799      FFFF
 800 0494 85C0     		testl	%eax, %eax
 801 0496 7422     		je	.L42
  58:testI2C.cpp   **** 				mask[j] = 0x01;
 802              		.loc 3 58 0
 803 0498 8B85ECFE 		movl	-276(%rbp), %eax
 803      FFFF
 804 049e C64405C0 		movb	$1, -64(%rbp,%rax)
 804      01
  59:testI2C.cpp   **** 				expected[j] = data[j];
 805              		.loc 3 59 0
 806 04a3 8B85ECFE 		movl	-276(%rbp), %eax
 806      FFFF
 807 04a9 0FB65405 		movzbl	-80(%rbp,%rax), %edx
 807      B0
 808 04ae 8B85ECFE 		movl	-276(%rbp), %eax
 808      FFFF
 809 04b4 885405D0 		movb	%dl, -48(%rbp,%rax)
 810 04b8 EB16     		jmp	.L43
 811              	.L42:
  60:testI2C.cpp   **** 			} else {
  61:testI2C.cpp   **** 				mask[j] = 0x00;
 812              		.loc 3 61 0
 813 04ba 8B85ECFE 		movl	-276(%rbp), %eax
 813      FFFF
 814 04c0 C64405C0 		movb	$0, -64(%rbp,%rax)
 814      00
  62:testI2C.cpp   **** 				expected[j] = 0x00;
 815              		.loc 3 62 0
 816 04c5 8B85ECFE 		movl	-276(%rbp), %eax
 816      FFFF
 817 04cb C64405D0 		movb	$0, -48(%rbp,%rax)
 817      00
 818              	.L43:
  56:testI2C.cpp   **** 			if ( i & (1<<j) ) {
 819              		.loc 3 56 0 discriminator 2
 820 04d0 8385ECFE 		addl	$1, -276(%rbp)
 820      FFFF01
 821              	.L41:
  56:testI2C.cpp   **** 			if ( i & (1<<j) ) {
 822              		.loc 3 56 0 is_stmt 0 discriminator 1
 823 04d7 83BDECFE 		cmpl	$15, -276(%rbp)
 823      FFFF0F
 824 04de 769D     		jbe	.L44
  63:testI2C.cpp   **** 			}
  64:testI2C.cpp   **** 		}
  65:testI2C.cpp   **** 		bStatus = bufInitialise(&i2cBuffer, 1024, 0x00, NULL);
 825              		.loc 3 65 0 is_stmt 1
 826 04e0 488D85F0 		leaq	-272(%rbp), %rax
 826      FEFFFF
 827 04e7 B9000000 		movl	$0, %ecx
 827      00
 828 04ec BA000000 		movl	$0, %edx
 828      00
 829 04f1 BE000400 		movl	$1024, %esi
 829      00
 830 04f6 4889C7   		movq	%rax, %rdi
 831              	.LEHB27:
 832 04f9 E8000000 		call	bufInitialise
 832      00
 833              	.LEHE27:
 834 04fe 8985DCFE 		movl	%eax, -292(%rbp)
 834      FFFF
 835              	.LEHB28:
  66:testI2C.cpp   **** 		CHECK_EQUAL(BUF_SUCCESS, bStatus);
 836              		.loc 3 66 0
 837 0504 E8000000 		call	_ZN8UnitTest11CurrentTest7DetailsEv
 837      00
 838 0509 488B08   		movq	(%rax), %rcx
 839 050c 488D4590 		leaq	-112(%rbp), %rax
 840 0510 BA420000 		movl	$66, %edx
 840      00
 841 0515 4889CE   		movq	%rcx, %rsi
 842 0518 4889C7   		movq	%rax, %rdi
 843 051b E8000000 		call	_ZN8UnitTest11TestDetailsC1ERKS0_i
 843      00
 844              		.loc 3 66 0 is_stmt 0 discriminator 2
 845 0520 C785E4FE 		movl	$0, -284(%rbp)
 845      FFFF0000 
 845      0000
 846 052a E8000000 		call	_ZN8UnitTest11CurrentTest7ResultsEv
 846      00
 847 052f 488B00   		movq	(%rax), %rax
 848 0532 488D4D90 		leaq	-112(%rbp), %rcx
 849 0536 488D95DC 		leaq	-292(%rbp), %rdx
 849      FEFFFF
 850 053d 488DB5E4 		leaq	-284(%rbp), %rsi
 850      FEFFFF
 851 0544 4889C7   		movq	%rax, %rdi
 852 0547 E8000000 		call	_ZN8UnitTest10CheckEqualI12BufferStatusS1_EEvRNS_11TestResultsERKT_RKT0_RKNS_11TestDetailsE
 852      00
 853              	.LEHE28:
 854              	.L48:
  67:testI2C.cpp   **** 		i2cInitialise(&i2cBuffer, VID, PID, DID, CONFIG_BYTE_400KHZ);
 855              		.loc 3 67 0 is_stmt 1
 856 054c 488D85F0 		leaq	-272(%rbp), %rax
 856      FEFFFF
 857 0553 41B80100 		movl	$1, %r8d
 857      0000
 858 0559 B9000000 		movl	$0, %ecx
 858      00
 859 055e BA138600 		movl	$34323, %edx
 859      00
 860 0563 BEB40400 		movl	$1204, %esi
 860      00
 861 0568 4889C7   		movq	%rax, %rdi
 862              	.LEHB29:
 863 056b E8000000 		call	i2cInitialise
 863      00
  68:testI2C.cpp   **** 		bStatus = bufInitialise(&srcData, 16, 0x00, NULL);
 864              		.loc 3 68 0
 865 0570 488D8510 		leaq	-240(%rbp), %rax
 865      FFFFFF
 866 0577 B9000000 		movl	$0, %ecx
 866      00
 867 057c BA000000 		movl	$0, %edx
 867      00
 868 0581 BE100000 		movl	$16, %esi
 868      00
 869 0586 4889C7   		movq	%rax, %rdi
 870 0589 E8000000 		call	bufInitialise
 870      00
 871              	.LEHE29:
 872 058e 8985DCFE 		movl	%eax, -292(%rbp)
 872      FFFF
 873              	.LEHB30:
  69:testI2C.cpp   **** 		CHECK_EQUAL(BUF_SUCCESS, bStatus);
 874              		.loc 3 69 0
 875 0594 E8000000 		call	_ZN8UnitTest11CurrentTest7DetailsEv
 875      00
 876 0599 488B08   		movq	(%rax), %rcx
 877 059c 488D4590 		leaq	-112(%rbp), %rax
 878 05a0 BA450000 		movl	$69, %edx
 878      00
 879 05a5 4889CE   		movq	%rcx, %rsi
 880 05a8 4889C7   		movq	%rax, %rdi
 881 05ab E8000000 		call	_ZN8UnitTest11TestDetailsC1ERKS0_i
 881      00
 882              		.loc 3 69 0 is_stmt 0 discriminator 2
 883 05b0 C785E4FE 		movl	$0, -284(%rbp)
 883      FFFF0000 
 883      0000
 884 05ba E8000000 		call	_ZN8UnitTest11CurrentTest7ResultsEv
 884      00
 885 05bf 488B00   		movq	(%rax), %rax
 886 05c2 488D4D90 		leaq	-112(%rbp), %rcx
 887 05c6 488D95DC 		leaq	-292(%rbp), %rdx
 887      FEFFFF
 888 05cd 488DB5E4 		leaq	-284(%rbp), %rsi
 888      FEFFFF
 889 05d4 4889C7   		movq	%rax, %rdi
 890 05d7 E8000000 		call	_ZN8UnitTest10CheckEqualI12BufferStatusS1_EEvRNS_11TestResultsERKT_RKT0_RKNS_11TestDetailsE
 890      00
 891              	.LEHE30:
 892              	.L51:
  70:testI2C.cpp   **** 		bStatus = bufInitialise(&dstData, 16, 0x00, NULL);
 893              		.loc 3 70 0 is_stmt 1
 894 05dc 488D8550 		leaq	-176(%rbp), %rax
 894      FFFFFF
 895 05e3 B9000000 		movl	$0, %ecx
 895      00
 896 05e8 BA000000 		movl	$0, %edx
 896      00
 897 05ed BE100000 		movl	$16, %esi
 897      00
 898 05f2 4889C7   		movq	%rax, %rdi
 899              	.LEHB31:
 900 05f5 E8000000 		call	bufInitialise
 900      00
 901              	.LEHE31:
 902 05fa 8985DCFE 		movl	%eax, -292(%rbp)
 902      FFFF
 903              	.LEHB32:
  71:testI2C.cpp   **** 		CHECK_EQUAL(BUF_SUCCESS, bStatus);
 904              		.loc 3 71 0
 905 0600 E8000000 		call	_ZN8UnitTest11CurrentTest7DetailsEv
 905      00
 906 0605 488B08   		movq	(%rax), %rcx
 907 0608 488D4590 		leaq	-112(%rbp), %rax
 908 060c BA470000 		movl	$71, %edx
 908      00
 909 0611 4889CE   		movq	%rcx, %rsi
 910 0614 4889C7   		movq	%rax, %rdi
 911 0617 E8000000 		call	_ZN8UnitTest11TestDetailsC1ERKS0_i
 911      00
 912              		.loc 3 71 0 is_stmt 0 discriminator 2
 913 061c C785E4FE 		movl	$0, -284(%rbp)
 913      FFFF0000 
 913      0000
 914 0626 E8000000 		call	_ZN8UnitTest11CurrentTest7ResultsEv
 914      00
 915 062b 488B00   		movq	(%rax), %rax
 916 062e 488D4D90 		leaq	-112(%rbp), %rcx
 917 0632 488D95DC 		leaq	-292(%rbp), %rdx
 917      FEFFFF
 918 0639 488DB5E4 		leaq	-284(%rbp), %rsi
 918      FEFFFF
 919 0640 4889C7   		movq	%rax, %rdi
 920 0643 E8000000 		call	_ZN8UnitTest10CheckEqualI12BufferStatusS1_EEvRNS_11TestResultsERKT_RKT0_RKNS_11TestDetailsE
 920      00
 921              	.LEHE32:
 922              	.L54:
  72:testI2C.cpp   **** 		bStatus = bufInitialise(&srcMask, 16, 0x00, NULL);
 923              		.loc 3 72 0 is_stmt 1
 924 0648 488D8530 		leaq	-208(%rbp), %rax
 924      FFFFFF
 925 064f B9000000 		movl	$0, %ecx
 925      00
 926 0654 BA000000 		movl	$0, %edx
 926      00
 927 0659 BE100000 		movl	$16, %esi
 927      00
 928 065e 4889C7   		movq	%rax, %rdi
 929              	.LEHB33:
 930 0661 E8000000 		call	bufInitialise
 930      00
 931              	.LEHE33:
 932 0666 8985DCFE 		movl	%eax, -292(%rbp)
 932      FFFF
 933              	.LEHB34:
  73:testI2C.cpp   **** 		CHECK_EQUAL(BUF_SUCCESS, bStatus);
 934              		.loc 3 73 0
 935 066c E8000000 		call	_ZN8UnitTest11CurrentTest7DetailsEv
 935      00
 936 0671 488B08   		movq	(%rax), %rcx
 937 0674 488D4590 		leaq	-112(%rbp), %rax
 938 0678 BA490000 		movl	$73, %edx
 938      00
 939 067d 4889CE   		movq	%rcx, %rsi
 940 0680 4889C7   		movq	%rax, %rdi
 941 0683 E8000000 		call	_ZN8UnitTest11TestDetailsC1ERKS0_i
 941      00
 942              		.loc 3 73 0 is_stmt 0 discriminator 2
 943 0688 C785E4FE 		movl	$0, -284(%rbp)
 943      FFFF0000 
 943      0000
 944 0692 E8000000 		call	_ZN8UnitTest11CurrentTest7ResultsEv
 944      00
 945 0697 488B00   		movq	(%rax), %rax
 946 069a 488D4D90 		leaq	-112(%rbp), %rcx
 947 069e 488D95DC 		leaq	-292(%rbp), %rdx
 947      FEFFFF
 948 06a5 488DB5E4 		leaq	-284(%rbp), %rsi
 948      FEFFFF
 949 06ac 4889C7   		movq	%rax, %rdi
 950 06af E8000000 		call	_ZN8UnitTest10CheckEqualI12BufferStatusS1_EEvRNS_11TestResultsERKT_RKT0_RKNS_11TestDetailsE
 950      00
 951              	.LEHE34:
 952              	.L57:
  74:testI2C.cpp   **** 		bStatus = bufInitialise(&dstMask, 16, 0x00, NULL);
 953              		.loc 3 74 0 is_stmt 1
 954 06b4 488D8570 		leaq	-144(%rbp), %rax
 954      FFFFFF
 955 06bb B9000000 		movl	$0, %ecx
 955      00
 956 06c0 BA000000 		movl	$0, %edx
 956      00
 957 06c5 BE100000 		movl	$16, %esi
 957      00
 958 06ca 4889C7   		movq	%rax, %rdi
 959              	.LEHB35:
 960 06cd E8000000 		call	bufInitialise
 960      00
 961              	.LEHE35:
 962 06d2 8985DCFE 		movl	%eax, -292(%rbp)
 962      FFFF
 963              	.LEHB36:
  75:testI2C.cpp   **** 		CHECK_EQUAL(BUF_SUCCESS, bStatus);
 964              		.loc 3 75 0
 965 06d8 E8000000 		call	_ZN8UnitTest11CurrentTest7DetailsEv
 965      00
 966 06dd 488B08   		movq	(%rax), %rcx
 967 06e0 488D4590 		leaq	-112(%rbp), %rax
 968 06e4 BA4B0000 		movl	$75, %edx
 968      00
 969 06e9 4889CE   		movq	%rcx, %rsi
 970 06ec 4889C7   		movq	%rax, %rdi
 971 06ef E8000000 		call	_ZN8UnitTest11TestDetailsC1ERKS0_i
 971      00
 972              		.loc 3 75 0 is_stmt 0 discriminator 2
 973 06f4 C785E4FE 		movl	$0, -284(%rbp)
 973      FFFF0000 
 973      0000
 974 06fe E8000000 		call	_ZN8UnitTest11CurrentTest7ResultsEv
 974      00
 975 0703 488B00   		movq	(%rax), %rax
 976 0706 488D4D90 		leaq	-112(%rbp), %rcx
 977 070a 488D95DC 		leaq	-292(%rbp), %rdx
 977      FEFFFF
 978 0711 488DB5E4 		leaq	-284(%rbp), %rsi
 978      FEFFFF
 979 0718 4889C7   		movq	%rax, %rdi
 980 071b E8000000 		call	_ZN8UnitTest10CheckEqualI12BufferStatusS1_EEvRNS_11TestResultsERKT_RKT0_RKNS_11TestDetailsE
 980      00
 981              	.LEHE36:
 982              	.L60:
  76:testI2C.cpp   **** 		bStatus = bufWriteBlock(&srcData, 0x00000000, expected, 16, NULL);
 983              		.loc 3 76 0 is_stmt 1
 984 0720 488D55D0 		leaq	-48(%rbp), %rdx
 985 0724 488D8510 		leaq	-240(%rbp), %rax
 985      FFFFFF
 986 072b 41B80000 		movl	$0, %r8d
 986      0000
 987 0731 B9100000 		movl	$16, %ecx
 987      00
 988 0736 BE000000 		movl	$0, %esi
 988      00
 989 073b 4889C7   		movq	%rax, %rdi
 990              	.LEHB37:
 991 073e E8000000 		call	bufWriteBlock
 991      00
 992              	.LEHE37:
 993 0743 8985DCFE 		movl	%eax, -292(%rbp)
 993      FFFF
 994              	.LEHB38:
  77:testI2C.cpp   **** 		CHECK_EQUAL(BUF_SUCCESS, bStatus);
 995              		.loc 3 77 0
 996 0749 E8000000 		call	_ZN8UnitTest11CurrentTest7DetailsEv
 996      00
 997 074e 488B08   		movq	(%rax), %rcx
 998 0751 488D4590 		leaq	-112(%rbp), %rax
 999 0755 BA4D0000 		movl	$77, %edx
 999      00
 1000 075a 4889CE   		movq	%rcx, %rsi
 1001 075d 4889C7   		movq	%rax, %rdi
 1002 0760 E8000000 		call	_ZN8UnitTest11TestDetailsC1ERKS0_i
 1002      00
 1003              		.loc 3 77 0 is_stmt 0 discriminator 2
 1004 0765 C785E4FE 		movl	$0, -284(%rbp)
 1004      FFFF0000 
 1004      0000
 1005 076f E8000000 		call	_ZN8UnitTest11CurrentTest7ResultsEv
 1005      00
 1006 0774 488B00   		movq	(%rax), %rax
 1007 0777 488D4D90 		leaq	-112(%rbp), %rcx
 1008 077b 488D95DC 		leaq	-292(%rbp), %rdx
 1008      FEFFFF
 1009 0782 488DB5E4 		leaq	-284(%rbp), %rsi
 1009      FEFFFF
 1010 0789 4889C7   		movq	%rax, %rdi
 1011 078c E8000000 		call	_ZN8UnitTest10CheckEqualI12BufferStatusS1_EEvRNS_11TestResultsERKT_RKT0_RKNS_11TestDetailsE
 1011      00
 1012              	.LEHE38:
 1013              	.L63:
  78:testI2C.cpp   **** 		bStatus = bufWriteBlock(&srcMask, 0x00000000, mask, 16, NULL);
 1014              		.loc 3 78 0 is_stmt 1
 1015 0791 488D55C0 		leaq	-64(%rbp), %rdx
 1016 0795 488D8530 		leaq	-208(%rbp), %rax
 1016      FFFFFF
 1017 079c 41B80000 		movl	$0, %r8d
 1017      0000
 1018 07a2 B9100000 		movl	$16, %ecx
 1018      00
 1019 07a7 BE000000 		movl	$0, %esi
 1019      00
 1020 07ac 4889C7   		movq	%rax, %rdi
 1021              	.LEHB39:
 1022 07af E8000000 		call	bufWriteBlock
 1022      00
 1023              	.LEHE39:
 1024 07b4 8985DCFE 		movl	%eax, -292(%rbp)
 1024      FFFF
 1025              	.LEHB40:
  79:testI2C.cpp   **** 		CHECK_EQUAL(BUF_SUCCESS, bStatus);
 1026              		.loc 3 79 0
 1027 07ba E8000000 		call	_ZN8UnitTest11CurrentTest7DetailsEv
 1027      00
 1028 07bf 488B08   		movq	(%rax), %rcx
 1029 07c2 488D4590 		leaq	-112(%rbp), %rax
 1030 07c6 BA4F0000 		movl	$79, %edx
 1030      00
 1031 07cb 4889CE   		movq	%rcx, %rsi
 1032 07ce 4889C7   		movq	%rax, %rdi
 1033 07d1 E8000000 		call	_ZN8UnitTest11TestDetailsC1ERKS0_i
 1033      00
 1034              		.loc 3 79 0 is_stmt 0 discriminator 2
 1035 07d6 C785E4FE 		movl	$0, -284(%rbp)
 1035      FFFF0000 
 1035      0000
 1036 07e0 E8000000 		call	_ZN8UnitTest11CurrentTest7ResultsEv
 1036      00
 1037 07e5 488B00   		movq	(%rax), %rax
 1038 07e8 488D4D90 		leaq	-112(%rbp), %rcx
 1039 07ec 488D95DC 		leaq	-292(%rbp), %rdx
 1039      FEFFFF
 1040 07f3 488DB5E4 		leaq	-284(%rbp), %rsi
 1040      FEFFFF
 1041 07fa 4889C7   		movq	%rax, %rdi
 1042 07fd E8000000 		call	_ZN8UnitTest10CheckEqualI12BufferStatusS1_EEvRNS_11TestResultsERKT_RKT0_RKNS_11TestDetailsE
 1042      00
 1043              	.LEHE40:
 1044              	.L66:
  80:testI2C.cpp   **** 		iStatus = i2cWritePromRecords(&i2cBuffer, &srcData, &srcMask, NULL);
 1045              		.loc 3 80 0 is_stmt 1
 1046 0802 488D9530 		leaq	-208(%rbp), %rdx
 1046      FFFFFF
 1047 0809 488DB510 		leaq	-240(%rbp), %rsi
 1047      FFFFFF
 1048 0810 488D85F0 		leaq	-272(%rbp), %rax
 1048      FEFFFF
 1049 0817 B9000000 		movl	$0, %ecx
 1049      00
 1050 081c 4889C7   		movq	%rax, %rdi
 1051              	.LEHB41:
 1052 081f E8000000 		call	i2cWritePromRecords
 1052      00
 1053              	.LEHE41:
 1054 0824 8985E0FE 		movl	%eax, -288(%rbp)
 1054      FFFF
 1055              	.LEHB42:
  81:testI2C.cpp   **** 		CHECK_EQUAL(I2C_SUCCESS, iStatus);
 1056              		.loc 3 81 0
 1057 082a E8000000 		call	_ZN8UnitTest11CurrentTest7DetailsEv
 1057      00
 1058 082f 488B08   		movq	(%rax), %rcx
 1059 0832 488D4590 		leaq	-112(%rbp), %rax
 1060 0836 BA510000 		movl	$81, %edx
 1060      00
 1061 083b 4889CE   		movq	%rcx, %rsi
 1062 083e 4889C7   		movq	%rax, %rdi
 1063 0841 E8000000 		call	_ZN8UnitTest11TestDetailsC1ERKS0_i
 1063      00
 1064              		.loc 3 81 0 is_stmt 0 discriminator 2
 1065 0846 C785E4FE 		movl	$0, -284(%rbp)
 1065      FFFF0000 
 1065      0000
 1066 0850 E8000000 		call	_ZN8UnitTest11CurrentTest7ResultsEv
 1066      00
 1067 0855 488B00   		movq	(%rax), %rax
 1068 0858 488D4D90 		leaq	-112(%rbp), %rcx
 1069 085c 488D95E0 		leaq	-288(%rbp), %rdx
 1069      FEFFFF
 1070 0863 488DB5E4 		leaq	-284(%rbp), %rsi
 1070      FEFFFF
 1071 086a 4889C7   		movq	%rax, %rdi
 1072 086d E8000000 		call	_ZN8UnitTest10CheckEqualI9I2CStatusS1_EEvRNS_11TestResultsERKT_RKT0_RKNS_11TestDetailsE
 1072      00
 1073              	.LEHE42:
 1074              	.L69:
  82:testI2C.cpp   **** 		iStatus = i2cFinalise(&i2cBuffer, NULL);
 1075              		.loc 3 82 0 is_stmt 1
 1076 0872 488D85F0 		leaq	-272(%rbp), %rax
 1076      FEFFFF
 1077 0879 BE000000 		movl	$0, %esi
 1077      00
 1078 087e 4889C7   		movq	%rax, %rdi
 1079              	.LEHB43:
 1080 0881 E8000000 		call	i2cFinalise
 1080      00
 1081              	.LEHE43:
 1082 0886 8985E0FE 		movl	%eax, -288(%rbp)
 1082      FFFF
 1083              	.LEHB44:
  83:testI2C.cpp   **** 		CHECK_EQUAL(I2C_SUCCESS, iStatus);
 1084              		.loc 3 83 0
 1085 088c E8000000 		call	_ZN8UnitTest11CurrentTest7DetailsEv
 1085      00
 1086 0891 488B08   		movq	(%rax), %rcx
 1087 0894 488D4590 		leaq	-112(%rbp), %rax
 1088 0898 BA530000 		movl	$83, %edx
 1088      00
 1089 089d 4889CE   		movq	%rcx, %rsi
 1090 08a0 4889C7   		movq	%rax, %rdi
 1091 08a3 E8000000 		call	_ZN8UnitTest11TestDetailsC1ERKS0_i
 1091      00
 1092              		.loc 3 83 0 is_stmt 0 discriminator 2
 1093 08a8 C785E4FE 		movl	$0, -284(%rbp)
 1093      FFFF0000 
 1093      0000
 1094 08b2 E8000000 		call	_ZN8UnitTest11CurrentTest7ResultsEv
 1094      00
 1095 08b7 488B00   		movq	(%rax), %rax
 1096 08ba 488D4D90 		leaq	-112(%rbp), %rcx
 1097 08be 488D95E0 		leaq	-288(%rbp), %rdx
 1097      FEFFFF
 1098 08c5 488DB5E4 		leaq	-284(%rbp), %rsi
 1098      FEFFFF
 1099 08cc 4889C7   		movq	%rax, %rdi
 1100 08cf E8000000 		call	_ZN8UnitTest10CheckEqualI9I2CStatusS1_EEvRNS_11TestResultsERKT_RKT0_RKNS_11TestDetailsE
 1100      00
 1101              	.LEHE44:
 1102              	.L72:
  84:testI2C.cpp   **** 		iStatus = i2cReadPromRecords(&dstData, &dstMask, &i2cBuffer, NULL);
 1103              		.loc 3 84 0 is_stmt 1
 1104 08d4 488D95F0 		leaq	-272(%rbp), %rdx
 1104      FEFFFF
 1105 08db 488DB570 		leaq	-144(%rbp), %rsi
 1105      FFFFFF
 1106 08e2 488D8550 		leaq	-176(%rbp), %rax
 1106      FFFFFF
 1107 08e9 B9000000 		movl	$0, %ecx
 1107      00
 1108 08ee 4889C7   		movq	%rax, %rdi
 1109              	.LEHB45:
 1110 08f1 E8000000 		call	i2cReadPromRecords
 1110      00
 1111              	.LEHE45:
 1112 08f6 8985E0FE 		movl	%eax, -288(%rbp)
 1112      FFFF
 1113              	.LEHB46:
  85:testI2C.cpp   **** 		CHECK_EQUAL(I2C_SUCCESS, iStatus);
 1114              		.loc 3 85 0
 1115 08fc E8000000 		call	_ZN8UnitTest11CurrentTest7DetailsEv
 1115      00
 1116 0901 488B08   		movq	(%rax), %rcx
 1117 0904 488D4590 		leaq	-112(%rbp), %rax
 1118 0908 BA550000 		movl	$85, %edx
 1118      00
 1119 090d 4889CE   		movq	%rcx, %rsi
 1120 0910 4889C7   		movq	%rax, %rdi
 1121 0913 E8000000 		call	_ZN8UnitTest11TestDetailsC1ERKS0_i
 1121      00
 1122              		.loc 3 85 0 is_stmt 0 discriminator 2
 1123 0918 C785E4FE 		movl	$0, -284(%rbp)
 1123      FFFF0000 
 1123      0000
 1124 0922 E8000000 		call	_ZN8UnitTest11CurrentTest7ResultsEv
 1124      00
 1125 0927 488B00   		movq	(%rax), %rax
 1126 092a 488D4D90 		leaq	-112(%rbp), %rcx
 1127 092e 488D95E0 		leaq	-288(%rbp), %rdx
 1127      FEFFFF
 1128 0935 488DB5E4 		leaq	-284(%rbp), %rsi
 1128      FEFFFF
 1129 093c 4889C7   		movq	%rax, %rdi
 1130 093f E8000000 		call	_ZN8UnitTest10CheckEqualI9I2CStatusS1_EEvRNS_11TestResultsERKT_RKT0_RKNS_11TestDetailsE
 1130      00
 1131              	.LEHE46:
 1132              	.L75:
 1133              	.LEHB47:
  86:testI2C.cpp   **** 		CHECK_ARRAY_EQUAL(expected, dstData.data, 16);
 1134              		.loc 3 86 0 is_stmt 1
 1135 0944 E8000000 		call	_ZN8UnitTest11CurrentTest7DetailsEv
 1135      00
 1136 0949 488B08   		movq	(%rax), %rcx
 1137 094c 488D4590 		leaq	-112(%rbp), %rax
 1138 0950 BA560000 		movl	$86, %edx
 1138      00
 1139 0955 4889CE   		movq	%rcx, %rsi
 1140 0958 4889C7   		movq	%rax, %rdi
 1141 095b E8000000 		call	_ZN8UnitTest11TestDetailsC1ERKS0_i
 1141      00
 1142              		.loc 3 86 0 is_stmt 0 discriminator 2
 1143 0960 E8000000 		call	_ZN8UnitTest11CurrentTest7ResultsEv
 1143      00
 1144 0965 488B00   		movq	(%rax), %rax
 1145 0968 488D4D90 		leaq	-112(%rbp), %rcx
 1146 096c 488D9550 		leaq	-176(%rbp), %rdx
 1146      FFFFFF
 1147 0973 488D75D0 		leaq	-48(%rbp), %rsi
 1148 0977 4989C8   		movq	%rcx, %r8
 1149 097a B9100000 		movl	$16, %ecx
 1149      00
 1150 097f 4889C7   		movq	%rax, %rdi
 1151 0982 E8000000 		call	_ZN8UnitTest15CheckArrayEqualIA16_hPhEEvRNS_11TestResultsERKT_RKT0_iRKNS_11TestDetailsE
 1151      00
 1152              	.LEHE47:
 1153              	.L78:
  87:testI2C.cpp   **** 		bufDestroy(&dstMask);
 1154              		.loc 3 87 0 is_stmt 1
 1155 0987 488D8570 		leaq	-144(%rbp), %rax
 1155      FFFFFF
 1156 098e 4889C7   		movq	%rax, %rdi
 1157              	.LEHB48:
 1158 0991 E8000000 		call	bufDestroy
 1158      00
  88:testI2C.cpp   **** 		bufDestroy(&srcMask);
 1159              		.loc 3 88 0
 1160 0996 488D8530 		leaq	-208(%rbp), %rax
 1160      FFFFFF
 1161 099d 4889C7   		movq	%rax, %rdi
 1162 09a0 E8000000 		call	bufDestroy
 1162      00
  89:testI2C.cpp   **** 		bufDestroy(&dstData);
 1163              		.loc 3 89 0
 1164 09a5 488D8550 		leaq	-176(%rbp), %rax
 1164      FFFFFF
 1165 09ac 4889C7   		movq	%rax, %rdi
 1166 09af E8000000 		call	bufDestroy
 1166      00
  90:testI2C.cpp   **** 		bufDestroy(&srcData);
 1167              		.loc 3 90 0
 1168 09b4 488D8510 		leaq	-240(%rbp), %rax
 1168      FFFFFF
 1169 09bb 4889C7   		movq	%rax, %rdi
 1170 09be E8000000 		call	bufDestroy
 1170      00
  91:testI2C.cpp   **** 		bufDestroy(&i2cBuffer);
 1171              		.loc 3 91 0
 1172 09c3 488D85F0 		leaq	-272(%rbp), %rax
 1172      FEFFFF
 1173 09ca 4889C7   		movq	%rax, %rdi
 1174 09cd E8000000 		call	bufDestroy
 1174      00
 1175              	.LEHE48:
  55:testI2C.cpp   **** 		for ( j = 0; j < 16; j++ ) {
 1176              		.loc 3 55 0
 1177 09d2 8385E8FE 		addl	$1, -280(%rbp)
 1177      FFFF01
 1178              	.L40:
  55:testI2C.cpp   **** 		for ( j = 0; j < 16; j++ ) {
 1179              		.loc 3 55 0 is_stmt 0 discriminator 1
 1180 09d9 81BDE8FE 		cmpl	$65535, -280(%rbp)
 1180      FFFFFFFF 
 1180      0000
 1181 09e3 0F8688FA 		jbe	.L45
 1181      FFFF
 1182              	.LBE8:
  92:testI2C.cpp   **** 	}
  93:testI2C.cpp   **** }
 1183              		.loc 3 93 0 is_stmt 1
 1184 09e9 488B45E8 		movq	-24(%rbp), %rax
 1185 09ed 64483304 		xorq	%fs:40, %rax
 1185      25280000 
 1185      00
 1186 09f6 0F840904 		je	.L79
 1186      0000
 1187 09fc E9FF0300 		jmp	.L102
 1187      00
 1188              	.L81:
 1189 0a01 4889C3   		movq	%rax, %rbx
 1190              	.LBB9:
  66:testI2C.cpp   **** 		i2cInitialise(&i2cBuffer, VID, PID, DID, CONFIG_BYTE_400KHZ);
 1191              		.loc 3 66 0
 1192 0a04 E8000000 		call	__cxa_end_catch
 1192      00
 1193 0a09 4889D8   		movq	%rbx, %rax
 1194 0a0c 4889C7   		movq	%rax, %rdi
 1195              	.LEHB49:
 1196 0a0f E8000000 		call	_Unwind_Resume
 1196      00
 1197              	.LEHE49:
 1198              	.L80:
 1199 0a14 4889C7   		movq	%rax, %rdi
 1200 0a17 E8000000 		call	__cxa_begin_catch
 1200      00
 1201              	.LEHB50:
 1202 0a1c E8000000 		call	_ZN8UnitTest11CurrentTest7DetailsEv
 1202      00
 1203 0a21 488B08   		movq	(%rax), %rcx
 1204 0a24 488D4590 		leaq	-112(%rbp), %rax
 1205 0a28 BA420000 		movl	$66, %edx
 1205      00
 1206 0a2d 4889CE   		movq	%rcx, %rsi
 1207 0a30 4889C7   		movq	%rax, %rdi
 1208 0a33 E8000000 		call	_ZN8UnitTest11TestDetailsC1ERKS0_i
 1208      00
  66:testI2C.cpp   **** 		i2cInitialise(&i2cBuffer, VID, PID, DID, CONFIG_BYTE_400KHZ);
 1209              		.loc 3 66 0 is_stmt 0 discriminator 10
 1210 0a38 E8000000 		call	_ZN8UnitTest11CurrentTest7ResultsEv
 1210      00
 1211 0a3d 488B00   		movq	(%rax), %rax
 1212 0a40 488D4D90 		leaq	-112(%rbp), %rcx
 1213 0a44 BA000000 		movl	$.LC3, %edx
 1213      00
 1214 0a49 4889CE   		movq	%rcx, %rsi
 1215 0a4c 4889C7   		movq	%rax, %rdi
 1216 0a4f E8000000 		call	_ZN8UnitTest11TestResults13OnTestFailureERKNS_11TestDetailsEPKc
 1216      00
 1217              	.LEHE50:
 1218              	.LEHB51:
  66:testI2C.cpp   **** 		i2cInitialise(&i2cBuffer, VID, PID, DID, CONFIG_BYTE_400KHZ);
 1219              		.loc 3 66 0 discriminator 14
 1220 0a54 E8000000 		call	__cxa_end_catch
 1220      00
 1221              	.LEHE51:
 1222 0a59 E9EEFAFF 		jmp	.L48
 1222      FF
 1223              	.L83:
 1224 0a5e 4889C3   		movq	%rax, %rbx
  69:testI2C.cpp   **** 		bStatus = bufInitialise(&dstData, 16, 0x00, NULL);
 1225              		.loc 3 69 0 is_stmt 1
 1226 0a61 E8000000 		call	__cxa_end_catch
 1226      00
 1227 0a66 4889D8   		movq	%rbx, %rax
 1228 0a69 4889C7   		movq	%rax, %rdi
 1229              	.LEHB52:
 1230 0a6c E8000000 		call	_Unwind_Resume
 1230      00
 1231              	.LEHE52:
 1232              	.L82:
 1233 0a71 4889C7   		movq	%rax, %rdi
 1234 0a74 E8000000 		call	__cxa_begin_catch
 1234      00
 1235              	.LEHB53:
 1236 0a79 E8000000 		call	_ZN8UnitTest11CurrentTest7DetailsEv
 1236      00
 1237 0a7e 488B08   		movq	(%rax), %rcx
 1238 0a81 488D4590 		leaq	-112(%rbp), %rax
 1239 0a85 BA450000 		movl	$69, %edx
 1239      00
 1240 0a8a 4889CE   		movq	%rcx, %rsi
 1241 0a8d 4889C7   		movq	%rax, %rdi
 1242 0a90 E8000000 		call	_ZN8UnitTest11TestDetailsC1ERKS0_i
 1242      00
  69:testI2C.cpp   **** 		bStatus = bufInitialise(&dstData, 16, 0x00, NULL);
 1243              		.loc 3 69 0 is_stmt 0 discriminator 10
 1244 0a95 E8000000 		call	_ZN8UnitTest11CurrentTest7ResultsEv
 1244      00
 1245 0a9a 488B00   		movq	(%rax), %rax
 1246 0a9d 488D4D90 		leaq	-112(%rbp), %rcx
 1247 0aa1 BA000000 		movl	$.LC3, %edx
 1247      00
 1248 0aa6 4889CE   		movq	%rcx, %rsi
 1249 0aa9 4889C7   		movq	%rax, %rdi
 1250 0aac E8000000 		call	_ZN8UnitTest11TestResults13OnTestFailureERKNS_11TestDetailsEPKc
 1250      00
 1251              	.LEHE53:
 1252              	.LEHB54:
  69:testI2C.cpp   **** 		bStatus = bufInitialise(&dstData, 16, 0x00, NULL);
 1253              		.loc 3 69 0 discriminator 14
 1254 0ab1 E8000000 		call	__cxa_end_catch
 1254      00
 1255              	.LEHE54:
 1256 0ab6 E921FBFF 		jmp	.L51
 1256      FF
 1257              	.L85:
 1258 0abb 4889C3   		movq	%rax, %rbx
  71:testI2C.cpp   **** 		bStatus = bufInitialise(&srcMask, 16, 0x00, NULL);
 1259              		.loc 3 71 0 is_stmt 1
 1260 0abe E8000000 		call	__cxa_end_catch
 1260      00
 1261 0ac3 4889D8   		movq	%rbx, %rax
 1262 0ac6 4889C7   		movq	%rax, %rdi
 1263              	.LEHB55:
 1264 0ac9 E8000000 		call	_Unwind_Resume
 1264      00
 1265              	.LEHE55:
 1266              	.L84:
 1267 0ace 4889C7   		movq	%rax, %rdi
 1268 0ad1 E8000000 		call	__cxa_begin_catch
 1268      00
 1269              	.LEHB56:
 1270 0ad6 E8000000 		call	_ZN8UnitTest11CurrentTest7DetailsEv
 1270      00
 1271 0adb 488B08   		movq	(%rax), %rcx
 1272 0ade 488D4590 		leaq	-112(%rbp), %rax
 1273 0ae2 BA470000 		movl	$71, %edx
 1273      00
 1274 0ae7 4889CE   		movq	%rcx, %rsi
 1275 0aea 4889C7   		movq	%rax, %rdi
 1276 0aed E8000000 		call	_ZN8UnitTest11TestDetailsC1ERKS0_i
 1276      00
  71:testI2C.cpp   **** 		bStatus = bufInitialise(&srcMask, 16, 0x00, NULL);
 1277              		.loc 3 71 0 is_stmt 0 discriminator 10
 1278 0af2 E8000000 		call	_ZN8UnitTest11CurrentTest7ResultsEv
 1278      00
 1279 0af7 488B00   		movq	(%rax), %rax
 1280 0afa 488D4D90 		leaq	-112(%rbp), %rcx
 1281 0afe BA000000 		movl	$.LC3, %edx
 1281      00
 1282 0b03 4889CE   		movq	%rcx, %rsi
 1283 0b06 4889C7   		movq	%rax, %rdi
 1284 0b09 E8000000 		call	_ZN8UnitTest11TestResults13OnTestFailureERKNS_11TestDetailsEPKc
 1284      00
 1285              	.LEHE56:
 1286              	.LEHB57:
  71:testI2C.cpp   **** 		bStatus = bufInitialise(&srcMask, 16, 0x00, NULL);
 1287              		.loc 3 71 0 discriminator 14
 1288 0b0e E8000000 		call	__cxa_end_catch
 1288      00
 1289              	.LEHE57:
 1290 0b13 E930FBFF 		jmp	.L54
 1290      FF
 1291              	.L87:
 1292 0b18 4889C3   		movq	%rax, %rbx
  73:testI2C.cpp   **** 		bStatus = bufInitialise(&dstMask, 16, 0x00, NULL);
 1293              		.loc 3 73 0 is_stmt 1
 1294 0b1b E8000000 		call	__cxa_end_catch
 1294      00
 1295 0b20 4889D8   		movq	%rbx, %rax
 1296 0b23 4889C7   		movq	%rax, %rdi
 1297              	.LEHB58:
 1298 0b26 E8000000 		call	_Unwind_Resume
 1298      00
 1299              	.LEHE58:
 1300              	.L86:
 1301 0b2b 4889C7   		movq	%rax, %rdi
 1302 0b2e E8000000 		call	__cxa_begin_catch
 1302      00
 1303              	.LEHB59:
 1304 0b33 E8000000 		call	_ZN8UnitTest11CurrentTest7DetailsEv
 1304      00
 1305 0b38 488B08   		movq	(%rax), %rcx
 1306 0b3b 488D4590 		leaq	-112(%rbp), %rax
 1307 0b3f BA490000 		movl	$73, %edx
 1307      00
 1308 0b44 4889CE   		movq	%rcx, %rsi
 1309 0b47 4889C7   		movq	%rax, %rdi
 1310 0b4a E8000000 		call	_ZN8UnitTest11TestDetailsC1ERKS0_i
 1310      00
  73:testI2C.cpp   **** 		bStatus = bufInitialise(&dstMask, 16, 0x00, NULL);
 1311              		.loc 3 73 0 is_stmt 0 discriminator 10
 1312 0b4f E8000000 		call	_ZN8UnitTest11CurrentTest7ResultsEv
 1312      00
 1313 0b54 488B00   		movq	(%rax), %rax
 1314 0b57 488D4D90 		leaq	-112(%rbp), %rcx
 1315 0b5b BA000000 		movl	$.LC3, %edx
 1315      00
 1316 0b60 4889CE   		movq	%rcx, %rsi
 1317 0b63 4889C7   		movq	%rax, %rdi
 1318 0b66 E8000000 		call	_ZN8UnitTest11TestResults13OnTestFailureERKNS_11TestDetailsEPKc
 1318      00
 1319              	.LEHE59:
 1320              	.LEHB60:
  73:testI2C.cpp   **** 		bStatus = bufInitialise(&dstMask, 16, 0x00, NULL);
 1321              		.loc 3 73 0 discriminator 14
 1322 0b6b E8000000 		call	__cxa_end_catch
 1322      00
 1323              	.LEHE60:
 1324 0b70 E93FFBFF 		jmp	.L57
 1324      FF
 1325              	.L89:
 1326 0b75 4889C3   		movq	%rax, %rbx
  75:testI2C.cpp   **** 		bStatus = bufWriteBlock(&srcData, 0x00000000, expected, 16, NULL);
 1327              		.loc 3 75 0 is_stmt 1
 1328 0b78 E8000000 		call	__cxa_end_catch
 1328      00
 1329 0b7d 4889D8   		movq	%rbx, %rax
 1330 0b80 4889C7   		movq	%rax, %rdi
 1331              	.LEHB61:
 1332 0b83 E8000000 		call	_Unwind_Resume
 1332      00
 1333              	.LEHE61:
 1334              	.L88:
 1335 0b88 4889C7   		movq	%rax, %rdi
 1336 0b8b E8000000 		call	__cxa_begin_catch
 1336      00
 1337              	.LEHB62:
 1338 0b90 E8000000 		call	_ZN8UnitTest11CurrentTest7DetailsEv
 1338      00
 1339 0b95 488B08   		movq	(%rax), %rcx
 1340 0b98 488D4590 		leaq	-112(%rbp), %rax
 1341 0b9c BA4B0000 		movl	$75, %edx
 1341      00
 1342 0ba1 4889CE   		movq	%rcx, %rsi
 1343 0ba4 4889C7   		movq	%rax, %rdi
 1344 0ba7 E8000000 		call	_ZN8UnitTest11TestDetailsC1ERKS0_i
 1344      00
  75:testI2C.cpp   **** 		bStatus = bufWriteBlock(&srcData, 0x00000000, expected, 16, NULL);
 1345              		.loc 3 75 0 is_stmt 0 discriminator 10
 1346 0bac E8000000 		call	_ZN8UnitTest11CurrentTest7ResultsEv
 1346      00
 1347 0bb1 488B00   		movq	(%rax), %rax
 1348 0bb4 488D4D90 		leaq	-112(%rbp), %rcx
 1349 0bb8 BA000000 		movl	$.LC3, %edx
 1349      00
 1350 0bbd 4889CE   		movq	%rcx, %rsi
 1351 0bc0 4889C7   		movq	%rax, %rdi
 1352 0bc3 E8000000 		call	_ZN8UnitTest11TestResults13OnTestFailureERKNS_11TestDetailsEPKc
 1352      00
 1353              	.LEHE62:
 1354              	.LEHB63:
  75:testI2C.cpp   **** 		bStatus = bufWriteBlock(&srcData, 0x00000000, expected, 16, NULL);
 1355              		.loc 3 75 0 discriminator 14
 1356 0bc8 E8000000 		call	__cxa_end_catch
 1356      00
 1357              	.LEHE63:
 1358 0bcd E94EFBFF 		jmp	.L60
 1358      FF
 1359              	.L91:
 1360 0bd2 4889C3   		movq	%rax, %rbx
  77:testI2C.cpp   **** 		bStatus = bufWriteBlock(&srcMask, 0x00000000, mask, 16, NULL);
 1361              		.loc 3 77 0 is_stmt 1
 1362 0bd5 E8000000 		call	__cxa_end_catch
 1362      00
 1363 0bda 4889D8   		movq	%rbx, %rax
 1364 0bdd 4889C7   		movq	%rax, %rdi
 1365              	.LEHB64:
 1366 0be0 E8000000 		call	_Unwind_Resume
 1366      00
 1367              	.LEHE64:
 1368              	.L90:
 1369 0be5 4889C7   		movq	%rax, %rdi
 1370 0be8 E8000000 		call	__cxa_begin_catch
 1370      00
 1371              	.LEHB65:
 1372 0bed E8000000 		call	_ZN8UnitTest11CurrentTest7DetailsEv
 1372      00
 1373 0bf2 488B08   		movq	(%rax), %rcx
 1374 0bf5 488D4590 		leaq	-112(%rbp), %rax
 1375 0bf9 BA4D0000 		movl	$77, %edx
 1375      00
 1376 0bfe 4889CE   		movq	%rcx, %rsi
 1377 0c01 4889C7   		movq	%rax, %rdi
 1378 0c04 E8000000 		call	_ZN8UnitTest11TestDetailsC1ERKS0_i
 1378      00
  77:testI2C.cpp   **** 		bStatus = bufWriteBlock(&srcMask, 0x00000000, mask, 16, NULL);
 1379              		.loc 3 77 0 is_stmt 0 discriminator 10
 1380 0c09 E8000000 		call	_ZN8UnitTest11CurrentTest7ResultsEv
 1380      00
 1381 0c0e 488B00   		movq	(%rax), %rax
 1382 0c11 488D4D90 		leaq	-112(%rbp), %rcx
 1383 0c15 BA000000 		movl	$.LC3, %edx
 1383      00
 1384 0c1a 4889CE   		movq	%rcx, %rsi
 1385 0c1d 4889C7   		movq	%rax, %rdi
 1386 0c20 E8000000 		call	_ZN8UnitTest11TestResults13OnTestFailureERKNS_11TestDetailsEPKc
 1386      00
 1387              	.LEHE65:
 1388              	.LEHB66:
  77:testI2C.cpp   **** 		bStatus = bufWriteBlock(&srcMask, 0x00000000, mask, 16, NULL);
 1389              		.loc 3 77 0 discriminator 14
 1390 0c25 E8000000 		call	__cxa_end_catch
 1390      00
 1391              	.LEHE66:
 1392 0c2a E962FBFF 		jmp	.L63
 1392      FF
 1393              	.L93:
 1394 0c2f 4889C3   		movq	%rax, %rbx
  79:testI2C.cpp   **** 		iStatus = i2cWritePromRecords(&i2cBuffer, &srcData, &srcMask, NULL);
 1395              		.loc 3 79 0 is_stmt 1
 1396 0c32 E8000000 		call	__cxa_end_catch
 1396      00
 1397 0c37 4889D8   		movq	%rbx, %rax
 1398 0c3a 4889C7   		movq	%rax, %rdi
 1399              	.LEHB67:
 1400 0c3d E8000000 		call	_Unwind_Resume
 1400      00
 1401              	.LEHE67:
 1402              	.L92:
 1403 0c42 4889C7   		movq	%rax, %rdi
 1404 0c45 E8000000 		call	__cxa_begin_catch
 1404      00
 1405              	.LEHB68:
 1406 0c4a E8000000 		call	_ZN8UnitTest11CurrentTest7DetailsEv
 1406      00
 1407 0c4f 488B08   		movq	(%rax), %rcx
 1408 0c52 488D4590 		leaq	-112(%rbp), %rax
 1409 0c56 BA4F0000 		movl	$79, %edx
 1409      00
 1410 0c5b 4889CE   		movq	%rcx, %rsi
 1411 0c5e 4889C7   		movq	%rax, %rdi
 1412 0c61 E8000000 		call	_ZN8UnitTest11TestDetailsC1ERKS0_i
 1412      00
  79:testI2C.cpp   **** 		iStatus = i2cWritePromRecords(&i2cBuffer, &srcData, &srcMask, NULL);
 1413              		.loc 3 79 0 is_stmt 0 discriminator 10
 1414 0c66 E8000000 		call	_ZN8UnitTest11CurrentTest7ResultsEv
 1414      00
 1415 0c6b 488B00   		movq	(%rax), %rax
 1416 0c6e 488D4D90 		leaq	-112(%rbp), %rcx
 1417 0c72 BA000000 		movl	$.LC3, %edx
 1417      00
 1418 0c77 4889CE   		movq	%rcx, %rsi
 1419 0c7a 4889C7   		movq	%rax, %rdi
 1420 0c7d E8000000 		call	_ZN8UnitTest11TestResults13OnTestFailureERKNS_11TestDetailsEPKc
 1420      00
 1421              	.LEHE68:
 1422              	.LEHB69:
  79:testI2C.cpp   **** 		iStatus = i2cWritePromRecords(&i2cBuffer, &srcData, &srcMask, NULL);
 1423              		.loc 3 79 0 discriminator 14
 1424 0c82 E8000000 		call	__cxa_end_catch
 1424      00
 1425              	.LEHE69:
 1426 0c87 E976FBFF 		jmp	.L66
 1426      FF
 1427              	.L95:
 1428 0c8c 4889C3   		movq	%rax, %rbx
  81:testI2C.cpp   **** 		iStatus = i2cFinalise(&i2cBuffer, NULL);
 1429              		.loc 3 81 0 is_stmt 1
 1430 0c8f E8000000 		call	__cxa_end_catch
 1430      00
 1431 0c94 4889D8   		movq	%rbx, %rax
 1432 0c97 4889C7   		movq	%rax, %rdi
 1433              	.LEHB70:
 1434 0c9a E8000000 		call	_Unwind_Resume
 1434      00
 1435              	.LEHE70:
 1436              	.L94:
 1437 0c9f 4889C7   		movq	%rax, %rdi
 1438 0ca2 E8000000 		call	__cxa_begin_catch
 1438      00
 1439              	.LEHB71:
 1440 0ca7 E8000000 		call	_ZN8UnitTest11CurrentTest7DetailsEv
 1440      00
 1441 0cac 488B08   		movq	(%rax), %rcx
 1442 0caf 488D4590 		leaq	-112(%rbp), %rax
 1443 0cb3 BA510000 		movl	$81, %edx
 1443      00
 1444 0cb8 4889CE   		movq	%rcx, %rsi
 1445 0cbb 4889C7   		movq	%rax, %rdi
 1446 0cbe E8000000 		call	_ZN8UnitTest11TestDetailsC1ERKS0_i
 1446      00
  81:testI2C.cpp   **** 		iStatus = i2cFinalise(&i2cBuffer, NULL);
 1447              		.loc 3 81 0 is_stmt 0 discriminator 10
 1448 0cc3 E8000000 		call	_ZN8UnitTest11CurrentTest7ResultsEv
 1448      00
 1449 0cc8 488B00   		movq	(%rax), %rax
 1450 0ccb 488D4D90 		leaq	-112(%rbp), %rcx
 1451 0ccf BA000000 		movl	$.LC4, %edx
 1451      00
 1452 0cd4 4889CE   		movq	%rcx, %rsi
 1453 0cd7 4889C7   		movq	%rax, %rdi
 1454 0cda E8000000 		call	_ZN8UnitTest11TestResults13OnTestFailureERKNS_11TestDetailsEPKc
 1454      00
 1455              	.LEHE71:
 1456              	.LEHB72:
  81:testI2C.cpp   **** 		iStatus = i2cFinalise(&i2cBuffer, NULL);
 1457              		.loc 3 81 0 discriminator 14
 1458 0cdf E8000000 		call	__cxa_end_catch
 1458      00
 1459              	.LEHE72:
 1460 0ce4 E989FBFF 		jmp	.L69
 1460      FF
 1461              	.L97:
 1462 0ce9 4889C3   		movq	%rax, %rbx
  83:testI2C.cpp   **** 		iStatus = i2cReadPromRecords(&dstData, &dstMask, &i2cBuffer, NULL);
 1463              		.loc 3 83 0 is_stmt 1
 1464 0cec E8000000 		call	__cxa_end_catch
 1464      00
 1465 0cf1 4889D8   		movq	%rbx, %rax
 1466 0cf4 4889C7   		movq	%rax, %rdi
 1467              	.LEHB73:
 1468 0cf7 E8000000 		call	_Unwind_Resume
 1468      00
 1469              	.LEHE73:
 1470              	.L96:
 1471 0cfc 4889C7   		movq	%rax, %rdi
 1472 0cff E8000000 		call	__cxa_begin_catch
 1472      00
 1473              	.LEHB74:
 1474 0d04 E8000000 		call	_ZN8UnitTest11CurrentTest7DetailsEv
 1474      00
 1475 0d09 488B08   		movq	(%rax), %rcx
 1476 0d0c 488D4590 		leaq	-112(%rbp), %rax
 1477 0d10 BA530000 		movl	$83, %edx
 1477      00
 1478 0d15 4889CE   		movq	%rcx, %rsi
 1479 0d18 4889C7   		movq	%rax, %rdi
 1480 0d1b E8000000 		call	_ZN8UnitTest11TestDetailsC1ERKS0_i
 1480      00
  83:testI2C.cpp   **** 		iStatus = i2cReadPromRecords(&dstData, &dstMask, &i2cBuffer, NULL);
 1481              		.loc 3 83 0 is_stmt 0 discriminator 10
 1482 0d20 E8000000 		call	_ZN8UnitTest11CurrentTest7ResultsEv
 1482      00
 1483 0d25 488B00   		movq	(%rax), %rax
 1484 0d28 488D4D90 		leaq	-112(%rbp), %rcx
 1485 0d2c BA000000 		movl	$.LC4, %edx
 1485      00
 1486 0d31 4889CE   		movq	%rcx, %rsi
 1487 0d34 4889C7   		movq	%rax, %rdi
 1488 0d37 E8000000 		call	_ZN8UnitTest11TestResults13OnTestFailureERKNS_11TestDetailsEPKc
 1488      00
 1489              	.LEHE74:
 1490              	.LEHB75:
  83:testI2C.cpp   **** 		iStatus = i2cReadPromRecords(&dstData, &dstMask, &i2cBuffer, NULL);
 1491              		.loc 3 83 0 discriminator 14
 1492 0d3c E8000000 		call	__cxa_end_catch
 1492      00
 1493              	.LEHE75:
 1494 0d41 E98EFBFF 		jmp	.L72
 1494      FF
 1495              	.L99:
 1496 0d46 4889C3   		movq	%rax, %rbx
  85:testI2C.cpp   **** 		CHECK_ARRAY_EQUAL(expected, dstData.data, 16);
 1497              		.loc 3 85 0 is_stmt 1
 1498 0d49 E8000000 		call	__cxa_end_catch
 1498      00
 1499 0d4e 4889D8   		movq	%rbx, %rax
 1500 0d51 4889C7   		movq	%rax, %rdi
 1501              	.LEHB76:
 1502 0d54 E8000000 		call	_Unwind_Resume
 1502      00
 1503              	.LEHE76:
 1504              	.L98:
 1505 0d59 4889C7   		movq	%rax, %rdi
 1506 0d5c E8000000 		call	__cxa_begin_catch
 1506      00
 1507              	.LEHB77:
 1508 0d61 E8000000 		call	_ZN8UnitTest11CurrentTest7DetailsEv
 1508      00
 1509 0d66 488B08   		movq	(%rax), %rcx
 1510 0d69 488D4590 		leaq	-112(%rbp), %rax
 1511 0d6d BA550000 		movl	$85, %edx
 1511      00
 1512 0d72 4889CE   		movq	%rcx, %rsi
 1513 0d75 4889C7   		movq	%rax, %rdi
 1514 0d78 E8000000 		call	_ZN8UnitTest11TestDetailsC1ERKS0_i
 1514      00
  85:testI2C.cpp   **** 		CHECK_ARRAY_EQUAL(expected, dstData.data, 16);
 1515              		.loc 3 85 0 is_stmt 0 discriminator 10
 1516 0d7d E8000000 		call	_ZN8UnitTest11CurrentTest7ResultsEv
 1516      00
 1517 0d82 488B00   		movq	(%rax), %rax
 1518 0d85 488D4D90 		leaq	-112(%rbp), %rcx
 1519 0d89 BA000000 		movl	$.LC4, %edx
 1519      00
 1520 0d8e 4889CE   		movq	%rcx, %rsi
 1521 0d91 4889C7   		movq	%rax, %rdi
 1522 0d94 E8000000 		call	_ZN8UnitTest11TestResults13OnTestFailureERKNS_11TestDetailsEPKc
 1522      00
 1523              	.LEHE77:
 1524              	.LEHB78:
  85:testI2C.cpp   **** 		CHECK_ARRAY_EQUAL(expected, dstData.data, 16);
 1525              		.loc 3 85 0 discriminator 14
 1526 0d99 E8000000 		call	__cxa_end_catch
 1526      00
 1527              	.LEHE78:
 1528 0d9e E9A1FBFF 		jmp	.L75
 1528      FF
 1529              	.L101:
 1530 0da3 4889C3   		movq	%rax, %rbx
  86:testI2C.cpp   **** 		bufDestroy(&dstMask);
 1531              		.loc 3 86 0 is_stmt 1
 1532 0da6 E8000000 		call	__cxa_end_catch
 1532      00
 1533 0dab 4889D8   		movq	%rbx, %rax
 1534 0dae 4889C7   		movq	%rax, %rdi
 1535              	.LEHB79:
 1536 0db1 E8000000 		call	_Unwind_Resume
 1536      00
 1537              	.LEHE79:
 1538              	.L100:
 1539 0db6 4889C7   		movq	%rax, %rdi
 1540 0db9 E8000000 		call	__cxa_begin_catch
 1540      00
 1541              	.LEHB80:
 1542 0dbe E8000000 		call	_ZN8UnitTest11CurrentTest7DetailsEv
 1542      00
 1543 0dc3 488B08   		movq	(%rax), %rcx
 1544 0dc6 488D4590 		leaq	-112(%rbp), %rax
 1545 0dca BA560000 		movl	$86, %edx
 1545      00
 1546 0dcf 4889CE   		movq	%rcx, %rsi
 1547 0dd2 4889C7   		movq	%rax, %rdi
 1548 0dd5 E8000000 		call	_ZN8UnitTest11TestDetailsC1ERKS0_i
 1548      00
  86:testI2C.cpp   **** 		bufDestroy(&dstMask);
 1549              		.loc 3 86 0 is_stmt 0 discriminator 10
 1550 0dda E8000000 		call	_ZN8UnitTest11CurrentTest7ResultsEv
 1550      00
 1551 0ddf 488B00   		movq	(%rax), %rax
 1552 0de2 488D4D90 		leaq	-112(%rbp), %rcx
 1553 0de6 BA000000 		movl	$.LC9, %edx
 1553      00
 1554 0deb 4889CE   		movq	%rcx, %rsi
 1555 0dee 4889C7   		movq	%rax, %rdi
 1556 0df1 E8000000 		call	_ZN8UnitTest11TestResults13OnTestFailureERKNS_11TestDetailsEPKc
 1556      00
 1557              	.LEHE80:
 1558              	.LEHB81:
  86:testI2C.cpp   **** 		bufDestroy(&dstMask);
 1559              		.loc 3 86 0 discriminator 14
 1560 0df6 E8000000 		call	__cxa_end_catch
 1560      00
 1561              	.LEHE81:
 1562 0dfb E987FBFF 		jmp	.L78
 1562      FF
 1563              	.L102:
 1564              	.LBE9:
 1565              		.loc 3 93 0 is_stmt 1
 1566 0e00 E8000000 		call	__stack_chk_fail
 1566      00
 1567              	.L79:
 1568 0e05 4881C438 		addq	$312, %rsp
 1568      010000
 1569 0e0c 5B       		popq	%rbx
 1570 0e0d 5D       		popq	%rbp
 1571              		.cfi_def_cfa 7, 8
 1572 0e0e C3       		ret
 1573              		.cfi_endproc
 1574              	.LFE1076:
 1575              		.section	.gcc_except_table
 1576              		.align 4
 1577              	.LLSDA1076:
 1578 0088 FF       		.byte	0xff
 1579 0089 03       		.byte	0x3
 1580 008a B402     		.uleb128 .LLSDATT1076-.LLSDATTD1076
 1581              	.LLSDATTD1076:
 1582 008c 01       		.byte	0x1
 1583 008d A902     		.uleb128 .LLSDACSE1076-.LLSDACSB1076
 1584              	.LLSDACSB1076:
 1585 008f F901     		.uleb128 .LEHB27-.LFB1076
 1586 0091 05       		.uleb128 .LEHE27-.LEHB27
 1587 0092 00       		.uleb128 0
 1588 0093 00       		.uleb128 0
 1589 0094 8402     		.uleb128 .LEHB28-.LFB1076
 1590 0096 48       		.uleb128 .LEHE28-.LEHB28
 1591 0097 940C     		.uleb128 .L80-.LFB1076
 1592 0099 01       		.uleb128 0x1
 1593 009a EB02     		.uleb128 .LEHB29-.LFB1076
 1594 009c 23       		.uleb128 .LEHE29-.LEHB29
 1595 009d 00       		.uleb128 0
 1596 009e 00       		.uleb128 0
 1597 009f 9403     		.uleb128 .LEHB30-.LFB1076
 1598 00a1 48       		.uleb128 .LEHE30-.LEHB30
 1599 00a2 F10C     		.uleb128 .L82-.LFB1076
 1600 00a4 01       		.uleb128 0x1
 1601 00a5 F503     		.uleb128 .LEHB31-.LFB1076
 1602 00a7 05       		.uleb128 .LEHE31-.LEHB31
 1603 00a8 00       		.uleb128 0
 1604 00a9 00       		.uleb128 0
 1605 00aa 8004     		.uleb128 .LEHB32-.LFB1076
 1606 00ac 48       		.uleb128 .LEHE32-.LEHB32
 1607 00ad CE0D     		.uleb128 .L84-.LFB1076
 1608 00af 01       		.uleb128 0x1
 1609 00b0 E104     		.uleb128 .LEHB33-.LFB1076
 1610 00b2 05       		.uleb128 .LEHE33-.LEHB33
 1611 00b3 00       		.uleb128 0
 1612 00b4 00       		.uleb128 0
 1613 00b5 EC04     		.uleb128 .LEHB34-.LFB1076
 1614 00b7 48       		.uleb128 .LEHE34-.LEHB34
 1615 00b8 AB0E     		.uleb128 .L86-.LFB1076
 1616 00ba 01       		.uleb128 0x1
 1617 00bb CD05     		.uleb128 .LEHB35-.LFB1076
 1618 00bd 05       		.uleb128 .LEHE35-.LEHB35
 1619 00be 00       		.uleb128 0
 1620 00bf 00       		.uleb128 0
 1621 00c0 D805     		.uleb128 .LEHB36-.LFB1076
 1622 00c2 48       		.uleb128 .LEHE36-.LEHB36
 1623 00c3 880F     		.uleb128 .L88-.LFB1076
 1624 00c5 01       		.uleb128 0x1
 1625 00c6 BE06     		.uleb128 .LEHB37-.LFB1076
 1626 00c8 05       		.uleb128 .LEHE37-.LEHB37
 1627 00c9 00       		.uleb128 0
 1628 00ca 00       		.uleb128 0
 1629 00cb C906     		.uleb128 .LEHB38-.LFB1076
 1630 00cd 48       		.uleb128 .LEHE38-.LEHB38
 1631 00ce E50F     		.uleb128 .L90-.LFB1076
 1632 00d0 01       		.uleb128 0x1
 1633 00d1 AF07     		.uleb128 .LEHB39-.LFB1076
 1634 00d3 05       		.uleb128 .LEHE39-.LEHB39
 1635 00d4 00       		.uleb128 0
 1636 00d5 00       		.uleb128 0
 1637 00d6 BA07     		.uleb128 .LEHB40-.LFB1076
 1638 00d8 48       		.uleb128 .LEHE40-.LEHB40
 1639 00d9 C210     		.uleb128 .L92-.LFB1076
 1640 00db 01       		.uleb128 0x1
 1641 00dc 9F08     		.uleb128 .LEHB41-.LFB1076
 1642 00de 05       		.uleb128 .LEHE41-.LEHB41
 1643 00df 00       		.uleb128 0
 1644 00e0 00       		.uleb128 0
 1645 00e1 AA08     		.uleb128 .LEHB42-.LFB1076
 1646 00e3 48       		.uleb128 .LEHE42-.LEHB42
 1647 00e4 9F11     		.uleb128 .L94-.LFB1076
 1648 00e6 01       		.uleb128 0x1
 1649 00e7 8109     		.uleb128 .LEHB43-.LFB1076
 1650 00e9 05       		.uleb128 .LEHE43-.LEHB43
 1651 00ea 00       		.uleb128 0
 1652 00eb 00       		.uleb128 0
 1653 00ec 8C09     		.uleb128 .LEHB44-.LFB1076
 1654 00ee 48       		.uleb128 .LEHE44-.LEHB44
 1655 00ef FC11     		.uleb128 .L96-.LFB1076
 1656 00f1 01       		.uleb128 0x1
 1657 00f2 F109     		.uleb128 .LEHB45-.LFB1076
 1658 00f4 05       		.uleb128 .LEHE45-.LEHB45
 1659 00f5 00       		.uleb128 0
 1660 00f6 00       		.uleb128 0
 1661 00f7 FC09     		.uleb128 .LEHB46-.LFB1076
 1662 00f9 48       		.uleb128 .LEHE46-.LEHB46
 1663 00fa D912     		.uleb128 .L98-.LFB1076
 1664 00fc 01       		.uleb128 0x1
 1665 00fd C40A     		.uleb128 .LEHB47-.LFB1076
 1666 00ff 43       		.uleb128 .LEHE47-.LEHB47
 1667 0100 B613     		.uleb128 .L100-.LFB1076
 1668 0102 01       		.uleb128 0x1
 1669 0103 910B     		.uleb128 .LEHB48-.LFB1076
 1670 0105 41       		.uleb128 .LEHE48-.LEHB48
 1671 0106 00       		.uleb128 0
 1672 0107 00       		.uleb128 0
 1673 0108 8F0C     		.uleb128 .LEHB49-.LFB1076
 1674 010a 05       		.uleb128 .LEHE49-.LEHB49
 1675 010b 00       		.uleb128 0
 1676 010c 00       		.uleb128 0
 1677 010d 9C0C     		.uleb128 .LEHB50-.LFB1076
 1678 010f 38       		.uleb128 .LEHE50-.LEHB50
 1679 0110 810C     		.uleb128 .L81-.LFB1076
 1680 0112 00       		.uleb128 0
 1681 0113 D40C     		.uleb128 .LEHB51-.LFB1076
 1682 0115 05       		.uleb128 .LEHE51-.LEHB51
 1683 0116 00       		.uleb128 0
 1684 0117 00       		.uleb128 0
 1685 0118 EC0C     		.uleb128 .LEHB52-.LFB1076
 1686 011a 05       		.uleb128 .LEHE52-.LEHB52
 1687 011b 00       		.uleb128 0
 1688 011c 00       		.uleb128 0
 1689 011d F90C     		.uleb128 .LEHB53-.LFB1076
 1690 011f 38       		.uleb128 .LEHE53-.LEHB53
 1691 0120 DE0C     		.uleb128 .L83-.LFB1076
 1692 0122 00       		.uleb128 0
 1693 0123 B10D     		.uleb128 .LEHB54-.LFB1076
 1694 0125 05       		.uleb128 .LEHE54-.LEHB54
 1695 0126 00       		.uleb128 0
 1696 0127 00       		.uleb128 0
 1697 0128 C90D     		.uleb128 .LEHB55-.LFB1076
 1698 012a 05       		.uleb128 .LEHE55-.LEHB55
 1699 012b 00       		.uleb128 0
 1700 012c 00       		.uleb128 0
 1701 012d D60D     		.uleb128 .LEHB56-.LFB1076
 1702 012f 38       		.uleb128 .LEHE56-.LEHB56
 1703 0130 BB0D     		.uleb128 .L85-.LFB1076
 1704 0132 00       		.uleb128 0
 1705 0133 8E0E     		.uleb128 .LEHB57-.LFB1076
 1706 0135 05       		.uleb128 .LEHE57-.LEHB57
 1707 0136 00       		.uleb128 0
 1708 0137 00       		.uleb128 0
 1709 0138 A60E     		.uleb128 .LEHB58-.LFB1076
 1710 013a 05       		.uleb128 .LEHE58-.LEHB58
 1711 013b 00       		.uleb128 0
 1712 013c 00       		.uleb128 0
 1713 013d B30E     		.uleb128 .LEHB59-.LFB1076
 1714 013f 38       		.uleb128 .LEHE59-.LEHB59
 1715 0140 980E     		.uleb128 .L87-.LFB1076
 1716 0142 00       		.uleb128 0
 1717 0143 EB0E     		.uleb128 .LEHB60-.LFB1076
 1718 0145 05       		.uleb128 .LEHE60-.LEHB60
 1719 0146 00       		.uleb128 0
 1720 0147 00       		.uleb128 0
 1721 0148 830F     		.uleb128 .LEHB61-.LFB1076
 1722 014a 05       		.uleb128 .LEHE61-.LEHB61
 1723 014b 00       		.uleb128 0
 1724 014c 00       		.uleb128 0
 1725 014d 900F     		.uleb128 .LEHB62-.LFB1076
 1726 014f 38       		.uleb128 .LEHE62-.LEHB62
 1727 0150 F50E     		.uleb128 .L89-.LFB1076
 1728 0152 00       		.uleb128 0
 1729 0153 C80F     		.uleb128 .LEHB63-.LFB1076
 1730 0155 05       		.uleb128 .LEHE63-.LEHB63
 1731 0156 00       		.uleb128 0
 1732 0157 00       		.uleb128 0
 1733 0158 E00F     		.uleb128 .LEHB64-.LFB1076
 1734 015a 05       		.uleb128 .LEHE64-.LEHB64
 1735 015b 00       		.uleb128 0
 1736 015c 00       		.uleb128 0
 1737 015d ED0F     		.uleb128 .LEHB65-.LFB1076
 1738 015f 38       		.uleb128 .LEHE65-.LEHB65
 1739 0160 D20F     		.uleb128 .L91-.LFB1076
 1740 0162 00       		.uleb128 0
 1741 0163 A510     		.uleb128 .LEHB66-.LFB1076
 1742 0165 05       		.uleb128 .LEHE66-.LEHB66
 1743 0166 00       		.uleb128 0
 1744 0167 00       		.uleb128 0
 1745 0168 BD10     		.uleb128 .LEHB67-.LFB1076
 1746 016a 05       		.uleb128 .LEHE67-.LEHB67
 1747 016b 00       		.uleb128 0
 1748 016c 00       		.uleb128 0
 1749 016d CA10     		.uleb128 .LEHB68-.LFB1076
 1750 016f 38       		.uleb128 .LEHE68-.LEHB68
 1751 0170 AF10     		.uleb128 .L93-.LFB1076
 1752 0172 00       		.uleb128 0
 1753 0173 8211     		.uleb128 .LEHB69-.LFB1076
 1754 0175 05       		.uleb128 .LEHE69-.LEHB69
 1755 0176 00       		.uleb128 0
 1756 0177 00       		.uleb128 0
 1757 0178 9A11     		.uleb128 .LEHB70-.LFB1076
 1758 017a 05       		.uleb128 .LEHE70-.LEHB70
 1759 017b 00       		.uleb128 0
 1760 017c 00       		.uleb128 0
 1761 017d A711     		.uleb128 .LEHB71-.LFB1076
 1762 017f 38       		.uleb128 .LEHE71-.LEHB71
 1763 0180 8C11     		.uleb128 .L95-.LFB1076
 1764 0182 00       		.uleb128 0
 1765 0183 DF11     		.uleb128 .LEHB72-.LFB1076
 1766 0185 05       		.uleb128 .LEHE72-.LEHB72
 1767 0186 00       		.uleb128 0
 1768 0187 00       		.uleb128 0
 1769 0188 F711     		.uleb128 .LEHB73-.LFB1076
 1770 018a 05       		.uleb128 .LEHE73-.LEHB73
 1771 018b 00       		.uleb128 0
 1772 018c 00       		.uleb128 0
 1773 018d 8412     		.uleb128 .LEHB74-.LFB1076
 1774 018f 38       		.uleb128 .LEHE74-.LEHB74
 1775 0190 E911     		.uleb128 .L97-.LFB1076
 1776 0192 00       		.uleb128 0
 1777 0193 BC12     		.uleb128 .LEHB75-.LFB1076
 1778 0195 05       		.uleb128 .LEHE75-.LEHB75
 1779 0196 00       		.uleb128 0
 1780 0197 00       		.uleb128 0
 1781 0198 D412     		.uleb128 .LEHB76-.LFB1076
 1782 019a 05       		.uleb128 .LEHE76-.LEHB76
 1783 019b 00       		.uleb128 0
 1784 019c 00       		.uleb128 0
 1785 019d E112     		.uleb128 .LEHB77-.LFB1076
 1786 019f 38       		.uleb128 .LEHE77-.LEHB77
 1787 01a0 C612     		.uleb128 .L99-.LFB1076
 1788 01a2 00       		.uleb128 0
 1789 01a3 9913     		.uleb128 .LEHB78-.LFB1076
 1790 01a5 05       		.uleb128 .LEHE78-.LEHB78
 1791 01a6 00       		.uleb128 0
 1792 01a7 00       		.uleb128 0
 1793 01a8 B113     		.uleb128 .LEHB79-.LFB1076
 1794 01aa 05       		.uleb128 .LEHE79-.LEHB79
 1795 01ab 00       		.uleb128 0
 1796 01ac 00       		.uleb128 0
 1797 01ad BE13     		.uleb128 .LEHB80-.LFB1076
 1798 01af 38       		.uleb128 .LEHE80-.LEHB80
 1799 01b0 A313     		.uleb128 .L101-.LFB1076
 1800 01b2 00       		.uleb128 0
 1801 01b3 F613     		.uleb128 .LEHB81-.LFB1076
 1802 01b5 05       		.uleb128 .LEHE81-.LEHB81
 1803 01b6 00       		.uleb128 0
 1804 01b7 00       		.uleb128 0
 1805              	.LLSDACSE1076:
 1806 01b8 01       		.byte	0x1
 1807 01b9 00       		.byte	0
 1808 01ba 0000     		.align 4
 1809 01bc 00000000 		.long	0
 1810              	
 1811              	.LLSDATT1076:
 1812              		.text
 1814              		.section	.rodata
 1815              	.LC10:
 1816 01c9 4932435F 		.string	"I2C_testWPRNoInit"
 1816      74657374 
 1816      5750524E 
 1816      6F496E69 
 1816      7400
 1817              		.section	.text._ZN21TestI2C_testWPRNoInitC2Ev,"axG",@progbits,_ZN21TestI2C_testWPRNoInitC5Ev,comda
 1818              		.align 2
 1819              		.weak	_ZN21TestI2C_testWPRNoInitC2Ev
 1821              	_ZN21TestI2C_testWPRNoInitC2Ev:
 1822              	.LFB1078:
  94:testI2C.cpp   **** 
  95:testI2C.cpp   **** TEST(I2C_testWPRNoInit) {
 1823              		.loc 3 95 0
 1824              		.cfi_startproc
 1825 0000 55       		pushq	%rbp
 1826              		.cfi_def_cfa_offset 16
 1827              		.cfi_offset 6, -16
 1828 0001 4889E5   		movq	%rsp, %rbp
 1829              		.cfi_def_cfa_register 6
 1830 0004 4883EC10 		subq	$16, %rsp
 1831 0008 48897DF8 		movq	%rdi, -8(%rbp)
 1832              	.LBB10:
 1833              		.loc 3 95 0
 1834 000c E8000000 		call	_ZN13UnitTestSuite12GetSuiteNameEv
 1834      00
 1835 0011 4889C2   		movq	%rax, %rdx
 1836 0014 488B45F8 		movq	-8(%rbp), %rax
 1837 0018 41B85F00 		movl	$95, %r8d
 1837      0000
 1838 001e B9000000 		movl	$.LC1, %ecx
 1838      00
 1839 0023 BE000000 		movl	$.LC10, %esi
 1839      00
 1840 0028 4889C7   		movq	%rax, %rdi
 1841 002b E8000000 		call	_ZN8UnitTest4TestC2EPKcS2_S2_i
 1841      00
 1842 0030 488B45F8 		movq	-8(%rbp), %rax
 1843 0034 48C70000 		movq	$_ZTV21TestI2C_testWPRNoInit+16, (%rax)
 1843      000000
 1844              	.LBE10:
 1845 003b C9       		leave
 1846              		.cfi_def_cfa 7, 8
 1847 003c C3       		ret
 1848              		.cfi_endproc
 1849              	.LFE1078:
 1851              		.weak	_ZN21TestI2C_testWPRNoInitC1Ev
 1852              		.set	_ZN21TestI2C_testWPRNoInitC1Ev,_ZN21TestI2C_testWPRNoInitC2Ev
 1853              		.globl	testI2C_testWPRNoInitInstance
 1854              		.bss
 1855 0079 00000000 		.align 32
 1855      000000
 1858              	testI2C_testWPRNoInitInstance:
 1859 0080 00000000 		.zero	56
 1859      00000000 
 1859      00000000 
 1859      00000000 
 1859      00000000 
 1860              		.globl	adderI2C_testWPRNoInit
 1863              	adderI2C_testWPRNoInit:
 1864 00b8 00       		.zero	1
 1865              		.section	.rodata
 1866 01db 00000000 		.align 8
 1866      00
 1867              	.LC11:
 1868 01e0 556E6861 		.string	"Unhandled exception in CHECK_EQUAL(I2C_NOT_INITIALISED, iStatus)"
 1868      6E646C65 
 1868      64206578 
 1868      63657074 
 1868      696F6E20 
 1869              		.text
 1870 0e0f 90       		.align 2
 1871              		.globl	_ZNK21TestI2C_testWPRNoInit7RunImplEv
 1873              	_ZNK21TestI2C_testWPRNoInit7RunImplEv:
 1874              	.LFB1080:
 1875              		.loc 3 95 0
 1876              		.cfi_startproc
 1877              		.cfi_personality 0x3,__gxx_personality_v0
 1878              		.cfi_lsda 0x3,.LLSDA1080
 1879 0e10 55       		pushq	%rbp
 1880              		.cfi_def_cfa_offset 16
 1881              		.cfi_offset 6, -16
 1882 0e11 4889E5   		movq	%rsp, %rbp
 1883              		.cfi_def_cfa_register 6
 1884 0e14 53       		pushq	%rbx
 1885 0e15 4883EC78 		subq	$120, %rsp
 1886              		.cfi_offset 3, -24
 1887 0e19 48897D88 		movq	%rdi, -120(%rbp)
 1888              		.loc 3 95 0
 1889 0e1d 64488B04 		movq	%fs:40, %rax
 1889      25280000 
 1889      00
 1890 0e26 488945E8 		movq	%rax, -24(%rbp)
 1891 0e2a 31C0     		xorl	%eax, %eax
 1892              	.LBB11:
  96:testI2C.cpp   **** 	Buffer i2cBuffer;
  97:testI2C.cpp   **** 	I2CStatus iStatus;
  98:testI2C.cpp   **** 	BufferStatus bStatus;
  99:testI2C.cpp   **** 	bStatus = bufInitialise(&i2cBuffer, 8, 0x00, NULL);
 1893              		.loc 3 99 0
 1894 0e2c 488D45A0 		leaq	-96(%rbp), %rax
 1895 0e30 B9000000 		movl	$0, %ecx
 1895      00
 1896 0e35 BA000000 		movl	$0, %edx
 1896      00
 1897 0e3a BE080000 		movl	$8, %esi
 1897      00
 1898 0e3f 4889C7   		movq	%rax, %rdi
 1899              	.LEHB82:
 1900 0e42 E8000000 		call	bufInitialise
 1900      00
 1901              	.LEHE82:
 1902 0e47 894598   		movl	%eax, -104(%rbp)
 1903              	.LEHB83:
 100:testI2C.cpp   **** 	CHECK_EQUAL(BUF_SUCCESS, bStatus);
 1904              		.loc 3 100 0
 1905 0e4a E8000000 		call	_ZN8UnitTest11CurrentTest7DetailsEv
 1905      00
 1906 0e4f 488B08   		movq	(%rax), %rcx
 1907 0e52 488D45C0 		leaq	-64(%rbp), %rax
 1908 0e56 BA640000 		movl	$100, %edx
 1908      00
 1909 0e5b 4889CE   		movq	%rcx, %rsi
 1910 0e5e 4889C7   		movq	%rax, %rdi
 1911 0e61 E8000000 		call	_ZN8UnitTest11TestDetailsC1ERKS0_i
 1911      00
 1912              		.loc 3 100 0 is_stmt 0 discriminator 2
 1913 0e66 C7459C00 		movl	$0, -100(%rbp)
 1913      000000
 1914 0e6d E8000000 		call	_ZN8UnitTest11CurrentTest7ResultsEv
 1914      00
 1915 0e72 488B00   		movq	(%rax), %rax
 1916 0e75 488D4DC0 		leaq	-64(%rbp), %rcx
 1917 0e79 488D5598 		leaq	-104(%rbp), %rdx
 1918 0e7d 488D759C 		leaq	-100(%rbp), %rsi
 1919 0e81 4889C7   		movq	%rax, %rdi
 1920 0e84 E8000000 		call	_ZN8UnitTest10CheckEqualI12BufferStatusS1_EEvRNS_11TestResultsERKT_RKT0_RKNS_11TestDetailsE
 1920      00
 1921              	.LEHE83:
 1922              	.L107:
 101:testI2C.cpp   **** 	iStatus = i2cWritePromRecords(&i2cBuffer, NULL, NULL, NULL);
 1923              		.loc 3 101 0 is_stmt 1
 1924 0e89 488D45A0 		leaq	-96(%rbp), %rax
 1925 0e8d B9000000 		movl	$0, %ecx
 1925      00
 1926 0e92 BA000000 		movl	$0, %edx
 1926      00
 1927 0e97 BE000000 		movl	$0, %esi
 1927      00
 1928 0e9c 4889C7   		movq	%rax, %rdi
 1929              	.LEHB84:
 1930 0e9f E8000000 		call	i2cWritePromRecords
 1930      00
 1931              	.LEHE84:
 1932 0ea4 894594   		movl	%eax, -108(%rbp)
 1933              	.LEHB85:
 102:testI2C.cpp   **** 	CHECK_EQUAL(I2C_NOT_INITIALISED, iStatus);
 1934              		.loc 3 102 0
 1935 0ea7 E8000000 		call	_ZN8UnitTest11CurrentTest7DetailsEv
 1935      00
 1936 0eac 488B08   		movq	(%rax), %rcx
 1937 0eaf 488D45C0 		leaq	-64(%rbp), %rax
 1938 0eb3 BA660000 		movl	$102, %edx
 1938      00
 1939 0eb8 4889CE   		movq	%rcx, %rsi
 1940 0ebb 4889C7   		movq	%rax, %rdi
 1941 0ebe E8000000 		call	_ZN8UnitTest11TestDetailsC1ERKS0_i
 1941      00
 1942              		.loc 3 102 0 is_stmt 0 discriminator 2
 1943 0ec3 C7459C02 		movl	$2, -100(%rbp)
 1943      000000
 1944 0eca E8000000 		call	_ZN8UnitTest11CurrentTest7ResultsEv
 1944      00
 1945 0ecf 488B00   		movq	(%rax), %rax
 1946 0ed2 488D4DC0 		leaq	-64(%rbp), %rcx
 1947 0ed6 488D5594 		leaq	-108(%rbp), %rdx
 1948 0eda 488D759C 		leaq	-100(%rbp), %rsi
 1949 0ede 4889C7   		movq	%rax, %rdi
 1950 0ee1 E8000000 		call	_ZN8UnitTest10CheckEqualI9I2CStatusS1_EEvRNS_11TestResultsERKT_RKT0_RKNS_11TestDetailsE
 1950      00
 1951              	.LEHE85:
 1952              	.L110:
 103:testI2C.cpp   **** 	bufDestroy(&i2cBuffer);
 1953              		.loc 3 103 0 is_stmt 1
 1954 0ee6 488D45A0 		leaq	-96(%rbp), %rax
 1955 0eea 4889C7   		movq	%rax, %rdi
 1956              	.LEHB86:
 1957 0eed E8000000 		call	bufDestroy
 1957      00
 1958              	.LEHE86:
 1959              	.LBE11:
 104:testI2C.cpp   **** }
 1960              		.loc 3 104 0
 1961 0ef2 488B45E8 		movq	-24(%rbp), %rax
 1962 0ef6 64483304 		xorq	%fs:40, %rax
 1962      25280000 
 1962      00
 1963 0eff 0F84C400 		je	.L111
 1963      0000
 1964 0f05 E9BA0000 		jmp	.L116
 1964      00
 1965              	.L113:
 1966 0f0a 4889C3   		movq	%rax, %rbx
 1967              	.LBB12:
 100:testI2C.cpp   **** 	iStatus = i2cWritePromRecords(&i2cBuffer, NULL, NULL, NULL);
 1968              		.loc 3 100 0
 1969 0f0d E8000000 		call	__cxa_end_catch
 1969      00
 1970 0f12 4889D8   		movq	%rbx, %rax
 1971 0f15 4889C7   		movq	%rax, %rdi
 1972              	.LEHB87:
 1973 0f18 E8000000 		call	_Unwind_Resume
 1973      00
 1974              	.LEHE87:
 1975              	.L112:
 1976 0f1d 4889C7   		movq	%rax, %rdi
 1977 0f20 E8000000 		call	__cxa_begin_catch
 1977      00
 1978              	.LEHB88:
 1979 0f25 E8000000 		call	_ZN8UnitTest11CurrentTest7DetailsEv
 1979      00
 1980 0f2a 488B08   		movq	(%rax), %rcx
 1981 0f2d 488D45C0 		leaq	-64(%rbp), %rax
 1982 0f31 BA640000 		movl	$100, %edx
 1982      00
 1983 0f36 4889CE   		movq	%rcx, %rsi
 1984 0f39 4889C7   		movq	%rax, %rdi
 1985 0f3c E8000000 		call	_ZN8UnitTest11TestDetailsC1ERKS0_i
 1985      00
 100:testI2C.cpp   **** 	iStatus = i2cWritePromRecords(&i2cBuffer, NULL, NULL, NULL);
 1986              		.loc 3 100 0 is_stmt 0 discriminator 10
 1987 0f41 E8000000 		call	_ZN8UnitTest11CurrentTest7ResultsEv
 1987      00
 1988 0f46 488B00   		movq	(%rax), %rax
 1989 0f49 488D4DC0 		leaq	-64(%rbp), %rcx
 1990 0f4d BA000000 		movl	$.LC3, %edx
 1990      00
 1991 0f52 4889CE   		movq	%rcx, %rsi
 1992 0f55 4889C7   		movq	%rax, %rdi
 1993 0f58 E8000000 		call	_ZN8UnitTest11TestResults13OnTestFailureERKNS_11TestDetailsEPKc
 1993      00
 1994              	.LEHE88:
 1995              	.LEHB89:
 100:testI2C.cpp   **** 	iStatus = i2cWritePromRecords(&i2cBuffer, NULL, NULL, NULL);
 1996              		.loc 3 100 0 discriminator 14
 1997 0f5d E8000000 		call	__cxa_end_catch
 1997      00
 1998              	.LEHE89:
 1999 0f62 E922FFFF 		jmp	.L107
 1999      FF
 2000              	.L115:
 2001 0f67 4889C3   		movq	%rax, %rbx
 102:testI2C.cpp   **** 	bufDestroy(&i2cBuffer);
 2002              		.loc 3 102 0 is_stmt 1
 2003 0f6a E8000000 		call	__cxa_end_catch
 2003      00
 2004 0f6f 4889D8   		movq	%rbx, %rax
 2005 0f72 4889C7   		movq	%rax, %rdi
 2006              	.LEHB90:
 2007 0f75 E8000000 		call	_Unwind_Resume
 2007      00
 2008              	.LEHE90:
 2009              	.L114:
 2010 0f7a 4889C7   		movq	%rax, %rdi
 2011 0f7d E8000000 		call	__cxa_begin_catch
 2011      00
 2012              	.LEHB91:
 2013 0f82 E8000000 		call	_ZN8UnitTest11CurrentTest7DetailsEv
 2013      00
 2014 0f87 488B08   		movq	(%rax), %rcx
 2015 0f8a 488D45C0 		leaq	-64(%rbp), %rax
 2016 0f8e BA660000 		movl	$102, %edx
 2016      00
 2017 0f93 4889CE   		movq	%rcx, %rsi
 2018 0f96 4889C7   		movq	%rax, %rdi
 2019 0f99 E8000000 		call	_ZN8UnitTest11TestDetailsC1ERKS0_i
 2019      00
 102:testI2C.cpp   **** 	bufDestroy(&i2cBuffer);
 2020              		.loc 3 102 0 is_stmt 0 discriminator 10
 2021 0f9e E8000000 		call	_ZN8UnitTest11CurrentTest7ResultsEv
 2021      00
 2022 0fa3 488B00   		movq	(%rax), %rax
 2023 0fa6 488D4DC0 		leaq	-64(%rbp), %rcx
 2024 0faa BA000000 		movl	$.LC11, %edx
 2024      00
 2025 0faf 4889CE   		movq	%rcx, %rsi
 2026 0fb2 4889C7   		movq	%rax, %rdi
 2027 0fb5 E8000000 		call	_ZN8UnitTest11TestResults13OnTestFailureERKNS_11TestDetailsEPKc
 2027      00
 2028              	.LEHE91:
 2029              	.LEHB92:
 102:testI2C.cpp   **** 	bufDestroy(&i2cBuffer);
 2030              		.loc 3 102 0 discriminator 14
 2031 0fba E8000000 		call	__cxa_end_catch
 2031      00
 2032              	.LEHE92:
 2033 0fbf E922FFFF 		jmp	.L110
 2033      FF
 2034              	.L116:
 2035              	.LBE12:
 2036              		.loc 3 104 0 is_stmt 1
 2037 0fc4 E8000000 		call	__stack_chk_fail
 2037      00
 2038              	.L111:
 2039 0fc9 4883C478 		addq	$120, %rsp
 2040 0fcd 5B       		popq	%rbx
 2041 0fce 5D       		popq	%rbp
 2042              		.cfi_def_cfa 7, 8
 2043 0fcf C3       		ret
 2044              		.cfi_endproc
 2045              	.LFE1080:
 2046              		.section	.gcc_except_table
 2047              		.align 4
 2048              	.LLSDA1080:
 2049 01c0 FF       		.byte	0xff
 2050 01c1 03       		.byte	0x3
 2051 01c2 41       		.uleb128 .LLSDATT1080-.LLSDATTD1080
 2052              	.LLSDATTD1080:
 2053 01c3 01       		.byte	0x1
 2054 01c4 39       		.uleb128 .LLSDACSE1080-.LLSDACSB1080
 2055              	.LLSDACSB1080:
 2056 01c5 32       		.uleb128 .LEHB82-.LFB1080
 2057 01c6 05       		.uleb128 .LEHE82-.LEHB82
 2058 01c7 00       		.uleb128 0
 2059 01c8 00       		.uleb128 0
 2060 01c9 3A       		.uleb128 .LEHB83-.LFB1080
 2061 01ca 3F       		.uleb128 .LEHE83-.LEHB83
 2062 01cb 8D02     		.uleb128 .L112-.LFB1080
 2063 01cd 01       		.uleb128 0x1
 2064 01ce 8F01     		.uleb128 .LEHB84-.LFB1080
 2065 01d0 05       		.uleb128 .LEHE84-.LEHB84
 2066 01d1 00       		.uleb128 0
 2067 01d2 00       		.uleb128 0
 2068 01d3 9701     		.uleb128 .LEHB85-.LFB1080
 2069 01d5 3F       		.uleb128 .LEHE85-.LEHB85
 2070 01d6 EA02     		.uleb128 .L114-.LFB1080
 2071 01d8 01       		.uleb128 0x1
 2072 01d9 DD01     		.uleb128 .LEHB86-.LFB1080
 2073 01db 05       		.uleb128 .LEHE86-.LEHB86
 2074 01dc 00       		.uleb128 0
 2075 01dd 00       		.uleb128 0
 2076 01de 8802     		.uleb128 .LEHB87-.LFB1080
 2077 01e0 05       		.uleb128 .LEHE87-.LEHB87
 2078 01e1 00       		.uleb128 0
 2079 01e2 00       		.uleb128 0
 2080 01e3 9502     		.uleb128 .LEHB88-.LFB1080
 2081 01e5 38       		.uleb128 .LEHE88-.LEHB88
 2082 01e6 FA01     		.uleb128 .L113-.LFB1080
 2083 01e8 00       		.uleb128 0
 2084 01e9 CD02     		.uleb128 .LEHB89-.LFB1080
 2085 01eb 05       		.uleb128 .LEHE89-.LEHB89
 2086 01ec 00       		.uleb128 0
 2087 01ed 00       		.uleb128 0
 2088 01ee E502     		.uleb128 .LEHB90-.LFB1080
 2089 01f0 05       		.uleb128 .LEHE90-.LEHB90
 2090 01f1 00       		.uleb128 0
 2091 01f2 00       		.uleb128 0
 2092 01f3 F202     		.uleb128 .LEHB91-.LFB1080
 2093 01f5 38       		.uleb128 .LEHE91-.LEHB91
 2094 01f6 D702     		.uleb128 .L115-.LFB1080
 2095 01f8 00       		.uleb128 0
 2096 01f9 AA03     		.uleb128 .LEHB92-.LFB1080
 2097 01fb 05       		.uleb128 .LEHE92-.LEHB92
 2098 01fc 00       		.uleb128 0
 2099 01fd 00       		.uleb128 0
 2100              	.LLSDACSE1080:
 2101 01fe 01       		.byte	0x1
 2102 01ff 00       		.byte	0
 2103              		.align 4
 2104 0200 00000000 		.long	0
 2105              	
 2106              	.LLSDATT1080:
 2107              		.text
 2109              		.section	.rodata
 2110              	.LC12:
 2111 0221 4932435F 		.string	"I2C_testFinaliseNoInit"
 2111      74657374 
 2111      46696E61 
 2111      6C697365 
 2111      4E6F496E 
 2112              		.section	.text._ZN26TestI2C_testFinaliseNoInitC2Ev,"axG",@progbits,_ZN26TestI2C_testFinaliseNoInit
 2113              		.align 2
 2114              		.weak	_ZN26TestI2C_testFinaliseNoInitC2Ev
 2116              	_ZN26TestI2C_testFinaliseNoInitC2Ev:
 2117              	.LFB1082:
 105:testI2C.cpp   **** 
 106:testI2C.cpp   **** TEST(I2C_testFinaliseNoInit) {
 2118              		.loc 3 106 0
 2119              		.cfi_startproc
 2120 0000 55       		pushq	%rbp
 2121              		.cfi_def_cfa_offset 16
 2122              		.cfi_offset 6, -16
 2123 0001 4889E5   		movq	%rsp, %rbp
 2124              		.cfi_def_cfa_register 6
 2125 0004 4883EC10 		subq	$16, %rsp
 2126 0008 48897DF8 		movq	%rdi, -8(%rbp)
 2127              	.LBB13:
 2128              		.loc 3 106 0
 2129 000c E8000000 		call	_ZN13UnitTestSuite12GetSuiteNameEv
 2129      00
 2130 0011 4889C2   		movq	%rax, %rdx
 2131 0014 488B45F8 		movq	-8(%rbp), %rax
 2132 0018 41B86A00 		movl	$106, %r8d
 2132      0000
 2133 001e B9000000 		movl	$.LC1, %ecx
 2133      00
 2134 0023 BE000000 		movl	$.LC12, %esi
 2134      00
 2135 0028 4889C7   		movq	%rax, %rdi
 2136 002b E8000000 		call	_ZN8UnitTest4TestC2EPKcS2_S2_i
 2136      00
 2137 0030 488B45F8 		movq	-8(%rbp), %rax
 2138 0034 48C70000 		movq	$_ZTV26TestI2C_testFinaliseNoInit+16, (%rax)
 2138      000000
 2139              	.LBE13:
 2140 003b C9       		leave
 2141              		.cfi_def_cfa 7, 8
 2142 003c C3       		ret
 2143              		.cfi_endproc
 2144              	.LFE1082:
 2146              		.weak	_ZN26TestI2C_testFinaliseNoInitC1Ev
 2147              		.set	_ZN26TestI2C_testFinaliseNoInitC1Ev,_ZN26TestI2C_testFinaliseNoInitC2Ev
 2148              		.globl	testI2C_testFinaliseNoInitInstance
 2149              		.bss
 2150 00b9 00000000 		.align 32
 2150      000000
 2153              	testI2C_testFinaliseNoInitInstance:
 2154 00c0 00000000 		.zero	56
 2154      00000000 
 2154      00000000 
 2154      00000000 
 2154      00000000 
 2155              		.globl	adderI2C_testFinaliseNoInit
 2158              	adderI2C_testFinaliseNoInit:
 2159 00f8 00       		.zero	1
 2160              		.text
 2161              		.align 2
 2162              		.globl	_ZNK26TestI2C_testFinaliseNoInit7RunImplEv
 2164              	_ZNK26TestI2C_testFinaliseNoInit7RunImplEv:
 2165              	.LFB1084:
 2166              		.loc 3 106 0
 2167              		.cfi_startproc
 2168              		.cfi_personality 0x3,__gxx_personality_v0
 2169              		.cfi_lsda 0x3,.LLSDA1084
 2170 0fd0 55       		pushq	%rbp
 2171              		.cfi_def_cfa_offset 16
 2172              		.cfi_offset 6, -16
 2173 0fd1 4889E5   		movq	%rsp, %rbp
 2174              		.cfi_def_cfa_register 6
 2175 0fd4 53       		pushq	%rbx
 2176 0fd5 4883EC78 		subq	$120, %rsp
 2177              		.cfi_offset 3, -24
 2178 0fd9 48897D88 		movq	%rdi, -120(%rbp)
 2179              		.loc 3 106 0
 2180 0fdd 64488B04 		movq	%fs:40, %rax
 2180      25280000 
 2180      00
 2181 0fe6 488945E8 		movq	%rax, -24(%rbp)
 2182 0fea 31C0     		xorl	%eax, %eax
 2183              	.LBB14:
 107:testI2C.cpp   **** 	Buffer buf;
 108:testI2C.cpp   **** 	I2CStatus iStatus;
 109:testI2C.cpp   **** 	BufferStatus bStatus;
 110:testI2C.cpp   **** 	bStatus = bufInitialise(&buf, 8, 0x00, NULL);
 2184              		.loc 3 110 0
 2185 0fec 488D45A0 		leaq	-96(%rbp), %rax
 2186 0ff0 B9000000 		movl	$0, %ecx
 2186      00
 2187 0ff5 BA000000 		movl	$0, %edx
 2187      00
 2188 0ffa BE080000 		movl	$8, %esi
 2188      00
 2189 0fff 4889C7   		movq	%rax, %rdi
 2190              	.LEHB93:
 2191 1002 E8000000 		call	bufInitialise
 2191      00
 2192              	.LEHE93:
 2193 1007 894598   		movl	%eax, -104(%rbp)
 2194              	.LEHB94:
 111:testI2C.cpp   **** 	CHECK_EQUAL(BUF_SUCCESS, bStatus);
 2195              		.loc 3 111 0
 2196 100a E8000000 		call	_ZN8UnitTest11CurrentTest7DetailsEv
 2196      00
 2197 100f 488B08   		movq	(%rax), %rcx
 2198 1012 488D45C0 		leaq	-64(%rbp), %rax
 2199 1016 BA6F0000 		movl	$111, %edx
 2199      00
 2200 101b 4889CE   		movq	%rcx, %rsi
 2201 101e 4889C7   		movq	%rax, %rdi
 2202 1021 E8000000 		call	_ZN8UnitTest11TestDetailsC1ERKS0_i
 2202      00
 2203              		.loc 3 111 0 is_stmt 0 discriminator 2
 2204 1026 C7459C00 		movl	$0, -100(%rbp)
 2204      000000
 2205 102d E8000000 		call	_ZN8UnitTest11CurrentTest7ResultsEv
 2205      00
 2206 1032 488B00   		movq	(%rax), %rax
 2207 1035 488D4DC0 		leaq	-64(%rbp), %rcx
 2208 1039 488D5598 		leaq	-104(%rbp), %rdx
 2209 103d 488D759C 		leaq	-100(%rbp), %rsi
 2210 1041 4889C7   		movq	%rax, %rdi
 2211 1044 E8000000 		call	_ZN8UnitTest10CheckEqualI12BufferStatusS1_EEvRNS_11TestResultsERKT_RKT0_RKNS_11TestDetailsE
 2211      00
 2212              	.LEHE94:
 2213              	.L121:
 112:testI2C.cpp   **** 	iStatus = i2cFinalise(&buf, NULL);
 2214              		.loc 3 112 0 is_stmt 1
 2215 1049 488D45A0 		leaq	-96(%rbp), %rax
 2216 104d BE000000 		movl	$0, %esi
 2216      00
 2217 1052 4889C7   		movq	%rax, %rdi
 2218              	.LEHB95:
 2219 1055 E8000000 		call	i2cFinalise
 2219      00
 2220              	.LEHE95:
 2221 105a 894594   		movl	%eax, -108(%rbp)
 2222              	.LEHB96:
 113:testI2C.cpp   **** 	CHECK_EQUAL(I2C_NOT_INITIALISED, iStatus);
 2223              		.loc 3 113 0
 2224 105d E8000000 		call	_ZN8UnitTest11CurrentTest7DetailsEv
 2224      00
 2225 1062 488B08   		movq	(%rax), %rcx
 2226 1065 488D45C0 		leaq	-64(%rbp), %rax
 2227 1069 BA710000 		movl	$113, %edx
 2227      00
 2228 106e 4889CE   		movq	%rcx, %rsi
 2229 1071 4889C7   		movq	%rax, %rdi
 2230 1074 E8000000 		call	_ZN8UnitTest11TestDetailsC1ERKS0_i
 2230      00
 2231              		.loc 3 113 0 is_stmt 0 discriminator 2
 2232 1079 C7459C02 		movl	$2, -100(%rbp)
 2232      000000
 2233 1080 E8000000 		call	_ZN8UnitTest11CurrentTest7ResultsEv
 2233      00
 2234 1085 488B00   		movq	(%rax), %rax
 2235 1088 488D4DC0 		leaq	-64(%rbp), %rcx
 2236 108c 488D5594 		leaq	-108(%rbp), %rdx
 2237 1090 488D759C 		leaq	-100(%rbp), %rsi
 2238 1094 4889C7   		movq	%rax, %rdi
 2239 1097 E8000000 		call	_ZN8UnitTest10CheckEqualI9I2CStatusS1_EEvRNS_11TestResultsERKT_RKT0_RKNS_11TestDetailsE
 2239      00
 2240              	.LEHE96:
 2241              	.L124:
 114:testI2C.cpp   **** 	bufDestroy(&buf);
 2242              		.loc 3 114 0 is_stmt 1
 2243 109c 488D45A0 		leaq	-96(%rbp), %rax
 2244 10a0 4889C7   		movq	%rax, %rdi
 2245              	.LEHB97:
 2246 10a3 E8000000 		call	bufDestroy
 2246      00
 2247              	.LEHE97:
 2248              	.LBE14:
 115:testI2C.cpp   **** }
 2249              		.loc 3 115 0
 2250 10a8 488B45E8 		movq	-24(%rbp), %rax
 2251 10ac 64483304 		xorq	%fs:40, %rax
 2251      25280000 
 2251      00
 2252 10b5 0F84C400 		je	.L125
 2252      0000
 2253 10bb E9BA0000 		jmp	.L130
 2253      00
 2254              	.L127:
 2255 10c0 4889C3   		movq	%rax, %rbx
 2256              	.LBB15:
 111:testI2C.cpp   **** 	iStatus = i2cFinalise(&buf, NULL);
 2257              		.loc 3 111 0
 2258 10c3 E8000000 		call	__cxa_end_catch
 2258      00
 2259 10c8 4889D8   		movq	%rbx, %rax
 2260 10cb 4889C7   		movq	%rax, %rdi
 2261              	.LEHB98:
 2262 10ce E8000000 		call	_Unwind_Resume
 2262      00
 2263              	.LEHE98:
 2264              	.L126:
 2265 10d3 4889C7   		movq	%rax, %rdi
 2266 10d6 E8000000 		call	__cxa_begin_catch
 2266      00
 2267              	.LEHB99:
 2268 10db E8000000 		call	_ZN8UnitTest11CurrentTest7DetailsEv
 2268      00
 2269 10e0 488B08   		movq	(%rax), %rcx
 2270 10e3 488D45C0 		leaq	-64(%rbp), %rax
 2271 10e7 BA6F0000 		movl	$111, %edx
 2271      00
 2272 10ec 4889CE   		movq	%rcx, %rsi
 2273 10ef 4889C7   		movq	%rax, %rdi
 2274 10f2 E8000000 		call	_ZN8UnitTest11TestDetailsC1ERKS0_i
 2274      00
 111:testI2C.cpp   **** 	iStatus = i2cFinalise(&buf, NULL);
 2275              		.loc 3 111 0 is_stmt 0 discriminator 10
 2276 10f7 E8000000 		call	_ZN8UnitTest11CurrentTest7ResultsEv
 2276      00
 2277 10fc 488B00   		movq	(%rax), %rax
 2278 10ff 488D4DC0 		leaq	-64(%rbp), %rcx
 2279 1103 BA000000 		movl	$.LC3, %edx
 2279      00
 2280 1108 4889CE   		movq	%rcx, %rsi
 2281 110b 4889C7   		movq	%rax, %rdi
 2282 110e E8000000 		call	_ZN8UnitTest11TestResults13OnTestFailureERKNS_11TestDetailsEPKc
 2282      00
 2283              	.LEHE99:
 2284              	.LEHB100:
 111:testI2C.cpp   **** 	iStatus = i2cFinalise(&buf, NULL);
 2285              		.loc 3 111 0 discriminator 14
 2286 1113 E8000000 		call	__cxa_end_catch
 2286      00
 2287              	.LEHE100:
 2288 1118 E92CFFFF 		jmp	.L121
 2288      FF
 2289              	.L129:
 2290 111d 4889C3   		movq	%rax, %rbx
 113:testI2C.cpp   **** 	bufDestroy(&buf);
 2291              		.loc 3 113 0 is_stmt 1
 2292 1120 E8000000 		call	__cxa_end_catch
 2292      00
 2293 1125 4889D8   		movq	%rbx, %rax
 2294 1128 4889C7   		movq	%rax, %rdi
 2295              	.LEHB101:
 2296 112b E8000000 		call	_Unwind_Resume
 2296      00
 2297              	.LEHE101:
 2298              	.L128:
 2299 1130 4889C7   		movq	%rax, %rdi
 2300 1133 E8000000 		call	__cxa_begin_catch
 2300      00
 2301              	.LEHB102:
 2302 1138 E8000000 		call	_ZN8UnitTest11CurrentTest7DetailsEv
 2302      00
 2303 113d 488B08   		movq	(%rax), %rcx
 2304 1140 488D45C0 		leaq	-64(%rbp), %rax
 2305 1144 BA710000 		movl	$113, %edx
 2305      00
 2306 1149 4889CE   		movq	%rcx, %rsi
 2307 114c 4889C7   		movq	%rax, %rdi
 2308 114f E8000000 		call	_ZN8UnitTest11TestDetailsC1ERKS0_i
 2308      00
 113:testI2C.cpp   **** 	bufDestroy(&buf);
 2309              		.loc 3 113 0 is_stmt 0 discriminator 10
 2310 1154 E8000000 		call	_ZN8UnitTest11CurrentTest7ResultsEv
 2310      00
 2311 1159 488B00   		movq	(%rax), %rax
 2312 115c 488D4DC0 		leaq	-64(%rbp), %rcx
 2313 1160 BA000000 		movl	$.LC11, %edx
 2313      00
 2314 1165 4889CE   		movq	%rcx, %rsi
 2315 1168 4889C7   		movq	%rax, %rdi
 2316 116b E8000000 		call	_ZN8UnitTest11TestResults13OnTestFailureERKNS_11TestDetailsEPKc
 2316      00
 2317              	.LEHE102:
 2318              	.LEHB103:
 113:testI2C.cpp   **** 	bufDestroy(&buf);
 2319              		.loc 3 113 0 discriminator 14
 2320 1170 E8000000 		call	__cxa_end_catch
 2320      00
 2321              	.LEHE103:
 2322 1175 E922FFFF 		jmp	.L124
 2322      FF
 2323              	.L130:
 2324              	.LBE15:
 2325              		.loc 3 115 0 is_stmt 1
 2326 117a E8000000 		call	__stack_chk_fail
 2326      00
 2327              	.L125:
 2328 117f 4883C478 		addq	$120, %rsp
 2329 1183 5B       		popq	%rbx
 2330 1184 5D       		popq	%rbp
 2331              		.cfi_def_cfa 7, 8
 2332 1185 C3       		ret
 2333              		.cfi_endproc
 2334              	.LFE1084:
 2335              		.section	.gcc_except_table
 2336              		.align 4
 2337              	.LLSDA1084:
 2338 0204 FF       		.byte	0xff
 2339 0205 03       		.byte	0x3
 2340 0206 41       		.uleb128 .LLSDATT1084-.LLSDATTD1084
 2341              	.LLSDATTD1084:
 2342 0207 01       		.byte	0x1
 2343 0208 39       		.uleb128 .LLSDACSE1084-.LLSDACSB1084
 2344              	.LLSDACSB1084:
 2345 0209 32       		.uleb128 .LEHB93-.LFB1084
 2346 020a 05       		.uleb128 .LEHE93-.LEHB93
 2347 020b 00       		.uleb128 0
 2348 020c 00       		.uleb128 0
 2349 020d 3A       		.uleb128 .LEHB94-.LFB1084
 2350 020e 3F       		.uleb128 .LEHE94-.LEHB94
 2351 020f 8302     		.uleb128 .L126-.LFB1084
 2352 0211 01       		.uleb128 0x1
 2353 0212 8501     		.uleb128 .LEHB95-.LFB1084
 2354 0214 05       		.uleb128 .LEHE95-.LEHB95
 2355 0215 00       		.uleb128 0
 2356 0216 00       		.uleb128 0
 2357 0217 8D01     		.uleb128 .LEHB96-.LFB1084
 2358 0219 3F       		.uleb128 .LEHE96-.LEHB96
 2359 021a E002     		.uleb128 .L128-.LFB1084
 2360 021c 01       		.uleb128 0x1
 2361 021d D301     		.uleb128 .LEHB97-.LFB1084
 2362 021f 05       		.uleb128 .LEHE97-.LEHB97
 2363 0220 00       		.uleb128 0
 2364 0221 00       		.uleb128 0
 2365 0222 FE01     		.uleb128 .LEHB98-.LFB1084
 2366 0224 05       		.uleb128 .LEHE98-.LEHB98
 2367 0225 00       		.uleb128 0
 2368 0226 00       		.uleb128 0
 2369 0227 8B02     		.uleb128 .LEHB99-.LFB1084
 2370 0229 38       		.uleb128 .LEHE99-.LEHB99
 2371 022a F001     		.uleb128 .L127-.LFB1084
 2372 022c 00       		.uleb128 0
 2373 022d C302     		.uleb128 .LEHB100-.LFB1084
 2374 022f 05       		.uleb128 .LEHE100-.LEHB100
 2375 0230 00       		.uleb128 0
 2376 0231 00       		.uleb128 0
 2377 0232 DB02     		.uleb128 .LEHB101-.LFB1084
 2378 0234 05       		.uleb128 .LEHE101-.LEHB101
 2379 0235 00       		.uleb128 0
 2380 0236 00       		.uleb128 0
 2381 0237 E802     		.uleb128 .LEHB102-.LFB1084
 2382 0239 38       		.uleb128 .LEHE102-.LEHB102
 2383 023a CD02     		.uleb128 .L129-.LFB1084
 2384 023c 00       		.uleb128 0
 2385 023d A003     		.uleb128 .LEHB103-.LFB1084
 2386 023f 05       		.uleb128 .LEHE103-.LEHB103
 2387 0240 00       		.uleb128 0
 2388 0241 00       		.uleb128 0
 2389              	.LLSDACSE1084:
 2390 0242 01       		.byte	0x1
 2391 0243 00       		.byte	0
 2392              		.align 4
 2393 0244 00000000 		.long	0
 2394              	
 2395              	.LLSDATT1084:
 2396              		.text
 2398              		.section	.text._ZN8UnitTest15MemoryOutStreamD1Ev,"axG",@progbits,_ZN8UnitTest15MemoryOutStreamD1Ev
 2399              		.align 2
 2400              		.weak	_ZN8UnitTest15MemoryOutStreamD1Ev
 2402              	_ZN8UnitTest15MemoryOutStreamD1Ev:
 2403              	.LFB1115:
  13:/home/asoreyh/Dropbox/projects/lago/lago-software/acqua/brc/lago/makestuff/libs/libutpp/MemoryOutStream.h **** {
 2404              		.loc 2 13 0
 2405              		.cfi_startproc
 2406              		.cfi_personality 0x3,__gxx_personality_v0
 2407              		.cfi_lsda 0x3,.LLSDA1115
 2408 0000 55       		pushq	%rbp
 2409              		.cfi_def_cfa_offset 16
 2410              		.cfi_offset 6, -16
 2411 0001 4889E5   		movq	%rsp, %rbp
 2412              		.cfi_def_cfa_register 6
 2413 0004 53       		pushq	%rbx
 2414 0005 4883EC18 		subq	$24, %rsp
 2415              		.cfi_offset 3, -24
 2416 0009 48897DE8 		movq	%rdi, -24(%rbp)
 2417              	.LBB16:
  13:/home/asoreyh/Dropbox/projects/lago/lago-software/acqua/brc/lago/makestuff/libs/libutpp/MemoryOutStream.h **** {
 2418              		.loc 2 13 0
 2419 000d BA000000 		movl	$_ZTVN8UnitTest15MemoryOutStreamE+24, %edx
 2419      00
 2420 0012 488B45E8 		movq	-24(%rbp), %rax
 2421 0016 488910   		movq	%rdx, (%rax)
 2422 0019 BA600000 		movl	$96, %edx
 2422      00
 2423 001e 488B45E8 		movq	-24(%rbp), %rax
 2424 0022 4801D0   		addq	%rdx, %rax
 2425 0025 BA000000 		movl	$_ZTVN8UnitTest15MemoryOutStreamE+64, %edx
 2425      00
 2426 002a 488910   		movq	%rdx, (%rax)
 2427 002d 488B45E8 		movq	-24(%rbp), %rax
 2428 0031 4883C058 		addq	$88, %rax
 2429 0035 4889C7   		movq	%rax, %rdi
 2430              	.LEHB104:
 2431 0038 E8000000 		call	_ZNSsD1Ev
 2431      00
 2432              	.LEHE104:
  13:/home/asoreyh/Dropbox/projects/lago/lago-software/acqua/brc/lago/makestuff/libs/libutpp/MemoryOutStream.h **** {
 2433              		.loc 2 13 0 is_stmt 0 discriminator 14
 2434 003d BA000000 		movl	$_ZTTN8UnitTest15MemoryOutStreamE+8, %edx
 2434      00
 2435 0042 488B45E8 		movq	-24(%rbp), %rax
 2436 0046 4889D6   		movq	%rdx, %rsi
 2437 0049 4889C7   		movq	%rax, %rdi
 2438              	.LEHB105:
 2439 004c E8000000 		call	_ZNSt19basic_ostringstreamIcSt11char_traitsIcESaIcEED2Ev
 2439      00
 2440              	.LEHE105:
  13:/home/asoreyh/Dropbox/projects/lago/lago-software/acqua/brc/lago/makestuff/libs/libutpp/MemoryOutStream.h **** {
 2441              		.loc 2 13 0 discriminator 20
 2442 0051 B8020000 		movl	$2, %eax
 2442      00
 2443 0056 85C0     		testl	%eax, %eax
 2444 0058 7410     		je	.L133
  13:/home/asoreyh/Dropbox/projects/lago/lago-software/acqua/brc/lago/makestuff/libs/libutpp/MemoryOutStream.h **** {
 2445              		.loc 2 13 0 discriminator 21
 2446 005a 488B45E8 		movq	-24(%rbp), %rax
 2447 005e 4883C060 		addq	$96, %rax
 2448 0062 4889C7   		movq	%rax, %rdi
 2449              	.LEHB106:
 2450 0065 E8000000 		call	_ZNSt9basic_iosIcSt11char_traitsIcEED2Ev
 2450      00
 2451              	.LEHE106:
 2452              	.L133:
 2453              	.LBE16:
  13:/home/asoreyh/Dropbox/projects/lago/lago-software/acqua/brc/lago/makestuff/libs/libutpp/MemoryOutStream.h **** {
 2454              		.loc 2 13 0 discriminator 24
 2455 006a B8000000 		movl	$0, %eax
 2455      00
 2456 006f 85C0     		testl	%eax, %eax
 2457 0071 744E     		je	.L140
  13:/home/asoreyh/Dropbox/projects/lago/lago-software/acqua/brc/lago/makestuff/libs/libutpp/MemoryOutStream.h **** {
 2458              		.loc 2 13 0 discriminator 25
 2459 0073 488B45E8 		movq	-24(%rbp), %rax
 2460 0077 4889C7   		movq	%rax, %rdi
 2461 007a E8000000 		call	_ZdlPv
 2461      00
 2462 007f EB40     		jmp	.L140
 2463              	.L138:
 2464 0081 4889C3   		movq	%rax, %rbx
 2465              	.LBB17:
  13:/home/asoreyh/Dropbox/projects/lago/lago-software/acqua/brc/lago/makestuff/libs/libutpp/MemoryOutStream.h **** {
 2466              		.loc 2 13 0
 2467 0084 BA000000 		movl	$_ZTTN8UnitTest15MemoryOutStreamE+8, %edx
 2467      00
 2468 0089 488B45E8 		movq	-24(%rbp), %rax
 2469 008d 4889D6   		movq	%rdx, %rsi
 2470 0090 4889C7   		movq	%rax, %rdi
 2471 0093 E8000000 		call	_ZNSt19basic_ostringstreamIcSt11char_traitsIcESaIcEED2Ev
 2471      00
 2472 0098 EB03     		jmp	.L136
 2473              	.L139:
 2474 009a 4889C3   		movq	%rax, %rbx
 2475              	.L136:
  13:/home/asoreyh/Dropbox/projects/lago/lago-software/acqua/brc/lago/makestuff/libs/libutpp/MemoryOutStream.h **** {
 2476              		.loc 2 13 0 discriminator 19
 2477 009d B8020000 		movl	$2, %eax
 2477      00
 2478 00a2 85C0     		testl	%eax, %eax
 2479 00a4 7410     		je	.L137
  13:/home/asoreyh/Dropbox/projects/lago/lago-software/acqua/brc/lago/makestuff/libs/libutpp/MemoryOutStream.h **** {
 2480              		.loc 2 13 0 discriminator 32
 2481 00a6 488B45E8 		movq	-24(%rbp), %rax
 2482 00aa 4883C060 		addq	$96, %rax
 2483 00ae 4889C7   		movq	%rax, %rdi
 2484 00b1 E8000000 		call	_ZNSt9basic_iosIcSt11char_traitsIcEED2Ev
 2484      00
 2485              	.L137:
 2486 00b6 4889D8   		movq	%rbx, %rax
 2487 00b9 4889C7   		movq	%rax, %rdi
 2488              	.LEHB107:
 2489 00bc E8000000 		call	_Unwind_Resume
 2489      00
 2490              	.LEHE107:
 2491              	.L140:
 2492              	.LBE17:
  13:/home/asoreyh/Dropbox/projects/lago/lago-software/acqua/brc/lago/makestuff/libs/libutpp/MemoryOutStream.h **** {
 2493              		.loc 2 13 0
 2494 00c1 4883C418 		addq	$24, %rsp
 2495 00c5 5B       		popq	%rbx
 2496 00c6 5D       		popq	%rbp
 2497              		.cfi_def_cfa 7, 8
 2498 00c7 C3       		ret
 2499              		.cfi_endproc
 2500              	.LFE1115:
 2501              		.section	.gcc_except_table
 2502              	.LLSDA1115:
 2503 0248 FF       		.byte	0xff
 2504 0249 FF       		.byte	0xff
 2505 024a 01       		.byte	0x1
 2506 024b 13       		.uleb128 .LLSDACSE1115-.LLSDACSB1115
 2507              	.LLSDACSB1115:
 2508 024c 38       		.uleb128 .LEHB104-.LFB1115
 2509 024d 05       		.uleb128 .LEHE104-.LEHB104
 2510 024e 8101     		.uleb128 .L138-.LFB1115
 2511 0250 00       		.uleb128 0
 2512 0251 4C       		.uleb128 .LEHB105-.LFB1115
 2513 0252 05       		.uleb128 .LEHE105-.LEHB105
 2514 0253 9A01     		.uleb128 .L139-.LFB1115
 2515 0255 00       		.uleb128 0
 2516 0256 65       		.uleb128 .LEHB106-.LFB1115
 2517 0257 05       		.uleb128 .LEHE106-.LEHB106
 2518 0258 00       		.uleb128 0
 2519 0259 00       		.uleb128 0
 2520 025a BC01     		.uleb128 .LEHB107-.LFB1115
 2521 025c 05       		.uleb128 .LEHE107-.LEHB107
 2522 025d 00       		.uleb128 0
 2523 025e 00       		.uleb128 0
 2524              	.LLSDACSE1115:
 2525              		.section	.text._ZN8UnitTest15MemoryOutStreamD1Ev,"axG",@progbits,_ZN8UnitTest15MemoryOutStreamD1Ev
 2527              		.set	.LTHUNK0,_ZN8UnitTest15MemoryOutStreamD1Ev
 2528              		.weak	_ZTv0_n24_N8UnitTest15MemoryOutStreamD1Ev
 2530              	_ZTv0_n24_N8UnitTest15MemoryOutStreamD1Ev:
 2531              	.LFB1191:
  13:/home/asoreyh/Dropbox/projects/lago/lago-software/acqua/brc/lago/makestuff/libs/libutpp/MemoryOutStream.h **** {
 2532              		.loc 2 13 0 is_stmt 1
 2533              		.cfi_startproc
 2534 00c8 4C8B17   		movq	(%rdi), %r10
 2535 00cb 49037AE8 		addq	-24(%r10), %rdi
 2536 00cf E92CFFFF 		jmp	.LTHUNK0
 2536      FF
 2537              		.cfi_endproc
 2538              	.LFE1191:
 2540              		.section	.text._ZN8UnitTest15MemoryOutStreamD0Ev,"axG",@progbits,_ZN8UnitTest15MemoryOutStreamD0Ev
 2541              		.align 2
 2542              		.weak	_ZN8UnitTest15MemoryOutStreamD0Ev
 2544              	_ZN8UnitTest15MemoryOutStreamD0Ev:
 2545              	.LFB1116:
  13:/home/asoreyh/Dropbox/projects/lago/lago-software/acqua/brc/lago/makestuff/libs/libutpp/MemoryOutStream.h **** {
 2546              		.loc 2 13 0
 2547              		.cfi_startproc
 2548 0000 55       		pushq	%rbp
 2549              		.cfi_def_cfa_offset 16
 2550              		.cfi_offset 6, -16
 2551 0001 4889E5   		movq	%rsp, %rbp
 2552              		.cfi_def_cfa_register 6
 2553 0004 4883EC10 		subq	$16, %rsp
 2554 0008 48897DF8 		movq	%rdi, -8(%rbp)
  13:/home/asoreyh/Dropbox/projects/lago/lago-software/acqua/brc/lago/makestuff/libs/libutpp/MemoryOutStream.h **** {
 2555              		.loc 2 13 0
 2556 000c 488B45F8 		movq	-8(%rbp), %rax
 2557 0010 4889C7   		movq	%rax, %rdi
 2558 0013 E8000000 		call	_ZN8UnitTest15MemoryOutStreamD1Ev
 2558      00
 2559 0018 488B45F8 		movq	-8(%rbp), %rax
 2560 001c 4889C7   		movq	%rax, %rdi
 2561 001f E8000000 		call	_ZdlPv
 2561      00
 2562 0024 C9       		leave
 2563              		.cfi_def_cfa 7, 8
 2564 0025 C3       		ret
 2565              		.cfi_endproc
 2566              	.LFE1116:
 2568              		.set	.LTHUNK1,_ZN8UnitTest15MemoryOutStreamD0Ev
 2569              		.weak	_ZTv0_n24_N8UnitTest15MemoryOutStreamD0Ev
 2571              	_ZTv0_n24_N8UnitTest15MemoryOutStreamD0Ev:
 2572              	.LFB1192:
  13:/home/asoreyh/Dropbox/projects/lago/lago-software/acqua/brc/lago/makestuff/libs/libutpp/MemoryOutStream.h **** {
 2573              		.loc 2 13 0
 2574              		.cfi_startproc
 2575 0026 4C8B17   		movq	(%rdi), %r10
 2576 0029 49037AE8 		addq	-24(%r10), %rdi
 2577 002d EBD1     		jmp	.LTHUNK1
 2578              		.cfi_endproc
 2579              	.LFE1192:
 2581              		.section	.rodata
 2582              	.LC13:
 2583 0238 45787065 		.string	"Expected "
 2583      63746564 
 2583      2000
 2584              	.LC14:
 2585 0242 20627574 		.string	" but was "
 2585      20776173 
 2585      2000
 2586              		.section	.text._ZN8UnitTest10CheckEqualI12BufferStatusS1_EEvRNS_11TestResultsERKT_RKT0_RKNS_11Test
 2587              		.weak	_ZN8UnitTest10CheckEqualI12BufferStatusS1_EEvRNS_11TestResultsERKT_RKT0_RKNS_11TestDetailsE
 2589              	_ZN8UnitTest10CheckEqualI12BufferStatusS1_EEvRNS_11TestResultsERKT_RKT0_RKNS_11TestDetailsE:
 2590              	.LFB1112:
 2591              		.file 4 "/home/asoreyh/Dropbox/projects/lago/lago-software/acqua/brc/lago/makestuff/libs/libutpp/C
   1:/home/asoreyh/Dropbox/projects/lago/lago-software/acqua/brc/lago/makestuff/libs/libutpp/Checks.h **** #ifndef UNITTEST_CHECKS_H
   2:/home/asoreyh/Dropbox/projects/lago/lago-software/acqua/brc/lago/makestuff/libs/libutpp/Checks.h **** #define UNITTEST_CHECKS_H
   3:/home/asoreyh/Dropbox/projects/lago/lago-software/acqua/brc/lago/makestuff/libs/libutpp/Checks.h **** 
   4:/home/asoreyh/Dropbox/projects/lago/lago-software/acqua/brc/lago/makestuff/libs/libutpp/Checks.h **** #include "Config.h"
   5:/home/asoreyh/Dropbox/projects/lago/lago-software/acqua/brc/lago/makestuff/libs/libutpp/Checks.h **** #include "TestResults.h"
   6:/home/asoreyh/Dropbox/projects/lago/lago-software/acqua/brc/lago/makestuff/libs/libutpp/Checks.h **** #include "MemoryOutStream.h"
   7:/home/asoreyh/Dropbox/projects/lago/lago-software/acqua/brc/lago/makestuff/libs/libutpp/Checks.h **** 
   8:/home/asoreyh/Dropbox/projects/lago/lago-software/acqua/brc/lago/makestuff/libs/libutpp/Checks.h **** namespace UnitTest {
   9:/home/asoreyh/Dropbox/projects/lago/lago-software/acqua/brc/lago/makestuff/libs/libutpp/Checks.h **** 
  10:/home/asoreyh/Dropbox/projects/lago/lago-software/acqua/brc/lago/makestuff/libs/libutpp/Checks.h **** 
  11:/home/asoreyh/Dropbox/projects/lago/lago-software/acqua/brc/lago/makestuff/libs/libutpp/Checks.h **** template< typename Value >
  12:/home/asoreyh/Dropbox/projects/lago/lago-software/acqua/brc/lago/makestuff/libs/libutpp/Checks.h **** bool Check(Value const value)
  13:/home/asoreyh/Dropbox/projects/lago/lago-software/acqua/brc/lago/makestuff/libs/libutpp/Checks.h **** {
  14:/home/asoreyh/Dropbox/projects/lago/lago-software/acqua/brc/lago/makestuff/libs/libutpp/Checks.h ****     return !!value; // doing double negative to avoid silly VS warnings
  15:/home/asoreyh/Dropbox/projects/lago/lago-software/acqua/brc/lago/makestuff/libs/libutpp/Checks.h **** }
  16:/home/asoreyh/Dropbox/projects/lago/lago-software/acqua/brc/lago/makestuff/libs/libutpp/Checks.h **** 
  17:/home/asoreyh/Dropbox/projects/lago/lago-software/acqua/brc/lago/makestuff/libs/libutpp/Checks.h **** 
  18:/home/asoreyh/Dropbox/projects/lago/lago-software/acqua/brc/lago/makestuff/libs/libutpp/Checks.h **** template< typename Expected, typename Actual >
  19:/home/asoreyh/Dropbox/projects/lago/lago-software/acqua/brc/lago/makestuff/libs/libutpp/Checks.h **** void CheckEqual(TestResults& results, Expected const& expected, Actual const& actual, TestDetails c
 2592              		.loc 4 19 0
 2593              		.cfi_startproc
 2594              		.cfi_personality 0x3,__gxx_personality_v0
 2595              		.cfi_lsda 0x3,.LLSDA1112
 2596 0000 55       		pushq	%rbp
 2597              		.cfi_def_cfa_offset 16
 2598              		.cfi_offset 6, -16
 2599 0001 4889E5   		movq	%rsp, %rbp
 2600              		.cfi_def_cfa_register 6
 2601 0004 4154     		pushq	%r12
 2602 0006 53       		pushq	%rbx
 2603 0007 4881EC90 		subq	$400, %rsp
 2603      010000
 2604              		.cfi_offset 12, -24
 2605              		.cfi_offset 3, -32
 2606 000e 4889BD78 		movq	%rdi, -392(%rbp)
 2606      FEFFFF
 2607 0015 4889B570 		movq	%rsi, -400(%rbp)
 2607      FEFFFF
 2608 001c 48899568 		movq	%rdx, -408(%rbp)
 2608      FEFFFF
 2609 0023 48898D60 		movq	%rcx, -416(%rbp)
 2609      FEFFFF
 2610              		.loc 4 19 0
 2611 002a 64488B04 		movq	%fs:40, %rax
 2611      25280000 
 2611      00
 2612 0033 488945E8 		movq	%rax, -24(%rbp)
 2613 0037 31C0     		xorl	%eax, %eax
 2614              	.LBB18:
 2615              	.LBB19:
  20:/home/asoreyh/Dropbox/projects/lago/lago-software/acqua/brc/lago/makestuff/libs/libutpp/Checks.h **** {
  21:/home/asoreyh/Dropbox/projects/lago/lago-software/acqua/brc/lago/makestuff/libs/libutpp/Checks.h ****     if (!(expected == actual))
 2616              		.loc 4 21 0
 2617 0039 488B8570 		movq	-400(%rbp), %rax
 2617      FEFFFF
 2618 0040 8B10     		movl	(%rax), %edx
 2619 0042 488B8568 		movq	-408(%rbp), %rax
 2619      FEFFFF
 2620 0049 8B00     		movl	(%rax), %eax
 2621 004b 39C2     		cmpl	%eax, %edx
 2622 004d 0F849600 		je	.L144
 2622      0000
 2623              	.LBB20:
  22:/home/asoreyh/Dropbox/projects/lago/lago-software/acqua/brc/lago/makestuff/libs/libutpp/Checks.h ****     {
  23:/home/asoreyh/Dropbox/projects/lago/lago-software/acqua/brc/lago/makestuff/libs/libutpp/Checks.h ****         UnitTest::MemoryOutStream stream;
 2624              		.loc 4 23 0
 2625 0053 488D8580 		leaq	-384(%rbp), %rax
 2625      FEFFFF
 2626 005a 4889C7   		movq	%rax, %rdi
 2627              	.LEHB108:
 2628 005d E8000000 		call	_ZN8UnitTest15MemoryOutStreamC1Ev
 2628      00
 2629              	.LEHE108:
  24:/home/asoreyh/Dropbox/projects/lago/lago-software/acqua/brc/lago/makestuff/libs/libutpp/Checks.h ****         stream << "Expected " << expected << " but was " << actual;
 2630              		.loc 4 24 0
 2631 0062 488B8568 		movq	-408(%rbp), %rax
 2631      FEFFFF
 2632 0069 8B00     		movl	(%rax), %eax
 2633 006b 89C3     		movl	%eax, %ebx
 2634 006d 488B8570 		movq	-400(%rbp), %rax
 2634      FEFFFF
 2635 0074 8B00     		movl	(%rax), %eax
 2636 0076 4189C4   		movl	%eax, %r12d
 2637 0079 488D8580 		leaq	-384(%rbp), %rax
 2637      FEFFFF
 2638 0080 BE000000 		movl	$.LC13, %esi
 2638      00
 2639 0085 4889C7   		movq	%rax, %rdi
 2640              	.LEHB109:
 2641 0088 E8000000 		call	_ZStlsISt11char_traitsIcEERSt13basic_ostreamIcT_ES5_PKc
 2641      00
 2642 008d 4489E6   		movl	%r12d, %esi
 2643 0090 4889C7   		movq	%rax, %rdi
 2644 0093 E8000000 		call	_ZNSolsEi
 2644      00
 2645              		.loc 4 24 0 is_stmt 0 discriminator 1
 2646 0098 BE000000 		movl	$.LC14, %esi
 2646      00
 2647 009d 4889C7   		movq	%rax, %rdi
 2648 00a0 E8000000 		call	_ZStlsISt11char_traitsIcEERSt13basic_ostreamIcT_ES5_PKc
 2648      00
 2649              		.loc 4 24 0 discriminator 2
 2650 00a5 89DE     		movl	%ebx, %esi
 2651 00a7 4889C7   		movq	%rax, %rdi
 2652 00aa E8000000 		call	_ZNSolsEi
 2652      00
  25:/home/asoreyh/Dropbox/projects/lago/lago-software/acqua/brc/lago/makestuff/libs/libutpp/Checks.h **** 
  26:/home/asoreyh/Dropbox/projects/lago/lago-software/acqua/brc/lago/makestuff/libs/libutpp/Checks.h ****         results.OnTestFailure(details, stream.GetText());
 2653              		.loc 4 26 0 is_stmt 1
 2654 00af 488D8580 		leaq	-384(%rbp), %rax
 2654      FEFFFF
 2655 00b6 4889C7   		movq	%rax, %rdi
 2656 00b9 E8000000 		call	_ZNK8UnitTest15MemoryOutStream7GetTextEv
 2656      00
 2657 00be 4889C2   		movq	%rax, %rdx
 2658 00c1 488B8D60 		movq	-416(%rbp), %rcx
 2658      FEFFFF
 2659 00c8 488B8578 		movq	-392(%rbp), %rax
 2659      FEFFFF
 2660 00cf 4889CE   		movq	%rcx, %rsi
 2661 00d2 4889C7   		movq	%rax, %rdi
 2662 00d5 E8000000 		call	_ZN8UnitTest11TestResults13OnTestFailureERKNS_11TestDetailsEPKc
 2662      00
 2663              	.LEHE109:
 2664              		.loc 4 26 0 is_stmt 0 discriminator 4
 2665 00da 488D8580 		leaq	-384(%rbp), %rax
 2665      FEFFFF
 2666 00e1 4889C7   		movq	%rax, %rdi
 2667              	.LEHB110:
 2668 00e4 E8000000 		call	_ZN8UnitTest15MemoryOutStreamD1Ev
 2668      00
 2669              	.LEHE110:
 2670              	.L144:
 2671              	.LBE20:
 2672              	.LBE19:
 2673              	.LBE18:
  27:/home/asoreyh/Dropbox/projects/lago/lago-software/acqua/brc/lago/makestuff/libs/libutpp/Checks.h ****     }
  28:/home/asoreyh/Dropbox/projects/lago/lago-software/acqua/brc/lago/makestuff/libs/libutpp/Checks.h **** }
 2674              		.loc 4 28 0 is_stmt 1
 2675 00e9 488B45E8 		movq	-24(%rbp), %rax
 2676 00ed 64483304 		xorq	%fs:40, %rax
 2676      25280000 
 2676      00
 2677 00f6 7424     		je	.L146
 2678 00f8 EB1D     		jmp	.L148
 2679              	.L147:
 2680 00fa 4889C3   		movq	%rax, %rbx
 2681              	.LBB23:
 2682              	.LBB22:
 2683              	.LBB21:
  26:/home/asoreyh/Dropbox/projects/lago/lago-software/acqua/brc/lago/makestuff/libs/libutpp/Checks.h ****     }
 2684              		.loc 4 26 0
 2685 00fd 488D8580 		leaq	-384(%rbp), %rax
 2685      FEFFFF
 2686 0104 4889C7   		movq	%rax, %rdi
 2687 0107 E8000000 		call	_ZN8UnitTest15MemoryOutStreamD1Ev
 2687      00
 2688 010c 4889D8   		movq	%rbx, %rax
 2689 010f 4889C7   		movq	%rax, %rdi
 2690              	.LEHB111:
 2691 0112 E8000000 		call	_Unwind_Resume
 2691      00
 2692              	.LEHE111:
 2693              	.L148:
 2694              	.LBE21:
 2695              	.LBE22:
 2696              	.LBE23:
 2697              		.loc 4 28 0
 2698 0117 E8000000 		call	__stack_chk_fail
 2698      00
 2699              	.L146:
 2700 011c 4881C490 		addq	$400, %rsp
 2700      010000
 2701 0123 5B       		popq	%rbx
 2702 0124 415C     		popq	%r12
 2703 0126 5D       		popq	%rbp
 2704              		.cfi_def_cfa 7, 8
 2705 0127 C3       		ret
 2706              		.cfi_endproc
 2707              	.LFE1112:
 2708              		.section	.gcc_except_table
 2709              	.LLSDA1112:
 2710 025f FF       		.byte	0xff
 2711 0260 FF       		.byte	0xff
 2712 0261 01       		.byte	0x1
 2713 0262 14       		.uleb128 .LLSDACSE1112-.LLSDACSB1112
 2714              	.LLSDACSB1112:
 2715 0263 5D       		.uleb128 .LEHB108-.LFB1112
 2716 0264 05       		.uleb128 .LEHE108-.LEHB108
 2717 0265 00       		.uleb128 0
 2718 0266 00       		.uleb128 0
 2719 0267 8801     		.uleb128 .LEHB109-.LFB1112
 2720 0269 52       		.uleb128 .LEHE109-.LEHB109
 2721 026a FA01     		.uleb128 .L147-.LFB1112
 2722 026c 00       		.uleb128 0
 2723 026d E401     		.uleb128 .LEHB110-.LFB1112
 2724 026f 05       		.uleb128 .LEHE110-.LEHB110
 2725 0270 00       		.uleb128 0
 2726 0271 00       		.uleb128 0
 2727 0272 9202     		.uleb128 .LEHB111-.LFB1112
 2728 0274 05       		.uleb128 .LEHE111-.LEHB111
 2729 0275 00       		.uleb128 0
 2730 0276 00       		.uleb128 0
 2731              	.LLSDACSE1112:
 2732              		.section	.text._ZN8UnitTest10CheckEqualI12BufferStatusS1_EEvRNS_11TestResultsERKT_RKT0_RKNS_11Test
 2734              		.section	.text._ZN8UnitTest10CheckEqualI9I2CStatusS1_EEvRNS_11TestResultsERKT_RKT0_RKNS_11TestDeta
 2735              		.weak	_ZN8UnitTest10CheckEqualI9I2CStatusS1_EEvRNS_11TestResultsERKT_RKT0_RKNS_11TestDetailsE
 2737              	_ZN8UnitTest10CheckEqualI9I2CStatusS1_EEvRNS_11TestResultsERKT_RKT0_RKNS_11TestDetailsE:
 2738              	.LFB1117:
  19:/home/asoreyh/Dropbox/projects/lago/lago-software/acqua/brc/lago/makestuff/libs/libutpp/Checks.h **** {
 2739              		.loc 4 19 0
 2740              		.cfi_startproc
 2741              		.cfi_personality 0x3,__gxx_personality_v0
 2742              		.cfi_lsda 0x3,.LLSDA1117
 2743 0000 55       		pushq	%rbp
 2744              		.cfi_def_cfa_offset 16
 2745              		.cfi_offset 6, -16
 2746 0001 4889E5   		movq	%rsp, %rbp
 2747              		.cfi_def_cfa_register 6
 2748 0004 4154     		pushq	%r12
 2749 0006 53       		pushq	%rbx
 2750 0007 4881EC90 		subq	$400, %rsp
 2750      010000
 2751              		.cfi_offset 12, -24
 2752              		.cfi_offset 3, -32
 2753 000e 4889BD78 		movq	%rdi, -392(%rbp)
 2753      FEFFFF
 2754 0015 4889B570 		movq	%rsi, -400(%rbp)
 2754      FEFFFF
 2755 001c 48899568 		movq	%rdx, -408(%rbp)
 2755      FEFFFF
 2756 0023 48898D60 		movq	%rcx, -416(%rbp)
 2756      FEFFFF
  19:/home/asoreyh/Dropbox/projects/lago/lago-software/acqua/brc/lago/makestuff/libs/libutpp/Checks.h **** {
 2757              		.loc 4 19 0
 2758 002a 64488B04 		movq	%fs:40, %rax
 2758      25280000 
 2758      00
 2759 0033 488945E8 		movq	%rax, -24(%rbp)
 2760 0037 31C0     		xorl	%eax, %eax
 2761              	.LBB24:
 2762              	.LBB25:
  21:/home/asoreyh/Dropbox/projects/lago/lago-software/acqua/brc/lago/makestuff/libs/libutpp/Checks.h ****     {
 2763              		.loc 4 21 0
 2764 0039 488B8570 		movq	-400(%rbp), %rax
 2764      FEFFFF
 2765 0040 8B10     		movl	(%rax), %edx
 2766 0042 488B8568 		movq	-408(%rbp), %rax
 2766      FEFFFF
 2767 0049 8B00     		movl	(%rax), %eax
 2768 004b 39C2     		cmpl	%eax, %edx
 2769 004d 0F849600 		je	.L150
 2769      0000
 2770              	.LBB26:
  23:/home/asoreyh/Dropbox/projects/lago/lago-software/acqua/brc/lago/makestuff/libs/libutpp/Checks.h ****         stream << "Expected " << expected << " but was " << actual;
 2771              		.loc 4 23 0
 2772 0053 488D8580 		leaq	-384(%rbp), %rax
 2772      FEFFFF
 2773 005a 4889C7   		movq	%rax, %rdi
 2774              	.LEHB112:
 2775 005d E8000000 		call	_ZN8UnitTest15MemoryOutStreamC1Ev
 2775      00
 2776              	.LEHE112:
  24:/home/asoreyh/Dropbox/projects/lago/lago-software/acqua/brc/lago/makestuff/libs/libutpp/Checks.h **** 
 2777              		.loc 4 24 0
 2778 0062 488B8568 		movq	-408(%rbp), %rax
 2778      FEFFFF
 2779 0069 8B00     		movl	(%rax), %eax
 2780 006b 89C3     		movl	%eax, %ebx
 2781 006d 488B8570 		movq	-400(%rbp), %rax
 2781      FEFFFF
 2782 0074 8B00     		movl	(%rax), %eax
 2783 0076 4189C4   		movl	%eax, %r12d
 2784 0079 488D8580 		leaq	-384(%rbp), %rax
 2784      FEFFFF
 2785 0080 BE000000 		movl	$.LC13, %esi
 2785      00
 2786 0085 4889C7   		movq	%rax, %rdi
 2787              	.LEHB113:
 2788 0088 E8000000 		call	_ZStlsISt11char_traitsIcEERSt13basic_ostreamIcT_ES5_PKc
 2788      00
 2789 008d 4489E6   		movl	%r12d, %esi
 2790 0090 4889C7   		movq	%rax, %rdi
 2791 0093 E8000000 		call	_ZNSolsEi
 2791      00
  24:/home/asoreyh/Dropbox/projects/lago/lago-software/acqua/brc/lago/makestuff/libs/libutpp/Checks.h **** 
 2792              		.loc 4 24 0 is_stmt 0 discriminator 1
 2793 0098 BE000000 		movl	$.LC14, %esi
 2793      00
 2794 009d 4889C7   		movq	%rax, %rdi
 2795 00a0 E8000000 		call	_ZStlsISt11char_traitsIcEERSt13basic_ostreamIcT_ES5_PKc
 2795      00
  24:/home/asoreyh/Dropbox/projects/lago/lago-software/acqua/brc/lago/makestuff/libs/libutpp/Checks.h **** 
 2796              		.loc 4 24 0 discriminator 2
 2797 00a5 89DE     		movl	%ebx, %esi
 2798 00a7 4889C7   		movq	%rax, %rdi
 2799 00aa E8000000 		call	_ZNSolsEi
 2799      00
  26:/home/asoreyh/Dropbox/projects/lago/lago-software/acqua/brc/lago/makestuff/libs/libutpp/Checks.h ****     }
 2800              		.loc 4 26 0 is_stmt 1
 2801 00af 488D8580 		leaq	-384(%rbp), %rax
 2801      FEFFFF
 2802 00b6 4889C7   		movq	%rax, %rdi
 2803 00b9 E8000000 		call	_ZNK8UnitTest15MemoryOutStream7GetTextEv
 2803      00
 2804 00be 4889C2   		movq	%rax, %rdx
 2805 00c1 488B8D60 		movq	-416(%rbp), %rcx
 2805      FEFFFF
 2806 00c8 488B8578 		movq	-392(%rbp), %rax
 2806      FEFFFF
 2807 00cf 4889CE   		movq	%rcx, %rsi
 2808 00d2 4889C7   		movq	%rax, %rdi
 2809 00d5 E8000000 		call	_ZN8UnitTest11TestResults13OnTestFailureERKNS_11TestDetailsEPKc
 2809      00
 2810              	.LEHE113:
  26:/home/asoreyh/Dropbox/projects/lago/lago-software/acqua/brc/lago/makestuff/libs/libutpp/Checks.h ****     }
 2811              		.loc 4 26 0 is_stmt 0 discriminator 4
 2812 00da 488D8580 		leaq	-384(%rbp), %rax
 2812      FEFFFF
 2813 00e1 4889C7   		movq	%rax, %rdi
 2814              	.LEHB114:
 2815 00e4 E8000000 		call	_ZN8UnitTest15MemoryOutStreamD1Ev
 2815      00
 2816              	.LEHE114:
 2817              	.L150:
 2818              	.LBE26:
 2819              	.LBE25:
 2820              	.LBE24:
 2821              		.loc 4 28 0 is_stmt 1
 2822 00e9 488B45E8 		movq	-24(%rbp), %rax
 2823 00ed 64483304 		xorq	%fs:40, %rax
 2823      25280000 
 2823      00
 2824 00f6 7424     		je	.L152
 2825 00f8 EB1D     		jmp	.L154
 2826              	.L153:
 2827 00fa 4889C3   		movq	%rax, %rbx
 2828              	.LBB29:
 2829              	.LBB28:
 2830              	.LBB27:
  26:/home/asoreyh/Dropbox/projects/lago/lago-software/acqua/brc/lago/makestuff/libs/libutpp/Checks.h ****     }
 2831              		.loc 4 26 0
 2832 00fd 488D8580 		leaq	-384(%rbp), %rax
 2832      FEFFFF
 2833 0104 4889C7   		movq	%rax, %rdi
 2834 0107 E8000000 		call	_ZN8UnitTest15MemoryOutStreamD1Ev
 2834      00
 2835 010c 4889D8   		movq	%rbx, %rax
 2836 010f 4889C7   		movq	%rax, %rdi
 2837              	.LEHB115:
 2838 0112 E8000000 		call	_Unwind_Resume
 2838      00
 2839              	.LEHE115:
 2840              	.L154:
 2841              	.LBE27:
 2842              	.LBE28:
 2843              	.LBE29:
 2844              		.loc 4 28 0
 2845 0117 E8000000 		call	__stack_chk_fail
 2845      00
 2846              	.L152:
 2847 011c 4881C490 		addq	$400, %rsp
 2847      010000
 2848 0123 5B       		popq	%rbx
 2849 0124 415C     		popq	%r12
 2850 0126 5D       		popq	%rbp
 2851              		.cfi_def_cfa 7, 8
 2852 0127 C3       		ret
 2853              		.cfi_endproc
 2854              	.LFE1117:
 2855              		.section	.gcc_except_table
 2856              	.LLSDA1117:
 2857 0277 FF       		.byte	0xff
 2858 0278 FF       		.byte	0xff
 2859 0279 01       		.byte	0x1
 2860 027a 14       		.uleb128 .LLSDACSE1117-.LLSDACSB1117
 2861              	.LLSDACSB1117:
 2862 027b 5D       		.uleb128 .LEHB112-.LFB1117
 2863 027c 05       		.uleb128 .LEHE112-.LEHB112
 2864 027d 00       		.uleb128 0
 2865 027e 00       		.uleb128 0
 2866 027f 8801     		.uleb128 .LEHB113-.LFB1117
 2867 0281 52       		.uleb128 .LEHE113-.LEHB113
 2868 0282 FA01     		.uleb128 .L153-.LFB1117
 2869 0284 00       		.uleb128 0
 2870 0285 E401     		.uleb128 .LEHB114-.LFB1117
 2871 0287 05       		.uleb128 .LEHE114-.LEHB114
 2872 0288 00       		.uleb128 0
 2873 0289 00       		.uleb128 0
 2874 028a 9202     		.uleb128 .LEHB115-.LFB1117
 2875 028c 05       		.uleb128 .LEHE115-.LEHB115
 2876 028d 00       		.uleb128 0
 2877 028e 00       		.uleb128 0
 2878              	.LLSDACSE1117:
 2879              		.section	.text._ZN8UnitTest10CheckEqualI9I2CStatusS1_EEvRNS_11TestResultsERKT_RKT0_RKNS_11TestDeta
 2881              		.section	.text._ZN8UnitTest10CheckEqualImjEEvRNS_11TestResultsERKT_RKT0_RKNS_11TestDetailsE,"axG",
 2882              		.weak	_ZN8UnitTest10CheckEqualImjEEvRNS_11TestResultsERKT_RKT0_RKNS_11TestDetailsE
 2884              	_ZN8UnitTest10CheckEqualImjEEvRNS_11TestResultsERKT_RKT0_RKNS_11TestDetailsE:
 2885              	.LFB1118:
  19:/home/asoreyh/Dropbox/projects/lago/lago-software/acqua/brc/lago/makestuff/libs/libutpp/Checks.h **** {
 2886              		.loc 4 19 0
 2887              		.cfi_startproc
 2888              		.cfi_personality 0x3,__gxx_personality_v0
 2889              		.cfi_lsda 0x3,.LLSDA1118
 2890 0000 55       		pushq	%rbp
 2891              		.cfi_def_cfa_offset 16
 2892              		.cfi_offset 6, -16
 2893 0001 4889E5   		movq	%rsp, %rbp
 2894              		.cfi_def_cfa_register 6
 2895 0004 4154     		pushq	%r12
 2896 0006 53       		pushq	%rbx
 2897 0007 4881EC90 		subq	$400, %rsp
 2897      010000
 2898              		.cfi_offset 12, -24
 2899              		.cfi_offset 3, -32
 2900 000e 4889BD78 		movq	%rdi, -392(%rbp)
 2900      FEFFFF
 2901 0015 4889B570 		movq	%rsi, -400(%rbp)
 2901      FEFFFF
 2902 001c 48899568 		movq	%rdx, -408(%rbp)
 2902      FEFFFF
 2903 0023 48898D60 		movq	%rcx, -416(%rbp)
 2903      FEFFFF
  19:/home/asoreyh/Dropbox/projects/lago/lago-software/acqua/brc/lago/makestuff/libs/libutpp/Checks.h **** {
 2904              		.loc 4 19 0
 2905 002a 64488B04 		movq	%fs:40, %rax
 2905      25280000 
 2905      00
 2906 0033 488945E8 		movq	%rax, -24(%rbp)
 2907 0037 31C0     		xorl	%eax, %eax
 2908              	.LBB30:
 2909              	.LBB31:
  21:/home/asoreyh/Dropbox/projects/lago/lago-software/acqua/brc/lago/makestuff/libs/libutpp/Checks.h ****     {
 2910              		.loc 4 21 0
 2911 0039 488B8570 		movq	-400(%rbp), %rax
 2911      FEFFFF
 2912 0040 488B10   		movq	(%rax), %rdx
 2913 0043 488B8568 		movq	-408(%rbp), %rax
 2913      FEFFFF
 2914 004a 8B00     		movl	(%rax), %eax
 2915 004c 89C0     		movl	%eax, %eax
 2916 004e 4839C2   		cmpq	%rax, %rdx
 2917 0051 0F849200 		je	.L156
 2917      0000
 2918              	.LBB32:
  23:/home/asoreyh/Dropbox/projects/lago/lago-software/acqua/brc/lago/makestuff/libs/libutpp/Checks.h ****         stream << "Expected " << expected << " but was " << actual;
 2919              		.loc 4 23 0
 2920 0057 488D8580 		leaq	-384(%rbp), %rax
 2920      FEFFFF
 2921 005e 4889C7   		movq	%rax, %rdi
 2922              	.LEHB116:
 2923 0061 E8000000 		call	_ZN8UnitTest15MemoryOutStreamC1Ev
 2923      00
 2924              	.LEHE116:
  24:/home/asoreyh/Dropbox/projects/lago/lago-software/acqua/brc/lago/makestuff/libs/libutpp/Checks.h **** 
 2925              		.loc 4 24 0
 2926 0066 488B8568 		movq	-408(%rbp), %rax
 2926      FEFFFF
 2927 006d 8B18     		movl	(%rax), %ebx
 2928 006f 488B8570 		movq	-400(%rbp), %rax
 2928      FEFFFF
 2929 0076 4C8B20   		movq	(%rax), %r12
 2930 0079 488D8580 		leaq	-384(%rbp), %rax
 2930      FEFFFF
 2931 0080 BE000000 		movl	$.LC13, %esi
 2931      00
 2932 0085 4889C7   		movq	%rax, %rdi
 2933              	.LEHB117:
 2934 0088 E8000000 		call	_ZStlsISt11char_traitsIcEERSt13basic_ostreamIcT_ES5_PKc
 2934      00
 2935 008d 4C89E6   		movq	%r12, %rsi
 2936 0090 4889C7   		movq	%rax, %rdi
 2937 0093 E8000000 		call	_ZNSolsEm
 2937      00
  24:/home/asoreyh/Dropbox/projects/lago/lago-software/acqua/brc/lago/makestuff/libs/libutpp/Checks.h **** 
 2938              		.loc 4 24 0 is_stmt 0 discriminator 1
 2939 0098 BE000000 		movl	$.LC14, %esi
 2939      00
 2940 009d 4889C7   		movq	%rax, %rdi
 2941 00a0 E8000000 		call	_ZStlsISt11char_traitsIcEERSt13basic_ostreamIcT_ES5_PKc
 2941      00
  24:/home/asoreyh/Dropbox/projects/lago/lago-software/acqua/brc/lago/makestuff/libs/libutpp/Checks.h **** 
 2942              		.loc 4 24 0 discriminator 2
 2943 00a5 89DE     		movl	%ebx, %esi
 2944 00a7 4889C7   		movq	%rax, %rdi
 2945 00aa E8000000 		call	_ZNSolsEj
 2945      00
  26:/home/asoreyh/Dropbox/projects/lago/lago-software/acqua/brc/lago/makestuff/libs/libutpp/Checks.h ****     }
 2946              		.loc 4 26 0 is_stmt 1
 2947 00af 488D8580 		leaq	-384(%rbp), %rax
 2947      FEFFFF
 2948 00b6 4889C7   		movq	%rax, %rdi
 2949 00b9 E8000000 		call	_ZNK8UnitTest15MemoryOutStream7GetTextEv
 2949      00
 2950 00be 4889C2   		movq	%rax, %rdx
 2951 00c1 488B8D60 		movq	-416(%rbp), %rcx
 2951      FEFFFF
 2952 00c8 488B8578 		movq	-392(%rbp), %rax
 2952      FEFFFF
 2953 00cf 4889CE   		movq	%rcx, %rsi
 2954 00d2 4889C7   		movq	%rax, %rdi
 2955 00d5 E8000000 		call	_ZN8UnitTest11TestResults13OnTestFailureERKNS_11TestDetailsEPKc
 2955      00
 2956              	.LEHE117:
  26:/home/asoreyh/Dropbox/projects/lago/lago-software/acqua/brc/lago/makestuff/libs/libutpp/Checks.h ****     }
 2957              		.loc 4 26 0 is_stmt 0 discriminator 4
 2958 00da 488D8580 		leaq	-384(%rbp), %rax
 2958      FEFFFF
 2959 00e1 4889C7   		movq	%rax, %rdi
 2960              	.LEHB118:
 2961 00e4 E8000000 		call	_ZN8UnitTest15MemoryOutStreamD1Ev
 2961      00
 2962              	.LEHE118:
 2963              	.L156:
 2964              	.LBE32:
 2965              	.LBE31:
 2966              	.LBE30:
 2967              		.loc 4 28 0 is_stmt 1
 2968 00e9 488B45E8 		movq	-24(%rbp), %rax
 2969 00ed 64483304 		xorq	%fs:40, %rax
 2969      25280000 
 2969      00
 2970 00f6 7424     		je	.L158
 2971 00f8 EB1D     		jmp	.L160
 2972              	.L159:
 2973 00fa 4889C3   		movq	%rax, %rbx
 2974              	.LBB35:
 2975              	.LBB34:
 2976              	.LBB33:
  26:/home/asoreyh/Dropbox/projects/lago/lago-software/acqua/brc/lago/makestuff/libs/libutpp/Checks.h ****     }
 2977              		.loc 4 26 0
 2978 00fd 488D8580 		leaq	-384(%rbp), %rax
 2978      FEFFFF
 2979 0104 4889C7   		movq	%rax, %rdi
 2980 0107 E8000000 		call	_ZN8UnitTest15MemoryOutStreamD1Ev
 2980      00
 2981 010c 4889D8   		movq	%rbx, %rax
 2982 010f 4889C7   		movq	%rax, %rdi
 2983              	.LEHB119:
 2984 0112 E8000000 		call	_Unwind_Resume
 2984      00
 2985              	.LEHE119:
 2986              	.L160:
 2987              	.LBE33:
 2988              	.LBE34:
 2989              	.LBE35:
 2990              		.loc 4 28 0
 2991 0117 E8000000 		call	__stack_chk_fail
 2991      00
 2992              	.L158:
 2993 011c 4881C490 		addq	$400, %rsp
 2993      010000
 2994 0123 5B       		popq	%rbx
 2995 0124 415C     		popq	%r12
 2996 0126 5D       		popq	%rbp
 2997              		.cfi_def_cfa 7, 8
 2998 0127 C3       		ret
 2999              		.cfi_endproc
 3000              	.LFE1118:
 3001              		.section	.gcc_except_table
 3002              	.LLSDA1118:
 3003 028f FF       		.byte	0xff
 3004 0290 FF       		.byte	0xff
 3005 0291 01       		.byte	0x1
 3006 0292 14       		.uleb128 .LLSDACSE1118-.LLSDACSB1118
 3007              	.LLSDACSB1118:
 3008 0293 61       		.uleb128 .LEHB116-.LFB1118
 3009 0294 05       		.uleb128 .LEHE116-.LEHB116
 3010 0295 00       		.uleb128 0
 3011 0296 00       		.uleb128 0
 3012 0297 8801     		.uleb128 .LEHB117-.LFB1118
 3013 0299 52       		.uleb128 .LEHE117-.LEHB117
 3014 029a FA01     		.uleb128 .L159-.LFB1118
 3015 029c 00       		.uleb128 0
 3016 029d E401     		.uleb128 .LEHB118-.LFB1118
 3017 029f 05       		.uleb128 .LEHE118-.LEHB118
 3018 02a0 00       		.uleb128 0
 3019 02a1 00       		.uleb128 0
 3020 02a2 9202     		.uleb128 .LEHB119-.LFB1118
 3021 02a4 05       		.uleb128 .LEHE119-.LEHB119
 3022 02a5 00       		.uleb128 0
 3023 02a6 00       		.uleb128 0
 3024              	.LLSDACSE1118:
 3025              		.section	.text._ZN8UnitTest10CheckEqualImjEEvRNS_11TestResultsERKT_RKT0_RKNS_11TestDetailsE,"axG",
 3027              		.section	.rodata
 3028              	.LC15:
 3029 024c 45787065 		.string	"Expected [ "
 3029      63746564 
 3029      205B2000 
 3030              	.LC16:
 3031 0258 2000     		.string	" "
 3032              	.LC17:
 3033 025a 5D206275 		.string	"] but was [ "
 3033      74207761 
 3033      73205B20 
 3033      00
 3034              	.LC18:
 3035 0267 5D00     		.string	"]"
 3036              		.section	.text._ZN8UnitTest15CheckArrayEqualIA13_hPhEEvRNS_11TestResultsERKT_RKT0_iRKNS_11TestDeta
 3037              		.weak	_ZN8UnitTest15CheckArrayEqualIA13_hPhEEvRNS_11TestResultsERKT_RKT0_iRKNS_11TestDetailsE
 3039              	_ZN8UnitTest15CheckArrayEqualIA13_hPhEEvRNS_11TestResultsERKT_RKT0_iRKNS_11TestDetailsE:
 3040              	.LFB1119:
  29:/home/asoreyh/Dropbox/projects/lago/lago-software/acqua/brc/lago/makestuff/libs/libutpp/Checks.h **** 
  30:/home/asoreyh/Dropbox/projects/lago/lago-software/acqua/brc/lago/makestuff/libs/libutpp/Checks.h **** void CheckEqual(TestResults& results, char const* expected, char const* actual, TestDetails const& 
  31:/home/asoreyh/Dropbox/projects/lago/lago-software/acqua/brc/lago/makestuff/libs/libutpp/Checks.h **** 
  32:/home/asoreyh/Dropbox/projects/lago/lago-software/acqua/brc/lago/makestuff/libs/libutpp/Checks.h **** void CheckEqual(TestResults& results, char* expected, char* actual, TestDetails const& details);
  33:/home/asoreyh/Dropbox/projects/lago/lago-software/acqua/brc/lago/makestuff/libs/libutpp/Checks.h **** 
  34:/home/asoreyh/Dropbox/projects/lago/lago-software/acqua/brc/lago/makestuff/libs/libutpp/Checks.h **** void CheckEqual(TestResults& results, char* expected, char const* actual, TestDetails const& detail
  35:/home/asoreyh/Dropbox/projects/lago/lago-software/acqua/brc/lago/makestuff/libs/libutpp/Checks.h **** 
  36:/home/asoreyh/Dropbox/projects/lago/lago-software/acqua/brc/lago/makestuff/libs/libutpp/Checks.h **** void CheckEqual(TestResults& results, char const* expected, char* actual, TestDetails const& detail
  37:/home/asoreyh/Dropbox/projects/lago/lago-software/acqua/brc/lago/makestuff/libs/libutpp/Checks.h **** 
  38:/home/asoreyh/Dropbox/projects/lago/lago-software/acqua/brc/lago/makestuff/libs/libutpp/Checks.h **** template< typename Expected, typename Actual, typename Tolerance >
  39:/home/asoreyh/Dropbox/projects/lago/lago-software/acqua/brc/lago/makestuff/libs/libutpp/Checks.h **** bool AreClose(Expected const& expected, Actual const& actual, Tolerance const& tolerance)
  40:/home/asoreyh/Dropbox/projects/lago/lago-software/acqua/brc/lago/makestuff/libs/libutpp/Checks.h **** {
  41:/home/asoreyh/Dropbox/projects/lago/lago-software/acqua/brc/lago/makestuff/libs/libutpp/Checks.h ****     return (actual >= (expected - tolerance)) && (actual <= (expected + tolerance));
  42:/home/asoreyh/Dropbox/projects/lago/lago-software/acqua/brc/lago/makestuff/libs/libutpp/Checks.h **** }
  43:/home/asoreyh/Dropbox/projects/lago/lago-software/acqua/brc/lago/makestuff/libs/libutpp/Checks.h **** 
  44:/home/asoreyh/Dropbox/projects/lago/lago-software/acqua/brc/lago/makestuff/libs/libutpp/Checks.h **** template< typename Expected, typename Actual, typename Tolerance >
  45:/home/asoreyh/Dropbox/projects/lago/lago-software/acqua/brc/lago/makestuff/libs/libutpp/Checks.h **** void CheckClose(TestResults& results, Expected const& expected, Actual const& actual, Tolerance con
  46:/home/asoreyh/Dropbox/projects/lago/lago-software/acqua/brc/lago/makestuff/libs/libutpp/Checks.h ****                 TestDetails const& details)
  47:/home/asoreyh/Dropbox/projects/lago/lago-software/acqua/brc/lago/makestuff/libs/libutpp/Checks.h **** {
  48:/home/asoreyh/Dropbox/projects/lago/lago-software/acqua/brc/lago/makestuff/libs/libutpp/Checks.h ****     if (!AreClose(expected, actual, tolerance))
  49:/home/asoreyh/Dropbox/projects/lago/lago-software/acqua/brc/lago/makestuff/libs/libutpp/Checks.h ****     { 
  50:/home/asoreyh/Dropbox/projects/lago/lago-software/acqua/brc/lago/makestuff/libs/libutpp/Checks.h ****         UnitTest::MemoryOutStream stream;
  51:/home/asoreyh/Dropbox/projects/lago/lago-software/acqua/brc/lago/makestuff/libs/libutpp/Checks.h ****         stream << "Expected " << expected << " +/- " << tolerance << " but was " << actual;
  52:/home/asoreyh/Dropbox/projects/lago/lago-software/acqua/brc/lago/makestuff/libs/libutpp/Checks.h **** 
  53:/home/asoreyh/Dropbox/projects/lago/lago-software/acqua/brc/lago/makestuff/libs/libutpp/Checks.h ****         results.OnTestFailure(details, stream.GetText());
  54:/home/asoreyh/Dropbox/projects/lago/lago-software/acqua/brc/lago/makestuff/libs/libutpp/Checks.h ****     }
  55:/home/asoreyh/Dropbox/projects/lago/lago-software/acqua/brc/lago/makestuff/libs/libutpp/Checks.h **** }
  56:/home/asoreyh/Dropbox/projects/lago/lago-software/acqua/brc/lago/makestuff/libs/libutpp/Checks.h **** 
  57:/home/asoreyh/Dropbox/projects/lago/lago-software/acqua/brc/lago/makestuff/libs/libutpp/Checks.h **** 
  58:/home/asoreyh/Dropbox/projects/lago/lago-software/acqua/brc/lago/makestuff/libs/libutpp/Checks.h **** template< typename Expected, typename Actual >
  59:/home/asoreyh/Dropbox/projects/lago/lago-software/acqua/brc/lago/makestuff/libs/libutpp/Checks.h **** void CheckArrayEqual(TestResults& results, Expected const& expected, Actual const& actual,
 3041              		.loc 4 59 0
 3042              		.cfi_startproc
 3043              		.cfi_personality 0x3,__gxx_personality_v0
 3044              		.cfi_lsda 0x3,.LLSDA1119
 3045 0000 55       		pushq	%rbp
 3046              		.cfi_def_cfa_offset 16
 3047              		.cfi_offset 6, -16
 3048 0001 4889E5   		movq	%rsp, %rbp
 3049              		.cfi_def_cfa_register 6
 3050 0004 53       		pushq	%rbx
 3051 0005 4881ECB8 		subq	$440, %rsp
 3051      010000
 3052              		.cfi_offset 3, -24
 3053 000c 4889BD68 		movq	%rdi, -408(%rbp)
 3053      FEFFFF
 3054 0013 4889B560 		movq	%rsi, -416(%rbp)
 3054      FEFFFF
 3055 001a 48899558 		movq	%rdx, -424(%rbp)
 3055      FEFFFF
 3056 0021 898D54FE 		movl	%ecx, -428(%rbp)
 3056      FFFF
 3057 0027 4C898548 		movq	%r8, -440(%rbp)
 3057      FEFFFF
 3058              		.loc 4 59 0
 3059 002e 64488B04 		movq	%fs:40, %rax
 3059      25280000 
 3059      00
 3060 0037 488945E8 		movq	%rax, -24(%rbp)
 3061 003b 31C0     		xorl	%eax, %eax
 3062              	.LBB36:
  60:/home/asoreyh/Dropbox/projects/lago/lago-software/acqua/brc/lago/makestuff/libs/libutpp/Checks.h ****                 int const count, TestDetails const& details)
  61:/home/asoreyh/Dropbox/projects/lago/lago-software/acqua/brc/lago/makestuff/libs/libutpp/Checks.h **** {
  62:/home/asoreyh/Dropbox/projects/lago/lago-software/acqua/brc/lago/makestuff/libs/libutpp/Checks.h ****     bool equal = true;
 3063              		.loc 4 62 0
 3064 003d C68573FE 		movb	$1, -397(%rbp)
 3064      FFFF01
 3065              	.LBB37:
  63:/home/asoreyh/Dropbox/projects/lago/lago-software/acqua/brc/lago/makestuff/libs/libutpp/Checks.h ****     for (int i = 0; i < count; ++i)
 3066              		.loc 4 63 0
 3067 0044 C78574FE 		movl	$0, -396(%rbp)
 3067      FFFF0000 
 3067      0000
 3068 004e EB4E     		jmp	.L162
 3069              	.L163:
  64:/home/asoreyh/Dropbox/projects/lago/lago-software/acqua/brc/lago/makestuff/libs/libutpp/Checks.h ****         equal &= (expected[i] == actual[i]);
 3070              		.loc 4 64 0 discriminator 3
 3071 0050 0FB68D73 		movzbl	-397(%rbp), %ecx
 3071      FEFFFF
 3072 0057 488B9560 		movq	-416(%rbp), %rdx
 3072      FEFFFF
 3073 005e 8B8574FE 		movl	-396(%rbp), %eax
 3073      FFFF
 3074 0064 4898     		cltq
 3075 0066 0FB61402 		movzbl	(%rdx,%rax), %edx
 3076 006a 488B8558 		movq	-424(%rbp), %rax
 3076      FEFFFF
 3077 0071 488B30   		movq	(%rax), %rsi
 3078 0074 8B8574FE 		movl	-396(%rbp), %eax
 3078      FFFF
 3079 007a 4898     		cltq
 3080 007c 4801F0   		addq	%rsi, %rax
 3081 007f 0FB600   		movzbl	(%rax), %eax
 3082 0082 38C2     		cmpb	%al, %dl
 3083 0084 0F94C0   		sete	%al
 3084 0087 0FB6C0   		movzbl	%al, %eax
 3085 008a 21C8     		andl	%ecx, %eax
 3086 008c 85C0     		testl	%eax, %eax
 3087 008e 0F95C0   		setne	%al
 3088 0091 888573FE 		movb	%al, -397(%rbp)
 3088      FFFF
  63:/home/asoreyh/Dropbox/projects/lago/lago-software/acqua/brc/lago/makestuff/libs/libutpp/Checks.h ****     for (int i = 0; i < count; ++i)
 3089              		.loc 4 63 0 discriminator 3
 3090 0097 838574FE 		addl	$1, -396(%rbp)
 3090      FFFF01
 3091              	.L162:
  63:/home/asoreyh/Dropbox/projects/lago/lago-software/acqua/brc/lago/makestuff/libs/libutpp/Checks.h ****     for (int i = 0; i < count; ++i)
 3092              		.loc 4 63 0 is_stmt 0 discriminator 1
 3093 009e 8B8574FE 		movl	-396(%rbp), %eax
 3093      FFFF
 3094 00a4 3B8554FE 		cmpl	-428(%rbp), %eax
 3094      FFFF
 3095 00aa 7CA4     		jl	.L163
 3096              	.LBE37:
 3097              	.LBB38:
  65:/home/asoreyh/Dropbox/projects/lago/lago-software/acqua/brc/lago/makestuff/libs/libutpp/Checks.h **** 
  66:/home/asoreyh/Dropbox/projects/lago/lago-software/acqua/brc/lago/makestuff/libs/libutpp/Checks.h ****     if (!equal)
 3098              		.loc 4 66 0 is_stmt 1
 3099 00ac 0FB68573 		movzbl	-397(%rbp), %eax
 3099      FEFFFF
 3100 00b3 83F001   		xorl	$1, %eax
 3101 00b6 84C0     		testb	%al, %al
 3102 00b8 0F843401 		je	.L164
 3102      0000
 3103              	.LBB39:
  67:/home/asoreyh/Dropbox/projects/lago/lago-software/acqua/brc/lago/makestuff/libs/libutpp/Checks.h ****     {
  68:/home/asoreyh/Dropbox/projects/lago/lago-software/acqua/brc/lago/makestuff/libs/libutpp/Checks.h ****         UnitTest::MemoryOutStream stream;
 3104              		.loc 4 68 0
 3105 00be 488D8580 		leaq	-384(%rbp), %rax
 3105      FEFFFF
 3106 00c5 4889C7   		movq	%rax, %rdi
 3107              	.LEHB120:
 3108 00c8 E8000000 		call	_ZN8UnitTest15MemoryOutStreamC1Ev
 3108      00
 3109              	.LEHE120:
  69:/home/asoreyh/Dropbox/projects/lago/lago-software/acqua/brc/lago/makestuff/libs/libutpp/Checks.h **** 
  70:/home/asoreyh/Dropbox/projects/lago/lago-software/acqua/brc/lago/makestuff/libs/libutpp/Checks.h **** 		stream << "Expected [ ";
 3110              		.loc 4 70 0
 3111 00cd 488D8580 		leaq	-384(%rbp), %rax
 3111      FEFFFF
 3112 00d4 BE000000 		movl	$.LC15, %esi
 3112      00
 3113 00d9 4889C7   		movq	%rax, %rdi
 3114              	.LEHB121:
 3115 00dc E8000000 		call	_ZStlsISt11char_traitsIcEERSt13basic_ostreamIcT_ES5_PKc
 3115      00
 3116              	.LBB40:
  71:/home/asoreyh/Dropbox/projects/lago/lago-software/acqua/brc/lago/makestuff/libs/libutpp/Checks.h **** 
  72:/home/asoreyh/Dropbox/projects/lago/lago-software/acqua/brc/lago/makestuff/libs/libutpp/Checks.h **** 		for (int expectedIndex = 0; expectedIndex < count; ++expectedIndex)
 3117              		.loc 4 72 0
 3118 00e1 C78578FE 		movl	$0, -392(%rbp)
 3118      FFFF0000 
 3118      0000
 3119 00eb EB3B     		jmp	.L165
 3120              	.L166:
  73:/home/asoreyh/Dropbox/projects/lago/lago-software/acqua/brc/lago/makestuff/libs/libutpp/Checks.h ****             stream << expected[expectedIndex] << " ";
 3121              		.loc 4 73 0
 3122 00ed 488B9560 		movq	-416(%rbp), %rdx
 3122      FEFFFF
 3123 00f4 8B8578FE 		movl	-392(%rbp), %eax
 3123      FFFF
 3124 00fa 4898     		cltq
 3125 00fc 0FB60402 		movzbl	(%rdx,%rax), %eax
 3126 0100 0FB6D0   		movzbl	%al, %edx
 3127 0103 488D8580 		leaq	-384(%rbp), %rax
 3127      FEFFFF
 3128 010a 89D6     		movl	%edx, %esi
 3129 010c 4889C7   		movq	%rax, %rdi
 3130 010f E8000000 		call	_ZStlsISt11char_traitsIcEERSt13basic_ostreamIcT_ES5_h
 3130      00
 3131 0114 BE000000 		movl	$.LC16, %esi
 3131      00
 3132 0119 4889C7   		movq	%rax, %rdi
 3133 011c E8000000 		call	_ZStlsISt11char_traitsIcEERSt13basic_ostreamIcT_ES5_PKc
 3133      00
  72:/home/asoreyh/Dropbox/projects/lago/lago-software/acqua/brc/lago/makestuff/libs/libutpp/Checks.h ****             stream << expected[expectedIndex] << " ";
 3134              		.loc 4 72 0 discriminator 2
 3135 0121 838578FE 		addl	$1, -392(%rbp)
 3135      FFFF01
 3136              	.L165:
  72:/home/asoreyh/Dropbox/projects/lago/lago-software/acqua/brc/lago/makestuff/libs/libutpp/Checks.h ****             stream << expected[expectedIndex] << " ";
 3137              		.loc 4 72 0 is_stmt 0 discriminator 1
 3138 0128 8B8578FE 		movl	-392(%rbp), %eax
 3138      FFFF
 3139 012e 3B8554FE 		cmpl	-428(%rbp), %eax
 3139      FFFF
 3140 0134 7CB7     		jl	.L166
 3141              	.LBE40:
  74:/home/asoreyh/Dropbox/projects/lago/lago-software/acqua/brc/lago/makestuff/libs/libutpp/Checks.h **** 
  75:/home/asoreyh/Dropbox/projects/lago/lago-software/acqua/brc/lago/makestuff/libs/libutpp/Checks.h **** 		stream << "] but was [ ";
 3142              		.loc 4 75 0 is_stmt 1
 3143 0136 488D8580 		leaq	-384(%rbp), %rax
 3143      FEFFFF
 3144 013d BE000000 		movl	$.LC17, %esi
 3144      00
 3145 0142 4889C7   		movq	%rax, %rdi
 3146 0145 E8000000 		call	_ZStlsISt11char_traitsIcEERSt13basic_ostreamIcT_ES5_PKc
 3146      00
 3147              	.LBB41:
  76:/home/asoreyh/Dropbox/projects/lago/lago-software/acqua/brc/lago/makestuff/libs/libutpp/Checks.h **** 
  77:/home/asoreyh/Dropbox/projects/lago/lago-software/acqua/brc/lago/makestuff/libs/libutpp/Checks.h **** 		for (int actualIndex = 0; actualIndex < count; ++actualIndex)
 3148              		.loc 4 77 0
 3149 014a C7857CFE 		movl	$0, -388(%rbp)
 3149      FFFF0000 
 3149      0000
 3150 0154 EB40     		jmp	.L167
 3151              	.L168:
  78:/home/asoreyh/Dropbox/projects/lago/lago-software/acqua/brc/lago/makestuff/libs/libutpp/Checks.h ****             stream << actual[actualIndex] << " ";
 3152              		.loc 4 78 0
 3153 0156 488B8558 		movq	-424(%rbp), %rax
 3153      FEFFFF
 3154 015d 488B10   		movq	(%rax), %rdx
 3155 0160 8B857CFE 		movl	-388(%rbp), %eax
 3155      FFFF
 3156 0166 4898     		cltq
 3157 0168 4801D0   		addq	%rdx, %rax
 3158 016b 0FB600   		movzbl	(%rax), %eax
 3159 016e 0FB6D0   		movzbl	%al, %edx
 3160 0171 488D8580 		leaq	-384(%rbp), %rax
 3160      FEFFFF
 3161 0178 89D6     		movl	%edx, %esi
 3162 017a 4889C7   		movq	%rax, %rdi
 3163 017d E8000000 		call	_ZStlsISt11char_traitsIcEERSt13basic_ostreamIcT_ES5_h
 3163      00
 3164 0182 BE000000 		movl	$.LC16, %esi
 3164      00
 3165 0187 4889C7   		movq	%rax, %rdi
 3166 018a E8000000 		call	_ZStlsISt11char_traitsIcEERSt13basic_ostreamIcT_ES5_PKc
 3166      00
  77:/home/asoreyh/Dropbox/projects/lago/lago-software/acqua/brc/lago/makestuff/libs/libutpp/Checks.h ****             stream << actual[actualIndex] << " ";
 3167              		.loc 4 77 0 discriminator 2
 3168 018f 83857CFE 		addl	$1, -388(%rbp)
 3168      FFFF01
 3169              	.L167:
  77:/home/asoreyh/Dropbox/projects/lago/lago-software/acqua/brc/lago/makestuff/libs/libutpp/Checks.h ****             stream << actual[actualIndex] << " ";
 3170              		.loc 4 77 0 is_stmt 0 discriminator 1
 3171 0196 8B857CFE 		movl	-388(%rbp), %eax
 3171      FFFF
 3172 019c 3B8554FE 		cmpl	-428(%rbp), %eax
 3172      FFFF
 3173 01a2 7CB2     		jl	.L168
 3174              	.LBE41:
  79:/home/asoreyh/Dropbox/projects/lago/lago-software/acqua/brc/lago/makestuff/libs/libutpp/Checks.h **** 
  80:/home/asoreyh/Dropbox/projects/lago/lago-software/acqua/brc/lago/makestuff/libs/libutpp/Checks.h **** 		stream << "]";
 3175              		.loc 4 80 0 is_stmt 1
 3176 01a4 488D8580 		leaq	-384(%rbp), %rax
 3176      FEFFFF
 3177 01ab BE000000 		movl	$.LC18, %esi
 3177      00
 3178 01b0 4889C7   		movq	%rax, %rdi
 3179 01b3 E8000000 		call	_ZStlsISt11char_traitsIcEERSt13basic_ostreamIcT_ES5_PKc
 3179      00
  81:/home/asoreyh/Dropbox/projects/lago/lago-software/acqua/brc/lago/makestuff/libs/libutpp/Checks.h **** 
  82:/home/asoreyh/Dropbox/projects/lago/lago-software/acqua/brc/lago/makestuff/libs/libutpp/Checks.h ****         results.OnTestFailure(details, stream.GetText());
 3180              		.loc 4 82 0
 3181 01b8 488D8580 		leaq	-384(%rbp), %rax
 3181      FEFFFF
 3182 01bf 4889C7   		movq	%rax, %rdi
 3183 01c2 E8000000 		call	_ZNK8UnitTest15MemoryOutStream7GetTextEv
 3183      00
 3184 01c7 4889C2   		movq	%rax, %rdx
 3185 01ca 488B8D48 		movq	-440(%rbp), %rcx
 3185      FEFFFF
 3186 01d1 488B8568 		movq	-408(%rbp), %rax
 3186      FEFFFF
 3187 01d8 4889CE   		movq	%rcx, %rsi
 3188 01db 4889C7   		movq	%rax, %rdi
 3189 01de E8000000 		call	_ZN8UnitTest11TestResults13OnTestFailureERKNS_11TestDetailsEPKc
 3189      00
 3190              	.LEHE121:
 3191              		.loc 4 82 0 is_stmt 0 discriminator 4
 3192 01e3 488D8580 		leaq	-384(%rbp), %rax
 3192      FEFFFF
 3193 01ea 4889C7   		movq	%rax, %rdi
 3194              	.LEHB122:
 3195 01ed E8000000 		call	_ZN8UnitTest15MemoryOutStreamD1Ev
 3195      00
 3196              	.LEHE122:
 3197              	.L164:
 3198              	.LBE39:
 3199              	.LBE38:
 3200              	.LBE36:
  83:/home/asoreyh/Dropbox/projects/lago/lago-software/acqua/brc/lago/makestuff/libs/libutpp/Checks.h ****     }
  84:/home/asoreyh/Dropbox/projects/lago/lago-software/acqua/brc/lago/makestuff/libs/libutpp/Checks.h **** }
 3201              		.loc 4 84 0 is_stmt 1
 3202 01f2 488B45E8 		movq	-24(%rbp), %rax
 3203 01f6 64483304 		xorq	%fs:40, %rax
 3203      25280000 
 3203      00
 3204 01ff 7424     		je	.L170
 3205 0201 EB1D     		jmp	.L172
 3206              	.L171:
 3207 0203 4889C3   		movq	%rax, %rbx
 3208              	.LBB44:
 3209              	.LBB43:
 3210              	.LBB42:
  82:/home/asoreyh/Dropbox/projects/lago/lago-software/acqua/brc/lago/makestuff/libs/libutpp/Checks.h ****     }
 3211              		.loc 4 82 0
 3212 0206 488D8580 		leaq	-384(%rbp), %rax
 3212      FEFFFF
 3213 020d 4889C7   		movq	%rax, %rdi
 3214 0210 E8000000 		call	_ZN8UnitTest15MemoryOutStreamD1Ev
 3214      00
 3215 0215 4889D8   		movq	%rbx, %rax
 3216 0218 4889C7   		movq	%rax, %rdi
 3217              	.LEHB123:
 3218 021b E8000000 		call	_Unwind_Resume
 3218      00
 3219              	.LEHE123:
 3220              	.L172:
 3221              	.LBE42:
 3222              	.LBE43:
 3223              	.LBE44:
 3224              		.loc 4 84 0
 3225 0220 E8000000 		call	__stack_chk_fail
 3225      00
 3226              	.L170:
 3227 0225 4881C4B8 		addq	$440, %rsp
 3227      010000
 3228 022c 5B       		popq	%rbx
 3229 022d 5D       		popq	%rbp
 3230              		.cfi_def_cfa 7, 8
 3231 022e C3       		ret
 3232              		.cfi_endproc
 3233              	.LFE1119:
 3234              		.section	.gcc_except_table
 3235              	.LLSDA1119:
 3236 02a7 FF       		.byte	0xff
 3237 02a8 FF       		.byte	0xff
 3238 02a9 01       		.byte	0x1
 3239 02aa 16       		.uleb128 .LLSDACSE1119-.LLSDACSB1119
 3240              	.LLSDACSB1119:
 3241 02ab C801     		.uleb128 .LEHB120-.LFB1119
 3242 02ad 05       		.uleb128 .LEHE120-.LEHB120
 3243 02ae 00       		.uleb128 0
 3244 02af 00       		.uleb128 0
 3245 02b0 DC01     		.uleb128 .LEHB121-.LFB1119
 3246 02b2 8702     		.uleb128 .LEHE121-.LEHB121
 3247 02b4 8304     		.uleb128 .L171-.LFB1119
 3248 02b6 00       		.uleb128 0
 3249 02b7 ED03     		.uleb128 .LEHB122-.LFB1119
 3250 02b9 05       		.uleb128 .LEHE122-.LEHB122
 3251 02ba 00       		.uleb128 0
 3252 02bb 00       		.uleb128 0
 3253 02bc 9B04     		.uleb128 .LEHB123-.LFB1119
 3254 02be 05       		.uleb128 .LEHE123-.LEHB123
 3255 02bf 00       		.uleb128 0
 3256 02c0 00       		.uleb128 0
 3257              	.LLSDACSE1119:
 3258              		.section	.text._ZN8UnitTest15CheckArrayEqualIA13_hPhEEvRNS_11TestResultsERKT_RKT0_iRKNS_11TestDeta
 3260              		.section	.text._ZN8UnitTest15CheckArrayEqualIA16_hPhEEvRNS_11TestResultsERKT_RKT0_iRKNS_11TestDeta
 3261              		.weak	_ZN8UnitTest15CheckArrayEqualIA16_hPhEEvRNS_11TestResultsERKT_RKT0_iRKNS_11TestDetailsE
 3263              	_ZN8UnitTest15CheckArrayEqualIA16_hPhEEvRNS_11TestResultsERKT_RKT0_iRKNS_11TestDetailsE:
 3264              	.LFB1120:
  59:/home/asoreyh/Dropbox/projects/lago/lago-software/acqua/brc/lago/makestuff/libs/libutpp/Checks.h ****                 int const count, TestDetails const& details)
 3265              		.loc 4 59 0
 3266              		.cfi_startproc
 3267              		.cfi_personality 0x3,__gxx_personality_v0
 3268              		.cfi_lsda 0x3,.LLSDA1120
 3269 0000 55       		pushq	%rbp
 3270              		.cfi_def_cfa_offset 16
 3271              		.cfi_offset 6, -16
 3272 0001 4889E5   		movq	%rsp, %rbp
 3273              		.cfi_def_cfa_register 6
 3274 0004 53       		pushq	%rbx
 3275 0005 4881ECB8 		subq	$440, %rsp
 3275      010000
 3276              		.cfi_offset 3, -24
 3277 000c 4889BD68 		movq	%rdi, -408(%rbp)
 3277      FEFFFF
 3278 0013 4889B560 		movq	%rsi, -416(%rbp)
 3278      FEFFFF
 3279 001a 48899558 		movq	%rdx, -424(%rbp)
 3279      FEFFFF
 3280 0021 898D54FE 		movl	%ecx, -428(%rbp)
 3280      FFFF
 3281 0027 4C898548 		movq	%r8, -440(%rbp)
 3281      FEFFFF
  59:/home/asoreyh/Dropbox/projects/lago/lago-software/acqua/brc/lago/makestuff/libs/libutpp/Checks.h ****                 int const count, TestDetails const& details)
 3282              		.loc 4 59 0
 3283 002e 64488B04 		movq	%fs:40, %rax
 3283      25280000 
 3283      00
 3284 0037 488945E8 		movq	%rax, -24(%rbp)
 3285 003b 31C0     		xorl	%eax, %eax
 3286              	.LBB45:
  62:/home/asoreyh/Dropbox/projects/lago/lago-software/acqua/brc/lago/makestuff/libs/libutpp/Checks.h ****     for (int i = 0; i < count; ++i)
 3287              		.loc 4 62 0
 3288 003d C68573FE 		movb	$1, -397(%rbp)
 3288      FFFF01
 3289              	.LBB46:
  63:/home/asoreyh/Dropbox/projects/lago/lago-software/acqua/brc/lago/makestuff/libs/libutpp/Checks.h ****         equal &= (expected[i] == actual[i]);
 3290              		.loc 4 63 0
 3291 0044 C78574FE 		movl	$0, -396(%rbp)
 3291      FFFF0000 
 3291      0000
 3292 004e EB4E     		jmp	.L174
 3293              	.L175:
  64:/home/asoreyh/Dropbox/projects/lago/lago-software/acqua/brc/lago/makestuff/libs/libutpp/Checks.h **** 
 3294              		.loc 4 64 0 discriminator 3
 3295 0050 0FB68D73 		movzbl	-397(%rbp), %ecx
 3295      FEFFFF
 3296 0057 488B9560 		movq	-416(%rbp), %rdx
 3296      FEFFFF
 3297 005e 8B8574FE 		movl	-396(%rbp), %eax
 3297      FFFF
 3298 0064 4898     		cltq
 3299 0066 0FB61402 		movzbl	(%rdx,%rax), %edx
 3300 006a 488B8558 		movq	-424(%rbp), %rax
 3300      FEFFFF
 3301 0071 488B30   		movq	(%rax), %rsi
 3302 0074 8B8574FE 		movl	-396(%rbp), %eax
 3302      FFFF
 3303 007a 4898     		cltq
 3304 007c 4801F0   		addq	%rsi, %rax
 3305 007f 0FB600   		movzbl	(%rax), %eax
 3306 0082 38C2     		cmpb	%al, %dl
 3307 0084 0F94C0   		sete	%al
 3308 0087 0FB6C0   		movzbl	%al, %eax
 3309 008a 21C8     		andl	%ecx, %eax
 3310 008c 85C0     		testl	%eax, %eax
 3311 008e 0F95C0   		setne	%al
 3312 0091 888573FE 		movb	%al, -397(%rbp)
 3312      FFFF
  63:/home/asoreyh/Dropbox/projects/lago/lago-software/acqua/brc/lago/makestuff/libs/libutpp/Checks.h ****         equal &= (expected[i] == actual[i]);
 3313              		.loc 4 63 0 discriminator 3
 3314 0097 838574FE 		addl	$1, -396(%rbp)
 3314      FFFF01
 3315              	.L174:
  63:/home/asoreyh/Dropbox/projects/lago/lago-software/acqua/brc/lago/makestuff/libs/libutpp/Checks.h ****         equal &= (expected[i] == actual[i]);
 3316              		.loc 4 63 0 is_stmt 0 discriminator 1
 3317 009e 8B8574FE 		movl	-396(%rbp), %eax
 3317      FFFF
 3318 00a4 3B8554FE 		cmpl	-428(%rbp), %eax
 3318      FFFF
 3319 00aa 7CA4     		jl	.L175
 3320              	.LBE46:
 3321              	.LBB47:
  66:/home/asoreyh/Dropbox/projects/lago/lago-software/acqua/brc/lago/makestuff/libs/libutpp/Checks.h ****     {
 3322              		.loc 4 66 0 is_stmt 1
 3323 00ac 0FB68573 		movzbl	-397(%rbp), %eax
 3323      FEFFFF
 3324 00b3 83F001   		xorl	$1, %eax
 3325 00b6 84C0     		testb	%al, %al
 3326 00b8 0F843401 		je	.L176
 3326      0000
 3327              	.LBB48:
  68:/home/asoreyh/Dropbox/projects/lago/lago-software/acqua/brc/lago/makestuff/libs/libutpp/Checks.h **** 
 3328              		.loc 4 68 0
 3329 00be 488D8580 		leaq	-384(%rbp), %rax
 3329      FEFFFF
 3330 00c5 4889C7   		movq	%rax, %rdi
 3331              	.LEHB124:
 3332 00c8 E8000000 		call	_ZN8UnitTest15MemoryOutStreamC1Ev
 3332      00
 3333              	.LEHE124:
  70:/home/asoreyh/Dropbox/projects/lago/lago-software/acqua/brc/lago/makestuff/libs/libutpp/Checks.h **** 
 3334              		.loc 4 70 0
 3335 00cd 488D8580 		leaq	-384(%rbp), %rax
 3335      FEFFFF
 3336 00d4 BE000000 		movl	$.LC15, %esi
 3336      00
 3337 00d9 4889C7   		movq	%rax, %rdi
 3338              	.LEHB125:
 3339 00dc E8000000 		call	_ZStlsISt11char_traitsIcEERSt13basic_ostreamIcT_ES5_PKc
 3339      00
 3340              	.LBB49:
  72:/home/asoreyh/Dropbox/projects/lago/lago-software/acqua/brc/lago/makestuff/libs/libutpp/Checks.h ****             stream << expected[expectedIndex] << " ";
 3341              		.loc 4 72 0
 3342 00e1 C78578FE 		movl	$0, -392(%rbp)
 3342      FFFF0000 
 3342      0000
 3343 00eb EB3B     		jmp	.L177
 3344              	.L178:
  73:/home/asoreyh/Dropbox/projects/lago/lago-software/acqua/brc/lago/makestuff/libs/libutpp/Checks.h **** 
 3345              		.loc 4 73 0
 3346 00ed 488B9560 		movq	-416(%rbp), %rdx
 3346      FEFFFF
 3347 00f4 8B8578FE 		movl	-392(%rbp), %eax
 3347      FFFF
 3348 00fa 4898     		cltq
 3349 00fc 0FB60402 		movzbl	(%rdx,%rax), %eax
 3350 0100 0FB6D0   		movzbl	%al, %edx
 3351 0103 488D8580 		leaq	-384(%rbp), %rax
 3351      FEFFFF
 3352 010a 89D6     		movl	%edx, %esi
 3353 010c 4889C7   		movq	%rax, %rdi
 3354 010f E8000000 		call	_ZStlsISt11char_traitsIcEERSt13basic_ostreamIcT_ES5_h
 3354      00
 3355 0114 BE000000 		movl	$.LC16, %esi
 3355      00
 3356 0119 4889C7   		movq	%rax, %rdi
 3357 011c E8000000 		call	_ZStlsISt11char_traitsIcEERSt13basic_ostreamIcT_ES5_PKc
 3357      00
  72:/home/asoreyh/Dropbox/projects/lago/lago-software/acqua/brc/lago/makestuff/libs/libutpp/Checks.h ****             stream << expected[expectedIndex] << " ";
 3358              		.loc 4 72 0 discriminator 2
 3359 0121 838578FE 		addl	$1, -392(%rbp)
 3359      FFFF01
 3360              	.L177:
  72:/home/asoreyh/Dropbox/projects/lago/lago-software/acqua/brc/lago/makestuff/libs/libutpp/Checks.h ****             stream << expected[expectedIndex] << " ";
 3361              		.loc 4 72 0 is_stmt 0 discriminator 1
 3362 0128 8B8578FE 		movl	-392(%rbp), %eax
 3362      FFFF
 3363 012e 3B8554FE 		cmpl	-428(%rbp), %eax
 3363      FFFF
 3364 0134 7CB7     		jl	.L178
 3365              	.LBE49:
  75:/home/asoreyh/Dropbox/projects/lago/lago-software/acqua/brc/lago/makestuff/libs/libutpp/Checks.h **** 
 3366              		.loc 4 75 0 is_stmt 1
 3367 0136 488D8580 		leaq	-384(%rbp), %rax
 3367      FEFFFF
 3368 013d BE000000 		movl	$.LC17, %esi
 3368      00
 3369 0142 4889C7   		movq	%rax, %rdi
 3370 0145 E8000000 		call	_ZStlsISt11char_traitsIcEERSt13basic_ostreamIcT_ES5_PKc
 3370      00
 3371              	.LBB50:
  77:/home/asoreyh/Dropbox/projects/lago/lago-software/acqua/brc/lago/makestuff/libs/libutpp/Checks.h ****             stream << actual[actualIndex] << " ";
 3372              		.loc 4 77 0
 3373 014a C7857CFE 		movl	$0, -388(%rbp)
 3373      FFFF0000 
 3373      0000
 3374 0154 EB40     		jmp	.L179
 3375              	.L180:
  78:/home/asoreyh/Dropbox/projects/lago/lago-software/acqua/brc/lago/makestuff/libs/libutpp/Checks.h **** 
 3376              		.loc 4 78 0
 3377 0156 488B8558 		movq	-424(%rbp), %rax
 3377      FEFFFF
 3378 015d 488B10   		movq	(%rax), %rdx
 3379 0160 8B857CFE 		movl	-388(%rbp), %eax
 3379      FFFF
 3380 0166 4898     		cltq
 3381 0168 4801D0   		addq	%rdx, %rax
 3382 016b 0FB600   		movzbl	(%rax), %eax
 3383 016e 0FB6D0   		movzbl	%al, %edx
 3384 0171 488D8580 		leaq	-384(%rbp), %rax
 3384      FEFFFF
 3385 0178 89D6     		movl	%edx, %esi
 3386 017a 4889C7   		movq	%rax, %rdi
 3387 017d E8000000 		call	_ZStlsISt11char_traitsIcEERSt13basic_ostreamIcT_ES5_h
 3387      00
 3388 0182 BE000000 		movl	$.LC16, %esi
 3388      00
 3389 0187 4889C7   		movq	%rax, %rdi
 3390 018a E8000000 		call	_ZStlsISt11char_traitsIcEERSt13basic_ostreamIcT_ES5_PKc
 3390      00
  77:/home/asoreyh/Dropbox/projects/lago/lago-software/acqua/brc/lago/makestuff/libs/libutpp/Checks.h ****             stream << actual[actualIndex] << " ";
 3391              		.loc 4 77 0 discriminator 2
 3392 018f 83857CFE 		addl	$1, -388(%rbp)
 3392      FFFF01
 3393              	.L179:
  77:/home/asoreyh/Dropbox/projects/lago/lago-software/acqua/brc/lago/makestuff/libs/libutpp/Checks.h ****             stream << actual[actualIndex] << " ";
 3394              		.loc 4 77 0 is_stmt 0 discriminator 1
 3395 0196 8B857CFE 		movl	-388(%rbp), %eax
 3395      FFFF
 3396 019c 3B8554FE 		cmpl	-428(%rbp), %eax
 3396      FFFF
 3397 01a2 7CB2     		jl	.L180
 3398              	.LBE50:
  80:/home/asoreyh/Dropbox/projects/lago/lago-software/acqua/brc/lago/makestuff/libs/libutpp/Checks.h **** 
 3399              		.loc 4 80 0 is_stmt 1
 3400 01a4 488D8580 		leaq	-384(%rbp), %rax
 3400      FEFFFF
 3401 01ab BE000000 		movl	$.LC18, %esi
 3401      00
 3402 01b0 4889C7   		movq	%rax, %rdi
 3403 01b3 E8000000 		call	_ZStlsISt11char_traitsIcEERSt13basic_ostreamIcT_ES5_PKc
 3403      00
  82:/home/asoreyh/Dropbox/projects/lago/lago-software/acqua/brc/lago/makestuff/libs/libutpp/Checks.h ****     }
 3404              		.loc 4 82 0
 3405 01b8 488D8580 		leaq	-384(%rbp), %rax
 3405      FEFFFF
 3406 01bf 4889C7   		movq	%rax, %rdi
 3407 01c2 E8000000 		call	_ZNK8UnitTest15MemoryOutStream7GetTextEv
 3407      00
 3408 01c7 4889C2   		movq	%rax, %rdx
 3409 01ca 488B8D48 		movq	-440(%rbp), %rcx
 3409      FEFFFF
 3410 01d1 488B8568 		movq	-408(%rbp), %rax
 3410      FEFFFF
 3411 01d8 4889CE   		movq	%rcx, %rsi
 3412 01db 4889C7   		movq	%rax, %rdi
 3413 01de E8000000 		call	_ZN8UnitTest11TestResults13OnTestFailureERKNS_11TestDetailsEPKc
 3413      00
 3414              	.LEHE125:
  82:/home/asoreyh/Dropbox/projects/lago/lago-software/acqua/brc/lago/makestuff/libs/libutpp/Checks.h ****     }
 3415              		.loc 4 82 0 is_stmt 0 discriminator 4
 3416 01e3 488D8580 		leaq	-384(%rbp), %rax
 3416      FEFFFF
 3417 01ea 4889C7   		movq	%rax, %rdi
 3418              	.LEHB126:
 3419 01ed E8000000 		call	_ZN8UnitTest15MemoryOutStreamD1Ev
 3419      00
 3420              	.LEHE126:
 3421              	.L176:
 3422              	.LBE48:
 3423              	.LBE47:
 3424              	.LBE45:
 3425              		.loc 4 84 0 is_stmt 1
 3426 01f2 488B45E8 		movq	-24(%rbp), %rax
 3427 01f6 64483304 		xorq	%fs:40, %rax
 3427      25280000 
 3427      00
 3428 01ff 7424     		je	.L182
 3429 0201 EB1D     		jmp	.L184
 3430              	.L183:
 3431 0203 4889C3   		movq	%rax, %rbx
 3432              	.LBB53:
 3433              	.LBB52:
 3434              	.LBB51:
  82:/home/asoreyh/Dropbox/projects/lago/lago-software/acqua/brc/lago/makestuff/libs/libutpp/Checks.h ****     }
 3435              		.loc 4 82 0
 3436 0206 488D8580 		leaq	-384(%rbp), %rax
 3436      FEFFFF
 3437 020d 4889C7   		movq	%rax, %rdi
 3438 0210 E8000000 		call	_ZN8UnitTest15MemoryOutStreamD1Ev
 3438      00
 3439 0215 4889D8   		movq	%rbx, %rax
 3440 0218 4889C7   		movq	%rax, %rdi
 3441              	.LEHB127:
 3442 021b E8000000 		call	_Unwind_Resume
 3442      00
 3443              	.LEHE127:
 3444              	.L184:
 3445              	.LBE51:
 3446              	.LBE52:
 3447              	.LBE53:
 3448              		.loc 4 84 0
 3449 0220 E8000000 		call	__stack_chk_fail
 3449      00
 3450              	.L182:
 3451 0225 4881C4B8 		addq	$440, %rsp
 3451      010000
 3452 022c 5B       		popq	%rbx
 3453 022d 5D       		popq	%rbp
 3454              		.cfi_def_cfa 7, 8
 3455 022e C3       		ret
 3456              		.cfi_endproc
 3457              	.LFE1120:
 3458              		.section	.gcc_except_table
 3459              	.LLSDA1120:
 3460 02c1 FF       		.byte	0xff
 3461 02c2 FF       		.byte	0xff
 3462 02c3 01       		.byte	0x1
 3463 02c4 16       		.uleb128 .LLSDACSE1120-.LLSDACSB1120
 3464              	.LLSDACSB1120:
 3465 02c5 C801     		.uleb128 .LEHB124-.LFB1120
 3466 02c7 05       		.uleb128 .LEHE124-.LEHB124
 3467 02c8 00       		.uleb128 0
 3468 02c9 00       		.uleb128 0
 3469 02ca DC01     		.uleb128 .LEHB125-.LFB1120
 3470 02cc 8702     		.uleb128 .LEHE125-.LEHB125
 3471 02ce 8304     		.uleb128 .L183-.LFB1120
 3472 02d0 00       		.uleb128 0
 3473 02d1 ED03     		.uleb128 .LEHB126-.LFB1120
 3474 02d3 05       		.uleb128 .LEHE126-.LEHB126
 3475 02d4 00       		.uleb128 0
 3476 02d5 00       		.uleb128 0
 3477 02d6 9B04     		.uleb128 .LEHB127-.LFB1120
 3478 02d8 05       		.uleb128 .LEHE127-.LEHB127
 3479 02d9 00       		.uleb128 0
 3480 02da 00       		.uleb128 0
 3481              	.LLSDACSE1120:
 3482              		.section	.text._ZN8UnitTest15CheckArrayEqualIA16_hPhEEvRNS_11TestResultsERKT_RKT0_iRKNS_11TestDeta
 3484              		.weak	_ZTV26TestI2C_testFinaliseNoInit
 3485              		.section	.rodata._ZTV26TestI2C_testFinaliseNoInit,"aG",@progbits,_ZTV26TestI2C_testFinaliseNoInit,
 3486              		.align 32
 3489              	_ZTV26TestI2C_testFinaliseNoInit:
 3490 0000 00000000 		.quad	0
 3490      00000000 
 3491 0008 00000000 		.quad	_ZTI26TestI2C_testFinaliseNoInit
 3491      00000000 
 3492 0010 00000000 		.quad	_ZN26TestI2C_testFinaliseNoInitD1Ev
 3492      00000000 
 3493 0018 00000000 		.quad	_ZN26TestI2C_testFinaliseNoInitD0Ev
 3493      00000000 
 3494 0020 00000000 		.quad	_ZNK26TestI2C_testFinaliseNoInit7RunImplEv
 3494      00000000 
 3495              		.section	.text._ZN26TestI2C_testFinaliseNoInitD2Ev,"axG",@progbits,_ZN26TestI2C_testFinaliseNoInit
 3496              		.align 2
 3497              		.weak	_ZN26TestI2C_testFinaliseNoInitD2Ev
 3499              	_ZN26TestI2C_testFinaliseNoInitD2Ev:
 3500              	.LFB1174:
 106:testI2C.cpp   **** 	Buffer buf;
 3501              		.loc 3 106 0
 3502              		.cfi_startproc
 3503 0000 55       		pushq	%rbp
 3504              		.cfi_def_cfa_offset 16
 3505              		.cfi_offset 6, -16
 3506 0001 4889E5   		movq	%rsp, %rbp
 3507              		.cfi_def_cfa_register 6
 3508 0004 4883EC10 		subq	$16, %rsp
 3509 0008 48897DF8 		movq	%rdi, -8(%rbp)
 3510              	.LBB54:
 106:testI2C.cpp   **** 	Buffer buf;
 3511              		.loc 3 106 0
 3512 000c 488B45F8 		movq	-8(%rbp), %rax
 3513 0010 48C70000 		movq	$_ZTV26TestI2C_testFinaliseNoInit+16, (%rax)
 3513      000000
 3514 0017 488B45F8 		movq	-8(%rbp), %rax
 3515 001b 4889C7   		movq	%rax, %rdi
 3516 001e E8000000 		call	_ZN8UnitTest4TestD2Ev
 3516      00
 3517              	.LBE54:
 3518 0023 B8000000 		movl	$0, %eax
 3518      00
 3519 0028 85C0     		testl	%eax, %eax
 3520 002a 740C     		je	.L185
 106:testI2C.cpp   **** 	Buffer buf;
 3521              		.loc 3 106 0 is_stmt 0 discriminator 4
 3522 002c 488B45F8 		movq	-8(%rbp), %rax
 3523 0030 4889C7   		movq	%rax, %rdi
 3524 0033 E8000000 		call	_ZdlPv
 3524      00
 3525              	.L185:
 106:testI2C.cpp   **** 	Buffer buf;
 3526              		.loc 3 106 0
 3527 0038 C9       		leave
 3528              		.cfi_def_cfa 7, 8
 3529 0039 C3       		ret
 3530              		.cfi_endproc
 3531              	.LFE1174:
 3533              		.weak	_ZN26TestI2C_testFinaliseNoInitD1Ev
 3534              		.set	_ZN26TestI2C_testFinaliseNoInitD1Ev,_ZN26TestI2C_testFinaliseNoInitD2Ev
 3535              		.section	.text._ZN26TestI2C_testFinaliseNoInitD0Ev,"axG",@progbits,_ZN26TestI2C_testFinaliseNoInit
 3536              		.align 2
 3537              		.weak	_ZN26TestI2C_testFinaliseNoInitD0Ev
 3539              	_ZN26TestI2C_testFinaliseNoInitD0Ev:
 3540              	.LFB1176:
 106:testI2C.cpp   **** 	Buffer buf;
 3541              		.loc 3 106 0 is_stmt 1
 3542              		.cfi_startproc
 3543 0000 55       		pushq	%rbp
 3544              		.cfi_def_cfa_offset 16
 3545              		.cfi_offset 6, -16
 3546 0001 4889E5   		movq	%rsp, %rbp
 3547              		.cfi_def_cfa_register 6
 3548 0004 4883EC10 		subq	$16, %rsp
 3549 0008 48897DF8 		movq	%rdi, -8(%rbp)
 106:testI2C.cpp   **** 	Buffer buf;
 3550              		.loc 3 106 0
 3551 000c 488B45F8 		movq	-8(%rbp), %rax
 3552 0010 4889C7   		movq	%rax, %rdi
 3553 0013 E8000000 		call	_ZN26TestI2C_testFinaliseNoInitD1Ev
 3553      00
 3554 0018 488B45F8 		movq	-8(%rbp), %rax
 3555 001c 4889C7   		movq	%rax, %rdi
 3556 001f E8000000 		call	_ZdlPv
 3556      00
 3557 0024 C9       		leave
 3558              		.cfi_def_cfa 7, 8
 3559 0025 C3       		ret
 3560              		.cfi_endproc
 3561              	.LFE1176:
 3563              		.weak	_ZTV21TestI2C_testWPRNoInit
 3564              		.section	.rodata._ZTV21TestI2C_testWPRNoInit,"aG",@progbits,_ZTV21TestI2C_testWPRNoInit,comdat
 3565              		.align 32
 3568              	_ZTV21TestI2C_testWPRNoInit:
 3569 0000 00000000 		.quad	0
 3569      00000000 
 3570 0008 00000000 		.quad	_ZTI21TestI2C_testWPRNoInit
 3570      00000000 
 3571 0010 00000000 		.quad	_ZN21TestI2C_testWPRNoInitD1Ev
 3571      00000000 
 3572 0018 00000000 		.quad	_ZN21TestI2C_testWPRNoInitD0Ev
 3572      00000000 
 3573 0020 00000000 		.quad	_ZNK21TestI2C_testWPRNoInit7RunImplEv
 3573      00000000 
 3574              		.section	.text._ZN21TestI2C_testWPRNoInitD2Ev,"axG",@progbits,_ZN21TestI2C_testWPRNoInitD5Ev,comda
 3575              		.align 2
 3576              		.weak	_ZN21TestI2C_testWPRNoInitD2Ev
 3578              	_ZN21TestI2C_testWPRNoInitD2Ev:
 3579              	.LFB1178:
  95:testI2C.cpp   **** 	Buffer i2cBuffer;
 3580              		.loc 3 95 0
 3581              		.cfi_startproc
 3582 0000 55       		pushq	%rbp
 3583              		.cfi_def_cfa_offset 16
 3584              		.cfi_offset 6, -16
 3585 0001 4889E5   		movq	%rsp, %rbp
 3586              		.cfi_def_cfa_register 6
 3587 0004 4883EC10 		subq	$16, %rsp
 3588 0008 48897DF8 		movq	%rdi, -8(%rbp)
 3589              	.LBB55:
  95:testI2C.cpp   **** 	Buffer i2cBuffer;
 3590              		.loc 3 95 0
 3591 000c 488B45F8 		movq	-8(%rbp), %rax
 3592 0010 48C70000 		movq	$_ZTV21TestI2C_testWPRNoInit+16, (%rax)
 3592      000000
 3593 0017 488B45F8 		movq	-8(%rbp), %rax
 3594 001b 4889C7   		movq	%rax, %rdi
 3595 001e E8000000 		call	_ZN8UnitTest4TestD2Ev
 3595      00
 3596              	.LBE55:
 3597 0023 B8000000 		movl	$0, %eax
 3597      00
 3598 0028 85C0     		testl	%eax, %eax
 3599 002a 740C     		je	.L190
  95:testI2C.cpp   **** 	Buffer i2cBuffer;
 3600              		.loc 3 95 0 is_stmt 0 discriminator 4
 3601 002c 488B45F8 		movq	-8(%rbp), %rax
 3602 0030 4889C7   		movq	%rax, %rdi
 3603 0033 E8000000 		call	_ZdlPv
 3603      00
 3604              	.L190:
  95:testI2C.cpp   **** 	Buffer i2cBuffer;
 3605              		.loc 3 95 0
 3606 0038 C9       		leave
 3607              		.cfi_def_cfa 7, 8
 3608 0039 C3       		ret
 3609              		.cfi_endproc
 3610              	.LFE1178:
 3612              		.weak	_ZN21TestI2C_testWPRNoInitD1Ev
 3613              		.set	_ZN21TestI2C_testWPRNoInitD1Ev,_ZN21TestI2C_testWPRNoInitD2Ev
 3614              		.section	.text._ZN21TestI2C_testWPRNoInitD0Ev,"axG",@progbits,_ZN21TestI2C_testWPRNoInitD5Ev,comda
 3615              		.align 2
 3616              		.weak	_ZN21TestI2C_testWPRNoInitD0Ev
 3618              	_ZN21TestI2C_testWPRNoInitD0Ev:
 3619              	.LFB1180:
  95:testI2C.cpp   **** 	Buffer i2cBuffer;
 3620              		.loc 3 95 0 is_stmt 1
 3621              		.cfi_startproc
 3622 0000 55       		pushq	%rbp
 3623              		.cfi_def_cfa_offset 16
 3624              		.cfi_offset 6, -16
 3625 0001 4889E5   		movq	%rsp, %rbp
 3626              		.cfi_def_cfa_register 6
 3627 0004 4883EC10 		subq	$16, %rsp
 3628 0008 48897DF8 		movq	%rdi, -8(%rbp)
  95:testI2C.cpp   **** 	Buffer i2cBuffer;
 3629              		.loc 3 95 0
 3630 000c 488B45F8 		movq	-8(%rbp), %rax
 3631 0010 4889C7   		movq	%rax, %rdi
 3632 0013 E8000000 		call	_ZN21TestI2C_testWPRNoInitD1Ev
 3632      00
 3633 0018 488B45F8 		movq	-8(%rbp), %rax
 3634 001c 4889C7   		movq	%rax, %rdi
 3635 001f E8000000 		call	_ZdlPv
 3635      00
 3636 0024 C9       		leave
 3637              		.cfi_def_cfa 7, 8
 3638 0025 C3       		ret
 3639              		.cfi_endproc
 3640              	.LFE1180:
 3642              		.weak	_ZTV21TestI2C_testRoundTrip
 3643              		.section	.rodata._ZTV21TestI2C_testRoundTrip,"aG",@progbits,_ZTV21TestI2C_testRoundTrip,comdat
 3644              		.align 32
 3647              	_ZTV21TestI2C_testRoundTrip:
 3648 0000 00000000 		.quad	0
 3648      00000000 
 3649 0008 00000000 		.quad	_ZTI21TestI2C_testRoundTrip
 3649      00000000 
 3650 0010 00000000 		.quad	_ZN21TestI2C_testRoundTripD1Ev
 3650      00000000 
 3651 0018 00000000 		.quad	_ZN21TestI2C_testRoundTripD0Ev
 3651      00000000 
 3652 0020 00000000 		.quad	_ZNK21TestI2C_testRoundTrip7RunImplEv
 3652      00000000 
 3653              		.section	.text._ZN21TestI2C_testRoundTripD2Ev,"axG",@progbits,_ZN21TestI2C_testRoundTripD5Ev,comda
 3654              		.align 2
 3655              		.weak	_ZN21TestI2C_testRoundTripD2Ev
 3657              	_ZN21TestI2C_testRoundTripD2Ev:
 3658              	.LFB1182:
  47:testI2C.cpp   **** 	uint32 i, j;
 3659              		.loc 3 47 0
 3660              		.cfi_startproc
 3661 0000 55       		pushq	%rbp
 3662              		.cfi_def_cfa_offset 16
 3663              		.cfi_offset 6, -16
 3664 0001 4889E5   		movq	%rsp, %rbp
 3665              		.cfi_def_cfa_register 6
 3666 0004 4883EC10 		subq	$16, %rsp
 3667 0008 48897DF8 		movq	%rdi, -8(%rbp)
 3668              	.LBB56:
  47:testI2C.cpp   **** 	uint32 i, j;
 3669              		.loc 3 47 0
 3670 000c 488B45F8 		movq	-8(%rbp), %rax
 3671 0010 48C70000 		movq	$_ZTV21TestI2C_testRoundTrip+16, (%rax)
 3671      000000
 3672 0017 488B45F8 		movq	-8(%rbp), %rax
 3673 001b 4889C7   		movq	%rax, %rdi
 3674 001e E8000000 		call	_ZN8UnitTest4TestD2Ev
 3674      00
 3675              	.LBE56:
 3676 0023 B8000000 		movl	$0, %eax
 3676      00
 3677 0028 85C0     		testl	%eax, %eax
 3678 002a 740C     		je	.L195
  47:testI2C.cpp   **** 	uint32 i, j;
 3679              		.loc 3 47 0 is_stmt 0 discriminator 4
 3680 002c 488B45F8 		movq	-8(%rbp), %rax
 3681 0030 4889C7   		movq	%rax, %rdi
 3682 0033 E8000000 		call	_ZdlPv
 3682      00
 3683              	.L195:
  47:testI2C.cpp   **** 	uint32 i, j;
 3684              		.loc 3 47 0
 3685 0038 C9       		leave
 3686              		.cfi_def_cfa 7, 8
 3687 0039 C3       		ret
 3688              		.cfi_endproc
 3689              	.LFE1182:
 3691              		.weak	_ZN21TestI2C_testRoundTripD1Ev
 3692              		.set	_ZN21TestI2C_testRoundTripD1Ev,_ZN21TestI2C_testRoundTripD2Ev
 3693              		.section	.text._ZN21TestI2C_testRoundTripD0Ev,"axG",@progbits,_ZN21TestI2C_testRoundTripD5Ev,comda
 3694              		.align 2
 3695              		.weak	_ZN21TestI2C_testRoundTripD0Ev
 3697              	_ZN21TestI2C_testRoundTripD0Ev:
 3698              	.LFB1184:
  47:testI2C.cpp   **** 	uint32 i, j;
 3699              		.loc 3 47 0 is_stmt 1
 3700              		.cfi_startproc
 3701 0000 55       		pushq	%rbp
 3702              		.cfi_def_cfa_offset 16
 3703              		.cfi_offset 6, -16
 3704 0001 4889E5   		movq	%rsp, %rbp
 3705              		.cfi_def_cfa_register 6
 3706 0004 4883EC10 		subq	$16, %rsp
 3707 0008 48897DF8 		movq	%rdi, -8(%rbp)
  47:testI2C.cpp   **** 	uint32 i, j;
 3708              		.loc 3 47 0
 3709 000c 488B45F8 		movq	-8(%rbp), %rax
 3710 0010 4889C7   		movq	%rax, %rdi
 3711 0013 E8000000 		call	_ZN21TestI2C_testRoundTripD1Ev
 3711      00
 3712 0018 488B45F8 		movq	-8(%rbp), %rax
 3713 001c 4889C7   		movq	%rax, %rdi
 3714 001f E8000000 		call	_ZdlPv
 3714      00
 3715 0024 C9       		leave
 3716              		.cfi_def_cfa 7, 8
 3717 0025 C3       		ret
 3718              		.cfi_endproc
 3719              	.LFE1184:
 3721              		.weak	_ZTV22TestI2C_testInitialise
 3722              		.section	.rodata._ZTV22TestI2C_testInitialise,"aG",@progbits,_ZTV22TestI2C_testInitialise,comdat
 3723              		.align 32
 3726              	_ZTV22TestI2C_testInitialise:
 3727 0000 00000000 		.quad	0
 3727      00000000 
 3728 0008 00000000 		.quad	_ZTI22TestI2C_testInitialise
 3728      00000000 
 3729 0010 00000000 		.quad	_ZN22TestI2C_testInitialiseD1Ev
 3729      00000000 
 3730 0018 00000000 		.quad	_ZN22TestI2C_testInitialiseD0Ev
 3730      00000000 
 3731 0020 00000000 		.quad	_ZNK22TestI2C_testInitialise7RunImplEv
 3731      00000000 
 3732              		.section	.text._ZN22TestI2C_testInitialiseD2Ev,"axG",@progbits,_ZN22TestI2C_testInitialiseD5Ev,com
 3733              		.align 2
 3734              		.weak	_ZN22TestI2C_testInitialiseD2Ev
 3736              	_ZN22TestI2C_testInitialiseD2Ev:
 3737              	.LFB1186:
  31:testI2C.cpp   **** 	Buffer i2cBuffer;
 3738              		.loc 3 31 0
 3739              		.cfi_startproc
 3740 0000 55       		pushq	%rbp
 3741              		.cfi_def_cfa_offset 16
 3742              		.cfi_offset 6, -16
 3743 0001 4889E5   		movq	%rsp, %rbp
 3744              		.cfi_def_cfa_register 6
 3745 0004 4883EC10 		subq	$16, %rsp
 3746 0008 48897DF8 		movq	%rdi, -8(%rbp)
 3747              	.LBB57:
  31:testI2C.cpp   **** 	Buffer i2cBuffer;
 3748              		.loc 3 31 0
 3749 000c 488B45F8 		movq	-8(%rbp), %rax
 3750 0010 48C70000 		movq	$_ZTV22TestI2C_testInitialise+16, (%rax)
 3750      000000
 3751 0017 488B45F8 		movq	-8(%rbp), %rax
 3752 001b 4889C7   		movq	%rax, %rdi
 3753 001e E8000000 		call	_ZN8UnitTest4TestD2Ev
 3753      00
 3754              	.LBE57:
 3755 0023 B8000000 		movl	$0, %eax
 3755      00
 3756 0028 85C0     		testl	%eax, %eax
 3757 002a 740C     		je	.L200
  31:testI2C.cpp   **** 	Buffer i2cBuffer;
 3758              		.loc 3 31 0 is_stmt 0 discriminator 4
 3759 002c 488B45F8 		movq	-8(%rbp), %rax
 3760 0030 4889C7   		movq	%rax, %rdi
 3761 0033 E8000000 		call	_ZdlPv
 3761      00
 3762              	.L200:
  31:testI2C.cpp   **** 	Buffer i2cBuffer;
 3763              		.loc 3 31 0
 3764 0038 C9       		leave
 3765              		.cfi_def_cfa 7, 8
 3766 0039 C3       		ret
 3767              		.cfi_endproc
 3768              	.LFE1186:
 3770              		.weak	_ZN22TestI2C_testInitialiseD1Ev
 3771              		.set	_ZN22TestI2C_testInitialiseD1Ev,_ZN22TestI2C_testInitialiseD2Ev
 3772              		.section	.text._ZN22TestI2C_testInitialiseD0Ev,"axG",@progbits,_ZN22TestI2C_testInitialiseD5Ev,com
 3773              		.align 2
 3774              		.weak	_ZN22TestI2C_testInitialiseD0Ev
 3776              	_ZN22TestI2C_testInitialiseD0Ev:
 3777              	.LFB1188:
  31:testI2C.cpp   **** 	Buffer i2cBuffer;
 3778              		.loc 3 31 0 is_stmt 1
 3779              		.cfi_startproc
 3780 0000 55       		pushq	%rbp
 3781              		.cfi_def_cfa_offset 16
 3782              		.cfi_offset 6, -16
 3783 0001 4889E5   		movq	%rsp, %rbp
 3784              		.cfi_def_cfa_register 6
 3785 0004 4883EC10 		subq	$16, %rsp
 3786 0008 48897DF8 		movq	%rdi, -8(%rbp)
  31:testI2C.cpp   **** 	Buffer i2cBuffer;
 3787              		.loc 3 31 0
 3788 000c 488B45F8 		movq	-8(%rbp), %rax
 3789 0010 4889C7   		movq	%rax, %rdi
 3790 0013 E8000000 		call	_ZN22TestI2C_testInitialiseD1Ev
 3790      00
 3791 0018 488B45F8 		movq	-8(%rbp), %rax
 3792 001c 4889C7   		movq	%rax, %rdi
 3793 001f E8000000 		call	_ZdlPv
 3793      00
 3794 0024 C9       		leave
 3795              		.cfi_def_cfa 7, 8
 3796 0025 C3       		ret
 3797              		.cfi_endproc
 3798              	.LFE1188:
 3800              		.weak	_ZTVN8UnitTest15MemoryOutStreamE
 3801              		.section	.rodata._ZTVN8UnitTest15MemoryOutStreamE,"aG",@progbits,_ZTVN8UnitTest15MemoryOutStreamE,
 3802              		.align 64
 3805              	_ZTVN8UnitTest15MemoryOutStreamE:
 3806 0000 60000000 		.quad	96
 3806      00000000 
 3807 0008 00000000 		.quad	0
 3807      00000000 
 3808 0010 00000000 		.quad	_ZTIN8UnitTest15MemoryOutStreamE
 3808      00000000 
 3809 0018 00000000 		.quad	_ZN8UnitTest15MemoryOutStreamD1Ev
 3809      00000000 
 3810 0020 00000000 		.quad	_ZN8UnitTest15MemoryOutStreamD0Ev
 3810      00000000 
 3811 0028 A0FFFFFF 		.quad	-96
 3811      FFFFFFFF 
 3812 0030 A0FFFFFF 		.quad	-96
 3812      FFFFFFFF 
 3813 0038 00000000 		.quad	_ZTIN8UnitTest15MemoryOutStreamE
 3813      00000000 
 3814 0040 00000000 		.quad	_ZTv0_n24_N8UnitTest15MemoryOutStreamD1Ev
 3814      00000000 
 3815 0048 00000000 		.quad	_ZTv0_n24_N8UnitTest15MemoryOutStreamD0Ev
 3815      00000000 
 3816              		.weak	_ZTTN8UnitTest15MemoryOutStreamE
 3817              		.section	.rodata._ZTTN8UnitTest15MemoryOutStreamE,"aG",@progbits,_ZTVN8UnitTest15MemoryOutStreamE,
 3818              		.align 32
 3821              	_ZTTN8UnitTest15MemoryOutStreamE:
 3822 0000 00000000 		.quad	_ZTVN8UnitTest15MemoryOutStreamE+24
 3822      00000000 
 3823 0008 00000000 		.quad	_ZTCN8UnitTest15MemoryOutStreamE0_St19basic_ostringstreamIcSt11char_traitsIcESaIcEE+24
 3823      00000000 
 3824 0010 00000000 		.quad	_ZTCN8UnitTest15MemoryOutStreamE0_So+24
 3824      00000000 
 3825 0018 00000000 		.quad	_ZTCN8UnitTest15MemoryOutStreamE0_So+64
 3825      00000000 
 3826 0020 00000000 		.quad	_ZTCN8UnitTest15MemoryOutStreamE0_St19basic_ostringstreamIcSt11char_traitsIcESaIcEE+64
 3826      00000000 
 3827 0028 00000000 		.quad	_ZTVN8UnitTest15MemoryOutStreamE+64
 3827      00000000 
 3828              		.hidden	_ZTCN8UnitTest15MemoryOutStreamE0_St19basic_ostringstreamIcSt11char_traitsIcESaIcEE
 3829              		.weak	_ZTCN8UnitTest15MemoryOutStreamE0_St19basic_ostringstreamIcSt11char_traitsIcESaIcEE
 3830              		.section	.rodata._ZTCN8UnitTest15MemoryOutStreamE0_St19basic_ostringstreamIcSt11char_traitsIcESaIc
 3831              		.align 64
 3834              	_ZTCN8UnitTest15MemoryOutStreamE0_St19basic_ostringstreamIcSt11char_traitsIcESaIcEE:
 3835 0000 60000000 		.quad	96
 3835      00000000 
 3836 0008 00000000 		.quad	0
 3836      00000000 
 3837 0010 00000000 		.quad	_ZTISt19basic_ostringstreamIcSt11char_traitsIcESaIcEE
 3837      00000000 
 3838 0018 00000000 		.quad	0
 3838      00000000 
 3839 0020 00000000 		.quad	0
 3839      00000000 
 3840 0028 A0FFFFFF 		.quad	-96
 3840      FFFFFFFF 
 3841 0030 A0FFFFFF 		.quad	-96
 3841      FFFFFFFF 
 3842 0038 00000000 		.quad	_ZTISt19basic_ostringstreamIcSt11char_traitsIcESaIcEE
 3842      00000000 
 3843 0040 00000000 		.quad	0
 3843      00000000 
 3844 0048 00000000 		.quad	0
 3844      00000000 
 3845              		.hidden	_ZTCN8UnitTest15MemoryOutStreamE0_So
 3846              		.weak	_ZTCN8UnitTest15MemoryOutStreamE0_So
 3847              		.section	.rodata._ZTCN8UnitTest15MemoryOutStreamE0_So,"aG",@progbits,_ZTVN8UnitTest15MemoryOutStre
 3848              		.align 64
 3851              	_ZTCN8UnitTest15MemoryOutStreamE0_So:
 3852 0000 60000000 		.quad	96
 3852      00000000 
 3853 0008 00000000 		.quad	0
 3853      00000000 
 3854 0010 00000000 		.quad	_ZTISo
 3854      00000000 
 3855 0018 00000000 		.quad	0
 3855      00000000 
 3856 0020 00000000 		.quad	0
 3856      00000000 
 3857 0028 A0FFFFFF 		.quad	-96
 3857      FFFFFFFF 
 3858 0030 A0FFFFFF 		.quad	-96
 3858      FFFFFFFF 
 3859 0038 00000000 		.quad	_ZTISo
 3859      00000000 
 3860 0040 00000000 		.quad	0
 3860      00000000 
 3861 0048 00000000 		.quad	0
 3861      00000000 
 3862              		.weak	_ZTI26TestI2C_testFinaliseNoInit
 3863              		.section	.rodata._ZTI26TestI2C_testFinaliseNoInit,"aG",@progbits,_ZTI26TestI2C_testFinaliseNoInit,
 3864              		.align 16
 3867              	_ZTI26TestI2C_testFinaliseNoInit:
 3868 0000 00000000 		.quad	_ZTVN10__cxxabiv120__si_class_type_infoE+16
 3868      00000000 
 3869 0008 00000000 		.quad	_ZTS26TestI2C_testFinaliseNoInit
 3869      00000000 
 3870 0010 00000000 		.quad	_ZTIN8UnitTest4TestE
 3870      00000000 
 3871              		.weak	_ZTS26TestI2C_testFinaliseNoInit
 3872              		.section	.rodata._ZTS26TestI2C_testFinaliseNoInit,"aG",@progbits,_ZTS26TestI2C_testFinaliseNoInit,
 3873              		.align 16
 3876              	_ZTS26TestI2C_testFinaliseNoInit:
 3877 0000 32365465 		.string	"26TestI2C_testFinaliseNoInit"
 3877      73744932 
 3877      435F7465 
 3877      73744669 
 3877      6E616C69 
 3878              		.weak	_ZTI21TestI2C_testWPRNoInit
 3879              		.section	.rodata._ZTI21TestI2C_testWPRNoInit,"aG",@progbits,_ZTI21TestI2C_testWPRNoInit,comdat
 3880              		.align 16
 3883              	_ZTI21TestI2C_testWPRNoInit:
 3884 0000 00000000 		.quad	_ZTVN10__cxxabiv120__si_class_type_infoE+16
 3884      00000000 
 3885 0008 00000000 		.quad	_ZTS21TestI2C_testWPRNoInit
 3885      00000000 
 3886 0010 00000000 		.quad	_ZTIN8UnitTest4TestE
 3886      00000000 
 3887              		.weak	_ZTS21TestI2C_testWPRNoInit
 3888              		.section	.rodata._ZTS21TestI2C_testWPRNoInit,"aG",@progbits,_ZTS21TestI2C_testWPRNoInit,comdat
 3889              		.align 16
 3892              	_ZTS21TestI2C_testWPRNoInit:
 3893 0000 32315465 		.string	"21TestI2C_testWPRNoInit"
 3893      73744932 
 3893      435F7465 
 3893      73745750 
 3893      524E6F49 
 3894              		.weak	_ZTI21TestI2C_testRoundTrip
 3895              		.section	.rodata._ZTI21TestI2C_testRoundTrip,"aG",@progbits,_ZTI21TestI2C_testRoundTrip,comdat
 3896              		.align 16
 3899              	_ZTI21TestI2C_testRoundTrip:
 3900 0000 00000000 		.quad	_ZTVN10__cxxabiv120__si_class_type_infoE+16
 3900      00000000 
 3901 0008 00000000 		.quad	_ZTS21TestI2C_testRoundTrip
 3901      00000000 
 3902 0010 00000000 		.quad	_ZTIN8UnitTest4TestE
 3902      00000000 
 3903              		.weak	_ZTS21TestI2C_testRoundTrip
 3904              		.section	.rodata._ZTS21TestI2C_testRoundTrip,"aG",@progbits,_ZTS21TestI2C_testRoundTrip,comdat
 3905              		.align 16
 3908              	_ZTS21TestI2C_testRoundTrip:
 3909 0000 32315465 		.string	"21TestI2C_testRoundTrip"
 3909      73744932 
 3909      435F7465 
 3909      7374526F 
 3909      756E6454 
 3910              		.weak	_ZTI22TestI2C_testInitialise
 3911              		.section	.rodata._ZTI22TestI2C_testInitialise,"aG",@progbits,_ZTI22TestI2C_testInitialise,comdat
 3912              		.align 16
 3915              	_ZTI22TestI2C_testInitialise:
 3916 0000 00000000 		.quad	_ZTVN10__cxxabiv120__si_class_type_infoE+16
 3916      00000000 
 3917 0008 00000000 		.quad	_ZTS22TestI2C_testInitialise
 3917      00000000 
 3918 0010 00000000 		.quad	_ZTIN8UnitTest4TestE
 3918      00000000 
 3919              		.weak	_ZTS22TestI2C_testInitialise
 3920              		.section	.rodata._ZTS22TestI2C_testInitialise,"aG",@progbits,_ZTS22TestI2C_testInitialise,comdat
 3921              		.align 16
 3924              	_ZTS22TestI2C_testInitialise:
 3925 0000 32325465 		.string	"22TestI2C_testInitialise"
 3925      73744932 
 3925      435F7465 
 3925      7374496E 
 3925      69746961 
 3926              		.weak	_ZTSN8UnitTest15MemoryOutStreamE
 3927              		.section	.rodata._ZTSN8UnitTest15MemoryOutStreamE,"aG",@progbits,_ZTSN8UnitTest15MemoryOutStreamE,
 3928              		.align 16
 3931              	_ZTSN8UnitTest15MemoryOutStreamE:
 3932 0000 4E38556E 		.string	"N8UnitTest15MemoryOutStreamE"
 3932      69745465 
 3932      73743135 
 3932      4D656D6F 
 3932      72794F75 
 3933              		.weak	_ZTIN8UnitTest15MemoryOutStreamE
 3934              		.section	.rodata._ZTIN8UnitTest15MemoryOutStreamE,"aG",@progbits,_ZTIN8UnitTest15MemoryOutStreamE,
 3935              		.align 16
 3938              	_ZTIN8UnitTest15MemoryOutStreamE:
 3939 0000 00000000 		.quad	_ZTVN10__cxxabiv120__si_class_type_infoE+16
 3939      00000000 
 3940 0008 00000000 		.quad	_ZTSN8UnitTest15MemoryOutStreamE
 3940      00000000 
 3941 0010 00000000 		.quad	_ZTISt19basic_ostringstreamIcSt11char_traitsIcESaIcEE
 3941      00000000 
 3942              		.text
 3944              	_Z41__static_initialization_and_destruction_0ii:
 3945              	.LFB1189:
 3946              		.loc 3 115 0
 3947              		.cfi_startproc
 3948 1186 55       		pushq	%rbp
 3949              		.cfi_def_cfa_offset 16
 3950              		.cfi_offset 6, -16
 3951 1187 4889E5   		movq	%rsp, %rbp
 3952              		.cfi_def_cfa_register 6
 3953 118a 4883EC10 		subq	$16, %rsp
 3954 118e 897DFC   		movl	%edi, -4(%rbp)
 3955 1191 8975F8   		movl	%esi, -8(%rbp)
 3956              		.loc 3 115 0
 3957 1194 837DFC01 		cmpl	$1, -4(%rbp)
 3958 1198 0F85E100 		jne	.L205
 3958      0000
 3959              		.loc 3 115 0 is_stmt 0 discriminator 1
 3960 119e 817DF8FF 		cmpl	$65535, -8(%rbp)
 3960      FF0000
 3961 11a5 0F85D400 		jne	.L205
 3961      0000
  31:testI2C.cpp   **** 	Buffer i2cBuffer;
 3962              		.loc 3 31 0 is_stmt 1
 3963 11ab BF000000 		movl	$testI2C_testInitialiseInstance, %edi
 3963      00
 3964 11b0 E8000000 		call	_ZN22TestI2C_testInitialiseC1Ev
 3964      00
 3965 11b5 BA000000 		movl	$__dso_handle, %edx
 3965      00
 3966 11ba BE000000 		movl	$testI2C_testInitialiseInstance, %esi
 3966      00
 3967 11bf BF000000 		movl	$_ZN22TestI2C_testInitialiseD1Ev, %edi
 3967      00
 3968 11c4 E8000000 		call	__cxa_atexit
 3968      00
 3969 11c9 E8000000 		call	_ZN8UnitTest4Test11GetTestListEv
 3969      00
 3970 11ce BA000000 		movl	$testI2C_testInitialiseInstance, %edx
 3970      00
 3971 11d3 4889C6   		movq	%rax, %rsi
 3972 11d6 BF000000 		movl	$adderI2C_testInitialise, %edi
 3972      00
 3973 11db E8000000 		call	_ZN8UnitTest9ListAdderC1ERNS_8TestListEPNS_4TestE
 3973      00
  47:testI2C.cpp   **** 	uint32 i, j;
 3974              		.loc 3 47 0
 3975 11e0 BF000000 		movl	$testI2C_testRoundTripInstance, %edi
 3975      00
 3976 11e5 E8000000 		call	_ZN21TestI2C_testRoundTripC1Ev
 3976      00
 3977 11ea BA000000 		movl	$__dso_handle, %edx
 3977      00
 3978 11ef BE000000 		movl	$testI2C_testRoundTripInstance, %esi
 3978      00
 3979 11f4 BF000000 		movl	$_ZN21TestI2C_testRoundTripD1Ev, %edi
 3979      00
 3980 11f9 E8000000 		call	__cxa_atexit
 3980      00
 3981 11fe E8000000 		call	_ZN8UnitTest4Test11GetTestListEv
 3981      00
 3982 1203 BA000000 		movl	$testI2C_testRoundTripInstance, %edx
 3982      00
 3983 1208 4889C6   		movq	%rax, %rsi
 3984 120b BF000000 		movl	$adderI2C_testRoundTrip, %edi
 3984      00
 3985 1210 E8000000 		call	_ZN8UnitTest9ListAdderC1ERNS_8TestListEPNS_4TestE
 3985      00
  95:testI2C.cpp   **** 	Buffer i2cBuffer;
 3986              		.loc 3 95 0
 3987 1215 BF000000 		movl	$testI2C_testWPRNoInitInstance, %edi
 3987      00
 3988 121a E8000000 		call	_ZN21TestI2C_testWPRNoInitC1Ev
 3988      00
 3989 121f BA000000 		movl	$__dso_handle, %edx
 3989      00
 3990 1224 BE000000 		movl	$testI2C_testWPRNoInitInstance, %esi
 3990      00
 3991 1229 BF000000 		movl	$_ZN21TestI2C_testWPRNoInitD1Ev, %edi
 3991      00
 3992 122e E8000000 		call	__cxa_atexit
 3992      00
 3993 1233 E8000000 		call	_ZN8UnitTest4Test11GetTestListEv
 3993      00
 3994 1238 BA000000 		movl	$testI2C_testWPRNoInitInstance, %edx
 3994      00
 3995 123d 4889C6   		movq	%rax, %rsi
 3996 1240 BF000000 		movl	$adderI2C_testWPRNoInit, %edi
 3996      00
 3997 1245 E8000000 		call	_ZN8UnitTest9ListAdderC1ERNS_8TestListEPNS_4TestE
 3997      00
 106:testI2C.cpp   **** 	Buffer buf;
 3998              		.loc 3 106 0
 3999 124a BF000000 		movl	$testI2C_testFinaliseNoInitInstance, %edi
 3999      00
 4000 124f E8000000 		call	_ZN26TestI2C_testFinaliseNoInitC1Ev
 4000      00
 4001 1254 BA000000 		movl	$__dso_handle, %edx
 4001      00
 4002 1259 BE000000 		movl	$testI2C_testFinaliseNoInitInstance, %esi
 4002      00
 4003 125e BF000000 		movl	$_ZN26TestI2C_testFinaliseNoInitD1Ev, %edi
 4003      00
 4004 1263 E8000000 		call	__cxa_atexit
 4004      00
 4005 1268 E8000000 		call	_ZN8UnitTest4Test11GetTestListEv
 4005      00
 4006 126d BA000000 		movl	$testI2C_testFinaliseNoInitInstance, %edx
 4006      00
 4007 1272 4889C6   		movq	%rax, %rsi
 4008 1275 BF000000 		movl	$adderI2C_testFinaliseNoInit, %edi
 4008      00
 4009 127a E8000000 		call	_ZN8UnitTest9ListAdderC1ERNS_8TestListEPNS_4TestE
 4009      00
 4010              	.L205:
 4011              		.loc 3 115 0
 4012 127f C9       		leave
 4013              		.cfi_def_cfa 7, 8
 4014 1280 C3       		ret
 4015              		.cfi_endproc
 4016              	.LFE1189:
 4019              	_GLOBAL__sub_I_testI2C_testInitialiseInstance:
 4020              	.LFB1190:
 4021              		.loc 3 115 0
 4022              		.cfi_startproc
 4023 1281 55       		pushq	%rbp
 4024              		.cfi_def_cfa_offset 16
 4025              		.cfi_offset 6, -16
 4026 1282 4889E5   		movq	%rsp, %rbp
 4027              		.cfi_def_cfa_register 6
 4028              		.loc 3 115 0
 4029 1285 BEFFFF00 		movl	$65535, %esi
 4029      00
 4030 128a BF010000 		movl	$1, %edi
 4030      00
 4031 128f E8F2FEFF 		call	_Z41__static_initialization_and_destruction_0ii
 4031      FF
 4032 1294 5D       		popq	%rbp
 4033              		.cfi_def_cfa 7, 8
 4034 1295 C3       		ret
 4035              		.cfi_endproc
 4036              	.LFE1190:
 4038              		.section	.init_array,"aw"
 4039              		.align 8
 4040 0000 00000000 		.quad	_GLOBAL__sub_I_testI2C_testInitialiseInstance
 4040      00000000 
 4041              		.section	.rodata
 4042 0269 00000000 		.align 8
 4042      000000
 4045              	_ZZL18__gthread_active_pvE20__gthread_active_ptr:
 4046 0270 00000000 		.quad	_ZL28__gthrw___pthread_key_createPjPFvPvE
 4046      00000000 
 4047              		.weakref	_ZL28__gthrw___pthread_key_createPjPFvPvE,__pthread_key_create
 4048              		.text
 4049              	.Letext0:
 4050              		.file 5 "/home/asoreyh/Dropbox/projects/lago/lago-software/acqua/brc/lago/makestuff/libs/libutpp/T
 4051              		.file 6 "/home/asoreyh/Dropbox/projects/lago/lago-software/acqua/brc/lago/makestuff/libs/libutpp/T
 4052              		.file 7 "/home/asoreyh/Dropbox/projects/lago/lago-software/acqua/brc/lago/makestuff/libs/libutpp/T
 4053              		.file 8 "/usr/lib/gcc/x86_64-linux-gnu/4.9/include/stddef.h"
 4054              		.file 9 "/usr/include/stdio.h"
 4055              		.file 10 "<built-in>"
 4056              		.file 11 "/usr/include/wchar.h"
 4057              		.file 12 "/usr/include/c++/4.9/cwchar"
 4058              		.file 13 "/usr/include/c++/4.9/bits/char_traits.h"
 4059              		.file 14 "/usr/include/x86_64-linux-gnu/c++/4.9/bits/c++config.h"
 4060              		.file 15 "/usr/include/c++/4.9/clocale"
 4061              		.file 16 "/usr/include/c++/4.9/bits/allocator.h"
 4062              		.file 17 "/usr/include/c++/4.9/bits/basic_string.h"
 4063              		.file 18 "/usr/include/c++/4.9/bits/basic_string.tcc"
 4064              		.file 19 "/usr/include/c++/4.9/bits/stringfwd.h"
 4065              		.file 20 "/usr/include/c++/4.9/cwctype"
 4066              		.file 21 "/usr/include/time.h"
 4067              		.file 22 "/usr/include/c++/4.9/debug/debug.h"
 4068              		.file 23 "/usr/include/c++/4.9/bits/predefined_ops.h"
 4069              		.file 24 "/usr/include/c++/4.9/ext/new_allocator.h"
 4070              		.file 25 "/usr/include/c++/4.9/ext/numeric_traits.h"
 4071              		.file 26 "/usr/include/locale.h"
 4072              		.file 27 "/usr/include/x86_64-linux-gnu/bits/types.h"
 4073              		.file 28 "/usr/include/x86_64-linux-gnu/c++/4.9/bits/atomic_word.h"
 4074              		.file 29 "/usr/include/wctype.h"
 4075              		.file 30 "/home/asoreyh/Dropbox/projects/lago/lago-software/acqua/brc/lago/makestuff/common/makest
 4076              		.file 31 "/home/asoreyh/Dropbox/projects/lago/lago-software/acqua/brc/lago/makestuff/libs/libbuffe
 4077              		.file 32 "../libfx2loader.h"