   1              		.file	"testI2C.cpp"
   2              		.text
   3              	.Ltext0:
   4              		.file 0 "/home/asoreyh/Dropbox/projects/lago/acqua/nexys/src/makestuff/libs/libfx2loader/tests" "t
   5              		.section	.rodata
   6              	.LC0:
   7 0000 44656661 		.string	"DefaultSuite"
   7      756C7453 
   7      75697465 
   7      00
   8              		.section	.text._ZN13UnitTestSuite12GetSuiteNameEv,"axG",@progbits,_ZN13UnitTestSuite12GetSuiteName
   9              		.weak	_ZN13UnitTestSuite12GetSuiteNameEv
  11              	_ZN13UnitTestSuite12GetSuiteNameEv:
  12              	.LFB0:
  13              		.file 1 "/home/asoreyh/Dropbox/projects/lago/acqua/nexys/src/makestuff/libs/libutpp/TestSuite.h"
   1:/home/asoreyh/Dropbox/projects/lago/acqua/nexys/src/makestuff/libs/libutpp/TestSuite.h **** #ifndef UNITTEST_TESTSUITE_H
   2:/home/asoreyh/Dropbox/projects/lago/acqua/nexys/src/makestuff/libs/libutpp/TestSuite.h **** #define UNITTEST_TESTSUITE_H
   3:/home/asoreyh/Dropbox/projects/lago/acqua/nexys/src/makestuff/libs/libutpp/TestSuite.h **** 
   4:/home/asoreyh/Dropbox/projects/lago/acqua/nexys/src/makestuff/libs/libutpp/TestSuite.h **** namespace UnitTestSuite {
   5:/home/asoreyh/Dropbox/projects/lago/acqua/nexys/src/makestuff/libs/libutpp/TestSuite.h **** 
   6:/home/asoreyh/Dropbox/projects/lago/acqua/nexys/src/makestuff/libs/libutpp/TestSuite.h ****     inline char const* GetSuiteName ()
   7:/home/asoreyh/Dropbox/projects/lago/acqua/nexys/src/makestuff/libs/libutpp/TestSuite.h ****     {
  14              		.loc 1 7 5
  15              		.cfi_startproc
  16 0000 F30F1EFA 		endbr64
  17 0004 55       		pushq	%rbp
  18              		.cfi_def_cfa_offset 16
  19              		.cfi_offset 6, -16
  20 0005 4889E5   		movq	%rsp, %rbp
  21              		.cfi_def_cfa_register 6
   8:/home/asoreyh/Dropbox/projects/lago/acqua/nexys/src/makestuff/libs/libutpp/TestSuite.h ****         return "DefaultSuite";
  22              		.loc 1 8 16
  23 0008 488D0500 		leaq	.LC0(%rip), %rax
  23      000000
   9:/home/asoreyh/Dropbox/projects/lago/acqua/nexys/src/makestuff/libs/libutpp/TestSuite.h ****     }
  24              		.loc 1 9 5
  25 000f 5D       		popq	%rbp
  26              		.cfi_def_cfa 7, 8
  27 0010 C3       		ret
  28              		.cfi_endproc
  29              	.LFE0:
  31              		.section	.text._ZN8UnitTest15MemoryOutStreamC1Ev,"axG",@progbits,_ZN8UnitTest15MemoryOutStreamC1Ev
  32              		.align 2
  33              		.weak	_ZN8UnitTest15MemoryOutStreamC1Ev
  35              	_ZN8UnitTest15MemoryOutStreamC1Ev:
  36              	.LFB1136:
  37              		.file 2 "/home/asoreyh/Dropbox/projects/lago/acqua/nexys/src/makestuff/libs/libutpp/MemoryOutStrea
   1:/home/asoreyh/Dropbox/projects/lago/acqua/nexys/src/makestuff/libs/libutpp/MemoryOutStream.h **** #ifndef UNITTEST_MEMORYOUTSTREAM_H
   2:/home/asoreyh/Dropbox/projects/lago/acqua/nexys/src/makestuff/libs/libutpp/MemoryOutStream.h **** #define UNITTEST_MEMORYOUTSTREAM_H
   3:/home/asoreyh/Dropbox/projects/lago/acqua/nexys/src/makestuff/libs/libutpp/MemoryOutStream.h **** 
   4:/home/asoreyh/Dropbox/projects/lago/acqua/nexys/src/makestuff/libs/libutpp/MemoryOutStream.h **** #include "Config.h"
   5:/home/asoreyh/Dropbox/projects/lago/acqua/nexys/src/makestuff/libs/libutpp/MemoryOutStream.h **** 
   6:/home/asoreyh/Dropbox/projects/lago/acqua/nexys/src/makestuff/libs/libutpp/MemoryOutStream.h **** #ifndef UNITTEST_USE_CUSTOM_STREAMS
   7:/home/asoreyh/Dropbox/projects/lago/acqua/nexys/src/makestuff/libs/libutpp/MemoryOutStream.h **** 
   8:/home/asoreyh/Dropbox/projects/lago/acqua/nexys/src/makestuff/libs/libutpp/MemoryOutStream.h **** #include <sstream>
   9:/home/asoreyh/Dropbox/projects/lago/acqua/nexys/src/makestuff/libs/libutpp/MemoryOutStream.h **** 
  10:/home/asoreyh/Dropbox/projects/lago/acqua/nexys/src/makestuff/libs/libutpp/MemoryOutStream.h **** namespace UnitTest
  11:/home/asoreyh/Dropbox/projects/lago/acqua/nexys/src/makestuff/libs/libutpp/MemoryOutStream.h **** {
  12:/home/asoreyh/Dropbox/projects/lago/acqua/nexys/src/makestuff/libs/libutpp/MemoryOutStream.h **** 
  13:/home/asoreyh/Dropbox/projects/lago/acqua/nexys/src/makestuff/libs/libutpp/MemoryOutStream.h **** class MemoryOutStream : public std::ostringstream
  14:/home/asoreyh/Dropbox/projects/lago/acqua/nexys/src/makestuff/libs/libutpp/MemoryOutStream.h **** {
  15:/home/asoreyh/Dropbox/projects/lago/acqua/nexys/src/makestuff/libs/libutpp/MemoryOutStream.h **** public:
  16:/home/asoreyh/Dropbox/projects/lago/acqua/nexys/src/makestuff/libs/libutpp/MemoryOutStream.h ****     MemoryOutStream() {}
  38              		.loc 2 16 5
  39              		.cfi_startproc
  40              		.cfi_personality 0x9b,DW.ref.__gxx_personality_v0
  41              		.cfi_lsda 0x1b,.LLSDA1136
  42 0000 F30F1EFA 		endbr64
  43 0004 55       		pushq	%rbp
  44              		.cfi_def_cfa_offset 16
  45              		.cfi_offset 6, -16
  46 0005 4889E5   		movq	%rsp, %rbp
  47              		.cfi_def_cfa_register 6
  48 0008 53       		pushq	%rbx
  49 0009 4883EC18 		subq	$24, %rsp
  50              		.cfi_offset 3, -24
  51 000d 48897DE8 		movq	%rdi, -24(%rbp)
  52              	.LBB5:
  53              		.loc 2 16 23
  54 0011 488B45E8 		movq	-24(%rbp), %rax
  55 0015 48059000 		addq	$144, %rax
  55      0000
  56 001b 4889C7   		movq	%rax, %rdi
  57              	.LEHB0:
  58 001e E8000000 		call	_ZNSt9basic_iosIcSt11char_traitsIcEEC2Ev@PLT
  58      00
  59              	.LEHE0:
  60 0023 488B45E8 		movq	-24(%rbp), %rax
  61 0027 488D1500 		leaq	8+_ZTTN8UnitTest15MemoryOutStreamE(%rip), %rdx
  61      000000
  62 002e 4889D6   		movq	%rdx, %rsi
  63 0031 4889C7   		movq	%rax, %rdi
  64              	.LEHB1:
  65 0034 E8000000 		call	_ZNSt7__cxx1119basic_ostringstreamIcSt11char_traitsIcESaIcEEC2Ev@PLT
  65      00
  66              	.LEHE1:
  67              		.loc 2 16 23 is_stmt 0 discriminator 2
  68 0039 488D1500 		leaq	24+_ZTVN8UnitTest15MemoryOutStreamE(%rip), %rdx
  68      000000
  69 0040 488B45E8 		movq	-24(%rbp), %rax
  70 0044 488910   		movq	%rdx, (%rax)
  71 0047 488B45E8 		movq	-24(%rbp), %rax
  72 004b 48059000 		addq	$144, %rax
  72      0000
  73 0051 488D1500 		leaq	64+_ZTVN8UnitTest15MemoryOutStreamE(%rip), %rdx
  73      000000
  74 0058 488910   		movq	%rdx, (%rax)
  75 005b 488B45E8 		movq	-24(%rbp), %rax
  76 005f 4883C070 		addq	$112, %rax
  77 0063 4889C7   		movq	%rax, %rdi
  78              	.LEHB2:
  79 0066 E8000000 		call	_ZNSt7__cxx1112basic_stringIcSt11char_traitsIcESaIcEEC1Ev@PLT
  79      00
  80              	.LEHE2:
  81              	.LBE5:
  82              		.loc 2 16 24 is_stmt 1
  83 006b EB43     		jmp	.L8
  84              	.L7:
  85 006d F30F1EFA 		endbr64
  86              	.LBB6:
  87 0071 4889C3   		movq	%rax, %rbx
  88 0074 488B45E8 		movq	-24(%rbp), %rax
  89 0078 488D1500 		leaq	8+_ZTTN8UnitTest15MemoryOutStreamE(%rip), %rdx
  89      000000
  90 007f 4889D6   		movq	%rdx, %rsi
  91 0082 4889C7   		movq	%rax, %rdi
  92 0085 E8000000 		call	_ZNSt7__cxx1119basic_ostringstreamIcSt11char_traitsIcESaIcEED2Ev@PLT
  92      00
  93 008a EB07     		jmp	.L5
  94              	.L6:
  95 008c F30F1EFA 		endbr64
  96 0090 4889C3   		movq	%rax, %rbx
  97              	.L5:
  98              		.loc 2 16 24 is_stmt 0 discriminator 1
  99 0093 488B45E8 		movq	-24(%rbp), %rax
 100 0097 48059000 		addq	$144, %rax
 100      0000
 101 009d 4889C7   		movq	%rax, %rdi
 102 00a0 E8000000 		call	_ZNSt9basic_iosIcSt11char_traitsIcEED2Ev@PLT
 102      00
 103 00a5 4889D8   		movq	%rbx, %rax
 104 00a8 4889C7   		movq	%rax, %rdi
 105              	.LEHB3:
 106 00ab E8000000 		call	_Unwind_Resume@PLT
 106      00
 107              	.LEHE3:
 108              	.L8:
 109              	.LBE6:
 110              		.loc 2 16 24
 111 00b0 488B5DF8 		movq	-8(%rbp), %rbx
 112 00b4 C9       		leave
 113              		.cfi_def_cfa 7, 8
 114 00b5 C3       		ret
 115              		.cfi_endproc
 116              	.LFE1136:
 117              		.globl	__gxx_personality_v0
 118              		.section	.gcc_except_table._ZN8UnitTest15MemoryOutStreamC1Ev,"aG",@progbits,_ZN8UnitTest15MemoryOu
 119              	.LLSDA1136:
 120 0000 FF       		.byte	0xff
 121 0001 FF       		.byte	0xff
 122 0002 01       		.byte	0x1
 123 0003 12       		.uleb128 .LLSDACSE1136-.LLSDACSB1136
 124              	.LLSDACSB1136:
 125 0004 1E       		.uleb128 .LEHB0-.LFB1136
 126 0005 05       		.uleb128 .LEHE0-.LEHB0
 127 0006 00       		.uleb128 0
 128 0007 00       		.uleb128 0
 129 0008 34       		.uleb128 .LEHB1-.LFB1136
 130 0009 05       		.uleb128 .LEHE1-.LEHB1
 131 000a 8C01     		.uleb128 .L6-.LFB1136
 132 000c 00       		.uleb128 0
 133 000d 66       		.uleb128 .LEHB2-.LFB1136
 134 000e 05       		.uleb128 .LEHE2-.LEHB2
 135 000f 6D       		.uleb128 .L7-.LFB1136
 136 0010 00       		.uleb128 0
 137 0011 AB01     		.uleb128 .LEHB3-.LFB1136
 138 0013 05       		.uleb128 .LEHE3-.LEHB3
 139 0014 00       		.uleb128 0
 140 0015 00       		.uleb128 0
 141              	.LLSDACSE1136:
 142              		.section	.text._ZN8UnitTest15MemoryOutStreamC1Ev,"axG",@progbits,_ZN8UnitTest15MemoryOutStreamC1Ev
 144              		.section	.rodata
 145              	.LC1:
 146 000d 74657374 		.string	"testI2C.cpp"
 146      4932432E 
 146      63707000 
 147              	.LC2:
 148 0019 4932435F 		.string	"I2C_testInitialise"
 148      74657374 
 148      496E6974 
 148      69616C69 
 148      736500
 149              		.section	.text._ZN22TestI2C_testInitialiseC2Ev,"axG",@progbits,_ZN22TestI2C_testInitialiseC5Ev,com
 150              		.align 2
 151              		.weak	_ZN22TestI2C_testInitialiseC2Ev
 153              	_ZN22TestI2C_testInitialiseC2Ev:
 154              	.LFB1153:
 155              		.file 3 "testI2C.cpp"
   1:testI2C.cpp   **** /*
   2:testI2C.cpp   ****  * Copyright (C) 2009-2012 Chris McClelland
   3:testI2C.cpp   ****  *
   4:testI2C.cpp   ****  * This program is free software: you can redistribute it and/or modify
   5:testI2C.cpp   ****  * it under the terms of the GNU Lesser General Public License as published by
   6:testI2C.cpp   ****  * the Free Software Foundation, either version 3 of the License, or
   7:testI2C.cpp   ****  * (at your option) any later version.
   8:testI2C.cpp   ****  *
   9:testI2C.cpp   ****  * This program is distributed in the hope that it will be useful,
  10:testI2C.cpp   ****  * but WITHOUT ANY WARRANTY; without even the implied warranty of
  11:testI2C.cpp   ****  * MERCHANTABILITY or FITNESS FOR A PARTICULAR PURPOSE.  See the
  12:testI2C.cpp   ****  * GNU Lesser General Public License for more details.
  13:testI2C.cpp   ****  *
  14:testI2C.cpp   ****  * You should have received a copy of the GNU Lesser General Public License
  15:testI2C.cpp   ****  * along with this program.  If not, see <http://www.gnu.org/licenses/>.
  16:testI2C.cpp   ****  */
  17:testI2C.cpp   **** #include <string.h>
  18:testI2C.cpp   **** #include <UnitTest++.h>
  19:testI2C.cpp   **** #include <makestuff.h>
  20:testI2C.cpp   **** #include <libbuffer.h>
  21:testI2C.cpp   **** #include "../libfx2loader.h"
  22:testI2C.cpp   **** #include "../libfx2loader.h"
  23:testI2C.cpp   **** 
  24:testI2C.cpp   **** #define VID 0x04b4
  25:testI2C.cpp   **** #define PID 0x8613
  26:testI2C.cpp   **** #define DID 0x0000
  27:testI2C.cpp   **** 
  28:testI2C.cpp   **** #define LSB(x) (x & 0xFF)
  29:testI2C.cpp   **** #define MSB(x) (x >> 8)
  30:testI2C.cpp   **** 
  31:testI2C.cpp   **** TEST(I2C_testInitialise) {
 156              		.loc 3 31 1 is_stmt 1
 157              		.cfi_startproc
 158 0000 F30F1EFA 		endbr64
 159 0004 55       		pushq	%rbp
 160              		.cfi_def_cfa_offset 16
 161              		.cfi_offset 6, -16
 162 0005 4889E5   		movq	%rsp, %rbp
 163              		.cfi_def_cfa_register 6
 164 0008 53       		pushq	%rbx
 165 0009 4883EC18 		subq	$24, %rsp
 166              		.cfi_offset 3, -24
 167 000d 48897DE8 		movq	%rdi, -24(%rbp)
 168              	.LBB7:
 169              		.loc 3 31 1
 170 0011 488B5DE8 		movq	-24(%rbp), %rbx
 171 0015 E8000000 		call	_ZN13UnitTestSuite12GetSuiteNameEv
 171      00
 172 001a 4889C2   		movq	%rax, %rdx
 173 001d 41B81F00 		movl	$31, %r8d
 173      0000
 174 0023 488D0500 		leaq	.LC1(%rip), %rax
 174      000000
 175 002a 4889C1   		movq	%rax, %rcx
 176 002d 488D0500 		leaq	.LC2(%rip), %rax
 176      000000
 177 0034 4889C6   		movq	%rax, %rsi
 178 0037 4889DF   		movq	%rbx, %rdi
 179 003a E8000000 		call	_ZN8UnitTest4TestC2EPKcS2_S2_i@PLT
 179      00
 180 003f 488D1500 		leaq	16+_ZTV22TestI2C_testInitialise(%rip), %rdx
 180      000000
 181 0046 488B45E8 		movq	-24(%rbp), %rax
 182 004a 488910   		movq	%rdx, (%rax)
 183              	.LBE7:
 184 004d 90       		nop
 185 004e 488B5DF8 		movq	-8(%rbp), %rbx
 186 0052 C9       		leave
 187              		.cfi_def_cfa 7, 8
 188 0053 C3       		ret
 189              		.cfi_endproc
 190              	.LFE1153:
 192              		.weak	_ZN22TestI2C_testInitialiseC1Ev
 193              		.set	_ZN22TestI2C_testInitialiseC1Ev,_ZN22TestI2C_testInitialiseC2Ev
 194              		.globl	testI2C_testInitialiseInstance
 195              		.bss
 196              		.align 32
 199              	testI2C_testInitialiseInstance:
 200 0000 00000000 		.zero	56
 200      00000000 
 200      00000000 
 200      00000000 
 200      00000000 
 201              		.globl	adderI2C_testInitialise
 204              	adderI2C_testInitialise:
 205 0038 00       		.zero	1
 206              		.section	.rodata
 207 002c 00000000 		.align 8
 208              	.LC3:
 209 0030 556E6861 		.string	"Unhandled exception in CHECK_EQUAL(BUF_SUCCESS, bStatus)"
 209      6E646C65 
 209      64206578 
 209      63657074 
 209      696F6E20 
 210 0069 00000000 		.align 8
 210      000000
 211              	.LC4:
 212 0070 556E6861 		.string	"Unhandled exception in CHECK_EQUAL(I2C_SUCCESS, iStatus)"
 212      6E646C65 
 212      64206578 
 212      63657074 
 212      696F6E20 
 213 00a9 00000000 		.align 8
 213      000000
 214              	.LC5:
 215 00b0 556E6861 		.string	"Unhandled exception in CHECK_EQUAL(8UL+5UL, i2cBuffer.length)"
 215      6E646C65 
 215      64206578 
 215      63657074 
 215      696F6E20 
 216 00ee 0000     		.align 8
 217              	.LC6:
 218 00f0 556E6861 		.string	"Unhandled exception in CHECK_EQUAL(1024UL, i2cBuffer.capacity)"
 218      6E646C65 
 218      64206578 
 218      63657074 
 218      696F6E20 
 219 012f 00       		.align 8
 220              	.LC7:
 221 0130 556E6861 		.string	"Unhandled exception in CHECK_ARRAY_EQUAL(expected, i2cBuffer.data)"
 221      6E646C65 
 221      64206578 
 221      63657074 
 221      696F6E20 
 222              		.text
 223              		.align 2
 224              		.globl	_ZNK22TestI2C_testInitialise7RunImplEv
 226              	_ZNK22TestI2C_testInitialise7RunImplEv:
 227              	.LFB1155:
 228              		.loc 3 31 26
 229              		.cfi_startproc
 230              		.cfi_personality 0x9b,DW.ref.__gxx_personality_v0
 231              		.cfi_lsda 0x1b,.LLSDA1155
 232 0000 F30F1EFA 		endbr64
 233 0004 55       		pushq	%rbp
 234              		.cfi_def_cfa_offset 16
 235              		.cfi_offset 6, -16
 236 0005 4889E5   		movq	%rsp, %rbp
 237              		.cfi_def_cfa_register 6
 238 0008 53       		pushq	%rbx
 239 0009 4881EC88 		subq	$136, %rsp
 239      000000
 240              		.cfi_offset 3, -24
 241 0010 4889BD78 		movq	%rdi, -136(%rbp)
 241      FFFFFF
 242              		.loc 3 31 26
 243 0017 64488B04 		movq	%fs:40, %rax
 243      25280000 
 243      00
 244 0020 488945E8 		movq	%rax, -24(%rbp)
 245 0024 31C0     		xorl	%eax, %eax
  32:testI2C.cpp   **** 	Buffer i2cBuffer;
  33:testI2C.cpp   **** 	I2CStatus iStatus;
  34:testI2C.cpp   **** 	BufferStatus bStatus;
  35:testI2C.cpp   **** 	const uint8 expected[] = {0xC2, LSB(VID), MSB(VID), LSB(PID), MSB(PID), LSB(DID), MSB(DID), CONFIG
 246              		.loc 3 35 14
 247 0026 48B8C2B4 		movabsq	$72058169882621122, %rax
 247      04138600 
 247      0001
 248 0030 488945DB 		movq	%rax, -37(%rbp)
 249 0034 48B80000 		movabsq	$252894116904960, %rax
 249      018001E6 
 249      0000
 250 003e 488945E0 		movq	%rax, -32(%rbp)
  36:testI2C.cpp   **** 	bStatus = bufInitialise(&i2cBuffer, 1024, 0x00, NULL);
 251              		.loc 3 36 25
 252 0042 488D4590 		leaq	-112(%rbp), %rax
 253 0046 B9000000 		movl	$0, %ecx
 253      00
 254 004b BA000000 		movl	$0, %edx
 254      00
 255 0050 BE000400 		movl	$1024, %esi
 255      00
 256 0055 4889C7   		movq	%rax, %rdi
 257              	.LEHB4:
 258 0058 E8000000 		call	bufInitialise@PLT
 258      00
 259              	.LEHE4:
 260              		.loc 3 36 10
 261 005d 894584   		movl	%eax, -124(%rbp)
 262              	.LEHB5:
  37:testI2C.cpp   **** 	CHECK_EQUAL(BUF_SUCCESS, bStatus);
 263              		.loc 3 37 2
 264 0060 E8000000 		call	_ZN8UnitTest11CurrentTest7DetailsEv@PLT
 264      00
 265 0065 488B08   		movq	(%rax), %rcx
 266 0068 488D45B0 		leaq	-80(%rbp), %rax
 267 006c BA250000 		movl	$37, %edx
 267      00
 268 0071 4889CE   		movq	%rcx, %rsi
 269 0074 4889C7   		movq	%rax, %rdi
 270 0077 E8000000 		call	_ZN8UnitTest11TestDetailsC1ERKS0_i@PLT
 270      00
 271              		.loc 3 37 2 is_stmt 0 discriminator 4
 272 007c C7458800 		movl	$0, -120(%rbp)
 272      000000
 273 0083 E8000000 		call	_ZN8UnitTest11CurrentTest7ResultsEv@PLT
 273      00
 274 0088 488B00   		movq	(%rax), %rax
 275 008b 488D4DB0 		leaq	-80(%rbp), %rcx
 276 008f 488D5584 		leaq	-124(%rbp), %rdx
 277 0093 488D7588 		leaq	-120(%rbp), %rsi
 278 0097 4889C7   		movq	%rax, %rdi
 279 009a E8000000 		call	_ZN8UnitTest10CheckEqualI12BufferStatusS1_EEvRNS_11TestResultsERKT_RKT0_RKNS_11TestDetailsE
 279      00
 280              	.LEHE5:
 281              	.L12:
  38:testI2C.cpp   **** 	i2cInitialise(&i2cBuffer, VID, PID, DID, CONFIG_BYTE_400KHZ);
 282              		.loc 3 38 15 is_stmt 1
 283 009f 488D4590 		leaq	-112(%rbp), %rax
 284 00a3 41B80100 		movl	$1, %r8d
 284      0000
 285 00a9 B9000000 		movl	$0, %ecx
 285      00
 286 00ae BA138600 		movl	$34323, %edx
 286      00
 287 00b3 BEB40400 		movl	$1204, %esi
 287      00
 288 00b8 4889C7   		movq	%rax, %rdi
 289              	.LEHB6:
 290 00bb E8000000 		call	i2cInitialise@PLT
 290      00
  39:testI2C.cpp   **** 	iStatus = i2cFinalise(&i2cBuffer, NULL);
 291              		.loc 3 39 23
 292 00c0 488D4590 		leaq	-112(%rbp), %rax
 293 00c4 BE000000 		movl	$0, %esi
 293      00
 294 00c9 4889C7   		movq	%rax, %rdi
 295 00cc E8000000 		call	i2cFinalise@PLT
 295      00
 296              	.LEHE6:
 297              		.loc 3 39 10
 298 00d1 894580   		movl	%eax, -128(%rbp)
 299              	.LEHB7:
  40:testI2C.cpp   **** 	CHECK_EQUAL(I2C_SUCCESS, iStatus);
 300              		.loc 3 40 2
 301 00d4 E8000000 		call	_ZN8UnitTest11CurrentTest7DetailsEv@PLT
 301      00
 302 00d9 488B08   		movq	(%rax), %rcx
 303 00dc 488D45B0 		leaq	-80(%rbp), %rax
 304 00e0 BA280000 		movl	$40, %edx
 304      00
 305 00e5 4889CE   		movq	%rcx, %rsi
 306 00e8 4889C7   		movq	%rax, %rdi
 307 00eb E8000000 		call	_ZN8UnitTest11TestDetailsC1ERKS0_i@PLT
 307      00
 308              		.loc 3 40 2 is_stmt 0 discriminator 4
 309 00f0 C7458800 		movl	$0, -120(%rbp)
 309      000000
 310 00f7 E8000000 		call	_ZN8UnitTest11CurrentTest7ResultsEv@PLT
 310      00
 311 00fc 488B00   		movq	(%rax), %rax
 312 00ff 488D4DB0 		leaq	-80(%rbp), %rcx
 313 0103 488D5580 		leaq	-128(%rbp), %rdx
 314 0107 488D7588 		leaq	-120(%rbp), %rsi
 315 010b 4889C7   		movq	%rax, %rdi
 316 010e E8000000 		call	_ZN8UnitTest10CheckEqualI9I2CStatusS1_EEvRNS_11TestResultsERKT_RKT0_RKNS_11TestDetailsE
 316      00
 317              	.LEHE7:
 318              	.L15:
 319              	.LEHB8:
  41:testI2C.cpp   **** 	CHECK_EQUAL(8UL+5UL, i2cBuffer.length);
 320              		.loc 3 41 2 is_stmt 1
 321 0113 E8000000 		call	_ZN8UnitTest11CurrentTest7DetailsEv@PLT
 321      00
 322 0118 488B08   		movq	(%rax), %rcx
 323 011b 488D45B0 		leaq	-80(%rbp), %rax
 324 011f BA290000 		movl	$41, %edx
 324      00
 325 0124 4889CE   		movq	%rcx, %rsi
 326 0127 4889C7   		movq	%rax, %rdi
 327 012a E8000000 		call	_ZN8UnitTest11TestDetailsC1ERKS0_i@PLT
 327      00
 328              		.loc 3 41 2 is_stmt 0 discriminator 4
 329 012f 48C74588 		movq	$13, -120(%rbp)
 329      0D000000 
 330 0137 E8000000 		call	_ZN8UnitTest11CurrentTest7ResultsEv@PLT
 330      00
 331 013c 488B00   		movq	(%rax), %rax
 332 013f 488D55B0 		leaq	-80(%rbp), %rdx
 333 0143 488D4D90 		leaq	-112(%rbp), %rcx
 334 0147 488D7908 		leaq	8(%rcx), %rdi
 335 014b 488D7588 		leaq	-120(%rbp), %rsi
 336 014f 4889D1   		movq	%rdx, %rcx
 337 0152 4889FA   		movq	%rdi, %rdx
 338 0155 4889C7   		movq	%rax, %rdi
 339 0158 E8000000 		call	_ZN8UnitTest10CheckEqualImjEEvRNS_11TestResultsERKT_RKT0_RKNS_11TestDetailsE
 339      00
 340              	.LEHE8:
 341              	.L18:
 342              	.LEHB9:
  42:testI2C.cpp   **** 	CHECK_EQUAL(1024UL, i2cBuffer.capacity);
 343              		.loc 3 42 2 is_stmt 1
 344 015d E8000000 		call	_ZN8UnitTest11CurrentTest7DetailsEv@PLT
 344      00
 345 0162 488B08   		movq	(%rax), %rcx
 346 0165 488D45B0 		leaq	-80(%rbp), %rax
 347 0169 BA2A0000 		movl	$42, %edx
 347      00
 348 016e 4889CE   		movq	%rcx, %rsi
 349 0171 4889C7   		movq	%rax, %rdi
 350 0174 E8000000 		call	_ZN8UnitTest11TestDetailsC1ERKS0_i@PLT
 350      00
 351              		.loc 3 42 2 is_stmt 0 discriminator 4
 352 0179 48C74588 		movq	$1024, -120(%rbp)
 352      00040000 
 353 0181 E8000000 		call	_ZN8UnitTest11CurrentTest7ResultsEv@PLT
 353      00
 354 0186 488B00   		movq	(%rax), %rax
 355 0189 488D55B0 		leaq	-80(%rbp), %rdx
 356 018d 488D4D90 		leaq	-112(%rbp), %rcx
 357 0191 488D790C 		leaq	12(%rcx), %rdi
 358 0195 488D7588 		leaq	-120(%rbp), %rsi
 359 0199 4889D1   		movq	%rdx, %rcx
 360 019c 4889FA   		movq	%rdi, %rdx
 361 019f 4889C7   		movq	%rax, %rdi
 362 01a2 E8000000 		call	_ZN8UnitTest10CheckEqualImjEEvRNS_11TestResultsERKT_RKT0_RKNS_11TestDetailsE
 362      00
 363              	.LEHE9:
 364              	.L21:
 365              	.LEHB10:
  43:testI2C.cpp   **** 	CHECK_ARRAY_EQUAL(expected, i2cBuffer.data, 8+5);
 366              		.loc 3 43 2 is_stmt 1
 367 01a7 E8000000 		call	_ZN8UnitTest11CurrentTest7DetailsEv@PLT
 367      00
 368 01ac 488B08   		movq	(%rax), %rcx
 369 01af 488D45B0 		leaq	-80(%rbp), %rax
 370 01b3 BA2B0000 		movl	$43, %edx
 370      00
 371 01b8 4889CE   		movq	%rcx, %rsi
 372 01bb 4889C7   		movq	%rax, %rdi
 373 01be E8000000 		call	_ZN8UnitTest11TestDetailsC1ERKS0_i@PLT
 373      00
 374              		.loc 3 43 2 is_stmt 0 discriminator 4
 375 01c3 E8000000 		call	_ZN8UnitTest11CurrentTest7ResultsEv@PLT
 375      00
 376 01c8 488B00   		movq	(%rax), %rax
 377 01cb 488D4DB0 		leaq	-80(%rbp), %rcx
 378 01cf 488D5590 		leaq	-112(%rbp), %rdx
 379 01d3 488D75DB 		leaq	-37(%rbp), %rsi
 380 01d7 4989C8   		movq	%rcx, %r8
 381 01da B90D0000 		movl	$13, %ecx
 381      00
 382 01df 4889C7   		movq	%rax, %rdi
 383 01e2 E8000000 		call	_ZN8UnitTest15CheckArrayEqualIA13_hPhEEvRNS_11TestResultsERKT_RKT0_iRKNS_11TestDetailsE
 383      00
 384              	.LEHE10:
 385              	.L24:
  44:testI2C.cpp   **** 	bufDestroy(&i2cBuffer);
 386              		.loc 3 44 12 is_stmt 1
 387 01e7 488D4590 		leaq	-112(%rbp), %rax
 388 01eb 4889C7   		movq	%rax, %rdi
 389              	.LEHB11:
 390 01ee E8000000 		call	bufDestroy@PLT
 390      00
 391              	.LEHE11:
  45:testI2C.cpp   **** }
 392              		.loc 3 45 1
 393 01f3 90       		nop
 394 01f4 488B45E8 		movq	-24(%rbp), %rax
 395 01f8 64482B04 		subq	%fs:40, %rax
 395      25280000 
 395      00
 396 0201 0F840D02 		je	.L26
 396      0000
 397 0207 E9030200 		jmp	.L37
 397      00
 398              	.L27:
 399 020c F30F1EFA 		endbr64
  37:testI2C.cpp   **** 	i2cInitialise(&i2cBuffer, VID, PID, DID, CONFIG_BYTE_400KHZ);
 400              		.loc 3 37 2
 401 0210 4889C7   		movq	%rax, %rdi
 402 0213 E8000000 		call	__cxa_begin_catch@PLT
 402      00
 403              	.LEHB12:
 404 0218 E8000000 		call	_ZN8UnitTest11CurrentTest7ResultsEv@PLT
 404      00
  37:testI2C.cpp   **** 	i2cInitialise(&i2cBuffer, VID, PID, DID, CONFIG_BYTE_400KHZ);
 405              		.loc 3 37 2 is_stmt 0 discriminator 3
 406 021d 488B18   		movq	(%rax), %rbx
 407 0220 E8000000 		call	_ZN8UnitTest11CurrentTest7DetailsEv@PLT
 407      00
  37:testI2C.cpp   **** 	i2cInitialise(&i2cBuffer, VID, PID, DID, CONFIG_BYTE_400KHZ);
 408              		.loc 3 37 2 discriminator 11
 409 0225 488B08   		movq	(%rax), %rcx
 410 0228 488D45B0 		leaq	-80(%rbp), %rax
 411 022c BA250000 		movl	$37, %edx
 411      00
 412 0231 4889CE   		movq	%rcx, %rsi
 413 0234 4889C7   		movq	%rax, %rdi
 414 0237 E8000000 		call	_ZN8UnitTest11TestDetailsC1ERKS0_i@PLT
 414      00
  37:testI2C.cpp   **** 	i2cInitialise(&i2cBuffer, VID, PID, DID, CONFIG_BYTE_400KHZ);
 415              		.loc 3 37 2 discriminator 15
 416 023c 488D45B0 		leaq	-80(%rbp), %rax
 417 0240 488D1500 		leaq	.LC3(%rip), %rdx
 417      000000
 418 0247 4889C6   		movq	%rax, %rsi
 419 024a 4889DF   		movq	%rbx, %rdi
 420 024d E8000000 		call	_ZN8UnitTest11TestResults13OnTestFailureERKNS_11TestDetailsEPKc@PLT
 420      00
 421              	.LEHE12:
 422              	.LEHB13:
  37:testI2C.cpp   **** 	i2cInitialise(&i2cBuffer, VID, PID, DID, CONFIG_BYTE_400KHZ);
 423              		.loc 3 37 2 discriminator 17
 424 0252 E8000000 		call	__cxa_end_catch@PLT
 424      00
 425              	.LEHE13:
 426 0257 E943FEFF 		jmp	.L12
 426      FF
 427              	.L28:
 428 025c F30F1EFA 		endbr64
  37:testI2C.cpp   **** 	i2cInitialise(&i2cBuffer, VID, PID, DID, CONFIG_BYTE_400KHZ);
 429              		.loc 3 37 2
 430 0260 4889C3   		movq	%rax, %rbx
 431 0263 E8000000 		call	__cxa_end_catch@PLT
 431      00
 432 0268 4889D8   		movq	%rbx, %rax
 433 026b 4889C7   		movq	%rax, %rdi
 434              	.LEHB14:
 435 026e E8000000 		call	_Unwind_Resume@PLT
 435      00
 436              	.LEHE14:
 437              	.L29:
 438 0273 F30F1EFA 		endbr64
  40:testI2C.cpp   **** 	CHECK_EQUAL(8UL+5UL, i2cBuffer.length);
 439              		.loc 3 40 2 is_stmt 1
 440 0277 4889C7   		movq	%rax, %rdi
 441 027a E8000000 		call	__cxa_begin_catch@PLT
 441      00
 442              	.LEHB15:
 443 027f E8000000 		call	_ZN8UnitTest11CurrentTest7ResultsEv@PLT
 443      00
  40:testI2C.cpp   **** 	CHECK_EQUAL(8UL+5UL, i2cBuffer.length);
 444              		.loc 3 40 2 is_stmt 0 discriminator 3
 445 0284 488B18   		movq	(%rax), %rbx
 446 0287 E8000000 		call	_ZN8UnitTest11CurrentTest7DetailsEv@PLT
 446      00
  40:testI2C.cpp   **** 	CHECK_EQUAL(8UL+5UL, i2cBuffer.length);
 447              		.loc 3 40 2 discriminator 11
 448 028c 488B08   		movq	(%rax), %rcx
 449 028f 488D45B0 		leaq	-80(%rbp), %rax
 450 0293 BA280000 		movl	$40, %edx
 450      00
 451 0298 4889CE   		movq	%rcx, %rsi
 452 029b 4889C7   		movq	%rax, %rdi
 453 029e E8000000 		call	_ZN8UnitTest11TestDetailsC1ERKS0_i@PLT
 453      00
  40:testI2C.cpp   **** 	CHECK_EQUAL(8UL+5UL, i2cBuffer.length);
 454              		.loc 3 40 2 discriminator 15
 455 02a3 488D45B0 		leaq	-80(%rbp), %rax
 456 02a7 488D1500 		leaq	.LC4(%rip), %rdx
 456      000000
 457 02ae 4889C6   		movq	%rax, %rsi
 458 02b1 4889DF   		movq	%rbx, %rdi
 459 02b4 E8000000 		call	_ZN8UnitTest11TestResults13OnTestFailureERKNS_11TestDetailsEPKc@PLT
 459      00
 460              	.LEHE15:
 461              	.LEHB16:
  40:testI2C.cpp   **** 	CHECK_EQUAL(8UL+5UL, i2cBuffer.length);
 462              		.loc 3 40 2 discriminator 17
 463 02b9 E8000000 		call	__cxa_end_catch@PLT
 463      00
 464              	.LEHE16:
 465 02be E950FEFF 		jmp	.L15
 465      FF
 466              	.L30:
 467 02c3 F30F1EFA 		endbr64
  40:testI2C.cpp   **** 	CHECK_EQUAL(8UL+5UL, i2cBuffer.length);
 468              		.loc 3 40 2
 469 02c7 4889C3   		movq	%rax, %rbx
 470 02ca E8000000 		call	__cxa_end_catch@PLT
 470      00
 471 02cf 4889D8   		movq	%rbx, %rax
 472 02d2 4889C7   		movq	%rax, %rdi
 473              	.LEHB17:
 474 02d5 E8000000 		call	_Unwind_Resume@PLT
 474      00
 475              	.LEHE17:
 476              	.L31:
 477 02da F30F1EFA 		endbr64
  41:testI2C.cpp   **** 	CHECK_EQUAL(1024UL, i2cBuffer.capacity);
 478              		.loc 3 41 2 is_stmt 1
 479 02de 4889C7   		movq	%rax, %rdi
 480 02e1 E8000000 		call	__cxa_begin_catch@PLT
 480      00
 481              	.LEHB18:
 482 02e6 E8000000 		call	_ZN8UnitTest11CurrentTest7ResultsEv@PLT
 482      00
  41:testI2C.cpp   **** 	CHECK_EQUAL(1024UL, i2cBuffer.capacity);
 483              		.loc 3 41 2 is_stmt 0 discriminator 3
 484 02eb 488B18   		movq	(%rax), %rbx
 485 02ee E8000000 		call	_ZN8UnitTest11CurrentTest7DetailsEv@PLT
 485      00
  41:testI2C.cpp   **** 	CHECK_EQUAL(1024UL, i2cBuffer.capacity);
 486              		.loc 3 41 2 discriminator 11
 487 02f3 488B08   		movq	(%rax), %rcx
 488 02f6 488D45B0 		leaq	-80(%rbp), %rax
 489 02fa BA290000 		movl	$41, %edx
 489      00
 490 02ff 4889CE   		movq	%rcx, %rsi
 491 0302 4889C7   		movq	%rax, %rdi
 492 0305 E8000000 		call	_ZN8UnitTest11TestDetailsC1ERKS0_i@PLT
 492      00
  41:testI2C.cpp   **** 	CHECK_EQUAL(1024UL, i2cBuffer.capacity);
 493              		.loc 3 41 2 discriminator 15
 494 030a 488D45B0 		leaq	-80(%rbp), %rax
 495 030e 488D1500 		leaq	.LC5(%rip), %rdx
 495      000000
 496 0315 4889C6   		movq	%rax, %rsi
 497 0318 4889DF   		movq	%rbx, %rdi
 498 031b E8000000 		call	_ZN8UnitTest11TestResults13OnTestFailureERKNS_11TestDetailsEPKc@PLT
 498      00
 499              	.LEHE18:
 500              	.LEHB19:
  41:testI2C.cpp   **** 	CHECK_EQUAL(1024UL, i2cBuffer.capacity);
 501              		.loc 3 41 2 discriminator 17
 502 0320 E8000000 		call	__cxa_end_catch@PLT
 502      00
 503              	.LEHE19:
 504 0325 E933FEFF 		jmp	.L18
 504      FF
 505              	.L32:
 506 032a F30F1EFA 		endbr64
  41:testI2C.cpp   **** 	CHECK_EQUAL(1024UL, i2cBuffer.capacity);
 507              		.loc 3 41 2
 508 032e 4889C3   		movq	%rax, %rbx
 509 0331 E8000000 		call	__cxa_end_catch@PLT
 509      00
 510 0336 4889D8   		movq	%rbx, %rax
 511 0339 4889C7   		movq	%rax, %rdi
 512              	.LEHB20:
 513 033c E8000000 		call	_Unwind_Resume@PLT
 513      00
 514              	.LEHE20:
 515              	.L33:
 516 0341 F30F1EFA 		endbr64
  42:testI2C.cpp   **** 	CHECK_ARRAY_EQUAL(expected, i2cBuffer.data, 8+5);
 517              		.loc 3 42 2 is_stmt 1
 518 0345 4889C7   		movq	%rax, %rdi
 519 0348 E8000000 		call	__cxa_begin_catch@PLT
 519      00
 520              	.LEHB21:
 521 034d E8000000 		call	_ZN8UnitTest11CurrentTest7ResultsEv@PLT
 521      00
  42:testI2C.cpp   **** 	CHECK_ARRAY_EQUAL(expected, i2cBuffer.data, 8+5);
 522              		.loc 3 42 2 is_stmt 0 discriminator 3
 523 0352 488B18   		movq	(%rax), %rbx
 524 0355 E8000000 		call	_ZN8UnitTest11CurrentTest7DetailsEv@PLT
 524      00
  42:testI2C.cpp   **** 	CHECK_ARRAY_EQUAL(expected, i2cBuffer.data, 8+5);
 525              		.loc 3 42 2 discriminator 11
 526 035a 488B08   		movq	(%rax), %rcx
 527 035d 488D45B0 		leaq	-80(%rbp), %rax
 528 0361 BA2A0000 		movl	$42, %edx
 528      00
 529 0366 4889CE   		movq	%rcx, %rsi
 530 0369 4889C7   		movq	%rax, %rdi
 531 036c E8000000 		call	_ZN8UnitTest11TestDetailsC1ERKS0_i@PLT
 531      00
  42:testI2C.cpp   **** 	CHECK_ARRAY_EQUAL(expected, i2cBuffer.data, 8+5);
 532              		.loc 3 42 2 discriminator 15
 533 0371 488D45B0 		leaq	-80(%rbp), %rax
 534 0375 488D1500 		leaq	.LC6(%rip), %rdx
 534      000000
 535 037c 4889C6   		movq	%rax, %rsi
 536 037f 4889DF   		movq	%rbx, %rdi
 537 0382 E8000000 		call	_ZN8UnitTest11TestResults13OnTestFailureERKNS_11TestDetailsEPKc@PLT
 537      00
 538              	.LEHE21:
 539              	.LEHB22:
  42:testI2C.cpp   **** 	CHECK_ARRAY_EQUAL(expected, i2cBuffer.data, 8+5);
 540              		.loc 3 42 2 discriminator 17
 541 0387 E8000000 		call	__cxa_end_catch@PLT
 541      00
 542              	.LEHE22:
 543 038c E916FEFF 		jmp	.L21
 543      FF
 544              	.L34:
 545 0391 F30F1EFA 		endbr64
  42:testI2C.cpp   **** 	CHECK_ARRAY_EQUAL(expected, i2cBuffer.data, 8+5);
 546              		.loc 3 42 2
 547 0395 4889C3   		movq	%rax, %rbx
 548 0398 E8000000 		call	__cxa_end_catch@PLT
 548      00
 549 039d 4889D8   		movq	%rbx, %rax
 550 03a0 4889C7   		movq	%rax, %rdi
 551              	.LEHB23:
 552 03a3 E8000000 		call	_Unwind_Resume@PLT
 552      00
 553              	.LEHE23:
 554              	.L35:
 555 03a8 F30F1EFA 		endbr64
  43:testI2C.cpp   **** 	bufDestroy(&i2cBuffer);
 556              		.loc 3 43 2 is_stmt 1
 557 03ac 4889C7   		movq	%rax, %rdi
 558 03af E8000000 		call	__cxa_begin_catch@PLT
 558      00
 559              	.LEHB24:
 560 03b4 E8000000 		call	_ZN8UnitTest11CurrentTest7ResultsEv@PLT
 560      00
  43:testI2C.cpp   **** 	bufDestroy(&i2cBuffer);
 561              		.loc 3 43 2 is_stmt 0 discriminator 7
 562 03b9 488B18   		movq	(%rax), %rbx
 563 03bc E8000000 		call	_ZN8UnitTest11CurrentTest7DetailsEv@PLT
 563      00
  43:testI2C.cpp   **** 	bufDestroy(&i2cBuffer);
 564              		.loc 3 43 2 discriminator 11
 565 03c1 488B08   		movq	(%rax), %rcx
 566 03c4 488D45B0 		leaq	-80(%rbp), %rax
 567 03c8 BA2B0000 		movl	$43, %edx
 567      00
 568 03cd 4889CE   		movq	%rcx, %rsi
 569 03d0 4889C7   		movq	%rax, %rdi
 570 03d3 E8000000 		call	_ZN8UnitTest11TestDetailsC1ERKS0_i@PLT
 570      00
  43:testI2C.cpp   **** 	bufDestroy(&i2cBuffer);
 571              		.loc 3 43 2 discriminator 15
 572 03d8 488D45B0 		leaq	-80(%rbp), %rax
 573 03dc 488D1500 		leaq	.LC7(%rip), %rdx
 573      000000
 574 03e3 4889C6   		movq	%rax, %rsi
 575 03e6 4889DF   		movq	%rbx, %rdi
 576 03e9 E8000000 		call	_ZN8UnitTest11TestResults13OnTestFailureERKNS_11TestDetailsEPKc@PLT
 576      00
 577              	.LEHE24:
 578              	.LEHB25:
  43:testI2C.cpp   **** 	bufDestroy(&i2cBuffer);
 579              		.loc 3 43 2 discriminator 17
 580 03ee E8000000 		call	__cxa_end_catch@PLT
 580      00
 581              	.LEHE25:
 582 03f3 E9EFFDFF 		jmp	.L24
 582      FF
 583              	.L36:
 584 03f8 F30F1EFA 		endbr64
  43:testI2C.cpp   **** 	bufDestroy(&i2cBuffer);
 585              		.loc 3 43 2
 586 03fc 4889C3   		movq	%rax, %rbx
 587 03ff E8000000 		call	__cxa_end_catch@PLT
 587      00
 588 0404 4889D8   		movq	%rbx, %rax
 589 0407 4889C7   		movq	%rax, %rdi
 590              	.LEHB26:
 591 040a E8000000 		call	_Unwind_Resume@PLT
 591      00
 592              	.LEHE26:
 593              	.L37:
 594              		.loc 3 45 1 is_stmt 1
 595 040f E8000000 		call	__stack_chk_fail@PLT
 595      00
 596              	.L26:
 597 0414 488B5DF8 		movq	-8(%rbp), %rbx
 598 0418 C9       		leave
 599              		.cfi_def_cfa 7, 8
 600 0419 C3       		ret
 601              		.cfi_endproc
 602              	.LFE1155:
 603              		.section	.gcc_except_table,"a",@progbits
 604              		.align 4
 605              	.LLSDA1155:
 606 0000 FF       		.byte	0xff
 607 0001 9B       		.byte	0x9b
 608 0002 8401     		.uleb128 .LLSDATT1155-.LLSDATTD1155
 609              	.LLSDATTD1155:
 610 0004 01       		.byte	0x1
 611 0005 7B       		.uleb128 .LLSDACSE1155-.LLSDACSB1155
 612              	.LLSDACSB1155:
 613 0006 58       		.uleb128 .LEHB4-.LFB1155
 614 0007 05       		.uleb128 .LEHE4-.LEHB4
 615 0008 00       		.uleb128 0
 616 0009 00       		.uleb128 0
 617 000a 60       		.uleb128 .LEHB5-.LFB1155
 618 000b 3F       		.uleb128 .LEHE5-.LEHB5
 619 000c 8C04     		.uleb128 .L27-.LFB1155
 620 000e 01       		.uleb128 0x1
 621 000f BB01     		.uleb128 .LEHB6-.LFB1155
 622 0011 16       		.uleb128 .LEHE6-.LEHB6
 623 0012 00       		.uleb128 0
 624 0013 00       		.uleb128 0
 625 0014 D401     		.uleb128 .LEHB7-.LFB1155
 626 0016 3F       		.uleb128 .LEHE7-.LEHB7
 627 0017 F304     		.uleb128 .L29-.LFB1155
 628 0019 01       		.uleb128 0x1
 629 001a 9302     		.uleb128 .LEHB8-.LFB1155
 630 001c 4A       		.uleb128 .LEHE8-.LEHB8
 631 001d DA05     		.uleb128 .L31-.LFB1155
 632 001f 01       		.uleb128 0x1
 633 0020 DD02     		.uleb128 .LEHB9-.LFB1155
 634 0022 4A       		.uleb128 .LEHE9-.LEHB9
 635 0023 C106     		.uleb128 .L33-.LFB1155
 636 0025 01       		.uleb128 0x1
 637 0026 A703     		.uleb128 .LEHB10-.LFB1155
 638 0028 40       		.uleb128 .LEHE10-.LEHB10
 639 0029 A807     		.uleb128 .L35-.LFB1155
 640 002b 01       		.uleb128 0x1
 641 002c EE03     		.uleb128 .LEHB11-.LFB1155
 642 002e 05       		.uleb128 .LEHE11-.LEHB11
 643 002f 00       		.uleb128 0
 644 0030 00       		.uleb128 0
 645 0031 9804     		.uleb128 .LEHB12-.LFB1155
 646 0033 3A       		.uleb128 .LEHE12-.LEHB12
 647 0034 DC04     		.uleb128 .L28-.LFB1155
 648 0036 00       		.uleb128 0
 649 0037 D204     		.uleb128 .LEHB13-.LFB1155
 650 0039 05       		.uleb128 .LEHE13-.LEHB13
 651 003a 00       		.uleb128 0
 652 003b 00       		.uleb128 0
 653 003c EE04     		.uleb128 .LEHB14-.LFB1155
 654 003e 05       		.uleb128 .LEHE14-.LEHB14
 655 003f 00       		.uleb128 0
 656 0040 00       		.uleb128 0
 657 0041 FF04     		.uleb128 .LEHB15-.LFB1155
 658 0043 3A       		.uleb128 .LEHE15-.LEHB15
 659 0044 C305     		.uleb128 .L30-.LFB1155
 660 0046 00       		.uleb128 0
 661 0047 B905     		.uleb128 .LEHB16-.LFB1155
 662 0049 05       		.uleb128 .LEHE16-.LEHB16
 663 004a 00       		.uleb128 0
 664 004b 00       		.uleb128 0
 665 004c D505     		.uleb128 .LEHB17-.LFB1155
 666 004e 05       		.uleb128 .LEHE17-.LEHB17
 667 004f 00       		.uleb128 0
 668 0050 00       		.uleb128 0
 669 0051 E605     		.uleb128 .LEHB18-.LFB1155
 670 0053 3A       		.uleb128 .LEHE18-.LEHB18
 671 0054 AA06     		.uleb128 .L32-.LFB1155
 672 0056 00       		.uleb128 0
 673 0057 A006     		.uleb128 .LEHB19-.LFB1155
 674 0059 05       		.uleb128 .LEHE19-.LEHB19
 675 005a 00       		.uleb128 0
 676 005b 00       		.uleb128 0
 677 005c BC06     		.uleb128 .LEHB20-.LFB1155
 678 005e 05       		.uleb128 .LEHE20-.LEHB20
 679 005f 00       		.uleb128 0
 680 0060 00       		.uleb128 0
 681 0061 CD06     		.uleb128 .LEHB21-.LFB1155
 682 0063 3A       		.uleb128 .LEHE21-.LEHB21
 683 0064 9107     		.uleb128 .L34-.LFB1155
 684 0066 00       		.uleb128 0
 685 0067 8707     		.uleb128 .LEHB22-.LFB1155
 686 0069 05       		.uleb128 .LEHE22-.LEHB22
 687 006a 00       		.uleb128 0
 688 006b 00       		.uleb128 0
 689 006c A307     		.uleb128 .LEHB23-.LFB1155
 690 006e 05       		.uleb128 .LEHE23-.LEHB23
 691 006f 00       		.uleb128 0
 692 0070 00       		.uleb128 0
 693 0071 B407     		.uleb128 .LEHB24-.LFB1155
 694 0073 3A       		.uleb128 .LEHE24-.LEHB24
 695 0074 F807     		.uleb128 .L36-.LFB1155
 696 0076 00       		.uleb128 0
 697 0077 EE07     		.uleb128 .LEHB25-.LFB1155
 698 0079 05       		.uleb128 .LEHE25-.LEHB25
 699 007a 00       		.uleb128 0
 700 007b 00       		.uleb128 0
 701 007c 8A08     		.uleb128 .LEHB26-.LFB1155
 702 007e 05       		.uleb128 .LEHE26-.LEHB26
 703 007f 00       		.uleb128 0
 704 0080 00       		.uleb128 0
 705              	.LLSDACSE1155:
 706 0081 01       		.byte	0x1
 707 0082 00       		.byte	0
 708 0083 00       		.align 4
 709 0084 00000000 		.long	0
 710              	
 711              	.LLSDATT1155:
 712              		.text
 714              		.section	.rodata
 715              	.LC8:
 716 0173 4932435F 		.string	"I2C_testRoundTrip"
 716      74657374 
 716      526F756E 
 716      64547269 
 716      7000
 717              		.section	.text._ZN21TestI2C_testRoundTripC2Ev,"axG",@progbits,_ZN21TestI2C_testRoundTripC5Ev,comda
 718              		.align 2
 719              		.weak	_ZN21TestI2C_testRoundTripC2Ev
 721              	_ZN21TestI2C_testRoundTripC2Ev:
 722              	.LFB1157:
  46:testI2C.cpp   **** 
  47:testI2C.cpp   **** TEST(I2C_testRoundTrip) {
 723              		.loc 3 47 1
 724              		.cfi_startproc
 725 0000 F30F1EFA 		endbr64
 726 0004 55       		pushq	%rbp
 727              		.cfi_def_cfa_offset 16
 728              		.cfi_offset 6, -16
 729 0005 4889E5   		movq	%rsp, %rbp
 730              		.cfi_def_cfa_register 6
 731 0008 53       		pushq	%rbx
 732 0009 4883EC18 		subq	$24, %rsp
 733              		.cfi_offset 3, -24
 734 000d 48897DE8 		movq	%rdi, -24(%rbp)
 735              	.LBB8:
 736              		.loc 3 47 1
 737 0011 488B5DE8 		movq	-24(%rbp), %rbx
 738 0015 E8000000 		call	_ZN13UnitTestSuite12GetSuiteNameEv
 738      00
 739 001a 4889C2   		movq	%rax, %rdx
 740 001d 41B82F00 		movl	$47, %r8d
 740      0000
 741 0023 488D0500 		leaq	.LC1(%rip), %rax
 741      000000
 742 002a 4889C1   		movq	%rax, %rcx
 743 002d 488D0500 		leaq	.LC8(%rip), %rax
 743      000000
 744 0034 4889C6   		movq	%rax, %rsi
 745 0037 4889DF   		movq	%rbx, %rdi
 746 003a E8000000 		call	_ZN8UnitTest4TestC2EPKcS2_S2_i@PLT
 746      00
 747 003f 488D1500 		leaq	16+_ZTV21TestI2C_testRoundTrip(%rip), %rdx
 747      000000
 748 0046 488B45E8 		movq	-24(%rbp), %rax
 749 004a 488910   		movq	%rdx, (%rax)
 750              	.LBE8:
 751 004d 90       		nop
 752 004e 488B5DF8 		movq	-8(%rbp), %rbx
 753 0052 C9       		leave
 754              		.cfi_def_cfa 7, 8
 755 0053 C3       		ret
 756              		.cfi_endproc
 757              	.LFE1157:
 759              		.weak	_ZN21TestI2C_testRoundTripC1Ev
 760              		.set	_ZN21TestI2C_testRoundTripC1Ev,_ZN21TestI2C_testRoundTripC2Ev
 761              		.globl	testI2C_testRoundTripInstance
 762              		.bss
 763 0039 00000000 		.align 32
 763      000000
 766              	testI2C_testRoundTripInstance:
 767 0040 00000000 		.zero	56
 767      00000000 
 767      00000000 
 767      00000000 
 767      00000000 
 768              		.globl	adderI2C_testRoundTrip
 771              	adderI2C_testRoundTrip:
 772 0078 00       		.zero	1
 773              		.section	.rodata
 774 0185 000000   		.align 8
 775              	.LC9:
 776 0188 556E6861 		.string	"Unhandled exception in CHECK_ARRAY_EQUAL(expected, dstData.data)"
 776      6E646C65 
 776      64206578 
 776      63657074 
 776      696F6E20 
 777              		.text
 778              		.align 2
 779              		.globl	_ZNK21TestI2C_testRoundTrip7RunImplEv
 781              	_ZNK21TestI2C_testRoundTrip7RunImplEv:
 782              	.LFB1159:
 783              		.loc 3 47 25
 784              		.cfi_startproc
 785              		.cfi_personality 0x9b,DW.ref.__gxx_personality_v0
 786              		.cfi_lsda 0x1b,.LLSDA1159
 787 041a F30F1EFA 		endbr64
 788 041e 55       		pushq	%rbp
 789              		.cfi_def_cfa_offset 16
 790              		.cfi_offset 6, -16
 791 041f 4889E5   		movq	%rsp, %rbp
 792              		.cfi_def_cfa_register 6
 793 0422 53       		pushq	%rbx
 794 0423 4881EC38 		subq	$312, %rsp
 794      010000
 795              		.cfi_offset 3, -24
 796 042a 4889BDC8 		movq	%rdi, -312(%rbp)
 796      FEFFFF
 797              		.loc 3 47 25
 798 0431 64488B04 		movq	%fs:40, %rax
 798      25280000 
 798      00
 799 043a 488945E8 		movq	%rax, -24(%rbp)
 800 043e 31C0     		xorl	%eax, %eax
  48:testI2C.cpp   **** 	uint32 i, j;
  49:testI2C.cpp   **** 	Buffer i2cBuffer, srcData, srcMask, dstData, dstMask;
  50:testI2C.cpp   **** 	BufferStatus bStatus;
  51:testI2C.cpp   **** 	I2CStatus iStatus;
  52:testI2C.cpp   **** 	const uint8 data[] = {0xE1, 0xE2, 0xE3, 0xE4, 0xE5, 0xE6, 0xE7, 0xE8, 0xE9, 0xEA, 0xEB, 0xEC, 0xED
 801              		.loc 3 52 14
 802 0440 48B8E1E2 		movabsq	$-1664107662228069663, %rax
 802      E3E4E5E6 
 802      E7E8
 803 044a 48BAE9EA 		movabsq	$-1085386279523456279, %rdx
 803      EBECEDEE 
 803      EFF0
 804 0454 488945B0 		movq	%rax, -80(%rbp)
 805 0458 488955B8 		movq	%rdx, -72(%rbp)
  53:testI2C.cpp   **** 	uint8 mask[16];
  54:testI2C.cpp   **** 	uint8 expected[16];
  55:testI2C.cpp   **** 	for ( i = 0; i < 65536; i++ ) {   // all possible 16-bit mask patterns
 806              		.loc 3 55 10
 807 045c C785E8FE 		movl	$0, -280(%rbp)
 807      FFFF0000 
 807      0000
 808              		.loc 3 55 2
 809 0466 E9680500 		jmp	.L40
 809      00
 810              	.L45:
  56:testI2C.cpp   **** 		for ( j = 0; j < 16; j++ ) {
 811              		.loc 3 56 11
 812 046b C785ECFE 		movl	$0, -276(%rbp)
 812      FFFF0000 
 812      0000
 813              		.loc 3 56 3
 814 0475 EB5A     		jmp	.L41
 815              	.L44:
  57:testI2C.cpp   **** 			if ( i & (1<<j) ) {
 816              		.loc 3 57 15
 817 0477 8B85ECFE 		movl	-276(%rbp), %eax
 817      FFFF
 818 047d BA010000 		movl	$1, %edx
 818      00
 819 0482 89C1     		movl	%eax, %ecx
 820 0484 D3E2     		sall	%cl, %edx
 821 0486 89D0     		movl	%edx, %eax
 822              		.loc 3 57 11
 823 0488 2385E8FE 		andl	-280(%rbp), %eax
 823      FFFF
 824              		.loc 3 57 4
 825 048e 85C0     		testl	%eax, %eax
 826 0490 7422     		je	.L42
  58:testI2C.cpp   **** 				mask[j] = 0x01;
 827              		.loc 3 58 13
 828 0492 8B85ECFE 		movl	-276(%rbp), %eax
 828      FFFF
 829 0498 C64405C0 		movb	$1, -64(%rbp,%rax)
 829      01
  59:testI2C.cpp   **** 				expected[j] = data[j];
 830              		.loc 3 59 25
 831 049d 8B85ECFE 		movl	-276(%rbp), %eax
 831      FFFF
 832 04a3 0FB65405 		movzbl	-80(%rbp,%rax), %edx
 832      B0
 833              		.loc 3 59 17
 834 04a8 8B85ECFE 		movl	-276(%rbp), %eax
 834      FFFF
 835 04ae 885405D0 		movb	%dl, -48(%rbp,%rax)
 836 04b2 EB16     		jmp	.L43
 837              	.L42:
  60:testI2C.cpp   **** 			} else {
  61:testI2C.cpp   **** 				mask[j] = 0x00;
 838              		.loc 3 61 13
 839 04b4 8B85ECFE 		movl	-276(%rbp), %eax
 839      FFFF
 840 04ba C64405C0 		movb	$0, -64(%rbp,%rax)
 840      00
  62:testI2C.cpp   **** 				expected[j] = 0x00;
 841              		.loc 3 62 17
 842 04bf 8B85ECFE 		movl	-276(%rbp), %eax
 842      FFFF
 843 04c5 C64405D0 		movb	$0, -48(%rbp,%rax)
 843      00
 844              	.L43:
  56:testI2C.cpp   **** 			if ( i & (1<<j) ) {
 845              		.loc 3 56 3 discriminator 2
 846 04ca 8385ECFE 		addl	$1, -276(%rbp)
 846      FFFF01
 847              	.L41:
  56:testI2C.cpp   **** 			if ( i & (1<<j) ) {
 848              		.loc 3 56 18 discriminator 1
 849 04d1 83BDECFE 		cmpl	$15, -276(%rbp)
 849      FFFF0F
 850 04d8 769D     		jbe	.L44
  63:testI2C.cpp   **** 			}
  64:testI2C.cpp   **** 		}
  65:testI2C.cpp   **** 		bStatus = bufInitialise(&i2cBuffer, 1024, 0x00, NULL);
 851              		.loc 3 65 26
 852 04da 488D85F0 		leaq	-272(%rbp), %rax
 852      FEFFFF
 853 04e1 B9000000 		movl	$0, %ecx
 853      00
 854 04e6 BA000000 		movl	$0, %edx
 854      00
 855 04eb BE000400 		movl	$1024, %esi
 855      00
 856 04f0 4889C7   		movq	%rax, %rdi
 857              	.LEHB27:
 858 04f3 E8000000 		call	bufInitialise@PLT
 858      00
 859              	.LEHE27:
 860              		.loc 3 65 11
 861 04f8 8985DCFE 		movl	%eax, -292(%rbp)
 861      FFFF
 862              	.LEHB28:
  66:testI2C.cpp   **** 		CHECK_EQUAL(BUF_SUCCESS, bStatus);
 863              		.loc 3 66 3
 864 04fe E8000000 		call	_ZN8UnitTest11CurrentTest7DetailsEv@PLT
 864      00
 865 0503 488B08   		movq	(%rax), %rcx
 866 0506 488D4590 		leaq	-112(%rbp), %rax
 867 050a BA420000 		movl	$66, %edx
 867      00
 868 050f 4889CE   		movq	%rcx, %rsi
 869 0512 4889C7   		movq	%rax, %rdi
 870 0515 E8000000 		call	_ZN8UnitTest11TestDetailsC1ERKS0_i@PLT
 870      00
 871              		.loc 3 66 3 is_stmt 0 discriminator 4
 872 051a C785E4FE 		movl	$0, -284(%rbp)
 872      FFFF0000 
 872      0000
 873 0524 E8000000 		call	_ZN8UnitTest11CurrentTest7ResultsEv@PLT
 873      00
 874 0529 488B00   		movq	(%rax), %rax
 875 052c 488D4D90 		leaq	-112(%rbp), %rcx
 876 0530 488D95DC 		leaq	-292(%rbp), %rdx
 876      FEFFFF
 877 0537 488DB5E4 		leaq	-284(%rbp), %rsi
 877      FEFFFF
 878 053e 4889C7   		movq	%rax, %rdi
 879 0541 E8000000 		call	_ZN8UnitTest10CheckEqualI12BufferStatusS1_EEvRNS_11TestResultsERKT_RKT0_RKNS_11TestDetailsE
 879      00
 880              	.LEHE28:
 881              	.L47:
  67:testI2C.cpp   **** 		i2cInitialise(&i2cBuffer, VID, PID, DID, CONFIG_BYTE_400KHZ);
 882              		.loc 3 67 16 is_stmt 1
 883 0546 488D85F0 		leaq	-272(%rbp), %rax
 883      FEFFFF
 884 054d 41B80100 		movl	$1, %r8d
 884      0000
 885 0553 B9000000 		movl	$0, %ecx
 885      00
 886 0558 BA138600 		movl	$34323, %edx
 886      00
 887 055d BEB40400 		movl	$1204, %esi
 887      00
 888 0562 4889C7   		movq	%rax, %rdi
 889              	.LEHB29:
 890 0565 E8000000 		call	i2cInitialise@PLT
 890      00
  68:testI2C.cpp   **** 		bStatus = bufInitialise(&srcData, 16, 0x00, NULL);
 891              		.loc 3 68 26
 892 056a 488D8510 		leaq	-240(%rbp), %rax
 892      FFFFFF
 893 0571 B9000000 		movl	$0, %ecx
 893      00
 894 0576 BA000000 		movl	$0, %edx
 894      00
 895 057b BE100000 		movl	$16, %esi
 895      00
 896 0580 4889C7   		movq	%rax, %rdi
 897 0583 E8000000 		call	bufInitialise@PLT
 897      00
 898              	.LEHE29:
 899              		.loc 3 68 11
 900 0588 8985DCFE 		movl	%eax, -292(%rbp)
 900      FFFF
 901              	.LEHB30:
  69:testI2C.cpp   **** 		CHECK_EQUAL(BUF_SUCCESS, bStatus);
 902              		.loc 3 69 3
 903 058e E8000000 		call	_ZN8UnitTest11CurrentTest7DetailsEv@PLT
 903      00
 904 0593 488B08   		movq	(%rax), %rcx
 905 0596 488D4590 		leaq	-112(%rbp), %rax
 906 059a BA450000 		movl	$69, %edx
 906      00
 907 059f 4889CE   		movq	%rcx, %rsi
 908 05a2 4889C7   		movq	%rax, %rdi
 909 05a5 E8000000 		call	_ZN8UnitTest11TestDetailsC1ERKS0_i@PLT
 909      00
 910              		.loc 3 69 3 is_stmt 0 discriminator 4
 911 05aa C785E4FE 		movl	$0, -284(%rbp)
 911      FFFF0000 
 911      0000
 912 05b4 E8000000 		call	_ZN8UnitTest11CurrentTest7ResultsEv@PLT
 912      00
 913 05b9 488B00   		movq	(%rax), %rax
 914 05bc 488D4D90 		leaq	-112(%rbp), %rcx
 915 05c0 488D95DC 		leaq	-292(%rbp), %rdx
 915      FEFFFF
 916 05c7 488DB5E4 		leaq	-284(%rbp), %rsi
 916      FEFFFF
 917 05ce 4889C7   		movq	%rax, %rdi
 918 05d1 E8000000 		call	_ZN8UnitTest10CheckEqualI12BufferStatusS1_EEvRNS_11TestResultsERKT_RKT0_RKNS_11TestDetailsE
 918      00
 919              	.LEHE30:
 920              	.L50:
  70:testI2C.cpp   **** 		bStatus = bufInitialise(&dstData, 16, 0x00, NULL);
 921              		.loc 3 70 26 is_stmt 1
 922 05d6 488D8550 		leaq	-176(%rbp), %rax
 922      FFFFFF
 923 05dd B9000000 		movl	$0, %ecx
 923      00
 924 05e2 BA000000 		movl	$0, %edx
 924      00
 925 05e7 BE100000 		movl	$16, %esi
 925      00
 926 05ec 4889C7   		movq	%rax, %rdi
 927              	.LEHB31:
 928 05ef E8000000 		call	bufInitialise@PLT
 928      00
 929              	.LEHE31:
 930              		.loc 3 70 11
 931 05f4 8985DCFE 		movl	%eax, -292(%rbp)
 931      FFFF
 932              	.LEHB32:
  71:testI2C.cpp   **** 		CHECK_EQUAL(BUF_SUCCESS, bStatus);
 933              		.loc 3 71 3
 934 05fa E8000000 		call	_ZN8UnitTest11CurrentTest7DetailsEv@PLT
 934      00
 935 05ff 488B08   		movq	(%rax), %rcx
 936 0602 488D4590 		leaq	-112(%rbp), %rax
 937 0606 BA470000 		movl	$71, %edx
 937      00
 938 060b 4889CE   		movq	%rcx, %rsi
 939 060e 4889C7   		movq	%rax, %rdi
 940 0611 E8000000 		call	_ZN8UnitTest11TestDetailsC1ERKS0_i@PLT
 940      00
 941              		.loc 3 71 3 is_stmt 0 discriminator 4
 942 0616 C785E4FE 		movl	$0, -284(%rbp)
 942      FFFF0000 
 942      0000
 943 0620 E8000000 		call	_ZN8UnitTest11CurrentTest7ResultsEv@PLT
 943      00
 944 0625 488B00   		movq	(%rax), %rax
 945 0628 488D4D90 		leaq	-112(%rbp), %rcx
 946 062c 488D95DC 		leaq	-292(%rbp), %rdx
 946      FEFFFF
 947 0633 488DB5E4 		leaq	-284(%rbp), %rsi
 947      FEFFFF
 948 063a 4889C7   		movq	%rax, %rdi
 949 063d E8000000 		call	_ZN8UnitTest10CheckEqualI12BufferStatusS1_EEvRNS_11TestResultsERKT_RKT0_RKNS_11TestDetailsE
 949      00
 950              	.LEHE32:
 951              	.L53:
  72:testI2C.cpp   **** 		bStatus = bufInitialise(&srcMask, 16, 0x00, NULL);
 952              		.loc 3 72 26 is_stmt 1
 953 0642 488D8530 		leaq	-208(%rbp), %rax
 953      FFFFFF
 954 0649 B9000000 		movl	$0, %ecx
 954      00
 955 064e BA000000 		movl	$0, %edx
 955      00
 956 0653 BE100000 		movl	$16, %esi
 956      00
 957 0658 4889C7   		movq	%rax, %rdi
 958              	.LEHB33:
 959 065b E8000000 		call	bufInitialise@PLT
 959      00
 960              	.LEHE33:
 961              		.loc 3 72 11
 962 0660 8985DCFE 		movl	%eax, -292(%rbp)
 962      FFFF
 963              	.LEHB34:
  73:testI2C.cpp   **** 		CHECK_EQUAL(BUF_SUCCESS, bStatus);
 964              		.loc 3 73 3
 965 0666 E8000000 		call	_ZN8UnitTest11CurrentTest7DetailsEv@PLT
 965      00
 966 066b 488B08   		movq	(%rax), %rcx
 967 066e 488D4590 		leaq	-112(%rbp), %rax
 968 0672 BA490000 		movl	$73, %edx
 968      00
 969 0677 4889CE   		movq	%rcx, %rsi
 970 067a 4889C7   		movq	%rax, %rdi
 971 067d E8000000 		call	_ZN8UnitTest11TestDetailsC1ERKS0_i@PLT
 971      00
 972              		.loc 3 73 3 is_stmt 0 discriminator 4
 973 0682 C785E4FE 		movl	$0, -284(%rbp)
 973      FFFF0000 
 973      0000
 974 068c E8000000 		call	_ZN8UnitTest11CurrentTest7ResultsEv@PLT
 974      00
 975 0691 488B00   		movq	(%rax), %rax
 976 0694 488D4D90 		leaq	-112(%rbp), %rcx
 977 0698 488D95DC 		leaq	-292(%rbp), %rdx
 977      FEFFFF
 978 069f 488DB5E4 		leaq	-284(%rbp), %rsi
 978      FEFFFF
 979 06a6 4889C7   		movq	%rax, %rdi
 980 06a9 E8000000 		call	_ZN8UnitTest10CheckEqualI12BufferStatusS1_EEvRNS_11TestResultsERKT_RKT0_RKNS_11TestDetailsE
 980      00
 981              	.LEHE34:
 982              	.L56:
  74:testI2C.cpp   **** 		bStatus = bufInitialise(&dstMask, 16, 0x00, NULL);
 983              		.loc 3 74 26 is_stmt 1
 984 06ae 488D8570 		leaq	-144(%rbp), %rax
 984      FFFFFF
 985 06b5 B9000000 		movl	$0, %ecx
 985      00
 986 06ba BA000000 		movl	$0, %edx
 986      00
 987 06bf BE100000 		movl	$16, %esi
 987      00
 988 06c4 4889C7   		movq	%rax, %rdi
 989              	.LEHB35:
 990 06c7 E8000000 		call	bufInitialise@PLT
 990      00
 991              	.LEHE35:
 992              		.loc 3 74 11
 993 06cc 8985DCFE 		movl	%eax, -292(%rbp)
 993      FFFF
 994              	.LEHB36:
  75:testI2C.cpp   **** 		CHECK_EQUAL(BUF_SUCCESS, bStatus);
 995              		.loc 3 75 3
 996 06d2 E8000000 		call	_ZN8UnitTest11CurrentTest7DetailsEv@PLT
 996      00
 997 06d7 488B08   		movq	(%rax), %rcx
 998 06da 488D4590 		leaq	-112(%rbp), %rax
 999 06de BA4B0000 		movl	$75, %edx
 999      00
 1000 06e3 4889CE   		movq	%rcx, %rsi
 1001 06e6 4889C7   		movq	%rax, %rdi
 1002 06e9 E8000000 		call	_ZN8UnitTest11TestDetailsC1ERKS0_i@PLT
 1002      00
 1003              		.loc 3 75 3 is_stmt 0 discriminator 4
 1004 06ee C785E4FE 		movl	$0, -284(%rbp)
 1004      FFFF0000 
 1004      0000
 1005 06f8 E8000000 		call	_ZN8UnitTest11CurrentTest7ResultsEv@PLT
 1005      00
 1006 06fd 488B00   		movq	(%rax), %rax
 1007 0700 488D4D90 		leaq	-112(%rbp), %rcx
 1008 0704 488D95DC 		leaq	-292(%rbp), %rdx
 1008      FEFFFF
 1009 070b 488DB5E4 		leaq	-284(%rbp), %rsi
 1009      FEFFFF
 1010 0712 4889C7   		movq	%rax, %rdi
 1011 0715 E8000000 		call	_ZN8UnitTest10CheckEqualI12BufferStatusS1_EEvRNS_11TestResultsERKT_RKT0_RKNS_11TestDetailsE
 1011      00
 1012              	.LEHE36:
 1013              	.L59:
  76:testI2C.cpp   **** 		bStatus = bufWriteBlock(&srcData, 0x00000000, expected, 16, NULL);
 1014              		.loc 3 76 26 is_stmt 1
 1015 071a 488D55D0 		leaq	-48(%rbp), %rdx
 1016 071e 488D8510 		leaq	-240(%rbp), %rax
 1016      FFFFFF
 1017 0725 41B80000 		movl	$0, %r8d
 1017      0000
 1018 072b B9100000 		movl	$16, %ecx
 1018      00
 1019 0730 BE000000 		movl	$0, %esi
 1019      00
 1020 0735 4889C7   		movq	%rax, %rdi
 1021              	.LEHB37:
 1022 0738 E8000000 		call	bufWriteBlock@PLT
 1022      00
 1023              	.LEHE37:
 1024              		.loc 3 76 11
 1025 073d 8985DCFE 		movl	%eax, -292(%rbp)
 1025      FFFF
 1026              	.LEHB38:
  77:testI2C.cpp   **** 		CHECK_EQUAL(BUF_SUCCESS, bStatus);
 1027              		.loc 3 77 3
 1028 0743 E8000000 		call	_ZN8UnitTest11CurrentTest7DetailsEv@PLT
 1028      00
 1029 0748 488B08   		movq	(%rax), %rcx
 1030 074b 488D4590 		leaq	-112(%rbp), %rax
 1031 074f BA4D0000 		movl	$77, %edx
 1031      00
 1032 0754 4889CE   		movq	%rcx, %rsi
 1033 0757 4889C7   		movq	%rax, %rdi
 1034 075a E8000000 		call	_ZN8UnitTest11TestDetailsC1ERKS0_i@PLT
 1034      00
 1035              		.loc 3 77 3 is_stmt 0 discriminator 4
 1036 075f C785E4FE 		movl	$0, -284(%rbp)
 1036      FFFF0000 
 1036      0000
 1037 0769 E8000000 		call	_ZN8UnitTest11CurrentTest7ResultsEv@PLT
 1037      00
 1038 076e 488B00   		movq	(%rax), %rax
 1039 0771 488D4D90 		leaq	-112(%rbp), %rcx
 1040 0775 488D95DC 		leaq	-292(%rbp), %rdx
 1040      FEFFFF
 1041 077c 488DB5E4 		leaq	-284(%rbp), %rsi
 1041      FEFFFF
 1042 0783 4889C7   		movq	%rax, %rdi
 1043 0786 E8000000 		call	_ZN8UnitTest10CheckEqualI12BufferStatusS1_EEvRNS_11TestResultsERKT_RKT0_RKNS_11TestDetailsE
 1043      00
 1044              	.LEHE38:
 1045              	.L62:
  78:testI2C.cpp   **** 		bStatus = bufWriteBlock(&srcMask, 0x00000000, mask, 16, NULL);
 1046              		.loc 3 78 26 is_stmt 1
 1047 078b 488D55C0 		leaq	-64(%rbp), %rdx
 1048 078f 488D8530 		leaq	-208(%rbp), %rax
 1048      FFFFFF
 1049 0796 41B80000 		movl	$0, %r8d
 1049      0000
 1050 079c B9100000 		movl	$16, %ecx
 1050      00
 1051 07a1 BE000000 		movl	$0, %esi
 1051      00
 1052 07a6 4889C7   		movq	%rax, %rdi
 1053              	.LEHB39:
 1054 07a9 E8000000 		call	bufWriteBlock@PLT
 1054      00
 1055              	.LEHE39:
 1056              		.loc 3 78 11
 1057 07ae 8985DCFE 		movl	%eax, -292(%rbp)
 1057      FFFF
 1058              	.LEHB40:
  79:testI2C.cpp   **** 		CHECK_EQUAL(BUF_SUCCESS, bStatus);
 1059              		.loc 3 79 3
 1060 07b4 E8000000 		call	_ZN8UnitTest11CurrentTest7DetailsEv@PLT
 1060      00
 1061 07b9 488B08   		movq	(%rax), %rcx
 1062 07bc 488D4590 		leaq	-112(%rbp), %rax
 1063 07c0 BA4F0000 		movl	$79, %edx
 1063      00
 1064 07c5 4889CE   		movq	%rcx, %rsi
 1065 07c8 4889C7   		movq	%rax, %rdi
 1066 07cb E8000000 		call	_ZN8UnitTest11TestDetailsC1ERKS0_i@PLT
 1066      00
 1067              		.loc 3 79 3 is_stmt 0 discriminator 4
 1068 07d0 C785E4FE 		movl	$0, -284(%rbp)
 1068      FFFF0000 
 1068      0000
 1069 07da E8000000 		call	_ZN8UnitTest11CurrentTest7ResultsEv@PLT
 1069      00
 1070 07df 488B00   		movq	(%rax), %rax
 1071 07e2 488D4D90 		leaq	-112(%rbp), %rcx
 1072 07e6 488D95DC 		leaq	-292(%rbp), %rdx
 1072      FEFFFF
 1073 07ed 488DB5E4 		leaq	-284(%rbp), %rsi
 1073      FEFFFF
 1074 07f4 4889C7   		movq	%rax, %rdi
 1075 07f7 E8000000 		call	_ZN8UnitTest10CheckEqualI12BufferStatusS1_EEvRNS_11TestResultsERKT_RKT0_RKNS_11TestDetailsE
 1075      00
 1076              	.LEHE40:
 1077              	.L65:
  80:testI2C.cpp   **** 		iStatus = i2cWritePromRecords(&i2cBuffer, &srcData, &srcMask, NULL);
 1078              		.loc 3 80 32 is_stmt 1
 1079 07fc 488D9530 		leaq	-208(%rbp), %rdx
 1079      FFFFFF
 1080 0803 488DB510 		leaq	-240(%rbp), %rsi
 1080      FFFFFF
 1081 080a 488D85F0 		leaq	-272(%rbp), %rax
 1081      FEFFFF
 1082 0811 B9000000 		movl	$0, %ecx
 1082      00
 1083 0816 4889C7   		movq	%rax, %rdi
 1084              	.LEHB41:
 1085 0819 E8000000 		call	i2cWritePromRecords@PLT
 1085      00
 1086              	.LEHE41:
 1087              		.loc 3 80 11
 1088 081e 8985E0FE 		movl	%eax, -288(%rbp)
 1088      FFFF
 1089              	.LEHB42:
  81:testI2C.cpp   **** 		CHECK_EQUAL(I2C_SUCCESS, iStatus);
 1090              		.loc 3 81 3
 1091 0824 E8000000 		call	_ZN8UnitTest11CurrentTest7DetailsEv@PLT
 1091      00
 1092 0829 488B08   		movq	(%rax), %rcx
 1093 082c 488D4590 		leaq	-112(%rbp), %rax
 1094 0830 BA510000 		movl	$81, %edx
 1094      00
 1095 0835 4889CE   		movq	%rcx, %rsi
 1096 0838 4889C7   		movq	%rax, %rdi
 1097 083b E8000000 		call	_ZN8UnitTest11TestDetailsC1ERKS0_i@PLT
 1097      00
 1098              		.loc 3 81 3 is_stmt 0 discriminator 4
 1099 0840 C785E4FE 		movl	$0, -284(%rbp)
 1099      FFFF0000 
 1099      0000
 1100 084a E8000000 		call	_ZN8UnitTest11CurrentTest7ResultsEv@PLT
 1100      00
 1101 084f 488B00   		movq	(%rax), %rax
 1102 0852 488D4D90 		leaq	-112(%rbp), %rcx
 1103 0856 488D95E0 		leaq	-288(%rbp), %rdx
 1103      FEFFFF
 1104 085d 488DB5E4 		leaq	-284(%rbp), %rsi
 1104      FEFFFF
 1105 0864 4889C7   		movq	%rax, %rdi
 1106 0867 E8000000 		call	_ZN8UnitTest10CheckEqualI9I2CStatusS1_EEvRNS_11TestResultsERKT_RKT0_RKNS_11TestDetailsE
 1106      00
 1107              	.LEHE42:
 1108              	.L68:
  82:testI2C.cpp   **** 		iStatus = i2cFinalise(&i2cBuffer, NULL);
 1109              		.loc 3 82 24 is_stmt 1
 1110 086c 488D85F0 		leaq	-272(%rbp), %rax
 1110      FEFFFF
 1111 0873 BE000000 		movl	$0, %esi
 1111      00
 1112 0878 4889C7   		movq	%rax, %rdi
 1113              	.LEHB43:
 1114 087b E8000000 		call	i2cFinalise@PLT
 1114      00
 1115              	.LEHE43:
 1116              		.loc 3 82 11
 1117 0880 8985E0FE 		movl	%eax, -288(%rbp)
 1117      FFFF
 1118              	.LEHB44:
  83:testI2C.cpp   **** 		CHECK_EQUAL(I2C_SUCCESS, iStatus);
 1119              		.loc 3 83 3
 1120 0886 E8000000 		call	_ZN8UnitTest11CurrentTest7DetailsEv@PLT
 1120      00
 1121 088b 488B08   		movq	(%rax), %rcx
 1122 088e 488D4590 		leaq	-112(%rbp), %rax
 1123 0892 BA530000 		movl	$83, %edx
 1123      00
 1124 0897 4889CE   		movq	%rcx, %rsi
 1125 089a 4889C7   		movq	%rax, %rdi
 1126 089d E8000000 		call	_ZN8UnitTest11TestDetailsC1ERKS0_i@PLT
 1126      00
 1127              		.loc 3 83 3 is_stmt 0 discriminator 4
 1128 08a2 C785E4FE 		movl	$0, -284(%rbp)
 1128      FFFF0000 
 1128      0000
 1129 08ac E8000000 		call	_ZN8UnitTest11CurrentTest7ResultsEv@PLT
 1129      00
 1130 08b1 488B00   		movq	(%rax), %rax
 1131 08b4 488D4D90 		leaq	-112(%rbp), %rcx
 1132 08b8 488D95E0 		leaq	-288(%rbp), %rdx
 1132      FEFFFF
 1133 08bf 488DB5E4 		leaq	-284(%rbp), %rsi
 1133      FEFFFF
 1134 08c6 4889C7   		movq	%rax, %rdi
 1135 08c9 E8000000 		call	_ZN8UnitTest10CheckEqualI9I2CStatusS1_EEvRNS_11TestResultsERKT_RKT0_RKNS_11TestDetailsE
 1135      00
 1136              	.LEHE44:
 1137              	.L71:
  84:testI2C.cpp   **** 		iStatus = i2cReadPromRecords(&dstData, &dstMask, &i2cBuffer, NULL);
 1138              		.loc 3 84 31 is_stmt 1
 1139 08ce 488D95F0 		leaq	-272(%rbp), %rdx
 1139      FEFFFF
 1140 08d5 488DB570 		leaq	-144(%rbp), %rsi
 1140      FFFFFF
 1141 08dc 488D8550 		leaq	-176(%rbp), %rax
 1141      FFFFFF
 1142 08e3 B9000000 		movl	$0, %ecx
 1142      00
 1143 08e8 4889C7   		movq	%rax, %rdi
 1144              	.LEHB45:
 1145 08eb E8000000 		call	i2cReadPromRecords@PLT
 1145      00
 1146              	.LEHE45:
 1147              		.loc 3 84 11
 1148 08f0 8985E0FE 		movl	%eax, -288(%rbp)
 1148      FFFF
 1149              	.LEHB46:
  85:testI2C.cpp   **** 		CHECK_EQUAL(I2C_SUCCESS, iStatus);
 1150              		.loc 3 85 3
 1151 08f6 E8000000 		call	_ZN8UnitTest11CurrentTest7DetailsEv@PLT
 1151      00
 1152 08fb 488B08   		movq	(%rax), %rcx
 1153 08fe 488D4590 		leaq	-112(%rbp), %rax
 1154 0902 BA550000 		movl	$85, %edx
 1154      00
 1155 0907 4889CE   		movq	%rcx, %rsi
 1156 090a 4889C7   		movq	%rax, %rdi
 1157 090d E8000000 		call	_ZN8UnitTest11TestDetailsC1ERKS0_i@PLT
 1157      00
 1158              		.loc 3 85 3 is_stmt 0 discriminator 4
 1159 0912 C785E4FE 		movl	$0, -284(%rbp)
 1159      FFFF0000 
 1159      0000
 1160 091c E8000000 		call	_ZN8UnitTest11CurrentTest7ResultsEv@PLT
 1160      00
 1161 0921 488B00   		movq	(%rax), %rax
 1162 0924 488D4D90 		leaq	-112(%rbp), %rcx
 1163 0928 488D95E0 		leaq	-288(%rbp), %rdx
 1163      FEFFFF
 1164 092f 488DB5E4 		leaq	-284(%rbp), %rsi
 1164      FEFFFF
 1165 0936 4889C7   		movq	%rax, %rdi
 1166 0939 E8000000 		call	_ZN8UnitTest10CheckEqualI9I2CStatusS1_EEvRNS_11TestResultsERKT_RKT0_RKNS_11TestDetailsE
 1166      00
 1167              	.LEHE46:
 1168              	.L74:
 1169              	.LEHB47:
  86:testI2C.cpp   **** 		CHECK_ARRAY_EQUAL(expected, dstData.data, 16);
 1170              		.loc 3 86 3 is_stmt 1
 1171 093e E8000000 		call	_ZN8UnitTest11CurrentTest7DetailsEv@PLT
 1171      00
 1172 0943 488B08   		movq	(%rax), %rcx
 1173 0946 488D4590 		leaq	-112(%rbp), %rax
 1174 094a BA560000 		movl	$86, %edx
 1174      00
 1175 094f 4889CE   		movq	%rcx, %rsi
 1176 0952 4889C7   		movq	%rax, %rdi
 1177 0955 E8000000 		call	_ZN8UnitTest11TestDetailsC1ERKS0_i@PLT
 1177      00
 1178              		.loc 3 86 3 is_stmt 0 discriminator 4
 1179 095a E8000000 		call	_ZN8UnitTest11CurrentTest7ResultsEv@PLT
 1179      00
 1180 095f 488B00   		movq	(%rax), %rax
 1181 0962 488D4D90 		leaq	-112(%rbp), %rcx
 1182 0966 488D9550 		leaq	-176(%rbp), %rdx
 1182      FFFFFF
 1183 096d 488D75D0 		leaq	-48(%rbp), %rsi
 1184 0971 4989C8   		movq	%rcx, %r8
 1185 0974 B9100000 		movl	$16, %ecx
 1185      00
 1186 0979 4889C7   		movq	%rax, %rdi
 1187 097c E8000000 		call	_ZN8UnitTest15CheckArrayEqualIA16_hPhEEvRNS_11TestResultsERKT_RKT0_iRKNS_11TestDetailsE
 1187      00
 1188              	.LEHE47:
 1189              	.L77:
  87:testI2C.cpp   **** 		bufDestroy(&dstMask);
 1190              		.loc 3 87 13 is_stmt 1
 1191 0981 488D8570 		leaq	-144(%rbp), %rax
 1191      FFFFFF
 1192 0988 4889C7   		movq	%rax, %rdi
 1193              	.LEHB48:
 1194 098b E8000000 		call	bufDestroy@PLT
 1194      00
  88:testI2C.cpp   **** 		bufDestroy(&srcMask);
 1195              		.loc 3 88 13
 1196 0990 488D8530 		leaq	-208(%rbp), %rax
 1196      FFFFFF
 1197 0997 4889C7   		movq	%rax, %rdi
 1198 099a E8000000 		call	bufDestroy@PLT
 1198      00
  89:testI2C.cpp   **** 		bufDestroy(&dstData);
 1199              		.loc 3 89 13
 1200 099f 488D8550 		leaq	-176(%rbp), %rax
 1200      FFFFFF
 1201 09a6 4889C7   		movq	%rax, %rdi
 1202 09a9 E8000000 		call	bufDestroy@PLT
 1202      00
  90:testI2C.cpp   **** 		bufDestroy(&srcData);
 1203              		.loc 3 90 13
 1204 09ae 488D8510 		leaq	-240(%rbp), %rax
 1204      FFFFFF
 1205 09b5 4889C7   		movq	%rax, %rdi
 1206 09b8 E8000000 		call	bufDestroy@PLT
 1206      00
  91:testI2C.cpp   **** 		bufDestroy(&i2cBuffer);
 1207              		.loc 3 91 13
 1208 09bd 488D85F0 		leaq	-272(%rbp), %rax
 1208      FEFFFF
 1209 09c4 4889C7   		movq	%rax, %rdi
 1210 09c7 E8000000 		call	bufDestroy@PLT
 1210      00
 1211              	.LEHE48:
  55:testI2C.cpp   **** 		for ( j = 0; j < 16; j++ ) {
 1212              		.loc 3 55 2
 1213 09cc 8385E8FE 		addl	$1, -280(%rbp)
 1213      FFFF01
 1214              	.L40:
  55:testI2C.cpp   **** 		for ( j = 0; j < 16; j++ ) {
 1215              		.loc 3 55 17 discriminator 1
 1216 09d3 81BDE8FE 		cmpl	$65535, -280(%rbp)
 1216      FFFFFFFF 
 1216      0000
 1217 09dd 0F8688FA 		jbe	.L45
 1217      FFFF
  92:testI2C.cpp   **** 	}
  93:testI2C.cpp   **** }
 1218              		.loc 3 93 1
 1219 09e3 E96D0400 		jmp	.L102
 1219      00
 1220              	.L80:
 1221 09e8 F30F1EFA 		endbr64
  66:testI2C.cpp   **** 		i2cInitialise(&i2cBuffer, VID, PID, DID, CONFIG_BYTE_400KHZ);
 1222              		.loc 3 66 3
 1223 09ec 4889C7   		movq	%rax, %rdi
 1224 09ef E8000000 		call	__cxa_begin_catch@PLT
 1224      00
 1225              	.LEHB49:
 1226 09f4 E8000000 		call	_ZN8UnitTest11CurrentTest7ResultsEv@PLT
 1226      00
  66:testI2C.cpp   **** 		i2cInitialise(&i2cBuffer, VID, PID, DID, CONFIG_BYTE_400KHZ);
 1227              		.loc 3 66 3 is_stmt 0 discriminator 3
 1228 09f9 488B18   		movq	(%rax), %rbx
 1229 09fc E8000000 		call	_ZN8UnitTest11CurrentTest7DetailsEv@PLT
 1229      00
  66:testI2C.cpp   **** 		i2cInitialise(&i2cBuffer, VID, PID, DID, CONFIG_BYTE_400KHZ);
 1230              		.loc 3 66 3 discriminator 11
 1231 0a01 488B08   		movq	(%rax), %rcx
 1232 0a04 488D4590 		leaq	-112(%rbp), %rax
 1233 0a08 BA420000 		movl	$66, %edx
 1233      00
 1234 0a0d 4889CE   		movq	%rcx, %rsi
 1235 0a10 4889C7   		movq	%rax, %rdi
 1236 0a13 E8000000 		call	_ZN8UnitTest11TestDetailsC1ERKS0_i@PLT
 1236      00
  66:testI2C.cpp   **** 		i2cInitialise(&i2cBuffer, VID, PID, DID, CONFIG_BYTE_400KHZ);
 1237              		.loc 3 66 3 discriminator 15
 1238 0a18 488D4590 		leaq	-112(%rbp), %rax
 1239 0a1c 488D1500 		leaq	.LC3(%rip), %rdx
 1239      000000
 1240 0a23 4889C6   		movq	%rax, %rsi
 1241 0a26 4889DF   		movq	%rbx, %rdi
 1242 0a29 E8000000 		call	_ZN8UnitTest11TestResults13OnTestFailureERKNS_11TestDetailsEPKc@PLT
 1242      00
 1243              	.LEHE49:
 1244              	.LEHB50:
  66:testI2C.cpp   **** 		i2cInitialise(&i2cBuffer, VID, PID, DID, CONFIG_BYTE_400KHZ);
 1245              		.loc 3 66 3 discriminator 17
 1246 0a2e E8000000 		call	__cxa_end_catch@PLT
 1246      00
 1247              	.LEHE50:
 1248 0a33 E90EFBFF 		jmp	.L47
 1248      FF
 1249              	.L81:
 1250 0a38 F30F1EFA 		endbr64
  66:testI2C.cpp   **** 		i2cInitialise(&i2cBuffer, VID, PID, DID, CONFIG_BYTE_400KHZ);
 1251              		.loc 3 66 3
 1252 0a3c 4889C3   		movq	%rax, %rbx
 1253 0a3f E8000000 		call	__cxa_end_catch@PLT
 1253      00
 1254 0a44 4889D8   		movq	%rbx, %rax
 1255 0a47 4889C7   		movq	%rax, %rdi
 1256              	.LEHB51:
 1257 0a4a E8000000 		call	_Unwind_Resume@PLT
 1257      00
 1258              	.LEHE51:
 1259              	.L82:
 1260 0a4f F30F1EFA 		endbr64
  69:testI2C.cpp   **** 		bStatus = bufInitialise(&dstData, 16, 0x00, NULL);
 1261              		.loc 3 69 3 is_stmt 1
 1262 0a53 4889C7   		movq	%rax, %rdi
 1263 0a56 E8000000 		call	__cxa_begin_catch@PLT
 1263      00
 1264              	.LEHB52:
 1265 0a5b E8000000 		call	_ZN8UnitTest11CurrentTest7ResultsEv@PLT
 1265      00
  69:testI2C.cpp   **** 		bStatus = bufInitialise(&dstData, 16, 0x00, NULL);
 1266              		.loc 3 69 3 is_stmt 0 discriminator 3
 1267 0a60 488B18   		movq	(%rax), %rbx
 1268 0a63 E8000000 		call	_ZN8UnitTest11CurrentTest7DetailsEv@PLT
 1268      00
  69:testI2C.cpp   **** 		bStatus = bufInitialise(&dstData, 16, 0x00, NULL);
 1269              		.loc 3 69 3 discriminator 11
 1270 0a68 488B08   		movq	(%rax), %rcx
 1271 0a6b 488D4590 		leaq	-112(%rbp), %rax
 1272 0a6f BA450000 		movl	$69, %edx
 1272      00
 1273 0a74 4889CE   		movq	%rcx, %rsi
 1274 0a77 4889C7   		movq	%rax, %rdi
 1275 0a7a E8000000 		call	_ZN8UnitTest11TestDetailsC1ERKS0_i@PLT
 1275      00
  69:testI2C.cpp   **** 		bStatus = bufInitialise(&dstData, 16, 0x00, NULL);
 1276              		.loc 3 69 3 discriminator 15
 1277 0a7f 488D4590 		leaq	-112(%rbp), %rax
 1278 0a83 488D1500 		leaq	.LC3(%rip), %rdx
 1278      000000
 1279 0a8a 4889C6   		movq	%rax, %rsi
 1280 0a8d 4889DF   		movq	%rbx, %rdi
 1281 0a90 E8000000 		call	_ZN8UnitTest11TestResults13OnTestFailureERKNS_11TestDetailsEPKc@PLT
 1281      00
 1282              	.LEHE52:
 1283              	.LEHB53:
  69:testI2C.cpp   **** 		bStatus = bufInitialise(&dstData, 16, 0x00, NULL);
 1284              		.loc 3 69 3 discriminator 17
 1285 0a95 E8000000 		call	__cxa_end_catch@PLT
 1285      00
 1286              	.LEHE53:
 1287 0a9a E937FBFF 		jmp	.L50
 1287      FF
 1288              	.L83:
 1289 0a9f F30F1EFA 		endbr64
  69:testI2C.cpp   **** 		bStatus = bufInitialise(&dstData, 16, 0x00, NULL);
 1290              		.loc 3 69 3
 1291 0aa3 4889C3   		movq	%rax, %rbx
 1292 0aa6 E8000000 		call	__cxa_end_catch@PLT
 1292      00
 1293 0aab 4889D8   		movq	%rbx, %rax
 1294 0aae 4889C7   		movq	%rax, %rdi
 1295              	.LEHB54:
 1296 0ab1 E8000000 		call	_Unwind_Resume@PLT
 1296      00
 1297              	.LEHE54:
 1298              	.L84:
 1299 0ab6 F30F1EFA 		endbr64
  71:testI2C.cpp   **** 		bStatus = bufInitialise(&srcMask, 16, 0x00, NULL);
 1300              		.loc 3 71 3 is_stmt 1
 1301 0aba 4889C7   		movq	%rax, %rdi
 1302 0abd E8000000 		call	__cxa_begin_catch@PLT
 1302      00
 1303              	.LEHB55:
 1304 0ac2 E8000000 		call	_ZN8UnitTest11CurrentTest7ResultsEv@PLT
 1304      00
  71:testI2C.cpp   **** 		bStatus = bufInitialise(&srcMask, 16, 0x00, NULL);
 1305              		.loc 3 71 3 is_stmt 0 discriminator 3
 1306 0ac7 488B18   		movq	(%rax), %rbx
 1307 0aca E8000000 		call	_ZN8UnitTest11CurrentTest7DetailsEv@PLT
 1307      00
  71:testI2C.cpp   **** 		bStatus = bufInitialise(&srcMask, 16, 0x00, NULL);
 1308              		.loc 3 71 3 discriminator 11
 1309 0acf 488B08   		movq	(%rax), %rcx
 1310 0ad2 488D4590 		leaq	-112(%rbp), %rax
 1311 0ad6 BA470000 		movl	$71, %edx
 1311      00
 1312 0adb 4889CE   		movq	%rcx, %rsi
 1313 0ade 4889C7   		movq	%rax, %rdi
 1314 0ae1 E8000000 		call	_ZN8UnitTest11TestDetailsC1ERKS0_i@PLT
 1314      00
  71:testI2C.cpp   **** 		bStatus = bufInitialise(&srcMask, 16, 0x00, NULL);
 1315              		.loc 3 71 3 discriminator 15
 1316 0ae6 488D4590 		leaq	-112(%rbp), %rax
 1317 0aea 488D1500 		leaq	.LC3(%rip), %rdx
 1317      000000
 1318 0af1 4889C6   		movq	%rax, %rsi
 1319 0af4 4889DF   		movq	%rbx, %rdi
 1320 0af7 E8000000 		call	_ZN8UnitTest11TestResults13OnTestFailureERKNS_11TestDetailsEPKc@PLT
 1320      00
 1321              	.LEHE55:
 1322              	.LEHB56:
  71:testI2C.cpp   **** 		bStatus = bufInitialise(&srcMask, 16, 0x00, NULL);
 1323              		.loc 3 71 3 discriminator 17
 1324 0afc E8000000 		call	__cxa_end_catch@PLT
 1324      00
 1325              	.LEHE56:
 1326 0b01 E93CFBFF 		jmp	.L53
 1326      FF
 1327              	.L85:
 1328 0b06 F30F1EFA 		endbr64
  71:testI2C.cpp   **** 		bStatus = bufInitialise(&srcMask, 16, 0x00, NULL);
 1329              		.loc 3 71 3
 1330 0b0a 4889C3   		movq	%rax, %rbx
 1331 0b0d E8000000 		call	__cxa_end_catch@PLT
 1331      00
 1332 0b12 4889D8   		movq	%rbx, %rax
 1333 0b15 4889C7   		movq	%rax, %rdi
 1334              	.LEHB57:
 1335 0b18 E8000000 		call	_Unwind_Resume@PLT
 1335      00
 1336              	.LEHE57:
 1337              	.L86:
 1338 0b1d F30F1EFA 		endbr64
  73:testI2C.cpp   **** 		bStatus = bufInitialise(&dstMask, 16, 0x00, NULL);
 1339              		.loc 3 73 3 is_stmt 1
 1340 0b21 4889C7   		movq	%rax, %rdi
 1341 0b24 E8000000 		call	__cxa_begin_catch@PLT
 1341      00
 1342              	.LEHB58:
 1343 0b29 E8000000 		call	_ZN8UnitTest11CurrentTest7ResultsEv@PLT
 1343      00
  73:testI2C.cpp   **** 		bStatus = bufInitialise(&dstMask, 16, 0x00, NULL);
 1344              		.loc 3 73 3 is_stmt 0 discriminator 3
 1345 0b2e 488B18   		movq	(%rax), %rbx
 1346 0b31 E8000000 		call	_ZN8UnitTest11CurrentTest7DetailsEv@PLT
 1346      00
  73:testI2C.cpp   **** 		bStatus = bufInitialise(&dstMask, 16, 0x00, NULL);
 1347              		.loc 3 73 3 discriminator 11
 1348 0b36 488B08   		movq	(%rax), %rcx
 1349 0b39 488D4590 		leaq	-112(%rbp), %rax
 1350 0b3d BA490000 		movl	$73, %edx
 1350      00
 1351 0b42 4889CE   		movq	%rcx, %rsi
 1352 0b45 4889C7   		movq	%rax, %rdi
 1353 0b48 E8000000 		call	_ZN8UnitTest11TestDetailsC1ERKS0_i@PLT
 1353      00
  73:testI2C.cpp   **** 		bStatus = bufInitialise(&dstMask, 16, 0x00, NULL);
 1354              		.loc 3 73 3 discriminator 15
 1355 0b4d 488D4590 		leaq	-112(%rbp), %rax
 1356 0b51 488D1500 		leaq	.LC3(%rip), %rdx
 1356      000000
 1357 0b58 4889C6   		movq	%rax, %rsi
 1358 0b5b 4889DF   		movq	%rbx, %rdi
 1359 0b5e E8000000 		call	_ZN8UnitTest11TestResults13OnTestFailureERKNS_11TestDetailsEPKc@PLT
 1359      00
 1360              	.LEHE58:
 1361              	.LEHB59:
  73:testI2C.cpp   **** 		bStatus = bufInitialise(&dstMask, 16, 0x00, NULL);
 1362              		.loc 3 73 3 discriminator 17
 1363 0b63 E8000000 		call	__cxa_end_catch@PLT
 1363      00
 1364              	.LEHE59:
 1365 0b68 E941FBFF 		jmp	.L56
 1365      FF
 1366              	.L87:
 1367 0b6d F30F1EFA 		endbr64
  73:testI2C.cpp   **** 		bStatus = bufInitialise(&dstMask, 16, 0x00, NULL);
 1368              		.loc 3 73 3
 1369 0b71 4889C3   		movq	%rax, %rbx
 1370 0b74 E8000000 		call	__cxa_end_catch@PLT
 1370      00
 1371 0b79 4889D8   		movq	%rbx, %rax
 1372 0b7c 4889C7   		movq	%rax, %rdi
 1373              	.LEHB60:
 1374 0b7f E8000000 		call	_Unwind_Resume@PLT
 1374      00
 1375              	.LEHE60:
 1376              	.L88:
 1377 0b84 F30F1EFA 		endbr64
  75:testI2C.cpp   **** 		bStatus = bufWriteBlock(&srcData, 0x00000000, expected, 16, NULL);
 1378              		.loc 3 75 3 is_stmt 1
 1379 0b88 4889C7   		movq	%rax, %rdi
 1380 0b8b E8000000 		call	__cxa_begin_catch@PLT
 1380      00
 1381              	.LEHB61:
 1382 0b90 E8000000 		call	_ZN8UnitTest11CurrentTest7ResultsEv@PLT
 1382      00
  75:testI2C.cpp   **** 		bStatus = bufWriteBlock(&srcData, 0x00000000, expected, 16, NULL);
 1383              		.loc 3 75 3 is_stmt 0 discriminator 3
 1384 0b95 488B18   		movq	(%rax), %rbx
 1385 0b98 E8000000 		call	_ZN8UnitTest11CurrentTest7DetailsEv@PLT
 1385      00
  75:testI2C.cpp   **** 		bStatus = bufWriteBlock(&srcData, 0x00000000, expected, 16, NULL);
 1386              		.loc 3 75 3 discriminator 11
 1387 0b9d 488B08   		movq	(%rax), %rcx
 1388 0ba0 488D4590 		leaq	-112(%rbp), %rax
 1389 0ba4 BA4B0000 		movl	$75, %edx
 1389      00
 1390 0ba9 4889CE   		movq	%rcx, %rsi
 1391 0bac 4889C7   		movq	%rax, %rdi
 1392 0baf E8000000 		call	_ZN8UnitTest11TestDetailsC1ERKS0_i@PLT
 1392      00
  75:testI2C.cpp   **** 		bStatus = bufWriteBlock(&srcData, 0x00000000, expected, 16, NULL);
 1393              		.loc 3 75 3 discriminator 15
 1394 0bb4 488D4590 		leaq	-112(%rbp), %rax
 1395 0bb8 488D1500 		leaq	.LC3(%rip), %rdx
 1395      000000
 1396 0bbf 4889C6   		movq	%rax, %rsi
 1397 0bc2 4889DF   		movq	%rbx, %rdi
 1398 0bc5 E8000000 		call	_ZN8UnitTest11TestResults13OnTestFailureERKNS_11TestDetailsEPKc@PLT
 1398      00
 1399              	.LEHE61:
 1400              	.LEHB62:
  75:testI2C.cpp   **** 		bStatus = bufWriteBlock(&srcData, 0x00000000, expected, 16, NULL);
 1401              		.loc 3 75 3 discriminator 17
 1402 0bca E8000000 		call	__cxa_end_catch@PLT
 1402      00
 1403              	.LEHE62:
 1404 0bcf E946FBFF 		jmp	.L59
 1404      FF
 1405              	.L89:
 1406 0bd4 F30F1EFA 		endbr64
  75:testI2C.cpp   **** 		bStatus = bufWriteBlock(&srcData, 0x00000000, expected, 16, NULL);
 1407              		.loc 3 75 3
 1408 0bd8 4889C3   		movq	%rax, %rbx
 1409 0bdb E8000000 		call	__cxa_end_catch@PLT
 1409      00
 1410 0be0 4889D8   		movq	%rbx, %rax
 1411 0be3 4889C7   		movq	%rax, %rdi
 1412              	.LEHB63:
 1413 0be6 E8000000 		call	_Unwind_Resume@PLT
 1413      00
 1414              	.LEHE63:
 1415              	.L90:
 1416 0beb F30F1EFA 		endbr64
  77:testI2C.cpp   **** 		bStatus = bufWriteBlock(&srcMask, 0x00000000, mask, 16, NULL);
 1417              		.loc 3 77 3 is_stmt 1
 1418 0bef 4889C7   		movq	%rax, %rdi
 1419 0bf2 E8000000 		call	__cxa_begin_catch@PLT
 1419      00
 1420              	.LEHB64:
 1421 0bf7 E8000000 		call	_ZN8UnitTest11CurrentTest7ResultsEv@PLT
 1421      00
  77:testI2C.cpp   **** 		bStatus = bufWriteBlock(&srcMask, 0x00000000, mask, 16, NULL);
 1422              		.loc 3 77 3 is_stmt 0 discriminator 3
 1423 0bfc 488B18   		movq	(%rax), %rbx
 1424 0bff E8000000 		call	_ZN8UnitTest11CurrentTest7DetailsEv@PLT
 1424      00
  77:testI2C.cpp   **** 		bStatus = bufWriteBlock(&srcMask, 0x00000000, mask, 16, NULL);
 1425              		.loc 3 77 3 discriminator 11
 1426 0c04 488B08   		movq	(%rax), %rcx
 1427 0c07 488D4590 		leaq	-112(%rbp), %rax
 1428 0c0b BA4D0000 		movl	$77, %edx
 1428      00
 1429 0c10 4889CE   		movq	%rcx, %rsi
 1430 0c13 4889C7   		movq	%rax, %rdi
 1431 0c16 E8000000 		call	_ZN8UnitTest11TestDetailsC1ERKS0_i@PLT
 1431      00
  77:testI2C.cpp   **** 		bStatus = bufWriteBlock(&srcMask, 0x00000000, mask, 16, NULL);
 1432              		.loc 3 77 3 discriminator 15
 1433 0c1b 488D4590 		leaq	-112(%rbp), %rax
 1434 0c1f 488D1500 		leaq	.LC3(%rip), %rdx
 1434      000000
 1435 0c26 4889C6   		movq	%rax, %rsi
 1436 0c29 4889DF   		movq	%rbx, %rdi
 1437 0c2c E8000000 		call	_ZN8UnitTest11TestResults13OnTestFailureERKNS_11TestDetailsEPKc@PLT
 1437      00
 1438              	.LEHE64:
 1439              	.LEHB65:
  77:testI2C.cpp   **** 		bStatus = bufWriteBlock(&srcMask, 0x00000000, mask, 16, NULL);
 1440              		.loc 3 77 3 discriminator 17
 1441 0c31 E8000000 		call	__cxa_end_catch@PLT
 1441      00
 1442              	.LEHE65:
 1443 0c36 E950FBFF 		jmp	.L62
 1443      FF
 1444              	.L91:
 1445 0c3b F30F1EFA 		endbr64
  77:testI2C.cpp   **** 		bStatus = bufWriteBlock(&srcMask, 0x00000000, mask, 16, NULL);
 1446              		.loc 3 77 3
 1447 0c3f 4889C3   		movq	%rax, %rbx
 1448 0c42 E8000000 		call	__cxa_end_catch@PLT
 1448      00
 1449 0c47 4889D8   		movq	%rbx, %rax
 1450 0c4a 4889C7   		movq	%rax, %rdi
 1451              	.LEHB66:
 1452 0c4d E8000000 		call	_Unwind_Resume@PLT
 1452      00
 1453              	.LEHE66:
 1454              	.L92:
 1455 0c52 F30F1EFA 		endbr64
  79:testI2C.cpp   **** 		iStatus = i2cWritePromRecords(&i2cBuffer, &srcData, &srcMask, NULL);
 1456              		.loc 3 79 3 is_stmt 1
 1457 0c56 4889C7   		movq	%rax, %rdi
 1458 0c59 E8000000 		call	__cxa_begin_catch@PLT
 1458      00
 1459              	.LEHB67:
 1460 0c5e E8000000 		call	_ZN8UnitTest11CurrentTest7ResultsEv@PLT
 1460      00
  79:testI2C.cpp   **** 		iStatus = i2cWritePromRecords(&i2cBuffer, &srcData, &srcMask, NULL);
 1461              		.loc 3 79 3 is_stmt 0 discriminator 3
 1462 0c63 488B18   		movq	(%rax), %rbx
 1463 0c66 E8000000 		call	_ZN8UnitTest11CurrentTest7DetailsEv@PLT
 1463      00
  79:testI2C.cpp   **** 		iStatus = i2cWritePromRecords(&i2cBuffer, &srcData, &srcMask, NULL);
 1464              		.loc 3 79 3 discriminator 11
 1465 0c6b 488B08   		movq	(%rax), %rcx
 1466 0c6e 488D4590 		leaq	-112(%rbp), %rax
 1467 0c72 BA4F0000 		movl	$79, %edx
 1467      00
 1468 0c77 4889CE   		movq	%rcx, %rsi
 1469 0c7a 4889C7   		movq	%rax, %rdi
 1470 0c7d E8000000 		call	_ZN8UnitTest11TestDetailsC1ERKS0_i@PLT
 1470      00
  79:testI2C.cpp   **** 		iStatus = i2cWritePromRecords(&i2cBuffer, &srcData, &srcMask, NULL);
 1471              		.loc 3 79 3 discriminator 15
 1472 0c82 488D4590 		leaq	-112(%rbp), %rax
 1473 0c86 488D1500 		leaq	.LC3(%rip), %rdx
 1473      000000
 1474 0c8d 4889C6   		movq	%rax, %rsi
 1475 0c90 4889DF   		movq	%rbx, %rdi
 1476 0c93 E8000000 		call	_ZN8UnitTest11TestResults13OnTestFailureERKNS_11TestDetailsEPKc@PLT
 1476      00
 1477              	.LEHE67:
 1478              	.LEHB68:
  79:testI2C.cpp   **** 		iStatus = i2cWritePromRecords(&i2cBuffer, &srcData, &srcMask, NULL);
 1479              		.loc 3 79 3 discriminator 17
 1480 0c98 E8000000 		call	__cxa_end_catch@PLT
 1480      00
 1481              	.LEHE68:
 1482 0c9d E95AFBFF 		jmp	.L65
 1482      FF
 1483              	.L93:
 1484 0ca2 F30F1EFA 		endbr64
  79:testI2C.cpp   **** 		iStatus = i2cWritePromRecords(&i2cBuffer, &srcData, &srcMask, NULL);
 1485              		.loc 3 79 3
 1486 0ca6 4889C3   		movq	%rax, %rbx
 1487 0ca9 E8000000 		call	__cxa_end_catch@PLT
 1487      00
 1488 0cae 4889D8   		movq	%rbx, %rax
 1489 0cb1 4889C7   		movq	%rax, %rdi
 1490              	.LEHB69:
 1491 0cb4 E8000000 		call	_Unwind_Resume@PLT
 1491      00
 1492              	.LEHE69:
 1493              	.L94:
 1494 0cb9 F30F1EFA 		endbr64
  81:testI2C.cpp   **** 		iStatus = i2cFinalise(&i2cBuffer, NULL);
 1495              		.loc 3 81 3 is_stmt 1
 1496 0cbd 4889C7   		movq	%rax, %rdi
 1497 0cc0 E8000000 		call	__cxa_begin_catch@PLT
 1497      00
 1498              	.LEHB70:
 1499 0cc5 E8000000 		call	_ZN8UnitTest11CurrentTest7ResultsEv@PLT
 1499      00
  81:testI2C.cpp   **** 		iStatus = i2cFinalise(&i2cBuffer, NULL);
 1500              		.loc 3 81 3 is_stmt 0 discriminator 3
 1501 0cca 488B18   		movq	(%rax), %rbx
 1502 0ccd E8000000 		call	_ZN8UnitTest11CurrentTest7DetailsEv@PLT
 1502      00
  81:testI2C.cpp   **** 		iStatus = i2cFinalise(&i2cBuffer, NULL);
 1503              		.loc 3 81 3 discriminator 11
 1504 0cd2 488B08   		movq	(%rax), %rcx
 1505 0cd5 488D4590 		leaq	-112(%rbp), %rax
 1506 0cd9 BA510000 		movl	$81, %edx
 1506      00
 1507 0cde 4889CE   		movq	%rcx, %rsi
 1508 0ce1 4889C7   		movq	%rax, %rdi
 1509 0ce4 E8000000 		call	_ZN8UnitTest11TestDetailsC1ERKS0_i@PLT
 1509      00
  81:testI2C.cpp   **** 		iStatus = i2cFinalise(&i2cBuffer, NULL);
 1510              		.loc 3 81 3 discriminator 15
 1511 0ce9 488D4590 		leaq	-112(%rbp), %rax
 1512 0ced 488D1500 		leaq	.LC4(%rip), %rdx
 1512      000000
 1513 0cf4 4889C6   		movq	%rax, %rsi
 1514 0cf7 4889DF   		movq	%rbx, %rdi
 1515 0cfa E8000000 		call	_ZN8UnitTest11TestResults13OnTestFailureERKNS_11TestDetailsEPKc@PLT
 1515      00
 1516              	.LEHE70:
 1517              	.LEHB71:
  81:testI2C.cpp   **** 		iStatus = i2cFinalise(&i2cBuffer, NULL);
 1518              		.loc 3 81 3 discriminator 17
 1519 0cff E8000000 		call	__cxa_end_catch@PLT
 1519      00
 1520              	.LEHE71:
 1521 0d04 E963FBFF 		jmp	.L68
 1521      FF
 1522              	.L95:
 1523 0d09 F30F1EFA 		endbr64
  81:testI2C.cpp   **** 		iStatus = i2cFinalise(&i2cBuffer, NULL);
 1524              		.loc 3 81 3
 1525 0d0d 4889C3   		movq	%rax, %rbx
 1526 0d10 E8000000 		call	__cxa_end_catch@PLT
 1526      00
 1527 0d15 4889D8   		movq	%rbx, %rax
 1528 0d18 4889C7   		movq	%rax, %rdi
 1529              	.LEHB72:
 1530 0d1b E8000000 		call	_Unwind_Resume@PLT
 1530      00
 1531              	.LEHE72:
 1532              	.L96:
 1533 0d20 F30F1EFA 		endbr64
  83:testI2C.cpp   **** 		iStatus = i2cReadPromRecords(&dstData, &dstMask, &i2cBuffer, NULL);
 1534              		.loc 3 83 3 is_stmt 1
 1535 0d24 4889C7   		movq	%rax, %rdi
 1536 0d27 E8000000 		call	__cxa_begin_catch@PLT
 1536      00
 1537              	.LEHB73:
 1538 0d2c E8000000 		call	_ZN8UnitTest11CurrentTest7ResultsEv@PLT
 1538      00
  83:testI2C.cpp   **** 		iStatus = i2cReadPromRecords(&dstData, &dstMask, &i2cBuffer, NULL);
 1539              		.loc 3 83 3 is_stmt 0 discriminator 3
 1540 0d31 488B18   		movq	(%rax), %rbx
 1541 0d34 E8000000 		call	_ZN8UnitTest11CurrentTest7DetailsEv@PLT
 1541      00
  83:testI2C.cpp   **** 		iStatus = i2cReadPromRecords(&dstData, &dstMask, &i2cBuffer, NULL);
 1542              		.loc 3 83 3 discriminator 11
 1543 0d39 488B08   		movq	(%rax), %rcx
 1544 0d3c 488D4590 		leaq	-112(%rbp), %rax
 1545 0d40 BA530000 		movl	$83, %edx
 1545      00
 1546 0d45 4889CE   		movq	%rcx, %rsi
 1547 0d48 4889C7   		movq	%rax, %rdi
 1548 0d4b E8000000 		call	_ZN8UnitTest11TestDetailsC1ERKS0_i@PLT
 1548      00
  83:testI2C.cpp   **** 		iStatus = i2cReadPromRecords(&dstData, &dstMask, &i2cBuffer, NULL);
 1549              		.loc 3 83 3 discriminator 15
 1550 0d50 488D4590 		leaq	-112(%rbp), %rax
 1551 0d54 488D1500 		leaq	.LC4(%rip), %rdx
 1551      000000
 1552 0d5b 4889C6   		movq	%rax, %rsi
 1553 0d5e 4889DF   		movq	%rbx, %rdi
 1554 0d61 E8000000 		call	_ZN8UnitTest11TestResults13OnTestFailureERKNS_11TestDetailsEPKc@PLT
 1554      00
 1555              	.LEHE73:
 1556              	.LEHB74:
  83:testI2C.cpp   **** 		iStatus = i2cReadPromRecords(&dstData, &dstMask, &i2cBuffer, NULL);
 1557              		.loc 3 83 3 discriminator 17
 1558 0d66 E8000000 		call	__cxa_end_catch@PLT
 1558      00
 1559              	.LEHE74:
 1560 0d6b E95EFBFF 		jmp	.L71
 1560      FF
 1561              	.L97:
 1562 0d70 F30F1EFA 		endbr64
  83:testI2C.cpp   **** 		iStatus = i2cReadPromRecords(&dstData, &dstMask, &i2cBuffer, NULL);
 1563              		.loc 3 83 3
 1564 0d74 4889C3   		movq	%rax, %rbx
 1565 0d77 E8000000 		call	__cxa_end_catch@PLT
 1565      00
 1566 0d7c 4889D8   		movq	%rbx, %rax
 1567 0d7f 4889C7   		movq	%rax, %rdi
 1568              	.LEHB75:
 1569 0d82 E8000000 		call	_Unwind_Resume@PLT
 1569      00
 1570              	.LEHE75:
 1571              	.L98:
 1572 0d87 F30F1EFA 		endbr64
  85:testI2C.cpp   **** 		CHECK_ARRAY_EQUAL(expected, dstData.data, 16);
 1573              		.loc 3 85 3 is_stmt 1
 1574 0d8b 4889C7   		movq	%rax, %rdi
 1575 0d8e E8000000 		call	__cxa_begin_catch@PLT
 1575      00
 1576              	.LEHB76:
 1577 0d93 E8000000 		call	_ZN8UnitTest11CurrentTest7ResultsEv@PLT
 1577      00
  85:testI2C.cpp   **** 		CHECK_ARRAY_EQUAL(expected, dstData.data, 16);
 1578              		.loc 3 85 3 is_stmt 0 discriminator 3
 1579 0d98 488B18   		movq	(%rax), %rbx
 1580 0d9b E8000000 		call	_ZN8UnitTest11CurrentTest7DetailsEv@PLT
 1580      00
  85:testI2C.cpp   **** 		CHECK_ARRAY_EQUAL(expected, dstData.data, 16);
 1581              		.loc 3 85 3 discriminator 11
 1582 0da0 488B08   		movq	(%rax), %rcx
 1583 0da3 488D4590 		leaq	-112(%rbp), %rax
 1584 0da7 BA550000 		movl	$85, %edx
 1584      00
 1585 0dac 4889CE   		movq	%rcx, %rsi
 1586 0daf 4889C7   		movq	%rax, %rdi
 1587 0db2 E8000000 		call	_ZN8UnitTest11TestDetailsC1ERKS0_i@PLT
 1587      00
  85:testI2C.cpp   **** 		CHECK_ARRAY_EQUAL(expected, dstData.data, 16);
 1588              		.loc 3 85 3 discriminator 15
 1589 0db7 488D4590 		leaq	-112(%rbp), %rax
 1590 0dbb 488D1500 		leaq	.LC4(%rip), %rdx
 1590      000000
 1591 0dc2 4889C6   		movq	%rax, %rsi
 1592 0dc5 4889DF   		movq	%rbx, %rdi
 1593 0dc8 E8000000 		call	_ZN8UnitTest11TestResults13OnTestFailureERKNS_11TestDetailsEPKc@PLT
 1593      00
 1594              	.LEHE76:
 1595              	.LEHB77:
  85:testI2C.cpp   **** 		CHECK_ARRAY_EQUAL(expected, dstData.data, 16);
 1596              		.loc 3 85 3 discriminator 17
 1597 0dcd E8000000 		call	__cxa_end_catch@PLT
 1597      00
 1598              	.LEHE77:
 1599 0dd2 E967FBFF 		jmp	.L74
 1599      FF
 1600              	.L99:
 1601 0dd7 F30F1EFA 		endbr64
  85:testI2C.cpp   **** 		CHECK_ARRAY_EQUAL(expected, dstData.data, 16);
 1602              		.loc 3 85 3
 1603 0ddb 4889C3   		movq	%rax, %rbx
 1604 0dde E8000000 		call	__cxa_end_catch@PLT
 1604      00
 1605 0de3 4889D8   		movq	%rbx, %rax
 1606 0de6 4889C7   		movq	%rax, %rdi
 1607              	.LEHB78:
 1608 0de9 E8000000 		call	_Unwind_Resume@PLT
 1608      00
 1609              	.LEHE78:
 1610              	.L100:
 1611 0dee F30F1EFA 		endbr64
  86:testI2C.cpp   **** 		bufDestroy(&dstMask);
 1612              		.loc 3 86 3 is_stmt 1
 1613 0df2 4889C7   		movq	%rax, %rdi
 1614 0df5 E8000000 		call	__cxa_begin_catch@PLT
 1614      00
 1615              	.LEHB79:
 1616 0dfa E8000000 		call	_ZN8UnitTest11CurrentTest7ResultsEv@PLT
 1616      00
  86:testI2C.cpp   **** 		bufDestroy(&dstMask);
 1617              		.loc 3 86 3 is_stmt 0 discriminator 7
 1618 0dff 488B18   		movq	(%rax), %rbx
 1619 0e02 E8000000 		call	_ZN8UnitTest11CurrentTest7DetailsEv@PLT
 1619      00
  86:testI2C.cpp   **** 		bufDestroy(&dstMask);
 1620              		.loc 3 86 3 discriminator 11
 1621 0e07 488B08   		movq	(%rax), %rcx
 1622 0e0a 488D4590 		leaq	-112(%rbp), %rax
 1623 0e0e BA560000 		movl	$86, %edx
 1623      00
 1624 0e13 4889CE   		movq	%rcx, %rsi
 1625 0e16 4889C7   		movq	%rax, %rdi
 1626 0e19 E8000000 		call	_ZN8UnitTest11TestDetailsC1ERKS0_i@PLT
 1626      00
  86:testI2C.cpp   **** 		bufDestroy(&dstMask);
 1627              		.loc 3 86 3 discriminator 15
 1628 0e1e 488D4590 		leaq	-112(%rbp), %rax
 1629 0e22 488D1500 		leaq	.LC9(%rip), %rdx
 1629      000000
 1630 0e29 4889C6   		movq	%rax, %rsi
 1631 0e2c 4889DF   		movq	%rbx, %rdi
 1632 0e2f E8000000 		call	_ZN8UnitTest11TestResults13OnTestFailureERKNS_11TestDetailsEPKc@PLT
 1632      00
 1633              	.LEHE79:
 1634              	.LEHB80:
  86:testI2C.cpp   **** 		bufDestroy(&dstMask);
 1635              		.loc 3 86 3 discriminator 17
 1636 0e34 E8000000 		call	__cxa_end_catch@PLT
 1636      00
 1637              	.LEHE80:
 1638 0e39 E943FBFF 		jmp	.L77
 1638      FF
 1639              	.L101:
 1640 0e3e F30F1EFA 		endbr64
  86:testI2C.cpp   **** 		bufDestroy(&dstMask);
 1641              		.loc 3 86 3
 1642 0e42 4889C3   		movq	%rax, %rbx
 1643 0e45 E8000000 		call	__cxa_end_catch@PLT
 1643      00
 1644 0e4a 4889D8   		movq	%rbx, %rax
 1645 0e4d 4889C7   		movq	%rax, %rdi
 1646              	.LEHB81:
 1647 0e50 E8000000 		call	_Unwind_Resume@PLT
 1647      00
 1648              	.LEHE81:
 1649              	.L102:
 1650              		.loc 3 93 1 is_stmt 1
 1651 0e55 488B45E8 		movq	-24(%rbp), %rax
 1652 0e59 64482B04 		subq	%fs:40, %rax
 1652      25280000 
 1652      00
 1653 0e62 7405     		je	.L79
 1654 0e64 E8000000 		call	__stack_chk_fail@PLT
 1654      00
 1655              	.L79:
 1656 0e69 488B5DF8 		movq	-8(%rbp), %rbx
 1657 0e6d C9       		leave
 1658              		.cfi_def_cfa 7, 8
 1659 0e6e C3       		ret
 1660              		.cfi_endproc
 1661              	.LFE1159:
 1662              		.section	.gcc_except_table
 1663              		.align 4
 1664              	.LLSDA1159:
 1665 0088 FF       		.byte	0xff
 1666 0089 9B       		.byte	0x9b
 1667 008a B402     		.uleb128 .LLSDATT1159-.LLSDATTD1159
 1668              	.LLSDATTD1159:
 1669 008c 01       		.byte	0x1
 1670 008d A902     		.uleb128 .LLSDACSE1159-.LLSDACSB1159
 1671              	.LLSDACSB1159:
 1672 008f D901     		.uleb128 .LEHB27-.LFB1159
 1673 0091 05       		.uleb128 .LEHE27-.LEHB27
 1674 0092 00       		.uleb128 0
 1675 0093 00       		.uleb128 0
 1676 0094 E401     		.uleb128 .LEHB28-.LFB1159
 1677 0096 48       		.uleb128 .LEHE28-.LEHB28
 1678 0097 CE0B     		.uleb128 .L80-.LFB1159
 1679 0099 01       		.uleb128 0x1
 1680 009a CB02     		.uleb128 .LEHB29-.LFB1159
 1681 009c 23       		.uleb128 .LEHE29-.LEHB29
 1682 009d 00       		.uleb128 0
 1683 009e 00       		.uleb128 0
 1684 009f F402     		.uleb128 .LEHB30-.LFB1159
 1685 00a1 48       		.uleb128 .LEHE30-.LEHB30
 1686 00a2 B50C     		.uleb128 .L82-.LFB1159
 1687 00a4 01       		.uleb128 0x1
 1688 00a5 D503     		.uleb128 .LEHB31-.LFB1159
 1689 00a7 05       		.uleb128 .LEHE31-.LEHB31
 1690 00a8 00       		.uleb128 0
 1691 00a9 00       		.uleb128 0
 1692 00aa E003     		.uleb128 .LEHB32-.LFB1159
 1693 00ac 48       		.uleb128 .LEHE32-.LEHB32
 1694 00ad 9C0D     		.uleb128 .L84-.LFB1159
 1695 00af 01       		.uleb128 0x1
 1696 00b0 C104     		.uleb128 .LEHB33-.LFB1159
 1697 00b2 05       		.uleb128 .LEHE33-.LEHB33
 1698 00b3 00       		.uleb128 0
 1699 00b4 00       		.uleb128 0
 1700 00b5 CC04     		.uleb128 .LEHB34-.LFB1159
 1701 00b7 48       		.uleb128 .LEHE34-.LEHB34
 1702 00b8 830E     		.uleb128 .L86-.LFB1159
 1703 00ba 01       		.uleb128 0x1
 1704 00bb AD05     		.uleb128 .LEHB35-.LFB1159
 1705 00bd 05       		.uleb128 .LEHE35-.LEHB35
 1706 00be 00       		.uleb128 0
 1707 00bf 00       		.uleb128 0
 1708 00c0 B805     		.uleb128 .LEHB36-.LFB1159
 1709 00c2 48       		.uleb128 .LEHE36-.LEHB36
 1710 00c3 EA0E     		.uleb128 .L88-.LFB1159
 1711 00c5 01       		.uleb128 0x1
 1712 00c6 9E06     		.uleb128 .LEHB37-.LFB1159
 1713 00c8 05       		.uleb128 .LEHE37-.LEHB37
 1714 00c9 00       		.uleb128 0
 1715 00ca 00       		.uleb128 0
 1716 00cb A906     		.uleb128 .LEHB38-.LFB1159
 1717 00cd 48       		.uleb128 .LEHE38-.LEHB38
 1718 00ce D10F     		.uleb128 .L90-.LFB1159
 1719 00d0 01       		.uleb128 0x1
 1720 00d1 8F07     		.uleb128 .LEHB39-.LFB1159
 1721 00d3 05       		.uleb128 .LEHE39-.LEHB39
 1722 00d4 00       		.uleb128 0
 1723 00d5 00       		.uleb128 0
 1724 00d6 9A07     		.uleb128 .LEHB40-.LFB1159
 1725 00d8 48       		.uleb128 .LEHE40-.LEHB40
 1726 00d9 B810     		.uleb128 .L92-.LFB1159
 1727 00db 01       		.uleb128 0x1
 1728 00dc FF07     		.uleb128 .LEHB41-.LFB1159
 1729 00de 05       		.uleb128 .LEHE41-.LEHB41
 1730 00df 00       		.uleb128 0
 1731 00e0 00       		.uleb128 0
 1732 00e1 8A08     		.uleb128 .LEHB42-.LFB1159
 1733 00e3 48       		.uleb128 .LEHE42-.LEHB42
 1734 00e4 9F11     		.uleb128 .L94-.LFB1159
 1735 00e6 01       		.uleb128 0x1
 1736 00e7 E108     		.uleb128 .LEHB43-.LFB1159
 1737 00e9 05       		.uleb128 .LEHE43-.LEHB43
 1738 00ea 00       		.uleb128 0
 1739 00eb 00       		.uleb128 0
 1740 00ec EC08     		.uleb128 .LEHB44-.LFB1159
 1741 00ee 48       		.uleb128 .LEHE44-.LEHB44
 1742 00ef 8612     		.uleb128 .L96-.LFB1159
 1743 00f1 01       		.uleb128 0x1
 1744 00f2 D109     		.uleb128 .LEHB45-.LFB1159
 1745 00f4 05       		.uleb128 .LEHE45-.LEHB45
 1746 00f5 00       		.uleb128 0
 1747 00f6 00       		.uleb128 0
 1748 00f7 DC09     		.uleb128 .LEHB46-.LFB1159
 1749 00f9 48       		.uleb128 .LEHE46-.LEHB46
 1750 00fa ED12     		.uleb128 .L98-.LFB1159
 1751 00fc 01       		.uleb128 0x1
 1752 00fd A40A     		.uleb128 .LEHB47-.LFB1159
 1753 00ff 43       		.uleb128 .LEHE47-.LEHB47
 1754 0100 D413     		.uleb128 .L100-.LFB1159
 1755 0102 01       		.uleb128 0x1
 1756 0103 F10A     		.uleb128 .LEHB48-.LFB1159
 1757 0105 41       		.uleb128 .LEHE48-.LEHB48
 1758 0106 00       		.uleb128 0
 1759 0107 00       		.uleb128 0
 1760 0108 DA0B     		.uleb128 .LEHB49-.LFB1159
 1761 010a 3A       		.uleb128 .LEHE49-.LEHB49
 1762 010b 9E0C     		.uleb128 .L81-.LFB1159
 1763 010d 00       		.uleb128 0
 1764 010e 940C     		.uleb128 .LEHB50-.LFB1159
 1765 0110 05       		.uleb128 .LEHE50-.LEHB50
 1766 0111 00       		.uleb128 0
 1767 0112 00       		.uleb128 0
 1768 0113 B00C     		.uleb128 .LEHB51-.LFB1159
 1769 0115 05       		.uleb128 .LEHE51-.LEHB51
 1770 0116 00       		.uleb128 0
 1771 0117 00       		.uleb128 0
 1772 0118 C10C     		.uleb128 .LEHB52-.LFB1159
 1773 011a 3A       		.uleb128 .LEHE52-.LEHB52
 1774 011b 850D     		.uleb128 .L83-.LFB1159
 1775 011d 00       		.uleb128 0
 1776 011e FB0C     		.uleb128 .LEHB53-.LFB1159
 1777 0120 05       		.uleb128 .LEHE53-.LEHB53
 1778 0121 00       		.uleb128 0
 1779 0122 00       		.uleb128 0
 1780 0123 970D     		.uleb128 .LEHB54-.LFB1159
 1781 0125 05       		.uleb128 .LEHE54-.LEHB54
 1782 0126 00       		.uleb128 0
 1783 0127 00       		.uleb128 0
 1784 0128 A80D     		.uleb128 .LEHB55-.LFB1159
 1785 012a 3A       		.uleb128 .LEHE55-.LEHB55
 1786 012b EC0D     		.uleb128 .L85-.LFB1159
 1787 012d 00       		.uleb128 0
 1788 012e E20D     		.uleb128 .LEHB56-.LFB1159
 1789 0130 05       		.uleb128 .LEHE56-.LEHB56
 1790 0131 00       		.uleb128 0
 1791 0132 00       		.uleb128 0
 1792 0133 FE0D     		.uleb128 .LEHB57-.LFB1159
 1793 0135 05       		.uleb128 .LEHE57-.LEHB57
 1794 0136 00       		.uleb128 0
 1795 0137 00       		.uleb128 0
 1796 0138 8F0E     		.uleb128 .LEHB58-.LFB1159
 1797 013a 3A       		.uleb128 .LEHE58-.LEHB58
 1798 013b D30E     		.uleb128 .L87-.LFB1159
 1799 013d 00       		.uleb128 0
 1800 013e C90E     		.uleb128 .LEHB59-.LFB1159
 1801 0140 05       		.uleb128 .LEHE59-.LEHB59
 1802 0141 00       		.uleb128 0
 1803 0142 00       		.uleb128 0
 1804 0143 E50E     		.uleb128 .LEHB60-.LFB1159
 1805 0145 05       		.uleb128 .LEHE60-.LEHB60
 1806 0146 00       		.uleb128 0
 1807 0147 00       		.uleb128 0
 1808 0148 F60E     		.uleb128 .LEHB61-.LFB1159
 1809 014a 3A       		.uleb128 .LEHE61-.LEHB61
 1810 014b BA0F     		.uleb128 .L89-.LFB1159
 1811 014d 00       		.uleb128 0
 1812 014e B00F     		.uleb128 .LEHB62-.LFB1159
 1813 0150 05       		.uleb128 .LEHE62-.LEHB62
 1814 0151 00       		.uleb128 0
 1815 0152 00       		.uleb128 0
 1816 0153 CC0F     		.uleb128 .LEHB63-.LFB1159
 1817 0155 05       		.uleb128 .LEHE63-.LEHB63
 1818 0156 00       		.uleb128 0
 1819 0157 00       		.uleb128 0
 1820 0158 DD0F     		.uleb128 .LEHB64-.LFB1159
 1821 015a 3A       		.uleb128 .LEHE64-.LEHB64
 1822 015b A110     		.uleb128 .L91-.LFB1159
 1823 015d 00       		.uleb128 0
 1824 015e 9710     		.uleb128 .LEHB65-.LFB1159
 1825 0160 05       		.uleb128 .LEHE65-.LEHB65
 1826 0161 00       		.uleb128 0
 1827 0162 00       		.uleb128 0
 1828 0163 B310     		.uleb128 .LEHB66-.LFB1159
 1829 0165 05       		.uleb128 .LEHE66-.LEHB66
 1830 0166 00       		.uleb128 0
 1831 0167 00       		.uleb128 0
 1832 0168 C410     		.uleb128 .LEHB67-.LFB1159
 1833 016a 3A       		.uleb128 .LEHE67-.LEHB67
 1834 016b 8811     		.uleb128 .L93-.LFB1159
 1835 016d 00       		.uleb128 0
 1836 016e FE10     		.uleb128 .LEHB68-.LFB1159
 1837 0170 05       		.uleb128 .LEHE68-.LEHB68
 1838 0171 00       		.uleb128 0
 1839 0172 00       		.uleb128 0
 1840 0173 9A11     		.uleb128 .LEHB69-.LFB1159
 1841 0175 05       		.uleb128 .LEHE69-.LEHB69
 1842 0176 00       		.uleb128 0
 1843 0177 00       		.uleb128 0
 1844 0178 AB11     		.uleb128 .LEHB70-.LFB1159
 1845 017a 3A       		.uleb128 .LEHE70-.LEHB70
 1846 017b EF11     		.uleb128 .L95-.LFB1159
 1847 017d 00       		.uleb128 0
 1848 017e E511     		.uleb128 .LEHB71-.LFB1159
 1849 0180 05       		.uleb128 .LEHE71-.LEHB71
 1850 0181 00       		.uleb128 0
 1851 0182 00       		.uleb128 0
 1852 0183 8112     		.uleb128 .LEHB72-.LFB1159
 1853 0185 05       		.uleb128 .LEHE72-.LEHB72
 1854 0186 00       		.uleb128 0
 1855 0187 00       		.uleb128 0
 1856 0188 9212     		.uleb128 .LEHB73-.LFB1159
 1857 018a 3A       		.uleb128 .LEHE73-.LEHB73
 1858 018b D612     		.uleb128 .L97-.LFB1159
 1859 018d 00       		.uleb128 0
 1860 018e CC12     		.uleb128 .LEHB74-.LFB1159
 1861 0190 05       		.uleb128 .LEHE74-.LEHB74
 1862 0191 00       		.uleb128 0
 1863 0192 00       		.uleb128 0
 1864 0193 E812     		.uleb128 .LEHB75-.LFB1159
 1865 0195 05       		.uleb128 .LEHE75-.LEHB75
 1866 0196 00       		.uleb128 0
 1867 0197 00       		.uleb128 0
 1868 0198 F912     		.uleb128 .LEHB76-.LFB1159
 1869 019a 3A       		.uleb128 .LEHE76-.LEHB76
 1870 019b BD13     		.uleb128 .L99-.LFB1159
 1871 019d 00       		.uleb128 0
 1872 019e B313     		.uleb128 .LEHB77-.LFB1159
 1873 01a0 05       		.uleb128 .LEHE77-.LEHB77
 1874 01a1 00       		.uleb128 0
 1875 01a2 00       		.uleb128 0
 1876 01a3 CF13     		.uleb128 .LEHB78-.LFB1159
 1877 01a5 05       		.uleb128 .LEHE78-.LEHB78
 1878 01a6 00       		.uleb128 0
 1879 01a7 00       		.uleb128 0
 1880 01a8 E013     		.uleb128 .LEHB79-.LFB1159
 1881 01aa 3A       		.uleb128 .LEHE79-.LEHB79
 1882 01ab A414     		.uleb128 .L101-.LFB1159
 1883 01ad 00       		.uleb128 0
 1884 01ae 9A14     		.uleb128 .LEHB80-.LFB1159
 1885 01b0 05       		.uleb128 .LEHE80-.LEHB80
 1886 01b1 00       		.uleb128 0
 1887 01b2 00       		.uleb128 0
 1888 01b3 B614     		.uleb128 .LEHB81-.LFB1159
 1889 01b5 05       		.uleb128 .LEHE81-.LEHB81
 1890 01b6 00       		.uleb128 0
 1891 01b7 00       		.uleb128 0
 1892              	.LLSDACSE1159:
 1893 01b8 01       		.byte	0x1
 1894 01b9 00       		.byte	0
 1895 01ba 0000     		.align 4
 1896 01bc 00000000 		.long	0
 1897              	
 1898              	.LLSDATT1159:
 1899              		.text
 1901              		.section	.rodata
 1902              	.LC10:
 1903 01c9 4932435F 		.string	"I2C_testWPRNoInit"
 1903      74657374 
 1903      5750524E 
 1903      6F496E69 
 1903      7400
 1904              		.section	.text._ZN21TestI2C_testWPRNoInitC2Ev,"axG",@progbits,_ZN21TestI2C_testWPRNoInitC5Ev,comda
 1905              		.align 2
 1906              		.weak	_ZN21TestI2C_testWPRNoInitC2Ev
 1908              	_ZN21TestI2C_testWPRNoInitC2Ev:
 1909              	.LFB1161:
  94:testI2C.cpp   **** 
  95:testI2C.cpp   **** TEST(I2C_testWPRNoInit) {
 1910              		.loc 3 95 1
 1911              		.cfi_startproc
 1912 0000 F30F1EFA 		endbr64
 1913 0004 55       		pushq	%rbp
 1914              		.cfi_def_cfa_offset 16
 1915              		.cfi_offset 6, -16
 1916 0005 4889E5   		movq	%rsp, %rbp
 1917              		.cfi_def_cfa_register 6
 1918 0008 53       		pushq	%rbx
 1919 0009 4883EC18 		subq	$24, %rsp
 1920              		.cfi_offset 3, -24
 1921 000d 48897DE8 		movq	%rdi, -24(%rbp)
 1922              	.LBB9:
 1923              		.loc 3 95 1
 1924 0011 488B5DE8 		movq	-24(%rbp), %rbx
 1925 0015 E8000000 		call	_ZN13UnitTestSuite12GetSuiteNameEv
 1925      00
 1926 001a 4889C2   		movq	%rax, %rdx
 1927 001d 41B85F00 		movl	$95, %r8d
 1927      0000
 1928 0023 488D0500 		leaq	.LC1(%rip), %rax
 1928      000000
 1929 002a 4889C1   		movq	%rax, %rcx
 1930 002d 488D0500 		leaq	.LC10(%rip), %rax
 1930      000000
 1931 0034 4889C6   		movq	%rax, %rsi
 1932 0037 4889DF   		movq	%rbx, %rdi
 1933 003a E8000000 		call	_ZN8UnitTest4TestC2EPKcS2_S2_i@PLT
 1933      00
 1934 003f 488D1500 		leaq	16+_ZTV21TestI2C_testWPRNoInit(%rip), %rdx
 1934      000000
 1935 0046 488B45E8 		movq	-24(%rbp), %rax
 1936 004a 488910   		movq	%rdx, (%rax)
 1937              	.LBE9:
 1938 004d 90       		nop
 1939 004e 488B5DF8 		movq	-8(%rbp), %rbx
 1940 0052 C9       		leave
 1941              		.cfi_def_cfa 7, 8
 1942 0053 C3       		ret
 1943              		.cfi_endproc
 1944              	.LFE1161:
 1946              		.weak	_ZN21TestI2C_testWPRNoInitC1Ev
 1947              		.set	_ZN21TestI2C_testWPRNoInitC1Ev,_ZN21TestI2C_testWPRNoInitC2Ev
 1948              		.globl	testI2C_testWPRNoInitInstance
 1949              		.bss
 1950 0079 00000000 		.align 32
 1950      000000
 1953              	testI2C_testWPRNoInitInstance:
 1954 0080 00000000 		.zero	56
 1954      00000000 
 1954      00000000 
 1954      00000000 
 1954      00000000 
 1955              		.globl	adderI2C_testWPRNoInit
 1958              	adderI2C_testWPRNoInit:
 1959 00b8 00       		.zero	1
 1960              		.section	.rodata
 1961 01db 00000000 		.align 8
 1961      00
 1962              	.LC11:
 1963 01e0 556E6861 		.string	"Unhandled exception in CHECK_EQUAL(I2C_NOT_INITIALISED, iStatus)"
 1963      6E646C65 
 1963      64206578 
 1963      63657074 
 1963      696F6E20 
 1964              		.text
 1965 0e6f 90       		.align 2
 1966              		.globl	_ZNK21TestI2C_testWPRNoInit7RunImplEv
 1968              	_ZNK21TestI2C_testWPRNoInit7RunImplEv:
 1969              	.LFB1163:
 1970              		.loc 3 95 25
 1971              		.cfi_startproc
 1972              		.cfi_personality 0x9b,DW.ref.__gxx_personality_v0
 1973              		.cfi_lsda 0x1b,.LLSDA1163
 1974 0e70 F30F1EFA 		endbr64
 1975 0e74 55       		pushq	%rbp
 1976              		.cfi_def_cfa_offset 16
 1977              		.cfi_offset 6, -16
 1978 0e75 4889E5   		movq	%rsp, %rbp
 1979              		.cfi_def_cfa_register 6
 1980 0e78 53       		pushq	%rbx
 1981 0e79 4883EC78 		subq	$120, %rsp
 1982              		.cfi_offset 3, -24
 1983 0e7d 48897D88 		movq	%rdi, -120(%rbp)
 1984              		.loc 3 95 25
 1985 0e81 64488B04 		movq	%fs:40, %rax
 1985      25280000 
 1985      00
 1986 0e8a 488945E8 		movq	%rax, -24(%rbp)
 1987 0e8e 31C0     		xorl	%eax, %eax
  96:testI2C.cpp   **** 	Buffer i2cBuffer;
  97:testI2C.cpp   **** 	I2CStatus iStatus;
  98:testI2C.cpp   **** 	BufferStatus bStatus;
  99:testI2C.cpp   **** 	bStatus = bufInitialise(&i2cBuffer, 8, 0x00, NULL);
 1988              		.loc 3 99 25
 1989 0e90 488D45A0 		leaq	-96(%rbp), %rax
 1990 0e94 B9000000 		movl	$0, %ecx
 1990      00
 1991 0e99 BA000000 		movl	$0, %edx
 1991      00
 1992 0e9e BE080000 		movl	$8, %esi
 1992      00
 1993 0ea3 4889C7   		movq	%rax, %rdi
 1994              	.LEHB82:
 1995 0ea6 E8000000 		call	bufInitialise@PLT
 1995      00
 1996              	.LEHE82:
 1997              		.loc 3 99 10
 1998 0eab 894598   		movl	%eax, -104(%rbp)
 1999              	.LEHB83:
 100:testI2C.cpp   **** 	CHECK_EQUAL(BUF_SUCCESS, bStatus);
 2000              		.loc 3 100 2
 2001 0eae E8000000 		call	_ZN8UnitTest11CurrentTest7DetailsEv@PLT
 2001      00
 2002 0eb3 488B08   		movq	(%rax), %rcx
 2003 0eb6 488D45C0 		leaq	-64(%rbp), %rax
 2004 0eba BA640000 		movl	$100, %edx
 2004      00
 2005 0ebf 4889CE   		movq	%rcx, %rsi
 2006 0ec2 4889C7   		movq	%rax, %rdi
 2007 0ec5 E8000000 		call	_ZN8UnitTest11TestDetailsC1ERKS0_i@PLT
 2007      00
 2008              		.loc 3 100 2 is_stmt 0 discriminator 4
 2009 0eca C7459C00 		movl	$0, -100(%rbp)
 2009      000000
 2010 0ed1 E8000000 		call	_ZN8UnitTest11CurrentTest7ResultsEv@PLT
 2010      00
 2011 0ed6 488B00   		movq	(%rax), %rax
 2012 0ed9 488D4DC0 		leaq	-64(%rbp), %rcx
 2013 0edd 488D5598 		leaq	-104(%rbp), %rdx
 2014 0ee1 488D759C 		leaq	-100(%rbp), %rsi
 2015 0ee5 4889C7   		movq	%rax, %rdi
 2016 0ee8 E8000000 		call	_ZN8UnitTest10CheckEqualI12BufferStatusS1_EEvRNS_11TestResultsERKT_RKT0_RKNS_11TestDetailsE
 2016      00
 2017              	.LEHE83:
 2018              	.L106:
 101:testI2C.cpp   **** 	iStatus = i2cWritePromRecords(&i2cBuffer, NULL, NULL, NULL);
 2019              		.loc 3 101 31 is_stmt 1
 2020 0eed 488D45A0 		leaq	-96(%rbp), %rax
 2021 0ef1 B9000000 		movl	$0, %ecx
 2021      00
 2022 0ef6 BA000000 		movl	$0, %edx
 2022      00
 2023 0efb BE000000 		movl	$0, %esi
 2023      00
 2024 0f00 4889C7   		movq	%rax, %rdi
 2025              	.LEHB84:
 2026 0f03 E8000000 		call	i2cWritePromRecords@PLT
 2026      00
 2027              	.LEHE84:
 2028              		.loc 3 101 10
 2029 0f08 894594   		movl	%eax, -108(%rbp)
 2030              	.LEHB85:
 102:testI2C.cpp   **** 	CHECK_EQUAL(I2C_NOT_INITIALISED, iStatus);
 2031              		.loc 3 102 2
 2032 0f0b E8000000 		call	_ZN8UnitTest11CurrentTest7DetailsEv@PLT
 2032      00
 2033 0f10 488B08   		movq	(%rax), %rcx
 2034 0f13 488D45C0 		leaq	-64(%rbp), %rax
 2035 0f17 BA660000 		movl	$102, %edx
 2035      00
 2036 0f1c 4889CE   		movq	%rcx, %rsi
 2037 0f1f 4889C7   		movq	%rax, %rdi
 2038 0f22 E8000000 		call	_ZN8UnitTest11TestDetailsC1ERKS0_i@PLT
 2038      00
 2039              		.loc 3 102 2 is_stmt 0 discriminator 4
 2040 0f27 C7459C02 		movl	$2, -100(%rbp)
 2040      000000
 2041 0f2e E8000000 		call	_ZN8UnitTest11CurrentTest7ResultsEv@PLT
 2041      00
 2042 0f33 488B00   		movq	(%rax), %rax
 2043 0f36 488D4DC0 		leaq	-64(%rbp), %rcx
 2044 0f3a 488D5594 		leaq	-108(%rbp), %rdx
 2045 0f3e 488D759C 		leaq	-100(%rbp), %rsi
 2046 0f42 4889C7   		movq	%rax, %rdi
 2047 0f45 E8000000 		call	_ZN8UnitTest10CheckEqualI9I2CStatusS1_EEvRNS_11TestResultsERKT_RKT0_RKNS_11TestDetailsE
 2047      00
 2048              	.LEHE85:
 2049              	.L109:
 103:testI2C.cpp   **** 	bufDestroy(&i2cBuffer);
 2050              		.loc 3 103 12 is_stmt 1
 2051 0f4a 488D45A0 		leaq	-96(%rbp), %rax
 2052 0f4e 4889C7   		movq	%rax, %rdi
 2053              	.LEHB86:
 2054 0f51 E8000000 		call	bufDestroy@PLT
 2054      00
 2055              	.LEHE86:
 104:testI2C.cpp   **** }
 2056              		.loc 3 104 1
 2057 0f56 90       		nop
 2058 0f57 488B45E8 		movq	-24(%rbp), %rax
 2059 0f5b 64482B04 		subq	%fs:40, %rax
 2059      25280000 
 2059      00
 2060 0f64 0F84D800 		je	.L111
 2060      0000
 2061 0f6a E9CE0000 		jmp	.L116
 2061      00
 2062              	.L112:
 2063 0f6f F30F1EFA 		endbr64
 100:testI2C.cpp   **** 	iStatus = i2cWritePromRecords(&i2cBuffer, NULL, NULL, NULL);
 2064              		.loc 3 100 2
 2065 0f73 4889C7   		movq	%rax, %rdi
 2066 0f76 E8000000 		call	__cxa_begin_catch@PLT
 2066      00
 2067              	.LEHB87:
 2068 0f7b E8000000 		call	_ZN8UnitTest11CurrentTest7ResultsEv@PLT
 2068      00
 100:testI2C.cpp   **** 	iStatus = i2cWritePromRecords(&i2cBuffer, NULL, NULL, NULL);
 2069              		.loc 3 100 2 is_stmt 0 discriminator 3
 2070 0f80 488B18   		movq	(%rax), %rbx
 2071 0f83 E8000000 		call	_ZN8UnitTest11CurrentTest7DetailsEv@PLT
 2071      00
 100:testI2C.cpp   **** 	iStatus = i2cWritePromRecords(&i2cBuffer, NULL, NULL, NULL);
 2072              		.loc 3 100 2 discriminator 11
 2073 0f88 488B08   		movq	(%rax), %rcx
 2074 0f8b 488D45C0 		leaq	-64(%rbp), %rax
 2075 0f8f BA640000 		movl	$100, %edx
 2075      00
 2076 0f94 4889CE   		movq	%rcx, %rsi
 2077 0f97 4889C7   		movq	%rax, %rdi
 2078 0f9a E8000000 		call	_ZN8UnitTest11TestDetailsC1ERKS0_i@PLT
 2078      00
 100:testI2C.cpp   **** 	iStatus = i2cWritePromRecords(&i2cBuffer, NULL, NULL, NULL);
 2079              		.loc 3 100 2 discriminator 15
 2080 0f9f 488D45C0 		leaq	-64(%rbp), %rax
 2081 0fa3 488D1500 		leaq	.LC3(%rip), %rdx
 2081      000000
 2082 0faa 4889C6   		movq	%rax, %rsi
 2083 0fad 4889DF   		movq	%rbx, %rdi
 2084 0fb0 E8000000 		call	_ZN8UnitTest11TestResults13OnTestFailureERKNS_11TestDetailsEPKc@PLT
 2084      00
 2085              	.LEHE87:
 2086              	.LEHB88:
 100:testI2C.cpp   **** 	iStatus = i2cWritePromRecords(&i2cBuffer, NULL, NULL, NULL);
 2087              		.loc 3 100 2 discriminator 17
 2088 0fb5 E8000000 		call	__cxa_end_catch@PLT
 2088      00
 2089              	.LEHE88:
 2090 0fba E92EFFFF 		jmp	.L106
 2090      FF
 2091              	.L113:
 2092 0fbf F30F1EFA 		endbr64
 100:testI2C.cpp   **** 	iStatus = i2cWritePromRecords(&i2cBuffer, NULL, NULL, NULL);
 2093              		.loc 3 100 2
 2094 0fc3 4889C3   		movq	%rax, %rbx
 2095 0fc6 E8000000 		call	__cxa_end_catch@PLT
 2095      00
 2096 0fcb 4889D8   		movq	%rbx, %rax
 2097 0fce 4889C7   		movq	%rax, %rdi
 2098              	.LEHB89:
 2099 0fd1 E8000000 		call	_Unwind_Resume@PLT
 2099      00
 2100              	.LEHE89:
 2101              	.L114:
 2102 0fd6 F30F1EFA 		endbr64
 102:testI2C.cpp   **** 	bufDestroy(&i2cBuffer);
 2103              		.loc 3 102 2 is_stmt 1
 2104 0fda 4889C7   		movq	%rax, %rdi
 2105 0fdd E8000000 		call	__cxa_begin_catch@PLT
 2105      00
 2106              	.LEHB90:
 2107 0fe2 E8000000 		call	_ZN8UnitTest11CurrentTest7ResultsEv@PLT
 2107      00
 102:testI2C.cpp   **** 	bufDestroy(&i2cBuffer);
 2108              		.loc 3 102 2 is_stmt 0 discriminator 3
 2109 0fe7 488B18   		movq	(%rax), %rbx
 2110 0fea E8000000 		call	_ZN8UnitTest11CurrentTest7DetailsEv@PLT
 2110      00
 102:testI2C.cpp   **** 	bufDestroy(&i2cBuffer);
 2111              		.loc 3 102 2 discriminator 11
 2112 0fef 488B08   		movq	(%rax), %rcx
 2113 0ff2 488D45C0 		leaq	-64(%rbp), %rax
 2114 0ff6 BA660000 		movl	$102, %edx
 2114      00
 2115 0ffb 4889CE   		movq	%rcx, %rsi
 2116 0ffe 4889C7   		movq	%rax, %rdi
 2117 1001 E8000000 		call	_ZN8UnitTest11TestDetailsC1ERKS0_i@PLT
 2117      00
 102:testI2C.cpp   **** 	bufDestroy(&i2cBuffer);
 2118              		.loc 3 102 2 discriminator 15
 2119 1006 488D45C0 		leaq	-64(%rbp), %rax
 2120 100a 488D1500 		leaq	.LC11(%rip), %rdx
 2120      000000
 2121 1011 4889C6   		movq	%rax, %rsi
 2122 1014 4889DF   		movq	%rbx, %rdi
 2123 1017 E8000000 		call	_ZN8UnitTest11TestResults13OnTestFailureERKNS_11TestDetailsEPKc@PLT
 2123      00
 2124              	.LEHE90:
 2125              	.LEHB91:
 102:testI2C.cpp   **** 	bufDestroy(&i2cBuffer);
 2126              		.loc 3 102 2 discriminator 17
 2127 101c E8000000 		call	__cxa_end_catch@PLT
 2127      00
 2128              	.LEHE91:
 2129 1021 E924FFFF 		jmp	.L109
 2129      FF
 2130              	.L115:
 2131 1026 F30F1EFA 		endbr64
 102:testI2C.cpp   **** 	bufDestroy(&i2cBuffer);
 2132              		.loc 3 102 2
 2133 102a 4889C3   		movq	%rax, %rbx
 2134 102d E8000000 		call	__cxa_end_catch@PLT
 2134      00
 2135 1032 4889D8   		movq	%rbx, %rax
 2136 1035 4889C7   		movq	%rax, %rdi
 2137              	.LEHB92:
 2138 1038 E8000000 		call	_Unwind_Resume@PLT
 2138      00
 2139              	.LEHE92:
 2140              	.L116:
 2141              		.loc 3 104 1 is_stmt 1
 2142 103d E8000000 		call	__stack_chk_fail@PLT
 2142      00
 2143              	.L111:
 2144 1042 488B5DF8 		movq	-8(%rbp), %rbx
 2145 1046 C9       		leave
 2146              		.cfi_def_cfa 7, 8
 2147 1047 C3       		ret
 2148              		.cfi_endproc
 2149              	.LFE1163:
 2150              		.section	.gcc_except_table
 2151              		.align 4
 2152              	.LLSDA1163:
 2153 01c0 FF       		.byte	0xff
 2154 01c1 9B       		.byte	0x9b
 2155 01c2 41       		.uleb128 .LLSDATT1163-.LLSDATTD1163
 2156              	.LLSDATTD1163:
 2157 01c3 01       		.byte	0x1
 2158 01c4 39       		.uleb128 .LLSDACSE1163-.LLSDACSB1163
 2159              	.LLSDACSB1163:
 2160 01c5 36       		.uleb128 .LEHB82-.LFB1163
 2161 01c6 05       		.uleb128 .LEHE82-.LEHB82
 2162 01c7 00       		.uleb128 0
 2163 01c8 00       		.uleb128 0
 2164 01c9 3E       		.uleb128 .LEHB83-.LFB1163
 2165 01ca 3F       		.uleb128 .LEHE83-.LEHB83
 2166 01cb FF01     		.uleb128 .L112-.LFB1163
 2167 01cd 01       		.uleb128 0x1
 2168 01ce 9301     		.uleb128 .LEHB84-.LFB1163
 2169 01d0 05       		.uleb128 .LEHE84-.LEHB84
 2170 01d1 00       		.uleb128 0
 2171 01d2 00       		.uleb128 0
 2172 01d3 9B01     		.uleb128 .LEHB85-.LFB1163
 2173 01d5 3F       		.uleb128 .LEHE85-.LEHB85
 2174 01d6 E602     		.uleb128 .L114-.LFB1163
 2175 01d8 01       		.uleb128 0x1
 2176 01d9 E101     		.uleb128 .LEHB86-.LFB1163
 2177 01db 05       		.uleb128 .LEHE86-.LEHB86
 2178 01dc 00       		.uleb128 0
 2179 01dd 00       		.uleb128 0
 2180 01de 8B02     		.uleb128 .LEHB87-.LFB1163
 2181 01e0 3A       		.uleb128 .LEHE87-.LEHB87
 2182 01e1 CF02     		.uleb128 .L113-.LFB1163
 2183 01e3 00       		.uleb128 0
 2184 01e4 C502     		.uleb128 .LEHB88-.LFB1163
 2185 01e6 05       		.uleb128 .LEHE88-.LEHB88
 2186 01e7 00       		.uleb128 0
 2187 01e8 00       		.uleb128 0
 2188 01e9 E102     		.uleb128 .LEHB89-.LFB1163
 2189 01eb 05       		.uleb128 .LEHE89-.LEHB89
 2190 01ec 00       		.uleb128 0
 2191 01ed 00       		.uleb128 0
 2192 01ee F202     		.uleb128 .LEHB90-.LFB1163
 2193 01f0 3A       		.uleb128 .LEHE90-.LEHB90
 2194 01f1 B603     		.uleb128 .L115-.LFB1163
 2195 01f3 00       		.uleb128 0
 2196 01f4 AC03     		.uleb128 .LEHB91-.LFB1163
 2197 01f6 05       		.uleb128 .LEHE91-.LEHB91
 2198 01f7 00       		.uleb128 0
 2199 01f8 00       		.uleb128 0
 2200 01f9 C803     		.uleb128 .LEHB92-.LFB1163
 2201 01fb 05       		.uleb128 .LEHE92-.LEHB92
 2202 01fc 00       		.uleb128 0
 2203 01fd 00       		.uleb128 0
 2204              	.LLSDACSE1163:
 2205 01fe 01       		.byte	0x1
 2206 01ff 00       		.byte	0
 2207              		.align 4
 2208 0200 00000000 		.long	0
 2209              	
 2210              	.LLSDATT1163:
 2211              		.text
 2213              		.section	.rodata
 2214              	.LC12:
 2215 0221 4932435F 		.string	"I2C_testFinaliseNoInit"
 2215      74657374 
 2215      46696E61 
 2215      6C697365 
 2215      4E6F496E 
 2216              		.section	.text._ZN26TestI2C_testFinaliseNoInitC2Ev,"axG",@progbits,_ZN26TestI2C_testFinaliseNoInit
 2217              		.align 2
 2218              		.weak	_ZN26TestI2C_testFinaliseNoInitC2Ev
 2220              	_ZN26TestI2C_testFinaliseNoInitC2Ev:
 2221              	.LFB1165:
 105:testI2C.cpp   **** 
 106:testI2C.cpp   **** TEST(I2C_testFinaliseNoInit) {
 2222              		.loc 3 106 1
 2223              		.cfi_startproc
 2224 0000 F30F1EFA 		endbr64
 2225 0004 55       		pushq	%rbp
 2226              		.cfi_def_cfa_offset 16
 2227              		.cfi_offset 6, -16
 2228 0005 4889E5   		movq	%rsp, %rbp
 2229              		.cfi_def_cfa_register 6
 2230 0008 53       		pushq	%rbx
 2231 0009 4883EC18 		subq	$24, %rsp
 2232              		.cfi_offset 3, -24
 2233 000d 48897DE8 		movq	%rdi, -24(%rbp)
 2234              	.LBB10:
 2235              		.loc 3 106 1
 2236 0011 488B5DE8 		movq	-24(%rbp), %rbx
 2237 0015 E8000000 		call	_ZN13UnitTestSuite12GetSuiteNameEv
 2237      00
 2238 001a 4889C2   		movq	%rax, %rdx
 2239 001d 41B86A00 		movl	$106, %r8d
 2239      0000
 2240 0023 488D0500 		leaq	.LC1(%rip), %rax
 2240      000000
 2241 002a 4889C1   		movq	%rax, %rcx
 2242 002d 488D0500 		leaq	.LC12(%rip), %rax
 2242      000000
 2243 0034 4889C6   		movq	%rax, %rsi
 2244 0037 4889DF   		movq	%rbx, %rdi
 2245 003a E8000000 		call	_ZN8UnitTest4TestC2EPKcS2_S2_i@PLT
 2245      00
 2246 003f 488D1500 		leaq	16+_ZTV26TestI2C_testFinaliseNoInit(%rip), %rdx
 2246      000000
 2247 0046 488B45E8 		movq	-24(%rbp), %rax
 2248 004a 488910   		movq	%rdx, (%rax)
 2249              	.LBE10:
 2250 004d 90       		nop
 2251 004e 488B5DF8 		movq	-8(%rbp), %rbx
 2252 0052 C9       		leave
 2253              		.cfi_def_cfa 7, 8
 2254 0053 C3       		ret
 2255              		.cfi_endproc
 2256              	.LFE1165:
 2258              		.weak	_ZN26TestI2C_testFinaliseNoInitC1Ev
 2259              		.set	_ZN26TestI2C_testFinaliseNoInitC1Ev,_ZN26TestI2C_testFinaliseNoInitC2Ev
 2260              		.globl	testI2C_testFinaliseNoInitInstance
 2261              		.bss
 2262 00b9 00000000 		.align 32
 2262      000000
 2265              	testI2C_testFinaliseNoInitInstance:
 2266 00c0 00000000 		.zero	56
 2266      00000000 
 2266      00000000 
 2266      00000000 
 2266      00000000 
 2267              		.globl	adderI2C_testFinaliseNoInit
 2270              	adderI2C_testFinaliseNoInit:
 2271 00f8 00       		.zero	1
 2272              		.text
 2273              		.align 2
 2274              		.globl	_ZNK26TestI2C_testFinaliseNoInit7RunImplEv
 2276              	_ZNK26TestI2C_testFinaliseNoInit7RunImplEv:
 2277              	.LFB1167:
 2278              		.loc 3 106 30
 2279              		.cfi_startproc
 2280              		.cfi_personality 0x9b,DW.ref.__gxx_personality_v0
 2281              		.cfi_lsda 0x1b,.LLSDA1167
 2282 1048 F30F1EFA 		endbr64
 2283 104c 55       		pushq	%rbp
 2284              		.cfi_def_cfa_offset 16
 2285              		.cfi_offset 6, -16
 2286 104d 4889E5   		movq	%rsp, %rbp
 2287              		.cfi_def_cfa_register 6
 2288 1050 53       		pushq	%rbx
 2289 1051 4883EC78 		subq	$120, %rsp
 2290              		.cfi_offset 3, -24
 2291 1055 48897D88 		movq	%rdi, -120(%rbp)
 2292              		.loc 3 106 30
 2293 1059 64488B04 		movq	%fs:40, %rax
 2293      25280000 
 2293      00
 2294 1062 488945E8 		movq	%rax, -24(%rbp)
 2295 1066 31C0     		xorl	%eax, %eax
 107:testI2C.cpp   **** 	Buffer buf;
 108:testI2C.cpp   **** 	I2CStatus iStatus;
 109:testI2C.cpp   **** 	BufferStatus bStatus;
 110:testI2C.cpp   **** 	bStatus = bufInitialise(&buf, 8, 0x00, NULL);
 2296              		.loc 3 110 25
 2297 1068 488D45A0 		leaq	-96(%rbp), %rax
 2298 106c B9000000 		movl	$0, %ecx
 2298      00
 2299 1071 BA000000 		movl	$0, %edx
 2299      00
 2300 1076 BE080000 		movl	$8, %esi
 2300      00
 2301 107b 4889C7   		movq	%rax, %rdi
 2302              	.LEHB93:
 2303 107e E8000000 		call	bufInitialise@PLT
 2303      00
 2304              	.LEHE93:
 2305              		.loc 3 110 10
 2306 1083 894598   		movl	%eax, -104(%rbp)
 2307              	.LEHB94:
 111:testI2C.cpp   **** 	CHECK_EQUAL(BUF_SUCCESS, bStatus);
 2308              		.loc 3 111 2
 2309 1086 E8000000 		call	_ZN8UnitTest11CurrentTest7DetailsEv@PLT
 2309      00
 2310 108b 488B08   		movq	(%rax), %rcx
 2311 108e 488D45C0 		leaq	-64(%rbp), %rax
 2312 1092 BA6F0000 		movl	$111, %edx
 2312      00
 2313 1097 4889CE   		movq	%rcx, %rsi
 2314 109a 4889C7   		movq	%rax, %rdi
 2315 109d E8000000 		call	_ZN8UnitTest11TestDetailsC1ERKS0_i@PLT
 2315      00
 2316              		.loc 3 111 2 is_stmt 0 discriminator 4
 2317 10a2 C7459C00 		movl	$0, -100(%rbp)
 2317      000000
 2318 10a9 E8000000 		call	_ZN8UnitTest11CurrentTest7ResultsEv@PLT
 2318      00
 2319 10ae 488B00   		movq	(%rax), %rax
 2320 10b1 488D4DC0 		leaq	-64(%rbp), %rcx
 2321 10b5 488D5598 		leaq	-104(%rbp), %rdx
 2322 10b9 488D759C 		leaq	-100(%rbp), %rsi
 2323 10bd 4889C7   		movq	%rax, %rdi
 2324 10c0 E8000000 		call	_ZN8UnitTest10CheckEqualI12BufferStatusS1_EEvRNS_11TestResultsERKT_RKT0_RKNS_11TestDetailsE
 2324      00
 2325              	.LEHE94:
 2326              	.L120:
 112:testI2C.cpp   **** 	iStatus = i2cFinalise(&buf, NULL);
 2327              		.loc 3 112 23 is_stmt 1
 2328 10c5 488D45A0 		leaq	-96(%rbp), %rax
 2329 10c9 BE000000 		movl	$0, %esi
 2329      00
 2330 10ce 4889C7   		movq	%rax, %rdi
 2331              	.LEHB95:
 2332 10d1 E8000000 		call	i2cFinalise@PLT
 2332      00
 2333              	.LEHE95:
 2334              		.loc 3 112 10
 2335 10d6 894594   		movl	%eax, -108(%rbp)
 2336              	.LEHB96:
 113:testI2C.cpp   **** 	CHECK_EQUAL(I2C_NOT_INITIALISED, iStatus);
 2337              		.loc 3 113 2
 2338 10d9 E8000000 		call	_ZN8UnitTest11CurrentTest7DetailsEv@PLT
 2338      00
 2339 10de 488B08   		movq	(%rax), %rcx
 2340 10e1 488D45C0 		leaq	-64(%rbp), %rax
 2341 10e5 BA710000 		movl	$113, %edx
 2341      00
 2342 10ea 4889CE   		movq	%rcx, %rsi
 2343 10ed 4889C7   		movq	%rax, %rdi
 2344 10f0 E8000000 		call	_ZN8UnitTest11TestDetailsC1ERKS0_i@PLT
 2344      00
 2345              		.loc 3 113 2 is_stmt 0 discriminator 4
 2346 10f5 C7459C02 		movl	$2, -100(%rbp)
 2346      000000
 2347 10fc E8000000 		call	_ZN8UnitTest11CurrentTest7ResultsEv@PLT
 2347      00
 2348 1101 488B00   		movq	(%rax), %rax
 2349 1104 488D4DC0 		leaq	-64(%rbp), %rcx
 2350 1108 488D5594 		leaq	-108(%rbp), %rdx
 2351 110c 488D759C 		leaq	-100(%rbp), %rsi
 2352 1110 4889C7   		movq	%rax, %rdi
 2353 1113 E8000000 		call	_ZN8UnitTest10CheckEqualI9I2CStatusS1_EEvRNS_11TestResultsERKT_RKT0_RKNS_11TestDetailsE
 2353      00
 2354              	.LEHE96:
 2355              	.L123:
 114:testI2C.cpp   **** 	bufDestroy(&buf);
 2356              		.loc 3 114 12 is_stmt 1
 2357 1118 488D45A0 		leaq	-96(%rbp), %rax
 2358 111c 4889C7   		movq	%rax, %rdi
 2359              	.LEHB97:
 2360 111f E8000000 		call	bufDestroy@PLT
 2360      00
 2361              	.LEHE97:
 115:testI2C.cpp   **** }
 2362              		.loc 3 115 1
 2363 1124 90       		nop
 2364 1125 488B45E8 		movq	-24(%rbp), %rax
 2365 1129 64482B04 		subq	%fs:40, %rax
 2365      25280000 
 2365      00
 2366 1132 0F84D800 		je	.L125
 2366      0000
 2367 1138 E9CE0000 		jmp	.L130
 2367      00
 2368              	.L126:
 2369 113d F30F1EFA 		endbr64
 111:testI2C.cpp   **** 	iStatus = i2cFinalise(&buf, NULL);
 2370              		.loc 3 111 2
 2371 1141 4889C7   		movq	%rax, %rdi
 2372 1144 E8000000 		call	__cxa_begin_catch@PLT
 2372      00
 2373              	.LEHB98:
 2374 1149 E8000000 		call	_ZN8UnitTest11CurrentTest7ResultsEv@PLT
 2374      00
 111:testI2C.cpp   **** 	iStatus = i2cFinalise(&buf, NULL);
 2375              		.loc 3 111 2 is_stmt 0 discriminator 3
 2376 114e 488B18   		movq	(%rax), %rbx
 2377 1151 E8000000 		call	_ZN8UnitTest11CurrentTest7DetailsEv@PLT
 2377      00
 111:testI2C.cpp   **** 	iStatus = i2cFinalise(&buf, NULL);
 2378              		.loc 3 111 2 discriminator 11
 2379 1156 488B08   		movq	(%rax), %rcx
 2380 1159 488D45C0 		leaq	-64(%rbp), %rax
 2381 115d BA6F0000 		movl	$111, %edx
 2381      00
 2382 1162 4889CE   		movq	%rcx, %rsi
 2383 1165 4889C7   		movq	%rax, %rdi
 2384 1168 E8000000 		call	_ZN8UnitTest11TestDetailsC1ERKS0_i@PLT
 2384      00
 111:testI2C.cpp   **** 	iStatus = i2cFinalise(&buf, NULL);
 2385              		.loc 3 111 2 discriminator 15
 2386 116d 488D45C0 		leaq	-64(%rbp), %rax
 2387 1171 488D1500 		leaq	.LC3(%rip), %rdx
 2387      000000
 2388 1178 4889C6   		movq	%rax, %rsi
 2389 117b 4889DF   		movq	%rbx, %rdi
 2390 117e E8000000 		call	_ZN8UnitTest11TestResults13OnTestFailureERKNS_11TestDetailsEPKc@PLT
 2390      00
 2391              	.LEHE98:
 2392              	.LEHB99:
 111:testI2C.cpp   **** 	iStatus = i2cFinalise(&buf, NULL);
 2393              		.loc 3 111 2 discriminator 17
 2394 1183 E8000000 		call	__cxa_end_catch@PLT
 2394      00
 2395              	.LEHE99:
 2396 1188 E938FFFF 		jmp	.L120
 2396      FF
 2397              	.L127:
 2398 118d F30F1EFA 		endbr64
 111:testI2C.cpp   **** 	iStatus = i2cFinalise(&buf, NULL);
 2399              		.loc 3 111 2
 2400 1191 4889C3   		movq	%rax, %rbx
 2401 1194 E8000000 		call	__cxa_end_catch@PLT
 2401      00
 2402 1199 4889D8   		movq	%rbx, %rax
 2403 119c 4889C7   		movq	%rax, %rdi
 2404              	.LEHB100:
 2405 119f E8000000 		call	_Unwind_Resume@PLT
 2405      00
 2406              	.LEHE100:
 2407              	.L128:
 2408 11a4 F30F1EFA 		endbr64
 113:testI2C.cpp   **** 	bufDestroy(&buf);
 2409              		.loc 3 113 2 is_stmt 1
 2410 11a8 4889C7   		movq	%rax, %rdi
 2411 11ab E8000000 		call	__cxa_begin_catch@PLT
 2411      00
 2412              	.LEHB101:
 2413 11b0 E8000000 		call	_ZN8UnitTest11CurrentTest7ResultsEv@PLT
 2413      00
 113:testI2C.cpp   **** 	bufDestroy(&buf);
 2414              		.loc 3 113 2 is_stmt 0 discriminator 3
 2415 11b5 488B18   		movq	(%rax), %rbx
 2416 11b8 E8000000 		call	_ZN8UnitTest11CurrentTest7DetailsEv@PLT
 2416      00
 113:testI2C.cpp   **** 	bufDestroy(&buf);
 2417              		.loc 3 113 2 discriminator 11
 2418 11bd 488B08   		movq	(%rax), %rcx
 2419 11c0 488D45C0 		leaq	-64(%rbp), %rax
 2420 11c4 BA710000 		movl	$113, %edx
 2420      00
 2421 11c9 4889CE   		movq	%rcx, %rsi
 2422 11cc 4889C7   		movq	%rax, %rdi
 2423 11cf E8000000 		call	_ZN8UnitTest11TestDetailsC1ERKS0_i@PLT
 2423      00
 113:testI2C.cpp   **** 	bufDestroy(&buf);
 2424              		.loc 3 113 2 discriminator 15
 2425 11d4 488D45C0 		leaq	-64(%rbp), %rax
 2426 11d8 488D1500 		leaq	.LC11(%rip), %rdx
 2426      000000
 2427 11df 4889C6   		movq	%rax, %rsi
 2428 11e2 4889DF   		movq	%rbx, %rdi
 2429 11e5 E8000000 		call	_ZN8UnitTest11TestResults13OnTestFailureERKNS_11TestDetailsEPKc@PLT
 2429      00
 2430              	.LEHE101:
 2431              	.LEHB102:
 113:testI2C.cpp   **** 	bufDestroy(&buf);
 2432              		.loc 3 113 2 discriminator 17
 2433 11ea E8000000 		call	__cxa_end_catch@PLT
 2433      00
 2434              	.LEHE102:
 2435 11ef E924FFFF 		jmp	.L123
 2435      FF
 2436              	.L129:
 2437 11f4 F30F1EFA 		endbr64
 113:testI2C.cpp   **** 	bufDestroy(&buf);
 2438              		.loc 3 113 2
 2439 11f8 4889C3   		movq	%rax, %rbx
 2440 11fb E8000000 		call	__cxa_end_catch@PLT
 2440      00
 2441 1200 4889D8   		movq	%rbx, %rax
 2442 1203 4889C7   		movq	%rax, %rdi
 2443              	.LEHB103:
 2444 1206 E8000000 		call	_Unwind_Resume@PLT
 2444      00
 2445              	.LEHE103:
 2446              	.L130:
 2447              		.loc 3 115 1 is_stmt 1
 2448 120b E8000000 		call	__stack_chk_fail@PLT
 2448      00
 2449              	.L125:
 2450 1210 488B5DF8 		movq	-8(%rbp), %rbx
 2451 1214 C9       		leave
 2452              		.cfi_def_cfa 7, 8
 2453 1215 C3       		ret
 2454              		.cfi_endproc
 2455              	.LFE1167:
 2456              		.section	.gcc_except_table
 2457              		.align 4
 2458              	.LLSDA1167:
 2459 0204 FF       		.byte	0xff
 2460 0205 9B       		.byte	0x9b
 2461 0206 41       		.uleb128 .LLSDATT1167-.LLSDATTD1167
 2462              	.LLSDATTD1167:
 2463 0207 01       		.byte	0x1
 2464 0208 39       		.uleb128 .LLSDACSE1167-.LLSDACSB1167
 2465              	.LLSDACSB1167:
 2466 0209 36       		.uleb128 .LEHB93-.LFB1167
 2467 020a 05       		.uleb128 .LEHE93-.LEHB93
 2468 020b 00       		.uleb128 0
 2469 020c 00       		.uleb128 0
 2470 020d 3E       		.uleb128 .LEHB94-.LFB1167
 2471 020e 3F       		.uleb128 .LEHE94-.LEHB94
 2472 020f F501     		.uleb128 .L126-.LFB1167
 2473 0211 01       		.uleb128 0x1
 2474 0212 8901     		.uleb128 .LEHB95-.LFB1167
 2475 0214 05       		.uleb128 .LEHE95-.LEHB95
 2476 0215 00       		.uleb128 0
 2477 0216 00       		.uleb128 0
 2478 0217 9101     		.uleb128 .LEHB96-.LFB1167
 2479 0219 3F       		.uleb128 .LEHE96-.LEHB96
 2480 021a DC02     		.uleb128 .L128-.LFB1167
 2481 021c 01       		.uleb128 0x1
 2482 021d D701     		.uleb128 .LEHB97-.LFB1167
 2483 021f 05       		.uleb128 .LEHE97-.LEHB97
 2484 0220 00       		.uleb128 0
 2485 0221 00       		.uleb128 0
 2486 0222 8102     		.uleb128 .LEHB98-.LFB1167
 2487 0224 3A       		.uleb128 .LEHE98-.LEHB98
 2488 0225 C502     		.uleb128 .L127-.LFB1167
 2489 0227 00       		.uleb128 0
 2490 0228 BB02     		.uleb128 .LEHB99-.LFB1167
 2491 022a 05       		.uleb128 .LEHE99-.LEHB99
 2492 022b 00       		.uleb128 0
 2493 022c 00       		.uleb128 0
 2494 022d D702     		.uleb128 .LEHB100-.LFB1167
 2495 022f 05       		.uleb128 .LEHE100-.LEHB100
 2496 0230 00       		.uleb128 0
 2497 0231 00       		.uleb128 0
 2498 0232 E802     		.uleb128 .LEHB101-.LFB1167
 2499 0234 3A       		.uleb128 .LEHE101-.LEHB101
 2500 0235 AC03     		.uleb128 .L129-.LFB1167
 2501 0237 00       		.uleb128 0
 2502 0238 A203     		.uleb128 .LEHB102-.LFB1167
 2503 023a 05       		.uleb128 .LEHE102-.LEHB102
 2504 023b 00       		.uleb128 0
 2505 023c 00       		.uleb128 0
 2506 023d BE03     		.uleb128 .LEHB103-.LFB1167
 2507 023f 05       		.uleb128 .LEHE103-.LEHB103
 2508 0240 00       		.uleb128 0
 2509 0241 00       		.uleb128 0
 2510              	.LLSDACSE1167:
 2511 0242 01       		.byte	0x1
 2512 0243 00       		.byte	0
 2513              		.align 4
 2514 0244 00000000 		.long	0
 2515              	
 2516              	.LLSDATT1167:
 2517              		.text
 2519              		.section	.text._ZN8UnitTest15MemoryOutStreamD1Ev,"axG",@progbits,_ZN8UnitTest15MemoryOutStreamD1Ev
 2520              		.align 2
 2521              		.weak	_ZN8UnitTest15MemoryOutStreamD1Ev
 2523              	_ZN8UnitTest15MemoryOutStreamD1Ev:
 2524              	.LFB1198:
  13:/home/asoreyh/Dropbox/projects/lago/acqua/nexys/src/makestuff/libs/libutpp/MemoryOutStream.h **** {
 2525              		.loc 2 13 7
 2526              		.cfi_startproc
 2527              		.cfi_personality 0x9b,DW.ref.__gxx_personality_v0
 2528              		.cfi_lsda 0x1b,.LLSDA1198
 2529 0000 F30F1EFA 		endbr64
 2530 0004 55       		pushq	%rbp
 2531              		.cfi_def_cfa_offset 16
 2532              		.cfi_offset 6, -16
 2533 0005 4889E5   		movq	%rsp, %rbp
 2534              		.cfi_def_cfa_register 6
 2535 0008 53       		pushq	%rbx
 2536 0009 4883EC18 		subq	$24, %rsp
 2537              		.cfi_offset 3, -24
 2538 000d 48897DE8 		movq	%rdi, -24(%rbp)
 2539              	.LBB11:
  13:/home/asoreyh/Dropbox/projects/lago/acqua/nexys/src/makestuff/libs/libutpp/MemoryOutStream.h **** {
 2540              		.loc 2 13 7
 2541 0011 488D1500 		leaq	24+_ZTVN8UnitTest15MemoryOutStreamE(%rip), %rdx
 2541      000000
 2542 0018 488B45E8 		movq	-24(%rbp), %rax
 2543 001c 488910   		movq	%rdx, (%rax)
 2544 001f 488B45E8 		movq	-24(%rbp), %rax
 2545 0023 48059000 		addq	$144, %rax
 2545      0000
 2546 0029 488D1500 		leaq	64+_ZTVN8UnitTest15MemoryOutStreamE(%rip), %rdx
 2546      000000
 2547 0030 488910   		movq	%rdx, (%rax)
 2548 0033 488B45E8 		movq	-24(%rbp), %rax
 2549 0037 4883C070 		addq	$112, %rax
 2550 003b 4889C7   		movq	%rax, %rdi
 2551              	.LEHB104:
 2552 003e E8000000 		call	_ZNSt7__cxx1112basic_stringIcSt11char_traitsIcESaIcEED1Ev@PLT
 2552      00
 2553              	.LEHE104:
  13:/home/asoreyh/Dropbox/projects/lago/acqua/nexys/src/makestuff/libs/libutpp/MemoryOutStream.h **** {
 2554              		.loc 2 13 7 is_stmt 0 discriminator 2
 2555 0043 488B45E8 		movq	-24(%rbp), %rax
 2556 0047 488D1500 		leaq	8+_ZTTN8UnitTest15MemoryOutStreamE(%rip), %rdx
 2556      000000
 2557 004e 4889D6   		movq	%rdx, %rsi
 2558 0051 4889C7   		movq	%rax, %rdi
 2559              	.LEHB105:
 2560 0054 E8000000 		call	_ZNSt7__cxx1119basic_ostringstreamIcSt11char_traitsIcESaIcEED2Ev@PLT
 2560      00
 2561              	.LEHE105:
  13:/home/asoreyh/Dropbox/projects/lago/acqua/nexys/src/makestuff/libs/libutpp/MemoryOutStream.h **** {
 2562              		.loc 2 13 7 discriminator 4
 2563 0059 488B45E8 		movq	-24(%rbp), %rax
 2564 005d 48059000 		addq	$144, %rax
 2564      0000
 2565 0063 4889C7   		movq	%rax, %rdi
 2566              	.LEHB106:
 2567 0066 E8000000 		call	_ZNSt9basic_iosIcSt11char_traitsIcEED2Ev@PLT
 2567      00
 2568              	.LEHE106:
 2569              	.LBE11:
 2570 006b EB43     		jmp	.L136
 2571              	.L134:
 2572 006d F30F1EFA 		endbr64
 2573              	.LBB12:
  13:/home/asoreyh/Dropbox/projects/lago/acqua/nexys/src/makestuff/libs/libutpp/MemoryOutStream.h **** {
 2574              		.loc 2 13 7
 2575 0071 4889C3   		movq	%rax, %rbx
 2576 0074 488B45E8 		movq	-24(%rbp), %rax
 2577 0078 488D1500 		leaq	8+_ZTTN8UnitTest15MemoryOutStreamE(%rip), %rdx
 2577      000000
 2578 007f 4889D6   		movq	%rdx, %rsi
 2579 0082 4889C7   		movq	%rax, %rdi
 2580 0085 E8000000 		call	_ZNSt7__cxx1119basic_ostringstreamIcSt11char_traitsIcESaIcEED2Ev@PLT
 2580      00
 2581 008a EB07     		jmp	.L133
 2582              	.L135:
 2583 008c F30F1EFA 		endbr64
 2584 0090 4889C3   		movq	%rax, %rbx
 2585              	.L133:
  13:/home/asoreyh/Dropbox/projects/lago/acqua/nexys/src/makestuff/libs/libutpp/MemoryOutStream.h **** {
 2586              		.loc 2 13 7 discriminator 3
 2587 0093 488B45E8 		movq	-24(%rbp), %rax
 2588 0097 48059000 		addq	$144, %rax
 2588      0000
 2589 009d 4889C7   		movq	%rax, %rdi
 2590 00a0 E8000000 		call	_ZNSt9basic_iosIcSt11char_traitsIcEED2Ev@PLT
 2590      00
 2591 00a5 4889D8   		movq	%rbx, %rax
 2592 00a8 4889C7   		movq	%rax, %rdi
 2593              	.LEHB107:
 2594 00ab E8000000 		call	_Unwind_Resume@PLT
 2594      00
 2595              	.LEHE107:
 2596              	.L136:
 2597              	.LBE12:
  13:/home/asoreyh/Dropbox/projects/lago/acqua/nexys/src/makestuff/libs/libutpp/MemoryOutStream.h **** {
 2598              		.loc 2 13 7
 2599 00b0 488B5DF8 		movq	-8(%rbp), %rbx
 2600 00b4 C9       		leave
 2601              		.cfi_def_cfa 7, 8
 2602 00b5 C3       		ret
 2603              		.cfi_endproc
 2604              	.LFE1198:
 2605              		.section	.gcc_except_table
 2606              	.LLSDA1198:
 2607 0248 FF       		.byte	0xff
 2608 0249 FF       		.byte	0xff
 2609 024a 01       		.byte	0x1
 2610 024b 12       		.uleb128 .LLSDACSE1198-.LLSDACSB1198
 2611              	.LLSDACSB1198:
 2612 024c 3E       		.uleb128 .LEHB104-.LFB1198
 2613 024d 05       		.uleb128 .LEHE104-.LEHB104
 2614 024e 6D       		.uleb128 .L134-.LFB1198
 2615 024f 00       		.uleb128 0
 2616 0250 54       		.uleb128 .LEHB105-.LFB1198
 2617 0251 05       		.uleb128 .LEHE105-.LEHB105
 2618 0252 8C01     		.uleb128 .L135-.LFB1198
 2619 0254 00       		.uleb128 0
 2620 0255 66       		.uleb128 .LEHB106-.LFB1198
 2621 0256 05       		.uleb128 .LEHE106-.LEHB106
 2622 0257 00       		.uleb128 0
 2623 0258 00       		.uleb128 0
 2624 0259 AB01     		.uleb128 .LEHB107-.LFB1198
 2625 025b 05       		.uleb128 .LEHE107-.LEHB107
 2626 025c 00       		.uleb128 0
 2627 025d 00       		.uleb128 0
 2628              	.LLSDACSE1198:
 2629              		.section	.text._ZN8UnitTest15MemoryOutStreamD1Ev,"axG",@progbits,_ZN8UnitTest15MemoryOutStreamD1Ev
 2631              		.set	.LTHUNK0,_ZN8UnitTest15MemoryOutStreamD1Ev
 2632              		.weak	_ZTv0_n24_N8UnitTest15MemoryOutStreamD1Ev
 2634              	_ZTv0_n24_N8UnitTest15MemoryOutStreamD1Ev:
 2635              	.LFB1279:
  13:/home/asoreyh/Dropbox/projects/lago/acqua/nexys/src/makestuff/libs/libutpp/MemoryOutStream.h **** {
 2636              		.loc 2 13 7 is_stmt 1
 2637              		.cfi_startproc
 2638 00b6 F30F1EFA 		endbr64
 2639 00ba 4C8B17   		movq	(%rdi), %r10
 2640 00bd 49037AE8 		addq	-24(%r10), %rdi
 2641 00c1 E93AFFFF 		jmp	.LTHUNK0
 2641      FF
 2642              		.cfi_endproc
 2643              	.LFE1279:
 2645              		.section	.text._ZN8UnitTest15MemoryOutStreamD0Ev,"axG",@progbits,_ZN8UnitTest15MemoryOutStreamD0Ev
 2646              		.align 2
 2647              		.weak	_ZN8UnitTest15MemoryOutStreamD0Ev
 2649              	_ZN8UnitTest15MemoryOutStreamD0Ev:
 2650              	.LFB1199:
  13:/home/asoreyh/Dropbox/projects/lago/acqua/nexys/src/makestuff/libs/libutpp/MemoryOutStream.h **** {
 2651              		.loc 2 13 7
 2652              		.cfi_startproc
 2653              		.cfi_personality 0x9b,DW.ref.__gxx_personality_v0
 2654              		.cfi_lsda 0x1b,.LLSDA1199
 2655 0000 F30F1EFA 		endbr64
 2656 0004 55       		pushq	%rbp
 2657              		.cfi_def_cfa_offset 16
 2658              		.cfi_offset 6, -16
 2659 0005 4889E5   		movq	%rsp, %rbp
 2660              		.cfi_def_cfa_register 6
 2661 0008 53       		pushq	%rbx
 2662 0009 4883EC18 		subq	$24, %rsp
 2663              		.cfi_offset 3, -24
 2664 000d 48897DE8 		movq	%rdi, -24(%rbp)
  13:/home/asoreyh/Dropbox/projects/lago/acqua/nexys/src/makestuff/libs/libutpp/MemoryOutStream.h **** {
 2665              		.loc 2 13 7
 2666 0011 488B45E8 		movq	-24(%rbp), %rax
 2667 0015 4889C7   		movq	%rax, %rdi
 2668              	.LEHB108:
 2669 0018 E8000000 		call	_ZN8UnitTest15MemoryOutStreamD1Ev
 2669      00
 2670              	.LEHE108:
  13:/home/asoreyh/Dropbox/projects/lago/acqua/nexys/src/makestuff/libs/libutpp/MemoryOutStream.h **** {
 2671              		.loc 2 13 7 is_stmt 0 discriminator 2
 2672 001d 488B45E8 		movq	-24(%rbp), %rax
 2673 0021 4889C7   		movq	%rax, %rdi
 2674 0024 E8000000 		call	_ZdlPv@PLT
 2674      00
 2675 0029 EB1E     		jmp	.L140
 2676              	.L139:
 2677 002b F30F1EFA 		endbr64
  13:/home/asoreyh/Dropbox/projects/lago/acqua/nexys/src/makestuff/libs/libutpp/MemoryOutStream.h **** {
 2678              		.loc 2 13 7
 2679 002f 4889C3   		movq	%rax, %rbx
 2680 0032 488B45E8 		movq	-24(%rbp), %rax
 2681 0036 4889C7   		movq	%rax, %rdi
 2682 0039 E8000000 		call	_ZdlPv@PLT
 2682      00
 2683 003e 4889D8   		movq	%rbx, %rax
 2684 0041 4889C7   		movq	%rax, %rdi
 2685              	.LEHB109:
 2686 0044 E8000000 		call	_Unwind_Resume@PLT
 2686      00
 2687              	.LEHE109:
 2688              	.L140:
 2689 0049 488B5DF8 		movq	-8(%rbp), %rbx
 2690 004d C9       		leave
 2691              		.cfi_def_cfa 7, 8
 2692 004e C3       		ret
 2693              		.cfi_endproc
 2694              	.LFE1199:
 2695              		.section	.gcc_except_table
 2696              	.LLSDA1199:
 2697 025e FF       		.byte	0xff
 2698 025f FF       		.byte	0xff
 2699 0260 01       		.byte	0x1
 2700 0261 08       		.uleb128 .LLSDACSE1199-.LLSDACSB1199
 2701              	.LLSDACSB1199:
 2702 0262 18       		.uleb128 .LEHB108-.LFB1199
 2703 0263 05       		.uleb128 .LEHE108-.LEHB108
 2704 0264 2B       		.uleb128 .L139-.LFB1199
 2705 0265 00       		.uleb128 0
 2706 0266 44       		.uleb128 .LEHB109-.LFB1199
 2707 0267 05       		.uleb128 .LEHE109-.LEHB109
 2708 0268 00       		.uleb128 0
 2709 0269 00       		.uleb128 0
 2710              	.LLSDACSE1199:
 2711              		.section	.text._ZN8UnitTest15MemoryOutStreamD0Ev,"axG",@progbits,_ZN8UnitTest15MemoryOutStreamD0Ev
 2713              		.set	.LTHUNK1,_ZN8UnitTest15MemoryOutStreamD0Ev
 2714              		.weak	_ZTv0_n24_N8UnitTest15MemoryOutStreamD0Ev
 2716              	_ZTv0_n24_N8UnitTest15MemoryOutStreamD0Ev:
 2717              	.LFB1280:
  13:/home/asoreyh/Dropbox/projects/lago/acqua/nexys/src/makestuff/libs/libutpp/MemoryOutStream.h **** {
 2718              		.loc 2 13 7 is_stmt 1
 2719              		.cfi_startproc
 2720 004f F30F1EFA 		endbr64
 2721 0053 4C8B17   		movq	(%rdi), %r10
 2722 0056 49037AE8 		addq	-24(%r10), %rdi
 2723 005a EBA4     		jmp	.LTHUNK1
 2724              		.cfi_endproc
 2725              	.LFE1280:
 2727              		.section	.rodata
 2728              	.LC13:
 2729 0238 45787065 		.string	"Expected "
 2729      63746564 
 2729      2000
 2730              	.LC14:
 2731 0242 20627574 		.string	" but was "
 2731      20776173 
 2731      2000
 2732              		.section	.text._ZN8UnitTest10CheckEqualI12BufferStatusS1_EEvRNS_11TestResultsERKT_RKT0_RKNS_11Test
 2733              		.weak	_ZN8UnitTest10CheckEqualI12BufferStatusS1_EEvRNS_11TestResultsERKT_RKT0_RKNS_11TestDetailsE
 2735              	_ZN8UnitTest10CheckEqualI12BufferStatusS1_EEvRNS_11TestResultsERKT_RKT0_RKNS_11TestDetailsE:
 2736              	.LFB1195:
 2737              		.file 4 "/home/asoreyh/Dropbox/projects/lago/acqua/nexys/src/makestuff/libs/libutpp/Checks.h"
   1:/home/asoreyh/Dropbox/projects/lago/acqua/nexys/src/makestuff/libs/libutpp/Checks.h **** #ifndef UNITTEST_CHECKS_H
   2:/home/asoreyh/Dropbox/projects/lago/acqua/nexys/src/makestuff/libs/libutpp/Checks.h **** #define UNITTEST_CHECKS_H
   3:/home/asoreyh/Dropbox/projects/lago/acqua/nexys/src/makestuff/libs/libutpp/Checks.h **** 
   4:/home/asoreyh/Dropbox/projects/lago/acqua/nexys/src/makestuff/libs/libutpp/Checks.h **** #include "Config.h"
   5:/home/asoreyh/Dropbox/projects/lago/acqua/nexys/src/makestuff/libs/libutpp/Checks.h **** #include "TestResults.h"
   6:/home/asoreyh/Dropbox/projects/lago/acqua/nexys/src/makestuff/libs/libutpp/Checks.h **** #include "MemoryOutStream.h"
   7:/home/asoreyh/Dropbox/projects/lago/acqua/nexys/src/makestuff/libs/libutpp/Checks.h **** 
   8:/home/asoreyh/Dropbox/projects/lago/acqua/nexys/src/makestuff/libs/libutpp/Checks.h **** namespace UnitTest {
   9:/home/asoreyh/Dropbox/projects/lago/acqua/nexys/src/makestuff/libs/libutpp/Checks.h **** 
  10:/home/asoreyh/Dropbox/projects/lago/acqua/nexys/src/makestuff/libs/libutpp/Checks.h **** 
  11:/home/asoreyh/Dropbox/projects/lago/acqua/nexys/src/makestuff/libs/libutpp/Checks.h **** template< typename Value >
  12:/home/asoreyh/Dropbox/projects/lago/acqua/nexys/src/makestuff/libs/libutpp/Checks.h **** bool Check(Value const value)
  13:/home/asoreyh/Dropbox/projects/lago/acqua/nexys/src/makestuff/libs/libutpp/Checks.h **** {
  14:/home/asoreyh/Dropbox/projects/lago/acqua/nexys/src/makestuff/libs/libutpp/Checks.h ****     return !!value; // doing double negative to avoid silly VS warnings
  15:/home/asoreyh/Dropbox/projects/lago/acqua/nexys/src/makestuff/libs/libutpp/Checks.h **** }
  16:/home/asoreyh/Dropbox/projects/lago/acqua/nexys/src/makestuff/libs/libutpp/Checks.h **** 
  17:/home/asoreyh/Dropbox/projects/lago/acqua/nexys/src/makestuff/libs/libutpp/Checks.h **** 
  18:/home/asoreyh/Dropbox/projects/lago/acqua/nexys/src/makestuff/libs/libutpp/Checks.h **** template< typename Expected, typename Actual >
  19:/home/asoreyh/Dropbox/projects/lago/acqua/nexys/src/makestuff/libs/libutpp/Checks.h **** void CheckEqual(TestResults& results, Expected const& expected, Actual const& actual, TestDetails c
 2738              		.loc 4 19 6
 2739              		.cfi_startproc
 2740              		.cfi_personality 0x9b,DW.ref.__gxx_personality_v0
 2741              		.cfi_lsda 0x1b,.LLSDA1195
 2742 0000 F30F1EFA 		endbr64
 2743 0004 55       		pushq	%rbp
 2744              		.cfi_def_cfa_offset 16
 2745              		.cfi_offset 6, -16
 2746 0005 4889E5   		movq	%rsp, %rbp
 2747              		.cfi_def_cfa_register 6
 2748 0008 53       		pushq	%rbx
 2749 0009 4881ECC8 		subq	$456, %rsp
 2749      010000
 2750              		.cfi_offset 3, -24
 2751 0010 4889BD48 		movq	%rdi, -440(%rbp)
 2751      FEFFFF
 2752 0017 4889B540 		movq	%rsi, -448(%rbp)
 2752      FEFFFF
 2753 001e 48899538 		movq	%rdx, -456(%rbp)
 2753      FEFFFF
 2754 0025 48898D30 		movq	%rcx, -464(%rbp)
 2754      FEFFFF
 2755              		.loc 4 19 6
 2756 002c 64488B04 		movq	%fs:40, %rax
 2756      25280000 
 2756      00
 2757 0035 488945E8 		movq	%rax, -24(%rbp)
 2758 0039 31C0     		xorl	%eax, %eax
 2759              	.LBB13:
  20:/home/asoreyh/Dropbox/projects/lago/acqua/nexys/src/makestuff/libs/libutpp/Checks.h **** {
  21:/home/asoreyh/Dropbox/projects/lago/acqua/nexys/src/makestuff/libs/libutpp/Checks.h ****     if (!(expected == actual))
 2760              		.loc 4 21 20
 2761 003b 488B8540 		movq	-448(%rbp), %rax
 2761      FEFFFF
 2762 0042 8B10     		movl	(%rax), %edx
 2763 0044 488B8538 		movq	-456(%rbp), %rax
 2763      FEFFFF
 2764 004b 8B00     		movl	(%rax), %eax
 2765              		.loc 4 21 5
 2766 004d 39C2     		cmpl	%eax, %edx
 2767 004f 0F84C600 		je	.L146
 2767      0000
 2768              	.LBB14:
  22:/home/asoreyh/Dropbox/projects/lago/acqua/nexys/src/makestuff/libs/libutpp/Checks.h ****     {
  23:/home/asoreyh/Dropbox/projects/lago/acqua/nexys/src/makestuff/libs/libutpp/Checks.h ****         UnitTest::MemoryOutStream stream;
 2769              		.loc 4 23 35
 2770 0055 488D8550 		leaq	-432(%rbp), %rax
 2770      FEFFFF
 2771 005c 4889C7   		movq	%rax, %rdi
 2772              	.LEHB110:
 2773 005f E8000000 		call	_ZN8UnitTest15MemoryOutStreamC1Ev
 2773      00
 2774              	.LEHE110:
  24:/home/asoreyh/Dropbox/projects/lago/acqua/nexys/src/makestuff/libs/libutpp/Checks.h ****         stream << "Expected " << expected << " but was " << actual;
 2775              		.loc 4 24 16
 2776 0064 488D8550 		leaq	-432(%rbp), %rax
 2776      FEFFFF
 2777 006b 488D1500 		leaq	.LC13(%rip), %rdx
 2777      000000
 2778 0072 4889D6   		movq	%rdx, %rsi
 2779 0075 4889C7   		movq	%rax, %rdi
 2780              	.LEHB111:
 2781 0078 E8000000 		call	_ZStlsISt11char_traitsIcEERSt13basic_ostreamIcT_ES5_PKc@PLT
 2781      00
 2782 007d 4889C2   		movq	%rax, %rdx
 2783              		.loc 4 24 43
 2784 0080 488B8540 		movq	-448(%rbp), %rax
 2784      FEFFFF
 2785 0087 8B00     		movl	(%rax), %eax
 2786 0089 89C6     		movl	%eax, %esi
 2787 008b 4889D7   		movq	%rdx, %rdi
 2788 008e E8000000 		call	_ZNSolsEi@PLT
 2788      00
 2789              		.loc 4 24 43 is_stmt 0 discriminator 1
 2790 0093 4889C2   		movq	%rax, %rdx
 2791 0096 488D0500 		leaq	.LC14(%rip), %rax
 2791      000000
 2792 009d 4889C6   		movq	%rax, %rsi
 2793 00a0 4889D7   		movq	%rdx, %rdi
 2794 00a3 E8000000 		call	_ZStlsISt11char_traitsIcEERSt13basic_ostreamIcT_ES5_PKc@PLT
 2794      00
 2795              		.loc 4 24 43 discriminator 2
 2796 00a8 4889C2   		movq	%rax, %rdx
 2797              		.loc 4 24 58 is_stmt 1 discriminator 2
 2798 00ab 488B8538 		movq	-456(%rbp), %rax
 2798      FEFFFF
 2799 00b2 8B00     		movl	(%rax), %eax
 2800 00b4 89C6     		movl	%eax, %esi
 2801 00b6 4889D7   		movq	%rdx, %rdi
 2802 00b9 E8000000 		call	_ZNSolsEi@PLT
 2802      00
  25:/home/asoreyh/Dropbox/projects/lago/acqua/nexys/src/makestuff/libs/libutpp/Checks.h **** 
  26:/home/asoreyh/Dropbox/projects/lago/acqua/nexys/src/makestuff/libs/libutpp/Checks.h ****         results.OnTestFailure(details, stream.GetText());
 2803              		.loc 4 26 30
 2804 00be 488D8550 		leaq	-432(%rbp), %rax
 2804      FEFFFF
 2805 00c5 4889C7   		movq	%rax, %rdi
 2806 00c8 E8000000 		call	_ZNK8UnitTest15MemoryOutStream7GetTextEv@PLT
 2806      00
 2807 00cd 4889C2   		movq	%rax, %rdx
 2808 00d0 488B8D30 		movq	-464(%rbp), %rcx
 2808      FEFFFF
 2809 00d7 488B8548 		movq	-440(%rbp), %rax
 2809      FEFFFF
 2810 00de 4889CE   		movq	%rcx, %rsi
 2811 00e1 4889C7   		movq	%rax, %rdi
 2812 00e4 E8000000 		call	_ZN8UnitTest11TestResults13OnTestFailureERKNS_11TestDetailsEPKc@PLT
 2812      00
 2813              	.LEHE111:
  27:/home/asoreyh/Dropbox/projects/lago/acqua/nexys/src/makestuff/libs/libutpp/Checks.h ****     }
 2814              		.loc 4 27 5
 2815 00e9 488D8550 		leaq	-432(%rbp), %rax
 2815      FEFFFF
 2816 00f0 4889C7   		movq	%rax, %rdi
 2817              	.LEHB112:
 2818 00f3 E8000000 		call	_ZN8UnitTest15MemoryOutStreamD1Ev
 2818      00
 2819              	.LEHE112:
 2820              	.LBE14:
 2821              	.LBE13:
  28:/home/asoreyh/Dropbox/projects/lago/acqua/nexys/src/makestuff/libs/libutpp/Checks.h **** }
 2822              		.loc 4 28 1
 2823 00f8 EB21     		jmp	.L146
 2824              	.L145:
 2825 00fa F30F1EFA 		endbr64
 2826              	.LBB16:
 2827              	.LBB15:
  27:/home/asoreyh/Dropbox/projects/lago/acqua/nexys/src/makestuff/libs/libutpp/Checks.h ****     }
 2828              		.loc 4 27 5
 2829 00fe 4889C3   		movq	%rax, %rbx
 2830 0101 488D8550 		leaq	-432(%rbp), %rax
 2830      FEFFFF
 2831 0108 4889C7   		movq	%rax, %rdi
 2832 010b E8000000 		call	_ZN8UnitTest15MemoryOutStreamD1Ev
 2832      00
 2833 0110 4889D8   		movq	%rbx, %rax
 2834 0113 4889C7   		movq	%rax, %rdi
 2835              	.LEHB113:
 2836 0116 E8000000 		call	_Unwind_Resume@PLT
 2836      00
 2837              	.LEHE113:
 2838              	.L146:
 2839              	.LBE15:
 2840              	.LBE16:
 2841              		.loc 4 28 1
 2842 011b 90       		nop
 2843 011c 488B45E8 		movq	-24(%rbp), %rax
 2844 0120 64482B04 		subq	%fs:40, %rax
 2844      25280000 
 2844      00
 2845 0129 7405     		je	.L144
 2846 012b E8000000 		call	__stack_chk_fail@PLT
 2846      00
 2847              	.L144:
 2848 0130 488B5DF8 		movq	-8(%rbp), %rbx
 2849 0134 C9       		leave
 2850              		.cfi_def_cfa 7, 8
 2851 0135 C3       		ret
 2852              		.cfi_endproc
 2853              	.LFE1195:
 2854              		.section	.gcc_except_table
 2855              	.LLSDA1195:
 2856 026a FF       		.byte	0xff
 2857 026b FF       		.byte	0xff
 2858 026c 01       		.byte	0x1
 2859 026d 13       		.uleb128 .LLSDACSE1195-.LLSDACSB1195
 2860              	.LLSDACSB1195:
 2861 026e 5F       		.uleb128 .LEHB110-.LFB1195
 2862 026f 05       		.uleb128 .LEHE110-.LEHB110
 2863 0270 00       		.uleb128 0
 2864 0271 00       		.uleb128 0
 2865 0272 78       		.uleb128 .LEHB111-.LFB1195
 2866 0273 71       		.uleb128 .LEHE111-.LEHB111
 2867 0274 FA01     		.uleb128 .L145-.LFB1195
 2868 0276 00       		.uleb128 0
 2869 0277 F301     		.uleb128 .LEHB112-.LFB1195
 2870 0279 05       		.uleb128 .LEHE112-.LEHB112
 2871 027a 00       		.uleb128 0
 2872 027b 00       		.uleb128 0
 2873 027c 9602     		.uleb128 .LEHB113-.LFB1195
 2874 027e 05       		.uleb128 .LEHE113-.LEHB113
 2875 027f 00       		.uleb128 0
 2876 0280 00       		.uleb128 0
 2877              	.LLSDACSE1195:
 2878              		.section	.text._ZN8UnitTest10CheckEqualI12BufferStatusS1_EEvRNS_11TestResultsERKT_RKT0_RKNS_11Test
 2880              		.section	.text._ZN8UnitTest10CheckEqualI9I2CStatusS1_EEvRNS_11TestResultsERKT_RKT0_RKNS_11TestDeta
 2881              		.weak	_ZN8UnitTest10CheckEqualI9I2CStatusS1_EEvRNS_11TestResultsERKT_RKT0_RKNS_11TestDetailsE
 2883              	_ZN8UnitTest10CheckEqualI9I2CStatusS1_EEvRNS_11TestResultsERKT_RKT0_RKNS_11TestDetailsE:
 2884              	.LFB1200:
  19:/home/asoreyh/Dropbox/projects/lago/acqua/nexys/src/makestuff/libs/libutpp/Checks.h **** {
 2885              		.loc 4 19 6
 2886              		.cfi_startproc
 2887              		.cfi_personality 0x9b,DW.ref.__gxx_personality_v0
 2888              		.cfi_lsda 0x1b,.LLSDA1200
 2889 0000 F30F1EFA 		endbr64
 2890 0004 55       		pushq	%rbp
 2891              		.cfi_def_cfa_offset 16
 2892              		.cfi_offset 6, -16
 2893 0005 4889E5   		movq	%rsp, %rbp
 2894              		.cfi_def_cfa_register 6
 2895 0008 53       		pushq	%rbx
 2896 0009 4881ECC8 		subq	$456, %rsp
 2896      010000
 2897              		.cfi_offset 3, -24
 2898 0010 4889BD48 		movq	%rdi, -440(%rbp)
 2898      FEFFFF
 2899 0017 4889B540 		movq	%rsi, -448(%rbp)
 2899      FEFFFF
 2900 001e 48899538 		movq	%rdx, -456(%rbp)
 2900      FEFFFF
 2901 0025 48898D30 		movq	%rcx, -464(%rbp)
 2901      FEFFFF
  19:/home/asoreyh/Dropbox/projects/lago/acqua/nexys/src/makestuff/libs/libutpp/Checks.h **** {
 2902              		.loc 4 19 6
 2903 002c 64488B04 		movq	%fs:40, %rax
 2903      25280000 
 2903      00
 2904 0035 488945E8 		movq	%rax, -24(%rbp)
 2905 0039 31C0     		xorl	%eax, %eax
 2906              	.LBB17:
  21:/home/asoreyh/Dropbox/projects/lago/acqua/nexys/src/makestuff/libs/libutpp/Checks.h ****     {
 2907              		.loc 4 21 20
 2908 003b 488B8540 		movq	-448(%rbp), %rax
 2908      FEFFFF
 2909 0042 8B10     		movl	(%rax), %edx
 2910 0044 488B8538 		movq	-456(%rbp), %rax
 2910      FEFFFF
 2911 004b 8B00     		movl	(%rax), %eax
  21:/home/asoreyh/Dropbox/projects/lago/acqua/nexys/src/makestuff/libs/libutpp/Checks.h ****     {
 2912              		.loc 4 21 5
 2913 004d 39C2     		cmpl	%eax, %edx
 2914 004f 0F84C600 		je	.L152
 2914      0000
 2915              	.LBB18:
  23:/home/asoreyh/Dropbox/projects/lago/acqua/nexys/src/makestuff/libs/libutpp/Checks.h ****         stream << "Expected " << expected << " but was " << actual;
 2916              		.loc 4 23 35
 2917 0055 488D8550 		leaq	-432(%rbp), %rax
 2917      FEFFFF
 2918 005c 4889C7   		movq	%rax, %rdi
 2919              	.LEHB114:
 2920 005f E8000000 		call	_ZN8UnitTest15MemoryOutStreamC1Ev
 2920      00
 2921              	.LEHE114:
  24:/home/asoreyh/Dropbox/projects/lago/acqua/nexys/src/makestuff/libs/libutpp/Checks.h **** 
 2922              		.loc 4 24 16
 2923 0064 488D8550 		leaq	-432(%rbp), %rax
 2923      FEFFFF
 2924 006b 488D1500 		leaq	.LC13(%rip), %rdx
 2924      000000
 2925 0072 4889D6   		movq	%rdx, %rsi
 2926 0075 4889C7   		movq	%rax, %rdi
 2927              	.LEHB115:
 2928 0078 E8000000 		call	_ZStlsISt11char_traitsIcEERSt13basic_ostreamIcT_ES5_PKc@PLT
 2928      00
 2929 007d 4889C2   		movq	%rax, %rdx
  24:/home/asoreyh/Dropbox/projects/lago/acqua/nexys/src/makestuff/libs/libutpp/Checks.h **** 
 2930              		.loc 4 24 43
 2931 0080 488B8540 		movq	-448(%rbp), %rax
 2931      FEFFFF
 2932 0087 8B00     		movl	(%rax), %eax
 2933 0089 89C6     		movl	%eax, %esi
 2934 008b 4889D7   		movq	%rdx, %rdi
 2935 008e E8000000 		call	_ZNSolsEi@PLT
 2935      00
  24:/home/asoreyh/Dropbox/projects/lago/acqua/nexys/src/makestuff/libs/libutpp/Checks.h **** 
 2936              		.loc 4 24 43 is_stmt 0 discriminator 1
 2937 0093 4889C2   		movq	%rax, %rdx
 2938 0096 488D0500 		leaq	.LC14(%rip), %rax
 2938      000000
 2939 009d 4889C6   		movq	%rax, %rsi
 2940 00a0 4889D7   		movq	%rdx, %rdi
 2941 00a3 E8000000 		call	_ZStlsISt11char_traitsIcEERSt13basic_ostreamIcT_ES5_PKc@PLT
 2941      00
  24:/home/asoreyh/Dropbox/projects/lago/acqua/nexys/src/makestuff/libs/libutpp/Checks.h **** 
 2942              		.loc 4 24 43 discriminator 2
 2943 00a8 4889C2   		movq	%rax, %rdx
  24:/home/asoreyh/Dropbox/projects/lago/acqua/nexys/src/makestuff/libs/libutpp/Checks.h **** 
 2944              		.loc 4 24 58 is_stmt 1 discriminator 2
 2945 00ab 488B8538 		movq	-456(%rbp), %rax
 2945      FEFFFF
 2946 00b2 8B00     		movl	(%rax), %eax
 2947 00b4 89C6     		movl	%eax, %esi
 2948 00b6 4889D7   		movq	%rdx, %rdi
 2949 00b9 E8000000 		call	_ZNSolsEi@PLT
 2949      00
  26:/home/asoreyh/Dropbox/projects/lago/acqua/nexys/src/makestuff/libs/libutpp/Checks.h ****     }
 2950              		.loc 4 26 30
 2951 00be 488D8550 		leaq	-432(%rbp), %rax
 2951      FEFFFF
 2952 00c5 4889C7   		movq	%rax, %rdi
 2953 00c8 E8000000 		call	_ZNK8UnitTest15MemoryOutStream7GetTextEv@PLT
 2953      00
 2954 00cd 4889C2   		movq	%rax, %rdx
 2955 00d0 488B8D30 		movq	-464(%rbp), %rcx
 2955      FEFFFF
 2956 00d7 488B8548 		movq	-440(%rbp), %rax
 2956      FEFFFF
 2957 00de 4889CE   		movq	%rcx, %rsi
 2958 00e1 4889C7   		movq	%rax, %rdi
 2959 00e4 E8000000 		call	_ZN8UnitTest11TestResults13OnTestFailureERKNS_11TestDetailsEPKc@PLT
 2959      00
 2960              	.LEHE115:
  27:/home/asoreyh/Dropbox/projects/lago/acqua/nexys/src/makestuff/libs/libutpp/Checks.h **** }
 2961              		.loc 4 27 5
 2962 00e9 488D8550 		leaq	-432(%rbp), %rax
 2962      FEFFFF
 2963 00f0 4889C7   		movq	%rax, %rdi
 2964              	.LEHB116:
 2965 00f3 E8000000 		call	_ZN8UnitTest15MemoryOutStreamD1Ev
 2965      00
 2966              	.LEHE116:
 2967              	.LBE18:
 2968              	.LBE17:
 2969              		.loc 4 28 1
 2970 00f8 EB21     		jmp	.L152
 2971              	.L151:
 2972 00fa F30F1EFA 		endbr64
 2973              	.LBB20:
 2974              	.LBB19:
  27:/home/asoreyh/Dropbox/projects/lago/acqua/nexys/src/makestuff/libs/libutpp/Checks.h **** }
 2975              		.loc 4 27 5
 2976 00fe 4889C3   		movq	%rax, %rbx
 2977 0101 488D8550 		leaq	-432(%rbp), %rax
 2977      FEFFFF
 2978 0108 4889C7   		movq	%rax, %rdi
 2979 010b E8000000 		call	_ZN8UnitTest15MemoryOutStreamD1Ev
 2979      00
 2980 0110 4889D8   		movq	%rbx, %rax
 2981 0113 4889C7   		movq	%rax, %rdi
 2982              	.LEHB117:
 2983 0116 E8000000 		call	_Unwind_Resume@PLT
 2983      00
 2984              	.LEHE117:
 2985              	.L152:
 2986              	.LBE19:
 2987              	.LBE20:
 2988              		.loc 4 28 1
 2989 011b 90       		nop
 2990 011c 488B45E8 		movq	-24(%rbp), %rax
 2991 0120 64482B04 		subq	%fs:40, %rax
 2991      25280000 
 2991      00
 2992 0129 7405     		je	.L150
 2993 012b E8000000 		call	__stack_chk_fail@PLT
 2993      00
 2994              	.L150:
 2995 0130 488B5DF8 		movq	-8(%rbp), %rbx
 2996 0134 C9       		leave
 2997              		.cfi_def_cfa 7, 8
 2998 0135 C3       		ret
 2999              		.cfi_endproc
 3000              	.LFE1200:
 3001              		.section	.gcc_except_table
 3002              	.LLSDA1200:
 3003 0281 FF       		.byte	0xff
 3004 0282 FF       		.byte	0xff
 3005 0283 01       		.byte	0x1
 3006 0284 13       		.uleb128 .LLSDACSE1200-.LLSDACSB1200
 3007              	.LLSDACSB1200:
 3008 0285 5F       		.uleb128 .LEHB114-.LFB1200
 3009 0286 05       		.uleb128 .LEHE114-.LEHB114
 3010 0287 00       		.uleb128 0
 3011 0288 00       		.uleb128 0
 3012 0289 78       		.uleb128 .LEHB115-.LFB1200
 3013 028a 71       		.uleb128 .LEHE115-.LEHB115
 3014 028b FA01     		.uleb128 .L151-.LFB1200
 3015 028d 00       		.uleb128 0
 3016 028e F301     		.uleb128 .LEHB116-.LFB1200
 3017 0290 05       		.uleb128 .LEHE116-.LEHB116
 3018 0291 00       		.uleb128 0
 3019 0292 00       		.uleb128 0
 3020 0293 9602     		.uleb128 .LEHB117-.LFB1200
 3021 0295 05       		.uleb128 .LEHE117-.LEHB117
 3022 0296 00       		.uleb128 0
 3023 0297 00       		.uleb128 0
 3024              	.LLSDACSE1200:
 3025              		.section	.text._ZN8UnitTest10CheckEqualI9I2CStatusS1_EEvRNS_11TestResultsERKT_RKT0_RKNS_11TestDeta
 3027              		.section	.text._ZN8UnitTest10CheckEqualImjEEvRNS_11TestResultsERKT_RKT0_RKNS_11TestDetailsE,"axG",
 3028              		.weak	_ZN8UnitTest10CheckEqualImjEEvRNS_11TestResultsERKT_RKT0_RKNS_11TestDetailsE
 3030              	_ZN8UnitTest10CheckEqualImjEEvRNS_11TestResultsERKT_RKT0_RKNS_11TestDetailsE:
 3031              	.LFB1201:
  19:/home/asoreyh/Dropbox/projects/lago/acqua/nexys/src/makestuff/libs/libutpp/Checks.h **** {
 3032              		.loc 4 19 6
 3033              		.cfi_startproc
 3034              		.cfi_personality 0x9b,DW.ref.__gxx_personality_v0
 3035              		.cfi_lsda 0x1b,.LLSDA1201
 3036 0000 F30F1EFA 		endbr64
 3037 0004 55       		pushq	%rbp
 3038              		.cfi_def_cfa_offset 16
 3039              		.cfi_offset 6, -16
 3040 0005 4889E5   		movq	%rsp, %rbp
 3041              		.cfi_def_cfa_register 6
 3042 0008 53       		pushq	%rbx
 3043 0009 4881ECC8 		subq	$456, %rsp
 3043      010000
 3044              		.cfi_offset 3, -24
 3045 0010 4889BD48 		movq	%rdi, -440(%rbp)
 3045      FEFFFF
 3046 0017 4889B540 		movq	%rsi, -448(%rbp)
 3046      FEFFFF
 3047 001e 48899538 		movq	%rdx, -456(%rbp)
 3047      FEFFFF
 3048 0025 48898D30 		movq	%rcx, -464(%rbp)
 3048      FEFFFF
  19:/home/asoreyh/Dropbox/projects/lago/acqua/nexys/src/makestuff/libs/libutpp/Checks.h **** {
 3049              		.loc 4 19 6
 3050 002c 64488B04 		movq	%fs:40, %rax
 3050      25280000 
 3050      00
 3051 0035 488945E8 		movq	%rax, -24(%rbp)
 3052 0039 31C0     		xorl	%eax, %eax
 3053              	.LBB21:
  21:/home/asoreyh/Dropbox/projects/lago/acqua/nexys/src/makestuff/libs/libutpp/Checks.h ****     {
 3054              		.loc 4 21 20
 3055 003b 488B8540 		movq	-448(%rbp), %rax
 3055      FEFFFF
 3056 0042 488B10   		movq	(%rax), %rdx
 3057 0045 488B8538 		movq	-456(%rbp), %rax
 3057      FEFFFF
 3058 004c 8B00     		movl	(%rax), %eax
 3059 004e 89C0     		movl	%eax, %eax
  21:/home/asoreyh/Dropbox/projects/lago/acqua/nexys/src/makestuff/libs/libutpp/Checks.h ****     {
 3060              		.loc 4 21 5
 3061 0050 4839C2   		cmpq	%rax, %rdx
 3062 0053 0F84C800 		je	.L158
 3062      0000
 3063              	.LBB22:
  23:/home/asoreyh/Dropbox/projects/lago/acqua/nexys/src/makestuff/libs/libutpp/Checks.h ****         stream << "Expected " << expected << " but was " << actual;
 3064              		.loc 4 23 35
 3065 0059 488D8550 		leaq	-432(%rbp), %rax
 3065      FEFFFF
 3066 0060 4889C7   		movq	%rax, %rdi
 3067              	.LEHB118:
 3068 0063 E8000000 		call	_ZN8UnitTest15MemoryOutStreamC1Ev
 3068      00
 3069              	.LEHE118:
  24:/home/asoreyh/Dropbox/projects/lago/acqua/nexys/src/makestuff/libs/libutpp/Checks.h **** 
 3070              		.loc 4 24 16
 3071 0068 488D8550 		leaq	-432(%rbp), %rax
 3071      FEFFFF
 3072 006f 488D1500 		leaq	.LC13(%rip), %rdx
 3072      000000
 3073 0076 4889D6   		movq	%rdx, %rsi
 3074 0079 4889C7   		movq	%rax, %rdi
 3075              	.LEHB119:
 3076 007c E8000000 		call	_ZStlsISt11char_traitsIcEERSt13basic_ostreamIcT_ES5_PKc@PLT
 3076      00
 3077 0081 4889C2   		movq	%rax, %rdx
  24:/home/asoreyh/Dropbox/projects/lago/acqua/nexys/src/makestuff/libs/libutpp/Checks.h **** 
 3078              		.loc 4 24 31
 3079 0084 488B8540 		movq	-448(%rbp), %rax
 3079      FEFFFF
 3080 008b 488B00   		movq	(%rax), %rax
 3081 008e 4889C6   		movq	%rax, %rsi
 3082 0091 4889D7   		movq	%rdx, %rdi
 3083 0094 E8000000 		call	_ZNSolsEm@PLT
 3083      00
  24:/home/asoreyh/Dropbox/projects/lago/acqua/nexys/src/makestuff/libs/libutpp/Checks.h **** 
 3084              		.loc 4 24 31 is_stmt 0 discriminator 1
 3085 0099 4889C2   		movq	%rax, %rdx
  24:/home/asoreyh/Dropbox/projects/lago/acqua/nexys/src/makestuff/libs/libutpp/Checks.h **** 
 3086              		.loc 4 24 43 is_stmt 1 discriminator 1
 3087 009c 488D0500 		leaq	.LC14(%rip), %rax
 3087      000000
 3088 00a3 4889C6   		movq	%rax, %rsi
 3089 00a6 4889D7   		movq	%rdx, %rdi
 3090 00a9 E8000000 		call	_ZStlsISt11char_traitsIcEERSt13basic_ostreamIcT_ES5_PKc@PLT
 3090      00
  24:/home/asoreyh/Dropbox/projects/lago/acqua/nexys/src/makestuff/libs/libutpp/Checks.h **** 
 3091              		.loc 4 24 43 is_stmt 0 discriminator 2
 3092 00ae 4889C2   		movq	%rax, %rdx
  24:/home/asoreyh/Dropbox/projects/lago/acqua/nexys/src/makestuff/libs/libutpp/Checks.h **** 
 3093              		.loc 4 24 58 is_stmt 1 discriminator 2
 3094 00b1 488B8538 		movq	-456(%rbp), %rax
 3094      FEFFFF
 3095 00b8 8B00     		movl	(%rax), %eax
 3096 00ba 89C6     		movl	%eax, %esi
 3097 00bc 4889D7   		movq	%rdx, %rdi
 3098 00bf E8000000 		call	_ZNSolsEj@PLT
 3098      00
  26:/home/asoreyh/Dropbox/projects/lago/acqua/nexys/src/makestuff/libs/libutpp/Checks.h ****     }
 3099              		.loc 4 26 30
 3100 00c4 488D8550 		leaq	-432(%rbp), %rax
 3100      FEFFFF
 3101 00cb 4889C7   		movq	%rax, %rdi
 3102 00ce E8000000 		call	_ZNK8UnitTest15MemoryOutStream7GetTextEv@PLT
 3102      00
 3103 00d3 4889C2   		movq	%rax, %rdx
 3104 00d6 488B8D30 		movq	-464(%rbp), %rcx
 3104      FEFFFF
 3105 00dd 488B8548 		movq	-440(%rbp), %rax
 3105      FEFFFF
 3106 00e4 4889CE   		movq	%rcx, %rsi
 3107 00e7 4889C7   		movq	%rax, %rdi
 3108 00ea E8000000 		call	_ZN8UnitTest11TestResults13OnTestFailureERKNS_11TestDetailsEPKc@PLT
 3108      00
 3109              	.LEHE119:
  27:/home/asoreyh/Dropbox/projects/lago/acqua/nexys/src/makestuff/libs/libutpp/Checks.h **** }
 3110              		.loc 4 27 5
 3111 00ef 488D8550 		leaq	-432(%rbp), %rax
 3111      FEFFFF
 3112 00f6 4889C7   		movq	%rax, %rdi
 3113              	.LEHB120:
 3114 00f9 E8000000 		call	_ZN8UnitTest15MemoryOutStreamD1Ev
 3114      00
 3115              	.LEHE120:
 3116              	.LBE22:
 3117              	.LBE21:
 3118              		.loc 4 28 1
 3119 00fe EB21     		jmp	.L158
 3120              	.L157:
 3121 0100 F30F1EFA 		endbr64
 3122              	.LBB24:
 3123              	.LBB23:
  27:/home/asoreyh/Dropbox/projects/lago/acqua/nexys/src/makestuff/libs/libutpp/Checks.h **** }
 3124              		.loc 4 27 5
 3125 0104 4889C3   		movq	%rax, %rbx
 3126 0107 488D8550 		leaq	-432(%rbp), %rax
 3126      FEFFFF
 3127 010e 4889C7   		movq	%rax, %rdi
 3128 0111 E8000000 		call	_ZN8UnitTest15MemoryOutStreamD1Ev
 3128      00
 3129 0116 4889D8   		movq	%rbx, %rax
 3130 0119 4889C7   		movq	%rax, %rdi
 3131              	.LEHB121:
 3132 011c E8000000 		call	_Unwind_Resume@PLT
 3132      00
 3133              	.LEHE121:
 3134              	.L158:
 3135              	.LBE23:
 3136              	.LBE24:
 3137              		.loc 4 28 1
 3138 0121 90       		nop
 3139 0122 488B45E8 		movq	-24(%rbp), %rax
 3140 0126 64482B04 		subq	%fs:40, %rax
 3140      25280000 
 3140      00
 3141 012f 7405     		je	.L156
 3142 0131 E8000000 		call	__stack_chk_fail@PLT
 3142      00
 3143              	.L156:
 3144 0136 488B5DF8 		movq	-8(%rbp), %rbx
 3145 013a C9       		leave
 3146              		.cfi_def_cfa 7, 8
 3147 013b C3       		ret
 3148              		.cfi_endproc
 3149              	.LFE1201:
 3150              		.section	.gcc_except_table
 3151              	.LLSDA1201:
 3152 0298 FF       		.byte	0xff
 3153 0299 FF       		.byte	0xff
 3154 029a 01       		.byte	0x1
 3155 029b 13       		.uleb128 .LLSDACSE1201-.LLSDACSB1201
 3156              	.LLSDACSB1201:
 3157 029c 63       		.uleb128 .LEHB118-.LFB1201
 3158 029d 05       		.uleb128 .LEHE118-.LEHB118
 3159 029e 00       		.uleb128 0
 3160 029f 00       		.uleb128 0
 3161 02a0 7C       		.uleb128 .LEHB119-.LFB1201
 3162 02a1 73       		.uleb128 .LEHE119-.LEHB119
 3163 02a2 8002     		.uleb128 .L157-.LFB1201
 3164 02a4 00       		.uleb128 0
 3165 02a5 F901     		.uleb128 .LEHB120-.LFB1201
 3166 02a7 05       		.uleb128 .LEHE120-.LEHB120
 3167 02a8 00       		.uleb128 0
 3168 02a9 00       		.uleb128 0
 3169 02aa 9C02     		.uleb128 .LEHB121-.LFB1201
 3170 02ac 05       		.uleb128 .LEHE121-.LEHB121
 3171 02ad 00       		.uleb128 0
 3172 02ae 00       		.uleb128 0
 3173              	.LLSDACSE1201:
 3174              		.section	.text._ZN8UnitTest10CheckEqualImjEEvRNS_11TestResultsERKT_RKT0_RKNS_11TestDetailsE,"axG",
 3176              		.section	.rodata
 3177              	.LC15:
 3178 024c 45787065 		.string	"Expected [ "
 3178      63746564 
 3178      205B2000 
 3179              	.LC16:
 3180 0258 2000     		.string	" "
 3181              	.LC17:
 3182 025a 5D206275 		.string	"] but was [ "
 3182      74207761 
 3182      73205B20 
 3182      00
 3183              	.LC18:
 3184 0267 5D00     		.string	"]"
 3185              		.section	.text._ZN8UnitTest15CheckArrayEqualIA13_hPhEEvRNS_11TestResultsERKT_RKT0_iRKNS_11TestDeta
 3186              		.weak	_ZN8UnitTest15CheckArrayEqualIA13_hPhEEvRNS_11TestResultsERKT_RKT0_iRKNS_11TestDetailsE
 3188              	_ZN8UnitTest15CheckArrayEqualIA13_hPhEEvRNS_11TestResultsERKT_RKT0_iRKNS_11TestDetailsE:
 3189              	.LFB1202:
  29:/home/asoreyh/Dropbox/projects/lago/acqua/nexys/src/makestuff/libs/libutpp/Checks.h **** 
  30:/home/asoreyh/Dropbox/projects/lago/acqua/nexys/src/makestuff/libs/libutpp/Checks.h **** void CheckEqual(TestResults& results, char const* expected, char const* actual, TestDetails const& 
  31:/home/asoreyh/Dropbox/projects/lago/acqua/nexys/src/makestuff/libs/libutpp/Checks.h **** 
  32:/home/asoreyh/Dropbox/projects/lago/acqua/nexys/src/makestuff/libs/libutpp/Checks.h **** void CheckEqual(TestResults& results, char* expected, char* actual, TestDetails const& details);
  33:/home/asoreyh/Dropbox/projects/lago/acqua/nexys/src/makestuff/libs/libutpp/Checks.h **** 
  34:/home/asoreyh/Dropbox/projects/lago/acqua/nexys/src/makestuff/libs/libutpp/Checks.h **** void CheckEqual(TestResults& results, char* expected, char const* actual, TestDetails const& detail
  35:/home/asoreyh/Dropbox/projects/lago/acqua/nexys/src/makestuff/libs/libutpp/Checks.h **** 
  36:/home/asoreyh/Dropbox/projects/lago/acqua/nexys/src/makestuff/libs/libutpp/Checks.h **** void CheckEqual(TestResults& results, char const* expected, char* actual, TestDetails const& detail
  37:/home/asoreyh/Dropbox/projects/lago/acqua/nexys/src/makestuff/libs/libutpp/Checks.h **** 
  38:/home/asoreyh/Dropbox/projects/lago/acqua/nexys/src/makestuff/libs/libutpp/Checks.h **** template< typename Expected, typename Actual, typename Tolerance >
  39:/home/asoreyh/Dropbox/projects/lago/acqua/nexys/src/makestuff/libs/libutpp/Checks.h **** bool AreClose(Expected const& expected, Actual const& actual, Tolerance const& tolerance)
  40:/home/asoreyh/Dropbox/projects/lago/acqua/nexys/src/makestuff/libs/libutpp/Checks.h **** {
  41:/home/asoreyh/Dropbox/projects/lago/acqua/nexys/src/makestuff/libs/libutpp/Checks.h ****     return (actual >= (expected - tolerance)) && (actual <= (expected + tolerance));
  42:/home/asoreyh/Dropbox/projects/lago/acqua/nexys/src/makestuff/libs/libutpp/Checks.h **** }
  43:/home/asoreyh/Dropbox/projects/lago/acqua/nexys/src/makestuff/libs/libutpp/Checks.h **** 
  44:/home/asoreyh/Dropbox/projects/lago/acqua/nexys/src/makestuff/libs/libutpp/Checks.h **** template< typename Expected, typename Actual, typename Tolerance >
  45:/home/asoreyh/Dropbox/projects/lago/acqua/nexys/src/makestuff/libs/libutpp/Checks.h **** void CheckClose(TestResults& results, Expected const& expected, Actual const& actual, Tolerance con
  46:/home/asoreyh/Dropbox/projects/lago/acqua/nexys/src/makestuff/libs/libutpp/Checks.h ****                 TestDetails const& details)
  47:/home/asoreyh/Dropbox/projects/lago/acqua/nexys/src/makestuff/libs/libutpp/Checks.h **** {
  48:/home/asoreyh/Dropbox/projects/lago/acqua/nexys/src/makestuff/libs/libutpp/Checks.h ****     if (!AreClose(expected, actual, tolerance))
  49:/home/asoreyh/Dropbox/projects/lago/acqua/nexys/src/makestuff/libs/libutpp/Checks.h ****     { 
  50:/home/asoreyh/Dropbox/projects/lago/acqua/nexys/src/makestuff/libs/libutpp/Checks.h ****         UnitTest::MemoryOutStream stream;
  51:/home/asoreyh/Dropbox/projects/lago/acqua/nexys/src/makestuff/libs/libutpp/Checks.h ****         stream << "Expected " << expected << " +/- " << tolerance << " but was " << actual;
  52:/home/asoreyh/Dropbox/projects/lago/acqua/nexys/src/makestuff/libs/libutpp/Checks.h **** 
  53:/home/asoreyh/Dropbox/projects/lago/acqua/nexys/src/makestuff/libs/libutpp/Checks.h ****         results.OnTestFailure(details, stream.GetText());
  54:/home/asoreyh/Dropbox/projects/lago/acqua/nexys/src/makestuff/libs/libutpp/Checks.h ****     }
  55:/home/asoreyh/Dropbox/projects/lago/acqua/nexys/src/makestuff/libs/libutpp/Checks.h **** }
  56:/home/asoreyh/Dropbox/projects/lago/acqua/nexys/src/makestuff/libs/libutpp/Checks.h **** 
  57:/home/asoreyh/Dropbox/projects/lago/acqua/nexys/src/makestuff/libs/libutpp/Checks.h **** 
  58:/home/asoreyh/Dropbox/projects/lago/acqua/nexys/src/makestuff/libs/libutpp/Checks.h **** template< typename Expected, typename Actual >
  59:/home/asoreyh/Dropbox/projects/lago/acqua/nexys/src/makestuff/libs/libutpp/Checks.h **** void CheckArrayEqual(TestResults& results, Expected const& expected, Actual const& actual,
 3190              		.loc 4 59 6
 3191              		.cfi_startproc
 3192              		.cfi_personality 0x9b,DW.ref.__gxx_personality_v0
 3193              		.cfi_lsda 0x1b,.LLSDA1202
 3194 0000 F30F1EFA 		endbr64
 3195 0004 55       		pushq	%rbp
 3196              		.cfi_def_cfa_offset 16
 3197              		.cfi_offset 6, -16
 3198 0005 4889E5   		movq	%rsp, %rbp
 3199              		.cfi_def_cfa_register 6
 3200 0008 53       		pushq	%rbx
 3201 0009 4881ECE8 		subq	$488, %rsp
 3201      010000
 3202              		.cfi_offset 3, -24
 3203 0010 4889BD38 		movq	%rdi, -456(%rbp)
 3203      FEFFFF
 3204 0017 4889B530 		movq	%rsi, -464(%rbp)
 3204      FEFFFF
 3205 001e 48899528 		movq	%rdx, -472(%rbp)
 3205      FEFFFF
 3206 0025 898D24FE 		movl	%ecx, -476(%rbp)
 3206      FFFF
 3207 002b 4C898518 		movq	%r8, -488(%rbp)
 3207      FEFFFF
 3208              		.loc 4 59 6
 3209 0032 64488B04 		movq	%fs:40, %rax
 3209      25280000 
 3209      00
 3210 003b 488945E8 		movq	%rax, -24(%rbp)
 3211 003f 31C0     		xorl	%eax, %eax
  60:/home/asoreyh/Dropbox/projects/lago/acqua/nexys/src/makestuff/libs/libutpp/Checks.h ****                 int const count, TestDetails const& details)
  61:/home/asoreyh/Dropbox/projects/lago/acqua/nexys/src/makestuff/libs/libutpp/Checks.h **** {
  62:/home/asoreyh/Dropbox/projects/lago/acqua/nexys/src/makestuff/libs/libutpp/Checks.h ****     bool equal = true;
 3212              		.loc 4 62 10
 3213 0041 C68543FE 		movb	$1, -445(%rbp)
 3213      FFFF01
 3214              	.LBB25:
  63:/home/asoreyh/Dropbox/projects/lago/acqua/nexys/src/makestuff/libs/libutpp/Checks.h ****     for (int i = 0; i < count; ++i)
 3215              		.loc 4 63 14
 3216 0048 C78544FE 		movl	$0, -444(%rbp)
 3216      FFFF0000 
 3216      0000
 3217              		.loc 4 63 5
 3218 0052 EB4E     		jmp	.L160
 3219              	.L161:
  64:/home/asoreyh/Dropbox/projects/lago/acqua/nexys/src/makestuff/libs/libutpp/Checks.h ****         equal &= (expected[i] == actual[i]);
 3220              		.loc 4 64 15 discriminator 3
 3221 0054 0FB68D43 		movzbl	-445(%rbp), %ecx
 3221      FEFFFF
 3222              		.loc 4 64 27 discriminator 3
 3223 005b 488B9530 		movq	-464(%rbp), %rdx
 3223      FEFFFF
 3224 0062 8B8544FE 		movl	-444(%rbp), %eax
 3224      FFFF
 3225 0068 4898     		cltq
 3226 006a 0FB61402 		movzbl	(%rdx,%rax), %edx
 3227              		.loc 4 64 40 discriminator 3
 3228 006e 488B8528 		movq	-472(%rbp), %rax
 3228      FEFFFF
 3229 0075 488B30   		movq	(%rax), %rsi
 3230              		.loc 4 64 41 discriminator 3
 3231 0078 8B8544FE 		movl	-444(%rbp), %eax
 3231      FFFF
 3232 007e 4898     		cltq
 3233              		.loc 4 64 40 discriminator 3
 3234 0080 4801F0   		addq	%rsi, %rax
 3235              		.loc 4 64 31 discriminator 3
 3236 0083 0FB600   		movzbl	(%rax), %eax
 3237 0086 38C2     		cmpb	%al, %dl
 3238 0088 0F94C0   		sete	%al
 3239 008b 0FB6C0   		movzbl	%al, %eax
 3240              		.loc 4 64 15 discriminator 3
 3241 008e 21C8     		andl	%ecx, %eax
 3242 0090 85C0     		testl	%eax, %eax
 3243 0092 0F95C0   		setne	%al
 3244 0095 888543FE 		movb	%al, -445(%rbp)
 3244      FFFF
  63:/home/asoreyh/Dropbox/projects/lago/acqua/nexys/src/makestuff/libs/libutpp/Checks.h ****     for (int i = 0; i < count; ++i)
 3245              		.loc 4 63 5 discriminator 3
 3246 009b 838544FE 		addl	$1, -444(%rbp)
 3246      FFFF01
 3247              	.L160:
  63:/home/asoreyh/Dropbox/projects/lago/acqua/nexys/src/makestuff/libs/libutpp/Checks.h ****     for (int i = 0; i < count; ++i)
 3248              		.loc 4 63 23 discriminator 1
 3249 00a2 8B8544FE 		movl	-444(%rbp), %eax
 3249      FFFF
 3250 00a8 3B8524FE 		cmpl	-476(%rbp), %eax
 3250      FFFF
 3251 00ae 7CA4     		jl	.L161
 3252              	.LBE25:
 3253              	.LBB26:
  65:/home/asoreyh/Dropbox/projects/lago/acqua/nexys/src/makestuff/libs/libutpp/Checks.h **** 
  66:/home/asoreyh/Dropbox/projects/lago/acqua/nexys/src/makestuff/libs/libutpp/Checks.h ****     if (!equal)
 3254              		.loc 4 66 10
 3255 00b0 0FB68543 		movzbl	-445(%rbp), %eax
 3255      FEFFFF
 3256 00b7 83F001   		xorl	$1, %eax
 3257              		.loc 4 66 5
 3258 00ba 84C0     		testb	%al, %al
 3259 00bc 0F847601 		je	.L170
 3259      0000
 3260              	.LBB27:
  67:/home/asoreyh/Dropbox/projects/lago/acqua/nexys/src/makestuff/libs/libutpp/Checks.h ****     {
  68:/home/asoreyh/Dropbox/projects/lago/acqua/nexys/src/makestuff/libs/libutpp/Checks.h ****         UnitTest::MemoryOutStream stream;
 3261              		.loc 4 68 35
 3262 00c2 488D8550 		leaq	-432(%rbp), %rax
 3262      FEFFFF
 3263 00c9 4889C7   		movq	%rax, %rdi
 3264              	.LEHB122:
 3265 00cc E8000000 		call	_ZN8UnitTest15MemoryOutStreamC1Ev
 3265      00
 3266              	.LEHE122:
  69:/home/asoreyh/Dropbox/projects/lago/acqua/nexys/src/makestuff/libs/libutpp/Checks.h **** 
  70:/home/asoreyh/Dropbox/projects/lago/acqua/nexys/src/makestuff/libs/libutpp/Checks.h **** 		stream << "Expected [ ";
 3267              		.loc 4 70 10
 3268 00d1 488D8550 		leaq	-432(%rbp), %rax
 3268      FEFFFF
 3269 00d8 488D1500 		leaq	.LC15(%rip), %rdx
 3269      000000
 3270 00df 4889D6   		movq	%rdx, %rsi
 3271 00e2 4889C7   		movq	%rax, %rdi
 3272              	.LEHB123:
 3273 00e5 E8000000 		call	_ZStlsISt11char_traitsIcEERSt13basic_ostreamIcT_ES5_PKc@PLT
 3273      00
 3274              	.LBB28:
  71:/home/asoreyh/Dropbox/projects/lago/acqua/nexys/src/makestuff/libs/libutpp/Checks.h **** 
  72:/home/asoreyh/Dropbox/projects/lago/acqua/nexys/src/makestuff/libs/libutpp/Checks.h **** 		for (int expectedIndex = 0; expectedIndex < count; ++expectedIndex)
 3275              		.loc 4 72 12
 3276 00ea C78548FE 		movl	$0, -440(%rbp)
 3276      FFFF0000 
 3276      0000
 3277              		.loc 4 72 3
 3278 00f4 EB43     		jmp	.L163
 3279              	.L164:
  73:/home/asoreyh/Dropbox/projects/lago/acqua/nexys/src/makestuff/libs/libutpp/Checks.h ****             stream << expected[expectedIndex] << " ";
 3280              		.loc 4 73 31
 3281 00f6 488B9530 		movq	-464(%rbp), %rdx
 3281      FEFFFF
 3282 00fd 8B8548FE 		movl	-440(%rbp), %eax
 3282      FFFF
 3283 0103 4898     		cltq
 3284 0105 0FB60402 		movzbl	(%rdx,%rax), %eax
 3285              		.loc 4 73 47
 3286 0109 0FB6D0   		movzbl	%al, %edx
 3287 010c 488D8550 		leaq	-432(%rbp), %rax
 3287      FEFFFF
 3288 0113 89D6     		movl	%edx, %esi
 3289 0115 4889C7   		movq	%rax, %rdi
 3290 0118 E8000000 		call	_ZStlsISt11char_traitsIcEERSt13basic_ostreamIcT_ES5_h@PLT
 3290      00
 3291 011d 4889C2   		movq	%rax, %rdx
 3292 0120 488D0500 		leaq	.LC16(%rip), %rax
 3292      000000
 3293 0127 4889C6   		movq	%rax, %rsi
 3294 012a 4889D7   		movq	%rdx, %rdi
 3295 012d E8000000 		call	_ZStlsISt11char_traitsIcEERSt13basic_ostreamIcT_ES5_PKc@PLT
 3295      00
  72:/home/asoreyh/Dropbox/projects/lago/acqua/nexys/src/makestuff/libs/libutpp/Checks.h ****             stream << expected[expectedIndex] << " ";
 3296              		.loc 4 72 3 discriminator 2
 3297 0132 838548FE 		addl	$1, -440(%rbp)
 3297      FFFF01
 3298              	.L163:
  72:/home/asoreyh/Dropbox/projects/lago/acqua/nexys/src/makestuff/libs/libutpp/Checks.h ****             stream << expected[expectedIndex] << " ";
 3299              		.loc 4 72 45 discriminator 1
 3300 0139 8B8548FE 		movl	-440(%rbp), %eax
 3300      FFFF
 3301 013f 3B8524FE 		cmpl	-476(%rbp), %eax
 3301      FFFF
 3302 0145 7CAF     		jl	.L164
 3303              	.LBE28:
  74:/home/asoreyh/Dropbox/projects/lago/acqua/nexys/src/makestuff/libs/libutpp/Checks.h **** 
  75:/home/asoreyh/Dropbox/projects/lago/acqua/nexys/src/makestuff/libs/libutpp/Checks.h **** 		stream << "] but was [ ";
 3304              		.loc 4 75 10
 3305 0147 488D8550 		leaq	-432(%rbp), %rax
 3305      FEFFFF
 3306 014e 488D1500 		leaq	.LC17(%rip), %rdx
 3306      000000
 3307 0155 4889D6   		movq	%rdx, %rsi
 3308 0158 4889C7   		movq	%rax, %rdi
 3309 015b E8000000 		call	_ZStlsISt11char_traitsIcEERSt13basic_ostreamIcT_ES5_PKc@PLT
 3309      00
 3310              	.LBB29:
  76:/home/asoreyh/Dropbox/projects/lago/acqua/nexys/src/makestuff/libs/libutpp/Checks.h **** 
  77:/home/asoreyh/Dropbox/projects/lago/acqua/nexys/src/makestuff/libs/libutpp/Checks.h **** 		for (int actualIndex = 0; actualIndex < count; ++actualIndex)
 3311              		.loc 4 77 12
 3312 0160 C7854CFE 		movl	$0, -436(%rbp)
 3312      FFFF0000 
 3312      0000
 3313              		.loc 4 77 3
 3314 016a EB48     		jmp	.L165
 3315              	.L166:
  78:/home/asoreyh/Dropbox/projects/lago/acqua/nexys/src/makestuff/libs/libutpp/Checks.h ****             stream << actual[actualIndex] << " ";
 3316              		.loc 4 78 29
 3317 016c 488B8528 		movq	-472(%rbp), %rax
 3317      FEFFFF
 3318 0173 488B10   		movq	(%rax), %rdx
 3319              		.loc 4 78 30
 3320 0176 8B854CFE 		movl	-436(%rbp), %eax
 3320      FFFF
 3321 017c 4898     		cltq
 3322              		.loc 4 78 29
 3323 017e 4801D0   		addq	%rdx, %rax
 3324 0181 0FB600   		movzbl	(%rax), %eax
 3325              		.loc 4 78 43
 3326 0184 0FB6D0   		movzbl	%al, %edx
 3327 0187 488D8550 		leaq	-432(%rbp), %rax
 3327      FEFFFF
 3328 018e 89D6     		movl	%edx, %esi
 3329 0190 4889C7   		movq	%rax, %rdi
 3330 0193 E8000000 		call	_ZStlsISt11char_traitsIcEERSt13basic_ostreamIcT_ES5_h@PLT
 3330      00
 3331 0198 4889C2   		movq	%rax, %rdx
 3332 019b 488D0500 		leaq	.LC16(%rip), %rax
 3332      000000
 3333 01a2 4889C6   		movq	%rax, %rsi
 3334 01a5 4889D7   		movq	%rdx, %rdi
 3335 01a8 E8000000 		call	_ZStlsISt11char_traitsIcEERSt13basic_ostreamIcT_ES5_PKc@PLT
 3335      00
  77:/home/asoreyh/Dropbox/projects/lago/acqua/nexys/src/makestuff/libs/libutpp/Checks.h ****             stream << actual[actualIndex] << " ";
 3336              		.loc 4 77 3 discriminator 2
 3337 01ad 83854CFE 		addl	$1, -436(%rbp)
 3337      FFFF01
 3338              	.L165:
  77:/home/asoreyh/Dropbox/projects/lago/acqua/nexys/src/makestuff/libs/libutpp/Checks.h ****             stream << actual[actualIndex] << " ";
 3339              		.loc 4 77 41 discriminator 1
 3340 01b4 8B854CFE 		movl	-436(%rbp), %eax
 3340      FFFF
 3341 01ba 3B8524FE 		cmpl	-476(%rbp), %eax
 3341      FFFF
 3342 01c0 7CAA     		jl	.L166
 3343              	.LBE29:
  79:/home/asoreyh/Dropbox/projects/lago/acqua/nexys/src/makestuff/libs/libutpp/Checks.h **** 
  80:/home/asoreyh/Dropbox/projects/lago/acqua/nexys/src/makestuff/libs/libutpp/Checks.h **** 		stream << "]";
 3344              		.loc 4 80 10
 3345 01c2 488D8550 		leaq	-432(%rbp), %rax
 3345      FEFFFF
 3346 01c9 488D1500 		leaq	.LC18(%rip), %rdx
 3346      000000
 3347 01d0 4889D6   		movq	%rdx, %rsi
 3348 01d3 4889C7   		movq	%rax, %rdi
 3349 01d6 E8000000 		call	_ZStlsISt11char_traitsIcEERSt13basic_ostreamIcT_ES5_PKc@PLT
 3349      00
  81:/home/asoreyh/Dropbox/projects/lago/acqua/nexys/src/makestuff/libs/libutpp/Checks.h **** 
  82:/home/asoreyh/Dropbox/projects/lago/acqua/nexys/src/makestuff/libs/libutpp/Checks.h ****         results.OnTestFailure(details, stream.GetText());
 3350              		.loc 4 82 30
 3351 01db 488D8550 		leaq	-432(%rbp), %rax
 3351      FEFFFF
 3352 01e2 4889C7   		movq	%rax, %rdi
 3353 01e5 E8000000 		call	_ZNK8UnitTest15MemoryOutStream7GetTextEv@PLT
 3353      00
 3354 01ea 4889C2   		movq	%rax, %rdx
 3355 01ed 488B8D18 		movq	-488(%rbp), %rcx
 3355      FEFFFF
 3356 01f4 488B8538 		movq	-456(%rbp), %rax
 3356      FEFFFF
 3357 01fb 4889CE   		movq	%rcx, %rsi
 3358 01fe 4889C7   		movq	%rax, %rdi
 3359 0201 E8000000 		call	_ZN8UnitTest11TestResults13OnTestFailureERKNS_11TestDetailsEPKc@PLT
 3359      00
 3360              	.LEHE123:
  83:/home/asoreyh/Dropbox/projects/lago/acqua/nexys/src/makestuff/libs/libutpp/Checks.h ****     }
 3361              		.loc 4 83 5
 3362 0206 488D8550 		leaq	-432(%rbp), %rax
 3362      FEFFFF
 3363 020d 4889C7   		movq	%rax, %rdi
 3364              	.LEHB124:
 3365 0210 E8000000 		call	_ZN8UnitTest15MemoryOutStreamD1Ev
 3365      00
 3366              	.LEHE124:
 3367              	.LBE27:
 3368              	.LBE26:
  84:/home/asoreyh/Dropbox/projects/lago/acqua/nexys/src/makestuff/libs/libutpp/Checks.h **** }
 3369              		.loc 4 84 1
 3370 0215 EB21     		jmp	.L170
 3371              	.L169:
 3372 0217 F30F1EFA 		endbr64
 3373              	.LBB31:
 3374              	.LBB30:
  83:/home/asoreyh/Dropbox/projects/lago/acqua/nexys/src/makestuff/libs/libutpp/Checks.h ****     }
 3375              		.loc 4 83 5
 3376 021b 4889C3   		movq	%rax, %rbx
 3377 021e 488D8550 		leaq	-432(%rbp), %rax
 3377      FEFFFF
 3378 0225 4889C7   		movq	%rax, %rdi
 3379 0228 E8000000 		call	_ZN8UnitTest15MemoryOutStreamD1Ev
 3379      00
 3380 022d 4889D8   		movq	%rbx, %rax
 3381 0230 4889C7   		movq	%rax, %rdi
 3382              	.LEHB125:
 3383 0233 E8000000 		call	_Unwind_Resume@PLT
 3383      00
 3384              	.LEHE125:
 3385              	.L170:
 3386              	.LBE30:
 3387              	.LBE31:
 3388              		.loc 4 84 1
 3389 0238 90       		nop
 3390 0239 488B45E8 		movq	-24(%rbp), %rax
 3391 023d 64482B04 		subq	%fs:40, %rax
 3391      25280000 
 3391      00
 3392 0246 7405     		je	.L168
 3393 0248 E8000000 		call	__stack_chk_fail@PLT
 3393      00
 3394              	.L168:
 3395 024d 488B5DF8 		movq	-8(%rbp), %rbx
 3396 0251 C9       		leave
 3397              		.cfi_def_cfa 7, 8
 3398 0252 C3       		ret
 3399              		.cfi_endproc
 3400              	.LFE1202:
 3401              		.section	.gcc_except_table
 3402              	.LLSDA1202:
 3403 02af FF       		.byte	0xff
 3404 02b0 FF       		.byte	0xff
 3405 02b1 01       		.byte	0x1
 3406 02b2 16       		.uleb128 .LLSDACSE1202-.LLSDACSB1202
 3407              	.LLSDACSB1202:
 3408 02b3 CC01     		.uleb128 .LEHB122-.LFB1202
 3409 02b5 05       		.uleb128 .LEHE122-.LEHB122
 3410 02b6 00       		.uleb128 0
 3411 02b7 00       		.uleb128 0
 3412 02b8 E501     		.uleb128 .LEHB123-.LFB1202
 3413 02ba A102     		.uleb128 .LEHE123-.LEHB123
 3414 02bc 9704     		.uleb128 .L169-.LFB1202
 3415 02be 00       		.uleb128 0
 3416 02bf 9004     		.uleb128 .LEHB124-.LFB1202
 3417 02c1 05       		.uleb128 .LEHE124-.LEHB124
 3418 02c2 00       		.uleb128 0
 3419 02c3 00       		.uleb128 0
 3420 02c4 B304     		.uleb128 .LEHB125-.LFB1202
 3421 02c6 05       		.uleb128 .LEHE125-.LEHB125
 3422 02c7 00       		.uleb128 0
 3423 02c8 00       		.uleb128 0
 3424              	.LLSDACSE1202:
 3425              		.section	.text._ZN8UnitTest15CheckArrayEqualIA13_hPhEEvRNS_11TestResultsERKT_RKT0_iRKNS_11TestDeta
 3427              		.section	.text._ZN8UnitTest15CheckArrayEqualIA16_hPhEEvRNS_11TestResultsERKT_RKT0_iRKNS_11TestDeta
 3428              		.weak	_ZN8UnitTest15CheckArrayEqualIA16_hPhEEvRNS_11TestResultsERKT_RKT0_iRKNS_11TestDetailsE
 3430              	_ZN8UnitTest15CheckArrayEqualIA16_hPhEEvRNS_11TestResultsERKT_RKT0_iRKNS_11TestDetailsE:
 3431              	.LFB1203:
  59:/home/asoreyh/Dropbox/projects/lago/acqua/nexys/src/makestuff/libs/libutpp/Checks.h ****                 int const count, TestDetails const& details)
 3432              		.loc 4 59 6
 3433              		.cfi_startproc
 3434              		.cfi_personality 0x9b,DW.ref.__gxx_personality_v0
 3435              		.cfi_lsda 0x1b,.LLSDA1203
 3436 0000 F30F1EFA 		endbr64
 3437 0004 55       		pushq	%rbp
 3438              		.cfi_def_cfa_offset 16
 3439              		.cfi_offset 6, -16
 3440 0005 4889E5   		movq	%rsp, %rbp
 3441              		.cfi_def_cfa_register 6
 3442 0008 53       		pushq	%rbx
 3443 0009 4881ECE8 		subq	$488, %rsp
 3443      010000
 3444              		.cfi_offset 3, -24
 3445 0010 4889BD38 		movq	%rdi, -456(%rbp)
 3445      FEFFFF
 3446 0017 4889B530 		movq	%rsi, -464(%rbp)
 3446      FEFFFF
 3447 001e 48899528 		movq	%rdx, -472(%rbp)
 3447      FEFFFF
 3448 0025 898D24FE 		movl	%ecx, -476(%rbp)
 3448      FFFF
 3449 002b 4C898518 		movq	%r8, -488(%rbp)
 3449      FEFFFF
  59:/home/asoreyh/Dropbox/projects/lago/acqua/nexys/src/makestuff/libs/libutpp/Checks.h ****                 int const count, TestDetails const& details)
 3450              		.loc 4 59 6
 3451 0032 64488B04 		movq	%fs:40, %rax
 3451      25280000 
 3451      00
 3452 003b 488945E8 		movq	%rax, -24(%rbp)
 3453 003f 31C0     		xorl	%eax, %eax
  62:/home/asoreyh/Dropbox/projects/lago/acqua/nexys/src/makestuff/libs/libutpp/Checks.h ****     for (int i = 0; i < count; ++i)
 3454              		.loc 4 62 10
 3455 0041 C68543FE 		movb	$1, -445(%rbp)
 3455      FFFF01
 3456              	.LBB32:
  63:/home/asoreyh/Dropbox/projects/lago/acqua/nexys/src/makestuff/libs/libutpp/Checks.h ****         equal &= (expected[i] == actual[i]);
 3457              		.loc 4 63 14
 3458 0048 C78544FE 		movl	$0, -444(%rbp)
 3458      FFFF0000 
 3458      0000
  63:/home/asoreyh/Dropbox/projects/lago/acqua/nexys/src/makestuff/libs/libutpp/Checks.h ****         equal &= (expected[i] == actual[i]);
 3459              		.loc 4 63 5
 3460 0052 EB4E     		jmp	.L172
 3461              	.L173:
  64:/home/asoreyh/Dropbox/projects/lago/acqua/nexys/src/makestuff/libs/libutpp/Checks.h **** 
 3462              		.loc 4 64 15 discriminator 3
 3463 0054 0FB68D43 		movzbl	-445(%rbp), %ecx
 3463      FEFFFF
  64:/home/asoreyh/Dropbox/projects/lago/acqua/nexys/src/makestuff/libs/libutpp/Checks.h **** 
 3464              		.loc 4 64 27 discriminator 3
 3465 005b 488B9530 		movq	-464(%rbp), %rdx
 3465      FEFFFF
 3466 0062 8B8544FE 		movl	-444(%rbp), %eax
 3466      FFFF
 3467 0068 4898     		cltq
 3468 006a 0FB61402 		movzbl	(%rdx,%rax), %edx
  64:/home/asoreyh/Dropbox/projects/lago/acqua/nexys/src/makestuff/libs/libutpp/Checks.h **** 
 3469              		.loc 4 64 40 discriminator 3
 3470 006e 488B8528 		movq	-472(%rbp), %rax
 3470      FEFFFF
 3471 0075 488B30   		movq	(%rax), %rsi
  64:/home/asoreyh/Dropbox/projects/lago/acqua/nexys/src/makestuff/libs/libutpp/Checks.h **** 
 3472              		.loc 4 64 41 discriminator 3
 3473 0078 8B8544FE 		movl	-444(%rbp), %eax
 3473      FFFF
 3474 007e 4898     		cltq
  64:/home/asoreyh/Dropbox/projects/lago/acqua/nexys/src/makestuff/libs/libutpp/Checks.h **** 
 3475              		.loc 4 64 40 discriminator 3
 3476 0080 4801F0   		addq	%rsi, %rax
  64:/home/asoreyh/Dropbox/projects/lago/acqua/nexys/src/makestuff/libs/libutpp/Checks.h **** 
 3477              		.loc 4 64 31 discriminator 3
 3478 0083 0FB600   		movzbl	(%rax), %eax
 3479 0086 38C2     		cmpb	%al, %dl
 3480 0088 0F94C0   		sete	%al
 3481 008b 0FB6C0   		movzbl	%al, %eax
  64:/home/asoreyh/Dropbox/projects/lago/acqua/nexys/src/makestuff/libs/libutpp/Checks.h **** 
 3482              		.loc 4 64 15 discriminator 3
 3483 008e 21C8     		andl	%ecx, %eax
 3484 0090 85C0     		testl	%eax, %eax
 3485 0092 0F95C0   		setne	%al
 3486 0095 888543FE 		movb	%al, -445(%rbp)
 3486      FFFF
  63:/home/asoreyh/Dropbox/projects/lago/acqua/nexys/src/makestuff/libs/libutpp/Checks.h ****         equal &= (expected[i] == actual[i]);
 3487              		.loc 4 63 5 discriminator 3
 3488 009b 838544FE 		addl	$1, -444(%rbp)
 3488      FFFF01
 3489              	.L172:
  63:/home/asoreyh/Dropbox/projects/lago/acqua/nexys/src/makestuff/libs/libutpp/Checks.h ****         equal &= (expected[i] == actual[i]);
 3490              		.loc 4 63 23 discriminator 1
 3491 00a2 8B8544FE 		movl	-444(%rbp), %eax
 3491      FFFF
 3492 00a8 3B8524FE 		cmpl	-476(%rbp), %eax
 3492      FFFF
 3493 00ae 7CA4     		jl	.L173
 3494              	.LBE32:
 3495              	.LBB33:
  66:/home/asoreyh/Dropbox/projects/lago/acqua/nexys/src/makestuff/libs/libutpp/Checks.h ****     {
 3496              		.loc 4 66 10
 3497 00b0 0FB68543 		movzbl	-445(%rbp), %eax
 3497      FEFFFF
 3498 00b7 83F001   		xorl	$1, %eax
  66:/home/asoreyh/Dropbox/projects/lago/acqua/nexys/src/makestuff/libs/libutpp/Checks.h ****     {
 3499              		.loc 4 66 5
 3500 00ba 84C0     		testb	%al, %al
 3501 00bc 0F847601 		je	.L182
 3501      0000
 3502              	.LBB34:
  68:/home/asoreyh/Dropbox/projects/lago/acqua/nexys/src/makestuff/libs/libutpp/Checks.h **** 
 3503              		.loc 4 68 35
 3504 00c2 488D8550 		leaq	-432(%rbp), %rax
 3504      FEFFFF
 3505 00c9 4889C7   		movq	%rax, %rdi
 3506              	.LEHB126:
 3507 00cc E8000000 		call	_ZN8UnitTest15MemoryOutStreamC1Ev
 3507      00
 3508              	.LEHE126:
  70:/home/asoreyh/Dropbox/projects/lago/acqua/nexys/src/makestuff/libs/libutpp/Checks.h **** 
 3509              		.loc 4 70 10
 3510 00d1 488D8550 		leaq	-432(%rbp), %rax
 3510      FEFFFF
 3511 00d8 488D1500 		leaq	.LC15(%rip), %rdx
 3511      000000
 3512 00df 4889D6   		movq	%rdx, %rsi
 3513 00e2 4889C7   		movq	%rax, %rdi
 3514              	.LEHB127:
 3515 00e5 E8000000 		call	_ZStlsISt11char_traitsIcEERSt13basic_ostreamIcT_ES5_PKc@PLT
 3515      00
 3516              	.LBB35:
  72:/home/asoreyh/Dropbox/projects/lago/acqua/nexys/src/makestuff/libs/libutpp/Checks.h ****             stream << expected[expectedIndex] << " ";
 3517              		.loc 4 72 12
 3518 00ea C78548FE 		movl	$0, -440(%rbp)
 3518      FFFF0000 
 3518      0000
  72:/home/asoreyh/Dropbox/projects/lago/acqua/nexys/src/makestuff/libs/libutpp/Checks.h ****             stream << expected[expectedIndex] << " ";
 3519              		.loc 4 72 3
 3520 00f4 EB43     		jmp	.L175
 3521              	.L176:
  73:/home/asoreyh/Dropbox/projects/lago/acqua/nexys/src/makestuff/libs/libutpp/Checks.h **** 
 3522              		.loc 4 73 31
 3523 00f6 488B9530 		movq	-464(%rbp), %rdx
 3523      FEFFFF
 3524 00fd 8B8548FE 		movl	-440(%rbp), %eax
 3524      FFFF
 3525 0103 4898     		cltq
 3526 0105 0FB60402 		movzbl	(%rdx,%rax), %eax
  73:/home/asoreyh/Dropbox/projects/lago/acqua/nexys/src/makestuff/libs/libutpp/Checks.h **** 
 3527              		.loc 4 73 47
 3528 0109 0FB6D0   		movzbl	%al, %edx
 3529 010c 488D8550 		leaq	-432(%rbp), %rax
 3529      FEFFFF
 3530 0113 89D6     		movl	%edx, %esi
 3531 0115 4889C7   		movq	%rax, %rdi
 3532 0118 E8000000 		call	_ZStlsISt11char_traitsIcEERSt13basic_ostreamIcT_ES5_h@PLT
 3532      00
 3533 011d 4889C2   		movq	%rax, %rdx
 3534 0120 488D0500 		leaq	.LC16(%rip), %rax
 3534      000000
 3535 0127 4889C6   		movq	%rax, %rsi
 3536 012a 4889D7   		movq	%rdx, %rdi
 3537 012d E8000000 		call	_ZStlsISt11char_traitsIcEERSt13basic_ostreamIcT_ES5_PKc@PLT
 3537      00
  72:/home/asoreyh/Dropbox/projects/lago/acqua/nexys/src/makestuff/libs/libutpp/Checks.h ****             stream << expected[expectedIndex] << " ";
 3538              		.loc 4 72 3 discriminator 2
 3539 0132 838548FE 		addl	$1, -440(%rbp)
 3539      FFFF01
 3540              	.L175:
  72:/home/asoreyh/Dropbox/projects/lago/acqua/nexys/src/makestuff/libs/libutpp/Checks.h ****             stream << expected[expectedIndex] << " ";
 3541              		.loc 4 72 45 discriminator 1
 3542 0139 8B8548FE 		movl	-440(%rbp), %eax
 3542      FFFF
 3543 013f 3B8524FE 		cmpl	-476(%rbp), %eax
 3543      FFFF
 3544 0145 7CAF     		jl	.L176
 3545              	.LBE35:
  75:/home/asoreyh/Dropbox/projects/lago/acqua/nexys/src/makestuff/libs/libutpp/Checks.h **** 
 3546              		.loc 4 75 10
 3547 0147 488D8550 		leaq	-432(%rbp), %rax
 3547      FEFFFF
 3548 014e 488D1500 		leaq	.LC17(%rip), %rdx
 3548      000000
 3549 0155 4889D6   		movq	%rdx, %rsi
 3550 0158 4889C7   		movq	%rax, %rdi
 3551 015b E8000000 		call	_ZStlsISt11char_traitsIcEERSt13basic_ostreamIcT_ES5_PKc@PLT
 3551      00
 3552              	.LBB36:
  77:/home/asoreyh/Dropbox/projects/lago/acqua/nexys/src/makestuff/libs/libutpp/Checks.h ****             stream << actual[actualIndex] << " ";
 3553              		.loc 4 77 12
 3554 0160 C7854CFE 		movl	$0, -436(%rbp)
 3554      FFFF0000 
 3554      0000
  77:/home/asoreyh/Dropbox/projects/lago/acqua/nexys/src/makestuff/libs/libutpp/Checks.h ****             stream << actual[actualIndex] << " ";
 3555              		.loc 4 77 3
 3556 016a EB48     		jmp	.L177
 3557              	.L178:
  78:/home/asoreyh/Dropbox/projects/lago/acqua/nexys/src/makestuff/libs/libutpp/Checks.h **** 
 3558              		.loc 4 78 29
 3559 016c 488B8528 		movq	-472(%rbp), %rax
 3559      FEFFFF
 3560 0173 488B10   		movq	(%rax), %rdx
  78:/home/asoreyh/Dropbox/projects/lago/acqua/nexys/src/makestuff/libs/libutpp/Checks.h **** 
 3561              		.loc 4 78 30
 3562 0176 8B854CFE 		movl	-436(%rbp), %eax
 3562      FFFF
 3563 017c 4898     		cltq
  78:/home/asoreyh/Dropbox/projects/lago/acqua/nexys/src/makestuff/libs/libutpp/Checks.h **** 
 3564              		.loc 4 78 29
 3565 017e 4801D0   		addq	%rdx, %rax
 3566 0181 0FB600   		movzbl	(%rax), %eax
  78:/home/asoreyh/Dropbox/projects/lago/acqua/nexys/src/makestuff/libs/libutpp/Checks.h **** 
 3567              		.loc 4 78 43
 3568 0184 0FB6D0   		movzbl	%al, %edx
 3569 0187 488D8550 		leaq	-432(%rbp), %rax
 3569      FEFFFF
 3570 018e 89D6     		movl	%edx, %esi
 3571 0190 4889C7   		movq	%rax, %rdi
 3572 0193 E8000000 		call	_ZStlsISt11char_traitsIcEERSt13basic_ostreamIcT_ES5_h@PLT
 3572      00
 3573 0198 4889C2   		movq	%rax, %rdx
 3574 019b 488D0500 		leaq	.LC16(%rip), %rax
 3574      000000
 3575 01a2 4889C6   		movq	%rax, %rsi
 3576 01a5 4889D7   		movq	%rdx, %rdi
 3577 01a8 E8000000 		call	_ZStlsISt11char_traitsIcEERSt13basic_ostreamIcT_ES5_PKc@PLT
 3577      00
  77:/home/asoreyh/Dropbox/projects/lago/acqua/nexys/src/makestuff/libs/libutpp/Checks.h ****             stream << actual[actualIndex] << " ";
 3578              		.loc 4 77 3 discriminator 2
 3579 01ad 83854CFE 		addl	$1, -436(%rbp)
 3579      FFFF01
 3580              	.L177:
  77:/home/asoreyh/Dropbox/projects/lago/acqua/nexys/src/makestuff/libs/libutpp/Checks.h ****             stream << actual[actualIndex] << " ";
 3581              		.loc 4 77 41 discriminator 1
 3582 01b4 8B854CFE 		movl	-436(%rbp), %eax
 3582      FFFF
 3583 01ba 3B8524FE 		cmpl	-476(%rbp), %eax
 3583      FFFF
 3584 01c0 7CAA     		jl	.L178
 3585              	.LBE36:
  80:/home/asoreyh/Dropbox/projects/lago/acqua/nexys/src/makestuff/libs/libutpp/Checks.h **** 
 3586              		.loc 4 80 10
 3587 01c2 488D8550 		leaq	-432(%rbp), %rax
 3587      FEFFFF
 3588 01c9 488D1500 		leaq	.LC18(%rip), %rdx
 3588      000000
 3589 01d0 4889D6   		movq	%rdx, %rsi
 3590 01d3 4889C7   		movq	%rax, %rdi
 3591 01d6 E8000000 		call	_ZStlsISt11char_traitsIcEERSt13basic_ostreamIcT_ES5_PKc@PLT
 3591      00
  82:/home/asoreyh/Dropbox/projects/lago/acqua/nexys/src/makestuff/libs/libutpp/Checks.h ****     }
 3592              		.loc 4 82 30
 3593 01db 488D8550 		leaq	-432(%rbp), %rax
 3593      FEFFFF
 3594 01e2 4889C7   		movq	%rax, %rdi
 3595 01e5 E8000000 		call	_ZNK8UnitTest15MemoryOutStream7GetTextEv@PLT
 3595      00
 3596 01ea 4889C2   		movq	%rax, %rdx
 3597 01ed 488B8D18 		movq	-488(%rbp), %rcx
 3597      FEFFFF
 3598 01f4 488B8538 		movq	-456(%rbp), %rax
 3598      FEFFFF
 3599 01fb 4889CE   		movq	%rcx, %rsi
 3600 01fe 4889C7   		movq	%rax, %rdi
 3601 0201 E8000000 		call	_ZN8UnitTest11TestResults13OnTestFailureERKNS_11TestDetailsEPKc@PLT
 3601      00
 3602              	.LEHE127:
  83:/home/asoreyh/Dropbox/projects/lago/acqua/nexys/src/makestuff/libs/libutpp/Checks.h **** }
 3603              		.loc 4 83 5
 3604 0206 488D8550 		leaq	-432(%rbp), %rax
 3604      FEFFFF
 3605 020d 4889C7   		movq	%rax, %rdi
 3606              	.LEHB128:
 3607 0210 E8000000 		call	_ZN8UnitTest15MemoryOutStreamD1Ev
 3607      00
 3608              	.LEHE128:
 3609              	.LBE34:
 3610              	.LBE33:
 3611              		.loc 4 84 1
 3612 0215 EB21     		jmp	.L182
 3613              	.L181:
 3614 0217 F30F1EFA 		endbr64
 3615              	.LBB38:
 3616              	.LBB37:
  83:/home/asoreyh/Dropbox/projects/lago/acqua/nexys/src/makestuff/libs/libutpp/Checks.h **** }
 3617              		.loc 4 83 5
 3618 021b 4889C3   		movq	%rax, %rbx
 3619 021e 488D8550 		leaq	-432(%rbp), %rax
 3619      FEFFFF
 3620 0225 4889C7   		movq	%rax, %rdi
 3621 0228 E8000000 		call	_ZN8UnitTest15MemoryOutStreamD1Ev
 3621      00
 3622 022d 4889D8   		movq	%rbx, %rax
 3623 0230 4889C7   		movq	%rax, %rdi
 3624              	.LEHB129:
 3625 0233 E8000000 		call	_Unwind_Resume@PLT
 3625      00
 3626              	.LEHE129:
 3627              	.L182:
 3628              	.LBE37:
 3629              	.LBE38:
 3630              		.loc 4 84 1
 3631 0238 90       		nop
 3632 0239 488B45E8 		movq	-24(%rbp), %rax
 3633 023d 64482B04 		subq	%fs:40, %rax
 3633      25280000 
 3633      00
 3634 0246 7405     		je	.L180
 3635 0248 E8000000 		call	__stack_chk_fail@PLT
 3635      00
 3636              	.L180:
 3637 024d 488B5DF8 		movq	-8(%rbp), %rbx
 3638 0251 C9       		leave
 3639              		.cfi_def_cfa 7, 8
 3640 0252 C3       		ret
 3641              		.cfi_endproc
 3642              	.LFE1203:
 3643              		.section	.gcc_except_table
 3644              	.LLSDA1203:
 3645 02c9 FF       		.byte	0xff
 3646 02ca FF       		.byte	0xff
 3647 02cb 01       		.byte	0x1
 3648 02cc 16       		.uleb128 .LLSDACSE1203-.LLSDACSB1203
 3649              	.LLSDACSB1203:
 3650 02cd CC01     		.uleb128 .LEHB126-.LFB1203
 3651 02cf 05       		.uleb128 .LEHE126-.LEHB126
 3652 02d0 00       		.uleb128 0
 3653 02d1 00       		.uleb128 0
 3654 02d2 E501     		.uleb128 .LEHB127-.LFB1203
 3655 02d4 A102     		.uleb128 .LEHE127-.LEHB127
 3656 02d6 9704     		.uleb128 .L181-.LFB1203
 3657 02d8 00       		.uleb128 0
 3658 02d9 9004     		.uleb128 .LEHB128-.LFB1203
 3659 02db 05       		.uleb128 .LEHE128-.LEHB128
 3660 02dc 00       		.uleb128 0
 3661 02dd 00       		.uleb128 0
 3662 02de B304     		.uleb128 .LEHB129-.LFB1203
 3663 02e0 05       		.uleb128 .LEHE129-.LEHB129
 3664 02e1 00       		.uleb128 0
 3665 02e2 00       		.uleb128 0
 3666              	.LLSDACSE1203:
 3667              		.section	.text._ZN8UnitTest15CheckArrayEqualIA16_hPhEEvRNS_11TestResultsERKT_RKT0_iRKNS_11TestDeta
 3669              		.weak	_ZTV26TestI2C_testFinaliseNoInit
 3670              		.section	.data.rel.ro.local._ZTV26TestI2C_testFinaliseNoInit,"awG",@progbits,_ZTV26TestI2C_testFin
 3671              		.align 8
 3674              	_ZTV26TestI2C_testFinaliseNoInit:
 3675 0000 00000000 		.quad	0
 3675      00000000 
 3676 0008 00000000 		.quad	_ZTI26TestI2C_testFinaliseNoInit
 3676      00000000 
 3677 0010 00000000 		.quad	_ZN26TestI2C_testFinaliseNoInitD1Ev
 3677      00000000 
 3678 0018 00000000 		.quad	_ZN26TestI2C_testFinaliseNoInitD0Ev
 3678      00000000 
 3679 0020 00000000 		.quad	_ZNK26TestI2C_testFinaliseNoInit7RunImplEv
 3679      00000000 
 3680              		.section	.text._ZN26TestI2C_testFinaliseNoInitD2Ev,"axG",@progbits,_ZN26TestI2C_testFinaliseNoInit
 3681              		.align 2
 3682              		.weak	_ZN26TestI2C_testFinaliseNoInitD2Ev
 3684              	_ZN26TestI2C_testFinaliseNoInitD2Ev:
 3685              	.LFB1262:
 106:testI2C.cpp   **** 	Buffer buf;
 3686              		.loc 3 106 1
 3687              		.cfi_startproc
 3688 0000 F30F1EFA 		endbr64
 3689 0004 55       		pushq	%rbp
 3690              		.cfi_def_cfa_offset 16
 3691              		.cfi_offset 6, -16
 3692 0005 4889E5   		movq	%rsp, %rbp
 3693              		.cfi_def_cfa_register 6
 3694 0008 4883EC10 		subq	$16, %rsp
 3695 000c 48897DF8 		movq	%rdi, -8(%rbp)
 3696              	.LBB39:
 106:testI2C.cpp   **** 	Buffer buf;
 3697              		.loc 3 106 1
 3698 0010 488D1500 		leaq	16+_ZTV26TestI2C_testFinaliseNoInit(%rip), %rdx
 3698      000000
 3699 0017 488B45F8 		movq	-8(%rbp), %rax
 3700 001b 488910   		movq	%rdx, (%rax)
 3701 001e 488B45F8 		movq	-8(%rbp), %rax
 3702 0022 4889C7   		movq	%rax, %rdi
 3703 0025 E8000000 		call	_ZN8UnitTest4TestD2Ev@PLT
 3703      00
 3704              	.LBE39:
 3705 002a 90       		nop
 3706 002b C9       		leave
 3707              		.cfi_def_cfa 7, 8
 3708 002c C3       		ret
 3709              		.cfi_endproc
 3710              	.LFE1262:
 3712              		.weak	_ZN26TestI2C_testFinaliseNoInitD1Ev
 3713              		.set	_ZN26TestI2C_testFinaliseNoInitD1Ev,_ZN26TestI2C_testFinaliseNoInitD2Ev
 3714              		.section	.text._ZN26TestI2C_testFinaliseNoInitD0Ev,"axG",@progbits,_ZN26TestI2C_testFinaliseNoInit
 3715              		.align 2
 3716              		.weak	_ZN26TestI2C_testFinaliseNoInitD0Ev
 3718              	_ZN26TestI2C_testFinaliseNoInitD0Ev:
 3719              	.LFB1264:
 106:testI2C.cpp   **** 	Buffer buf;
 3720              		.loc 3 106 1
 3721              		.cfi_startproc
 3722              		.cfi_personality 0x9b,DW.ref.__gxx_personality_v0
 3723              		.cfi_lsda 0x1b,.LLSDA1264
 3724 0000 F30F1EFA 		endbr64
 3725 0004 55       		pushq	%rbp
 3726              		.cfi_def_cfa_offset 16
 3727              		.cfi_offset 6, -16
 3728 0005 4889E5   		movq	%rsp, %rbp
 3729              		.cfi_def_cfa_register 6
 3730 0008 53       		pushq	%rbx
 3731 0009 4883EC18 		subq	$24, %rsp
 3732              		.cfi_offset 3, -24
 3733 000d 48897DE8 		movq	%rdi, -24(%rbp)
 106:testI2C.cpp   **** 	Buffer buf;
 3734              		.loc 3 106 1
 3735 0011 488B45E8 		movq	-24(%rbp), %rax
 3736 0015 4889C7   		movq	%rax, %rdi
 3737              	.LEHB130:
 3738 0018 E8000000 		call	_ZN26TestI2C_testFinaliseNoInitD1Ev
 3738      00
 3739              	.LEHE130:
 106:testI2C.cpp   **** 	Buffer buf;
 3740              		.loc 3 106 1 is_stmt 0 discriminator 2
 3741 001d 488B45E8 		movq	-24(%rbp), %rax
 3742 0021 4889C7   		movq	%rax, %rdi
 3743 0024 E8000000 		call	_ZdlPv@PLT
 3743      00
 3744 0029 EB1E     		jmp	.L187
 3745              	.L186:
 3746 002b F30F1EFA 		endbr64
 106:testI2C.cpp   **** 	Buffer buf;
 3747              		.loc 3 106 1
 3748 002f 4889C3   		movq	%rax, %rbx
 3749 0032 488B45E8 		movq	-24(%rbp), %rax
 3750 0036 4889C7   		movq	%rax, %rdi
 3751 0039 E8000000 		call	_ZdlPv@PLT
 3751      00
 3752 003e 4889D8   		movq	%rbx, %rax
 3753 0041 4889C7   		movq	%rax, %rdi
 3754              	.LEHB131:
 3755 0044 E8000000 		call	_Unwind_Resume@PLT
 3755      00
 3756              	.LEHE131:
 3757              	.L187:
 3758 0049 488B5DF8 		movq	-8(%rbp), %rbx
 3759 004d C9       		leave
 3760              		.cfi_def_cfa 7, 8
 3761 004e C3       		ret
 3762              		.cfi_endproc
 3763              	.LFE1264:
 3764              		.section	.gcc_except_table
 3765              	.LLSDA1264:
 3766 02e3 FF       		.byte	0xff
 3767 02e4 FF       		.byte	0xff
 3768 02e5 01       		.byte	0x1
 3769 02e6 08       		.uleb128 .LLSDACSE1264-.LLSDACSB1264
 3770              	.LLSDACSB1264:
 3771 02e7 18       		.uleb128 .LEHB130-.LFB1264
 3772 02e8 05       		.uleb128 .LEHE130-.LEHB130
 3773 02e9 2B       		.uleb128 .L186-.LFB1264
 3774 02ea 00       		.uleb128 0
 3775 02eb 44       		.uleb128 .LEHB131-.LFB1264
 3776 02ec 05       		.uleb128 .LEHE131-.LEHB131
 3777 02ed 00       		.uleb128 0
 3778 02ee 00       		.uleb128 0
 3779              	.LLSDACSE1264:
 3780              		.section	.text._ZN26TestI2C_testFinaliseNoInitD0Ev,"axG",@progbits,_ZN26TestI2C_testFinaliseNoInit
 3782              		.weak	_ZTV21TestI2C_testWPRNoInit
 3783              		.section	.data.rel.ro.local._ZTV21TestI2C_testWPRNoInit,"awG",@progbits,_ZTV21TestI2C_testWPRNoIni
 3784              		.align 8
 3787              	_ZTV21TestI2C_testWPRNoInit:
 3788 0000 00000000 		.quad	0
 3788      00000000 
 3789 0008 00000000 		.quad	_ZTI21TestI2C_testWPRNoInit
 3789      00000000 
 3790 0010 00000000 		.quad	_ZN21TestI2C_testWPRNoInitD1Ev
 3790      00000000 
 3791 0018 00000000 		.quad	_ZN21TestI2C_testWPRNoInitD0Ev
 3791      00000000 
 3792 0020 00000000 		.quad	_ZNK21TestI2C_testWPRNoInit7RunImplEv
 3792      00000000 
 3793              		.section	.text._ZN21TestI2C_testWPRNoInitD2Ev,"axG",@progbits,_ZN21TestI2C_testWPRNoInitD5Ev,comda
 3794              		.align 2
 3795              		.weak	_ZN21TestI2C_testWPRNoInitD2Ev
 3797              	_ZN21TestI2C_testWPRNoInitD2Ev:
 3798              	.LFB1266:
  95:testI2C.cpp   **** 	Buffer i2cBuffer;
 3799              		.loc 3 95 1 is_stmt 1
 3800              		.cfi_startproc
 3801 0000 F30F1EFA 		endbr64
 3802 0004 55       		pushq	%rbp
 3803              		.cfi_def_cfa_offset 16
 3804              		.cfi_offset 6, -16
 3805 0005 4889E5   		movq	%rsp, %rbp
 3806              		.cfi_def_cfa_register 6
 3807 0008 4883EC10 		subq	$16, %rsp
 3808 000c 48897DF8 		movq	%rdi, -8(%rbp)
 3809              	.LBB40:
  95:testI2C.cpp   **** 	Buffer i2cBuffer;
 3810              		.loc 3 95 1
 3811 0010 488D1500 		leaq	16+_ZTV21TestI2C_testWPRNoInit(%rip), %rdx
 3811      000000
 3812 0017 488B45F8 		movq	-8(%rbp), %rax
 3813 001b 488910   		movq	%rdx, (%rax)
 3814 001e 488B45F8 		movq	-8(%rbp), %rax
 3815 0022 4889C7   		movq	%rax, %rdi
 3816 0025 E8000000 		call	_ZN8UnitTest4TestD2Ev@PLT
 3816      00
 3817              	.LBE40:
 3818 002a 90       		nop
 3819 002b C9       		leave
 3820              		.cfi_def_cfa 7, 8
 3821 002c C3       		ret
 3822              		.cfi_endproc
 3823              	.LFE1266:
 3825              		.weak	_ZN21TestI2C_testWPRNoInitD1Ev
 3826              		.set	_ZN21TestI2C_testWPRNoInitD1Ev,_ZN21TestI2C_testWPRNoInitD2Ev
 3827              		.section	.text._ZN21TestI2C_testWPRNoInitD0Ev,"axG",@progbits,_ZN21TestI2C_testWPRNoInitD5Ev,comda
 3828              		.align 2
 3829              		.weak	_ZN21TestI2C_testWPRNoInitD0Ev
 3831              	_ZN21TestI2C_testWPRNoInitD0Ev:
 3832              	.LFB1268:
  95:testI2C.cpp   **** 	Buffer i2cBuffer;
 3833              		.loc 3 95 1
 3834              		.cfi_startproc
 3835              		.cfi_personality 0x9b,DW.ref.__gxx_personality_v0
 3836              		.cfi_lsda 0x1b,.LLSDA1268
 3837 0000 F30F1EFA 		endbr64
 3838 0004 55       		pushq	%rbp
 3839              		.cfi_def_cfa_offset 16
 3840              		.cfi_offset 6, -16
 3841 0005 4889E5   		movq	%rsp, %rbp
 3842              		.cfi_def_cfa_register 6
 3843 0008 53       		pushq	%rbx
 3844 0009 4883EC18 		subq	$24, %rsp
 3845              		.cfi_offset 3, -24
 3846 000d 48897DE8 		movq	%rdi, -24(%rbp)
  95:testI2C.cpp   **** 	Buffer i2cBuffer;
 3847              		.loc 3 95 1
 3848 0011 488B45E8 		movq	-24(%rbp), %rax
 3849 0015 4889C7   		movq	%rax, %rdi
 3850              	.LEHB132:
 3851 0018 E8000000 		call	_ZN21TestI2C_testWPRNoInitD1Ev
 3851      00
 3852              	.LEHE132:
  95:testI2C.cpp   **** 	Buffer i2cBuffer;
 3853              		.loc 3 95 1 is_stmt 0 discriminator 2
 3854 001d 488B45E8 		movq	-24(%rbp), %rax
 3855 0021 4889C7   		movq	%rax, %rdi
 3856 0024 E8000000 		call	_ZdlPv@PLT
 3856      00
 3857 0029 EB1E     		jmp	.L192
 3858              	.L191:
 3859 002b F30F1EFA 		endbr64
  95:testI2C.cpp   **** 	Buffer i2cBuffer;
 3860              		.loc 3 95 1
 3861 002f 4889C3   		movq	%rax, %rbx
 3862 0032 488B45E8 		movq	-24(%rbp), %rax
 3863 0036 4889C7   		movq	%rax, %rdi
 3864 0039 E8000000 		call	_ZdlPv@PLT
 3864      00
 3865 003e 4889D8   		movq	%rbx, %rax
 3866 0041 4889C7   		movq	%rax, %rdi
 3867              	.LEHB133:
 3868 0044 E8000000 		call	_Unwind_Resume@PLT
 3868      00
 3869              	.LEHE133:
 3870              	.L192:
 3871 0049 488B5DF8 		movq	-8(%rbp), %rbx
 3872 004d C9       		leave
 3873              		.cfi_def_cfa 7, 8
 3874 004e C3       		ret
 3875              		.cfi_endproc
 3876              	.LFE1268:
 3877              		.section	.gcc_except_table
 3878              	.LLSDA1268:
 3879 02ef FF       		.byte	0xff
 3880 02f0 FF       		.byte	0xff
 3881 02f1 01       		.byte	0x1
 3882 02f2 08       		.uleb128 .LLSDACSE1268-.LLSDACSB1268
 3883              	.LLSDACSB1268:
 3884 02f3 18       		.uleb128 .LEHB132-.LFB1268
 3885 02f4 05       		.uleb128 .LEHE132-.LEHB132
 3886 02f5 2B       		.uleb128 .L191-.LFB1268
 3887 02f6 00       		.uleb128 0
 3888 02f7 44       		.uleb128 .LEHB133-.LFB1268
 3889 02f8 05       		.uleb128 .LEHE133-.LEHB133
 3890 02f9 00       		.uleb128 0
 3891 02fa 00       		.uleb128 0
 3892              	.LLSDACSE1268:
 3893              		.section	.text._ZN21TestI2C_testWPRNoInitD0Ev,"axG",@progbits,_ZN21TestI2C_testWPRNoInitD5Ev,comda
 3895              		.weak	_ZTV21TestI2C_testRoundTrip
 3896              		.section	.data.rel.ro.local._ZTV21TestI2C_testRoundTrip,"awG",@progbits,_ZTV21TestI2C_testRoundTri
 3897              		.align 8
 3900              	_ZTV21TestI2C_testRoundTrip:
 3901 0000 00000000 		.quad	0
 3901      00000000 
 3902 0008 00000000 		.quad	_ZTI21TestI2C_testRoundTrip
 3902      00000000 
 3903 0010 00000000 		.quad	_ZN21TestI2C_testRoundTripD1Ev
 3903      00000000 
 3904 0018 00000000 		.quad	_ZN21TestI2C_testRoundTripD0Ev
 3904      00000000 
 3905 0020 00000000 		.quad	_ZNK21TestI2C_testRoundTrip7RunImplEv
 3905      00000000 
 3906              		.section	.text._ZN21TestI2C_testRoundTripD2Ev,"axG",@progbits,_ZN21TestI2C_testRoundTripD5Ev,comda
 3907              		.align 2
 3908              		.weak	_ZN21TestI2C_testRoundTripD2Ev
 3910              	_ZN21TestI2C_testRoundTripD2Ev:
 3911              	.LFB1270:
  47:testI2C.cpp   **** 	uint32 i, j;
 3912              		.loc 3 47 1 is_stmt 1
 3913              		.cfi_startproc
 3914 0000 F30F1EFA 		endbr64
 3915 0004 55       		pushq	%rbp
 3916              		.cfi_def_cfa_offset 16
 3917              		.cfi_offset 6, -16
 3918 0005 4889E5   		movq	%rsp, %rbp
 3919              		.cfi_def_cfa_register 6
 3920 0008 4883EC10 		subq	$16, %rsp
 3921 000c 48897DF8 		movq	%rdi, -8(%rbp)
 3922              	.LBB41:
  47:testI2C.cpp   **** 	uint32 i, j;
 3923              		.loc 3 47 1
 3924 0010 488D1500 		leaq	16+_ZTV21TestI2C_testRoundTrip(%rip), %rdx
 3924      000000
 3925 0017 488B45F8 		movq	-8(%rbp), %rax
 3926 001b 488910   		movq	%rdx, (%rax)
 3927 001e 488B45F8 		movq	-8(%rbp), %rax
 3928 0022 4889C7   		movq	%rax, %rdi
 3929 0025 E8000000 		call	_ZN8UnitTest4TestD2Ev@PLT
 3929      00
 3930              	.LBE41:
 3931 002a 90       		nop
 3932 002b C9       		leave
 3933              		.cfi_def_cfa 7, 8
 3934 002c C3       		ret
 3935              		.cfi_endproc
 3936              	.LFE1270:
 3938              		.weak	_ZN21TestI2C_testRoundTripD1Ev
 3939              		.set	_ZN21TestI2C_testRoundTripD1Ev,_ZN21TestI2C_testRoundTripD2Ev
 3940              		.section	.text._ZN21TestI2C_testRoundTripD0Ev,"axG",@progbits,_ZN21TestI2C_testRoundTripD5Ev,comda
 3941              		.align 2
 3942              		.weak	_ZN21TestI2C_testRoundTripD0Ev
 3944              	_ZN21TestI2C_testRoundTripD0Ev:
 3945              	.LFB1272:
  47:testI2C.cpp   **** 	uint32 i, j;
 3946              		.loc 3 47 1
 3947              		.cfi_startproc
 3948              		.cfi_personality 0x9b,DW.ref.__gxx_personality_v0
 3949              		.cfi_lsda 0x1b,.LLSDA1272
 3950 0000 F30F1EFA 		endbr64
 3951 0004 55       		pushq	%rbp
 3952              		.cfi_def_cfa_offset 16
 3953              		.cfi_offset 6, -16
 3954 0005 4889E5   		movq	%rsp, %rbp
 3955              		.cfi_def_cfa_register 6
 3956 0008 53       		pushq	%rbx
 3957 0009 4883EC18 		subq	$24, %rsp
 3958              		.cfi_offset 3, -24
 3959 000d 48897DE8 		movq	%rdi, -24(%rbp)
  47:testI2C.cpp   **** 	uint32 i, j;
 3960              		.loc 3 47 1
 3961 0011 488B45E8 		movq	-24(%rbp), %rax
 3962 0015 4889C7   		movq	%rax, %rdi
 3963              	.LEHB134:
 3964 0018 E8000000 		call	_ZN21TestI2C_testRoundTripD1Ev
 3964      00
 3965              	.LEHE134:
  47:testI2C.cpp   **** 	uint32 i, j;
 3966              		.loc 3 47 1 is_stmt 0 discriminator 2
 3967 001d 488B45E8 		movq	-24(%rbp), %rax
 3968 0021 4889C7   		movq	%rax, %rdi
 3969 0024 E8000000 		call	_ZdlPv@PLT
 3969      00
 3970 0029 EB1E     		jmp	.L197
 3971              	.L196:
 3972 002b F30F1EFA 		endbr64
  47:testI2C.cpp   **** 	uint32 i, j;
 3973              		.loc 3 47 1
 3974 002f 4889C3   		movq	%rax, %rbx
 3975 0032 488B45E8 		movq	-24(%rbp), %rax
 3976 0036 4889C7   		movq	%rax, %rdi
 3977 0039 E8000000 		call	_ZdlPv@PLT
 3977      00
 3978 003e 4889D8   		movq	%rbx, %rax
 3979 0041 4889C7   		movq	%rax, %rdi
 3980              	.LEHB135:
 3981 0044 E8000000 		call	_Unwind_Resume@PLT
 3981      00
 3982              	.LEHE135:
 3983              	.L197:
 3984 0049 488B5DF8 		movq	-8(%rbp), %rbx
 3985 004d C9       		leave
 3986              		.cfi_def_cfa 7, 8
 3987 004e C3       		ret
 3988              		.cfi_endproc
 3989              	.LFE1272:
 3990              		.section	.gcc_except_table
 3991              	.LLSDA1272:
 3992 02fb FF       		.byte	0xff
 3993 02fc FF       		.byte	0xff
 3994 02fd 01       		.byte	0x1
 3995 02fe 08       		.uleb128 .LLSDACSE1272-.LLSDACSB1272
 3996              	.LLSDACSB1272:
 3997 02ff 18       		.uleb128 .LEHB134-.LFB1272
 3998 0300 05       		.uleb128 .LEHE134-.LEHB134
 3999 0301 2B       		.uleb128 .L196-.LFB1272
 4000 0302 00       		.uleb128 0
 4001 0303 44       		.uleb128 .LEHB135-.LFB1272
 4002 0304 05       		.uleb128 .LEHE135-.LEHB135
 4003 0305 00       		.uleb128 0
 4004 0306 00       		.uleb128 0
 4005              	.LLSDACSE1272:
 4006              		.section	.text._ZN21TestI2C_testRoundTripD0Ev,"axG",@progbits,_ZN21TestI2C_testRoundTripD5Ev,comda
 4008              		.weak	_ZTV22TestI2C_testInitialise
 4009              		.section	.data.rel.ro.local._ZTV22TestI2C_testInitialise,"awG",@progbits,_ZTV22TestI2C_testInitial
 4010              		.align 8
 4013              	_ZTV22TestI2C_testInitialise:
 4014 0000 00000000 		.quad	0
 4014      00000000 
 4015 0008 00000000 		.quad	_ZTI22TestI2C_testInitialise
 4015      00000000 
 4016 0010 00000000 		.quad	_ZN22TestI2C_testInitialiseD1Ev
 4016      00000000 
 4017 0018 00000000 		.quad	_ZN22TestI2C_testInitialiseD0Ev
 4017      00000000 
 4018 0020 00000000 		.quad	_ZNK22TestI2C_testInitialise7RunImplEv
 4018      00000000 
 4019              		.section	.text._ZN22TestI2C_testInitialiseD2Ev,"axG",@progbits,_ZN22TestI2C_testInitialiseD5Ev,com
 4020              		.align 2
 4021              		.weak	_ZN22TestI2C_testInitialiseD2Ev
 4023              	_ZN22TestI2C_testInitialiseD2Ev:
 4024              	.LFB1274:
  31:testI2C.cpp   **** 	Buffer i2cBuffer;
 4025              		.loc 3 31 1 is_stmt 1
 4026              		.cfi_startproc
 4027 0000 F30F1EFA 		endbr64
 4028 0004 55       		pushq	%rbp
 4029              		.cfi_def_cfa_offset 16
 4030              		.cfi_offset 6, -16
 4031 0005 4889E5   		movq	%rsp, %rbp
 4032              		.cfi_def_cfa_register 6
 4033 0008 4883EC10 		subq	$16, %rsp
 4034 000c 48897DF8 		movq	%rdi, -8(%rbp)
 4035              	.LBB42:
  31:testI2C.cpp   **** 	Buffer i2cBuffer;
 4036              		.loc 3 31 1
 4037 0010 488D1500 		leaq	16+_ZTV22TestI2C_testInitialise(%rip), %rdx
 4037      000000
 4038 0017 488B45F8 		movq	-8(%rbp), %rax
 4039 001b 488910   		movq	%rdx, (%rax)
 4040 001e 488B45F8 		movq	-8(%rbp), %rax
 4041 0022 4889C7   		movq	%rax, %rdi
 4042 0025 E8000000 		call	_ZN8UnitTest4TestD2Ev@PLT
 4042      00
 4043              	.LBE42:
 4044 002a 90       		nop
 4045 002b C9       		leave
 4046              		.cfi_def_cfa 7, 8
 4047 002c C3       		ret
 4048              		.cfi_endproc
 4049              	.LFE1274:
 4051              		.weak	_ZN22TestI2C_testInitialiseD1Ev
 4052              		.set	_ZN22TestI2C_testInitialiseD1Ev,_ZN22TestI2C_testInitialiseD2Ev
 4053              		.section	.text._ZN22TestI2C_testInitialiseD0Ev,"axG",@progbits,_ZN22TestI2C_testInitialiseD5Ev,com
 4054              		.align 2
 4055              		.weak	_ZN22TestI2C_testInitialiseD0Ev
 4057              	_ZN22TestI2C_testInitialiseD0Ev:
 4058              	.LFB1276:
  31:testI2C.cpp   **** 	Buffer i2cBuffer;
 4059              		.loc 3 31 1
 4060              		.cfi_startproc
 4061              		.cfi_personality 0x9b,DW.ref.__gxx_personality_v0
 4062              		.cfi_lsda 0x1b,.LLSDA1276
 4063 0000 F30F1EFA 		endbr64
 4064 0004 55       		pushq	%rbp
 4065              		.cfi_def_cfa_offset 16
 4066              		.cfi_offset 6, -16
 4067 0005 4889E5   		movq	%rsp, %rbp
 4068              		.cfi_def_cfa_register 6
 4069 0008 53       		pushq	%rbx
 4070 0009 4883EC18 		subq	$24, %rsp
 4071              		.cfi_offset 3, -24
 4072 000d 48897DE8 		movq	%rdi, -24(%rbp)
  31:testI2C.cpp   **** 	Buffer i2cBuffer;
 4073              		.loc 3 31 1
 4074 0011 488B45E8 		movq	-24(%rbp), %rax
 4075 0015 4889C7   		movq	%rax, %rdi
 4076              	.LEHB136:
 4077 0018 E8000000 		call	_ZN22TestI2C_testInitialiseD1Ev
 4077      00
 4078              	.LEHE136:
  31:testI2C.cpp   **** 	Buffer i2cBuffer;
 4079              		.loc 3 31 1 is_stmt 0 discriminator 2
 4080 001d 488B45E8 		movq	-24(%rbp), %rax
 4081 0021 4889C7   		movq	%rax, %rdi
 4082 0024 E8000000 		call	_ZdlPv@PLT
 4082      00
 4083 0029 EB1E     		jmp	.L202
 4084              	.L201:
 4085 002b F30F1EFA 		endbr64
  31:testI2C.cpp   **** 	Buffer i2cBuffer;
 4086              		.loc 3 31 1
 4087 002f 4889C3   		movq	%rax, %rbx
 4088 0032 488B45E8 		movq	-24(%rbp), %rax
 4089 0036 4889C7   		movq	%rax, %rdi
 4090 0039 E8000000 		call	_ZdlPv@PLT
 4090      00
 4091 003e 4889D8   		movq	%rbx, %rax
 4092 0041 4889C7   		movq	%rax, %rdi
 4093              	.LEHB137:
 4094 0044 E8000000 		call	_Unwind_Resume@PLT
 4094      00
 4095              	.LEHE137:
 4096              	.L202:
 4097 0049 488B5DF8 		movq	-8(%rbp), %rbx
 4098 004d C9       		leave
 4099              		.cfi_def_cfa 7, 8
 4100 004e C3       		ret
 4101              		.cfi_endproc
 4102              	.LFE1276:
 4103              		.section	.gcc_except_table
 4104              	.LLSDA1276:
 4105 0307 FF       		.byte	0xff
 4106 0308 FF       		.byte	0xff
 4107 0309 01       		.byte	0x1
 4108 030a 08       		.uleb128 .LLSDACSE1276-.LLSDACSB1276
 4109              	.LLSDACSB1276:
 4110 030b 18       		.uleb128 .LEHB136-.LFB1276
 4111 030c 05       		.uleb128 .LEHE136-.LEHB136
 4112 030d 2B       		.uleb128 .L201-.LFB1276
 4113 030e 00       		.uleb128 0
 4114 030f 44       		.uleb128 .LEHB137-.LFB1276
 4115 0310 05       		.uleb128 .LEHE137-.LEHB137
 4116 0311 00       		.uleb128 0
 4117 0312 00       		.uleb128 0
 4118              	.LLSDACSE1276:
 4119              		.section	.text._ZN22TestI2C_testInitialiseD0Ev,"axG",@progbits,_ZN22TestI2C_testInitialiseD5Ev,com
 4121              		.weak	_ZTVN8UnitTest15MemoryOutStreamE
 4122              		.section	.data.rel.ro.local._ZTVN8UnitTest15MemoryOutStreamE,"awG",@progbits,_ZTVN8UnitTest15Memor
 4123              		.align 8
 4126              	_ZTVN8UnitTest15MemoryOutStreamE:
 4127 0000 90000000 		.quad	144
 4127      00000000 
 4128 0008 00000000 		.quad	0
 4128      00000000 
 4129 0010 00000000 		.quad	_ZTIN8UnitTest15MemoryOutStreamE
 4129      00000000 
 4130 0018 00000000 		.quad	_ZN8UnitTest15MemoryOutStreamD1Ev
 4130      00000000 
 4131 0020 00000000 		.quad	_ZN8UnitTest15MemoryOutStreamD0Ev
 4131      00000000 
 4132 0028 70FFFFFF 		.quad	-144
 4132      FFFFFFFF 
 4133 0030 70FFFFFF 		.quad	-144
 4133      FFFFFFFF 
 4134 0038 00000000 		.quad	_ZTIN8UnitTest15MemoryOutStreamE
 4134      00000000 
 4135 0040 00000000 		.quad	_ZTv0_n24_N8UnitTest15MemoryOutStreamD1Ev
 4135      00000000 
 4136 0048 00000000 		.quad	_ZTv0_n24_N8UnitTest15MemoryOutStreamD0Ev
 4136      00000000 
 4137              		.weak	_ZTTN8UnitTest15MemoryOutStreamE
 4138              		.section	.data.rel.ro.local._ZTTN8UnitTest15MemoryOutStreamE,"awG",@progbits,_ZTVN8UnitTest15Memor
 4139              		.align 8
 4142              	_ZTTN8UnitTest15MemoryOutStreamE:
 4143 0000 00000000 		.quad	_ZTVN8UnitTest15MemoryOutStreamE+24
 4143      00000000 
 4144 0008 00000000 		.quad	_ZTCN8UnitTest15MemoryOutStreamE0_NSt7__cxx1119basic_ostringstreamIcSt11char_traitsIcESaIcEE
 4144      00000000 
 4145 0010 00000000 		.quad	_ZTCN8UnitTest15MemoryOutStreamE0_So+24
 4145      00000000 
 4146 0018 00000000 		.quad	_ZTCN8UnitTest15MemoryOutStreamE0_So+64
 4146      00000000 
 4147 0020 00000000 		.quad	_ZTCN8UnitTest15MemoryOutStreamE0_NSt7__cxx1119basic_ostringstreamIcSt11char_traitsIcESaIcEE
 4147      00000000 
 4148 0028 00000000 		.quad	_ZTVN8UnitTest15MemoryOutStreamE+64
 4148      00000000 
 4149              		.hidden	_ZTCN8UnitTest15MemoryOutStreamE0_NSt7__cxx1119basic_ostringstreamIcSt11char_traitsIcESaIc
 4150              		.weak	_ZTCN8UnitTest15MemoryOutStreamE0_NSt7__cxx1119basic_ostringstreamIcSt11char_traitsIcESaIcEE
 4151              		.section	.data.rel.ro._ZTCN8UnitTest15MemoryOutStreamE0_NSt7__cxx1119basic_ostringstreamIcSt11char
 4152              		.align 8
 4155              	_ZTCN8UnitTest15MemoryOutStreamE0_NSt7__cxx1119basic_ostringstreamIcSt11char_traitsIcESaIcEEE:
 4156 0000 90000000 		.quad	144
 4156      00000000 
 4157 0008 00000000 		.quad	0
 4157      00000000 
 4158 0010 00000000 		.quad	_ZTINSt7__cxx1119basic_ostringstreamIcSt11char_traitsIcESaIcEEE
 4158      00000000 
 4159 0018 00000000 		.quad	0
 4159      00000000 
 4160 0020 00000000 		.quad	0
 4160      00000000 
 4161 0028 70FFFFFF 		.quad	-144
 4161      FFFFFFFF 
 4162 0030 70FFFFFF 		.quad	-144
 4162      FFFFFFFF 
 4163 0038 00000000 		.quad	_ZTINSt7__cxx1119basic_ostringstreamIcSt11char_traitsIcESaIcEEE
 4163      00000000 
 4164 0040 00000000 		.quad	0
 4164      00000000 
 4165 0048 00000000 		.quad	0
 4165      00000000 
 4166              		.hidden	_ZTCN8UnitTest15MemoryOutStreamE0_So
 4167              		.weak	_ZTCN8UnitTest15MemoryOutStreamE0_So
 4168              		.section	.data.rel.ro._ZTCN8UnitTest15MemoryOutStreamE0_So,"awG",@progbits,_ZTVN8UnitTest15MemoryO
 4169              		.align 8
 4172              	_ZTCN8UnitTest15MemoryOutStreamE0_So:
 4173 0000 90000000 		.quad	144
 4173      00000000 
 4174 0008 00000000 		.quad	0
 4174      00000000 
 4175 0010 00000000 		.quad	_ZTISo
 4175      00000000 
 4176 0018 00000000 		.quad	0
 4176      00000000 
 4177 0020 00000000 		.quad	0
 4177      00000000 
 4178 0028 70FFFFFF 		.quad	-144
 4178      FFFFFFFF 
 4179 0030 70FFFFFF 		.quad	-144
 4179      FFFFFFFF 
 4180 0038 00000000 		.quad	_ZTISo
 4180      00000000 
 4181 0040 00000000 		.quad	0
 4181      00000000 
 4182 0048 00000000 		.quad	0
 4182      00000000 
 4183              		.weak	_ZTI26TestI2C_testFinaliseNoInit
 4184              		.section	.data.rel.ro._ZTI26TestI2C_testFinaliseNoInit,"awG",@progbits,_ZTI26TestI2C_testFinaliseN
 4185              		.align 8
 4188              	_ZTI26TestI2C_testFinaliseNoInit:
 4189 0000 00000000 		.quad	_ZTVN10__cxxabiv120__si_class_type_infoE+16
 4189      00000000 
 4190 0008 00000000 		.quad	_ZTS26TestI2C_testFinaliseNoInit
 4190      00000000 
 4191 0010 00000000 		.quad	_ZTIN8UnitTest4TestE
 4191      00000000 
 4192              		.weak	_ZTS26TestI2C_testFinaliseNoInit
 4193              		.section	.rodata._ZTS26TestI2C_testFinaliseNoInit,"aG",@progbits,_ZTS26TestI2C_testFinaliseNoInit,
 4194              		.align 16
 4197              	_ZTS26TestI2C_testFinaliseNoInit:
 4198 0000 32365465 		.string	"26TestI2C_testFinaliseNoInit"
 4198      73744932 
 4198      435F7465 
 4198      73744669 
 4198      6E616C69 
 4199              		.weak	_ZTI21TestI2C_testWPRNoInit
 4200              		.section	.data.rel.ro._ZTI21TestI2C_testWPRNoInit,"awG",@progbits,_ZTI21TestI2C_testWPRNoInit,comd
 4201              		.align 8
 4204              	_ZTI21TestI2C_testWPRNoInit:
 4205 0000 00000000 		.quad	_ZTVN10__cxxabiv120__si_class_type_infoE+16
 4205      00000000 
 4206 0008 00000000 		.quad	_ZTS21TestI2C_testWPRNoInit
 4206      00000000 
 4207 0010 00000000 		.quad	_ZTIN8UnitTest4TestE
 4207      00000000 
 4208              		.weak	_ZTS21TestI2C_testWPRNoInit
 4209              		.section	.rodata._ZTS21TestI2C_testWPRNoInit,"aG",@progbits,_ZTS21TestI2C_testWPRNoInit,comdat
 4210              		.align 16
 4213              	_ZTS21TestI2C_testWPRNoInit:
 4214 0000 32315465 		.string	"21TestI2C_testWPRNoInit"
 4214      73744932 
 4214      435F7465 
 4214      73745750 
 4214      524E6F49 
 4215              		.weak	_ZTI21TestI2C_testRoundTrip
 4216              		.section	.data.rel.ro._ZTI21TestI2C_testRoundTrip,"awG",@progbits,_ZTI21TestI2C_testRoundTrip,comd
 4217              		.align 8
 4220              	_ZTI21TestI2C_testRoundTrip:
 4221 0000 00000000 		.quad	_ZTVN10__cxxabiv120__si_class_type_infoE+16
 4221      00000000 
 4222 0008 00000000 		.quad	_ZTS21TestI2C_testRoundTrip
 4222      00000000 
 4223 0010 00000000 		.quad	_ZTIN8UnitTest4TestE
 4223      00000000 
 4224              		.weak	_ZTS21TestI2C_testRoundTrip
 4225              		.section	.rodata._ZTS21TestI2C_testRoundTrip,"aG",@progbits,_ZTS21TestI2C_testRoundTrip,comdat
 4226              		.align 16
 4229              	_ZTS21TestI2C_testRoundTrip:
 4230 0000 32315465 		.string	"21TestI2C_testRoundTrip"
 4230      73744932 
 4230      435F7465 
 4230      7374526F 
 4230      756E6454 
 4231              		.weak	_ZTI22TestI2C_testInitialise
 4232              		.section	.data.rel.ro._ZTI22TestI2C_testInitialise,"awG",@progbits,_ZTI22TestI2C_testInitialise,co
 4233              		.align 8
 4236              	_ZTI22TestI2C_testInitialise:
 4237 0000 00000000 		.quad	_ZTVN10__cxxabiv120__si_class_type_infoE+16
 4237      00000000 
 4238 0008 00000000 		.quad	_ZTS22TestI2C_testInitialise
 4238      00000000 
 4239 0010 00000000 		.quad	_ZTIN8UnitTest4TestE
 4239      00000000 
 4240              		.weak	_ZTS22TestI2C_testInitialise
 4241              		.section	.rodata._ZTS22TestI2C_testInitialise,"aG",@progbits,_ZTS22TestI2C_testInitialise,comdat
 4242              		.align 16
 4245              	_ZTS22TestI2C_testInitialise:
 4246 0000 32325465 		.string	"22TestI2C_testInitialise"
 4246      73744932 
 4246      435F7465 
 4246      7374496E 
 4246      69746961 
 4247              		.weak	_ZTIN8UnitTest15MemoryOutStreamE
 4248              		.section	.data.rel.ro._ZTIN8UnitTest15MemoryOutStreamE,"awG",@progbits,_ZTIN8UnitTest15MemoryOutSt
 4249              		.align 8
 4252              	_ZTIN8UnitTest15MemoryOutStreamE:
 4253 0000 00000000 		.quad	_ZTVN10__cxxabiv120__si_class_type_infoE+16
 4253      00000000 
 4254 0008 00000000 		.quad	_ZTSN8UnitTest15MemoryOutStreamE
 4254      00000000 
 4255 0010 00000000 		.quad	_ZTINSt7__cxx1119basic_ostringstreamIcSt11char_traitsIcESaIcEEE
 4255      00000000 
 4256              		.weak	_ZTSN8UnitTest15MemoryOutStreamE
 4257              		.section	.rodata._ZTSN8UnitTest15MemoryOutStreamE,"aG",@progbits,_ZTSN8UnitTest15MemoryOutStreamE,
 4258              		.align 16
 4261              	_ZTSN8UnitTest15MemoryOutStreamE:
 4262 0000 4E38556E 		.string	"N8UnitTest15MemoryOutStreamE"
 4262      69745465 
 4262      73743135 
 4262      4D656D6F 
 4262      72794F75 
 4263              		.text
 4265              	_Z41__static_initialization_and_destruction_0ii:
 4266              	.LFB1277:
 4267              		.loc 3 115 1 is_stmt 1
 4268              		.cfi_startproc
 4269 1216 F30F1EFA 		endbr64
 4270 121a 55       		pushq	%rbp
 4271              		.cfi_def_cfa_offset 16
 4272              		.cfi_offset 6, -16
 4273 121b 4889E5   		movq	%rsp, %rbp
 4274              		.cfi_def_cfa_register 6
 4275 121e 4883EC10 		subq	$16, %rsp
 4276 1222 897DFC   		movl	%edi, -4(%rbp)
 4277 1225 8975F8   		movl	%esi, -8(%rbp)
 4278              		.loc 3 115 1
 4279 1228 837DFC01 		cmpl	$1, -4(%rbp)
 4280 122c 0F856501 		jne	.L205
 4280      0000
 4281              		.loc 3 115 1 is_stmt 0 discriminator 1
 4282 1232 817DF8FF 		cmpl	$65535, -8(%rbp)
 4282      FF0000
 4283 1239 0F855801 		jne	.L205
 4283      0000
  31:testI2C.cpp   **** 	Buffer i2cBuffer;
 4284              		.loc 3 31 1 is_stmt 1
 4285 123f 488D0500 		leaq	testI2C_testInitialiseInstance(%rip), %rax
 4285      000000
 4286 1246 4889C7   		movq	%rax, %rdi
 4287 1249 E8000000 		call	_ZN22TestI2C_testInitialiseC1Ev
 4287      00
 4288 124e 488D0500 		leaq	__dso_handle(%rip), %rax
 4288      000000
 4289 1255 4889C2   		movq	%rax, %rdx
 4290 1258 488D0500 		leaq	testI2C_testInitialiseInstance(%rip), %rax
 4290      000000
 4291 125f 4889C6   		movq	%rax, %rsi
 4292 1262 488D0500 		leaq	_ZN22TestI2C_testInitialiseD1Ev(%rip), %rax
 4292      000000
 4293 1269 4889C7   		movq	%rax, %rdi
 4294 126c E8000000 		call	__cxa_atexit@PLT
 4294      00
 4295 1271 E8000000 		call	_ZN8UnitTest4Test11GetTestListEv@PLT
 4295      00
 4296 1276 4889C1   		movq	%rax, %rcx
 4297 1279 488D0500 		leaq	testI2C_testInitialiseInstance(%rip), %rax
 4297      000000
 4298 1280 4889C2   		movq	%rax, %rdx
 4299 1283 4889CE   		movq	%rcx, %rsi
 4300 1286 488D0500 		leaq	adderI2C_testInitialise(%rip), %rax
 4300      000000
 4301 128d 4889C7   		movq	%rax, %rdi
 4302 1290 E8000000 		call	_ZN8UnitTest9ListAdderC1ERNS_8TestListEPNS_4TestE@PLT
 4302      00
  47:testI2C.cpp   **** 	uint32 i, j;
 4303              		.loc 3 47 1
 4304 1295 488D0500 		leaq	testI2C_testRoundTripInstance(%rip), %rax
 4304      000000
 4305 129c 4889C7   		movq	%rax, %rdi
 4306 129f E8000000 		call	_ZN21TestI2C_testRoundTripC1Ev
 4306      00
 4307 12a4 488D0500 		leaq	__dso_handle(%rip), %rax
 4307      000000
 4308 12ab 4889C2   		movq	%rax, %rdx
 4309 12ae 488D0500 		leaq	testI2C_testRoundTripInstance(%rip), %rax
 4309      000000
 4310 12b5 4889C6   		movq	%rax, %rsi
 4311 12b8 488D0500 		leaq	_ZN21TestI2C_testRoundTripD1Ev(%rip), %rax
 4311      000000
 4312 12bf 4889C7   		movq	%rax, %rdi
 4313 12c2 E8000000 		call	__cxa_atexit@PLT
 4313      00
 4314 12c7 E8000000 		call	_ZN8UnitTest4Test11GetTestListEv@PLT
 4314      00
 4315 12cc 4889C1   		movq	%rax, %rcx
 4316 12cf 488D0500 		leaq	testI2C_testRoundTripInstance(%rip), %rax
 4316      000000
 4317 12d6 4889C2   		movq	%rax, %rdx
 4318 12d9 4889CE   		movq	%rcx, %rsi
 4319 12dc 488D0500 		leaq	adderI2C_testRoundTrip(%rip), %rax
 4319      000000
 4320 12e3 4889C7   		movq	%rax, %rdi
 4321 12e6 E8000000 		call	_ZN8UnitTest9ListAdderC1ERNS_8TestListEPNS_4TestE@PLT
 4321      00
  95:testI2C.cpp   **** 	Buffer i2cBuffer;
 4322              		.loc 3 95 1
 4323 12eb 488D0500 		leaq	testI2C_testWPRNoInitInstance(%rip), %rax
 4323      000000
 4324 12f2 4889C7   		movq	%rax, %rdi
 4325 12f5 E8000000 		call	_ZN21TestI2C_testWPRNoInitC1Ev
 4325      00
 4326 12fa 488D0500 		leaq	__dso_handle(%rip), %rax
 4326      000000
 4327 1301 4889C2   		movq	%rax, %rdx
 4328 1304 488D0500 		leaq	testI2C_testWPRNoInitInstance(%rip), %rax
 4328      000000
 4329 130b 4889C6   		movq	%rax, %rsi
 4330 130e 488D0500 		leaq	_ZN21TestI2C_testWPRNoInitD1Ev(%rip), %rax
 4330      000000
 4331 1315 4889C7   		movq	%rax, %rdi
 4332 1318 E8000000 		call	__cxa_atexit@PLT
 4332      00
 4333 131d E8000000 		call	_ZN8UnitTest4Test11GetTestListEv@PLT
 4333      00
 4334 1322 4889C1   		movq	%rax, %rcx
 4335 1325 488D0500 		leaq	testI2C_testWPRNoInitInstance(%rip), %rax
 4335      000000
 4336 132c 4889C2   		movq	%rax, %rdx
 4337 132f 4889CE   		movq	%rcx, %rsi
 4338 1332 488D0500 		leaq	adderI2C_testWPRNoInit(%rip), %rax
 4338      000000
 4339 1339 4889C7   		movq	%rax, %rdi
 4340 133c E8000000 		call	_ZN8UnitTest9ListAdderC1ERNS_8TestListEPNS_4TestE@PLT
 4340      00
 106:testI2C.cpp   **** 	Buffer buf;
 4341              		.loc 3 106 1
 4342 1341 488D0500 		leaq	testI2C_testFinaliseNoInitInstance(%rip), %rax
 4342      000000
 4343 1348 4889C7   		movq	%rax, %rdi
 4344 134b E8000000 		call	_ZN26TestI2C_testFinaliseNoInitC1Ev
 4344      00
 4345 1350 488D0500 		leaq	__dso_handle(%rip), %rax
 4345      000000
 4346 1357 4889C2   		movq	%rax, %rdx
 4347 135a 488D0500 		leaq	testI2C_testFinaliseNoInitInstance(%rip), %rax
 4347      000000
 4348 1361 4889C6   		movq	%rax, %rsi
 4349 1364 488D0500 		leaq	_ZN26TestI2C_testFinaliseNoInitD1Ev(%rip), %rax
 4349      000000
 4350 136b 4889C7   		movq	%rax, %rdi
 4351 136e E8000000 		call	__cxa_atexit@PLT
 4351      00
 4352 1373 E8000000 		call	_ZN8UnitTest4Test11GetTestListEv@PLT
 4352      00
 4353 1378 4889C1   		movq	%rax, %rcx
 4354 137b 488D0500 		leaq	testI2C_testFinaliseNoInitInstance(%rip), %rax
 4354      000000
 4355 1382 4889C2   		movq	%rax, %rdx
 4356 1385 4889CE   		movq	%rcx, %rsi
 4357 1388 488D0500 		leaq	adderI2C_testFinaliseNoInit(%rip), %rax
 4357      000000
 4358 138f 4889C7   		movq	%rax, %rdi
 4359 1392 E8000000 		call	_ZN8UnitTest9ListAdderC1ERNS_8TestListEPNS_4TestE@PLT
 4359      00
 4360              	.L205:
 4361              		.loc 3 115 1
 4362 1397 90       		nop
 4363 1398 C9       		leave
 4364              		.cfi_def_cfa 7, 8
 4365 1399 C3       		ret
 4366              		.cfi_endproc
 4367              	.LFE1277:
 4370              	_GLOBAL__sub_I_testI2C_testInitialiseInstance:
 4371              	.LFB1278:
 4372              		.loc 3 115 1
 4373              		.cfi_startproc
 4374 139a F30F1EFA 		endbr64
 4375 139e 55       		pushq	%rbp
 4376              		.cfi_def_cfa_offset 16
 4377              		.cfi_offset 6, -16
 4378 139f 4889E5   		movq	%rsp, %rbp
 4379              		.cfi_def_cfa_register 6
 4380              		.loc 3 115 1
 4381 13a2 BEFFFF00 		movl	$65535, %esi
 4381      00
 4382 13a7 BF010000 		movl	$1, %edi
 4382      00
 4383 13ac E865FEFF 		call	_Z41__static_initialization_and_destruction_0ii
 4383      FF
 4384 13b1 5D       		popq	%rbp
 4385              		.cfi_def_cfa 7, 8
 4386 13b2 C3       		ret
 4387              		.cfi_endproc
 4388              	.LFE1278:
 4390              		.section	.init_array,"aw"
 4391              		.align 8
 4392 0000 00000000 		.quad	_GLOBAL__sub_I_testI2C_testInitialiseInstance
 4392      00000000 
 4393              		.text
 4394              	.Letext0:
 4395              		.file 5 "/home/asoreyh/Dropbox/projects/lago/acqua/nexys/src/makestuff/libs/libutpp/TestDetails.h"
 4396              		.file 6 "/home/asoreyh/Dropbox/projects/lago/acqua/nexys/src/makestuff/libs/libutpp/TestList.h"
 4397              		.file 7 "/home/asoreyh/Dropbox/projects/lago/acqua/nexys/src/makestuff/libs/libutpp/Test.h"
 4398              		.file 8 "/home/asoreyh/Dropbox/projects/lago/acqua/nexys/src/makestuff/libs/libutpp/TestResults.h"
 4399              		.file 9 "/home/asoreyh/Dropbox/projects/lago/acqua/nexys/src/makestuff/libs/libutpp/CurrentTest.h"
 4400              		.file 10 "<built-in>"
 4401              		.file 11 "/usr/lib/gcc/x86_64-linux-gnu/12/include/stddef.h"
 4402              		.file 12 "/usr/include/x86_64-linux-gnu/bits/types/wint_t.h"
 4403              		.file 13 "/usr/include/x86_64-linux-gnu/bits/types/__mbstate_t.h"
 4404              		.file 14 "/usr/include/x86_64-linux-gnu/bits/types/mbstate_t.h"
 4405              		.file 15 "/usr/include/x86_64-linux-gnu/bits/types/__FILE.h"
 4406              		.file 16 "/usr/include/c++/12/cwchar"
 4407              		.file 17 "/usr/include/c++/12/bits/char_traits.h"
 4408              		.file 18 "/usr/include/x86_64-linux-gnu/c++/12/bits/c++config.h"
 4409              		.file 19 "/usr/include/c++/12/clocale"
 4410              		.file 20 "/usr/include/c++/12/bits/new_allocator.h"
 4411              		.file 21 "/usr/include/c++/12/bits/allocator.h"
 4412              		.file 22 "/usr/include/c++/12/bits/basic_string.h"
 4413              		.file 23 "/usr/include/c++/12/bits/basic_string.tcc"
 4414              		.file 24 "/usr/include/c++/12/sstream"
 4415              		.file 25 "/usr/include/c++/12/bits/stringfwd.h"
 4416              		.file 26 "/usr/include/c++/12/cwctype"
 4417              		.file 27 "/usr/include/c++/12/bits/ostream.tcc"
 4418              		.file 28 "/usr/include/c++/12/ostream"
 4419              		.file 29 "/usr/include/c++/12/bits/basic_ios.h"
 4420              		.file 30 "/usr/include/wchar.h"
 4421              		.file 31 "/usr/include/x86_64-linux-gnu/bits/types/struct_tm.h"
 4422              		.file 32 "/usr/include/c++/12/debug/debug.h"
 4423              		.file 33 "/usr/include/c++/12/bits/predefined_ops.h"
 4424              		.file 34 "/usr/include/c++/12/ext/alloc_traits.h"
 4425              		.file 35 "/usr/include/locale.h"
 4426              		.file 36 "/usr/include/x86_64-linux-gnu/bits/types.h"
 4427              		.file 37 "/usr/include/x86_64-linux-gnu/bits/wctype-wchar.h"
 4428              		.file 38 "/usr/include/wctype.h"
 4429              		.file 39 "/home/asoreyh/Dropbox/projects/lago/acqua/nexys/src/makestuff/common/makestuff.h"
 4430              		.file 40 "/home/asoreyh/Dropbox/projects/lago/acqua/nexys/src/makestuff/libs/libbuffer/libbuffer.h
 4431              		.file 41 "../libfx2loader.h"
 4432              		.file 42 "/usr/include/c++/12/new"
 16007              		.align 8
 16010              	DW.ref.__gxx_personality_v0:
 16011 0000 00000000 		.quad	__gxx_personality_v0
 16011      00000000 
 16012              		.hidden	__dso_handle
 16013              		.ident	"GCC: (Ubuntu 12.2.0-17ubuntu1) 12.2.0"
 16014              		.section	.note.GNU-stack,"",@progbits
 16015              		.section	.note.gnu.property,"a"
 16016              		.align 8
 16017 0000 04000000 		.long	1f - 0f
 16018 0004 10000000 		.long	4f - 1f
 16019 0008 05000000 		.long	5
 16020              	0:
 16021 000c 474E5500 		.string	"GNU"
 16022              	1:
 16023              		.align 8
 16024 0010 020000C0 		.long	0xc0000002
 16025 0014 04000000 		.long	3f - 2f
 16026              	2:
 16027 0018 03000000 		.long	0x3
 16028              	3:
 16029 001c 00000000 		.align 8
 16030              	4: