   1              		.file	"testError.cpp"
   2              		.text
   3              		.align 2
   4              		.p2align 4
   5              		.globl	_ZNK24TestError_testNullRender7RunImplEv
   7              	_ZNK24TestError_testNullRender7RunImplEv:
   8              	.LFB1277:
   9              		.cfi_startproc
  10 0000 F30F1EFA 		endbr64
  11 0004 488D3D00 		leaq	25+buf(%rip), %rdi
  11      000000
  12 000b 488D0D00 		leaq	17+buf(%rip), %rcx
  12      000000
  13 0012 660F6F05 		movdqa	.LC0(%rip), %xmm0
  13      00000000 
  14 001a 48B82E2E 		movabsq	$3327647950551526958, %rax
  14      2E2E2E2E 
  14      2E2E
  15 0024 4883E7F8 		andq	$-8, %rdi
  16 0028 48890500 		movq	%rax, 17+buf(%rip)
  16      000000
  17 002f 488D3500 		leaq	buf(%rip), %rsi
  17      000000
  18 0036 4829F9   		subq	%rdi, %rcx
  19 0039 48890500 		movq	%rax, 1016+buf(%rip)
  19      000000
  20 0040 81C1EF03 		addl	$1007, %ecx
  20      0000
  21 0046 C6050000 		movb	$0, 16+buf(%rip)
  21      000000
  22 004d C1E903   		shrl	$3, %ecx
  23 0050 0F290500 		movaps	%xmm0, buf(%rip)
  23      000000
  24 0057 F348AB   		rep stosq
  25 005a 31FF     		xorl	%edi, %edi
  26 005c 31C0     		xorl	%eax, %eax
  27 005e E9000000 		jmp	errRender@PLT
  27      00
  28              		.cfi_endproc
  29              	.LFE1277:
  31              		.section	.rodata.str1.8,"aMS",@progbits,1
  32              		.align 8
  33              	.LC1:
  34 0000 556E6861 		.string	"Unhandled exception in CHECK_EQUAL(buf, error)"
  34      6E646C65 
  34      64206578 
  34      63657074 
  34      696F6E20 
  35              		.section	.text.unlikely,"ax",@progbits
  36              		.align 2
  37              	.LCOLDB2:
  38              		.text
  39              	.LHOTB2:
  40 0063 90       		.align 2
  41 0064 66662E0F 		.p2align 4
  41      1F840000 
  41      00000090 
  42              		.globl	_ZNK20TestError_testRender7RunImplEv
  44              	_ZNK20TestError_testRender7RunImplEv:
  45              	.LFB1281:
  46              		.cfi_startproc
  47              		.cfi_personality 0x9b,DW.ref.__gxx_personality_v0
  48              		.cfi_lsda 0x1b,.LLSDA1281
  49 0070 F30F1EFA 		endbr64
  50 0074 4157     		pushq	%r15
  51              		.cfi_def_cfa_offset 16
  52              		.cfi_offset 15, -16
  53 0076 4156     		pushq	%r14
  54              		.cfi_def_cfa_offset 24
  55              		.cfi_offset 14, -24
  56 0078 4155     		pushq	%r13
  57              		.cfi_def_cfa_offset 32
  58              		.cfi_offset 13, -32
  59 007a 49BD2E2E 		movabsq	$3327647950551526958, %r13
  59      2E2E2E2E 
  59      2E2E
  60 0084 4154     		pushq	%r12
  61              		.cfi_def_cfa_offset 40
  62              		.cfi_offset 12, -40
  63 0086 55       		pushq	%rbp
  64              		.cfi_def_cfa_offset 48
  65              		.cfi_offset 6, -48
  66 0087 BDF40100 		movl	$500, %ebp
  66      00
  67 008c 53       		pushq	%rbx
  68              		.cfi_def_cfa_offset 56
  69              		.cfi_offset 3, -56
  70 008d 488D1D00 		leaq	501+buf(%rip), %rbx
  70      000000
  71 0094 4C8DA30B 		leaq	-501(%rbx), %r12
  71      FEFFFF
  72 009b 4883EC58 		subq	$88, %rsp
  73              		.cfi_def_cfa_offset 144
  74 009f 64488B04 		movq	%fs:40, %rax
  74      25280000 
  74      00
  75 00a8 48894424 		movq	%rax, 72(%rsp)
  75      48
  76 00ad 31C0     		xorl	%eax, %eax
  77 00af 488D4424 		leaq	24(%rsp), %rax
  77      18
  78 00b4 4C8D7424 		leaq	32(%rsp), %r14
  78      20
  79 00b9 48890424 		movq	%rax, (%rsp)
  80 00bd 0F1F00   		.p2align 4,,10
  81              		.p2align 3
  82              	.L4:
  83 00c0 89E9     		movl	%ebp, %ecx
  84 00c2 4C89E7   		movq	%r12, %rdi
  85 00c5 89EA     		movl	%ebp, %edx
  86 00c7 48B84141 		movabsq	$4702111234474983745, %rax
  86      41414141 
  86      4141
  87 00d1 C1E903   		shrl	$3, %ecx
  88 00d4 F348AB   		rep stosq
  89 00d7 40F6C504 		testb	$4, %bpl
  90 00db 740A     		je	.L6
  91 00dd C7074141 		movl	$1094795585, (%rdi)
  91      4141
  92 00e3 4883C704 		addq	$4, %rdi
  93              	.L6:
  94 00e7 F6C202   		testb	$2, %dl
  95 00ea 740D     		je	.L7
  96 00ec B8414100 		movl	$16705, %eax
  96      00
  97 00f1 4883C702 		addq	$2, %rdi
  98 00f5 668947FE 		movw	%ax, -2(%rdi)
  99              	.L7:
 100 00f9 83E201   		andl	$1, %edx
 101 00fc 7403     		je	.L8
 102 00fe C60741   		movb	$65, (%rdi)
 103              	.L8:
 104 0101 B9FF0300 		movl	$1023, %ecx
 104      00
 105 0106 488D7B08 		leaq	8(%rbx), %rdi
 106 010a 4C892B   		movq	%r13, (%rbx)
 107 010d 4C89E6   		movq	%r12, %rsi
 108 0110 4829E9   		subq	%rbp, %rcx
 109 0113 C643FF00 		movb	$0, -1(%rbx)
 110 0117 4883E7F8 		andq	$-8, %rdi
 111 011b 89C8     		movl	%ecx, %eax
 112 011d 4C896C03 		movq	%r13, -8(%rbx,%rax)
 112      F8
 113 0122 4889D8   		movq	%rbx, %rax
 114 0125 4829F8   		subq	%rdi, %rax
 115 0128 01C1     		addl	%eax, %ecx
 116 012a 4C89E8   		movq	%r13, %rax
 117 012d C1E903   		shrl	$3, %ecx
 118 0130 F348AB   		rep stosq
 119 0133 31C0     		xorl	%eax, %eax
 120 0135 488B3C24 		movq	(%rsp), %rdi
 121              	.LEHB0:
 122 0139 E8000000 		call	errRender@PLT
 122      00
 123              	.LEHE0:
 124              	.LEHB1:
 125 013e E8000000 		call	_ZN8UnitTest11CurrentTest7DetailsEv@PLT
 125      00
 126 0143 488B30   		movq	(%rax), %rsi
 127 0146 BA300000 		movl	$48, %edx
 127      00
 128 014b 4C89F7   		movq	%r14, %rdi
 129 014e E8000000 		call	_ZN8UnitTest11TestDetailsC1ERKS0_i@PLT
 129      00
 130 0153 4C8B7C24 		movq	24(%rsp), %r15
 130      18
 131 0158 E8000000 		call	_ZN8UnitTest11CurrentTest7ResultsEv@PLT
 131      00
 132 015d 488B38   		movq	(%rax), %rdi
 133 0160 4C89F1   		movq	%r14, %rcx
 134 0163 4C89FA   		movq	%r15, %rdx
 135 0166 4C89E6   		movq	%r12, %rsi
 136 0169 E8000000 		call	_ZN8UnitTest10CheckEqualERNS_11TestResultsEPcPKcRKNS_11TestDetailsE@PLT
 136      00
 137              	.LEHE1:
 138              	.L11:
 139 016e 488B7C24 		movq	24(%rsp), %rdi
 139      18
 140 0173 4883C501 		addq	$1, %rbp
 141 0177 4883C301 		addq	$1, %rbx
 142              	.LEHB2:
 143 017b E8000000 		call	errFree@PLT
 143      00
 144              	.LEHE2:
 145 0180 4881FD04 		cmpq	$516, %rbp
 145      020000
 146 0187 0F8533FF 		jne	.L4
 146      FFFF
 147 018d 488B4424 		movq	72(%rsp), %rax
 147      48
 148 0192 64482B04 		subq	%fs:40, %rax
 148      25280000 
 148      00
 149 019b 750F     		jne	.L27
 150 019d 4883C458 		addq	$88, %rsp
 151              		.cfi_remember_state
 152              		.cfi_def_cfa_offset 56
 153 01a1 5B       		popq	%rbx
 154              		.cfi_def_cfa_offset 48
 155 01a2 5D       		popq	%rbp
 156              		.cfi_def_cfa_offset 40
 157 01a3 415C     		popq	%r12
 158              		.cfi_def_cfa_offset 32
 159 01a5 415D     		popq	%r13
 160              		.cfi_def_cfa_offset 24
 161 01a7 415E     		popq	%r14
 162              		.cfi_def_cfa_offset 16
 163 01a9 415F     		popq	%r15
 164              		.cfi_def_cfa_offset 8
 165 01ab C3       		ret
 166              	.L27:
 167              		.cfi_restore_state
 168 01ac E8000000 		call	__stack_chk_fail@PLT
 168      00
 169              	.L14:
 170 01b1 F30F1EFA 		endbr64
 171 01b5 4889C7   		movq	%rax, %rdi
 172 01b8 E9000000 		jmp	.L10
 172      00
 173              		.globl	__gxx_personality_v0
 174              		.section	.gcc_except_table,"a",@progbits
 175              		.align 4
 176              	.LLSDA1281:
 177 0000 FF       		.byte	0xff
 178 0001 9B       		.byte	0x9b
 179 0002 19       		.uleb128 .LLSDATT1281-.LLSDATTD1281
 180              	.LLSDATTD1281:
 181 0003 01       		.byte	0x1
 182 0004 10       		.uleb128 .LLSDACSE1281-.LLSDACSB1281
 183              	.LLSDACSB1281:
 184 0005 C901     		.uleb128 .LEHB0-.LFB1281
 185 0007 05       		.uleb128 .LEHE0-.LEHB0
 186 0008 00       		.uleb128 0
 187 0009 00       		.uleb128 0
 188 000a CE01     		.uleb128 .LEHB1-.LFB1281
 189 000c 30       		.uleb128 .LEHE1-.LEHB1
 190 000d C102     		.uleb128 .L14-.LFB1281
 191 000f 01       		.uleb128 0x1
 192 0010 8B02     		.uleb128 .LEHB2-.LFB1281
 193 0012 05       		.uleb128 .LEHE2-.LEHB2
 194 0013 00       		.uleb128 0
 195 0014 00       		.uleb128 0
 196              	.LLSDACSE1281:
 197 0015 01       		.byte	0x1
 198 0016 00       		.byte	0
 199 0017 00       		.align 4
 200 0018 00000000 		.long	0
 201              	
 202              	.LLSDATT1281:
 203              		.text
 204              		.cfi_endproc
 205              		.section	.text.unlikely
 206              		.cfi_startproc
 207              		.cfi_personality 0x9b,DW.ref.__gxx_personality_v0
 208              		.cfi_lsda 0x1b,.LLSDAC1281
 210              	_ZNK20TestError_testRender7RunImplEv.cold:
 211              	.LFSB1281:
 212              	.L10:
 213              		.cfi_def_cfa_offset 144
 214              		.cfi_offset 3, -56
 215              		.cfi_offset 6, -48
 216              		.cfi_offset 12, -40
 217              		.cfi_offset 13, -32
 218              		.cfi_offset 14, -24
 219              		.cfi_offset 15, -16
 220 0000 E8000000 		call	__cxa_begin_catch@PLT
 220      00
 221              	.LEHB3:
 222 0005 E8000000 		call	_ZN8UnitTest11CurrentTest7ResultsEv@PLT
 222      00
 223 000a 488B00   		movq	(%rax), %rax
 224 000d 48894424 		movq	%rax, 8(%rsp)
 224      08
 225 0012 E8000000 		call	_ZN8UnitTest11CurrentTest7DetailsEv@PLT
 225      00
 226 0017 4C8D7C24 		leaq	32(%rsp), %r15
 226      20
 227 001c 488B30   		movq	(%rax), %rsi
 228 001f BA300000 		movl	$48, %edx
 228      00
 229 0024 4C89FF   		movq	%r15, %rdi
 230 0027 E8000000 		call	_ZN8UnitTest11TestDetailsC1ERKS0_i@PLT
 230      00
 231 002c 488B7C24 		movq	8(%rsp), %rdi
 231      08
 232 0031 488D1500 		leaq	.LC1(%rip), %rdx
 232      000000
 233 0038 4C89FE   		movq	%r15, %rsi
 234 003b E8000000 		call	_ZN8UnitTest11TestResults13OnTestFailureERKNS_11TestDetailsEPKc@PLT
 234      00
 235              	.LEHE3:
 236              	.LEHB4:
 237 0040 E8000000 		call	__cxa_end_catch@PLT
 237      00
 238              	.LEHE4:
 239 0045 E9000000 		jmp	.L11
 239      00
 240              	.L15:
 241 004a F30F1EFA 		endbr64
 242 004e 4889C3   		movq	%rax, %rbx
 243 0051 E8000000 		call	__cxa_end_catch@PLT
 243      00
 244 0056 4889DF   		movq	%rbx, %rdi
 245              	.LEHB5:
 246 0059 E8000000 		call	_Unwind_Resume@PLT
 246      00
 247              	.LEHE5:
 248              		.cfi_endproc
 249              	.LFE1281:
 250              		.section	.gcc_except_table
 251              		.align 4
 252              	.LLSDAC1281:
 253 001c FF       		.byte	0xff
 254 001d 9B       		.byte	0x9b
 255 001e 15       		.uleb128 .LLSDATTC1281-.LLSDATTDC1281
 256              	.LLSDATTDC1281:
 257 001f 01       		.byte	0x1
 258 0020 0C       		.uleb128 .LLSDACSEC1281-.LLSDACSBC1281
 259              	.LLSDACSBC1281:
 260 0021 05       		.uleb128 .LEHB3-.LCOLDB2
 261 0022 3B       		.uleb128 .LEHE3-.LEHB3
 262 0023 4A       		.uleb128 .L15-.LCOLDB2
 263 0024 00       		.uleb128 0
 264 0025 40       		.uleb128 .LEHB4-.LCOLDB2
 265 0026 05       		.uleb128 .LEHE4-.LEHB4
 266 0027 00       		.uleb128 0
 267 0028 00       		.uleb128 0
 268 0029 59       		.uleb128 .LEHB5-.LCOLDB2
 269 002a 05       		.uleb128 .LEHE5-.LEHB5
 270 002b 00       		.uleb128 0
 271 002c 00       		.uleb128 0
 272              	.LLSDACSEC1281:
 273 002d 01       		.byte	0x1
 274 002e 00       		.byte	0
 275 002f 00       		.align 4
 276 0030 00000000 		.long	0
 277              	
 278              	.LLSDATTC1281:
 279              		.section	.text.unlikely
 280              		.text
 282              		.section	.text.unlikely
 284              	.LCOLDE2:
 285              		.text
 286              	.LHOTE2:
 287 01bd 90       		.align 2
 288 01be 6690     		.p2align 4
 289              		.globl	_ZNK27TestError_testNullStdRender7RunImplEv
 291              	_ZNK27TestError_testNullStdRender7RunImplEv:
 292              	.LFB1285:
 293              		.cfi_startproc
 294 01c0 F30F1EFA 		endbr64
 295 01c4 488D3D00 		leaq	25+buf(%rip), %rdi
 295      000000
 296 01cb 488D0D00 		leaq	17+buf(%rip), %rcx
 296      000000
 297 01d2 660F6F05 		movdqa	.LC0(%rip), %xmm0
 297      00000000 
 298 01da 48B82E2E 		movabsq	$3327647950551526958, %rax
 298      2E2E2E2E 
 298      2E2E
 299 01e4 4883E7F8 		andq	$-8, %rdi
 300 01e8 C6050000 		movb	$0, 16+buf(%rip)
 300      000000
 301 01ef 4829F9   		subq	%rdi, %rcx
 302 01f2 48890500 		movq	%rax, 17+buf(%rip)
 302      000000
 303 01f9 81C1EF03 		addl	$1007, %ecx
 303      0000
 304 01ff 48890500 		movq	%rax, 1016+buf(%rip)
 304      000000
 305 0206 C1E903   		shrl	$3, %ecx
 306 0209 0F290500 		movaps	%xmm0, buf(%rip)
 306      000000
 307 0210 F348AB   		rep stosq
 308 0213 31FF     		xorl	%edi, %edi
 309 0215 E9000000 		jmp	errRenderStd@PLT
 309      00
 310              		.cfi_endproc
 311              	.LFE1285:
 313              		.section	.rodata.str1.1,"aMS",@progbits,1
 314              	.LC3:
 315 0000 7200     		.string	"r"
 316              	.LC4:
 317 0002 6E6F6E45 		.string	"nonExistentFile.txt"
 317      78697374 
 317      656E7446 
 317      696C652E 
 317      74787400 
 318              	.LC5:
 319 0016 216600   		.string	"!f"
 320              		.section	.rodata.str1.8
 321 002f 00       		.align 8
 322              	.LC6:
 323 0030 556E6861 		.string	"Unhandled exception in CHECK(!f)"
 323      6E646C65 
 323      64206578 
 323      63657074 
 323      696F6E20 
 324 0051 00000000 		.align 8
 324      000000
 325              	.LC7:
 326 0058 556E6861 		.string	"Unhandled exception in CHECK_EQUAL(expected, error)"
 326      6E646C65 
 326      64206578 
 326      63657074 
 326      696F6E20 
 327              		.section	.text.unlikely
 328              		.align 2
 329              	.LCOLDB8:
 330              		.text
 331              	.LHOTB8:
 332              		.align 2
 333 021a 660F1F44 		.p2align 4
 333      0000
 334              		.globl	_ZNK23TestError_testStdRender7RunImplEv
 336              	_ZNK23TestError_testStdRender7RunImplEv:
 337              	.LFB1289:
 338              		.cfi_startproc
 339              		.cfi_personality 0x9b,DW.ref.__gxx_personality_v0
 340              		.cfi_lsda 0x1b,.LLSDA1289
 341 0220 F30F1EFA 		endbr64
 342 0224 4155     		pushq	%r13
 343              		.cfi_def_cfa_offset 16
 344              		.cfi_offset 13, -16
 345 0226 4154     		pushq	%r12
 346              		.cfi_def_cfa_offset 24
 347              		.cfi_offset 12, -24
 348 0228 4C8D2500 		leaq	.LC4(%rip), %r12
 348      000000
 349 022f 55       		pushq	%rbp
 350              		.cfi_def_cfa_offset 32
 351              		.cfi_offset 6, -32
 352 0230 488D2D00 		leaq	.LC3(%rip), %rbp
 352      000000
 353 0237 4C89E7   		movq	%r12, %rdi
 354 023a 53       		pushq	%rbx
 355              		.cfi_def_cfa_offset 40
 356              		.cfi_offset 3, -40
 357 023b 4889EE   		movq	%rbp, %rsi
 358 023e 4883EC48 		subq	$72, %rsp
 359              		.cfi_def_cfa_offset 112
 360 0242 64488B04 		movq	%fs:40, %rax
 360      25280000 
 360      00
 361 024b 48894424 		movq	%rax, 56(%rsp)
 361      38
 362 0250 31C0     		xorl	%eax, %eax
 363              	.LEHB6:
 364 0252 E8000000 		call	fopen@PLT
 364      00
 365              	.LEHE6:
 366 0257 4885C0   		testq	%rax, %rax
 367 025a 7434     		je	.L30
 368              	.LEHB7:
 369 025c E8000000 		call	_ZN8UnitTest11CurrentTest7ResultsEv@PLT
 369      00
 370 0261 4C8B28   		movq	(%rax), %r13
 371 0264 E8000000 		call	_ZN8UnitTest11CurrentTest7DetailsEv@PLT
 371      00
 372 0269 488D5C24 		leaq	16(%rsp), %rbx
 372      10
 373 026e 488B30   		movq	(%rax), %rsi
 374 0271 BA3E0000 		movl	$62, %edx
 374      00
 375 0276 4889DF   		movq	%rbx, %rdi
 376 0279 E8000000 		call	_ZN8UnitTest11TestDetailsC1ERKS0_i@PLT
 376      00
 377 027e 488D1500 		leaq	.LC5(%rip), %rdx
 377      000000
 378 0285 4889DE   		movq	%rbx, %rsi
 379 0288 4C89EF   		movq	%r13, %rdi
 380 028b E8000000 		call	_ZN8UnitTest11TestResults13OnTestFailureERKNS_11TestDetailsEPKc@PLT
 380      00
 381              	.LEHE7:
 382              	.L30:
 383 0290 488D7C24 		leaq	8(%rsp), %rdi
 383      08
 384              	.LEHB8:
 385 0295 E8000000 		call	errRenderStd@PLT
 385      00
 386 029a 4889EE   		movq	%rbp, %rsi
 387 029d 4C89E7   		movq	%r12, %rdi
 388 02a0 E8000000 		call	fopen@PLT
 388      00
 389              	.LEHE8:
 390 02a5 4885C0   		testq	%rax, %rax
 391 02a8 7434     		je	.L31
 392              	.LEHB9:
 393 02aa E8000000 		call	_ZN8UnitTest11CurrentTest7ResultsEv@PLT
 393      00
 394 02af 488B28   		movq	(%rax), %rbp
 395 02b2 E8000000 		call	_ZN8UnitTest11CurrentTest7DetailsEv@PLT
 395      00
 396 02b7 488D5C24 		leaq	16(%rsp), %rbx
 396      10
 397 02bc 488B30   		movq	(%rax), %rsi
 398 02bf BA410000 		movl	$65, %edx
 398      00
 399 02c4 4889DF   		movq	%rbx, %rdi
 400 02c7 E8000000 		call	_ZN8UnitTest11TestDetailsC1ERKS0_i@PLT
 400      00
 401 02cc 488D1500 		leaq	.LC5(%rip), %rdx
 401      000000
 402 02d3 4889DE   		movq	%rbx, %rsi
 403 02d6 4889EF   		movq	%rbp, %rdi
 404 02d9 E8000000 		call	_ZN8UnitTest11TestResults13OnTestFailureERKNS_11TestDetailsEPKc@PLT
 404      00
 405              	.LEHE9:
 406              	.L31:
 407 02de E8000000 		call	__errno_location@PLT
 407      00
 408 02e3 8B38     		movl	(%rax), %edi
 409 02e5 E8000000 		call	strerror@PLT
 409      00
 410 02ea 4889C5   		movq	%rax, %rbp
 411              	.LEHB10:
 412 02ed E8000000 		call	_ZN8UnitTest11CurrentTest7DetailsEv@PLT
 412      00
 413 02f2 488D5C24 		leaq	16(%rsp), %rbx
 413      10
 414 02f7 488B30   		movq	(%rax), %rsi
 415 02fa BA430000 		movl	$67, %edx
 415      00
 416 02ff 4889DF   		movq	%rbx, %rdi
 417 0302 E8000000 		call	_ZN8UnitTest11TestDetailsC1ERKS0_i@PLT
 417      00
 418 0307 4C8B6424 		movq	8(%rsp), %r12
 418      08
 419 030c E8000000 		call	_ZN8UnitTest11CurrentTest7ResultsEv@PLT
 419      00
 420 0311 488B38   		movq	(%rax), %rdi
 421 0314 4889D9   		movq	%rbx, %rcx
 422 0317 4C89E2   		movq	%r12, %rdx
 423 031a 4889EE   		movq	%rbp, %rsi
 424 031d E8000000 		call	_ZN8UnitTest10CheckEqualERNS_11TestResultsEPKcS3_RKNS_11TestDetailsE@PLT
 424      00
 425              	.LEHE10:
 426              	.L37:
 427 0322 488B7C24 		movq	8(%rsp), %rdi
 427      08
 428              	.LEHB11:
 429 0327 E8000000 		call	errFree@PLT
 429      00
 430              	.LEHE11:
 431 032c 488B4424 		movq	56(%rsp), %rax
 431      38
 432 0331 64482B04 		subq	%fs:40, %rax
 432      25280000 
 432      00
 433 033a 750B     		jne	.L54
 434 033c 4883C448 		addq	$72, %rsp
 435              		.cfi_remember_state
 436              		.cfi_def_cfa_offset 40
 437 0340 5B       		popq	%rbx
 438              		.cfi_def_cfa_offset 32
 439 0341 5D       		popq	%rbp
 440              		.cfi_def_cfa_offset 24
 441 0342 415C     		popq	%r12
 442              		.cfi_def_cfa_offset 16
 443 0344 415D     		popq	%r13
 444              		.cfi_def_cfa_offset 8
 445 0346 C3       		ret
 446              	.L54:
 447              		.cfi_restore_state
 448 0347 E8000000 		call	__stack_chk_fail@PLT
 448      00
 449              	.L44:
 450 034c F30F1EFA 		endbr64
 451 0350 4889C7   		movq	%rax, %rdi
 452 0353 E9000000 		jmp	.L36
 452      00
 453              	.L42:
 454 0358 F30F1EFA 		endbr64
 455 035c 4889C7   		movq	%rax, %rdi
 456 035f E9000000 		jmp	.L34
 456      00
 457              	.L40:
 458 0364 F30F1EFA 		endbr64
 459 0368 4889C7   		movq	%rax, %rdi
 460 036b E9000000 		jmp	.L32
 460      00
 461              		.section	.gcc_except_table
 462              		.align 4
 463              	.LLSDA1289:
 464 0034 FF       		.byte	0xff
 465 0035 9B       		.byte	0x9b
 466 0036 29       		.uleb128 .LLSDATT1289-.LLSDATTD1289
 467              	.LLSDATTD1289:
 468 0037 01       		.byte	0x1
 469 0038 1E       		.uleb128 .LLSDACSE1289-.LLSDACSB1289
 470              	.LLSDACSB1289:
 471 0039 32       		.uleb128 .LEHB6-.LFB1289
 472 003a 05       		.uleb128 .LEHE6-.LEHB6
 473 003b 00       		.uleb128 0
 474 003c 00       		.uleb128 0
 475 003d 3C       		.uleb128 .LEHB7-.LFB1289
 476 003e 34       		.uleb128 .LEHE7-.LEHB7
 477 003f C402     		.uleb128 .L40-.LFB1289
 478 0041 01       		.uleb128 0x1
 479 0042 75       		.uleb128 .LEHB8-.LFB1289
 480 0043 10       		.uleb128 .LEHE8-.LEHB8
 481 0044 00       		.uleb128 0
 482 0045 00       		.uleb128 0
 483 0046 8A01     		.uleb128 .LEHB9-.LFB1289
 484 0048 34       		.uleb128 .LEHE9-.LEHB9
 485 0049 B802     		.uleb128 .L42-.LFB1289
 486 004b 01       		.uleb128 0x1
 487 004c CD01     		.uleb128 .LEHB10-.LFB1289
 488 004e 35       		.uleb128 .LEHE10-.LEHB10
 489 004f AC02     		.uleb128 .L44-.LFB1289
 490 0051 01       		.uleb128 0x1
 491 0052 8702     		.uleb128 .LEHB11-.LFB1289
 492 0054 05       		.uleb128 .LEHE11-.LEHB11
 493 0055 00       		.uleb128 0
 494 0056 00       		.uleb128 0
 495              	.LLSDACSE1289:
 496 0057 01       		.byte	0x1
 497 0058 00       		.byte	0
 498 0059 000000   		.align 4
 499 005c 00000000 		.long	0
 500              	
 501              	.LLSDATT1289:
 502              		.text
 503              		.cfi_endproc
 504              		.section	.text.unlikely
 505              		.cfi_startproc
 506              		.cfi_personality 0x9b,DW.ref.__gxx_personality_v0
 507              		.cfi_lsda 0x1b,.LLSDAC1289
 509              	_ZNK23TestError_testStdRender7RunImplEv.cold:
 510              	.LFSB1289:
 511              	.L36:
 512              		.cfi_def_cfa_offset 112
 513              		.cfi_offset 3, -40
 514              		.cfi_offset 6, -32
 515              		.cfi_offset 12, -24
 516              		.cfi_offset 13, -16
 517 005e E8000000 		call	__cxa_begin_catch@PLT
 517      00
 518              	.LEHB12:
 519 0063 E8000000 		call	_ZN8UnitTest11CurrentTest7ResultsEv@PLT
 519      00
 520 0068 488B28   		movq	(%rax), %rbp
 521 006b E8000000 		call	_ZN8UnitTest11CurrentTest7DetailsEv@PLT
 521      00
 522 0070 488D5C24 		leaq	16(%rsp), %rbx
 522      10
 523 0075 488B30   		movq	(%rax), %rsi
 524 0078 BA430000 		movl	$67, %edx
 524      00
 525 007d 4889DF   		movq	%rbx, %rdi
 526 0080 E8000000 		call	_ZN8UnitTest11TestDetailsC1ERKS0_i@PLT
 526      00
 527 0085 488D1500 		leaq	.LC7(%rip), %rdx
 527      000000
 528 008c 4889DE   		movq	%rbx, %rsi
 529 008f 4889EF   		movq	%rbp, %rdi
 530 0092 E8000000 		call	_ZN8UnitTest11TestResults13OnTestFailureERKNS_11TestDetailsEPKc@PLT
 530      00
 531              	.LEHE12:
 532              	.LEHB13:
 533 0097 E8000000 		call	__cxa_end_catch@PLT
 533      00
 534              	.LEHE13:
 535 009c E9000000 		jmp	.L37
 535      00
 536              	.L34:
 537 00a1 E8000000 		call	__cxa_begin_catch@PLT
 537      00
 538              	.LEHB14:
 539 00a6 E8000000 		call	_ZN8UnitTest11CurrentTest7ResultsEv@PLT
 539      00
 540 00ab 488B28   		movq	(%rax), %rbp
 541 00ae E8000000 		call	_ZN8UnitTest11CurrentTest7DetailsEv@PLT
 541      00
 542 00b3 488D5C24 		leaq	16(%rsp), %rbx
 542      10
 543 00b8 488B30   		movq	(%rax), %rsi
 544 00bb BA410000 		movl	$65, %edx
 544      00
 545 00c0 4889DF   		movq	%rbx, %rdi
 546 00c3 E8000000 		call	_ZN8UnitTest11TestDetailsC1ERKS0_i@PLT
 546      00
 547 00c8 488D1500 		leaq	.LC6(%rip), %rdx
 547      000000
 548 00cf 4889DE   		movq	%rbx, %rsi
 549 00d2 4889EF   		movq	%rbp, %rdi
 550 00d5 E8000000 		call	_ZN8UnitTest11TestResults13OnTestFailureERKNS_11TestDetailsEPKc@PLT
 550      00
 551              	.LEHE14:
 552              	.LEHB15:
 553 00da E8000000 		call	__cxa_end_catch@PLT
 553      00
 554              	.LEHE15:
 555 00df E9000000 		jmp	.L31
 555      00
 556              	.L32:
 557 00e4 E8000000 		call	__cxa_begin_catch@PLT
 557      00
 558              	.LEHB16:
 559 00e9 E8000000 		call	_ZN8UnitTest11CurrentTest7ResultsEv@PLT
 559      00
 560 00ee 4C8B28   		movq	(%rax), %r13
 561 00f1 E8000000 		call	_ZN8UnitTest11CurrentTest7DetailsEv@PLT
 561      00
 562 00f6 488D5C24 		leaq	16(%rsp), %rbx
 562      10
 563 00fb 488B30   		movq	(%rax), %rsi
 564 00fe BA3E0000 		movl	$62, %edx
 564      00
 565 0103 4889DF   		movq	%rbx, %rdi
 566 0106 E8000000 		call	_ZN8UnitTest11TestDetailsC1ERKS0_i@PLT
 566      00
 567 010b 488D1500 		leaq	.LC6(%rip), %rdx
 567      000000
 568 0112 4889DE   		movq	%rbx, %rsi
 569 0115 4C89EF   		movq	%r13, %rdi
 570 0118 E8000000 		call	_ZN8UnitTest11TestResults13OnTestFailureERKNS_11TestDetailsEPKc@PLT
 570      00
 571              	.LEHE16:
 572              	.LEHB17:
 573 011d E8000000 		call	__cxa_end_catch@PLT
 573      00
 574              	.LEHE17:
 575 0122 E9000000 		jmp	.L30
 575      00
 576              	.L45:
 577 0127 F30F1EFA 		endbr64
 578 012b 4889C3   		movq	%rax, %rbx
 579 012e E8000000 		call	__cxa_end_catch@PLT
 579      00
 580 0133 4889DF   		movq	%rbx, %rdi
 581              	.LEHB18:
 582 0136 E8000000 		call	_Unwind_Resume@PLT
 582      00
 583              	.LEHE18:
 584              	.L43:
 585 013b F30F1EFA 		endbr64
 586 013f 4889C3   		movq	%rax, %rbx
 587 0142 E8000000 		call	__cxa_end_catch@PLT
 587      00
 588 0147 4889DF   		movq	%rbx, %rdi
 589              	.LEHB19:
 590 014a E8000000 		call	_Unwind_Resume@PLT
 590      00
 591              	.LEHE19:
 592              	.L41:
 593 014f F30F1EFA 		endbr64
 594 0153 4889C3   		movq	%rax, %rbx
 595 0156 E8000000 		call	__cxa_end_catch@PLT
 595      00
 596 015b 4889DF   		movq	%rbx, %rdi
 597              	.LEHB20:
 598 015e E8000000 		call	_Unwind_Resume@PLT
 598      00
 599              	.LEHE20:
 600              		.cfi_endproc
 601              	.LFE1289:
 602              		.section	.gcc_except_table
 603              		.align 4
 604              	.LLSDAC1289:
 605 0060 FF       		.byte	0xff
 606 0061 9B       		.byte	0x9b
 607 0062 35       		.uleb128 .LLSDATTC1289-.LLSDATTDC1289
 608              	.LLSDATTDC1289:
 609 0063 01       		.byte	0x1
 610 0064 2C       		.uleb128 .LLSDACSEC1289-.LLSDACSBC1289
 611              	.LLSDACSBC1289:
 612 0065 05       		.uleb128 .LEHB12-.LCOLDB8
 613 0066 34       		.uleb128 .LEHE12-.LEHB12
 614 0067 C901     		.uleb128 .L45-.LCOLDB8
 615 0069 00       		.uleb128 0
 616 006a 39       		.uleb128 .LEHB13-.LCOLDB8
 617 006b 05       		.uleb128 .LEHE13-.LEHB13
 618 006c 00       		.uleb128 0
 619 006d 00       		.uleb128 0
 620 006e 48       		.uleb128 .LEHB14-.LCOLDB8
 621 006f 34       		.uleb128 .LEHE14-.LEHB14
 622 0070 DD01     		.uleb128 .L43-.LCOLDB8
 623 0072 00       		.uleb128 0
 624 0073 7C       		.uleb128 .LEHB15-.LCOLDB8
 625 0074 05       		.uleb128 .LEHE15-.LEHB15
 626 0075 00       		.uleb128 0
 627 0076 00       		.uleb128 0
 628 0077 8B01     		.uleb128 .LEHB16-.LCOLDB8
 629 0079 34       		.uleb128 .LEHE16-.LEHB16
 630 007a F101     		.uleb128 .L41-.LCOLDB8
 631 007c 00       		.uleb128 0
 632 007d BF01     		.uleb128 .LEHB17-.LCOLDB8
 633 007f 05       		.uleb128 .LEHE17-.LEHB17
 634 0080 00       		.uleb128 0
 635 0081 00       		.uleb128 0
 636 0082 D801     		.uleb128 .LEHB18-.LCOLDB8
 637 0084 05       		.uleb128 .LEHE18-.LEHB18
 638 0085 00       		.uleb128 0
 639 0086 00       		.uleb128 0
 640 0087 EC01     		.uleb128 .LEHB19-.LCOLDB8
 641 0089 05       		.uleb128 .LEHE19-.LEHB19
 642 008a 00       		.uleb128 0
 643 008b 00       		.uleb128 0
 644 008c 8002     		.uleb128 .LEHB20-.LCOLDB8
 645 008e 05       		.uleb128 .LEHE20-.LEHB20
 646 008f 00       		.uleb128 0
 647 0090 00       		.uleb128 0
 648              	.LLSDACSEC1289:
 649 0091 01       		.byte	0x1
 650 0092 00       		.byte	0
 651 0093 00       		.align 4
 652 0094 00000000 		.long	0
 653              	
 654              	.LLSDATTC1289:
 655              		.section	.text.unlikely
 656              		.text
 658              		.section	.text.unlikely
 660              	.LCOLDE8:
 661              		.text
 662              	.LHOTE8:
 663              		.section	.text._ZN23TestError_testStdRenderD2Ev,"axG",@progbits,_ZN23TestError_testStdRenderD5Ev,c
 664              		.align 2
 665              		.p2align 4
 666              		.weak	_ZN23TestError_testStdRenderD2Ev
 668              	_ZN23TestError_testStdRenderD2Ev:
 669              	.LFB1369:
 670              		.cfi_startproc
 671 0000 F30F1EFA 		endbr64
 672 0004 488D0500 		leaq	16+_ZTV23TestError_testStdRender(%rip), %rax
 672      000000
 673 000b 488907   		movq	%rax, (%rdi)
 674 000e E9000000 		jmp	_ZN8UnitTest4TestD2Ev@PLT
 674      00
 675              		.cfi_endproc
 676              	.LFE1369:
 678              		.weak	_ZN23TestError_testStdRenderD1Ev
 679              		.set	_ZN23TestError_testStdRenderD1Ev,_ZN23TestError_testStdRenderD2Ev
 680              		.section	.text._ZN23TestError_testStdRenderD0Ev,"axG",@progbits,_ZN23TestError_testStdRenderD5Ev,c
 681              		.align 2
 682              		.p2align 4
 683              		.weak	_ZN23TestError_testStdRenderD0Ev
 685              	_ZN23TestError_testStdRenderD0Ev:
 686              	.LFB1371:
 687              		.cfi_startproc
 688              		.cfi_personality 0x9b,DW.ref.__gxx_personality_v0
 689              		.cfi_lsda 0x1b,.LLSDA1371
 690 0000 F30F1EFA 		endbr64
 691 0004 55       		pushq	%rbp
 692              		.cfi_def_cfa_offset 16
 693              		.cfi_offset 6, -16
 694 0005 488D0500 		leaq	16+_ZTV23TestError_testStdRender(%rip), %rax
 694      000000
 695 000c 53       		pushq	%rbx
 696              		.cfi_def_cfa_offset 24
 697              		.cfi_offset 3, -24
 698 000d 4889FB   		movq	%rdi, %rbx
 699 0010 4883EC08 		subq	$8, %rsp
 700              		.cfi_def_cfa_offset 32
 701 0014 488907   		movq	%rax, (%rdi)
 702              	.LEHB21:
 703 0017 E8000000 		call	_ZN8UnitTest4TestD2Ev@PLT
 703      00
 704              	.LEHE21:
 705 001c 4883C408 		addq	$8, %rsp
 706              		.cfi_remember_state
 707              		.cfi_def_cfa_offset 24
 708 0020 4889DF   		movq	%rbx, %rdi
 709 0023 5B       		popq	%rbx
 710              		.cfi_def_cfa_offset 16
 711 0024 5D       		popq	%rbp
 712              		.cfi_def_cfa_offset 8
 713 0025 E9000000 		jmp	_ZdlPv@PLT
 713      00
 714              	.L58:
 715              		.cfi_restore_state
 716 002a F30F1EFA 		endbr64
 717 002e 4889C5   		movq	%rax, %rbp
 718              	.L57:
 719 0031 4889DF   		movq	%rbx, %rdi
 720 0034 E8000000 		call	_ZdlPv@PLT
 720      00
 721 0039 4889EF   		movq	%rbp, %rdi
 722              	.LEHB22:
 723 003c E8000000 		call	_Unwind_Resume@PLT
 723      00
 724              	.LEHE22:
 725              		.cfi_endproc
 726              	.LFE1371:
 727              		.section	.gcc_except_table
 728              	.LLSDA1371:
 729 0098 FF       		.byte	0xff
 730 0099 FF       		.byte	0xff
 731 009a 01       		.byte	0x1
 732 009b 08       		.uleb128 .LLSDACSE1371-.LLSDACSB1371
 733              	.LLSDACSB1371:
 734 009c 17       		.uleb128 .LEHB21-.LFB1371
 735 009d 05       		.uleb128 .LEHE21-.LEHB21
 736 009e 2A       		.uleb128 .L58-.LFB1371
 737 009f 00       		.uleb128 0
 738 00a0 3C       		.uleb128 .LEHB22-.LFB1371
 739 00a1 05       		.uleb128 .LEHE22-.LEHB22
 740 00a2 00       		.uleb128 0
 741 00a3 00       		.uleb128 0
 742              	.LLSDACSE1371:
 743              		.section	.text._ZN23TestError_testStdRenderD0Ev,"axG",@progbits,_ZN23TestError_testStdRenderD5Ev,c
 745              		.section	.text._ZN27TestError_testNullStdRenderD2Ev,"axG",@progbits,_ZN27TestError_testNullStdRend
 746              		.align 2
 747              		.p2align 4
 748              		.weak	_ZN27TestError_testNullStdRenderD2Ev
 750              	_ZN27TestError_testNullStdRenderD2Ev:
 751              	.LFB1373:
 752              		.cfi_startproc
 753 0000 F30F1EFA 		endbr64
 754 0004 488D0500 		leaq	16+_ZTV27TestError_testNullStdRender(%rip), %rax
 754      000000
 755 000b 488907   		movq	%rax, (%rdi)
 756 000e E9000000 		jmp	_ZN8UnitTest4TestD2Ev@PLT
 756      00
 757              		.cfi_endproc
 758              	.LFE1373:
 760              		.weak	_ZN27TestError_testNullStdRenderD1Ev
 761              		.set	_ZN27TestError_testNullStdRenderD1Ev,_ZN27TestError_testNullStdRenderD2Ev
 762              		.section	.text._ZN27TestError_testNullStdRenderD0Ev,"axG",@progbits,_ZN27TestError_testNullStdRend
 763              		.align 2
 764              		.p2align 4
 765              		.weak	_ZN27TestError_testNullStdRenderD0Ev
 767              	_ZN27TestError_testNullStdRenderD0Ev:
 768              	.LFB1375:
 769              		.cfi_startproc
 770              		.cfi_personality 0x9b,DW.ref.__gxx_personality_v0
 771              		.cfi_lsda 0x1b,.LLSDA1375
 772 0000 F30F1EFA 		endbr64
 773 0004 55       		pushq	%rbp
 774              		.cfi_def_cfa_offset 16
 775              		.cfi_offset 6, -16
 776 0005 488D0500 		leaq	16+_ZTV27TestError_testNullStdRender(%rip), %rax
 776      000000
 777 000c 53       		pushq	%rbx
 778              		.cfi_def_cfa_offset 24
 779              		.cfi_offset 3, -24
 780 000d 4889FB   		movq	%rdi, %rbx
 781 0010 4883EC08 		subq	$8, %rsp
 782              		.cfi_def_cfa_offset 32
 783 0014 488907   		movq	%rax, (%rdi)
 784              	.LEHB23:
 785 0017 E8000000 		call	_ZN8UnitTest4TestD2Ev@PLT
 785      00
 786              	.LEHE23:
 787 001c 4883C408 		addq	$8, %rsp
 788              		.cfi_remember_state
 789              		.cfi_def_cfa_offset 24
 790 0020 4889DF   		movq	%rbx, %rdi
 791 0023 5B       		popq	%rbx
 792              		.cfi_def_cfa_offset 16
 793 0024 5D       		popq	%rbp
 794              		.cfi_def_cfa_offset 8
 795 0025 E9000000 		jmp	_ZdlPv@PLT
 795      00
 796              	.L63:
 797              		.cfi_restore_state
 798 002a F30F1EFA 		endbr64
 799 002e 4889C5   		movq	%rax, %rbp
 800              	.L62:
 801 0031 4889DF   		movq	%rbx, %rdi
 802 0034 E8000000 		call	_ZdlPv@PLT
 802      00
 803 0039 4889EF   		movq	%rbp, %rdi
 804              	.LEHB24:
 805 003c E8000000 		call	_Unwind_Resume@PLT
 805      00
 806              	.LEHE24:
 807              		.cfi_endproc
 808              	.LFE1375:
 809              		.section	.gcc_except_table
 810              	.LLSDA1375:
 811 00a4 FF       		.byte	0xff
 812 00a5 FF       		.byte	0xff
 813 00a6 01       		.byte	0x1
 814 00a7 08       		.uleb128 .LLSDACSE1375-.LLSDACSB1375
 815              	.LLSDACSB1375:
 816 00a8 17       		.uleb128 .LEHB23-.LFB1375
 817 00a9 05       		.uleb128 .LEHE23-.LEHB23
 818 00aa 2A       		.uleb128 .L63-.LFB1375
 819 00ab 00       		.uleb128 0
 820 00ac 3C       		.uleb128 .LEHB24-.LFB1375
 821 00ad 05       		.uleb128 .LEHE24-.LEHB24
 822 00ae 00       		.uleb128 0
 823 00af 00       		.uleb128 0
 824              	.LLSDACSE1375:
 825              		.section	.text._ZN27TestError_testNullStdRenderD0Ev,"axG",@progbits,_ZN27TestError_testNullStdRend
 827              		.section	.text._ZN20TestError_testRenderD2Ev,"axG",@progbits,_ZN20TestError_testRenderD5Ev,comdat
 828              		.align 2
 829              		.p2align 4
 830              		.weak	_ZN20TestError_testRenderD2Ev
 832              	_ZN20TestError_testRenderD2Ev:
 833              	.LFB1377:
 834              		.cfi_startproc
 835 0000 F30F1EFA 		endbr64
 836 0004 488D0500 		leaq	16+_ZTV20TestError_testRender(%rip), %rax
 836      000000
 837 000b 488907   		movq	%rax, (%rdi)
 838 000e E9000000 		jmp	_ZN8UnitTest4TestD2Ev@PLT
 838      00
 839              		.cfi_endproc
 840              	.LFE1377:
 842              		.weak	_ZN20TestError_testRenderD1Ev
 843              		.set	_ZN20TestError_testRenderD1Ev,_ZN20TestError_testRenderD2Ev
 844              		.section	.text._ZN20TestError_testRenderD0Ev,"axG",@progbits,_ZN20TestError_testRenderD5Ev,comdat
 845              		.align 2
 846              		.p2align 4
 847              		.weak	_ZN20TestError_testRenderD0Ev
 849              	_ZN20TestError_testRenderD0Ev:
 850              	.LFB1379:
 851              		.cfi_startproc
 852              		.cfi_personality 0x9b,DW.ref.__gxx_personality_v0
 853              		.cfi_lsda 0x1b,.LLSDA1379
 854 0000 F30F1EFA 		endbr64
 855 0004 55       		pushq	%rbp
 856              		.cfi_def_cfa_offset 16
 857              		.cfi_offset 6, -16
 858 0005 488D0500 		leaq	16+_ZTV20TestError_testRender(%rip), %rax
 858      000000
 859 000c 53       		pushq	%rbx
 860              		.cfi_def_cfa_offset 24
 861              		.cfi_offset 3, -24
 862 000d 4889FB   		movq	%rdi, %rbx
 863 0010 4883EC08 		subq	$8, %rsp
 864              		.cfi_def_cfa_offset 32
 865 0014 488907   		movq	%rax, (%rdi)
 866              	.LEHB25:
 867 0017 E8000000 		call	_ZN8UnitTest4TestD2Ev@PLT
 867      00
 868              	.LEHE25:
 869 001c 4883C408 		addq	$8, %rsp
 870              		.cfi_remember_state
 871              		.cfi_def_cfa_offset 24
 872 0020 4889DF   		movq	%rbx, %rdi
 873 0023 5B       		popq	%rbx
 874              		.cfi_def_cfa_offset 16
 875 0024 5D       		popq	%rbp
 876              		.cfi_def_cfa_offset 8
 877 0025 E9000000 		jmp	_ZdlPv@PLT
 877      00
 878              	.L68:
 879              		.cfi_restore_state
 880 002a F30F1EFA 		endbr64
 881 002e 4889C5   		movq	%rax, %rbp
 882              	.L67:
 883 0031 4889DF   		movq	%rbx, %rdi
 884 0034 E8000000 		call	_ZdlPv@PLT
 884      00
 885 0039 4889EF   		movq	%rbp, %rdi
 886              	.LEHB26:
 887 003c E8000000 		call	_Unwind_Resume@PLT
 887      00
 888              	.LEHE26:
 889              		.cfi_endproc
 890              	.LFE1379:
 891              		.section	.gcc_except_table
 892              	.LLSDA1379:
 893 00b0 FF       		.byte	0xff
 894 00b1 FF       		.byte	0xff
 895 00b2 01       		.byte	0x1
 896 00b3 08       		.uleb128 .LLSDACSE1379-.LLSDACSB1379
 897              	.LLSDACSB1379:
 898 00b4 17       		.uleb128 .LEHB25-.LFB1379
 899 00b5 05       		.uleb128 .LEHE25-.LEHB25
 900 00b6 2A       		.uleb128 .L68-.LFB1379
 901 00b7 00       		.uleb128 0
 902 00b8 3C       		.uleb128 .LEHB26-.LFB1379
 903 00b9 05       		.uleb128 .LEHE26-.LEHB26
 904 00ba 00       		.uleb128 0
 905 00bb 00       		.uleb128 0
 906              	.LLSDACSE1379:
 907              		.section	.text._ZN20TestError_testRenderD0Ev,"axG",@progbits,_ZN20TestError_testRenderD5Ev,comdat
 909              		.section	.text._ZN24TestError_testNullRenderD2Ev,"axG",@progbits,_ZN24TestError_testNullRenderD5Ev
 910              		.align 2
 911              		.p2align 4
 912              		.weak	_ZN24TestError_testNullRenderD2Ev
 914              	_ZN24TestError_testNullRenderD2Ev:
 915              	.LFB1381:
 916              		.cfi_startproc
 917 0000 F30F1EFA 		endbr64
 918 0004 488D0500 		leaq	16+_ZTV24TestError_testNullRender(%rip), %rax
 918      000000
 919 000b 488907   		movq	%rax, (%rdi)
 920 000e E9000000 		jmp	_ZN8UnitTest4TestD2Ev@PLT
 920      00
 921              		.cfi_endproc
 922              	.LFE1381:
 924              		.weak	_ZN24TestError_testNullRenderD1Ev
 925              		.set	_ZN24TestError_testNullRenderD1Ev,_ZN24TestError_testNullRenderD2Ev
 926              		.section	.text._ZN24TestError_testNullRenderD0Ev,"axG",@progbits,_ZN24TestError_testNullRenderD5Ev
 927              		.align 2
 928              		.p2align 4
 929              		.weak	_ZN24TestError_testNullRenderD0Ev
 931              	_ZN24TestError_testNullRenderD0Ev:
 932              	.LFB1383:
 933              		.cfi_startproc
 934              		.cfi_personality 0x9b,DW.ref.__gxx_personality_v0
 935              		.cfi_lsda 0x1b,.LLSDA1383
 936 0000 F30F1EFA 		endbr64
 937 0004 55       		pushq	%rbp
 938              		.cfi_def_cfa_offset 16
 939              		.cfi_offset 6, -16
 940 0005 488D0500 		leaq	16+_ZTV24TestError_testNullRender(%rip), %rax
 940      000000
 941 000c 53       		pushq	%rbx
 942              		.cfi_def_cfa_offset 24
 943              		.cfi_offset 3, -24
 944 000d 4889FB   		movq	%rdi, %rbx
 945 0010 4883EC08 		subq	$8, %rsp
 946              		.cfi_def_cfa_offset 32
 947 0014 488907   		movq	%rax, (%rdi)
 948              	.LEHB27:
 949 0017 E8000000 		call	_ZN8UnitTest4TestD2Ev@PLT
 949      00
 950              	.LEHE27:
 951 001c 4883C408 		addq	$8, %rsp
 952              		.cfi_remember_state
 953              		.cfi_def_cfa_offset 24
 954 0020 4889DF   		movq	%rbx, %rdi
 955 0023 5B       		popq	%rbx
 956              		.cfi_def_cfa_offset 16
 957 0024 5D       		popq	%rbp
 958              		.cfi_def_cfa_offset 8
 959 0025 E9000000 		jmp	_ZdlPv@PLT
 959      00
 960              	.L73:
 961              		.cfi_restore_state
 962 002a F30F1EFA 		endbr64
 963 002e 4889C5   		movq	%rax, %rbp
 964              	.L72:
 965 0031 4889DF   		movq	%rbx, %rdi
 966 0034 E8000000 		call	_ZdlPv@PLT
 966      00
 967 0039 4889EF   		movq	%rbp, %rdi
 968              	.LEHB28:
 969 003c E8000000 		call	_Unwind_Resume@PLT
 969      00
 970              	.LEHE28:
 971              		.cfi_endproc
 972              	.LFE1383:
 973              		.section	.gcc_except_table
 974              	.LLSDA1383:
 975 00bc FF       		.byte	0xff
 976 00bd FF       		.byte	0xff
 977 00be 01       		.byte	0x1
 978 00bf 08       		.uleb128 .LLSDACSE1383-.LLSDACSB1383
 979              	.LLSDACSB1383:
 980 00c0 17       		.uleb128 .LEHB27-.LFB1383
 981 00c1 05       		.uleb128 .LEHE27-.LEHB27
 982 00c2 2A       		.uleb128 .L73-.LFB1383
 983 00c3 00       		.uleb128 0
 984 00c4 3C       		.uleb128 .LEHB28-.LFB1383
 985 00c5 05       		.uleb128 .LEHE28-.LEHB28
 986 00c6 00       		.uleb128 0
 987 00c7 00       		.uleb128 0
 988              	.LLSDACSE1383:
 989              		.section	.text._ZN24TestError_testNullRenderD0Ev,"axG",@progbits,_ZN24TestError_testNullRenderD5Ev
 991              		.text
 992              		.p2align 4
 993              		.globl	_Z7fillBufic
 995              	_Z7fillBufic:
 996              	.LFB1273:
 997              		.cfi_startproc
 998 0370 F30F1EFA 		endbr64
 999 0374 53       		pushq	%rbx
 1000              		.cfi_def_cfa_offset 16
 1001              		.cfi_offset 3, -16
 1002 0375 85FF     		testl	%edi, %edi
 1003 0377 0F8E9300 		jle	.L76
 1003      0000
 1004 037d 488D0D00 		leaq	buf(%rip), %rcx
 1004      000000
 1005 0384 89FB     		movl	%edi, %ebx
 1006 0386 89FA     		movl	%edi, %edx
 1007 0388 400FBEF6 		movsbl	%sil, %esi
 1008 038c 4889CF   		movq	%rcx, %rdi
 1009 038f E8000000 		call	memset@PLT
 1009      00
 1010 0394 4889C1   		movq	%rax, %rcx
 1011 0397 8D4301   		leal	1(%rbx), %eax
 1012 039a 4863DB   		movslq	%ebx, %rbx
 1013 039d C6041900 		movb	$0, (%rcx,%rbx)
 1014 03a1 3DFF0300 		cmpl	$1023, %eax
 1014      00
 1015 03a6 7F3D     		jg	.L75
 1016              	.L77:
 1017 03a8 BA000400 		movl	$1024, %edx
 1017      00
 1018 03ad BE010000 		movl	$1, %esi
 1018      00
 1019 03b2 29C2     		subl	%eax, %edx
 1020 03b4 3DFF0300 		cmpl	$1023, %eax
 1020      00
 1021 03b9 4898     		cltq
 1022 03bb 480F4FD6 		cmovg	%rsi, %rdx
 1023 03bf 4801C1   		addq	%rax, %rcx
 1024 03c2 48B82E2E 		movabsq	$3327647950551526958, %rax
 1024      2E2E2E2E 
 1024      2E2E
 1025 03cc 89D6     		movl	%edx, %esi
 1026 03ce 83FA08   		cmpl	$8, %edx
 1027 03d1 731D     		jnb	.L79
 1028 03d3 83E204   		andl	$4, %edx
 1029 03d6 7559     		jne	.L90
 1030 03d8 85F6     		testl	%esi, %esi
 1031 03da 7409     		je	.L75
 1032 03dc C6012E   		movb	$46, (%rcx)
 1033 03df 40F6C602 		testb	$2, %sil
 1034 03e3 7540     		jne	.L91
 1035              	.L75:
 1036 03e5 5B       		popq	%rbx
 1037              		.cfi_remember_state
 1038              		.cfi_def_cfa_offset 8
 1039 03e6 C3       		ret
 1040 03e7 660F1F84 		.p2align 4,,10
 1040      00000000 
 1040      00
 1041              		.p2align 3
 1042              	.L79:
 1043              		.cfi_restore_state
 1044 03f0 488D7908 		leaq	8(%rcx), %rdi
 1045 03f4 488901   		movq	%rax, (%rcx)
 1046 03f7 4883E7F8 		andq	$-8, %rdi
 1047 03fb 4889440A 		movq	%rax, -8(%rdx,%rcx)
 1047      F8
 1048 0400 4829F9   		subq	%rdi, %rcx
 1049 0403 8D340A   		leal	(%rdx,%rcx), %esi
 1050 0406 C1EE03   		shrl	$3, %esi
 1051 0409 89F1     		movl	%esi, %ecx
 1052 040b F348AB   		rep stosq
 1053 040e 5B       		popq	%rbx
 1054              		.cfi_remember_state
 1055              		.cfi_def_cfa_offset 8
 1056 040f C3       		ret
 1057              		.p2align 4,,10
 1058              		.p2align 3
 1059              	.L76:
 1060              		.cfi_restore_state
 1061 0410 C6050000 		movb	$0, buf(%rip)
 1061      000000
 1062 0417 B8010000 		movl	$1, %eax
 1062      00
 1063 041c 488D0D00 		leaq	buf(%rip), %rcx
 1063      000000
 1064 0423 EB83     		jmp	.L77
 1065              	.L91:
 1066 0425 B82E2E00 		movl	$11822, %eax
 1066      00
 1067 042a 66894431 		movw	%ax, -2(%rcx,%rsi)
 1067      FE
 1068 042f 5B       		popq	%rbx
 1069              		.cfi_remember_state
 1070              		.cfi_def_cfa_offset 8
 1071 0430 C3       		ret
 1072              	.L90:
 1073              		.cfi_restore_state
 1074 0431 C7012E2E 		movl	$774778414, (%rcx)
 1074      2E2E
 1075 0437 C74431FC 		movl	$774778414, -4(%rcx,%rsi)
 1075      2E2E2E2E 
 1076 043f 5B       		popq	%rbx
 1077              		.cfi_def_cfa_offset 8
 1078 0440 C3       		ret
 1079              		.cfi_endproc
 1080              	.LFE1273:
 1082              		.section	.rodata.str1.1
 1083              	.LC9:
 1084 0019 74657374 		.string	"testError.cpp"
 1084      4572726F 
 1084      722E6370 
 1084      7000
 1085              	.LC10:
 1086 0027 44656661 		.string	"DefaultSuite"
 1086      756C7453 
 1086      75697465 
 1086      00
 1087              	.LC11:
 1088 0034 4572726F 		.string	"Error_testNullRender"
 1088      725F7465 
 1088      73744E75 
 1088      6C6C5265 
 1088      6E646572 
 1089              	.LC12:
 1090 0049 4572726F 		.string	"Error_testRender"
 1090      725F7465 
 1090      73745265 
 1090      6E646572 
 1090      00
 1091              	.LC13:
 1092 005a 4572726F 		.string	"Error_testNullStdRender"
 1092      725F7465 
 1092      73744E75 
 1092      6C6C5374 
 1092      6452656E 
 1093              	.LC14:
 1094 0072 4572726F 		.string	"Error_testStdRender"
 1094      725F7465 
 1094      73745374 
 1094      6452656E 
 1094      64657200 
 1095              		.section	.text.startup,"ax",@progbits
 1096              		.p2align 4
 1098              	_GLOBAL__sub_I_buf:
 1099              	.LFB1389:
 1100              		.cfi_startproc
 1101 0000 F30F1EFA 		endbr64
 1102 0004 4155     		pushq	%r13
 1103              		.cfi_def_cfa_offset 16
 1104              		.cfi_offset 13, -16
 1105 0006 4C8D2D00 		leaq	testError_testNullRenderInstance(%rip), %r13
 1105      000000
 1106 000d 41B82500 		movl	$37, %r8d
 1106      0000
 1107 0013 488D3500 		leaq	.LC11(%rip), %rsi
 1107      000000
 1108 001a 4154     		pushq	%r12
 1109              		.cfi_def_cfa_offset 24
 1110              		.cfi_offset 12, -24
 1111 001c 4C8D2500 		leaq	.LC9(%rip), %r12
 1111      000000
 1112 0023 4C89EF   		movq	%r13, %rdi
 1113 0026 55       		pushq	%rbp
 1114              		.cfi_def_cfa_offset 32
 1115              		.cfi_offset 6, -32
 1116 0027 488D2D00 		leaq	.LC10(%rip), %rbp
 1116      000000
 1117 002e 4C89E1   		movq	%r12, %rcx
 1118 0031 53       		pushq	%rbx
 1119              		.cfi_def_cfa_offset 40
 1120              		.cfi_offset 3, -40
 1121 0032 4889EA   		movq	%rbp, %rdx
 1122 0035 488D1D00 		leaq	__dso_handle(%rip), %rbx
 1122      000000
 1123 003c 4883EC08 		subq	$8, %rsp
 1124              		.cfi_def_cfa_offset 48
 1125 0040 E8000000 		call	_ZN8UnitTest4TestC2EPKcS2_S2_i@PLT
 1125      00
 1126 0045 4889DA   		movq	%rbx, %rdx
 1127 0048 4C89EE   		movq	%r13, %rsi
 1128 004b 488D3D00 		leaq	_ZN24TestError_testNullRenderD1Ev(%rip), %rdi
 1128      000000
 1129 0052 488D0500 		leaq	16+_ZTV24TestError_testNullRender(%rip), %rax
 1129      000000
 1130 0059 48890500 		movq	%rax, testError_testNullRenderInstance(%rip)
 1130      000000
 1131 0060 E8000000 		call	__cxa_atexit@PLT
 1131      00
 1132 0065 E8000000 		call	_ZN8UnitTest4Test11GetTestListEv@PLT
 1132      00
 1133 006a 4C89EA   		movq	%r13, %rdx
 1134 006d 488D3D00 		leaq	adderError_testNullRender(%rip), %rdi
 1134      000000
 1135 0074 4C8D2D00 		leaq	testError_testRenderInstance(%rip), %r13
 1135      000000
 1136 007b 4889C6   		movq	%rax, %rsi
 1137 007e E8000000 		call	_ZN8UnitTest9ListAdderC1ERNS_8TestListEPNS_4TestE@PLT
 1137      00
 1138 0083 4C89E1   		movq	%r12, %rcx
 1139 0086 4889EA   		movq	%rbp, %rdx
 1140 0089 4C89EF   		movq	%r13, %rdi
 1141 008c 41B82A00 		movl	$42, %r8d
 1141      0000
 1142 0092 488D3500 		leaq	.LC12(%rip), %rsi
 1142      000000
 1143 0099 E8000000 		call	_ZN8UnitTest4TestC2EPKcS2_S2_i@PLT
 1143      00
 1144 009e 4889DA   		movq	%rbx, %rdx
 1145 00a1 4C89EE   		movq	%r13, %rsi
 1146 00a4 488D3D00 		leaq	_ZN20TestError_testRenderD1Ev(%rip), %rdi
 1146      000000
 1147 00ab 488D0500 		leaq	16+_ZTV20TestError_testRender(%rip), %rax
 1147      000000
 1148 00b2 48890500 		movq	%rax, testError_testRenderInstance(%rip)
 1148      000000
 1149 00b9 E8000000 		call	__cxa_atexit@PLT
 1149      00
 1150 00be E8000000 		call	_ZN8UnitTest4Test11GetTestListEv@PLT
 1150      00
 1151 00c3 4C89EA   		movq	%r13, %rdx
 1152 00c6 488D3D00 		leaq	adderError_testRender(%rip), %rdi
 1152      000000
 1153 00cd 4C8D2D00 		leaq	testError_testNullStdRenderInstance(%rip), %r13
 1153      000000
 1154 00d4 4889C6   		movq	%rax, %rsi
 1155 00d7 E8000000 		call	_ZN8UnitTest9ListAdderC1ERNS_8TestListEPNS_4TestE@PLT
 1155      00
 1156 00dc 4C89E1   		movq	%r12, %rcx
 1157 00df 4889EA   		movq	%rbp, %rdx
 1158 00e2 4C89EF   		movq	%r13, %rdi
 1159 00e5 41B83500 		movl	$53, %r8d
 1159      0000
 1160 00eb 488D3500 		leaq	.LC13(%rip), %rsi
 1160      000000
 1161 00f2 E8000000 		call	_ZN8UnitTest4TestC2EPKcS2_S2_i@PLT
 1161      00
 1162 00f7 4889DA   		movq	%rbx, %rdx
 1163 00fa 4C89EE   		movq	%r13, %rsi
 1164 00fd 488D3D00 		leaq	_ZN27TestError_testNullStdRenderD1Ev(%rip), %rdi
 1164      000000
 1165 0104 488D0500 		leaq	16+_ZTV27TestError_testNullStdRender(%rip), %rax
 1165      000000
 1166 010b 48890500 		movq	%rax, testError_testNullStdRenderInstance(%rip)
 1166      000000
 1167 0112 E8000000 		call	__cxa_atexit@PLT
 1167      00
 1168 0117 E8000000 		call	_ZN8UnitTest4Test11GetTestListEv@PLT
 1168      00
 1169 011c 4C89EA   		movq	%r13, %rdx
 1170 011f 488D3D00 		leaq	adderError_testNullStdRender(%rip), %rdi
 1170      000000
 1171 0126 4889C6   		movq	%rax, %rsi
 1172 0129 E8000000 		call	_ZN8UnitTest9ListAdderC1ERNS_8TestListEPNS_4TestE@PLT
 1172      00
 1173 012e 4889EA   		movq	%rbp, %rdx
 1174 0131 4C89E1   		movq	%r12, %rcx
 1175 0134 488D2D00 		leaq	testError_testStdRenderInstance(%rip), %rbp
 1175      000000
 1176 013b 41B83A00 		movl	$58, %r8d
 1176      0000
 1177 0141 4889EF   		movq	%rbp, %rdi
 1178 0144 488D3500 		leaq	.LC14(%rip), %rsi
 1178      000000
 1179 014b E8000000 		call	_ZN8UnitTest4TestC2EPKcS2_S2_i@PLT
 1179      00
 1180 0150 4889DA   		movq	%rbx, %rdx
 1181 0153 4889EE   		movq	%rbp, %rsi
 1182 0156 488D3D00 		leaq	_ZN23TestError_testStdRenderD1Ev(%rip), %rdi
 1182      000000
 1183 015d 488D0500 		leaq	16+_ZTV23TestError_testStdRender(%rip), %rax
 1183      000000
 1184 0164 48890500 		movq	%rax, testError_testStdRenderInstance(%rip)
 1184      000000
 1185 016b E8000000 		call	__cxa_atexit@PLT
 1185      00
 1186 0170 E8000000 		call	_ZN8UnitTest4Test11GetTestListEv@PLT
 1186      00
 1187 0175 4883C408 		addq	$8, %rsp
 1188              		.cfi_def_cfa_offset 40
 1189 0179 4889EA   		movq	%rbp, %rdx
 1190 017c 488D3D00 		leaq	adderError_testStdRender(%rip), %rdi
 1190      000000
 1191 0183 5B       		popq	%rbx
 1192              		.cfi_def_cfa_offset 32
 1193 0184 4889C6   		movq	%rax, %rsi
 1194 0187 5D       		popq	%rbp
 1195              		.cfi_def_cfa_offset 24
 1196 0188 415C     		popq	%r12
 1197              		.cfi_def_cfa_offset 16
 1198 018a 415D     		popq	%r13
 1199              		.cfi_def_cfa_offset 8
 1200 018c E9000000 		jmp	_ZN8UnitTest9ListAdderC1ERNS_8TestListEPNS_4TestE@PLT
 1200      00
 1201              		.cfi_endproc
 1202              	.LFE1389:
 1204              		.section	.init_array,"aw"
 1205              		.align 8
 1206 0000 00000000 		.quad	_GLOBAL__sub_I_buf
 1206      00000000 
 1207              		.weak	_ZTS24TestError_testNullRender
 1208              		.section	.rodata._ZTS24TestError_testNullRender,"aG",@progbits,_ZTS24TestError_testNullRender,comd
 1209              		.align 16
 1212              	_ZTS24TestError_testNullRender:
 1213 0000 32345465 		.string	"24TestError_testNullRender"
 1213      73744572 
 1213      726F725F 
 1213      74657374 
 1213      4E756C6C 
 1214              		.weak	_ZTI24TestError_testNullRender
 1215              		.section	.data.rel.ro._ZTI24TestError_testNullRender,"awG",@progbits,_ZTI24TestError_testNullRende
 1216              		.align 8
 1219              	_ZTI24TestError_testNullRender:
 1220 0000 00000000 		.quad	_ZTVN10__cxxabiv120__si_class_type_infoE+16
 1220      00000000 
 1221 0008 00000000 		.quad	_ZTS24TestError_testNullRender
 1221      00000000 
 1222 0010 00000000 		.quad	_ZTIN8UnitTest4TestE
 1222      00000000 
 1223              		.weak	_ZTS20TestError_testRender
 1224              		.section	.rodata._ZTS20TestError_testRender,"aG",@progbits,_ZTS20TestError_testRender,comdat
 1225              		.align 16
 1228              	_ZTS20TestError_testRender:
 1229 0000 32305465 		.string	"20TestError_testRender"
 1229      73744572 
 1229      726F725F 
 1229      74657374 
 1229      52656E64 
 1230              		.weak	_ZTI20TestError_testRender
 1231              		.section	.data.rel.ro._ZTI20TestError_testRender,"awG",@progbits,_ZTI20TestError_testRender,comdat
 1232              		.align 8
 1235              	_ZTI20TestError_testRender:
 1236 0000 00000000 		.quad	_ZTVN10__cxxabiv120__si_class_type_infoE+16
 1236      00000000 
 1237 0008 00000000 		.quad	_ZTS20TestError_testRender
 1237      00000000 
 1238 0010 00000000 		.quad	_ZTIN8UnitTest4TestE
 1238      00000000 
 1239              		.weak	_ZTS27TestError_testNullStdRender
 1240              		.section	.rodata._ZTS27TestError_testNullStdRender,"aG",@progbits,_ZTS27TestError_testNullStdRende
 1241              		.align 16
 1244              	_ZTS27TestError_testNullStdRender:
 1245 0000 32375465 		.string	"27TestError_testNullStdRender"
 1245      73744572 
 1245      726F725F 
 1245      74657374 
 1245      4E756C6C 
 1246              		.weak	_ZTI27TestError_testNullStdRender
 1247              		.section	.data.rel.ro._ZTI27TestError_testNullStdRender,"awG",@progbits,_ZTI27TestError_testNullSt
 1248              		.align 8
 1251              	_ZTI27TestError_testNullStdRender:
 1252 0000 00000000 		.quad	_ZTVN10__cxxabiv120__si_class_type_infoE+16
 1252      00000000 
 1253 0008 00000000 		.quad	_ZTS27TestError_testNullStdRender
 1253      00000000 
 1254 0010 00000000 		.quad	_ZTIN8UnitTest4TestE
 1254      00000000 
 1255              		.weak	_ZTS23TestError_testStdRender
 1256              		.section	.rodata._ZTS23TestError_testStdRender,"aG",@progbits,_ZTS23TestError_testStdRender,comdat
 1257              		.align 16
 1260              	_ZTS23TestError_testStdRender:
 1261 0000 32335465 		.string	"23TestError_testStdRender"
 1261      73744572 
 1261      726F725F 
 1261      74657374 
 1261      53746452 
 1262              		.weak	_ZTI23TestError_testStdRender
 1263              		.section	.data.rel.ro._ZTI23TestError_testStdRender,"awG",@progbits,_ZTI23TestError_testStdRender,
 1264              		.align 8
 1267              	_ZTI23TestError_testStdRender:
 1268 0000 00000000 		.quad	_ZTVN10__cxxabiv120__si_class_type_infoE+16
 1268      00000000 
 1269 0008 00000000 		.quad	_ZTS23TestError_testStdRender
 1269      00000000 
 1270 0010 00000000 		.quad	_ZTIN8UnitTest4TestE
 1270      00000000 
 1271              		.weak	_ZTV24TestError_testNullRender
 1272              		.section	.data.rel.ro.local._ZTV24TestError_testNullRender,"awG",@progbits,_ZTV24TestError_testNul
 1273              		.align 8
 1276              	_ZTV24TestError_testNullRender:
 1277 0000 00000000 		.quad	0
 1277      00000000 
 1278 0008 00000000 		.quad	_ZTI24TestError_testNullRender
 1278      00000000 
 1279 0010 00000000 		.quad	_ZN24TestError_testNullRenderD1Ev
 1279      00000000 
 1280 0018 00000000 		.quad	_ZN24TestError_testNullRenderD0Ev
 1280      00000000 
 1281 0020 00000000 		.quad	_ZNK24TestError_testNullRender7RunImplEv
 1281      00000000 
 1282              		.weak	_ZTV20TestError_testRender
 1283              		.section	.data.rel.ro.local._ZTV20TestError_testRender,"awG",@progbits,_ZTV20TestError_testRender,
 1284              		.align 8
 1287              	_ZTV20TestError_testRender:
 1288 0000 00000000 		.quad	0
 1288      00000000 
 1289 0008 00000000 		.quad	_ZTI20TestError_testRender
 1289      00000000 
 1290 0010 00000000 		.quad	_ZN20TestError_testRenderD1Ev
 1290      00000000 
 1291 0018 00000000 		.quad	_ZN20TestError_testRenderD0Ev
 1291      00000000 
 1292 0020 00000000 		.quad	_ZNK20TestError_testRender7RunImplEv
 1292      00000000 
 1293              		.weak	_ZTV27TestError_testNullStdRender
 1294              		.section	.data.rel.ro.local._ZTV27TestError_testNullStdRender,"awG",@progbits,_ZTV27TestError_test
 1295              		.align 8
 1298              	_ZTV27TestError_testNullStdRender:
 1299 0000 00000000 		.quad	0
 1299      00000000 
 1300 0008 00000000 		.quad	_ZTI27TestError_testNullStdRender
 1300      00000000 
 1301 0010 00000000 		.quad	_ZN27TestError_testNullStdRenderD1Ev
 1301      00000000 
 1302 0018 00000000 		.quad	_ZN27TestError_testNullStdRenderD0Ev
 1302      00000000 
 1303 0020 00000000 		.quad	_ZNK27TestError_testNullStdRender7RunImplEv
 1303      00000000 
 1304              		.weak	_ZTV23TestError_testStdRender
 1305              		.section	.data.rel.ro.local._ZTV23TestError_testStdRender,"awG",@progbits,_ZTV23TestError_testStdR
 1306              		.align 8
 1309              	_ZTV23TestError_testStdRender:
 1310 0000 00000000 		.quad	0
 1310      00000000 
 1311 0008 00000000 		.quad	_ZTI23TestError_testStdRender
 1311      00000000 
 1312 0010 00000000 		.quad	_ZN23TestError_testStdRenderD1Ev
 1312      00000000 
 1313 0018 00000000 		.quad	_ZN23TestError_testStdRenderD0Ev
 1313      00000000 
 1314 0020 00000000 		.quad	_ZNK23TestError_testStdRender7RunImplEv
 1314      00000000 
 1315              		.globl	adderError_testStdRender
 1316              		.bss
 1319              	adderError_testStdRender:
 1320 0000 00       		.zero	1
 1321              		.globl	testError_testStdRenderInstance
 1322 0001 00000000 		.align 32
 1322      00000000 
 1322      00000000 
 1322      00000000 
 1322      00000000 
 1325              	testError_testStdRenderInstance:
 1326 0020 00000000 		.zero	56
 1326      00000000 
 1326      00000000 
 1326      00000000 
 1326      00000000 
 1327              		.globl	adderError_testNullStdRender
 1330              	adderError_testNullStdRender:
 1331 0058 00       		.zero	1
 1332              		.globl	testError_testNullStdRenderInstance
 1333 0059 00000000 		.align 32
 1333      000000
 1336              	testError_testNullStdRenderInstance:
 1337 0060 00000000 		.zero	56
 1337      00000000 
 1337      00000000 
 1337      00000000 
 1337      00000000 
 1338              		.globl	adderError_testRender
 1341              	adderError_testRender:
 1342 0098 00       		.zero	1
 1343              		.globl	testError_testRenderInstance
 1344 0099 00000000 		.align 32
 1344      000000
 1347              	testError_testRenderInstance:
 1348 00a0 00000000 		.zero	56
 1348      00000000 
 1348      00000000 
 1348      00000000 
 1348      00000000 
 1349              		.globl	adderError_testNullRender
 1352              	adderError_testNullRender:
 1353 00d8 00       		.zero	1
 1354              		.globl	testError_testNullRenderInstance
 1355 00d9 00000000 		.align 32
 1355      000000
 1358              	testError_testNullRenderInstance:
 1359 00e0 00000000 		.zero	56
 1359      00000000 
 1359      00000000 
 1359      00000000 
 1359      00000000 
 1360              		.globl	buf
 1361 0118 00000000 		.align 32
 1361      00000000 
 1364              	buf:
 1365 0120 00000000 		.zero	1024
 1365      00000000 
 1365      00000000 
 1365      00000000 
 1365      00000000 
 1366              		.section	.rodata.cst16,"aM",@progbits,16
 1367              		.align 16
 1368              	.LC0:
 1369 0000 41       		.byte	65
 1370 0001 41       		.byte	65
 1371 0002 41       		.byte	65
 1372 0003 41       		.byte	65
 1373 0004 41       		.byte	65
 1374 0005 41       		.byte	65
 1375 0006 41       		.byte	65
 1376 0007 41       		.byte	65
 1377 0008 41       		.byte	65
 1378 0009 41       		.byte	65
 1379 000a 41       		.byte	65
 1380 000b 41       		.byte	65
 1381 000c 41       		.byte	65
 1382 000d 41       		.byte	65
 1383 000e 41       		.byte	65
 1384 000f 41       		.byte	65
 1385              		.hidden	DW.ref.__gxx_personality_v0
 1386              		.weak	DW.ref.__gxx_personality_v0
 1387              		.section	.data.rel.local.DW.ref.__gxx_personality_v0,"awG",@progbits,DW.ref.__gxx_personality_v0,c
 1388              		.align 8
 1391              	DW.ref.__gxx_personality_v0:
 1392 0000 00000000 		.quad	__gxx_personality_v0
 1392      00000000 
 1393              		.hidden	__dso_handle
 1394              		.ident	"GCC: (Ubuntu 12.2.0-17ubuntu1) 12.2.0"
 1395              		.section	.note.GNU-stack,"",@progbits
 1396              		.section	.note.gnu.property,"a"
 1397              		.align 8
 1398 0000 04000000 		.long	1f - 0f
 1399 0004 10000000 		.long	4f - 1f
 1400 0008 05000000 		.long	5
 1401              	0:
 1402 000c 474E5500 		.string	"GNU"
 1403              	1:
 1404              		.align 8
 1405 0010 020000C0 		.long	0xc0000002
 1406 0014 04000000 		.long	3f - 2f
 1407              	2:
 1408 0018 03000000 		.long	0x3
 1409              	3:
 1410 001c 00000000 		.align 8
 1411              	4: