   1              		.file	"eeprom.c"
   2              		.text
   3              		.section	.rodata.str1.8,"aMS",@progbits,1
   4              		.align 8
   5              	.LC0:
   6 0000 66783257 		.string	"fx2WriteEEPROM(): This firmware does not seem to support EEPROM operations - try loading 
   6      72697465 
   6      45455052 
   6      4F4D2829 
   6      3A205468 
   7              		.text
   8              		.p2align 4
   9              		.globl	fx2WriteEEPROM
  11              	fx2WriteEEPROM:
  12              	.LFB32:
  13              		.cfi_startproc
  14 0000 F30F1EFA 		endbr64
  15 0004 4157     		pushq	%r15
  16              		.cfi_def_cfa_offset 16
  17              		.cfi_offset 15, -16
  18 0006 4989F7   		movq	%rsi, %r15
  19 0009 4156     		pushq	%r14
  20              		.cfi_def_cfa_offset 24
  21              		.cfi_offset 14, -24
  22 000b 4155     		pushq	%r13
  23              		.cfi_def_cfa_offset 32
  24              		.cfi_offset 13, -32
  25 000d 4989FD   		movq	%rdi, %r13
  26 0010 4154     		pushq	%r12
  27              		.cfi_def_cfa_offset 40
  28              		.cfi_offset 12, -40
  29 0012 55       		pushq	%rbp
  30              		.cfi_def_cfa_offset 48
  31              		.cfi_offset 6, -48
  32 0013 89D5     		movl	%edx, %ebp
  33 0015 53       		pushq	%rbx
  34              		.cfi_def_cfa_offset 56
  35              		.cfi_offset 3, -56
  36 0016 4883EC18 		subq	$24, %rsp
  37              		.cfi_def_cfa_offset 80
  38 001a 48894C24 		movq	%rcx, 8(%rsp)
  38      08
  39 001f 81FA0010 		cmpl	$4096, %edx
  39      0000
  40 0025 0F8EE900 		jle	.L7
  40      0000
  41 002b 4531F6   		xorl	%r14d, %r14d
  42 002e EB1B     		jmp	.L5
  43              		.p2align 4,,10
  44              		.p2align 3
  45              	.L3:
  46 0030 81ED0010 		subl	$4096, %ebp
  46      0000
  47 0036 4981C700 		addq	$4096, %r15
  47      100000
  48 003d 664181C6 		addw	$4096, %r14w
  48      0010
  49 0043 81FD0010 		cmpl	$4096, %ebp
  49      0000
  50 0049 7675     		jbe	.L12
  51              	.L5:
  52 004b 68881300 		pushq	$5000
  52      00
  53              		.cfi_def_cfa_offset 88
  54 0050 450FB7E6 		movzwl	%r14w, %r12d
  55 0054 4D89F9   		movq	%r15, %r9
  56 0057 4531C0   		xorl	%r8d, %r8d
  57 005a 68001000 		pushq	$4096
  57      00
  58              		.cfi_def_cfa_offset 96
  59 005f 4489E1   		movl	%r12d, %ecx
  60 0062 BE400000 		movl	$64, %esi
  60      00
  61 0067 4C89EF   		movq	%r13, %rdi
  62 006a BAA20000 		movl	$162, %edx
  62      00
  63 006f E8000000 		call	usb_control_msg@PLT
  63      00
  64 0074 59       		popq	%rcx
  65              		.cfi_def_cfa_offset 88
  66 0075 5E       		popq	%rsi
  67              		.cfi_def_cfa_offset 80
  68 0076 89C3     		movl	%eax, %ebx
  69 0078 3D001000 		cmpl	$4096, %eax
  69      00
  70 007d 74B1     		je	.L3
  71 007f E8000000 		call	usb_strerror@PLT
  71      00
  72 0084 488B7C24 		movq	8(%rsp), %rdi
  72      08
  73 0089 4189D8   		movl	%ebx, %r8d
  74 008c 4489E1   		movl	%r12d, %ecx
  75 008f 4989C1   		movq	%rax, %r9
  76 0092 BA001000 		movl	$4096, %edx
  76      00
  77 0097 488D3500 		leaq	.LC0(%rip), %rsi
  77      000000
  78 009e 31C0     		xorl	%eax, %eax
  79 00a0 E8000000 		call	errRender@PLT
  79      00
  80              	.L6:
  81 00a5 B8010000 		movl	$1, %eax
  81      00
  82              	.L1:
  83 00aa 4883C418 		addq	$24, %rsp
  84              		.cfi_remember_state
  85              		.cfi_def_cfa_offset 56
  86 00ae 5B       		popq	%rbx
  87              		.cfi_def_cfa_offset 48
  88 00af 5D       		popq	%rbp
  89              		.cfi_def_cfa_offset 40
  90 00b0 415C     		popq	%r12
  91              		.cfi_def_cfa_offset 32
  92 00b2 415D     		popq	%r13
  93              		.cfi_def_cfa_offset 24
  94 00b4 415E     		popq	%r14
  95              		.cfi_def_cfa_offset 16
  96 00b6 415F     		popq	%r15
  97              		.cfi_def_cfa_offset 8
  98 00b8 C3       		ret
  99 00b9 0F1F8000 		.p2align 4,,10
  99      000000
 100              		.p2align 3
 101              	.L12:
 102              		.cfi_restore_state
 103 00c0 410FB7DE 		movzwl	%r14w, %ebx
 104              	.L2:
 105 00c4 68881300 		pushq	$5000
 105      00
 106              		.cfi_def_cfa_offset 88
 107 00c9 BAA20000 		movl	$162, %edx
 107      00
 108 00ce 4D89F9   		movq	%r15, %r9
 109 00d1 4531C0   		xorl	%r8d, %r8d
 110 00d4 55       		pushq	%rbp
 111              		.cfi_def_cfa_offset 96
 112 00d5 89D9     		movl	%ebx, %ecx
 113 00d7 BE400000 		movl	$64, %esi
 113      00
 114 00dc 4C89EF   		movq	%r13, %rdi
 115 00df E8000000 		call	usb_control_msg@PLT
 115      00
 116 00e4 4189C4   		movl	%eax, %r12d
 117 00e7 58       		popq	%rax
 118              		.cfi_def_cfa_offset 88
 119 00e8 31C0     		xorl	%eax, %eax
 120 00ea 5A       		popq	%rdx
 121              		.cfi_def_cfa_offset 80
 122 00eb 4139EC   		cmpl	%ebp, %r12d
 123 00ee 74BA     		je	.L1
 124 00f0 E8000000 		call	usb_strerror@PLT
 124      00
 125 00f5 488B7C24 		movq	8(%rsp), %rdi
 125      08
 126 00fa 4589E0   		movl	%r12d, %r8d
 127 00fd 89D9     		movl	%ebx, %ecx
 128 00ff 4989C1   		movq	%rax, %r9
 129 0102 89EA     		movl	%ebp, %edx
 130 0104 488D3500 		leaq	.LC0(%rip), %rsi
 130      000000
 131 010b 31C0     		xorl	%eax, %eax
 132 010d E8000000 		call	errRender@PLT
 132      00
 133 0112 EB91     		jmp	.L6
 134              	.L7:
 135 0114 31DB     		xorl	%ebx, %ebx
 136 0116 EBAC     		jmp	.L2
 137              		.cfi_endproc
 138              	.LFE32:
 140              		.section	.rodata.str1.1,"aMS",@progbits,1
 141              	.LC1:
 142 0000 66783252 		.string	"fx2ReadEEPROM()"
 142      65616445 
 142      4550524F 
 142      4D282900 
 143              		.section	.rodata.str1.8
 144 00cd 000000   		.align 8
 145              	.LC2:
 146 00d0 66783252 		.string	"fx2ReadEEPROM(): This firmware does not seem to support EEPROM operations - try loading a
 146      65616445 
 146      4550524F 
 146      4D28293A 
 146      20546869 
 147              		.text
 148 0118 0F1F8400 		.p2align 4
 148      00000000 
 149              		.globl	fx2ReadEEPROM
 151              	fx2ReadEEPROM:
 152              	.LFB33:
 153              		.cfi_startproc
 154 0120 F30F1EFA 		endbr64
 155 0124 4157     		pushq	%r15
 156              		.cfi_def_cfa_offset 16
 157              		.cfi_offset 15, -16
 158 0126 4189F7   		movl	%esi, %r15d
 159 0129 4156     		pushq	%r14
 160              		.cfi_def_cfa_offset 24
 161              		.cfi_offset 14, -24
 162 012b 4155     		pushq	%r13
 163              		.cfi_def_cfa_offset 32
 164              		.cfi_offset 13, -32
 165 012d 4154     		pushq	%r12
 166              		.cfi_def_cfa_offset 40
 167              		.cfi_offset 12, -40
 168 012f 4989FC   		movq	%rdi, %r12
 169 0132 55       		pushq	%rbp
 170              		.cfi_def_cfa_offset 48
 171              		.cfi_offset 6, -48
 172 0133 53       		pushq	%rbx
 173              		.cfi_def_cfa_offset 56
 174              		.cfi_offset 3, -56
 175 0134 4889D3   		movq	%rdx, %rbx
 176 0137 89F2     		movl	%esi, %edx
 177 0139 31F6     		xorl	%esi, %esi
 178 013b 4889DF   		movq	%rbx, %rdi
 179 013e 4883EC18 		subq	$24, %rsp
 180              		.cfi_def_cfa_offset 80
 181 0142 48894C24 		movq	%rcx, 8(%rsp)
 181      08
 182 0147 E8000000 		call	bufAppendConst@PLT
 182      00
 183 014c 89442404 		movl	%eax, 4(%rsp)
 184 0150 85C0     		testl	%eax, %eax
 185 0152 0F850001 		jne	.L23
 185      0000
 186 0158 4C8B33   		movq	(%rbx), %r14
 187 015b 4181FF00 		cmpl	$4096, %r15d
 187      100000
 188 0162 0F860E01 		jbe	.L20
 188      0000
 189 0168 4531ED   		xorl	%r13d, %r13d
 190 016b EB20     		jmp	.L19
 191 016d 0F1F00   		.p2align 4,,10
 192              		.p2align 3
 193              	.L17:
 194 0170 4181EF00 		subl	$4096, %r15d
 194      100000
 195 0177 4981C600 		addq	$4096, %r14
 195      100000
 196 017e 664181C5 		addw	$4096, %r13w
 196      0010
 197 0184 4181FF00 		cmpl	$4096, %r15d
 197      100000
 198 018b 7673     		jbe	.L24
 199              	.L19:
 200 018d 68881300 		pushq	$5000
 200      00
 201              		.cfi_def_cfa_offset 88
 202 0192 410FB7ED 		movzwl	%r13w, %ebp
 203 0196 4D89F1   		movq	%r14, %r9
 204 0199 4531C0   		xorl	%r8d, %r8d
 205 019c 68001000 		pushq	$4096
 205      00
 206              		.cfi_def_cfa_offset 96
 207 01a1 89E9     		movl	%ebp, %ecx
 208 01a3 BEC00000 		movl	$192, %esi
 208      00
 209 01a8 4C89E7   		movq	%r12, %rdi
 210 01ab BAA20000 		movl	$162, %edx
 210      00
 211 01b0 E8000000 		call	usb_control_msg@PLT
 211      00
 212 01b5 59       		popq	%rcx
 213              		.cfi_def_cfa_offset 88
 214 01b6 5E       		popq	%rsi
 215              		.cfi_def_cfa_offset 80
 216 01b7 89C3     		movl	%eax, %ebx
 217 01b9 3D001000 		cmpl	$4096, %eax
 217      00
 218 01be 74B0     		je	.L17
 219 01c0 E8000000 		call	usb_strerror@PLT
 219      00
 220 01c5 488B7C24 		movq	8(%rsp), %rdi
 220      08
 221 01ca 4189D8   		movl	%ebx, %r8d
 222 01cd 89E9     		movl	%ebp, %ecx
 223 01cf 4989C1   		movq	%rax, %r9
 224 01d2 BA001000 		movl	$4096, %edx
 224      00
 225 01d7 488D3500 		leaq	.LC2(%rip), %rsi
 225      000000
 226 01de 31C0     		xorl	%eax, %eax
 227 01e0 E8000000 		call	errRender@PLT
 227      00
 228              	.L18:
 229 01e5 C7442404 		movl	$1, 4(%rsp)
 229      01000000 
 230              	.L13:
 231 01ed 8B442404 		movl	4(%rsp), %eax
 232 01f1 4883C418 		addq	$24, %rsp
 233              		.cfi_remember_state
 234              		.cfi_def_cfa_offset 56
 235 01f5 5B       		popq	%rbx
 236              		.cfi_def_cfa_offset 48
 237 01f6 5D       		popq	%rbp
 238              		.cfi_def_cfa_offset 40
 239 01f7 415C     		popq	%r12
 240              		.cfi_def_cfa_offset 32
 241 01f9 415D     		popq	%r13
 242              		.cfi_def_cfa_offset 24
 243 01fb 415E     		popq	%r14
 244              		.cfi_def_cfa_offset 16
 245 01fd 415F     		popq	%r15
 246              		.cfi_def_cfa_offset 8
 247 01ff C3       		ret
 248              		.p2align 4,,10
 249              		.p2align 3
 250              	.L24:
 251              		.cfi_restore_state
 252 0200 410FB7DD 		movzwl	%r13w, %ebx
 253              	.L16:
 254 0204 68881300 		pushq	$5000
 254      00
 255              		.cfi_def_cfa_offset 88
 256 0209 BAA20000 		movl	$162, %edx
 256      00
 257 020e 4D89F1   		movq	%r14, %r9
 258 0211 4531C0   		xorl	%r8d, %r8d
 259 0214 4157     		pushq	%r15
 260              		.cfi_def_cfa_offset 96
 261 0216 89D9     		movl	%ebx, %ecx
 262 0218 BEC00000 		movl	$192, %esi
 262      00
 263 021d 4C89E7   		movq	%r12, %rdi
 264 0220 E8000000 		call	usb_control_msg@PLT
 264      00
 265 0225 89C5     		movl	%eax, %ebp
 266 0227 58       		popq	%rax
 267              		.cfi_def_cfa_offset 88
 268 0228 5A       		popq	%rdx
 269              		.cfi_def_cfa_offset 80
 270 0229 4139EF   		cmpl	%ebp, %r15d
 271 022c 74BF     		je	.L13
 272 022e E8000000 		call	usb_strerror@PLT
 272      00
 273 0233 488B7C24 		movq	8(%rsp), %rdi
 273      08
 274 0238 4189E8   		movl	%ebp, %r8d
 275 023b 89D9     		movl	%ebx, %ecx
 276 023d 4989C1   		movq	%rax, %r9
 277 0240 4489FA   		movl	%r15d, %edx
 278 0243 488D3500 		leaq	.LC2(%rip), %rsi
 278      000000
 279 024a 31C0     		xorl	%eax, %eax
 280 024c E8000000 		call	errRender@PLT
 280      00
 281 0251 EB92     		jmp	.L18
 282              		.p2align 4,,10
 283 0253 0F1F4400 		.p2align 3
 283      00
 284              	.L23:
 285 0258 488B7C24 		movq	8(%rsp), %rdi
 285      08
 286 025d 488D3500 		leaq	.LC1(%rip), %rsi
 286      000000
 287 0264 E8000000 		call	errPrefix@PLT
 287      00
 288 0269 C7442404 		movl	$2, 4(%rsp)
 288      02000000 
 289 0271 E977FFFF 		jmp	.L13
 289      FF
 290              	.L20:
 291 0276 31DB     		xorl	%ebx, %ebx
 292 0278 EB8A     		jmp	.L16
 293              		.cfi_endproc
 294              	.LFE33:
 296              		.ident	"GCC: (Ubuntu 12.2.0-17ubuntu1) 12.2.0"
 297              		.section	.note.GNU-stack,"",@progbits
 298              		.section	.note.gnu.property,"a"
 299              		.align 8
 300 0000 04000000 		.long	1f - 0f
 301 0004 10000000 		.long	4f - 1f
 302 0008 05000000 		.long	5
 303              	0:
 304 000c 474E5500 		.string	"GNU"
 305              	1:
 306              		.align 8
 307 0010 020000C0 		.long	0xc0000002
 308 0014 04000000 		.long	3f - 2f
 309              	2:
 310 0018 03000000 		.long	0x3
 311              	3:
 312 001c 00000000 		.align 8
 313              	4: