   1              		.file	"i2c.c"
   2              		.text
   3              		.section	.rodata.str1.1,"aMS",@progbits,1
   4              	.LC0:
   5 0000 64756D70 		.string	"dumpChunk()"
   5      4368756E 
   5      6B282900 
   6              		.text
   7              		.p2align 4
   9              	dumpChunk:
  10              	.LFB5:
  11              		.cfi_startproc
  12 0000 664585C0 		testw	%r8w, %r8w
  13 0004 0F84A101 		je	.L29
  13      0000
  14 000a 4157     		pushq	%r15
  15              		.cfi_def_cfa_offset 16
  16              		.cfi_offset 15, -16
  17 000c 4989F7   		movq	%rsi, %r15
  18 000f 4156     		pushq	%r14
  19              		.cfi_def_cfa_offset 24
  20              		.cfi_offset 14, -24
  21 0011 4989D6   		movq	%rdx, %r14
  22 0014 4155     		pushq	%r13
  23              		.cfi_def_cfa_offset 32
  24              		.cfi_offset 13, -32
  25 0016 4589C5   		movl	%r8d, %r13d
  26 0019 4154     		pushq	%r12
  27              		.cfi_def_cfa_offset 40
  28              		.cfi_offset 12, -40
  29 001b 4D89CC   		movq	%r9, %r12
  30 001e 55       		pushq	%rbp
  31              		.cfi_def_cfa_offset 48
  32              		.cfi_offset 6, -48
  33 001f 4889FD   		movq	%rdi, %rbp
  34 0022 53       		pushq	%rbx
  35              		.cfi_def_cfa_offset 56
  36              		.cfi_offset 3, -56
  37 0023 89CB     		movl	%ecx, %ebx
  38 0025 4883EC18 		subq	$24, %rsp
  39              		.cfi_def_cfa_offset 80
  40 0029 664181F8 		cmpw	$1023, %r8w
  40      FF03
  41 002f 0F86A600 		jbe	.L10
  41      0000
  42              	.L9:
  43 0035 4C89E2   		movq	%r12, %rdx
  44 0038 BEFF0300 		movl	$1023, %esi
  44      00
  45 003d 4889EF   		movq	%rbp, %rdi
  46 0040 E8000000 		call	bufAppendWordBE@PLT
  46      00
  47 0045 85C0     		testl	%eax, %eax
  48 0047 0F852401 		jne	.L6
  48      0000
  49 004d 0FB7F3   		movzwl	%bx, %esi
  50 0050 4C89E2   		movq	%r12, %rdx
  51 0053 4889EF   		movq	%rbp, %rdi
  52 0056 E8000000 		call	bufAppendWordBE@PLT
  52      00
  53 005b 85C0     		testl	%eax, %eax
  54 005d 0F850E01 		jne	.L6
  54      0000
  55 0063 440FB7C3 		movzwl	%bx, %r8d
  56 0067 8B4508   		movl	8(%rbp), %eax
  57 006a 4C89E1   		movq	%r12, %rcx
  58 006d BAFF0300 		movl	$1023, %edx
  58      00
  59 0072 4C89C6   		movq	%r8, %rsi
  60 0075 4889EF   		movq	%rbp, %rdi
  61 0078 490337   		addq	(%r15), %rsi
  62 007b 4C894424 		movq	%r8, 8(%rsp)
  62      08
  63 0080 48890424 		movq	%rax, (%rsp)
  64 0084 E8000000 		call	bufAppendBlock@PLT
  64      00
  65 0089 85C0     		testl	%eax, %eax
  66 008b 0F85E000 		jne	.L6
  66      0000
  67 0091 4C8B4424 		movq	8(%rsp), %r8
  67      08
  68 0096 488B1424 		movq	(%rsp), %rdx
  69 009a 498D88FF 		leaq	1023(%r8), %rcx
  69      030000
  70 00a1 4C89C0   		movq	%r8, %rax
  71 00a4 4C29C2   		subq	%r8, %rdx
  72              	.L8:
  73 00a7 498B36   		movq	(%r14), %rsi
  74 00aa 803C0600 		cmpb	$0, (%rsi,%rax)
  75 00ae 750B     		jne	.L7
  76 00b0 488B7500 		movq	0(%rbp), %rsi
  77 00b4 4801C6   		addq	%rax, %rsi
  78 00b7 C6041600 		movb	$0, (%rsi,%rdx)
  79              	.L7:
  80 00bb 4883C001 		addq	$1, %rax
  81 00bf 4839C1   		cmpq	%rax, %rcx
  82 00c2 75E3     		jne	.L8
  83 00c4 664181ED 		subw	$1023, %r13w
  83      FF03
  84 00ca 6681C3FF 		addw	$1023, %bx
  84      03
  85 00cf 664181FD 		cmpw	$1023, %r13w
  85      FF03
  86 00d5 0F875AFF 		ja	.L9
  86      FFFF
  87              	.L10:
  88 00db 410FB7C5 		movzwl	%r13w, %eax
  89 00df 4C89E2   		movq	%r12, %rdx
  90 00e2 4889EF   		movq	%rbp, %rdi
  91 00e5 89C6     		movl	%eax, %esi
  92 00e7 890424   		movl	%eax, (%rsp)
  93 00ea E8000000 		call	bufAppendWordBE@PLT
  93      00
  94 00ef 85C0     		testl	%eax, %eax
  95 00f1 0F85AB00 		jne	.L27
  95      0000
  96 00f7 0FB7F3   		movzwl	%bx, %esi
  97 00fa 4C89E2   		movq	%r12, %rdx
  98 00fd 4889EF   		movq	%rbp, %rdi
  99 0100 E8000000 		call	bufAppendWordBE@PLT
  99      00
 100 0105 85C0     		testl	%eax, %eax
 101 0107 0F859500 		jne	.L27
 101      0000
 102 010d 498B37   		movq	(%r15), %rsi
 103 0110 448B4508 		movl	8(%rbp), %r8d
 104 0114 0FB7DB   		movzwl	%bx, %ebx
 105 0117 4C89E1   		movq	%r12, %rcx
 106 011a 8B1424   		movl	(%rsp), %edx
 107 011d 4889EF   		movq	%rbp, %rdi
 108 0120 4801DE   		addq	%rbx, %rsi
 109 0123 4C894424 		movq	%r8, 8(%rsp)
 109      08
 110 0128 E8000000 		call	bufAppendBlock@PLT
 110      00
 111 012d 4C8B4424 		movq	8(%rsp), %r8
 111      08
 112 0132 85C0     		testl	%eax, %eax
 113 0134 756C     		jne	.L27
 114 0136 410FB7D5 		movzwl	%r13w, %edx
 115 013a 4C89C0   		movq	%r8, %rax
 116 013d 4C29C3   		subq	%r8, %rbx
 117 0140 4C01C2   		addq	%r8, %rdx
 118              	.L12:
 119 0143 498B0E   		movq	(%r14), %rcx
 120 0146 4801C1   		addq	%rax, %rcx
 121 0149 803C1900 		cmpb	$0, (%rcx,%rbx)
 122 014d 7508     		jne	.L11
 123 014f 488B4D00 		movq	0(%rbp), %rcx
 124 0153 C6040100 		movb	$0, (%rcx,%rax)
 125              	.L11:
 126 0157 4883C001 		addq	$1, %rax
 127 015b 4839C2   		cmpq	%rax, %rdx
 128 015e 75E3     		jne	.L12
 129 0160 4883C418 		addq	$24, %rsp
 130              		.cfi_remember_state
 131              		.cfi_def_cfa_offset 56
 132 0164 31C0     		xorl	%eax, %eax
 133 0166 5B       		popq	%rbx
 134              		.cfi_def_cfa_offset 48
 135 0167 5D       		popq	%rbp
 136              		.cfi_def_cfa_offset 40
 137 0168 415C     		popq	%r12
 138              		.cfi_def_cfa_offset 32
 139 016a 415D     		popq	%r13
 140              		.cfi_def_cfa_offset 24
 141 016c 415E     		popq	%r14
 142              		.cfi_def_cfa_offset 16
 143 016e 415F     		popq	%r15
 144              		.cfi_def_cfa_offset 8
 145 0170 C3       		ret
 146              	.L6:
 147              		.cfi_restore_state
 148 0171 488D1D00 		leaq	.LC0(%rip), %rbx
 148      000000
 149 0178 4C89E7   		movq	%r12, %rdi
 150 017b 4889DE   		movq	%rbx, %rsi
 151 017e E8000000 		call	errPrefix@PLT
 151      00
 152              	.L5:
 153 0183 4889DE   		movq	%rbx, %rsi
 154 0186 4C89E7   		movq	%r12, %rdi
 155 0189 E8000000 		call	errPrefix@PLT
 155      00
 156 018e 4883C418 		addq	$24, %rsp
 157              		.cfi_remember_state
 158              		.cfi_def_cfa_offset 56
 159 0192 B8010000 		movl	$1, %eax
 159      00
 160 0197 5B       		popq	%rbx
 161              		.cfi_def_cfa_offset 48
 162 0198 5D       		popq	%rbp
 163              		.cfi_def_cfa_offset 40
 164 0199 415C     		popq	%r12
 165              		.cfi_def_cfa_offset 32
 166 019b 415D     		popq	%r13
 167              		.cfi_def_cfa_offset 24
 168 019d 415E     		popq	%r14
 169              		.cfi_def_cfa_offset 16
 170 019f 415F     		popq	%r15
 171              		.cfi_def_cfa_offset 8
 172 01a1 C3       		ret
 173              	.L27:
 174              		.cfi_restore_state
 175 01a2 488D1D00 		leaq	.LC0(%rip), %rbx
 175      000000
 176 01a9 EBD8     		jmp	.L5
 177              	.L29:
 178              		.cfi_def_cfa_offset 8
 179              		.cfi_restore 3
 180              		.cfi_restore 6
 181              		.cfi_restore 12
 182              		.cfi_restore 13
 183              		.cfi_restore 14
 184              		.cfi_restore 15
 185 01ab 31C0     		xorl	%eax, %eax
 186 01ad C3       		ret
 187              		.cfi_endproc
 188              	.LFE5:
 190 01ae 6690     		.p2align 4
 191              		.globl	i2cInitialise
 193              	i2cInitialise:
 194              	.LFB4:
 195              		.cfi_startproc
 196 01b0 F30F1EFA 		endbr64
 197 01b4 53       		pushq	%rbx
 198              		.cfi_def_cfa_offset 16
 199              		.cfi_offset 3, -16
 200 01b5 89F3     		movl	%esi, %ebx
 201 01b7 488B37   		movq	(%rdi), %rsi
 202 01ba C7470808 		movl	$8, 8(%rdi)
 202      000000
 203 01c1 C606C2   		movb	$-62, (%rsi)
 204 01c4 488B37   		movq	(%rdi), %rsi
 205 01c7 885E01   		movb	%bl, 1(%rsi)
 206 01ca 488B37   		movq	(%rdi), %rsi
 207 01cd 887E02   		movb	%bh, 2(%rsi)
 208 01d0 488B37   		movq	(%rdi), %rsi
 209 01d3 885603   		movb	%dl, 3(%rsi)
 210 01d6 488B37   		movq	(%rdi), %rsi
 211 01d9 887604   		movb	%dh, 4(%rsi)
 212 01dc 488B17   		movq	(%rdi), %rdx
 213 01df 884A05   		movb	%cl, 5(%rdx)
 214 01e2 488B17   		movq	(%rdi), %rdx
 215 01e5 886A06   		movb	%ch, 6(%rdx)
 216 01e8 488B07   		movq	(%rdi), %rax
 217 01eb 44884007 		movb	%r8b, 7(%rax)
 218 01ef 5B       		popq	%rbx
 219              		.cfi_def_cfa_offset 8
 220 01f0 C3       		ret
 221              		.cfi_endproc
 222              	.LFE4:
 224              		.section	.rodata.str1.8,"aMS",@progbits,1
 225              		.align 8
 226              	.LC1:
 227 0000 69326357 		.string	"i2cWritePromRecords(): the buffer was not initialised"
 227      72697465 
 227      50726F6D 
 227      5265636F 
 227      72647328 
 228              		.text
 229 01f1 66662E0F 		.p2align 4
 229      1F840000 
 229      0000000F 
 229      1F4000
 230              		.globl	i2cWritePromRecords
 232              	i2cWritePromRecords:
 233              	.LFB6:
 234              		.cfi_startproc
 235 0200 F30F1EFA 		endbr64
 236 0204 4156     		pushq	%r14
 237              		.cfi_def_cfa_offset 16
 238              		.cfi_offset 14, -16
 239 0206 4989CE   		movq	%rcx, %r14
 240 0209 4155     		pushq	%r13
 241              		.cfi_def_cfa_offset 24
 242              		.cfi_offset 13, -24
 243 020b 4154     		pushq	%r12
 244              		.cfi_def_cfa_offset 32
 245              		.cfi_offset 12, -32
 246 020d 55       		pushq	%rbp
 247              		.cfi_def_cfa_offset 40
 248              		.cfi_offset 6, -40
 249 020e 53       		pushq	%rbx
 250              		.cfi_def_cfa_offset 48
 251              		.cfi_offset 3, -48
 252 020f 837F0808 		cmpl	$8, 8(%rdi)
 253 0213 0F854701 		jne	.L33
 253      0000
 254 0219 488B07   		movq	(%rdi), %rax
 255 021c 4989FC   		movq	%rdi, %r12
 256 021f 8038C2   		cmpb	$-62, (%rax)
 257 0222 0F853801 		jne	.L33
 257      0000
 258 0228 4889D5   		movq	%rdx, %rbp
 259 022b 488B12   		movq	(%rdx), %rdx
 260 022e 31DB     		xorl	%ebx, %ebx
 261 0230 31C0     		xorl	%eax, %eax
 262 0232 448B4608 		movl	8(%rsi), %r8d
 263 0236 4989F5   		movq	%rsi, %r13
 264 0239 803A00   		cmpb	$0, (%rdx)
 265 023c 0F849E00 		je	.L34
 265      0000
 266              	.L35:
 267 0242 4439C0   		cmpl	%r8d, %eax
 268 0245 747D     		je	.L38
 269              	.L62:
 270 0247 89DF     		movl	%ebx, %edi
 271 0249 0FB7C3   		movzwl	%bx, %eax
 272              	.L39:
 273 024c 0FB7CB   		movzwl	%bx, %ecx
 274 024f 803C0A00 		cmpb	$0, (%rdx,%rcx)
 275 0253 7554     		jne	.L40
 276              	.L60:
 277 0255 4139C0   		cmpl	%eax, %r8d
 278 0258 0F842601 		je	.L58
 278      0000
 279 025e 418D70FC 		leal	-4(%r8), %esi
 280 0262 39F0     		cmpl	%esi, %eax
 281 0264 0F831501 		jnb	.L43
 281      0000
 282 026a 807C0A01 		cmpb	$0, 1(%rdx,%rcx)
 282      00
 283 026f 7517     		jne	.L49
 284 0271 807C0A02 		cmpb	$0, 2(%rdx,%rcx)
 284      00
 285 0276 7510     		jne	.L49
 286 0278 807C0A03 		cmpb	$0, 3(%rdx,%rcx)
 286      00
 287 027d 0F847D00 		je	.L59
 287      0000
 288              		.p2align 4,,10
 289 0283 0F1F4400 		.p2align 3
 289      00
 290              	.L49:
 291 0288 83C301   		addl	$1, %ebx
 292 028b 0FB7C3   		movzwl	%bx, %eax
 293 028e 803C0200 		cmpb	$0, (%rdx,%rax)
 294 0292 74F4     		je	.L49
 295 0294 0FB7C3   		movzwl	%bx, %eax
 296              	.L46:
 297 0297 4439C0   		cmpl	%r8d, %eax
 298 029a 7328     		jnb	.L38
 299 029c 488B5500 		movq	0(%rbp), %rdx
 300 02a0 0FB7CB   		movzwl	%bx, %ecx
 301 02a3 803C0A00 		cmpb	$0, (%rdx,%rcx)
 302 02a7 74AC     		je	.L60
 303              	.L40:
 304 02a9 4439C0   		cmpl	%r8d, %eax
 305 02ac 7242     		jb	.L44
 306 02ae 4139C0   		cmpl	%eax, %r8d
 307 02b1 0F84CD00 		je	.L58
 307      0000
 308 02b7 4183E804 		subl	$4, %r8d
 309 02bb 4439C0   		cmpl	%r8d, %eax
 310 02be 0F83BB00 		jnb	.L43
 310      0000
 311              	.L38:
 312 02c4 31C0     		xorl	%eax, %eax
 313              	.L32:
 314 02c6 5B       		popq	%rbx
 315              		.cfi_remember_state
 316              		.cfi_def_cfa_offset 40
 317 02c7 5D       		popq	%rbp
 318              		.cfi_def_cfa_offset 32
 319 02c8 415C     		popq	%r12
 320              		.cfi_def_cfa_offset 24
 321 02ca 415D     		popq	%r13
 322              		.cfi_def_cfa_offset 16
 323 02cc 415E     		popq	%r14
 324              		.cfi_def_cfa_offset 8
 325 02ce C3       		ret
 326 02cf 90       		.p2align 4,,10
 327              		.p2align 3
 328              	.L37:
 329              		.cfi_restore_state
 330 02d0 83C301   		addl	$1, %ebx
 331 02d3 0FB7C3   		movzwl	%bx, %eax
 332 02d6 803C0200 		cmpb	$0, (%rdx,%rax)
 333 02da 0F85C700 		jne	.L61
 333      0000
 334              	.L34:
 335 02e0 0FB7C3   		movzwl	%bx, %eax
 336 02e3 4439C0   		cmpl	%r8d, %eax
 337 02e6 72E8     		jb	.L37
 338 02e8 E955FFFF 		jmp	.L35
 338      FF
 339 02ed 0F1F00   		.p2align 4,,10
 340              		.p2align 3
 341              	.L44:
 342 02f0 83C301   		addl	$1, %ebx
 343 02f3 0FB7C3   		movzwl	%bx, %eax
 344 02f6 E951FFFF 		jmp	.L39
 344      FF
 345 02fb 0F1F4400 		.p2align 4,,10
 345      00
 346              		.p2align 3
 347              	.L59:
 348 0300 4189D8   		movl	%ebx, %r8d
 349 0303 0FB7CF   		movzwl	%di, %ecx
 350 0306 4D89F1   		movq	%r14, %r9
 351 0309 4889EA   		movq	%rbp, %rdx
 352 030c 4129F8   		subl	%edi, %r8d
 353 030f 4C89EE   		movq	%r13, %rsi
 354 0312 4C89E7   		movq	%r12, %rdi
 355 0315 450FB7C0 		movzwl	%r8w, %r8d
 356 0319 E8E2FCFF 		call	dumpChunk
 356      FF
 357 031e 85C0     		testl	%eax, %eax
 358 0320 75A4     		jne	.L32
 359 0322 83C304   		addl	$4, %ebx
 360 0325 8B4D08   		movl	8(%rbp), %ecx
 361 0328 458B4508 		movl	8(%r13), %r8d
 362 032c 0FB7C3   		movzwl	%bx, %eax
 363 032f 39C8     		cmpl	%ecx, %eax
 364 0331 7320     		jnb	.L53
 365 0333 488B7500 		movq	0(%rbp), %rsi
 366 0337 EB11     		jmp	.L47
 367 0339 0F1F8000 		.p2align 4,,10
 367      000000
 368              		.p2align 3
 369              	.L48:
 370 0340 83C301   		addl	$1, %ebx
 371 0343 0FB7C3   		movzwl	%bx, %eax
 372 0346 39C8     		cmpl	%ecx, %eax
 373 0348 7309     		jnb	.L53
 374              	.L47:
 375 034a 0FB7D3   		movzwl	%bx, %edx
 376 034d 803C1600 		cmpb	$0, (%rsi,%rdx)
 377 0351 74ED     		je	.L48
 378              	.L53:
 379 0353 89DF     		movl	%ebx, %edi
 380 0355 E93DFFFF 		jmp	.L46
 380      FF
 381 035a 660F1F44 		.p2align 4,,10
 381      0000
 382              		.p2align 3
 383              	.L33:
 384 0360 4C89F7   		movq	%r14, %rdi
 385 0363 31C0     		xorl	%eax, %eax
 386 0365 488D3500 		leaq	.LC1(%rip), %rsi
 386      000000
 387 036c E8000000 		call	errRender@PLT
 387      00
 388 0371 5B       		popq	%rbx
 389              		.cfi_remember_state
 390              		.cfi_def_cfa_offset 40
 391 0372 B8020000 		movl	$2, %eax
 391      00
 392 0377 5D       		popq	%rbp
 393              		.cfi_def_cfa_offset 32
 394 0378 415C     		popq	%r12
 395              		.cfi_def_cfa_offset 24
 396 037a 415D     		popq	%r13
 397              		.cfi_def_cfa_offset 16
 398 037c 415E     		popq	%r14
 399              		.cfi_def_cfa_offset 8
 400 037e C3       		ret
 401              	.L43:
 402              		.cfi_restore_state
 403 037f 440FB745 		movzwl	8(%rbp), %r8d
 403      08
 404              	.L58:
 405 0384 4129F8   		subl	%edi, %r8d
 406 0387 5B       		popq	%rbx
 407              		.cfi_remember_state
 408              		.cfi_def_cfa_offset 40
 409 0388 0FB7CF   		movzwl	%di, %ecx
 410 038b 4D89F1   		movq	%r14, %r9
 411 038e 4889EA   		movq	%rbp, %rdx
 412 0391 4C89EE   		movq	%r13, %rsi
 413 0394 5D       		popq	%rbp
 414              		.cfi_def_cfa_offset 32
 415 0395 4C89E7   		movq	%r12, %rdi
 416 0398 450FB7C0 		movzwl	%r8w, %r8d
 417 039c 415C     		popq	%r12
 418              		.cfi_def_cfa_offset 24
 419 039e 415D     		popq	%r13
 420              		.cfi_def_cfa_offset 16
 421 03a0 415E     		popq	%r14
 422              		.cfi_def_cfa_offset 8
 423 03a2 E959FCFF 		jmp	dumpChunk
 423      FF
 424              	.L61:
 425              		.cfi_restore_state
 426 03a7 0FB7C3   		movzwl	%bx, %eax
 427 03aa 4439C0   		cmpl	%r8d, %eax
 428 03ad 0F8594FE 		jne	.L62
 428      FFFF
 429 03b3 E90CFFFF 		jmp	.L38
 429      FF
 430              		.cfi_endproc
 431              	.LFE6:
 433              		.section	.rodata.str1.8
 434 0036 0000     		.align 8
 435              	.LC2:
 436 0038 69326352 		.string	"i2cReadPromRecords(): the EEPROM records appear to be corrupt"
 436      65616450 
 436      726F6D52 
 436      65636F72 
 436      64732829 
 437 0076 0000     		.align 8
 438              	.LC3:
 439 0078 69326352 		.string	"i2cReadPromRecords(): the destination buffer is not empty"
 439      65616450 
 439      726F6D52 
 439      65636F72 
 439      64732829 
 440              		.section	.rodata.str1.1
 441              	.LC4:
 442 000c 69326352 		.string	"i2cReadPromRecords()"
 442      65616450 
 442      726F6D52 
 442      65636F72 
 442      64732829 
 443              		.text
 444 03b8 0F1F8400 		.p2align 4
 444      00000000 
 445              		.globl	i2cReadPromRecords
 447              	i2cReadPromRecords:
 448              	.LFB7:
 449              		.cfi_startproc
 450 03c0 F30F1EFA 		endbr64
 451 03c4 4157     		pushq	%r15
 452              		.cfi_def_cfa_offset 16
 453              		.cfi_offset 15, -16
 454 03c6 4156     		pushq	%r14
 455              		.cfi_def_cfa_offset 24
 456              		.cfi_offset 14, -24
 457 03c8 4155     		pushq	%r13
 458              		.cfi_def_cfa_offset 32
 459              		.cfi_offset 13, -32
 460 03ca 4154     		pushq	%r12
 461              		.cfi_def_cfa_offset 40
 462              		.cfi_offset 12, -40
 463 03cc 4989CC   		movq	%rcx, %r12
 464 03cf 55       		pushq	%rbp
 465              		.cfi_def_cfa_offset 48
 466              		.cfi_offset 6, -48
 467 03d0 53       		pushq	%rbx
 468              		.cfi_def_cfa_offset 56
 469              		.cfi_offset 3, -56
 470 03d1 4883EC28 		subq	$40, %rsp
 471              		.cfi_def_cfa_offset 96
 472 03d5 448B6A08 		movl	8(%rdx), %r13d
 473 03d9 488B1A   		movq	(%rdx), %rbx
 474 03dc 48897C24 		movq	%rdi, 8(%rsp)
 474      08
 475 03e1 48897424 		movq	%rsi, 16(%rsp)
 475      10
 476 03e6 4183FD0C 		cmpl	$12, %r13d
 477 03ea 0F86C000 		jbe	.L64
 477      0000
 478 03f0 803BC2   		cmpb	$-62, (%rbx)
 479 03f3 0F85B700 		jne	.L64
 479      0000
 480 03f9 8B4708   		movl	8(%rdi), %eax
 481 03fc 85C0     		testl	%eax, %eax
 482 03fe 0F85CC00 		jne	.L67
 482      0000
 483 0404 8B4608   		movl	8(%rsi), %eax
 484 0407 8944241C 		movl	%eax, 28(%rsp)
 485 040b 85C0     		testl	%eax, %eax
 486 040d 0F85BD00 		jne	.L67
 486      0000
 487 0413 4901DD   		addq	%rbx, %r13
 488 0416 4883C308 		addq	$8, %rbx
 489 041a 4C39EB   		cmpq	%r13, %rbx
 490 041d 7267     		jb	.L72
 491 041f EB79     		jmp	.L63
 492              		.p2align 4,,10
 493 0421 0F1F8000 		.p2align 3
 493      000000
 494              	.L75:
 495 0428 4189CE   		movl	%ecx, %r14d
 496 042b 4883C304 		addq	$4, %rbx
 497 042f 440FB7FE 		movzwl	%si, %r15d
 498 0433 488B7C24 		movq	8(%rsp), %rdi
 498      08
 499 0438 4181E6FF 		andl	$1023, %r14d
 499      030000
 500 043f 89CD     		movl	%ecx, %ebp
 501 0441 4D89E0   		movq	%r12, %r8
 502 0444 4889DA   		movq	%rbx, %rdx
 503 0447 4489F1   		movl	%r14d, %ecx
 504 044a 4489FE   		movl	%r15d, %esi
 505 044d 6681E5FF 		andw	$1023, %bp
 505      03
 506 0452 E8000000 		call	bufWriteBlock@PLT
 506      00
 507 0457 85C0     		testl	%eax, %eax
 508 0459 0F859100 		jne	.L71
 508      0000
 509 045f 488B7C24 		movq	16(%rsp), %rdi
 509      10
 510 0464 4D89E0   		movq	%r12, %r8
 511 0467 4489F1   		movl	%r14d, %ecx
 512 046a BA010000 		movl	$1, %edx
 512      00
 513 046f 4489FE   		movl	%r15d, %esi
 514 0472 E8000000 		call	bufWriteConst@PLT
 514      00
 515 0477 85C0     		testl	%eax, %eax
 516 0479 7575     		jne	.L71
 517 047b 0FB7ED   		movzwl	%bp, %ebp
 518 047e 4801EB   		addq	%rbp, %rbx
 519 0481 4C39EB   		cmpq	%r13, %rbx
 520 0484 7314     		jnb	.L63
 521              	.L72:
 522 0486 0FB70B   		movzwl	(%rbx), %ecx
 523 0489 0FB77302 		movzwl	2(%rbx), %esi
 524 048d 66C1C108 		rolw	$8, %cx
 525 0491 66C1C608 		rolw	$8, %si
 526 0495 6685C9   		testw	%cx, %cx
 527 0498 798E     		jns	.L75
 528              	.L66:
 529              	.L63:
 530 049a 8B44241C 		movl	28(%rsp), %eax
 531 049e 4883C428 		addq	$40, %rsp
 532              		.cfi_remember_state
 533              		.cfi_def_cfa_offset 56
 534 04a2 5B       		popq	%rbx
 535              		.cfi_def_cfa_offset 48
 536 04a3 5D       		popq	%rbp
 537              		.cfi_def_cfa_offset 40
 538 04a4 415C     		popq	%r12
 539              		.cfi_def_cfa_offset 32
 540 04a6 415D     		popq	%r13
 541              		.cfi_def_cfa_offset 24
 542 04a8 415E     		popq	%r14
 543              		.cfi_def_cfa_offset 16
 544 04aa 415F     		popq	%r15
 545              		.cfi_def_cfa_offset 8
 546 04ac C3       		ret
 547 04ad 0F1F00   		.p2align 4,,10
 548              		.p2align 3
 549              	.L64:
 550              		.cfi_restore_state
 551 04b0 488D3500 		leaq	.LC2(%rip), %rsi
 551      000000
 552 04b7 4C89E7   		movq	%r12, %rdi
 553 04ba 31C0     		xorl	%eax, %eax
 554 04bc E8000000 		call	errRender@PLT
 554      00
 555 04c1 C744241C 		movl	$2, 28(%rsp)
 555      02000000 
 556 04c9 EBCF     		jmp	.L63
 557 04cb 0F1F4400 		.p2align 4,,10
 557      00
 558              		.p2align 3
 559              	.L67:
 560 04d0 488D3500 		leaq	.LC3(%rip), %rsi
 560      000000
 561 04d7 4C89E7   		movq	%r12, %rdi
 562 04da 31C0     		xorl	%eax, %eax
 563 04dc E8000000 		call	errRender@PLT
 563      00
 564 04e1 C744241C 		movl	$3, 28(%rsp)
 564      03000000 
 565 04e9 EBAF     		jmp	.L63
 566 04eb 0F1F4400 		.p2align 4,,10
 566      00
 567              		.p2align 3
 568              	.L71:
 569 04f0 488D3500 		leaq	.LC4(%rip), %rsi
 569      000000
 570 04f7 4C89E7   		movq	%r12, %rdi
 571 04fa E8000000 		call	errPrefix@PLT
 571      00
 572 04ff C744241C 		movl	$1, 28(%rsp)
 572      01000000 
 573 0507 EB91     		jmp	.L63
 574              		.cfi_endproc
 575              	.LFE7:
 577              		.section	.rodata.str1.8
 578 00b2 00000000 		.align 8
 578      0000
 579              	.LC5:
 580 00b8 69326346 		.string	"i2cFinalise(): the buffer was not initialised"
 580      696E616C 
 580      69736528 
 580      293A2074 
 580      68652062 
 581              		.section	.rodata.str1.1
 582              	.LC6:
 583 0021 69326346 		.string	"i2cFinalise()"
 583      696E616C 
 583      69736528 
 583      2900
 584              		.text
 585 0509 0F1F8000 		.p2align 4
 585      000000
 586              		.globl	i2cFinalise
 588              	i2cFinalise:
 589              	.LFB8:
 590              		.cfi_startproc
 591 0510 F30F1EFA 		endbr64
 592 0514 53       		pushq	%rbx
 593              		.cfi_def_cfa_offset 16
 594              		.cfi_offset 3, -16
 595 0515 4889F3   		movq	%rsi, %rbx
 596 0518 4883EC10 		subq	$16, %rsp
 597              		.cfi_def_cfa_offset 32
 598 051c 64488B04 		movq	%fs:40, %rax
 598      25280000 
 598      00
 599 0525 48894424 		movq	%rax, 8(%rsp)
 599      08
 600 052a 31C0     		xorl	%eax, %eax
 601 052c 837F0807 		cmpl	$7, 8(%rdi)
 602 0530 C7442403 		movl	$15073664, 3(%rsp)
 602      8001E600 
 603 0538 C6442407 		movb	$0, 7(%rsp)
 603      00
 604 053d 7608     		jbe	.L77
 605 053f 488B07   		movq	(%rdi), %rax
 606 0542 8038C2   		cmpb	$-62, (%rax)
 607 0545 7431     		je	.L78
 608              	.L77:
 609 0547 31C0     		xorl	%eax, %eax
 610 0549 488D3500 		leaq	.LC5(%rip), %rsi
 610      000000
 611 0550 4889DF   		movq	%rbx, %rdi
 612 0553 E8000000 		call	errRender@PLT
 612      00
 613 0558 B8020000 		movl	$2, %eax
 613      00
 614              	.L76:
 615 055d 488B5424 		movq	8(%rsp), %rdx
 615      08
 616 0562 64482B14 		subq	%fs:40, %rdx
 616      25280000 
 616      00
 617 056b 7537     		jne	.L85
 618 056d 4883C410 		addq	$16, %rsp
 619              		.cfi_remember_state
 620              		.cfi_def_cfa_offset 16
 621 0571 5B       		popq	%rbx
 622              		.cfi_def_cfa_offset 8
 623 0572 C3       		ret
 624              		.p2align 4,,10
 625 0573 0F1F4400 		.p2align 3
 625      00
 626              	.L78:
 627              		.cfi_restore_state
 628 0578 488D7424 		leaq	3(%rsp), %rsi
 628      03
 629 057d 4889D9   		movq	%rbx, %rcx
 630 0580 BA050000 		movl	$5, %edx
 630      00
 631 0585 E8000000 		call	bufAppendBlock@PLT
 631      00
 632 058a 85C0     		testl	%eax, %eax
 633 058c 74CF     		je	.L76
 634              	.L79:
 635 058e 488D3500 		leaq	.LC6(%rip), %rsi
 635      000000
 636 0595 4889DF   		movq	%rbx, %rdi
 637 0598 E8000000 		call	errPrefix@PLT
 637      00
 638 059d B8010000 		movl	$1, %eax
 638      00
 639 05a2 EBB9     		jmp	.L76
 640              	.L85:
 641 05a4 E8000000 		call	__stack_chk_fail@PLT
 641      00
 642              		.cfi_endproc
 643              	.LFE8:
 645              		.ident	"GCC: (Ubuntu 12.2.0-17ubuntu1) 12.2.0"
 646              		.section	.note.GNU-stack,"",@progbits
 647              		.section	.note.gnu.property,"a"
 648              		.align 8
 649 0000 04000000 		.long	1f - 0f
 650 0004 10000000 		.long	4f - 1f
 651 0008 05000000 		.long	5
 652              	0:
 653 000c 474E5500 		.string	"GNU"
 654              	1:
 655              		.align 8
 656 0010 020000C0 		.long	0xc0000002
 657 0014 04000000 		.long	3f - 2f
 658              	2:
 659 0018 03000000 		.long	0x3
 660              	3:
 661 001c 00000000 		.align 8
 662              	4: