   1              		.file	"ram.c"
   2              		.text
   3              		.section	.rodata.str1.8,"aMS",@progbits,1
   4              		.align 8
   5              	.LC0:
   6 0000 66783257 		.string	"fx2WriteRAM(): Failed to put the CPU in reset - usb_control_msg() failed returnCode %d: %
   6      72697465 
   6      52414D28 
   6      293A2046 
   6      61696C65 
   7 005b 00000000 		.align 8
   7      00
   8              	.LC1:
   9 0060 66783257 		.string	"fx2WriteRAM(): Failed to write block of 4096 bytes at 0x%04X - usb_control_msg() failed r
   9      72697465 
   9      52414D28 
   9      293A2046 
   9      61696C65 
  10 00ca 00000000 		.align 8
  10      0000
  11              	.LC2:
  12 00d0 66783257 		.string	"fx2WriteRAM(): Failed to write block of %d bytes at 0x%04X - usb_control_msg() failed ret
  12      72697465 
  12      52414D28 
  12      293A2046 
  12      61696C65 
  13              		.text
  14              		.p2align 4
  15              		.globl	fx2WriteRAM
  17              	fx2WriteRAM:
  18              	.LFB32:
  19              		.cfi_startproc
  20 0000 F30F1EFA 		endbr64
  21 0004 4157     		pushq	%r15
  22              		.cfi_def_cfa_offset 16
  23              		.cfi_offset 15, -16
  24 0006 4531C0   		xorl	%r8d, %r8d
  25 0009 4156     		pushq	%r14
  26              		.cfi_def_cfa_offset 24
  27              		.cfi_offset 14, -24
  28 000b 4989F6   		movq	%rsi, %r14
  29 000e BE400000 		movl	$64, %esi
  29      00
  30 0013 4155     		pushq	%r13
  31              		.cfi_def_cfa_offset 32
  32              		.cfi_offset 13, -32
  33 0015 4989FD   		movq	%rdi, %r13
  34 0018 4154     		pushq	%r12
  35              		.cfi_def_cfa_offset 40
  36              		.cfi_offset 12, -40
  37 001a 55       		pushq	%rbp
  38              		.cfi_def_cfa_offset 48
  39              		.cfi_offset 6, -48
  40 001b 89D5     		movl	%edx, %ebp
  41 001d BAA00000 		movl	$160, %edx
  41      00
  42 0022 53       		pushq	%rbx
  43              		.cfi_def_cfa_offset 56
  44              		.cfi_offset 3, -56
  45 0023 4883EC28 		subq	$40, %rsp
  46              		.cfi_def_cfa_offset 96
  47 0027 48890C24 		movq	%rcx, (%rsp)
  48 002b B900E600 		movl	$58880, %ecx
  48      00
  49 0030 64488B04 		movq	%fs:40, %rax
  49      25280000 
  49      00
  50 0039 48894424 		movq	%rax, 24(%rsp)
  50      18
  51 003e 31C0     		xorl	%eax, %eax
  52 0040 488D4424 		leaq	23(%rsp), %rax
  52      17
  53 0045 C6442417 		movb	$1, 23(%rsp)
  53      01
  54 004a 48894424 		movq	%rax, 8(%rsp)
  54      08
  55 004f 4989C1   		movq	%rax, %r9
  56 0052 68881300 		pushq	$5000
  56      00
  57              		.cfi_def_cfa_offset 104
  58 0057 6A01     		pushq	$1
  59              		.cfi_def_cfa_offset 112
  60 0059 E8000000 		call	usb_control_msg@PLT
  60      00
  61 005e 4159     		popq	%r9
  62              		.cfi_def_cfa_offset 104
  63 0060 415A     		popq	%r10
  64              		.cfi_def_cfa_offset 96
  65 0062 83F801   		cmpl	$1, %eax
  66 0065 0F850D01 		jne	.L2
  66      0000
  67 006b 4531FF   		xorl	%r15d, %r15d
  68 006e 31DB     		xorl	%ebx, %ebx
  69 0070 81FD0010 		cmpl	$4096, %ebp
  69      0000
  70 0076 7F27     		jg	.L3
  71 0078 E9A70000 		jmp	.L4
  71      00
  72 007d 0F1F00   		.p2align 4,,10
  73              		.p2align 3
  74              	.L6:
  75 0080 81ED0010 		subl	$4096, %ebp
  75      0000
  76 0086 4981C600 		addq	$4096, %r14
  76      100000
  77 008d 664181C7 		addw	$4096, %r15w
  77      0010
  78 0093 81FD0010 		cmpl	$4096, %ebp
  78      0000
  79 0099 0F8E8100 		jle	.L15
  79      0000
  80              	.L3:
  81 009f 68881300 		pushq	$5000
  81      00
  82              		.cfi_def_cfa_offset 104
  83 00a4 450FB7E7 		movzwl	%r15w, %r12d
  84 00a8 4531C0   		xorl	%r8d, %r8d
  85 00ab 4C89EF   		movq	%r13, %rdi
  86 00ae 68001000 		pushq	$4096
  86      00
  87              		.cfi_def_cfa_offset 112
  88 00b3 4D89F1   		movq	%r14, %r9
  89 00b6 4489E1   		movl	%r12d, %ecx
  90 00b9 BAA00000 		movl	$160, %edx
  90      00
  91 00be BE400000 		movl	$64, %esi
  91      00
  92 00c3 E8000000 		call	usb_control_msg@PLT
  92      00
  93 00c8 5F       		popq	%rdi
  94              		.cfi_def_cfa_offset 104
  95 00c9 4158     		popq	%r8
  96              		.cfi_def_cfa_offset 96
  97 00cb 89C3     		movl	%eax, %ebx
  98 00cd 3D001000 		cmpl	$4096, %eax
  98      00
  99 00d2 74AC     		je	.L6
 100 00d4 E8000000 		call	usb_strerror@PLT
 100      00
 101 00d9 488B3C24 		movq	(%rsp), %rdi
 102 00dd 89D9     		movl	%ebx, %ecx
 103 00df 4489E2   		movl	%r12d, %edx
 104 00e2 4989C0   		movq	%rax, %r8
 105 00e5 488D3500 		leaq	.LC1(%rip), %rsi
 105      000000
 106 00ec 31C0     		xorl	%eax, %eax
 107 00ee E8000000 		call	errRender@PLT
 107      00
 108              	.L7:
 109 00f3 B8010000 		movl	$1, %eax
 109      00
 110              	.L1:
 111 00f8 488B5424 		movq	24(%rsp), %rdx
 111      18
 112 00fd 64482B14 		subq	%fs:40, %rdx
 112      25280000 
 112      00
 113 0106 0F85C800 		jne	.L16
 113      0000
 114 010c 4883C428 		addq	$40, %rsp
 115              		.cfi_remember_state
 116              		.cfi_def_cfa_offset 56
 117 0110 5B       		popq	%rbx
 118              		.cfi_def_cfa_offset 48
 119 0111 5D       		popq	%rbp
 120              		.cfi_def_cfa_offset 40
 121 0112 415C     		popq	%r12
 122              		.cfi_def_cfa_offset 32
 123 0114 415D     		popq	%r13
 124              		.cfi_def_cfa_offset 24
 125 0116 415E     		popq	%r14
 126              		.cfi_def_cfa_offset 16
 127 0118 415F     		popq	%r15
 128              		.cfi_def_cfa_offset 8
 129 011a C3       		ret
 130 011b 0F1F4400 		.p2align 4,,10
 130      00
 131              		.p2align 3
 132              	.L15:
 133              		.cfi_restore_state
 134 0120 410FB7DF 		movzwl	%r15w, %ebx
 135              	.L4:
 136 0124 68881300 		pushq	$5000
 136      00
 137              		.cfi_def_cfa_offset 104
 138 0129 89D9     		movl	%ebx, %ecx
 139 012b BE400000 		movl	$64, %esi
 139      00
 140 0130 4D89F1   		movq	%r14, %r9
 141 0133 55       		pushq	%rbp
 142              		.cfi_def_cfa_offset 112
 143 0134 4531C0   		xorl	%r8d, %r8d
 144 0137 BAA00000 		movl	$160, %edx
 144      00
 145 013c 4C89EF   		movq	%r13, %rdi
 146 013f E8000000 		call	usb_control_msg@PLT
 146      00
 147 0144 59       		popq	%rcx
 148              		.cfi_def_cfa_offset 104
 149 0145 5E       		popq	%rsi
 150              		.cfi_def_cfa_offset 96
 151 0146 4189C4   		movl	%eax, %r12d
 152 0149 39E8     		cmpl	%ebp, %eax
 153 014b 7453     		je	.L8
 154 014d E8000000 		call	usb_strerror@PLT
 154      00
 155 0152 488B3C24 		movq	(%rsp), %rdi
 156 0156 4589E0   		movl	%r12d, %r8d
 157 0159 89D9     		movl	%ebx, %ecx
 158 015b 4989C1   		movq	%rax, %r9
 159 015e 89EA     		movl	%ebp, %edx
 160 0160 488D3500 		leaq	.LC2(%rip), %rsi
 160      000000
 161 0167 31C0     		xorl	%eax, %eax
 162 0169 E8000000 		call	errRender@PLT
 162      00
 163 016e E980FFFF 		jmp	.L7
 163      FF
 164              		.p2align 4,,10
 165 0173 0F1F4400 		.p2align 3
 165      00
 166              	.L2:
 167 0178 89C3     		movl	%eax, %ebx
 168 017a E8000000 		call	usb_strerror@PLT
 168      00
 169 017f 488B3C24 		movq	(%rsp), %rdi
 170 0183 89DA     		movl	%ebx, %edx
 171 0185 488D3500 		leaq	.LC0(%rip), %rsi
 171      000000
 172 018c 4889C1   		movq	%rax, %rcx
 173 018f 31C0     		xorl	%eax, %eax
 174 0191 E8000000 		call	errRender@PLT
 174      00
 175 0196 E958FFFF 		jmp	.L7
 175      FF
 176 019b 0F1F4400 		.p2align 4,,10
 176      00
 177              		.p2align 3
 178              	.L8:
 179 01a0 C6442417 		movb	$0, 23(%rsp)
 179      00
 180 01a5 BAA00000 		movl	$160, %edx
 180      00
 181 01aa 4531C0   		xorl	%r8d, %r8d
 182 01ad 4C89EF   		movq	%r13, %rdi
 183 01b0 68881300 		pushq	$5000
 183      00
 184              		.cfi_def_cfa_offset 104
 185 01b5 B900E600 		movl	$58880, %ecx
 185      00
 186 01ba BE400000 		movl	$64, %esi
 186      00
 187 01bf 6A01     		pushq	$1
 188              		.cfi_def_cfa_offset 112
 189 01c1 4C8B4C24 		movq	24(%rsp), %r9
 189      18
 190 01c6 E8000000 		call	usb_control_msg@PLT
 190      00
 191 01cb 58       		popq	%rax
 192              		.cfi_def_cfa_offset 104
 193 01cc 31C0     		xorl	%eax, %eax
 194 01ce 5A       		popq	%rdx
 195              		.cfi_def_cfa_offset 96
 196 01cf E924FFFF 		jmp	.L1
 196      FF
 197              	.L16:
 198 01d4 E8000000 		call	__stack_chk_fail@PLT
 198      00
 199              		.cfi_endproc
 200              	.LFE32:
 202              		.ident	"GCC: (Ubuntu 12.2.0-17ubuntu1) 12.2.0"
 203              		.section	.note.GNU-stack,"",@progbits
 204              		.section	.note.gnu.property,"a"
 205              		.align 8
 206 0000 04000000 		.long	1f - 0f
 207 0004 10000000 		.long	4f - 1f
 208 0008 05000000 		.long	5
 209              	0:
 210 000c 474E5500 		.string	"GNU"
 211              	1:
 212              		.align 8
 213 0010 020000C0 		.long	0xc0000002
 214 0014 04000000 		.long	3f - 2f
 215              	2:
 216 0018 03000000 		.long	0x3
 217              	3:
 218 001c 00000000 		.align 8
 219              	4: