   1              		.file	"testError.cpp"
   2              		.text
   3              	.Ltext0:
   4              		.file 0 "/home/asoreyh/Dropbox/projects/lago/acqua/nexys/src/makestuff/libs/liberror/tests" "testE
   5              		.section	.rodata
   6              	.LC0:
   7 0000 44656661 		.string	"DefaultSuite"
   7      756C7453 
   7      75697465 
   7      00
   8              		.section	.text._ZN13UnitTestSuite12GetSuiteNameEv,"axG",@progbits,_ZN13UnitTestSuite12GetSuiteName
   9              		.weak	_ZN13UnitTestSuite12GetSuiteNameEv
  11              	_ZN13UnitTestSuite12GetSuiteNameEv:
  12              	.LFB0:
  13              		.file 1 "/home/asoreyh/Dropbox/projects/lago/acqua/nexys/src/makestuff/libs/libutpp/TestSuite.h"
   1:/home/asoreyh/Dropbox/projects/lago/acqua/nexys/src/makestuff/libs/libutpp/TestSuite.h **** #ifndef UNITTEST_TESTSUITE_H
   2:/home/asoreyh/Dropbox/projects/lago/acqua/nexys/src/makestuff/libs/libutpp/TestSuite.h **** #define UNITTEST_TESTSUITE_H
   3:/home/asoreyh/Dropbox/projects/lago/acqua/nexys/src/makestuff/libs/libutpp/TestSuite.h **** 
   4:/home/asoreyh/Dropbox/projects/lago/acqua/nexys/src/makestuff/libs/libutpp/TestSuite.h **** namespace UnitTestSuite {
   5:/home/asoreyh/Dropbox/projects/lago/acqua/nexys/src/makestuff/libs/libutpp/TestSuite.h **** 
   6:/home/asoreyh/Dropbox/projects/lago/acqua/nexys/src/makestuff/libs/libutpp/TestSuite.h ****     inline char const* GetSuiteName ()
   7:/home/asoreyh/Dropbox/projects/lago/acqua/nexys/src/makestuff/libs/libutpp/TestSuite.h ****     {
  14              		.loc 1 7 5
  15              		.cfi_startproc
  16 0000 F30F1EFA 		endbr64
  17 0004 55       		pushq	%rbp
  18              		.cfi_def_cfa_offset 16
  19              		.cfi_offset 6, -16
  20 0005 4889E5   		movq	%rsp, %rbp
  21              		.cfi_def_cfa_register 6
   8:/home/asoreyh/Dropbox/projects/lago/acqua/nexys/src/makestuff/libs/libutpp/TestSuite.h ****         return "DefaultSuite";
  22              		.loc 1 8 16
  23 0008 488D0500 		leaq	.LC0(%rip), %rax
  23      000000
   9:/home/asoreyh/Dropbox/projects/lago/acqua/nexys/src/makestuff/libs/libutpp/TestSuite.h ****     }
  24              		.loc 1 9 5
  25 000f 5D       		popq	%rbp
  26              		.cfi_def_cfa 7, 8
  27 0010 C3       		ret
  28              		.cfi_endproc
  29              	.LFE0:
  31              		.globl	buf
  32              		.bss
  33              		.align 32
  36              	buf:
  37 0000 00000000 		.zero	1024
  37      00000000 
  37      00000000 
  37      00000000 
  37      00000000 
  38              		.text
  39              		.globl	_Z7fillBufic
  41              	_Z7fillBufic:
  42              	.LFB1165:
  43              		.file 2 "testError.cpp"
   1:testError.cpp **** /*
   2:testError.cpp ****  * Copyright (C) 2009-2012 Chris McClelland
   3:testError.cpp ****  *
   4:testError.cpp ****  * This program is free software: you can redistribute it and/or modify
   5:testError.cpp ****  * it under the terms of the GNU Lesser General Public License as published by
   6:testError.cpp ****  * the Free Software Foundation, either version 3 of the License, or
   7:testError.cpp ****  * (at your option) any later version.
   8:testError.cpp ****  *
   9:testError.cpp ****  * This program is distributed in the hope that it will be useful,
  10:testError.cpp ****  * but WITHOUT ANY WARRANTY; without even the implied warranty of
  11:testError.cpp ****  * MERCHANTABILITY or FITNESS FOR A PARTICULAR PURPOSE.  See the
  12:testError.cpp ****  * GNU Lesser General Public License for more details.
  13:testError.cpp ****  *
  14:testError.cpp ****  * You should have received a copy of the GNU Lesser General Public License
  15:testError.cpp ****  * along with this program.  If not, see <http://www.gnu.org/licenses/>.
  16:testError.cpp ****  */
  17:testError.cpp **** #include <UnitTest++.h>
  18:testError.cpp **** #include <stdio.h>
  19:testError.cpp **** #include <stdlib.h>
  20:testError.cpp **** #include <string.h>
  21:testError.cpp **** #include <errno.h>
  22:testError.cpp **** #include "../liberror.h"
  23:testError.cpp **** 
  24:testError.cpp **** char buf[1024];
  25:testError.cpp **** 
  26:testError.cpp **** void fillBuf(int count, char value) {
  44              		.loc 2 26 37
  45              		.cfi_startproc
  46 0000 F30F1EFA 		endbr64
  47 0004 55       		pushq	%rbp
  48              		.cfi_def_cfa_offset 16
  49              		.cfi_offset 6, -16
  50 0005 4889E5   		movq	%rsp, %rbp
  51              		.cfi_def_cfa_register 6
  52 0008 897DEC   		movl	%edi, -20(%rbp)
  53 000b 89F0     		movl	%esi, %eax
  54 000d 8845E8   		movb	%al, -24(%rbp)
  27:testError.cpp **** 	int i = 0;
  55              		.loc 2 27 6
  56 0010 C745FC00 		movl	$0, -4(%rbp)
  56      000000
  28:testError.cpp **** 	while ( i < count ) {
  57              		.loc 2 28 2
  58 0017 EB19     		jmp	.L4
  59              	.L5:
  29:testError.cpp **** 		buf[i++] = value;
  60              		.loc 2 29 8
  61 0019 8B45FC   		movl	-4(%rbp), %eax
  62 001c 8D5001   		leal	1(%rax), %edx
  63 001f 8955FC   		movl	%edx, -4(%rbp)
  64              		.loc 2 29 12
  65 0022 4898     		cltq
  66 0024 488D0D00 		leaq	buf(%rip), %rcx
  66      000000
  67 002b 0FB655E8 		movzbl	-24(%rbp), %edx
  68 002f 881408   		movb	%dl, (%rax,%rcx)
  69              	.L4:
  28:testError.cpp **** 	while ( i < count ) {
  70              		.loc 2 28 12
  71 0032 8B45FC   		movl	-4(%rbp), %eax
  72 0035 3B45EC   		cmpl	-20(%rbp), %eax
  73 0038 7CDF     		jl	.L5
  30:testError.cpp **** 	}
  31:testError.cpp **** 	buf[i++] = '\0';
  74              		.loc 2 31 7
  75 003a 8B45FC   		movl	-4(%rbp), %eax
  76 003d 8D5001   		leal	1(%rax), %edx
  77 0040 8955FC   		movl	%edx, -4(%rbp)
  78              		.loc 2 31 11
  79 0043 4898     		cltq
  80 0045 488D1500 		leaq	buf(%rip), %rdx
  80      000000
  81 004c C6041000 		movb	$0, (%rax,%rdx)
  32:testError.cpp **** 	while ( i < 1024 ) {
  82              		.loc 2 32 2
  83 0050 EB16     		jmp	.L6
  84              	.L7:
  33:testError.cpp **** 		buf[i++] = '.';
  85              		.loc 2 33 8
  86 0052 8B45FC   		movl	-4(%rbp), %eax
  87 0055 8D5001   		leal	1(%rax), %edx
  88 0058 8955FC   		movl	%edx, -4(%rbp)
  89              		.loc 2 33 12
  90 005b 4898     		cltq
  91 005d 488D1500 		leaq	buf(%rip), %rdx
  91      000000
  92 0064 C604102E 		movb	$46, (%rax,%rdx)
  93              	.L6:
  32:testError.cpp **** 	while ( i < 1024 ) {
  94              		.loc 2 32 12
  95 0068 817DFCFF 		cmpl	$1023, -4(%rbp)
  95      030000
  96 006f 7EE1     		jle	.L7
  34:testError.cpp **** 	}
  35:testError.cpp **** }
  97              		.loc 2 35 1
  98 0071 90       		nop
  99 0072 90       		nop
 100 0073 5D       		popq	%rbp
 101              		.cfi_def_cfa 7, 8
 102 0074 C3       		ret
 103              		.cfi_endproc
 104              	.LFE1165:
 106              		.section	.rodata
 107              	.LC1:
 108 000d 74657374 		.string	"testError.cpp"
 108      4572726F 
 108      722E6370 
 108      7000
 109              	.LC2:
 110 001b 4572726F 		.string	"Error_testNullRender"
 110      725F7465 
 110      73744E75 
 110      6C6C5265 
 110      6E646572 
 111              		.section	.text._ZN24TestError_testNullRenderC2Ev,"axG",@progbits,_ZN24TestError_testNullRenderC5Ev
 112              		.align 2
 113              		.weak	_ZN24TestError_testNullRenderC2Ev
 115              	_ZN24TestError_testNullRenderC2Ev:
 116              	.LFB1167:
  36:testError.cpp **** 
  37:testError.cpp **** TEST(Error_testNullRender) {
 117              		.loc 2 37 1
 118              		.cfi_startproc
 119 0000 F30F1EFA 		endbr64
 120 0004 55       		pushq	%rbp
 121              		.cfi_def_cfa_offset 16
 122              		.cfi_offset 6, -16
 123 0005 4889E5   		movq	%rsp, %rbp
 124              		.cfi_def_cfa_register 6
 125 0008 53       		pushq	%rbx
 126 0009 4883EC18 		subq	$24, %rsp
 127              		.cfi_offset 3, -24
 128 000d 48897DE8 		movq	%rdi, -24(%rbp)
 129              	.LBB2:
 130              		.loc 2 37 1
 131 0011 488B5DE8 		movq	-24(%rbp), %rbx
 132 0015 E8000000 		call	_ZN13UnitTestSuite12GetSuiteNameEv
 132      00
 133 001a 4889C2   		movq	%rax, %rdx
 134 001d 41B82500 		movl	$37, %r8d
 134      0000
 135 0023 488D0500 		leaq	.LC1(%rip), %rax
 135      000000
 136 002a 4889C1   		movq	%rax, %rcx
 137 002d 488D0500 		leaq	.LC2(%rip), %rax
 137      000000
 138 0034 4889C6   		movq	%rax, %rsi
 139 0037 4889DF   		movq	%rbx, %rdi
 140 003a E8000000 		call	_ZN8UnitTest4TestC2EPKcS2_S2_i@PLT
 140      00
 141 003f 488D1500 		leaq	16+_ZTV24TestError_testNullRender(%rip), %rdx
 141      000000
 142 0046 488B45E8 		movq	-24(%rbp), %rax
 143 004a 488910   		movq	%rdx, (%rax)
 144              	.LBE2:
 145 004d 90       		nop
 146 004e 488B5DF8 		movq	-8(%rbp), %rbx
 147 0052 C9       		leave
 148              		.cfi_def_cfa 7, 8
 149 0053 C3       		ret
 150              		.cfi_endproc
 151              	.LFE1167:
 153              		.weak	_ZN24TestError_testNullRenderC1Ev
 154              		.set	_ZN24TestError_testNullRenderC1Ev,_ZN24TestError_testNullRenderC2Ev
 155              		.globl	testError_testNullRenderInstance
 156              		.bss
 157              		.align 32
 160              	testError_testNullRenderInstance:
 161 0400 00000000 		.zero	56
 161      00000000 
 161      00000000 
 161      00000000 
 161      00000000 
 162              		.globl	adderError_testNullRender
 165              	adderError_testNullRender:
 166 0438 00       		.zero	1
 167              		.text
 168 0075 90       		.align 2
 169              		.globl	_ZNK24TestError_testNullRender7RunImplEv
 171              	_ZNK24TestError_testNullRender7RunImplEv:
 172              	.LFB1169:
 173              		.loc 2 37 28
 174              		.cfi_startproc
 175 0076 F30F1EFA 		endbr64
 176 007a 55       		pushq	%rbp
 177              		.cfi_def_cfa_offset 16
 178              		.cfi_offset 6, -16
 179 007b 4889E5   		movq	%rsp, %rbp
 180              		.cfi_def_cfa_register 6
 181 007e 4883EC10 		subq	$16, %rsp
 182 0082 48897DF8 		movq	%rdi, -8(%rbp)
  38:testError.cpp **** 	fillBuf(16, 'A');
 183              		.loc 2 38 9
 184 0086 BE410000 		movl	$65, %esi
 184      00
 185 008b BF100000 		movl	$16, %edi
 185      00
 186 0090 E8000000 		call	_Z7fillBufic
 186      00
  39:testError.cpp **** 	errRender(NULL, buf);
 187              		.loc 2 39 11
 188 0095 488D0500 		leaq	buf(%rip), %rax
 188      000000
 189 009c 4889C6   		movq	%rax, %rsi
 190 009f BF000000 		movl	$0, %edi
 190      00
 191 00a4 B8000000 		movl	$0, %eax
 191      00
 192 00a9 E8000000 		call	errRender@PLT
 192      00
  40:testError.cpp **** }
 193              		.loc 2 40 1
 194 00ae 90       		nop
 195 00af C9       		leave
 196              		.cfi_def_cfa 7, 8
 197 00b0 C3       		ret
 198              		.cfi_endproc
 199              	.LFE1169:
 201              		.section	.rodata
 202              	.LC3:
 203 0030 4572726F 		.string	"Error_testRender"
 203      725F7465 
 203      73745265 
 203      6E646572 
 203      00
 204              		.section	.text._ZN20TestError_testRenderC2Ev,"axG",@progbits,_ZN20TestError_testRenderC5Ev,comdat
 205              		.align 2
 206              		.weak	_ZN20TestError_testRenderC2Ev
 208              	_ZN20TestError_testRenderC2Ev:
 209              	.LFB1171:
  41:testError.cpp **** 
  42:testError.cpp **** TEST(Error_testRender) {
 210              		.loc 2 42 1
 211              		.cfi_startproc
 212 0000 F30F1EFA 		endbr64
 213 0004 55       		pushq	%rbp
 214              		.cfi_def_cfa_offset 16
 215              		.cfi_offset 6, -16
 216 0005 4889E5   		movq	%rsp, %rbp
 217              		.cfi_def_cfa_register 6
 218 0008 53       		pushq	%rbx
 219 0009 4883EC18 		subq	$24, %rsp
 220              		.cfi_offset 3, -24
 221 000d 48897DE8 		movq	%rdi, -24(%rbp)
 222              	.LBB3:
 223              		.loc 2 42 1
 224 0011 488B5DE8 		movq	-24(%rbp), %rbx
 225 0015 E8000000 		call	_ZN13UnitTestSuite12GetSuiteNameEv
 225      00
 226 001a 4889C2   		movq	%rax, %rdx
 227 001d 41B82A00 		movl	$42, %r8d
 227      0000
 228 0023 488D0500 		leaq	.LC1(%rip), %rax
 228      000000
 229 002a 4889C1   		movq	%rax, %rcx
 230 002d 488D0500 		leaq	.LC3(%rip), %rax
 230      000000
 231 0034 4889C6   		movq	%rax, %rsi
 232 0037 4889DF   		movq	%rbx, %rdi
 233 003a E8000000 		call	_ZN8UnitTest4TestC2EPKcS2_S2_i@PLT
 233      00
 234 003f 488D1500 		leaq	16+_ZTV20TestError_testRender(%rip), %rdx
 234      000000
 235 0046 488B45E8 		movq	-24(%rbp), %rax
 236 004a 488910   		movq	%rdx, (%rax)
 237              	.LBE3:
 238 004d 90       		nop
 239 004e 488B5DF8 		movq	-8(%rbp), %rbx
 240 0052 C9       		leave
 241              		.cfi_def_cfa 7, 8
 242 0053 C3       		ret
 243              		.cfi_endproc
 244              	.LFE1171:
 246              		.weak	_ZN20TestError_testRenderC1Ev
 247              		.set	_ZN20TestError_testRenderC1Ev,_ZN20TestError_testRenderC2Ev
 248              		.globl	testError_testRenderInstance
 249              		.bss
 250 0439 00000000 		.align 32
 250      000000
 253              	testError_testRenderInstance:
 254 0440 00000000 		.zero	56
 254      00000000 
 254      00000000 
 254      00000000 
 254      00000000 
 255              		.globl	adderError_testRender
 258              	adderError_testRender:
 259 0478 00       		.zero	1
 260              		.section	.rodata
 261 0041 00000000 		.align 8
 261      000000
 262              	.LC4:
 263 0048 556E6861 		.string	"Unhandled exception in CHECK_EQUAL(buf, error)"
 263      6E646C65 
 263      64206578 
 263      63657074 
 263      696F6E20 
 264              		.text
 265 00b1 90       		.align 2
 266              		.globl	_ZNK20TestError_testRender7RunImplEv
 268              	_ZNK20TestError_testRender7RunImplEv:
 269              	.LFB1173:
 270              		.loc 2 42 24
 271              		.cfi_startproc
 272              		.cfi_personality 0x9b,DW.ref.__gxx_personality_v0
 273              		.cfi_lsda 0x1b,.LLSDA1173
 274 00b2 F30F1EFA 		endbr64
 275 00b6 55       		pushq	%rbp
 276              		.cfi_def_cfa_offset 16
 277              		.cfi_offset 6, -16
 278 00b7 4889E5   		movq	%rsp, %rbp
 279              		.cfi_def_cfa_register 6
 280 00ba 53       		pushq	%rbx
 281 00bb 4883EC58 		subq	$88, %rsp
 282              		.cfi_offset 3, -24
 283 00bf 48897DA8 		movq	%rdi, -88(%rbp)
 284              		.loc 2 42 24
 285 00c3 64488B04 		movq	%fs:40, %rax
 285      25280000 
 285      00
 286 00cc 488945E8 		movq	%rax, -24(%rbp)
 287 00d0 31C0     		xorl	%eax, %eax
  43:testError.cpp **** 	int i;
  44:testError.cpp **** 	const char *error;
  45:testError.cpp **** 	for ( i = 500; i < 516; i++ ) {
 288              		.loc 2 45 10
 289 00d2 C745B4F4 		movl	$500, -76(%rbp)
 289      010000
 290              		.loc 2 45 2
 291 00d9 EB7B     		jmp	.L12
 292              	.L13:
  46:testError.cpp **** 		fillBuf(i, 'A');
 293              		.loc 2 46 10
 294 00db 8B45B4   		movl	-76(%rbp), %eax
 295 00de BE410000 		movl	$65, %esi
 295      00
 296 00e3 89C7     		movl	%eax, %edi
 297 00e5 E8000000 		call	_Z7fillBufic
 297      00
  47:testError.cpp **** 		errRender(&error, buf);
 298              		.loc 2 47 12
 299 00ea 488D45B8 		leaq	-72(%rbp), %rax
 300 00ee 488D1500 		leaq	buf(%rip), %rdx
 300      000000
 301 00f5 4889D6   		movq	%rdx, %rsi
 302 00f8 4889C7   		movq	%rax, %rdi
 303 00fb B8000000 		movl	$0, %eax
 303      00
 304              	.LEHB0:
 305 0100 E8000000 		call	errRender@PLT
 305      00
 306              	.LEHE0:
 307              	.LEHB1:
  48:testError.cpp **** 		CHECK_EQUAL(buf, error);
 308              		.loc 2 48 3
 309 0105 E8000000 		call	_ZN8UnitTest11CurrentTest7DetailsEv@PLT
 309      00
 310 010a 488B08   		movq	(%rax), %rcx
 311 010d 488D45C0 		leaq	-64(%rbp), %rax
 312 0111 BA300000 		movl	$48, %edx
 312      00
 313 0116 4889CE   		movq	%rcx, %rsi
 314 0119 4889C7   		movq	%rax, %rdi
 315 011c E8000000 		call	_ZN8UnitTest11TestDetailsC1ERKS0_i@PLT
 315      00
 316              		.loc 2 48 3 is_stmt 0 discriminator 4
 317 0121 488B5DB8 		movq	-72(%rbp), %rbx
 318 0125 E8000000 		call	_ZN8UnitTest11CurrentTest7ResultsEv@PLT
 318      00
 319 012a 488B00   		movq	(%rax), %rax
 320 012d 488D55C0 		leaq	-64(%rbp), %rdx
 321 0131 4889D1   		movq	%rdx, %rcx
 322 0134 4889DA   		movq	%rbx, %rdx
 323 0137 488D3500 		leaq	buf(%rip), %rsi
 323      000000
 324 013e 4889C7   		movq	%rax, %rdi
 325 0141 E8000000 		call	_ZN8UnitTest10CheckEqualERNS_11TestResultsEPcPKcRKNS_11TestDetailsE@PLT
 325      00
 326              	.LEHE1:
 327              	.L15:
  49:testError.cpp **** 		errFree(error);
 328              		.loc 2 49 10 is_stmt 1
 329 0146 488B45B8 		movq	-72(%rbp), %rax
 330 014a 4889C7   		movq	%rax, %rdi
 331              	.LEHB2:
 332 014d E8000000 		call	errFree@PLT
 332      00
 333              	.LEHE2:
  45:testError.cpp **** 		fillBuf(i, 'A');
 334              		.loc 2 45 2
 335 0152 8345B401 		addl	$1, -76(%rbp)
 336              	.L12:
  45:testError.cpp **** 		fillBuf(i, 'A');
 337              		.loc 2 45 19 discriminator 1
 338 0156 817DB403 		cmpl	$515, -76(%rbp)
 338      020000
 339 015d 0F8E78FF 		jle	.L13
 339      FFFF
  50:testError.cpp **** 	}
  51:testError.cpp **** }
 340              		.loc 2 51 1
 341 0163 EB64     		jmp	.L20
 342              	.L18:
 343 0165 F30F1EFA 		endbr64
  48:testError.cpp **** 		errFree(error);
 344              		.loc 2 48 3
 345 0169 4889C7   		movq	%rax, %rdi
 346 016c E8000000 		call	__cxa_begin_catch@PLT
 346      00
 347              	.LEHB3:
 348 0171 E8000000 		call	_ZN8UnitTest11CurrentTest7ResultsEv@PLT
 348      00
  48:testError.cpp **** 		errFree(error);
 349              		.loc 2 48 3 is_stmt 0 discriminator 7
 350 0176 488B18   		movq	(%rax), %rbx
 351 0179 E8000000 		call	_ZN8UnitTest11CurrentTest7DetailsEv@PLT
 351      00
  48:testError.cpp **** 		errFree(error);
 352              		.loc 2 48 3 discriminator 11
 353 017e 488B08   		movq	(%rax), %rcx
 354 0181 488D45C0 		leaq	-64(%rbp), %rax
 355 0185 BA300000 		movl	$48, %edx
 355      00
 356 018a 4889CE   		movq	%rcx, %rsi
 357 018d 4889C7   		movq	%rax, %rdi
 358 0190 E8000000 		call	_ZN8UnitTest11TestDetailsC1ERKS0_i@PLT
 358      00
  48:testError.cpp **** 		errFree(error);
 359              		.loc 2 48 3 discriminator 15
 360 0195 488D45C0 		leaq	-64(%rbp), %rax
 361 0199 488D1500 		leaq	.LC4(%rip), %rdx
 361      000000
 362 01a0 4889C6   		movq	%rax, %rsi
 363 01a3 4889DF   		movq	%rbx, %rdi
 364 01a6 E8000000 		call	_ZN8UnitTest11TestResults13OnTestFailureERKNS_11TestDetailsEPKc@PLT
 364      00
 365              	.LEHE3:
 366              	.LEHB4:
  48:testError.cpp **** 		errFree(error);
 367              		.loc 2 48 3 discriminator 17
 368 01ab E8000000 		call	__cxa_end_catch@PLT
 368      00
 369              	.LEHE4:
 370 01b0 EB94     		jmp	.L15
 371              	.L19:
 372 01b2 F30F1EFA 		endbr64
  48:testError.cpp **** 		errFree(error);
 373              		.loc 2 48 3
 374 01b6 4889C3   		movq	%rax, %rbx
 375 01b9 E8000000 		call	__cxa_end_catch@PLT
 375      00
 376 01be 4889D8   		movq	%rbx, %rax
 377 01c1 4889C7   		movq	%rax, %rdi
 378              	.LEHB5:
 379 01c4 E8000000 		call	_Unwind_Resume@PLT
 379      00
 380              	.LEHE5:
 381              	.L20:
 382              		.loc 2 51 1 is_stmt 1
 383 01c9 488B45E8 		movq	-24(%rbp), %rax
 384 01cd 64482B04 		subq	%fs:40, %rax
 384      25280000 
 384      00
 385 01d6 7405     		je	.L17
 386 01d8 E8000000 		call	__stack_chk_fail@PLT
 386      00
 387              	.L17:
 388 01dd 488B5DF8 		movq	-8(%rbp), %rbx
 389 01e1 C9       		leave
 390              		.cfi_def_cfa 7, 8
 391 01e2 C3       		ret
 392              		.cfi_endproc
 393              	.LFE1173:
 394              		.globl	__gxx_personality_v0
 395              		.section	.gcc_except_table,"a",@progbits
 396              		.align 4
 397              	.LLSDA1173:
 398 0000 FF       		.byte	0xff
 399 0001 9B       		.byte	0x9b
 400 0002 29       		.uleb128 .LLSDATT1173-.LLSDATTD1173
 401              	.LLSDATTD1173:
 402 0003 01       		.byte	0x1
 403 0004 1E       		.uleb128 .LLSDACSE1173-.LLSDACSB1173
 404              	.LLSDACSB1173:
 405 0005 4E       		.uleb128 .LEHB0-.LFB1173
 406 0006 05       		.uleb128 .LEHE0-.LEHB0
 407 0007 00       		.uleb128 0
 408 0008 00       		.uleb128 0
 409 0009 53       		.uleb128 .LEHB1-.LFB1173
 410 000a 41       		.uleb128 .LEHE1-.LEHB1
 411 000b B301     		.uleb128 .L18-.LFB1173
 412 000d 01       		.uleb128 0x1
 413 000e 9B01     		.uleb128 .LEHB2-.LFB1173
 414 0010 05       		.uleb128 .LEHE2-.LEHB2
 415 0011 00       		.uleb128 0
 416 0012 00       		.uleb128 0
 417 0013 BF01     		.uleb128 .LEHB3-.LFB1173
 418 0015 3A       		.uleb128 .LEHE3-.LEHB3
 419 0016 8002     		.uleb128 .L19-.LFB1173
 420 0018 00       		.uleb128 0
 421 0019 F901     		.uleb128 .LEHB4-.LFB1173
 422 001b 05       		.uleb128 .LEHE4-.LEHB4
 423 001c 00       		.uleb128 0
 424 001d 00       		.uleb128 0
 425 001e 9202     		.uleb128 .LEHB5-.LFB1173
 426 0020 05       		.uleb128 .LEHE5-.LEHB5
 427 0021 00       		.uleb128 0
 428 0022 00       		.uleb128 0
 429              	.LLSDACSE1173:
 430 0023 01       		.byte	0x1
 431 0024 00       		.byte	0
 432 0025 000000   		.align 4
 433 0028 00000000 		.long	0
 434              	
 435              	.LLSDATT1173:
 436              		.text
 438              		.section	.rodata
 439              	.LC5:
 440 0077 4572726F 		.string	"Error_testNullStdRender"
 440      725F7465 
 440      73744E75 
 440      6C6C5374 
 440      6452656E 
 441              		.section	.text._ZN27TestError_testNullStdRenderC2Ev,"axG",@progbits,_ZN27TestError_testNullStdRend
 442              		.align 2
 443              		.weak	_ZN27TestError_testNullStdRenderC2Ev
 445              	_ZN27TestError_testNullStdRenderC2Ev:
 446              	.LFB1175:
  52:testError.cpp **** 
  53:testError.cpp **** TEST(Error_testNullStdRender) {
 447              		.loc 2 53 1
 448              		.cfi_startproc
 449 0000 F30F1EFA 		endbr64
 450 0004 55       		pushq	%rbp
 451              		.cfi_def_cfa_offset 16
 452              		.cfi_offset 6, -16
 453 0005 4889E5   		movq	%rsp, %rbp
 454              		.cfi_def_cfa_register 6
 455 0008 53       		pushq	%rbx
 456 0009 4883EC18 		subq	$24, %rsp
 457              		.cfi_offset 3, -24
 458 000d 48897DE8 		movq	%rdi, -24(%rbp)
 459              	.LBB4:
 460              		.loc 2 53 1
 461 0011 488B5DE8 		movq	-24(%rbp), %rbx
 462 0015 E8000000 		call	_ZN13UnitTestSuite12GetSuiteNameEv
 462      00
 463 001a 4889C2   		movq	%rax, %rdx
 464 001d 41B83500 		movl	$53, %r8d
 464      0000
 465 0023 488D0500 		leaq	.LC1(%rip), %rax
 465      000000
 466 002a 4889C1   		movq	%rax, %rcx
 467 002d 488D0500 		leaq	.LC5(%rip), %rax
 467      000000
 468 0034 4889C6   		movq	%rax, %rsi
 469 0037 4889DF   		movq	%rbx, %rdi
 470 003a E8000000 		call	_ZN8UnitTest4TestC2EPKcS2_S2_i@PLT
 470      00
 471 003f 488D1500 		leaq	16+_ZTV27TestError_testNullStdRender(%rip), %rdx
 471      000000
 472 0046 488B45E8 		movq	-24(%rbp), %rax
 473 004a 488910   		movq	%rdx, (%rax)
 474              	.LBE4:
 475 004d 90       		nop
 476 004e 488B5DF8 		movq	-8(%rbp), %rbx
 477 0052 C9       		leave
 478              		.cfi_def_cfa 7, 8
 479 0053 C3       		ret
 480              		.cfi_endproc
 481              	.LFE1175:
 483              		.weak	_ZN27TestError_testNullStdRenderC1Ev
 484              		.set	_ZN27TestError_testNullStdRenderC1Ev,_ZN27TestError_testNullStdRenderC2Ev
 485              		.globl	testError_testNullStdRenderInstance
 486              		.bss
 487 0479 00000000 		.align 32
 487      000000
 490              	testError_testNullStdRenderInstance:
 491 0480 00000000 		.zero	56
 491      00000000 
 491      00000000 
 491      00000000 
 491      00000000 
 492              		.globl	adderError_testNullStdRender
 495              	adderError_testNullStdRender:
 496 04b8 00       		.zero	1
 497              		.text
 498 01e3 90       		.align 2
 499              		.globl	_ZNK27TestError_testNullStdRender7RunImplEv
 501              	_ZNK27TestError_testNullStdRender7RunImplEv:
 502              	.LFB1177:
 503              		.loc 2 53 31
 504              		.cfi_startproc
 505 01e4 F30F1EFA 		endbr64
 506 01e8 55       		pushq	%rbp
 507              		.cfi_def_cfa_offset 16
 508              		.cfi_offset 6, -16
 509 01e9 4889E5   		movq	%rsp, %rbp
 510              		.cfi_def_cfa_register 6
 511 01ec 4883EC10 		subq	$16, %rsp
 512 01f0 48897DF8 		movq	%rdi, -8(%rbp)
  54:testError.cpp **** 	fillBuf(16, 'A');
 513              		.loc 2 54 9
 514 01f4 BE410000 		movl	$65, %esi
 514      00
 515 01f9 BF100000 		movl	$16, %edi
 515      00
 516 01fe E8000000 		call	_Z7fillBufic
 516      00
  55:testError.cpp **** 	errRenderStd(NULL);
 517              		.loc 2 55 14
 518 0203 BF000000 		movl	$0, %edi
 518      00
 519 0208 E8000000 		call	errRenderStd@PLT
 519      00
  56:testError.cpp **** }
 520              		.loc 2 56 1
 521 020d 90       		nop
 522 020e C9       		leave
 523              		.cfi_def_cfa 7, 8
 524 020f C3       		ret
 525              		.cfi_endproc
 526              	.LFE1177:
 528              		.section	.rodata
 529              	.LC6:
 530 008f 4572726F 		.string	"Error_testStdRender"
 530      725F7465 
 530      73745374 
 530      6452656E 
 530      64657200 
 531              		.section	.text._ZN23TestError_testStdRenderC2Ev,"axG",@progbits,_ZN23TestError_testStdRenderC5Ev,c
 532              		.align 2
 533              		.weak	_ZN23TestError_testStdRenderC2Ev
 535              	_ZN23TestError_testStdRenderC2Ev:
 536              	.LFB1179:
  57:testError.cpp **** 
  58:testError.cpp **** TEST(Error_testStdRender) {
 537              		.loc 2 58 1
 538              		.cfi_startproc
 539 0000 F30F1EFA 		endbr64
 540 0004 55       		pushq	%rbp
 541              		.cfi_def_cfa_offset 16
 542              		.cfi_offset 6, -16
 543 0005 4889E5   		movq	%rsp, %rbp
 544              		.cfi_def_cfa_register 6
 545 0008 53       		pushq	%rbx
 546 0009 4883EC18 		subq	$24, %rsp
 547              		.cfi_offset 3, -24
 548 000d 48897DE8 		movq	%rdi, -24(%rbp)
 549              	.LBB5:
 550              		.loc 2 58 1
 551 0011 488B5DE8 		movq	-24(%rbp), %rbx
 552 0015 E8000000 		call	_ZN13UnitTestSuite12GetSuiteNameEv
 552      00
 553 001a 4889C2   		movq	%rax, %rdx
 554 001d 41B83A00 		movl	$58, %r8d
 554      0000
 555 0023 488D0500 		leaq	.LC1(%rip), %rax
 555      000000
 556 002a 4889C1   		movq	%rax, %rcx
 557 002d 488D0500 		leaq	.LC6(%rip), %rax
 557      000000
 558 0034 4889C6   		movq	%rax, %rsi
 559 0037 4889DF   		movq	%rbx, %rdi
 560 003a E8000000 		call	_ZN8UnitTest4TestC2EPKcS2_S2_i@PLT
 560      00
 561 003f 488D1500 		leaq	16+_ZTV23TestError_testStdRender(%rip), %rdx
 561      000000
 562 0046 488B45E8 		movq	-24(%rbp), %rax
 563 004a 488910   		movq	%rdx, (%rax)
 564              	.LBE5:
 565 004d 90       		nop
 566 004e 488B5DF8 		movq	-8(%rbp), %rbx
 567 0052 C9       		leave
 568              		.cfi_def_cfa 7, 8
 569 0053 C3       		ret
 570              		.cfi_endproc
 571              	.LFE1179:
 573              		.weak	_ZN23TestError_testStdRenderC1Ev
 574              		.set	_ZN23TestError_testStdRenderC1Ev,_ZN23TestError_testStdRenderC2Ev
 575              		.globl	testError_testStdRenderInstance
 576              		.bss
 577 04b9 00000000 		.align 32
 577      000000
 580              	testError_testStdRenderInstance:
 581 04c0 00000000 		.zero	56
 581      00000000 
 581      00000000 
 581      00000000 
 581      00000000 
 582              		.globl	adderError_testStdRender
 585              	adderError_testStdRender:
 586 04f8 00       		.zero	1
 587              		.section	.rodata
 588              	.LC7:
 589 00a3 7200     		.string	"r"
 590              	.LC8:
 591 00a5 6E6F6E45 		.string	"nonExistentFile.txt"
 591      78697374 
 591      656E7446 
 591      696C652E 
 591      74787400 
 592              	.LC9:
 593 00b9 216600   		.string	"!f"
 594 00bc 00000000 		.align 8
 595              	.LC10:
 596 00c0 556E6861 		.string	"Unhandled exception in CHECK(!f)"
 596      6E646C65 
 596      64206578 
 596      63657074 
 596      696F6E20 
 597 00e1 00000000 		.align 8
 597      000000
 598              	.LC11:
 599 00e8 556E6861 		.string	"Unhandled exception in CHECK_EQUAL(expected, error)"
 599      6E646C65 
 599      64206578 
 599      63657074 
 599      696F6E20 
 600              		.text
 601              		.align 2
 602              		.globl	_ZNK23TestError_testStdRender7RunImplEv
 604              	_ZNK23TestError_testStdRender7RunImplEv:
 605              	.LFB1181:
 606              		.loc 2 58 27
 607              		.cfi_startproc
 608              		.cfi_personality 0x9b,DW.ref.__gxx_personality_v0
 609              		.cfi_lsda 0x1b,.LLSDA1181
 610 0210 F30F1EFA 		endbr64
 611 0214 55       		pushq	%rbp
 612              		.cfi_def_cfa_offset 16
 613              		.cfi_offset 6, -16
 614 0215 4889E5   		movq	%rsp, %rbp
 615              		.cfi_def_cfa_register 6
 616 0218 53       		pushq	%rbx
 617 0219 4883EC68 		subq	$104, %rsp
 618              		.cfi_offset 3, -24
 619 021d 48897D98 		movq	%rdi, -104(%rbp)
 620              		.loc 2 58 27
 621 0221 64488B04 		movq	%fs:40, %rax
 621      25280000 
 621      00
 622 022a 488945E8 		movq	%rax, -24(%rbp)
 623 022e 31C0     		xorl	%eax, %eax
  59:testError.cpp **** 	const char *error, *expected;
  60:testError.cpp **** 	FILE *f;
  61:testError.cpp **** 	f = fopen("nonExistentFile.txt", "r");
 624              		.loc 2 61 11
 625 0230 488D0500 		leaq	.LC7(%rip), %rax
 625      000000
 626 0237 4889C6   		movq	%rax, %rsi
 627 023a 488D0500 		leaq	.LC8(%rip), %rax
 627      000000
 628 0241 4889C7   		movq	%rax, %rdi
 629              	.LEHB6:
 630 0244 E8000000 		call	fopen@PLT
 630      00
 631              	.LEHE6:
 632 0249 488945B0 		movq	%rax, -80(%rbp)
  62:testError.cpp **** 	CHECK(!f);
 633              		.loc 2 62 2
 634 024d 48837DB0 		cmpq	$0, -80(%rbp)
 634      00
 635 0252 0F94C0   		sete	%al
 636 0255 0FB6C0   		movzbl	%al, %eax
 637 0258 89C7     		movl	%eax, %edi
 638 025a E8000000 		call	_ZN8UnitTest5CheckIbEEbT_
 638      00
 639 025f 83F001   		xorl	$1, %eax
 640 0262 84C0     		testb	%al, %al
 641 0264 743A     		je	.L25
 642              	.LEHB7:
 643              		.loc 2 62 2 is_stmt 0 discriminator 1
 644 0266 E8000000 		call	_ZN8UnitTest11CurrentTest7ResultsEv@PLT
 644      00
 645 026b 488B18   		movq	(%rax), %rbx
 646 026e E8000000 		call	_ZN8UnitTest11CurrentTest7DetailsEv@PLT
 646      00
 647              		.loc 2 62 2 discriminator 3
 648 0273 488B08   		movq	(%rax), %rcx
 649 0276 488D45C0 		leaq	-64(%rbp), %rax
 650 027a BA3E0000 		movl	$62, %edx
 650      00
 651 027f 4889CE   		movq	%rcx, %rsi
 652 0282 4889C7   		movq	%rax, %rdi
 653 0285 E8000000 		call	_ZN8UnitTest11TestDetailsC1ERKS0_i@PLT
 653      00
 654              		.loc 2 62 2 discriminator 7
 655 028a 488D45C0 		leaq	-64(%rbp), %rax
 656 028e 488D1500 		leaq	.LC9(%rip), %rdx
 656      000000
 657 0295 4889C6   		movq	%rax, %rsi
 658 0298 4889DF   		movq	%rbx, %rdi
 659 029b E8000000 		call	_ZN8UnitTest11TestResults13OnTestFailureERKNS_11TestDetailsEPKc@PLT
 659      00
 660              	.LEHE7:
 661              	.L25:
  63:testError.cpp **** 	errRenderStd(&error);
 662              		.loc 2 63 14 is_stmt 1
 663 02a0 488D45A8 		leaq	-88(%rbp), %rax
 664 02a4 4889C7   		movq	%rax, %rdi
 665              	.LEHB8:
 666 02a7 E8000000 		call	errRenderStd@PLT
 666      00
  64:testError.cpp **** 	f = fopen("nonExistentFile.txt", "r");
 667              		.loc 2 64 11
 668 02ac 488D0500 		leaq	.LC7(%rip), %rax
 668      000000
 669 02b3 4889C6   		movq	%rax, %rsi
 670 02b6 488D0500 		leaq	.LC8(%rip), %rax
 670      000000
 671 02bd 4889C7   		movq	%rax, %rdi
 672 02c0 E8000000 		call	fopen@PLT
 672      00
 673              	.LEHE8:
 674 02c5 488945B0 		movq	%rax, -80(%rbp)
  65:testError.cpp **** 	CHECK(!f);
 675              		.loc 2 65 2
 676 02c9 48837DB0 		cmpq	$0, -80(%rbp)
 676      00
 677 02ce 0F94C0   		sete	%al
 678 02d1 0FB6C0   		movzbl	%al, %eax
 679 02d4 89C7     		movl	%eax, %edi
 680 02d6 E8000000 		call	_ZN8UnitTest5CheckIbEEbT_
 680      00
 681 02db 83F001   		xorl	$1, %eax
 682 02de 84C0     		testb	%al, %al
 683 02e0 743A     		je	.L26
 684              	.LEHB9:
 685              		.loc 2 65 2 is_stmt 0 discriminator 1
 686 02e2 E8000000 		call	_ZN8UnitTest11CurrentTest7ResultsEv@PLT
 686      00
 687 02e7 488B18   		movq	(%rax), %rbx
 688 02ea E8000000 		call	_ZN8UnitTest11CurrentTest7DetailsEv@PLT
 688      00
 689              		.loc 2 65 2 discriminator 3
 690 02ef 488B08   		movq	(%rax), %rcx
 691 02f2 488D45C0 		leaq	-64(%rbp), %rax
 692 02f6 BA410000 		movl	$65, %edx
 692      00
 693 02fb 4889CE   		movq	%rcx, %rsi
 694 02fe 4889C7   		movq	%rax, %rdi
 695 0301 E8000000 		call	_ZN8UnitTest11TestDetailsC1ERKS0_i@PLT
 695      00
 696              		.loc 2 65 2 discriminator 7
 697 0306 488D45C0 		leaq	-64(%rbp), %rax
 698 030a 488D1500 		leaq	.LC9(%rip), %rdx
 698      000000
 699 0311 4889C6   		movq	%rax, %rsi
 700 0314 4889DF   		movq	%rbx, %rdi
 701 0317 E8000000 		call	_ZN8UnitTest11TestResults13OnTestFailureERKNS_11TestDetailsEPKc@PLT
 701      00
 702              	.LEHE9:
 703              	.L26:
  66:testError.cpp **** 	expected = strerror(errno);
 704              		.loc 2 66 22 is_stmt 1
 705 031c E8000000 		call	__errno_location@PLT
 705      00
 706              		.loc 2 66 21
 707 0321 8B00     		movl	(%rax), %eax
 708 0323 89C7     		movl	%eax, %edi
 709 0325 E8000000 		call	strerror@PLT
 709      00
 710 032a 488945B8 		movq	%rax, -72(%rbp)
 711              	.LEHB10:
  67:testError.cpp **** 	CHECK_EQUAL(expected, error);
 712              		.loc 2 67 2
 713 032e E8000000 		call	_ZN8UnitTest11CurrentTest7DetailsEv@PLT
 713      00
 714 0333 488B08   		movq	(%rax), %rcx
 715 0336 488D45C0 		leaq	-64(%rbp), %rax
 716 033a BA430000 		movl	$67, %edx
 716      00
 717 033f 4889CE   		movq	%rcx, %rsi
 718 0342 4889C7   		movq	%rax, %rdi
 719 0345 E8000000 		call	_ZN8UnitTest11TestDetailsC1ERKS0_i@PLT
 719      00
 720              		.loc 2 67 2 is_stmt 0 discriminator 4
 721 034a 488B5DA8 		movq	-88(%rbp), %rbx
 722 034e E8000000 		call	_ZN8UnitTest11CurrentTest7ResultsEv@PLT
 722      00
 723 0353 488B00   		movq	(%rax), %rax
 724 0356 488D55C0 		leaq	-64(%rbp), %rdx
 725 035a 488B75B8 		movq	-72(%rbp), %rsi
 726 035e 4889D1   		movq	%rdx, %rcx
 727 0361 4889DA   		movq	%rbx, %rdx
 728 0364 4889C7   		movq	%rax, %rdi
 729 0367 E8000000 		call	_ZN8UnitTest10CheckEqualERNS_11TestResultsEPKcS3_RKNS_11TestDetailsE@PLT
 729      00
 730              	.LEHE10:
 731              	.L32:
  68:testError.cpp **** 	errFree(error);
 732              		.loc 2 68 9 is_stmt 1
 733 036c 488B45A8 		movq	-88(%rbp), %rax
 734 0370 4889C7   		movq	%rax, %rdi
 735              	.LEHB11:
 736 0373 E8000000 		call	errFree@PLT
 736      00
 737              	.LEHE11:
  69:testError.cpp **** }
 738              		.loc 2 69 1
 739 0378 90       		nop
 740 0379 488B45E8 		movq	-24(%rbp), %rax
 741 037d 64482B04 		subq	%fs:40, %rax
 741      25280000 
 741      00
 742 0386 0F843F01 		je	.L34
 742      0000
 743 038c E9350100 		jmp	.L41
 743      00
 744              	.L35:
 745 0391 F30F1EFA 		endbr64
  62:testError.cpp **** 	errRenderStd(&error);
 746              		.loc 2 62 2
 747 0395 4889C7   		movq	%rax, %rdi
 748 0398 E8000000 		call	__cxa_begin_catch@PLT
 748      00
 749              	.LEHB12:
 750 039d E8000000 		call	_ZN8UnitTest11CurrentTest7ResultsEv@PLT
 750      00
  62:testError.cpp **** 	errRenderStd(&error);
 751              		.loc 2 62 2 is_stmt 0 discriminator 2
 752 03a2 488B18   		movq	(%rax), %rbx
 753 03a5 E8000000 		call	_ZN8UnitTest11CurrentTest7DetailsEv@PLT
 753      00
  62:testError.cpp **** 	errRenderStd(&error);
 754              		.loc 2 62 2 discriminator 12
 755 03aa 488B08   		movq	(%rax), %rcx
 756 03ad 488D45C0 		leaq	-64(%rbp), %rax
 757 03b1 BA3E0000 		movl	$62, %edx
 757      00
 758 03b6 4889CE   		movq	%rcx, %rsi
 759 03b9 4889C7   		movq	%rax, %rdi
 760 03bc E8000000 		call	_ZN8UnitTest11TestDetailsC1ERKS0_i@PLT
 760      00
  62:testError.cpp **** 	errRenderStd(&error);
 761              		.loc 2 62 2 discriminator 16
 762 03c1 488D45C0 		leaq	-64(%rbp), %rax
 763 03c5 488D1500 		leaq	.LC10(%rip), %rdx
 763      000000
 764 03cc 4889C6   		movq	%rax, %rsi
 765 03cf 4889DF   		movq	%rbx, %rdi
 766 03d2 E8000000 		call	_ZN8UnitTest11TestResults13OnTestFailureERKNS_11TestDetailsEPKc@PLT
 766      00
 767              	.LEHE12:
 768              	.LEHB13:
  62:testError.cpp **** 	errRenderStd(&error);
 769              		.loc 2 62 2 discriminator 18
 770 03d7 E8000000 		call	__cxa_end_catch@PLT
 770      00
 771              	.LEHE13:
 772 03dc E9BFFEFF 		jmp	.L25
 772      FF
 773              	.L36:
 774 03e1 F30F1EFA 		endbr64
  62:testError.cpp **** 	errRenderStd(&error);
 775              		.loc 2 62 2
 776 03e5 4889C3   		movq	%rax, %rbx
 777 03e8 E8000000 		call	__cxa_end_catch@PLT
 777      00
 778 03ed 4889D8   		movq	%rbx, %rax
 779 03f0 4889C7   		movq	%rax, %rdi
 780              	.LEHB14:
 781 03f3 E8000000 		call	_Unwind_Resume@PLT
 781      00
 782              	.LEHE14:
 783              	.L37:
 784 03f8 F30F1EFA 		endbr64
  65:testError.cpp **** 	expected = strerror(errno);
 785              		.loc 2 65 2 is_stmt 1
 786 03fc 4889C7   		movq	%rax, %rdi
 787 03ff E8000000 		call	__cxa_begin_catch@PLT
 787      00
 788              	.LEHB15:
 789 0404 E8000000 		call	_ZN8UnitTest11CurrentTest7ResultsEv@PLT
 789      00
  65:testError.cpp **** 	expected = strerror(errno);
 790              		.loc 2 65 2 is_stmt 0 discriminator 2
 791 0409 488B18   		movq	(%rax), %rbx
 792 040c E8000000 		call	_ZN8UnitTest11CurrentTest7DetailsEv@PLT
 792      00
  65:testError.cpp **** 	expected = strerror(errno);
 793              		.loc 2 65 2 discriminator 12
 794 0411 488B08   		movq	(%rax), %rcx
 795 0414 488D45C0 		leaq	-64(%rbp), %rax
 796 0418 BA410000 		movl	$65, %edx
 796      00
 797 041d 4889CE   		movq	%rcx, %rsi
 798 0420 4889C7   		movq	%rax, %rdi
 799 0423 E8000000 		call	_ZN8UnitTest11TestDetailsC1ERKS0_i@PLT
 799      00
  65:testError.cpp **** 	expected = strerror(errno);
 800              		.loc 2 65 2 discriminator 16
 801 0428 488D45C0 		leaq	-64(%rbp), %rax
 802 042c 488D1500 		leaq	.LC10(%rip), %rdx
 802      000000
 803 0433 4889C6   		movq	%rax, %rsi
 804 0436 4889DF   		movq	%rbx, %rdi
 805 0439 E8000000 		call	_ZN8UnitTest11TestResults13OnTestFailureERKNS_11TestDetailsEPKc@PLT
 805      00
 806              	.LEHE15:
 807              	.LEHB16:
  65:testError.cpp **** 	expected = strerror(errno);
 808              		.loc 2 65 2 discriminator 18
 809 043e E8000000 		call	__cxa_end_catch@PLT
 809      00
 810              	.LEHE16:
 811 0443 E9D4FEFF 		jmp	.L26
 811      FF
 812              	.L38:
 813 0448 F30F1EFA 		endbr64
  65:testError.cpp **** 	expected = strerror(errno);
 814              		.loc 2 65 2
 815 044c 4889C3   		movq	%rax, %rbx
 816 044f E8000000 		call	__cxa_end_catch@PLT
 816      00
 817 0454 4889D8   		movq	%rbx, %rax
 818 0457 4889C7   		movq	%rax, %rdi
 819              	.LEHB17:
 820 045a E8000000 		call	_Unwind_Resume@PLT
 820      00
 821              	.LEHE17:
 822              	.L39:
 823 045f F30F1EFA 		endbr64
  67:testError.cpp **** 	errFree(error);
 824              		.loc 2 67 2 is_stmt 1
 825 0463 4889C7   		movq	%rax, %rdi
 826 0466 E8000000 		call	__cxa_begin_catch@PLT
 826      00
 827              	.LEHB18:
 828 046b E8000000 		call	_ZN8UnitTest11CurrentTest7ResultsEv@PLT
 828      00
  67:testError.cpp **** 	errFree(error);
 829              		.loc 2 67 2 is_stmt 0 discriminator 7
 830 0470 488B18   		movq	(%rax), %rbx
 831 0473 E8000000 		call	_ZN8UnitTest11CurrentTest7DetailsEv@PLT
 831      00
  67:testError.cpp **** 	errFree(error);
 832              		.loc 2 67 2 discriminator 11
 833 0478 488B08   		movq	(%rax), %rcx
 834 047b 488D45C0 		leaq	-64(%rbp), %rax
 835 047f BA430000 		movl	$67, %edx
 835      00
 836 0484 4889CE   		movq	%rcx, %rsi
 837 0487 4889C7   		movq	%rax, %rdi
 838 048a E8000000 		call	_ZN8UnitTest11TestDetailsC1ERKS0_i@PLT
 838      00
  67:testError.cpp **** 	errFree(error);
 839              		.loc 2 67 2 discriminator 15
 840 048f 488D45C0 		leaq	-64(%rbp), %rax
 841 0493 488D1500 		leaq	.LC11(%rip), %rdx
 841      000000
 842 049a 4889C6   		movq	%rax, %rsi
 843 049d 4889DF   		movq	%rbx, %rdi
 844 04a0 E8000000 		call	_ZN8UnitTest11TestResults13OnTestFailureERKNS_11TestDetailsEPKc@PLT
 844      00
 845              	.LEHE18:
 846              	.LEHB19:
  67:testError.cpp **** 	errFree(error);
 847              		.loc 2 67 2 discriminator 17
 848 04a5 E8000000 		call	__cxa_end_catch@PLT
 848      00
 849              	.LEHE19:
 850 04aa E9BDFEFF 		jmp	.L32
 850      FF
 851              	.L40:
 852 04af F30F1EFA 		endbr64
  67:testError.cpp **** 	errFree(error);
 853              		.loc 2 67 2
 854 04b3 4889C3   		movq	%rax, %rbx
 855 04b6 E8000000 		call	__cxa_end_catch@PLT
 855      00
 856 04bb 4889D8   		movq	%rbx, %rax
 857 04be 4889C7   		movq	%rax, %rdi
 858              	.LEHB20:
 859 04c1 E8000000 		call	_Unwind_Resume@PLT
 859      00
 860              	.LEHE20:
 861              	.L41:
 862              		.loc 2 69 1 is_stmt 1
 863 04c6 E8000000 		call	__stack_chk_fail@PLT
 863      00
 864              	.L34:
 865 04cb 488B5DF8 		movq	-8(%rbp), %rbx
 866 04cf C9       		leave
 867              		.cfi_def_cfa 7, 8
 868 04d0 C3       		ret
 869              		.cfi_endproc
 870              	.LFE1181:
 871              		.section	.gcc_except_table
 872              		.align 4
 873              	.LLSDA1181:
 874 002c FF       		.byte	0xff
 875 002d 9B       		.byte	0x9b
 876 002e 59       		.uleb128 .LLSDATT1181-.LLSDATTD1181
 877              	.LLSDATTD1181:
 878 002f 01       		.byte	0x1
 879 0030 4F       		.uleb128 .LLSDACSE1181-.LLSDACSB1181
 880              	.LLSDACSB1181:
 881 0031 34       		.uleb128 .LEHB6-.LFB1181
 882 0032 05       		.uleb128 .LEHE6-.LEHB6
 883 0033 00       		.uleb128 0
 884 0034 00       		.uleb128 0
 885 0035 56       		.uleb128 .LEHB7-.LFB1181
 886 0036 3A       		.uleb128 .LEHE7-.LEHB7
 887 0037 8103     		.uleb128 .L35-.LFB1181
 888 0039 01       		.uleb128 0x1
 889 003a 9701     		.uleb128 .LEHB8-.LFB1181
 890 003c 1E       		.uleb128 .LEHE8-.LEHB8
 891 003d 00       		.uleb128 0
 892 003e 00       		.uleb128 0
 893 003f D201     		.uleb128 .LEHB9-.LFB1181
 894 0041 3A       		.uleb128 .LEHE9-.LEHB9
 895 0042 E803     		.uleb128 .L37-.LFB1181
 896 0044 01       		.uleb128 0x1
 897 0045 9E02     		.uleb128 .LEHB10-.LFB1181
 898 0047 3E       		.uleb128 .LEHE10-.LEHB10
 899 0048 CF04     		.uleb128 .L39-.LFB1181
 900 004a 01       		.uleb128 0x1
 901 004b E302     		.uleb128 .LEHB11-.LFB1181
 902 004d 05       		.uleb128 .LEHE11-.LEHB11
 903 004e 00       		.uleb128 0
 904 004f 00       		.uleb128 0
 905 0050 8D03     		.uleb128 .LEHB12-.LFB1181
 906 0052 3A       		.uleb128 .LEHE12-.LEHB12
 907 0053 D103     		.uleb128 .L36-.LFB1181
 908 0055 00       		.uleb128 0
 909 0056 C703     		.uleb128 .LEHB13-.LFB1181
 910 0058 05       		.uleb128 .LEHE13-.LEHB13
 911 0059 00       		.uleb128 0
 912 005a 00       		.uleb128 0
 913 005b E303     		.uleb128 .LEHB14-.LFB1181
 914 005d 05       		.uleb128 .LEHE14-.LEHB14
 915 005e 00       		.uleb128 0
 916 005f 00       		.uleb128 0
 917 0060 F403     		.uleb128 .LEHB15-.LFB1181
 918 0062 3A       		.uleb128 .LEHE15-.LEHB15
 919 0063 B804     		.uleb128 .L38-.LFB1181
 920 0065 00       		.uleb128 0
 921 0066 AE04     		.uleb128 .LEHB16-.LFB1181
 922 0068 05       		.uleb128 .LEHE16-.LEHB16
 923 0069 00       		.uleb128 0
 924 006a 00       		.uleb128 0
 925 006b CA04     		.uleb128 .LEHB17-.LFB1181
 926 006d 05       		.uleb128 .LEHE17-.LEHB17
 927 006e 00       		.uleb128 0
 928 006f 00       		.uleb128 0
 929 0070 DB04     		.uleb128 .LEHB18-.LFB1181
 930 0072 3A       		.uleb128 .LEHE18-.LEHB18
 931 0073 9F05     		.uleb128 .L40-.LFB1181
 932 0075 00       		.uleb128 0
 933 0076 9505     		.uleb128 .LEHB19-.LFB1181
 934 0078 05       		.uleb128 .LEHE19-.LEHB19
 935 0079 00       		.uleb128 0
 936 007a 00       		.uleb128 0
 937 007b B105     		.uleb128 .LEHB20-.LFB1181
 938 007d 05       		.uleb128 .LEHE20-.LEHB20
 939 007e 00       		.uleb128 0
 940 007f 00       		.uleb128 0
 941              	.LLSDACSE1181:
 942 0080 01       		.byte	0x1
 943 0081 00       		.byte	0
 944 0082 0000     		.align 4
 945 0084 00000000 		.long	0
 946              	
 947              	.LLSDATT1181:
 948              		.text
 950              		.section	.text._ZN8UnitTest5CheckIbEEbT_,"axG",@progbits,_ZN8UnitTest5CheckIbEEbT_,comdat
 951              		.weak	_ZN8UnitTest5CheckIbEEbT_
 953              	_ZN8UnitTest5CheckIbEEbT_:
 954              	.LFB1209:
 955              		.file 3 "/home/asoreyh/Dropbox/projects/lago/acqua/nexys/src/makestuff/libs/libutpp/Checks.h"
   1:/home/asoreyh/Dropbox/projects/lago/acqua/nexys/src/makestuff/libs/libutpp/Checks.h **** #ifndef UNITTEST_CHECKS_H
   2:/home/asoreyh/Dropbox/projects/lago/acqua/nexys/src/makestuff/libs/libutpp/Checks.h **** #define UNITTEST_CHECKS_H
   3:/home/asoreyh/Dropbox/projects/lago/acqua/nexys/src/makestuff/libs/libutpp/Checks.h **** 
   4:/home/asoreyh/Dropbox/projects/lago/acqua/nexys/src/makestuff/libs/libutpp/Checks.h **** #include "Config.h"
   5:/home/asoreyh/Dropbox/projects/lago/acqua/nexys/src/makestuff/libs/libutpp/Checks.h **** #include "TestResults.h"
   6:/home/asoreyh/Dropbox/projects/lago/acqua/nexys/src/makestuff/libs/libutpp/Checks.h **** #include "MemoryOutStream.h"
   7:/home/asoreyh/Dropbox/projects/lago/acqua/nexys/src/makestuff/libs/libutpp/Checks.h **** 
   8:/home/asoreyh/Dropbox/projects/lago/acqua/nexys/src/makestuff/libs/libutpp/Checks.h **** namespace UnitTest {
   9:/home/asoreyh/Dropbox/projects/lago/acqua/nexys/src/makestuff/libs/libutpp/Checks.h **** 
  10:/home/asoreyh/Dropbox/projects/lago/acqua/nexys/src/makestuff/libs/libutpp/Checks.h **** 
  11:/home/asoreyh/Dropbox/projects/lago/acqua/nexys/src/makestuff/libs/libutpp/Checks.h **** template< typename Value >
  12:/home/asoreyh/Dropbox/projects/lago/acqua/nexys/src/makestuff/libs/libutpp/Checks.h **** bool Check(Value const value)
 956              		.loc 3 12 6
 957              		.cfi_startproc
 958 0000 F30F1EFA 		endbr64
 959 0004 55       		pushq	%rbp
 960              		.cfi_def_cfa_offset 16
 961              		.cfi_offset 6, -16
 962 0005 4889E5   		movq	%rsp, %rbp
 963              		.cfi_def_cfa_register 6
 964 0008 89F8     		movl	%edi, %eax
 965 000a 8845FC   		movb	%al, -4(%rbp)
  13:/home/asoreyh/Dropbox/projects/lago/acqua/nexys/src/makestuff/libs/libutpp/Checks.h **** {
  14:/home/asoreyh/Dropbox/projects/lago/acqua/nexys/src/makestuff/libs/libutpp/Checks.h ****     return !!value; // doing double negative to avoid silly VS warnings
 966              		.loc 3 14 14
 967 000d 0FB645FC 		movzbl	-4(%rbp), %eax
  15:/home/asoreyh/Dropbox/projects/lago/acqua/nexys/src/makestuff/libs/libutpp/Checks.h **** }
 968              		.loc 3 15 1
 969 0011 5D       		popq	%rbp
 970              		.cfi_def_cfa 7, 8
 971 0012 C3       		ret
 972              		.cfi_endproc
 973              	.LFE1209:
 975              		.weak	_ZTV23TestError_testStdRender
 976              		.section	.data.rel.ro.local._ZTV23TestError_testStdRender,"awG",@progbits,_ZTV23TestError_testStdR
 977              		.align 8
 980              	_ZTV23TestError_testStdRender:
 981 0000 00000000 		.quad	0
 981      00000000 
 982 0008 00000000 		.quad	_ZTI23TestError_testStdRender
 982      00000000 
 983 0010 00000000 		.quad	_ZN23TestError_testStdRenderD1Ev
 983      00000000 
 984 0018 00000000 		.quad	_ZN23TestError_testStdRenderD0Ev
 984      00000000 
 985 0020 00000000 		.quad	_ZNK23TestError_testStdRender7RunImplEv
 985      00000000 
 986              		.section	.text._ZN23TestError_testStdRenderD2Ev,"axG",@progbits,_ZN23TestError_testStdRenderD5Ev,c
 987              		.align 2
 988              		.weak	_ZN23TestError_testStdRenderD2Ev
 990              	_ZN23TestError_testStdRenderD2Ev:
 991              	.LFB1261:
  58:testError.cpp **** 	const char *error, *expected;
 992              		.loc 2 58 1
 993              		.cfi_startproc
 994 0000 F30F1EFA 		endbr64
 995 0004 55       		pushq	%rbp
 996              		.cfi_def_cfa_offset 16
 997              		.cfi_offset 6, -16
 998 0005 4889E5   		movq	%rsp, %rbp
 999              		.cfi_def_cfa_register 6
 1000 0008 4883EC10 		subq	$16, %rsp
 1001 000c 48897DF8 		movq	%rdi, -8(%rbp)
 1002              	.LBB6:
  58:testError.cpp **** 	const char *error, *expected;
 1003              		.loc 2 58 1
 1004 0010 488D1500 		leaq	16+_ZTV23TestError_testStdRender(%rip), %rdx
 1004      000000
 1005 0017 488B45F8 		movq	-8(%rbp), %rax
 1006 001b 488910   		movq	%rdx, (%rax)
 1007 001e 488B45F8 		movq	-8(%rbp), %rax
 1008 0022 4889C7   		movq	%rax, %rdi
 1009 0025 E8000000 		call	_ZN8UnitTest4TestD2Ev@PLT
 1009      00
 1010              	.LBE6:
 1011 002a 90       		nop
 1012 002b C9       		leave
 1013              		.cfi_def_cfa 7, 8
 1014 002c C3       		ret
 1015              		.cfi_endproc
 1016              	.LFE1261:
 1018              		.weak	_ZN23TestError_testStdRenderD1Ev
 1019              		.set	_ZN23TestError_testStdRenderD1Ev,_ZN23TestError_testStdRenderD2Ev
 1020              		.section	.text._ZN23TestError_testStdRenderD0Ev,"axG",@progbits,_ZN23TestError_testStdRenderD5Ev,c
 1021              		.align 2
 1022              		.weak	_ZN23TestError_testStdRenderD0Ev
 1024              	_ZN23TestError_testStdRenderD0Ev:
 1025              	.LFB1263:
  58:testError.cpp **** 	const char *error, *expected;
 1026              		.loc 2 58 1
 1027              		.cfi_startproc
 1028              		.cfi_personality 0x9b,DW.ref.__gxx_personality_v0
 1029              		.cfi_lsda 0x1b,.LLSDA1263
 1030 0000 F30F1EFA 		endbr64
 1031 0004 55       		pushq	%rbp
 1032              		.cfi_def_cfa_offset 16
 1033              		.cfi_offset 6, -16
 1034 0005 4889E5   		movq	%rsp, %rbp
 1035              		.cfi_def_cfa_register 6
 1036 0008 53       		pushq	%rbx
 1037 0009 4883EC18 		subq	$24, %rsp
 1038              		.cfi_offset 3, -24
 1039 000d 48897DE8 		movq	%rdi, -24(%rbp)
  58:testError.cpp **** 	const char *error, *expected;
 1040              		.loc 2 58 1
 1041 0011 488B45E8 		movq	-24(%rbp), %rax
 1042 0015 4889C7   		movq	%rax, %rdi
 1043              	.LEHB21:
 1044 0018 E8000000 		call	_ZN23TestError_testStdRenderD1Ev
 1044      00
 1045              	.LEHE21:
  58:testError.cpp **** 	const char *error, *expected;
 1046              		.loc 2 58 1 is_stmt 0 discriminator 2
 1047 001d 488B45E8 		movq	-24(%rbp), %rax
 1048 0021 4889C7   		movq	%rax, %rdi
 1049 0024 E8000000 		call	_ZdlPv@PLT
 1049      00
 1050 0029 EB1E     		jmp	.L48
 1051              	.L47:
 1052 002b F30F1EFA 		endbr64
  58:testError.cpp **** 	const char *error, *expected;
 1053              		.loc 2 58 1
 1054 002f 4889C3   		movq	%rax, %rbx
 1055 0032 488B45E8 		movq	-24(%rbp), %rax
 1056 0036 4889C7   		movq	%rax, %rdi
 1057 0039 E8000000 		call	_ZdlPv@PLT
 1057      00
 1058 003e 4889D8   		movq	%rbx, %rax
 1059 0041 4889C7   		movq	%rax, %rdi
 1060              	.LEHB22:
 1061 0044 E8000000 		call	_Unwind_Resume@PLT
 1061      00
 1062              	.LEHE22:
 1063              	.L48:
 1064 0049 488B5DF8 		movq	-8(%rbp), %rbx
 1065 004d C9       		leave
 1066              		.cfi_def_cfa 7, 8
 1067 004e C3       		ret
 1068              		.cfi_endproc
 1069              	.LFE1263:
 1070              		.section	.gcc_except_table
 1071              	.LLSDA1263:
 1072 0088 FF       		.byte	0xff
 1073 0089 FF       		.byte	0xff
 1074 008a 01       		.byte	0x1
 1075 008b 08       		.uleb128 .LLSDACSE1263-.LLSDACSB1263
 1076              	.LLSDACSB1263:
 1077 008c 18       		.uleb128 .LEHB21-.LFB1263
 1078 008d 05       		.uleb128 .LEHE21-.LEHB21
 1079 008e 2B       		.uleb128 .L47-.LFB1263
 1080 008f 00       		.uleb128 0
 1081 0090 44       		.uleb128 .LEHB22-.LFB1263
 1082 0091 05       		.uleb128 .LEHE22-.LEHB22
 1083 0092 00       		.uleb128 0
 1084 0093 00       		.uleb128 0
 1085              	.LLSDACSE1263:
 1086              		.section	.text._ZN23TestError_testStdRenderD0Ev,"axG",@progbits,_ZN23TestError_testStdRenderD5Ev,c
 1088              		.weak	_ZTV27TestError_testNullStdRender
 1089              		.section	.data.rel.ro.local._ZTV27TestError_testNullStdRender,"awG",@progbits,_ZTV27TestError_test
 1090              		.align 8
 1093              	_ZTV27TestError_testNullStdRender:
 1094 0000 00000000 		.quad	0
 1094      00000000 
 1095 0008 00000000 		.quad	_ZTI27TestError_testNullStdRender
 1095      00000000 
 1096 0010 00000000 		.quad	_ZN27TestError_testNullStdRenderD1Ev
 1096      00000000 
 1097 0018 00000000 		.quad	_ZN27TestError_testNullStdRenderD0Ev
 1097      00000000 
 1098 0020 00000000 		.quad	_ZNK27TestError_testNullStdRender7RunImplEv
 1098      00000000 
 1099              		.section	.text._ZN27TestError_testNullStdRenderD2Ev,"axG",@progbits,_ZN27TestError_testNullStdRend
 1100              		.align 2
 1101              		.weak	_ZN27TestError_testNullStdRenderD2Ev
 1103              	_ZN27TestError_testNullStdRenderD2Ev:
 1104              	.LFB1265:
  53:testError.cpp **** 	fillBuf(16, 'A');
 1105              		.loc 2 53 1 is_stmt 1
 1106              		.cfi_startproc
 1107 0000 F30F1EFA 		endbr64
 1108 0004 55       		pushq	%rbp
 1109              		.cfi_def_cfa_offset 16
 1110              		.cfi_offset 6, -16
 1111 0005 4889E5   		movq	%rsp, %rbp
 1112              		.cfi_def_cfa_register 6
 1113 0008 4883EC10 		subq	$16, %rsp
 1114 000c 48897DF8 		movq	%rdi, -8(%rbp)
 1115              	.LBB7:
  53:testError.cpp **** 	fillBuf(16, 'A');
 1116              		.loc 2 53 1
 1117 0010 488D1500 		leaq	16+_ZTV27TestError_testNullStdRender(%rip), %rdx
 1117      000000
 1118 0017 488B45F8 		movq	-8(%rbp), %rax
 1119 001b 488910   		movq	%rdx, (%rax)
 1120 001e 488B45F8 		movq	-8(%rbp), %rax
 1121 0022 4889C7   		movq	%rax, %rdi
 1122 0025 E8000000 		call	_ZN8UnitTest4TestD2Ev@PLT
 1122      00
 1123              	.LBE7:
 1124 002a 90       		nop
 1125 002b C9       		leave
 1126              		.cfi_def_cfa 7, 8
 1127 002c C3       		ret
 1128              		.cfi_endproc
 1129              	.LFE1265:
 1131              		.weak	_ZN27TestError_testNullStdRenderD1Ev
 1132              		.set	_ZN27TestError_testNullStdRenderD1Ev,_ZN27TestError_testNullStdRenderD2Ev
 1133              		.section	.text._ZN27TestError_testNullStdRenderD0Ev,"axG",@progbits,_ZN27TestError_testNullStdRend
 1134              		.align 2
 1135              		.weak	_ZN27TestError_testNullStdRenderD0Ev
 1137              	_ZN27TestError_testNullStdRenderD0Ev:
 1138              	.LFB1267:
  53:testError.cpp **** 	fillBuf(16, 'A');
 1139              		.loc 2 53 1
 1140              		.cfi_startproc
 1141              		.cfi_personality 0x9b,DW.ref.__gxx_personality_v0
 1142              		.cfi_lsda 0x1b,.LLSDA1267
 1143 0000 F30F1EFA 		endbr64
 1144 0004 55       		pushq	%rbp
 1145              		.cfi_def_cfa_offset 16
 1146              		.cfi_offset 6, -16
 1147 0005 4889E5   		movq	%rsp, %rbp
 1148              		.cfi_def_cfa_register 6
 1149 0008 53       		pushq	%rbx
 1150 0009 4883EC18 		subq	$24, %rsp
 1151              		.cfi_offset 3, -24
 1152 000d 48897DE8 		movq	%rdi, -24(%rbp)
  53:testError.cpp **** 	fillBuf(16, 'A');
 1153              		.loc 2 53 1
 1154 0011 488B45E8 		movq	-24(%rbp), %rax
 1155 0015 4889C7   		movq	%rax, %rdi
 1156              	.LEHB23:
 1157 0018 E8000000 		call	_ZN27TestError_testNullStdRenderD1Ev
 1157      00
 1158              	.LEHE23:
  53:testError.cpp **** 	fillBuf(16, 'A');
 1159              		.loc 2 53 1 is_stmt 0 discriminator 2
 1160 001d 488B45E8 		movq	-24(%rbp), %rax
 1161 0021 4889C7   		movq	%rax, %rdi
 1162 0024 E8000000 		call	_ZdlPv@PLT
 1162      00
 1163 0029 EB1E     		jmp	.L53
 1164              	.L52:
 1165 002b F30F1EFA 		endbr64
  53:testError.cpp **** 	fillBuf(16, 'A');
 1166              		.loc 2 53 1
 1167 002f 4889C3   		movq	%rax, %rbx
 1168 0032 488B45E8 		movq	-24(%rbp), %rax
 1169 0036 4889C7   		movq	%rax, %rdi
 1170 0039 E8000000 		call	_ZdlPv@PLT
 1170      00
 1171 003e 4889D8   		movq	%rbx, %rax
 1172 0041 4889C7   		movq	%rax, %rdi
 1173              	.LEHB24:
 1174 0044 E8000000 		call	_Unwind_Resume@PLT
 1174      00
 1175              	.LEHE24:
 1176              	.L53:
 1177 0049 488B5DF8 		movq	-8(%rbp), %rbx
 1178 004d C9       		leave
 1179              		.cfi_def_cfa 7, 8
 1180 004e C3       		ret
 1181              		.cfi_endproc
 1182              	.LFE1267:
 1183              		.section	.gcc_except_table
 1184              	.LLSDA1267:
 1185 0094 FF       		.byte	0xff
 1186 0095 FF       		.byte	0xff
 1187 0096 01       		.byte	0x1
 1188 0097 08       		.uleb128 .LLSDACSE1267-.LLSDACSB1267
 1189              	.LLSDACSB1267:
 1190 0098 18       		.uleb128 .LEHB23-.LFB1267
 1191 0099 05       		.uleb128 .LEHE23-.LEHB23
 1192 009a 2B       		.uleb128 .L52-.LFB1267
 1193 009b 00       		.uleb128 0
 1194 009c 44       		.uleb128 .LEHB24-.LFB1267
 1195 009d 05       		.uleb128 .LEHE24-.LEHB24
 1196 009e 00       		.uleb128 0
 1197 009f 00       		.uleb128 0
 1198              	.LLSDACSE1267:
 1199              		.section	.text._ZN27TestError_testNullStdRenderD0Ev,"axG",@progbits,_ZN27TestError_testNullStdRend
 1201              		.weak	_ZTV20TestError_testRender
 1202              		.section	.data.rel.ro.local._ZTV20TestError_testRender,"awG",@progbits,_ZTV20TestError_testRender,
 1203              		.align 8
 1206              	_ZTV20TestError_testRender:
 1207 0000 00000000 		.quad	0
 1207      00000000 
 1208 0008 00000000 		.quad	_ZTI20TestError_testRender
 1208      00000000 
 1209 0010 00000000 		.quad	_ZN20TestError_testRenderD1Ev
 1209      00000000 
 1210 0018 00000000 		.quad	_ZN20TestError_testRenderD0Ev
 1210      00000000 
 1211 0020 00000000 		.quad	_ZNK20TestError_testRender7RunImplEv
 1211      00000000 
 1212              		.section	.text._ZN20TestError_testRenderD2Ev,"axG",@progbits,_ZN20TestError_testRenderD5Ev,comdat
 1213              		.align 2
 1214              		.weak	_ZN20TestError_testRenderD2Ev
 1216              	_ZN20TestError_testRenderD2Ev:
 1217              	.LFB1269:
  42:testError.cpp **** 	int i;
 1218              		.loc 2 42 1 is_stmt 1
 1219              		.cfi_startproc
 1220 0000 F30F1EFA 		endbr64
 1221 0004 55       		pushq	%rbp
 1222              		.cfi_def_cfa_offset 16
 1223              		.cfi_offset 6, -16
 1224 0005 4889E5   		movq	%rsp, %rbp
 1225              		.cfi_def_cfa_register 6
 1226 0008 4883EC10 		subq	$16, %rsp
 1227 000c 48897DF8 		movq	%rdi, -8(%rbp)
 1228              	.LBB8:
  42:testError.cpp **** 	int i;
 1229              		.loc 2 42 1
 1230 0010 488D1500 		leaq	16+_ZTV20TestError_testRender(%rip), %rdx
 1230      000000
 1231 0017 488B45F8 		movq	-8(%rbp), %rax
 1232 001b 488910   		movq	%rdx, (%rax)
 1233 001e 488B45F8 		movq	-8(%rbp), %rax
 1234 0022 4889C7   		movq	%rax, %rdi
 1235 0025 E8000000 		call	_ZN8UnitTest4TestD2Ev@PLT
 1235      00
 1236              	.LBE8:
 1237 002a 90       		nop
 1238 002b C9       		leave
 1239              		.cfi_def_cfa 7, 8
 1240 002c C3       		ret
 1241              		.cfi_endproc
 1242              	.LFE1269:
 1244              		.weak	_ZN20TestError_testRenderD1Ev
 1245              		.set	_ZN20TestError_testRenderD1Ev,_ZN20TestError_testRenderD2Ev
 1246              		.section	.text._ZN20TestError_testRenderD0Ev,"axG",@progbits,_ZN20TestError_testRenderD5Ev,comdat
 1247              		.align 2
 1248              		.weak	_ZN20TestError_testRenderD0Ev
 1250              	_ZN20TestError_testRenderD0Ev:
 1251              	.LFB1271:
  42:testError.cpp **** 	int i;
 1252              		.loc 2 42 1
 1253              		.cfi_startproc
 1254              		.cfi_personality 0x9b,DW.ref.__gxx_personality_v0
 1255              		.cfi_lsda 0x1b,.LLSDA1271
 1256 0000 F30F1EFA 		endbr64
 1257 0004 55       		pushq	%rbp
 1258              		.cfi_def_cfa_offset 16
 1259              		.cfi_offset 6, -16
 1260 0005 4889E5   		movq	%rsp, %rbp
 1261              		.cfi_def_cfa_register 6
 1262 0008 53       		pushq	%rbx
 1263 0009 4883EC18 		subq	$24, %rsp
 1264              		.cfi_offset 3, -24
 1265 000d 48897DE8 		movq	%rdi, -24(%rbp)
  42:testError.cpp **** 	int i;
 1266              		.loc 2 42 1
 1267 0011 488B45E8 		movq	-24(%rbp), %rax
 1268 0015 4889C7   		movq	%rax, %rdi
 1269              	.LEHB25:
 1270 0018 E8000000 		call	_ZN20TestError_testRenderD1Ev
 1270      00
 1271              	.LEHE25:
  42:testError.cpp **** 	int i;
 1272              		.loc 2 42 1 is_stmt 0 discriminator 2
 1273 001d 488B45E8 		movq	-24(%rbp), %rax
 1274 0021 4889C7   		movq	%rax, %rdi
 1275 0024 E8000000 		call	_ZdlPv@PLT
 1275      00
 1276 0029 EB1E     		jmp	.L58
 1277              	.L57:
 1278 002b F30F1EFA 		endbr64
  42:testError.cpp **** 	int i;
 1279              		.loc 2 42 1
 1280 002f 4889C3   		movq	%rax, %rbx
 1281 0032 488B45E8 		movq	-24(%rbp), %rax
 1282 0036 4889C7   		movq	%rax, %rdi
 1283 0039 E8000000 		call	_ZdlPv@PLT
 1283      00
 1284 003e 4889D8   		movq	%rbx, %rax
 1285 0041 4889C7   		movq	%rax, %rdi
 1286              	.LEHB26:
 1287 0044 E8000000 		call	_Unwind_Resume@PLT
 1287      00
 1288              	.LEHE26:
 1289              	.L58:
 1290 0049 488B5DF8 		movq	-8(%rbp), %rbx
 1291 004d C9       		leave
 1292              		.cfi_def_cfa 7, 8
 1293 004e C3       		ret
 1294              		.cfi_endproc
 1295              	.LFE1271:
 1296              		.section	.gcc_except_table
 1297              	.LLSDA1271:
 1298 00a0 FF       		.byte	0xff
 1299 00a1 FF       		.byte	0xff
 1300 00a2 01       		.byte	0x1
 1301 00a3 08       		.uleb128 .LLSDACSE1271-.LLSDACSB1271
 1302              	.LLSDACSB1271:
 1303 00a4 18       		.uleb128 .LEHB25-.LFB1271
 1304 00a5 05       		.uleb128 .LEHE25-.LEHB25
 1305 00a6 2B       		.uleb128 .L57-.LFB1271
 1306 00a7 00       		.uleb128 0
 1307 00a8 44       		.uleb128 .LEHB26-.LFB1271
 1308 00a9 05       		.uleb128 .LEHE26-.LEHB26
 1309 00aa 00       		.uleb128 0
 1310 00ab 00       		.uleb128 0
 1311              	.LLSDACSE1271:
 1312              		.section	.text._ZN20TestError_testRenderD0Ev,"axG",@progbits,_ZN20TestError_testRenderD5Ev,comdat
 1314              		.weak	_ZTV24TestError_testNullRender
 1315              		.section	.data.rel.ro.local._ZTV24TestError_testNullRender,"awG",@progbits,_ZTV24TestError_testNul
 1316              		.align 8
 1319              	_ZTV24TestError_testNullRender:
 1320 0000 00000000 		.quad	0
 1320      00000000 
 1321 0008 00000000 		.quad	_ZTI24TestError_testNullRender
 1321      00000000 
 1322 0010 00000000 		.quad	_ZN24TestError_testNullRenderD1Ev
 1322      00000000 
 1323 0018 00000000 		.quad	_ZN24TestError_testNullRenderD0Ev
 1323      00000000 
 1324 0020 00000000 		.quad	_ZNK24TestError_testNullRender7RunImplEv
 1324      00000000 
 1325              		.section	.text._ZN24TestError_testNullRenderD2Ev,"axG",@progbits,_ZN24TestError_testNullRenderD5Ev
 1326              		.align 2
 1327              		.weak	_ZN24TestError_testNullRenderD2Ev
 1329              	_ZN24TestError_testNullRenderD2Ev:
 1330              	.LFB1273:
  37:testError.cpp **** 	fillBuf(16, 'A');
 1331              		.loc 2 37 1 is_stmt 1
 1332              		.cfi_startproc
 1333 0000 F30F1EFA 		endbr64
 1334 0004 55       		pushq	%rbp
 1335              		.cfi_def_cfa_offset 16
 1336              		.cfi_offset 6, -16
 1337 0005 4889E5   		movq	%rsp, %rbp
 1338              		.cfi_def_cfa_register 6
 1339 0008 4883EC10 		subq	$16, %rsp
 1340 000c 48897DF8 		movq	%rdi, -8(%rbp)
 1341              	.LBB9:
  37:testError.cpp **** 	fillBuf(16, 'A');
 1342              		.loc 2 37 1
 1343 0010 488D1500 		leaq	16+_ZTV24TestError_testNullRender(%rip), %rdx
 1343      000000
 1344 0017 488B45F8 		movq	-8(%rbp), %rax
 1345 001b 488910   		movq	%rdx, (%rax)
 1346 001e 488B45F8 		movq	-8(%rbp), %rax
 1347 0022 4889C7   		movq	%rax, %rdi
 1348 0025 E8000000 		call	_ZN8UnitTest4TestD2Ev@PLT
 1348      00
 1349              	.LBE9:
 1350 002a 90       		nop
 1351 002b C9       		leave
 1352              		.cfi_def_cfa 7, 8
 1353 002c C3       		ret
 1354              		.cfi_endproc
 1355              	.LFE1273:
 1357              		.weak	_ZN24TestError_testNullRenderD1Ev
 1358              		.set	_ZN24TestError_testNullRenderD1Ev,_ZN24TestError_testNullRenderD2Ev
 1359              		.section	.text._ZN24TestError_testNullRenderD0Ev,"axG",@progbits,_ZN24TestError_testNullRenderD5Ev
 1360              		.align 2
 1361              		.weak	_ZN24TestError_testNullRenderD0Ev
 1363              	_ZN24TestError_testNullRenderD0Ev:
 1364              	.LFB1275:
  37:testError.cpp **** 	fillBuf(16, 'A');
 1365              		.loc 2 37 1
 1366              		.cfi_startproc
 1367              		.cfi_personality 0x9b,DW.ref.__gxx_personality_v0
 1368              		.cfi_lsda 0x1b,.LLSDA1275
 1369 0000 F30F1EFA 		endbr64
 1370 0004 55       		pushq	%rbp
 1371              		.cfi_def_cfa_offset 16
 1372              		.cfi_offset 6, -16
 1373 0005 4889E5   		movq	%rsp, %rbp
 1374              		.cfi_def_cfa_register 6
 1375 0008 53       		pushq	%rbx
 1376 0009 4883EC18 		subq	$24, %rsp
 1377              		.cfi_offset 3, -24
 1378 000d 48897DE8 		movq	%rdi, -24(%rbp)
  37:testError.cpp **** 	fillBuf(16, 'A');
 1379              		.loc 2 37 1
 1380 0011 488B45E8 		movq	-24(%rbp), %rax
 1381 0015 4889C7   		movq	%rax, %rdi
 1382              	.LEHB27:
 1383 0018 E8000000 		call	_ZN24TestError_testNullRenderD1Ev
 1383      00
 1384              	.LEHE27:
  37:testError.cpp **** 	fillBuf(16, 'A');
 1385              		.loc 2 37 1 is_stmt 0 discriminator 2
 1386 001d 488B45E8 		movq	-24(%rbp), %rax
 1387 0021 4889C7   		movq	%rax, %rdi
 1388 0024 E8000000 		call	_ZdlPv@PLT
 1388      00
 1389 0029 EB1E     		jmp	.L63
 1390              	.L62:
 1391 002b F30F1EFA 		endbr64
  37:testError.cpp **** 	fillBuf(16, 'A');
 1392              		.loc 2 37 1
 1393 002f 4889C3   		movq	%rax, %rbx
 1394 0032 488B45E8 		movq	-24(%rbp), %rax
 1395 0036 4889C7   		movq	%rax, %rdi
 1396 0039 E8000000 		call	_ZdlPv@PLT
 1396      00
 1397 003e 4889D8   		movq	%rbx, %rax
 1398 0041 4889C7   		movq	%rax, %rdi
 1399              	.LEHB28:
 1400 0044 E8000000 		call	_Unwind_Resume@PLT
 1400      00
 1401              	.LEHE28:
 1402              	.L63:
 1403 0049 488B5DF8 		movq	-8(%rbp), %rbx
 1404 004d C9       		leave
 1405              		.cfi_def_cfa 7, 8
 1406 004e C3       		ret
 1407              		.cfi_endproc
 1408              	.LFE1275:
 1409              		.section	.gcc_except_table
 1410              	.LLSDA1275:
 1411 00ac FF       		.byte	0xff
 1412 00ad FF       		.byte	0xff
 1413 00ae 01       		.byte	0x1
 1414 00af 08       		.uleb128 .LLSDACSE1275-.LLSDACSB1275
 1415              	.LLSDACSB1275:
 1416 00b0 18       		.uleb128 .LEHB27-.LFB1275
 1417 00b1 05       		.uleb128 .LEHE27-.LEHB27
 1418 00b2 2B       		.uleb128 .L62-.LFB1275
 1419 00b3 00       		.uleb128 0
 1420 00b4 44       		.uleb128 .LEHB28-.LFB1275
 1421 00b5 05       		.uleb128 .LEHE28-.LEHB28
 1422 00b6 00       		.uleb128 0
 1423 00b7 00       		.uleb128 0
 1424              	.LLSDACSE1275:
 1425              		.section	.text._ZN24TestError_testNullRenderD0Ev,"axG",@progbits,_ZN24TestError_testNullRenderD5Ev
 1427              		.weak	_ZTI23TestError_testStdRender
 1428              		.section	.data.rel.ro._ZTI23TestError_testStdRender,"awG",@progbits,_ZTI23TestError_testStdRender,
 1429              		.align 8
 1432              	_ZTI23TestError_testStdRender:
 1433 0000 00000000 		.quad	_ZTVN10__cxxabiv120__si_class_type_infoE+16
 1433      00000000 
 1434 0008 00000000 		.quad	_ZTS23TestError_testStdRender
 1434      00000000 
 1435 0010 00000000 		.quad	_ZTIN8UnitTest4TestE
 1435      00000000 
 1436              		.weak	_ZTS23TestError_testStdRender
 1437              		.section	.rodata._ZTS23TestError_testStdRender,"aG",@progbits,_ZTS23TestError_testStdRender,comdat
 1438              		.align 16
 1441              	_ZTS23TestError_testStdRender:
 1442 0000 32335465 		.string	"23TestError_testStdRender"
 1442      73744572 
 1442      726F725F 
 1442      74657374 
 1442      53746452 
 1443              		.weak	_ZTI27TestError_testNullStdRender
 1444              		.section	.data.rel.ro._ZTI27TestError_testNullStdRender,"awG",@progbits,_ZTI27TestError_testNullSt
 1445              		.align 8
 1448              	_ZTI27TestError_testNullStdRender:
 1449 0000 00000000 		.quad	_ZTVN10__cxxabiv120__si_class_type_infoE+16
 1449      00000000 
 1450 0008 00000000 		.quad	_ZTS27TestError_testNullStdRender
 1450      00000000 
 1451 0010 00000000 		.quad	_ZTIN8UnitTest4TestE
 1451      00000000 
 1452              		.weak	_ZTS27TestError_testNullStdRender
 1453              		.section	.rodata._ZTS27TestError_testNullStdRender,"aG",@progbits,_ZTS27TestError_testNullStdRende
 1454              		.align 16
 1457              	_ZTS27TestError_testNullStdRender:
 1458 0000 32375465 		.string	"27TestError_testNullStdRender"
 1458      73744572 
 1458      726F725F 
 1458      74657374 
 1458      4E756C6C 
 1459              		.weak	_ZTI20TestError_testRender
 1460              		.section	.data.rel.ro._ZTI20TestError_testRender,"awG",@progbits,_ZTI20TestError_testRender,comdat
 1461              		.align 8
 1464              	_ZTI20TestError_testRender:
 1465 0000 00000000 		.quad	_ZTVN10__cxxabiv120__si_class_type_infoE+16
 1465      00000000 
 1466 0008 00000000 		.quad	_ZTS20TestError_testRender
 1466      00000000 
 1467 0010 00000000 		.quad	_ZTIN8UnitTest4TestE
 1467      00000000 
 1468              		.weak	_ZTS20TestError_testRender
 1469              		.section	.rodata._ZTS20TestError_testRender,"aG",@progbits,_ZTS20TestError_testRender,comdat
 1470              		.align 16
 1473              	_ZTS20TestError_testRender:
 1474 0000 32305465 		.string	"20TestError_testRender"
 1474      73744572 
 1474      726F725F 
 1474      74657374 
 1474      52656E64 
 1475              		.weak	_ZTI24TestError_testNullRender
 1476              		.section	.data.rel.ro._ZTI24TestError_testNullRender,"awG",@progbits,_ZTI24TestError_testNullRende
 1477              		.align 8
 1480              	_ZTI24TestError_testNullRender:
 1481 0000 00000000 		.quad	_ZTVN10__cxxabiv120__si_class_type_infoE+16
 1481      00000000 
 1482 0008 00000000 		.quad	_ZTS24TestError_testNullRender
 1482      00000000 
 1483 0010 00000000 		.quad	_ZTIN8UnitTest4TestE
 1483      00000000 
 1484              		.weak	_ZTS24TestError_testNullRender
 1485              		.section	.rodata._ZTS24TestError_testNullRender,"aG",@progbits,_ZTS24TestError_testNullRender,comd
 1486              		.align 16
 1489              	_ZTS24TestError_testNullRender:
 1490 0000 32345465 		.string	"24TestError_testNullRender"
 1490      73744572 
 1490      726F725F 
 1490      74657374 
 1490      4E756C6C 
 1491              		.text
 1493              	_Z41__static_initialization_and_destruction_0ii:
 1494              	.LFB1280:
 1495              		.loc 2 69 1 is_stmt 1
 1496              		.cfi_startproc
 1497 04d1 F30F1EFA 		endbr64
 1498 04d5 55       		pushq	%rbp
 1499              		.cfi_def_cfa_offset 16
 1500              		.cfi_offset 6, -16
 1501 04d6 4889E5   		movq	%rsp, %rbp
 1502              		.cfi_def_cfa_register 6
 1503 04d9 4883EC10 		subq	$16, %rsp
 1504 04dd 897DFC   		movl	%edi, -4(%rbp)
 1505 04e0 8975F8   		movl	%esi, -8(%rbp)
 1506              		.loc 2 69 1
 1507 04e3 837DFC01 		cmpl	$1, -4(%rbp)
 1508 04e7 0F856501 		jne	.L66
 1508      0000
 1509              		.loc 2 69 1 is_stmt 0 discriminator 1
 1510 04ed 817DF8FF 		cmpl	$65535, -8(%rbp)
 1510      FF0000
 1511 04f4 0F855801 		jne	.L66
 1511      0000
  37:testError.cpp **** 	fillBuf(16, 'A');
 1512              		.loc 2 37 1 is_stmt 1
 1513 04fa 488D0500 		leaq	testError_testNullRenderInstance(%rip), %rax
 1513      000000
 1514 0501 4889C7   		movq	%rax, %rdi
 1515 0504 E8000000 		call	_ZN24TestError_testNullRenderC1Ev
 1515      00
 1516 0509 488D0500 		leaq	__dso_handle(%rip), %rax
 1516      000000
 1517 0510 4889C2   		movq	%rax, %rdx
 1518 0513 488D0500 		leaq	testError_testNullRenderInstance(%rip), %rax
 1518      000000
 1519 051a 4889C6   		movq	%rax, %rsi
 1520 051d 488D0500 		leaq	_ZN24TestError_testNullRenderD1Ev(%rip), %rax
 1520      000000
 1521 0524 4889C7   		movq	%rax, %rdi
 1522 0527 E8000000 		call	__cxa_atexit@PLT
 1522      00
 1523 052c E8000000 		call	_ZN8UnitTest4Test11GetTestListEv@PLT
 1523      00
 1524 0531 4889C1   		movq	%rax, %rcx
 1525 0534 488D0500 		leaq	testError_testNullRenderInstance(%rip), %rax
 1525      000000
 1526 053b 4889C2   		movq	%rax, %rdx
 1527 053e 4889CE   		movq	%rcx, %rsi
 1528 0541 488D0500 		leaq	adderError_testNullRender(%rip), %rax
 1528      000000
 1529 0548 4889C7   		movq	%rax, %rdi
 1530 054b E8000000 		call	_ZN8UnitTest9ListAdderC1ERNS_8TestListEPNS_4TestE@PLT
 1530      00
  42:testError.cpp **** 	int i;
 1531              		.loc 2 42 1
 1532 0550 488D0500 		leaq	testError_testRenderInstance(%rip), %rax
 1532      000000
 1533 0557 4889C7   		movq	%rax, %rdi
 1534 055a E8000000 		call	_ZN20TestError_testRenderC1Ev
 1534      00
 1535 055f 488D0500 		leaq	__dso_handle(%rip), %rax
 1535      000000
 1536 0566 4889C2   		movq	%rax, %rdx
 1537 0569 488D0500 		leaq	testError_testRenderInstance(%rip), %rax
 1537      000000
 1538 0570 4889C6   		movq	%rax, %rsi
 1539 0573 488D0500 		leaq	_ZN20TestError_testRenderD1Ev(%rip), %rax
 1539      000000
 1540 057a 4889C7   		movq	%rax, %rdi
 1541 057d E8000000 		call	__cxa_atexit@PLT
 1541      00
 1542 0582 E8000000 		call	_ZN8UnitTest4Test11GetTestListEv@PLT
 1542      00
 1543 0587 4889C1   		movq	%rax, %rcx
 1544 058a 488D0500 		leaq	testError_testRenderInstance(%rip), %rax
 1544      000000
 1545 0591 4889C2   		movq	%rax, %rdx
 1546 0594 4889CE   		movq	%rcx, %rsi
 1547 0597 488D0500 		leaq	adderError_testRender(%rip), %rax
 1547      000000
 1548 059e 4889C7   		movq	%rax, %rdi
 1549 05a1 E8000000 		call	_ZN8UnitTest9ListAdderC1ERNS_8TestListEPNS_4TestE@PLT
 1549      00
  53:testError.cpp **** 	fillBuf(16, 'A');
 1550              		.loc 2 53 1
 1551 05a6 488D0500 		leaq	testError_testNullStdRenderInstance(%rip), %rax
 1551      000000
 1552 05ad 4889C7   		movq	%rax, %rdi
 1553 05b0 E8000000 		call	_ZN27TestError_testNullStdRenderC1Ev
 1553      00
 1554 05b5 488D0500 		leaq	__dso_handle(%rip), %rax
 1554      000000
 1555 05bc 4889C2   		movq	%rax, %rdx
 1556 05bf 488D0500 		leaq	testError_testNullStdRenderInstance(%rip), %rax
 1556      000000
 1557 05c6 4889C6   		movq	%rax, %rsi
 1558 05c9 488D0500 		leaq	_ZN27TestError_testNullStdRenderD1Ev(%rip), %rax
 1558      000000
 1559 05d0 4889C7   		movq	%rax, %rdi
 1560 05d3 E8000000 		call	__cxa_atexit@PLT
 1560      00
 1561 05d8 E8000000 		call	_ZN8UnitTest4Test11GetTestListEv@PLT
 1561      00
 1562 05dd 4889C1   		movq	%rax, %rcx
 1563 05e0 488D0500 		leaq	testError_testNullStdRenderInstance(%rip), %rax
 1563      000000
 1564 05e7 4889C2   		movq	%rax, %rdx
 1565 05ea 4889CE   		movq	%rcx, %rsi
 1566 05ed 488D0500 		leaq	adderError_testNullStdRender(%rip), %rax
 1566      000000
 1567 05f4 4889C7   		movq	%rax, %rdi
 1568 05f7 E8000000 		call	_ZN8UnitTest9ListAdderC1ERNS_8TestListEPNS_4TestE@PLT
 1568      00
  58:testError.cpp **** 	const char *error, *expected;
 1569              		.loc 2 58 1
 1570 05fc 488D0500 		leaq	testError_testStdRenderInstance(%rip), %rax
 1570      000000
 1571 0603 4889C7   		movq	%rax, %rdi
 1572 0606 E8000000 		call	_ZN23TestError_testStdRenderC1Ev
 1572      00
 1573 060b 488D0500 		leaq	__dso_handle(%rip), %rax
 1573      000000
 1574 0612 4889C2   		movq	%rax, %rdx
 1575 0615 488D0500 		leaq	testError_testStdRenderInstance(%rip), %rax
 1575      000000
 1576 061c 4889C6   		movq	%rax, %rsi
 1577 061f 488D0500 		leaq	_ZN23TestError_testStdRenderD1Ev(%rip), %rax
 1577      000000
 1578 0626 4889C7   		movq	%rax, %rdi
 1579 0629 E8000000 		call	__cxa_atexit@PLT
 1579      00
 1580 062e E8000000 		call	_ZN8UnitTest4Test11GetTestListEv@PLT
 1580      00
 1581 0633 4889C1   		movq	%rax, %rcx
 1582 0636 488D0500 		leaq	testError_testStdRenderInstance(%rip), %rax
 1582      000000
 1583 063d 4889C2   		movq	%rax, %rdx
 1584 0640 4889CE   		movq	%rcx, %rsi
 1585 0643 488D0500 		leaq	adderError_testStdRender(%rip), %rax
 1585      000000
 1586 064a 4889C7   		movq	%rax, %rdi
 1587 064d E8000000 		call	_ZN8UnitTest9ListAdderC1ERNS_8TestListEPNS_4TestE@PLT
 1587      00
 1588              	.L66:
 1589              		.loc 2 69 1
 1590 0652 90       		nop
 1591 0653 C9       		leave
 1592              		.cfi_def_cfa 7, 8
 1593 0654 C3       		ret
 1594              		.cfi_endproc
 1595              	.LFE1280:
 1598              	_GLOBAL__sub_I_buf:
 1599              	.LFB1281:
 1600              		.loc 2 69 1
 1601              		.cfi_startproc
 1602 0655 F30F1EFA 		endbr64
 1603 0659 55       		pushq	%rbp
 1604              		.cfi_def_cfa_offset 16
 1605              		.cfi_offset 6, -16
 1606 065a 4889E5   		movq	%rsp, %rbp
 1607              		.cfi_def_cfa_register 6
 1608              		.loc 2 69 1
 1609 065d BEFFFF00 		movl	$65535, %esi
 1609      00
 1610 0662 BF010000 		movl	$1, %edi
 1610      00
 1611 0667 E865FEFF 		call	_Z41__static_initialization_and_destruction_0ii
 1611      FF
 1612 066c 5D       		popq	%rbp
 1613              		.cfi_def_cfa 7, 8
 1614 066d C3       		ret
 1615              		.cfi_endproc
 1616              	.LFE1281:
 1618              		.section	.init_array,"aw"
 1619              		.align 8
 1620 0000 00000000 		.quad	_GLOBAL__sub_I_buf
 1620      00000000 
 1621              		.text
 1622              	.Letext0:
 1623              		.file 4 "/home/asoreyh/Dropbox/projects/lago/acqua/nexys/src/makestuff/libs/libutpp/TestDetails.h"
 1624              		.file 5 "/home/asoreyh/Dropbox/projects/lago/acqua/nexys/src/makestuff/libs/libutpp/TestList.h"
 1625              		.file 6 "/home/asoreyh/Dropbox/projects/lago/acqua/nexys/src/makestuff/libs/libutpp/Test.h"
 1626              		.file 7 "/home/asoreyh/Dropbox/projects/lago/acqua/nexys/src/makestuff/libs/libutpp/TestResults.h"
 1627              		.file 8 "/home/asoreyh/Dropbox/projects/lago/acqua/nexys/src/makestuff/libs/libutpp/CurrentTest.h"
 1628              		.file 9 "<built-in>"
 1629              		.file 10 "/usr/lib/gcc/x86_64-linux-gnu/12/include/stddef.h"
 1630              		.file 11 "/usr/include/x86_64-linux-gnu/bits/types/wint_t.h"
 1631              		.file 12 "/usr/include/x86_64-linux-gnu/bits/types/__mbstate_t.h"
 1632              		.file 13 "/usr/include/x86_64-linux-gnu/bits/types/mbstate_t.h"
 1633              		.file 14 "/usr/include/x86_64-linux-gnu/bits/types/__FILE.h"
 1634              		.file 15 "/usr/include/x86_64-linux-gnu/bits/types/struct_FILE.h"
 1635              		.file 16 "/usr/include/x86_64-linux-gnu/bits/types/FILE.h"
 1636              		.file 17 "/usr/include/c++/12/cwchar"
 1637              		.file 18 "/usr/include/c++/12/clocale"
 1638              		.file 19 "/usr/include/c++/12/cwctype"
 1639              		.file 20 "/usr/include/c++/12/cstdlib"
 1640              		.file 21 "/usr/include/c++/12/bits/std_abs.h"
 1641              		.file 22 "/usr/include/wchar.h"
 1642              		.file 23 "/usr/include/x86_64-linux-gnu/bits/types/struct_tm.h"
 1643              		.file 24 "/usr/include/x86_64-linux-gnu/c++/12/bits/c++config.h"
 1644              		.file 25 "/usr/include/c++/12/debug/debug.h"
 1645              		.file 26 "/usr/include/c++/12/bits/predefined_ops.h"
 1646              		.file 27 "/usr/include/locale.h"
 1647              		.file 28 "/usr/include/x86_64-linux-gnu/bits/types.h"
 1648              		.file 29 "/usr/include/x86_64-linux-gnu/bits/wctype-wchar.h"
 1649              		.file 30 "/usr/include/wctype.h"
 1650              		.file 31 "/usr/include/stdlib.h"
 1651              		.file 32 "/usr/include/c++/12/stdlib.h"
 1652              		.file 33 "/usr/include/c++/12/new"
 1653              		.file 34 "/usr/include/string.h"
 1654              		.file 35 "/usr/include/errno.h"
 1655              		.file 36 "/usr/include/stdio.h"
 1656              		.file 37 "../liberror.h"
 8711              		.align 8
 8714              	DW.ref.__gxx_personality_v0:
 8715 0000 00000000 		.quad	__gxx_personality_v0
 8715      00000000 
 8716              		.hidden	__dso_handle
 8717              		.ident	"GCC: (Ubuntu 12.2.0-17ubuntu1) 12.2.0"
 8718              		.section	.note.GNU-stack,"",@progbits
 8719              		.section	.note.gnu.property,"a"
 8720              		.align 8
 8721 0000 04000000 		.long	1f - 0f
 8722 0004 10000000 		.long	4f - 1f
 8723 0008 05000000 		.long	5
 8724              	0:
 8725 000c 474E5500 		.string	"GNU"
 8726              	1:
 8727              		.align 8
 8728 0010 020000C0 		.long	0xc0000002
 8729 0014 04000000 		.long	3f - 2f
 8730              	2:
 8731 0018 03000000 		.long	0x3
 8732              	3:
 8733 001c 00000000 		.align 8
 8734              	4:
DEFINED SYMBOLS
                            *ABS*:0000000000000000 testError.cpp
     /tmp/ccVXjFFJ.s:11     .text._ZN13UnitTestSuite12GetSuiteNameEv:0000000000000000 _ZN13UnitTestSuite12GetSuiteNameEv
     /tmp/ccVXjFFJ.s:36     .bss:0000000000000000 buf
     /tmp/ccVXjFFJ.s:41     .text:0000000000000000 _Z7fillBufic
     /tmp/ccVXjFFJ.s:115    .text._ZN24TestError_testNullRenderC2Ev:0000000000000000 _ZN24TestError_testNullRenderC2Ev
     /tmp/ccVXjFFJ.s:1319   .data.rel.ro.local._ZTV24TestError_testNullRender:0000000000000000 _ZTV24TestError_testNullRender
     /tmp/ccVXjFFJ.s:115    .text._ZN24TestError_testNullRenderC2Ev:0000000000000000 _ZN24TestError_testNullRenderC1Ev
     /tmp/ccVXjFFJ.s:160    .bss:0000000000000400 testError_testNullRenderInstance
     /tmp/ccVXjFFJ.s:165    .bss:0000000000000438 adderError_testNullRender
     /tmp/ccVXjFFJ.s:171    .text:0000000000000076 _ZNK24TestError_testNullRender7RunImplEv
     /tmp/ccVXjFFJ.s:208    .text._ZN20TestError_testRenderC2Ev:0000000000000000 _ZN20TestError_testRenderC2Ev
     /tmp/ccVXjFFJ.s:1206   .data.rel.ro.local._ZTV20TestError_testRender:0000000000000000 _ZTV20TestError_testRender
     /tmp/ccVXjFFJ.s:208    .text._ZN20TestError_testRenderC2Ev:0000000000000000 _ZN20TestError_testRenderC1Ev
     /tmp/ccVXjFFJ.s:253    .bss:0000000000000440 testError_testRenderInstance
     /tmp/ccVXjFFJ.s:258    .bss:0000000000000478 adderError_testRender
     /tmp/ccVXjFFJ.s:268    .text:00000000000000b2 _ZNK20TestError_testRender7RunImplEv
     /tmp/ccVXjFFJ.s:8714   .data.rel.local.DW.ref.__gxx_personality_v0:0000000000000000 DW.ref.__gxx_personality_v0
     /tmp/ccVXjFFJ.s:445    .text._ZN27TestError_testNullStdRenderC2Ev:0000000000000000 _ZN27TestError_testNullStdRenderC2Ev
     /tmp/ccVXjFFJ.s:1093   .data.rel.ro.local._ZTV27TestError_testNullStdRender:0000000000000000 _ZTV27TestError_testNullStdRender
     /tmp/ccVXjFFJ.s:445    .text._ZN27TestError_testNullStdRenderC2Ev:0000000000000000 _ZN27TestError_testNullStdRenderC1Ev
     /tmp/ccVXjFFJ.s:490    .bss:0000000000000480 testError_testNullStdRenderInstance
     /tmp/ccVXjFFJ.s:495    .bss:00000000000004b8 adderError_testNullStdRender
     /tmp/ccVXjFFJ.s:501    .text:00000000000001e4 _ZNK27TestError_testNullStdRender7RunImplEv
     /tmp/ccVXjFFJ.s:535    .text._ZN23TestError_testStdRenderC2Ev:0000000000000000 _ZN23TestError_testStdRenderC2Ev
     /tmp/ccVXjFFJ.s:980    .data.rel.ro.local._ZTV23TestError_testStdRender:0000000000000000 _ZTV23TestError_testStdRender
     /tmp/ccVXjFFJ.s:535    .text._ZN23TestError_testStdRenderC2Ev:0000000000000000 _ZN23TestError_testStdRenderC1Ev
     /tmp/ccVXjFFJ.s:580    .bss:00000000000004c0 testError_testStdRenderInstance
     /tmp/ccVXjFFJ.s:585    .bss:00000000000004f8 adderError_testStdRender
     /tmp/ccVXjFFJ.s:604    .text:0000000000000210 _ZNK23TestError_testStdRender7RunImplEv
     /tmp/ccVXjFFJ.s:953    .text._ZN8UnitTest5CheckIbEEbT_:0000000000000000 _ZN8UnitTest5CheckIbEEbT_
     /tmp/ccVXjFFJ.s:1432   .data.rel.ro._ZTI23TestError_testStdRender:0000000000000000 _ZTI23TestError_testStdRender
     /tmp/ccVXjFFJ.s:990    .text._ZN23TestError_testStdRenderD2Ev:0000000000000000 _ZN23TestError_testStdRenderD1Ev
     /tmp/ccVXjFFJ.s:1024   .text._ZN23TestError_testStdRenderD0Ev:0000000000000000 _ZN23TestError_testStdRenderD0Ev
     /tmp/ccVXjFFJ.s:990    .text._ZN23TestError_testStdRenderD2Ev:0000000000000000 _ZN23TestError_testStdRenderD2Ev
     /tmp/ccVXjFFJ.s:1448   .data.rel.ro._ZTI27TestError_testNullStdRender:0000000000000000 _ZTI27TestError_testNullStdRender
     /tmp/ccVXjFFJ.s:1103   .text._ZN27TestError_testNullStdRenderD2Ev:0000000000000000 _ZN27TestError_testNullStdRenderD1Ev
     /tmp/ccVXjFFJ.s:1137   .text._ZN27TestError_testNullStdRenderD0Ev:0000000000000000 _ZN27TestError_testNullStdRenderD0Ev
     /tmp/ccVXjFFJ.s:1103   .text._ZN27TestError_testNullStdRenderD2Ev:0000000000000000 _ZN27TestError_testNullStdRenderD2Ev
     /tmp/ccVXjFFJ.s:1464   .data.rel.ro._ZTI20TestError_testRender:0000000000000000 _ZTI20TestError_testRender
     /tmp/ccVXjFFJ.s:1216   .text._ZN20TestError_testRenderD2Ev:0000000000000000 _ZN20TestError_testRenderD1Ev
     /tmp/ccVXjFFJ.s:1250   .text._ZN20TestError_testRenderD0Ev:0000000000000000 _ZN20TestError_testRenderD0Ev
     /tmp/ccVXjFFJ.s:1216   .text._ZN20TestError_testRenderD2Ev:0000000000000000 _ZN20TestError_testRenderD2Ev
     /tmp/ccVXjFFJ.s:1480   .data.rel.ro._ZTI24TestError_testNullRender:0000000000000000 _ZTI24TestError_testNullRender
     /tmp/ccVXjFFJ.s:1329   .text._ZN24TestError_testNullRenderD2Ev:0000000000000000 _ZN24TestError_testNullRenderD1Ev
     /tmp/ccVXjFFJ.s:1363   .text._ZN24TestError_testNullRenderD0Ev:0000000000000000 _ZN24TestError_testNullRenderD0Ev
     /tmp/ccVXjFFJ.s:1329   .text._ZN24TestError_testNullRenderD2Ev:0000000000000000 _ZN24TestError_testNullRenderD2Ev
     /tmp/ccVXjFFJ.s:1441   .rodata._ZTS23TestError_testStdRender:0000000000000000 _ZTS23TestError_testStdRender
     /tmp/ccVXjFFJ.s:1457   .rodata._ZTS27TestError_testNullStdRender:0000000000000000 _ZTS27TestError_testNullStdRender
     /tmp/ccVXjFFJ.s:1473   .rodata._ZTS20TestError_testRender:0000000000000000 _ZTS20TestError_testRender
     /tmp/ccVXjFFJ.s:1489   .rodata._ZTS24TestError_testNullRender:0000000000000000 _ZTS24TestError_testNullRender
     /tmp/ccVXjFFJ.s:1493   .text:00000000000004d1 _Z41__static_initialization_and_destruction_0ii
     /tmp/ccVXjFFJ.s:1598   .text:0000000000000655 _GLOBAL__sub_I_buf
                           .group:0000000000000000 _ZN24TestError_testNullRenderC5Ev
                           .group:0000000000000000 _ZN20TestError_testRenderC5Ev
                           .group:0000000000000000 _ZN27TestError_testNullStdRenderC5Ev
                           .group:0000000000000000 _ZN23TestError_testStdRenderC5Ev
                           .group:0000000000000000 _ZN23TestError_testStdRenderD5Ev
                           .group:0000000000000000 _ZN27TestError_testNullStdRenderD5Ev
                           .group:0000000000000000 _ZN20TestError_testRenderD5Ev
                           .group:0000000000000000 _ZN24TestError_testNullRenderD5Ev

UNDEFINED SYMBOLS
_ZN8UnitTest4TestC2EPKcS2_S2_i
errRender
_ZN8UnitTest11CurrentTest7DetailsEv
_ZN8UnitTest11TestDetailsC1ERKS0_i
_ZN8UnitTest11CurrentTest7ResultsEv
_ZN8UnitTest10CheckEqualERNS_11TestResultsEPcPKcRKNS_11TestDetailsE
errFree
__cxa_begin_catch
_ZN8UnitTest11TestResults13OnTestFailureERKNS_11TestDetailsEPKc
__cxa_end_catch
_Unwind_Resume
__stack_chk_fail
__gxx_personality_v0
errRenderStd
fopen
__errno_location
strerror
_ZN8UnitTest10CheckEqualERNS_11TestResultsEPKcS3_RKNS_11TestDetailsE
_ZN8UnitTest4TestD2Ev
_ZdlPv
_ZTVN10__cxxabiv120__si_class_type_infoE
_ZTIN8UnitTest4TestE
__dso_handle
__cxa_atexit
_ZN8UnitTest4Test11GetTestListEv
_ZN8UnitTest9ListAdderC1ERNS_8TestListEPNS_4TestE
